		Time			Cycle	PC		Insn	Decoded instruction	Register and memory contents
          65000	         5	80000004	00000293	addi	x5,x0,0	  x0:0x00000000  x5=0x00000000
          75000	         6	80000008	00000313	addi	x6,x0,0	  x0:0x00000000  x6=0x00000000
          85000	         7	8000000c	00628263	beq	x5,x6,80000010	  x5:0x00000000  x6:0x00000000
          95000	         8	00000000	00000013	addi	x0,x0,0	  x0:0x00000000
         105000	         9	8000000c	00000013	addi	x0,x0,0	  x0:0x00000000
         115000	        10	80000010	00000117	auipc	x2,0x0	  x2=0x8000000c
         125000	        11	80000014	00c10113	addi	x2,x2,12	  x2:0x8000000c  x2=0x80000018
         135000	        12	80000018	00010067	jalr	x0,x2,0	  x2:0x80000018
         145000	        13	00000000	00000013	addi	x0,x0,0	  x0:0x00000000
         155000	        14	80000018	00000013	addi	x0,x0,0	  x0:0x00000000
         165000	        15	8000001c	40000837	lui	x16,0x40000	 x16=0x40000000
         175000	        16	80000020	10080813	addi	x16,x16,256	 x16:0x40000000 x16=0x40000100
         185000	        17	80000024	00000013	addi	x0,x0,0	  x0:0x00000000
         195000	        18	80000028	0000a797	auipc	x15,0xa	 x15=0x8000a024
         205000	        19	8000002c	fa078793	addi	x15,x15,-96	 x15:0x8000a024 x15=0x80009fc4
         215000	        20	80000030	00007817	auipc	x16,0x7	 x16=0x8000702c
         225000	        21	80000034	65480813	addi	x16,x16,1620	 x16:0x8000702c x16=0x80007680
         235000	        22	80000038	00186813	ori	x16,x16,1	 x16:0x80007680 x16=0x80007681
         245000	        23	8000003c	00000013	addi	x0,x0,0	  x0:0x00000000
         255000	        24	80000040	00000817	auipc	x16,0x0	 x16=0x8000003c
         265000	        25	80000044	02080813	addi	x16,x16,32	 x16:0x8000003c x16=0x8000005c
         275000	        26	80000048	00000013	addi	x0,x0,0	  x0:0x00000000
         285000	        27	8000004c	00000013	addi	x0,x0,0	  x0:0x00000000
         295000	        28	80000050	00002837	lui	x16,0x2	 x16=0x00002000
         305000	        29	80000054	80080813	addi	x16,x16,-2048	 x16:0x00002000 x16=0x00001800
         315000	        30	80000058	00000013	addi	x0,x0,0	  x0:0x00000000
         325000	        31	8000005c	00000013	addi	x0,x0,0	  x0:0x00000000
         335000	        32	80000060	c7945037	lui	x0,0xc7945	
         345000	        33	80000064	fad00013	addi	x0,x0,-83	  x0:0x00000000
         355000	        34	80000068	00000093	addi	x1,x0,0	  x0:0x00000000  x1=0x00000000
         365000	        35	8000006c	aa8dd137	lui	x2,0xaa8dd	  x2=0xaa8dd000
         375000	        36	80000070	69f10113	addi	x2,x2,1695	  x2:0xaa8dd000  x2=0xaa8dd69f
         385000	        37	80000074	ff9f71b7	lui	x3,0xff9f7	  x3=0xff9f7000
         395000	        38	80000078	94e18193	addi	x3,x3,-1714	  x3:0xff9f7000  x3=0xff9f694e
         405000	        39	8000007c	33e6f237	lui	x4,0x33e6f	  x4=0x33e6f000
         415000	        40	80000080	adc20213	addi	x4,x4,-1316	  x4:0x33e6f000  x4=0x33e6eadc
         425000	        41	80000084	800002b7	lui	x5,0x80000	  x5=0x80000000
         435000	        42	80000088	f6a1e337	lui	x6,0xf6a1e	  x6=0xf6a1e000
         445000	        43	8000008c	7e830313	addi	x6,x6,2024	  x6:0xf6a1e000  x6=0xf6a1e7e8
         455000	        44	80000090	800003b7	lui	x7,0x80000	  x7=0x80000000
         465000	        45	80000094	00200413	addi	x8,x0,2	  x0:0x00000000  x8=0x00000002
         475000	        46	80000098	800004b7	lui	x9,0x80000	  x9=0x80000000
         485000	        47	8000009c	00300513	addi	x10,x0,3	  x0:0x00000000 x10=0x00000003
         495000	        48	800000a0	7a58c5b7	lui	x11,0x7a58c	 x11=0x7a58c000
         505000	        49	800000a4	40858593	addi	x11,x11,1032	 x11:0x7a58c000 x11=0x7a58c408
         515000	        50	800000a8	80000637	lui	x12,0x80000	 x12=0x80000000
         525000	        51	800000ac	ee6ef6b7	lui	x13,0xee6ef	 x13=0xee6ef000
         535000	        52	800000b0	4d068693	addi	x13,x13,1232	 x13:0xee6ef000 x13=0xee6ef4d0
         545000	        53	800000b4	f4454737	lui	x14,0xf4454	 x14=0xf4454000
         555000	        54	800000b8	f5170713	addi	x14,x14,-175	 x14:0xf4454000 x14=0xf4453f51
         565000	        55	800000bc	00c00813	addi	x16,x0,12	  x0:0x00000000 x16=0x0000000c
         575000	        56	800000c0	feebe8b7	lui	x17,0xfeebe	 x17=0xfeebe000
         585000	        57	800000c4	b3688893	addi	x17,x17,-1226	 x17:0xfeebe000 x17=0xfeebdb36
         595000	        58	800000c8	00800913	addi	x18,x0,8	  x0:0x00000000 x18=0x00000008
         605000	        59	800000cc	00f00993	addi	x19,x0,15	  x0:0x00000000 x19=0x0000000f
         615000	        60	800000d0	00a00a13	addi	x20,x0,10	  x0:0x00000000 x20=0x0000000a
         625000	        61	800000d4	f377aab7	lui	x21,0xf377a	 x21=0xf377a000
         635000	        62	800000d8	095a8a93	addi	x21,x21,149	 x21:0xf377a000 x21=0xf377a095
         645000	        63	800000dc	00000b13	addi	x22,x0,0	  x0:0x00000000 x22=0x00000000
         655000	        64	800000e0	80000bb7	lui	x23,0x80000	 x23=0x80000000
         665000	        65	800000e4	80000c37	lui	x24,0x80000	 x24=0x80000000
         675000	        66	800000e8	00000d13	addi	x26,x0,0	  x0:0x00000000 x26=0x00000000
         685000	        67	800000ec	80000db7	lui	x27,0x80000	 x27=0x80000000
         695000	        68	800000f0	f41cce37	lui	x28,0xf41cc	 x28=0xf41cc000
         705000	        69	800000f4	5cee0e13	addi	x28,x28,1486	 x28:0xf41cc000 x28=0xf41cc5ce
         715000	        70	800000f8	80000eb7	lui	x29,0x80000	 x29=0x80000000
         725000	        71	800000fc	f3839f37	lui	x30,0xf3839	 x30=0xf3839000
         735000	        72	80000100	0fef0f13	addi	x30,x30,254	 x30:0xf3839000 x30=0xf38390fe
         745000	        73	80000104	0ecb9fb7	lui	x31,0xecb9	 x31=0x0ecb9000
         755000	        74	80000108	e74f8f93	addi	x31,x31,-396	 x31:0x0ecb9000 x31=0x0ecb8e74
         765000	        75	8000010c	0000ac97	auipc	x25,0xa	 x25=0x8000a108
         775000	        76	80000110	e7cc8c93	addi	x25,x25,-388	 x25:0x8000a108 x25=0x80009f84
         785000	        77	80000114	019d3fb3	sltu	x31,x26,x25	 x26:0x00000000 x25:0x80009f84 x31=0x00000001
         795000	        78	80000118	40935933	sra	x18,x6,x9	  x6:0xf6a1e7e8  x9:0x80000000 x18=0xf6a1e7e8
         805000	        79	8000011c	00006d97	auipc	x27,0x6	 x27=0x80006118
         815000	        80	80000120	a3cd8d93	addi	x27,x27,-1476	 x27:0x80006118 x27=0x80005b54
         825000	        81	80000124	0127c933	xor	x18,x15,x18	 x15:0x80009fc4 x18:0xf6a1e7e8 x18=0x76a1782c
         835000	        82	80000128	0107e2b3	or	x5,x15,x16	 x15:0x80009fc4 x16:0x0000000c  x5=0x80009fcc
         845000	        83	8000012c	04dd8d93	addi	x27,x27,77	 x27:0x80005b54 x27=0x80005ba1
         855000	        84	80000130	a779f293	andi	x5,x19,-1417	 x19:0x0000000f  x5=0x00000007
         865000	        85	80000134	fb3d8fe7	jalr	x31,x27,-77	 x27:0x80005ba1 x31=0x80000134
         875000	        86	00000000	00000013	addi	x0,x0,0	  x0:0x00000000
         885000	        87	80005b54	00000013	addi	x0,x0,0	  x0:0x00000000
         895000	        88	80005b58	19a83e93	sltiu	x29,x16,410	 x16:0x0000000c x29=0x00000001
         905000	        89	80005b5c	000ef033	and	x0,x29,x0	 x29:0x00000001  x0:0x00000000
         915000	        90	80005b60	01b60263	beq	x12,x27,80005b64	 x12:0x80000000 x27:0x80005ba1
         925000	        91	80005b64	fc0c8c93	addi	x25,x25,-64	 x25:0x80009f84 x25=0x80009f44
         935000	        92	80005b68	f03a0d13	addi	x26,x20,-253	 x20:0x0000000a x26=0xffffff0d
         945000	        93	80005b6c	01fca223	sw	x31,4(x25)	 x25:0x80009f44 x31:0x80000134 PA:0x80009f48
         955000	        94	80005b70	009c56b3	srl	x13,x24,x9	 x24:0x80000000  x9:0x80000000 x13=0x80000000
         965000	        95	80005b74	00000013	addi	x0,x0,0	  x0:0x00000000
         975000	        96	80005b78	00b69193	slli	x3,x13,0xb	 x13:0x80000000  x3=0x00000000
         985000	        97	80005b7c	41ff5433	sra	x8,x30,x31	 x30:0xf38390fe x31:0x80000134  x8=0xffffff38
         995000	        98	80005b80	01ab7e63	bgeu	x22,x26,80005b9c	 x22:0x00000000 x26:0xffffff0d
        1005000	        99	80005b84	1551fd93	andi	x27,x3,341	  x3:0x00000000 x27=0x00000000
        1015000	       100	80005b88	ded8f693	andi	x13,x17,-531	 x17:0xfeebdb36 x13=0xfeebd924
        1025000	       101	80005b8c	01c31f93	slli	x31,x6,0x1c	  x6:0xf6a1e7e8 x31=0x80000000
        1035000	       102	80005b90	010873b3	and	x7,x16,x16	 x16:0x0000000c x16:0x0000000c  x7=0x0000000c
        1045000	       103	80005b94	656f8597	auipc	x11,0x656f8	 x11=0xe56fdb90
        1055000	       104	80005b98	40c88b33	sub	x22,x17,x12	 x17:0xfeebdb36 x12:0x80000000 x22=0x7eebdb36
        1065000	       105	80005b9c	27100fef	jal	x31,80005b9c	 x31=0x80005b9c
        1075000	       106	00000000	00000013	addi	x0,x0,0	  x0:0x00000000
        1085000	       107	80006608	00000013	addi	x0,x0,0	  x0:0x00000000
        1095000	       108	8000660c	01922333	slt	x6,x4,x25	  x4:0x33e6eadc x25:0x80009f44  x6=0x00000000
        1105000	       109	80006610	00357663	bgeu	x10,x3,8000661c	 x10:0x00000003  x3:0x00000000
        1115000	       110	00000000	00000013	addi	x0,x0,0	  x0:0x00000000
        1125000	       111	80006618	00000013	addi	x0,x0,0	  x0:0x00000000
        1135000	       112	8000661c	fd8c8c93	addi	x25,x25,-40	 x25:0x80009f44 x25=0x80009f1c
        1145000	       113	80006620	00179213	slli	x4,x15,0x1	 x15:0x80009fc4  x4=0x00013f88
        1155000	       114	80006624	00000013	addi	x0,x0,0	  x0:0x00000000
        1165000	       115	80006628	01fca223	sw	x31,4(x25)	 x25:0x80009f1c x31:0x80005b9c PA:0x80009f20
        1175000	       116	8000662c	00858733	add	x14,x11,x8	 x11:0xe56fdb90  x8:0xffffff38 x14=0xe56fdac8
        1185000	       117	80006630	4996b193	sltiu	x3,x13,1177	 x13:0xfeebd924  x3=0x00000000
        1195000	       118	80006634	5dfcc413	xori	x8,x25,1503	 x25:0x80009f1c  x8=0x80009ac3
        1205000	       119	80006638	ffffa897	auipc	x17,0xffffa	 x17=0x80000634
        1215000	       120	8000663c	61488893	addi	x17,x17,1556	 x17:0x80000634 x17=0x80000c48
        1225000	       121	80006640	001a8933	add	x18,x21,x1	 x21:0xf377a095  x1:0x00000000 x18=0xf377a095
        1235000	       122	80006644	d0c88893	addi	x17,x17,-756	 x17:0x80000c48 x17=0x80000954
        1245000	       123	80006648	01bbea33	or	x20,x23,x27	 x23:0x80000000 x27:0x00000000 x20=0x80000000
        1255000	       124	8000664c	8ac3cf13	xori	x30,x7,-1876	  x7:0x0000000c x30=0xfffff8a0
        1265000	       125	80006650	a0d51737	lui	x14,0xa0d51	 x14=0xa0d51000
        1275000	       126	80006654	2f588fe7	jalr	x31,x17,757	 x17:0x80000954 x31=0x80006654
        1285000	       127	00000000	00000013	addi	x0,x0,0	  x0:0x00000000
        1295000	       128	80000c48	00000013	addi	x0,x0,0	  x0:0x00000000
        1305000	       129	80000c4c	013d9e63	bne	x27,x19,80000c68	 x27:0x00000000 x19:0x0000000f
        1315000	       130	00000000	00000013	addi	x0,x0,0	  x0:0x00000000
        1325000	       131	80000c64	00000013	addi	x0,x0,0	  x0:0x00000000
        1335000	       132	80000c68	fc0c8c93	addi	x25,x25,-64	 x25:0x80009f1c x25=0x80009edc
        1345000	       133	80000c6c	018f7d33	and	x26,x30,x24	 x30:0xfffff8a0 x24:0x80000000 x26=0x80000000
        1355000	       134	80000c70	405fda33	sra	x20,x31,x5	 x31:0x80006654  x5:0x00000007 x20=0xff0000cc
        1365000	       135	80000c74	01fca223	sw	x31,4(x25)	 x25:0x80009edc x31:0x80006654 PA:0x80009ee0
        1375000	       136	80000c78	3b6a3513	sltiu	x10,x20,950	 x20:0xff0000cc x10=0x00000000
        1385000	       137	80000c7c	01f31513	slli	x10,x6,0x1f	  x6:0x00000000 x10=0x00000000
        1395000	       138	80000c80	00008d17	auipc	x26,0x8	 x26=0x80008c7c
        1405000	       139	80000c84	f11d0d13	addi	x26,x26,-239	 x26:0x80008c7c x26=0x80008b8d
        1415000	       140	80000c88	40b0d1b3	sra	x3,x1,x11	  x1:0x00000000 x11:0xe56fdb90  x3=0x00000000
        1425000	       141	80000c8c	11bd5883	lhu	x17,283(x26)	 x26:0x80008b8d x17=0x00002e5d PA:0x80008ca8
        1435000	       142	80000c90	268a6593	ori	x11,x20,616	 x20:0xff0000cc x11=0xff0002ec
        1445000	       143	80000c94	67c2ab13	slti	x22,x5,1660	  x5:0x00000007 x22=0x00000001
        1455000	       144	80000c98	fffd2da3	sw	x31,-5(x26)	 x26:0x80008b8d x31:0x80006654 PA:0x80008b88
        1465000	       145	80000c9c	278d0683	lb	x13,632(x26)	 x26:0x80008b8d x13=0xffffffe5 PA:0x80008e05
        1475000	       146	80000ca0	36ad1aa3	sh	x10,885(x26)	 x26:0x80008b8d x10:0x00000000 PA:0x80008f02
        1485000	       147	80000ca4	ee2d14a3	sh	x2,-279(x26)	 x26:0x80008b8d  x2:0xaa8dd69f PA:0x80008a76
        1495000	       148	80000ca8	056d03a3	sb	x22,71(x26)	 x26:0x80008b8d x22:0x00000001 PA:0x80008bd4
        1505000	       149	80000cac	fa8d0183	lb	x3,-88(x26)	 x26:0x80008b8d  x3=0x00000015 PA:0x80008b35
        1515000	       150	80000cb0	eaad0e03	lb	x28,-342(x26)	 x26:0x80008b8d x28=0xffffffea PA:0x80008a37
        1525000	       151	80000cb4	00dbdf13	srli	x30,x23,0xd	 x23:0x80000000 x30=0x00040000
        1535000	       152	80000cb8	fc932e17	auipc	x28,0xfc932	 x28=0x7c932cb4
        1545000	       153	80000cbc	234d4f83	lbu	x31,564(x26)	 x26:0x80008b8d x31=0x000000f8 PA:0x80008dc1
        1555000	       154	80000cc0	2bd07293	andi	x5,x0,701	  x0:0x00000000  x5=0x00000000
        1565000	       155	80000cc4	1f7d0503	lb	x10,503(x26)	 x26:0x80008b8d x10=0xffffffbd PA:0x80008d84
        1575000	       156	80000cc8	edfd12a3	sh	x31,-315(x26)	 x26:0x80008b8d x31:0x000000f8 PA:0x80008a52
        1585000	       157	80000ccc	fca63f13	sltiu	x30,x12,-54	 x12:0x80000000 x30=0x00000001
        1595000	       158	80000cd0	006128b3	slt	x17,x2,x6	  x2:0xaa8dd69f  x6:0x00000000 x17=0x00000001
        1605000	       159	80000cd4	ee4d4883	lbu	x17,-284(x26)	 x26:0x80008b8d x17=0x00000071 PA:0x80008a71
        1615000	       160	80000cd8	01861fb3	sll	x31,x12,x24	 x12:0x80000000 x24:0x80000000 x31=0x80000000
        1625000	       161	80000cdc	134d0a03	lb	x20,308(x26)	 x26:0x80008b8d x20=0x0000002d PA:0x80008cc1
        1635000	       162	80000ce0	0dfd1aa3	sh	x31,213(x26)	 x26:0x80008b8d x31:0x80000000 PA:0x80008c62
        1645000	       163	80000ce4	00000013	addi	x0,x0,0	  x0:0x00000000
        1655000	       164	80000ce8	0162f033	and	x0,x5,x22	  x5:0x00000000 x22:0x00000001
        1665000	       165	80000cec	4137d1b3	sra	x3,x15,x19	 x15:0x80009fc4 x19:0x0000000f  x3=0xffff0001
        1675000	       166	80000cf0	083d1aa3	sh	x3,149(x26)	 x26:0x80008b8d  x3:0xffff0001 PA:0x80008c22
        1685000	       167	80000cf4	00008517	auipc	x10,0x8	 x10=0x80008cf0
        1695000	       168	80000cf8	01450513	addi	x10,x10,20	 x10:0x80008cf0 x10=0x80008d04
        1705000	       169	80000cfc	0097f033	and	x0,x15,x9	 x15:0x80009fc4  x9:0x80000000
        1715000	       170	80000d00	03b54b83	lbu	x23,59(x10)	 x10:0x80008d04 x23=0x00000084 PA:0x80008d3f
        1725000	       171	80000d04	f3f50b83	lb	x23,-193(x10)	 x10:0x80008d04 x23=0x0000004b PA:0x80008c43
        1735000	       172	80000d08	00000013	addi	x0,x0,0	  x0:0x00000000
        1745000	       173	80000d0c	0e8504a3	sb	x8,233(x10)	 x10:0x80008d04  x8:0x80009ac3 PA:0x80008ded
        1755000	       174	80000d10	0fb54a83	lbu	x21,251(x10)	 x10:0x80008d04 x21=0x00000033 PA:0x80008dff
        1765000	       175	80000d14	0b451383	lh	x7,180(x10)	 x10:0x80008d04  x7=0xffffa87d PA:0x80008db8
        1775000	       176	80000d18	e15d3393	sltiu	x7,x26,-491	 x26:0x80008b8d  x7=0x00000001
        1785000	       177	80000d1c	6d210093	addi	x1,x2,1746	  x2:0xaa8dd69f  x1=0xaa8ddd71
        1795000	       178	80000d20	05150803	lb	x16,81(x10)	 x10:0x80008d04 x16=0x00000060 PA:0x80008d55
        1805000	       179	00000000	00000013	addi	x0,x0,0	  x0:0x00000000
        1815000	       180	80000d24	a5012413	slti	x8,x2,-1456	  x2:0xaa8dd69f  x8=0x00000001
        1825000	       181	80000d28	f9354983	lbu	x19,-109(x10)	 x10:0x80008d04 x19=0x00000028 PA:0x80008c97
        1835000	       182	00000000	00000013	addi	x0,x0,0	  x0:0x00000000
        1845000	       183	80000d2c	013f7b33	and	x22,x30,x19	 x30:0x00000001 x19:0x00000028 x22=0x00000000
        1855000	       184	80000d30	02850ea3	sb	x8,61(x10)	 x10:0x80008d04  x8:0x00000001 PA:0x80008d41
        1865000	       185	80000d34	00bf4733	xor	x14,x30,x11	 x30:0x00000001 x11:0xff0002ec x14=0xff0002ed
        1875000	       186	80000d38	f9151523	sh	x17,-118(x10)	 x10:0x80008d04 x17:0x00000071 PA:0x80008c8e
        1885000	       187	80000d3c	00cc7333	and	x6,x24,x12	 x24:0x80000000 x12:0x80000000  x6=0x80000000
        1895000	       188	80000d40	402e8db3	sub	x27,x29,x2	 x29:0x00000001  x2:0xaa8dd69f x27=0x55722962
        1905000	       189	80000d44	fa454003	lbu	x0,-92(x10)	 x10:0x80008d04 PA:0x80008ca8
        1915000	       190	80000d48	41e351b3	sra	x3,x6,x30	  x6:0x80000000 x30:0x00000001  x3=0xc0000000
        1925000	       191	80000d4c	3dbd0b97	auipc	x23,0x3dbd0	 x23=0xbdbd0d48
        1935000	       192	80000d50	09c54d03	lbu	x26,156(x10)	 x10:0x80008d04 x26=0x00000017 PA:0x80008da0
        1945000	       193	80000d54	06354f83	lbu	x31,99(x10)	 x10:0x80008d04 x31=0x00000099 PA:0x80008d67
        1955000	       194	80000d58	05450b83	lb	x23,84(x10)	 x10:0x80008d04 x23=0xffffffb7 PA:0x80008d58
        1965000	       195	80000d5c	48be6013	ori	x0,x28,1163	 x28:0x7c932cb4
        1975000	       196	80000d60	fe050aa3	sb	x0,-11(x10)	 x10:0x80008d04  x0:0x00000000 PA:0x80008cf9
        1985000	       197	80000d64	0a750023	sb	x7,160(x10)	 x10:0x80008d04  x7:0x00000001 PA:0x80008da4
        1995000	       198	80000d68	0a851a83	lh	x21,168(x10)	 x10:0x80008d04 x21=0xffff8a09 PA:0x80008dac
        2005000	       199	80000d6c	411052b3	sra	x5,x0,x17	  x0:0x00000000 x17:0x00000071  x5=0x00000000
        2015000	       200	80000d70	fa651323	sh	x6,-90(x10)	 x10:0x80008d04  x6:0x80000000 PA:0x80008caa
        2025000	       201	80000d74	01782ab3	slt	x21,x16,x23	 x16:0x00000060 x23:0xffffffb7 x21=0x00000000
        2035000	       202	80000d78	0a354083	lbu	x1,163(x10)	 x10:0x80008d04  x1=0x00000098 PA:0x80008da7
        2045000	       203	80000d7c	00790c33	add	x24,x18,x7	 x18:0xf377a095  x7:0x00000001 x24=0xf377a096
        2055000	       204	80000d80	0b055883	lhu	x17,176(x10)	 x10:0x80008d04 x17=0x000061aa PA:0x80008db4
        2065000	       205	80000d84	0be50da3	sb	x30,187(x10)	 x10:0x80008d04 x30:0x00000001 PA:0x80008dbf
        2075000	       206	80000d88	00f50c03	lb	x24,15(x10)	 x10:0x80008d04 x24=0xffffff82 PA:0x80008d13
        2085000	       207	80000d8c	01543fb3	sltu	x31,x8,x21	  x8:0x00000001 x21:0x00000000 x31=0x00000000
        2095000	       208	80000d90	00075e33	srl	x28,x14,x0	 x14:0xff0002ed  x0:0x00000000 x28=0xff0002ed
        2105000	       209	80000d94	40e5db13	srai	x22,x11,0xe	 x11:0xff0002ec x22=0xfffffc00
        2115000	       210	80000d98	08150883	lb	x17,129(x10)	 x10:0x80008d04 x17=0xffffff88 PA:0x80008d85
        2125000	       211	80000d9c	01e54083	lbu	x1,30(x10)	 x10:0x80008d04  x1=0x000000f4 PA:0x80008d22
        2135000	       212	00000000	00000013	addi	x0,x0,0	  x0:0x00000000
        2145000	       213	80000da0	00008c17	auipc	x24,0x8	 x24=0x80008d9c
        2155000	       214	80000da4	9eac0c13	addi	x24,x24,-1558	 x24:0x80008d9c x24=0x80008786
        2165000	       215	80000da8	027c0583	lb	x11,39(x24)	 x24:0x80008786 x11=0x00000074 PA:0x800087ad
        2175000	       216	80000dac	00000013	addi	x0,x0,0	  x0:0x00000000
        2185000	       217	80000db0	ffbc0203	lb	x4,-5(x24)	 x24:0x80008786  x4=0xffffffa9 PA:0x80008781
        2195000	       218	80000db4	41d05693	srai	x13,x0,0x1d	  x0:0x00000000 x13=0x00000000
        2205000	       219	80000db8	0172d213	srli	x4,x5,0x17	  x5:0x00000000  x4=0x00000000
        2215000	       220	80000dbc	00444f33	xor	x30,x8,x4	  x8:0x00000001  x4:0x00000000 x30=0x00000001
        2225000	       221	80000dc0	fc8c0da3	sb	x8,-37(x24)	 x24:0x80008786  x8:0x00000001 PA:0x80008761
        2235000	       222	80000dc4	00c8c633	xor	x12,x17,x12	 x17:0xffffff88 x12:0x80000000 x12=0x7fffff88
        2245000	       223	80000dc8	88a9fa93	andi	x21,x19,-1910	 x19:0x00000028 x21=0x00000008
        2255000	       224	80000dcc	018c2523	sw	x24,10(x24)	 x24:0x80008786 x24:0x80008786 PA:0x80008790
        2265000	       225	80000dd0	001c43b3	xor	x7,x24,x1	 x24:0x80008786  x1:0x000000f4  x7=0x80008772
        2275000	       226	80000dd4	fddc0a23	sb	x29,-44(x24)	 x24:0x80008786 x29:0x00000001 PA:0x8000875a
        2285000	       227	80000dd8	000e9293	slli	x5,x29,0x0	 x29:0x00000001  x5=0x00000001
        2295000	       228	80000ddc	fcdc4d83	lbu	x27,-51(x24)	 x24:0x80008786 x27=0x000000d4 PA:0x80008753
        2305000	       229	80000de0	fc7c4a03	lbu	x20,-57(x24)	 x24:0x80008786 x20=0x000000d1 PA:0x8000874d
        2315000	       230	80000de4	0072feb3	and	x29,x5,x7	  x5:0x00000001  x7:0x80008772 x29=0x00000000
        2325000	       231	80000de8	fd2c1b23	sh	x18,-42(x24)	 x24:0x80008786 x18:0xf377a095 PA:0x8000875c
        2335000	       232	80000dec	7c8adf37	lui	x30,0x7c8ad	 x30=0x7c8ad000
        2345000	       233	80000df0	00d41293	slli	x5,x8,0xd	  x8:0x00000001  x5=0x00002000
        2355000	       234	80000df4	011c4b03	lbu	x22,17(x24)	 x24:0x80008786 x22=0x00000060 PA:0x80008797
        2365000	       235	80000df8	fc6c4a03	lbu	x20,-58(x24)	 x24:0x80008786 x20=0x0000007e PA:0x8000874c
        2375000	       236	80000dfc	400ad2b3	sra	x5,x21,x0	 x21:0x00000008  x0:0x00000000  x5=0x00000008
        2385000	       237	80000e00	fcec0583	lb	x11,-50(x24)	 x24:0x80008786 x11=0x00000075 PA:0x80008754
        2395000	       238	80000e04	0001de93	srli	x29,x3,0x0	  x3:0xc0000000 x29=0xc0000000
        2405000	       239	80000e08	fc2c5a83	lhu	x21,-62(x24)	 x24:0x80008786 x21=0x0000dec6 PA:0x80008748
        2415000	       240	80000e0c	026c06a3	sb	x6,45(x24)	 x24:0x80008786  x6:0x80000000 PA:0x800087b3
        2425000	       241	80000e10	403ad693	srai	x13,x21,0x3	 x21:0x0000dec6 x13=0x00001bd8
        2435000	       242	80000e14	c1b40a93	addi	x21,x8,-997	  x8:0x00000001 x21=0xfffffc1c
        2445000	       243	80000e18	fecc1023	sh	x12,-32(x24)	 x24:0x80008786 x12:0x7fffff88 PA:0x80008766
        2455000	       244	80000e1c	001679b3	and	x19,x12,x1	 x12:0x7fffff88  x1:0x000000f4 x19=0x00000080
        2465000	       245	80000e20	ff8c1d03	lh	x26,-8(x24)	 x24:0x80008786 x26=0xffff9cf2 PA:0x8000877e
        2475000	       246	80000e24	ff4c5a03	lhu	x20,-12(x24)	 x24:0x80008786 x20=0x00007760 PA:0x8000877a
        2485000	       247	80000e28	00cc0ea3	sb	x12,29(x24)	 x24:0x80008786 x12:0x7fffff88 PA:0x800087a3
        2495000	       248	80000e2c	0a5c6513	ori	x10,x24,165	 x24:0x80008786 x10=0x800087a7
        2505000	       249	80000e30	0005a633	slt	x12,x11,x0	 x11:0x00000075  x0:0x00000000 x12=0x00000000
        2515000	       250	80000e34	01dc0703	lb	x14,29(x24)	 x24:0x80008786 x14=0xffffff88 PA:0x800087a3
        2525000	       251	80000e38	017c4983	lbu	x19,23(x24)	 x24:0x80008786 x19=0x000000b0 PA:0x8000879d
        2535000	       252	80000e3c	fefc0983	lb	x19,-17(x24)	 x24:0x80008786 x19=0xffffff87 PA:0x80008775
        2545000	       253	80000e40	418780b3	sub	x1,x15,x24	 x15:0x80009fc4 x24:0x80008786  x1=0x0000183e
        2555000	       254	80000e44	bf173f13	sltiu	x30,x14,-1039	 x14:0xffffff88 x30=0x00000000
        2565000	       255	80000e48	033c0903	lb	x18,51(x24)	 x24:0x80008786 x18=0xffffffc4 PA:0x800087b9
        2575000	       256	80000e4c	01b9feb3	and	x29,x19,x27	 x19:0xffffff87 x27:0x000000d4 x29=0x00000084
        2585000	       257	80000e50	002c1623	sh	x2,12(x24)	 x24:0x80008786  x2:0xaa8dd69f PA:0x80008792
        2595000	       258	80000e54	03bc0b03	lb	x22,59(x24)	 x24:0x80008786 x22=0x0000007b PA:0x800087c1
        2605000	       259	80000e58	fc9c0083	lb	x1,-55(x24)	 x24:0x80008786  x1=0x0000007b PA:0x8000874f
        2615000	       260	80000e5c	10582037	lui	x0,0x10582	
        2625000	       261	80000e60	035c0023	sb	x21,32(x24)	 x24:0x80008786 x21:0xfffffc1c PA:0x800087a6
        2635000	       262	80000e64	22fadfb7	lui	x31,0x22fad	 x31=0x22fad000
        2645000	       263	80000e68	c5cfef37	lui	x30,0xc5cfe	 x30=0xc5cfe000
        2655000	       264	80000e6c	00000013	addi	x0,x0,0	  x0:0x00000000
        2665000	       265	80000e70	015eb033	sltu	x0,x29,x21	 x29:0x00000084 x21:0xfffffc1c
        2675000	       266	80000e74	02dc0623	sb	x13,44(x24)	 x24:0x80008786 x13:0x00001bd8 PA:0x800087b2
        2685000	       267	80000e78	00008497	auipc	x9,0x8	  x9=0x80008e74
        2695000	       268	80000e7c	fad48493	addi	x9,x9,-83	  x9:0x80008e74  x9=0x80008e21
        2705000	       269	80000e80	00677033	and	x0,x14,x6	 x14:0xffffff88  x6:0x80000000
        2715000	       270	80000e84	fc048b23	sb	x0,-42(x9)	  x9:0x80008e21  x0:0x00000000 PA:0x80008df7
        2725000	       271	80000e88	731ca813	slti	x16,x25,1841	 x25:0x80009edc x16=0x00000001
        2735000	       272	80000e8c	fe94ca83	lbu	x21,-23(x9)	  x9:0x80008e21 x21=0x00000075 PA:0x80008e0a
        2745000	       273	80000e90	00df0233	add	x4,x30,x13	 x30:0xc5cfe000 x13:0x00001bd8  x4=0xc5cffbd8
        2755000	       274	80000e94	01c15013	srli	x0,x2,0x1c	  x2:0xaa8dd69f
        2765000	       275	80000e98	404559b3	sra	x19,x10,x4	 x10:0x800087a7  x4:0xc5cffbd8 x19=0xffffff80
        2775000	       276	80000e9c	fea48a23	sb	x10,-12(x9)	  x9:0x80008e21 x10:0x800087a7 PA:0x80008e15
        2785000	       277	80000ea0	ff94a7a3	sw	x25,-17(x9)	  x9:0x80008e21 x25:0x80009edc PA:0x80008e10
        2795000	       278	80000ea4	01fd8933	add	x18,x27,x31	 x27:0x000000d4 x31:0x22fad000 x18=0x22fad0d4
        2805000	       279	80000ea8	3e23ae93	slti	x29,x7,994	  x7:0x80008772 x29=0x00000001
        2815000	       280	80000eac	fda4c403	lbu	x8,-38(x9)	  x9:0x80008e21  x8=0x00000053 PA:0x80008dfb
        2825000	       281	80000eb0	413059b3	sra	x19,x0,x19	  x0:0x00000000 x19:0xffffff80 x19=0x00000000
        2835000	       282	80000eb4	01d9ebb3	or	x23,x19,x29	 x19:0x00000000 x29:0x00000001 x23=0x00000001
        2845000	       283	80000eb8	fe8482a3	sb	x8,-27(x9)	  x9:0x80008e21  x8:0x00000053 PA:0x80008e06
        2855000	       284	80000ebc	fcd489a3	sb	x13,-45(x9)	  x9:0x80008e21 x13:0x00001bd8 PA:0x80008df4
        2865000	       285	80000ec0	037496a3	sh	x23,45(x9)	  x9:0x80008e21 x23:0x00000001 PA:0x80008e4e
        2875000	       286	80000ec4	bcfb8013	addi	x0,x23,-1073	 x23:0x00000001
        2885000	       287	80000ec8	ffc48e23	sb	x28,-4(x9)	  x9:0x80008e21 x28:0xff0002ed PA:0x80008e1d
        2895000	       288	80000ecc	0151cbb3	xor	x23,x3,x21	  x3:0xc0000000 x21:0x00000075 x23=0xc0000075
        2905000	       289	80000ed0	41ef0ab3	sub	x21,x30,x30	 x30:0xc5cfe000 x30:0xc5cfe000 x21=0x00000000
        2915000	       290	80000ed4	fd04c283	lbu	x5,-48(x9)	  x9:0x80008e21  x5=0x00000054 PA:0x80008df1
        2925000	       291	80000ed8	fdd48c23	sb	x29,-40(x9)	  x9:0x80008e21 x29:0x00000001 PA:0x80008df9
        2935000	       292	80000edc	01b0a733	slt	x14,x1,x27	  x1:0x0000007b x27:0x000000d4 x14=0x00000001
        2945000	       293	80000ee0	00448e03	lb	x28,4(x9)	  x9:0x80008e21 x28=0x00000075 PA:0x80008e25
        2955000	       294	80000ee4	00a48383	lb	x7,10(x9)	  x9:0x80008e21  x7=0x0000007c PA:0x80008e2b
        2965000	       295	80000ee8	00007497	auipc	x9,0x7	  x9=0x80007ee4
        2975000	       296	80000eec	5e848493	addi	x9,x9,1512	  x9:0x80007ee4  x9=0x800084cc
        2985000	       297	80000ef0	013045b3	xor	x11,x0,x19	  x0:0x00000000 x19:0x00000000 x11=0x00000000
        2995000	       298	80000ef4	feb48ba3	sb	x11,-9(x9)	  x9:0x800084cc x11:0x00000000 PA:0x800084c3
        3005000	       299	80000ef8	ffb48003	lb	x0,-5(x9)	  x9:0x800084cc PA:0x800084c7
        3015000	       300	80000efc	0104da83	lhu	x21,16(x9)	  x9:0x800084cc x21=0x0000021e PA:0x800084dc
        3025000	       301	80000f00	00e55d93	srli	x27,x10,0xe	 x10:0x800087a7 x27=0x00020002
        3035000	       302	80000f04	fff48d03	lb	x26,-1(x9)	  x9:0x800084cc x26=0xffffffdc PA:0x800084cb
        3045000	       303	80000f08	0014c183	lbu	x3,1(x9)	  x9:0x800084cc  x3=0x0000001d PA:0x800084cd
        3055000	       304	80000f0c	0054cd03	lbu	x26,5(x9)	  x9:0x800084cc x26=0x00000033 PA:0x800084d1
        3065000	       305	80000f10	407d8633	sub	x12,x27,x7	 x27:0x00020002  x7:0x0000007c x12=0x0001ff86
        3075000	       306	80000f14	01548423	sb	x21,8(x9)	  x9:0x800084cc x21:0x0000021e PA:0x800084d4
        3085000	       307	80000f18	00448d83	lb	x27,4(x9)	  x9:0x800084cc x27=0xffffffe6 PA:0x800084d0
        3095000	       308	80000f1c	016149b3	xor	x19,x2,x22	  x2:0xaa8dd69f x22:0x0000007b x19=0xaa8dd6e4
        3105000	       309	80000f20	01fa1c13	slli	x24,x20,0x1f	 x20:0x00007760 x24=0x00000000
        3115000	       310	80000f24	00000013	addi	x0,x0,0	  x0:0x00000000
        3125000	       311	80000f28	40d402b3	sub	x5,x8,x13	  x8:0x00000053 x13:0x00001bd8  x5=0xffffe47b
        3135000	       312	80000f2c	00648b83	lb	x23,6(x9)	  x9:0x800084cc x23=0x00000053 PA:0x800084d2
        3145000	       313	80000f30	0094c283	lbu	x5,9(x9)	  x9:0x800084cc  x5=0x00000038 PA:0x800084d5
        3155000	       314	80000f34	00c47e33	and	x28,x8,x12	  x8:0x00000053 x12:0x0001ff86 x28=0x00000002
        3165000	       315	80000f38	fe849e23	sh	x8,-4(x9)	  x9:0x800084cc  x8:0x00000053 PA:0x800084c8
        3175000	       316	80000f3c	00000013	addi	x0,x0,0	  x0:0x00000000
        3185000	       317	80000f40	ff048083	lb	x1,-16(x9)	  x9:0x800084cc  x1=0x0000005f PA:0x800084bc
        3195000	       318	80000f44	00096a33	or	x20,x18,x0	 x18:0x22fad0d4  x0:0x00000000 x20=0x22fad0d4
        3205000	       319	80000f48	00d751b3	srl	x3,x14,x13	 x14:0x00000001 x13:0x00001bd8  x3=0x00000000
        3215000	       320	80000f4c	0004da03	lhu	x20,0(x9)	  x9:0x800084cc x20=0x00001da3 PA:0x800084cc
        3225000	       321	80000f50	fee48fa3	sb	x14,-1(x9)	  x9:0x800084cc x14:0x00000001 PA:0x800084cb
        3235000	       322	80000f54	5569f313	andi	x6,x19,1366	 x19:0xaa8dd6e4  x6=0x00000444
        3245000	       323	80000f58	001b03b3	add	x7,x22,x1	 x22:0x0000007b  x1:0x0000005f  x7=0x000000da
        3255000	       324	80000f5c	51bc8f13	addi	x30,x25,1307	 x25:0x80009edc x30=0x8000a3f7
        3265000	       325	80000f60	d2018997	auipc	x19,0xd2018	 x19=0x52018f5c
        3275000	       326	80000f64	ffc4a703	lw	x14,-4(x9)	  x9:0x800084cc x14=0x01380053 PA:0x800084c8
        3285000	       327	80000f68	00d4a223	sw	x13,4(x9)	  x9:0x800084cc x13:0x00001bd8 PA:0x800084d0
        3295000	       328	80000f6c	00ca9313	slli	x6,x21,0xc	 x21:0x0000021e  x6=0x0021e000
        3305000	       329	80000f70	010283b3	add	x7,x5,x16	  x5:0x00000038 x16:0x00000001  x7=0x00000039
        3315000	       330	80000f74	01648523	sb	x22,10(x9)	  x9:0x800084cc x22:0x0000007b PA:0x800084d6
        3325000	       331	80000f78	00bbb733	sltu	x14,x23,x11	 x23:0x00000053 x11:0x00000000 x14=0x00000000
        3335000	       332	80000f7c	ff94cf03	lbu	x30,-7(x9)	  x9:0x800084cc x30=0x0000002e PA:0x800084c5
        3345000	       333	80000f80	ffc48e83	lb	x29,-4(x9)	  x9:0x800084cc x29=0x00000053 PA:0x800084c8
        3355000	       334	80000f84	ffc4c083	lbu	x1,-4(x9)	  x9:0x800084cc  x1=0x00000053 PA:0x800084c8
        3365000	       335	80000f88	40238f33	sub	x30,x7,x2	  x7:0x00000039  x2:0xaa8dd69f x30=0x5572299a
        3375000	       336	80000f8c	00148003	lb	x0,1(x9)	  x9:0x800084cc PA:0x800084cd
        3385000	       337	80000f90	01adf0b3	and	x1,x27,x26	 x27:0xffffffe6 x26:0x00000033  x1=0x00000022
        3395000	       338	80000f94	01a081b3	add	x3,x1,x26	  x1:0x00000022 x26:0x00000033  x3=0x00000055
        3405000	       339	80000f98	00f92d33	slt	x26,x18,x15	 x18:0x22fad0d4 x15:0x80009fc4 x26=0x00000000
        3415000	       340	80000f9c	ff04d903	lhu	x18,-16(x9)	  x9:0x800084cc x18=0x0000a35f PA:0x800084bc
        3425000	       341	80000fa0	feb48ba3	sb	x11,-9(x9)	  x9:0x800084cc x11:0x00000000 PA:0x800084c3
        3435000	       342	80000fa4	00007917	auipc	x18,0x7	 x18=0x80007fa0
        3445000	       343	80000fa8	56790913	addi	x18,x18,1383	 x18:0x80007fa0 x18=0x80008507
        3455000	       344	80000fac	08b93f17	auipc	x30,0x8b93	 x30=0x88b93fa8
        3465000	       345	80000fb0	00ef39b3	sltu	x19,x30,x14	 x30:0x88b93fa8 x14:0x00000000 x19=0x00000000
        3475000	       346	80000fb4	01b2e433	or	x8,x5,x27	  x5:0x00000038 x27:0xffffffe6  x8=0xfffffffe
        3485000	       347	80000fb8	f7890703	lb	x14,-136(x18)	 x18:0x80008507 x14=0x00000053 PA:0x8000847f
        3495000	       348	80000fbc	014f1313	slli	x6,x30,0x14	 x30:0x88b93fa8  x6=0xfa800000
        3505000	       349	80000fc0	6ef27693	andi	x13,x4,1775	  x4:0xc5cffbd8 x13=0x000002c8
        3515000	       350	80000fc4	f7e94e03	lbu	x28,-130(x18)	 x18:0x80008507 x28=0x00000094 PA:0x80008485
        3525000	       351	80000fc8	4011d393	srai	x7,x3,0x1	  x3:0x00000055  x7=0x0000002a
        3535000	       352	80000fcc	00290d23	sb	x2,26(x18)	 x18:0x80008507  x2:0xaa8dd69f PA:0x80008521
        3545000	       353	80000fd0	fdd90383	lb	x7,-35(x18)	 x18:0x80008507  x7=0x00000008 PA:0x800084e4
        3555000	       354	80000fd4	fdb90823	sb	x27,-48(x18)	 x18:0x80008507 x27:0xffffffe6 PA:0x800084d7
        3565000	       355	80000fd8	06290083	lb	x1,98(x18)	 x18:0x80008507  x1=0x00000044 PA:0x80008569
        3575000	       356	80000fdc	03b910a3	sh	x27,33(x18)	 x18:0x80008507 x27:0xffffffe6 PA:0x80008528
        3585000	       357	80000fe0	a53e2237	lui	x4,0xa53e2	  x4=0xa53e2000
        3595000	       358	80000fe4	01894083	lbu	x1,24(x18)	 x18:0x80008507  x1=0x000000ab PA:0x8000851f
        3605000	       359	80000fe8	f9694603	lbu	x12,-106(x18)	 x18:0x80008507 x12=0x0000004e PA:0x8000849d
        3615000	       360	80000fec	fcd92b83	lw	x23,-51(x18)	 x18:0x80008507 x23=0xe67b381e PA:0x800084d4
        3625000	       361	80000ff0	cf8ae3b7	lui	x7,0xcf8ae	  x7=0xcf8ae000
        3635000	       362	80000ff4	05890183	lb	x3,88(x18)	 x18:0x80008507  x3=0x00000013 PA:0x8000855f
        3645000	       363	80000ff8	660bab93	slti	x23,x23,1632	 x23:0xe67b381e x23=0x00000001
        3655000	       364	80000ffc	c527ab93	slti	x23,x15,-942	 x15:0x80009fc4 x23=0x00000001
        3665000	       365	80001000	408d82b3	sub	x5,x27,x8	 x27:0xffffffe6  x8:0xfffffffe  x5=0xffffffe8
        3675000	       366	80001004	07894703	lbu	x14,120(x18)	 x18:0x80008507 x14=0x0000002f PA:0x8000857f
        3685000	       367	00000000	00000013	addi	x0,x0,0	  x0:0x00000000
        3695000	       368	80001008	01374c33	xor	x24,x14,x19	 x14:0x0000002f x19:0x00000000 x24=0x0000002f
        3705000	       369	8000100c	01909693	slli	x13,x1,0x19	  x1:0x000000ab x13=0x56000000
        3715000	       370	80001010	d76a3313	sltiu	x6,x20,-650	 x20:0x00001da3  x6=0x00000001
        3725000	       371	80001014	f7d90c03	lb	x24,-131(x18)	 x18:0x80008507 x24=0xffffffc1 PA:0x80008484
        3735000	       372	80001018	40485d33	sra	x26,x16,x4	 x16:0x00000001  x4:0xa53e2000 x26=0x00000001
        3745000	       373	8000101c	e218d0b7	lui	x1,0xe218d	  x1=0xe218d000
        3755000	       374	80001020	010c1433	sll	x8,x24,x16	 x24:0xffffffc1 x16:0x00000001  x8=0xffffff82
        3765000	       375	80001024	0ac90483	lb	x9,172(x18)	 x18:0x80008507  x9=0xffffff9a PA:0x800085b3
        3775000	       376	80001028	00007097	auipc	x1,0x7	  x1=0x80008024
        3785000	       377	8000102c	51608093	addi	x1,x1,1302	  x1:0x80008024  x1=0x8000853a
        3795000	       378	80001030	91cb3713	sltiu	x14,x22,-1764	 x22:0x0000007b x14=0x00000001
        3805000	       379	80001034	c0308ca3	sb	x3,-999(x1)	  x1:0x8000853a  x3:0x00000013 PA:0x80008153
        3815000	       380	80001038	2d80d583	lhu	x11,728(x1)	  x1:0x8000853a x11=0x00005e1e PA:0x80008812
        3825000	       381	8000103c	22ccf993	andi	x19,x25,556	 x25:0x80009edc x19=0x0000020c
        3835000	       382	80001040	f85083a3	sb	x5,-121(x1)	  x1:0x8000853a  x5:0xffffffe8 PA:0x800084c1
        3845000	       383	80001044	ea40c903	lbu	x18,-348(x1)	  x1:0x8000853a x18=0x00000063 PA:0x800083de
        3855000	       384	80001048	11708903	lb	x18,279(x1)	  x1:0x8000853a x18=0x0000001a PA:0x80008651
        3865000	       385	8000104c	eb97eb93	ori	x23,x15,-327	 x15:0x80009fc4 x23=0xfffffffd
        3875000	       386	80001050	d9909c23	sh	x25,-616(x1)	  x1:0x8000853a x25:0x80009edc PA:0x800082d2
        3885000	       387	80001054	9a5f0317	auipc	x6,0x9a5f0	  x6=0x1a5f1050
        3895000	       388	80001058	002d1633	sll	x12,x26,x2	 x26:0x00000001  x2:0xaa8dd69f x12=0x80000000
        3905000	       389	8000105c	01b139b3	sltu	x19,x2,x27	  x2:0xaa8dd69f x27:0xffffffe6 x19=0x00000001
        3915000	       390	80001060	e250c683	lbu	x13,-475(x1)	  x1:0x8000853a x13=0x00000032 PA:0x8000835f
        3925000	       391	80001064	01c779b3	and	x19,x14,x28	 x14:0x00000001 x28:0x00000094 x19=0x00000000
        3935000	       392	80001068	0064d513	srli	x10,x9,0x6	  x9:0xffffff9a x10=0x03fffffe
        3945000	       393	8000106c	f370c803	lbu	x16,-201(x1)	  x1:0x8000853a x16=0x000000aa PA:0x80008471
        3955000	       394	80001070	db553d93	sltiu	x27,x10,-587	 x10:0x03fffffe x27=0x00000001
        3965000	       395	80001074	10909d23	sh	x9,282(x1)	  x1:0x8000853a  x9:0xffffff9a PA:0x80008654
        3975000	       396	80001078	087e7c13	andi	x24,x28,135	 x28:0x00000094 x24=0x00000084
        3985000	       397	8000107c	08408a83	lb	x21,132(x1)	  x1:0x8000853a x21=0x00000021 PA:0x800085be
        3995000	       398	80001080	e540d183	lhu	x3,-428(x1)	  x1:0x8000853a  x3=0x00009e27 PA:0x8000838e
        4005000	       399	00000000	00000013	addi	x0,x0,0	  x0:0x00000000
        4015000	       400	80001084	0430c803	lbu	x16,67(x1)	  x1:0x8000853a x16=0x00000047 PA:0x8000857d
        4025000	       401	80001088	406c08b3	sub	x17,x24,x6	 x24:0x00000084  x6:0x1a5f1050 x17=0xe5a0f034
        4035000	       402	8000108c	cc8080a3	sb	x8,-831(x1)	  x1:0x8000853a  x8:0xffffff82 PA:0x800081fb
        4045000	       403	80001090	0260c683	lbu	x13,38(x1)	  x1:0x8000853a x13=0x00000064 PA:0x80008560
        4055000	       404	80001094	1200dd03	lhu	x26,288(x1)	  x1:0x8000853a x26=0x000037cb PA:0x8000865a
        4065000	       405	80001098	d030c503	lbu	x10,-765(x1)	  x1:0x8000853a x10=0x000000fd PA:0x8000823d
        4075000	       406	8000109c	41695e13	srai	x28,x18,0x16	 x18:0x0000001a x28=0x00000000
        4085000	       407	800010a0	00ee6993	ori	x19,x28,14	 x28:0x00000000 x19=0x0000000e
        4095000	       408	800010a4	018e1a13	slli	x20,x28,0x18	 x28:0x00000000 x20=0x00000000
        4105000	       409	800010a8	cf046e13	ori	x28,x8,-784	  x8:0xffffff82 x28=0xfffffff2
        4115000	       410	800010ac	f8308503	lb	x10,-125(x1)	  x1:0x8000853a x10=0xffffffa3 PA:0x800084bd
        4125000	       411	800010b0	bff0c483	lbu	x9,-1025(x1)	  x1:0x8000853a  x9=0x0000007d PA:0x80008139
        4135000	       412	800010b4	00008517	auipc	x10,0x8	 x10=0x800090b0
        4145000	       413	800010b8	c9650513	addi	x10,x10,-874	 x10:0x800090b0 x10=0x80008d46
        4155000	       414	800010bc	01a5bdb3	sltu	x27,x11,x26	 x11:0x00005e1e x26:0x000037cb x27=0x00000000
        4165000	       415	800010c0	fd550603	lb	x12,-43(x10)	 x10:0x80008d46 x12=0xffffffb7 PA:0x80008d1b
        4175000	       416	800010c4	fc750aa3	sb	x7,-43(x10)	 x10:0x80008d46  x7:0xcf8ae000 PA:0x80008d1b
        4185000	       417	800010c8	fda55d83	lhu	x27,-38(x10)	 x10:0x80008d46 x27=0x00005e08 PA:0x80008d20
        4195000	       418	800010cc	84cb8e13	addi	x28,x23,-1972	 x23:0xfffffffd x28=0xfffff849
        4205000	       419	800010d0	009da033	slt	x0,x27,x9	 x27:0x00005e08  x9:0x0000007d
        4215000	       420	800010d4	fe754383	lbu	x7,-25(x10)	 x10:0x80008d46  x7=0x0000006d PA:0x80008d2d
        4225000	       421	800010d8	0105a933	slt	x18,x11,x16	 x11:0x00005e1e x16:0x00000047 x18=0x00000000
        4235000	       422	800010dc	fff50e23	sb	x31,-4(x10)	 x10:0x80008d46 x31:0x22fad000 PA:0x80008d42
        4245000	       423	800010e0	03251f23	sh	x18,62(x10)	 x10:0x80008d46 x18:0x00000000 PA:0x80008d84
        4255000	       424	800010e4	03350803	lb	x16,51(x10)	 x10:0x80008d46 x16=0xfffffff6 PA:0x80008d79
        4265000	       425	800010e8	bad20493	addi	x9,x4,-1107	  x4:0xa53e2000  x9=0xa53e1bad
        4275000	       426	800010ec	fcb54a83	lbu	x21,-53(x10)	 x10:0x80008d46 x21=0x00000013 PA:0x80008d11
        4285000	       427	800010f0	41645333	sra	x6,x8,x22	  x8:0xffffff82 x22:0x0000007b  x6=0xffffffff
        4295000	       428	800010f4	0045c9b3	xor	x19,x11,x4	 x11:0x00005e1e  x4:0xa53e2000 x19=0xa53e7e1e
        4305000	       429	800010f8	25458a93	addi	x21,x11,596	 x11:0x00005e1e x21=0x00006072
        4315000	       430	800010fc	011c81b3	add	x3,x25,x17	 x25:0x80009edc x17:0xe5a0f034  x3=0x65a18f10
        4325000	       431	80001100	fa6e3e93	sltiu	x29,x28,-90	 x28:0xfffff849 x29=0x00000001
        4335000	       432	80001104	40565d13	srai	x26,x12,0x5	 x12:0xffffffb7 x26=0xfffffffd
        4345000	       433	80001108	00000013	addi	x0,x0,0	  x0:0x00000000
        4355000	       434	8000110c	016507a3	sb	x22,15(x10)	 x10:0x80008d46 x22:0x0000007b PA:0x80008d55
        4365000	       435	80001110	ff251083	lh	x1,-14(x10)	 x10:0x80008d46  x1=0xffff9a5c PA:0x80008d38
        4375000	       436	80001114	f4dc8393	addi	x7,x25,-179	 x25:0x80009edc  x7=0x80009e29
        4385000	       437	80001118	00450aa3	sb	x4,21(x10)	 x10:0x80008d46  x4:0xa53e2000 PA:0x80008d5b
        4395000	       438	8000111c	fe754883	lbu	x17,-25(x10)	 x10:0x80008d46 x17=0x0000006d PA:0x80008d2d
        4405000	       439	80001120	8a5a9397	auipc	x7,0x8a5a9	  x7=0x0a5aa11c
        4415000	       440	80001124	01e50223	sb	x30,4(x10)	 x10:0x80008d46 x30:0x88b93fa8 PA:0x80008d4a
        4425000	       441	80001128	02150003	lb	x0,33(x10)	 x10:0x80008d46 PA:0x80008d67
        4435000	       442	8000112c	03e52523	sw	x30,42(x10)	 x10:0x80008d46 x30:0x88b93fa8 PA:0x80008d70
        4445000	       443	80001130	081abf93	sltiu	x31,x21,129	 x21:0x00006072 x31=0x00000000
        4455000	       444	80001134	03850b23	sb	x24,54(x10)	 x10:0x80008d46 x24:0x00000084 PA:0x80008d7c
        4465000	       445	80001138	000a8333	add	x6,x21,x0	 x21:0x00006072  x0:0x00000000  x6=0x00006072
        4475000	       446	8000113c	fe055283	lhu	x5,-32(x10)	 x10:0x80008d46  x5=0x00006dd1 PA:0x80008d26
        4485000	       447	80001140	fd0505a3	sb	x16,-53(x10)	 x10:0x80008d46 x16:0xfffffff6 PA:0x80008d11
        4495000	       448	80001144	ff954f83	lbu	x31,-7(x10)	 x10:0x80008d46 x31=0x00000084 PA:0x80008d3f
        4505000	       449	80001148	bf36ad13	slti	x26,x13,-1037	 x13:0x00000064 x26=0x00000000
        4515000	       450	8000114c	d0526913	ori	x18,x4,-763	  x4:0xa53e2000 x18=0xfffffd05
        4525000	       451	80001150	00511f33	sll	x30,x2,x5	  x2:0xaa8dd69f  x5:0x00006dd1 x30=0xad3e0000
        4535000	       452	80001154	00b50203	lb	x4,11(x10)	 x10:0x80008d46  x4=0x00000044 PA:0x80008d51
        4545000	       453	80001158	01650703	lb	x14,22(x10)	 x10:0x80008d46 x14=0xffffffd8 PA:0x80008d5c
        4555000	       454	8000115c	b81de893	ori	x17,x27,-1151	 x27:0x00005e08 x17=0xffffff89
        4565000	       455	80001160	02550ea3	sb	x5,61(x10)	 x10:0x80008d46  x5:0x00006dd1 PA:0x80008d83
        4575000	       456	80001164	00854083	lbu	x1,8(x10)	 x10:0x80008d46  x1=0x0000004c PA:0x80008d4e
        4585000	       457	80001168	01a78617	auipc	x12,0x1a78	 x12=0x81a79164
        4595000	       458	8000116c	01cc7333	and	x6,x24,x28	 x24:0x00000084 x28:0xfffff849  x6=0x00000000
        4605000	       459	80001170	02ef7263	bgeu	x30,x14,80001194	 x30:0xad3e0000 x14:0xffffffd8
        4615000	       460	80001174	001d3a33	sltu	x20,x26,x1	 x26:0x00000000  x1:0x0000004c x20=0x00000001
        4625000	       461	80001178	05a95263	bge	x18,x26,800011bc	 x18:0xfffffd05 x26:0x00000000
        4635000	       462	8000117c	2fe6f313	andi	x6,x13,766	 x13:0x00000064  x6=0x00000064
        4645000	       463	80001180	d517d517	auipc	x10,0xd517d	 x10=0x5517e17c
        4655000	       464	80001184	00306a33	or	x20,x0,x3	  x0:0x00000000  x3:0x65a18f10 x20=0x65a18f10
        4665000	       465	80001188	000bb733	sltu	x14,x23,x0	 x23:0xfffffffd  x0:0x00000000 x14=0x00000000
        4675000	       466	8000118c	02d01263	bne	x0,x13,800011b0	  x0:0x00000000 x13:0x00000064
        4685000	       467	00000000	00000013	addi	x0,x0,0	  x0:0x00000000
        4695000	       468	800011ac	00000013	addi	x0,x0,0	  x0:0x00000000
        4705000	       469	800011b0	0263f263	bgeu	x7,x6,800011d4	  x7:0x0a5aa11c  x6:0x00000064
        4715000	       470	00000000	00000013	addi	x0,x0,0	  x0:0x00000000
        4725000	       471	800011d0	00000013	addi	x0,x0,0	  x0:0x00000000
        4735000	       472	800011d4	013984b3	add	x9,x19,x19	 x19:0xa53e7e1e x19:0xa53e7e1e  x9=0x4a7cfc3c
        4745000	       473	800011d8	ea064093	xori	x1,x12,-352	 x12:0x81a79164  x1=0x7e586fc4
        4755000	       474	800011dc	4b6a4a93	xori	x21,x20,1206	 x20:0x65a18f10 x21=0x65a18ba6
        4765000	       475	800011e0	40538a33	sub	x20,x7,x5	  x7:0x0a5aa11c  x5:0x00006dd1 x20=0x0a5a334b
        4775000	       476	800011e4	6b77efb7	lui	x31,0x6b77e	 x31=0x6b77e000
        4785000	       477	800011e8	04f25463	bge	x4,x15,80001230	  x4:0x00000044 x15:0x80009fc4
        4795000	       478	00000000	00000013	addi	x0,x0,0	  x0:0x00000000
        4805000	       479	8000122c	00000013	addi	x0,x0,0	  x0:0x00000000
        4815000	       480	80001230	054fd663	bge	x31,x20,8000127c	 x31:0x6b77e000 x20:0x0a5a334b
        4825000	       481	00000000	00000013	addi	x0,x0,0	  x0:0x00000000
        4835000	       482	80001278	00000013	addi	x0,x0,0	  x0:0x00000000
        4845000	       483	8000127c	012cbdb3	sltu	x27,x25,x18	 x25:0x80009edc x18:0xfffffd05 x27=0x00000001
        4855000	       484	80001280	01d79633	sll	x12,x15,x29	 x15:0x80009fc4 x29:0x00000001 x12=0x00013f88
        4865000	       485	80001284	0563c463	blt	x7,x22,800012cc	  x7:0x0a5aa11c x22:0x0000007b
        4875000	       486	80001288	016132b3	sltu	x5,x2,x22	  x2:0xaa8dd69f x22:0x0000007b  x5=0x00000000
        4885000	       487	8000128c	0061d233	srl	x4,x3,x6	  x3:0x65a18f10  x6:0x00000064  x4=0x065a18f1
        4895000	       488	80001290	01519e33	sll	x28,x3,x21	  x3:0x65a18f10 x21:0x65a18ba6 x28=0x6863c400
        4905000	       489	80001294	01014863	blt	x2,x16,800012a4	  x2:0xaa8dd69f x16:0xfffffff6
        4915000	       490	00000000	00000013	addi	x0,x0,0	  x0:0x00000000
        4925000	       491	800012a0	00000013	addi	x0,x0,0	  x0:0x00000000
        4935000	       492	800012a4	003f4c33	xor	x24,x30,x3	 x30:0xad3e0000  x3:0x65a18f10 x24=0xc89f8f10
        4945000	       493	800012a8	000ad093	srli	x1,x21,0x0	 x21:0x65a18ba6  x1=0x65a18ba6
        4955000	       494	800012ac	0138d693	srli	x13,x17,0x13	 x17:0xffffff89 x13=0x00001fff
        4965000	       495	800012b0	01ee8e63	beq	x29,x30,800012cc	 x29:0x00000001 x30:0xad3e0000
        4975000	       496	800012b4	01787663	bgeu	x16,x23,800012c0	 x16:0xfffffff6 x23:0xfffffffd
        4985000	       497	800012b8	017939b3	sltu	x19,x18,x23	 x18:0xfffffd05 x23:0xfffffffd x19=0x00000001
        4995000	       498	800012bc	02255063	bge	x10,x2,800012dc	 x10:0x5517e17c  x2:0xaa8dd69f
        5005000	       499	00000000	00000013	addi	x0,x0,0	  x0:0x00000000
        5015000	       500	800012d8	00000013	addi	x0,x0,0	  x0:0x00000000
        5025000	       501	800012dc	0196c533	xor	x10,x13,x25	 x13:0x00001fff x25:0x80009edc x10=0x80008123
        5035000	       502	800012e0	0187eb33	or	x22,x15,x24	 x15:0x80009fc4 x24:0xc89f8f10 x22=0xc89f9fd4
        5045000	       503	800012e4	002f0863	beq	x30,x2,800012f4	 x30:0xad3e0000  x2:0xaa8dd69f
        5055000	       504	800012e8	009e9863	bne	x29,x9,800012f8	 x29:0x00000001  x9:0x4a7cfc3c
        5065000	       505	00000000	00000013	addi	x0,x0,0	  x0:0x00000000
        5075000	       506	800012f4	00000013	addi	x0,x0,0	  x0:0x00000000
        5085000	       507	800012f8	4167d413	srai	x8,x15,0x16	 x15:0x80009fc4  x8=0xfffffe00
        5095000	       508	800012fc	60f1e713	ori	x14,x3,1551	  x3:0x65a18f10 x14=0x65a18f1f
        5105000	       509	80001300	ed4a8993	addi	x19,x21,-300	 x21:0x65a18ba6 x19=0x65a18a7a
        5115000	       510	80001304	00000013	addi	x0,x0,0	  x0:0x00000000
        5125000	       511	80001308	01787733	and	x14,x16,x23	 x16:0xfffffff6 x23:0xfffffffd x14=0xfffffff4
        5135000	       512	8000130c	033d0c63	beq	x26,x19,80001344	 x26:0x00000000 x19:0x65a18a7a
        5145000	       513	80001310	01435193	srli	x3,x6,0x14	  x6:0x00000064  x3=0x00000000
        5155000	       514	80001314	600e6213	ori	x4,x28,1536	 x28:0x6863c400  x4=0x6863c600
        5165000	       515	80001318	40dbd093	srai	x1,x23,0xd	 x23:0xfffffffd  x1=0xffffffff
        5175000	       516	8000131c	3b718393	addi	x7,x3,951	  x3:0x00000000  x7=0x000003b7
        5185000	       517	80001320	006b3833	sltu	x16,x22,x6	 x22:0xc89f9fd4  x6:0x00000064 x16=0x00000000
        5195000	       518	80001324	2eaa2a93	slti	x21,x20,746	 x20:0x0a5a334b x21=0x00000000
        5205000	       519	80001328	012ab1b3	sltu	x3,x21,x18	 x21:0x00000000 x18:0xfffffd05  x3=0x00000001
        5215000	       520	8000132c	35c8ad13	slti	x26,x17,860	 x17:0xffffff89 x26=0x00000001
        5225000	       521	80001330	86eccc13	xori	x24,x25,-1938	 x25:0x80009edc x24=0x7fff66b2
        5235000	       522	80001334	01665b33	srl	x22,x12,x22	 x12:0x00013f88 x22:0xc89f9fd4 x22=0x00000000
        5245000	       523	80001338	af6c8417	auipc	x8,0xaf6c8	  x8=0x2f6c9334
        5255000	       524	8000133c	8a510993	addi	x19,x2,-1883	  x2:0xaa8dd69f x19=0xaa8dcf44
        5265000	       525	80001340	88b5c913	xori	x18,x11,-1909	 x11:0x00005e1e x18=0xffffa695
        5275000	       526	80001344	78b7ed13	ori	x26,x15,1931	 x15:0x80009fc4 x26=0x80009fcf
        5285000	       527	80001348	0ca40337	lui	x6,0xca40	  x6=0x0ca40000
        5295000	       528	8000134c	0b6fcc63	blt	x31,x22,80001404	 x31:0x6b77e000 x22:0x00000000
        5305000	       529	80001350	00007197	auipc	x3,0x7	  x3=0x8000834c
        5315000	       530	80001354	7ea18193	addi	x3,x3,2026	  x3:0x8000834c  x3=0x80008b36
        5325000	       531	80001358	3671ce03	lbu	x28,871(x3)	  x3:0x80008b36 x28=0x00000079 PA:0x80008e9d
        5335000	       532	8000135c	dabc8d93	addi	x27,x25,-597	 x25:0x80009edc x27=0x80009c87
        5345000	       533	80001360	00000013	addi	x0,x0,0	  x0:0x00000000
        5355000	       534	80001364	974fa293	slti	x5,x31,-1676	 x31:0x6b77e000  x5=0x00000000
        5365000	       535	80001368	1d918a03	lb	x20,473(x3)	  x3:0x80008b36 x20=0xfffffff9 PA:0x80008d0f
        5375000	       536	8000136c	00000013	addi	x0,x0,0	  x0:0x00000000
        5385000	       537	80001370	01395393	srli	x7,x18,0x13	 x18:0xffffa695  x7=0x00001fff
        5395000	       538	80001374	f9f1a923	sw	x31,-110(x3)	  x3:0x80008b36 x31:0x6b77e000 PA:0x80008ac8
        5405000	       539	80001378	00222bb3	slt	x23,x4,x2	  x4:0x6863c600  x2:0xaa8dd69f x23=0x00000000
        5415000	       540	8000137c	fee19c23	sh	x14,-8(x3)	  x3:0x80008b36 x14:0xfffffff4 PA:0x80008b2e
        5425000	       541	80001380	5a0f8a13	addi	x20,x31,1440	 x31:0x6b77e000 x20=0x6b77e5a0
        5435000	       542	80001384	4bf19423	sh	x31,1192(x3)	  x3:0x80008b36 x31:0x6b77e000 PA:0x80008fde
        5445000	       543	80001388	87376413	ori	x8,x14,-1933	 x14:0xfffffff4  x8=0xfffffff7
        5455000	       544	8000138c	3f819803	lh	x16,1016(x3)	  x3:0x80008b36 x16=0xffffb9af PA:0x80008f2e
        5465000	       545	80001390	6f555037	lui	x0,0x6f555	
        5475000	       546	80001394	21219623	sh	x18,524(x3)	  x3:0x80008b36 x18:0xffffa695 PA:0x80008d42
        5485000	       547	80001398	2c518403	lb	x8,709(x3)	  x3:0x80008b36  x8=0x00000053 PA:0x80008dfb
        5495000	       548	8000139c	003a78b3	and	x17,x20,x3	 x20:0x6b77e5a0  x3:0x80008b36 x17=0x00008120
        5505000	       549	800013a0	41b28eb3	sub	x29,x5,x27	  x5:0x00000000 x27:0x80009c87 x29=0x7fff6379
        5515000	       550	800013a4	00a88bb3	add	x23,x17,x10	 x17:0x00008120 x10:0x80008123 x23=0x80010243
        5525000	       551	800013a8	fd718803	lb	x16,-41(x3)	  x3:0x80008b36 x16=0x0000002d PA:0x80008b0d
        5535000	       552	800013ac	01d1c5b3	xor	x11,x3,x29	  x3:0x80008b36 x29:0x7fff6379 x11=0xffffe84f
        5545000	       553	800013b0	0062b233	sltu	x4,x5,x6	  x5:0x00000000  x6:0x0ca40000  x4=0x00000001
        5555000	       554	800013b4	169bd0b7	lui	x1,0x169bd	  x1=0x169bd000
        5565000	       555	800013b8	eb018403	lb	x8,-336(x3)	  x3:0x80008b36  x8=0xffffffd1 PA:0x800089e6
        5575000	       556	800013bc	2ff18283	lb	x5,767(x3)	  x3:0x80008b36  x5=0x00000076 PA:0x80008e35
        5585000	       557	800013c0	3df18e23	sb	x31,988(x3)	  x3:0x80008b36 x31:0x6b77e000 PA:0x80008f12
        5595000	       558	800013c4	21a19c03	lh	x24,538(x3)	  x3:0x80008b36 x24=0x000044f1 PA:0x80008d50
        5605000	       559	800013c8	00b940b3	xor	x1,x18,x11	 x18:0xffffa695 x11:0xffffe84f  x1=0x00004eda
        5615000	       560	800013cc	28f18a83	lb	x21,655(x3)	  x3:0x80008b36 x21=0x00000067 PA:0x80008dc5
        5625000	       561	800013d0	d791c203	lbu	x4,-647(x3)	  x3:0x80008b36  x4=0x000000cc PA:0x800088af
        5635000	       562	800013d4	fa91ce83	lbu	x29,-87(x3)	  x3:0x80008b36 x29=0x000000c6 PA:0x80008adf
        5645000	       563	800013d8	9a1b1eb7	lui	x29,0x9a1b1	 x29=0x9a1b1000
        5655000	       564	800013dc	2f4189a3	sb	x20,755(x3)	  x3:0x80008b36 x20:0x6b77e5a0 PA:0x80008e29
        5665000	       565	800013e0	4126d913	srai	x18,x13,0x12	 x13:0x00001fff x18=0x00000000
        5675000	       566	800013e4	2c618ea3	sb	x6,733(x3)	  x3:0x80008b36  x6:0x0ca40000 PA:0x80008e13
        5685000	       567	800013e8	0855eb93	ori	x23,x11,133	 x11:0xffffe84f x23=0xffffe8cf
        5695000	       568	800013ec	05535463	bge	x6,x21,80001434	  x6:0x0ca40000 x21:0x00000067
        5705000	       569	00000000	00000013	addi	x0,x0,0	  x0:0x00000000
        5715000	       570	80001430	00000013	addi	x0,x0,0	  x0:0x00000000
        5725000	       571	80001434	6a396013	ori	x0,x18,1699	 x18:0x00000000
        5735000	       572	80001438	02b14c63	blt	x2,x11,80001470	  x2:0xaa8dd69f x11:0xffffe84f
        5745000	       573	00000000	00000013	addi	x0,x0,0	  x0:0x00000000
        5755000	       574	8000146c	00000013	addi	x0,x0,0	  x0:0x00000000
        5765000	       575	80001470	4075dfb3	sra	x31,x11,x7	 x11:0xffffe84f  x7:0x00001fff x31=0xffffffff
        5775000	       576	80001474	00205613	srli	x12,x0,0x2	  x0:0x00000000 x12=0x00000000
        5785000	       577	80001478	d63c6a93	ori	x21,x24,-669	 x24:0x000044f1 x21=0xfffffdf3
        5795000	       578	8000147c	0169e633	or	x12,x19,x22	 x19:0xaa8dcf44 x22:0x00000000 x12=0xaa8dcf44
        5805000	       579	80001480	01c47b33	and	x22,x8,x28	  x8:0xffffffd1 x28:0x00000079 x22=0x00000051
        5815000	       580	80001484	00a11e13	slli	x28,x2,0xa	  x2:0xaa8dd69f x28=0x375a7c00
        5825000	       581	80001488	00f9dc63	bge	x19,x15,800014a0	 x19:0xaa8dcf44 x15:0x80009fc4
        5835000	       582	00000000	00000013	addi	x0,x0,0	  x0:0x00000000
        5845000	       583	8000149c	00000013	addi	x0,x0,0	  x0:0x00000000
        5855000	       584	800014a0	02e58063	beq	x11,x14,800014c0	 x11:0xffffe84f x14:0xfffffff4
        5865000	       585	800014a4	c7327c13	andi	x24,x4,-909	  x4:0x000000cc x24=0x00000040
        5875000	       586	800014a8	0198fd33	and	x26,x17,x25	 x17:0x00008120 x25:0x80009edc x26=0x00008000
        5885000	       587	800014ac	404352b3	sra	x5,x6,x4	  x6:0x0ca40000  x4:0x000000cc  x5=0x0000ca40
        5895000	       588	800014b0	67870e93	addi	x29,x14,1656	 x14:0xfffffff4 x29=0x0000066c
        5905000	       589	800014b4	013a8033	add	x0,x21,x19	 x21:0xfffffdf3 x19:0xaa8dcf44
        5915000	       590	800014b8	ac62b713	sltiu	x14,x5,-1338	  x5:0x0000ca40 x14=0x00000001
        5925000	       591	800014bc	01c5d013	srli	x0,x11,0x1c	 x11:0xffffe84f
        5935000	       592	800014c0	00ec33b3	sltu	x7,x24,x14	 x24:0x00000040 x14:0x00000001  x7=0x00000000
        5945000	       593	800014c4	003ef6b3	and	x13,x29,x3	 x29:0x0000066c  x3:0x80008b36 x13=0x00000224
        5955000	       594	800014c8	04d05463	bge	x0,x13,80001510	  x0:0x00000000 x13:0x00000224
        5965000	       595	800014cc	03418063	beq	x3,x20,800014ec	  x3:0x80008b36 x20:0x6b77e5a0
        5975000	       596	800014d0	009e59b3	srl	x19,x28,x9	 x28:0x375a7c00  x9:0x4a7cfc3c x19=0x00000003
        5985000	       597	800014d4	fbaa3593	sltiu	x11,x20,-70	 x20:0x6b77e5a0 x11=0x00000001
        5995000	       598	800014d8	cb28a813	slti	x16,x17,-846	 x17:0x00008120 x16=0x00000000
        6005000	       599	800014dc	03615c63	bge	x2,x22,80001514	  x2:0xaa8dd69f x22:0x00000051
        6015000	       600	800014e0	04fd8863	beq	x27,x15,80001530	 x27:0x80009c87 x15:0x80009fc4
        6025000	       601	800014e4	81550393	addi	x7,x10,-2027	 x10:0x80008123  x7=0x80007938
        6035000	       602	800014e8	009e1733	sll	x14,x28,x9	 x28:0x375a7c00  x9:0x4a7cfc3c x14=0x00000000
        6045000	       603	800014ec	00000013	addi	x0,x0,0	  x0:0x00000000
        6055000	       604	800014f0	00bd79b3	and	x19,x26,x11	 x26:0x00008000 x11:0x00000001 x19=0x00000000
        6065000	       605	800014f4	0221d263	bge	x3,x2,80001518	  x3:0x80008b36  x2:0xaa8dd69f
        6075000	       606	800014f8	6fee91b7	lui	x3,0x6fee9	  x3=0x6fee9000
        6085000	       607	800014fc	01f452b3	srl	x5,x8,x31	  x8:0xffffffd1 x31:0xffffffff  x5=0x00000001
        6095000	       608	80001500	00000013	addi	x0,x0,0	  x0:0x00000000
        6105000	       609	80001504	01e459b3	srl	x19,x8,x30	  x8:0xffffffd1 x30:0xad3e0000 x19=0xffffffd1
        6115000	       610	80001508	413a0e33	sub	x28,x20,x19	 x20:0x6b77e5a0 x19:0xffffffd1 x28=0x6b77e5cf
        6125000	       611	8000150c	01ffd663	bge	x31,x31,80001518	 x31:0xffffffff x31:0xffffffff
        6135000	       612	00000000	00000013	addi	x0,x0,0	  x0:0x00000000
        6145000	       613	80001514	00000013	addi	x0,x0,0	  x0:0x00000000
        6155000	       614	80001518	02db9263	bne	x23,x13,8000153c	 x23:0xffffe8cf x13:0x00000224
        6165000	       615	00000000	00000013	addi	x0,x0,0	  x0:0x00000000
        6175000	       616	80001538	00000013	addi	x0,x0,0	  x0:0x00000000
        6185000	       617	8000153c	016746b3	xor	x13,x14,x22	 x14:0x00000000 x22:0x00000051 x13=0x00000051
        6195000	       618	80001540	01a3d993	srli	x19,x7,0x1a	  x7:0x80007938 x19=0x00000020
        6205000	       619	80001544	03d44863	blt	x8,x29,80001574	  x8:0xffffffd1 x29:0x0000066c
        6215000	       620	00000000	00000013	addi	x0,x0,0	  x0:0x00000000
        6225000	       621	80001570	00000013	addi	x0,x0,0	  x0:0x00000000
        6235000	       622	80001574	04d54263	blt	x10,x13,800015b8	 x10:0x80008123 x13:0x00000051
        6245000	       623	00000000	00000013	addi	x0,x0,0	  x0:0x00000000
        6255000	       624	800015b4	00000013	addi	x0,x0,0	  x0:0x00000000
        6265000	       625	800015b8	03545663	bge	x8,x21,800015e4	  x8:0xffffffd1 x21:0xfffffdf3
        6275000	       626	00000000	00000013	addi	x0,x0,0	  x0:0x00000000
        6285000	       627	800015e0	00000013	addi	x0,x0,0	  x0:0x00000000
        6295000	       628	800015e4	00795813	srli	x16,x18,0x7	 x18:0x00000000 x16=0x00000000
        6305000	       629	800015e8	00f811b3	sll	x3,x16,x15	 x16:0x00000000 x15:0x80009fc4  x3=0x00000000
        6315000	       630	800015ec	40b1ddb3	sra	x27,x3,x11	  x3:0x00000000 x11:0x00000001 x27=0x00000000
        6325000	       631	800015f0	e18fff13	andi	x30,x31,-488	 x31:0xffffffff x30=0xfffffe18
        6335000	       632	800015f4	01cad4b3	srl	x9,x21,x28	 x21:0xfffffdf3 x28:0x6b77e5cf  x9=0x0001ffff
        6345000	       633	800015f8	b4e61597	auipc	x11,0xb4e61	 x11=0x34e625f4
        6355000	       634	800015fc	00000013	addi	x0,x0,0	  x0:0x00000000
        6365000	       635	80001600	01766bb3	or	x23,x12,x23	 x12:0xaa8dcf44 x23:0xffffe8cf x23=0xffffefcf
        6375000	       636	80001604	00ab1b93	slli	x23,x22,0xa	 x22:0x00000051 x23=0x00014400
        6385000	       637	80001608	0019edb3	or	x27,x19,x1	 x19:0x00000020  x1:0x00004eda x27=0x00004efa
        6395000	       638	8000160c	041cf863	bgeu	x25,x1,8000165c	 x25:0x80009edc  x1:0x00004eda
        6405000	       639	00000000	00000013	addi	x0,x0,0	  x0:0x00000000
        6415000	       640	80001658	00000013	addi	x0,x0,0	  x0:0x00000000
        6425000	       641	8000165c	0234fc63	bgeu	x9,x3,80001694	  x9:0x0001ffff  x3:0x00000000
        6435000	       642	00000000	00000013	addi	x0,x0,0	  x0:0x00000000
        6445000	       643	80001690	00000013	addi	x0,x0,0	  x0:0x00000000
        6455000	       644	80001694	b3758293	addi	x5,x11,-1225	 x11:0x34e625f4  x5=0x34e6212b
        6465000	       645	80001698	0032c8b3	xor	x17,x5,x3	  x5:0x34e6212b  x3:0x00000000 x17=0x34e6212b
        6475000	       646	8000169c	00747933	and	x18,x8,x7	  x8:0xffffffd1  x7:0x80007938 x18=0x80007910
        6485000	       647	800016a0	01ad51b3	srl	x3,x26,x26	 x26:0x00008000 x26:0x00008000  x3=0x00008000
        6495000	       648	800016a4	00287e33	and	x28,x16,x2	 x16:0x00000000  x2:0xaa8dd69f x28=0x00000000
        6505000	       649	800016a8	00d47ab3	and	x21,x8,x13	  x8:0xffffffd1 x13:0x00000051 x21=0x00000051
        6515000	       650	800016ac	019dcb33	xor	x22,x27,x25	 x27:0x00004efa x25:0x80009edc x22=0x8000d026
        6525000	       651	800016b0	00000013	addi	x0,x0,0	  x0:0x00000000
        6535000	       652	800016b4	0108bdb3	sltu	x27,x17,x16	 x17:0x34e6212b x16:0x00000000 x27=0x00000000
        6545000	       653	800016b8	01e79333	sll	x6,x15,x30	 x15:0x80009fc4 x30:0xfffffe18  x6=0xc4000000
        6555000	       654	800016bc	0101a0b3	slt	x1,x3,x16	  x3:0x00008000 x16:0x00000000  x1=0x00000000
        6565000	       655	800016c0	01e268b3	or	x17,x4,x30	  x4:0x000000cc x30:0xfffffe18 x17=0xfffffedc
        6575000	       656	800016c4	004f5e63	bge	x30,x4,800016e0	 x30:0xfffffe18  x4:0x000000cc
        6585000	       657	800016c8	0168a6b3	slt	x13,x17,x22	 x17:0xfffffedc x22:0x8000d026 x13=0x00000000
        6595000	       658	800016cc	414d5533	sra	x10,x26,x20	 x26:0x00008000 x20:0x6b77e5a0 x10=0x00008000
        6605000	       659	800016d0	41e0de33	sra	x28,x1,x30	  x1:0x00000000 x30:0xfffffe18 x28=0x00000000
        6615000	       660	800016d4	05165063	bge	x12,x17,80001714	 x12:0xaa8dcf44 x17:0xfffffedc
        6625000	       661	800016d8	415e54b3	sra	x9,x28,x21	 x28:0x00000000 x21:0x00000051  x9=0x00000000
        6635000	       662	800016dc	fc216297	auipc	x5,0xfc216	  x5=0x7c2176d8
        6645000	       663	800016e0	268f3db7	lui	x27,0x268f3	 x27=0x268f3000
        6655000	       664	800016e4	2b6e1d17	auipc	x26,0x2b6e1	 x26=0xab6e26e0
        6665000	       665	800016e8	5fdeb913	sltiu	x18,x29,1533	 x29:0x0000066c x18=0x00000000
        6675000	       666	800016ec	0175dfb3	srl	x31,x11,x23	 x11:0x34e625f4 x23:0x00014400 x31=0x34e625f4
        6685000	       667	800016f0	00e6a033	slt	x0,x13,x14	 x13:0x00000000 x14:0x00000000
        6695000	       668	800016f4	049de663	bltu	x27,x9,80001740	 x27:0x268f3000  x9:0x00000000
        6705000	       669	800016f8	eaee1337	lui	x6,0xeaee1	  x6=0xeaee1000
        6715000	       670	800016fc	019ef663	bgeu	x29,x25,80001708	 x29:0x0000066c x25:0x80009edc
        6725000	       671	80001700	855c6d13	ori	x26,x24,-1963	 x24:0x00000040 x26=0xfffff855
        6735000	       672	80001704	296eff13	andi	x30,x29,662	 x29:0x0000066c x30=0x00000204
        6745000	       673	80001708	04b97063	bgeu	x18,x11,80001748	 x18:0x00000000 x11:0x34e625f4
        6755000	       674	8000170c	ab22ff93	andi	x31,x5,-1358	  x5:0x7c2176d8 x31=0x7c217290
        6765000	       675	80001710	4003d333	sra	x6,x7,x0	  x7:0x80007938  x0:0x00000000  x6=0x80007938
        6775000	       676	80001714	017c5933	srl	x18,x24,x23	 x24:0x00000040 x23:0x00014400 x18=0x00000040
        6785000	       677	80001718	98da6a93	ori	x21,x20,-1651	 x20:0x6b77e5a0 x21=0xfffffdad
        6795000	       678	8000171c	01f8c863	blt	x17,x31,8000172c	 x17:0xfffffedc x31:0x7c217290
        6805000	       679	00000000	00000013	addi	x0,x0,0	  x0:0x00000000
        6815000	       680	80001728	00000013	addi	x0,x0,0	  x0:0x00000000
        6825000	       681	8000172c	fbe70f93	addi	x31,x14,-66	 x14:0x00000000 x31=0xffffffbe
        6835000	       682	80001730	04728063	beq	x5,x7,80001770	  x5:0x7c2176d8  x7:0x80007938
        6845000	       683	80001734	9af14fb7	lui	x31,0x9af14	 x31=0x9af14000
        6855000	       684	80001738	01f58c63	beq	x11,x31,80001750	 x11:0x34e625f4 x31:0x9af14000
        6865000	       685	8000173c	408b5db3	sra	x27,x22,x8	 x22:0x8000d026  x8:0xffffffd1 x27=0xffffc000
        6875000	       686	80001740	015372b3	and	x5,x6,x21	  x6:0x80007938 x21:0xfffffdad  x5=0x80007928
        6885000	       687	80001744	ad648613	addi	x12,x9,-1322	  x9:0x00000000 x12=0xfffffad6
        6895000	       688	80001748	026c6863	bltu	x24,x6,80001778	 x24:0x00000040  x6:0x80007938
        6905000	       689	00000000	00000013	addi	x0,x0,0	  x0:0x00000000
        6915000	       690	80001774	00000013	addi	x0,x0,0	  x0:0x00000000
        6925000	       691	80001778	01d75913	srli	x18,x14,0x1d	 x14:0x00000000 x18=0x00000000
        6935000	       692	8000177c	01dd0533	add	x10,x26,x29	 x26:0xfffff855 x29:0x0000066c x10=0xfffffec1
        6945000	       693	80001780	011b7533	and	x10,x22,x17	 x22:0x8000d026 x17:0xfffffedc x10=0x8000d004
        6955000	       694	80001784	27efc313	xori	x6,x31,638	 x31:0x9af14000  x6=0x9af1427e
        6965000	       695	80001788	6374e413	ori	x8,x9,1591	  x9:0x00000000  x8=0x00000637
        6975000	       696	8000178c	01f13a33	sltu	x20,x2,x31	  x2:0xaa8dd69f x31:0x9af14000 x20=0x00000000
        6985000	       697	80001790	00d01e93	slli	x29,x0,0xd	  x0:0x00000000 x29=0x00000000
        6995000	       698	80001794	0215dc63	bge	x11,x1,800017cc	 x11:0x34e625f4  x1:0x00000000
        7005000	       699	00000000	00000013	addi	x0,x0,0	  x0:0x00000000
        7015000	       700	800017c8	00000013	addi	x0,x0,0	  x0:0x00000000
        7025000	       701	800017cc	0115d2b3	srl	x5,x11,x17	 x11:0x34e625f4 x17:0xfffffedc  x5=0x00000003
        7035000	       702	800017d0	413b8e33	sub	x28,x23,x19	 x23:0x00014400 x19:0x00000020 x28=0x000143e0
        7045000	       703	800017d4	0011f4b3	and	x9,x3,x1	  x3:0x00008000  x1:0x00000000  x9=0x00000000
        7055000	       704	800017d8	4a4af6b7	lui	x13,0x4a4af	 x13=0x4a4af000
        7065000	       705	800017dc	001053b3	srl	x7,x0,x1	  x0:0x00000000  x1:0x00000000  x7=0x00000000
        7075000	       706	800017e0	00f82233	slt	x4,x16,x15	 x16:0x00000000 x15:0x80009fc4  x4=0x00000000
        7085000	       707	800017e4	ba5b0d13	addi	x26,x22,-1115	 x22:0x8000d026 x26=0x8000cbcb
        7095000	       708	800017e8	02b94263	blt	x18,x11,8000180c	 x18:0x00000000 x11:0x34e625f4
        7105000	       709	00000000	00000013	addi	x0,x0,0	  x0:0x00000000
        7115000	       710	80001808	00000013	addi	x0,x0,0	  x0:0x00000000
        7125000	       711	8000180c	0508d263	bge	x17,x16,80001850	 x17:0xfffffedc x16:0x00000000
        7135000	       712	80001810	b3d48b13	addi	x22,x9,-1219	  x9:0x00000000 x22=0xfffffb3d
        7145000	       713	80001814	00459c63	bne	x11,x4,8000182c	 x11:0x34e625f4  x4:0x00000000
        7155000	       714	00000000	00000013	addi	x0,x0,0	  x0:0x00000000
        7165000	       715	80001828	00000013	addi	x0,x0,0	  x0:0x00000000
        7175000	       716	8000182c	0026a533	slt	x10,x13,x2	 x13:0x4a4af000  x2:0xaa8dd69f x10=0x00000000
        7185000	       717	80001830	01575393	srli	x7,x14,0x15	 x14:0x00000000  x7=0x00000000
        7195000	       718	80001834	deb04437	lui	x8,0xdeb04	  x8=0xdeb04000
        7205000	       719	80001838	007f5fb3	srl	x31,x30,x7	 x30:0x00000204  x7:0x00000000 x31=0x00000204
        7215000	       720	8000183c	009ee4b3	or	x9,x29,x9	 x29:0x00000000  x9:0x00000000  x9=0x00000000
        7225000	       721	80001840	409e08b3	sub	x17,x28,x9	 x28:0x000143e0  x9:0x00000000 x17=0x000143e0
        7235000	       722	80001844	40d000b3	sub	x1,x0,x13	  x0:0x00000000 x13:0x4a4af000  x1=0xb5b51000
        7245000	       723	80001848	d8442b93	slti	x23,x8,-636	  x8:0xdeb04000 x23=0x00000001
        7255000	       724	8000184c	7cc58593	addi	x11,x11,1996	 x11:0x34e625f4 x11=0x34e62dc0
        7265000	       725	80001850	000d7733	and	x14,x26,x0	 x26:0x8000cbcb  x0:0x00000000 x14=0x00000000
        7275000	       726	80001854	04eb9063	bne	x23,x14,80001894	 x23:0x00000001 x14:0x00000000
        7285000	       727	00000000	00000013	addi	x0,x0,0	  x0:0x00000000
        7295000	       728	80001890	00000013	addi	x0,x0,0	  x0:0x00000000
        7305000	       729	80001894	4094dd13	srai	x26,x9,0x9	  x9:0x00000000 x26=0x00000000
        7315000	       730	80001898	0144de63	bge	x9,x20,800018b4	  x9:0x00000000 x20:0x00000000
        7325000	       731	00000000	00000013	addi	x0,x0,0	  x0:0x00000000
        7335000	       732	800018b0	00000013	addi	x0,x0,0	  x0:0x00000000
        7345000	       733	800018b4	6fbbbe93	sltiu	x29,x23,1787	 x23:0x00000001 x29=0x00000001
        7355000	       734	800018b8	001820b3	slt	x1,x16,x1	 x16:0x00000000  x1:0xb5b51000  x1=0x00000000
        7365000	       735	800018bc	003da4b3	slt	x9,x27,x3	 x27:0xffffc000  x3:0x00008000  x9=0x00000001
        7375000	       736	800018c0	01d4f2b3	and	x5,x9,x29	  x9:0x00000001 x29:0x00000001  x5=0x00000001
        7385000	       737	800018c4	417c5db3	sra	x27,x24,x23	 x24:0x00000040 x23:0x00000001 x27=0x00000020
        7395000	       738	800018c8	afd90493	addi	x9,x18,-1283	 x18:0x00000000  x9=0xfffffafd
        7405000	       739	800018cc	2a1fa013	slti	x0,x31,673	 x31:0x00000204
        7415000	       740	800018d0	41dd8233	sub	x4,x27,x29	 x27:0x00000020 x29:0x00000001  x4=0x0000001f
        7425000	       741	800018d4	01f85863	bge	x16,x31,800018e4	 x16:0x00000000 x31:0x00000204
        7435000	       742	800018d8	783f0813	addi	x16,x30,1923	 x30:0x00000204 x16=0x00000987
        7445000	       743	800018dc	01d5ceb3	xor	x29,x11,x29	 x11:0x34e62dc0 x29:0x00000001 x29=0x34e62dc1
        7455000	       744	800018e0	40818733	sub	x14,x3,x8	  x3:0x00008000  x8:0xdeb04000 x14=0x21504000
        7465000	       745	800018e4	03876693	ori	x13,x14,56	 x14:0x21504000 x13=0x21504038
        7475000	       746	800018e8	00000013	addi	x0,x0,0	  x0:0x00000000
        7485000	       747	800018ec	010259b3	srl	x19,x4,x16	  x4:0x0000001f x16:0x00000987 x19=0x00000000
        7495000	       748	800018f0	01e24833	xor	x16,x4,x30	  x4:0x0000001f x30:0x00000204 x16=0x0000021b
        7505000	       749	800018f4	000e0663	beq	x28,x0,80001900	 x28:0x000143e0  x0:0x00000000
        7515000	       750	800018f8	b1437493	andi	x9,x6,-1260	  x6:0x9af1427e  x9=0x9af14214
        7525000	       751	800018fc	009cf433	and	x8,x25,x9	 x25:0x80009edc  x9:0x9af14214  x8=0x80000214
        7535000	       752	80001900	00681093	slli	x1,x16,0x6	 x16:0x0000021b  x1=0x000086c0
        7545000	       753	80001904	00463733	sltu	x14,x12,x4	 x12:0xfffffad6  x4:0x0000001f x14=0x00000000
        7555000	       754	80001908	01f8e433	or	x8,x17,x31	 x17:0x000143e0 x31:0x00000204  x8=0x000143e4
        7565000	       755	8000190c	01440c33	add	x24,x8,x20	  x8:0x000143e4 x20:0x00000000 x24=0x000143e4
        7575000	       756	80001910	05c17463	bgeu	x2,x28,80001958	  x2:0xaa8dd69f x28:0x000143e0
        7585000	       757	00000000	00000013	addi	x0,x0,0	  x0:0x00000000
        7595000	       758	80001954	00000013	addi	x0,x0,0	  x0:0x00000000
        7605000	       759	80001958	4e922d13	slti	x26,x4,1257	  x4:0x0000001f x26=0x00000001
        7615000	       760	8000195c	4116dab3	sra	x21,x13,x17	 x13:0x21504038 x17:0x000143e0 x21=0x21504038
        7625000	       761	80001960	29ddf913	andi	x18,x27,669	 x27:0x00000020 x18=0x00000000
        7635000	       762	80001964	0040de63	bge	x1,x4,80001980	  x1:0x000086c0  x4:0x0000001f
        7645000	       763	00000000	00000013	addi	x0,x0,0	  x0:0x00000000
        7655000	       764	8000197c	00000013	addi	x0,x0,0	  x0:0x00000000
        7665000	       765	80001980	1418e693	ori	x13,x17,321	 x17:0x000143e0 x13=0x000143e1
        7675000	       766	80001984	00000013	addi	x0,x0,0	  x0:0x00000000
        7685000	       767	80001988	00000013	addi	x0,x0,0	  x0:0x00000000
        7695000	       768	8000198c	019a76b3	and	x13,x20,x25	 x20:0x00000000 x25:0x80009edc x13=0x00000000
        7705000	       769	80001990	01369933	sll	x18,x13,x19	 x13:0x00000000 x19:0x00000000 x18=0x00000000
        7715000	       770	80001994	0232c063	blt	x5,x3,800019b4	  x5:0x00000001  x3:0x00008000
        7725000	       771	00000000	00000013	addi	x0,x0,0	  x0:0x00000000
        7735000	       772	800019b0	00000013	addi	x0,x0,0	  x0:0x00000000
        7745000	       773	800019b4	02d1f063	bgeu	x3,x13,800019d4	  x3:0x00008000 x13:0x00000000
        7755000	       774	00000000	00000013	addi	x0,x0,0	  x0:0x00000000
        7765000	       775	800019d0	00000013	addi	x0,x0,0	  x0:0x00000000
        7775000	       776	800019d4	00fe89b3	add	x19,x29,x15	 x29:0x34e62dc1 x15:0x80009fc4 x19=0xb4e6cd85
        7785000	       777	800019d8	02cc6863	bltu	x24,x12,80001a08	 x24:0x000143e4 x12:0xfffffad6
        7795000	       778	00000000	00000013	addi	x0,x0,0	  x0:0x00000000
        7805000	       779	80001a04	00000013	addi	x0,x0,0	  x0:0x00000000
        7815000	       780	80001a08	02f81063	bne	x16,x15,80001a28	 x16:0x0000021b x15:0x80009fc4
        7825000	       781	00000000	00000013	addi	x0,x0,0	  x0:0x00000000
        7835000	       782	80001a24	00000013	addi	x0,x0,0	  x0:0x00000000
        7845000	       783	80001a28	00dbdf33	srl	x30,x23,x13	 x23:0x00000001 x13:0x00000000 x30=0x00000001
        7855000	       784	80001a2c	00f95233	srl	x4,x18,x15	 x18:0x00000000 x15:0x80009fc4  x4=0x00000000
        7865000	       785	80001a30	5164a293	slti	x5,x9,1302	  x9:0x9af14214  x5=0x00000001
        7875000	       786	80001a34	05ec1463	bne	x24,x30,80001a7c	 x24:0x000143e4 x30:0x00000001
        7885000	       787	00000000	00000013	addi	x0,x0,0	  x0:0x00000000
        7895000	       788	80001a78	00000013	addi	x0,x0,0	  x0:0x00000000
        7905000	       789	80001a7c	01561db3	sll	x27,x12,x21	 x12:0xfffffad6 x21:0x21504038 x27=0xd6000000
        7915000	       790	80001a80	00000013	addi	x0,x0,0	  x0:0x00000000
        7925000	       791	80001a84	011789b3	add	x19,x15,x17	 x15:0x80009fc4 x17:0x000143e0 x19=0x8001e3a4
        7935000	       792	80001a88	012a45b3	xor	x11,x20,x18	 x20:0x00000000 x18:0x00000000 x11=0x00000000
        7945000	       793	80001a8c	00007517	auipc	x10,0x7	 x10=0x80008a88
        7955000	       794	80001a90	b6d50513	addi	x10,x10,-1171	 x10:0x80008a88 x10=0x800085f5
        7965000	       795	80001a94	03f50b23	sb	x31,54(x10)	 x10:0x800085f5 x31:0x00000204 PA:0x8000862b
        7975000	       796	80001a98	014bb8b3	sltu	x17,x23,x20	 x23:0x00000001 x20:0x00000000 x17=0x00000000
        7985000	       797	80001a9c	41225213	srai	x4,x4,0x12	  x4:0x00000000  x4=0x00000000
        7995000	       798	80001aa0	00b55683	lhu	x13,11(x10)	 x10:0x800085f5 x13=0x000044b2 PA:0x80008600
        8005000	       799	80001aa4	ff8d4193	xori	x3,x26,-8	 x26:0x00000001  x3=0xfffffff9
        8015000	       800	80001aa8	01de0c33	add	x24,x28,x29	 x28:0x000143e0 x29:0x34e62dc1 x24=0x34e771a1
        8025000	       801	80001aac	40e45493	srai	x9,x8,0xe	  x8:0x000143e4  x9=0x00000005
        8035000	       802	80001ab0	4ce4ab93	slti	x23,x9,1230	  x9:0x00000005 x23=0x00000001
        8045000	       803	80001ab4	01510b33	add	x22,x2,x21	  x2:0xaa8dd69f x21:0x21504038 x22=0xcbde16d7
        8055000	       804	80001ab8	03551383	lh	x7,53(x10)	 x10:0x800085f5  x7=0x00000443 PA:0x8000862a
        8065000	       805	80001abc	400f5333	sra	x6,x30,x0	 x30:0x00000001  x0:0x00000000  x6=0x00000001
        8075000	       806	80001ac0	e0e06493	ori	x9,x0,-498	  x0:0x00000000  x9=0xfffffe0e
        8085000	       807	80001ac4	02c54683	lbu	x13,44(x10)	 x10:0x800085f5 x13=0x00000055 PA:0x80008621
        8095000	       808	80001ac8	02f50d23	sb	x15,58(x10)	 x10:0x800085f5 x15:0x80009fc4 PA:0x8000862f
        8105000	       809	80001acc	00950283	lb	x5,9(x10)	 x10:0x800085f5  x5=0xffffffff PA:0x800085fe
        8115000	       810	80001ad0	02854c03	lbu	x24,40(x10)	 x10:0x800085f5 x24=0x00000046 PA:0x8000861d
        8125000	       811	80001ad4	01c54d03	lbu	x26,28(x10)	 x10:0x800085f5 x26=0x0000009b PA:0x80008611
        8135000	       812	80001ad8	5827ea93	ori	x21,x15,1410	 x15:0x80009fc4 x21=0x80009fc6
        8145000	       813	80001adc	04054b83	lbu	x23,64(x10)	 x10:0x800085f5 x23=0x000000d9 PA:0x80008635
        8155000	       814	80001ae0	0117a2b3	slt	x5,x15,x17	 x15:0x80009fc4 x17:0x00000000  x5=0x00000001
        8165000	       815	80001ae4	ff151983	lh	x19,-15(x10)	 x10:0x800085f5 x19=0x00000d06 PA:0x800085e6
        8175000	       816	80001ae8	03554003	lbu	x0,53(x10)	 x10:0x800085f5 PA:0x8000862a
        8185000	       817	80001aec	00b52403	lw	x8,11(x10)	 x10:0x800085f5  x8=0x126844b2 PA:0x80008600
        8195000	       818	80001af0	01250e03	lb	x28,18(x10)	 x10:0x800085f5 x28=0x00000073 PA:0x80008607
        8205000	       819	80001af4	410c0e33	sub	x28,x24,x16	 x24:0x00000046 x16:0x0000021b x28=0xfffffe2b
        8215000	       820	80001af8	01dc1933	sll	x18,x24,x29	 x24:0x00000046 x29:0x34e62dc1 x18=0x0000008c
        8225000	       821	80001afc	01e54e03	lbu	x28,30(x10)	 x10:0x800085f5 x28=0x0000007e PA:0x80008613
        8235000	       822	80001b00	03550f83	lb	x31,53(x10)	 x10:0x800085f5 x31=0x00000043 PA:0x8000862a
        8245000	       823	80001b04	01250123	sb	x18,2(x10)	 x10:0x800085f5 x18:0x0000008c PA:0x800085f7
        8255000	       824	80001b08	007f5233	srl	x4,x30,x7	 x30:0x00000001  x7:0x00000443  x4=0x00000000
        8265000	       825	80001b0c	fe752e03	lw	x28,-25(x10)	 x10:0x800085f5 x28=0x46b05d67 PA:0x800085dc
        8275000	       826	80001b10	018326b3	slt	x13,x6,x24	  x6:0x00000001 x24:0x00000046 x13=0x00000001
        8285000	       827	80001b14	ffc54583	lbu	x11,-4(x10)	 x10:0x800085f5 x11=0x00000027 PA:0x800085f1
        8295000	       828	80001b18	fda54883	lbu	x17,-38(x10)	 x10:0x800085f5 x17=0x00000097 PA:0x800085cf
        8305000	       829	80001b1c	fe450f23	sb	x4,-2(x10)	 x10:0x800085f5  x4:0x00000000 PA:0x800085f3
        8315000	       830	80001b20	70a33017	auipc	x0,0x70a33	
        8325000	       831	80001b24	018eee33	or	x28,x29,x24	 x29:0x34e62dc1 x24:0x00000046 x28=0x34e62dc7
        8335000	       832	80001b28	00000013	addi	x0,x0,0	  x0:0x00000000
        8345000	       833	80001b2c	03755a03	lhu	x20,55(x10)	 x10:0x800085f5 x20=0x0000b69c PA:0x8000862c
        8355000	       834	00000000	00000013	addi	x0,x0,0	  x0:0x00000000
        8365000	       835	80001b30	83ca2b37	lui	x22,0x83ca2	 x22=0x83ca2000
        8375000	       836	80001b34	41e5d693	srai	x13,x11,0x1e	 x11:0x00000027 x13=0x00000000
        8385000	       837	80001b38	00889333	sll	x6,x17,x8	 x17:0x00000097  x8:0x126844b2  x6=0x025c0000
        8395000	       838	80001b3c	ffd51aa3	sh	x29,-11(x10)	 x10:0x800085f5 x29:0x34e62dc1 PA:0x800085ea
        8405000	       839	80001b40	269e3317	auipc	x6,0x269e3	  x6=0xa69e4b3c
        8415000	       840	80001b44	40e8d1b3	sra	x3,x17,x14	 x17:0x00000097 x14:0x00000000  x3=0x00000097
        8425000	       841	80001b48	d070a293	slti	x5,x1,-761	  x1:0x000086c0  x5=0x00000000
        8435000	       842	80001b4c	01e590b3	sll	x1,x11,x30	 x11:0x00000027 x30:0x00000001  x1=0x0000004e
        8445000	       843	80001b50	14390193	addi	x3,x18,323	 x18:0x0000008c  x3=0x000001cf
        8455000	       844	80001b54	0bef6eb7	lui	x29,0xbef6	 x29=0x0bef6000
        8465000	       845	80001b58	02d54f83	lbu	x31,45(x10)	 x10:0x800085f5 x31=0x00000068 PA:0x80008622
        8475000	       846	80001b5c	03c54583	lbu	x11,60(x10)	 x10:0x800085f5 x11=0x000000c4 PA:0x80008631
        8485000	       847	80001b60	02950183	lb	x3,41(x10)	 x10:0x800085f5  x3=0x00000072 PA:0x8000861e
        8495000	       848	80001b64	00405eb3	srl	x29,x0,x4	  x0:0x00000000  x4:0x00000000 x29=0x00000000
        8505000	       849	80001b68	03d18263	beq	x3,x29,80001b8c	  x3:0x00000072 x29:0x00000000
        8515000	       850	80001b6c	00a6cf33	xor	x30,x13,x10	 x13:0x00000000 x10:0x800085f5 x30=0x800085f5
        8525000	       851	80001b70	7fefb513	sltiu	x10,x31,2046	 x31:0x00000068 x10=0x00000001
        8535000	       852	80001b74	010b96b3	sll	x13,x23,x16	 x23:0x000000d9 x16:0x0000021b x13=0xc8000000
        8545000	       853	80001b78	f19b0a93	addi	x21,x22,-231	 x22:0x83ca2000 x21=0x83ca1f19
        8555000	       854	80001b7c	47977993	andi	x19,x14,1145	 x14:0x00000000 x19=0x00000000
        8565000	       855	80001b80	015d65b3	or	x11,x26,x21	 x26:0x0000009b x21:0x83ca1f19 x11=0x83ca1f9b
        8575000	       856	80001b84	00bcdf33	srl	x30,x25,x11	 x25:0x80009edc x11:0x83ca1f9b x30=0x00000010
        8585000	       857	80001b88	481ce213	ori	x4,x25,1153	 x25:0x80009edc  x4=0x80009edd
        8595000	       858	80001b8c	99b4e993	ori	x19,x9,-1637	  x9:0xfffffe0e x19=0xffffff9f
        8605000	       859	80001b90	410e8533	sub	x10,x29,x16	 x29:0x00000000 x16:0x0000021b x10=0xfffffde5
        8615000	       860	80001b94	030f9263	bne	x31,x16,80001bb8	 x31:0x00000068 x16:0x0000021b
        8625000	       861	00000000	00000013	addi	x0,x0,0	  x0:0x00000000
        8635000	       862	80001bb4	00000013	addi	x0,x0,0	  x0:0x00000000
        8645000	       863	80001bb8	40ce5db3	sra	x27,x28,x12	 x28:0x34e62dc7 x12:0xfffffad6 x27=0x000000d3
        8655000	       864	80001bbc	00ebd693	srli	x13,x23,0xe	 x23:0x000000d9 x13=0x00000000
        8665000	       865	80001bc0	0041de63	bge	x3,x4,80001bdc	  x3:0x00000072  x4:0x80009edd
        8675000	       866	00000000	00000013	addi	x0,x0,0	  x0:0x00000000
        8685000	       867	80001bd8	00000013	addi	x0,x0,0	  x0:0x00000000
        8695000	       868	80001bdc	076bb693	sltiu	x13,x23,118	 x23:0x000000d9 x13=0x00000000
        8705000	       869	80001be0	01179413	slli	x8,x15,0x11	 x15:0x80009fc4  x8=0x3f880000
        8715000	       870	80001be4	3447bc13	sltiu	x24,x15,836	 x15:0x80009fc4 x24=0x00000000
        8725000	       871	80001be8	00614c63	blt	x2,x6,80001c00	  x2:0xaa8dd69f  x6:0xa69e4b3c
        8735000	       872	80001bec	02177063	bgeu	x14,x1,80001c0c	 x14:0x00000000  x1:0x0000004e
        8745000	       873	80001bf0	011db5b3	sltu	x11,x27,x17	 x27:0x000000d3 x17:0x00000097 x11=0x00000000
        8755000	       874	80001bf4	01b5d413	srli	x8,x11,0x1b	 x11:0x00000000  x8=0x00000000
        8765000	       875	80001bf8	40768733	sub	x14,x13,x7	 x13:0x00000000  x7:0x00000443 x14=0xfffffbbd
        8775000	       876	80001bfc	05534863	blt	x6,x21,80001c4c	  x6:0xa69e4b3c x21:0x83ca1f19
        8785000	       877	80001c00	0137e6b3	or	x13,x15,x19	 x15:0x80009fc4 x19:0xffffff9f x13=0xffffffdf
        8795000	       878	80001c04	01fd6663	bltu	x26,x31,80001c10	 x26:0x0000009b x31:0x00000068
        8805000	       879	80001c08	5e052913	slti	x18,x10,1504	 x10:0xfffffde5 x18=0x00000001
        8815000	       880	80001c0c	00936463	bltu	x6,x9,80001c14	  x6:0xa69e4b3c  x9:0xfffffe0e
        8825000	       881	00000000	00000013	addi	x0,x0,0	  x0:0x00000000
        8835000	       882	80001c10	00000013	addi	x0,x0,0	  x0:0x00000000
        8845000	       883	80001c14	40d6da33	sra	x20,x13,x13	 x13:0xffffffdf x13:0xffffffdf x20=0xffffffff
        8855000	       884	80001c18	00a69633	sll	x12,x13,x10	 x13:0xffffffdf x10:0xfffffde5 x12=0xfffffbe0
        8865000	       885	80001c1c	01f95c33	srl	x24,x18,x31	 x18:0x00000001 x31:0x00000068 x24=0x00000000
        8875000	       886	80001c20	40d8db33	sra	x22,x17,x13	 x17:0x00000097 x13:0xffffffdf x22=0x00000000
        8885000	       887	80001c24	96f2ba13	sltiu	x20,x5,-1681	  x5:0x00000000 x20=0x00000001
        8895000	       888	80001c28	00000013	addi	x0,x0,0	  x0:0x00000000
        8905000	       889	80001c2c	1b0de513	ori	x10,x27,432	 x27:0x000000d3 x10=0x000001f3
        8915000	       890	80001c30	01936e63	bltu	x6,x25,80001c4c	  x6:0xa69e4b3c x25:0x80009edc
        8925000	       891	80001c34	c899ab93	slti	x23,x19,-887	 x19:0xffffff9f x23=0x00000000
        8935000	       892	80001c38	1bb62597	auipc	x11,0x1bb62	 x11=0x9bb63c34
        8945000	       893	80001c3c	ff2e7013	andi	x0,x28,-14	 x28:0x34e62dc7
        8955000	       894	80001c40	01733f33	sltu	x30,x6,x23	  x6:0xa69e4b3c x23:0x00000000 x30=0x00000000
        8965000	       895	80001c44	0048d5b3	srl	x11,x17,x4	 x17:0x00000097  x4:0x80009edd x11=0x00000000
        8975000	       896	80001c48	044b6063	bltu	x22,x4,80001c88	 x22:0x00000000  x4:0x80009edd
        8985000	       897	00000000	00000013	addi	x0,x0,0	  x0:0x00000000
        8995000	       898	80001c84	00000013	addi	x0,x0,0	  x0:0x00000000
        9005000	       899	80001c88	643bca93	xori	x21,x23,1603	 x23:0x00000000 x21=0x00000643
        9015000	       900	80001c8c	c5941f97	auipc	x31,0xc5941	 x31=0x45942c88
        9025000	       901	80001c90	00e9f933	and	x18,x19,x14	 x19:0xffffff9f x14:0xfffffbbd x18=0xfffffb9d
        9035000	       902	80001c94	414152b3	sra	x5,x2,x20	  x2:0xaa8dd69f x20:0x00000001  x5=0xd546eb4f
        9045000	       903	80001c98	a6ee2693	slti	x13,x28,-1426	 x28:0x34e62dc7 x13=0x00000000
        9055000	       904	80001c9c	01d24f33	xor	x30,x4,x29	  x4:0x80009edd x29:0x00000000 x30=0x80009edd
        9065000	       905	80001ca0	0017cbb3	xor	x23,x15,x1	 x15:0x80009fc4  x1:0x0000004e x23=0x80009f8a
        9075000	       906	80001ca4	40015e33	sra	x28,x2,x0	  x2:0xaa8dd69f  x0:0x00000000 x28=0xaa8dd69f
        9085000	       907	80001ca8	40670733	sub	x14,x14,x6	 x14:0xfffffbbd  x6:0xa69e4b3c x14=0x5961b081
        9095000	       908	80001cac	01311c13	slli	x24,x2,0x13	  x2:0xaa8dd69f x24=0xb4f80000
        9105000	       909	80001cb0	0190c0b3	xor	x1,x1,x25	  x1:0x0000004e x25:0x80009edc  x1=0x80009e92
        9115000	       910	80001cb4	00001d97	auipc	x27,0x1	 x27=0x80002cb0
        9125000	       911	80001cb8	a84d8d93	addi	x27,x27,-1404	 x27:0x80002cb0 x27=0x80002734
        9135000	       912	80001cbc	25496593	ori	x11,x18,596	 x18:0xfffffb9d x11=0xfffffbdd
        9145000	       913	80001cc0	006e74b3	and	x9,x28,x6	 x28:0xaa8dd69f  x6:0xa69e4b3c  x9=0xa28c421c
        9155000	       914	80001cc4	005b42b3	xor	x5,x22,x5	 x22:0x00000000  x5:0xd546eb4f  x5=0xd546eb4f
        9165000	       915	80001cc8	00321733	sll	x14,x4,x3	  x4:0x80009edd  x3:0x00000072 x14=0x7b740000
        9175000	       916	80001ccc	decd8d93	addi	x27,x27,-532	 x27:0x80002734 x27=0x80002520
        9185000	       917	80001cd0	01515663	bge	x2,x21,80001cdc	  x2:0xaa8dd69f x21:0x00000643
        9195000	       918	80001cd4	01bcda13	srli	x20,x25,0x1b	 x25:0x80009edc x20=0x00000010
        9205000	       919	80001cd8	40ac8eb3	sub	x29,x25,x10	 x25:0x80009edc x10:0x000001f3 x29=0x80009ce9
        9215000	       920	80001cdc	214d8fe7	jalr	x31,x27,532	 x27:0x80002520 x31=0x80001cdc
        9225000	       921	00000000	00000013	addi	x0,x0,0	  x0:0x00000000
        9235000	       922	80002734	00000013	addi	x0,x0,0	  x0:0x00000000
        9245000	       923	80002738	01a99863	bne	x19,x26,80002748	 x19:0xffffff9f x26:0x0000009b
        9255000	       924	00000000	00000013	addi	x0,x0,0	  x0:0x00000000
        9265000	       925	80002744	00000013	addi	x0,x0,0	  x0:0x00000000
        9275000	       926	80002748	fe0c8c93	addi	x25,x25,-32	 x25:0x80009edc x25=0x80009ebc
        9285000	       927	8000274c	01fca223	sw	x31,4(x25)	 x25:0x80009ebc x31:0x80001cdc PA:0x80009ec0
        9295000	       928	80002750	01904733	xor	x14,x0,x25	  x0:0x00000000 x25:0x80009ebc x14=0x80009ebc
        9305000	       929	80002754	00004717	auipc	x14,0x4	 x14=0x80006750
        9315000	       930	80002758	e3470713	addi	x14,x14,-460	 x14:0x80006750 x14=0x80006584
        9325000	       931	8000275c	1e3f8993	addi	x19,x31,483	 x31:0x80001cdc x19=0x80001ebf
        9335000	       932	80002760	d1d70713	addi	x14,x14,-739	 x14:0x80006584 x14=0x800062a1
        9345000	       933	80002764	1655fe17	auipc	x28,0x1655f	 x28=0x96561760
        9355000	       934	80002768	00e44f33	xor	x30,x8,x14	  x8:0x00000000 x14:0x800062a1 x30=0x800062a1
        9365000	       935	8000276c	04967393	andi	x7,x12,73	 x12:0xfffffbe0  x7=0x00000040
        9375000	       936	80002770	4104d2b3	sra	x5,x9,x16	  x9:0xa28c421c x16:0x0000021b  x5=0xfffffff4
        9385000	       937	80002774	2e470fe7	jalr	x31,x14,740	 x14:0x800062a1 x31=0x80002774
        9395000	       938	00000000	00000013	addi	x0,x0,0	  x0:0x00000000
        9405000	       939	80006584	00000013	addi	x0,x0,0	  x0:0x00000000
        9415000	       940	80006588	fc8c8c93	addi	x25,x25,-56	 x25:0x80009ebc x25=0x80009e84
        9425000	       941	8000658c	015f28b3	slt	x17,x30,x21	 x30:0x800062a1 x21:0x00000643 x17=0x00000001
        9435000	       942	80006590	01fca223	sw	x31,4(x25)	 x25:0x80009e84 x31:0x80002774 PA:0x80009e88
        9445000	       943	80006594	41e6d3b3	sra	x7,x13,x30	 x13:0x00000000 x30:0x800062a1  x7=0x00000000
        9455000	       944	80006598	01b61513	slli	x10,x12,0x1b	 x12:0xfffffbe0 x10=0x00000000
        9465000	       945	8000659c	403c8833	sub	x16,x25,x3	 x25:0x80009e84  x3:0x00000072 x16=0x80009e12
        9475000	       946	800065a0	01efdf33	srl	x30,x31,x30	 x31:0x80002774 x30:0x800062a1 x30=0x400013ba
        9485000	       947	800065a4	01b94a33	xor	x20,x18,x27	 x18:0xfffffb9d x27:0x80002520 x20=0x7fffdebd
        9495000	       948	800065a8	dfac8db7	lui	x27,0xdfac8	 x27=0xdfac8000
        9505000	       949	800065ac	1cfab413	sltiu	x8,x21,463	 x21:0x00000643  x8=0x00000000
        9515000	       950	800065b0	0a2a1a97	auipc	x21,0xa2a1	 x21=0x8a2a75ac
        9525000	       951	800065b4	f4b73913	sltiu	x18,x14,-181	 x14:0x800062a1 x18=0x00000001
        9535000	       952	800065b8	00914993	xori	x19,x2,9	  x2:0xaa8dd69f x19=0xaa8dd696
        9545000	       953	800065bc	007fb833	sltu	x16,x31,x7	 x31:0x80002774  x7:0x00000000 x16=0x00000000
        9555000	       954	800065c0	025f4263	blt	x30,x5,800065e4	 x30:0x400013ba  x5:0xfffffff4
        9565000	       955	800065c4	8401f517	auipc	x10,0x8401f	 x10=0x040255c0
        9575000	       956	800065c8	0168b833	sltu	x16,x17,x22	 x17:0x00000001 x22:0x00000000 x16=0x00000000
        9585000	       957	800065cc	017588b3	add	x17,x11,x23	 x11:0xfffffbdd x23:0x80009f8a x17=0x80009b67
        9595000	       958	800065d0	016dda63	bge	x27,x22,800065e4	 x27:0xdfac8000 x22:0x00000000
        9605000	       959	800065d4	734bf613	andi	x12,x23,1844	 x23:0x80009f8a x12=0x00000700
        9615000	       960	800065d8	01667663	bgeu	x12,x22,800065e4	 x12:0x00000700 x22:0x00000000
        9625000	       961	00000000	00000013	addi	x0,x0,0	  x0:0x00000000
        9635000	       962	800065e0	00000013	addi	x0,x0,0	  x0:0x00000000
        9645000	       963	800065e4	00fb23b3	slt	x7,x22,x15	 x22:0x00000000 x15:0x80009fc4  x7=0x00000000
        9655000	       964	800065e8	004caf83	lw	x31,4(x25)	 x25:0x80009e84 x31=0x80002774 PA:0x80009e88
        9665000	       965	800065ec	40705d33	sra	x26,x0,x7	  x0:0x00000000  x7:0x00000000 x26=0x00000000
        9675000	       966	800065f0	038c8c93	addi	x25,x25,56	 x25:0x80009e84 x25=0x80009ebc
        9685000	       967	800065f4	00582c33	slt	x24,x16,x5	 x16:0x00000000  x5:0xfffffff4 x24=0x00000000
        9695000	       968	800065f8	00000013	addi	x0,x0,0	  x0:0x00000000
        9705000	       969	800065fc	002a0033	add	x0,x20,x2	 x20:0x7fffdebd  x2:0xaa8dd69f
        9715000	       970	80006600	509b2513	slti	x10,x22,1289	 x22:0x00000000 x10=0x00000001
        9725000	       971	80006604	001f8e93	addi	x29,x31,1	 x31:0x80002774 x29=0x80002775
        9735000	       972	80006608	000e8ee7	jalr	x29,x29,0	 x29:0x80002775 x29=0x80006608
        9745000	       973	00000000	00000013	addi	x0,x0,0	  x0:0x00000000
        9755000	       974	80002774	00000013	addi	x0,x0,0	  x0:0x00000000
        9765000	       975	80002778	b12f4a93	xori	x21,x30,-1262	 x30:0x400013ba x21=0xbfffe8a8
        9775000	       976	8000277c	00000013	addi	x0,x0,0	  x0:0x00000000
        9785000	       977	80002780	01bc5893	srli	x17,x24,0x1b	 x24:0x00000000 x17=0x00000000
        9795000	       978	80002784	0093ffb3	and	x31,x7,x9	  x7:0x00000000  x9:0xa28c421c x31=0x00000000
        9805000	       979	80002788	86371317	auipc	x6,0x86371	  x6=0x06373784
        9815000	       980	8000278c	012391b3	sll	x3,x7,x18	  x7:0x00000000 x18:0x00000001  x3=0x00000000
        9825000	       981	80002790	c24fefef	jal	x31,80002790	 x31=0x80002790
        9835000	       982	00000000	00000013	addi	x0,x0,0	  x0:0x00000000
        9845000	       983	80000bb0	00000013	addi	x0,x0,0	  x0:0x00000000
        9855000	       984	80000bb4	40f2ddb3	sra	x27,x5,x15	  x5:0xfffffff4 x15:0x80009fc4 x27=0xffffffff
        9865000	       985	80000bb8	40540d33	sub	x26,x8,x5	  x8:0x00000000  x5:0xfffffff4 x26=0x0000000c
        9875000	       986	80000bbc	0eb24897	auipc	x17,0xeb24	 x17=0x8eb24bb8
        9885000	       987	80000bc0	0195d263	bge	x11,x25,80000bc4	 x11:0xfffffbdd x25:0x80009ebc
        9895000	       988	00000000	00000013	addi	x0,x0,0	  x0:0x00000000
        9905000	       989	80000bc0	00000013	addi	x0,x0,0	  x0:0x00000000
        9915000	       990	80000bc4	ff4c8c93	addi	x25,x25,-12	 x25:0x80009ebc x25=0x80009eb0
        9925000	       991	80000bc8	742c4193	xori	x3,x24,1858	 x24:0x00000000  x3=0x00000742
        9935000	       992	80000bcc	01fca223	sw	x31,4(x25)	 x25:0x80009eb0 x31:0x80002790 PA:0x80009eb4
        9945000	       993	80000bd0	1cfc6413	ori	x8,x24,463	 x24:0x00000000  x8=0x000001cf
        9955000	       994	80000bd4	02def063	bgeu	x29,x13,80000bf4	 x29:0x80006608 x13:0x00000000
        9965000	       995	00000000	00000013	addi	x0,x0,0	  x0:0x00000000
        9975000	       996	80000bf0	00000013	addi	x0,x0,0	  x0:0x00000000
        9985000	       997	80000bf4	0065c1b3	xor	x3,x11,x6	 x11:0xfffffbdd  x6:0x06373784  x3=0xf9c8cc59
        9995000	       998	80000bf8	65b64413	xori	x8,x12,1627	 x12:0x00000700  x8=0x0000015b
       10005000	       999	80000bfc	23fdba13	sltiu	x20,x27,575	 x27:0xffffffff x20=0x00000000
       10015000	      1000	80000c00	01c99533	sll	x10,x19,x28	 x19:0xaa8dd696 x28:0x96561760 x10=0xaa8dd696
       10025000	      1001	80000c04	0195db93	srli	x23,x11,0x19	 x11:0xfffffbdd x23=0x0000007f
       10035000	      1002	80000c08	05593a13	sltiu	x20,x18,85	 x18:0x00000001 x20=0x00000001
       10045000	      1003	80000c0c	4eb8cf97	auipc	x31,0x4eb8c	 x31=0xceb8cc08
       10055000	      1004	80000c10	00f5dd13	srli	x26,x11,0xf	 x11:0xfffffbdd x26=0x0001ffff
       10065000	      1005	80000c14	f20ebb13	sltiu	x22,x29,-224	 x29:0x80006608 x22=0x00000001
       10075000	      1006	80000c18	01ccc4b3	xor	x9,x25,x28	 x25:0x80009eb0 x28:0x96561760  x9=0x165689d0
       10085000	      1007	80000c1c	00000013	addi	x0,x0,0	  x0:0x00000000
       10095000	      1008	80000c20	0155d433	srl	x8,x11,x21	 x11:0xfffffbdd x21:0xbfffe8a8  x8=0x00fffffb
       10105000	      1009	80000c24	5a9d8d13	addi	x26,x27,1449	 x27:0xffffffff x26=0x000005a8
       10115000	      1010	80000c28	004caf83	lw	x31,4(x25)	 x25:0x80009eb0 x31=0x80002790 PA:0x80009eb4
       10125000	      1011	80000c2c	bf524993	xori	x19,x4,-1035	  x4:0x80009edd x19=0x7fff6528
       10135000	      1012	80000c30	eb213293	sltiu	x5,x2,-334	  x2:0xaa8dd69f  x5=0x00000001
       10145000	      1013	80000c34	002474b3	and	x9,x8,x2	  x8:0x00fffffb  x2:0xaa8dd69f  x9=0x008dd69b
       10155000	      1014	80000c38	00cc8c93	addi	x25,x25,12	 x25:0x80009eb0 x25=0x80009ebc
       10165000	      1015	80000c3c	e95cce13	xori	x28,x25,-363	 x25:0x80009ebc x28=0x7fff6029
       10175000	      1016	80000c40	cb5fb013	sltiu	x0,x31,-843	 x31:0x80002790
       10185000	      1017	80000c44	000f8493	addi	x9,x31,0	 x31:0x80002790  x9=0x80002790
       10195000	      1018	80000c48	000484e7	jalr	x9,x9,0	  x9:0x80002790  x9=0x80000c48
       10205000	      1019	00000000	00000013	addi	x0,x0,0	  x0:0x00000000
       10215000	      1020	80002790	00000013	addi	x0,x0,0	  x0:0x00000000
       10225000	      1021	80002794	8f852f93	slti	x31,x10,-1800	 x10:0xaa8dd696 x31=0x00000001
       10235000	      1022	80002798	00ca6733	or	x14,x20,x12	 x20:0x00000001 x12:0x00000700 x14=0x00000701
       10245000	      1023	8000279c	0190be33	sltu	x28,x1,x25	  x1:0x80009e92 x25:0x80009ebc x28=0x00000001
       10255000	      1024	800027a0	01105fb3	srl	x31,x0,x17	  x0:0x00000000 x17:0x8eb24bb8 x31=0x00000000
       10265000	      1025	800027a4	012aca63	blt	x21,x18,800027b8	 x21:0xbfffe8a8 x18:0x00000001
       10275000	      1026	00000000	00000013	addi	x0,x0,0	  x0:0x00000000
       10285000	      1027	800027b4	00000013	addi	x0,x0,0	  x0:0x00000000
       10295000	      1028	800027b8	bfcfefef	jal	x31,800027b8	 x31=0x800027b8
       10305000	      1029	00000000	00000013	addi	x0,x0,0	  x0:0x00000000
       10315000	      1030	80000bb0	00000013	addi	x0,x0,0	  x0:0x00000000
       10325000	      1031	80000bb4	40f2ddb3	sra	x27,x5,x15	  x5:0x00000001 x15:0x80009fc4 x27=0x00000000
       10335000	      1032	80000bb8	40540d33	sub	x26,x8,x5	  x8:0x00fffffb  x5:0x00000001 x26=0x00fffffa
       10345000	      1033	80000bbc	0eb24897	auipc	x17,0xeb24	 x17=0x8eb24bb8
       10355000	      1034	80000bc0	0195d263	bge	x11,x25,80000bc4	 x11:0xfffffbdd x25:0x80009ebc
       10365000	      1035	00000000	00000013	addi	x0,x0,0	  x0:0x00000000
       10375000	      1036	80000bc0	00000013	addi	x0,x0,0	  x0:0x00000000
       10385000	      1037	80000bc4	ff4c8c93	addi	x25,x25,-12	 x25:0x80009ebc x25=0x80009eb0
       10395000	      1038	80000bc8	742c4193	xori	x3,x24,1858	 x24:0x00000000  x3=0x00000742
       10405000	      1039	80000bcc	01fca223	sw	x31,4(x25)	 x25:0x80009eb0 x31:0x800027b8 PA:0x80009eb4
       10415000	      1040	80000bd0	1cfc6413	ori	x8,x24,463	 x24:0x00000000  x8=0x000001cf
       10425000	      1041	80000bd4	02def063	bgeu	x29,x13,80000bf4	 x29:0x80006608 x13:0x00000000
       10435000	      1042	00000000	00000013	addi	x0,x0,0	  x0:0x00000000
       10445000	      1043	80000bf0	00000013	addi	x0,x0,0	  x0:0x00000000
       10455000	      1044	80000bf4	0065c1b3	xor	x3,x11,x6	 x11:0xfffffbdd  x6:0x06373784  x3=0xf9c8cc59
       10465000	      1045	80000bf8	65b64413	xori	x8,x12,1627	 x12:0x00000700  x8=0x0000015b
       10475000	      1046	80000bfc	23fdba13	sltiu	x20,x27,575	 x27:0x00000000 x20=0x00000001
       10485000	      1047	80000c00	01c99533	sll	x10,x19,x28	 x19:0x7fff6528 x28:0x00000001 x10=0xfffeca50
       10495000	      1048	80000c04	0195db93	srli	x23,x11,0x19	 x11:0xfffffbdd x23=0x0000007f
       10505000	      1049	80000c08	05593a13	sltiu	x20,x18,85	 x18:0x00000001 x20=0x00000001
       10515000	      1050	80000c0c	4eb8cf97	auipc	x31,0x4eb8c	 x31=0xceb8cc08
       10525000	      1051	80000c10	00f5dd13	srli	x26,x11,0xf	 x11:0xfffffbdd x26=0x0001ffff
       10535000	      1052	80000c14	f20ebb13	sltiu	x22,x29,-224	 x29:0x80006608 x22=0x00000001
       10545000	      1053	80000c18	01ccc4b3	xor	x9,x25,x28	 x25:0x80009eb0 x28:0x00000001  x9=0x80009eb1
       10555000	      1054	80000c1c	00000013	addi	x0,x0,0	  x0:0x00000000
       10565000	      1055	80000c20	0155d433	srl	x8,x11,x21	 x11:0xfffffbdd x21:0xbfffe8a8  x8=0x00fffffb
       10575000	      1056	80000c24	5a9d8d13	addi	x26,x27,1449	 x27:0x00000000 x26=0x000005a9
       10585000	      1057	80000c28	004caf83	lw	x31,4(x25)	 x25:0x80009eb0 x31=0x800027b8 PA:0x80009eb4
       10595000	      1058	80000c2c	bf524993	xori	x19,x4,-1035	  x4:0x80009edd x19=0x7fff6528
       10605000	      1059	80000c30	eb213293	sltiu	x5,x2,-334	  x2:0xaa8dd69f  x5=0x00000001
       10615000	      1060	80000c34	002474b3	and	x9,x8,x2	  x8:0x00fffffb  x2:0xaa8dd69f  x9=0x008dd69b
       10625000	      1061	80000c38	00cc8c93	addi	x25,x25,12	 x25:0x80009eb0 x25=0x80009ebc
       10635000	      1062	80000c3c	e95cce13	xori	x28,x25,-363	 x25:0x80009ebc x28=0x7fff6029
       10645000	      1063	80000c40	cb5fb013	sltiu	x0,x31,-843	 x31:0x800027b8
       10655000	      1064	80000c44	000f8493	addi	x9,x31,0	 x31:0x800027b8  x9=0x800027b8
       10665000	      1065	80000c48	000484e7	jalr	x9,x9,0	  x9:0x800027b8  x9=0x80000c48
       10675000	      1066	00000000	00000013	addi	x0,x0,0	  x0:0x00000000
       10685000	      1067	800027b8	00000013	addi	x0,x0,0	  x0:0x00000000
       10695000	      1068	800027bc	32b34a93	xori	x21,x6,811	  x6:0x06373784 x21=0x063734af
       10705000	      1069	800027c0	01afe033	or	x0,x31,x26	 x31:0x800027b8 x26:0x000005a9
       10715000	      1070	800027c4	b6756993	ori	x19,x10,-1177	 x10:0xfffeca50 x19=0xfffffb77
       10725000	      1071	800027c8	0332f463	bgeu	x5,x19,800027f0	  x5:0x00000001 x19:0xfffffb77
       10735000	      1072	800027cc	00d48a33	add	x20,x9,x13	  x9:0x80000c48 x13:0x00000000 x20=0x80000c48
       10745000	      1073	800027d0	013523b3	slt	x7,x10,x19	 x10:0xfffeca50 x19:0xfffffb77  x7=0x00000001
       10755000	      1074	800027d4	00b408b3	add	x17,x8,x11	  x8:0x00fffffb x11:0xfffffbdd x17=0x00fffbd8
       10765000	      1075	800027d8	0c6a3d93	sltiu	x27,x20,198	 x20:0x80000c48 x27=0x00000000
       10775000	      1076	800027dc	a4f8b413	sltiu	x8,x17,-1457	 x17:0x00fffbd8  x8=0x00000001
       10785000	      1077	800027e0	037f7a63	bgeu	x30,x23,80002814	 x30:0x400013ba x23:0x0000007f
       10795000	      1078	00000000	00000013	addi	x0,x0,0	  x0:0x00000000
       10805000	      1079	80002810	00000013	addi	x0,x0,0	  x0:0x00000000
       10815000	      1080	80002814	01649c33	sll	x24,x9,x22	  x9:0x80000c48 x22:0x00000001 x24=0x00001890
       10825000	      1081	80002818	41dcd193	srai	x3,x25,0x1d	 x25:0x80009ebc  x3=0xfffffffc
       10835000	      1082	8000281c	42356893	ori	x17,x10,1059	 x10:0xfffeca50 x17=0xfffece73
       10845000	      1083	80002820	0f74e6b7	lui	x13,0xf74e	 x13=0x0f74e000
       10855000	      1084	80002824	00c833b3	sltu	x7,x16,x12	 x16:0x00000000 x12:0x00000700  x7=0x00000001
       10865000	      1085	80002828	14320813	addi	x16,x4,323	  x4:0x80009edd x16=0x8000a020
       10875000	      1086	8000282c	00497f33	and	x30,x18,x4	 x18:0x00000001  x4:0x80009edd x30=0x00000001
       10885000	      1087	80002830	01da1213	slli	x4,x20,0x1d	 x20:0x80000c48  x4=0x00000000
       10895000	      1088	80002834	3674e193	ori	x3,x9,871	  x9:0x80000c48  x3=0x80000f6f
       10905000	      1089	80002838	01f3ec63	bltu	x7,x31,80002850	  x7:0x00000001 x31:0x800027b8
       10915000	      1090	00000000	00000013	addi	x0,x0,0	  x0:0x00000000
       10925000	      1091	8000284c	00000013	addi	x0,x0,0	  x0:0x00000000
       10935000	      1092	80002850	00a541b3	xor	x3,x10,x10	 x10:0xfffeca50 x10:0xfffeca50  x3=0x00000000
       10945000	      1093	80002854	00dc9493	slli	x9,x25,0xd	 x25:0x80009ebc  x9=0x13d78000
       10955000	      1094	80002858	a91b2213	slti	x4,x22,-1391	 x22:0x00000001  x4=0x00000000
       10965000	      1095	8000285c	01fe8db3	add	x27,x29,x31	 x29:0x80006608 x31:0x800027b8 x27=0x00008dc0
       10975000	      1096	80002860	afb77693	andi	x13,x14,-1285	 x14:0x00000701 x13=0x00000201
       10985000	      1097	80002864	004caf83	lw	x31,4(x25)	 x25:0x80009ebc x31=0x80001cdc PA:0x80009ec0
       10995000	      1098	80002868	01cdd313	srli	x6,x27,0x1c	 x27:0x00008dc0  x6=0x00000000
       11005000	      1099	8000286c	020c8c93	addi	x25,x25,32	 x25:0x80009ebc x25=0x80009edc
       11015000	      1100	80002870	0687bf13	sltiu	x30,x15,104	 x15:0x80009fc4 x30=0x00000000
       11025000	      1101	80002874	001f8b93	addi	x23,x31,1	 x31:0x80001cdc x23=0x80001cdd
       11035000	      1102	80002878	000b8be7	jalr	x23,x23,0	 x23:0x80001cdd x23=0x80002878
       11045000	      1103	00000000	00000013	addi	x0,x0,0	  x0:0x00000000
       11055000	      1104	80001cdc	00000013	addi	x0,x0,0	  x0:0x00000000
       11065000	      1105	80001ce0	01b5a233	slt	x4,x11,x27	 x11:0xfffffbdd x27:0x00008dc0  x4=0x00000001
       11075000	      1106	80001ce4	46c0d4b7	lui	x9,0x46c0d	  x9=0x46c0d000
       11085000	      1107	80001ce8	0480f293	andi	x5,x1,72	  x1:0x80009e92  x5=0x00000000
       11095000	      1108	80001cec	5821cc37	lui	x24,0x5821c	 x24=0x5821c000
       11105000	      1109	80001cf0	00000013	addi	x0,x0,0	  x0:0x00000000
       11115000	      1110	80001cf4	00b624b3	slt	x9,x12,x11	 x12:0x00000700 x11:0xfffffbdd  x9=0x00000000
       11125000	      1111	80001cf8	01145863	bge	x8,x17,80001d08	  x8:0x00000001 x17:0xfffece73
       11135000	      1112	00000000	00000013	addi	x0,x0,0	  x0:0x00000000
       11145000	      1113	80001d04	00000013	addi	x0,x0,0	  x0:0x00000000
       11155000	      1114	80001d08	01d425b3	slt	x11,x8,x29	  x8:0x00000001 x29:0x80006608 x11=0x00000000
       11165000	      1115	80001d0c	026c5263	bge	x24,x6,80001d30	 x24:0x5821c000  x6:0x00000000
       11175000	      1116	00000000	00000013	addi	x0,x0,0	  x0:0x00000000
       11185000	      1117	80001d2c	00000013	addi	x0,x0,0	  x0:0x00000000
       11195000	      1118	80001d30	f68d0813	addi	x16,x26,-152	 x26:0x000005a9 x16=0x00000511
       11205000	      1119	80001d34	6855ea13	ori	x20,x11,1669	 x11:0x00000000 x20=0x00000685
       11215000	      1120	80001d38	009b2233	slt	x4,x22,x9	 x22:0x00000001  x9:0x00000000  x4=0x00000000
       11225000	      1121	80001d3c	03e39263	bne	x7,x30,80001d60	  x7:0x00000001 x30:0x00000000
       11235000	      1122	00000000	00000013	addi	x0,x0,0	  x0:0x00000000
       11245000	      1123	80001d5c	00000013	addi	x0,x0,0	  x0:0x00000000
       11255000	      1124	80001d60	034bd663	bge	x23,x20,80001d8c	 x23:0x80002878 x20:0x00000685
       11265000	      1125	80001d64	dba3a593	slti	x11,x7,-582	  x7:0x00000001 x11=0x00000000
       11275000	      1126	80001d68	01e19733	sll	x14,x3,x30	  x3:0x00000000 x30:0x00000000 x14=0x00000000
       11285000	      1127	80001d6c	412bde93	srai	x29,x23,0x12	 x23:0x80002878 x29=0xffffe000
       11295000	      1128	80001d70	002d5e63	bge	x26,x2,80001d8c	 x26:0x000005a9  x2:0xaa8dd69f
       11305000	      1129	00000000	00000013	addi	x0,x0,0	  x0:0x00000000
       11315000	      1130	80001d88	00000013	addi	x0,x0,0	  x0:0x00000000
       11325000	      1131	80001d8c	415206b3	sub	x13,x4,x21	  x4:0x00000000 x21:0x063734af x13=0xf9c8cb51
       11335000	      1132	80001d90	0464f063	bgeu	x9,x6,80001dd0	  x9:0x00000000  x6:0x00000000
       11345000	      1133	00000000	00000013	addi	x0,x0,0	  x0:0x00000000
       11355000	      1134	80001dcc	00000013	addi	x0,x0,0	  x0:0x00000000
       11365000	      1135	80001dd0	407cda33	sra	x20,x25,x7	 x25:0x80009edc  x7:0x00000001 x20=0xc0004f6e
       11375000	      1136	80001dd4	04df6063	bltu	x30,x13,80001e14	 x30:0x00000000 x13:0xf9c8cb51
       11385000	      1137	00000000	00000013	addi	x0,x0,0	  x0:0x00000000
       11395000	      1138	80001e10	00000013	addi	x0,x0,0	  x0:0x00000000
       11405000	      1139	80001e14	6aaf2a13	slti	x20,x30,1706	 x30:0x00000000 x20=0x00000001
       11415000	      1140	80001e18	0588d663	bge	x17,x24,80001e64	 x17:0xfffece73 x24:0x5821c000
       11425000	      1141	80001e1c	00c91863	bne	x18,x12,80001e2c	 x18:0x00000001 x12:0x00000700
       11435000	      1142	00000000	00000013	addi	x0,x0,0	  x0:0x00000000
       11445000	      1143	80001e28	00000013	addi	x0,x0,0	  x0:0x00000000
       11455000	      1144	80001e2c	013b1093	slli	x1,x22,0x13	 x22:0x00000001  x1=0x00080000
       11465000	      1145	80001e30	05bec863	blt	x29,x27,80001e80	 x29:0xffffe000 x27:0x00008dc0
       11475000	      1146	00000000	00000013	addi	x0,x0,0	  x0:0x00000000
       11485000	      1147	80001e7c	00000013	addi	x0,x0,0	  x0:0x00000000
       11495000	      1148	80001e80	0e958b17	auipc	x22,0xe958	 x22=0x8e959e7c
       11505000	      1149	80001e84	cedd80b7	lui	x1,0xcedd8	  x1=0xcedd8000
       11515000	      1150	80001e88	a645c413	xori	x8,x11,-1436	 x11:0x00000000  x8=0xfffffa64
       11525000	      1151	80001e8c	00555813	srli	x16,x10,0x5	 x10:0xfffeca50 x16=0x07fff652
       11535000	      1152	80001e90	013926b3	slt	x13,x18,x19	 x18:0x00000001 x19:0xfffffb77 x13=0x00000000
       11545000	      1153	80001e94	6eedf413	andi	x8,x27,1774	 x27:0x00008dc0  x8=0x000004c0
       11555000	      1154	80001e98	01be3a33	sltu	x20,x28,x27	 x28:0x7fff6029 x27:0x00008dc0 x20=0x00000000
       11565000	      1155	80001e9c	b5268c13	addi	x24,x13,-1198	 x13:0x00000000 x24=0xfffffb52
       11575000	      1156	80001ea0	00000013	addi	x0,x0,0	  x0:0x00000000
       11585000	      1157	80001ea4	01fe1513	slli	x10,x28,0x1f	 x28:0x7fff6029 x10=0x80000000
       11595000	      1158	80001ea8	83aa2d13	slti	x26,x20,-1990	 x20:0x00000000 x26=0x00000000
       11605000	      1159	80001eac	4132d433	sra	x8,x5,x19	  x5:0x00000000 x19:0xfffffb77  x8=0x00000000
       11615000	      1160	80001eb0	a34f4f97	auipc	x31,0xa34f4	 x31=0x234f5eac
       11625000	      1161	80001eb4	02ebc063	blt	x23,x14,80001ed4	 x23:0x80002878 x14:0x00000000
       11635000	      1162	00000000	00000013	addi	x0,x0,0	  x0:0x00000000
       11645000	      1163	80001ed0	00000013	addi	x0,x0,0	  x0:0x00000000
       11655000	      1164	80001ed4	02bb4063	blt	x22,x11,80001ef4	 x22:0x8e959e7c x11:0x00000000
       11665000	      1165	00000000	00000013	addi	x0,x0,0	  x0:0x00000000
       11675000	      1166	80001ef0	00000013	addi	x0,x0,0	  x0:0x00000000
       11685000	      1167	80001ef4	0408e063	bltu	x17,x0,80001f34	 x17:0xfffece73  x0:0x00000000
       11695000	      1168	80001ef8	00e2d593	srli	x11,x5,0xe	  x5:0x00000000 x11=0x00000000
       11705000	      1169	80001efc	01cd16b3	sll	x13,x26,x28	 x26:0x00000000 x28:0x7fff6029 x13=0x00000000
       11715000	      1170	80001f00	030bf263	bgeu	x23,x16,80001f24	 x23:0x80002878 x16:0x07fff652
       11725000	      1171	00000000	00000013	addi	x0,x0,0	  x0:0x00000000
       11735000	      1172	80001f20	00000013	addi	x0,x0,0	  x0:0x00000000
       11745000	      1173	80001f24	00000013	addi	x0,x0,0	  x0:0x00000000
       11755000	      1174	80001f28	04e3f463	bgeu	x7,x14,80001f70	  x7:0x00000001 x14:0x00000000
       11765000	      1175	00000000	00000013	addi	x0,x0,0	  x0:0x00000000
       11775000	      1176	80001f6c	00000013	addi	x0,x0,0	  x0:0x00000000
       11785000	      1177	80001f70	005befb3	or	x31,x23,x5	 x23:0x80002878  x5:0x00000000 x31=0x80002878
       11795000	      1178	80001f74	400a5e13	srai	x28,x20,0x0	 x20:0x00000000 x28=0x00000000
       11805000	      1179	80001f78	00131913	slli	x18,x6,0x1	  x6:0x00000000 x18=0x00000000
       11815000	      1180	80001f7c	56538313	addi	x6,x7,1381	  x7:0x00000001  x6=0x00000566
       11825000	      1181	80001f80	01c29313	slli	x6,x5,0x1c	  x5:0x00000000  x6=0x00000000
       11835000	      1182	80001f84	948caa93	slti	x21,x25,-1720	 x25:0x80009edc x21=0x00000001
       11845000	      1183	80001f88	31432193	slti	x3,x6,788	  x6:0x00000000  x3=0x00000001
       11855000	      1184	80001f8c	40a8d713	srai	x14,x17,0xa	 x17:0xfffece73 x14=0xffffffb3
       11865000	      1185	80001f90	0145f6b3	and	x13,x11,x20	 x11:0x00000000 x20:0x00000000 x13=0x00000000
       11875000	      1186	80001f94	00ff59b3	srl	x19,x30,x15	 x30:0x00000000 x15:0x80009fc4 x19=0x00000000
       11885000	      1187	80001f98	0470e063	bltu	x1,x7,80001fd8	  x1:0xcedd8000  x7:0x00000001
       11895000	      1188	80001f9c	00b23033	sltu	x0,x4,x11	  x4:0x00000000 x11:0x00000000
       11905000	      1189	80001fa0	c6c1ba97	auipc	x21,0xc6c1b	 x21=0x46c1cf9c
       11915000	      1190	80001fa4	0150dbb3	srl	x23,x1,x21	  x1:0xcedd8000 x21:0x46c1cf9c x23=0x0000000c
       11925000	      1191	80001fa8	28422337	lui	x6,0x28422	  x6=0x28422000
       11935000	      1192	80001fac	00168db3	add	x27,x13,x1	 x13:0x00000000  x1:0xcedd8000 x27=0xcedd8000
       11945000	      1193	80001fb0	021a8063	beq	x21,x1,80001fd0	 x21:0x46c1cf9c  x1:0xcedd8000
       11955000	      1194	80001fb4	022fc263	blt	x31,x2,80001fd8	 x31:0x80002878  x2:0xaa8dd69f
       11965000	      1195	00000000	00000013	addi	x0,x0,0	  x0:0x00000000
       11975000	      1196	80001fd4	00000013	addi	x0,x0,0	  x0:0x00000000
       11985000	      1197	80001fd8	001fe633	or	x12,x31,x1	 x31:0x80002878  x1:0xcedd8000 x12=0xcedda878
       11995000	      1198	80001fdc	041cc863	blt	x25,x1,8000202c	 x25:0x80009edc  x1:0xcedd8000
       12005000	      1199	00000000	00000013	addi	x0,x0,0	  x0:0x00000000
       12015000	      1200	80002028	00000013	addi	x0,x0,0	  x0:0x00000000
       12025000	      1201	8000202c	020c7263	bgeu	x24,x0,80002050	 x24:0xfffffb52  x0:0x00000000
       12035000	      1202	00000000	00000013	addi	x0,x0,0	  x0:0x00000000
       12045000	      1203	8000204c	00000013	addi	x0,x0,0	  x0:0x00000000
       12055000	      1204	80002050	01c7fe63	bgeu	x15,x28,8000206c	 x15:0x80009fc4 x28:0x00000000
       12065000	      1205	00000000	00000013	addi	x0,x0,0	  x0:0x00000000
       12075000	      1206	80002068	00000013	addi	x0,x0,0	  x0:0x00000000
       12085000	      1207	8000206c	92c02513	slti	x10,x0,-1748	  x0:0x00000000 x10=0x00000000
       12095000	      1208	80002070	0198b4b3	sltu	x9,x17,x25	 x17:0xfffece73 x25:0x80009edc  x9=0x00000000
       12105000	      1209	80002074	03b79c63	bne	x15,x27,800020ac	 x15:0x80009fc4 x27:0xcedd8000
       12115000	      1210	00000000	00000013	addi	x0,x0,0	  x0:0x00000000
       12125000	      1211	800020a8	00000013	addi	x0,x0,0	  x0:0x00000000
       12135000	      1212	800020ac	01a053b3	srl	x7,x0,x26	  x0:0x00000000 x26:0x00000000  x7=0x00000000
       12145000	      1213	800020b0	a2316f13	ori	x30,x2,-1501	  x2:0xaa8dd69f x30=0xfffffebf
       12155000	      1214	800020b4	014d5863	bge	x26,x20,800020c4	 x26:0x00000000 x20:0x00000000
       12165000	      1215	00000000	00000013	addi	x0,x0,0	  x0:0x00000000
       12175000	      1216	800020c0	00000013	addi	x0,x0,0	  x0:0x00000000
       12185000	      1217	800020c4	005a8663	beq	x21,x5,800020d0	 x21:0x46c1cf9c  x5:0x00000000
       12195000	      1218	800020c8	40c15ab3	sra	x21,x2,x12	  x2:0xaa8dd69f x12:0xcedda878 x21=0xffffffaa
       12205000	      1219	800020cc	0016f233	and	x4,x13,x1	 x13:0x00000000  x1:0xcedd8000  x4=0x00000000
       12215000	      1220	800020d0	057f6863	bltu	x30,x23,80002120	 x30:0xfffffebf x23:0x0000000c
       12225000	      1221	800020d4	1b994a13	xori	x20,x18,441	 x18:0x00000000 x20=0x000001b9
       12235000	      1222	800020d8	5b12e937	lui	x18,0x5b12e	 x18=0x5b12e000
       12245000	      1223	800020dc	0271c263	blt	x3,x7,80002100	  x3:0x00000001  x7:0x00000000
       12255000	      1224	800020e0	a49fce13	xori	x28,x31,-1463	 x31:0x80002878 x28=0x7fffd231
       12265000	      1225	800020e4	5aa3ce93	xori	x29,x7,1450	  x7:0x00000000 x29=0x000005aa
       12275000	      1226	800020e8	03975663	bge	x14,x25,80002114	 x14:0xffffffb3 x25:0x80009edc
       12285000	      1227	00000000	00000013	addi	x0,x0,0	  x0:0x00000000
       12295000	      1228	80002110	00000013	addi	x0,x0,0	  x0:0x00000000
       12305000	      1229	80002114	03bf9063	bne	x31,x27,80002134	 x31:0x80002878 x27:0xcedd8000
       12315000	      1230	00000000	00000013	addi	x0,x0,0	  x0:0x00000000
       12325000	      1231	80002130	00000013	addi	x0,x0,0	  x0:0x00000000
       12335000	      1232	80002134	0133a0b3	slt	x1,x7,x19	  x7:0x00000000 x19:0x00000000  x1=0x00000000
       12345000	      1233	80002138	ab274a13	xori	x20,x14,-1358	 x14:0xffffffb3 x20=0x00000501
       12355000	      1234	8000213c	418f5633	sra	x12,x30,x24	 x30:0xfffffebf x24:0xfffffb52 x12=0xffffffff
       12365000	      1235	80002140	030cd063	bge	x25,x16,80002160	 x25:0x80009edc x16:0x07fff652
       12375000	      1236	80002144	04de4863	blt	x28,x13,80002194	 x28:0x7fffd231 x13:0x00000000
       12385000	      1237	80002148	00befa33	and	x20,x29,x11	 x29:0x000005aa x11:0x00000000 x20=0x00000000
       12395000	      1238	8000214c	01827d33	and	x26,x4,x24	  x4:0x00000000 x24:0xfffffb52 x26=0x00000000
       12405000	      1239	80002150	4c642713	slti	x14,x8,1222	  x8:0x00000000 x14=0x00000001
       12415000	      1240	80002154	00351433	sll	x8,x10,x3	 x10:0x00000000  x3:0x00000001  x8=0x00000000
       12425000	      1241	80002158	0bffa913	slti	x18,x31,191	 x31:0x80002878 x18=0x00000001
       12435000	      1242	8000215c	655e9a17	auipc	x20,0x655e9	 x20=0xe55eb158
       12445000	      1243	80002160	5d863013	sltiu	x0,x12,1496	 x12:0xffffffff
       12455000	      1244	80002164	017ce233	or	x4,x25,x23	 x25:0x80009edc x23:0x0000000c  x4=0x80009edc
       12465000	      1245	80002168	009ad093	srli	x1,x21,0x9	 x21:0xffffffaa  x1=0x007fffff
       12475000	      1246	8000216c	b6554697	auipc	x13,0xb6554	 x13=0x36556168
       12485000	      1247	80002170	0242d263	bge	x5,x4,80002194	  x5:0x00000000  x4:0x80009edc
       12495000	      1248	00000000	00000013	addi	x0,x0,0	  x0:0x00000000
       12505000	      1249	80002190	00000013	addi	x0,x0,0	  x0:0x00000000
       12515000	      1250	80002194	c3943f93	sltiu	x31,x8,-967	  x8:0x00000000 x31=0x00000001
       12525000	      1251	80002198	0d0ecb93	xori	x23,x29,208	 x29:0x000005aa x23=0x0000057a
       12535000	      1252	8000219c	01fc76b3	and	x13,x24,x31	 x24:0xfffffb52 x31:0x00000001 x13=0x00000000
       12545000	      1253	800021a0	03e1fc63	bgeu	x3,x30,800021d8	  x3:0x00000001 x30:0xfffffebf
       12555000	      1254	800021a4	010f5e63	bge	x30,x16,800021c0	 x30:0xfffffebf x16:0x07fff652
       12565000	      1255	800021a8	003b0eb3	add	x29,x22,x3	 x22:0x8e959e7c  x3:0x00000001 x29=0x8e959e7d
       12575000	      1256	800021ac	005bcbb3	xor	x23,x23,x5	 x23:0x0000057a  x5:0x00000000 x23=0x0000057a
       12585000	      1257	800021b0	00c31893	slli	x17,x6,0xc	  x6:0x28422000 x17=0x22000000
       12595000	      1258	800021b4	7353c993	xori	x19,x7,1845	  x7:0x00000000 x19=0x00000735
       12605000	      1259	800021b8	04996463	bltu	x18,x9,80002200	 x18:0x00000001  x9:0x00000000
       12615000	      1260	800021bc	91dda493	slti	x9,x27,-1763	 x27:0xcedd8000  x9=0x00000001
       12625000	      1261	800021c0	0894e593	ori	x11,x9,137	  x9:0x00000001 x11=0x00000089
       12635000	      1262	800021c4	40775f33	sra	x30,x14,x7	 x14:0x00000001  x7:0x00000000 x30=0x00000001
       12645000	      1263	800021c8	018f56b3	srl	x13,x30,x24	 x30:0x00000001 x24:0xfffffb52 x13=0x00000000
       12655000	      1264	800021cc	01a29833	sll	x16,x5,x26	  x5:0x00000000 x26:0x00000000 x16=0x00000000
       12665000	      1265	800021d0	eaccf637	lui	x12,0xeaccf	 x12=0xeaccf000
       12675000	      1266	800021d4	0048fc33	and	x24,x17,x4	 x17:0x22000000  x4:0x80009edc x24=0x00000000
       12685000	      1267	800021d8	57df8d93	addi	x27,x31,1405	 x31:0x00000001 x27=0x0000057e
       12695000	      1268	800021dc	00d98933	add	x18,x19,x13	 x19:0x00000735 x13:0x00000000 x18=0x00000735
       12705000	      1269	800021e0	04235463	bge	x6,x2,80002228	  x6:0x28422000  x2:0xaa8dd69f
       12715000	      1270	00000000	00000013	addi	x0,x0,0	  x0:0x00000000
       12725000	      1271	80002224	00000013	addi	x0,x0,0	  x0:0x00000000
       12735000	      1272	80002228	007eb4b3	sltu	x9,x29,x7	 x29:0x8e959e7d  x7:0x00000000  x9=0x00000000
       12745000	      1273	8000222c	0139ed33	or	x26,x19,x19	 x19:0x00000735 x19:0x00000735 x26=0x00000735
       12755000	      1274	80002230	75273193	sltiu	x3,x14,1874	 x14:0x00000001  x3=0x00000001
       12765000	      1275	80002234	3eb2c693	xori	x13,x5,1003	  x5:0x00000000 x13=0x000003eb
       12775000	      1276	80002238	00448f33	add	x30,x9,x4	  x9:0x00000000  x4:0x80009edc x30=0x80009edc
       12785000	      1277	8000223c	01e9f233	and	x4,x19,x30	 x19:0x00000735 x30:0x80009edc  x4=0x00000614
       12795000	      1278	80002240	04ef4263	blt	x30,x14,80002284	 x30:0x80009edc x14:0x00000001
       12805000	      1279	00000000	00000013	addi	x0,x0,0	  x0:0x00000000
       12815000	      1280	80002280	00000013	addi	x0,x0,0	  x0:0x00000000
       12825000	      1281	80002284	6fa3a097	auipc	x1,0x6fa3a	  x1=0xefa3c280
       12835000	      1282	80002288	af584513	xori	x10,x16,-1291	 x16:0x00000000 x10=0xfffffaf5
       12845000	      1283	8000228c	02076c63	bltu	x14,x0,800022c4	 x14:0x00000001  x0:0x00000000
       12855000	      1284	80002290	00702fb3	slt	x31,x0,x7	  x0:0x00000000  x7:0x00000000 x31=0x00000000
       12865000	      1285	80002294	00e2d213	srli	x4,x5,0xe	  x5:0x00000000  x4=0x00000000
       12875000	      1286	80002298	58486093	ori	x1,x16,1412	 x16:0x00000000  x1=0x00000584
       12885000	      1287	8000229c	0141ce33	xor	x28,x3,x20	  x3:0x00000001 x20:0xe55eb158 x28=0xe55eb159
       12895000	      1288	800022a0	017ec233	xor	x4,x29,x23	 x29:0x8e959e7d x23:0x0000057a  x4=0x8e959b07
       12905000	      1289	800022a4	41e0d913	srai	x18,x1,0x1e	  x1:0x00000584 x18=0x00000000
       12915000	      1290	800022a8	00e4a933	slt	x18,x9,x14	  x9:0x00000000 x14:0x00000001 x18=0x00000001
       12925000	      1291	800022ac	aa17b213	sltiu	x4,x15,-1375	 x15:0x80009fc4  x4=0x00000001
       12935000	      1292	800022b0	6d3fbe93	sltiu	x29,x31,1747	 x31:0x00000000 x29=0x00000001
       12945000	      1293	800022b4	010b7733	and	x14,x22,x16	 x22:0x8e959e7c x16:0x00000000 x14=0x00000000
       12955000	      1294	800022b8	a875bf37	lui	x30,0xa875b	 x30=0xa875b000
       12965000	      1295	800022bc	4d733c13	sltiu	x24,x6,1239	  x6:0x28422000 x24=0x00000000
       12975000	      1296	800022c0	00000013	addi	x0,x0,0	  x0:0x00000000
       12985000	      1297	800022c4	7f284393	xori	x7,x16,2034	 x16:0x00000000  x7=0x000007f2
       12995000	      1298	800022c8	00000013	addi	x0,x0,0	  x0:0x00000000
       13005000	      1299	800022cc	41280ab3	sub	x21,x16,x18	 x16:0x00000000 x18:0x00000001 x21=0xffffffff
       13015000	      1300	800022d0	65852893	slti	x17,x10,1624	 x10:0xfffffaf5 x17=0x00000001
       13025000	      1301	800022d4	01977eb3	and	x29,x14,x25	 x14:0x00000000 x25:0x80009edc x29=0x00000000
       13035000	      1302	800022d8	56642213	slti	x4,x8,1382	  x8:0x00000000  x4=0x00000001
       13045000	      1303	800022dc	006a7c33	and	x24,x20,x6	 x20:0xe55eb158  x6:0x28422000 x24=0x20422000
       13055000	      1304	800022e0	003a9393	slli	x7,x21,0x3	 x21:0xffffffff  x7=0xfffffff8
       13065000	      1305	800022e4	2ad2c993	xori	x19,x5,685	  x5:0x00000000 x19=0x000002ad
       13075000	      1306	800022e8	41c451b3	sra	x3,x8,x28	  x8:0x00000000 x28:0xe55eb159  x3=0x00000000
       13085000	      1307	800022ec	40b75f13	srai	x30,x14,0xb	 x14:0x00000000 x30=0x00000000
       13095000	      1308	800022f0	00000013	addi	x0,x0,0	  x0:0x00000000
       13105000	      1309	800022f4	00ee1c63	bne	x28,x14,8000230c	 x28:0xe55eb159 x14:0x00000000
       13115000	      1310	00000000	00000013	addi	x0,x0,0	  x0:0x00000000
       13125000	      1311	80002308	00000013	addi	x0,x0,0	  x0:0x00000000
       13135000	      1312	8000230c	5e804fef	jal	x31,8000230c	 x31=0x8000230c
       13145000	      1313	00000000	00000013	addi	x0,x0,0	  x0:0x00000000
       13155000	      1314	800068f0	00000013	addi	x0,x0,0	  x0:0x00000000
       13165000	      1315	800068f4	0030c663	blt	x1,x3,80006900	  x1:0x00000584  x3:0x00000000
       13175000	      1316	800068f8	01719d33	sll	x26,x3,x23	  x3:0x00000000 x23:0x0000057a x26=0x00000000
       13185000	      1317	800068fc	0164eb33	or	x22,x9,x22	  x9:0x00000000 x22:0x8e959e7c x22=0x8e959e7c
       13195000	      1318	80006900	fe4c8c93	addi	x25,x25,-28	 x25:0x80009edc x25=0x80009ec0
       13205000	      1319	80006904	85e58e37	lui	x28,0x85e58	 x28=0x85e58000
       13215000	      1320	80006908	01970a33	add	x20,x14,x25	 x14:0x00000000 x25:0x80009ec0 x20=0x80009ec0
       13225000	      1321	8000690c	4189d693	srai	x13,x19,0x18	 x19:0x000002ad x13=0x00000000
       13235000	      1322	80006910	005e5f33	srl	x30,x28,x5	 x28:0x85e58000  x5:0x00000000 x30=0x85e58000
       13245000	      1323	80006914	01fca223	sw	x31,4(x25)	 x25:0x80009ec0 x31:0x8000230c PA:0x80009ec4
       13255000	      1324	80006918	00429613	slli	x12,x5,0x4	  x5:0x00000000 x12=0x00000000
       13265000	      1325	8000691c	fa778e93	addi	x29,x15,-89	 x15:0x80009fc4 x29=0x80009f6b
       13275000	      1326	80006920	00002217	auipc	x4,0x2	  x4=0x8000891c
       13285000	      1327	80006924	fde20213	addi	x4,x4,-34	  x4:0x8000891c  x4=0x800088fa
       13295000	      1328	80006928	01a75693	srli	x13,x14,0x1a	 x14:0x00000000 x13=0x00000000
       13305000	      1329	8000692c	66e205a3	sb	x14,1643(x4)	  x4:0x800088fa x14:0x00000000 PA:0x80008f65
       13315000	      1330	80006930	00000013	addi	x0,x0,0	  x0:0x00000000
       13325000	      1331	80006934	35a20d03	lb	x26,858(x4)	  x4:0x800088fa x26=0x0000006d PA:0x80008c54
       13335000	      1332	80006938	6ff201a3	sb	x31,1763(x4)	  x4:0x800088fa x31:0x8000230c PA:0x80008fdd
       13345000	      1333	8000693c	4fc200a3	sb	x28,1249(x4)	  x4:0x800088fa x28:0x85e58000 PA:0x80008ddb
       13355000	      1334	80006940	2b424a03	lbu	x20,692(x4)	  x4:0x800088fa x20=0x000000b4 PA:0x80008bae
       13365000	      1335	80006944	41d4d2b3	sra	x5,x9,x29	  x9:0x00000000 x29:0x80009f6b  x5=0x00000000
       13375000	      1336	80006948	01aeb433	sltu	x8,x29,x26	 x29:0x80009f6b x26:0x0000006d  x8=0x00000000
       13385000	      1337	8000694c	41e8d3b3	sra	x7,x17,x30	 x17:0x00000001 x30:0x85e58000  x7=0x00000001
       13395000	      1338	80006950	033206a3	sb	x19,45(x4)	  x4:0x800088fa x19:0x000002ad PA:0x80008927
       13405000	      1339	80006954	d526e393	ori	x7,x13,-686	 x13:0x00000000  x7=0xfffffd52
       13415000	      1340	80006958	2a222003	lw	x0,674(x4)	  x4:0x800088fa PA:0x80008b9c
       13425000	      1341	8000695c	6b020683	lb	x13,1712(x4)	  x4:0x800088fa x13=0xffffffbb PA:0x80008faa
       13435000	      1342	80006960	35ec0893	addi	x17,x24,862	 x24:0x20422000 x17=0x2042235e
       13445000	      1343	80006964	dff2c393	xori	x7,x5,-513	  x5:0x00000000  x7=0xfffffdff
       13455000	      1344	80006968	00759c13	slli	x24,x11,0x7	 x11:0x00000089 x24=0x00004480
       13465000	      1345	8000696c	003bc4b3	xor	x9,x23,x3	 x23:0x0000057a  x3:0x00000000  x9=0x0000057a
       13475000	      1346	80006970	00a09e93	slli	x29,x1,0xa	  x1:0x00000584 x29=0x00161000
       13485000	      1347	80006974	41d98833	sub	x16,x19,x29	 x19:0x000002ad x29:0x00161000 x16=0xffe9f2ad
       13495000	      1348	80006978	63a22303	lw	x6,1594(x4)	  x4:0x800088fa  x6=0xde1e530c PA:0x80008f34
       13505000	      1349	8000697c	21e62613	slti	x12,x12,542	 x12:0x00000000 x12=0x00000001
       13515000	      1350	80006980	be344a93	xori	x21,x8,-1053	  x8:0x00000000 x21=0xfffffbe3
       13525000	      1351	80006984	56924603	lbu	x12,1385(x4)	  x4:0x800088fa x12=0x000000ff PA:0x80008e63
       13535000	      1352	80006988	0a825b03	lhu	x22,168(x4)	  x4:0x800088fa x22=0x0000cfae PA:0x800089a2
       13545000	      1353	8000698c	00e20fa3	sb	x14,31(x4)	  x4:0x800088fa x14:0x00000000 PA:0x80008919
       13555000	      1354	80006990	5c3205a3	sb	x3,1483(x4)	  x4:0x800088fa  x3:0x00000000 PA:0x80008ec5
       13565000	      1355	80006994	015924b3	slt	x9,x18,x21	 x18:0x00000001 x21:0xfffffbe3  x9=0x00000000
       13575000	      1356	80006998	f6920983	lb	x19,-151(x4)	  x4:0x800088fa x19=0xffffff9c PA:0x80008863
       13585000	      1357	8000699c	01a231b3	sltu	x3,x4,x26	  x4:0x800088fa x26:0x0000006d  x3=0x00000000
       13595000	      1358	800069a0	32398e93	addi	x29,x19,803	 x19:0xffffff9c x29=0x000002bf
       13605000	      1359	800069a4	027e2713	slti	x14,x28,39	 x28:0x85e58000 x14=0x00000001
       13615000	      1360	800069a8	40155a93	srai	x21,x10,0x1	 x10:0xfffffaf5 x21=0xfffffd7a
       13625000	      1361	800069ac	00284a63	blt	x16,x2,800069c0	 x16:0xffe9f2ad  x2:0xaa8dd69f
       13635000	      1362	800069b0	00dcc8b3	xor	x17,x25,x13	 x25:0x80009ec0 x13:0xffffffbb x17=0x7fff617b
       13645000	      1363	800069b4	40ece593	ori	x11,x25,1038	 x25:0x80009ec0 x11=0x80009ece
       13655000	      1364	800069b8	b6e90717	auipc	x14,0xb6e90	 x14=0x36e969b4
       13665000	      1365	800069bc	01b39d33	sll	x26,x7,x27	  x7:0xfffffdff x27:0x0000057e x26=0xc0000000
       13675000	      1366	800069c0	00bb83b3	add	x7,x23,x11	 x23:0x0000057a x11:0x80009ece  x7=0x8000a448
       13685000	      1367	800069c4	403480b3	sub	x1,x9,x3	  x9:0x00000000  x3:0x00000000  x1=0x00000000
       13695000	      1368	800069c8	abaaeb93	ori	x23,x21,-1350	 x21:0xfffffd7a x23=0xfffffffa
       13705000	      1369	800069cc	c8ea5737	lui	x14,0xc8ea5	 x14=0xc8ea5000
       13715000	      1370	800069d0	013b0d33	add	x26,x22,x19	 x22:0x0000cfae x19:0xffffff9c x26=0x0000cf4a
       13725000	      1371	800069d4	01bf9a33	sll	x20,x31,x27	 x31:0x8000230c x27:0x0000057e x20=0x00000000
       13735000	      1372	800069d8	00bcffb3	and	x31,x25,x11	 x25:0x80009ec0 x11:0x80009ece x31=0x80009ec0
       13745000	      1373	800069dc	03945e63	bge	x8,x25,80006a18	  x8:0x00000000 x25:0x80009ec0
       13755000	      1374	00000000	00000013	addi	x0,x0,0	  x0:0x00000000
       13765000	      1375	80006a14	00000013	addi	x0,x0,0	  x0:0x00000000
       13775000	      1376	80006a18	00a9de63	bge	x19,x10,80006a34	 x19:0xffffff9c x10:0xfffffaf5
       13785000	      1377	00000000	00000013	addi	x0,x0,0	  x0:0x00000000
       13795000	      1378	80006a30	00000013	addi	x0,x0,0	  x0:0x00000000
       13805000	      1379	80006a34	01bcc833	xor	x16,x25,x27	 x25:0x80009ec0 x27:0x0000057e x16=0x80009bbe
       13815000	      1380	80006a38	002bbc33	sltu	x24,x23,x2	 x23:0xfffffffa  x2:0xaa8dd69f x24=0x00000000
       13825000	      1381	80006a3c	05f6f063	bgeu	x13,x31,80006a7c	 x13:0xffffffbb x31:0x80009ec0
       13835000	      1382	00000000	00000013	addi	x0,x0,0	  x0:0x00000000
       13845000	      1383	80006a78	00000013	addi	x0,x0,0	  x0:0x00000000
       13855000	      1384	80006a7c	00000013	addi	x0,x0,0	  x0:0x00000000
       13865000	      1385	80006a80	414f5893	srai	x17,x30,0x14	 x30:0x85e58000 x17=0xfffff85e
       13875000	      1386	80006a84	666cf017	auipc	x0,0x666cf	
       13885000	      1387	80006a88	015e8bb3	add	x23,x29,x21	 x29:0x000002bf x21:0xfffffd7a x23=0x00000039
       13895000	      1388	80006a8c	004e9393	slli	x7,x29,0x4	 x29:0x000002bf  x7=0x00002bf0
       13905000	      1389	80006a90	009f0db3	add	x27,x30,x9	 x30:0x85e58000  x9:0x00000000 x27=0x85e58000
       13915000	      1390	80006a94	03b50463	beq	x10,x27,80006abc	 x10:0xfffffaf5 x27:0x85e58000
       13925000	      1391	80006a98	40065093	srai	x1,x12,0x0	 x12:0x000000ff  x1=0x000000ff
       13935000	      1392	80006a9c	03ac5e63	bge	x24,x26,80006ad8	 x24:0x00000000 x26:0x0000cf4a
       13945000	      1393	80006aa0	40b95313	srai	x6,x18,0xb	 x18:0x00000001  x6=0x00000000
       13955000	      1394	80006aa4	019e9993	slli	x19,x29,0x19	 x29:0x000002bf x19=0x7e000000
       13965000	      1395	80006aa8	fcf96017	auipc	x0,0xfcf96	
       13975000	      1396	80006aac	0164f333	and	x6,x9,x22	  x9:0x00000000 x22:0x0000cfae  x6=0x00000000
       13985000	      1397	80006ab0	6f6eaf93	slti	x31,x29,1782	 x29:0x000002bf x31=0x00000001
       13995000	      1398	80006ab4	414dd933	sra	x18,x27,x20	 x27:0x85e58000 x20:0x00000000 x18=0x85e58000
       14005000	      1399	80006ab8	002f6863	bltu	x30,x2,80006ac8	 x30:0x85e58000  x2:0xaa8dd69f
       14015000	      1400	00000000	00000013	addi	x0,x0,0	  x0:0x00000000
       14025000	      1401	80006ac4	00000013	addi	x0,x0,0	  x0:0x00000000
       14035000	      1402	80006ac8	05fcf263	bgeu	x25,x31,80006b0c	 x25:0x80009ec0 x31:0x00000001
       14045000	      1403	00000000	00000013	addi	x0,x0,0	  x0:0x00000000
       14055000	      1404	80006b08	00000013	addi	x0,x0,0	  x0:0x00000000
       14065000	      1405	80006b0c	0139ed33	or	x26,x19,x19	 x19:0x7e000000 x19:0x7e000000 x26=0x7e000000
       14075000	      1406	80006b10	4f4f11b7	lui	x3,0x4f4f1	  x3=0x4f4f1000
       14085000	      1407	80006b14	00e55833	srl	x16,x10,x14	 x10:0xfffffaf5 x14:0xc8ea5000 x16=0xfffffaf5
       14095000	      1408	80006b18	88f0f337	lui	x6,0x88f0f	  x6=0x88f0f000
       14105000	      1409	80006b1c	01c1e633	or	x12,x3,x28	  x3:0x4f4f1000 x28:0x85e58000 x12=0xcfef9000
       14115000	      1410	80006b20	02696c63	bltu	x18,x6,80006b58	 x18:0x85e58000  x6:0x88f0f000
       14125000	      1411	00000000	00000013	addi	x0,x0,0	  x0:0x00000000
       14135000	      1412	80006b54	00000013	addi	x0,x0,0	  x0:0x00000000
       14145000	      1413	80006b58	f8077d13	andi	x26,x14,-128	 x14:0xc8ea5000 x26=0xc8ea5000
       14155000	      1414	80006b5c	3748fa17	auipc	x20,0x3748f	 x20=0xb7495b58
       14165000	      1415	80006b60	d0a3db17	auipc	x22,0xd0a3d	 x22=0x50a43b5c
       14175000	      1416	80006b64	55153e37	lui	x28,0x55153	 x28=0x55153000
       14185000	      1417	80006b68	00f53eb3	sltu	x29,x10,x15	 x10:0xfffffaf5 x15:0x80009fc4 x29=0x00000000
       14195000	      1418	80006b6c	403a52b3	sra	x5,x20,x3	 x20:0xb7495b58  x3:0x4f4f1000  x5=0xb7495b58
       14205000	      1419	80006b70	01b20ab3	add	x21,x4,x27	  x4:0x800088fa x27:0x85e58000 x21=0x05e608fa
       14215000	      1420	80006b74	01729463	bne	x5,x23,80006b7c	  x5:0xb7495b58 x23:0x00000039
       14225000	      1421	00000000	00000013	addi	x0,x0,0	  x0:0x00000000
       14235000	      1422	80006b78	00000013	addi	x0,x0,0	  x0:0x00000000
       14245000	      1423	80006b7c	00a37033	and	x0,x6,x10	  x6:0x88f0f000 x10:0xfffffaf5
       14255000	      1424	80006b80	0437e663	bltu	x15,x3,80006bcc	 x15:0x80009fc4  x3:0x4f4f1000
       14265000	      1425	80006b84	2a0a4893	xori	x17,x20,672	 x20:0xb7495b58 x17=0xb74959f8
       14275000	      1426	80006b88	0ee2f013	andi	x0,x5,238	  x5:0xb7495b58
       14285000	      1427	80006b8c	0187de33	srl	x28,x15,x24	 x15:0x80009fc4 x24:0x00000000 x28=0x80009fc4
       14295000	      1428	80006b90	01bdb533	sltu	x10,x27,x27	 x27:0x85e58000 x27:0x85e58000 x10=0x00000000
       14305000	      1429	80006b94	ce85d637	lui	x12,0xce85d	 x12=0xce85d000
       14315000	      1430	80006b98	17cf4a13	xori	x20,x30,380	 x30:0x85e58000 x20=0x85e5817c
       14325000	      1431	80006b9c	40c906b3	sub	x13,x18,x12	 x18:0x85e58000 x12:0xce85d000 x13=0xb75fb000
       14335000	      1432	80006ba0	e89aa213	slti	x4,x21,-375	 x21:0x05e608fa  x4=0x00000000
       14345000	      1433	80006ba4	0106d913	srli	x18,x13,0x10	 x13:0xb75fb000 x18=0x0000b75f
       14355000	      1434	80006ba8	00e8b633	sltu	x12,x17,x14	 x17:0xb74959f8 x14:0xc8ea5000 x12=0x00000001
       14365000	      1435	80006bac	019ae0b3	or	x1,x21,x25	 x21:0x05e608fa x25:0x80009ec0  x1=0x85e69efa
       14375000	      1436	80006bb0	009f6a33	or	x20,x30,x9	 x30:0x85e58000  x9:0x00000000 x20=0x85e58000
       14385000	      1437	80006bb4	1a1da413	slti	x8,x27,417	 x27:0x85e58000  x8=0x00000001
       14395000	      1438	80006bb8	7377ac13	slti	x24,x15,1847	 x15:0x80009fc4 x24=0x00000001
       14405000	      1439	80006bbc	011af633	and	x12,x21,x17	 x21:0x05e608fa x17:0xb74959f8 x12=0x054008f8
       14415000	      1440	80006bc0	01aa2d33	slt	x26,x20,x26	 x20:0x85e58000 x26:0xc8ea5000 x26=0x00000001
       14425000	      1441	80006bc4	0111c933	xor	x18,x3,x17	  x3:0x4f4f1000 x17:0xb74959f8 x18=0xf80649f8
       14435000	      1442	80006bc8	03097063	bgeu	x18,x16,80006be8	 x18:0xf80649f8 x16:0xfffffaf5
       14445000	      1443	80006bcc	77fc7713	andi	x14,x24,1919	 x24:0x00000001 x14=0x00000001
       14455000	      1444	80006bd0	0075d613	srli	x12,x11,0x7	 x11:0x80009ece x12=0x0100013d
       14465000	      1445	80006bd4	4183d3b3	sra	x7,x7,x24	  x7:0x00002bf0 x24:0x00000001  x7=0x000015f8
       14475000	      1446	80006bd8	4072d593	srai	x11,x5,0x7	  x5:0xb7495b58 x11=0xff6e92b6
       14485000	      1447	80006bdc	2211f493	andi	x9,x3,545	  x3:0x4f4f1000  x9=0x00000000
       14495000	      1448	80006be0	1b723e93	sltiu	x29,x4,439	  x4:0x00000000 x29=0x00000001
       14505000	      1449	80006be4	049b0193	addi	x3,x22,73	 x22:0x50a43b5c  x3=0x50a43ba5
       14515000	      1450	80006be8	41ca83b3	sub	x7,x21,x28	 x21:0x05e608fa x28:0x80009fc4  x7=0x85e56936
       14525000	      1451	80006bec	00000013	addi	x0,x0,0	  x0:0x00000000
       14535000	      1452	80006bf0	00daca63	blt	x21,x13,80006c04	 x21:0x05e608fa x13:0xb75fb000
       14545000	      1453	80006bf4	018111b3	sll	x3,x2,x24	  x2:0xaa8dd69f x24:0x00000001  x3=0x551bad3e
       14555000	      1454	80006bf8	018ad863	bge	x21,x24,80006c08	 x21:0x05e608fa x24:0x00000001
       14565000	      1455	00000000	00000013	addi	x0,x0,0	  x0:0x00000000
       14575000	      1456	80006c04	00000013	addi	x0,x0,0	  x0:0x00000000
       14585000	      1457	80006c08	000d5463	bge	x26,x0,80006c10	 x26:0x00000001  x0:0x00000000
       14595000	      1458	00000000	00000013	addi	x0,x0,0	  x0:0x00000000
       14605000	      1459	80006c0c	00000013	addi	x0,x0,0	  x0:0x00000000
       14615000	      1460	80006c10	00000013	addi	x0,x0,0	  x0:0x00000000
       14625000	      1461	80006c14	40895d93	srai	x27,x18,0x8	 x18:0xf80649f8 x27=0xfff80649
       14635000	      1462	80006c18	0178cdb3	xor	x27,x17,x23	 x17:0xb74959f8 x23:0x00000039 x27=0xb74959c1
       14645000	      1463	80006c1c	41885693	srai	x13,x16,0x18	 x16:0xfffffaf5 x13=0xffffffff
       14655000	      1464	80006c20	00d21033	sll	x0,x4,x13	  x4:0x00000000 x13:0xffffffff
       14665000	      1465	80006c24	5ea60c13	addi	x24,x12,1514	 x12:0x0100013d x24=0x01000727
       14675000	      1466	80006c28	00b4fd33	and	x26,x9,x11	  x9:0x00000000 x11:0xff6e92b6 x26=0x00000000
       14685000	      1467	80006c2c	ce9da513	slti	x10,x27,-791	 x27:0xb74959c1 x10=0x00000001
       14695000	      1468	80006c30	01800bb3	add	x23,x0,x24	  x0:0x00000000 x24:0x01000727 x23=0x01000727
       14705000	      1469	80006c34	d078c413	xori	x8,x17,-761	 x17:0xb74959f8  x8=0x48b6a4ff
       14715000	      1470	80006c38	0024b733	sltu	x14,x9,x2	  x9:0x00000000  x2:0xaa8dd69f x14=0x00000001
       14725000	      1471	80006c3c	031f6e63	bltu	x30,x17,80006c78	 x30:0x85e58000 x17:0xb74959f8
       14735000	      1472	00000000	00000013	addi	x0,x0,0	  x0:0x00000000
       14745000	      1473	80006c74	00000013	addi	x0,x0,0	  x0:0x00000000
       14755000	      1474	80006c78	00bc79b3	and	x19,x24,x11	 x24:0x01000727 x11:0xff6e92b6 x19=0x01000226
       14765000	      1475	80006c7c	41a05313	srai	x6,x0,0x1a	  x0:0x00000000  x6=0x00000000
       14775000	      1476	80006c80	00000013	addi	x0,x0,0	  x0:0x00000000
       14785000	      1477	80006c84	e7ffce93	xori	x29,x31,-385	 x31:0x00000001 x29=0xfffffe7e
       14795000	      1478	80006c88	2391f893	andi	x17,x3,569	  x3:0x551bad3e x17=0x00000038
       14805000	      1479	80006c8c	00a01533	sll	x10,x0,x10	  x0:0x00000000 x10:0x00000001 x10=0x00000000
       14815000	      1480	80006c90	9eb2bc13	sltiu	x24,x5,-1557	  x5:0xb7495b58 x24=0x00000001
       14825000	      1481	80006c94	aab2ba93	sltiu	x21,x5,-1365	  x5:0xb7495b58 x21=0x00000001
       14835000	      1482	80006c98	0155bab3	sltu	x21,x11,x21	 x11:0xff6e92b6 x21:0x00000001 x21=0x00000000
       14845000	      1483	80006c9c	411adf93	srai	x31,x21,0x11	 x21:0x00000000 x31=0x00000000
       14855000	      1484	80006ca0	00fd1613	slli	x12,x26,0xf	 x26:0x00000000 x12=0x00000000
       14865000	      1485	80006ca4	61bfb397	auipc	x7,0x61bfb	  x7=0xe1c01ca0
       14875000	      1486	80006ca8	dea4e013	ori	x0,x9,-534	  x9:0x00000000
       14885000	      1487	80006cac	2bb14d93	xori	x27,x2,699	  x2:0xaa8dd69f x27=0xaa8dd424
       14895000	      1488	80006cb0	4e074b13	xori	x22,x14,1248	 x14:0x00000001 x22=0x000004e1
       14905000	      1489	80006cb4	001f02b3	add	x5,x30,x1	 x30:0x85e58000  x1:0x85e69efa  x5=0x0bcc1efa
       14915000	      1490	80006cb8	01d68c63	beq	x13,x29,80006cd0	 x13:0xffffffff x29:0xfffffe7e
       14925000	      1491	80006cbc	87c5a293	slti	x5,x11,-1924	 x11:0xff6e92b6  x5=0x00000001
       14935000	      1492	80006cc0	fb080493	addi	x9,x16,-80	 x16:0xfffffaf5  x9=0xfffffaa5
       14945000	      1493	80006cc4	41025b93	srai	x23,x4,0x10	  x4:0x00000000 x23=0x00000000
       14955000	      1494	80006cc8	002fe463	bltu	x31,x2,80006cd0	 x31:0x00000000  x2:0xaa8dd69f
       14965000	      1495	00000000	00000013	addi	x0,x0,0	  x0:0x00000000
       14975000	      1496	80006ccc	00000013	addi	x0,x0,0	  x0:0x00000000
       14985000	      1497	80006cd0	00000013	addi	x0,x0,0	  x0:0x00000000
       14995000	      1498	80006cd4	013576b3	and	x13,x10,x19	 x10:0x00000000 x19:0x01000226 x13=0x00000000
       15005000	      1499	80006cd8	004caf83	lw	x31,4(x25)	 x25:0x80009ec0 x31=0x8000230c PA:0x80009ec4
       15015000	      1500	80006cdc	00541a33	sll	x20,x8,x5	  x8:0x48b6a4ff  x5:0x00000001 x20=0x916d49fe
       15025000	      1501	80006ce0	4f002d93	slti	x27,x0,1264	  x0:0x00000000 x27=0x00000001
       15035000	      1502	80006ce4	40c05493	srai	x9,x0,0xc	  x0:0x00000000  x9=0x00000000
       15045000	      1503	80006ce8	b77e6e13	ori	x28,x28,-1161	 x28:0x80009fc4 x28=0xfffffff7
       15055000	      1504	80006cec	01cc8c93	addi	x25,x25,28	 x25:0x80009ec0 x25=0x80009edc
       15065000	      1505	80006cf0	01673433	sltu	x8,x14,x22	 x14:0x00000001 x22:0x000004e1  x8=0x00000001
       15075000	      1506	80006cf4	7d992f13	slti	x30,x18,2009	 x18:0xf80649f8 x30=0x00000001
       15085000	      1507	80006cf8	01a881b3	add	x3,x17,x26	 x17:0x00000038 x26:0x00000000  x3=0x00000038
       15095000	      1508	80006cfc	5b618b93	addi	x23,x3,1462	  x3:0x00000038 x23=0x000005ee
       15105000	      1509	80006d00	e08dfe93	andi	x29,x27,-504	 x27:0x00000001 x29=0x00000000
       15115000	      1510	80006d04	000f8513	addi	x10,x31,0	 x31:0x8000230c x10=0x8000230c
       15125000	      1511	80006d08	00050567	jalr	x10,x10,0	 x10:0x8000230c x10=0x80006d08
       15135000	      1512	00000000	00000013	addi	x0,x0,0	  x0:0x00000000
       15145000	      1513	8000230c	00000013	addi	x0,x0,0	  x0:0x00000000
       15155000	      1514	80002310	00f375b3	and	x11,x6,x15	  x6:0x00000000 x15:0x80009fc4 x11=0x00000000
       15165000	      1515	80002314	01746c63	bltu	x8,x23,8000232c	  x8:0x00000001 x23:0x000005ee
       15175000	      1516	00000000	00000013	addi	x0,x0,0	  x0:0x00000000
       15185000	      1517	80002328	00000013	addi	x0,x0,0	  x0:0x00000000
       15195000	      1518	8000232c	817b6e13	ori	x28,x22,-2025	 x22:0x000004e1 x28=0xfffffcf7
       15205000	      1519	80002330	2b49a313	slti	x6,x19,692	 x19:0x01000226  x6=0x00000000
       15215000	      1520	80002334	015dd463	bge	x27,x21,8000233c	 x27:0x00000001 x21:0x00000000
       15225000	      1521	00000000	00000013	addi	x0,x0,0	  x0:0x00000000
       15235000	      1522	80002338	00000013	addi	x0,x0,0	  x0:0x00000000
       15245000	      1523	8000233c	01c8d013	srli	x0,x17,0x1c	 x17:0x00000038
       15255000	      1524	80002340	013f83b3	add	x7,x31,x19	 x31:0x8000230c x19:0x01000226  x7=0x81002532
       15265000	      1525	80002344	01e290b3	sll	x1,x5,x30	  x5:0x00000001 x30:0x00000001  x1=0x00000002
       15275000	      1526	80002348	00706a33	or	x20,x0,x7	  x0:0x00000000  x7:0x81002532 x20=0x81002532
       15285000	      1527	8000234c	f3218313	addi	x6,x3,-206	  x3:0x00000038  x6=0xffffff6a
       15295000	      1528	80002350	861c0193	addi	x3,x24,-1951	 x24:0x00000001  x3=0xfffff862
       15305000	      1529	80002354	01b49293	slli	x5,x9,0x1b	  x9:0x00000000  x5=0x00000000
       15315000	      1530	80002358	40d652b3	sra	x5,x12,x13	 x12:0x00000000 x13:0x00000000  x5=0x00000000
       15325000	      1531	8000235c	00c676b3	and	x13,x12,x12	 x12:0x00000000 x12:0x00000000 x13=0x00000000
       15335000	      1532	80002360	e51cc613	xori	x12,x25,-431	 x25:0x80009edc x12=0x7fff608d
       15345000	      1533	80002364	abdd6913	ori	x18,x26,-1347	 x26:0x00000000 x18=0xfffffabd
       15355000	      1534	80002368	00f6c033	xor	x0,x13,x15	 x13:0x00000000 x15:0x80009fc4
       15365000	      1535	8000236c	01c7fb33	and	x22,x15,x28	 x15:0x80009fc4 x28:0xfffffcf7 x22=0x80009cc4
       15375000	      1536	80002370	00931db3	sll	x27,x6,x9	  x6:0xffffff6a  x9:0x00000000 x27=0xffffff6a
       15385000	      1537	80002374	41b1dd13	srai	x26,x3,0x1b	  x3:0xfffff862 x26=0xffffffff
       15395000	      1538	80002378	0031d313	srli	x6,x3,0x3	  x3:0xfffff862  x6=0x1fffff0c
       15405000	      1539	8000237c	009cbbb3	sltu	x23,x25,x9	 x25:0x80009edc  x9:0x00000000 x23=0x00000000
       15415000	      1540	80002380	00000013	addi	x0,x0,0	  x0:0x00000000
       15425000	      1541	80002384	07646d13	ori	x26,x8,118	  x8:0x00000001 x26=0x00000077
       15435000	      1542	80002388	cbc2ec13	ori	x24,x5,-836	  x5:0x00000000 x24=0xfffffcbc
       15445000	      1543	8000238c	00098c33	add	x24,x19,x0	 x19:0x01000226  x0:0x00000000 x24=0x01000226
       15455000	      1544	80002390	6d2c3f13	sltiu	x30,x24,1746	 x24:0x01000226 x30=0x00000000
       15465000	      1545	80002394	00991693	slli	x13,x18,0x9	 x18:0xfffffabd x13=0xfff57a00
       15475000	      1546	80002398	01ec9a33	sll	x20,x25,x30	 x25:0x80009edc x30:0x00000000 x20=0x80009edc
       15485000	      1547	8000239c	419e5eb3	sra	x29,x28,x25	 x28:0xfffffcf7 x25:0x80009edc x29=0xffffffff
       15495000	      1548	800023a0	2118c593	xori	x11,x17,529	 x17:0x00000038 x11=0x00000229
       15505000	      1549	800023a4	02c44263	blt	x8,x12,800023c8	  x8:0x00000001 x12:0x7fff608d
       15515000	      1550	00000000	00000013	addi	x0,x0,0	  x0:0x00000000
       15525000	      1551	800023c4	00000013	addi	x0,x0,0	  x0:0x00000000
       15535000	      1552	800023c8	04bdc463	blt	x27,x11,80002410	 x27:0xffffff6a x11:0x00000229
       15545000	      1553	00000000	00000013	addi	x0,x0,0	  x0:0x00000000
       15555000	      1554	8000240c	00000013	addi	x0,x0,0	  x0:0x00000000
       15565000	      1555	80002410	019fc233	xor	x4,x31,x25	 x31:0x8000230c x25:0x80009edc  x4=0x0000bdd0
       15575000	      1556	80002414	18fc8293	addi	x5,x25,399	 x25:0x80009edc  x5=0x8000a06b
       15585000	      1557	80002418	6a71b813	sltiu	x16,x3,1703	  x3:0xfffff862 x16=0x00000000
       15595000	      1558	8000241c	40e3d733	sra	x14,x7,x14	  x7:0x81002532 x14:0x00000001 x14=0xc0801299
       15605000	      1559	80002420	014325b3	slt	x11,x6,x20	  x6:0x1fffff0c x20:0x80009edc x11=0x00000000
       15615000	      1560	80002424	db552193	slti	x3,x10,-587	 x10:0x80006d08  x3=0x00000001
       15625000	      1561	80002428	010b6db3	or	x27,x22,x16	 x22:0x80009cc4 x16:0x00000000 x27=0x80009cc4
       15635000	      1562	8000242c	001d6eb3	or	x29,x26,x1	 x26:0x00000077  x1:0x00000002 x29=0x00000077
       15645000	      1563	80002430	418ed613	srai	x12,x29,0x18	 x29:0x00000077 x12=0x00000000
       15655000	      1564	80002434	4043d433	sra	x8,x7,x4	  x7:0x81002532  x4:0x0000bdd0  x8=0xffff8100
       15665000	      1565	80002438	463f0d13	addi	x26,x30,1123	 x30:0x00000000 x26=0x00000463
       15675000	      1566	8000243c	01f6ebb3	or	x23,x13,x31	 x13:0xfff57a00 x31:0x8000230c x23=0xfff57b0c
       15685000	      1567	80002440	004012b3	sll	x5,x0,x4	  x0:0x00000000  x4:0x0000bdd0  x5=0x00000000
       15695000	      1568	80002444	0585f263	bgeu	x11,x24,80002488	 x11:0x00000000 x24:0x01000226
       15705000	      1569	80002448	41d6d593	srai	x11,x13,0x1d	 x13:0xfff57a00 x11=0xffffffff
       15715000	      1570	8000244c	a4b08593	addi	x11,x1,-1461	  x1:0x00000002 x11=0xfffffa4d
       15725000	      1571	80002450	0043d4b3	srl	x9,x7,x4	  x7:0x81002532  x4:0x0000bdd0  x9=0x00008100
       15735000	      1572	80002454	c95b8337	lui	x6,0xc95b8	  x6=0xc95b8000
       15745000	      1573	80002458	01c76f33	or	x30,x14,x28	 x14:0xc0801299 x28:0xfffffcf7 x30=0xfffffeff
       15755000	      1574	8000245c	41ac58b3	sra	x17,x24,x26	 x24:0x01000226 x26:0x00000463 x17=0x00200044
       15765000	      1575	80002460	00065bb3	srl	x23,x12,x0	 x12:0x00000000  x0:0x00000000 x23=0x00000000
       15775000	      1576	80002464	0131d233	srl	x4,x3,x19	  x3:0x00000001 x19:0x01000226  x4=0x00000000
       15785000	      1577	80002468	052b8063	beq	x23,x18,800024a8	 x23:0x00000000 x18:0xfffffabd
       15795000	      1578	8000246c	0077de63	bge	x15,x7,80002488	 x15:0x80009fc4  x7:0x81002532
       15805000	      1579	80002470	41e68933	sub	x18,x13,x30	 x13:0xfff57a00 x30:0xfffffeff x18=0xfff57b01
       15815000	      1580	80002474	03001863	bne	x0,x16,800024a4	  x0:0x00000000 x16:0x00000000
       15825000	      1581	80002478	1fd0a593	slti	x11,x1,509	  x1:0x00000002 x11=0x00000001
       15835000	      1582	8000247c	016c4c63	blt	x24,x22,80002494	 x24:0x01000226 x22:0x80009cc4
       15845000	      1583	80002480	00f66e63	bltu	x12,x15,8000249c	 x12:0x00000000 x15:0x80009fc4
       15855000	      1584	00000000	00000013	addi	x0,x0,0	  x0:0x00000000
       15865000	      1585	80002498	00000013	addi	x0,x0,0	  x0:0x00000000
       15875000	      1586	8000249c	412c89b3	sub	x19,x25,x18	 x25:0x80009edc x18:0xfff57b01 x19=0x800b23db
       15885000	      1587	800024a0	b93f8b93	addi	x23,x31,-1133	 x31:0x8000230c x23=0x80001e9f
       15895000	      1588	800024a4	03d4c063	blt	x9,x29,800024c4	  x9:0x00008100 x29:0x00000077
       15905000	      1589	800024a8	009bc533	xor	x10,x23,x9	 x23:0x80001e9f  x9:0x00008100 x10=0x80009f9f
       15915000	      1590	800024ac	036c9263	bne	x25,x22,800024d0	 x25:0x80009edc x22:0x80009cc4
       15925000	      1591	00000000	00000013	addi	x0,x0,0	  x0:0x00000000
       15935000	      1592	800024cc	00000013	addi	x0,x0,0	  x0:0x00000000
       15945000	      1593	800024d0	3da9ad93	slti	x27,x19,986	 x19:0x800b23db x27=0x00000001
       15955000	      1594	800024d4	6a7bce13	xori	x28,x23,1703	 x23:0x80001e9f x28=0x80001838
       15965000	      1595	800024d8	0186bab3	sltu	x21,x13,x24	 x13:0xfff57a00 x24:0x01000226 x21=0x00000000
       15975000	      1596	800024dc	009f81b3	add	x3,x31,x9	 x31:0x8000230c  x9:0x00008100  x3=0x8000a40c
       15985000	      1597	800024e0	01e16d33	or	x26,x2,x30	  x2:0xaa8dd69f x30:0xfffffeff x26=0xfffffeff
       15995000	      1598	800024e4	40bedc13	srai	x24,x29,0xb	 x29:0x00000077 x24=0x00000000
       16005000	      1599	800024e8	f33c7217	auipc	x4,0xf33c7	  x4=0x733c94e4
       16015000	      1600	800024ec	00db4863	blt	x22,x13,800024fc	 x22:0x80009cc4 x13:0xfff57a00
       16025000	      1601	00000000	00000013	addi	x0,x0,0	  x0:0x00000000
       16035000	      1602	800024f8	00000013	addi	x0,x0,0	  x0:0x00000000
       16045000	      1603	800024fc	03f2ec63	bltu	x5,x31,80002534	  x5:0x00000000 x31:0x8000230c
       16055000	      1604	00000000	00000013	addi	x0,x0,0	  x0:0x00000000
       16065000	      1605	80002530	00000013	addi	x0,x0,0	  x0:0x00000000
       16075000	      1606	80002534	01cec033	xor	x0,x29,x28	 x29:0x00000077 x28:0x80001838
       16085000	      1607	80002538	51e3ed13	ori	x26,x7,1310	  x7:0x81002532 x26=0x8100253e
       16095000	      1608	8000253c	ee857693	andi	x13,x10,-280	 x10:0x80009f9f x13=0x80009e88
       16105000	      1609	80002540	01a406b3	add	x13,x8,x26	  x8:0xffff8100 x26:0x8100253e x13=0x80ffa63e
       16115000	      1610	80002544	03625063	bge	x4,x22,80002564	  x4:0x733c94e4 x22:0x80009cc4
       16125000	      1611	00000000	00000013	addi	x0,x0,0	  x0:0x00000000
       16135000	      1612	80002560	00000013	addi	x0,x0,0	  x0:0x00000000
       16145000	      1613	80002564	047e6063	bltu	x28,x7,800025a4	 x28:0x80001838  x7:0x81002532
       16155000	      1614	00000000	00000013	addi	x0,x0,0	  x0:0x00000000
       16165000	      1615	800025a0	00000013	addi	x0,x0,0	  x0:0x00000000
       16175000	      1616	800025a4	73c7b193	sltiu	x3,x15,1852	 x15:0x80009fc4  x3=0x00000000
       16185000	      1617	800025a8	00000013	addi	x0,x0,0	  x0:0x00000000
       16195000	      1618	800025ac	03a49863	bne	x9,x26,800025dc	  x9:0x00008100 x26:0x8100253e
       16205000	      1619	00000000	00000013	addi	x0,x0,0	  x0:0x00000000
       16215000	      1620	800025d8	00000013	addi	x0,x0,0	  x0:0x00000000
       16225000	      1621	800025dc	00c533b3	sltu	x7,x10,x12	 x10:0x80009f9f x12:0x00000000  x7=0x00000000
       16235000	      1622	800025e0	00e2d993	srli	x19,x5,0xe	  x5:0x00000000 x19=0x00000000
       16245000	      1623	800025e4	4d2d5e37	lui	x28,0x4d2d5	 x28=0x4d2d5000
       16255000	      1624	800025e8	03bd7263	bgeu	x26,x27,8000260c	 x26:0x8100253e x27:0x00000001
       16265000	      1625	00000000	00000013	addi	x0,x0,0	  x0:0x00000000
       16275000	      1626	80002608	00000013	addi	x0,x0,0	  x0:0x00000000
       16285000	      1627	8000260c	5d26d937	lui	x18,0x5d26d	 x18=0x5d26d000
       16295000	      1628	80002610	ed553e13	sltiu	x28,x10,-299	 x10:0x80009f9f x28=0x00000001
       16305000	      1629	80002614	0106fe63	bgeu	x13,x16,80002630	 x13:0x80ffa63e x16:0x00000000
       16315000	      1630	00000000	00000013	addi	x0,x0,0	  x0:0x00000000
       16325000	      1631	8000262c	00000013	addi	x0,x0,0	  x0:0x00000000
       16335000	      1632	80002630	00ab2d33	slt	x26,x22,x10	 x22:0x80009cc4 x10:0x80009f9f x26=0x00000001
       16345000	      1633	80002634	05740063	beq	x8,x23,80002674	  x8:0xffff8100 x23:0x80001e9f
       16355000	      1634	80002638	3d42b893	sltiu	x17,x5,980	  x5:0x00000000 x17=0x00000001
       16365000	      1635	8000263c	006e8433	add	x8,x29,x6	 x29:0x00000077  x6:0xc95b8000  x8=0xc95b8077
       16375000	      1636	80002640	22402c13	slti	x24,x0,548	  x0:0x00000000 x24=0x00000001
       16385000	      1637	80002644	afd97093	andi	x1,x18,-1283	 x18:0x5d26d000  x1=0x5d26d000
       16395000	      1638	80002648	00bd8e63	beq	x27,x11,80002664	 x27:0x00000001 x11:0x00000001
       16405000	      1639	00000000	00000013	addi	x0,x0,0	  x0:0x00000000
       16415000	      1640	80002660	00000013	addi	x0,x0,0	  x0:0x00000000
       16425000	      1641	80002664	019d9663	bne	x27,x25,80002670	 x27:0x00000001 x25:0x80009edc
       16435000	      1642	00000000	00000013	addi	x0,x0,0	  x0:0x00000000
       16445000	      1643	8000266c	00000013	addi	x0,x0,0	  x0:0x00000000
       16455000	      1644	80002670	f57fae37	lui	x28,0xf57fa	 x28=0xf57fa000
       16465000	      1645	80002674	87df0d93	addi	x27,x30,-1923	 x30:0xfffffeff x27=0xfffff77c
       16475000	      1646	80002678	007f9f93	slli	x31,x31,0x7	 x31:0x8000230c x31=0x00118600
       16485000	      1647	8000267c	02aa4c63	blt	x20,x10,800026b4	 x20:0x80009edc x10:0x80009f9f
       16495000	      1648	00000000	00000013	addi	x0,x0,0	  x0:0x00000000
       16505000	      1649	800026b0	00000013	addi	x0,x0,0	  x0:0x00000000
       16515000	      1650	800026b4	002a6463	bltu	x20,x2,800026bc	 x20:0x80009edc  x2:0xaa8dd69f
       16525000	      1651	00000000	00000013	addi	x0,x0,0	  x0:0x00000000
       16535000	      1652	800026b8	00000013	addi	x0,x0,0	  x0:0x00000000
       16545000	      1653	800026bc	40a55f13	srai	x30,x10,0xa	 x10:0x80009f9f x30=0xffe00027
       16555000	      1654	800026c0	41eade93	srai	x29,x21,0x1e	 x21:0x00000000 x29=0x00000000
       16565000	      1655	800026c4	0160fc63	bgeu	x1,x22,800026dc	  x1:0x5d26d000 x22:0x80009cc4
       16575000	      1656	800026c8	13a28b93	addi	x23,x5,314	  x5:0x00000000 x23=0x0000013a
       16585000	      1657	800026cc	433dc293	xori	x5,x27,1075	 x27:0xfffff77c  x5=0xfffff34f
       16595000	      1658	800026d0	9db42d13	slti	x26,x8,-1573	  x8:0xc95b8077 x26=0x00000001
       16605000	      1659	800026d4	f0f93513	sltiu	x10,x18,-241	 x18:0x5d26d000 x10=0x00000001
       16615000	      1660	800026d8	00f86033	or	x0,x16,x15	 x16:0x00000000 x15:0x80009fc4
       16625000	      1661	800026dc	02896663	bltu	x18,x8,80002708	 x18:0x5d26d000  x8:0xc95b8077
       16635000	      1662	00000000	00000013	addi	x0,x0,0	  x0:0x00000000
       16645000	      1663	80002704	00000013	addi	x0,x0,0	  x0:0x00000000
       16655000	      1664	80002708	01ae7e33	and	x28,x28,x26	 x28:0xf57fa000 x26:0x00000001 x28=0x00000000
       16665000	      1665	8000270c	772faf13	slti	x30,x31,1906	 x31:0x00118600 x30=0x00000000
       16675000	      1666	80002710	9a314e17	auipc	x28,0x9a314	 x28=0x1a31670c
       16685000	      1667	80002714	004caf83	lw	x31,4(x25)	 x25:0x80009edc x31=0x80006654 PA:0x80009ee0
       16695000	      1668	80002718	006f1233	sll	x4,x30,x6	 x30:0x00000000  x6:0xc95b8000  x4=0x00000000
       16705000	      1669	8000271c	040c8c93	addi	x25,x25,64	 x25:0x80009edc x25=0x80009f1c
       16715000	      1670	80002720	28e23093	sltiu	x1,x4,654	  x4:0x00000000  x1=0x00000001
       16725000	      1671	80002724	2cfdaa93	slti	x21,x27,719	 x27:0xfffff77c x21=0x00000001
       16735000	      1672	80002728	c0f7bb93	sltiu	x23,x15,-1009	 x15:0x80009fc4 x23=0x00000001
       16745000	      1673	8000272c	010b1613	slli	x12,x22,0x10	 x22:0x80009cc4 x12=0x9cc40000
       16755000	      1674	80002730	001f8893	addi	x17,x31,1	 x31:0x80006654 x17=0x80006655
       16765000	      1675	80002734	000888e7	jalr	x17,x17,0	 x17:0x80006655 x17=0x80002734
       16775000	      1676	00000000	00000013	addi	x0,x0,0	  x0:0x00000000
       16785000	      1677	80006654	00000013	addi	x0,x0,0	  x0:0x00000000
       16795000	      1678	80006658	78cf5eb7	lui	x29,0x78cf5	 x29=0x78cf5000
       16805000	      1679	8000665c	ea7a4013	xori	x0,x20,-345	 x20:0x80009edc
       16815000	      1680	80006660	86786a93	ori	x21,x16,-1945	 x16:0x00000000 x21=0xfffff867
       16825000	      1681	80006664	008de1b3	or	x3,x27,x8	 x27:0xfffff77c  x8:0xc95b8077  x3=0xfffff77f
       16835000	      1682	80006668	01b9d3b3	srl	x7,x19,x27	 x19:0x00000000 x27:0xfffff77c  x7=0x00000000
       16845000	      1683	8000666c	e1a66993	ori	x19,x12,-486	 x12:0x9cc40000 x19=0xfffffe1a
       16855000	      1684	80006670	8a14e893	ori	x17,x9,-1887	  x9:0x00008100 x17=0xfffff9a1
       16865000	      1685	80006674	415ed4b3	sra	x9,x29,x21	 x29:0x78cf5000 x21:0xfffff867  x9=0x00f19ea0
       16875000	      1686	80006678	00aeee33	or	x28,x29,x10	 x29:0x78cf5000 x10:0x00000001 x28=0x78cf5001
       16885000	      1687	8000667c	0198c463	blt	x17,x25,80006684	 x17:0xfffff9a1 x25:0x80009f1c
       16895000	      1688	80006680	00da1213	slli	x4,x20,0xd	 x20:0x80009edc  x4=0x13db8000
       16905000	      1689	80006684	ef9f9fef	jal	x31,80006684	 x31=0x80006684
       16915000	      1690	00000000	00000013	addi	x0,x0,0	  x0:0x00000000
       16925000	      1691	80000578	00000013	addi	x0,x0,0	  x0:0x00000000
       16935000	      1692	8000057c	00cd9263	bne	x27,x12,80000580	 x27:0xfffff77c x12:0x9cc40000
       16945000	      1693	00000000	00000013	addi	x0,x0,0	  x0:0x00000000
       16955000	      1694	8000057c	00000013	addi	x0,x0,0	  x0:0x00000000
       16965000	      1695	80000580	fecc8c93	addi	x25,x25,-20	 x25:0x80009f1c x25=0x80009f08
       16975000	      1696	80000584	402d85b3	sub	x11,x27,x2	 x27:0xfffff77c  x2:0xaa8dd69f x11=0x557220dd
       16985000	      1697	80000588	01fca223	sw	x31,4(x25)	 x25:0x80009f08 x31:0x80006684 PA:0x80009f0c
       16995000	      1698	8000058c	01055713	srli	x14,x10,0x10	 x10:0x00000001 x14=0x00000000
       17005000	      1699	80000590	3dfba817	auipc	x16,0x3dfba	 x16=0xbdfba58c
       17015000	      1700	80000594	01039593	slli	x11,x7,0x10	  x7:0x00000000 x11=0x00000000
       17025000	      1701	80000598	019d9db3	sll	x27,x27,x25	 x27:0xfffff77c x25:0x80009f08 x27=0xfff77c00
       17035000	      1702	8000059c	00008497	auipc	x9,0x8	  x9=0x80008598
       17045000	      1703	800005a0	f0548493	addi	x9,x9,-251	  x9:0x80008598  x9=0x8000849d
       17055000	      1704	800005a4	00000013	addi	x0,x0,0	  x0:0x00000000
       17065000	      1705	800005a8	2e7488a3	sb	x7,753(x9)	  x9:0x8000849d  x7:0x00000000 PA:0x8000878e
       17075000	      1706	800005ac	00dacf33	xor	x30,x21,x13	 x21:0xfffff867 x13:0x80ffa63e x30=0x7f005e59
       17085000	      1707	800005b0	2524ea93	ori	x21,x9,594	  x9:0x8000849d x21=0x800086df
       17095000	      1708	800005b4	e1648313	addi	x6,x9,-490	  x9:0x8000849d  x6=0x800082b3
       17105000	      1709	800005b8	01126633	or	x12,x4,x17	  x4:0x13db8000 x17:0xfffff9a1 x12=0xfffff9a1
       17115000	      1710	800005bc	01784f33	xor	x30,x16,x23	 x16:0xbdfba58c x23:0x00000001 x30=0xbdfba58d
       17125000	      1711	800005c0	0085cab3	xor	x21,x11,x8	 x11:0x00000000  x8:0xc95b8077 x21=0xc95b8077
       17135000	      1712	800005c4	22e482a3	sb	x14,549(x9)	  x9:0x8000849d x14:0x00000000 PA:0x800086c2
       17145000	      1713	800005c8	cc04afa3	sw	x0,-801(x9)	  x9:0x8000849d  x0:0x00000000 PA:0x8000817c
       17155000	      1714	800005cc	aa74e417	auipc	x8,0xaa74e	  x8=0x2a74e5c8
       17165000	      1715	800005d0	dcb48223	sb	x11,-572(x9)	  x9:0x8000849d x11:0x00000000 PA:0x80008261
       17175000	      1716	800005d4	e604c083	lbu	x1,-416(x9)	  x9:0x8000849d  x1=0x00000074 PA:0x800082fd
       17185000	      1717	800005d8	d0949083	lh	x1,-759(x9)	  x9:0x8000849d  x1=0x00002e12 PA:0x800081a6
       17195000	      1718	800005dc	93093513	sltiu	x10,x18,-1744	 x18:0x5d26d000 x10=0x00000001
       17205000	      1719	800005e0	ffc48a83	lb	x21,-4(x9)	  x9:0x8000849d x21=0xffffffae PA:0x80008499
       17215000	      1720	800005e4	e3e48203	lb	x4,-450(x9)	  x9:0x8000849d  x4=0x00000025 PA:0x800082db
       17225000	      1721	800005e8	01151f13	slli	x30,x10,0x11	 x10:0x00000001 x30=0x00020000
       17235000	      1722	800005ec	1b748303	lb	x6,439(x9)	  x9:0x8000849d  x6=0xffffff9a PA:0x80008654
       17245000	      1723	800005f0	e3b4a303	lw	x6,-453(x9)	  x9:0x8000849d  x6=0x25943251 PA:0x800082d8
       17255000	      1724	800005f4	ec34ad03	lw	x26,-317(x9)	  x9:0x8000849d x26=0x713907d4 PA:0x80008360
       17265000	      1725	800005f8	00dab533	sltu	x10,x21,x13	 x21:0xffffffae x13:0x80ffa63e x10=0x00000000
       17275000	      1726	800005fc	de549683	lh	x13,-539(x9)	  x9:0x8000849d x13=0xffffcb89 PA:0x80008282
       17285000	      1727	80000600	dc149a83	lh	x21,-575(x9)	  x9:0x8000849d x21=0xffffb603 PA:0x8000825e
       17295000	      1728	80000604	1e549d83	lh	x27,485(x9)	  x9:0x8000849d x27=0xffffd267 PA:0x80008682
       17305000	      1729	80000608	29d49383	lh	x7,669(x9)	  x9:0x8000849d  x7=0xffff8f93 PA:0x8000873a
       17315000	      1730	8000060c	2cc48d23	sb	x12,730(x9)	  x9:0x8000849d x12:0xfffff9a1 PA:0x80008777
       17325000	      1731	80000610	35f48083	lb	x1,863(x9)	  x9:0x8000849d  x1=0x00000034 PA:0x800087fc
       17335000	      1732	80000614	120aa713	slti	x14,x21,288	 x21:0xffffb603 x14=0x00000001
       17345000	      1733	80000618	00772933	slt	x18,x14,x7	 x14:0x00000001  x7:0xffff8f93 x18=0x00000000
       17355000	      1734	8000061c	dd348823	sb	x19,-560(x9)	  x9:0x8000849d x19:0xfffffe1a PA:0x8000826d
       17365000	      1735	80000620	14948b03	lb	x22,329(x9)	  x9:0x8000849d x22=0x00000006 PA:0x800085e6
       17375000	      1736	80000624	05b8e5b7	lui	x11,0x5b8e	 x11=0x05b8e000
       17385000	      1737	80000628	c474cc03	lbu	x24,-953(x9)	  x9:0x8000849d x24=0x0000002d PA:0x800080e4
       17395000	      1738	8000062c	404b5033	sra	x0,x22,x4	 x22:0x00000006  x4:0x00000025
       17405000	      1739	80000630	3174aba3	sw	x23,791(x9)	  x9:0x8000849d x23:0x00000001 PA:0x800087b4
       17415000	      1740	80000634	cea48e23	sb	x10,-772(x9)	  x9:0x8000849d x10:0x00000000 PA:0x80008199
       17425000	      1741	80000638	bdaec517	auipc	x10,0xbdaec	 x10=0x3daec634
       17435000	      1742	8000063c	00848523	sb	x8,10(x9)	  x9:0x8000849d  x8:0x2a74e5c8 PA:0x800084a7
       17445000	      1743	80000640	c45c8917	auipc	x18,0xc45c8	 x18=0x445c863c
       17455000	      1744	80000644	c78485a3	sb	x24,-917(x9)	  x9:0x8000849d x24:0x0000002d PA:0x80008108
       17465000	      1745	80000648	c5648323	sb	x22,-954(x9)	  x9:0x8000849d x22:0x00000006 PA:0x800080e3
       17475000	      1746	8000064c	40bcd393	srai	x7,x25,0xb	 x25:0x80009f08  x7=0xfff00013
       17485000	      1747	80000650	52bca817	auipc	x16,0x52bca	 x16=0xd2bca64c
       17495000	      1748	80000654	ce048a03	lb	x20,-800(x9)	  x9:0x8000849d x20=0x00000000 PA:0x8000817d
       17505000	      1749	80000658	41395993	srai	x19,x18,0x13	 x18:0x445c863c x19=0x0000088b
       17515000	      1750	8000065c	01133933	sltu	x18,x6,x17	  x6:0x25943251 x17:0xfffff9a1 x18=0x00000001
       17525000	      1751	80000660	e994ca83	lbu	x21,-359(x9)	  x9:0x8000849d x21=0x00000093 PA:0x80008336
       17535000	      1752	80000664	d6a8fa93	andi	x21,x17,-662	 x17:0xfffff9a1 x21=0xfffff920
       17545000	      1753	80000668	411b0a33	sub	x20,x22,x17	 x22:0x00000006 x17:0xfffff9a1 x20=0x00000665
       17555000	      1754	8000066c	eef48423	sb	x15,-280(x9)	  x9:0x8000849d x15:0x80009fc4 PA:0x80008385
       17565000	      1755	80000670	016cd813	srli	x16,x25,0x16	 x25:0x80009f08 x16=0x00000200
       17575000	      1756	80000674	40a20f33	sub	x30,x4,x10	  x4:0x00000025 x10:0x3daec634 x30=0xc25139f1
       17585000	      1757	80000678	bd5487a3	sb	x21,-1073(x9)	  x9:0x8000849d x21:0xfffff920 PA:0x8000806c
       17595000	      1758	8000067c	5b937a17	auipc	x20,0x5b937	 x20=0xdb937678
       17605000	      1759	80000680	013abc33	sltu	x24,x21,x19	 x21:0xfffff920 x19:0x0000088b x24=0x00000000
       17615000	      1760	80000684	9d287213	andi	x4,x16,-1582	 x16:0x00000200  x4=0x00000000
       17625000	      1761	80000688	00000013	addi	x0,x0,0	  x0:0x00000000
       17635000	      1762	8000068c	019cd863	bge	x25,x25,8000069c	 x25:0x80009f08 x25:0x80009f08
       17645000	      1763	00000000	00000013	addi	x0,x0,0	  x0:0x00000000
       17655000	      1764	80000698	00000013	addi	x0,x0,0	  x0:0x00000000
       17665000	      1765	8000069c	00ae1993	slli	x19,x28,0xa	 x28:0x78cf5001 x19=0x3d400400
       17675000	      1766	800006a0	0547e663	bltu	x15,x20,800006ec	 x15:0x80009fc4 x20:0xdb937678
       17685000	      1767	00000000	00000013	addi	x0,x0,0	  x0:0x00000000
       17695000	      1768	800006e8	00000013	addi	x0,x0,0	  x0:0x00000000
       17705000	      1769	800006ec	00ad62b3	or	x5,x26,x10	 x26:0x713907d4 x10:0x3daec634  x5=0x7dbfc7f4
       17715000	      1770	800006f0	ed5dae93	slti	x29,x27,-299	 x27:0xffffd267 x29=0x00000001
       17725000	      1771	800006f4	00000013	addi	x0,x0,0	  x0:0x00000000
       17735000	      1772	800006f8	00e09533	sll	x10,x1,x14	  x1:0x00000034 x14:0x00000001 x10=0x00000068
       17745000	      1773	800006fc	41520ab3	sub	x21,x4,x21	  x4:0x00000000 x21:0xfffff920 x21=0x000006e0
       17755000	      1774	80000700	0074a9b3	slt	x19,x9,x7	  x9:0x8000849d  x7:0xfff00013 x19=0x00000001
       17765000	      1775	80000704	500dcb97	auipc	x23,0x500dc	 x23=0xd00dc700
       17775000	      1776	80000708	01e4e9b3	or	x19,x9,x30	  x9:0x8000849d x30:0xc25139f1 x19=0xc251bdfd
       17785000	      1777	8000070c	010640b3	xor	x1,x12,x16	 x12:0xfffff9a1 x16:0x00000200  x1=0xfffffba1
       17795000	      1778	80000710	00a0f863	bgeu	x1,x10,80000720	  x1:0xfffffba1 x10:0x00000068
       17805000	      1779	00000000	00000013	addi	x0,x0,0	  x0:0x00000000
       17815000	      1780	8000071c	00000013	addi	x0,x0,0	  x0:0x00000000
       17825000	      1781	80000720	c1436693	ori	x13,x6,-1004	  x6:0x25943251 x13=0xfffffe55
       17835000	      1782	80000724	00162033	slt	x0,x12,x1	 x12:0xfffff9a1  x1:0xfffffba1
       17845000	      1783	80000728	0114ca63	blt	x9,x17,8000073c	  x9:0x8000849d x17:0xfffff9a1
       17855000	      1784	00000000	00000013	addi	x0,x0,0	  x0:0x00000000
       17865000	      1785	80000738	00000013	addi	x0,x0,0	  x0:0x00000000
       17875000	      1786	8000073c	4110de13	srai	x28,x1,0x11	  x1:0xfffffba1 x28=0xffffffff
       17885000	      1787	80000740	00000013	addi	x0,x0,0	  x0:0x00000000
       17895000	      1788	80000744	e937ab13	slti	x22,x15,-365	 x15:0x80009fc4 x22=0x00000001
       17905000	      1789	80000748	f9c72237	lui	x4,0xf9c72	  x4=0xf9c72000
       17915000	      1790	8000074c	9585c193	xori	x3,x11,-1704	 x11:0x05b8e000  x3=0xfa471958
       17925000	      1791	80000750	02ca9037	lui	x0,0x2ca9	
       17935000	      1792	80000754	00b41893	slli	x17,x8,0xb	  x8:0x2a74e5c8 x17=0xa72e4000
       17945000	      1793	80000758	00000013	addi	x0,x0,0	  x0:0x00000000
       17955000	      1794	8000075c	01e31493	slli	x9,x6,0x1e	  x6:0x25943251  x9=0x40000000
       17965000	      1795	80000760	00000013	addi	x0,x0,0	  x0:0x00000000
       17975000	      1796	80000764	0133e033	or	x0,x7,x19	  x7:0xfff00013 x19:0xc251bdfd
       17985000	      1797	80000768	018f8533	add	x10,x31,x24	 x31:0x80006684 x24:0x00000000 x10=0x80006684
       17995000	      1798	8000076c	5f5d0213	addi	x4,x26,1525	 x26:0x713907d4  x4=0x71390dc9
       18005000	      1799	80000770	002c1913	slli	x18,x24,0x2	 x24:0x00000000 x18=0x00000000
       18015000	      1800	80000774	007c1013	slli	x0,x24,0x7	 x24:0x00000000
       18025000	      1801	80000778	0080d993	srli	x19,x1,0x8	  x1:0xfffffba1 x19=0x00fffffb
       18035000	      1802	8000077c	e5777013	andi	x0,x14,-425	 x14:0x00000001
       18045000	      1803	80000780	02291e63	bne	x18,x2,800007bc	 x18:0x00000000  x2:0xaa8dd69f
       18055000	      1804	00000000	00000013	addi	x0,x0,0	  x0:0x00000000
       18065000	      1805	800007b8	00000013	addi	x0,x0,0	  x0:0x00000000
       18075000	      1806	800007bc	01e02bb3	slt	x23,x0,x30	  x0:0x00000000 x30:0xc25139f1 x23=0x00000000
       18085000	      1807	800007c0	00169db3	sll	x27,x13,x1	 x13:0xfffffe55  x1:0xfffffba1 x27=0xfffffcaa
       18095000	      1808	800007c4	333dfd13	andi	x26,x27,819	 x27:0xfffffcaa x26=0x00000022
       18105000	      1809	800007c8	41d6d493	srai	x9,x13,0x1d	 x13:0xfffffe55  x9=0xffffffff
       18115000	      1810	800007cc	00b03433	sltu	x8,x0,x11	  x0:0x00000000 x11:0x05b8e000  x8=0x00000001
       18125000	      1811	800007d0	c9e87593	andi	x11,x16,-866	 x16:0x00000200 x11=0x00000000
       18135000	      1812	800007d4	00333633	sltu	x12,x6,x3	  x6:0x25943251  x3:0xfa471958 x12=0x00000001
       18145000	      1813	800007d8	417d8d33	sub	x26,x27,x23	 x27:0xfffffcaa x23:0x00000000 x26=0xfffffcaa
       18155000	      1814	800007dc	02596263	bltu	x18,x5,80000800	 x18:0x00000000  x5:0x7dbfc7f4
       18165000	      1815	00000000	00000013	addi	x0,x0,0	  x0:0x00000000
       18175000	      1816	800007fc	00000013	addi	x0,x0,0	  x0:0x00000000
       18185000	      1817	80000800	546b3b13	sltiu	x22,x22,1350	 x22:0x00000001 x22=0x00000001
       18195000	      1818	80000804	00b75bb3	srl	x23,x14,x11	 x14:0x00000001 x11:0x00000000 x23=0x00000001
       18205000	      1819	80000808	0136eb33	or	x22,x13,x19	 x13:0xfffffe55 x19:0x00fffffb x22=0xffffffff
       18215000	      1820	8000080c	40cc0eb3	sub	x29,x24,x12	 x24:0x00000000 x12:0x00000001 x29=0xffffffff
       18225000	      1821	80000810	00d7e833	or	x16,x15,x13	 x15:0x80009fc4 x13:0xfffffe55 x16=0xffffffd5
       18235000	      1822	80000814	27cfdb17	auipc	x22,0x27cfd	 x22=0xa7cfd810
       18245000	      1823	80000818	00000013	addi	x0,x0,0	  x0:0x00000000
       18255000	      1824	8000081c	00781863	bne	x16,x7,8000082c	 x16:0xffffffd5  x7:0xfff00013
       18265000	      1825	00000000	00000013	addi	x0,x0,0	  x0:0x00000000
       18275000	      1826	80000828	00000013	addi	x0,x0,0	  x0:0x00000000
       18285000	      1827	8000082c	01279e93	slli	x29,x15,0x12	 x15:0x80009fc4 x29=0x7f100000
       18295000	      1828	80000830	00065a93	srli	x21,x12,0x0	 x12:0x00000001 x21=0x00000001
       18305000	      1829	80000834	00d9dab3	srl	x21,x19,x13	 x19:0x00fffffb x13:0xfffffe55 x21=0x00000007
       18315000	      1830	80000838	a4faab93	slti	x23,x21,-1457	 x21:0x00000007 x23=0x00000000
       18325000	      1831	8000083c	01c7e033	or	x0,x15,x28	 x15:0x80009fc4 x28:0xffffffff
       18335000	      1832	80000840	014f8533	add	x10,x31,x20	 x31:0x80006684 x20:0xdb937678 x10=0x5b93dcfc
       18345000	      1833	80000844	033d5063	bge	x26,x19,80000864	 x26:0xfffffcaa x19:0x00fffffb
       18355000	      1834	80000848	413cd033	sra	x0,x25,x19	 x25:0x80009f08 x19:0x00fffffb
       18365000	      1835	8000084c	401c5a33	sra	x20,x24,x1	 x24:0x00000000  x1:0xfffffba1 x20=0x00000000
       18375000	      1836	80000850	015a5863	bge	x20,x21,80000860	 x20:0x00000000 x21:0x00000007
       18385000	      1837	80000854	40d55913	srai	x18,x10,0xd	 x10:0x5b93dcfc x18=0x0002dc9e
       18395000	      1838	80000858	0027c4b3	xor	x9,x15,x2	 x15:0x80009fc4  x2:0xaa8dd69f  x9=0x2a8d495b
       18405000	      1839	8000085c	1bb44313	xori	x6,x8,443	  x8:0x00000001  x6=0x000001ba
       18415000	      1840	80000860	41150c33	sub	x24,x10,x17	 x10:0x5b93dcfc x17:0xa72e4000 x24=0xb4659cfc
       18425000	      1841	80000864	67808013	addi	x0,x1,1656	  x1:0xfffffba1
       18435000	      1842	80000868	00000013	addi	x0,x0,0	  x0:0x00000000
       18445000	      1843	8000086c	63833313	sltiu	x6,x6,1592	  x6:0x000001ba  x6=0x00000001
       18455000	      1844	80000870	d4d03913	sltiu	x18,x0,-691	  x0:0x00000000 x18=0x00000001
       18465000	      1845	80000874	ad1bfe93	andi	x29,x23,-1327	 x23:0x00000000 x29=0x00000000
       18475000	      1846	80000878	addc7697	auipc	x13,0xaddc7	 x13=0x2ddc7874
       18485000	      1847	8000087c	40738c33	sub	x24,x7,x7	  x7:0xfff00013  x7:0xfff00013 x24=0x00000000
       18495000	      1848	80000880	00e390b3	sll	x1,x7,x14	  x7:0xfff00013 x14:0x00000001  x1=0xffe00026
       18505000	      1849	80000884	0158d433	srl	x8,x17,x21	 x17:0xa72e4000 x21:0x00000007  x8=0x014e5c80
       18515000	      1850	80000888	0063f5b3	and	x11,x7,x6	  x7:0xfff00013  x6:0x00000001 x11=0x00000001
       18525000	      1851	8000088c	01e15213	srli	x4,x2,0x1e	  x2:0xaa8dd69f  x4=0x00000002
       18535000	      1852	80000890	122fc593	xori	x11,x31,290	 x31:0x80006684 x11=0x800067a6
       18545000	      1853	80000894	2f4c7693	andi	x13,x24,756	 x24:0x00000000 x13=0x00000000
       18555000	      1854	80000898	017570b3	and	x1,x10,x23	 x10:0x5b93dcfc x23:0x00000000  x1=0x00000000
       18565000	      1855	8000089c	40958b33	sub	x22,x11,x9	 x11:0x800067a6  x9:0x2a8d495b x22=0x55731e4b
       18575000	      1856	800008a0	039eec63	bltu	x29,x25,800008d8	 x29:0x00000000 x25:0x80009f08
       18585000	      1857	00000000	00000013	addi	x0,x0,0	  x0:0x00000000
       18595000	      1858	800008d4	00000013	addi	x0,x0,0	  x0:0x00000000
       18605000	      1859	800008d8	01b32433	slt	x8,x6,x27	  x6:0x00000001 x27:0xfffffcaa  x8=0x00000000
       18615000	      1860	800008dc	f6946d93	ori	x27,x8,-151	  x8:0x00000000 x27=0xffffff69
       18625000	      1861	800008e0	405edb33	sra	x22,x29,x5	 x29:0x00000000  x5:0x7dbfc7f4 x22=0x00000000
       18635000	      1862	800008e4	01171fb3	sll	x31,x14,x17	 x14:0x00000001 x17:0xa72e4000 x31=0x00000001
       18645000	      1863	800008e8	010b9813	slli	x16,x23,0x10	 x23:0x00000000 x16=0x00000000
       18655000	      1864	800008ec	00145193	srli	x3,x8,0x1	  x8:0x00000000  x3=0x00000000
       18665000	      1865	800008f0	411002b3	sub	x5,x0,x17	  x0:0x00000000 x17:0xa72e4000  x5=0x58d1c000
       18675000	      1866	800008f4	039b1e63	bne	x22,x25,80000930	 x22:0x00000000 x25:0x80009f08
       18685000	      1867	00000000	00000013	addi	x0,x0,0	  x0:0x00000000
       18695000	      1868	8000092c	00000013	addi	x0,x0,0	  x0:0x00000000
       18705000	      1869	80000930	353bd917	auipc	x18,0x353bd	 x18=0xb53bd92c
       18715000	      1870	80000934	00613fb3	sltu	x31,x2,x6	  x2:0xaa8dd69f  x6:0x00000001 x31=0x00000000
       18725000	      1871	80000938	0059c663	blt	x19,x5,80000944	 x19:0x00fffffb  x5:0x58d1c000
       18735000	      1872	00000000	00000013	addi	x0,x0,0	  x0:0x00000000
       18745000	      1873	80000940	00000013	addi	x0,x0,0	  x0:0x00000000
       18755000	      1874	80000944	01848863	beq	x9,x24,80000954	  x9:0x2a8d495b x24:0x00000000
       18765000	      1875	80000948	41c20733	sub	x14,x4,x28	  x4:0x00000002 x28:0xffffffff x14=0x00000003
       18775000	      1876	8000094c	fed02413	slti	x8,x0,-19	  x0:0x00000000  x8=0x00000000
       18785000	      1877	80000950	0125c2b3	xor	x5,x11,x18	 x11:0x800067a6 x18:0xb53bd92c  x5=0x353bbe8a
       18795000	      1878	80000954	015f20b3	slt	x1,x30,x21	 x30:0xc25139f1 x21:0x00000007  x1=0x00000001
       18805000	      1879	80000958	2ddd6893	ori	x17,x26,733	 x26:0xfffffcaa x17=0xfffffeff
       18815000	      1880	8000095c	00aa4d33	xor	x26,x20,x10	 x20:0x00000000 x10:0x5b93dcfc x26=0x5b93dcfc
       18825000	      1881	80000960	0f4b8663	beq	x23,x20,80000a4c	 x23:0x00000000 x20:0x00000000
       18835000	      1882	00000000	00000013	addi	x0,x0,0	  x0:0x00000000
       18845000	      1883	80000a48	00000013	addi	x0,x0,0	  x0:0x00000000
       18855000	      1884	80000a4c	5f4e3513	sltiu	x10,x28,1524	 x28:0xffffffff x10=0x00000000
       18865000	      1885	80000a50	8f23f993	andi	x19,x7,-1806	  x7:0xfff00013 x19=0xfff00012
       18875000	      1886	80000a54	a1f75db7	lui	x27,0xa1f75	 x27=0xa1f75000
       18885000	      1887	80000a58	016cda33	srl	x20,x25,x22	 x25:0x80009f08 x22:0x00000000 x20=0x80009f08
       18895000	      1888	80000a5c	01e07eb3	and	x29,x0,x30	  x0:0x00000000 x30:0xc25139f1 x29=0x00000000
       18905000	      1889	80000a60	40625b93	srai	x23,x4,0x6	  x4:0x00000002 x23=0x00000000
       18915000	      1890	80000a64	00b9c5b3	xor	x11,x19,x11	 x19:0xfff00012 x11:0x800067a6 x11=0x7ff067b4
       18925000	      1891	80000a68	00000013	addi	x0,x0,0	  x0:0x00000000
       18935000	      1892	80000a6c	a8d84893	xori	x17,x16,-1395	 x16:0x00000000 x17=0xfffffa8d
       18945000	      1893	80000a70	00e04c33	xor	x24,x0,x14	  x0:0x00000000 x14:0x00000003 x24=0x00000003
       18955000	      1894	80000a74	018ca4b3	slt	x9,x25,x24	 x25:0x80009f08 x24:0x00000003  x9=0x00000001
       18965000	      1895	80000a78	fd7fc093	xori	x1,x31,-41	 x31:0x00000000  x1=0xffffffd7
       18975000	      1896	80000a7c	01525c63	bge	x4,x21,80000a94	  x4:0x00000002 x21:0x00000007
       18985000	      1897	80000a80	04c80063	beq	x16,x12,80000ac0	 x16:0x00000000 x12:0x00000001
       18995000	      1898	80000a84	019f2f33	slt	x30,x30,x25	 x30:0xc25139f1 x25:0x80009f08 x30=0x00000000
       19005000	      1899	80000a88	01cbf1b3	and	x3,x23,x28	 x23:0x00000000 x28:0xffffffff  x3=0x00000000
       19015000	      1900	80000a8c	0153d863	bge	x7,x21,80000a9c	  x7:0xfff00013 x21:0x00000007
       19025000	      1901	80000a90	00415fb3	srl	x31,x2,x4	  x2:0xaa8dd69f  x4:0x00000002 x31=0x2aa375a7
       19035000	      1902	80000a94	0043e933	or	x18,x7,x4	  x7:0xfff00013  x4:0x00000002 x18=0xfff00013
       19045000	      1903	80000a98	01881b13	slli	x22,x16,0x18	 x16:0x00000000 x22=0x00000000
       19055000	      1904	80000a9c	00000013	addi	x0,x0,0	  x0:0x00000000
       19065000	      1905	80000aa0	ee736593	ori	x11,x6,-281	  x6:0x00000001 x11=0xfffffee7
       19075000	      1906	80000aa4	81886e93	ori	x29,x16,-2024	 x16:0x00000000 x29=0xfffff818
       19085000	      1907	80000aa8	016a9313	slli	x6,x21,0x16	 x21:0x00000007  x6=0x01c00000
       19095000	      1908	80000aac	cc19c493	xori	x9,x19,-831	 x19:0xfff00012  x9=0x000ffcd3
       19105000	      1909	80000ab0	e6e87713	andi	x14,x16,-402	 x16:0x00000000 x14=0x00000000
       19115000	      1910	80000ab4	415255b3	sra	x11,x4,x21	  x4:0x00000002 x21:0x00000007 x11=0x00000000
       19125000	      1911	80000ab8	033c6463	bltu	x24,x19,80000ae0	 x24:0x00000003 x19:0xfff00012
       19135000	      1912	00000000	00000013	addi	x0,x0,0	  x0:0x00000000
       19145000	      1913	80000adc	00000013	addi	x0,x0,0	  x0:0x00000000
       19155000	      1914	80000ae0	02a70463	beq	x14,x10,80000b08	 x14:0x00000000 x10:0x00000000
       19165000	      1915	00000000	00000013	addi	x0,x0,0	  x0:0x00000000
       19175000	      1916	80000b04	00000013	addi	x0,x0,0	  x0:0x00000000
       19185000	      1917	80000b08	04fc0663	beq	x24,x15,80000b54	 x24:0x00000003 x15:0x80009fc4
       19195000	      1918	80000b0c	c92cce97	auipc	x29,0xc92cc	 x29=0x492ccb08
       19205000	      1919	80000b10	da828337	lui	x6,0xda828	  x6=0xda828000
       19215000	      1920	80000b14	400ad3b3	sra	x7,x21,x0	 x21:0x00000007  x0:0x00000000  x7=0x00000007
       19225000	      1921	80000b18	41ee05b3	sub	x11,x28,x30	 x28:0xffffffff x30:0x00000000 x11=0xffffffff
       19235000	      1922	80000b1c	00000013	addi	x0,x0,0	  x0:0x00000000
       19245000	      1923	80000b20	4008d5b3	sra	x11,x17,x0	 x17:0xfffffa8d  x0:0x00000000 x11=0xfffffa8d
       19255000	      1924	80000b24	008f4ab3	xor	x21,x30,x8	 x30:0x00000000  x8:0x00000000 x21=0x00000000
       19265000	      1925	80000b28	40530fb3	sub	x31,x6,x5	  x6:0xda828000  x5:0x353bbe8a x31=0xa546c176
       19275000	      1926	80000b2c	dcc02413	slti	x8,x0,-564	  x0:0x00000000  x8=0x00000000
       19285000	      1927	80000b30	0091d893	srli	x17,x3,0x9	  x3:0x00000000 x17=0x00000000
       19295000	      1928	80000b34	32dc2913	slti	x18,x24,813	 x24:0x00000003 x18=0x00000001
       19305000	      1929	80000b38	01ae85b3	add	x11,x29,x26	 x29:0x492ccb08 x26:0x5b93dcfc x11=0xa4c0a804
       19315000	      1930	80000b3c	bb55ef13	ori	x30,x11,-1099	 x11:0xa4c0a804 x30=0xfffffbb5
       19325000	      1931	80000b40	5d80fb17	auipc	x22,0x5d80f	 x22=0xdd80fb3c
       19335000	      1932	80000b44	00da8e63	beq	x21,x13,80000b60	 x21:0x00000000 x13:0x00000000
       19345000	      1933	00000000	00000013	addi	x0,x0,0	  x0:0x00000000
       19355000	      1934	80000b5c	00000013	addi	x0,x0,0	  x0:0x00000000
       19365000	      1935	80000b60	00e9e863	bltu	x19,x14,80000b70	 x19:0xfff00012 x14:0x00000000
       19375000	      1936	80000b64	04308493	addi	x9,x1,67	  x1:0xffffffd7  x9=0x0000001a
       19385000	      1937	80000b68	01614333	xor	x6,x2,x22	  x2:0xaa8dd69f x22:0xdd80fb3c  x6=0x770d2da3
       19395000	      1938	80000b6c	40bd08b3	sub	x17,x26,x11	 x26:0x5b93dcfc x11:0xa4c0a804 x17=0xb6d334f8
       19405000	      1939	80000b70	40ef0b33	sub	x22,x30,x14	 x30:0xfffffbb5 x14:0x00000000 x22=0xfffffbb5
       19415000	      1940	80000b74	00159593	slli	x11,x11,0x1	 x11:0xa4c0a804 x11=0x49815008
       19425000	      1941	80000b78	00736663	bltu	x6,x7,80000b84	  x6:0x770d2da3  x7:0x00000007
       19435000	      1942	80000b7c	0059c933	xor	x18,x19,x5	 x19:0xfff00012  x5:0x353bbe8a x18=0xcacbbe98
       19445000	      1943	80000b80	bbb93393	sltiu	x7,x18,-1093	 x18:0xcacbbe98  x7=0x00000001
       19455000	      1944	80000b84	00083bb3	sltu	x23,x16,x0	 x16:0x00000000  x0:0x00000000 x23=0x00000000
       19465000	      1945	80000b88	e031a997	auipc	x19,0xe031a	 x19=0x6031ab84
       19475000	      1946	80000b8c	004caf83	lw	x31,4(x25)	 x25:0x80009f08 x31=0x80006684 PA:0x80009f0c
       19485000	      1947	80000b90	17baee13	ori	x28,x21,379	 x21:0x00000000 x28=0x0000017b
       19495000	      1948	80000b94	9e255c17	auipc	x24,0x9e255	 x24=0x1e255b90
       19505000	      1949	80000b98	7f9b0e93	addi	x29,x22,2041	 x22:0xfffffbb5 x29=0x000003ae
       19515000	      1950	80000b9c	014c8c93	addi	x25,x25,20	 x25:0x80009f08 x25=0x80009f1c
       19525000	      1951	80000ba0	01fe5893	srli	x17,x28,0x1f	 x28:0x0000017b x17=0x00000000
       19535000	      1952	80000ba4	011c58b3	srl	x17,x24,x17	 x24:0x1e255b90 x17:0x00000000 x17=0x1e255b90
       19545000	      1953	80000ba8	40100233	sub	x4,x0,x1	  x0:0x00000000  x1:0xffffffd7  x4=0x00000029
       19555000	      1954	80000bac	001f8293	addi	x5,x31,1	 x31:0x80006684  x5=0x80006685
       19565000	      1955	80000bb0	000282e7	jalr	x5,x5,0	  x5:0x80006685  x5=0x80000bb0
       19575000	      1956	00000000	00000013	addi	x0,x0,0	  x0:0x00000000
       19585000	      1957	80006684	00000013	addi	x0,x0,0	  x0:0x00000000
       19595000	      1958	80006688	40b385b3	sub	x11,x7,x11	  x7:0x00000001 x11:0x49815008 x11=0xb67eaff9
       19605000	      1959	8000668c	0197bbb3	sltu	x23,x15,x25	 x15:0x80009fc4 x25:0x80009f1c x23=0x00000000
       19615000	      1960	80006690	01b629b3	slt	x19,x12,x27	 x12:0x00000001 x27:0xa1f75000 x19=0x00000000
       19625000	      1961	80006694	414c5093	srai	x1,x24,0x14	 x24:0x1e255b90  x1=0x000001e2
       19635000	      1962	80006698	00ef81b3	add	x3,x31,x14	 x31:0x80006684 x14:0x00000000  x3=0x80006684
       19645000	      1963	8000669c	0b800fef	jal	x31,8000669c	 x31=0x8000669c
       19655000	      1964	00000000	00000013	addi	x0,x0,0	  x0:0x00000000
       19665000	      1965	80006750	00000013	addi	x0,x0,0	  x0:0x00000000
       19675000	      1966	80006754	4104da33	sra	x20,x9,x16	  x9:0x0000001a x16:0x00000000 x20=0x0000001a
       19685000	      1967	80006758	40ae85b3	sub	x11,x29,x10	 x29:0x000003ae x10:0x00000000 x11=0x000003ae
       19695000	      1968	8000675c	bf41f213	andi	x4,x3,-1036	  x3:0x80006684  x4=0x80006284
       19705000	      1969	80006760	0039d5b3	srl	x11,x19,x3	 x19:0x00000000  x3:0x80006684 x11=0x00000000
       19715000	      1970	80006764	01e46833	or	x16,x8,x30	  x8:0x00000000 x30:0xfffffbb5 x16=0xfffffbb5
       19725000	      1971	80006768	01380b33	add	x22,x16,x19	 x16:0xfffffbb5 x19:0x00000000 x22=0xfffffbb5
       19735000	      1972	8000676c	00474d33	xor	x26,x14,x4	 x14:0x00000000  x4:0x80006284 x26=0x80006284
       19745000	      1973	80006770	00ae0933	add	x18,x28,x10	 x28:0x0000017b x10:0x00000000 x18=0x0000017b
       19755000	      1974	80006774	00e7adb3	slt	x27,x15,x14	 x15:0x80009fc4 x14:0x00000000 x27=0x00000001
       19765000	      1975	80006778	fe0c8c93	addi	x25,x25,-32	 x25:0x80009f1c x25=0x80009efc
       19775000	      1976	8000677c	01fca223	sw	x31,4(x25)	 x25:0x80009efc x31:0x8000669c PA:0x80009f00
       19785000	      1977	80006780	b1f4ee13	ori	x28,x9,-1249	  x9:0x0000001a x28=0xfffffb1f
       19795000	      1978	80006784	0572c663	blt	x5,x23,800067d0	  x5:0x80000bb0 x23:0x00000000
       19805000	      1979	00000000	00000013	addi	x0,x0,0	  x0:0x00000000
       19815000	      1980	800067cc	00000013	addi	x0,x0,0	  x0:0x00000000
       19825000	      1981	800067d0	400058b3	sra	x17,x0,x0	  x0:0x00000000  x0:0x00000000 x17=0x00000000
       19835000	      1982	800067d4	0024ad33	slt	x26,x9,x2	  x9:0x0000001a  x2:0xaa8dd69f x26=0x00000000
       19845000	      1983	800067d8	00000013	addi	x0,x0,0	  x0:0x00000000
       19855000	      1984	800067dc	00880533	add	x10,x16,x8	 x16:0xfffffbb5  x8:0x00000000 x10=0xfffffbb5
       19865000	      1985	800067e0	00693233	sltu	x4,x18,x6	 x18:0x0000017b  x6:0x770d2da3  x4=0x00000001
       19875000	      1986	800067e4	00cdcd33	xor	x26,x27,x12	 x27:0x00000001 x12:0x00000001 x26=0x00000000
       19885000	      1987	800067e8	96166a93	ori	x21,x12,-1695	 x12:0x00000001 x21=0xfffff961
       19895000	      1988	800067ec	01683433	sltu	x8,x16,x22	 x16:0xfffffbb5 x22:0xfffffbb5  x8=0x00000000
       19905000	      1989	800067f0	dc862313	slti	x6,x12,-568	 x12:0x00000001  x6=0x00000000
       19915000	      1990	800067f4	00480f33	add	x30,x16,x4	 x16:0xfffffbb5  x4:0x00000001 x30=0xfffffbb6
       19925000	      1991	800067f8	41a90533	sub	x10,x18,x26	 x18:0x0000017b x26:0x00000000 x10=0x0000017b
       19935000	      1992	800067fc	0826cb13	xori	x22,x13,130	 x13:0x00000000 x22=0x00000082
       19945000	      1993	80006800	017f3d33	sltu	x26,x30,x23	 x30:0xfffffbb6 x23:0x00000000 x26=0x00000000
       19955000	      1994	80006804	94f0cf93	xori	x31,x1,-1713	  x1:0x000001e2 x31=0xfffff8ad
       19965000	      1995	80006808	675d7493	andi	x9,x26,1653	 x26:0x00000000  x9=0x00000000
       19975000	      1996	8000680c	01728c33	add	x24,x5,x23	  x5:0x80000bb0 x23:0x00000000 x24=0x80000bb0
       19985000	      1997	80006810	4e8b4093	xori	x1,x22,1256	 x22:0x00000082  x1=0x0000046a
       19995000	      1998	80006814	008d1bb3	sll	x23,x26,x8	 x26:0x00000000  x8:0x00000000 x23=0x00000000
       20005000	      1999	80006818	27e38293	addi	x5,x7,638	  x7:0x00000001  x5=0x0000027f
       20015000	      2000	8000681c	0216ce63	blt	x13,x1,80006858	 x13:0x00000000  x1:0x0000046a
       20025000	      2001	00000000	00000013	addi	x0,x0,0	  x0:0x00000000
       20035000	      2002	80006854	00000013	addi	x0,x0,0	  x0:0x00000000
       20045000	      2003	80006858	01bbf533	and	x10,x23,x27	 x23:0x00000000 x27:0x00000001 x10=0x00000000
       20055000	      2004	8000685c	068b6f93	ori	x31,x22,104	 x22:0x00000082 x31=0x000000ea
       20065000	      2005	80006860	04c50663	beq	x10,x12,800068ac	 x10:0x00000000 x12:0x00000001
       20075000	      2006	80006864	41975c13	srai	x24,x14,0x19	 x14:0x00000000 x24=0x00000000
       20085000	      2007	80006868	00f788b3	add	x17,x15,x15	 x15:0x80009fc4 x15:0x80009fc4 x17=0x00013f88
       20095000	      2008	8000686c	e96e2a13	slti	x20,x28,-362	 x28:0xfffffb1f x20=0x00000001
       20105000	      2009	80006870	d2a12d93	slti	x27,x2,-726	  x2:0xaa8dd69f x27=0x00000001
       20115000	      2010	80006874	00899863	bne	x19,x8,80006884	 x19:0x00000000  x8:0x00000000
       20125000	      2011	80006878	00000013	addi	x0,x0,0	  x0:0x00000000
       20135000	      2012	8000687c	780cc493	xori	x9,x25,1920	 x25:0x80009efc  x9=0x8000997c
       20145000	      2013	80006880	e0d02413	slti	x8,x0,-499	  x0:0x00000000  x8=0x00000000
       20155000	      2014	80006884	40b15033	sra	x0,x2,x11	  x2:0xaa8dd69f x11:0x00000000
       20165000	      2015	80006888	62ab7813	andi	x16,x22,1578	 x22:0x00000082 x16=0x00000002
       20175000	      2016	8000688c	01cf0463	beq	x30,x28,80006894	 x30:0xfffffbb6 x28:0xfffffb1f
       20185000	      2017	80006890	045cd063	bge	x25,x5,800068d0	 x25:0x80009efc  x5:0x0000027f
       20195000	      2018	80006894	2af77e37	lui	x28,0x2af77	 x28=0x2af77000
       20205000	      2019	80006898	e705e097	auipc	x1,0xe705e	  x1=0x67064894
       20215000	      2020	8000689c	47843613	sltiu	x12,x8,1144	  x8:0x00000000 x12=0x00000001
       20225000	      2021	800068a0	6c2ae613	ori	x12,x21,1730	 x21:0xfffff961 x12=0xffffffe3
       20235000	      2022	800068a4	e8e9cf93	xori	x31,x19,-370	 x19:0x00000000 x31=0xfffffe8e
       20245000	      2023	800068a8	01731c63	bne	x6,x23,800068c0	  x6:0x00000000 x23:0x00000000
       20255000	      2024	800068ac	020a1463	bne	x20,x0,800068d4	 x20:0x00000001  x0:0x00000000
       20265000	      2025	00000000	00000013	addi	x0,x0,0	  x0:0x00000000
       20275000	      2026	800068d0	00000013	addi	x0,x0,0	  x0:0x00000000
       20285000	      2027	800068d4	4053d033	sra	x0,x7,x5	  x7:0x00000001  x5:0x0000027f
       20295000	      2028	800068d8	004caf83	lw	x31,4(x25)	 x25:0x80009efc x31=0x8000669c PA:0x80009f00
       20305000	      2029	800068dc	003138b3	sltu	x17,x2,x3	  x2:0xaa8dd69f  x3:0x80006684 x17=0x00000000
       20315000	      2030	800068e0	00f8dc13	srli	x24,x17,0xf	 x17:0x00000000 x24=0x00000000
       20325000	      2031	800068e4	020c8c93	addi	x25,x25,32	 x25:0x80009efc x25=0x80009f1c
       20335000	      2032	800068e8	01f95093	srli	x1,x18,0x1f	 x18:0x0000017b  x1=0x00000000
       20345000	      2033	800068ec	001f8813	addi	x16,x31,1	 x31:0x8000669c x16=0x8000669d
       20355000	      2034	800068f0	00080867	jalr	x16,x16,0	 x16:0x8000669d x16=0x800068f0
       20365000	      2035	00000000	00000013	addi	x0,x0,0	  x0:0x00000000
       20375000	      2036	8000669c	00000013	addi	x0,x0,0	  x0:0x00000000
       20385000	      2037	800066a0	ffffc597	auipc	x11,0xffffc	 x11=0x8000269c
       20395000	      2038	800066a4	1dc58593	addi	x11,x11,476	 x11:0x8000269c x11=0x80002878
       20405000	      2039	800066a8	01a960b3	or	x1,x18,x26	 x18:0x0000017b x26:0x00000000  x1=0x0000017b
       20415000	      2040	800066ac	9a60cb93	xori	x23,x1,-1626	  x1:0x0000017b x23=0xfffff8dd
       20425000	      2041	800066b0	0de58593	addi	x11,x11,222	 x11:0x80002878 x11=0x80002956
       20435000	      2042	800066b4	013911b3	sll	x3,x18,x19	 x18:0x0000017b x19:0x00000000  x3=0x0000017b
       20445000	      2043	800066b8	00d39013	slli	x0,x7,0xd	  x7:0x00000001
       20455000	      2044	800066bc	99934e13	xori	x28,x6,-1639	  x6:0x00000000 x28=0xfffff999
       20465000	      2045	800066c0	01afc233	xor	x4,x31,x26	 x31:0x8000669c x26:0x00000000  x4=0x8000669c
       20475000	      2046	800066c4	01596433	or	x8,x18,x21	 x18:0x0000017b x21:0xfffff961  x8=0xfffff97b
       20485000	      2047	800066c8	f2358fe7	jalr	x31,x11,-221	 x11:0x80002956 x31=0x800066c8
       20495000	      2048	00000000	00000013	addi	x0,x0,0	  x0:0x00000000
       20505000	      2049	80002878	00000013	addi	x0,x0,0	  x0:0x00000000
       20515000	      2050	8000287c	01de9693	slli	x13,x29,0x1d	 x29:0x000003ae x13=0xc0000000
       20525000	      2051	80002880	fdcc8c93	addi	x25,x25,-36	 x25:0x80009f1c x25=0x80009ef8
       20535000	      2052	80002884	01fca223	sw	x31,4(x25)	 x25:0x80009ef8 x31:0x800066c8 PA:0x80009efc
       20545000	      2053	80002888	d9da4e13	xori	x28,x20,-611	 x20:0x00000001 x28=0xfffffd9c
       20555000	      2054	8000288c	45a80e13	addi	x28,x16,1114	 x16:0x800068f0 x28=0x80006d4a
       20565000	      2055	80002890	0189d233	srl	x4,x19,x24	 x19:0x00000000 x24:0x00000000  x4=0x00000000
       20575000	      2056	80002894	46d129b7	lui	x19,0x46d12	 x19=0x46d12000
       20585000	      2057	80002898	403d5233	sra	x4,x26,x3	 x26:0x00000000  x3:0x0000017b  x4=0x00000000
       20595000	      2058	8000289c	41305333	sra	x6,x0,x19	  x0:0x00000000 x19:0x46d12000  x6=0x00000000
       20605000	      2059	800028a0	01591b93	slli	x23,x18,0x15	 x18:0x0000017b x23=0x2f600000
       20615000	      2060	800028a4	008a5733	srl	x14,x20,x8	 x20:0x00000001  x8:0xfffff97b x14=0x00000000
       20625000	      2061	800028a8	00006c17	auipc	x24,0x6	 x24=0x800088a4
       20635000	      2062	800028ac	ce9c0c13	addi	x24,x24,-791	 x24:0x800088a4 x24=0x8000858d
       20645000	      2063	800028b0	b71c06a3	sb	x17,-1171(x24)	 x24:0x8000858d x17:0x00000000 PA:0x800080fa
       20655000	      2064	800028b4	006d7ab3	and	x21,x26,x6	 x26:0x00000000  x6:0x00000000 x21=0x00000000
       20665000	      2065	800028b8	152c0d23	sb	x18,346(x24)	 x24:0x8000858d x18:0x0000017b PA:0x800086e7
       20675000	      2066	800028bc	f6cc0f23	sb	x12,-130(x24)	 x24:0x8000858d x12:0xffffffe3 PA:0x8000850b
       20685000	      2067	800028c0	179c5b83	lhu	x23,377(x24)	 x24:0x8000858d x23=0x000066a4 PA:0x80008706
       20695000	      2068	800028c4	3397f837	lui	x16,0x3397f	 x16=0x3397f000
       20705000	      2069	800028c8	0d9c1803	lh	x16,217(x24)	 x24:0x8000858d x16=0x00001f97 PA:0x80008666
       20715000	      2070	800028cc	00d386b3	add	x13,x7,x13	  x7:0x00000001 x13:0xc0000000 x13=0xc0000001
       20725000	      2071	800028d0	f42c0523	sb	x2,-182(x24)	 x24:0x8000858d  x2:0xaa8dd69f PA:0x800084d7
       20735000	      2072	800028d4	d1d14093	xori	x1,x2,-739	  x2:0xaa8dd69f  x1=0x55722b82
       20745000	      2073	800028d8	aeae3013	sltiu	x0,x28,-1302	 x28:0x80006d4a
       20755000	      2074	800028dc	bbec0f23	sb	x30,-1090(x24)	 x24:0x8000858d x30:0xfffffbb6 PA:0x8000814b
       20765000	      2075	800028e0	147c2203	lw	x4,327(x24)	 x24:0x8000858d  x4=0x349c9a11 PA:0x800086d4
       20775000	      2076	800028e4	b2fc5883	lhu	x17,-1233(x24)	 x24:0x8000858d x17=0x0000622b PA:0x800080bc
       20785000	      2077	800028e8	2c4d6693	ori	x13,x26,708	 x26:0x00000000 x13=0x000002c4
       20795000	      2078	800028ec	00000013	addi	x0,x0,0	  x0:0x00000000
       20805000	      2079	800028f0	e3ec0b03	lb	x22,-450(x24)	 x24:0x8000858d x22=0xffffffa1 PA:0x800083cb
       20815000	      2080	800028f4	1b9c5e83	lhu	x29,441(x24)	 x24:0x8000858d x29=0x000036d3 PA:0x80008746
       20825000	      2081	800028f8	01540db3	add	x27,x8,x21	  x8:0xfffff97b x21:0x00000000 x27=0xfffff97b
       20835000	      2082	800028fc	015c48b3	xor	x17,x24,x21	 x24:0x8000858d x21:0x00000000 x17=0x8000858d
       20845000	      2083	80002900	b07c5483	lhu	x9,-1273(x24)	 x24:0x8000858d  x9=0x00000e48 PA:0x80008094
       20855000	      2084	80002904	fc6c0083	lb	x1,-58(x24)	 x24:0x8000858d  x1=0x0000004b PA:0x80008553
       20865000	      2085	80002908	96424213	xori	x4,x4,-1692	  x4:0x349c9a11  x4=0xcb636375
       20875000	      2086	8000290c	bf7c10a3	sh	x23,-1055(x24)	 x24:0x8000858d x23:0x000066a4 PA:0x8000816e
       20885000	      2087	80002910	de1c0523	sb	x1,-534(x24)	 x24:0x8000858d  x1:0x0000004b PA:0x80008377
       20895000	      2088	80002914	40b90b33	sub	x22,x18,x11	 x18:0x0000017b x11:0x80002956 x22=0x7fffd825
       20905000	      2089	80002918	ef846f93	ori	x31,x8,-264	  x8:0xfffff97b x31=0xfffffffb
       20915000	      2090	8000291c	013919b3	sll	x19,x18,x19	 x18:0x0000017b x19:0x46d12000 x19=0x0000017b
       20925000	      2091	80002920	df34c693	xori	x13,x9,-525	  x9:0x00000e48 x13=0xfffff3bb
       20935000	      2092	80002924	01deb6b3	sltu	x13,x29,x29	 x29:0x000036d3 x29:0x000036d3 x13=0x00000000
       20945000	      2093	80002928	c58c0923	sb	x24,-942(x24)	 x24:0x8000858d x24:0x8000858d PA:0x800081df
       20955000	      2094	8000292c	e2a53593	sltiu	x11,x10,-470	 x10:0x00000000 x11=0x00000001
       20965000	      2095	80002930	0022d813	srli	x16,x5,0x2	  x5:0x0000027f x16=0x0000009f
       20975000	      2096	80002934	1c5c0ca3	sb	x5,473(x24)	 x24:0x8000858d  x5:0x0000027f PA:0x80008766
       20985000	      2097	80002938	1dec4f03	lbu	x30,478(x24)	 x24:0x8000858d x30=0x000000dc PA:0x8000876b
       20995000	      2098	8000293c	eb7c2ba3	sw	x23,-329(x24)	 x24:0x8000858d x23:0x000066a4 PA:0x80008444
       21005000	      2099	80002940	ad7c0223	sb	x23,-1340(x24)	 x24:0x8000858d x23:0x000066a4 PA:0x80008051
       21015000	      2100	80002944	4b7e8413	addi	x8,x29,1207	 x29:0x000036d3  x8=0x00003b8a
       21025000	      2101	80002948	d1fc2e83	lw	x29,-737(x24)	 x24:0x8000858d x29=0x221956af PA:0x800082ac
       21035000	      2102	8000294c	175c2da3	sw	x21,379(x24)	 x24:0x8000858d x21:0x00000000 PA:0x80008708
       21045000	      2103	80002950	121c1e83	lh	x29,289(x24)	 x24:0x8000858d x29=0x00004e0d PA:0x800086ae
       21055000	      2104	80002954	f6894d13	xori	x26,x18,-152	 x18:0x0000017b x26=0xfffffe13
       21065000	      2105	80002958	410a0633	sub	x12,x20,x16	 x20:0x00000001 x16:0x0000009f x12=0xffffff62
       21075000	      2106	8000295c	fc8c0d03	lb	x26,-56(x24)	 x24:0x8000858d x26=0x00000066 PA:0x80008555
       21085000	      2107	80002960	6a917d13	andi	x26,x2,1705	  x2:0xaa8dd69f x26=0x00000689
       21095000	      2108	80002964	01711193	slli	x3,x2,0x17	  x2:0xaa8dd69f  x3=0x4f800000
       21105000	      2109	80002968	016250b3	srl	x1,x4,x22	  x4:0xcb636375 x22:0x7fffd825  x1=0x065b1b1b
       21115000	      2110	8000296c	c6fc5503	lhu	x10,-913(x24)	 x24:0x8000858d x10=0x00008d30 PA:0x800081fc
       21125000	      2111	80002970	56fdf017	auipc	x0,0x56fdf	
       21135000	      2112	80002974	dfad26b7	lui	x13,0xdfad2	 x13=0xdfad2000
       21145000	      2113	80002978	01372a33	slt	x20,x14,x19	 x14:0x00000000 x19:0x0000017b x20=0x00000001
       21155000	      2114	8000297c	bcbc0da3	sb	x11,-1061(x24)	 x24:0x8000858d x11:0x00000001 PA:0x80008168
       21165000	      2115	80002980	00006217	auipc	x4,0x6	  x4=0x8000897c
       21175000	      2116	80002984	0e920213	addi	x4,x4,233	  x4:0x8000897c  x4=0x80008a65
       21185000	      2117	80002988	1d322483	lw	x9,467(x4)	  x4:0x80008a65  x9=0xffc266ae PA:0x80008c38
       21195000	      2118	8000298c	05224983	lbu	x19,82(x4)	  x4:0x80008a65 x19=0x000000be PA:0x80008ab7
       21205000	      2119	80002990	19c225a3	sw	x28,395(x4)	  x4:0x80008a65 x28:0x80006d4a PA:0x80008bf0
       21215000	      2120	80002994	07224d83	lbu	x27,114(x4)	  x4:0x80008a65 x27=0x00000068 PA:0x80008ad7
       21225000	      2121	80002998	88e3ab93	slti	x23,x7,-1906	  x7:0x00000001 x23=0x00000000
       21235000	      2122	8000299c	016465b3	or	x11,x8,x22	  x8:0x00003b8a x22:0x7fffd825 x11=0x7ffffbaf
       21245000	      2123	800029a0	28420b23	sb	x4,662(x4)	  x4:0x80008a65  x4:0x80008a65 PA:0x80008cfb
       21255000	      2124	800029a4	016e63b3	or	x7,x28,x22	 x28:0x80006d4a x22:0x7fffd825  x7=0xfffffd6f
       21265000	      2125	800029a8	01520403	lb	x8,21(x4)	  x4:0x80008a65  x8=0xffffffe0 PA:0x80008a7a
       21275000	      2126	800029ac	19d20003	lb	x0,413(x4)	  x4:0x80008a65 PA:0x80008c02
       21285000	      2127	800029b0	3b121703	lh	x14,945(x4)	  x4:0x80008a65 x14=0x00000658 PA:0x80008e16
       21295000	      2128	800029b4	99e6c617	auipc	x12,0x99e6c	 x12=0x19e6e9b0
       21305000	      2129	800029b8	57924e03	lbu	x28,1401(x4)	  x4:0x80008a65 x28=0x00000000 PA:0x80008fde
       21315000	      2130	800029bc	4be21ca3	sh	x30,1209(x4)	  x4:0x80008a65 x30:0x000000dc PA:0x80008f1e
       21325000	      2131	800029c0	013af733	and	x14,x21,x19	 x21:0x00000000 x19:0x000000be x14=0x00000000
       21335000	      2132	800029c4	472207a3	sb	x18,1135(x4)	  x4:0x80008a65 x18:0x0000017b PA:0x80008ed4
       21345000	      2133	800029c8	0017e0b3	or	x1,x15,x1	 x15:0x80009fc4  x1:0x065b1b1b  x1=0x865b9fdf
       21355000	      2134	800029cc	004f6eb3	or	x29,x30,x4	 x30:0x000000dc  x4:0x80008a65 x29=0x80008afd
       21365000	      2135	800029d0	18c24183	lbu	x3,396(x4)	  x4:0x80008a65  x3=0x0000006d PA:0x80008bf1
       21375000	      2136	800029d4	34a24283	lbu	x5,842(x4)	  x4:0x80008a65  x5=0x00000045 PA:0x80008daf
       21385000	      2137	800029d8	32820f23	sb	x8,830(x4)	  x4:0x80008a65  x8:0xffffffe0 PA:0x80008da3
       21395000	      2138	800029dc	53124483	lbu	x9,1329(x4)	  x4:0x80008a65  x9=0x000000ed PA:0x80008f96
       21405000	      2139	800029e0	c48fb593	sltiu	x11,x31,-952	 x31:0xfffffffb x11=0x00000000
       21415000	      2140	800029e4	00000013	addi	x0,x0,0	  x0:0x00000000
       21425000	      2141	800029e8	f7320523	sb	x19,-150(x4)	  x4:0x80008a65 x19:0x000000be PA:0x800089cf
       21435000	      2142	800029ec	012f9593	slli	x11,x31,0x12	 x31:0xfffffffb x11=0xffec0000
       21445000	      2143	800029f0	41e351b3	sra	x3,x6,x30	  x6:0x00000000 x30:0x000000dc  x3=0x00000000
       21455000	      2144	800029f4	00f25a03	lhu	x20,15(x4)	  x4:0x80008a65 x20=0x00009e93 PA:0x80008a74
       21465000	      2145	800029f8	25c24483	lbu	x9,604(x4)	  x4:0x80008a65  x9=0x0000002d PA:0x80008cc1
       21475000	      2146	800029fc	017e1bb3	sll	x23,x28,x23	 x28:0x00000000 x23:0x00000000 x23=0x00000000
       21485000	      2147	80002a00	41515093	srai	x1,x2,0x15	  x2:0xaa8dd69f  x1=0xfffffd54
       21495000	      2148	80002a04	0ea21aa3	sh	x10,245(x4)	  x4:0x80008a65 x10:0x00008d30 PA:0x80008b5a
       21505000	      2149	80002a08	21abfa93	andi	x21,x23,538	 x23:0x00000000 x21=0x00000000
       21515000	      2150	80002a0c	01f87db3	and	x27,x16,x31	 x16:0x0000009f x31:0xfffffffb x27=0x0000009b
       21525000	      2151	80002a10	1b125f03	lhu	x30,433(x4)	  x4:0x80008a65 x30=0x00000e4e PA:0x80008c16
       21535000	      2152	80002a14	e7b20c03	lb	x24,-389(x4)	  x4:0x80008a65 x24=0xffffffd7 PA:0x800088e0
       21545000	      2153	80002a18	004df033	and	x0,x27,x4	 x27:0x0000009b  x4:0x80008a65
       21555000	      2154	80002a1c	419e5033	sra	x0,x28,x25	 x28:0x00000000 x25:0x80009ef8
       21565000	      2155	80002a20	e32205a3	sb	x18,-469(x4)	  x4:0x80008a65 x18:0x0000017b PA:0x80008890
       21575000	      2156	80002a24	01c7d813	srli	x16,x15,0x1c	 x15:0x80009fc4 x16=0x00000008
       21585000	      2157	80002a28	40c0ddb3	sra	x27,x1,x12	  x1:0xfffffd54 x12:0x19e6e9b0 x27=0xffffffff
       21595000	      2158	80002a2c	01247f33	and	x30,x8,x18	  x8:0xffffffe0 x18:0x0000017b x30=0x00000160
       21605000	      2159	80002a30	2cc24703	lbu	x14,716(x4)	  x4:0x80008a65 x14=0x0000000b PA:0x80008d31
       21615000	      2160	80002a34	0162c433	xor	x8,x5,x22	  x5:0x00000045 x22:0x7fffd825  x8=0x7fffd860
       21625000	      2161	80002a38	015b2d33	slt	x26,x22,x21	 x22:0x7fffd825 x21:0x00000000 x26=0x00000000
       21635000	      2162	80002a3c	01beb933	sltu	x18,x29,x27	 x29:0x80008afd x27:0xffffffff x18=0x00000001
       21645000	      2163	80002a40	2d520123	sb	x21,706(x4)	  x4:0x80008a65 x21:0x00000000 PA:0x80008d27
       21655000	      2164	80002a44	30a6be13	sltiu	x28,x13,778	 x13:0xdfad2000 x28=0x00000000
       21665000	      2165	80002a48	01ffe033	or	x0,x31,x31	 x31:0xfffffffb x31:0xfffffffb
       21675000	      2166	80002a4c	1f920d23	sb	x25,506(x4)	  x4:0x80008a65 x25:0x80009ef8 PA:0x80008c5f
       21685000	      2167	80002a50	000236b3	sltu	x13,x4,x0	  x4:0x80008a65  x0:0x00000000 x13=0x00000000
       21695000	      2168	80002a54	45a24c03	lbu	x24,1114(x4)	  x4:0x80008a65 x24=0x0000007e PA:0x80008ebf
       21705000	      2169	80002a58	00006417	auipc	x8,0x6	  x8=0x80008a54
       21715000	      2170	80002a5c	3b740413	addi	x8,x8,951	  x8:0x80008a54  x8=0x80008e0b
       21725000	      2171	80002a60	025420a3	sw	x5,33(x8)	  x8:0x80008e0b  x5:0x00000045 PA:0x80008e2c
       21735000	      2172	80002a64	000edfb3	srl	x31,x29,x0	 x29:0x80008afd  x0:0x00000000 x31=0x80008afd
       21745000	      2173	80002a68	fbe40e23	sb	x30,-68(x8)	  x8:0x80008e0b x30:0x00000160 PA:0x80008dc7
       21755000	      2174	80002a6c	07f40323	sb	x31,102(x8)	  x8:0x80008e0b x31:0x80008afd PA:0x80008e71
       21765000	      2175	80002a70	f1741183	lh	x3,-233(x8)	  x8:0x80008e0b  x3=0x000014f4 PA:0x80008d22
       21775000	      2176	80002a74	f7d404a3	sb	x29,-151(x8)	  x8:0x80008e0b x29:0x80008afd PA:0x80008d74
       21785000	      2177	80002a78	02baf693	andi	x13,x21,43	 x21:0x00000000 x13=0x00000000
       21795000	      2178	80002a7c	f5641ba3	sh	x22,-169(x8)	  x8:0x80008e0b x22:0x7fffd825 PA:0x80008d62
       21805000	      2179	80002a80	ca8d4c13	xori	x24,x26,-856	 x26:0x00000000 x24=0xfffffca8
       21815000	      2180	80002a84	0ec44383	lbu	x7,236(x8)	  x8:0x80008e0b  x7=0x0000004f PA:0x80008ef7
       21825000	      2181	80002a88	2bc0e693	ori	x13,x1,700	  x1:0xfffffd54 x13=0xfffffffc
       21835000	      2182	80002a8c	04244a03	lbu	x20,66(x8)	  x8:0x80008e0b x20=0x000000a1 PA:0x80008e4d
       21845000	      2183	80002a90	d1ae6493	ori	x9,x28,-742	 x28:0x00000000  x9=0xfffffd1a
       21855000	      2184	80002a94	f2b41483	lh	x9,-213(x8)	  x8:0x80008e0b  x9=0x00003eaf PA:0x80008d36
       21865000	      2185	80002a98	f93402a3	sb	x19,-123(x8)	  x8:0x80008e0b x19:0x000000be PA:0x80008d90
       21875000	      2186	80002a9c	31f36f93	ori	x31,x6,799	  x6:0x00000000 x31=0x0000031f
       21885000	      2187	80002aa0	f3941283	lh	x5,-199(x8)	  x8:0x80008e0b  x5=0x00004642 PA:0x80008d44
       21895000	      2188	80002aa4	0099ad33	slt	x26,x19,x9	 x19:0x000000be  x9:0x00003eaf x26=0x00000001
       21905000	      2189	80002aa8	01a45bb3	srl	x23,x8,x26	  x8:0x80008e0b x26:0x00000001 x23=0x40004705
       21915000	      2190	80002aac	05541fa3	sh	x21,95(x8)	  x8:0x80008e0b x21:0x00000000 PA:0x80008e6a
       21925000	      2191	80002ab0	6e90dab7	lui	x21,0x6e90d	 x21=0x6e90d000
       21935000	      2192	80002ab4	07d410a3	sh	x29,97(x8)	  x8:0x80008e0b x29:0x80008afd PA:0x80008e6c
       21945000	      2193	80002ab8	000c7ab3	and	x21,x24,x0	 x24:0xfffffca8  x0:0x00000000 x21=0x00000000
       21955000	      2194	80002abc	04340883	lb	x17,67(x8)	  x8:0x80008e0b x17=0x00000001 PA:0x80008e4e
       21965000	      2195	80002ac0	0e344383	lbu	x7,227(x8)	  x8:0x80008e0b  x7=0x00000023 PA:0x80008eee
       21975000	      2196	80002ac4	0f340aa3	sb	x19,245(x8)	  x8:0x80008e0b x19:0x000000be PA:0x80008f00
       21985000	      2197	80002ac8	01240383	lb	x7,18(x8)	  x8:0x80008e0b  x7=0xffffffed PA:0x80008e1d
       21995000	      2198	80002acc	f5440883	lb	x17,-172(x8)	  x8:0x80008e0b x17=0x0000000a PA:0x80008d5f
       22005000	      2199	80002ad0	2fdb7513	andi	x10,x22,765	 x22:0x7fffd825 x10=0x00000025
       22015000	      2200	80002ad4	01f09d33	sll	x26,x1,x31	  x1:0xfffffd54 x31:0x0000031f x26=0x00000000
       22025000	      2201	80002ad8	07545e03	lhu	x28,117(x8)	  x8:0x80008e0b x28=0x00007861 PA:0x80008e80
       22035000	      2202	80002adc	017a0733	add	x14,x20,x23	 x20:0x000000a1 x23:0x40004705 x14=0x400047a6
       22045000	      2203	80002ae0	e96390b7	lui	x1,0xe9639	  x1=0xe9639000
       22055000	      2204	80002ae4	08a44b83	lbu	x23,138(x8)	  x8:0x80008e0b x23=0x0000009f PA:0x80008e95
       22065000	      2205	80002ae8	fee28f13	addi	x30,x5,-18	  x5:0x00004642 x30=0x00004630
       22075000	      2206	80002aec	0d440a83	lb	x21,212(x8)	  x8:0x80008e0b x21=0xfffffff2 PA:0x80008edf
       22085000	      2207	80002af0	f1040623	sb	x16,-244(x8)	  x8:0x80008e0b x16:0x00000008 PA:0x80008d17
       22095000	      2208	80002af4	017b6b33	or	x22,x22,x23	 x22:0x7fffd825 x23:0x0000009f x22=0x7fffd8bf
       22105000	      2209	80002af8	00000013	addi	x0,x0,0	  x0:0x00000000
       22115000	      2210	80002afc	00733633	sltu	x12,x6,x7	  x6:0x00000000  x7:0xffffffed x12=0x00000001
       22125000	      2211	80002b00	fa344d83	lbu	x27,-93(x8)	  x8:0x80008e0b x27=0x00000098 PA:0x80008dae
       22135000	      2212	80002b04	f23400a3	sb	x3,-223(x8)	  x8:0x80008e0b  x3:0x000014f4 PA:0x80008d2c
       22145000	      2213	80002b08	09444983	lbu	x19,148(x8)	  x8:0x80008e0b x19=0x000000e8 PA:0x80008e9f
       22155000	      2214	80002b0c	0d844683	lbu	x13,216(x8)	  x8:0x80008e0b x13=0x000000e5 PA:0x80008ee3
       22165000	      2215	80002b10	114cfab7	lui	x21,0x114cf	 x21=0x114cf000
       22175000	      2216	80002b14	05140f83	lb	x31,81(x8)	  x8:0x80008e0b x31=0x0000002b PA:0x80008e5c
       22185000	      2217	80002b18	00006517	auipc	x10,0x6	 x10=0x80008b14
       22195000	      2218	80002b1c	31e50513	addi	x10,x10,798	 x10:0x80008b14 x10=0x80008e32
       22205000	      2219	80002b20	05d54403	lbu	x8,93(x10)	 x10:0x80008e32  x8=0x00000062 PA:0x80008e8f
       22215000	      2220	80002b24	40510ab3	sub	x21,x2,x5	  x2:0xaa8dd69f  x5:0x00004642 x21=0xaa8d905d
       22225000	      2221	80002b28	00a9e233	or	x4,x19,x10	 x19:0x000000e8 x10:0x80008e32  x4=0x80008efa
       22235000	      2222	80002b2c	00f53a33	sltu	x20,x10,x15	 x10:0x80008e32 x15:0x80009fc4 x20=0x00000001
       22245000	      2223	80002b30	01179493	slli	x9,x15,0x11	 x15:0x80009fc4  x9=0x3f880000
       22255000	      2224	80002b34	a4f50e03	lb	x28,-1457(x10)	 x10:0x80008e32 x28=0x0000003a PA:0x80008881
       22265000	      2225	80002b38	f02508a3	sb	x2,-239(x10)	 x10:0x80008e32  x2:0xaa8dd69f PA:0x80008d43
       22275000	      2226	80002b3c	41bad633	sra	x12,x21,x27	 x21:0xaa8d905d x27:0x00000098 x12=0xffffffaa
       22285000	      2227	80002b40	2f91f693	andi	x13,x3,761	  x3:0x000014f4 x13=0x000000f0
       22295000	      2228	80002b44	e754c193	xori	x3,x9,-395	  x9:0x3f880000  x3=0xc077fe75
       22305000	      2229	80002b48	00000013	addi	x0,x0,0	  x0:0x00000000
       22315000	      2230	80002b4c	000dd693	srli	x13,x27,0x0	 x27:0x00000098 x13=0x00000098
       22325000	      2231	80002b50	a1851883	lh	x17,-1512(x10)	 x10:0x80008e32 x17=0x0000247e PA:0x8000884a
       22335000	      2232	80002b54	00dcf3b3	and	x7,x25,x13	 x25:0x80009ef8 x13:0x00000098  x7=0x00000098
       22345000	      2233	80002b58	d9b50983	lb	x19,-613(x10)	 x10:0x80008e32 x19=0x00000008 PA:0x80008bcd
       22355000	      2234	00000000	00000013	addi	x0,x0,0	  x0:0x00000000
       22365000	      2235	80002b5c	d532bb13	sltiu	x22,x5,-685	  x5:0x00004642 x22=0x00000001
       22375000	      2236	80002b60	e86ea4b7	lui	x9,0xe86ea	  x9=0xe86ea000
       22385000	      2237	80002b64	01ebc6b3	xor	x13,x23,x30	 x23:0x0000009f x30:0x00004630 x13=0x000046af
       22395000	      2238	80002b68	41498733	sub	x14,x19,x20	 x19:0x00000008 x20:0x00000001 x14=0x00000007
       22405000	      2239	80002b6c	01f0cf33	xor	x30,x1,x31	  x1:0xe9639000 x31:0x0000002b x30=0xe963902b
       22415000	      2240	80002b70	00000013	addi	x0,x0,0	  x0:0x00000000
       22425000	      2241	80002b74	00bf4ab3	xor	x21,x30,x11	 x30:0xe963902b x11:0xffec0000 x21=0x168f902b
       22435000	      2242	80002b78	41e68233	sub	x4,x13,x30	 x13:0x000046af x30:0xe963902b  x4=0x169cb684
       22445000	      2243	80002b7c	e19506a3	sb	x25,-499(x10)	 x10:0x80008e32 x25:0x80009ef8 PA:0x80008c3f
       22455000	      2244	80002b80	40728233	sub	x4,x5,x7	  x5:0x00004642  x7:0x00000098  x4=0x000045aa
       22465000	      2245	80002b84	008bf4b3	and	x9,x23,x8	 x23:0x0000009f  x8:0x00000062  x9=0x00000002
       22475000	      2246	80002b88	add47393	andi	x7,x8,-1315	  x8:0x00000062  x7=0x00000040
       22485000	      2247	80002b8c	20912b13	slti	x22,x2,521	  x2:0xaa8dd69f x22=0x00000001
       22495000	      2248	80002b90	6230d917	auipc	x18,0x6230d	 x18=0xe230fb8c
       22505000	      2249	80002b94	b378b293	sltiu	x5,x17,-1225	 x17:0x0000247e  x5=0x00000001
       22515000	      2250	80002b98	c0a50fa3	sb	x10,-993(x10)	 x10:0x80008e32 x10:0x80008e32 PA:0x80008a51
       22525000	      2251	80002b9c	410adbb3	sra	x23,x21,x16	 x21:0x168f902b x16:0x00000008 x23=0x00168f90
       22535000	      2252	80002ba0	07154e03	lbu	x28,113(x10)	 x10:0x80008e32 x28=0x00000008 PA:0x80008ea3
       22545000	      2253	80002ba4	ab751d23	sh	x23,-1350(x10)	 x10:0x80008e32 x23:0x00168f90 PA:0x800088ec
       22555000	      2254	80002ba8	d1b507a3	sb	x27,-753(x10)	 x10:0x80008e32 x27:0x00000098 PA:0x80008b41
       22565000	      2255	80002bac	e6850803	lb	x16,-408(x10)	 x10:0x80008e32 x16=0xffffffcb PA:0x80008c9a
       22575000	      2256	80002bb0	8be72e93	slti	x29,x14,-1858	 x14:0x00000007 x29=0x00000000
       22585000	      2257	80002bb4	fff54d83	lbu	x27,-1(x10)	 x10:0x80008e32 x27=0x00000047 PA:0x80008e31
       22595000	      2258	80002bb8	00006a97	auipc	x21,0x6	 x21=0x80008bb4
       22605000	      2259	80002bbc	c21a8a93	addi	x21,x21,-991	 x21:0x80008bb4 x21=0x800087d5
       22615000	      2260	80002bc0	e99bc897	auipc	x17,0xe99bc	 x17=0x699bebbc
       22625000	      2261	80002bc4	006a8ca3	sb	x6,25(x21)	 x21:0x800087d5  x6:0x00000000 PA:0x800087ee
       22635000	      2262	80002bc8	024ac303	lbu	x6,36(x21)	 x21:0x800087d5  x6=0x000000d2 PA:0x800087f9
       22645000	      2263	80002bcc	f64a8ea3	sb	x4,-131(x21)	 x21:0x800087d5  x4:0x000045aa PA:0x80008752
       22655000	      2264	80002bd0	fa2a8383	lb	x7,-94(x21)	 x21:0x800087d5  x7=0xffffffa1 PA:0x80008777
       22665000	      2265	80002bd4	06e7b293	sltiu	x5,x15,110	 x15:0x80009fc4  x5=0x00000000
       22675000	      2266	80002bd8	f30a93a3	sh	x16,-217(x21)	 x21:0x800087d5 x16:0xffffffcb PA:0x800086fc
       22685000	      2267	80002bdc	00f11713	slli	x14,x2,0xf	  x2:0xaa8dd69f x14=0xeb4f8000
       22695000	      2268	80002be0	02baa283	lw	x5,43(x21)	 x21:0x800087d5  x5=0x8324face PA:0x80008800
       22705000	      2269	80002be4	021ac983	lbu	x19,33(x21)	 x21:0x800087d5 x19=0x000000fc PA:0x800087f6
       22715000	      2270	80002be8	f45ad983	lhu	x19,-187(x21)	 x21:0x800087d5 x19=0x0000ee1d PA:0x8000871a
       22725000	      2271	80002bec	f16a88a3	sb	x22,-239(x21)	 x21:0x800087d5 x22:0x00000001 PA:0x800086e6
       22735000	      2272	80002bf0	020ac283	lbu	x5,32(x21)	 x21:0x800087d5  x5=0x00000051 PA:0x800087f5
       22745000	      2273	80002bf4	f75a81a3	sb	x21,-157(x21)	 x21:0x800087d5 x21:0x800087d5 PA:0x80008738
       22755000	      2274	80002bf8	fd0a82a3	sb	x16,-59(x21)	 x21:0x800087d5 x16:0xffffffcb PA:0x8000879a
       22765000	      2275	80002bfc	f78a8583	lb	x11,-136(x21)	 x21:0x800087d5 x11=0xffffffd1 PA:0x8000874d
       22775000	      2276	80002c00	f0ea8803	lb	x16,-242(x21)	 x21:0x800087d5 x16=0x00000018 PA:0x800086e3
       22785000	      2277	80002c04	ff4a8fa3	sb	x20,-1(x21)	 x21:0x800087d5 x20:0x00000001 PA:0x800087d4
       22795000	      2278	80002c08	fe4ac203	lbu	x4,-28(x21)	 x21:0x800087d5  x4=0x000000c4 PA:0x800087b9
       22805000	      2279	80002c0c	0152d0b3	srl	x1,x5,x21	  x5:0x00000051 x21:0x800087d5  x1=0x00000000
       22815000	      2280	80002c10	012bf533	and	x10,x23,x18	 x23:0x00168f90 x18:0xe230fb8c x10=0x00108b80
       22825000	      2281	80002c14	f38a84a3	sb	x24,-215(x21)	 x21:0x800087d5 x24:0xfffffca8 PA:0x800086fe
       22835000	      2282	80002c18	f82a8703	lb	x14,-126(x21)	 x21:0x800087d5 x14=0x0000002b PA:0x80008757
       22845000	      2283	80002c1c	fc1a8883	lb	x17,-63(x21)	 x21:0x800087d5 x17=0xffffffb1 PA:0x80008796
       22855000	      2284	80002c20	f3da88a3	sb	x29,-207(x21)	 x21:0x800087d5 x29:0x00000000 PA:0x80008706
       22865000	      2285	80002c24	00978433	add	x8,x15,x9	 x15:0x80009fc4  x9:0x00000002  x8=0x80009fc6
       22875000	      2286	80002c28	010a8f83	lb	x31,16(x21)	 x21:0x800087d5 x31=0xffffff95 PA:0x800087e5
       22885000	      2287	80002c2c	fcca96a3	sh	x12,-51(x21)	 x21:0x800087d5 x12:0xffffffaa PA:0x800087a2
       22895000	      2288	80002c30	02aa9aa3	sh	x10,53(x21)	 x21:0x800087d5 x10:0x00108b80 PA:0x8000880a
       22905000	      2289	80002c34	fbfacc03	lbu	x24,-65(x21)	 x21:0x800087d5 x24=0x00000005 PA:0x80008794
       22915000	      2290	80002c38	fa848eb7	lui	x29,0xfa848	 x29=0xfa848000
       22925000	      2291	80002c3c	01cde1b3	or	x3,x27,x28	 x27:0x00000047 x28:0x00000008  x3=0x0000004f
       22935000	      2292	80002c40	fbeac703	lbu	x14,-66(x21)	 x21:0x800087d5 x14=0x000000d6 PA:0x80008793
       22945000	      2293	80002c44	4189d693	srai	x13,x19,0x18	 x19:0x0000ee1d x13=0x00000000
       22955000	      2294	80002c48	037a8203	lb	x4,55(x21)	 x21:0x800087d5  x4=0xffffffe2 PA:0x8000880c
       22965000	      2295	80002c4c	006b9533	sll	x10,x23,x6	 x23:0x00168f90  x6:0x000000d2 x10=0x3e400000
       22975000	      2296	80002c50	ddd03513	sltiu	x10,x0,-547	  x0:0x00000000 x10=0x00000001
       22985000	      2297	80002c54	042ac303	lbu	x6,66(x21)	 x21:0x800087d5  x6=0x00000091 PA:0x80008817
       22995000	      2298	80002c58	fc2acd03	lbu	x26,-62(x21)	 x21:0x800087d5 x26=0x00000060 PA:0x80008797
       23005000	      2299	80002c5c	fd7ac203	lbu	x4,-41(x21)	 x21:0x800087d5  x4=0x0000004d PA:0x800087ac
       23015000	      2300	80002c60	00005097	auipc	x1,0x5	  x1=0x80007c5c
       23025000	      2301	80002c64	74d08093	addi	x1,x1,1869	  x1:0x80007c5c  x1=0x800083a9
       23035000	      2302	80002c68	af03b213	sltiu	x4,x7,-1296	  x7:0xffffffa1  x4=0x00000000
       23045000	      2303	80002c6c	0012d013	srli	x0,x5,0x1	  x5:0x00000051
       23055000	      2304	80002c70	4160d733	sra	x14,x1,x22	  x1:0x800083a9 x22:0x00000001 x14=0xc00041d4
       23065000	      2305	80002c74	05c0c203	lbu	x4,92(x1)	  x1:0x800083a9  x4=0x0000000b PA:0x80008405
       23075000	      2306	80002c78	01665f93	srli	x31,x12,0x16	 x12:0xffffffaa x31=0x000003ff
       23085000	      2307	80002c7c	0052d893	srli	x17,x5,0x5	  x5:0x00000051 x17=0x00000002
       23095000	      2308	80002c80	00c47fb3	and	x31,x8,x12	  x8:0x80009fc6 x12:0xffffffaa x31=0x80009f82
       23105000	      2309	80002c84	009598b3	sll	x17,x11,x9	 x11:0xffffffd1  x9:0x00000002 x17=0xffffff44
       23115000	      2310	80002c88	fe909483	lh	x9,-23(x1)	  x1:0x800083a9  x9=0xffff94d4 PA:0x80008392
       23125000	      2311	80002c8c	fe208723	sb	x2,-18(x1)	  x1:0x800083a9  x2:0xaa8dd69f PA:0x80008397
       23135000	      2312	80002c90	fa408ba3	sb	x4,-73(x1)	  x1:0x800083a9  x4:0x0000000b PA:0x80008360
       23145000	      2313	80002c94	011e85b3	add	x11,x29,x17	 x29:0xfa848000 x17:0xffffff44 x11=0xfa847f44
       23155000	      2314	80002c98	0e508a03	lb	x20,229(x1)	  x1:0x800083a9 x20=0x0000001a PA:0x8000848e
       23165000	      2315	80002c9c	0c40c503	lbu	x10,196(x1)	  x1:0x800083a9 x10=0x0000005b PA:0x8000846d
       23175000	      2316	80002ca0	2fb8a813	slti	x16,x17,763	 x17:0xffffff44 x16=0x00000001
       23185000	      2317	80002ca4	0530ae03	lw	x28,83(x1)	  x1:0x800083a9 x28=0x05c7cfa5 PA:0x800083fc
       23195000	      2318	80002ca8	0d60c583	lbu	x11,214(x1)	  x1:0x800083a9 x11=0x00000053 PA:0x8000847f
       23205000	      2319	80002cac	f1109683	lh	x13,-239(x1)	  x1:0x800083a9 x13=0x00000a3e PA:0x800082ba
       23215000	      2320	00000000	00000013	addi	x0,x0,0	  x0:0x00000000
       23225000	      2321	80002cb0	fed0a3a3	sw	x13,-25(x1)	  x1:0x800083a9 x13:0x00000a3e PA:0x80008390
       23235000	      2322	80002cb4	0e60ce83	lbu	x29,230(x1)	  x1:0x800083a9 x29=0x000000dc PA:0x8000848f
       23245000	      2323	80002cb8	fe509383	lh	x7,-27(x1)	  x1:0x800083a9  x7=0xffff9e27 PA:0x8000838e
       23255000	      2324	80002cbc	0f20c903	lbu	x18,242(x1)	  x1:0x800083a9 x18=0x00000032 PA:0x8000849b
       23265000	      2325	80002cc0	03b09803	lh	x16,59(x1)	  x1:0x800083a9 x16=0xffffeb4f PA:0x800083e4
       23275000	      2326	80002cc4	0c808123	sb	x8,194(x1)	  x1:0x800083a9  x8:0x80009fc6 PA:0x8000846b
       23285000	      2327	80002cc8	0db09483	lh	x9,219(x1)	  x1:0x800083a9  x9=0xffff94c1 PA:0x80008484
       23295000	      2328	80002ccc	0ef09a83	lh	x21,239(x1)	  x1:0x800083a9 x21=0xffffae15 PA:0x80008498
       23305000	      2329	00000000	00000013	addi	x0,x0,0	  x0:0x00000000
       23315000	      2330	80002cd0	0751ca97	auipc	x21,0x751c	 x21=0x8751eccc
       23325000	      2331	80002cd4	02f08403	lb	x8,47(x1)	  x1:0x800083a9  x8=0xffffff85 PA:0x800083d8
       23335000	      2332	80002cd8	0199e3b3	or	x7,x19,x25	 x19:0x0000ee1d x25:0x80009ef8  x7=0x8000fefd
       23345000	      2333	80002cdc	fc70c403	lbu	x8,-57(x1)	  x1:0x800083a9  x8=0x00000090 PA:0x80008370
       23355000	      2334	80002ce0	fca08983	lb	x19,-54(x1)	  x1:0x800083a9 x19=0x00000016 PA:0x80008373
       23365000	      2335	80002ce4	416fd533	sra	x10,x31,x22	 x31:0x80009f82 x22:0x00000001 x10=0xc0004fc1
       23375000	      2336	80002ce8	f5908e23	sb	x25,-164(x1)	  x1:0x800083a9 x25:0x80009ef8 PA:0x80008305
       23385000	      2337	80002cec	f4a08f03	lb	x30,-182(x1)	  x1:0x800083a9 x30=0xffffff9e PA:0x800082f3
       23395000	      2338	80002cf0	0400c903	lbu	x18,64(x1)	  x1:0x800083a9 x18=0x000000da PA:0x800083e9
       23405000	      2339	80002cf4	0ba08623	sb	x26,172(x1)	  x1:0x800083a9 x26:0x00000060 PA:0x80008455
       23415000	      2340	80002cf8	f080a5a3	sw	x8,-245(x1)	  x1:0x800083a9  x8:0x00000090 PA:0x800082b4
       23425000	      2341	80002cfc	00708583	lb	x11,7(x1)	  x1:0x800083a9 x11=0x00000061 PA:0x800083b0
       23435000	      2342	80002d00	000bee33	or	x28,x23,x0	 x23:0x00168f90  x0:0x00000000 x28=0x00168f90
       23445000	      2343	80002d04	00000013	addi	x0,x0,0	  x0:0x00000000
       23455000	      2344	80002d08	f5808f03	lb	x30,-168(x1)	  x1:0x800083a9 x30=0xffffffaa PA:0x80008301
       23465000	      2345	80002d0c	00005317	auipc	x6,0x5	  x6=0x80007d08
       23475000	      2346	80002d10	3bc30313	addi	x6,x6,956	  x6:0x80007d08  x6=0x800080c4
       23485000	      2347	80002d14	00630e83	lb	x29,6(x6)	  x6:0x800080c4 x29=0x0000005f PA:0x800080ca
       23495000	      2348	80002d18	fdf30083	lb	x1,-33(x6)	  x6:0x800080c4  x1=0xffffffb7 PA:0x800080a3
       23505000	      2349	80002d1c	018291b3	sll	x3,x5,x24	  x5:0x00000051 x24:0x00000005  x3=0x00000a20
       23515000	      2350	80002d20	0b9307a3	sb	x25,175(x6)	  x6:0x800080c4 x25:0x80009ef8 PA:0x80008173
       23525000	      2351	80002d24	0b730da3	sb	x23,187(x6)	  x6:0x800080c4 x23:0x00168f90 PA:0x8000817f
       23535000	      2352	80002d28	fb734803	lbu	x16,-73(x6)	  x6:0x800080c4 x16=0x000000d7 PA:0x8000807b
       23545000	      2353	80002d2c	0d835a03	lhu	x20,216(x6)	  x6:0x800080c4 x20=0x0000ca18 PA:0x8000819c
       23555000	      2354	80002d30	fc130503	lb	x10,-63(x6)	  x6:0x800080c4 x10=0xffffff8a PA:0x80008085
       23565000	      2355	80002d34	0180c933	xor	x18,x1,x24	  x1:0xffffffb7 x24:0x00000005 x18=0xffffffb2
       23575000	      2356	80002d38	a4b73a13	sltiu	x20,x14,-1461	 x14:0xc00041d4 x20=0x00000001
       23585000	      2357	80002d3c	0fb306a3	sb	x27,237(x6)	  x6:0x800080c4 x27:0x00000047 PA:0x800081b1
       23595000	      2358	80002d40	fb032a03	lw	x20,-80(x6)	  x6:0x800080c4 x20=0xaf115471 PA:0x80008074
       23605000	      2359	80002d44	0ac31003	lh	x0,172(x6)	  x6:0x800080c4 PA:0x80008170
       23615000	      2360	80002d48	013c03b3	add	x7,x24,x19	 x24:0x00000005 x19:0x00000016  x7=0x0000001b
       23625000	      2361	80002d4c	fd134503	lbu	x10,-47(x6)	  x6:0x800080c4 x10=0x0000000e PA:0x80008095
       23635000	      2362	80002d50	01e44293	xori	x5,x8,30	  x8:0x00000090  x5=0x0000008e
       23645000	      2363	80002d54	41a05033	sra	x0,x0,x26	  x0:0x00000000 x26:0x00000060
       23655000	      2364	80002d58	408ed993	srai	x19,x29,0x8	 x29:0x0000005f x19=0x00000000
       23665000	      2365	80002d5c	b9e27e13	andi	x28,x4,-1122	  x4:0x0000000b x28=0x0000000a
       23675000	      2366	80002d60	0f631883	lh	x17,246(x6)	  x6:0x800080c4 x17=0xfffff455 PA:0x800081ba
       23685000	      2367	80002d64	fd4301a3	sb	x20,-61(x6)	  x6:0x800080c4 x20:0xaf115471 PA:0x80008087
       23695000	      2368	80002d68	00d30b23	sb	x13,22(x6)	  x6:0x800080c4 x13:0x00000a3e PA:0x800080da
       23705000	      2369	80002d6c	01bcf833	and	x16,x25,x27	 x25:0x80009ef8 x27:0x00000047 x16=0x00000040
       23715000	      2370	80002d70	fac32903	lw	x18,-84(x6)	  x6:0x800080c4 x18=0xe2b92ce3 PA:0x80008070
       23725000	      2371	80002d74	00000013	addi	x0,x0,0	  x0:0x00000000
       23735000	      2372	80002d78	0e930583	lb	x11,233(x6)	  x6:0x800080c4 x11=0x00000031 PA:0x800081ad
       23745000	      2373	80002d7c	09e31703	lh	x14,158(x6)	  x6:0x800080c4 x14=0xffffb193 PA:0x80008162
       23755000	      2374	80002d80	017acab3	xor	x21,x21,x23	 x21:0x8751eccc x23:0x00168f90 x21=0x8747635c
       23765000	      2375	80002d84	f0474293	xori	x5,x14,-252	 x14:0xffffb193  x5=0x00004e97
       23775000	      2376	80002d88	0b77a817	auipc	x16,0xb77a	 x16=0x8b77cd84
       23785000	      2377	80002d8c	04032223	sw	x0,68(x6)	  x6:0x800080c4  x0:0x00000000 PA:0x80008108
       23795000	      2378	80002d90	00f34803	lbu	x16,15(x6)	  x6:0x800080c4 x16=0x000000f0 PA:0x800080d3
       23805000	      2379	00000000	00000013	addi	x0,x0,0	  x0:0x00000000
       23815000	      2380	80002d94	010911b3	sll	x3,x18,x16	 x18:0xe2b92ce3 x16:0x000000f0  x3=0x2ce30000
       23825000	      2381	80002d98	04130883	lb	x17,65(x6)	  x6:0x800080c4 x17=0x00000016 PA:0x80008105
       23835000	      2382	80002d9c	001e36b3	sltu	x13,x28,x1	 x28:0x0000000a  x1:0xffffffb7 x13=0x00000001
       23845000	      2383	80002da0	00a0ce33	xor	x28,x1,x10	  x1:0xffffffb7 x10:0x0000000e x28=0xffffffb9
       23855000	      2384	80002da4	08e31503	lh	x10,142(x6)	  x6:0x800080c4 x10=0x000013f8 PA:0x80008152
       23865000	      2385	80002da8	f9635283	lhu	x5,-106(x6)	  x6:0x800080c4  x5=0x000040f8 PA:0x8000805a
       23875000	      2386	80002dac	ffe31883	lh	x17,-2(x6)	  x6:0x800080c4 x17=0xffff9ef0 PA:0x800080c2
       23885000	      2387	80002db0	ffb34f83	lbu	x31,-5(x6)	  x6:0x800080c4 x31=0x00000047 PA:0x800080bf
       23895000	      2388	80002db4	94cd4293	xori	x5,x26,-1716	 x26:0x00000060  x5=0xfffff92c
       23905000	      2389	80002db8	07930803	lb	x16,121(x6)	  x6:0x800080c4 x16=0xffffffe1 PA:0x8000813d
       23915000	      2390	80002dbc	08230223	sb	x2,132(x6)	  x6:0x800080c4  x2:0xaa8dd69f PA:0x80008148
       23925000	      2391	80002dc0	00006c17	auipc	x24,0x6	 x24=0x80008dbc
       23935000	      2392	80002dc4	0d2c0c13	addi	x24,x24,210	 x24:0x80008dbc x24=0x80008e8e
       23945000	      2393	80002dc8	417a5fb3	sra	x31,x20,x23	 x20:0xaf115471 x23:0x00168f90 x31=0xffffaf11
       23955000	      2394	80002dcc	004c2323	sw	x4,6(x24)	 x24:0x80008e8e  x4:0x0000000b PA:0x80008e94
       23965000	      2395	80002dd0	ff9c4583	lbu	x11,-7(x24)	 x24:0x80008e8e x11=0x000000d7 PA:0x80008e87
       23975000	      2396	80002dd4	df408a93	addi	x21,x1,-524	  x1:0xffffffb7 x21=0xfffffdab
       23985000	      2397	80002dd8	005c0183	lb	x3,5(x24)	 x24:0x80008e8e  x3=0x0000007e PA:0x80008e93
       23995000	      2398	80002ddc	5adf0493	addi	x9,x30,1453	 x30:0xffffffaa  x9=0x00000557
       24005000	      2399	80002de0	3d7f8293	addi	x5,x31,983	 x31:0xffffaf11  x5=0xffffb2e8
       24015000	      2400	80002de4	ff6c0703	lb	x14,-10(x24)	 x24:0x80008e8e x14=0x00000016 PA:0x80008e84
       24025000	      2401	00000000	00000013	addi	x0,x0,0	  x0:0x00000000
       24035000	      2402	80002de8	40775bb3	sra	x23,x14,x7	 x14:0x00000016  x7:0x0000001b x23=0x00000000
       24045000	      2403	80002dec	0031a733	slt	x14,x3,x3	  x3:0x0000007e  x3:0x0000007e x14=0x00000000
       24055000	      2404	80002df0	4149deb3	sra	x29,x19,x20	 x19:0x00000000 x20:0xaf115471 x29=0x00000000
       24065000	      2405	80002df4	2a58a513	slti	x10,x17,677	 x17:0xffff9ef0 x10=0x00000001
       24075000	      2406	80002df8	014de933	or	x18,x27,x20	 x27:0x00000047 x20:0xaf115471 x18=0xaf115477
       24085000	      2407	80002dfc	002c0083	lb	x1,2(x24)	 x24:0x80008e8e  x1=0x00000042 PA:0x80008e90
       24095000	      2408	80002e00	005c88b3	add	x17,x25,x5	 x25:0x80009ef8  x5:0xffffb2e8 x17=0x800051e0
       24105000	      2409	80002e04	ff2c1403	lh	x8,-14(x24)	 x24:0x80008e8e  x8=0x00007861 PA:0x80008e80
       24115000	      2410	80002e08	001c0483	lb	x9,1(x24)	 x24:0x80008e8e  x9=0x00000062 PA:0x80008e8f
       24125000	      2411	80002e0c	004c0483	lb	x9,4(x24)	 x24:0x80008e8e  x9=0xffffffd2 PA:0x80008e92
       24135000	      2412	80002e10	ff5c0403	lb	x8,-11(x24)	 x24:0x80008e8e  x8=0xffffffb0 PA:0x80008e83
       24145000	      2413	80002e14	009c02a3	sb	x9,5(x24)	 x24:0x80008e8e  x9:0xffffffd2 PA:0x80008e93
       24155000	      2414	80002e18	ff8c5403	lhu	x8,-8(x24)	 x24:0x80008e8e  x8=0x0000d778 PA:0x80008e86
       24165000	      2415	80002e1c	00f6d033	srl	x0,x13,x15	 x13:0x00000001 x15:0x80009fc4
       24175000	      2416	80002e20	01a958b3	srl	x17,x18,x26	 x18:0xaf115477 x26:0x00000060 x17=0xaf115477
       24185000	      2417	80002e24	400986b3	sub	x13,x19,x0	 x19:0x00000000  x0:0x00000000 x13=0x00000000
       24195000	      2418	80002e28	015c1823	sh	x21,16(x24)	 x24:0x80008e8e x21:0xfffffdab PA:0x80008e9e
       24205000	      2419	80002e2c	001c4583	lbu	x11,1(x24)	 x24:0x80008e8e x11=0x00000062 PA:0x80008e8f
       24215000	      2420	80002e30	ffec0e03	lb	x28,-2(x24)	 x24:0x80008e8e x28=0xffffffda PA:0x80008e8c
       24225000	      2421	80002e34	003c0a83	lb	x21,3(x24)	 x24:0x80008e8e x21=0xffffffc8 PA:0x80008e91
       24235000	      2422	80002e38	004c0603	lb	x12,4(x24)	 x24:0x80008e8e x12=0xffffffd2 PA:0x80008e92
       24245000	      2423	80002e3c	007015b3	sll	x11,x0,x7	  x0:0x00000000  x7:0x0000001b x11=0x00000000
       24255000	      2424	80002e40	00000013	addi	x0,x0,0	  x0:0x00000000
       24265000	      2425	80002e44	fe8c0b23	sb	x8,-10(x24)	 x24:0x80008e8e  x8:0x0000d778 PA:0x80008e84
       24275000	      2426	80002e48	010c1503	lh	x10,16(x24)	 x24:0x80008e8e x10=0xfffffdab PA:0x80008e9e
       24285000	      2427	80002e4c	00ec03a3	sb	x14,7(x24)	 x24:0x80008e8e x14:0x00000000 PA:0x80008e95
       24295000	      2428	80002e50	ffac5183	lhu	x3,-6(x24)	 x24:0x80008e8e  x3=0x0000591f PA:0x80008e88
       24305000	      2429	80002e54	c4609e97	auipc	x29,0xc4609	 x29=0x4460be50
       24315000	      2430	80002e58	ff1c0ea3	sb	x17,-3(x24)	 x24:0x80008e8e x17:0xaf115477 PA:0x80008e8b
       24325000	      2431	80002e5c	00bc4a83	lbu	x21,11(x24)	 x24:0x80008e8e x21=0x000000ab PA:0x80008e99
       24335000	      2432	80002e60	ffbc0183	lb	x3,-5(x24)	 x24:0x80008e8e  x3=0x00000059 PA:0x80008e89
       24345000	      2433	80002e64	41cedbb3	sra	x23,x29,x28	 x29:0x4460be50 x28:0xffffffda x23=0x00000011
       24355000	      2434	80002e68	fe9c08a3	sb	x9,-15(x24)	 x24:0x80008e8e  x9:0xffffffd2 PA:0x80008e7f
       24365000	      2435	80002e6c	0153da33	srl	x20,x7,x21	  x7:0x0000001b x21:0x000000ab x20=0x00000000
       24375000	      2436	80002e70	235c4e13	xori	x28,x24,565	 x24:0x80008e8e x28=0x80008cbb
       24385000	      2437	80002e74	004c1e03	lh	x28,4(x24)	 x24:0x80008e8e x28=0xffffd2d2 PA:0x80008e92
       24395000	      2438	80002e78	002d3ab3	sltu	x21,x26,x2	 x26:0x00000060  x2:0xaa8dd69f x21=0x00000001
       24405000	      2439	80002e7c	fe2c0ca3	sb	x2,-7(x24)	 x24:0x80008e8e  x2:0xaa8dd69f PA:0x80008e87
       24415000	      2440	80002e80	000c1723	sh	x0,14(x24)	 x24:0x80008e8e  x0:0x00000000 PA:0x80008e9c
       24425000	      2441	80002e84	41c4de93	srai	x29,x9,0x1c	  x9:0xffffffd2 x29=0xffffffff
       24435000	      2442	80002e88	010c4203	lbu	x4,16(x24)	 x24:0x80008e8e  x4=0x000000ab PA:0x80008e9e
       24445000	      2443	80002e8c	01d61013	slli	x0,x12,0x1d	 x12:0xffffffd2
       24455000	      2444	80002e90	ff1c0da3	sb	x17,-5(x24)	 x24:0x80008e8e x17:0xaf115477 PA:0x80008e89
       24465000	      2445	80002e94	c4254b93	xori	x23,x10,-958	 x10:0xfffffdab x23=0x000001e9
       24475000	      2446	80002e98	001dbdb3	sltu	x27,x27,x1	 x27:0x00000047  x1:0x00000042 x27=0x00000000
       24485000	      2447	80002e9c	019c1723	sh	x25,14(x24)	 x24:0x80008e8e x25:0x80009ef8 PA:0x80008e9c
       24495000	      2448	80002ea0	00006997	auipc	x19,0x6	 x19=0x80008e9c
       24505000	      2449	80002ea4	a9898993	addi	x19,x19,-1384	 x19:0x80008e9c x19=0x80008934
       24515000	      2450	80002ea8	7cca4893	xori	x17,x20,1996	 x20:0x00000000 x17=0x000007cc
       24525000	      2451	80002eac	ff899a83	lh	x21,-8(x19)	 x19:0x80008934 x21=0x0000291a PA:0x8000892c
       24535000	      2452	80002eb0	0119c583	lbu	x11,17(x19)	 x19:0x80008934 x11=0x000000fe PA:0x80008945
       24545000	      2453	80002eb4	41a85433	sra	x8,x16,x26	 x16:0xffffffe1 x26:0x00000060  x8=0xffffffe1
       24555000	      2454	80002eb8	00c9a303	lw	x6,12(x19)	 x19:0x80008934  x6=0xe78322ff PA:0x80008940
       24565000	      2455	80002ebc	00edeb33	or	x22,x27,x14	 x27:0x00000000 x14:0x00000000 x22=0x00000000
       24575000	      2456	80002ec0	02598583	lb	x11,37(x19)	 x19:0x80008934 x11=0xffffff88 PA:0x80008959
       24585000	      2457	80002ec4	ee498b93	addi	x23,x19,-284	 x19:0x80008934 x23=0x80008818
       24595000	      2458	80002ec8	cbcf7593	andi	x11,x30,-836	 x30:0xffffffaa x11=0xfffffca8
       24605000	      2459	80002ecc	4083ec13	ori	x24,x7,1032	  x7:0x0000001b x24=0x0000041b
       24615000	      2460	80002ed0	ffb9c403	lbu	x8,-5(x19)	 x19:0x80008934  x8=0x000000f8 PA:0x8000892f
       24625000	      2461	80002ed4	302d0d37	lui	x26,0x302d0	 x26=0x302d0000
       24635000	      2462	80002ed8	ffd98683	lb	x13,-3(x19)	 x19:0x80008934 x13=0x0000001c PA:0x80008931
       24645000	      2463	80002edc	03a98fa3	sb	x26,63(x19)	 x19:0x80008934 x26:0x302d0000 PA:0x80008973
       24655000	      2464	80002ee0	ffb98123	sb	x27,-30(x19)	 x19:0x80008934 x27:0x00000000 PA:0x80008916
       24665000	      2465	80002ee4	fdb9c203	lbu	x4,-37(x19)	 x19:0x80008934  x4=0x00000054 PA:0x8000890f
       24675000	      2466	80002ee8	00000013	addi	x0,x0,0	  x0:0x00000000
       24685000	      2467	80002eec	02c9d583	lhu	x11,44(x19)	 x19:0x80008934 x11=0x0000d971 PA:0x80008960
       24695000	      2468	80002ef0	01a69213	slli	x4,x13,0x1a	 x13:0x0000001c  x4=0x70000000
       24705000	      2469	80002ef4	01e99b23	sh	x30,22(x19)	 x19:0x80008934 x30:0xffffffaa PA:0x8000894a
       24715000	      2470	80002ef8	011cebb3	or	x23,x25,x17	 x25:0x80009ef8 x17:0x000007cc x23=0x80009ffc
       24725000	      2471	80002efc	e9777a93	andi	x21,x14,-361	 x14:0x00000000 x21=0x00000000
       24735000	      2472	80002f00	011981a3	sb	x17,3(x19)	 x19:0x80008934 x17:0x000007cc PA:0x80008937
       24745000	      2473	80002f04	7425ce37	lui	x28,0x7425c	 x28=0x7425c000
       24755000	      2474	80002f08	dd297e93	andi	x29,x18,-558	 x18:0xaf115477 x29=0xaf115452
       24765000	      2475	80002f0c	fed9cc03	lbu	x24,-19(x19)	 x19:0x80008934 x24=0x000000ad PA:0x80008921
       24775000	      2476	80002f10	ce9aee93	ori	x29,x21,-791	 x21:0x00000000 x29=0xfffffce9
       24785000	      2477	80002f14	03099923	sh	x16,50(x19)	 x19:0x80008934 x16:0xffffffe1 PA:0x80008966
       24795000	      2478	80002f18	01b98d03	lb	x26,27(x19)	 x19:0x80008934 x26=0x00000069 PA:0x8000894f
       24805000	      2479	80002f1c	03e9cb03	lbu	x22,62(x19)	 x19:0x80008934 x22=0x00000022 PA:0x80008972
       24815000	      2480	80002f20	fdf988a3	sb	x31,-47(x19)	 x19:0x80008934 x31:0xffffaf11 PA:0x80008905
       24825000	      2481	80002f24	00006c17	auipc	x24,0x6	 x24=0x80008f20
       24835000	      2482	80002f28	b9dc0c13	addi	x24,x24,-1123	 x24:0x80008f20 x24=0x80008abd
       24845000	      2483	80002f2c	4123d913	srai	x18,x7,0x12	  x7:0x0000001b x18=0x00000000
       24855000	      2484	80002f30	40045e93	srai	x29,x8,0x0	  x8:0x000000f8 x29=0x000000f8
       24865000	      2485	80002f34	00000013	addi	x0,x0,0	  x0:0x00000000
       24875000	      2486	80002f38	bc867093	andi	x1,x12,-1080	 x12:0xffffffd2  x1=0xfffffbc0
       24885000	      2487	80002f3c	fcdc1903	lh	x18,-51(x24)	 x24:0x80008abd x18=0xffffaedf PA:0x80008a8a
       24895000	      2488	80002f40	028c0603	lb	x12,40(x24)	 x24:0x80008abd x12=0xfffffff9 PA:0x80008ae5
       24905000	      2489	80002f44	ffec0983	lb	x19,-2(x24)	 x24:0x80008abd x19=0x00000060 PA:0x80008abb
       24915000	      2490	80002f48	007abb33	sltu	x22,x21,x7	 x21:0x00000000  x7:0x0000001b x22=0x00000001
       24925000	      2491	80002f4c	4095d413	srai	x8,x11,0x9	 x11:0x0000d971  x8=0x0000006c
       24935000	      2492	80002f50	015f24b3	slt	x9,x30,x21	 x30:0xffffffaa x21:0x00000000  x9=0x00000001
       24945000	      2493	80002f54	40bd54b3	sra	x9,x26,x11	 x26:0x00000069 x11:0x0000d971  x9=0x00000000
       24955000	      2494	80002f58	01f0f833	and	x16,x1,x31	  x1:0xfffffbc0 x31:0xffffaf11 x16=0xffffab00
       24965000	      2495	80002f5c	014b1b93	slli	x23,x22,0x14	 x22:0x00000001 x23=0x00100000
       24975000	      2496	80002f60	00a39893	slli	x17,x7,0xa	  x7:0x0000001b x17=0x00006c00
       24985000	      2497	80002f64	003d50b3	srl	x1,x26,x3	 x26:0x00000069  x3:0x00000059  x1=0x00000000
       24995000	      2498	80002f68	02cc0323	sb	x12,38(x24)	 x24:0x80008abd x12:0xfffffff9 PA:0x80008ae3
       25005000	      2499	80002f6c	aaff22b7	lui	x5,0xaaff2	  x5=0xaaff2000
       25015000	      2500	80002f70	02ec0383	lb	x7,46(x24)	 x24:0x80008abd  x7=0xffffffc8 PA:0x80008aeb
       25025000	      2501	80002f74	41402f97	auipc	x31,0x41402	 x31=0xc1404f70
       25035000	      2502	80002f78	5a074713	xori	x14,x14,1440	 x14:0x00000000 x14=0x000005a0
       25045000	      2503	80002f7c	02bc0703	lb	x14,43(x24)	 x24:0x80008abd x14=0xffffffef PA:0x80008ae8
       25055000	      2504	80002f80	017d99b3	sll	x19,x27,x23	 x27:0x00000000 x23:0x00100000 x19=0x00000000
       25065000	      2505	80002f84	57fba913	slti	x18,x23,1407	 x23:0x00100000 x18=0x00000000
       25075000	      2506	80002f88	41addb33	sra	x22,x27,x26	 x27:0x00000000 x26:0x00000069 x22=0x00000000
       25085000	      2507	80002f8c	fcdc2fa3	sw	x13,-33(x24)	 x24:0x80008abd x13:0x0000001c PA:0x80008a9c
       25095000	      2508	80002f90	00f20033	add	x0,x4,x15	  x4:0x70000000 x15:0x80009fc4
       25105000	      2509	80002f94	fe3c5683	lhu	x13,-29(x24)	 x24:0x80008abd x13=0x000055fc PA:0x80008aa0
       25115000	      2510	80002f98	ff7c5683	lhu	x13,-9(x24)	 x24:0x80008abd x13=0x00002efa PA:0x80008ab4
       25125000	      2511	80002f9c	01cc6533	or	x10,x24,x28	 x24:0x80008abd x28:0x7425c000 x10=0xf425cabd
       25135000	      2512	80002fa0	009959b3	srl	x19,x18,x9	 x18:0x00000000  x9:0x00000000 x19=0x00000000
       25145000	      2513	80002fa4	0009a8b3	slt	x17,x19,x0	 x19:0x00000000  x0:0x00000000 x17=0x00000000
       25155000	      2514	80002fa8	a087bd97	auipc	x27,0xa087b	 x27=0x2087dfa4
       25165000	      2515	80002fac	9ea20393	addi	x7,x4,-1558	  x4:0x70000000  x7=0x6ffff9ea
       25175000	      2516	80002fb0	010bd093	srli	x1,x23,0x10	 x23:0x00100000  x1=0x00000010
       25185000	      2517	80002fb4	01ec0023	sb	x30,0(x24)	 x24:0x80008abd x30:0xffffffaa PA:0x80008abd
       25195000	      2518	80002fb8	00006b17	auipc	x22,0x6	 x22=0x80008fb4
       25205000	      2519	80002fbc	a89b0b13	addi	x22,x22,-1399	 x22:0x80008fb4 x22=0x80008a3d
       25215000	      2520	80002fc0	0161d213	srli	x4,x3,0x16	  x3:0x00000059  x4=0x00000000
       25225000	      2521	80002fc4	f21b0883	lb	x17,-223(x22)	 x22:0x80008a3d x17=0x00000065 PA:0x8000895e
       25235000	      2522	80002fc8	fcfb5383	lhu	x7,-49(x22)	 x22:0x80008a3d  x7=0x000029b3 PA:0x80008a0c
       25245000	      2523	80002fcc	6b07ce93	xori	x29,x15,1712	 x15:0x80009fc4 x29=0x80009974
       25255000	      2524	80002fd0	c0159517	auipc	x10,0xc0159	 x10=0x4015bfcc
       25265000	      2525	80002fd4	025b1f03	lh	x30,37(x22)	 x22:0x80008a3d x30=0x000015a0 PA:0x80008a62
       25275000	      2526	80002fd8	0c8b0123	sb	x8,194(x22)	 x22:0x80008a3d  x8:0x0000006c PA:0x80008aff
       25285000	      2527	80002fdc	f5943913	sltiu	x18,x8,-167	  x8:0x0000006c x18=0x00000001
       25295000	      2528	80002fe0	41bedd33	sra	x26,x29,x27	 x29:0x80009974 x27:0x2087dfa4 x26=0xf8000997
       25305000	      2529	80002fe4	ddcc29b7	lui	x19,0xddcc2	 x19=0xddcc2000
       25315000	      2530	80002fe8	f7ab0083	lb	x1,-134(x22)	 x22:0x80008a3d  x1=0x00000061 PA:0x800089b7
       25325000	      2531	80002fec	fd3b5303	lhu	x6,-45(x22)	 x22:0x80008a3d  x6=0x0000afe0 PA:0x80008a10
       25335000	      2532	80002ff0	08cb0703	lb	x14,140(x22)	 x22:0x80008a3d x14=0xffffffe0 PA:0x80008ac9
       25345000	      2533	80002ff4	fd6b0f03	lb	x30,-42(x22)	 x22:0x80008a3d x30=0xffffffaf PA:0x80008a13
       25355000	      2534	80002ff8	41990bb3	sub	x23,x18,x25	 x18:0x00000001 x25:0x80009ef8 x23=0x7fff6109
       25365000	      2535	80002ffc	f98b4603	lbu	x12,-104(x22)	 x22:0x80008a3d x12=0x00000040 PA:0x800089d5
       25375000	      2536	00000000	00000013	addi	x0,x0,0	  x0:0x00000000
       25385000	      2537	80003000	06cb4883	lbu	x17,108(x22)	 x22:0x80008a3d x17=0x0000001f PA:0x80008aa9
       25395000	      2538	80003004	37c28593	addi	x11,x5,892	  x5:0xaaff2000 x11=0xaaff237c
       25405000	      2539	80003008	fd5b0383	lb	x7,-43(x22)	 x22:0x80008a3d  x7=0xffffffd2 PA:0x80008a12
       25415000	      2540	8000300c	013bca33	xor	x20,x23,x19	 x23:0x7fff6109 x19:0xddcc2000 x20=0xa2334109
       25425000	      2541	80003010	0117fab3	and	x21,x15,x17	 x15:0x80009fc4 x17:0x0000001f x21=0x00000004
       25435000	      2542	80003014	8c589537	lui	x10,0x8c589	 x10=0x8c589000
       25445000	      2543	80003018	f0fb08a3	sb	x15,-239(x22)	 x22:0x80008a3d x15:0x80009fc4 PA:0x8000894e
       25455000	      2544	8000301c	f77b0e83	lb	x29,-137(x22)	 x22:0x80008a3d x29=0x00000033 PA:0x800089b4
       25465000	      2545	80003020	0d1b0d03	lb	x26,209(x22)	 x22:0x80008a3d x26=0x0000001b PA:0x80008b0e
       25475000	      2546	80003024	0180efb3	or	x31,x1,x24	  x1:0x00000061 x24:0x80008abd x31=0x80008afd
       25485000	      2547	80003028	01dfdfb3	srl	x31,x31,x29	 x31:0x80008afd x29:0x00000033 x31=0x00001000
       25495000	      2548	8000302c	f28b4403	lbu	x8,-216(x22)	 x22:0x80008a3d  x8=0x000000a4 PA:0x80008965
       25505000	      2549	80003030	0f8b0023	sb	x24,224(x22)	 x22:0x80008a3d x24:0x80008abd PA:0x80008b1d
       25515000	      2550	80003034	0d2b0d83	lb	x27,210(x22)	 x22:0x80008a3d x27=0xffffffe5 PA:0x80008b0f
       25525000	      2551	80003038	fddb1703	lh	x14,-35(x22)	 x22:0x80008a3d x14=0x00000449 PA:0x80008a1a
       25535000	      2552	8000303c	100b4383	lbu	x7,256(x22)	 x22:0x80008a3d  x7=0x000000ae PA:0x80008b3d
       25545000	      2553	80003040	fbcb4983	lbu	x19,-68(x22)	 x22:0x80008a3d x19=0x00000025 PA:0x800089f9
       25555000	      2554	00000000	00000013	addi	x0,x0,0	  x0:0x00000000
       25565000	      2555	80003044	01f9b833	sltu	x16,x19,x31	 x19:0x00000025 x31:0x00001000 x16=0x00000001
       25575000	      2556	80003048	00f80eb3	add	x29,x16,x15	 x16:0x00000001 x15:0x80009fc4 x29=0x80009fc5
       25585000	      2557	8000304c	00f24333	xor	x6,x4,x15	  x4:0x00000000 x15:0x80009fc4  x6=0x80009fc4
       25595000	      2558	80003050	009a8633	add	x12,x21,x9	 x21:0x00000004  x9:0x00000000 x12=0x00000004
       25605000	      2559	80003054	008b0803	lb	x16,8(x22)	 x22:0x80008a3d x16=0x0000003c PA:0x80008a45
       25615000	      2560	80003058	006605b3	add	x11,x12,x6	 x12:0x00000004  x6:0x80009fc4 x11=0x80009fc8
       25625000	      2561	8000305c	f2ab0303	lb	x6,-214(x22)	 x22:0x80008a3d  x6=0xffffffff PA:0x80008967
       25635000	      2562	80003060	f20b0703	lb	x14,-224(x22)	 x22:0x80008a3d x14=0x0000005f PA:0x8000895d
       25645000	      2563	80003064	01fefbb3	and	x23,x29,x31	 x29:0x80009fc5 x31:0x00001000 x23=0x00001000
       25655000	      2564	80003068	28bc0413	addi	x8,x24,651	 x24:0x80008abd  x8=0x80008d48
       25665000	      2565	8000306c	0165cc33	xor	x24,x11,x22	 x11:0x80009fc8 x22:0x80008a3d x24=0x000015f5
       25675000	      2566	80003070	025b1a83	lh	x21,37(x22)	 x22:0x80008a3d x21=0x000015a0 PA:0x80008a62
       25685000	      2567	80003074	0fcb0483	lb	x9,252(x22)	 x22:0x80008a3d  x9=0xfffffff9 PA:0x80008b39
       25695000	      2568	80003078	01389893	slli	x17,x17,0x13	 x17:0x0000001f x17=0x00f80000
       25705000	      2569	8000307c	91fcad93	slti	x27,x25,-1761	 x25:0x80009ef8 x27=0x00000001
       25715000	      2570	80003080	00eb0403	lb	x8,14(x22)	 x22:0x80008a3d  x8=0x00000037 PA:0x80008a4b
       25725000	      2571	80003084	00521733	sll	x14,x4,x5	  x4:0x00000000  x5:0xaaff2000 x14=0x00000000
       25735000	      2572	80003088	02eb0a03	lb	x20,46(x22)	 x22:0x80008a3d x20=0x00000040 PA:0x80008a6b
       25745000	      2573	8000308c	00006917	auipc	x18,0x6	 x18=0x80009088
       25755000	      2574	80003090	a9590913	addi	x18,x18,-1387	 x18:0x80009088 x18=0x80008b1d
       25765000	      2575	80003094	f0c52013	slti	x0,x10,-244	 x10:0x8c589000
       25775000	      2576	80003098	00b2f733	and	x14,x5,x11	  x5:0xaaff2000 x11:0x80009fc8 x14=0x80000000
       25785000	      2577	8000309c	01f9f9b3	and	x19,x19,x31	 x19:0x00000025 x31:0x00001000 x19=0x00000000
       25795000	      2578	800030a0	00a35213	srli	x4,x6,0xa	  x6:0xffffffff  x4=0x003fffff
       25805000	      2579	800030a4	fe090b83	lb	x23,-32(x18)	 x18:0x80008b1d x23=0xffffffa3 PA:0x80008afd
       25815000	      2580	800030a8	00b94383	lbu	x7,11(x18)	 x18:0x80008b1d  x7=0x00000053 PA:0x80008b28
       25825000	      2581	800030ac	01290823	sb	x18,16(x18)	 x18:0x80008b1d x18:0x80008b1d PA:0x80008b2d
       25835000	      2582	800030b0	00791c03	lh	x24,7(x18)	 x18:0x80008b1d x24=0x00007b34 PA:0x80008b24
       25845000	      2583	800030b4	ffc90e83	lb	x29,-4(x18)	 x18:0x80008b1d x29=0x00000038 PA:0x80008b19
       25855000	      2584	800030b8	01c90703	lb	x14,28(x18)	 x18:0x80008b1d x14=0xfffffff9 PA:0x80008b39
       25865000	      2585	800030bc	ae4f7393	andi	x7,x30,-1308	 x30:0xffffffaf  x7=0xfffffaa4
       25875000	      2586	800030c0	581bfe17	auipc	x28,0x581bf	 x28=0xd81c20bc
       25885000	      2587	800030c4	01f33733	sltu	x14,x6,x31	  x6:0xffffffff x31:0x00001000 x14=0x00000000
       25895000	      2588	800030c8	fc7918a3	sh	x7,-47(x18)	 x18:0x80008b1d  x7:0xfffffaa4 PA:0x80008aee
       25905000	      2589	800030cc	00c43b33	sltu	x22,x8,x12	  x8:0x00000037 x12:0x00000004 x22=0x00000000
       25915000	      2590	800030d0	02894d03	lbu	x26,40(x18)	 x18:0x80008b1d x26=0x00000096 PA:0x80008b45
       25925000	      2591	800030d4	b2adf013	andi	x0,x27,-1238	 x27:0x00000001
       25935000	      2592	800030d8	fec90203	lb	x4,-20(x18)	 x18:0x80008b1d  x4=0xfffffff2 PA:0x80008b09
       25945000	      2593	800030dc	fc994203	lbu	x4,-55(x18)	 x18:0x80008b1d  x4=0x00000051 PA:0x80008ae6
       25955000	      2594	800030e0	03791f83	lh	x31,55(x18)	 x18:0x80008b1d x31=0xffffcd02 PA:0x80008b54
       25965000	      2595	800030e4	01c90ea3	sb	x28,29(x18)	 x18:0x80008b1d x28:0xd81c20bc PA:0x80008b3a
       25975000	      2596	800030e8	00fd5a13	srli	x20,x26,0xf	 x26:0x00000096 x20=0x00000000
       25985000	      2597	800030ec	00000013	addi	x0,x0,0	  x0:0x00000000
       25995000	      2598	800030f0	01c866b3	or	x13,x16,x28	 x16:0x0000003c x28:0xd81c20bc x13=0xd81c20bc
       26005000	      2599	800030f4	005e5213	srli	x4,x28,0x5	 x28:0xd81c20bc  x4=0x06c0e105
       26015000	      2600	800030f8	4126d393	srai	x7,x13,0x12	 x13:0xd81c20bc  x7=0xfffff607
       26025000	      2601	800030fc	fd790e23	sb	x23,-36(x18)	 x18:0x80008b1d x23:0xffffffa3 PA:0x80008af9
       26035000	      2602	80003100	fc990b03	lb	x22,-55(x18)	 x18:0x80008b1d x22=0x00000051 PA:0x80008ae6
       26045000	      2603	80003104	00e7fc33	and	x24,x15,x14	 x15:0x80009fc4 x14:0x00000000 x24=0x00000000
       26055000	      2604	80003108	fcc90d83	lb	x27,-52(x18)	 x18:0x80008b1d x27=0x00000005 PA:0x80008ae9
       26065000	      2605	8000310c	00005a17	auipc	x20,0x5	 x20=0x80008108
       26075000	      2606	80003110	71ca0a13	addi	x20,x20,1820	 x20:0x80008108 x20=0x80008824
       26085000	      2607	80003114	bd797093	andi	x1,x18,-1065	 x18:0x80008b1d  x1=0x80008b15
       26095000	      2608	80003118	2b8efd37	lui	x26,0x2b8ef	 x26=0x2b8ef000
       26105000	      2609	8000311c	00fa0e83	lb	x29,15(x20)	 x20:0x80008824 x29=0x0000007e PA:0x80008833
       26115000	      2610	80003120	ffea1e03	lh	x28,-2(x20)	 x20:0x80008824 x28=0xffffe8ac PA:0x80008822
       26125000	      2611	80003124	00ba0b83	lb	x23,11(x20)	 x20:0x80008824 x23=0xffffff88 PA:0x8000882f
       26135000	      2612	80003128	00648633	add	x12,x9,x6	  x9:0xfffffff9  x6:0xffffffff x12=0xfffffff8
       26145000	      2613	8000312c	01aa0323	sb	x26,6(x20)	 x20:0x80008824 x26:0x2b8ef000 PA:0x8000882a
       26155000	      2614	80003130	003a4483	lbu	x9,3(x20)	 x20:0x80008824  x9=0x000000da PA:0x80008827
       26165000	      2615	80003134	2d0f4997	auipc	x19,0x2d0f4	 x19=0xad0f7130
       26175000	      2616	80003138	00fa4903	lbu	x18,15(x20)	 x20:0x80008824 x18=0x0000007e PA:0x80008833
       26185000	      2617	8000313c	00aa1983	lh	x19,10(x20)	 x20:0x80008824 x19=0xffff8870 PA:0x8000882e
       26195000	      2618	80003140	00ea0b03	lb	x22,14(x20)	 x20:0x80008824 x22=0x0000001a PA:0x80008832
       26205000	      2619	80003144	019a05a3	sb	x25,11(x20)	 x20:0x80008824 x25:0x80009ef8 PA:0x8000882f
       26215000	      2620	80003148	ffba0403	lb	x8,-5(x20)	 x20:0x80008824  x8=0xffffffca PA:0x8000881f
       26225000	      2621	8000314c	005a0403	lb	x8,5(x20)	 x20:0x80008824  x8=0x0000007a PA:0x80008829
       26235000	      2622	80003150	01a608b3	add	x17,x12,x26	 x12:0xfffffff8 x26:0x2b8ef000 x17=0x2b8eeff8
       26245000	      2623	80003154	feaa1b23	sh	x10,-10(x20)	 x20:0x80008824 x10:0x8c589000 PA:0x8000881a
       26255000	      2624	80003158	41450fb3	sub	x31,x10,x20	 x10:0x8c589000 x20:0x80008824 x31=0x0c5807dc
       26265000	      2625	8000315c	6dd37013	andi	x0,x6,1757	  x6:0xffffffff
       26275000	      2626	80003160	c294c693	xori	x13,x9,-983	  x9:0x000000da x13=0xfffffcf3
       26285000	      2627	80003164	ff7a0f83	lb	x31,-9(x20)	 x20:0x80008824 x31=0xffffff90 PA:0x8000881b
       26295000	      2628	80003168	01769493	slli	x9,x13,0x17	 x13:0xfffffcf3  x9=0x79800000
       26305000	      2629	8000316c	007a4f03	lbu	x30,7(x20)	 x20:0x80008824 x30=0x000000ec PA:0x8000882b
       26315000	      2630	80003170	00da4f03	lbu	x30,13(x20)	 x20:0x80008824 x30=0x00000041 PA:0x80008831
       26325000	      2631	80003174	a0a5bd17	auipc	x26,0xa0a5b	 x26=0x20a5e170
       26335000	      2632	80003178	ff2a1c23	sh	x18,-8(x20)	 x20:0x80008824 x18:0x0000007e PA:0x8000881c
       26345000	      2633	8000317c	ffca0683	lb	x13,-4(x20)	 x20:0x80008824 x13=0xffffff93 PA:0x80008820
       26355000	      2634	80003180	00e79813	slli	x16,x15,0xe	 x15:0x80009fc4 x16=0x27f10000
       26365000	      2635	80003184	feca1b23	sh	x12,-10(x20)	 x20:0x80008824 x12:0xfffffff8 PA:0x8000881a
       26375000	      2636	80003188	ff5a4383	lbu	x7,-11(x20)	 x20:0x80008824  x7=0x0000005c PA:0x80008819
       26385000	      2637	8000318c	ff4a2d83	lw	x27,-12(x20)	 x20:0x80008824 x27=0xfff85c1e PA:0x80008818
       26395000	      2638	80003190	005a4303	lbu	x6,5(x20)	 x20:0x80008824  x6=0x0000007a PA:0x80008829
       26405000	      2639	80003194	00006597	auipc	x11,0x6	 x11=0x80009190
       26415000	      2640	80003198	c0758593	addi	x11,x11,-1017	 x11:0x80009190 x11=0x80008d97
       26425000	      2641	8000319c	09f58b83	lb	x23,159(x11)	 x11:0x80008d97 x23=0xffffff87 PA:0x80008e36
       26435000	      2642	800031a0	00000013	addi	x0,x0,0	  x0:0x00000000
       26445000	      2643	800031a4	87e2ca13	xori	x20,x5,-1922	  x5:0xaaff2000 x20=0x5500d87e
       26455000	      2644	800031a8	0625ce83	lbu	x29,98(x11)	 x11:0x80008d97 x29=0x00000001 PA:0x80008df9
       26465000	      2645	800031ac	25013a93	sltiu	x21,x2,592	  x2:0xaa8dd69f x21=0x00000000
       26475000	      2646	800031b0	584e0293	addi	x5,x28,1412	 x28:0xffffe8ac  x5=0xffffee30
       26485000	      2647	800031b4	fa958183	lb	x3,-87(x11)	 x11:0x80008d97  x3=0x0000007e PA:0x80008d40
       26495000	      2648	800031b8	41c8d2b3	sra	x5,x17,x28	 x17:0x2b8eeff8 x28:0xffffe8ac  x5=0x0002b8ee
       26505000	      2649	800031bc	f5258e03	lb	x28,-174(x11)	 x11:0x80008d97 x28=0x00000037 PA:0x80008ce9
       26515000	      2650	800031c0	06f5d403	lhu	x8,111(x11)	 x11:0x80008d97  x8=0x00008c53 PA:0x80008e06
       26525000	      2651	800031c4	57fe4313	xori	x6,x28,1407	 x28:0x00000037  x6=0x00000548
       26535000	      2652	800031c8	010533b3	sltu	x7,x10,x16	 x10:0x8c589000 x16:0x27f10000  x7=0x00000000
       26545000	      2653	800031cc	3ec6f093	andi	x1,x13,1004	 x13:0xffffff93  x1=0x00000380
       26555000	      2654	800031d0	01b49bb3	sll	x23,x9,x27	  x9:0x79800000 x27:0xfff85c1e x23=0x00000000
       26565000	      2655	800031d4	01c129b3	slt	x19,x2,x28	  x2:0xaa8dd69f x28:0x00000037 x19=0x00000001
       26575000	      2656	800031d8	0167aab3	slt	x21,x15,x22	 x15:0x80009fc4 x22:0x0000001a x21=0x00000001
       26585000	      2657	800031dc	6e288697	auipc	x13,0x6e288	 x13=0xee28b1d8
       26595000	      2658	800031e0	01e23033	sltu	x0,x4,x30	  x4:0x06c0e105 x30:0x00000041
       26605000	      2659	800031e4	00d16733	or	x14,x2,x13	  x2:0xaa8dd69f x13:0xee28b1d8 x14=0xeeadf7df
       26615000	      2660	800031e8	b887b097	auipc	x1,0xb887b	  x1=0x3887e1e4
       26625000	      2661	800031ec	fb35dc03	lhu	x24,-77(x11)	 x11:0x80008d97 x24=0x0000b3a8 PA:0x80008d4a
       26635000	      2662	800031f0	01958523	sb	x25,10(x11)	 x11:0x80008d97 x25:0x80009ef8 PA:0x80008da1
       26645000	      2663	800031f4	01d159b3	srl	x19,x2,x29	  x2:0xaa8dd69f x29:0x00000001 x19=0x5546eb4f
       26655000	      2664	800031f8	013f1933	sll	x18,x30,x19	 x30:0x00000041 x19:0x5546eb4f x18=0x00208000
       26665000	      2665	800031fc	fe95a203	lw	x4,-23(x11)	 x11:0x80008d97  x4=0xd1413550 PA:0x80008d80
       26675000	      2666	80003200	015519b3	sll	x19,x10,x21	 x10:0x8c589000 x21:0x00000001 x19=0x18b12000
       26685000	      2667	80003204	083593a3	sh	x3,135(x11)	 x11:0x80008d97  x3:0x0000007e PA:0x80008e1e
       26695000	      2668	80003208	05058983	lb	x19,80(x11)	 x11:0x80008d97 x19=0xffffffea PA:0x80008de7
       26705000	      2669	8000320c	40475eb3	sra	x29,x14,x4	 x14:0xeeadf7df  x4:0xd1413550 x29=0xffffeead
       26715000	      2670	80003210	0795a303	lw	x6,121(x11)	 x11:0x80008d97  x6=0x00009edc PA:0x80008e10
       26725000	      2671	80003214	322abd93	sltiu	x27,x21,802	 x21:0x00000001 x27=0x00000001
       26735000	      2672	80003218	01005a33	srl	x20,x0,x16	  x0:0x00000000 x16:0x27f10000 x20=0x00000000
       26745000	      2673	8000321c	003772b3	and	x5,x14,x3	 x14:0xeeadf7df  x3:0x0000007e  x5=0x0000005e
       26755000	      2674	80003220	01f19433	sll	x8,x3,x31	  x3:0x0000007e x31:0xffffff90  x8=0x007e0000
       26765000	      2675	80003224	36e584b7	lui	x9,0x36e58	  x9=0x36e58000
       26775000	      2676	80003228	00d0f633	and	x12,x1,x13	  x1:0x3887e1e4 x13:0xee28b1d8 x12=0x2800a1c0
       26785000	      2677	8000322c	7d24bc13	sltiu	x24,x9,2002	  x9:0x36e58000 x24=0x00000000
       26795000	      2678	80003230	0f75cd83	lbu	x27,247(x11)	 x11:0x80008d97 x27=0x000000cc PA:0x80008e8e
       26805000	      2679	00000000	00000013	addi	x0,x0,0	  x0:0x00000000
       26815000	      2680	80003234	2acda013	slti	x0,x27,684	 x27:0x000000cc
       26825000	      2681	80003238	007400b3	add	x1,x8,x7	  x8:0x007e0000  x7:0x00000000  x1=0x007e0000
       26835000	      2682	8000323c	02759403	lh	x8,39(x11)	 x11:0x80008d97  x8=0x00000111 PA:0x80008dbe
       26845000	      2683	80003240	0b758903	lb	x18,183(x11)	 x11:0x80008d97 x18=0x00000001 PA:0x80008e4e
       26855000	      2684	80003244	0ad58f23	sb	x13,190(x11)	 x11:0x80008d97 x13:0xee28b1d8 PA:0x80008e55
       26865000	      2685	80003248	009af933	and	x18,x21,x9	 x21:0x00000001  x9:0x36e58000 x18=0x00000000
       26875000	      2686	8000324c	f8759683	lh	x13,-121(x11)	 x11:0x80008d97 x13=0xffffe93e PA:0x80008d1e
       26885000	      2687	80003250	00006e17	auipc	x28,0x6	 x28=0x8000924c
       26895000	      2688	80003254	c82e0e13	addi	x28,x28,-894	 x28:0x8000924c x28=0x80008ece
       26905000	      2689	80003258	41438233	sub	x4,x7,x20	  x7:0x00000000 x20:0x00000000  x4=0x00000000
       26915000	      2690	8000325c	05fe0ca3	sb	x31,89(x28)	 x28:0x80008ece x31:0xffffff90 PA:0x80008f27
       26925000	      2691	80003260	f8ce5603	lhu	x12,-116(x28)	 x28:0x80008ece x12=0x000005fe PA:0x80008e5a
       26935000	      2692	80003264	0c3e2123	sw	x3,194(x28)	 x28:0x80008ece  x3:0x0000007e PA:0x80008f90
       26945000	      2693	80003268	0d3e0203	lb	x4,211(x28)	 x28:0x80008ece  x4=0x0000001d PA:0x80008fa1
       26955000	      2694	8000326c	0dee1223	sh	x30,196(x28)	 x28:0x80008ece x30:0x00000041 PA:0x80008f92
       26965000	      2695	80003270	af6fad13	slti	x26,x31,-1290	 x31:0xffffff90 x26=0x00000000
       26975000	      2696	80003274	b9722493	slti	x9,x4,-1129	  x4:0x0000001d  x9=0x00000000
       26985000	      2697	80003278	fcfe4203	lbu	x4,-49(x28)	 x28:0x80008ece  x4=0x0000009e PA:0x80008e9d
       26995000	      2698	8000327c	07be0223	sb	x27,100(x28)	 x28:0x80008ece x27:0x000000cc PA:0x80008f32
       27005000	      2699	80003280	68874b93	xori	x23,x14,1672	 x14:0xeeadf7df x23=0xeeadf157
       27015000	      2700	80003284	016e1803	lh	x16,22(x28)	 x28:0x80008ece x16=0x00002104 PA:0x80008ee4
       27025000	      2701	80003288	6a868497	auipc	x9,0x6a868	  x9=0xea86b284
       27035000	      2702	8000328c	00d65613	srli	x12,x12,0xd	 x12:0x000005fe x12=0x00000000
       27045000	      2703	80003290	ff4e1c23	sh	x20,-8(x28)	 x28:0x80008ece x20:0x00000000 PA:0x80008ec6
       27055000	      2704	80003294	f22e0303	lb	x6,-222(x28)	 x28:0x80008ece  x6=0x0000005d PA:0x80008df0
       27065000	      2705	80003298	05ee2983	lw	x19,94(x28)	 x28:0x80008ece x19=0xb9af6b6a PA:0x80008f2c
       27075000	      2706	8000329c	f39e0f23	sb	x25,-194(x28)	 x28:0x80008ece x25:0x80009ef8 PA:0x80008e0c
       27085000	      2707	800032a0	f45e0603	lb	x12,-187(x28)	 x28:0x80008ece x12=0x00000000 PA:0x80008e13
       27095000	      2708	800032a4	01143fb3	sltu	x31,x8,x17	  x8:0x00000111 x17:0x2b8eeff8 x31=0x00000001
       27105000	      2709	800032a8	08de0d23	sb	x13,154(x28)	 x28:0x80008ece x13:0xffffe93e PA:0x80008f68
       27115000	      2710	800032ac	15f5e313	ori	x6,x11,351	 x11:0x80008d97  x6=0x80008ddf
       27125000	      2711	800032b0	0c4e1423	sh	x4,200(x28)	 x28:0x80008ece  x4:0x0000009e PA:0x80008f96
       27135000	      2712	800032b4	0cee1423	sh	x14,200(x28)	 x28:0x80008ece x14:0xeeadf7df PA:0x80008f96
       27145000	      2713	800032b8	00000013	addi	x0,x0,0	  x0:0x00000000
       27155000	      2714	800032bc	ffce1283	lh	x5,-4(x28)	 x28:0x80008ece  x5=0x0000702a PA:0x80008eca
       27165000	      2715	800032c0	fe2e01a3	sb	x2,-29(x28)	 x28:0x80008ece  x2:0xaa8dd69f PA:0x80008eb1
       27175000	      2716	800032c4	014cfa33	and	x20,x25,x20	 x25:0x80009ef8 x20:0x00000000 x20=0x00000000
       27185000	      2717	800032c8	0f4e5c03	lhu	x24,244(x28)	 x28:0x80008ece x24=0x0000f93b PA:0x80008fc2
       27195000	      2718	800032cc	fc7e0f03	lb	x30,-57(x28)	 x28:0x80008ece x30=0x00000000 PA:0x80008e95
       27205000	      2719	800032d0	003e4683	lbu	x13,3(x28)	 x28:0x80008ece x13=0x00000007 PA:0x80008ed1
       27215000	      2720	800032d4	05ce5183	lhu	x3,92(x28)	 x28:0x80008ece  x3=0x000042d3 PA:0x80008f2a
       27225000	      2721	800032d8	f38e0aa3	sb	x24,-203(x28)	 x28:0x80008ece x24:0x0000f93b PA:0x80008e03
       27235000	      2722	800032dc	4078d193	srai	x3,x17,0x7	 x17:0x2b8eeff8  x3=0x00571ddf
       27245000	      2723	800032e0	01f7b333	sltu	x6,x15,x31	 x15:0x80009fc4 x31:0x00000001  x6=0x00000000
       27255000	      2724	800032e4	69848f13	addi	x30,x9,1688	  x9:0xea86b284 x30=0xea86b91c
       27265000	      2725	800032e8	0a3e4183	lbu	x3,163(x28)	 x28:0x80008ece  x3=0x000000d1 PA:0x80008f71
       27275000	      2726	800032ec	f27e0fa3	sb	x7,-193(x28)	 x28:0x80008ece  x7:0x00000000 PA:0x80008e0d
       27285000	      2727	800032f0	00586933	or	x18,x16,x5	 x16:0x00002104  x5:0x0000702a x18=0x0000712e
       27295000	      2728	800032f4	67b8b897	auipc	x17,0x67b8b	 x17=0xe7b8e2f0
       27305000	      2729	800032f8	095e01a3	sb	x21,131(x28)	 x28:0x80008ece x21:0x00000001 PA:0x80008f51
       27315000	      2730	800032fc	03de08a3	sb	x29,49(x28)	 x28:0x80008ece x29:0xffffeead PA:0x80008eff
       27325000	      2731	80003300	020e1723	sh	x0,46(x28)	 x28:0x80008ece  x0:0x00000000 PA:0x80008efc
       27335000	      2732	80003304	d3c1bb13	sltiu	x22,x3,-708	  x3:0x000000d1 x22=0x00000001
       27345000	      2733	80003308	01505bb3	srl	x23,x0,x21	  x0:0x00000000 x21:0x00000001 x23=0x00000000
       27355000	      2734	8000330c	2ab9b293	sltiu	x5,x19,683	 x19:0xb9af6b6a  x5=0x00000000
       27365000	      2735	80003310	009e5a33	srl	x20,x28,x9	 x28:0x80008ece  x9:0xea86b284 x20=0x080008ec
       27375000	      2736	80003314	0132de93	srli	x29,x5,0x13	  x5:0x00000000 x29=0x00000000
       27385000	      2737	80003318	01a373b3	and	x7,x6,x26	  x6:0x00000000 x26:0x00000000  x7=0x00000000
       27395000	      2738	8000331c	011fb9b3	sltu	x19,x31,x17	 x31:0x00000001 x17:0xe7b8e2f0 x19=0x00000001
       27405000	      2739	80003320	a0295017	auipc	x0,0xa0295	
       27415000	      2740	80003324	03ce8f93	addi	x31,x29,60	 x29:0x00000000 x31=0x0000003c
       27425000	      2741	80003328	00e940b3	xor	x1,x18,x14	 x18:0x0000712e x14:0xeeadf7df  x1=0xeead86f1
       27435000	      2742	8000332c	001c2b33	slt	x22,x24,x1	 x24:0x0000f93b  x1:0xeead86f1 x22=0x00000000
       27445000	      2743	80003330	2402b413	sltiu	x8,x5,576	  x5:0x00000000  x8=0x00000001
       27455000	      2744	80003334	01579593	slli	x11,x15,0x15	 x15:0x80009fc4 x11=0xf8800000
       27465000	      2745	80003338	42240fb7	lui	x31,0x42240	 x31=0x42240000
       27475000	      2746	8000333c	0127da33	srl	x20,x15,x18	 x15:0x80009fc4 x18:0x0000712e x20=0x00020002
       27485000	      2747	80003340	0112fe63	bgeu	x5,x17,8000335c	  x5:0x00000000 x17:0xe7b8e2f0
       27495000	      2748	80003344	01748fb3	add	x31,x9,x23	  x9:0xea86b284 x23:0x00000000 x31=0xea86b284
       27505000	      2749	80003348	00000013	addi	x0,x0,0	  x0:0x00000000
       27515000	      2750	8000334c	0149fd33	and	x26,x19,x20	 x19:0x00000001 x20:0x00020002 x26=0x00000000
       27525000	      2751	80003350	404d5a93	srai	x21,x26,0x4	 x26:0x00000000 x21=0x00000000
       27535000	      2752	80003354	00162333	slt	x6,x12,x1	 x12:0x00000000  x1:0xeead86f1  x6=0x00000000
       27545000	      2753	80003358	abbe3393	sltiu	x7,x28,-1349	 x28:0x80008ece  x7=0x00000001
       27555000	      2754	8000335c	01f61d13	slli	x26,x12,0x1f	 x12:0x00000000 x26=0x00000000
       27565000	      2755	80003360	908ce213	ori	x4,x25,-1784	 x25:0x80009ef8  x4=0xfffffff8
       27575000	      2756	80003364	00000013	addi	x0,x0,0	  x0:0x00000000
       27585000	      2757	80003368	00a95613	srli	x12,x18,0xa	 x18:0x0000712e x12=0x0000001c
       27595000	      2758	8000336c	01ce7a63	bgeu	x28,x28,80003380	 x28:0x80008ece x28:0x80008ece
       27605000	      2759	00000000	00000013	addi	x0,x0,0	  x0:0x00000000
       27615000	      2760	8000337c	00000013	addi	x0,x0,0	  x0:0x00000000
       27625000	      2761	80003380	d91b4b13	xori	x22,x22,-623	 x22:0x00000000 x22=0xfffffd91
       27635000	      2762	80003384	015b1863	bne	x22,x21,80003394	 x22:0xfffffd91 x21:0x00000000
       27645000	      2763	00000000	00000013	addi	x0,x0,0	  x0:0x00000000
       27655000	      2764	80003390	00000013	addi	x0,x0,0	  x0:0x00000000
       27665000	      2765	80003394	16fc4713	xori	x14,x24,367	 x24:0x0000f93b x14=0x0000f854
       27675000	      2766	80003398	017fba13	sltiu	x20,x31,23	 x31:0xea86b284 x20=0x00000000
       27685000	      2767	8000339c	028e4663	blt	x28,x8,800033c8	 x28:0x80008ece  x8:0x00000001
       27695000	      2768	00000000	00000013	addi	x0,x0,0	  x0:0x00000000
       27705000	      2769	800033c4	00000013	addi	x0,x0,0	  x0:0x00000000
       27715000	      2770	800033c8	011cd8b3	srl	x17,x25,x17	 x25:0x80009ef8 x17:0xe7b8e2f0 x17=0x00008000
       27725000	      2771	800033cc	4021d613	srai	x12,x3,0x2	  x3:0x000000d1 x12=0x00000034
       27735000	      2772	800033d0	01484a33	xor	x20,x16,x20	 x16:0x00002104 x20:0x00000000 x20=0x00002104
       27745000	      2773	800033d4	0ec32313	slti	x6,x6,236	  x6:0x00000000  x6=0x00000001
       27755000	      2774	800033d8	016b9d13	slli	x26,x23,0x16	 x23:0x00000000 x26=0x00000000
       27765000	      2775	800033dc	249c8293	addi	x5,x25,585	 x25:0x80009ef8  x5=0x8000a141
       27775000	      2776	800033e0	f02c4a13	xori	x20,x24,-254	 x24:0x0000f93b x20=0xffff0639
       27785000	      2777	800033e4	02d58c63	beq	x11,x13,8000341c	 x11:0xf8800000 x13:0x00000007
       27795000	      2778	800033e8	0195e4b3	or	x9,x11,x25	 x11:0xf8800000 x25:0x80009ef8  x9=0xf8809ef8
       27805000	      2779	800033ec	40e90533	sub	x10,x18,x14	 x18:0x0000712e x14:0x0000f854 x10=0xffff78da
       27815000	      2780	800033f0	00a04463	blt	x0,x10,800033f8	  x0:0x00000000 x10:0xffff78da
       27825000	      2781	800033f4	00846633	or	x12,x8,x8	  x8:0x00000001  x8:0x00000001 x12=0x00000001
       27835000	      2782	800033f8	402b80b3	sub	x1,x23,x2	 x23:0x00000000  x2:0xaa8dd69f  x1=0x55722961
       27845000	      2783	800033fc	04c28663	beq	x5,x12,80003448	  x5:0x8000a141 x12:0x00000001
       27855000	      2784	80003400	01ce0633	add	x12,x28,x28	 x28:0x80008ece x28:0x80008ece x12=0x00011d9c
       27865000	      2785	80003404	f0ba3213	sltiu	x4,x20,-245	 x20:0xffff0639  x4=0x00000001
       27875000	      2786	80003408	00000013	addi	x0,x0,0	  x0:0x00000000
       27885000	      2787	8000340c	7d4b7313	andi	x6,x22,2004	 x22:0xfffffd91  x6=0x00000590
       27895000	      2788	80003410	00364a63	blt	x12,x3,80003424	 x12:0x00011d9c  x3:0x000000d1
       27905000	      2789	80003414	e5974e97	auipc	x29,0xe5974	 x29=0x65977410
       27915000	      2790	80003418	63a17997	auipc	x19,0x63a17	 x19=0xe3a1a414
       27925000	      2791	8000341c	002aa0b3	slt	x1,x21,x2	 x21:0x00000000  x2:0xaa8dd69f  x1=0x00000000
       27935000	      2792	80003420	4813f013	andi	x0,x7,1153	  x7:0x00000001
       27945000	      2793	80003424	a9542893	slti	x17,x8,-1387	  x8:0x00000001 x17=0x00000000
       27955000	      2794	80003428	411bd313	srai	x6,x23,0x11	 x23:0x00000000  x6=0x00000000
       27965000	      2795	8000342c	00a0dd93	srli	x27,x1,0xa	  x1:0x00000000 x27=0x00000000
       27975000	      2796	80003430	007a1193	slli	x3,x20,0x7	 x20:0xffff0639  x3=0xff831c80
       27985000	      2797	80003434	41b90433	sub	x8,x18,x27	 x18:0x0000712e x27:0x00000000  x8=0x0000712e
       27995000	      2798	80003438	97e0ef93	ori	x31,x1,-1666	  x1:0x00000000 x31=0xfffff97e
       28005000	      2799	8000343c	01029e93	slli	x29,x5,0x10	  x5:0x8000a141 x29=0xa1410000
       28015000	      2800	80003440	013fa9b3	slt	x19,x31,x19	 x31:0xfffff97e x19:0xe3a1a414 x19=0x00000000
       28025000	      2801	80003444	002d63b3	or	x7,x26,x2	 x26:0x00000000  x2:0xaa8dd69f  x7=0xaa8dd69f
       28035000	      2802	80003448	048ad663	bge	x21,x8,80003494	 x21:0x00000000  x8:0x0000712e
       28045000	      2803	8000344c	38b12817	auipc	x16,0x38b12	 x16=0xb8b15448
       28055000	      2804	80003450	7eb77913	andi	x18,x14,2027	 x14:0x0000f854 x18=0x00000040
       28065000	      2805	80003454	015d8663	beq	x27,x21,80003460	 x27:0x00000000 x21:0x00000000
       28075000	      2806	00000000	00000013	addi	x0,x0,0	  x0:0x00000000
       28085000	      2807	8000345c	00000013	addi	x0,x0,0	  x0:0x00000000
       28095000	      2808	80003460	0041dc13	srli	x24,x3,0x4	  x3:0xff831c80 x24=0x0ff831c8
       28105000	      2809	80003464	009572b3	and	x5,x10,x9	 x10:0xffff78da  x9:0xf8809ef8  x5=0xf88018d8
       28115000	      2810	80003468	01594463	blt	x18,x21,80003470	 x18:0x00000040 x21:0x00000000
       28125000	      2811	8000346c	021d8863	beq	x27,x1,8000349c	 x27:0x00000000  x1:0x00000000
       28135000	      2812	00000000	00000013	addi	x0,x0,0	  x0:0x00000000
       28145000	      2813	80003498	00000013	addi	x0,x0,0	  x0:0x00000000
       28155000	      2814	8000349c	5d6d0493	addi	x9,x26,1494	 x26:0x00000000  x9=0x000005d6
       28165000	      2815	800034a0	012ed463	bge	x29,x18,800034a8	 x29:0xa1410000 x18:0x00000040
       28175000	      2816	800034a4	8f1f3013	sltiu	x0,x30,-1807	 x30:0xea86b91c
       28185000	      2817	800034a8	5b6ffa13	andi	x20,x31,1462	 x31:0xfffff97e x20=0x00000136
       28195000	      2818	800034ac	00000013	addi	x0,x0,0	  x0:0x00000000
       28205000	      2819	800034b0	02a9d663	bge	x19,x10,800034dc	 x19:0x00000000 x10:0xffff78da
       28215000	      2820	00000000	00000013	addi	x0,x0,0	  x0:0x00000000
       28225000	      2821	800034d8	00000013	addi	x0,x0,0	  x0:0x00000000
       28235000	      2822	800034dc	ee994993	xori	x19,x18,-279	 x18:0x00000040 x19=0xfffffea9
       28245000	      2823	800034e0	00c3dd13	srli	x26,x7,0xc	  x7:0xaa8dd69f x26=0x000aa8dd
       28255000	      2824	800034e4	d2126837	lui	x16,0xd2126	 x16=0xd2126000
       28265000	      2825	800034e8	40115d33	sra	x26,x2,x1	  x2:0xaa8dd69f  x1:0x00000000 x26=0xaa8dd69f
       28275000	      2826	800034ec	577f7493	andi	x9,x30,1399	 x30:0xea86b91c  x9=0x00000114
       28285000	      2827	800034f0	ab138693	addi	x13,x7,-1359	  x7:0xaa8dd69f x13=0xaa8dd150
       28295000	      2828	800034f4	90956193	ori	x3,x10,-1783	 x10:0xffff78da  x3=0xfffff9db
       28305000	      2829	800034f8	1c899517	auipc	x10,0x1c899	 x10=0x9c89c4f4
       28315000	      2830	800034fc	05135863	bge	x6,x17,8000354c	  x6:0x00000000 x17:0x00000000
       28325000	      2831	00000000	00000013	addi	x0,x0,0	  x0:0x00000000
       28335000	      2832	80003548	00000013	addi	x0,x0,0	  x0:0x00000000
       28345000	      2833	8000354c	018b4ab3	xor	x21,x22,x24	 x22:0xfffffd91 x24:0x0ff831c8 x21=0xf007cc59
       28355000	      2834	80003550	00005213	srli	x4,x0,0x0	  x0:0x00000000  x4=0x00000000
       28365000	      2835	80003554	4e5ccf13	xori	x30,x25,1253	 x25:0x80009ef8 x30=0x80009a1d
       28375000	      2836	80003558	00adf663	bgeu	x27,x10,80003564	 x27:0x00000000 x10:0x9c89c4f4
       28385000	      2837	8000355c	008a91b3	sll	x3,x21,x8	 x21:0xf007cc59  x8:0x0000712e  x3=0xf3164000
       28395000	      2838	80003560	00b0fa63	bgeu	x1,x11,80003574	  x1:0x00000000 x11:0xf8800000
       28405000	      2839	80003564	00000013	addi	x0,x0,0	  x0:0x00000000
       28415000	      2840	80003568	00cfe633	or	x12,x31,x12	 x31:0xfffff97e x12:0x00011d9c x12=0xfffffdfe
       28425000	      2841	8000356c	40985a13	srai	x20,x16,0x9	 x16:0xd2126000 x20=0xffe90930
       28435000	      2842	80003570	00bedb33	srl	x22,x29,x11	 x29:0xa1410000 x11:0xf8800000 x22=0xa1410000
       28445000	      2843	80003574	01da5b93	srli	x23,x20,0x1d	 x20:0xffe90930 x23=0x00000007
       28455000	      2844	80003578	75cd4393	xori	x7,x26,1884	 x26:0xaa8dd69f  x7=0xaa8dd1c3
       28465000	      2845	8000357c	006c1b93	slli	x23,x24,0x6	 x24:0x0ff831c8 x23=0xfe0c7200
       28475000	      2846	80003580	03766e63	bltu	x12,x23,800035bc	 x12:0xfffffdfe x23:0xfe0c7200
       28485000	      2847	80003584	02c28663	beq	x5,x12,800035b0	  x5:0xf88018d8 x12:0xfffffdfe
       28495000	      2848	80003588	f8573193	sltiu	x3,x14,-123	 x14:0x0000f854  x3=0x00000001
       28505000	      2849	8000358c	05d2ac13	slti	x24,x5,93	  x5:0xf88018d8 x24=0x00000001
       28515000	      2850	80003590	00000013	addi	x0,x0,0	  x0:0x00000000
       28525000	      2851	80003594	bd774613	xori	x12,x14,-1065	 x14:0x0000f854 x12=0xffff0383
       28535000	      2852	80003598	0377d463	bge	x15,x23,800035c0	 x15:0x80009fc4 x23:0xfe0c7200
       28545000	      2853	8000359c	001f2b33	slt	x22,x30,x1	 x30:0x80009a1d  x1:0x00000000 x22=0x00000001
       28555000	      2854	800035a0	00ac0c63	beq	x24,x10,800035b8	 x24:0x00000001 x10:0x9c89c4f4
       28565000	      2855	800035a4	01afdb93	srli	x23,x31,0x1a	 x31:0xfffff97e x23=0x0000003f
       28575000	      2856	800035a8	03d10663	beq	x2,x29,800035d4	  x2:0xaa8dd69f x29:0xa1410000
       28585000	      2857	800035ac	374e7913	andi	x18,x28,884	 x28:0x80008ece x18=0x00000244
       28595000	      2858	800035b0	003e6463	bltu	x28,x3,800035b8	 x28:0x80008ece  x3:0x00000001
       28605000	      2859	800035b4	01ab8a63	beq	x23,x26,800035c8	 x23:0x0000003f x26:0xaa8dd69f
       28615000	      2860	800035b8	748f0193	addi	x3,x30,1864	 x30:0x80009a1d  x3=0x8000a165
       28625000	      2861	800035bc	0165e5b3	or	x11,x11,x22	 x11:0xf8800000 x22:0x00000001 x11=0xf8800001
       28635000	      2862	800035c0	049a7063	bgeu	x20,x9,80003600	 x20:0xffe90930  x9:0x00000114
       28645000	      2863	00000000	00000013	addi	x0,x0,0	  x0:0x00000000
       28655000	      2864	800035fc	00000013	addi	x0,x0,0	  x0:0x00000000
       28665000	      2865	80003600	942ded93	ori	x27,x27,-1726	 x27:0x00000000 x27=0xfffff942
       28675000	      2866	80003604	0306f663	bgeu	x13,x16,80003630	 x13:0xaa8dd150 x16:0xd2126000
       28685000	      2867	80003608	00000013	addi	x0,x0,0	  x0:0x00000000
       28695000	      2868	8000360c	032fdc63	bge	x31,x18,80003644	 x31:0xfffff97e x18:0x00000244
       28705000	      2869	80003610	0191e9b3	or	x19,x3,x25	  x3:0x8000a165 x25:0x80009ef8 x19=0x8000bffd
       28715000	      2870	80003614	011bffb3	and	x31,x23,x17	 x23:0x0000003f x17:0x00000000 x31=0x00000000
       28725000	      2871	80003618	6bb6bc13	sltiu	x24,x13,1723	 x13:0xaa8dd150 x24=0x00000000
       28735000	      2872	8000361c	018afc63	bgeu	x21,x24,80003634	 x21:0xf007cc59 x24:0x00000000
       28745000	      2873	00000000	00000013	addi	x0,x0,0	  x0:0x00000000
       28755000	      2874	80003630	00000013	addi	x0,x0,0	  x0:0x00000000
       28765000	      2875	80003634	41778d33	sub	x26,x15,x23	 x15:0x80009fc4 x23:0x0000003f x26=0x80009f85
       28775000	      2876	80003638	01d85eb3	srl	x29,x16,x29	 x16:0xd2126000 x29:0xa1410000 x29=0xd2126000
       28785000	      2877	8000363c	d4e611b7	lui	x3,0xd4e61	  x3=0xd4e61000
       28795000	      2878	80003640	5c927413	andi	x8,x4,1481	  x4:0x00000000  x8=0x00000000
       28805000	      2879	80003644	00d43633	sltu	x12,x8,x13	  x8:0x00000000 x13:0xaa8dd150 x12=0x00000001
       28815000	      2880	80003648	0031b2b3	sltu	x5,x3,x3	  x3:0xd4e61000  x3:0xd4e61000  x5=0x00000000
       28825000	      2881	8000364c	02428d13	addi	x26,x5,36	  x5:0x00000000 x26=0x00000024
       28835000	      2882	80003650	00f45193	srli	x3,x8,0xf	  x8:0x00000000  x3=0x00000000
       28845000	      2883	80003654	1beefc13	andi	x24,x29,446	 x29:0xd2126000 x24=0x00000000
       28855000	      2884	80003658	00819613	slli	x12,x3,0x8	  x3:0x00000000 x12=0x00000000
       28865000	      2885	8000365c	32410593	addi	x11,x2,804	  x2:0xaa8dd69f x11=0xaa8dd9c3
       28875000	      2886	80003660	40d4de13	srai	x28,x9,0xd	  x9:0x00000114 x28=0x00000000
       28885000	      2887	80003664	00000013	addi	x0,x0,0	  x0:0x00000000
       28895000	      2888	80003668	0011abb3	slt	x23,x3,x1	  x3:0x00000000  x1:0x00000000 x23=0x00000000
       28905000	      2889	8000366c	016ad433	srl	x8,x21,x22	 x21:0xf007cc59 x22:0x00000001  x8=0x7803e62c
       28915000	      2890	80003670	4957e813	ori	x16,x15,1173	 x15:0x80009fc4 x16=0x80009fd5
       28925000	      2891	80003674	002f9463	bne	x31,x2,8000367c	 x31:0x00000000  x2:0xaa8dd69f
       28935000	      2892	00000000	00000013	addi	x0,x0,0	  x0:0x00000000
       28945000	      2893	80003678	00000013	addi	x0,x0,0	  x0:0x00000000
       28955000	      2894	8000367c	047b1463	bne	x22,x7,800036c4	 x22:0x00000001  x7:0xaa8dd1c3
       28965000	      2895	00000000	00000013	addi	x0,x0,0	  x0:0x00000000
       28975000	      2896	800036c0	00000013	addi	x0,x0,0	  x0:0x00000000
       28985000	      2897	800036c4	591d8a93	addi	x21,x27,1425	 x27:0xfffff942 x21=0xfffffed3
       28995000	      2898	800036c8	011f83b3	add	x7,x31,x17	 x31:0x00000000 x17:0x00000000  x7=0x00000000
       29005000	      2899	800036cc	00d9d513	srli	x10,x19,0xd	 x19:0x8000bffd x10=0x00040005
       29015000	      2900	800036d0	05d2d863	bge	x5,x29,80003720	  x5:0x00000000 x29:0xd2126000
       29025000	      2901	00000000	00000013	addi	x0,x0,0	  x0:0x00000000
       29035000	      2902	8000371c	00000013	addi	x0,x0,0	  x0:0x00000000
       29045000	      2903	80003720	407ad993	srai	x19,x21,0x7	 x21:0xfffffed3 x19=0xfffffffd
       29055000	      2904	80003724	41c000b3	sub	x1,x0,x28	  x0:0x00000000 x28:0x00000000  x1=0x00000000
       29065000	      2905	80003728	149bca13	xori	x20,x23,329	 x23:0x00000000 x20=0x00000149
       29075000	      2906	8000372c	01550863	beq	x10,x21,8000373c	 x10:0x00040005 x21:0xfffffed3
       29085000	      2907	80003730	0171c333	xor	x6,x3,x23	  x3:0x00000000 x23:0x00000000  x6=0x00000000
       29095000	      2908	80003734	41438e33	sub	x28,x7,x20	  x7:0x00000000 x20:0x00000149 x28=0xfffffeb7
       29105000	      2909	80003738	01328663	beq	x5,x19,80003744	  x5:0x00000000 x19:0xfffffffd
       29115000	      2910	8000373c	403b8933	sub	x18,x23,x3	 x23:0x00000000  x3:0x00000000 x18=0x00000000
       29125000	      2911	80003740	40e35213	srai	x4,x6,0xe	  x6:0x00000000  x4=0x00000000
       29135000	      2912	80003744	004d5693	srli	x13,x26,0x4	 x26:0x00000024 x13=0x00000002
       29145000	      2913	80003748	01075e93	srli	x29,x14,0x10	 x14:0x0000f854 x29=0x00000000
       29155000	      2914	8000374c	0130c9b3	xor	x19,x1,x19	  x1:0x00000000 x19:0xfffffffd x19=0xfffffffd
       29165000	      2915	80003750	09256b93	ori	x23,x10,146	 x10:0x00040005 x23=0x00040097
       29175000	      2916	80003754	012e48b3	xor	x17,x28,x18	 x28:0xfffffeb7 x18:0x00000000 x17=0xfffffeb7
       29185000	      2917	80003758	00e6d333	srl	x6,x13,x14	 x13:0x00000002 x14:0x0000f854  x6=0x00000000
       29195000	      2918	8000375c	412dd013	srai	x0,x27,0x12	 x27:0xfffff942
       29205000	      2919	80003760	40f1d0b3	sra	x1,x3,x15	  x3:0x00000000 x15:0x80009fc4  x1=0x00000000
       29215000	      2920	80003764	015a4663	blt	x20,x21,80003770	 x20:0x00000149 x21:0xfffffed3
       29225000	      2921	80003768	411f5893	srai	x17,x30,0x11	 x30:0x80009a1d x17=0xffffc000
       29235000	      2922	8000376c	f69cb293	sltiu	x5,x25,-151	 x25:0x80009ef8  x5=0x00000001
       29245000	      2923	80003770	05fb4663	blt	x22,x31,800037bc	 x22:0x00000001 x31:0x00000000
       29255000	      2924	80003774	006ab4b3	sltu	x9,x21,x6	 x21:0xfffffed3  x6:0x00000000  x9=0x00000000
       29265000	      2925	80003778	04ef8063	beq	x31,x14,800037b8	 x31:0x00000000 x14:0x0000f854
       29275000	      2926	8000377c	004342b3	xor	x5,x6,x4	  x6:0x00000000  x4:0x00000000  x5=0x00000000
       29285000	      2927	80003780	01d41eb3	sll	x29,x8,x29	  x8:0x7803e62c x29:0x00000000 x29=0x7803e62c
       29295000	      2928	80003784	012a7733	and	x14,x20,x18	 x20:0x00000149 x18:0x00000000 x14=0x00000000
       29305000	      2929	80003788	00046a63	bltu	x8,x0,8000379c	  x8:0x7803e62c  x0:0x00000000
       29315000	      2930	8000378c	00b255b3	srl	x11,x4,x11	  x4:0x00000000 x11:0xaa8dd9c3 x11=0x00000000
       29325000	      2931	80003790	412282b3	sub	x5,x5,x18	  x5:0x00000000 x18:0x00000000  x5=0x00000000
       29335000	      2932	80003794	407f5493	srai	x9,x30,0x7	 x30:0x80009a1d  x9=0xff000134
       29345000	      2933	80003798	0329dc63	bge	x19,x18,800037d0	 x19:0xfffffffd x18:0x00000000
       29355000	      2934	8000379c	00e89893	slli	x17,x17,0xe	 x17:0xffffc000 x17=0xf0000000
       29365000	      2935	800037a0	012534b3	sltu	x9,x10,x18	 x10:0x00040005 x18:0x00000000  x9=0x00000000
       29375000	      2936	800037a4	0491c063	blt	x3,x9,800037e4	  x3:0x00000000  x9:0x00000000
       29385000	      2937	800037a8	00a871b3	and	x3,x16,x10	 x16:0x80009fd5 x10:0x00040005  x3=0x00000005
       29395000	      2938	800037ac	00ccdc63	bge	x25,x12,800037c4	 x25:0x80009ef8 x12:0x00000000
       29405000	      2939	800037b0	016c28b3	slt	x17,x24,x22	 x24:0x00000000 x22:0x00000001 x17=0x00000001
       29415000	      2940	800037b4	05ed1863	bne	x26,x30,80003804	 x26:0x00000024 x30:0x80009a1d
       29425000	      2941	00000000	00000013	addi	x0,x0,0	  x0:0x00000000
       29435000	      2942	80003800	00000013	addi	x0,x0,0	  x0:0x00000000
       29445000	      2943	80003804	04219663	bne	x3,x2,80003850	  x3:0x00000005  x2:0xaa8dd69f
       29455000	      2944	00000000	00000013	addi	x0,x0,0	  x0:0x00000000
       29465000	      2945	8000384c	00000013	addi	x0,x0,0	  x0:0x00000000
       29475000	      2946	80003850	02716663	bltu	x2,x7,8000387c	  x2:0xaa8dd69f  x7:0x00000000
       29485000	      2947	80003854	0c133693	sltiu	x13,x6,193	  x6:0x00000000 x13=0x00000001
       29495000	      2948	80003858	014661b3	or	x3,x12,x20	 x12:0x00000000 x20:0x00000149  x3=0x00000149
       29505000	      2949	8000385c	000d19b3	sll	x19,x26,x0	 x26:0x00000024  x0:0x00000000 x19=0x00000024
       29515000	      2950	80003860	23f36d93	ori	x27,x6,575	  x6:0x00000000 x27=0x0000023f
       29525000	      2951	80003864	019d0fb3	add	x31,x26,x25	 x26:0x00000024 x25:0x80009ef8 x31=0x80009f1c
       29535000	      2952	80003868	41778c33	sub	x24,x15,x23	 x15:0x80009fc4 x23:0x00040097 x24=0x7ffc9f2d
       29545000	      2953	8000386c	905f2513	slti	x10,x30,-1787	 x30:0x80009a1d x10=0x00000001
       29555000	      2954	80003870	4097d033	sra	x0,x15,x9	 x15:0x80009fc4  x9:0x00000000
       29565000	      2955	80003874	85238217	auipc	x4,0x85238	  x4=0x0523b870
       29575000	      2956	80003878	031e0663	beq	x28,x17,800038a4	 x28:0xfffffeb7 x17:0x00000001
       29585000	      2957	8000387c	c7146813	ori	x16,x8,-911	  x8:0x7803e62c x16=0xfffffe7d
       29595000	      2958	80003880	401dd8b3	sra	x17,x27,x1	 x27:0x0000023f  x1:0x00000000 x17=0x0000023f
       29605000	      2959	80003884	40c9d813	srai	x16,x19,0xc	 x19:0x00000024 x16=0x00000000
       29615000	      2960	80003888	004b5833	srl	x16,x22,x4	 x22:0x00000001  x4:0x0523b870 x16=0x00000000
       29625000	      2961	8000388c	ee5eb497	auipc	x9,0xee5eb	  x9=0x6e5ee888
       29635000	      2962	80003890	00e9d493	srli	x9,x19,0xe	 x19:0x00000024  x9=0x00000000
       29645000	      2963	80003894	41715813	srai	x16,x2,0x17	  x2:0xaa8dd69f x16=0xffffff55
       29655000	      2964	80003898	022d0663	beq	x26,x2,800038c4	 x26:0x00000024  x2:0xaa8dd69f
       29665000	      2965	8000389c	c2a7e993	ori	x19,x15,-982	 x15:0x80009fc4 x19=0xffffffee
       29675000	      2966	800038a0	406209b3	sub	x19,x4,x6	  x4:0x0523b870  x6:0x00000000 x19=0x0523b870
       29685000	      2967	800038a4	00000013	addi	x0,x0,0	  x0:0x00000000
       29695000	      2968	800038a8	b95ff993	andi	x19,x31,-1131	 x31:0x80009f1c x19=0x80009b14
       29705000	      2969	800038ac	01e55013	srli	x0,x10,0x1e	 x10:0x00000001
       29715000	      2970	800038b0	01205413	srli	x8,x0,0x12	  x0:0x00000000  x8=0x00000000
       29725000	      2971	800038b4	00eb8a63	beq	x23,x14,800038c8	 x23:0x00040097 x14:0x00000000
       29735000	      2972	800038b8	01f714b3	sll	x9,x14,x31	 x14:0x00000000 x31:0x80009f1c  x9=0x00000000
       29745000	      2973	800038bc	b5e68193	addi	x3,x13,-1186	 x13:0x00000001  x3=0xfffffb5f
       29755000	      2974	800038c0	8465b193	sltiu	x3,x11,-1978	 x11:0x00000000  x3=0x00000001
       29765000	      2975	800038c4	a44deb97	auipc	x23,0xa44de	 x23=0x244e18c0
       29775000	      2976	800038c8	01aa31b3	sltu	x3,x20,x26	 x20:0x00000149 x26:0x00000024  x3=0x00000000
       29785000	      2977	800038cc	609f66b7	lui	x13,0x609f6	 x13=0x609f6000
       29795000	      2978	800038d0	01274833	xor	x16,x14,x18	 x14:0x00000000 x18:0x00000000 x16=0x00000000
       29805000	      2979	800038d4	018785b3	add	x11,x15,x24	 x15:0x80009fc4 x24:0x7ffc9f2d x11=0xfffd3ef1
       29815000	      2980	800038d8	001f4463	blt	x30,x1,800038e0	 x30:0x80009a1d  x1:0x00000000
       29825000	      2981	00000000	00000013	addi	x0,x0,0	  x0:0x00000000
       29835000	      2982	800038dc	00000013	addi	x0,x0,0	  x0:0x00000000
       29845000	      2983	800038e0	a7396993	ori	x19,x18,-1421	 x18:0x00000000 x19=0xfffffa73
       29855000	      2984	800038e4	03b26663	bltu	x4,x27,80003910	  x4:0x0523b870 x27:0x0000023f
       29865000	      2985	800038e8	801fbe93	sltiu	x29,x31,-2047	 x31:0x80009f1c x29=0x00000001
       29875000	      2986	800038ec	03f99e63	bne	x19,x31,80003928	 x19:0xfffffa73 x31:0x80009f1c
       29885000	      2987	00000000	00000013	addi	x0,x0,0	  x0:0x00000000
       29895000	      2988	80003924	00000013	addi	x0,x0,0	  x0:0x00000000
       29905000	      2989	80003928	98d2c713	xori	x14,x5,-1651	  x5:0x00000000 x14=0xfffff98d
       29915000	      2990	8000392c	7faffb93	andi	x23,x31,2042	 x31:0x80009f1c x23=0x00000718
       29925000	      2991	80003930	addadf17	auipc	x30,0xaddad	 x30=0x2ddb092c
       29935000	      2992	80003934	00421533	sll	x10,x4,x4	  x4:0x0523b870  x4:0x0523b870 x10=0xb8700000
       29945000	      2993	80003938	015a8463	beq	x21,x21,80003940	 x21:0xfffffed3 x21:0xfffffed3
       29955000	      2994	00000000	00000013	addi	x0,x0,0	  x0:0x00000000
       29965000	      2995	8000393c	00000013	addi	x0,x0,0	  x0:0x00000000
       29975000	      2996	80003940	69a17f93	andi	x31,x2,1690	  x2:0xaa8dd69f x31=0x0000069a
       29985000	      2997	80003944	0593c663	blt	x7,x25,80003990	  x7:0x00000000 x25:0x80009ef8
       29995000	      2998	80003948	01ff6fb3	or	x31,x30,x31	 x30:0x2ddb092c x31:0x0000069a x31=0x2ddb0fbe
       30005000	      2999	8000394c	00000013	addi	x0,x0,0	  x0:0x00000000
       30015000	      3000	80003950	05c6e713	ori	x14,x13,92	 x13:0x609f6000 x14=0x609f605c
       30025000	      3001	80003954	009865b3	or	x11,x16,x9	 x16:0x00000000  x9:0x00000000 x11=0x00000000
       30035000	      3002	80003958	41075bb3	sra	x23,x14,x16	 x14:0x609f605c x16:0x00000000 x23=0x609f605c
       30045000	      3003	8000395c	00eaf733	and	x14,x21,x14	 x21:0xfffffed3 x14:0x609f605c x14=0x609f6050
       30055000	      3004	80003960	40815913	srai	x18,x2,0x8	  x2:0xaa8dd69f x18=0xffaa8dd6
       30065000	      3005	80003964	0043cab3	xor	x21,x7,x4	  x7:0x00000000  x4:0x0523b870 x21=0x0523b870
       30075000	      3006	80003968	00717433	and	x8,x2,x7	  x2:0xaa8dd69f  x7:0x00000000  x8=0x00000000
       30085000	      3007	8000396c	010a78b3	and	x17,x20,x16	 x20:0x00000149 x16:0x00000000 x17=0x00000000
       30095000	      3008	80003970	407a5fb3	sra	x31,x20,x7	 x20:0x00000149  x7:0x00000000 x31=0x00000149
       30105000	      3009	80003974	04fd7663	bgeu	x26,x15,800039c0	 x26:0x00000024 x15:0x80009fc4
       30115000	      3010	80003978	00489663	bne	x17,x4,80003984	 x17:0x00000000  x4:0x0523b870
       30125000	      3011	00000000	00000013	addi	x0,x0,0	  x0:0x00000000
       30135000	      3012	80003980	00000013	addi	x0,x0,0	  x0:0x00000000
       30145000	      3013	80003984	416bdc33	sra	x24,x23,x22	 x23:0x609f605c x22:0x00000001 x24=0x304fb02e
       30155000	      3014	80003988	40efd613	srai	x12,x31,0xe	 x31:0x00000149 x12=0x00000000
       30165000	      3015	8000398c	01475893	srli	x17,x14,0x14	 x14:0x609f6050 x17=0x00000609
       30175000	      3016	80003990	9f03e693	ori	x13,x7,-1552	  x7:0x00000000 x13=0xfffff9f0
       30185000	      3017	80003994	01451fb3	sll	x31,x10,x20	 x10:0xb8700000 x20:0x00000149 x31=0xe0000000
       30195000	      3018	80003998	0170db33	srl	x22,x1,x23	  x1:0x00000000 x23:0x609f605c x22=0x00000000
       30205000	      3019	8000399c	017a5e33	srl	x28,x20,x23	 x20:0x00000149 x23:0x609f605c x28=0x00000000
       30215000	      3020	800039a0	234c7d93	andi	x27,x24,564	 x24:0x304fb02e x27=0x00000024
       30225000	      3021	800039a4	0283e863	bltu	x7,x8,800039d4	  x7:0x00000000  x8:0x00000000
       30235000	      3022	800039a8	00fb62b3	or	x5,x22,x15	 x22:0x00000000 x15:0x80009fc4  x5=0x80009fc4
       30245000	      3023	800039ac	28d46e13	ori	x28,x8,653	  x8:0x00000000 x28=0x0000028d
       30255000	      3024	800039b0	efaf0c13	addi	x24,x30,-262	 x30:0x2ddb092c x24=0x2ddb0826
       30265000	      3025	800039b4	72400b93	addi	x23,x0,1828	  x0:0x00000000 x23=0x00000724
       30275000	      3026	800039b8	00a05213	srli	x4,x0,0xa	  x0:0x00000000  x4=0x00000000
       30285000	      3027	800039bc	010f68b3	or	x17,x30,x16	 x30:0x2ddb092c x16:0x00000000 x17=0x2ddb092c
       30295000	      3028	800039c0	417309b3	sub	x19,x6,x23	  x6:0x00000000 x23:0x00000724 x19=0xfffff8dc
       30305000	      3029	800039c4	000230b3	sltu	x1,x4,x0	  x4:0x00000000  x0:0x00000000  x1=0x00000000
       30315000	      3030	800039c8	00a89b13	slli	x22,x17,0xa	 x17:0x2ddb092c x22=0x6c24b000
       30325000	      3031	800039cc	00484e63	blt	x16,x4,800039e8	 x16:0x00000000  x4:0x00000000
       30335000	      3032	800039d0	403f8933	sub	x18,x31,x3	 x31:0xe0000000  x3:0x00000000 x18=0xe0000000
       30345000	      3033	800039d4	00000013	addi	x0,x0,0	  x0:0x00000000
       30355000	      3034	800039d8	01911e33	sll	x28,x2,x25	  x2:0xaa8dd69f x25:0x80009ef8 x28=0x9f000000
       30365000	      3035	800039dc	082b4c13	xori	x24,x22,130	 x22:0x6c24b000 x24=0x6c24b082
       30375000	      3036	800039e0	001af863	bgeu	x21,x1,800039f0	 x21:0x0523b870  x1:0x00000000
       30385000	      3037	00000000	00000013	addi	x0,x0,0	  x0:0x00000000
       30395000	      3038	800039ec	00000013	addi	x0,x0,0	  x0:0x00000000
       30405000	      3039	800039f0	04b99463	bne	x19,x11,80003a38	 x19:0xfffff8dc x11:0x00000000
       30415000	      3040	00000000	00000013	addi	x0,x0,0	  x0:0x00000000
       30425000	      3041	80003a34	00000013	addi	x0,x0,0	  x0:0x00000000
       30435000	      3042	80003a38	013fda93	srli	x21,x31,0x13	 x31:0xe0000000 x21=0x00001c00
       30445000	      3043	80003a3c	7c93fd93	andi	x27,x7,1993	  x7:0x00000000 x27=0x00000000
       30455000	      3044	80003a40	00e4dab3	srl	x21,x9,x14	  x9:0x00000000 x14:0x609f6050 x21=0x00000000
       30465000	      3045	80003a44	01720d33	add	x26,x4,x23	  x4:0x00000000 x23:0x00000724 x26=0x00000724
       30475000	      3046	80003a48	224052b7	lui	x5,0x22405	  x5=0x22405000
       30485000	      3047	80003a4c	b339f913	andi	x18,x19,-1229	 x19:0xfffff8dc x18=0xfffff810
       30495000	      3048	80003a50	8a79ec13	ori	x24,x19,-1881	 x19:0xfffff8dc x24=0xfffff8ff
       30505000	      3049	80003a54	02828263	beq	x5,x8,80003a78	  x5:0x22405000  x8:0x00000000
       30515000	      3050	80003a58	00c63233	sltu	x4,x12,x12	 x12:0x00000000 x12:0x00000000  x4=0x00000000
       30525000	      3051	80003a5c	00a68333	add	x6,x13,x10	 x13:0xfffff9f0 x10:0xb8700000  x6=0xb86ff9f0
       30535000	      3052	80003a60	00000013	addi	x0,x0,0	  x0:0x00000000
       30545000	      3053	80003a64	00000013	addi	x0,x0,0	  x0:0x00000000
       30555000	      3054	80003a68	00da9213	slli	x4,x21,0xd	 x21:0x00000000  x4=0x00000000
       30565000	      3055	80003a6c	41f88c33	sub	x24,x17,x31	 x17:0x2ddb092c x31:0xe0000000 x24=0x4ddb092c
       30575000	      3056	80003a70	00755713	srli	x14,x10,0x7	 x10:0xb8700000 x14=0x0170e000
       30585000	      3057	80003a74	1f1e8d13	addi	x26,x29,497	 x29:0x00000001 x26=0x000001f2
       30595000	      3058	80003a78	8de32e93	slti	x29,x6,-1826	  x6:0xb86ff9f0 x29=0x00000001
       30605000	      3059	80003a7c	01778033	add	x0,x15,x23	 x15:0x80009fc4 x23:0x00000724
       30615000	      3060	80003a80	67604613	xori	x12,x0,1654	  x0:0x00000000 x12=0x00000676
       30625000	      3061	80003a84	00230bb3	add	x23,x6,x2	  x6:0xb86ff9f0  x2:0xaa8dd69f x23=0x62fdd08f
       30635000	      3062	80003a88	00a633b3	sltu	x7,x12,x10	 x12:0x00000676 x10:0xb8700000  x7=0x00000001
       30645000	      3063	80003a8c	01f83ab3	sltu	x21,x16,x31	 x16:0x00000000 x31:0xe0000000 x21=0x00000001
       30655000	      3064	80003a90	41f90ab3	sub	x21,x18,x31	 x18:0xfffff810 x31:0xe0000000 x21=0x1ffff810
       30665000	      3065	80003a94	012aac33	slt	x24,x21,x18	 x21:0x1ffff810 x18:0xfffff810 x24=0x00000000
       30675000	      3066	80003a98	005abf33	sltu	x30,x21,x5	 x21:0x1ffff810  x5:0x22405000 x30=0x00000001
       30685000	      3067	80003a9c	0349f663	bgeu	x19,x20,80003ac8	 x19:0xfffff8dc x20:0x00000149
       30695000	      3068	00000000	00000013	addi	x0,x0,0	  x0:0x00000000
       30705000	      3069	80003ac4	00000013	addi	x0,x0,0	  x0:0x00000000
       30715000	      3070	80003ac8	08602997	auipc	x19,0x8602	 x19=0x88605ac4
       30725000	      3071	80003acc	01e14a63	blt	x2,x30,80003ae0	  x2:0xaa8dd69f x30:0x00000001
       30735000	      3072	00000000	00000013	addi	x0,x0,0	  x0:0x00000000
       30745000	      3073	80003adc	00000013	addi	x0,x0,0	  x0:0x00000000
       30755000	      3074	80003ae0	038c1e63	bne	x24,x24,80003b1c	 x24:0x00000000 x24:0x00000000
       30765000	      3075	80003ae4	04079663	bne	x15,x0,80003b30	 x15:0x80009fc4  x0:0x00000000
       30775000	      3076	00000000	00000013	addi	x0,x0,0	  x0:0x00000000
       30785000	      3077	80003b2c	00000013	addi	x0,x0,0	  x0:0x00000000
       30795000	      3078	80003b30	41875593	srai	x11,x14,0x18	 x14:0x0170e000 x11=0x00000001
       30805000	      3079	80003b34	03497663	bgeu	x18,x20,80003b60	 x18:0xfffff810 x20:0x00000149
       30815000	      3080	00000000	00000013	addi	x0,x0,0	  x0:0x00000000
       30825000	      3081	80003b5c	00000013	addi	x0,x0,0	  x0:0x00000000
       30835000	      3082	80003b60	039b8663	beq	x23,x25,80003b8c	 x23:0x62fdd08f x25:0x80009ef8
       30845000	      3083	80003b64	414d84b3	sub	x9,x27,x20	 x27:0x00000000 x20:0x00000149  x9=0xfffffeb7
       30855000	      3084	80003b68	fa1eed93	ori	x27,x29,-95	 x29:0x00000001 x27=0xffffffa1
       30865000	      3085	80003b6c	01679bb3	sll	x23,x15,x22	 x15:0x80009fc4 x22:0x6c24b000 x23=0x80009fc4
       30875000	      3086	80003b70	01806463	bltu	x0,x24,80003b78	  x0:0x00000000 x24:0x00000000
       30885000	      3087	80003b74	0058ea63	bltu	x17,x5,80003b88	 x17:0x2ddb092c  x5:0x22405000
       30895000	      3088	80003b78	012cee33	or	x28,x25,x18	 x25:0x80009ef8 x18:0xfffff810 x28=0xfffffef8
       30905000	      3089	80003b7c	00040c63	beq	x8,x0,80003b94	  x8:0x00000000  x0:0x00000000
       30915000	      3090	00000000	00000013	addi	x0,x0,0	  x0:0x00000000
       30925000	      3091	80003b90	00000013	addi	x0,x0,0	  x0:0x00000000
       30935000	      3092	80003b94	9de2bf93	sltiu	x31,x5,-1570	  x5:0x22405000 x31=0x00000001
       30945000	      3093	80003b98	40c75393	srai	x7,x14,0xc	 x14:0x0170e000  x7=0x0000170e
       30955000	      3094	80003b9c	04c65863	bge	x12,x12,80003bec	 x12:0x00000676 x12:0x00000676
       30965000	      3095	00000000	00000013	addi	x0,x0,0	  x0:0x00000000
       30975000	      3096	80003be8	00000013	addi	x0,x0,0	  x0:0x00000000
       30985000	      3097	80003bec	413b5d93	srai	x27,x22,0x13	 x22:0x6c24b000 x27=0x00000d84
       30995000	      3098	80003bf0	013c1463	bne	x24,x19,80003bf8	 x24:0x00000000 x19:0x88605ac4
       31005000	      3099	00000000	00000013	addi	x0,x0,0	  x0:0x00000000
       31015000	      3100	80003bf4	00000013	addi	x0,x0,0	  x0:0x00000000
       31025000	      3101	80003bf8	01565333	srl	x6,x12,x21	 x12:0x00000676 x21:0x1ffff810  x6=0x00000000
       31035000	      3102	80003bfc	01964733	xor	x14,x12,x25	 x12:0x00000676 x25:0x80009ef8 x14=0x8000988e
       31045000	      3103	80003c00	714fe593	ori	x11,x31,1812	 x31:0x00000001 x11=0x00000715
       31055000	      3104	80003c04	00000013	addi	x0,x0,0	  x0:0x00000000
       31065000	      3105	80003c08	01449463	bne	x9,x20,80003c10	  x9:0xfffffeb7 x20:0x00000149
       31075000	      3106	00000000	00000013	addi	x0,x0,0	  x0:0x00000000
       31085000	      3107	80003c0c	00000013	addi	x0,x0,0	  x0:0x00000000
       31095000	      3108	80003c10	00df1a33	sll	x20,x30,x13	 x30:0x00000001 x13:0xfffff9f0 x20=0x00010000
       31105000	      3109	80003c14	00b06a63	bltu	x0,x11,80003c28	  x0:0x00000000 x11:0x00000715
       31115000	      3110	00000000	00000013	addi	x0,x0,0	  x0:0x00000000
       31125000	      3111	80003c24	00000013	addi	x0,x0,0	  x0:0x00000000
       31135000	      3112	80003c28	00664663	blt	x12,x6,80003c34	 x12:0x00000676  x6:0x00000000
       31145000	      3113	80003c2c	04845863	bge	x8,x8,80003c7c	  x8:0x00000000  x8:0x00000000
       31155000	      3114	00000000	00000013	addi	x0,x0,0	  x0:0x00000000
       31165000	      3115	80003c78	00000013	addi	x0,x0,0	  x0:0x00000000
       31175000	      3116	80003c7c	00401637	lui	x12,0x401	 x12=0x00401000
       31185000	      3117	80003c80	0b35bb13	sltiu	x22,x11,179	 x11:0x00000715 x22=0x00000000
       31195000	      3118	80003c84	000469b3	or	x19,x8,x0	  x8:0x00000000  x0:0x00000000 x19=0x00000000
       31205000	      3119	80003c88	046c8063	beq	x25,x6,80003cc8	 x25:0x80009ef8  x6:0x00000000
       31215000	      3120	80003c8c	009398b3	sll	x17,x7,x9	  x7:0x0000170e  x9:0xfffffeb7 x17=0x87000000
       31225000	      3121	80003c90	00128a63	beq	x5,x1,80003ca4	  x5:0x22405000  x1:0x00000000
       31235000	      3122	80003c94	011e11b3	sll	x3,x28,x17	 x28:0xfffffef8 x17:0x87000000  x3=0xfffffef8
       31245000	      3123	80003c98	0198d913	srli	x18,x17,0x19	 x17:0x87000000 x18=0x00000043
       31255000	      3124	80003c9c	b347b593	sltiu	x11,x15,-1228	 x15:0x80009fc4 x11=0x00000001
       31265000	      3125	80003ca0	011d5f93	srli	x31,x26,0x11	 x26:0x000001f2 x31=0x00000000
       31275000	      3126	80003ca4	0011dc63	bge	x3,x1,80003cbc	  x3:0xfffffef8  x1:0x00000000
       31285000	      3127	80003ca8	019715b3	sll	x11,x14,x25	 x14:0x8000988e x25:0x80009ef8 x11=0x8e000000
       31295000	      3128	80003cac	01935c33	srl	x24,x6,x25	  x6:0x00000000 x25:0x80009ef8 x24=0x00000000
       31305000	      3129	80003cb0	412cdc13	srai	x24,x25,0x12	 x25:0x80009ef8 x24=0xffffe000
       31315000	      3130	80003cb4	01e291b3	sll	x3,x5,x30	  x5:0x22405000 x30:0x00000001  x3=0x4480a000
       31325000	      3131	80003cb8	009e32b3	sltu	x5,x28,x9	 x28:0xfffffef8  x9:0xfffffeb7  x5=0x00000000
       31335000	      3132	80003cbc	d53601b7	lui	x3,0xd5360	  x3=0xd5360000
       31345000	      3133	80003cc0	0152a633	slt	x12,x5,x21	  x5:0x00000000 x21:0x1ffff810 x12=0x00000001
       31355000	      3134	80003cc4	73718613	addi	x12,x3,1847	  x3:0xd5360000 x12=0xd5360737
       31365000	      3135	80003cc8	763e2513	slti	x10,x28,1891	 x28:0xfffffef8 x10=0x00000001
       31375000	      3136	80003ccc	002b1e93	slli	x29,x22,0x2	 x22:0x00000000 x29=0x00000000
       31385000	      3137	80003cd0	01917233	and	x4,x2,x25	  x2:0xaa8dd69f x25:0x80009ef8  x4=0x80009698
       31395000	      3138	80003cd4	01598b33	add	x22,x19,x21	 x19:0x00000000 x21:0x1ffff810 x22=0x1ffff810
       31405000	      3139	80003cd8	d00fb613	sltiu	x12,x31,-768	 x31:0x00000000 x12=0x00000001
       31415000	      3140	80003cdc	0f07c413	xori	x8,x15,240	 x15:0x80009fc4  x8=0x80009f34
       31425000	      3141	80003ce0	66c76997	auipc	x19,0x66c76	 x19=0xe6c79cdc
       31435000	      3142	80003ce4	1ae693b7	lui	x7,0x1ae69	  x7=0x1ae69000
       31445000	      3143	80003ce8	00d6e463	bltu	x13,x13,80003cf0	 x13:0xfffff9f0 x13:0xfffff9f0
       31455000	      3144	80003cec	3e160a97	auipc	x21,0x3e160	 x21=0xbe163ce8
       31465000	      3145	80003cf0	02b08663	beq	x1,x11,80003d1c	  x1:0x00000000 x11:0x8e000000
       31475000	      3146	80003cf4	0061aeb3	slt	x29,x3,x6	  x3:0xd5360000  x6:0x00000000 x29=0x00000001
       31485000	      3147	80003cf8	00000013	addi	x0,x0,0	  x0:0x00000000
       31495000	      3148	80003cfc	00ce78b3	and	x17,x28,x12	 x28:0xfffffef8 x12:0x00000001 x17=0x00000000
       31505000	      3149	80003d00	01490833	add	x16,x18,x20	 x18:0x00000043 x20:0x00010000 x16=0x00010043
       31515000	      3150	80003d04	9eaafd93	andi	x27,x21,-1558	 x21:0xbe163ce8 x27=0xbe1638e8
       31525000	      3151	80003d08	00368c63	beq	x13,x3,80003d20	 x13:0xfffff9f0  x3:0xd5360000
       31535000	      3152	80003d0c	01f22eb3	slt	x29,x4,x31	  x4:0x80009698 x31:0x00000000 x29=0x00000001
       31545000	      3153	80003d10	34568ab7	lui	x21,0x34568	 x21=0x34568000
       31555000	      3154	80003d14	30892f13	slti	x30,x18,776	 x18:0x00000043 x30=0x00000001
       31565000	      3155	80003d18	008704b3	add	x9,x14,x8	 x14:0x8000988e  x8:0x80009f34  x9=0x000137c2
       31575000	      3156	80003d1c	009af863	bgeu	x21,x9,80003d2c	 x21:0x34568000  x9:0x000137c2
       31585000	      3157	00000000	00000013	addi	x0,x0,0	  x0:0x00000000
       31595000	      3158	80003d28	00000013	addi	x0,x0,0	  x0:0x00000000
       31605000	      3159	80003d2c	00000013	addi	x0,x0,0	  x0:0x00000000
       31615000	      3160	80003d30	012e5433	srl	x8,x28,x18	 x28:0xfffffef8 x18:0x00000043  x8=0x1fffffdf
       31625000	      3161	80003d34	022d1863	bne	x26,x2,80003d64	 x26:0x000001f2  x2:0xaa8dd69f
       31635000	      3162	00000000	00000013	addi	x0,x0,0	  x0:0x00000000
       31645000	      3163	80003d60	00000013	addi	x0,x0,0	  x0:0x00000000
       31655000	      3164	80003d64	5c9c8893	addi	x17,x25,1481	 x25:0x80009ef8 x17=0x8000a4c1
       31665000	      3165	80003d68	012172b3	and	x5,x2,x18	  x2:0xaa8dd69f x18:0x00000043  x5=0x00000003
       31675000	      3166	80003d6c	008671b3	and	x3,x12,x8	 x12:0x00000001  x8:0x1fffffdf  x3=0x00000001
       31685000	      3167	80003d70	03059c63	bne	x11,x16,80003da8	 x11:0x8e000000 x16:0x00010043
       31695000	      3168	00000000	00000013	addi	x0,x0,0	  x0:0x00000000
       31705000	      3169	80003da4	00000013	addi	x0,x0,0	  x0:0x00000000
       31715000	      3170	80003da8	0142d213	srli	x4,x5,0x14	  x5:0x00000003  x4=0x00000000
       31725000	      3171	80003dac	03a4ee63	bltu	x9,x26,80003de8	  x9:0x000137c2 x26:0x000001f2
       31735000	      3172	80003db0	41fe8db3	sub	x27,x29,x31	 x29:0x00000001 x31:0x00000000 x27=0x00000001
       31745000	      3173	80003db4	01dc7bb3	and	x23,x24,x29	 x24:0xffffe000 x29:0x00000001 x23=0x00000000
       31755000	      3174	80003db8	04407063	bgeu	x0,x4,80003df8	  x0:0x00000000  x4:0x00000000
       31765000	      3175	00000000	00000013	addi	x0,x0,0	  x0:0x00000000
       31775000	      3176	80003df4	00000013	addi	x0,x0,0	  x0:0x00000000
       31785000	      3177	80003df8	00000013	addi	x0,x0,0	  x0:0x00000000
       31795000	      3178	80003dfc	0165bdb3	sltu	x27,x11,x22	 x11:0x8e000000 x22:0x1ffff810 x27=0x00000000
       31805000	      3179	80003e00	0131f6b3	and	x13,x3,x19	  x3:0x00000001 x19:0xe6c79cdc x13=0x00000000
       31815000	      3180	80003e04	41295713	srai	x14,x18,0x12	 x18:0x00000043 x14=0x00000000
       31825000	      3181	80003e08	00945633	srl	x12,x8,x9	  x8:0x1fffffdf  x9:0x000137c2 x12=0x07fffff7
       31835000	      3182	80003e0c	00d16b33	or	x22,x2,x13	  x2:0xaa8dd69f x13:0x00000000 x22=0xaa8dd69f
       31845000	      3183	80003e10	41f8ddb3	sra	x27,x17,x31	 x17:0x8000a4c1 x31:0x00000000 x27=0x8000a4c1
       31855000	      3184	80003e14	02459663	bne	x11,x4,80003e40	 x11:0x8e000000  x4:0x00000000
       31865000	      3185	00000000	00000013	addi	x0,x0,0	  x0:0x00000000
       31875000	      3186	80003e3c	00000013	addi	x0,x0,0	  x0:0x00000000
       31885000	      3187	80003e40	01d40ab3	add	x21,x8,x29	  x8:0x1fffffdf x29:0x00000001 x21=0x1fffffe0
       31895000	      3188	80003e44	c0b5c4b7	lui	x9,0xc0b5c	  x9=0xc0b5c000
       31905000	      3189	80003e48	41715e93	srai	x29,x2,0x17	  x2:0xaa8dd69f x29=0xffffff55
       31915000	      3190	80003e4c	00d86733	or	x14,x16,x13	 x16:0x00010043 x13:0x00000000 x14=0x00010043
       31925000	      3191	80003e50	fb21ea93	ori	x21,x3,-78	  x3:0x00000001 x21=0xffffffb3
       31935000	      3192	80003e54	011bdf93	srli	x31,x23,0x11	 x23:0x00000000 x31=0x00000000
       31945000	      3193	80003e58	00ec5463	bge	x24,x14,80003e60	 x24:0xffffe000 x14:0x00010043
       31955000	      3194	80003e5c	04d20663	beq	x4,x13,80003ea8	  x4:0x00000000 x13:0x00000000
       31965000	      3195	00000000	00000013	addi	x0,x0,0	  x0:0x00000000
       31975000	      3196	80003ea4	00000013	addi	x0,x0,0	  x0:0x00000000
       31985000	      3197	80003ea8	00000013	addi	x0,x0,0	  x0:0x00000000
       31995000	      3198	80003eac	4f2f4393	xori	x7,x30,1266	 x30:0x00000001  x7=0x000004f3
       32005000	      3199	80003eb0	009f42b3	xor	x5,x30,x9	 x30:0x00000001  x9:0xc0b5c000  x5=0xc0b5c001
       32015000	      3200	80003eb4	02ed4c63	blt	x26,x14,80003eec	 x26:0x000001f2 x14:0x00010043
       32025000	      3201	00000000	00000013	addi	x0,x0,0	  x0:0x00000000
       32035000	      3202	80003ee8	00000013	addi	x0,x0,0	  x0:0x00000000
       32045000	      3203	80003eec	4192d333	sra	x6,x5,x25	  x5:0xc0b5c001 x25:0x80009ef8  x6=0xffffffc0
       32055000	      3204	80003ef0	fa718913	addi	x18,x3,-89	  x3:0x00000001 x18=0xffffffa8
       32065000	      3205	80003ef4	00159593	slli	x11,x11,0x1	 x11:0x8e000000 x11=0x1c000000
       32075000	      3206	80003ef8	05e67663	bgeu	x12,x30,80003f44	 x12:0x07fffff7 x30:0x00000001
       32085000	      3207	00000000	00000013	addi	x0,x0,0	  x0:0x00000000
       32095000	      3208	80003f40	00000013	addi	x0,x0,0	  x0:0x00000000
       32105000	      3209	80003f44	36eba617	auipc	x12,0x36eba	 x12=0xb6ebdf40
       32115000	      3210	80003f48	81a92b17	auipc	x22,0x81a92	 x22=0x01a95f44
       32125000	      3211	80003f4c	002350b3	srl	x1,x6,x2	  x6:0xffffffc0  x2:0xaa8dd69f  x1=0x00000001
       32135000	      3212	80003f50	001448b3	xor	x17,x8,x1	  x8:0x1fffffdf  x1:0x00000001 x17=0x1fffffde
       32145000	      3213	80003f54	9782f593	andi	x11,x5,-1672	  x5:0xc0b5c001 x11=0xc0b5c000
       32155000	      3214	80003f58	014ff1b3	and	x3,x31,x20	 x31:0x00000000 x20:0x00010000  x3=0x00000000
       32165000	      3215	80003f5c	87f5bb93	sltiu	x23,x11,-1921	 x11:0xc0b5c000 x23=0x00000001
       32175000	      3216	80003f60	0409f063	bgeu	x19,x0,80003fa0	 x19:0xe6c79cdc  x0:0x00000000
       32185000	      3217	00000000	00000013	addi	x0,x0,0	  x0:0x00000000
       32195000	      3218	80003f9c	00000013	addi	x0,x0,0	  x0:0x00000000
       32205000	      3219	80003fa0	57138d93	addi	x27,x7,1393	  x7:0x000004f3 x27=0x00000a64
       32215000	      3220	80003fa4	0169a5b3	slt	x11,x19,x22	 x19:0xe6c79cdc x22:0x01a95f44 x11=0x00000001
       32225000	      3221	80003fa8	408b5c13	srai	x24,x22,0x8	 x22:0x01a95f44 x24=0x0001a95f
       32235000	      3222	80003fac	01215f13	srli	x30,x2,0x12	  x2:0xaa8dd69f x30=0x00002aa3
       32245000	      3223	80003fb0	01193db3	sltu	x27,x18,x17	 x18:0xffffffa8 x17:0x1fffffde x27=0x00000000
       32255000	      3224	80003fb4	0056d433	srl	x8,x13,x5	 x13:0x00000000  x5:0xc0b5c001  x8=0x00000000
       32265000	      3225	80003fb8	9a8d1517	auipc	x10,0x9a8d1	 x10=0x1a8d4fb4
       32275000	      3226	80003fbc	0f327663	bgeu	x4,x19,800040a8	  x4:0x00000000 x19:0xe6c79cdc
       32285000	      3227	80003fc0	418b0033	sub	x0,x22,x24	 x22:0x01a95f44 x24:0x0001a95f
       32295000	      3228	80003fc4	01a40233	add	x4,x8,x26	  x8:0x00000000 x26:0x000001f2  x4=0x000001f2
       32305000	      3229	80003fc8	699d0713	addi	x14,x26,1689	 x26:0x000001f2 x14=0x0000088b
       32315000	      3230	80003fcc	0c26cc63	blt	x13,x2,800040a4	 x13:0x00000000  x2:0xaa8dd69f
       32325000	      3231	80003fd0	015e1533	sll	x10,x28,x21	 x28:0xfffffef8 x21:0xffffffb3 x10=0xf7c00000
       32335000	      3232	80003fd4	e4f77893	andi	x17,x14,-433	 x14:0x0000088b x17=0x0000080b
       32345000	      3233	80003fd8	0db75c63	bge	x14,x27,800040b0	 x14:0x0000088b x27:0x00000000
       32355000	      3234	00000000	00000013	addi	x0,x0,0	  x0:0x00000000
       32365000	      3235	800040ac	00000013	addi	x0,x0,0	  x0:0x00000000
       32375000	      3236	800040b0	41765f13	srai	x30,x12,0x17	 x12:0xb6ebdf40 x30=0xffffff6d
       32385000	      3237	800040b4	00a7cb33	xor	x22,x15,x10	 x15:0x80009fc4 x10:0xf7c00000 x22=0x77c09fc4
       32395000	      3238	800040b8	0c3f0a93	addi	x21,x30,195	 x30:0xffffff6d x21=0x00000030
       32405000	      3239	800040bc	414f5f93	srai	x31,x30,0x14	 x30:0xffffff6d x31=0xffffffff
       32415000	      3240	800040c0	00631e63	bne	x6,x6,800040dc	  x6:0xffffffc0  x6:0xffffffc0
       32425000	      3241	800040c4	4d602313	slti	x6,x0,1238	  x0:0x00000000  x6=0x00000001
       32435000	      3242	800040c8	00466533	or	x10,x12,x4	 x12:0xb6ebdf40  x4:0x000001f2 x10=0xb6ebdff2
       32445000	      3243	800040cc	00db7663	bgeu	x22,x13,800040d8	 x22:0x77c09fc4 x13:0x00000000
       32455000	      3244	00000000	00000013	addi	x0,x0,0	  x0:0x00000000
       32465000	      3245	800040d4	00000013	addi	x0,x0,0	  x0:0x00000000
       32475000	      3246	800040d8	01009213	slli	x4,x1,0x10	  x1:0x00000001  x4=0x00010000
       32485000	      3247	800040dc	002ae633	or	x12,x21,x2	 x21:0x00000030  x2:0xaa8dd69f x12=0xaa8dd6bf
       32495000	      3248	800040e0	e264b913	sltiu	x18,x9,-474	  x9:0xc0b5c000 x18=0x00000001
       32505000	      3249	800040e4	2bbc6e93	ori	x29,x24,699	 x24:0x0001a95f x29=0x0001abff
       32515000	      3250	800040e8	406e8333	sub	x6,x29,x6	 x29:0x0001abff  x6:0x00000001  x6=0x0001abfe
       32525000	      3251	800040ec	00ab6833	or	x16,x22,x10	 x22:0x77c09fc4 x10:0xb6ebdff2 x16=0xf7ebdff6
       32535000	      3252	800040f0	26d4e393	ori	x7,x9,621	  x9:0xc0b5c000  x7=0xc0b5c26d
       32545000	      3253	800040f4	013d9463	bne	x27,x19,800040fc	 x27:0x00000000 x19:0xe6c79cdc
       32555000	      3254	00000000	00000013	addi	x0,x0,0	  x0:0x00000000
       32565000	      3255	800040f8	00000013	addi	x0,x0,0	  x0:0x00000000
       32575000	      3256	800040fc	c3b74893	xori	x17,x14,-965	 x14:0x0000088b x17=0xfffff4b0
       32585000	      3257	80004100	03a46663	bltu	x8,x26,8000412c	  x8:0x00000000 x26:0x000001f2
       32595000	      3258	00000000	00000013	addi	x0,x0,0	  x0:0x00000000
       32605000	      3259	80004128	00000013	addi	x0,x0,0	  x0:0x00000000
       32615000	      3260	8000412c	01ef6533	or	x10,x30,x30	 x30:0xffffff6d x30:0xffffff6d x10=0xffffff6d
       32625000	      3261	80004130	00f61593	slli	x11,x12,0xf	 x12:0xaa8dd6bf x11=0xeb5f8000
       32635000	      3262	80004134	00492633	slt	x12,x18,x4	 x18:0x00000001  x4:0x00010000 x12=0x00000001
       32645000	      3263	80004138	b403b413	sltiu	x8,x7,-1216	  x7:0xc0b5c26d  x8=0x00000001
       32655000	      3264	8000413c	057df463	bgeu	x27,x23,80004184	 x27:0x00000000 x23:0x00000001
       32665000	      3265	80004140	04cdc863	blt	x27,x12,80004190	 x27:0x00000000 x12:0x00000001
       32675000	      3266	00000000	00000013	addi	x0,x0,0	  x0:0x00000000
       32685000	      3267	8000418c	00000013	addi	x0,x0,0	  x0:0x00000000
       32695000	      3268	80004190	0bfd2b13	slti	x22,x26,191	 x26:0x000001f2 x22=0x00000000
       32705000	      3269	80004194	41068833	sub	x16,x13,x16	 x13:0x00000000 x16:0xf7ebdff6 x16=0x0814200a
       32715000	      3270	80004198	01691a63	bne	x18,x22,800041ac	 x18:0x00000001 x22:0x00000000
       32725000	      3271	00000000	00000013	addi	x0,x0,0	  x0:0x00000000
       32735000	      3272	800041a8	00000013	addi	x0,x0,0	  x0:0x00000000
       32745000	      3273	800041ac	00e46433	or	x8,x8,x14	  x8:0x00000001 x14:0x0000088b  x8=0x0000088b
       32755000	      3274	800041b0	40ecd093	srai	x1,x25,0xe	 x25:0x80009ef8  x1=0xfffe0002
       32765000	      3275	800041b4	01954ab3	xor	x21,x10,x25	 x10:0xffffff6d x25:0x80009ef8 x21=0x7fff6195
       32775000	      3276	800041b8	03b50663	beq	x10,x27,800041e4	 x10:0xffffff6d x27:0x00000000
       32785000	      3277	800041bc	01260663	beq	x12,x18,800041c8	 x12:0x00000001 x18:0x00000001
       32795000	      3278	00000000	00000013	addi	x0,x0,0	  x0:0x00000000
       32805000	      3279	800041c4	00000013	addi	x0,x0,0	  x0:0x00000000
       32815000	      3280	800041c8	02097663	bgeu	x18,x0,800041f4	 x18:0x00000001  x0:0x00000000
       32825000	      3281	00000000	00000013	addi	x0,x0,0	  x0:0x00000000
       32835000	      3282	800041f0	00000013	addi	x0,x0,0	  x0:0x00000000
       32845000	      3283	800041f4	01b5e433	or	x8,x11,x27	 x11:0xeb5f8000 x27:0x00000000  x8=0xeb5f8000
       32855000	      3284	800041f8	01ac9a13	slli	x20,x25,0x1a	 x25:0x80009ef8 x20=0xe0000000
       32865000	      3285	800041fc	05d87063	bgeu	x16,x29,8000423c	 x16:0x0814200a x29:0x0001abff
       32875000	      3286	00000000	00000013	addi	x0,x0,0	  x0:0x00000000
       32885000	      3287	80004238	00000013	addi	x0,x0,0	  x0:0x00000000
       32895000	      3288	8000423c	f02a3d93	sltiu	x27,x20,-254	 x20:0xe0000000 x27=0x00000001
       32905000	      3289	80004240	01821013	slli	x0,x4,0x18	  x4:0x00010000
       32915000	      3290	80004244	00759f33	sll	x30,x11,x7	 x11:0xeb5f8000  x7:0xc0b5c26d x30=0xf0000000
       32925000	      3291	80004248	41f25593	srai	x11,x4,0x1f	  x4:0x00010000 x11=0x00000000
       32935000	      3292	8000424c	6e973db7	lui	x27,0x6e973	 x27=0x6e973000
       32945000	      3293	80004250	00000013	addi	x0,x0,0	  x0:0x00000000
       32955000	      3294	80004254	01dc36b3	sltu	x13,x24,x29	 x24:0x0001a95f x29:0x0001abff x13=0x00000001
       32965000	      3295	80004258	00511d93	slli	x27,x2,0x5	  x2:0xaa8dd69f x27=0x51bad3e0
       32975000	      3296	8000425c	e3fd5937	lui	x18,0xe3fd5	 x18=0xe3fd5000
       32985000	      3297	80004260	00defeb3	and	x29,x29,x13	 x29:0x0001abff x13:0x00000001 x29=0x00000001
       32995000	      3298	80004264	30cf2e93	slti	x29,x30,780	 x30:0xf0000000 x29=0x00000001
       33005000	      3299	80004268	a32606b7	lui	x13,0xa3260	 x13=0xa3260000
       33015000	      3300	8000426c	00ca5693	srli	x13,x20,0xc	 x20:0xe0000000 x13=0x000e0000
       33025000	      3301	80004270	417bdf13	srai	x30,x23,0x17	 x23:0x00000001 x30=0x00000000
       33035000	      3302	80004274	9846f193	andi	x3,x13,-1660	 x13:0x000e0000  x3=0x000e0000
       33045000	      3303	80004278	41e38eb3	sub	x29,x7,x30	  x7:0xc0b5c26d x30:0x00000000 x29=0xc0b5c26d
       33055000	      3304	8000427c	00cf40b3	xor	x1,x30,x12	 x30:0x00000000 x12:0x00000001  x1=0x00000001
       33065000	      3305	80004280	01d90833	add	x16,x18,x29	 x18:0xe3fd5000 x29:0xc0b5c26d x16=0xa4b3126d
       33075000	      3306	80004284	41f2d413	srai	x8,x5,0x1f	  x5:0xc0b5c001  x8=0xffffffff
       33085000	      3307	80004288	00ad2333	slt	x6,x26,x10	 x26:0x000001f2 x10:0xffffff6d  x6=0x00000000
       33095000	      3308	8000428c	01e326b3	slt	x13,x6,x30	  x6:0x00000000 x30:0x00000000 x13=0x00000000
       33105000	      3309	80004290	005a0463	beq	x20,x5,80004298	 x20:0xe0000000  x5:0xc0b5c001
       33115000	      3310	80004294	66f0fd93	andi	x27,x1,1647	  x1:0x00000001 x27=0x00000001
       33125000	      3311	80004298	00ec7c63	bgeu	x24,x14,800042b0	 x24:0x0001a95f x14:0x0000088b
       33135000	      3312	00000000	00000013	addi	x0,x0,0	  x0:0x00000000
       33145000	      3313	800042ac	00000013	addi	x0,x0,0	  x0:0x00000000
       33155000	      3314	800042b0	8ec10c13	addi	x24,x2,-1812	  x2:0xaa8dd69f x24=0xaa8dcf8b
       33165000	      3315	800042b4	01a88ab3	add	x21,x17,x26	 x17:0xfffff4b0 x26:0x000001f2 x21=0xfffff6a2
       33175000	      3316	800042b8	03b11663	bne	x2,x27,800042e4	  x2:0xaa8dd69f x27:0x00000001
       33185000	      3317	00000000	00000013	addi	x0,x0,0	  x0:0x00000000
       33195000	      3318	800042e0	00000013	addi	x0,x0,0	  x0:0x00000000
       33205000	      3319	800042e4	0e60bd93	sltiu	x27,x1,230	  x1:0x00000001 x27=0x00000001
       33215000	      3320	800042e8	9c64bb13	sltiu	x22,x9,-1594	  x9:0xc0b5c000 x22=0x00000001
       33225000	      3321	800042ec	d6a67e93	andi	x29,x12,-662	 x12:0x00000001 x29=0x00000000
       33235000	      3322	800042f0	01f19613	slli	x12,x3,0x1f	  x3:0x000e0000 x12=0x00000000
       33245000	      3323	800042f4	00621333	sll	x6,x4,x6	  x4:0x00010000  x6:0x00000000  x6=0x00010000
       33255000	      3324	800042f8	41ee8933	sub	x18,x29,x30	 x29:0x00000000 x30:0x00000000 x18=0x00000000
       33265000	      3325	800042fc	05ddc863	blt	x27,x29,8000434c	 x27:0x00000001 x29:0x00000000
       33275000	      3326	80004300	de1e8c17	auipc	x24,0xde1e8	 x24=0x5e1ec2fc
       33285000	      3327	80004304	019e8a63	beq	x29,x25,80004318	 x29:0x00000000 x25:0x80009ef8
       33295000	      3328	80004308	41f28a33	sub	x20,x5,x31	  x5:0xc0b5c001 x31:0xffffffff x20=0xc0b5c002
       33305000	      3329	8000430c	03f5e663	bltu	x11,x31,80004338	 x11:0x00000000 x31:0xffffffff
       33315000	      3330	00000000	00000013	addi	x0,x0,0	  x0:0x00000000
       33325000	      3331	80004334	00000013	addi	x0,x0,0	  x0:0x00000000
       33335000	      3332	80004338	04326463	bltu	x4,x3,80004380	  x4:0x00010000  x3:0x000e0000
       33345000	      3333	00000000	00000013	addi	x0,x0,0	  x0:0x00000000
       33355000	      3334	8000437c	00000013	addi	x0,x0,0	  x0:0x00000000
       33365000	      3335	80004380	007aef33	or	x30,x21,x7	 x21:0xfffff6a2  x7:0xc0b5c26d x30=0xfffff6ef
       33375000	      3336	80004384	01b6feb3	and	x29,x13,x27	 x13:0x00000000 x27:0x00000001 x29=0x00000000
       33385000	      3337	80004388	007ecc33	xor	x24,x29,x7	 x29:0x00000000  x7:0xc0b5c26d x24=0xc0b5c26d
       33395000	      3338	8000438c	28226493	ori	x9,x4,642	  x4:0x00010000  x9=0x00010282
       33405000	      3339	80004390	00972033	slt	x0,x14,x9	 x14:0x0000088b  x9:0x00010282
       33415000	      3340	80004394	76abc713	xori	x14,x23,1898	 x23:0x00000001 x14=0x0000076b
       33425000	      3341	80004398	00bcdc13	srli	x24,x25,0xb	 x25:0x80009ef8 x24=0x00100013
       33435000	      3342	8000439c	03674663	blt	x14,x22,800043c8	 x14:0x0000076b x22:0x00000001
       33445000	      3343	800043a0	028dde63	bge	x27,x8,800043dc	 x27:0x00000001  x8:0xffffffff
       33455000	      3344	00000000	00000013	addi	x0,x0,0	  x0:0x00000000
       33465000	      3345	800043d8	00000013	addi	x0,x0,0	  x0:0x00000000
       33475000	      3346	800043dc	0b794413	xori	x8,x18,183	 x18:0x00000000  x8=0x000000b7
       33485000	      3347	800043e0	01b39f33	sll	x30,x7,x27	  x7:0xc0b5c26d x27:0x00000001 x30=0x816b84da
       33495000	      3348	800043e4	031bf463	bgeu	x23,x17,8000440c	 x23:0x00000001 x17:0xfffff4b0
       33505000	      3349	800043e8	00342db3	slt	x27,x8,x3	  x8:0x000000b7  x3:0x000e0000 x27=0x00000001
       33515000	      3350	800043ec	01cade13	srli	x28,x21,0x1c	 x21:0xfffff6a2 x28=0x0000000f
       33525000	      3351	800043f0	ebaea513	slti	x10,x29,-326	 x29:0x00000000 x10=0x00000000
       33535000	      3352	800043f4	6d073093	sltiu	x1,x14,1744	 x14:0x0000076b  x1=0x00000000
       33545000	      3353	800043f8	018baeb3	slt	x29,x23,x24	 x23:0x00000001 x24:0x00100013 x29=0x00000001
       33555000	      3354	800043fc	416009b3	sub	x19,x0,x22	  x0:0x00000000 x22:0x00000001 x19=0xffffffff
       33565000	      3355	80004400	01fa1eb3	sll	x29,x20,x31	 x20:0xc0b5c002 x31:0xffffffff x29=0x00000000
       33575000	      3356	80004404	ad989297	auipc	x5,0xad989	  x5=0x2d98d400
       33585000	      3357	80004408	0124e9b3	or	x19,x9,x18	  x9:0x00010282 x18:0x00000000 x19=0x00010282
       33595000	      3358	8000440c	81de3313	sltiu	x6,x28,-2019	 x28:0x0000000f  x6=0x00000001
       33605000	      3359	80004410	00eb7c63	bgeu	x22,x14,80004428	 x22:0x00000001 x14:0x0000076b
       33615000	      3360	80004414	04648863	beq	x9,x6,80004464	  x9:0x00010282  x6:0x00000001
       33625000	      3361	80004418	41e3d813	srai	x16,x7,0x1e	  x7:0xc0b5c26d x16=0xffffffff
       33635000	      3362	8000441c	0196ea33	or	x20,x13,x25	 x13:0x00000000 x25:0x80009ef8 x20=0x80009ef8
       33645000	      3363	80004420	5e4ade97	auipc	x29,0x5e4ad	 x29=0xde4b141c
       33655000	      3364	80004424	413c03b3	sub	x7,x24,x19	 x24:0x00100013 x19:0x00010282  x7=0x000efd91
       33665000	      3365	80004428	7a044717	auipc	x14,0x7a044	 x14=0xfa048424
       33675000	      3366	8000442c	31a10c13	addi	x24,x2,794	  x2:0xaa8dd69f x24=0xaa8dd9b9
       33685000	      3367	80004430	00811033	sll	x0,x2,x8	  x2:0xaa8dd69f  x8:0x000000b7
       33695000	      3368	80004434	00d923b3	slt	x7,x18,x13	 x18:0x00000000 x13:0x00000000  x7=0x00000000
       33705000	      3369	80004438	0198bdb3	sltu	x27,x17,x25	 x17:0xfffff4b0 x25:0x80009ef8 x27=0x00000000
       33715000	      3370	8000443c	da00ca93	xori	x21,x1,-608	  x1:0x00000000 x21=0xfffffda0
       33725000	      3371	80004440	00595fb3	srl	x31,x18,x5	 x18:0x00000000  x5:0x2d98d400 x31=0x00000000
       33735000	      3372	80004444	015c0f33	add	x30,x24,x21	 x24:0xaa8dd9b9 x21:0xfffffda0 x30=0xaa8dd759
       33745000	      3373	80004448	cd68ae13	slti	x28,x17,-810	 x17:0xfffff4b0 x28=0x00000001
       33755000	      3374	8000444c	293bf893	andi	x17,x23,659	 x23:0x00000001 x17=0x00000001
       33765000	      3375	80004450	005898b3	sll	x17,x17,x5	 x17:0x00000001  x5:0x2d98d400 x17=0x00000001
       33775000	      3376	80004454	7de9b413	sltiu	x8,x19,2014	 x19:0x00010282  x8=0x00000000
       33785000	      3377	80004458	017ed733	srl	x14,x29,x23	 x29:0xde4b141c x23:0x00000001 x14=0x6f258a0e
       33795000	      3378	8000445c	1a38d217	auipc	x4,0x1a38d	  x4=0x9a391458
       33805000	      3379	80004460	00896a63	bltu	x18,x8,80004474	 x18:0x00000000  x8:0x00000000
       33815000	      3380	80004464	020d8263	beq	x27,x0,80004488	 x27:0x00000000  x0:0x00000000
       33825000	      3381	00000000	00000013	addi	x0,x0,0	  x0:0x00000000
       33835000	      3382	80004484	00000013	addi	x0,x0,0	  x0:0x00000000
       33845000	      3383	80004488	00ead513	srli	x10,x21,0xe	 x21:0xfffffda0 x10=0x0003ffff
       33855000	      3384	8000448c	ed3e0c13	addi	x24,x28,-301	 x28:0x00000001 x24=0xfffffed4
       33865000	      3385	80004490	00acd593	srli	x11,x25,0xa	 x25:0x80009ef8 x11=0x00200027
       33875000	      3386	80004494	00a79213	slli	x4,x15,0xa	 x15:0x80009fc4  x4=0x027f1000
       33885000	      3387	80004498	0095c833	xor	x16,x11,x9	 x11:0x00200027  x9:0x00010282 x16=0x002102a5
       33895000	      3388	8000449c	5b518e93	addi	x29,x3,1461	  x3:0x000e0000 x29=0x000e05b5
       33905000	      3389	800044a0	004a71b3	and	x3,x20,x4	 x20:0x80009ef8  x4:0x027f1000  x3=0x00001000
       33915000	      3390	800044a4	403e8db3	sub	x27,x29,x3	 x29:0x000e05b5  x3:0x00001000 x27=0x000df5b5
       33925000	      3391	800044a8	009e36b3	sltu	x13,x28,x9	 x28:0x00000001  x9:0x00010282 x13=0x00000001
       33935000	      3392	800044ac	00000013	addi	x0,x0,0	  x0:0x00000000
       33945000	      3393	800044b0	417c5893	srai	x17,x24,0x17	 x24:0xfffffed4 x17=0xffffffff
       33955000	      3394	800044b4	01454013	xori	x0,x10,20	 x10:0x0003ffff
       33965000	      3395	800044b8	00585233	srl	x4,x16,x5	 x16:0x002102a5  x5:0x2d98d400  x4=0x002102a5
       33975000	      3396	800044bc	01c6b233	sltu	x4,x13,x28	 x13:0x00000001 x28:0x00000001  x4=0x00000000
       33985000	      3397	800044c0	404fdc33	sra	x24,x31,x4	 x31:0x00000000  x4:0x00000000 x24=0x00000000
       33995000	      3398	800044c4	d14d8a13	addi	x20,x27,-748	 x27:0x000df5b5 x20=0x000df2c9
       34005000	      3399	800044c8	03b07863	bgeu	x0,x27,800044f8	  x0:0x00000000 x27:0x000df5b5
       34015000	      3400	800044cc	9916e093	ori	x1,x13,-1647	 x13:0x00000001  x1=0xfffff991
       34025000	      3401	800044d0	f69b3b37	lui	x22,0xf69b3	 x22=0xf69b3000
       34035000	      3402	800044d4	00f38bb3	add	x23,x7,x15	  x7:0x00000000 x15:0x80009fc4 x23=0x80009fc4
       34045000	      3403	800044d8	00b75013	srli	x0,x14,0xb	 x14:0x6f258a0e
       34055000	      3404	800044dc	00f2cb33	xor	x22,x5,x15	  x5:0x2d98d400 x15:0x80009fc4 x22=0xad984bc4
       34065000	      3405	800044e0	401204b3	sub	x9,x4,x1	  x4:0x00000000  x1:0xfffff991  x9=0x0000066f
       34075000	      3406	800044e4	015cc533	xor	x10,x25,x21	 x25:0x80009ef8 x21:0xfffffda0 x10=0x7fff6358
       34085000	      3407	800044e8	325f0b37	lui	x22,0x325f0	 x22=0x325f0000
       34095000	      3408	800044ec	00000013	addi	x0,x0,0	  x0:0x00000000
       34105000	      3409	800044f0	01725e63	bge	x4,x23,8000450c	  x4:0x00000000 x23:0x80009fc4
       34115000	      3410	00000000	00000013	addi	x0,x0,0	  x0:0x00000000
       34125000	      3411	80004508	00000013	addi	x0,x0,0	  x0:0x00000000
       34135000	      3412	8000450c	4090d813	srai	x16,x1,0x9	  x1:0xfffff991 x16=0xfffffffc
       34145000	      3413	80004510	04694463	blt	x18,x6,80004558	 x18:0x00000000  x6:0x00000001
       34155000	      3414	00000000	00000013	addi	x0,x0,0	  x0:0x00000000
       34165000	      3415	80004554	00000013	addi	x0,x0,0	  x0:0x00000000
       34175000	      3416	80004558	012a64b3	or	x9,x20,x18	 x20:0x000df2c9 x18:0x00000000  x9=0x000df2c9
       34185000	      3417	8000455c	0193df13	srli	x30,x7,0x19	  x7:0x00000000 x30=0x00000000
       34195000	      3418	80004560	032dd663	bge	x27,x18,8000458c	 x27:0x000df5b5 x18:0x00000000
       34205000	      3419	00000000	00000013	addi	x0,x0,0	  x0:0x00000000
       34215000	      3420	80004588	00000013	addi	x0,x0,0	  x0:0x00000000
       34225000	      3421	8000458c	02158663	beq	x11,x1,800045b8	 x11:0x00200027  x1:0xfffff991
       34235000	      3422	80004590	01db7c63	bgeu	x22,x29,800045a8	 x22:0x325f0000 x29:0x000e05b5
       34245000	      3423	00000000	00000013	addi	x0,x0,0	  x0:0x00000000
       34255000	      3424	800045a4	00000013	addi	x0,x0,0	  x0:0x00000000
       34265000	      3425	800045a8	006a49b3	xor	x19,x20,x6	 x20:0x000df2c9  x6:0x00000001 x19=0x000df2c8
       34275000	      3426	800045ac	04b48663	beq	x9,x11,800045f8	  x9:0x000df2c9 x11:0x00200027
       34285000	      3427	800045b0	003a6d33	or	x26,x20,x3	 x20:0x000df2c9  x3:0x00001000 x26=0x000df2c9
       34295000	      3428	800045b4	00f51033	sll	x0,x10,x15	 x10:0x7fff6358 x15:0x80009fc4
       34305000	      3429	800045b8	00efdc13	srli	x24,x31,0xe	 x31:0x00000000 x24=0x00000000
       34315000	      3430	800045bc	006c5193	srli	x3,x24,0x6	 x24:0x00000000  x3=0x00000000
       34325000	      3431	800045c0	00491a63	bne	x18,x4,800045d4	 x18:0x00000000  x4:0x00000000
       34335000	      3432	800045c4	01914863	blt	x2,x25,800045d4	  x2:0xaa8dd69f x25:0x80009ef8
       34345000	      3433	800045c8	ee134193	xori	x3,x6,-287	  x6:0x00000001  x3=0xfffffee0
       34355000	      3434	800045cc	5a8db413	sltiu	x8,x27,1448	 x27:0x000df5b5  x8=0x00000000
       34365000	      3435	800045d0	eee68193	addi	x3,x13,-274	 x13:0x00000001  x3=0xfffffeef
       34375000	      3436	800045d4	01ea18b3	sll	x17,x20,x30	 x20:0x000df2c9 x30:0x00000000 x17=0x000df2c9
       34385000	      3437	800045d8	8c8f8593	addi	x11,x31,-1848	 x31:0x00000000 x11=0xfffff8c8
       34395000	      3438	800045dc	00c5fdb3	and	x27,x11,x12	 x11:0xfffff8c8 x12:0x00000000 x27=0x00000000
       34405000	      3439	800045e0	03687c63	bgeu	x16,x22,80004618	 x16:0xfffffffc x22:0x325f0000
       34415000	      3440	00000000	00000013	addi	x0,x0,0	  x0:0x00000000
       34425000	      3441	80004614	00000013	addi	x0,x0,0	  x0:0x00000000
       34435000	      3442	80004618	411c0a33	sub	x20,x24,x17	 x24:0x00000000 x17:0x000df2c9 x20=0xfff20d37
       34445000	      3443	8000461c	014c0663	beq	x24,x20,80004628	 x24:0x00000000 x20:0xfff20d37
       34455000	      3444	80004620	c5847997	auipc	x19,0xc5847	 x19=0x4584b61c
       34465000	      3445	80004624	0aa18393	addi	x7,x3,170	  x3:0xfffffeef  x7=0xffffff99
       34475000	      3446	80004628	013c5013	srli	x0,x24,0x13	 x24:0x00000000
       34485000	      3447	8000462c	038b1663	bne	x22,x24,80004658	 x22:0x325f0000 x24:0x00000000
       34495000	      3448	00000000	00000013	addi	x0,x0,0	  x0:0x00000000
       34505000	      3449	80004654	00000013	addi	x0,x0,0	  x0:0x00000000
       34515000	      3450	80004658	00437c63	bgeu	x6,x4,80004670	  x6:0x00000001  x4:0x00000000
       34525000	      3451	00000000	00000013	addi	x0,x0,0	  x0:0x00000000
       34535000	      3452	8000466c	00000013	addi	x0,x0,0	  x0:0x00000000
       34545000	      3453	80004670	0078b3b3	sltu	x7,x17,x7	 x17:0x000df2c9  x7:0xffffff99  x7=0x00000001
       34555000	      3454	80004674	0148e933	or	x18,x17,x20	 x17:0x000df2c9 x20:0xfff20d37 x18=0xffffffff
       34565000	      3455	80004678	016b6e63	bltu	x22,x22,80004694	 x22:0x325f0000 x22:0x325f0000
       34575000	      3456	8000467c	00260eb3	add	x29,x12,x2	 x12:0x00000000  x2:0xaa8dd69f x29=0xaa8dd69f
       34585000	      3457	80004680	012b5033	srl	x0,x22,x18	 x22:0x325f0000 x18:0xffffffff
       34595000	      3458	80004684	80827313	andi	x6,x4,-2040	  x4:0x00000000  x6=0x00000000
       34605000	      3459	80004688	03827663	bgeu	x4,x24,800046b4	  x4:0x00000000 x24:0x00000000
       34615000	      3460	00000000	00000013	addi	x0,x0,0	  x0:0x00000000
       34625000	      3461	800046b0	00000013	addi	x0,x0,0	  x0:0x00000000
       34635000	      3462	800046b4	01684fb3	xor	x31,x16,x22	 x16:0xfffffffc x22:0x325f0000 x31=0xcda0fffc
       34645000	      3463	800046b8	04025863	bge	x4,x0,80004708	  x4:0x00000000  x0:0x00000000
       34655000	      3464	00000000	00000013	addi	x0,x0,0	  x0:0x00000000
       34665000	      3465	80004704	00000013	addi	x0,x0,0	  x0:0x00000000
       34675000	      3466	80004708	025d5863	bge	x26,x5,80004738	 x26:0x000df2c9  x5:0x2d98d400
       34685000	      3467	8000470c	40f65a33	sra	x20,x12,x15	 x12:0x00000000 x15:0x80009fc4 x20=0x00000000
       34695000	      3468	80004710	a1b08393	addi	x7,x1,-1509	  x1:0xfffff991  x7=0xfffff3ac
       34705000	      3469	80004714	3d2d0393	addi	x7,x26,978	 x26:0x000df2c9  x7=0x000df69b
       34715000	      3470	80004718	40848233	sub	x4,x9,x8	  x9:0x000df2c9  x8:0x00000000  x4=0x000df2c9
       34725000	      3471	8000471c	01be9fb3	sll	x31,x29,x27	 x29:0xaa8dd69f x27:0x00000000 x31=0xaa8dd69f
       34735000	      3472	80004720	01326a33	or	x20,x4,x19	  x4:0x000df2c9 x19:0x4584b61c x20=0x458df6dd
       34745000	      3473	80004724	046f8063	beq	x31,x6,80004764	 x31:0xaa8dd69f  x6:0x00000000
       34755000	      3474	80004728	0170d013	srli	x0,x1,0x17	  x1:0xfffff991
       34765000	      3475	8000472c	7597c813	xori	x16,x15,1881	 x15:0x80009fc4 x16=0x8000989d
       34775000	      3476	80004730	00d9bb33	sltu	x22,x19,x13	 x19:0x4584b61c x13:0x00000001 x22=0x00000000
       34785000	      3477	80004734	00205d93	srli	x27,x0,0x2	  x0:0x00000000 x27=0x00000000
       34795000	      3478	80004738	01325463	bge	x4,x19,80004740	  x4:0x000df2c9 x19:0x4584b61c
       34805000	      3479	8000473c	01c3f6b3	and	x13,x7,x28	  x7:0x000df69b x28:0x00000001 x13=0x00000001
       34815000	      3480	80004740	01700a63	beq	x0,x23,80004754	  x0:0x00000000 x23:0x80009fc4
       34825000	      3481	80004744	c24eb513	sltiu	x10,x29,-988	 x29:0xaa8dd69f x10=0x00000001
       34835000	      3482	80004748	400286b3	sub	x13,x5,x0	  x5:0x2d98d400  x0:0x00000000 x13=0x2d98d400
       34845000	      3483	8000474c	00fa34b3	sltu	x9,x20,x15	 x20:0x458df6dd x15:0x80009fc4  x9=0x00000001
       34855000	      3484	80004750	40fbdf93	srai	x31,x23,0xf	 x23:0x80009fc4 x31=0xffff0001
       34865000	      3485	80004754	04cfe663	bltu	x31,x12,800047a0	 x31:0xffff0001 x12:0x00000000
       34875000	      3486	80004758	05adf663	bgeu	x27,x26,800047a4	 x27:0x00000000 x26:0x000df2c9
       34885000	      3487	8000475c	01787463	bgeu	x16,x23,80004764	 x16:0x8000989d x23:0x80009fc4
       34895000	      3488	80004760	0052a8b3	slt	x17,x5,x5	  x5:0x2d98d400  x5:0x2d98d400 x17=0x00000000
       34905000	      3489	80004764	01acea63	bltu	x25,x26,80004778	 x25:0x80009ef8 x26:0x000df2c9
       34915000	      3490	80004768	00a93533	sltu	x10,x18,x10	 x18:0xffffffff x10:0x00000001 x10=0x00000000
       34925000	      3491	8000476c	013fdc63	bge	x31,x19,80004784	 x31:0xffff0001 x19:0x4584b61c
       34935000	      3492	80004770	018f91b3	sll	x3,x31,x24	 x31:0xffff0001 x24:0x00000000  x3=0xffff0001
       34945000	      3493	80004774	00e87fb3	and	x31,x16,x14	 x16:0x8000989d x14:0x6f258a0e x31=0x0000880c
       34955000	      3494	80004778	02219663	bne	x3,x2,800047a4	  x3:0xffff0001  x2:0xaa8dd69f
       34965000	      3495	00000000	00000013	addi	x0,x0,0	  x0:0x00000000
       34975000	      3496	800047a0	00000013	addi	x0,x0,0	  x0:0x00000000
       34985000	      3497	800047a4	0149be33	sltu	x28,x19,x20	 x19:0x4584b61c x20:0x458df6dd x28=0x00000001
       34995000	      3498	800047a8	4faf0613	addi	x12,x30,1274	 x30:0x00000000 x12=0x000004fa
       35005000	      3499	800047ac	c29d7493	andi	x9,x26,-983	 x26:0x000df2c9  x9=0x000df009
       35015000	      3500	800047b0	000bcb33	xor	x22,x23,x0	 x23:0x80009fc4  x0:0x00000000 x22=0x80009fc4
       35025000	      3501	800047b4	00b67233	and	x4,x12,x11	 x12:0x000004fa x11:0xfffff8c8  x4=0x000000c8
       35035000	      3502	800047b8	40477593	andi	x11,x14,1028	 x14:0x6f258a0e x11=0x00000004
       35045000	      3503	800047bc	00d969b3	or	x19,x18,x13	 x18:0xffffffff x13:0x2d98d400 x19=0xffffffff
       35055000	      3504	800047c0	01ff6a63	bltu	x30,x31,800047d4	 x30:0x00000000 x31:0x0000880c
       35065000	      3505	00000000	00000013	addi	x0,x0,0	  x0:0x00000000
       35075000	      3506	800047d0	00000013	addi	x0,x0,0	  x0:0x00000000
       35085000	      3507	800047d4	004b0033	add	x0,x22,x4	 x22:0x80009fc4  x4:0x000000c8
       35095000	      3508	800047d8	ab804417	auipc	x8,0xab804	  x8=0x2b8087d4
       35105000	      3509	800047dc	01a36b33	or	x22,x6,x26	  x6:0x00000000 x26:0x000df2c9 x22=0x000df2c9
       35115000	      3510	800047e0	0108bdb3	sltu	x27,x17,x16	 x17:0x00000000 x16:0x8000989d x27=0x00000001
       35125000	      3511	800047e4	0485e063	bltu	x11,x8,80004824	 x11:0x00000004  x8:0x2b8087d4
       35135000	      3512	00000000	00000013	addi	x0,x0,0	  x0:0x00000000
       35145000	      3513	80004820	00000013	addi	x0,x0,0	  x0:0x00000000
       35155000	      3514	80004824	02122993	slti	x19,x4,33	  x4:0x000000c8 x19=0x00000000
       35165000	      3515	80004828	00000013	addi	x0,x0,0	  x0:0x00000000
       35175000	      3516	8000482c	00a18c63	beq	x3,x10,80004844	  x3:0xffff0001 x10:0x00000000
       35185000	      3517	80004830	40b90f33	sub	x30,x18,x11	 x18:0xffffffff x11:0x00000004 x30=0xfffffffb
       35195000	      3518	80004834	00870463	beq	x14,x8,8000483c	 x14:0x6f258a0e  x8:0x2b8087d4
       35205000	      3519	80004838	40208e33	sub	x28,x1,x2	  x1:0xfffff991  x2:0xaa8dd69f x28=0x557222f2
       35215000	      3520	8000483c	001bd863	bge	x23,x1,8000484c	 x23:0x80009fc4  x1:0xfffff991
       35225000	      3521	80004840	40a25613	srai	x12,x4,0xa	  x4:0x000000c8 x12=0x00000000
       35235000	      3522	80004844	007b8e33	add	x28,x23,x7	 x23:0x80009fc4  x7:0x000df69b x28=0x800e965f
       35245000	      3523	80004848	a0c3bd93	sltiu	x27,x7,-1524	  x7:0x000df69b x27=0x00000001
       35255000	      3524	8000484c	0e3b1a63	bne	x22,x3,80004940	 x22:0x000df2c9  x3:0xffff0001
       35265000	      3525	00000000	00000013	addi	x0,x0,0	  x0:0x00000000
       35275000	      3526	8000493c	00000013	addi	x0,x0,0	  x0:0x00000000
       35285000	      3527	80004940	01e38663	beq	x7,x30,8000494c	  x7:0x000df69b x30:0xfffffffb
       35295000	      3528	80004944	41bb85b3	sub	x11,x23,x27	 x23:0x80009fc4 x27:0x00000001 x11=0x80009fc3
       35305000	      3529	80004948	004d0d33	add	x26,x26,x4	 x26:0x000df2c9  x4:0x000000c8 x26=0x000df391
       35315000	      3530	8000494c	00465013	srli	x0,x12,0x4	 x12:0x00000000
       35325000	      3531	80004950	004d1033	sll	x0,x26,x4	 x26:0x000df391  x4:0x000000c8
       35335000	      3532	80004954	63e76b13	ori	x22,x14,1598	 x14:0x6f258a0e x22=0x6f258e3e
       35345000	      3533	80004958	c032c393	xori	x7,x5,-1021	  x5:0x2d98d400  x7=0xd2672803
       35355000	      3534	8000495c	2ae97a37	lui	x20,0x2ae97	 x20=0x2ae97000
       35365000	      3535	80004960	41f25493	srai	x9,x4,0x1f	  x4:0x000000c8  x9=0x00000000
       35375000	      3536	80004964	5dd60713	addi	x14,x12,1501	 x12:0x00000000 x14=0x000005dd
       35385000	      3537	80004968	13f96193	ori	x3,x18,319	 x18:0xffffffff  x3=0xffffffff
       35395000	      3538	8000496c	00000013	addi	x0,x0,0	  x0:0x00000000
       35405000	      3539	80004970	2d8a5337	lui	x6,0x2d8a5	  x6=0x2d8a5000
       35415000	      3540	80004974	01cce6b3	or	x13,x25,x28	 x25:0x80009ef8 x28:0x800e965f x13=0x800e9eff
       35425000	      3541	80004978	0532f663	bgeu	x5,x19,800049c4	  x5:0x2d98d400 x19:0x00000000
       35435000	      3542	00000000	00000013	addi	x0,x0,0	  x0:0x00000000
       35445000	      3543	800049c0	00000013	addi	x0,x0,0	  x0:0x00000000
       35455000	      3544	800049c4	006c1f93	slli	x31,x24,0x6	 x24:0x00000000 x31=0x00000000
       35465000	      3545	800049c8	01c698b3	sll	x17,x13,x28	 x13:0x800e9eff x28:0x800e965f x17=0x80000000
       35475000	      3546	800049cc	0114b5b3	sltu	x11,x9,x17	  x9:0x00000000 x17:0x80000000 x11=0x00000001
       35485000	      3547	800049d0	01bd33b3	sltu	x7,x26,x27	 x26:0x000df391 x27:0x00000001  x7=0x00000000
       35495000	      3548	800049d4	00431a33	sll	x20,x6,x4	  x6:0x2d8a5000  x4:0x000000c8 x20=0x8a500000
       35505000	      3549	800049d8	02418263	beq	x3,x4,800049fc	  x3:0xffffffff  x4:0x000000c8
       35515000	      3550	800049dc	0584d863	bge	x9,x24,80004a2c	  x9:0x00000000 x24:0x00000000
       35525000	      3551	00000000	00000013	addi	x0,x0,0	  x0:0x00000000
       35535000	      3552	80004a28	00000013	addi	x0,x0,0	  x0:0x00000000
       35545000	      3553	80004a2c	91ba7817	auipc	x16,0x91ba7	 x16=0x11baba28
       35555000	      3554	80004a30	047fd663	bge	x31,x7,80004a7c	 x31:0x00000000  x7:0x00000000
       35565000	      3555	00000000	00000013	addi	x0,x0,0	  x0:0x00000000
       35575000	      3556	80004a78	00000013	addi	x0,x0,0	  x0:0x00000000
       35585000	      3557	80004a7c	41ffdfb3	sra	x31,x31,x31	 x31:0x00000000 x31:0x00000000 x31=0x00000000
       35595000	      3558	80004a80	0192c833	xor	x16,x5,x25	  x5:0x2d98d400 x25:0x80009ef8 x16=0xad984af8
       35605000	      3559	80004a84	6673cc13	xori	x24,x7,1639	  x7:0x00000000 x24=0x00000667
       35615000	      3560	80004a88	00a5e333	or	x6,x11,x10	 x11:0x00000001 x10:0x00000000  x6=0x00000001
       35625000	      3561	80004a8c	010c5833	srl	x16,x24,x16	 x24:0x00000667 x16:0xad984af8 x16=0x00000000
       35635000	      3562	80004a90	01f61413	slli	x8,x12,0x1f	 x12:0x00000000  x8=0x00000000
       35645000	      3563	80004a94	c8de3c13	sltiu	x24,x28,-883	 x28:0x800e965f x24=0x00000001
       35655000	      3564	80004a98	00de9463	bne	x29,x13,80004aa0	 x29:0xaa8dd69f x13:0x800e9eff
       35665000	      3565	00000000	00000013	addi	x0,x0,0	  x0:0x00000000
       35675000	      3566	80004a9c	00000013	addi	x0,x0,0	  x0:0x00000000
       35685000	      3567	80004aa0	383633b7	lui	x7,0x38363	  x7=0x38363000
       35695000	      3568	80004aa4	001140b3	xor	x1,x2,x1	  x2:0xaa8dd69f  x1:0xfffff991  x1=0x55722f0e
       35705000	      3569	80004aa8	9db4b237	lui	x4,0x9db4b	  x4=0x9db4b000
       35715000	      3570	80004aac	01971813	slli	x16,x14,0x19	 x14:0x000005dd x16=0xba000000
       35725000	      3571	80004ab0	044ed463	bge	x29,x4,80004af8	 x29:0xaa8dd69f  x4:0x9db4b000
       35735000	      3572	00000000	00000013	addi	x0,x0,0	  x0:0x00000000
       35745000	      3573	80004af4	00000013	addi	x0,x0,0	  x0:0x00000000
       35755000	      3574	80004af8	2e1ea313	slti	x6,x29,737	 x29:0xaa8dd69f  x6=0x00000001
       35765000	      3575	80004afc	9dc0bd13	sltiu	x26,x1,-1572	  x1:0x55722f0e x26=0x00000001
       35775000	      3576	80004b00	00292933	slt	x18,x18,x2	 x18:0xffffffff  x2:0xaa8dd69f x18=0x00000000
       35785000	      3577	80004b04	c75eb513	sltiu	x10,x29,-907	 x29:0xaa8dd69f x10=0x00000001
       35795000	      3578	80004b08	d3e74b93	xori	x23,x14,-706	 x14:0x000005dd x23=0xfffff8e3
       35805000	      3579	80004b0c	e6973213	sltiu	x4,x14,-407	 x14:0x000005dd  x4=0x00000001
       35815000	      3580	80004b10	019059b3	srl	x19,x0,x25	  x0:0x00000000 x25:0x80009ef8 x19=0x00000000
       35825000	      3581	80004b14	41c60db3	sub	x27,x12,x28	 x12:0x00000000 x28:0x800e965f x27=0x7ff169a1
       35835000	      3582	80004b18	00bd5633	srl	x12,x26,x11	 x26:0x00000001 x11:0x00000001 x12=0x00000000
       35845000	      3583	80004b1c	2c55f413	andi	x8,x11,709	 x11:0x00000001  x8=0x00000001
       35855000	      3584	80004b20	143b7397	auipc	x7,0x143b7	  x7=0x943bbb1c
       35865000	      3585	80004b24	0046c433	xor	x8,x13,x4	 x13:0x800e9eff  x4:0x00000001  x8=0x800e9efe
       35875000	      3586	80004b28	4d502093	slti	x1,x0,1237	  x0:0x00000000  x1=0x00000001
       35885000	      3587	80004b2c	7568fc13	andi	x24,x17,1878	 x17:0x80000000 x24=0x00000000
       35895000	      3588	80004b30	00931633	sll	x12,x6,x9	  x6:0x00000001  x9:0x00000000 x12=0x00000001
       35905000	      3589	80004b34	0bf4c893	xori	x17,x9,191	  x9:0x00000000 x17=0x000000bf
       35915000	      3590	80004b38	ef9e7897	auipc	x17,0xef9e7	 x17=0x6f9ebb34
       35925000	      3591	80004b3c	00388233	add	x4,x17,x3	 x17:0x6f9ebb34  x3:0xffffffff  x4=0x6f9ebb33
       35935000	      3592	80004b40	00231a33	sll	x20,x6,x2	  x6:0x00000001  x2:0xaa8dd69f x20=0x80000000
       35945000	      3593	80004b44	11e66e13	ori	x28,x12,286	 x12:0x00000001 x28=0x0000011f
       35955000	      3594	80004b48	00336e63	bltu	x6,x3,80004b64	  x6:0x00000001  x3:0xffffffff
       35965000	      3595	00000000	00000013	addi	x0,x0,0	  x0:0x00000000
       35975000	      3596	80004b60	00000013	addi	x0,x0,0	  x0:0x00000000
       35985000	      3597	80004b64	00a29db3	sll	x27,x5,x10	  x5:0x2d98d400 x10:0x00000001 x27=0x5b31a800
       35995000	      3598	80004b68	00631d33	sll	x26,x6,x6	  x6:0x00000001  x6:0x00000001 x26=0x00000002
       36005000	      3599	80004b6c	01572d33	slt	x26,x14,x21	 x14:0x000005dd x21:0xfffffda0 x26=0x00000000
       36015000	      3600	80004b70	014230b3	sltu	x1,x4,x20	  x4:0x6f9ebb33 x20:0x80000000  x1=0x00000001
       36025000	      3601	80004b74	01265ab3	srl	x21,x12,x18	 x12:0x00000001 x18:0x00000000 x21=0x00000001
       36035000	      3602	80004b78	e4266a97	auipc	x21,0xe4266	 x21=0x6426ab74
       36045000	      3603	80004b7c	001e8c33	add	x24,x29,x1	 x29:0xaa8dd69f  x1:0x00000001 x24=0xaa8dd6a0
       36055000	      3604	80004b80	bae14e13	xori	x28,x2,-1106	  x2:0xaa8dd69f x28=0x55722d31
       36065000	      3605	80004b84	01c74db3	xor	x27,x14,x28	 x14:0x000005dd x28:0x55722d31 x27=0x557228ec
       36075000	      3606	80004b88	41f4d333	sra	x6,x9,x31	  x9:0x00000000 x31:0x00000000  x6=0x00000000
       36085000	      3607	80004b8c	001d9433	sll	x8,x27,x1	 x27:0x557228ec  x1:0x00000001  x8=0xaae451d8
       36095000	      3608	80004b90	d049a993	slti	x19,x19,-764	 x19:0x00000000 x19=0x00000000
       36105000	      3609	80004b94	40d10fb3	sub	x31,x2,x13	  x2:0xaa8dd69f x13:0x800e9eff x31=0x2a7f37a0
       36115000	      3610	80004b98	00b29e93	slli	x29,x5,0xb	  x5:0x2d98d400 x29=0xc6a00000
       36125000	      3611	80004b9c	02fdd463	bge	x27,x15,80004bc4	 x27:0x557228ec x15:0x80009fc4
       36135000	      3612	00000000	00000013	addi	x0,x0,0	  x0:0x00000000
       36145000	      3613	80004bc0	00000013	addi	x0,x0,0	  x0:0x00000000
       36155000	      3614	80004bc4	05809063	bne	x1,x24,80004c04	  x1:0x00000001 x24:0xaa8dd6a0
       36165000	      3615	00000000	00000013	addi	x0,x0,0	  x0:0x00000000
       36175000	      3616	80004c00	00000013	addi	x0,x0,0	  x0:0x00000000
       36185000	      3617	80004c04	01f38463	beq	x7,x31,80004c0c	  x7:0x943bbb1c x31:0x2a7f37a0
       36195000	      3618	80004c08	00000013	addi	x0,x0,0	  x0:0x00000000
       36205000	      3619	80004c0c	6ebf3b93	sltiu	x23,x30,1771	 x30:0xfffffffb x23=0x00000000
       36215000	      3620	80004c10	00c893b3	sll	x7,x17,x12	 x17:0x6f9ebb34 x12:0x00000001  x7=0xdf3d7668
       36225000	      3621	80004c14	7ff08913	addi	x18,x1,2047	  x1:0x00000001 x18=0x00000800
       36235000	      3622	80004c18	01ecda33	srl	x20,x25,x30	 x25:0x80009ef8 x30:0xfffffffb x20=0x00000010
       36245000	      3623	80004c1c	99b7ae37	lui	x28,0x99b7a	 x28=0x99b7a000
       36255000	      3624	80004c20	00004f97	auipc	x31,0x4	 x31=0x80008c1c
       36265000	      3625	80004c24	147f8f93	addi	x31,x31,327	 x31:0x80008c1c x31=0x80008d63
       36275000	      3626	80004c28	0ddf8803	lb	x16,221(x31)	 x31:0x80008d63 x16=0xffffffc2 PA:0x80008e40
       36285000	      3627	80004c2c	089fa0a3	sw	x9,129(x31)	 x31:0x80008d63  x9:0x00000000 PA:0x80008de4
       36295000	      3628	80004c30	f89fa583	lw	x11,-119(x31)	 x31:0x80008d63 x11=0xc7aa7bf1 PA:0x80008cec
       36305000	      3629	80004c34	8cf6a913	slti	x18,x13,-1841	 x13:0x800e9eff x18=0x00000001
       36315000	      3630	80004c38	03ab9e97	auipc	x29,0x3ab9	 x29=0x83abdc34
       36325000	      3631	80004c3c	0dcf8303	lb	x6,220(x31)	 x31:0x80008d63  x6=0xffffffb5 PA:0x80008e3f
       36335000	      3632	80004c40	062fcb03	lbu	x22,98(x31)	 x31:0x80008d63 x22=0x00000067 PA:0x80008dc5
       36345000	      3633	80004c44	f3efcd83	lbu	x27,-194(x31)	 x31:0x80008d63 x27=0x0000001d PA:0x80008ca1
       36355000	      3634	80004c48	028f98a3	sh	x8,49(x31)	 x31:0x80008d63  x8:0xaae451d8 PA:0x80008d94
       36365000	      3635	80004c4c	00ba2a33	slt	x20,x20,x11	 x20:0x00000010 x11:0xc7aa7bf1 x20=0x00000000
       36375000	      3636	80004c50	48f4a617	auipc	x12,0x48f4a	 x12=0xc8f4ec4c
       36385000	      3637	80004c54	92c3a313	slti	x6,x7,-1748	  x7:0xdf3d7668  x6=0x00000001
       36395000	      3638	80004c58	021f98a3	sh	x1,49(x31)	 x31:0x80008d63  x1:0x00000001 PA:0x80008d94
       36405000	      3639	80004c5c	0ddf9e03	lh	x28,221(x31)	 x31:0x80008d63 x28=0xffff92c2 PA:0x80008e40
       36415000	      3640	80004c60	087f8303	lb	x6,135(x31)	 x31:0x80008d63  x6=0x0000002f PA:0x80008dea
       36425000	      3641	80004c64	018a58b3	srl	x17,x20,x24	 x20:0x00000000 x24:0xaa8dd6a0 x17=0x00000000
       36435000	      3642	80004c68	ff4f8d03	lb	x26,-12(x31)	 x31:0x80008d63 x26=0xffffff82 PA:0x80008d57
       36445000	      3643	80004c6c	f4273013	sltiu	x0,x14,-190	 x14:0x000005dd
       36455000	      3644	80004c70	fe3fdf03	lhu	x30,-29(x31)	 x31:0x80008d63 x30=0x000094d9 PA:0x80008d46
       36465000	      3645	80004c74	f60fa0a3	sw	x0,-159(x31)	 x31:0x80008d63  x0:0x00000000 PA:0x80008cc4
       36475000	      3646	80004c78	044fc703	lbu	x14,68(x31)	 x31:0x80008d63 x14=0x00000098 PA:0x80008da7
       36485000	      3647	80004c7c	f76f8383	lb	x7,-138(x31)	 x31:0x80008d63  x7=0xffffffbd PA:0x80008cd9
       36495000	      3648	80004c80	4151d593	srai	x11,x3,0x15	  x3:0xffffffff x11=0xffffffff
       36505000	      3649	80004c84	f34f8883	lb	x17,-204(x31)	 x31:0x80008d63 x17=0x00000028 PA:0x80008c97
       36515000	      3650	80004c88	fcbf9583	lh	x11,-53(x31)	 x31:0x80008d63 x11=0xffffdf53 PA:0x80008d2e
       36525000	      3651	80004c8c	f5cf8483	lb	x9,-164(x31)	 x31:0x80008d63  x9=0x0000007d PA:0x80008cbf
       36535000	      3652	80004c90	05ffd383	lhu	x7,95(x31)	 x31:0x80008d63  x7=0x00005b9c PA:0x80008dc2
       36545000	      3653	80004c94	1f077693	andi	x13,x14,496	 x14:0x00000098 x13=0x00000090
       36555000	      3654	80004c98	04bec513	xori	x10,x29,75	 x29:0x83abdc34 x10=0x83abdc7f
       36565000	      3655	80004c9c	07ef8403	lb	x8,126(x31)	 x31:0x80008d63  x8=0xffffff86 PA:0x80008de1
       36575000	      3656	80004ca0	0c6fa6a3	sw	x6,205(x31)	 x31:0x80008d63  x6:0x0000002f PA:0x80008e30
       36585000	      3657	80004ca4	0b2f8a83	lb	x21,178(x31)	 x31:0x80008d63 x21=0xffffffa7 PA:0x80008e15
       36595000	      3658	80004ca8	0c3f9803	lh	x16,195(x31)	 x31:0x80008d63 x16=0xfffff4e1 PA:0x80008e26
       36605000	      3659	80004cac	f57f84a3	sb	x23,-183(x31)	 x31:0x80008d63 x23:0x00000000 PA:0x80008cac
       36615000	      3660	80004cb0	040fcb83	lbu	x23,64(x31)	 x31:0x80008d63 x23=0x000000e0 PA:0x80008da3
       36625000	      3661	80004cb4	f2cf8c03	lb	x24,-212(x31)	 x31:0x80008d63 x24=0x00000000 PA:0x80008c8f
       36635000	      3662	80004cb8	f2cf8d23	sb	x12,-198(x31)	 x31:0x80008d63 x12:0xc8f4ec4c PA:0x80008c9d
       36645000	      3663	80004cbc	419fdf13	srai	x30,x31,0x19	 x31:0x80008d63 x30=0xffffffc0
       36655000	      3664	80004cc0	f9cfc383	lbu	x7,-100(x31)	 x31:0x80008d63  x7=0x000000e2 PA:0x80008cff
       36665000	      3665	80004cc4	ff4f8323	sb	x20,-26(x31)	 x31:0x80008d63 x20:0x00000000 PA:0x80008d49
       36675000	      3666	80004cc8	40c7dc13	srai	x24,x15,0xc	 x15:0x80009fc4 x24=0xfff80009
       36685000	      3667	80004ccc	14c12493	slti	x9,x2,332	  x2:0xaa8dd69f  x9=0x00000001
       36695000	      3668	80004cd0	bb780093	addi	x1,x16,-1097	 x16:0xfffff4e1  x1=0xfffff098
       36705000	      3669	80004cd4	0caf8383	lb	x7,202(x31)	 x31:0x80008d63  x7=0x00000000 PA:0x80008e2d
       36715000	      3670	80004cd8	01ed4a63	blt	x26,x30,80004cec	 x26:0xffffff82 x30:0xffffffc0
       36725000	      3671	00000000	00000013	addi	x0,x0,0	  x0:0x00000000
       36735000	      3672	80004ce8	00000013	addi	x0,x0,0	  x0:0x00000000
       36745000	      3673	80004cec	411f0333	sub	x6,x30,x17	 x30:0xffffffc0 x17:0x00000028  x6=0xffffff98
       36755000	      3674	80004cf0	01f05013	srli	x0,x0,0x1f	  x0:0x00000000
       36765000	      3675	80004cf4	010e1f93	slli	x31,x28,0x10	 x28:0xffff92c2 x31=0x92c20000
       36775000	      3676	80004cf8	00505f13	srli	x30,x0,0x5	  x0:0x00000000 x30=0x00000000
       36785000	      3677	80004cfc	00b203b3	add	x7,x4,x11	  x4:0x6f9ebb33 x11:0xffffdf53  x7=0x6f9e9a86
       36795000	      3678	80004d00	95394d93	xori	x27,x18,-1709	 x18:0x00000001 x27=0xfffff952
       36805000	      3679	80004d04	7de72a37	lui	x20,0x7de72	 x20=0x7de72000
       36815000	      3680	80004d08	40c406b3	sub	x13,x8,x12	  x8:0xffffff86 x12:0xc8f4ec4c x13=0x370b133a
       36825000	      3681	80004d0c	40765833	sra	x16,x12,x7	 x12:0xc8f4ec4c  x7:0x6f9e9a86 x16=0xff23d3b1
       36835000	      3682	80004d10	00b50863	beq	x10,x11,80004d20	 x10:0x83abdc7f x11:0xffffdf53
       36845000	      3683	80004d14	c3996b93	ori	x23,x18,-967	 x18:0x00000001 x23=0xfffffc39
       36855000	      3684	80004d18	002c8fb3	add	x31,x25,x2	 x25:0x80009ef8  x2:0xaa8dd69f x31=0x2a8e7597
       36865000	      3685	80004d1c	400cd413	srai	x8,x25,0x0	 x25:0x80009ef8  x8=0x80009ef8
       36875000	      3686	80004d20	009f6e33	or	x28,x30,x9	 x30:0x00000000  x9:0x00000001 x28=0x00000001
       36885000	      3687	80004d24	836aea13	ori	x20,x21,-1994	 x21:0xffffffa7 x20=0xffffffb7
       36895000	      3688	80004d28	00c08633	add	x12,x1,x12	  x1:0xfffff098 x12:0xc8f4ec4c x12=0xc8f4dce4
       36905000	      3689	80004d2c	011dd6b3	srl	x13,x27,x17	 x27:0xfffff952 x17:0x00000028 x13=0x00fffff9
       36915000	      3690	80004d30	003a1f13	slli	x30,x20,0x3	 x20:0xffffffb7 x30=0xfffffdb8
       36925000	      3691	80004d34	2572ad93	slti	x27,x5,599	  x5:0x2d98d400 x27=0x00000000
       36935000	      3692	80004d38	8bc9b517	auipc	x10,0x8bc9b	 x10=0x0bc9fd34
       36945000	      3693	80004d3c	5614e293	ori	x5,x9,1377	  x9:0x00000001  x5=0x00000561
       36955000	      3694	80004d40	012aca63	blt	x21,x18,80004d54	 x21:0xffffffa7 x18:0x00000001
       36965000	      3695	00000000	00000013	addi	x0,x0,0	  x0:0x00000000
       36975000	      3696	80004d50	00000013	addi	x0,x0,0	  x0:0x00000000
       36985000	      3697	80004d54	41b35733	sra	x14,x6,x27	  x6:0xffffff98 x27:0x00000000 x14=0xffffff98
       36995000	      3698	80004d58	011a7033	and	x0,x20,x17	 x20:0xffffffb7 x17:0x00000028
       37005000	      3699	80004d5c	00f95c63	bge	x18,x15,80004d74	 x18:0x00000001 x15:0x80009fc4
       37015000	      3700	00000000	00000013	addi	x0,x0,0	  x0:0x00000000
       37025000	      3701	80004d70	00000013	addi	x0,x0,0	  x0:0x00000000
       37035000	      3702	80004d74	c8a7a193	slti	x3,x15,-886	 x15:0x80009fc4  x3=0x00000001
       37045000	      3703	80004d78	f08ce013	ori	x0,x25,-248	 x25:0x80009ef8
       37055000	      3704	80004d7c	04084863	blt	x16,x0,80004dcc	 x16:0xff23d3b1  x0:0x00000000
       37065000	      3705	00000000	00000013	addi	x0,x0,0	  x0:0x00000000
       37075000	      3706	80004dc8	00000013	addi	x0,x0,0	  x0:0x00000000
       37085000	      3707	80004dcc	00000013	addi	x0,x0,0	  x0:0x00000000
       37095000	      3708	80004dd0	bd13e397	auipc	x7,0xbd13e	  x7=0x3d142dcc
       37105000	      3709	80004dd4	40f2d8b3	sra	x17,x5,x15	  x5:0x00000561 x15:0x80009fc4 x17=0x00000056
       37115000	      3710	80004dd8	2668d497	auipc	x9,0x2668d	  x9=0xa6691dd4
       37125000	      3711	80004ddc	01b15933	srl	x18,x2,x27	  x2:0xaa8dd69f x27:0x00000000 x18=0xaa8dd69f
       37135000	      3712	80004de0	011adb33	srl	x22,x21,x17	 x21:0xffffffa7 x17:0x00000056 x22=0x000003ff
       37145000	      3713	80004de4	41f6dd93	srai	x27,x13,0x1f	 x13:0x00fffff9 x27=0x00000000
       37155000	      3714	80004de8	032df663	bgeu	x27,x18,80004e14	 x27:0x00000000 x18:0xaa8dd69f
       37165000	      3715	80004dec	00810f33	add	x30,x2,x8	  x2:0xaa8dd69f  x8:0x80009ef8 x30=0x2a8e7597
       37175000	      3716	80004df0	413d0ab3	sub	x21,x26,x19	 x26:0xffffff82 x19:0x00000000 x21=0xffffff82
       37185000	      3717	80004df4	01608233	add	x4,x1,x22	  x1:0xfffff098 x22:0x000003ff  x4=0xfffff497
       37195000	      3718	80004df8	6c12e293	ori	x5,x5,1729	  x5:0x00000561  x5=0x000007e1
       37205000	      3719	80004dfc	61974313	xori	x6,x14,1561	 x14:0xffffff98  x6=0xfffff981
       37215000	      3720	80004e00	a96dea93	ori	x21,x27,-1386	 x27:0x00000000 x21=0xfffffa96
       37225000	      3721	80004e04	2080c593	xori	x11,x1,520	  x1:0xfffff098 x11=0xfffff290
       37235000	      3722	80004e08	633b0a37	lui	x20,0x633b0	 x20=0x633b0000
       37245000	      3723	80004e0c	00732533	slt	x10,x6,x7	  x6:0xfffff981  x7:0x3d142dcc x10=0x00000001
       37255000	      3724	80004e10	0cf7c337	lui	x6,0xcf7c	  x6=0x0cf7c000
       37265000	      3725	80004e14	009cf533	and	x10,x25,x9	 x25:0x80009ef8  x9:0xa6691dd4 x10=0x80001cd0
       37275000	      3726	80004e18	28567893	andi	x17,x12,645	 x12:0xc8f4dce4 x17=0x00000084
       37285000	      3727	80004e1c	0340c263	blt	x1,x20,80004e40	  x1:0xfffff098 x20:0x633b0000
       37295000	      3728	00000000	00000013	addi	x0,x0,0	  x0:0x00000000
       37305000	      3729	80004e3c	00000013	addi	x0,x0,0	  x0:0x00000000
       37315000	      3730	80004e40	8ed7cc13	xori	x24,x15,-1811	 x15:0x80009fc4 x24=0x7fff6729
       37325000	      3731	80004e44	039e4663	blt	x28,x25,80004e70	 x28:0x00000001 x25:0x80009ef8
       37335000	      3732	80004e48	17d57613	andi	x12,x10,381	 x10:0x80001cd0 x12=0x00000050
       37345000	      3733	80004e4c	01870663	beq	x14,x24,80004e58	 x14:0xffffff98 x24:0x7fff6729
       37355000	      3734	80004e50	543c4993	xori	x19,x24,1347	 x24:0x7fff6729 x19=0x7fff626a
       37365000	      3735	80004e54	012a72b3	and	x5,x20,x18	 x20:0x633b0000 x18:0xaa8dd69f  x5=0x22090000
       37375000	      3736	80004e58	baeeb993	sltiu	x19,x29,-1106	 x29:0x83abdc34 x19=0x00000001
       37385000	      3737	80004e5c	4075da93	srai	x21,x11,0x7	 x11:0xfffff290 x21=0xffffffe5
       37395000	      3738	80004e60	00f174b3	and	x9,x2,x15	  x2:0xaa8dd69f x15:0x80009fc4  x9=0x80009684
       37405000	      3739	80004e64	0006ca33	xor	x20,x13,x0	 x13:0x00fffff9  x0:0x00000000 x20=0x00fffff9
       37415000	      3740	80004e68	027c8663	beq	x25,x7,80004e94	 x25:0x80009ef8  x7:0x3d142dcc
       37425000	      3741	80004e6c	015d8a63	beq	x27,x21,80004e80	 x27:0x00000000 x21:0xffffffe5
       37435000	      3742	80004e70	6ad86c13	ori	x24,x16,1709	 x16:0xff23d3b1 x24=0xff23d7bd
       37445000	      3743	80004e74	9157b893	sltiu	x17,x15,-1771	 x15:0x80009fc4 x17=0x00000001
       37455000	      3744	80004e78	03904e93	xori	x29,x0,57	  x0:0x00000000 x29=0x00000039
       37465000	      3745	80004e7c	01afa233	slt	x4,x31,x26	 x31:0x2a8e7597 x26:0xffffff82  x4=0x00000000
       37475000	      3746	80004e80	045a8063	beq	x21,x5,80004ec0	 x21:0xffffffe5  x5:0x22090000
       37485000	      3747	80004e84	00000013	addi	x0,x0,0	  x0:0x00000000
       37495000	      3748	80004e88	02c74463	blt	x14,x12,80004eb0	 x14:0xffffff98 x12:0x00000050
       37505000	      3749	00000000	00000013	addi	x0,x0,0	  x0:0x00000000
       37515000	      3750	80004eac	00000013	addi	x0,x0,0	  x0:0x00000000
       37525000	      3751	80004eb0	05c0f463	bgeu	x1,x28,80004ef8	  x1:0xfffff098 x28:0x00000001
       37535000	      3752	00000000	00000013	addi	x0,x0,0	  x0:0x00000000
       37545000	      3753	80004ef4	00000013	addi	x0,x0,0	  x0:0x00000000
       37555000	      3754	80004ef8	00000013	addi	x0,x0,0	  x0:0x00000000
       37565000	      3755	80004efc	01c41493	slli	x9,x8,0x1c	  x8:0x80009ef8  x9=0x80000000
       37575000	      3756	80004f00	05588663	beq	x17,x21,80004f4c	 x17:0x00000001 x21:0xffffffe5
       37585000	      3757	80004f04	00612d33	slt	x26,x2,x6	  x2:0xaa8dd69f  x6:0x0cf7c000 x26=0x00000001
       37595000	      3758	80004f08	0178d463	bge	x17,x23,80004f10	 x17:0x00000001 x23:0xfffffc39
       37605000	      3759	00000000	00000013	addi	x0,x0,0	  x0:0x00000000
       37615000	      3760	80004f0c	00000013	addi	x0,x0,0	  x0:0x00000000
       37625000	      3761	80004f10	00f89a63	bne	x17,x15,80004f24	 x17:0x00000001 x15:0x80009fc4
       37635000	      3762	00000000	00000013	addi	x0,x0,0	  x0:0x00000000
       37645000	      3763	80004f20	00000013	addi	x0,x0,0	  x0:0x00000000
       37655000	      3764	80004f24	679c8e13	addi	x28,x25,1657	 x25:0x80009ef8 x28=0x8000a571
       37665000	      3765	80004f28	a82d4537	lui	x10,0xa82d4	 x10=0xa82d4000
       37675000	      3766	80004f2c	00f74a63	blt	x14,x15,80004f40	 x14:0xffffff98 x15:0x80009fc4
       37685000	      3767	80004f30	01456b33	or	x22,x10,x20	 x10:0xa82d4000 x20:0x00fffff9 x22=0xa8fffff9
       37695000	      3768	80004f34	01470463	beq	x14,x20,80004f3c	 x14:0xffffff98 x20:0x00fffff9
       37705000	      3769	80004f38	00fd3633	sltu	x12,x26,x15	 x26:0x00000001 x15:0x80009fc4 x12=0x00000001
       37715000	      3770	80004f3c	efaf1837	lui	x16,0xefaf1	 x16=0xefaf1000
       37725000	      3771	80004f40	01bf9b93	slli	x23,x31,0x1b	 x31:0x2a8e7597 x23=0xb8000000
       37735000	      3772	80004f44	7407f2b7	lui	x5,0x7407f	  x5=0x7407f000
       37745000	      3773	80004f48	00b19e93	slli	x29,x3,0xb	  x3:0x00000001 x29=0x00000800
       37755000	      3774	80004f4c	4c1a9897	auipc	x17,0x4c1a9	 x17=0xcc1adf48
       37765000	      3775	80004f50	8b697693	andi	x13,x18,-1866	 x18:0xaa8dd69f x13=0xaa8dd096
       37775000	      3776	80004f54	01ed4db3	xor	x27,x26,x30	 x26:0x00000001 x30:0x2a8e7597 x27=0x2a8e7596
       37785000	      3777	80004f58	40598ab3	sub	x21,x19,x5	 x19:0x00000001  x5:0x7407f000 x21=0x8bf81001
       37795000	      3778	80004f5c	01d3f233	and	x4,x7,x29	  x7:0x3d142dcc x29:0x00000800  x4=0x00000800
       37805000	      3779	80004f60	41790a33	sub	x20,x18,x23	 x18:0xaa8dd69f x23:0xb8000000 x20=0xf28dd69f
       37815000	      3780	80004f64	0153da13	srli	x20,x7,0x15	  x7:0x3d142dcc x20=0x000001e8
       37825000	      3781	80004f68	788e0d93	addi	x27,x28,1928	 x28:0x8000a571 x27=0x8000acf9
       37835000	      3782	80004f6c	416fdf13	srai	x30,x31,0x16	 x31:0x2a8e7597 x30=0x000000aa
       37845000	      3783	80004f70	41b35bb3	sra	x23,x6,x27	  x6:0x0cf7c000 x27:0x8000acf9 x23=0x00000006
       37855000	      3784	80004f74	04598063	beq	x19,x5,80004fb4	 x19:0x00000001  x5:0x7407f000
       37865000	      3785	80004f78	00de15b3	sll	x11,x28,x13	 x28:0x8000a571 x13:0xaa8dd096 x11=0x5c400000
       37875000	      3786	80004f7c	055f1863	bne	x30,x21,80004fcc	 x30:0x000000aa x21:0x8bf81001
       37885000	      3787	00000000	00000013	addi	x0,x0,0	  x0:0x00000000
       37895000	      3788	80004fc8	00000013	addi	x0,x0,0	  x0:0x00000000
       37905000	      3789	80004fcc	e7f9a713	slti	x14,x19,-385	 x19:0x00000001 x14=0x00000000
       37915000	      3790	80004fd0	429a7ab7	lui	x21,0x429a7	 x21=0x429a7000
       37925000	      3791	80004fd4	01a48eb3	add	x29,x9,x26	  x9:0x80000000 x26:0x00000001 x29=0x80000001
       37935000	      3792	80004fd8	745bf437	lui	x8,0x745bf	  x8=0x745bf000
       37945000	      3793	80004fdc	40245f93	srai	x31,x8,0x2	  x8:0x745bf000 x31=0x1d16fc00
       37955000	      3794	80004fe0	1e48ae13	slti	x28,x17,484	 x17:0xcc1adf48 x28=0x00000001
       37965000	      3795	80004fe4	3c13c8b7	lui	x17,0x3c13c	 x17=0x3c13c000
       37975000	      3796	80004fe8	401fd5b3	sra	x11,x31,x1	 x31:0x1d16fc00  x1:0xfffff098 x11=0x0000001d
       37985000	      3797	80004fec	41a98433	sub	x8,x19,x26	 x19:0x00000001 x26:0x00000001  x8=0x00000000
       37995000	      3798	80004ff0	00588033	add	x0,x17,x5	 x17:0x3c13c000  x5:0x7407f000
       38005000	      3799	80004ff4	48d82a93	slti	x21,x16,1165	 x16:0xefaf1000 x21=0x00000001
       38015000	      3800	80004ff8	02950e63	beq	x10,x9,80005034	 x10:0xa82d4000  x9:0x80000000
       38025000	      3801	80004ffc	e233ed93	ori	x27,x7,-477	  x7:0x3d142dcc x27=0xffffffef
       38035000	      3802	80005000	01d0e4b3	or	x9,x1,x29	  x1:0xfffff098 x29:0x80000001  x9=0xfffff099
       38045000	      3803	80005004	4011de33	sra	x28,x3,x1	  x3:0x00000001  x1:0xfffff098 x28=0x00000000
       38055000	      3804	80005008	b467f813	andi	x16,x15,-1210	 x15:0x80009fc4 x16=0x80009b44
       38065000	      3805	8000500c	000eb833	sltu	x16,x29,x0	 x29:0x80000001  x0:0x00000000 x16=0x00000000
       38075000	      3806	80005010	593cf913	andi	x18,x25,1427	 x25:0x80009ef8 x18=0x00000490
       38085000	      3807	80005014	166099b7	lui	x19,0x16609	 x19=0x16609000
       38095000	      3808	80005018	00000013	addi	x0,x0,0	  x0:0x00000000
       38105000	      3809	8000501c	ebc714b7	lui	x9,0xebc71	  x9=0xebc71000
       38115000	      3810	80005020	00d7e663	bltu	x15,x13,8000502c	 x15:0x80009fc4 x13:0xaa8dd096
       38125000	      3811	00000000	00000013	addi	x0,x0,0	  x0:0x00000000
       38135000	      3812	80005028	00000013	addi	x0,x0,0	  x0:0x00000000
       38145000	      3813	8000502c	40d205b3	sub	x11,x4,x13	  x4:0x00000800 x13:0xaa8dd096 x11=0x5572376a
       38155000	      3814	80005030	04f5f863	bgeu	x11,x15,80005080	 x11:0x5572376a x15:0x80009fc4
       38165000	      3815	80005034	02a71663	bne	x14,x10,80005060	 x14:0x00000000 x10:0xa82d4000
       38175000	      3816	00000000	00000013	addi	x0,x0,0	  x0:0x00000000
       38185000	      3817	8000505c	00000013	addi	x0,x0,0	  x0:0x00000000
       38195000	      3818	80005060	0028a233	slt	x4,x17,x2	 x17:0x3c13c000  x2:0xaa8dd69f  x4=0x00000000
       38205000	      3819	80005064	98a68313	addi	x6,x13,-1654	 x13:0xaa8dd096  x6=0xaa8dca20
       38215000	      3820	80005068	00000013	addi	x0,x0,0	  x0:0x00000000
       38225000	      3821	8000506c	41d880b3	sub	x1,x17,x29	 x17:0x3c13c000 x29:0x80000001  x1=0xbc13bfff
       38235000	      3822	80005070	663d0737	lui	x14,0x663d0	 x14=0x663d0000
       38245000	      3823	80005074	00dec863	blt	x29,x13,80005084	 x29:0x80000001 x13:0xaa8dd096
       38255000	      3824	00000000	00000013	addi	x0,x0,0	  x0:0x00000000
       38265000	      3825	80005080	00000013	addi	x0,x0,0	  x0:0x00000000
       38275000	      3826	80005084	01161493	slli	x9,x12,0x11	 x12:0x00000001  x9=0x00020000
       38285000	      3827	80005088	016ad663	bge	x21,x22,80005094	 x21:0x00000001 x22:0xa8fffff9
       38295000	      3828	00000000	00000013	addi	x0,x0,0	  x0:0x00000000
       38305000	      3829	80005090	00000013	addi	x0,x0,0	  x0:0x00000000
       38315000	      3830	80005094	009bdb93	srli	x23,x23,0x9	 x23:0x00000006 x23=0x00000000
       38325000	      3831	80005098	41c15713	srai	x14,x2,0x1c	  x2:0xaa8dd69f x14=0xfffffffa
       38335000	      3832	8000509c	01acce63	blt	x25,x26,800050b8	 x25:0x80009ef8 x26:0x00000001
       38345000	      3833	00000000	00000013	addi	x0,x0,0	  x0:0x00000000
       38355000	      3834	800050b4	00000013	addi	x0,x0,0	  x0:0x00000000
       38365000	      3835	800050b8	01532d33	slt	x26,x6,x21	  x6:0xaa8dca20 x21:0x00000001 x26=0x00000001
       38375000	      3836	800050bc	0f690a63	beq	x18,x22,800051b0	 x18:0x00000490 x22:0xa8fffff9
       38385000	      3837	800050c0	ebda0193	addi	x3,x20,-323	 x20:0x000001e8  x3=0x000000a5
       38395000	      3838	800050c4	01e21913	slli	x18,x4,0x1e	  x4:0x00000000 x18=0x00000000
       38405000	      3839	800050c8	00004917	auipc	x18,0x4	 x18=0x800090c4
       38415000	      3840	800050cc	f0790913	addi	x18,x18,-249	 x18:0x800090c4 x18=0x80008fcb
       38425000	      3841	800050d0	40b48bb3	sub	x23,x9,x11	  x9:0x00020000 x11:0x5572376a x23=0xaa8fc896
       38435000	      3842	800050d4	01fa1b33	sll	x22,x20,x31	 x20:0x000001e8 x31:0x1d16fc00 x22=0x000001e8
       38445000	      3843	800050d8	fd195583	lhu	x11,-47(x18)	 x18:0x80008fcb x11=0x0000b052 PA:0x80008f9c
       38455000	      3844	800050dc	fe990b23	sb	x9,-10(x18)	 x18:0x80008fcb  x9:0x00020000 PA:0x80008fc1
       38465000	      3845	800050e0	00000013	addi	x0,x0,0	  x0:0x00000000
       38475000	      3846	800050e4	4123dd93	srai	x27,x7,0x12	  x7:0x3d142dcc x27=0x00000f45
       38485000	      3847	800050e8	018ac4b3	xor	x9,x21,x24	 x21:0x00000001 x24:0xff23d7bd  x9=0xff23d7bc
       38495000	      3848	800050ec	016ee733	or	x14,x29,x22	 x29:0x80000001 x22:0x000001e8 x14=0x800001e9
       38505000	      3849	800050f0	f47904a3	sb	x7,-183(x18)	 x18:0x80008fcb  x7:0x3d142dcc PA:0x80008f14
       38515000	      3850	800050f4	00de3233	sltu	x4,x28,x13	 x28:0x00000000 x13:0xaa8dd096  x4=0x00000001
       38525000	      3851	800050f8	00465b13	srli	x22,x12,0x4	 x12:0x00000001 x22=0x00000000
       38535000	      3852	800050fc	fca919a3	sh	x10,-45(x18)	 x18:0x80008fcb x10:0xa82d4000 PA:0x80008f9e
       38545000	      3853	80005100	01794303	lbu	x6,23(x18)	 x18:0x80008fcb  x6=0x000000e0 PA:0x80008fe2
       38555000	      3854	80005104	01241b13	slli	x22,x8,0x12	  x8:0x00000000 x22=0x00000000
       38565000	      3855	80005108	015e5733	srl	x14,x28,x21	 x28:0x00000000 x21:0x00000001 x14=0x00000000
       38575000	      3856	8000510c	fbd92b83	lw	x23,-67(x18)	 x18:0x80008fcb x23=0x3de4a1d0 PA:0x80008f88
       38585000	      3857	80005110	fc290423	sb	x2,-56(x18)	 x18:0x80008fcb  x2:0xaa8dd69f PA:0x80008f93
       38595000	      3858	80005114	ff890583	lb	x11,-8(x18)	 x18:0x80008fcb x11=0xfffffff9 PA:0x80008fc3
       38605000	      3859	80005118	f88901a3	sb	x8,-125(x18)	 x18:0x80008fcb  x8:0x00000000 PA:0x80008f4e
       38615000	      3860	8000511c	ff391b03	lh	x22,-13(x18)	 x18:0x80008fcb x22=0xffffd1a7 PA:0x80008fbe
       38625000	      3861	80005120	00342ab3	slt	x21,x8,x3	  x8:0x00000000  x3:0x000000a5 x21=0x00000001
       38635000	      3862	80005124	f8d94483	lbu	x9,-115(x18)	 x18:0x80008fcb  x9=0x000000ba PA:0x80008f58
       38645000	      3863	80005128	f50918a3	sh	x16,-175(x18)	 x18:0x80008fcb x16:0x00000000 PA:0x80008f1c
       38655000	      3864	8000512c	00000013	addi	x0,x0,0	  x0:0x00000000
       38665000	      3865	80005130	01090d03	lb	x26,16(x18)	 x18:0x80008fcb x26=0x0000003e PA:0x80008fdb
       38675000	      3866	80005134	002c9f33	sll	x30,x25,x2	 x25:0x80009ef8  x2:0xaa8dd69f x30=0x00000000
       38685000	      3867	80005138	fa090583	lb	x11,-96(x18)	 x18:0x80008fcb x11=0x00000044 PA:0x80008f6b
       38695000	      3868	8000513c	fd090aa3	sb	x16,-43(x18)	 x18:0x80008fcb x16:0x00000000 PA:0x80008fa0
       38705000	      3869	80005140	f4a90483	lb	x9,-182(x18)	 x18:0x80008fcb  x9=0xffffffa7 PA:0x80008f15
       38715000	      3870	80005144	f5c94a03	lbu	x20,-164(x18)	 x18:0x80008fcb x20=0x00000090 PA:0x80008f27
       38725000	      3871	80005148	00f99e13	slli	x28,x19,0xf	 x19:0x16609000 x28=0x48000000
       38735000	      3872	8000514c	f4b90403	lb	x8,-181(x18)	 x18:0x80008fcb  x8=0x00000006 PA:0x80008f16
       38745000	      3873	80005150	f5c90203	lb	x4,-164(x18)	 x18:0x80008fcb  x4=0xffffff90 PA:0x80008f27
       38755000	      3874	80005154	f7d95203	lhu	x4,-131(x18)	 x18:0x80008fcb  x4=0x00009a37 PA:0x80008f48
       38765000	      3875	80005158	faf92ea3	sw	x15,-67(x18)	 x18:0x80008fcb x15:0x80009fc4 PA:0x80008f88
       38775000	      3876	8000515c	fad910a3	sh	x13,-95(x18)	 x18:0x80008fcb x13:0xaa8dd096 PA:0x80008f6c
       38785000	      3877	80005160	f3d92503	lw	x10,-195(x18)	 x18:0x80008fcb x10=0x8dc2bd4d PA:0x80008f08
       38795000	      3878	80005164	f1a912a3	sh	x26,-251(x18)	 x18:0x80008fcb x26:0x0000003e PA:0x80008ed0
       38805000	      3879	80005168	01090183	lb	x3,16(x18)	 x18:0x80008fcb  x3=0x0000003e PA:0x80008fdb
       38815000	      3880	8000516c	f8694d83	lbu	x27,-122(x18)	 x18:0x80008fcb x27=0x00000001 PA:0x80008f51
       38825000	      3881	80005170	1ebd6497	auipc	x9,0x1ebd6	  x9=0x9ebdb16c
       38835000	      3882	80005174	414d5e13	srai	x28,x26,0x14	 x26:0x0000003e x28=0x00000000
       38845000	      3883	80005178	034f0663	beq	x30,x20,800051a4	 x30:0x00000000 x20:0x00000090
       38855000	      3884	8000517c	04a69463	bne	x13,x10,800051c4	 x13:0xaa8dd096 x10:0x8dc2bd4d
       38865000	      3885	00000000	00000013	addi	x0,x0,0	  x0:0x00000000
       38875000	      3886	800051c0	00000013	addi	x0,x0,0	  x0:0x00000000
       38885000	      3887	800051c4	04e76863	bltu	x14,x14,80005214	 x14:0x00000000 x14:0x00000000
       38895000	      3888	800051c8	00a08c63	beq	x1,x10,800051e0	  x1:0xbc13bfff x10:0x8dc2bd4d
       38905000	      3889	800051cc	00000013	addi	x0,x0,0	  x0:0x00000000
       38915000	      3890	800051d0	e0314993	xori	x19,x2,-509	  x2:0xaa8dd69f x19=0x5572289c
       38925000	      3891	800051d4	01cd7533	and	x10,x26,x28	 x26:0x0000003e x28:0x00000000 x10=0x00000000
       38935000	      3892	800051d8	43f50d93	addi	x27,x10,1087	 x10:0x00000000 x27=0x0000043f
       38945000	      3893	800051dc	76438b13	addi	x22,x7,1892	  x7:0x3d142dcc x22=0x3d143530
       38955000	      3894	800051e0	40528c33	sub	x24,x5,x5	  x5:0x7407f000  x5:0x7407f000 x24=0x00000000
       38965000	      3895	800051e4	415c0a33	sub	x20,x24,x21	 x24:0x00000000 x21:0x00000001 x20=0xffffffff
       38975000	      3896	800051e8	02a4f263	bgeu	x9,x10,8000520c	  x9:0x9ebdb16c x10:0x00000000
       38985000	      3897	00000000	00000013	addi	x0,x0,0	  x0:0x00000000
       38995000	      3898	80005208	00000013	addi	x0,x0,0	  x0:0x00000000
       39005000	      3899	8000520c	41338e33	sub	x28,x7,x19	  x7:0x3d142dcc x19:0x5572289c x28=0xe7a20530
       39015000	      3900	80005210	00000013	addi	x0,x0,0	  x0:0x00000000
       39025000	      3901	80005214	01c90db3	add	x27,x18,x28	 x18:0x80008fcb x28:0xe7a20530 x27=0x67a294fb
       39035000	      3902	80005218	414bd613	srai	x12,x23,0x14	 x23:0x3de4a1d0 x12=0x000003de
       39045000	      3903	8000521c	00000013	addi	x0,x0,0	  x0:0x00000000
       39055000	      3904	80005220	048cd663	bge	x25,x8,8000526c	 x25:0x80009ef8  x8:0x00000006
       39065000	      3905	80005224	c5632993	slti	x19,x6,-938	  x6:0x000000e0 x19=0x00000000
       39075000	      3906	80005228	010dd733	srl	x14,x27,x16	 x27:0x67a294fb x16:0x00000000 x14=0x67a294fb
       39085000	      3907	8000522c	01e094b3	sll	x9,x1,x30	  x1:0xbc13bfff x30:0x00000000  x9=0xbc13bfff
       39095000	      3908	80005230	13ab6393	ori	x7,x22,314	 x22:0x3d143530  x7=0x3d14353a
       39105000	      3909	80005234	01c7f4b3	and	x9,x15,x28	 x15:0x80009fc4 x28:0xe7a20530  x9=0x80000500
       39115000	      3910	80005238	00000013	addi	x0,x0,0	  x0:0x00000000
       39125000	      3911	8000523c	0067ec63	bltu	x15,x6,80005254	 x15:0x80009fc4  x6:0x000000e0
       39135000	      3912	80005240	69dbcfb7	lui	x31,0x69dbc	 x31=0x69dbc000
       39145000	      3913	80005244	41f55e93	srai	x29,x10,0x1f	 x10:0x00000000 x29=0x00000000
       39155000	      3914	80005248	012cb233	sltu	x4,x25,x18	 x25:0x80009ef8 x18:0x80008fcb  x4=0x00000000
       39165000	      3915	8000524c	00000013	addi	x0,x0,0	  x0:0x00000000
       39175000	      3916	80005250	003f1193	slli	x3,x30,0x3	 x30:0x00000000  x3=0x00000000
       39185000	      3917	80005254	417dd5b3	sra	x11,x27,x23	 x27:0x67a294fb x23:0x3de4a1d0 x11=0x000067a2
       39195000	      3918	80005258	000c0863	beq	x24,x0,80005268	 x24:0x00000000  x0:0x00000000
       39205000	      3919	00000000	00000013	addi	x0,x0,0	  x0:0x00000000
       39215000	      3920	80005264	00000013	addi	x0,x0,0	  x0:0x00000000
       39225000	      3921	80005268	01b3e6b3	or	x13,x7,x27	  x7:0x3d14353a x27:0x67a294fb x13=0x7fb6b5fb
       39235000	      3922	8000526c	00151463	bne	x10,x1,80005274	 x10:0x00000000  x1:0xbc13bfff
       39245000	      3923	00000000	00000013	addi	x0,x0,0	  x0:0x00000000
       39255000	      3924	80005270	00000013	addi	x0,x0,0	  x0:0x00000000
       39265000	      3925	80005274	005c9933	sll	x18,x25,x5	 x25:0x80009ef8  x5:0x7407f000 x18=0x80009ef8
       39275000	      3926	80005278	00a972b3	and	x5,x18,x10	 x18:0x80009ef8 x10:0x00000000  x5=0x00000000
       39285000	      3927	8000527c	00000013	addi	x0,x0,0	  x0:0x00000000
       39295000	      3928	80005280	01e6d5b3	srl	x11,x13,x30	 x13:0x7fb6b5fb x30:0x00000000 x11=0x7fb6b5fb
       39305000	      3929	80005284	00d4db13	srli	x22,x9,0xd	  x9:0x80000500 x22=0x00040000
       39315000	      3930	80005288	00f59733	sll	x14,x11,x15	 x11:0x7fb6b5fb x15:0x80009fc4 x14=0xfb6b5fb0
       39325000	      3931	8000528c	03a58663	beq	x11,x26,800052b8	 x11:0x7fb6b5fb x26:0x0000003e
       39335000	      3932	80005290	006dfa33	and	x20,x27,x6	 x27:0x67a294fb  x6:0x000000e0 x20=0x000000e0
       39345000	      3933	80005294	0293c863	blt	x7,x9,800052c4	  x7:0x3d14353a  x9:0x80000500
       39355000	      3934	80005298	01bebbb3	sltu	x23,x29,x27	 x29:0x00000000 x27:0x67a294fb x23=0x00000001
       39365000	      3935	8000529c	026dc293	xori	x5,x27,38	 x27:0x67a294fb  x5=0x67a294dd
       39375000	      3936	800052a0	041e0863	beq	x28,x1,800052f0	 x28:0xe7a20530  x1:0xbc13bfff
       39385000	      3937	800052a4	5876bd13	sltiu	x26,x13,1415	 x13:0x7fb6b5fb x26=0x00000000
       39395000	      3938	800052a8	016f4293	xori	x5,x30,22	 x30:0x00000000  x5=0x00000016
       39405000	      3939	800052ac	40f70933	sub	x18,x14,x15	 x14:0xfb6b5fb0 x15:0x80009fc4 x18=0x7b6abfec
       39415000	      3940	800052b0	f3347737	lui	x14,0xf3347	 x14=0xf3347000
       39425000	      3941	800052b4	40cb5913	srai	x18,x22,0xc	 x22:0x00040000 x18=0x00000040
       39435000	      3942	800052b8	05984063	blt	x16,x25,800052f8	 x16:0x00000000 x25:0x80009ef8
       39445000	      3943	800052bc	01b0eb33	or	x22,x1,x27	  x1:0xbc13bfff x27:0x67a294fb x22=0xffb3bfff
       39455000	      3944	800052c0	8b99a813	slti	x16,x19,-1863	 x19:0x00000000 x16=0x00000000
       39465000	      3945	800052c4	0093f663	bgeu	x7,x9,800052d0	  x7:0x3d14353a  x9:0x80000500
       39475000	      3946	800052c8	0314fe63	bgeu	x9,x17,80005304	  x9:0x80000500 x17:0x3c13c000
       39485000	      3947	00000000	00000013	addi	x0,x0,0	  x0:0x00000000
       39495000	      3948	80005300	00000013	addi	x0,x0,0	  x0:0x00000000
       39505000	      3949	80005304	026f8663	beq	x31,x6,80005330	 x31:0x69dbc000  x6:0x000000e0
       39515000	      3950	80005308	41592e37	lui	x28,0x41592	 x28=0x41592000
       39525000	      3951	8000530c	00000013	addi	x0,x0,0	  x0:0x00000000
       39535000	      3952	80005310	014b7b33	and	x22,x22,x20	 x22:0xffb3bfff x20:0x000000e0 x22=0x000000e0
       39545000	      3953	80005314	02e47663	bgeu	x8,x14,80005340	  x8:0x00000006 x14:0xf3347000
       39555000	      3954	80005318	0129a8b3	slt	x17,x19,x18	 x19:0x00000000 x18:0x00000040 x17=0x00000001
       39565000	      3955	8000531c	011a3eb3	sltu	x29,x20,x17	 x20:0x000000e0 x17:0x00000001 x29=0x00000000
       39575000	      3956	80005320	4294d337	lui	x6,0x4294d	  x6=0x4294d000
       39585000	      3957	80005324	40275613	srai	x12,x14,0x2	 x14:0xf3347000 x12=0xfccd1c00
       39595000	      3958	80005328	053d7663	bgeu	x26,x19,80005374	 x26:0x00000000 x19:0x00000000
       39605000	      3959	00000000	00000013	addi	x0,x0,0	  x0:0x00000000
       39615000	      3960	80005370	00000013	addi	x0,x0,0	  x0:0x00000000
       39625000	      3961	80005374	01bef1b3	and	x3,x29,x27	 x29:0x00000000 x27:0x67a294fb  x3=0x00000000
       39635000	      3962	80005378	018f4833	xor	x16,x30,x24	 x30:0x00000000 x24:0x00000000 x16=0x00000000
       39645000	      3963	8000537c	01d953b3	srl	x7,x18,x29	 x18:0x00000040 x29:0x00000000  x7=0x00000040
       39655000	      3964	80005380	4f280293	addi	x5,x16,1266	 x16:0x00000000  x5=0x000004f2
       39665000	      3965	80005384	0007d1b3	srl	x3,x15,x0	 x15:0x80009fc4  x0:0x00000000  x3=0x80009fc4
       39675000	      3966	80005388	33764fb7	lui	x31,0x33764	 x31=0x33764000
       39685000	      3967	8000538c	01947663	bgeu	x8,x25,80005398	  x8:0x00000006 x25:0x80009ef8
       39695000	      3968	80005390	00d66333	or	x6,x12,x13	 x12:0xfccd1c00 x13:0x7fb6b5fb  x6=0xffffbdfb
       39705000	      3969	80005394	00369713	slli	x14,x13,0x3	 x13:0x7fb6b5fb x14=0xfdb5afd8
       39715000	      3970	80005398	52e4b8b7	lui	x17,0x52e4b	 x17=0x52e4b000
       39725000	      3971	8000539c	89698d13	addi	x26,x19,-1898	 x19:0x00000000 x26=0xfffff896
       39735000	      3972	800053a0	00b29d33	sll	x26,x5,x11	  x5:0x000004f2 x11:0x7fb6b5fb x26=0x90000000
       39745000	      3973	800053a4	0188a9b3	slt	x19,x17,x24	 x17:0x52e4b000 x24:0x00000000 x19=0x00000000
       39755000	      3974	800053a8	b6eb6293	ori	x5,x22,-1170	 x22:0x000000e0  x5=0xfffffbee
       39765000	      3975	800053ac	004a8a33	add	x20,x21,x4	 x21:0x00000001  x4:0x00000000 x20=0x00000001
       39775000	      3976	800053b0	07c94313	xori	x6,x18,124	 x18:0x00000040  x6=0x0000003c
       39785000	      3977	800053b4	7f457c13	andi	x24,x10,2036	 x10:0x00000000 x24=0x00000000
       39795000	      3978	800053b8	3ee6a993	slti	x19,x13,1006	 x13:0x7fb6b5fb x19=0x00000000
       39805000	      3979	800053bc	40a75293	srai	x5,x14,0xa	 x14:0xfdb5afd8  x5=0xffff6d6b
       39815000	      3980	800053c0	38f4a993	slti	x19,x9,911	  x9:0x80000500 x19=0x00000001
       39825000	      3981	800053c4	01ceee33	or	x28,x29,x28	 x29:0x00000000 x28:0x41592000 x28=0x41592000
       39835000	      3982	800053c8	f5e42e13	slti	x28,x8,-162	  x8:0x00000006 x28=0x00000000
       39845000	      3983	800053cc	01171e93	slli	x29,x14,0x11	 x14:0xfdb5afd8 x29=0x5fb00000
       39855000	      3984	800053d0	00000013	addi	x0,x0,0	  x0:0x00000000
       39865000	      3985	800053d4	40d359b3	sra	x19,x6,x13	  x6:0x0000003c x13:0x7fb6b5fb x19=0x00000000
       39875000	      3986	800053d8	299d2593	slti	x11,x26,665	 x26:0x90000000 x11=0x00000001
       39885000	      3987	800053dc	95aa3b13	sltiu	x22,x20,-1702	 x20:0x00000001 x22=0x00000001
       39895000	      3988	800053e0	01f11233	sll	x4,x2,x31	  x2:0xaa8dd69f x31:0x33764000  x4=0xaa8dd69f
       39905000	      3989	800053e4	01c91a63	bne	x18,x28,800053f8	 x18:0x00000040 x28:0x00000000
       39915000	      3990	00000000	00000013	addi	x0,x0,0	  x0:0x00000000
       39925000	      3991	800053f4	00000013	addi	x0,x0,0	  x0:0x00000000
       39935000	      3992	800053f8	414d0033	sub	x0,x26,x20	 x26:0x90000000 x20:0x00000001
       39945000	      3993	800053fc	01b096b3	sll	x13,x1,x27	  x1:0xbc13bfff x27:0x67a294fb x13=0xf8000000
       39955000	      3994	80005400	00ec5333	srl	x6,x24,x14	 x24:0x00000000 x14:0xfdb5afd8  x6=0x00000000
       39965000	      3995	80005404	01895663	bge	x18,x24,80005410	 x18:0x00000040 x24:0x00000000
       39975000	      3996	00000000	00000013	addi	x0,x0,0	  x0:0x00000000
       39985000	      3997	8000540c	00000013	addi	x0,x0,0	  x0:0x00000000
       39995000	      3998	80005410	01e7f8b3	and	x17,x15,x30	 x15:0x80009fc4 x30:0x00000000 x17=0x00000000
       40005000	      3999	80005414	00f654b3	srl	x9,x12,x15	 x12:0xfccd1c00 x15:0x80009fc4  x9=0x0fccd1c0
       40015000	      4000	80005418	04b3e063	bltu	x7,x11,80005458	  x7:0x00000040 x11:0x00000001
       40025000	      4001	8000541c	b158b597	auipc	x11,0xb158b	 x11=0x31590418
       40035000	      4002	80005420	4dbdf193	andi	x3,x27,1243	 x27:0x67a294fb  x3=0x000004db
       40045000	      4003	80005424	01774c63	blt	x14,x23,8000543c	 x14:0xfdb5afd8 x23:0x00000001
       40055000	      4004	00000000	00000013	addi	x0,x0,0	  x0:0x00000000
       40065000	      4005	80005438	00000013	addi	x0,x0,0	  x0:0x00000000
       40075000	      4006	8000543c	4d5cca93	xori	x21,x25,1237	 x25:0x80009ef8 x21=0x80009a2d
       40085000	      4007	80005440	41575ab3	sra	x21,x14,x21	 x14:0xfdb5afd8 x21:0x80009a2d x21=0xffffedad
       40095000	      4008	80005444	004e49b3	xor	x19,x28,x4	 x28:0x00000000  x4:0xaa8dd69f x19=0xaa8dd69f
       40105000	      4009	80005448	41cc5893	srai	x17,x24,0x1c	 x24:0x00000000 x17=0x00000000
       40115000	      4010	8000544c	027f0f13	addi	x30,x30,39	 x30:0x00000000 x30=0x00000027
       40125000	      4011	80005450	01d11413	slli	x8,x2,0x1d	  x2:0xaa8dd69f  x8=0xe0000000
       40135000	      4012	80005454	012dc463	blt	x27,x18,8000545c	 x27:0x67a294fb x18:0x00000040
       40145000	      4013	80005458	00000013	addi	x0,x0,0	  x0:0x00000000
       40155000	      4014	8000545c	04df8063	beq	x31,x13,8000549c	 x31:0x33764000 x13:0xf8000000
       40165000	      4015	80005460	01a9d663	bge	x19,x26,8000546c	 x19:0xaa8dd69f x26:0x90000000
       40175000	      4016	00000000	00000013	addi	x0,x0,0	  x0:0x00000000
       40185000	      4017	80005468	00000013	addi	x0,x0,0	  x0:0x00000000
       40195000	      4018	8000546c	1422a393	slti	x7,x5,322	  x5:0xffff6d6b  x7=0x00000001
       40205000	      4019	80005470	00fd3533	sltu	x10,x26,x15	 x26:0x90000000 x15:0x80009fc4 x10=0x00000000
       40215000	      4020	80005474	01f8da63	bge	x17,x31,80005488	 x17:0x00000000 x31:0x33764000
       40225000	      4021	80005478	76330d13	addi	x26,x6,1891	  x6:0x00000000 x26=0x00000763
       40235000	      4022	8000547c	401d5513	srai	x10,x26,0x1	 x26:0x00000763 x10=0x000003b1
       40245000	      4023	80005480	1b81f593	andi	x11,x3,440	  x3:0x000004db x11=0x00000098
       40255000	      4024	80005484	77564a13	xori	x20,x12,1909	 x12:0xfccd1c00 x20=0xfccd1b75
       40265000	      4025	80005488	0072f633	and	x12,x5,x7	  x5:0xffff6d6b  x7:0x00000001 x12=0x00000001
       40275000	      4026	8000548c	e704ca93	xori	x21,x9,-400	  x9:0x0fccd1c0 x21=0xf0332fb0
       40285000	      4027	80005490	00009c33	sll	x24,x1,x0	  x1:0xbc13bfff  x0:0x00000000 x24=0xbc13bfff
       40295000	      4028	80005494	005819b3	sll	x19,x16,x5	 x16:0x00000000  x5:0xffff6d6b x19=0x00000000
       40305000	      4029	80005498	6b5d8213	addi	x4,x27,1717	 x27:0x67a294fb  x4=0x67a29bb0
       40315000	      4030	8000549c	0198da13	srli	x20,x17,0x19	 x17:0x00000000 x20=0x00000000
       40325000	      4031	800054a0	f2158993	addi	x19,x11,-223	 x11:0x00000098 x19=0xffffffb9
       40335000	      4032	800054a4	40ce5c13	srai	x24,x28,0xc	 x28:0x00000000 x24=0x00000000
       40345000	      4033	800054a8	4035d913	srai	x18,x11,0x3	 x11:0x00000098 x18=0x00000013
       40355000	      4034	800054ac	e7f53e13	sltiu	x28,x10,-385	 x10:0x000003b1 x28=0x00000001
       40365000	      4035	800054b0	051f7863	bgeu	x30,x17,80005500	 x30:0x00000027 x17:0x00000000
       40375000	      4036	00000000	00000013	addi	x0,x0,0	  x0:0x00000000
       40385000	      4037	800054fc	00000013	addi	x0,x0,0	  x0:0x00000000
       40395000	      4038	80005500	019fa8b3	slt	x17,x31,x25	 x31:0x33764000 x25:0x80009ef8 x17=0x00000000
       40405000	      4039	80005504	00c85733	srl	x14,x16,x12	 x16:0x00000000 x12:0x00000001 x14=0x00000000
       40415000	      4040	80005508	034d1663	bne	x26,x20,80005534	 x26:0x00000763 x20:0x00000000
       40425000	      4041	00000000	00000013	addi	x0,x0,0	  x0:0x00000000
       40435000	      4042	80005530	00000013	addi	x0,x0,0	  x0:0x00000000
       40445000	      4043	80005534	00454ab3	xor	x21,x10,x4	 x10:0x000003b1  x4:0x67a29bb0 x21=0x67a29801
       40455000	      4044	80005538	013e16b3	sll	x13,x28,x19	 x28:0x00000001 x19:0xffffffb9 x13=0x02000000
       40465000	      4045	8000553c	00bb34b3	sltu	x9,x22,x11	 x22:0x00000001 x11:0x00000098  x9=0x00000001
       40475000	      4046	80005540	00972b33	slt	x22,x14,x9	 x14:0x00000000  x9:0x00000001 x22=0x00000001
       40485000	      4047	80005544	0012b633	sltu	x12,x5,x1	  x5:0xffff6d6b  x1:0xbc13bfff x12=0x00000000
       40495000	      4048	80005548	04df7663	bgeu	x30,x13,80005594	 x30:0x00000027 x13:0x02000000
       40505000	      4049	8000554c	e7b28e13	addi	x28,x5,-389	  x5:0xffff6d6b x28=0xffff6be6
       40515000	      4050	80005550	1019ec13	ori	x24,x19,257	 x19:0xffffffb9 x24=0xffffffb9
       40525000	      4051	80005554	01c10f33	add	x30,x2,x28	  x2:0xaa8dd69f x28:0xffff6be6 x30=0xaa8d4285
       40535000	      4052	80005558	01ee52b3	srl	x5,x28,x30	 x28:0xffff6be6 x30:0xaa8d4285  x5=0x07fffb5f
       40545000	      4053	8000555c	40d5dab3	sra	x21,x11,x13	 x11:0x00000098 x13:0x02000000 x21=0x00000098
       40555000	      4054	80005560	402ad6b3	sra	x13,x21,x2	 x21:0x00000098  x2:0xaa8dd69f x13=0x00000000
       40565000	      4055	80005564	01b29463	bne	x5,x27,8000556c	  x5:0x07fffb5f x27:0x67a294fb
       40575000	      4056	00000000	00000013	addi	x0,x0,0	  x0:0x00000000
       40585000	      4057	80005568	00000013	addi	x0,x0,0	  x0:0x00000000
       40595000	      4058	8000556c	40f85e13	srai	x28,x16,0xf	 x16:0x00000000 x28=0x00000000
       40605000	      4059	80005570	b9e4fe13	andi	x28,x9,-1122	  x9:0x00000001 x28=0x00000000
       40615000	      4060	80005574	a029ed93	ori	x27,x19,-1534	 x19:0xffffffb9 x27=0xffffffbb
       40625000	      4061	80005578	01c0d493	srli	x9,x1,0x1c	  x1:0xbc13bfff  x9=0x0000000b
       40635000	      4062	8000557c	0195b9b3	sltu	x19,x11,x25	 x11:0x00000098 x25:0x80009ef8 x19=0x00000001
       40645000	      4063	80005580	40c4d593	srai	x11,x9,0xc	  x9:0x0000000b x11=0x00000000
       40655000	      4064	80005584	004aad33	slt	x26,x21,x4	 x21:0x00000098  x4:0x67a29bb0 x26=0x00000001
       40665000	      4065	80005588	01130733	add	x14,x6,x17	  x6:0x00000000 x17:0x00000000 x14=0x00000000
       40675000	      4066	8000558c	0065a533	slt	x10,x11,x6	 x11:0x00000000  x6:0x00000000 x10=0x00000000
       40685000	      4067	80005590	90843f17	auipc	x30,0x90843	 x30=0x1084858c
       40695000	      4068	80005594	de9c3813	sltiu	x16,x24,-535	 x24:0xffffffb9 x16=0x00000000
       40705000	      4069	80005598	019793b3	sll	x7,x15,x25	 x15:0x80009fc4 x25:0x80009ef8  x7=0xc4000000
       40715000	      4070	8000559c	014f5bb3	srl	x23,x30,x20	 x30:0x1084858c x20:0x00000000 x23=0x1084858c
       40725000	      4071	800055a0	014b1fb3	sll	x31,x22,x20	 x22:0x00000001 x20:0x00000000 x31=0x00000001
       40735000	      4072	800055a4	00c8b3b3	sltu	x7,x17,x12	 x17:0x00000000 x12:0x00000000  x7=0x00000000
       40745000	      4073	800055a8	02828663	beq	x5,x8,800055d4	  x5:0x07fffb5f  x8:0xe0000000
       40755000	      4074	800055ac	01d2de63	bge	x5,x29,800055c8	  x5:0x07fffb5f x29:0x5fb00000
       40765000	      4075	800055b0	00f89213	slli	x4,x17,0xf	 x17:0x00000000  x4=0x00000000
       40775000	      4076	800055b4	254e00b7	lui	x1,0x254e0	  x1=0x254e0000
       40785000	      4077	800055b8	05937863	bgeu	x6,x25,80005608	  x6:0x00000000 x25:0x80009ef8
       40795000	      4078	800055bc	00edd013	srli	x0,x27,0xe	 x27:0xffffffbb
       40805000	      4079	800055c0	4d9c8893	addi	x17,x25,1241	 x25:0x80009ef8 x17=0x8000a3d1
       40815000	      4080	800055c4	00619f33	sll	x30,x3,x6	  x3:0x000004db  x6:0x00000000 x30=0x000004db
       40825000	      4081	800055c8	133f2a13	slti	x20,x30,307	 x30:0x000004db x20=0x00000000
       40835000	      4082	800055cc	190c6193	ori	x3,x24,400	 x24:0xffffffb9  x3=0xffffffb9
       40845000	      4083	800055d0	00e8f533	and	x10,x17,x14	 x17:0x8000a3d1 x14:0x00000000 x10=0x00000000
       40855000	      4084	800055d4	014dfc33	and	x24,x27,x20	 x27:0xffffffbb x20:0x00000000 x24=0x00000000
       40865000	      4085	800055d8	00aa70b3	and	x1,x20,x10	 x20:0x00000000 x10:0x00000000  x1=0x00000000
       40875000	      4086	800055dc	015ac1b3	xor	x3,x21,x21	 x21:0x00000098 x21:0x00000098  x3=0x00000000
       40885000	      4087	800055e0	05c4e663	bltu	x9,x28,8000562c	  x9:0x0000000b x28:0x00000000
       40895000	      4088	800055e4	001a6a33	or	x20,x20,x1	 x20:0x00000000  x1:0x00000000 x20=0x00000000
       40905000	      4089	800055e8	41708fb3	sub	x31,x1,x23	  x1:0x00000000 x23:0x1084858c x31=0xef7b7a74
       40915000	      4090	800055ec	8e5c8f97	auipc	x31,0x8e5c8	 x31=0x0e5cd5e8
       40925000	      4091	800055f0	01fd3b33	sltu	x22,x26,x31	 x26:0x00000001 x31:0x0e5cd5e8 x22=0x00000001
       40935000	      4092	800055f4	03067863	bgeu	x12,x16,80005624	 x12:0x00000000 x16:0x00000000
       40945000	      4093	00000000	00000013	addi	x0,x0,0	  x0:0x00000000
       40955000	      4094	80005620	00000013	addi	x0,x0,0	  x0:0x00000000
       40965000	      4095	80005624	049a7663	bgeu	x20,x9,80005670	 x20:0x00000000  x9:0x0000000b
       40975000	      4096	80005628	40705313	srai	x6,x0,0x7	  x0:0x00000000  x6=0x00000000
       40985000	      4097	8000562c	393deb93	ori	x23,x27,915	 x27:0xffffffbb x23=0xffffffbb
       40995000	      4098	80005630	7abca493	slti	x9,x25,1963	 x25:0x80009ef8  x9=0x00000001
       41005000	      4099	80005634	011d5533	srl	x10,x26,x17	 x26:0x00000001 x17:0x8000a3d1 x10=0x00000000
       41015000	      4100	80005638	58a67d93	andi	x27,x12,1418	 x12:0x00000000 x27=0x00000000
       41025000	      4101	8000563c	0209e663	bltu	x19,x0,80005668	 x19:0x00000001  x0:0x00000000
       41035000	      4102	80005640	00041463	bne	x8,x0,80005648	  x8:0xe0000000  x0:0x00000000
       41045000	      4103	00000000	00000013	addi	x0,x0,0	  x0:0x00000000
       41055000	      4104	80005644	00000013	addi	x0,x0,0	  x0:0x00000000
       41065000	      4105	80005648	01171a63	bne	x14,x17,8000565c	 x14:0x00000000 x17:0x8000a3d1
       41075000	      4106	00000000	00000013	addi	x0,x0,0	  x0:0x00000000
       41085000	      4107	80005658	00000013	addi	x0,x0,0	  x0:0x00000000
       41095000	      4108	8000565c	9cb0cd17	auipc	x26,0x9cb0c	 x26=0x1cb11658
       41105000	      4109	80005660	01a2d0b3	srl	x1,x5,x26	  x5:0x07fffb5f x26:0x1cb11658  x1=0x00000007
       41115000	      4110	80005664	40c9dd33	sra	x26,x19,x12	 x19:0x00000001 x12:0x00000000 x26=0x00000001
       41125000	      4111	80005668	8c4b2093	slti	x1,x22,-1852	 x22:0x00000001  x1=0x00000000
       41135000	      4112	8000566c	019326b3	slt	x13,x6,x25	  x6:0x00000000 x25:0x80009ef8 x13=0x00000000
       41145000	      4113	80005670	01105fb3	srl	x31,x0,x17	  x0:0x00000000 x17:0x8000a3d1 x31=0x00000000
       41155000	      4114	80005674	41e8df13	srai	x30,x17,0x1e	 x17:0x8000a3d1 x30=0xfffffffe
       41165000	      4115	80005678	01dc5b93	srli	x23,x24,0x1d	 x24:0x00000000 x23=0x00000000
       41175000	      4116	8000567c	02ff1c63	bne	x30,x15,800056b4	 x30:0xfffffffe x15:0x80009fc4
       41185000	      4117	00000000	00000013	addi	x0,x0,0	  x0:0x00000000
       41195000	      4118	800056b0	00000013	addi	x0,x0,0	  x0:0x00000000
       41205000	      4119	800056b4	415882b3	sub	x5,x17,x21	 x17:0x8000a3d1 x21:0x00000098  x5=0x8000a339
       41215000	      4120	800056b8	01bd5e63	bge	x26,x27,800056d4	 x26:0x00000001 x27:0x00000000
       41225000	      4121	00000000	00000013	addi	x0,x0,0	  x0:0x00000000
       41235000	      4122	800056d0	00000013	addi	x0,x0,0	  x0:0x00000000
       41245000	      4123	800056d4	00a84eb3	xor	x29,x16,x10	 x16:0x00000000 x10:0x00000000 x29=0x00000000
       41255000	      4124	800056d8	508dc593	xori	x11,x27,1288	 x27:0x00000000 x11=0x00000508
       41265000	      4125	800056dc	aa520493	addi	x9,x4,-1371	  x4:0x00000000  x9=0xfffffaa5
       41275000	      4126	800056e0	f9d3f093	andi	x1,x7,-99	  x7:0x00000000  x1=0x00000000
       41285000	      4127	800056e4	00000013	addi	x0,x0,0	  x0:0x00000000
       41295000	      4128	800056e8	04590063	beq	x18,x5,80005728	 x18:0x00000013  x5:0x8000a339
       41305000	      4129	800056ec	91186c13	ori	x24,x16,-1775	 x16:0x00000000 x24=0xfffff911
       41315000	      4130	800056f0	01f2ddb3	srl	x27,x5,x31	  x5:0x8000a339 x31:0x00000000 x27=0x8000a339
       41325000	      4131	800056f4	01bcf333	and	x6,x25,x27	 x25:0x80009ef8 x27:0x8000a339  x6=0x80008238
       41335000	      4132	800056f8	013f4463	blt	x30,x19,80005700	 x30:0xfffffffe x19:0x00000001
       41345000	      4133	00000000	00000013	addi	x0,x0,0	  x0:0x00000000
       41355000	      4134	800056fc	00000013	addi	x0,x0,0	  x0:0x00000000
       41365000	      4135	80005700	9da80897	auipc	x17,0x9da80	 x17=0x1da856fc
       41375000	      4136	80005704	015a8633	add	x12,x21,x21	 x21:0x00000098 x21:0x00000098 x12=0x00000130
       41385000	      4137	80005708	c3817217	auipc	x4,0xc3817	  x4=0x4381c704
       41395000	      4138	8000570c	01c6ea63	bltu	x13,x28,80005720	 x13:0x00000000 x28:0x00000000
       41405000	      4139	80005710	40b1d193	srai	x3,x3,0xb	  x3:0x00000000  x3=0x00000000
       41415000	      4140	80005714	04fbd663	bge	x23,x15,80005760	 x23:0x00000000 x15:0x80009fc4
       41425000	      4141	00000000	00000013	addi	x0,x0,0	  x0:0x00000000
       41435000	      4142	8000575c	00000013	addi	x0,x0,0	  x0:0x00000000
       41445000	      4143	80005760	00c68e33	add	x28,x13,x12	 x13:0x00000000 x12:0x00000130 x28=0x00000130
       41455000	      4144	80005764	00792c33	slt	x24,x18,x7	 x18:0x00000013  x7:0x00000000 x24=0x00000000
       41465000	      4145	80005768	028f4863	blt	x30,x8,80005798	 x30:0xfffffffe  x8:0xe0000000
       41475000	      4146	8000576c	003ec233	xor	x4,x29,x3	 x29:0x00000000  x3:0x00000000  x4=0x00000000
       41485000	      4147	80005770	0223c463	blt	x7,x2,80005798	  x7:0x00000000  x2:0xaa8dd69f
       41495000	      4148	80005774	66572e93	slti	x29,x14,1637	 x14:0x00000000 x29=0x00000001
       41505000	      4149	80005778	bf5c0837	lui	x16,0xbf5c0	 x16=0xbf5c0000
       41515000	      4150	8000577c	00b41933	sll	x18,x8,x11	  x8:0xe0000000 x11:0x00000508 x18=0x00000000
       41525000	      4151	80005780	012d9a63	bne	x27,x18,80005794	 x27:0x8000a339 x18:0x00000000
       41535000	      4152	00000000	00000013	addi	x0,x0,0	  x0:0x00000000
       41545000	      4153	80005790	00000013	addi	x0,x0,0	  x0:0x00000000
       41555000	      4154	80005794	00000013	addi	x0,x0,0	  x0:0x00000000
       41565000	      4155	80005798	cbbdb693	sltiu	x13,x27,-837	 x27:0x8000a339 x13=0x00000001
       41575000	      4156	8000579c	418c5b13	srai	x22,x24,0x18	 x24:0x00000000 x22=0x00000000
       41585000	      4157	800057a0	05f6c863	blt	x13,x31,800057f0	 x13:0x00000001 x31:0x00000000
       41595000	      4158	800057a4	01e5db93	srli	x23,x11,0x1e	 x11:0x00000508 x23=0x00000000
       41605000	      4159	800057a8	e288ac13	slti	x24,x17,-472	 x17:0x1da856fc x24=0x00000000
       41615000	      4160	800057ac	403adab3	sra	x21,x21,x3	 x21:0x00000098  x3:0x00000000 x21=0x00000098
       41625000	      4161	800057b0	00fd9713	slli	x14,x27,0xf	 x27:0x8000a339 x14=0x519c8000
       41635000	      4162	800057b4	85dd4e13	xori	x28,x26,-1955	 x26:0x00000001 x28=0xfffff85c
       41645000	      4163	800057b8	00d7f1b3	and	x3,x15,x13	 x15:0x80009fc4 x13:0x00000001  x3=0x00000000
       41655000	      4164	800057bc	00835a33	srl	x20,x6,x8	  x6:0x80008238  x8:0xe0000000 x20=0x80008238
       41665000	      4165	800057c0	00ca4eb3	xor	x29,x20,x12	 x20:0x80008238 x12:0x00000130 x29=0x80008308
       41675000	      4166	800057c4	90786993	ori	x19,x16,-1785	 x16:0xbf5c0000 x19=0xfffff907
       41685000	      4167	800057c8	01beb433	sltu	x8,x29,x27	 x29:0x80008308 x27:0x8000a339  x8=0x00000001
       41695000	      4168	800057cc	e0068d13	addi	x26,x13,-512	 x13:0x00000001 x26=0xfffffe01
       41705000	      4169	800057d0	c41f4a13	xori	x20,x30,-959	 x30:0xfffffffe x20=0x000003bf
       41715000	      4170	800057d4	00439093	slli	x1,x7,0x4	  x7:0x00000000  x1=0x00000000
       41725000	      4171	800057d8	0303f263	bgeu	x7,x16,800057fc	  x7:0x00000000 x16:0xbf5c0000
       41735000	      4172	800057dc	017fa0b3	slt	x1,x31,x23	 x31:0x00000000 x23:0x00000000  x1=0x00000000
       41745000	      4173	800057e0	00cc2f33	slt	x30,x24,x12	 x24:0x00000000 x12:0x00000130 x30=0x00000001
       41755000	      4174	800057e4	01439663	bne	x7,x20,800057f0	  x7:0x00000000 x20:0x000003bf
       41765000	      4175	00000000	00000013	addi	x0,x0,0	  x0:0x00000000
       41775000	      4176	800057ec	00000013	addi	x0,x0,0	  x0:0x00000000
       41785000	      4177	800057f0	d3a81717	auipc	x14,0xd3a81	 x14=0x53a867ec
       41795000	      4178	800057f4	04c07663	bgeu	x0,x12,80005840	  x0:0x00000000 x12:0x00000130
       41805000	      4179	800057f8	0151d433	srl	x8,x3,x21	  x3:0x00000000 x21:0x00000098  x8=0x00000000
       41815000	      4180	800057fc	12984b13	xori	x22,x16,297	 x16:0xbf5c0000 x22=0xbf5c0129
       41825000	      4181	80005800	00b89c63	bne	x17,x11,80005818	 x17:0x1da856fc x11:0x00000508
       41835000	      4182	00000000	00000013	addi	x0,x0,0	  x0:0x00000000
       41845000	      4183	80005814	00000013	addi	x0,x0,0	  x0:0x00000000
       41855000	      4184	80005818	01c72933	slt	x18,x14,x28	 x14:0x53a867ec x28:0xfffff85c x18=0x00000000
       41865000	      4185	8000581c	01b19c63	bne	x3,x27,80005834	  x3:0x00000000 x27:0x8000a339
       41875000	      4186	00000000	00000013	addi	x0,x0,0	  x0:0x00000000
       41885000	      4187	80005830	00000013	addi	x0,x0,0	  x0:0x00000000
       41895000	      4188	80005834	b623da17	auipc	x20,0xb623d	 x20=0x36242830
       41905000	      4189	80005838	fdd34e13	xori	x28,x6,-35	  x6:0x80008238 x28=0x7fff7de5
       41915000	      4190	8000583c	01c0b6b3	sltu	x13,x1,x28	  x1:0x00000000 x28:0x7fff7de5 x13=0x00000001
       41925000	      4191	80005840	007095b3	sll	x11,x1,x7	  x1:0x00000000  x7:0x00000000 x11=0x00000000
       41935000	      4192	80005844	02b37e63	bgeu	x6,x11,80005880	  x6:0x80008238 x11:0x00000000
       41945000	      4193	00000000	00000013	addi	x0,x0,0	  x0:0x00000000
       41955000	      4194	8000587c	00000013	addi	x0,x0,0	  x0:0x00000000
       41965000	      4195	80005880	0141f3b3	and	x7,x3,x20	  x3:0x00000000 x20:0x36242830  x7=0x00000000
       41975000	      4196	80005884	00c5a833	slt	x16,x11,x12	 x11:0x00000000 x12:0x00000130 x16=0x00000001
       41985000	      4197	80005888	01c49a63	bne	x9,x28,8000589c	  x9:0xfffffaa5 x28:0x7fff7de5
       41995000	      4198	00000000	00000013	addi	x0,x0,0	  x0:0x00000000
       42005000	      4199	80005898	00000013	addi	x0,x0,0	  x0:0x00000000
       42015000	      4200	8000589c	875d3e13	sltiu	x28,x26,-1931	 x26:0xfffffe01 x28=0x00000000
       42025000	      4201	800058a0	034c6c63	bltu	x24,x20,800058d8	 x24:0x00000000 x20:0x36242830
       42035000	      4202	00000000	00000013	addi	x0,x0,0	  x0:0x00000000
       42045000	      4203	800058d4	00000013	addi	x0,x0,0	  x0:0x00000000
       42055000	      4204	800058d8	55db1617	auipc	x12,0x55db1	 x12=0xd5db68d4
       42065000	      4205	800058dc	001a8d33	add	x26,x21,x1	 x21:0x00000098  x1:0x00000000 x26=0x00000098
       42075000	      4206	800058e0	01709e33	sll	x28,x1,x23	  x1:0x00000000 x23:0x00000000 x28=0x00000000
       42085000	      4207	800058e4	4056d6b3	sra	x13,x13,x5	 x13:0x00000001  x5:0x8000a339 x13=0x00000000
       42095000	      4208	800058e8	c5156b93	ori	x23,x10,-943	 x10:0x00000000 x23=0xfffffc51
       42105000	      4209	800058ec	0056c3b3	xor	x7,x13,x5	 x13:0x00000000  x5:0x8000a339  x7=0x8000a339
       42115000	      4210	800058f0	4b6fcf93	xori	x31,x31,1206	 x31:0x00000000 x31=0x000004b6
       42125000	      4211	800058f4	01bb6a33	or	x20,x22,x27	 x22:0xbf5c0129 x27:0x8000a339 x20=0xbf5ca339
       42135000	      4212	800058f8	00fe6433	or	x8,x28,x15	 x28:0x00000000 x15:0x80009fc4  x8=0x80009fc4
       42145000	      4213	800058fc	015b36b3	sltu	x13,x22,x21	 x22:0xbf5c0129 x21:0x00000098 x13=0x00000000
       42155000	      4214	80005900	5e260a93	addi	x21,x12,1506	 x12:0xd5db68d4 x21=0xd5db6eb6
       42165000	      4215	80005904	010b5433	srl	x8,x22,x16	 x22:0xbf5c0129 x16:0x00000001  x8=0x5fae0094
       42175000	      4216	80005908	02d2f463	bgeu	x5,x13,80005930	  x5:0x8000a339 x13:0x00000000
       42185000	      4217	00000000	00000013	addi	x0,x0,0	  x0:0x00000000
       42195000	      4218	8000592c	00000013	addi	x0,x0,0	  x0:0x00000000
       42205000	      4219	80005930	00000013	addi	x0,x0,0	  x0:0x00000000
       42215000	      4220	80005934	03724663	blt	x4,x23,80005960	  x4:0x00000000 x23:0xfffffc51
       42225000	      4221	80005938	061dfdb7	lui	x27,0x61df	 x27=0x061df000
       42235000	      4222	8000593c	00bf8933	add	x18,x31,x11	 x31:0x000004b6 x11:0x00000000 x18=0x000004b6
       42245000	      4223	80005940	00b74733	xor	x14,x14,x11	 x14:0x53a867ec x11:0x00000000 x14=0x53a867ec
       42255000	      4224	80005944	40ffda33	sra	x20,x31,x15	 x31:0x000004b6 x15:0x80009fc4 x20=0x0000004b
       42265000	      4225	80005948	d3fcb993	sltiu	x19,x25,-705	 x25:0x80009ef8 x19=0x00000001
       42275000	      4226	8000594c	414f05b3	sub	x11,x30,x20	 x30:0x00000001 x20:0x0000004b x11=0xffffffb6
       42285000	      4227	80005950	308d2637	lui	x12,0x308d2	 x12=0x308d2000
       42295000	      4228	80005954	41350833	sub	x16,x10,x19	 x10:0x00000000 x19:0x00000001 x16=0xffffffff
       42305000	      4229	80005958	04eb5863	bge	x22,x14,800059a8	 x22:0xbf5c0129 x14:0x53a867ec
       42315000	      4230	8000595c	05479463	bne	x15,x20,800059a4	 x15:0x80009fc4 x20:0x0000004b
       42325000	      4231	00000000	00000013	addi	x0,x0,0	  x0:0x00000000
       42335000	      4232	800059a0	00000013	addi	x0,x0,0	  x0:0x00000000
       42345000	      4233	800059a4	00440433	add	x8,x8,x4	  x8:0x5fae0094  x4:0x00000000  x8=0x5fae0094
       42355000	      4234	800059a8	00000013	addi	x0,x0,0	  x0:0x00000000
       42365000	      4235	800059ac	41825b13	srai	x22,x4,0x18	  x4:0x00000000 x22=0x00000000
       42375000	      4236	800059b0	41e2db93	srai	x23,x5,0x1e	  x5:0x8000a339 x23=0xfffffffe
       42385000	      4237	800059b4	0111bb33	sltu	x22,x3,x17	  x3:0x00000000 x17:0x1da856fc x22=0x00000001
       42395000	      4238	800059b8	316eb813	sltiu	x16,x29,790	 x29:0x80008308 x16=0x00000000
       42405000	      4239	800059bc	014c6233	or	x4,x24,x20	 x24:0x00000000 x20:0x0000004b  x4=0x0000004b
       42415000	      4240	800059c0	0026e633	or	x12,x13,x2	 x13:0x00000000  x2:0xaa8dd69f x12=0xaa8dd69f
       42425000	      4241	800059c4	058cc663	blt	x25,x24,80005a10	 x25:0x80009ef8 x24:0x00000000
       42435000	      4242	00000000	00000013	addi	x0,x0,0	  x0:0x00000000
       42445000	      4243	80005a0c	00000013	addi	x0,x0,0	  x0:0x00000000
       42455000	      4244	80005a10	52c96513	ori	x10,x18,1324	 x18:0x000004b6 x10=0x000005be
       42465000	      4245	80005a14	00916e33	or	x28,x2,x9	  x2:0xaa8dd69f  x9:0xfffffaa5 x28=0xfffffebf
       42475000	      4246	80005a18	03580663	beq	x16,x21,80005a44	 x16:0x00000000 x21:0xd5db6eb6
       42485000	      4247	80005a1c	7a548193	addi	x3,x9,1957	  x9:0xfffffaa5  x3=0x0000024a
       42495000	      4248	80005a20	01de60b3	or	x1,x28,x29	 x28:0xfffffebf x29:0x80008308  x1=0xffffffbf
       42505000	      4249	80005a24	0a6e0e13	addi	x28,x28,166	 x28:0xfffffebf x28=0xffffff65
       42515000	      4250	80005a28	97770813	addi	x16,x14,-1673	 x14:0x53a867ec x16=0x53a86163
       42525000	      4251	80005a2c	7b064f13	xori	x30,x12,1968	 x12:0xaa8dd69f x30=0xaa8dd12f
       42535000	      4252	80005a30	40975b33	sra	x22,x14,x9	 x14:0x53a867ec  x9:0xfffffaa5 x22=0x029d433f
       42545000	      4253	80005a34	401f58b3	sra	x17,x30,x1	 x30:0xaa8dd12f  x1:0xffffffbf x17=0xffffffff
       42555000	      4254	80005a38	40b05593	srai	x11,x0,0xb	  x0:0x00000000 x11=0x00000000
       42565000	      4255	80005a3c	4d440a97	auipc	x21,0x4d440	 x21=0xcd445a38
       42575000	      4256	80005a40	46877d93	andi	x27,x14,1128	 x14:0x53a867ec x27=0x00000468
       42585000	      4257	80005a44	01943433	sltu	x8,x8,x25	  x8:0x5fae0094 x25:0x80009ef8  x8=0x00000001
       42595000	      4258	80005a48	00bce3b3	or	x7,x25,x11	 x25:0x80009ef8 x11:0x00000000  x7=0x80009ef8
       42605000	      4259	80005a4c	014f8233	add	x4,x31,x20	 x31:0x000004b6 x20:0x0000004b  x4=0x00000501
       42615000	      4260	80005a50	00c8e463	bltu	x17,x12,80005a58	 x17:0xffffffff x12:0xaa8dd69f
       42625000	      4261	80005a54	277e8e37	lui	x28,0x277e8	 x28=0x277e8000
       42635000	      4262	80005a58	3ded2b13	slti	x22,x26,990	 x26:0x00000098 x22=0x00000001
       42645000	      4263	80005a5c	93b8c513	xori	x10,x17,-1733	 x17:0xffffffff x10=0x000006c4
       42655000	      4264	80005a60	f0d02937	lui	x18,0xf0d02	 x18=0xf0d02000
       42665000	      4265	80005a64	01fdc5b3	xor	x11,x27,x31	 x27:0x00000468 x31:0x000004b6 x11=0x000000de
       42675000	      4266	80005a68	29ee8fb7	lui	x31,0x29ee8	 x31=0x29ee8000
       42685000	      4267	80005a6c	00ebc0b3	xor	x1,x23,x14	 x23:0xfffffffe x14:0x53a867ec  x1=0xac579812
       42695000	      4268	80005a70	404a5d33	sra	x26,x20,x4	 x20:0x0000004b  x4:0x00000501 x26=0x00000025
       42705000	      4269	80005a74	00f81eb3	sll	x29,x16,x15	 x16:0x53a86163 x15:0x80009fc4 x29=0x3a861630
       42715000	      4270	80005a78	40ea8933	sub	x18,x21,x14	 x21:0xcd445a38 x14:0x53a867ec x18=0x799bf24c
       42725000	      4271	80005a7c	00a515b3	sll	x11,x10,x10	 x10:0x000006c4 x10:0x000006c4 x11=0x00006c40
       42735000	      4272	80005a80	40bb52b3	sra	x5,x22,x11	 x22:0x00000001 x11:0x00006c40  x5=0x00000001
       42745000	      4273	80005a84	0027c2b3	xor	x5,x15,x2	 x15:0x80009fc4  x2:0xaa8dd69f  x5=0x2a8d495b
       42755000	      4274	80005a88	839adb97	auipc	x23,0x839ad	 x23=0x039b2a84
       42765000	      4275	80005a8c	050bf663	bgeu	x23,x16,80005ad8	 x23:0x039b2a84 x16:0x53a86163
       42775000	      4276	80005a90	b2a47817	auipc	x16,0xb2a47	 x16=0x32a4ca8c
       42785000	      4277	80005a94	9306a597	auipc	x11,0x9306a	 x11=0x1306fa90
       42795000	      4278	80005a98	00b25c63	bge	x4,x11,80005ab0	  x4:0x00000501 x11:0x1306fa90
       42805000	      4279	80005a9c	ce5255b7	lui	x11,0xce525	 x11=0xce525000
       42815000	      4280	80005aa0	0372c663	blt	x5,x23,80005acc	  x5:0x2a8d495b x23:0x039b2a84
       42825000	      4281	80005aa4	ba773e93	sltiu	x29,x14,-1113	 x14:0x53a867ec x29=0x00000001
       42835000	      4282	80005aa8	0120cc33	xor	x24,x1,x18	  x1:0xac579812 x18:0x799bf24c x24=0xd5cc6a5e
       42845000	      4283	80005aac	510dbc13	sltiu	x24,x27,1296	 x27:0x00000468 x24=0x00000001
       42855000	      4284	80005ab0	0d9ff0b7	lui	x1,0xd9ff	  x1=0x0d9ff000
       42865000	      4285	80005ab4	402152b3	sra	x5,x2,x2	  x2:0xaa8dd69f  x2:0xaa8dd69f  x5=0xffffffff
       42875000	      4286	80005ab8	012bf863	bgeu	x23,x18,80005ac8	 x23:0x039b2a84 x18:0x799bf24c
       42885000	      4287	80005abc	41f2d833	sra	x16,x5,x31	  x5:0xffffffff x31:0x29ee8000 x16=0xffffffff
       42895000	      4288	80005ac0	00000013	addi	x0,x0,0	  x0:0x00000000
       42905000	      4289	80005ac4	002b96b3	sll	x13,x23,x2	 x23:0x039b2a84  x2:0xaa8dd69f x13=0x00000000
       42915000	      4290	80005ac8	b115d397	auipc	x7,0xb115d	  x7=0x31162ac4
       42925000	      4291	80005acc	6c5cba13	sltiu	x20,x25,1733	 x25:0x80009ef8 x20=0x00000000
       42935000	      4292	80005ad0	07d54593	xori	x11,x10,125	 x10:0x000006c4 x11=0x000006b9
       42945000	      4293	80005ad4	46c3a093	slti	x1,x7,1132	  x7:0x31162ac4  x1=0x00000000
       42955000	      4294	80005ad8	41e85713	srai	x14,x16,0x1e	 x16:0xffffffff x14=0xffffffff
       42965000	      4295	80005adc	401c52b3	sra	x5,x24,x1	 x24:0x00000001  x1:0x00000000  x5=0x00000001
       42975000	      4296	80005ae0	02ae7863	bgeu	x28,x10,80005b10	 x28:0x277e8000 x10:0x000006c4
       42985000	      4297	00000000	00000013	addi	x0,x0,0	  x0:0x00000000
       42995000	      4298	80005b0c	00000013	addi	x0,x0,0	  x0:0x00000000
       43005000	      4299	80005b10	014aea63	bltu	x21,x20,80005b24	 x21:0xcd445a38 x20:0x00000000
       43015000	      4300	80005b14	00587b33	and	x22,x16,x5	 x16:0xffffffff  x5:0x00000001 x22=0x00000001
       43025000	      4301	80005b18	00875863	bge	x14,x8,80005b28	 x14:0xffffffff  x8:0x00000001
       43035000	      4302	80005b1c	00a9e1b3	or	x3,x19,x10	 x19:0x00000001 x10:0x000006c4  x3=0x000006c5
       43045000	      4303	80005b20	0eaab093	sltiu	x1,x21,234	 x21:0xcd445a38  x1=0x00000000
       43055000	      4304	80005b24	f0017f13	andi	x30,x2,-256	  x2:0xaa8dd69f x30=0xaa8dd600
       43065000	      4305	80005b28	403ed6b3	sra	x13,x29,x3	 x29:0x00000001  x3:0x000006c5 x13=0x00000000
       43075000	      4306	80005b2c	004caf83	lw	x31,4(x25)	 x25:0x80009ef8 x31=0x800066c8 PA:0x80009efc
       43085000	      4307	80005b30	d2eee293	ori	x5,x29,-722	 x29:0x00000001  x5=0xfffffd2f
       43095000	      4308	80005b34	003d9193	slli	x3,x27,0x3	 x27:0x00000468  x3=0x00002340
       43105000	      4309	80005b38	006bca33	xor	x20,x23,x6	 x23:0x039b2a84  x6:0x80008238 x20=0x839ba8bc
       43115000	      4310	80005b3c	a79e1a37	lui	x20,0xa79e1	 x20=0xa79e1000
       43125000	      4311	80005b40	024c8c93	addi	x25,x25,36	 x25:0x80009ef8 x25=0x80009f1c
       43135000	      4312	80005b44	009b1c33	sll	x24,x22,x9	 x22:0x00000001  x9:0xfffffaa5 x24=0x00000020
       43145000	      4313	80005b48	00000013	addi	x0,x0,0	  x0:0x00000000
       43155000	      4314	80005b4c	0045deb3	srl	x29,x11,x4	 x11:0x000006b9  x4:0x00000501 x29=0x0000035c
       43165000	      4315	80005b50	000f8393	addi	x7,x31,0	 x31:0x800066c8  x7=0x800066c8
       43175000	      4316	80005b54	000383e7	jalr	x7,x7,0	  x7:0x800066c8  x7=0x80005b54
       43185000	      4317	00000000	00000013	addi	x0,x0,0	  x0:0x00000000
       43195000	      4318	800066c8	00000013	addi	x0,x0,0	  x0:0x00000000
       43205000	      4319	800066cc	00e35c63	bge	x6,x14,800066e4	  x6:0x80008238 x14:0xffffffff
       43215000	      4320	800066d0	001ade17	auipc	x28,0x1ad	 x28=0x801b36cc
       43225000	      4321	800066d4	d70a7393	andi	x7,x20,-656	 x20:0xa79e1000  x7=0xa79e1000
       43235000	      4322	800066d8	41e55033	sra	x0,x10,x30	 x10:0x000006c4 x30:0xaa8dd600
       43245000	      4323	800066dc	017ba5b3	slt	x11,x23,x23	 x23:0x039b2a84 x23:0x039b2a84 x11=0x00000000
       43255000	      4324	800066e0	9a166997	auipc	x19,0x9a166	 x19=0x1a16c6dc
       43265000	      4325	800066e4	07000fef	jal	x31,800066e4	 x31=0x800066e4
       43275000	      4326	00000000	00000013	addi	x0,x0,0	  x0:0x00000000
       43285000	      4327	80006750	00000013	addi	x0,x0,0	  x0:0x00000000
       43295000	      4328	80006754	4104da33	sra	x20,x9,x16	  x9:0xfffffaa5 x16:0xffffffff x20=0xffffffff
       43305000	      4329	80006758	40ae85b3	sub	x11,x29,x10	 x29:0x0000035c x10:0x000006c4 x11=0xfffffc98
       43315000	      4330	8000675c	bf41f213	andi	x4,x3,-1036	  x3:0x00002340  x4=0x00002340
       43325000	      4331	80006760	0039d5b3	srl	x11,x19,x3	 x19:0x1a16c6dc  x3:0x00002340 x11=0x1a16c6dc
       43335000	      4332	80006764	01e46833	or	x16,x8,x30	  x8:0x00000001 x30:0xaa8dd600 x16=0xaa8dd601
       43345000	      4333	80006768	01380b33	add	x22,x16,x19	 x16:0xaa8dd601 x19:0x1a16c6dc x22=0xc4a49cdd
       43355000	      4334	8000676c	00474d33	xor	x26,x14,x4	 x14:0xffffffff  x4:0x00002340 x26=0xffffdcbf
       43365000	      4335	80006770	00ae0933	add	x18,x28,x10	 x28:0x801b36cc x10:0x000006c4 x18=0x801b3d90
       43375000	      4336	80006774	00e7adb3	slt	x27,x15,x14	 x15:0x80009fc4 x14:0xffffffff x27=0x00000001
       43385000	      4337	80006778	fe0c8c93	addi	x25,x25,-32	 x25:0x80009f1c x25=0x80009efc
       43395000	      4338	8000677c	01fca223	sw	x31,4(x25)	 x25:0x80009efc x31:0x800066e4 PA:0x80009f00
       43405000	      4339	80006780	b1f4ee13	ori	x28,x9,-1249	  x9:0xfffffaa5 x28=0xfffffbbf
       43415000	      4340	80006784	0572c663	blt	x5,x23,800067d0	  x5:0xfffffd2f x23:0x039b2a84
       43425000	      4341	00000000	00000013	addi	x0,x0,0	  x0:0x00000000
       43435000	      4342	800067cc	00000013	addi	x0,x0,0	  x0:0x00000000
       43445000	      4343	800067d0	400058b3	sra	x17,x0,x0	  x0:0x00000000  x0:0x00000000 x17=0x00000000
       43455000	      4344	800067d4	0024ad33	slt	x26,x9,x2	  x9:0xfffffaa5  x2:0xaa8dd69f x26=0x00000000
       43465000	      4345	800067d8	00000013	addi	x0,x0,0	  x0:0x00000000
       43475000	      4346	800067dc	00880533	add	x10,x16,x8	 x16:0xaa8dd601  x8:0x00000001 x10=0xaa8dd602
       43485000	      4347	800067e0	00693233	sltu	x4,x18,x6	 x18:0x801b3d90  x6:0x80008238  x4=0x00000000
       43495000	      4348	800067e4	00cdcd33	xor	x26,x27,x12	 x27:0x00000001 x12:0xaa8dd69f x26=0xaa8dd69e
       43505000	      4349	800067e8	96166a93	ori	x21,x12,-1695	 x12:0xaa8dd69f x21=0xffffffff
       43515000	      4350	800067ec	01683433	sltu	x8,x16,x22	 x16:0xaa8dd601 x22:0xc4a49cdd  x8=0x00000001
       43525000	      4351	800067f0	dc862313	slti	x6,x12,-568	 x12:0xaa8dd69f  x6=0x00000001
       43535000	      4352	800067f4	00480f33	add	x30,x16,x4	 x16:0xaa8dd601  x4:0x00000000 x30=0xaa8dd601
       43545000	      4353	800067f8	41a90533	sub	x10,x18,x26	 x18:0x801b3d90 x26:0xaa8dd69e x10=0xd58d66f2
       43555000	      4354	800067fc	0826cb13	xori	x22,x13,130	 x13:0x00000000 x22=0x00000082
       43565000	      4355	80006800	017f3d33	sltu	x26,x30,x23	 x30:0xaa8dd601 x23:0x039b2a84 x26=0x00000000
       43575000	      4356	80006804	94f0cf93	xori	x31,x1,-1713	  x1:0x00000000 x31=0xfffff94f
       43585000	      4357	80006808	675d7493	andi	x9,x26,1653	 x26:0x00000000  x9=0x00000000
       43595000	      4358	8000680c	01728c33	add	x24,x5,x23	  x5:0xfffffd2f x23:0x039b2a84 x24=0x039b27b3
       43605000	      4359	80006810	4e8b4093	xori	x1,x22,1256	 x22:0x00000082  x1=0x0000046a
       43615000	      4360	80006814	008d1bb3	sll	x23,x26,x8	 x26:0x00000000  x8:0x00000001 x23=0x00000000
       43625000	      4361	80006818	27e38293	addi	x5,x7,638	  x7:0xa79e1000  x5=0xa79e127e
       43635000	      4362	8000681c	0216ce63	blt	x13,x1,80006858	 x13:0x00000000  x1:0x0000046a
       43645000	      4363	00000000	00000013	addi	x0,x0,0	  x0:0x00000000
       43655000	      4364	80006854	00000013	addi	x0,x0,0	  x0:0x00000000
       43665000	      4365	80006858	01bbf533	and	x10,x23,x27	 x23:0x00000000 x27:0x00000001 x10=0x00000000
       43675000	      4366	8000685c	068b6f93	ori	x31,x22,104	 x22:0x00000082 x31=0x000000ea
       43685000	      4367	80006860	04c50663	beq	x10,x12,800068ac	 x10:0x00000000 x12:0xaa8dd69f
       43695000	      4368	80006864	41975c13	srai	x24,x14,0x19	 x14:0xffffffff x24=0xffffffff
       43705000	      4369	80006868	00f788b3	add	x17,x15,x15	 x15:0x80009fc4 x15:0x80009fc4 x17=0x00013f88
       43715000	      4370	8000686c	e96e2a13	slti	x20,x28,-362	 x28:0xfffffbbf x20=0x00000001
       43725000	      4371	80006870	d2a12d93	slti	x27,x2,-726	  x2:0xaa8dd69f x27=0x00000001
       43735000	      4372	80006874	00899863	bne	x19,x8,80006884	 x19:0x1a16c6dc  x8:0x00000001
       43745000	      4373	00000000	00000013	addi	x0,x0,0	  x0:0x00000000
       43755000	      4374	80006880	00000013	addi	x0,x0,0	  x0:0x00000000
       43765000	      4375	80006884	40b15033	sra	x0,x2,x11	  x2:0xaa8dd69f x11:0x1a16c6dc
       43775000	      4376	80006888	62ab7813	andi	x16,x22,1578	 x22:0x00000082 x16=0x00000002
       43785000	      4377	8000688c	01cf0463	beq	x30,x28,80006894	 x30:0xaa8dd601 x28:0xfffffbbf
       43795000	      4378	80006890	045cd063	bge	x25,x5,800068d0	 x25:0x80009efc  x5:0xa79e127e
       43805000	      4379	80006894	2af77e37	lui	x28,0x2af77	 x28=0x2af77000
       43815000	      4380	80006898	e705e097	auipc	x1,0xe705e	  x1=0x67064894
       43825000	      4381	8000689c	47843613	sltiu	x12,x8,1144	  x8:0x00000001 x12=0x00000001
       43835000	      4382	800068a0	6c2ae613	ori	x12,x21,1730	 x21:0xffffffff x12=0xffffffff
       43845000	      4383	800068a4	e8e9cf93	xori	x31,x19,-370	 x19:0x1a16c6dc x31=0xe5e93852
       43855000	      4384	800068a8	01731c63	bne	x6,x23,800068c0	  x6:0x00000001 x23:0x00000000
       43865000	      4385	00000000	00000013	addi	x0,x0,0	  x0:0x00000000
       43875000	      4386	800068bc	00000013	addi	x0,x0,0	  x0:0x00000000
       43885000	      4387	800068c0	00d71513	slli	x10,x14,0xd	 x14:0xffffffff x10=0xffffe000
       43895000	      4388	800068c4	a160e293	ori	x5,x1,-1514	  x1:0x67064894  x5=0xfffffa96
       43905000	      4389	800068c8	01511213	slli	x4,x2,0x15	  x2:0xaa8dd69f  x4=0xd3e00000
       43915000	      4390	800068cc	00ac39b3	sltu	x19,x24,x10	 x24:0xffffffff x10:0xffffe000 x19=0x00000000
       43925000	      4391	800068d0	640b3513	sltiu	x10,x22,1600	 x22:0x00000082 x10=0x00000001
       43935000	      4392	800068d4	4053d033	sra	x0,x7,x5	  x7:0xa79e1000  x5:0xfffffa96
       43945000	      4393	800068d8	004caf83	lw	x31,4(x25)	 x25:0x80009efc x31=0x800066e4 PA:0x80009f00
       43955000	      4394	800068dc	003138b3	sltu	x17,x2,x3	  x2:0xaa8dd69f  x3:0x00002340 x17=0x00000000
       43965000	      4395	800068e0	00f8dc13	srli	x24,x17,0xf	 x17:0x00000000 x24=0x00000000
       43975000	      4396	800068e4	020c8c93	addi	x25,x25,32	 x25:0x80009efc x25=0x80009f1c
       43985000	      4397	800068e8	01f95093	srli	x1,x18,0x1f	 x18:0x801b3d90  x1=0x00000001
       43995000	      4398	800068ec	001f8813	addi	x16,x31,1	 x31:0x800066e4 x16=0x800066e5
       44005000	      4399	800068f0	00080867	jalr	x16,x16,0	 x16:0x800066e5 x16=0x800068f0
       44015000	      4400	00000000	00000013	addi	x0,x0,0	  x0:0x00000000
       44025000	      4401	800066e4	00000013	addi	x0,x0,0	  x0:0x00000000
       44035000	      4402	800066e8	02b01863	bne	x0,x11,80006718	  x0:0x00000000 x11:0x1a16c6dc
       44045000	      4403	00000000	00000013	addi	x0,x0,0	  x0:0x00000000
       44055000	      4404	80006714	00000013	addi	x0,x0,0	  x0:0x00000000
       44065000	      4405	80006718	dd725097	auipc	x1,0xdd725	  x1=0x5d72b714
       44075000	      4406	8000671c	010e9663	bne	x29,x16,80006728	 x29:0x0000035c x16:0x800068f0
       44085000	      4407	00000000	00000013	addi	x0,x0,0	  x0:0x00000000
       44095000	      4408	80006724	00000013	addi	x0,x0,0	  x0:0x00000000
       44105000	      4409	80006728	c2477237	lui	x4,0xc2477	  x4=0xc2477000
       44115000	      4410	8000672c	004caf83	lw	x31,4(x25)	 x25:0x80009f1c x31=0x80005b9c PA:0x80009f20
       44125000	      4411	80006730	028c8c93	addi	x25,x25,40	 x25:0x80009f1c x25=0x80009f44
       44135000	      4412	80006734	00f01093	slli	x1,x0,0xf	  x0:0x00000000  x1=0x00000000
       44145000	      4413	80006738	015fa9b3	slt	x19,x31,x21	 x31:0x80005b9c x21:0xffffffff x19=0x00000001
       44155000	      4414	8000673c	828e0913	addi	x18,x28,-2008	 x28:0x2af77000 x18=0x2af76828
       44165000	      4415	80006740	007755b3	srl	x11,x14,x7	 x14:0xffffffff  x7:0xa79e1000 x11=0xffffffff
       44175000	      4416	80006744	0160f1b3	and	x3,x1,x22	  x1:0x00000000 x22:0x00000082  x3=0x00000000
       44185000	      4417	80006748	90e9ac13	slti	x24,x19,-1778	 x19:0x00000001 x24=0x00000000
       44195000	      4418	8000674c	000f8d13	addi	x26,x31,0	 x31:0x80005b9c x26=0x80005b9c
       44205000	      4419	80006750	000d0d67	jalr	x26,x26,0	 x26:0x80005b9c x26=0x80006750
       44215000	      4420	00000000	00000013	addi	x0,x0,0	  x0:0x00000000
       44225000	      4421	80005b9c	00000013	addi	x0,x0,0	  x0:0x00000000
       44235000	      4422	80005ba0	00003197	auipc	x3,0x3	  x3=0x80008b9c
       44245000	      4423	80005ba4	39718193	addi	x3,x3,919	  x3:0x80008b9c  x3=0x80008f33
       44255000	      4424	80005ba8	f62187a3	sb	x2,-145(x3)	  x3:0x80008f33  x2:0xaa8dd69f PA:0x80008ea2
       44265000	      4425	80005bac	f6c1ce83	lbu	x29,-148(x3)	  x3:0x80008f33 x29=0x000000fd PA:0x80008e9f
       44275000	      4426	80005bb0	35cf6e93	ori	x29,x30,860	 x30:0xaa8dd601 x29=0xaa8dd75d
       44285000	      4427	80005bb4	f5b19ca3	sh	x27,-167(x3)	  x3:0x80008f33 x27:0x00000001 PA:0x80008e8c
       44295000	      4428	80005bb8	0ea74513	xori	x10,x14,234	 x14:0xffffffff x10=0xffffff15
       44305000	      4429	80005bbc	f391ca03	lbu	x20,-199(x3)	  x3:0x80008f33 x20=0x000000fd PA:0x80008e6c
       44315000	      4430	80005bc0	f4918f03	lb	x30,-183(x3)	  x3:0x80008f33 x30=0xfffffff4 PA:0x80008e7c
       44325000	      4431	80005bc4	00b0cc33	xor	x24,x1,x11	  x1:0x00000000 x11:0xffffffff x24=0xffffffff
       44335000	      4432	80005bc8	f831dc03	lhu	x24,-125(x3)	  x3:0x80008f33 x24=0x0000dcab PA:0x80008eb6
       44345000	      4433	80005bcc	f1918623	sb	x25,-244(x3)	  x3:0x80008f33 x25:0x80009f44 PA:0x80008e3f
       44355000	      4434	80005bd0	00000013	addi	x0,x0,0	  x0:0x00000000
       44365000	      4435	80005bd4	f9402d93	slti	x27,x0,-108	  x0:0x00000000 x27=0x00000000
       44375000	      4436	80005bd8	33a44a93	xori	x21,x8,826	  x8:0x00000001 x21=0x0000033b
       44385000	      4437	80005bdc	f5c18a83	lb	x21,-164(x3)	  x3:0x80008f33 x21=0x00000062 PA:0x80008e8f
       44395000	      4438	80005be0	fe61c203	lbu	x4,-26(x3)	  x3:0x80008f33  x4=0x0000008c PA:0x80008f19
       44405000	      4439	80005be4	08a18523	sb	x10,138(x3)	  x3:0x80008f33 x10:0xffffff15 PA:0x80008fbd
       44415000	      4440	80005be8	93968693	addi	x13,x13,-1735	 x13:0x00000000 x13=0xfffff939
       44425000	      4441	80005bec	f3f1cf83	lbu	x31,-193(x3)	  x3:0x80008f33 x31=0x0000006b PA:0x80008e72
       44435000	      4442	80005bf0	fb918a03	lb	x20,-71(x3)	  x3:0x80008f33 x20=0xffffffeb PA:0x80008eec
       44445000	      4443	80005bf4	2bd36293	ori	x5,x6,701	  x6:0x00000001  x5=0x000002bd
       44455000	      4444	80005bf8	f6f19fa3	sh	x15,-129(x3)	  x3:0x80008f33 x15:0x80009fc4 PA:0x80008eb2
       44465000	      4445	80005bfc	f3e18d83	lb	x27,-194(x3)	  x3:0x80008f33 x27=0xfffffffd PA:0x80008e71
       44475000	      4446	00000000	00000013	addi	x0,x0,0	  x0:0x00000000
       44485000	      4447	80005c00	03b1da03	lhu	x20,59(x3)	  x3:0x80008f33 x20=0x00004e90 PA:0x80008f6e
       44495000	      4448	80005c04	00d1f4b3	and	x9,x3,x13	  x3:0x80008f33 x13:0xfffff939  x9=0x80008931
       44505000	      4449	80005c08	06e18f03	lb	x30,110(x3)	  x3:0x80008f33 x30=0x0000001d PA:0x80008fa1
       44515000	      4450	80005c0c	a723e893	ori	x17,x7,-1422	  x7:0xa79e1000 x17=0xfffffa72
       44525000	      4451	80005c10	aa4bab13	slti	x22,x23,-1372	 x23:0x00000000 x22=0x00000000
       44535000	      4452	80005c14	f7219ca3	sh	x18,-135(x3)	  x3:0x80008f33 x18:0x2af76828 PA:0x80008eac
       44545000	      4453	80005c18	03818303	lb	x6,56(x3)	  x3:0x80008f33  x6=0x00000044 PA:0x80008f6b
       44555000	      4454	80005c1c	1b887613	andi	x12,x16,440	 x16:0x800068f0 x12=0x000000b0
       44565000	      4455	80005c20	f0619ca3	sh	x6,-231(x3)	  x3:0x80008f33  x6:0x00000044 PA:0x80008e4c
       44575000	      4456	80005c24	03418b23	sb	x20,54(x3)	  x3:0x80008f33 x20:0x00004e90 PA:0x80008f69
       44585000	      4457	80005c28	01eff0b3	and	x1,x31,x30	 x31:0x0000006b x30:0x0000001d  x1=0x00000009
       44595000	      4458	80005c2c	fe618383	lb	x7,-26(x3)	  x3:0x80008f33  x7=0xffffff8c PA:0x80008f19
       44605000	      4459	80005c30	d8ba8e13	addi	x28,x21,-629	 x21:0x00000062 x28=0xfffffded
       44615000	      4460	80005c34	0111a833	slt	x16,x3,x17	  x3:0x80008f33 x17:0xfffffa72 x16=0x00000001
       44625000	      4461	80005c38	0104d633	srl	x12,x9,x16	  x9:0x80008931 x16:0x00000001 x12=0x40004498
       44635000	      4462	80005c3c	075af413	andi	x8,x21,117	 x21:0x00000062  x8=0x00000060
       44645000	      4463	80005c40	f1418303	lb	x6,-236(x3)	  x3:0x80008f33  x6=0x00000037 PA:0x80008e47
       44655000	      4464	80005c44	4197d313	srai	x6,x15,0x19	 x15:0x80009fc4  x6=0xffffffc0
       44665000	      4465	80005c48	ff4198a3	sh	x20,-15(x3)	  x3:0x80008f33 x20:0x00004e90 PA:0x80008f24
       44675000	      4466	80005c4c	f441c703	lbu	x14,-188(x3)	  x3:0x80008f33 x14=0x0000006f PA:0x80008e77
       44685000	      4467	80005c50	01312733	slt	x14,x2,x19	  x2:0xaa8dd69f x19:0x00000001 x14=0x00000001
       44695000	      4468	80005c54	83400693	addi	x13,x0,-1996	  x0:0x00000000 x13=0xfffff834
       44705000	      4469	80005c58	f0c18283	lb	x5,-244(x3)	  x3:0x80008f33  x5=0x00000044 PA:0x80008e3f
       44715000	      4470	80005c5c	0a018083	lb	x1,160(x3)	  x3:0x80008f33  x1=0x00000001 PA:0x80008fd3
       44725000	      4471	80005c60	07919083	lh	x1,121(x3)	  x3:0x80008f33  x1=0x00007e40 PA:0x80008fac
       44735000	      4472	80005c64	0a319583	lh	x11,163(x3)	  x3:0x80008f33 x11=0xffffdc5b PA:0x80008fd6
       44745000	      4473	80005c68	0a718023	sb	x7,160(x3)	  x3:0x80008f33  x7:0xffffff8c PA:0x80008fd3
       44755000	      4474	80005c6c	00003f17	auipc	x30,0x3	 x30=0x80008c68
       44765000	      4475	80005c70	944f0f13	addi	x30,x30,-1724	 x30:0x80008c68 x30=0x800085ac
       44775000	      4476	80005c74	0082beb3	sltu	x29,x5,x8	  x5:0x00000044  x8:0x00000060 x29=0x00000001
       44785000	      4477	80005c78	01af0203	lb	x4,26(x30)	 x30:0x800085ac  x4=0x00000019 PA:0x800085c6
       44795000	      4478	80005c7c	014d3433	sltu	x8,x26,x20	 x26:0x80006750 x20:0x00004e90  x8=0x00000000
       44805000	      4479	80005c80	00c4f2b3	and	x5,x9,x12	  x9:0x80008931 x12:0x40004498  x5=0x00000010
       44815000	      4480	80005c84	fcef0303	lb	x6,-50(x30)	 x30:0x800085ac  x6=0x0000000e PA:0x8000857a
       44825000	      4481	80005c88	00d5d833	srl	x16,x11,x13	 x11:0xffffdc5b x13:0xfffff834 x16=0x00000fff
       44835000	      4482	80005c8c	001c7ab3	and	x21,x24,x1	 x24:0x0000dcab  x1:0x00007e40 x21=0x00005c00
       44845000	      4483	80005c90	01a4d1b3	srl	x3,x9,x26	  x9:0x80008931 x26:0x80006750  x3=0x00008000
       44855000	      4484	80005c94	038f4483	lbu	x9,56(x30)	 x30:0x800085ac  x9=0x00000005 PA:0x800085e4
       44865000	      4485	80005c98	01d6d713	srli	x14,x13,0x1d	 x13:0xfffff834 x14=0x00000007
       44875000	      4486	80005c9c	40530933	sub	x18,x6,x5	  x6:0x0000000e  x5:0x00000010 x18=0xfffffffe
       44885000	      4487	80005ca0	00dac8b3	xor	x17,x21,x13	 x21:0x00005c00 x13:0xfffff834 x17=0xffffa434
       44895000	      4488	80005ca4	dc13a693	slti	x13,x7,-575	  x7:0xffffff8c x13=0x00000000
       44905000	      4489	80005ca8	019e32b3	sltu	x5,x28,x25	 x28:0xfffffded x25:0x80009f44  x5=0x00000000
       44915000	      4490	80005cac	00b365b3	or	x11,x6,x11	  x6:0x0000000e x11:0xffffdc5b x11=0xffffdc5f
       44925000	      4491	80005cb0	41f6d733	sra	x14,x13,x31	 x13:0x00000000 x31:0x0000006b x14=0x00000000
       44935000	      4492	80005cb4	40360ab3	sub	x21,x12,x3	 x12:0x40004498  x3:0x00008000 x21=0x3fffc498
       44945000	      4493	80005cb8	1d1918b7	lui	x17,0x1d191	 x17=0x1d191000
       44955000	      4494	80005cbc	00af0a03	lb	x20,10(x30)	 x30:0x800085ac x20=0xffffffd7 PA:0x800085b6
       44965000	      4495	80005cc0	000f2083	lw	x1,0(x30)	 x30:0x800085ac  x1=0xc3887708 PA:0x800085ac
       44975000	      4496	80005cc4	016f4e83	lbu	x29,22(x30)	 x30:0x800085ac x29=0x000000ac PA:0x800085c2
       44985000	      4497	80005cc8	fe8f1d83	lh	x27,-24(x30)	 x30:0x800085ac x27=0xffffbdaa PA:0x80008594
       44995000	      4498	80005ccc	000d5233	srl	x4,x26,x0	 x26:0x80006750  x0:0x00000000  x4=0x80006750
       45005000	      4499	80005cd0	fc0f4e03	lbu	x28,-64(x30)	 x30:0x800085ac x28=0x00000001 PA:0x8000856c
       45015000	      4500	80005cd4	00b69ab3	sll	x21,x13,x11	 x13:0x00000000 x11:0xffffdc5f x21=0x00000000
       45025000	      4501	80005cd8	02af4c03	lbu	x24,42(x30)	 x30:0x800085ac x24=0x00000022 PA:0x800085d6
       45035000	      4502	80005cdc	016f4b83	lbu	x23,22(x30)	 x30:0x800085ac x23=0x000000ac PA:0x800085c2
       45045000	      4503	80005ce0	401cdbb3	sra	x23,x25,x1	 x25:0x80009f44  x1:0xc3887708 x23=0xff80009f
       45055000	      4504	80005ce4	fdcf4083	lbu	x1,-36(x30)	 x30:0x800085ac  x1=0x00000028 PA:0x80008588
       45065000	      4505	80005ce8	0162fab3	and	x21,x5,x22	  x5:0x00000000 x22:0x00000000 x21=0x00000000
       45075000	      4506	80005cec	f0a8a493	slti	x9,x17,-246	 x17:0x1d191000  x9=0x00000000
       45085000	      4507	80005cf0	01acfeb3	and	x29,x25,x26	 x25:0x80009f44 x26:0x80006750 x29=0x80000740
       45095000	      4508	80005cf4	3073bb13	sltiu	x22,x7,775	  x7:0xffffff8c x22=0x00000000
       45105000	      4509	80005cf8	00666933	or	x18,x12,x6	 x12:0x40004498  x6:0x0000000e x18=0x4000449e
       45115000	      4510	80005cfc	e591f513	andi	x10,x3,-423	  x3:0x00008000 x10=0x00008000
       45125000	      4511	80005d00	ffdf0e23	sb	x29,-4(x30)	 x30:0x800085ac x29:0x80000740 PA:0x800085a8
       45135000	      4512	80005d04	fe7f0c23	sb	x7,-8(x30)	 x30:0x800085ac  x7:0xffffff8c PA:0x800085a4
       45145000	      4513	80005d08	005d9bb3	sll	x23,x27,x5	 x27:0xffffbdaa  x5:0x00000000 x23=0xffffbdaa
       45155000	      4514	80005d0c	003f2a33	slt	x20,x30,x3	 x30:0x800085ac  x3:0x00008000 x20=0x00000001
       45165000	      4515	80005d10	3bf28613	addi	x12,x5,959	  x5:0x00000000 x12=0x000003bf
       45175000	      4516	80005d14	fd3f0603	lb	x12,-45(x30)	 x30:0x800085ac x12=0x0000002f PA:0x8000857f
       45185000	      4517	80005d18	00b37733	and	x14,x6,x11	  x6:0x0000000e x11:0xffffdc5f x14=0x0000000e
       45195000	      4518	80005d1c	00209713	slli	x14,x1,0x2	  x1:0x00000028 x14=0x000000a0
       45205000	      4519	80005d20	002095b3	sll	x11,x1,x2	  x1:0x00000028  x2:0xaa8dd69f x11=0x00000000
       45215000	      4520	80005d24	002f1583	lh	x11,2(x30)	 x30:0x800085ac x11=0xffffc388 PA:0x800085ae
       45225000	      4521	80005d28	00003717	auipc	x14,0x3	 x14=0x80008d24
       45235000	      4522	80005d2c	c7870713	addi	x14,x14,-904	 x14:0x80008d24 x14=0x8000899c
       45245000	      4523	80005d30	02172e23	sw	x1,60(x14)	 x14:0x8000899c  x1:0x00000028 PA:0x800089d8
       45255000	      4524	80005d34	00374183	lbu	x3,3(x14)	 x14:0x8000899c  x3=0x00000021 PA:0x8000899f
       45265000	      4525	80005d38	02572623	sw	x5,44(x14)	 x14:0x8000899c  x5:0x00000000 PA:0x800089c8
       45275000	      4526	80005d3c	590ef517	auipc	x10,0x590ef	 x10=0xd90f4d38
       45285000	      4527	80005d40	86e0b813	sltiu	x16,x1,-1938	  x1:0x00000028 x16=0x00000001
       45295000	      4528	80005d44	00671983	lh	x19,6(x14)	 x14:0x8000899c x19=0xffffcfae PA:0x800089a2
       45305000	      4529	80005d48	fc370d83	lb	x27,-61(x14)	 x14:0x8000899c x27=0xffffff9f PA:0x8000895f
       45315000	      4530	80005d4c	fd571223	sh	x21,-60(x14)	 x14:0x8000899c x21:0x00000000 PA:0x80008960
       45325000	      4531	80005d50	0131ab33	slt	x22,x3,x19	  x3:0x00000021 x19:0xffffcfae x22=0x00000000
       45335000	      4532	80005d54	fea71883	lh	x17,-22(x14)	 x14:0x8000899c x17=0x00005631 PA:0x80008986
       45345000	      4533	80005d58	fef74f03	lbu	x30,-17(x14)	 x14:0x8000899c x30=0x0000000e PA:0x8000898b
       45355000	      4534	80005d5c	fe970ea3	sb	x9,-3(x14)	 x14:0x8000899c  x9:0x00000000 PA:0x80008999
       45365000	      4535	80005d60	03474883	lbu	x17,52(x14)	 x14:0x8000899c x17=0x0000003e PA:0x800089d0
       45375000	      4536	80005d64	4187de13	srai	x28,x15,0x18	 x15:0x80009fc4 x28=0xffffff80
       45385000	      4537	80005d68	84e70393	addi	x7,x14,-1970	 x14:0x8000899c  x7=0x800081ea
       45395000	      4538	80005d6c	419d8d33	sub	x26,x27,x25	 x27:0xffffff9f x25:0x80009f44 x26=0x7fff605b
       45405000	      4539	80005d70	00c77533	and	x10,x14,x12	 x14:0x8000899c x12:0x0000002f x10=0x0000000c
       45415000	      4540	80005d74	02d70003	lb	x0,45(x14)	 x14:0x8000899c PA:0x800089c9
       45425000	      4541	80005d78	fc574e83	lbu	x29,-59(x14)	 x14:0x8000899c x29=0x00000000 PA:0x80008961
       45435000	      4542	80005d7c	a29c7a13	andi	x20,x24,-1495	 x24:0x00000022 x20=0x00000020
       45445000	      4543	80005d80	01271003	lh	x0,18(x14)	 x14:0x8000899c PA:0x800089ae
       45455000	      4544	80005d84	032707a3	sb	x18,47(x14)	 x14:0x8000899c x18:0x4000449e PA:0x800089cb
       45465000	      4545	80005d88	fd470f83	lb	x31,-44(x14)	 x14:0x8000899c x31=0xffffffee PA:0x80008970
       45475000	      4546	80005d8c	fcf70b23	sb	x15,-42(x14)	 x14:0x8000899c x15:0x80009fc4 PA:0x80008972
       45485000	      4547	80005d90	fcd70003	lb	x0,-51(x14)	 x14:0x8000899c PA:0x80008969
       45495000	      4548	80005d94	fc972623	sw	x9,-52(x14)	 x14:0x8000899c  x9:0x00000000 PA:0x80008968
       45505000	      4549	80005d98	00171d23	sh	x1,26(x14)	 x14:0x8000899c  x1:0x00000028 PA:0x800089b6
       45515000	      4550	80005d9c	fe471403	lh	x8,-28(x14)	 x14:0x8000899c  x8=0xfffff3dc PA:0x80008980
       45525000	      4551	80005da0	fea75c03	lhu	x24,-22(x14)	 x14:0x8000899c x24=0x00005631 PA:0x80008986
       45535000	      4552	80005da4	ff770203	lb	x4,-9(x14)	 x14:0x8000899c  x4=0xffffffc7 PA:0x80008993
       45545000	      4553	80005da8	40812a37	lui	x20,0x40812	 x20=0x40812000
       45555000	      4554	80005dac	03170c03	lb	x24,49(x14)	 x14:0x8000899c x24=0x0000005a PA:0x800089cd
       45565000	      4555	80005db0	fc171323	sh	x1,-58(x14)	 x14:0x8000899c  x1:0x00000028 PA:0x80008962
       45575000	      4556	80005db4	010eabb3	slt	x23,x29,x16	 x29:0x00000000 x16:0x00000001 x23=0x00000001
       45585000	      4557	80005db8	03e71583	lh	x11,62(x14)	 x14:0x8000899c x11=0x00000000 PA:0x800089da
       45595000	      4558	80005dbc	410e56b3	sra	x13,x28,x16	 x28:0xffffff80 x16:0x00000001 x13=0xffffffc0
       45605000	      4559	80005dc0	fe072623	sw	x0,-20(x14)	 x14:0x8000899c  x0:0x00000000 PA:0x80008988
       45615000	      4560	80005dc4	fd9703a3	sb	x25,-57(x14)	 x14:0x8000899c x25:0x80009f44 PA:0x80008963
       45625000	      4561	80005dc8	fd470b83	lb	x23,-44(x14)	 x14:0x8000899c x23=0xffffffee PA:0x80008970
       45635000	      4562	80005dcc	35e5e093	ori	x1,x11,862	 x11:0x00000000  x1=0x0000035e
       45645000	      4563	80005dd0	c3f57b93	andi	x23,x10,-961	 x10:0x0000000c x23=0x0000000c
       45655000	      4564	80005dd4	41fc85b3	sub	x11,x25,x31	 x25:0x80009f44 x31:0xffffffee x11=0x80009f56
       45665000	      4565	80005dd8	b6454c13	xori	x24,x10,-1180	 x10:0x0000000c x24=0xfffffb68
       45675000	      4566	80005ddc	406888b3	sub	x17,x17,x6	 x17:0x0000003e  x6:0x0000000e x17=0x00000030
       45685000	      4567	80005de0	41ce0333	sub	x6,x28,x28	 x28:0xffffff80 x28:0xffffff80  x6=0x00000000
       45695000	      4568	80005de4	15a8f213	andi	x4,x17,346	 x17:0x00000030  x4=0x00000010
       45705000	      4569	80005de8	03427463	bgeu	x4,x20,80005e10	  x4:0x00000010 x20:0x40812000
       45715000	      4570	80005dec	402f8e33	sub	x28,x31,x2	 x31:0xffffffee  x2:0xaa8dd69f x28=0x5572294f
       45725000	      4571	80005df0	0110fa63	bgeu	x1,x17,80005e04	  x1:0x0000035e x17:0x00000030
       45735000	      4572	00000000	00000013	addi	x0,x0,0	  x0:0x00000000
       45745000	      4573	80005e00	00000013	addi	x0,x0,0	  x0:0x00000000
       45755000	      4574	80005e04	85b52293	slti	x5,x10,-1957	 x10:0x0000000c  x5=0x00000000
       45765000	      4575	80005e08	00c45493	srli	x9,x8,0xc	  x8:0xfffff3dc  x9=0x000fffff
       45775000	      4576	80005e0c	01dbe433	or	x8,x23,x29	 x23:0x0000000c x29:0x00000000  x8=0x0000000c
       45785000	      4577	80005e10	e4f17e13	andi	x28,x2,-433	  x2:0xaa8dd69f x28=0xaa8dd60f
       45795000	      4578	80005e14	41d18a33	sub	x20,x3,x29	  x3:0x00000021 x29:0x00000000 x20=0x00000021
       45805000	      4579	80005e18	58e23593	sltiu	x11,x4,1422	  x4:0x00000010 x11=0x00000001
       45815000	      4580	80005e1c	35a9d317	auipc	x6,0x35a9d	  x6=0xb5aa2e18
       45825000	      4581	80005e20	91236d93	ori	x27,x6,-1774	  x6:0xb5aa2e18 x27=0xffffff1a
       45835000	      4582	80005e24	c2330993	addi	x19,x6,-989	  x6:0xb5aa2e18 x19=0xb5aa2a3b
       45845000	      4583	80005e28	005d4463	blt	x26,x5,80005e30	 x26:0x7fff605b  x5:0x00000000
       45855000	      4584	80005e2c	406fdab3	sra	x21,x31,x6	 x31:0xffffffee  x6:0xb5aa2e18 x21=0xffffffff
       45865000	      4585	80005e30	5e91b413	sltiu	x8,x3,1513	  x3:0x00000021  x8=0x00000001
       45875000	      4586	80005e34	041fe463	bltu	x31,x1,80005e7c	 x31:0xffffffee  x1:0x0000035e
       45885000	      4587	80005e38	009e9463	bne	x29,x9,80005e40	 x29:0x00000000  x9:0x000fffff
       45895000	      4588	00000000	00000013	addi	x0,x0,0	  x0:0x00000000
       45905000	      4589	80005e3c	00000013	addi	x0,x0,0	  x0:0x00000000
       45915000	      4590	80005e40	0332ee63	bltu	x5,x19,80005e7c	  x5:0x00000000 x19:0xb5aa2a3b
       45925000	      4591	00000000	00000013	addi	x0,x0,0	  x0:0x00000000
       45935000	      4592	80005e78	00000013	addi	x0,x0,0	  x0:0x00000000
       45945000	      4593	80005e7c	04e82d13	slti	x26,x16,78	 x16:0x00000001 x26=0x00000001
       45955000	      4594	80005e80	032c1e63	bne	x24,x18,80005ebc	 x24:0xfffffb68 x18:0x4000449e
       45965000	      4595	00000000	00000013	addi	x0,x0,0	  x0:0x00000000
       45975000	      4596	80005eb8	00000013	addi	x0,x0,0	  x0:0x00000000
       45985000	      4597	80005ebc	968a0893	addi	x17,x20,-1688	 x20:0x00000021 x17=0xfffff989
       45995000	      4598	80005ec0	01969ab3	sll	x21,x13,x25	 x13:0xffffffc0 x25:0x80009f44 x21=0xfffffc00
       46005000	      4599	80005ec4	02189c63	bne	x17,x1,80005efc	 x17:0xfffff989  x1:0x0000035e
       46015000	      4600	00000000	00000013	addi	x0,x0,0	  x0:0x00000000
       46025000	      4601	80005ef8	00000013	addi	x0,x0,0	  x0:0x00000000
       46035000	      4602	80005efc	01630c63	beq	x6,x22,80005f14	  x6:0xb5aa2e18 x22:0x00000000
       46045000	      4603	80005f00	01ff9e13	slli	x28,x31,0x1f	 x31:0xffffffee x28=0x00000000
       46055000	      4604	80005f04	aff4fc13	andi	x24,x9,-1281	  x9:0x000fffff x24=0x000ffaff
       46065000	      4605	80005f08	26716513	ori	x10,x2,615	  x2:0xaa8dd69f x10=0xaa8dd6ff
       46075000	      4606	80005f0c	417b5093	srai	x1,x22,0x17	 x22:0x00000000  x1=0x00000000
       46085000	      4607	80005f10	0309d263	bge	x19,x16,80005f34	 x19:0xb5aa2a3b x16:0x00000001
       46095000	      4608	80005f14	00000013	addi	x0,x0,0	  x0:0x00000000
       46105000	      4609	80005f18	002602b3	add	x5,x12,x2	 x12:0x0000002f  x2:0xaa8dd69f  x5=0xaa8dd6ce
       46115000	      4610	80005f1c	00000013	addi	x0,x0,0	  x0:0x00000000
       46125000	      4611	80005f20	3040bf93	sltiu	x31,x1,772	  x1:0x00000000 x31=0x00000001
       46135000	      4612	80005f24	00000013	addi	x0,x0,0	  x0:0x00000000
       46145000	      4613	80005f28	01749a93	slli	x21,x9,0x17	  x9:0x000fffff x21=0xff800000
       46155000	      4614	80005f2c	f045f493	andi	x9,x11,-252	 x11:0x00000001  x9=0x00000000
       46165000	      4615	80005f30	4135d233	sra	x4,x11,x19	 x11:0x00000001 x19:0xb5aa2a3b  x4=0x00000000
       46175000	      4616	80005f34	01119933	sll	x18,x3,x17	  x3:0x00000021 x17:0xfffff989 x18=0x00004200
       46185000	      4617	80005f38	22500913	addi	x18,x0,549	  x0:0x00000000 x18=0x00000225
       46195000	      4618	80005f3c	e5777213	andi	x4,x14,-425	 x14:0x8000899c  x4=0x80008814
       46205000	      4619	80005f40	01b10c63	beq	x2,x27,80005f58	  x2:0xaa8dd69f x27:0xffffff1a
       46215000	      4620	80005f44	323beb93	ori	x23,x23,803	 x23:0x0000000c x23=0x0000032f
       46225000	      4621	80005f48	f598f893	andi	x17,x17,-167	 x17:0xfffff989 x17=0xfffff909
       46235000	      4622	80005f4c	008c0fb3	add	x31,x24,x8	 x24:0x000ffaff  x8:0x00000001 x31=0x000ffb00
       46245000	      4623	80005f50	03fce663	bltu	x25,x31,80005f7c	 x25:0x80009f44 x31:0x000ffb00
       46255000	      4624	80005f54	4160f913	andi	x18,x1,1046	  x1:0x00000000 x18=0x00000000
       46265000	      4625	80005f58	41455fb3	sra	x31,x10,x20	 x10:0xaa8dd6ff x20:0x00000021 x31=0xd546eb7f
       46275000	      4626	80005f5c	88457713	andi	x14,x10,-1916	 x10:0xaa8dd6ff x14=0xaa8dd084
       46285000	      4627	80005f60	0204d863	bge	x9,x0,80005f90	  x9:0x00000000  x0:0x00000000
       46295000	      4628	00000000	00000013	addi	x0,x0,0	  x0:0x00000000
       46305000	      4629	80005f8c	00000013	addi	x0,x0,0	  x0:0x00000000
       46315000	      4630	80005f90	001486b3	add	x13,x9,x1	  x9:0x00000000  x1:0x00000000 x13=0x00000000
       46325000	      4631	80005f94	012d5813	srli	x16,x26,0x12	 x26:0x00000001 x16=0x00000000
       46335000	      4632	80005f98	00965633	srl	x12,x12,x9	 x12:0x0000002f  x9:0x00000000 x12=0x0000002f
       46345000	      4633	80005f9c	01ef7c63	bgeu	x30,x30,80005fb4	 x30:0x0000000e x30:0x0000000e
       46355000	      4634	00000000	00000013	addi	x0,x0,0	  x0:0x00000000
       46365000	      4635	80005fb0	00000013	addi	x0,x0,0	  x0:0x00000000
       46375000	      4636	80005fb4	0c4c6bb7	lui	x23,0xc4c6	 x23=0x0c4c6000
       46385000	      4637	80005fb8	01c935b3	sltu	x11,x18,x28	 x18:0x00000000 x28:0x00000000 x11=0x00000000
       46395000	      4638	80005fbc	403cdb33	sra	x22,x25,x3	 x25:0x80009f44  x3:0x00000021 x22=0xc0004fa2
       46405000	      4639	80005fc0	059e0863	beq	x28,x25,80006010	 x28:0x00000000 x25:0x80009f44
       46415000	      4640	80005fc4	004496b3	sll	x13,x9,x4	  x9:0x00000000  x4:0x80008814 x13=0x00000000
       46425000	      4641	80005fc8	00aba3b3	slt	x7,x23,x10	 x23:0x0c4c6000 x10:0xaa8dd6ff  x7=0x00000000
       46435000	      4642	80005fcc	0248f463	bgeu	x17,x4,80005ff4	 x17:0xfffff909  x4:0x80008814
       46445000	      4643	00000000	00000013	addi	x0,x0,0	  x0:0x00000000
       46455000	      4644	80005ff0	00000013	addi	x0,x0,0	  x0:0x00000000
       46465000	      4645	80005ff4	22f17e93	andi	x29,x2,559	  x2:0xaa8dd69f x29=0x0000020f
       46475000	      4646	80005ff8	01f7e663	bltu	x15,x31,80006004	 x15:0x80009fc4 x31:0xd546eb7f
       46485000	      4647	00000000	00000013	addi	x0,x0,0	  x0:0x00000000
       46495000	      4648	80006000	00000013	addi	x0,x0,0	  x0:0x00000000
       46505000	      4649	80006004	0122ca33	xor	x20,x5,x18	  x5:0xaa8dd6ce x18:0x00000000 x20=0xaa8dd6ce
       46515000	      4650	80006008	eb6fb093	sltiu	x1,x31,-330	 x31:0xd546eb7f  x1=0x00000001
       46525000	      4651	8000600c	02af0c63	beq	x30,x10,80006044	 x30:0x0000000e x10:0xaa8dd6ff
       46535000	      4652	80006010	019aa833	slt	x16,x21,x25	 x21:0xff800000 x25:0x80009f44 x16=0x00000000
       46545000	      4653	80006014	f6b42013	slti	x0,x8,-149	  x8:0x00000001
       46555000	      4654	80006018	0118b8b3	sltu	x17,x17,x17	 x17:0xfffff909 x17:0xfffff909 x17=0x00000000
       46565000	      4655	8000601c	02181263	bne	x16,x1,80006040	 x16:0x00000000  x1:0x00000001
       46575000	      4656	00000000	00000013	addi	x0,x0,0	  x0:0x00000000
       46585000	      4657	8000603c	00000013	addi	x0,x0,0	  x0:0x00000000
       46595000	      4658	80006040	405c5c33	sra	x24,x24,x5	 x24:0x000ffaff  x5:0xaa8dd6ce x24=0x0000003f
       46605000	      4659	80006044	d56f4093	xori	x1,x30,-682	 x30:0x0000000e  x1=0xfffffd58
       46615000	      4660	80006048	9ff7d097	auipc	x1,0x9ff7d	  x1=0x1ff83044
       46625000	      4661	8000604c	41cf5033	sra	x0,x30,x28	 x30:0x0000000e x28:0x00000000
       46635000	      4662	80006050	463f2013	slti	x0,x30,1123	 x30:0x0000000e
       46645000	      4663	80006054	7c60b393	sltiu	x7,x1,1990	  x1:0x1ff83044  x7=0x00000000
       46655000	      4664	80006058	0175d633	srl	x12,x11,x23	 x11:0x00000000 x23:0x0c4c6000 x12=0x00000000
       46665000	      4665	8000605c	40b306b3	sub	x13,x6,x11	  x6:0xb5aa2e18 x11:0x00000000 x13=0xb5aa2e18
       46675000	      4666	80006060	027e4463	blt	x28,x7,80006088	 x28:0x00000000  x7:0x00000000
       46685000	      4667	80006064	015535b3	sltu	x11,x10,x21	 x10:0xaa8dd6ff x21:0xff800000 x11=0x00000001
       46695000	      4668	80006068	00adcb33	xor	x22,x27,x10	 x27:0xffffff1a x10:0xaa8dd6ff x22=0x557229e5
       46705000	      4669	8000606c	00000013	addi	x0,x0,0	  x0:0x00000000
       46715000	      4670	80006070	d79fc313	xori	x6,x31,-647	 x31:0xd546eb7f  x6=0x2ab91606
       46725000	      4671	80006074	407ed233	sra	x4,x29,x7	 x29:0x0000020f  x7:0x00000000  x4=0x0000020f
       46735000	      4672	80006078	0140cbb3	xor	x23,x1,x20	  x1:0x1ff83044 x20:0xaa8dd6ce x23=0xb575e68a
       46745000	      4673	8000607c	0105fb33	and	x22,x11,x16	 x11:0x00000001 x16:0x00000000 x22=0x00000000
       46755000	      4674	80006080	f7658b13	addi	x22,x11,-138	 x11:0x00000001 x22=0xffffff77
       46765000	      4675	80006084	016b5a63	bge	x22,x22,80006098	 x22:0xffffff77 x22:0xffffff77
       46775000	      4676	00000000	00000013	addi	x0,x0,0	  x0:0x00000000
       46785000	      4677	80006094	00000013	addi	x0,x0,0	  x0:0x00000000
       46795000	      4678	80006098	ca03a993	slti	x19,x7,-864	  x7:0x00000000 x19=0x00000000
       46805000	      4679	8000609c	e8580d97	auipc	x27,0xe8580	 x27=0x68586098
       46815000	      4680	800060a0	018f5f13	srli	x30,x30,0x18	 x30:0x0000000e x30=0x00000000
       46825000	      4681	800060a4	00fd5993	srli	x19,x26,0xf	 x26:0x00000001 x19=0x00000000
       46835000	      4682	800060a8	41260fb3	sub	x31,x12,x18	 x12:0x00000000 x18:0x00000000 x31=0x00000000
       46845000	      4683	800060ac	00000013	addi	x0,x0,0	  x0:0x00000000
       46855000	      4684	800060b0	01f9e5b3	or	x11,x19,x31	 x19:0x00000000 x31:0x00000000 x11=0x00000000
       46865000	      4685	800060b4	0155f863	bgeu	x11,x21,800060c4	 x11:0x00000000 x21:0xff800000
       46875000	      4686	800060b8	0003d463	bge	x7,x0,800060c0	  x7:0x00000000  x0:0x00000000
       46885000	      4687	00000000	00000013	addi	x0,x0,0	  x0:0x00000000
       46895000	      4688	800060bc	00000013	addi	x0,x0,0	  x0:0x00000000
       46905000	      4689	800060c0	04cb1863	bne	x22,x12,80006110	 x22:0xffffff77 x12:0x00000000
       46915000	      4690	00000000	00000013	addi	x0,x0,0	  x0:0x00000000
       46925000	      4691	8000610c	00000013	addi	x0,x0,0	  x0:0x00000000
       46935000	      4692	80006110	40018433	sub	x8,x3,x0	  x3:0x00000021  x0:0x00000000  x8=0x00000021
       46945000	      4693	80006114	00291413	slli	x8,x18,0x2	 x18:0x00000000  x8=0x00000000
       46955000	      4694	80006118	01d2ea63	bltu	x5,x29,8000612c	  x5:0xaa8dd6ce x29:0x0000020f
       46965000	      4695	8000611c	34327893	andi	x17,x4,835	  x4:0x0000020f x17=0x00000203
       46975000	      4696	80006120	4ed0cb93	xori	x23,x1,1261	  x1:0x1ff83044 x23=0x1ff834a9
       46985000	      4697	80006124	00151bb3	sll	x23,x10,x1	 x10:0xaa8dd6ff  x1:0x1ff83044 x23=0xa8dd6ff0
       46995000	      4698	80006128	40ca0533	sub	x10,x20,x12	 x20:0xaa8dd6ce x12:0x00000000 x10=0xaa8dd6ce
       47005000	      4699	8000612c	02030463	beq	x6,x0,80006154	  x6:0x2ab91606  x0:0x00000000
       47015000	      4700	80006130	1eb1b813	sltiu	x16,x3,491	  x3:0x00000021 x16=0x00000001
       47025000	      4701	80006134	03a77c63	bgeu	x14,x26,8000616c	 x14:0xaa8dd084 x26:0x00000001
       47035000	      4702	00000000	00000013	addi	x0,x0,0	  x0:0x00000000
       47045000	      4703	80006168	00000013	addi	x0,x0,0	  x0:0x00000000
       47055000	      4704	8000616c	0113d293	srli	x5,x7,0x11	  x7:0x00000000  x5=0x00000000
       47065000	      4705	80006170	045a5463	bge	x20,x5,800061b8	 x20:0xaa8dd6ce  x5:0x00000000
       47075000	      4706	80006174	009038b3	sltu	x17,x0,x9	  x0:0x00000000  x9:0x00000000 x17=0x00000000
       47085000	      4707	80006178	006649b3	xor	x19,x12,x6	 x12:0x00000000  x6:0x2ab91606 x19=0x2ab91606
       47095000	      4708	8000617c	0195a4b3	slt	x9,x11,x25	 x11:0x00000000 x25:0x80009f44  x9=0x00000000
       47105000	      4709	80006180	01d7d993	srli	x19,x15,0x1d	 x15:0x80009fc4 x19=0x00000004
       47115000	      4710	80006184	ce302313	slti	x6,x0,-797	  x0:0x00000000  x6=0x00000000
       47125000	      4711	80006188	02adea63	bltu	x27,x10,800061bc	 x27:0x68586098 x10:0xaa8dd6ce
       47135000	      4712	00000000	00000013	addi	x0,x0,0	  x0:0x00000000
       47145000	      4713	800061b8	00000013	addi	x0,x0,0	  x0:0x00000000
       47155000	      4714	800061bc	01a6be33	sltu	x28,x13,x26	 x13:0xb5aa2e18 x26:0x00000001 x28=0x00000000
       47165000	      4715	800061c0	018f8333	add	x6,x31,x24	 x31:0x00000000 x24:0x0000003f  x6=0x0000003f
       47175000	      4716	800061c4	00eacb33	xor	x22,x21,x14	 x21:0xff800000 x14:0xaa8dd084 x22=0x550dd084
       47185000	      4717	800061c8	02255e63	bge	x10,x2,80006204	 x10:0xaa8dd6ce  x2:0xaa8dd69f
       47195000	      4718	00000000	00000013	addi	x0,x0,0	  x0:0x00000000
       47205000	      4719	80006200	00000013	addi	x0,x0,0	  x0:0x00000000
       47215000	      4720	80006204	629bc617	auipc	x12,0x629bc	 x12=0xe29c2200
       47225000	      4721	80006208	02b16a63	bltu	x2,x11,8000623c	  x2:0xaa8dd69f x11:0x00000000
       47235000	      4722	8000620c	035b0663	beq	x22,x21,80006238	 x22:0x550dd084 x21:0xff800000
       47245000	      4723	80006210	030ff063	bgeu	x31,x16,80006230	 x31:0x00000000 x16:0x00000001
       47255000	      4724	80006214	49880537	lui	x10,0x49880	 x10=0x49880000
       47265000	      4725	80006218	00f2d9b3	srl	x19,x5,x15	  x5:0x00000000 x15:0x80009fc4 x19=0x00000000
       47275000	      4726	8000621c	00f88863	beq	x17,x15,8000622c	 x17:0x00000000 x15:0x80009fc4
       47285000	      4727	80006220	eec22013	slti	x0,x4,-276	  x4:0x0000020f
       47295000	      4728	80006224	00bf1bb3	sll	x23,x30,x11	 x30:0x00000000 x11:0x00000000 x23=0x00000000
       47305000	      4729	80006228	409958b3	sra	x17,x18,x9	 x18:0x00000000  x9:0x00000000 x17=0x00000000
       47315000	      4730	8000622c	bdbcf413	andi	x8,x25,-1061	 x25:0x80009f44  x8=0x80009b40
       47325000	      4731	80006230	017456b3	srl	x13,x8,x23	  x8:0x80009b40 x23:0x00000000 x13=0x80009b40
       47335000	      4732	80006234	00000013	addi	x0,x0,0	  x0:0x00000000
       47345000	      4733	80006238	01079bb3	sll	x23,x15,x16	 x15:0x80009fc4 x16:0x00000001 x23=0x00013f88
       47355000	      4734	8000623c	01f24033	xor	x0,x4,x31	  x4:0x0000020f x31:0x00000000
       47365000	      4735	80006240	0149bf33	sltu	x30,x19,x20	 x19:0x00000000 x20:0xaa8dd6ce x30=0x00000001
       47375000	      4736	80006244	f20b7d37	lui	x26,0xf20b7	 x26=0xf20b7000
       47385000	      4737	80006248	00231293	slli	x5,x6,0x2	  x6:0x0000003f  x5=0x000000fc
       47395000	      4738	8000624c	010e8a63	beq	x29,x16,80006260	 x29:0x0000020f x16:0x00000001
       47405000	      4739	80006250	00e51c63	bne	x10,x14,80006268	 x10:0x49880000 x14:0xaa8dd084
       47415000	      4740	00000000	00000013	addi	x0,x0,0	  x0:0x00000000
       47425000	      4741	80006264	00000013	addi	x0,x0,0	  x0:0x00000000
       47435000	      4742	80006268	01b37933	and	x18,x6,x27	  x6:0x0000003f x27:0x68586098 x18=0x00000018
       47445000	      4743	8000626c	00000013	addi	x0,x0,0	  x0:0x00000000
       47455000	      4744	80006270	c6cfaf13	slti	x30,x31,-916	 x31:0x00000000 x30=0x00000000
       47465000	      4745	80006274	0042d463	bge	x5,x4,8000627c	  x5:0x000000fc  x4:0x0000020f
       47475000	      4746	80006278	04ed9a63	bne	x27,x14,800062cc	 x27:0x68586098 x14:0xaa8dd084
       47485000	      4747	00000000	00000013	addi	x0,x0,0	  x0:0x00000000
       47495000	      4748	800062c8	00000013	addi	x0,x0,0	  x0:0x00000000
       47505000	      4749	800062cc	01f6ec63	bltu	x13,x31,800062e4	 x13:0x80009b40 x31:0x00000000
       47515000	      4750	800062d0	05d37063	bgeu	x6,x29,80006310	  x6:0x0000003f x29:0x0000020f
       47525000	      4751	800062d4	00fb5913	srli	x18,x22,0xf	 x22:0x550dd084 x18=0x0000aa1b
       47535000	      4752	800062d8	688064b7	lui	x9,0x68806	  x9=0x68806000
       47545000	      4753	800062dc	47e1cd13	xori	x26,x3,1150	  x3:0x00000021 x26=0x0000045f
       47555000	      4754	800062e0	41a60933	sub	x18,x12,x26	 x12:0xe29c2200 x26:0x0000045f x18=0xe29c1da1
       47565000	      4755	800062e4	6e128213	addi	x4,x5,1761	  x5:0x000000fc  x4=0x000007dd
       47575000	      4756	800062e8	02947063	bgeu	x8,x9,80006308	  x8:0x80009b40  x9:0x68806000
       47585000	      4757	00000000	00000013	addi	x0,x0,0	  x0:0x00000000
       47595000	      4758	80006304	00000013	addi	x0,x0,0	  x0:0x00000000
       47605000	      4759	80006308	277d0413	addi	x8,x26,631	 x26:0x0000045f  x8=0x000006d6
       47615000	      4760	8000630c	04afe463	bltu	x31,x10,80006354	 x31:0x00000000 x10:0x49880000
       47625000	      4761	00000000	00000013	addi	x0,x0,0	  x0:0x00000000
       47635000	      4762	80006350	00000013	addi	x0,x0,0	  x0:0x00000000
       47645000	      4763	80006354	009c5513	srli	x10,x24,0x9	 x24:0x0000003f x10=0x00000000
       47655000	      4764	80006358	2e306b13	ori	x22,x0,739	  x0:0x00000000 x22=0x000002e3
       47665000	      4765	8000635c	01ed0e63	beq	x26,x30,80006378	 x26:0x0000045f x30:0x00000000
       47675000	      4766	80006360	010a4ab3	xor	x21,x20,x16	 x20:0xaa8dd6ce x16:0x00000001 x21=0xaa8dd6cf
       47685000	      4767	80006364	414f5393	srai	x7,x30,0x14	 x30:0x00000000  x7=0x00000000
       47695000	      4768	80006368	41538db3	sub	x27,x7,x21	  x7:0x00000000 x21:0xaa8dd6cf x27=0x55722931
       47705000	      4769	8000636c	00375b33	srl	x22,x14,x3	 x14:0xaa8dd084  x3:0x00000021 x22=0x5546e842
       47715000	      4770	80006370	ab0fa413	slti	x8,x31,-1360	 x31:0x00000000  x8=0x00000000
       47725000	      4771	80006374	40aa5db3	sra	x27,x20,x10	 x20:0xaa8dd6ce x10:0x00000000 x27=0xaa8dd6ce
       47735000	      4772	80006378	720eb897	auipc	x17,0x720eb	 x17=0xf20f1374
       47745000	      4773	8000637c	dea90a13	addi	x20,x18,-534	 x18:0xe29c1da1 x20=0xe29c1b8b
       47755000	      4774	80006380	406655b3	sra	x11,x12,x6	 x12:0xe29c2200  x6:0x0000003f x11=0xffffffff
       47765000	      4775	80006384	0e682e13	slti	x28,x16,230	 x16:0x00000001 x28=0x00000001
       47775000	      4776	80006388	006dd6b3	srl	x13,x27,x6	 x27:0xaa8dd6ce  x6:0x0000003f x13=0x00000001
       47785000	      4777	8000638c	01f11213	slli	x4,x2,0x1f	  x2:0xaa8dd69f  x4=0x80000000
       47795000	      4778	80006390	b7bfa993	slti	x19,x31,-1157	 x31:0x00000000 x19=0x00000000
       47805000	      4779	80006394	404bd033	sra	x0,x23,x4	 x23:0x00013f88  x4:0x80000000
       47815000	      4780	80006398	00000013	addi	x0,x0,0	  x0:0x00000000
       47825000	      4781	8000639c	01dc20b3	slt	x1,x24,x29	 x24:0x0000003f x29:0x0000020f  x1=0x00000001
       47835000	      4782	800063a0	01cedfb3	srl	x31,x29,x28	 x29:0x0000020f x28:0x00000001 x31=0x00000107
       47845000	      4783	800063a4	006a9d93	slli	x27,x21,0x6	 x21:0xaa8dd6cf x27=0xa375b3c0
       47855000	      4784	800063a8	01928833	add	x16,x5,x25	  x5:0x000000fc x25:0x80009f44 x16=0x8000a040
       47865000	      4785	800063ac	0199d463	bge	x19,x25,800063b4	 x19:0x00000000 x25:0x80009f44
       47875000	      4786	00000000	00000013	addi	x0,x0,0	  x0:0x00000000
       47885000	      4787	800063b0	00000013	addi	x0,x0,0	  x0:0x00000000
       47895000	      4788	800063b4	00000013	addi	x0,x0,0	  x0:0x00000000
       47905000	      4789	800063b8	002f91b3	sll	x3,x31,x2	 x31:0x00000107  x2:0xaa8dd69f  x3=0x80000000
       47915000	      4790	800063bc	74aef693	andi	x13,x29,1866	 x29:0x0000020f x13=0x0000020a
       47925000	      4791	800063c0	009d38b3	sltu	x17,x26,x9	 x26:0x0000045f  x9:0x68806000 x17=0x00000001
       47935000	      4792	800063c4	00000013	addi	x0,x0,0	  x0:0x00000000
       47945000	      4793	800063c8	0184c5b3	xor	x11,x9,x24	  x9:0x68806000 x24:0x0000003f x11=0x6880603f
       47955000	      4794	800063cc	03a17263	bgeu	x2,x26,800063f0	  x2:0xaa8dd69f x26:0x0000045f
       47965000	      4795	00000000	00000013	addi	x0,x0,0	  x0:0x00000000
       47975000	      4796	800063ec	00000013	addi	x0,x0,0	  x0:0x00000000
       47985000	      4797	800063f0	40788933	sub	x18,x17,x7	 x17:0x00000001  x7:0x00000000 x18=0x00000001
       47995000	      4798	800063f4	004f3f33	sltu	x30,x30,x4	 x30:0x00000000  x4:0x80000000 x30=0x00000001
       48005000	      4799	800063f8	007b4a63	blt	x22,x7,8000640c	 x22:0x5546e842  x7:0x00000000
       48015000	      4800	800063fc	00114a33	xor	x20,x2,x1	  x2:0xaa8dd69f  x1:0x00000001 x20=0xaa8dd69e
       48025000	      4801	80006400	010b8833	add	x16,x23,x16	 x23:0x00013f88 x16:0x8000a040 x16=0x8001dfc8
       48035000	      4802	80006404	0011c663	blt	x3,x1,80006410	  x3:0x80000000  x1:0x00000001
       48045000	      4803	00000000	00000013	addi	x0,x0,0	  x0:0x00000000
       48055000	      4804	8000640c	00000013	addi	x0,x0,0	  x0:0x00000000
       48065000	      4805	80006410	40c58b33	sub	x22,x11,x12	 x11:0x6880603f x12:0xe29c2200 x22=0x85e43e3f
       48075000	      4806	80006414	00e6e9b3	or	x19,x13,x14	 x13:0x0000020a x14:0xaa8dd084 x19=0xaa8dd28e
       48085000	      4807	80006418	a8d9f897	auipc	x17,0xa8d9f	 x17=0x28da5414
       48095000	      4808	8000641c	00000013	addi	x0,x0,0	  x0:0x00000000
       48105000	      4809	80006420	f82f8b93	addi	x23,x31,-126	 x31:0x00000107 x23=0x00000089
       48115000	      4810	80006424	5ddd8593	addi	x11,x27,1501	 x27:0xa375b3c0 x11=0xa375b99d
       48125000	      4811	80006428	045ee263	bltu	x29,x5,8000646c	 x29:0x0000020f  x5:0x000000fc
       48135000	      4812	8000642c	08357d93	andi	x27,x10,131	 x10:0x00000000 x27=0x00000000
       48145000	      4813	80006430	0108bfb3	sltu	x31,x17,x16	 x17:0x28da5414 x16:0x8001dfc8 x31=0x00000001
       48155000	      4814	80006434	01bd5263	bge	x26,x27,80006438	 x26:0x0000045f x27:0x00000000
       48165000	      4815	00000000	00000013	addi	x0,x0,0	  x0:0x00000000
       48175000	      4816	80006434	00000013	addi	x0,x0,0	  x0:0x00000000
       48185000	      4817	80006438	02e17463	bgeu	x2,x14,80006460	  x2:0xaa8dd69f x14:0xaa8dd084
       48195000	      4818	00000000	00000013	addi	x0,x0,0	  x0:0x00000000
       48205000	      4819	8000645c	00000013	addi	x0,x0,0	  x0:0x00000000
       48215000	      4820	80006460	417e51b3	sra	x3,x28,x23	 x28:0x00000001 x23:0x00000089  x3=0x00000000
       48225000	      4821	80006464	01fe3f33	sltu	x30,x28,x31	 x28:0x00000001 x31:0x00000001 x30=0x00000000
       48235000	      4822	80006468	ec3f7893	andi	x17,x30,-317	 x30:0x00000000 x17=0x00000000
       48245000	      4823	8000646c	00237c63	bgeu	x6,x2,80006484	  x6:0x0000003f  x2:0xaa8dd69f
       48255000	      4824	80006470	049cf063	bgeu	x25,x9,800064b0	 x25:0x80009f44  x9:0x68806000
       48265000	      4825	00000000	00000013	addi	x0,x0,0	  x0:0x00000000
       48275000	      4826	800064ac	00000013	addi	x0,x0,0	  x0:0x00000000
       48285000	      4827	800064b0	00bbf033	and	x0,x23,x11	 x23:0x00000089 x11:0xa375b99d
       48295000	      4828	800064b4	02637063	bgeu	x6,x6,800064d4	  x6:0x0000003f  x6:0x0000003f
       48305000	      4829	00000000	00000013	addi	x0,x0,0	  x0:0x00000000
       48315000	      4830	800064d0	00000013	addi	x0,x0,0	  x0:0x00000000
       48325000	      4831	800064d4	023cca63	blt	x25,x3,80006508	 x25:0x80009f44  x3:0x00000000
       48335000	      4832	00000000	00000013	addi	x0,x0,0	  x0:0x00000000
       48345000	      4833	80006504	00000013	addi	x0,x0,0	  x0:0x00000000
       48355000	      4834	80006508	006335b3	sltu	x11,x6,x6	  x6:0x0000003f  x6:0x0000003f x11=0x00000000
       48365000	      4835	8000650c	ce4e0a13	addi	x20,x28,-796	 x28:0x00000001 x20=0xfffffce5
       48375000	      4836	80006510	00f29a13	slli	x20,x5,0xf	  x5:0x000000fc x20=0x007e0000
       48385000	      4837	80006514	019d55b3	srl	x11,x26,x25	 x26:0x0000045f x25:0x80009f44 x11=0x00000045
       48395000	      4838	80006518	00000013	addi	x0,x0,0	  x0:0x00000000
       48405000	      4839	8000651c	0011c733	xor	x14,x3,x1	  x3:0x00000000  x1:0x00000001 x14=0x00000001
       48415000	      4840	80006520	00901333	sll	x6,x0,x9	  x0:0x00000000  x9:0x68806000  x6=0x00000000
       48425000	      4841	80006524	005eb733	sltu	x14,x29,x5	 x29:0x0000020f  x5:0x000000fc x14=0x00000000
       48435000	      4842	80006528	6a954a93	xori	x21,x10,1705	 x10:0x00000000 x21=0x000006a9
       48445000	      4843	8000652c	f8867f13	andi	x30,x12,-120	 x12:0xe29c2200 x30=0xe29c2200
       48455000	      4844	80006530	e36e6617	auipc	x12,0xe36e6	 x12=0x636ec52c
       48465000	      4845	80006534	0042d713	srli	x14,x5,0x4	  x5:0x000000fc x14=0x0000000f
       48475000	      4846	80006538	415455b3	sra	x11,x8,x21	  x8:0x00000000 x21:0x000006a9 x11=0x00000000
       48485000	      4847	8000653c	03fb3a13	sltiu	x20,x22,63	 x22:0x85e43e3f x20=0x00000000
       48495000	      4848	80006540	408ddeb3	sra	x29,x27,x8	 x27:0x00000000  x8:0x00000000 x29=0x00000000
       48505000	      4849	80006544	00cdc863	blt	x27,x12,80006554	 x27:0x00000000 x12:0x636ec52c
       48515000	      4850	00000000	00000013	addi	x0,x0,0	  x0:0x00000000
       48525000	      4851	80006550	00000013	addi	x0,x0,0	  x0:0x00000000
       48535000	      4852	80006554	9aa3e413	ori	x8,x7,-1622	  x7:0x00000000  x8=0xfffff9aa
       48545000	      4853	80006558	003c9813	slli	x16,x25,0x3	 x25:0x80009f44 x16=0x0004fa20
       48555000	      4854	8000655c	40ab0eb3	sub	x29,x22,x10	 x22:0x85e43e3f x10:0x00000000 x29=0x85e43e3f
       48565000	      4855	80006560	63b6f513	andi	x10,x13,1595	 x13:0x0000020a x10=0x0000020a
       48575000	      4856	80006564	00521eb3	sll	x29,x4,x5	  x4:0x80000000  x5:0x000000fc x29=0x00000000
       48585000	      4857	80006568	bdbb4337	lui	x6,0xbdbb4	  x6=0xbdbb4000
       48595000	      4858	8000656c	004caf83	lw	x31,4(x25)	 x25:0x80009f44 x31=0x80000134 PA:0x80009f48
       48605000	      4859	80006570	01d01a93	slli	x21,x0,0x1d	  x0:0x00000000 x21=0x00000000
       48615000	      4860	80006574	01d380b3	add	x1,x7,x29	  x7:0x00000000 x29:0x00000000  x1=0x00000000
       48625000	      4861	80006578	040c8c93	addi	x25,x25,64	 x25:0x80009f44 x25=0x80009f84
       48635000	      4862	8000657c	01e79e33	sll	x28,x15,x30	 x15:0x80009fc4 x30:0xe29c2200 x28=0x80009fc4
       48645000	      4863	80006580	001f8913	addi	x18,x31,1	 x31:0x80000134 x18=0x80000135
       48655000	      4864	80006584	00090967	jalr	x18,x18,0	 x18:0x80000135 x18=0x80006584
       48665000	      4865	00000000	00000013	addi	x0,x0,0	  x0:0x00000000
       48675000	      4866	80000134	00000013	addi	x0,x0,0	  x0:0x00000000
       48685000	      4867	80000138	00008817	auipc	x16,0x8	 x16=0x80008134
       48695000	      4868	8000013c	62b80813	addi	x16,x16,1579	 x16:0x80008134 x16=0x8000875f
       48705000	      4869	80000140	01080e03	lb	x28,16(x16)	 x16:0x8000875f x28=0xffffffbf PA:0x8000876f
       48715000	      4870	80000144	00984e83	lbu	x29,9(x16)	 x16:0x8000875f x29=0x00000066 PA:0x80008768
       48725000	      4871	80000148	ffb84a83	lbu	x21,-5(x16)	 x16:0x8000875f x21=0x00000001 PA:0x8000875a
       48735000	      4872	8000014c	00d80303	lb	x6,13(x16)	 x16:0x8000875f  x6=0xffffffd5 PA:0x8000876c
       48745000	      4873	80000150	ff180f03	lb	x30,-15(x16)	 x16:0x8000875f x30=0xfffffff2 PA:0x80008750
       48755000	      4874	80000154	03d27713	andi	x14,x4,61	  x4:0x80000000 x14=0x00000000
       48765000	      4875	80000158	015810a3	sh	x21,1(x16)	 x16:0x8000875f x21:0x00000001 PA:0x80008760
       48775000	      4876	8000015c	ffe80b23	sb	x30,-10(x16)	 x16:0x8000875f x30:0xfffffff2 PA:0x80008755
       48785000	      4877	80000160	00684303	lbu	x6,6(x16)	 x16:0x8000875f  x6=0x00000067 PA:0x80008765
       48795000	      4878	80000164	01f812a3	sh	x31,5(x16)	 x16:0x8000875f x31:0x80000134 PA:0x80008764
       48805000	      4879	80000168	017a9713	slli	x14,x21,0x17	 x21:0x00000001 x14=0x00800000
       48815000	      4880	8000016c	00d85383	lhu	x7,13(x16)	 x16:0x8000875f  x7=0x0000f0d5 PA:0x8000876c
       48825000	      4881	80000170	fe680e23	sb	x6,-4(x16)	 x16:0x8000875f  x6:0x00000067 PA:0x8000875b
       48835000	      4882	80000174	01e45f33	srl	x30,x8,x30	  x8:0xfffff9aa x30:0xfffffff2 x30=0x00003fff
       48845000	      4883	80000178	01080403	lb	x8,16(x16)	 x16:0x8000875f  x8=0xffffffbf PA:0x8000876f
       48855000	      4884	8000017c	ff980c23	sb	x25,-8(x16)	 x16:0x8000875f x25:0x80009f84 PA:0x80008757
       48865000	      4885	80000180	017d9a93	slli	x21,x27,0x17	 x27:0x00000000 x21=0x00000000
       48875000	      4886	80000184	00180b83	lb	x23,1(x16)	 x16:0x8000875f x23=0x00000001 PA:0x80008760
       48885000	      4887	80000188	fed80b23	sb	x13,-10(x16)	 x16:0x8000875f x13:0x0000020a PA:0x80008755
       48895000	      4888	8000018c	ff080503	lb	x10,-16(x16)	 x16:0x8000875f x10=0x0000007b PA:0x8000874f
       48905000	      4889	80000190	00980723	sb	x9,14(x16)	 x16:0x8000875f  x9:0x68806000 PA:0x8000876d
       48915000	      4890	80000194	676fe593	ori	x11,x31,1654	 x31:0x80000134 x11=0x80000776
       48925000	      4891	80000198	ee21ea93	ori	x21,x3,-286	  x3:0x00000000 x21=0xfffffee2
       48935000	      4892	8000019c	f50bef93	ori	x31,x23,-176	 x23:0x00000001 x31=0xffffff51
       48945000	      4893	800001a0	00000013	addi	x0,x0,0	  x0:0x00000000
       48955000	      4894	800001a4	ff780903	lb	x18,-9(x16)	 x16:0x8000875f x18=0x00000018 PA:0x80008756
       48965000	      4895	800001a8	ff184403	lbu	x8,-15(x16)	 x16:0x8000875f  x8=0x000000f2 PA:0x80008750
       48975000	      4896	800001ac	0002eb33	or	x22,x5,x0	  x5:0x000000fc  x0:0x00000000 x22=0x000000fc
       48985000	      4897	800001b0	2da0ebb7	lui	x23,0x2da0e	 x23=0x2da0e000
       48995000	      4898	800001b4	68fdb493	sltiu	x9,x27,1679	 x27:0x00000000  x9=0x00000001
       49005000	      4899	800001b8	01d805a3	sb	x29,11(x16)	 x16:0x8000875f x29:0x00000066 PA:0x8000876a
       49015000	      4900	800001bc	01480423	sb	x20,8(x16)	 x16:0x8000875f x20:0x00000000 PA:0x80008767
       49025000	      4901	800001c0	ff384303	lbu	x6,-13(x16)	 x16:0x8000875f  x6=0x000000aa PA:0x80008752
       49035000	      4902	800001c4	85ecf913	andi	x18,x25,-1954	 x25:0x80009f84 x18=0x80009804
       49045000	      4903	800001c8	009813a3	sh	x9,7(x16)	 x16:0x8000875f  x9:0x00000001 PA:0x80008766
       49055000	      4904	800001cc	01880823	sb	x24,16(x16)	 x16:0x8000875f x24:0x0000003f PA:0x8000876f
       49065000	      4905	800001d0	00884203	lbu	x4,8(x16)	 x16:0x8000875f  x4=0x00000000 PA:0x80008767
       49075000	      4906	800001d4	00c84d83	lbu	x27,12(x16)	 x16:0x8000875f x27=0x000000dc PA:0x8000876b
       49085000	      4907	800001d8	01f1da93	srli	x21,x3,0x1f	  x3:0x00000000 x21=0x00000000
       49095000	      4908	800001dc	00000013	addi	x0,x0,0	  x0:0x00000000
       49105000	      4909	800001e0	deb86db7	lui	x27,0xdeb86	 x27=0xdeb86000
       49115000	      4910	800001e4	50dd0b93	addi	x23,x26,1293	 x26:0x0000045f x23=0x0000096c
       49125000	      4911	800001e8	00006f17	auipc	x30,0x6	 x30=0x800061e4
       49135000	      4912	800001ec	970f0f13	addi	x30,x30,-1680	 x30:0x800061e4 x30=0x80005b54
       49145000	      4913	800001f0	df948213	addi	x4,x9,-519	  x9:0x00000001  x4=0xfffffdfa
       49155000	      4914	800001f4	d007c993	xori	x19,x15,-768	 x15:0x80009fc4 x19=0x7fff62c4
       49165000	      4915	800001f8	010db933	sltu	x18,x27,x16	 x27:0xdeb86000 x16:0x8000875f x18=0x00000000
       49175000	      4916	800001fc	01345bb3	srl	x23,x8,x19	  x8:0x000000f2 x19:0x7fff62c4 x23=0x0000000f
       49185000	      4917	80000200	0198f0b3	and	x1,x17,x25	 x17:0x00000000 x25:0x80009f84  x1=0x00000000
       49195000	      4918	80000204	41825db3	sra	x27,x4,x24	  x4:0xfffffdfa x24:0x0000003f x27=0xffffffff
       49205000	      4919	80000208	355f0f13	addi	x30,x30,853	 x30:0x80005b54 x30=0x80005ea9
       49215000	      4920	8000020c	01a37db3	and	x27,x6,x26	  x6:0x000000aa x26:0x0000045f x27=0x0000000a
       49225000	      4921	80000210	cabf0fe7	jalr	x31,x30,-853	 x30:0x80005ea9 x31=0x80000210
       49235000	      4922	00000000	00000013	addi	x0,x0,0	  x0:0x00000000
       49245000	      4923	80005b54	00000013	addi	x0,x0,0	  x0:0x00000000
       49255000	      4924	80005b58	19a83e93	sltiu	x29,x16,410	 x16:0x8000875f x29=0x00000000
       49265000	      4925	80005b5c	000ef033	and	x0,x29,x0	 x29:0x00000000  x0:0x00000000
       49275000	      4926	80005b60	01b60263	beq	x12,x27,80005b64	 x12:0x636ec52c x27:0x0000000a
       49285000	      4927	80005b64	fc0c8c93	addi	x25,x25,-64	 x25:0x80009f84 x25=0x80009f44
       49295000	      4928	80005b68	f03a0d13	addi	x26,x20,-253	 x20:0x00000000 x26=0xffffff03
       49305000	      4929	80005b6c	01fca223	sw	x31,4(x25)	 x25:0x80009f44 x31:0x80000210 PA:0x80009f48
       49315000	      4930	80005b70	009c56b3	srl	x13,x24,x9	 x24:0x0000003f  x9:0x00000001 x13=0x0000001f
       49325000	      4931	80005b74	00000013	addi	x0,x0,0	  x0:0x00000000
       49335000	      4932	80005b78	00b69193	slli	x3,x13,0xb	 x13:0x0000001f  x3=0x0000f800
       49345000	      4933	80005b7c	41ff5433	sra	x8,x30,x31	 x30:0x80005ea9 x31:0x80000210  x8=0xffff8000
       49355000	      4934	80005b80	01ab7e63	bgeu	x22,x26,80005b9c	 x22:0x000000fc x26:0xffffff03
       49365000	      4935	80005b84	1551fd93	andi	x27,x3,341	  x3:0x0000f800 x27=0x00000000
       49375000	      4936	80005b88	ded8f693	andi	x13,x17,-531	 x17:0x00000000 x13=0x00000000
       49385000	      4937	80005b8c	01c31f93	slli	x31,x6,0x1c	  x6:0x000000aa x31=0xa0000000
       49395000	      4938	80005b90	010873b3	and	x7,x16,x16	 x16:0x8000875f x16:0x8000875f  x7=0x8000875f
       49405000	      4939	80005b94	656f8597	auipc	x11,0x656f8	 x11=0xe56fdb90
       49415000	      4940	80005b98	40c88b33	sub	x22,x17,x12	 x17:0x00000000 x12:0x636ec52c x22=0x9c913ad4
       49425000	      4941	80005b9c	27100fef	jal	x31,80005b9c	 x31=0x80005b9c
       49435000	      4942	00000000	00000013	addi	x0,x0,0	  x0:0x00000000
       49445000	      4943	80006608	00000013	addi	x0,x0,0	  x0:0x00000000
       49455000	      4944	8000660c	01922333	slt	x6,x4,x25	  x4:0xfffffdfa x25:0x80009f44  x6=0x00000000
       49465000	      4945	80006610	00357663	bgeu	x10,x3,8000661c	 x10:0x0000007b  x3:0x0000f800
       49475000	      4946	80006614	b822b993	sltiu	x19,x5,-1150	  x5:0x000000fc x19=0x00000001
       49485000	      4947	80006618	6683d817	auipc	x16,0x6683d	 x16=0xe6843614
       49495000	      4948	8000661c	fd8c8c93	addi	x25,x25,-40	 x25:0x80009f44 x25=0x80009f1c
       49505000	      4949	80006620	00179213	slli	x4,x15,0x1	 x15:0x80009fc4  x4=0x00013f88
       49515000	      4950	80006624	00000013	addi	x0,x0,0	  x0:0x00000000
       49525000	      4951	80006628	01fca223	sw	x31,4(x25)	 x25:0x80009f1c x31:0x80005b9c PA:0x80009f20
       49535000	      4952	8000662c	00858733	add	x14,x11,x8	 x11:0xe56fdb90  x8:0xffff8000 x14=0xe56f5b90
       49545000	      4953	80006630	4996b193	sltiu	x3,x13,1177	 x13:0x00000000  x3=0x00000001
       49555000	      4954	80006634	5dfcc413	xori	x8,x25,1503	 x25:0x80009f1c  x8=0x80009ac3
       49565000	      4955	80006638	ffffa897	auipc	x17,0xffffa	 x17=0x80000634
       49575000	      4956	8000663c	61488893	addi	x17,x17,1556	 x17:0x80000634 x17=0x80000c48
       49585000	      4957	80006640	001a8933	add	x18,x21,x1	 x21:0x00000000  x1:0x00000000 x18=0x00000000
       49595000	      4958	80006644	d0c88893	addi	x17,x17,-756	 x17:0x80000c48 x17=0x80000954
       49605000	      4959	80006648	01bbea33	or	x20,x23,x27	 x23:0x0000000f x27:0x00000000 x20=0x0000000f
       49615000	      4960	8000664c	8ac3cf13	xori	x30,x7,-1876	  x7:0x8000875f x30=0x7fff7ff3
       49625000	      4961	80006650	a0d51737	lui	x14,0xa0d51	 x14=0xa0d51000
       49635000	      4962	80006654	2f588fe7	jalr	x31,x17,757	 x17:0x80000954 x31=0x80006654
       49645000	      4963	00000000	00000013	addi	x0,x0,0	  x0:0x00000000
       49655000	      4964	80000c48	00000013	addi	x0,x0,0	  x0:0x00000000
       49665000	      4965	80000c4c	013d9e63	bne	x27,x19,80000c68	 x27:0x00000000 x19:0x00000001
       49675000	      4966	00000000	00000013	addi	x0,x0,0	  x0:0x00000000
       49685000	      4967	80000c64	00000013	addi	x0,x0,0	  x0:0x00000000
       49695000	      4968	80000c68	fc0c8c93	addi	x25,x25,-64	 x25:0x80009f1c x25=0x80009edc
       49705000	      4969	80000c6c	018f7d33	and	x26,x30,x24	 x30:0x7fff7ff3 x24:0x0000003f x26=0x00000033
       49715000	      4970	80000c70	405fda33	sra	x20,x31,x5	 x31:0x80006654  x5:0x000000fc x20=0xfffffff8
       49725000	      4971	80000c74	01fca223	sw	x31,4(x25)	 x25:0x80009edc x31:0x80006654 PA:0x80009ee0
       49735000	      4972	80000c78	3b6a3513	sltiu	x10,x20,950	 x20:0xfffffff8 x10=0x00000000
       49745000	      4973	80000c7c	01f31513	slli	x10,x6,0x1f	  x6:0x00000000 x10=0x00000000
       49755000	      4974	80000c80	00008d17	auipc	x26,0x8	 x26=0x80008c7c
       49765000	      4975	80000c84	f11d0d13	addi	x26,x26,-239	 x26:0x80008c7c x26=0x80008b8d
       49775000	      4976	80000c88	40b0d1b3	sra	x3,x1,x11	  x1:0x00000000 x11:0xe56fdb90  x3=0x00000000
       49785000	      4977	80000c8c	11bd5883	lhu	x17,283(x26)	 x26:0x80008b8d x17=0x00002e5d PA:0x80008ca8
       49795000	      4978	80000c90	268a6593	ori	x11,x20,616	 x20:0xfffffff8 x11=0xfffffff8
       49805000	      4979	80000c94	67c2ab13	slti	x22,x5,1660	  x5:0x000000fc x22=0x00000001
       49815000	      4980	80000c98	fffd2da3	sw	x31,-5(x26)	 x26:0x80008b8d x31:0x80006654 PA:0x80008b88
       49825000	      4981	80000c9c	278d0683	lb	x13,632(x26)	 x26:0x80008b8d x13=0xffffffe5 PA:0x80008e05
       49835000	      4982	80000ca0	36ad1aa3	sh	x10,885(x26)	 x26:0x80008b8d x10:0x00000000 PA:0x80008f02
       49845000	      4983	80000ca4	ee2d14a3	sh	x2,-279(x26)	 x26:0x80008b8d  x2:0xaa8dd69f PA:0x80008a76
       49855000	      4984	80000ca8	056d03a3	sb	x22,71(x26)	 x26:0x80008b8d x22:0x00000001 PA:0x80008bd4
       49865000	      4985	80000cac	fa8d0183	lb	x3,-88(x26)	 x26:0x80008b8d  x3=0x00000015 PA:0x80008b35
       49875000	      4986	80000cb0	eaad0e03	lb	x28,-342(x26)	 x26:0x80008b8d x28=0xffffffea PA:0x80008a37
       49885000	      4987	80000cb4	00dbdf13	srli	x30,x23,0xd	 x23:0x0000000f x30=0x00000000
       49895000	      4988	80000cb8	fc932e17	auipc	x28,0xfc932	 x28=0x7c932cb4
       49905000	      4989	80000cbc	234d4f83	lbu	x31,564(x26)	 x26:0x80008b8d x31=0x000000f8 PA:0x80008dc1
       49915000	      4990	80000cc0	2bd07293	andi	x5,x0,701	  x0:0x00000000  x5=0x00000000
       49925000	      4991	80000cc4	1f7d0503	lb	x10,503(x26)	 x26:0x80008b8d x10=0x00000000 PA:0x80008d84
       49935000	      4992	80000cc8	edfd12a3	sh	x31,-315(x26)	 x26:0x80008b8d x31:0x000000f8 PA:0x80008a52
       49945000	      4993	80000ccc	fca63f13	sltiu	x30,x12,-54	 x12:0x636ec52c x30=0x00000001
       49955000	      4994	80000cd0	006128b3	slt	x17,x2,x6	  x2:0xaa8dd69f  x6:0x00000000 x17=0x00000001
       49965000	      4995	80000cd4	ee4d4883	lbu	x17,-284(x26)	 x26:0x80008b8d x17=0x00000071 PA:0x80008a71
       49975000	      4996	80000cd8	01861fb3	sll	x31,x12,x24	 x12:0x636ec52c x24:0x0000003f x31=0x00000000
       49985000	      4997	80000cdc	134d0a03	lb	x20,308(x26)	 x26:0x80008b8d x20=0x0000002d PA:0x80008cc1
       49995000	      4998	80000ce0	0dfd1aa3	sh	x31,213(x26)	 x26:0x80008b8d x31:0x00000000 PA:0x80008c62
       50005000	      4999	80000ce4	00000013	addi	x0,x0,0	  x0:0x00000000
       50015000	      5000	80000ce8	0162f033	and	x0,x5,x22	  x5:0x00000000 x22:0x00000001
       50025000	      5001	80000cec	4137d1b3	sra	x3,x15,x19	 x15:0x80009fc4 x19:0x00000001  x3=0xc0004fe2
       50035000	      5002	80000cf0	083d1aa3	sh	x3,149(x26)	 x26:0x80008b8d  x3:0xc0004fe2 PA:0x80008c22
       50045000	      5003	80000cf4	00008517	auipc	x10,0x8	 x10=0x80008cf0
       50055000	      5004	80000cf8	01450513	addi	x10,x10,20	 x10:0x80008cf0 x10=0x80008d04
       50065000	      5005	80000cfc	0097f033	and	x0,x15,x9	 x15:0x80009fc4  x9:0x00000001
       50075000	      5006	80000d00	03b54b83	lbu	x23,59(x10)	 x10:0x80008d04 x23=0x00000084 PA:0x80008d3f
       50085000	      5007	80000d04	f3f50b83	lb	x23,-193(x10)	 x10:0x80008d04 x23=0x0000004b PA:0x80008c43
       50095000	      5008	80000d08	00000013	addi	x0,x0,0	  x0:0x00000000
       50105000	      5009	80000d0c	0e8504a3	sb	x8,233(x10)	 x10:0x80008d04  x8:0x80009ac3 PA:0x80008ded
       50115000	      5010	80000d10	0fb54a83	lbu	x21,251(x10)	 x10:0x80008d04 x21=0x00000033 PA:0x80008dff
       50125000	      5011	80000d14	0b451383	lh	x7,180(x10)	 x10:0x80008d04  x7=0xffffa87d PA:0x80008db8
       50135000	      5012	80000d18	e15d3393	sltiu	x7,x26,-491	 x26:0x80008b8d  x7=0x00000001
       50145000	      5013	80000d1c	6d210093	addi	x1,x2,1746	  x2:0xaa8dd69f  x1=0xaa8ddd71
       50155000	      5014	80000d20	05150803	lb	x16,81(x10)	 x10:0x80008d04 x16=0x0000007b PA:0x80008d55
       50165000	      5015	00000000	00000013	addi	x0,x0,0	  x0:0x00000000
       50175000	      5016	80000d24	a5012413	slti	x8,x2,-1456	  x2:0xaa8dd69f  x8=0x00000001
       50185000	      5017	80000d28	f9354983	lbu	x19,-109(x10)	 x10:0x80008d04 x19=0x00000028 PA:0x80008c97
       50195000	      5018	00000000	00000013	addi	x0,x0,0	  x0:0x00000000
       50205000	      5019	80000d2c	013f7b33	and	x22,x30,x19	 x30:0x00000001 x19:0x00000028 x22=0x00000000
       50215000	      5020	80000d30	02850ea3	sb	x8,61(x10)	 x10:0x80008d04  x8:0x00000001 PA:0x80008d41
       50225000	      5021	80000d34	00bf4733	xor	x14,x30,x11	 x30:0x00000001 x11:0xfffffff8 x14=0xfffffff9
       50235000	      5022	80000d38	f9151523	sh	x17,-118(x10)	 x10:0x80008d04 x17:0x00000071 PA:0x80008c8e
       50245000	      5023	80000d3c	00cc7333	and	x6,x24,x12	 x24:0x0000003f x12:0x636ec52c  x6=0x0000002c
       50255000	      5024	80000d40	402e8db3	sub	x27,x29,x2	 x29:0x00000000  x2:0xaa8dd69f x27=0x55722961
       50265000	      5025	80000d44	fa454003	lbu	x0,-92(x10)	 x10:0x80008d04 PA:0x80008ca8
       50275000	      5026	80000d48	41e351b3	sra	x3,x6,x30	  x6:0x0000002c x30:0x00000001  x3=0x00000016
       50285000	      5027	80000d4c	3dbd0b97	auipc	x23,0x3dbd0	 x23=0xbdbd0d48
       50295000	      5028	80000d50	09c54d03	lbu	x26,156(x10)	 x10:0x80008d04 x26=0x00000017 PA:0x80008da0
       50305000	      5029	80000d54	06354f83	lbu	x31,99(x10)	 x10:0x80008d04 x31=0x00000099 PA:0x80008d67
       50315000	      5030	80000d58	05450b83	lb	x23,84(x10)	 x10:0x80008d04 x23=0xffffffb7 PA:0x80008d58
       50325000	      5031	80000d5c	48be6013	ori	x0,x28,1163	 x28:0x7c932cb4
       50335000	      5032	80000d60	fe050aa3	sb	x0,-11(x10)	 x10:0x80008d04  x0:0x00000000 PA:0x80008cf9
       50345000	      5033	80000d64	0a750023	sb	x7,160(x10)	 x10:0x80008d04  x7:0x00000001 PA:0x80008da4
       50355000	      5034	80000d68	0a851a83	lh	x21,168(x10)	 x10:0x80008d04 x21=0xffff8a09 PA:0x80008dac
       50365000	      5035	80000d6c	411052b3	sra	x5,x0,x17	  x0:0x00000000 x17:0x00000071  x5=0x00000000
       50375000	      5036	80000d70	fa651323	sh	x6,-90(x10)	 x10:0x80008d04  x6:0x0000002c PA:0x80008caa
       50385000	      5037	80000d74	01782ab3	slt	x21,x16,x23	 x16:0x0000007b x23:0xffffffb7 x21=0x00000000
       50395000	      5038	80000d78	0a354083	lbu	x1,163(x10)	 x10:0x80008d04  x1=0x00000098 PA:0x80008da7
       50405000	      5039	80000d7c	00790c33	add	x24,x18,x7	 x18:0x00000000  x7:0x00000001 x24=0x00000001
       50415000	      5040	80000d80	0b055883	lhu	x17,176(x10)	 x10:0x80008d04 x17=0x000061aa PA:0x80008db4
       50425000	      5041	80000d84	0be50da3	sb	x30,187(x10)	 x10:0x80008d04 x30:0x00000001 PA:0x80008dbf
       50435000	      5042	80000d88	00f50c03	lb	x24,15(x10)	 x10:0x80008d04 x24=0xffffff82 PA:0x80008d13
       50445000	      5043	80000d8c	01543fb3	sltu	x31,x8,x21	  x8:0x00000001 x21:0x00000000 x31=0x00000000
       50455000	      5044	80000d90	00075e33	srl	x28,x14,x0	 x14:0xfffffff9  x0:0x00000000 x28=0xfffffff9
       50465000	      5045	80000d94	40e5db13	srai	x22,x11,0xe	 x11:0xfffffff8 x22=0xffffffff
       50475000	      5046	80000d98	08150883	lb	x17,129(x10)	 x10:0x80008d04 x17=0x00000000 PA:0x80008d85
       50485000	      5047	80000d9c	01e54083	lbu	x1,30(x10)	 x10:0x80008d04  x1=0x000000f4 PA:0x80008d22
       50495000	      5048	00000000	00000013	addi	x0,x0,0	  x0:0x00000000
       50505000	      5049	80000da0	00008c17	auipc	x24,0x8	 x24=0x80008d9c
       50515000	      5050	80000da4	9eac0c13	addi	x24,x24,-1558	 x24:0x80008d9c x24=0x80008786
       50525000	      5051	80000da8	027c0583	lb	x11,39(x24)	 x24:0x80008786 x11=0x00000074 PA:0x800087ad
       50535000	      5052	80000dac	00000013	addi	x0,x0,0	  x0:0x00000000
       50545000	      5053	80000db0	ffbc0203	lb	x4,-5(x24)	 x24:0x80008786  x4=0xffffffa9 PA:0x80008781
       50555000	      5054	80000db4	41d05693	srai	x13,x0,0x1d	  x0:0x00000000 x13=0x00000000
       50565000	      5055	80000db8	0172d213	srli	x4,x5,0x17	  x5:0x00000000  x4=0x00000000
       50575000	      5056	80000dbc	00444f33	xor	x30,x8,x4	  x8:0x00000001  x4:0x00000000 x30=0x00000001
       50585000	      5057	80000dc0	fc8c0da3	sb	x8,-37(x24)	 x24:0x80008786  x8:0x00000001 PA:0x80008761
       50595000	      5058	80000dc4	00c8c633	xor	x12,x17,x12	 x17:0x00000000 x12:0x636ec52c x12=0x636ec52c
       50605000	      5059	80000dc8	88a9fa93	andi	x21,x19,-1910	 x19:0x00000028 x21=0x00000008
       50615000	      5060	80000dcc	018c2523	sw	x24,10(x24)	 x24:0x80008786 x24:0x80008786 PA:0x80008790
       50625000	      5061	80000dd0	001c43b3	xor	x7,x24,x1	 x24:0x80008786  x1:0x000000f4  x7=0x80008772
       50635000	      5062	80000dd4	fddc0a23	sb	x29,-44(x24)	 x24:0x80008786 x29:0x00000000 PA:0x8000875a
       50645000	      5063	80000dd8	000e9293	slli	x5,x29,0x0	 x29:0x00000000  x5=0x00000000
       50655000	      5064	80000ddc	fcdc4d83	lbu	x27,-51(x24)	 x24:0x80008786 x27=0x000000d4 PA:0x80008753
       50665000	      5065	80000de0	fc7c4a03	lbu	x20,-57(x24)	 x24:0x80008786 x20=0x000000d1 PA:0x8000874d
       50675000	      5066	80000de4	0072feb3	and	x29,x5,x7	  x5:0x00000000  x7:0x80008772 x29=0x00000000
       50685000	      5067	80000de8	fd2c1b23	sh	x18,-42(x24)	 x24:0x80008786 x18:0x00000000 PA:0x8000875c
       50695000	      5068	80000dec	7c8adf37	lui	x30,0x7c8ad	 x30=0x7c8ad000
       50705000	      5069	80000df0	00d41293	slli	x5,x8,0xd	  x8:0x00000001  x5=0x00002000
       50715000	      5070	80000df4	011c4b03	lbu	x22,17(x24)	 x24:0x80008786 x22=0x00000060 PA:0x80008797
       50725000	      5071	80000df8	fc6c4a03	lbu	x20,-58(x24)	 x24:0x80008786 x20=0x0000007e PA:0x8000874c
       50735000	      5072	80000dfc	400ad2b3	sra	x5,x21,x0	 x21:0x00000008  x0:0x00000000  x5=0x00000008
       50745000	      5073	80000e00	fcec0583	lb	x11,-50(x24)	 x24:0x80008786 x11=0x00000075 PA:0x80008754
       50755000	      5074	80000e04	0001de93	srli	x29,x3,0x0	  x3:0x00000016 x29=0x00000016
       50765000	      5075	80000e08	fc2c5a83	lhu	x21,-62(x24)	 x24:0x80008786 x21=0x0000dec6 PA:0x80008748
       50775000	      5076	80000e0c	026c06a3	sb	x6,45(x24)	 x24:0x80008786  x6:0x0000002c PA:0x800087b3
       50785000	      5077	80000e10	403ad693	srai	x13,x21,0x3	 x21:0x0000dec6 x13=0x00001bd8
       50795000	      5078	80000e14	c1b40a93	addi	x21,x8,-997	  x8:0x00000001 x21=0xfffffc1c
       50805000	      5079	80000e18	fecc1023	sh	x12,-32(x24)	 x24:0x80008786 x12:0x636ec52c PA:0x80008766
       50815000	      5080	80000e1c	001679b3	and	x19,x12,x1	 x12:0x636ec52c  x1:0x000000f4 x19=0x00000024
       50825000	      5081	80000e20	ff8c1d03	lh	x26,-8(x24)	 x24:0x80008786 x26=0xffff9cf2 PA:0x8000877e
       50835000	      5082	80000e24	ff4c5a03	lhu	x20,-12(x24)	 x24:0x80008786 x20=0x00007760 PA:0x8000877a
       50845000	      5083	80000e28	00cc0ea3	sb	x12,29(x24)	 x24:0x80008786 x12:0x636ec52c PA:0x800087a3
       50855000	      5084	80000e2c	0a5c6513	ori	x10,x24,165	 x24:0x80008786 x10=0x800087a7
       50865000	      5085	80000e30	0005a633	slt	x12,x11,x0	 x11:0x00000075  x0:0x00000000 x12=0x00000000
       50875000	      5086	80000e34	01dc0703	lb	x14,29(x24)	 x24:0x80008786 x14=0x0000002c PA:0x800087a3
       50885000	      5087	80000e38	017c4983	lbu	x19,23(x24)	 x24:0x80008786 x19=0x000000b0 PA:0x8000879d
       50895000	      5088	80000e3c	fefc0983	lb	x19,-17(x24)	 x24:0x80008786 x19=0xffffff87 PA:0x80008775
       50905000	      5089	80000e40	418780b3	sub	x1,x15,x24	 x15:0x80009fc4 x24:0x80008786  x1=0x0000183e
       50915000	      5090	80000e44	bf173f13	sltiu	x30,x14,-1039	 x14:0x0000002c x30=0x00000001
       50925000	      5091	80000e48	033c0903	lb	x18,51(x24)	 x24:0x80008786 x18=0xffffffc4 PA:0x800087b9
       50935000	      5092	80000e4c	01b9feb3	and	x29,x19,x27	 x19:0xffffff87 x27:0x000000d4 x29=0x00000084
       50945000	      5093	80000e50	002c1623	sh	x2,12(x24)	 x24:0x80008786  x2:0xaa8dd69f PA:0x80008792
       50955000	      5094	80000e54	03bc0b03	lb	x22,59(x24)	 x24:0x80008786 x22=0x0000007b PA:0x800087c1
       50965000	      5095	80000e58	fc9c0083	lb	x1,-55(x24)	 x24:0x80008786  x1=0x0000007b PA:0x8000874f
       50975000	      5096	80000e5c	10582037	lui	x0,0x10582	
       50985000	      5097	80000e60	035c0023	sb	x21,32(x24)	 x24:0x80008786 x21:0xfffffc1c PA:0x800087a6
       50995000	      5098	80000e64	22fadfb7	lui	x31,0x22fad	 x31=0x22fad000
       51005000	      5099	80000e68	c5cfef37	lui	x30,0xc5cfe	 x30=0xc5cfe000
       51015000	      5100	80000e6c	00000013	addi	x0,x0,0	  x0:0x00000000
       51025000	      5101	80000e70	015eb033	sltu	x0,x29,x21	 x29:0x00000084 x21:0xfffffc1c
       51035000	      5102	80000e74	02dc0623	sb	x13,44(x24)	 x24:0x80008786 x13:0x00001bd8 PA:0x800087b2
       51045000	      5103	80000e78	00008497	auipc	x9,0x8	  x9=0x80008e74
       51055000	      5104	80000e7c	fad48493	addi	x9,x9,-83	  x9:0x80008e74  x9=0x80008e21
       51065000	      5105	80000e80	00677033	and	x0,x14,x6	 x14:0x0000002c  x6:0x0000002c
       51075000	      5106	80000e84	fc048b23	sb	x0,-42(x9)	  x9:0x80008e21  x0:0x00000000 PA:0x80008df7
       51085000	      5107	80000e88	731ca813	slti	x16,x25,1841	 x25:0x80009edc x16=0x00000001
       51095000	      5108	80000e8c	fe94ca83	lbu	x21,-23(x9)	  x9:0x80008e21 x21=0x00000075 PA:0x80008e0a
       51105000	      5109	80000e90	00df0233	add	x4,x30,x13	 x30:0xc5cfe000 x13:0x00001bd8  x4=0xc5cffbd8
       51115000	      5110	80000e94	01c15013	srli	x0,x2,0x1c	  x2:0xaa8dd69f
       51125000	      5111	80000e98	404559b3	sra	x19,x10,x4	 x10:0x800087a7  x4:0xc5cffbd8 x19=0xffffff80
       51135000	      5112	80000e9c	fea48a23	sb	x10,-12(x9)	  x9:0x80008e21 x10:0x800087a7 PA:0x80008e15
       51145000	      5113	80000ea0	ff94a7a3	sw	x25,-17(x9)	  x9:0x80008e21 x25:0x80009edc PA:0x80008e10
       51155000	      5114	80000ea4	01fd8933	add	x18,x27,x31	 x27:0x000000d4 x31:0x22fad000 x18=0x22fad0d4
       51165000	      5115	80000ea8	3e23ae93	slti	x29,x7,994	  x7:0x80008772 x29=0x00000001
       51175000	      5116	80000eac	fda4c403	lbu	x8,-38(x9)	  x9:0x80008e21  x8=0x00000053 PA:0x80008dfb
       51185000	      5117	80000eb0	413059b3	sra	x19,x0,x19	  x0:0x00000000 x19:0xffffff80 x19=0x00000000
       51195000	      5118	80000eb4	01d9ebb3	or	x23,x19,x29	 x19:0x00000000 x29:0x00000001 x23=0x00000001
       51205000	      5119	80000eb8	fe8482a3	sb	x8,-27(x9)	  x9:0x80008e21  x8:0x00000053 PA:0x80008e06
       51215000	      5120	80000ebc	fcd489a3	sb	x13,-45(x9)	  x9:0x80008e21 x13:0x00001bd8 PA:0x80008df4
       51225000	      5121	80000ec0	037496a3	sh	x23,45(x9)	  x9:0x80008e21 x23:0x00000001 PA:0x80008e4e
       51235000	      5122	80000ec4	bcfb8013	addi	x0,x23,-1073	 x23:0x00000001
       51245000	      5123	80000ec8	ffc48e23	sb	x28,-4(x9)	  x9:0x80008e21 x28:0xfffffff9 PA:0x80008e1d
       51255000	      5124	80000ecc	0151cbb3	xor	x23,x3,x21	  x3:0x00000016 x21:0x00000075 x23=0x00000063
       51265000	      5125	80000ed0	41ef0ab3	sub	x21,x30,x30	 x30:0xc5cfe000 x30:0xc5cfe000 x21=0x00000000
       51275000	      5126	80000ed4	fd04c283	lbu	x5,-48(x9)	  x9:0x80008e21  x5=0x00000054 PA:0x80008df1
       51285000	      5127	80000ed8	fdd48c23	sb	x29,-40(x9)	  x9:0x80008e21 x29:0x00000001 PA:0x80008df9
       51295000	      5128	80000edc	01b0a733	slt	x14,x1,x27	  x1:0x0000007b x27:0x000000d4 x14=0x00000001
       51305000	      5129	80000ee0	00448e03	lb	x28,4(x9)	  x9:0x80008e21 x28=0x00000075 PA:0x80008e25
       51315000	      5130	80000ee4	00a48383	lb	x7,10(x9)	  x9:0x80008e21  x7=0x0000007c PA:0x80008e2b
       51325000	      5131	80000ee8	00007497	auipc	x9,0x7	  x9=0x80007ee4
       51335000	      5132	80000eec	5e848493	addi	x9,x9,1512	  x9:0x80007ee4  x9=0x800084cc
       51345000	      5133	80000ef0	013045b3	xor	x11,x0,x19	  x0:0x00000000 x19:0x00000000 x11=0x00000000
       51355000	      5134	80000ef4	feb48ba3	sb	x11,-9(x9)	  x9:0x800084cc x11:0x00000000 PA:0x800084c3
       51365000	      5135	80000ef8	ffb48003	lb	x0,-5(x9)	  x9:0x800084cc PA:0x800084c7
       51375000	      5136	80000efc	0104da83	lhu	x21,16(x9)	  x9:0x800084cc x21=0x0000021e PA:0x800084dc
       51385000	      5137	80000f00	00e55d93	srli	x27,x10,0xe	 x10:0x800087a7 x27=0x00020002
       51395000	      5138	80000f04	fff48d03	lb	x26,-1(x9)	  x9:0x800084cc x26=0x00000001 PA:0x800084cb
       51405000	      5139	80000f08	0014c183	lbu	x3,1(x9)	  x9:0x800084cc  x3=0x0000001d PA:0x800084cd
       51415000	      5140	80000f0c	0054cd03	lbu	x26,5(x9)	  x9:0x800084cc x26=0x0000001b PA:0x800084d1
       51425000	      5141	80000f10	407d8633	sub	x12,x27,x7	 x27:0x00020002  x7:0x0000007c x12=0x0001ff86
       51435000	      5142	80000f14	01548423	sb	x21,8(x9)	  x9:0x800084cc x21:0x0000021e PA:0x800084d4
       51445000	      5143	80000f18	00448d83	lb	x27,4(x9)	  x9:0x800084cc x27=0xffffffd8 PA:0x800084d0
       51455000	      5144	80000f1c	016149b3	xor	x19,x2,x22	  x2:0xaa8dd69f x22:0x0000007b x19=0xaa8dd6e4
       51465000	      5145	80000f20	01fa1c13	slli	x24,x20,0x1f	 x20:0x00007760 x24=0x00000000
       51475000	      5146	80000f24	00000013	addi	x0,x0,0	  x0:0x00000000
       51485000	      5147	80000f28	40d402b3	sub	x5,x8,x13	  x8:0x00000053 x13:0x00001bd8  x5=0xffffe47b
       51495000	      5148	80000f2c	00648b83	lb	x23,6(x9)	  x9:0x800084cc x23=0x00000000 PA:0x800084d2
       51505000	      5149	80000f30	0094c283	lbu	x5,9(x9)	  x9:0x800084cc  x5=0x00000038 PA:0x800084d5
       51515000	      5150	80000f34	00c47e33	and	x28,x8,x12	  x8:0x00000053 x12:0x0001ff86 x28=0x00000002
       51525000	      5151	80000f38	fe849e23	sh	x8,-4(x9)	  x9:0x800084cc  x8:0x00000053 PA:0x800084c8
       51535000	      5152	80000f3c	00000013	addi	x0,x0,0	  x0:0x00000000
       51545000	      5153	80000f40	ff048083	lb	x1,-16(x9)	  x9:0x800084cc  x1=0x0000005f PA:0x800084bc
       51555000	      5154	80000f44	00096a33	or	x20,x18,x0	 x18:0x22fad0d4  x0:0x00000000 x20=0x22fad0d4
       51565000	      5155	80000f48	00d751b3	srl	x3,x14,x13	 x14:0x00000001 x13:0x00001bd8  x3=0x00000000
       51575000	      5156	80000f4c	0004da03	lhu	x20,0(x9)	  x9:0x800084cc x20=0x00001da3 PA:0x800084cc
       51585000	      5157	80000f50	fee48fa3	sb	x14,-1(x9)	  x9:0x800084cc x14:0x00000001 PA:0x800084cb
       51595000	      5158	80000f54	5569f313	andi	x6,x19,1366	 x19:0xaa8dd6e4  x6=0x00000444
       51605000	      5159	80000f58	001b03b3	add	x7,x22,x1	 x22:0x0000007b  x1:0x0000005f  x7=0x000000da
       51615000	      5160	80000f5c	51bc8f13	addi	x30,x25,1307	 x25:0x80009edc x30=0x8000a3f7
       51625000	      5161	80000f60	d2018997	auipc	x19,0xd2018	 x19=0x52018f5c
       51635000	      5162	80000f64	ffc4a703	lw	x14,-4(x9)	  x9:0x800084cc x14=0x01380053 PA:0x800084c8
       51645000	      5163	80000f68	00d4a223	sw	x13,4(x9)	  x9:0x800084cc x13:0x00001bd8 PA:0x800084d0
       51655000	      5164	80000f6c	00ca9313	slli	x6,x21,0xc	 x21:0x0000021e  x6=0x0021e000
       51665000	      5165	80000f70	010283b3	add	x7,x5,x16	  x5:0x00000038 x16:0x00000001  x7=0x00000039
       51675000	      5166	80000f74	01648523	sb	x22,10(x9)	  x9:0x800084cc x22:0x0000007b PA:0x800084d6
       51685000	      5167	80000f78	00bbb733	sltu	x14,x23,x11	 x23:0x00000000 x11:0x00000000 x14=0x00000000
       51695000	      5168	80000f7c	ff94cf03	lbu	x30,-7(x9)	  x9:0x800084cc x30=0x0000002e PA:0x800084c5
       51705000	      5169	80000f80	ffc48e83	lb	x29,-4(x9)	  x9:0x800084cc x29=0x00000053 PA:0x800084c8
       51715000	      5170	80000f84	ffc4c083	lbu	x1,-4(x9)	  x9:0x800084cc  x1=0x00000053 PA:0x800084c8
       51725000	      5171	80000f88	40238f33	sub	x30,x7,x2	  x7:0x00000039  x2:0xaa8dd69f x30=0x5572299a
       51735000	      5172	80000f8c	00148003	lb	x0,1(x9)	  x9:0x800084cc PA:0x800084cd
       51745000	      5173	80000f90	01adf0b3	and	x1,x27,x26	 x27:0xffffffd8 x26:0x0000001b  x1=0x00000018
       51755000	      5174	80000f94	01a081b3	add	x3,x1,x26	  x1:0x00000018 x26:0x0000001b  x3=0x00000033
       51765000	      5175	80000f98	00f92d33	slt	x26,x18,x15	 x18:0x22fad0d4 x15:0x80009fc4 x26=0x00000000
       51775000	      5176	80000f9c	ff04d903	lhu	x18,-16(x9)	  x9:0x800084cc x18=0x0000a35f PA:0x800084bc
       51785000	      5177	80000fa0	feb48ba3	sb	x11,-9(x9)	  x9:0x800084cc x11:0x00000000 PA:0x800084c3
       51795000	      5178	80000fa4	00007917	auipc	x18,0x7	 x18=0x80007fa0
       51805000	      5179	80000fa8	56790913	addi	x18,x18,1383	 x18:0x80007fa0 x18=0x80008507
       51815000	      5180	80000fac	08b93f17	auipc	x30,0x8b93	 x30=0x88b93fa8
       51825000	      5181	80000fb0	00ef39b3	sltu	x19,x30,x14	 x30:0x88b93fa8 x14:0x00000000 x19=0x00000000
       51835000	      5182	80000fb4	01b2e433	or	x8,x5,x27	  x5:0x00000038 x27:0xffffffd8  x8=0xfffffff8
       51845000	      5183	80000fb8	f7890703	lb	x14,-136(x18)	 x18:0x80008507 x14=0x00000053 PA:0x8000847f
       51855000	      5184	80000fbc	014f1313	slli	x6,x30,0x14	 x30:0x88b93fa8  x6=0xfa800000
       51865000	      5185	80000fc0	6ef27693	andi	x13,x4,1775	  x4:0xc5cffbd8 x13=0x000002c8
       51875000	      5186	80000fc4	f7e94e03	lbu	x28,-130(x18)	 x18:0x80008507 x28=0x00000094 PA:0x80008485
       51885000	      5187	80000fc8	4011d393	srai	x7,x3,0x1	  x3:0x00000033  x7=0x00000019
       51895000	      5188	80000fcc	00290d23	sb	x2,26(x18)	 x18:0x80008507  x2:0xaa8dd69f PA:0x80008521
       51905000	      5189	80000fd0	fdd90383	lb	x7,-35(x18)	 x18:0x80008507  x7=0x00000008 PA:0x800084e4
       51915000	      5190	80000fd4	fdb90823	sb	x27,-48(x18)	 x18:0x80008507 x27:0xffffffd8 PA:0x800084d7
       51925000	      5191	80000fd8	06290083	lb	x1,98(x18)	 x18:0x80008507  x1=0x00000044 PA:0x80008569
       51935000	      5192	80000fdc	03b910a3	sh	x27,33(x18)	 x18:0x80008507 x27:0xffffffd8 PA:0x80008528
       51945000	      5193	80000fe0	a53e2237	lui	x4,0xa53e2	  x4=0xa53e2000
       51955000	      5194	80000fe4	01894083	lbu	x1,24(x18)	 x18:0x80008507  x1=0x000000ab PA:0x8000851f
       51965000	      5195	80000fe8	f9694603	lbu	x12,-106(x18)	 x18:0x80008507 x12=0x0000004e PA:0x8000849d
       51975000	      5196	80000fec	fcd92b83	lw	x23,-51(x18)	 x18:0x80008507 x23=0xd87b381e PA:0x800084d4
       51985000	      5197	80000ff0	cf8ae3b7	lui	x7,0xcf8ae	  x7=0xcf8ae000
       51995000	      5198	80000ff4	05890183	lb	x3,88(x18)	 x18:0x80008507  x3=0x00000013 PA:0x8000855f
       52005000	      5199	80000ff8	660bab93	slti	x23,x23,1632	 x23:0xd87b381e x23=0x00000001
       52015000	      5200	80000ffc	c527ab93	slti	x23,x15,-942	 x15:0x80009fc4 x23=0x00000001
       52025000	      5201	80001000	408d82b3	sub	x5,x27,x8	 x27:0xffffffd8  x8:0xfffffff8  x5=0xffffffe0
       52035000	      5202	80001004	07894703	lbu	x14,120(x18)	 x18:0x80008507 x14=0x0000002f PA:0x8000857f
       52045000	      5203	00000000	00000013	addi	x0,x0,0	  x0:0x00000000
       52055000	      5204	80001008	01374c33	xor	x24,x14,x19	 x14:0x0000002f x19:0x00000000 x24=0x0000002f
       52065000	      5205	8000100c	01909693	slli	x13,x1,0x19	  x1:0x000000ab x13=0x56000000
       52075000	      5206	80001010	d76a3313	sltiu	x6,x20,-650	 x20:0x00001da3  x6=0x00000001
       52085000	      5207	80001014	f7d90c03	lb	x24,-131(x18)	 x18:0x80008507 x24=0xffffffc1 PA:0x80008484
       52095000	      5208	80001018	40485d33	sra	x26,x16,x4	 x16:0x00000001  x4:0xa53e2000 x26=0x00000001
       52105000	      5209	8000101c	e218d0b7	lui	x1,0xe218d	  x1=0xe218d000
       52115000	      5210	80001020	010c1433	sll	x8,x24,x16	 x24:0xffffffc1 x16:0x00000001  x8=0xffffff82
       52125000	      5211	80001024	0ac90483	lb	x9,172(x18)	 x18:0x80008507  x9=0xffffff9a PA:0x800085b3
       52135000	      5212	80001028	00007097	auipc	x1,0x7	  x1=0x80008024
       52145000	      5213	8000102c	51608093	addi	x1,x1,1302	  x1:0x80008024  x1=0x8000853a
       52155000	      5214	80001030	91cb3713	sltiu	x14,x22,-1764	 x22:0x0000007b x14=0x00000001
       52165000	      5215	80001034	c0308ca3	sb	x3,-999(x1)	  x1:0x8000853a  x3:0x00000013 PA:0x80008153
       52175000	      5216	80001038	2d80d583	lhu	x11,728(x1)	  x1:0x8000853a x11=0x00005e1e PA:0x80008812
       52185000	      5217	8000103c	22ccf993	andi	x19,x25,556	 x25:0x80009edc x19=0x0000020c
       52195000	      5218	80001040	f85083a3	sb	x5,-121(x1)	  x1:0x8000853a  x5:0xffffffe0 PA:0x800084c1
       52205000	      5219	80001044	ea40c903	lbu	x18,-348(x1)	  x1:0x8000853a x18=0x00000063 PA:0x800083de
       52215000	      5220	80001048	11708903	lb	x18,279(x1)	  x1:0x8000853a x18=0x0000001a PA:0x80008651
       52225000	      5221	8000104c	eb97eb93	ori	x23,x15,-327	 x15:0x80009fc4 x23=0xfffffffd
       52235000	      5222	80001050	d9909c23	sh	x25,-616(x1)	  x1:0x8000853a x25:0x80009edc PA:0x800082d2
       52245000	      5223	80001054	9a5f0317	auipc	x6,0x9a5f0	  x6=0x1a5f1050
       52255000	      5224	80001058	002d1633	sll	x12,x26,x2	 x26:0x00000001  x2:0xaa8dd69f x12=0x80000000
       52265000	      5225	8000105c	01b139b3	sltu	x19,x2,x27	  x2:0xaa8dd69f x27:0xffffffd8 x19=0x00000001
       52275000	      5226	80001060	e250c683	lbu	x13,-475(x1)	  x1:0x8000853a x13=0x00000032 PA:0x8000835f
       52285000	      5227	80001064	01c779b3	and	x19,x14,x28	 x14:0x00000001 x28:0x00000094 x19=0x00000000
       52295000	      5228	80001068	0064d513	srli	x10,x9,0x6	  x9:0xffffff9a x10=0x03fffffe
       52305000	      5229	8000106c	f370c803	lbu	x16,-201(x1)	  x1:0x8000853a x16=0x000000aa PA:0x80008471
       52315000	      5230	80001070	db553d93	sltiu	x27,x10,-587	 x10:0x03fffffe x27=0x00000001
       52325000	      5231	80001074	10909d23	sh	x9,282(x1)	  x1:0x8000853a  x9:0xffffff9a PA:0x80008654
       52335000	      5232	80001078	087e7c13	andi	x24,x28,135	 x28:0x00000094 x24=0x00000084
       52345000	      5233	8000107c	08408a83	lb	x21,132(x1)	  x1:0x8000853a x21=0x00000021 PA:0x800085be
       52355000	      5234	80001080	e540d183	lhu	x3,-428(x1)	  x1:0x8000853a  x3=0x00009e27 PA:0x8000838e
       52365000	      5235	00000000	00000013	addi	x0,x0,0	  x0:0x00000000
       52375000	      5236	80001084	0430c803	lbu	x16,67(x1)	  x1:0x8000853a x16=0x00000047 PA:0x8000857d
       52385000	      5237	80001088	406c08b3	sub	x17,x24,x6	 x24:0x00000084  x6:0x1a5f1050 x17=0xe5a0f034
       52395000	      5238	8000108c	cc8080a3	sb	x8,-831(x1)	  x1:0x8000853a  x8:0xffffff82 PA:0x800081fb
       52405000	      5239	80001090	0260c683	lbu	x13,38(x1)	  x1:0x8000853a x13=0x00000064 PA:0x80008560
       52415000	      5240	80001094	1200dd03	lhu	x26,288(x1)	  x1:0x8000853a x26=0x000037cb PA:0x8000865a
       52425000	      5241	80001098	d030c503	lbu	x10,-765(x1)	  x1:0x8000853a x10=0x000000fd PA:0x8000823d
       52435000	      5242	8000109c	41695e13	srai	x28,x18,0x16	 x18:0x0000001a x28=0x00000000
       52445000	      5243	800010a0	00ee6993	ori	x19,x28,14	 x28:0x00000000 x19=0x0000000e
       52455000	      5244	800010a4	018e1a13	slli	x20,x28,0x18	 x28:0x00000000 x20=0x00000000
       52465000	      5245	800010a8	cf046e13	ori	x28,x8,-784	  x8:0xffffff82 x28=0xfffffff2
       52475000	      5246	800010ac	f8308503	lb	x10,-125(x1)	  x1:0x8000853a x10=0xffffffa3 PA:0x800084bd
       52485000	      5247	800010b0	bff0c483	lbu	x9,-1025(x1)	  x1:0x8000853a  x9=0x0000007d PA:0x80008139
       52495000	      5248	800010b4	00008517	auipc	x10,0x8	 x10=0x800090b0
       52505000	      5249	800010b8	c9650513	addi	x10,x10,-874	 x10:0x800090b0 x10=0x80008d46
       52515000	      5250	800010bc	01a5bdb3	sltu	x27,x11,x26	 x11:0x00005e1e x26:0x000037cb x27=0x00000000
       52525000	      5251	800010c0	fd550603	lb	x12,-43(x10)	 x10:0x80008d46 x12=0x00000000 PA:0x80008d1b
       52535000	      5252	800010c4	fc750aa3	sb	x7,-43(x10)	 x10:0x80008d46  x7:0xcf8ae000 PA:0x80008d1b
       52545000	      5253	800010c8	fda55d83	lhu	x27,-38(x10)	 x10:0x80008d46 x27=0x00005e08 PA:0x80008d20
       52555000	      5254	800010cc	84cb8e13	addi	x28,x23,-1972	 x23:0xfffffffd x28=0xfffff849
       52565000	      5255	800010d0	009da033	slt	x0,x27,x9	 x27:0x00005e08  x9:0x0000007d
       52575000	      5256	800010d4	fe754383	lbu	x7,-25(x10)	 x10:0x80008d46  x7=0x0000006d PA:0x80008d2d
       52585000	      5257	800010d8	0105a933	slt	x18,x11,x16	 x11:0x00005e1e x16:0x00000047 x18=0x00000000
       52595000	      5258	800010dc	fff50e23	sb	x31,-4(x10)	 x10:0x80008d46 x31:0x22fad000 PA:0x80008d42
       52605000	      5259	800010e0	03251f23	sh	x18,62(x10)	 x10:0x80008d46 x18:0x00000000 PA:0x80008d84
       52615000	      5260	800010e4	03350803	lb	x16,51(x10)	 x10:0x80008d46 x16=0xfffffff6 PA:0x80008d79
       52625000	      5261	800010e8	bad20493	addi	x9,x4,-1107	  x4:0xa53e2000  x9=0xa53e1bad
       52635000	      5262	800010ec	fcb54a83	lbu	x21,-53(x10)	 x10:0x80008d46 x21=0x000000f6 PA:0x80008d11
       52645000	      5263	800010f0	41645333	sra	x6,x8,x22	  x8:0xffffff82 x22:0x0000007b  x6=0xffffffff
       52655000	      5264	800010f4	0045c9b3	xor	x19,x11,x4	 x11:0x00005e1e  x4:0xa53e2000 x19=0xa53e7e1e
       52665000	      5265	800010f8	25458a93	addi	x21,x11,596	 x11:0x00005e1e x21=0x00006072
       52675000	      5266	800010fc	011c81b3	add	x3,x25,x17	 x25:0x80009edc x17:0xe5a0f034  x3=0x65a18f10
       52685000	      5267	80001100	fa6e3e93	sltiu	x29,x28,-90	 x28:0xfffff849 x29=0x00000001
       52695000	      5268	80001104	40565d13	srai	x26,x12,0x5	 x12:0x00000000 x26=0x00000000
       52705000	      5269	80001108	00000013	addi	x0,x0,0	  x0:0x00000000
       52715000	      5270	8000110c	016507a3	sb	x22,15(x10)	 x10:0x80008d46 x22:0x0000007b PA:0x80008d55
       52725000	      5271	80001110	ff251083	lh	x1,-14(x10)	 x10:0x80008d46  x1=0xffff9a5c PA:0x80008d38
       52735000	      5272	80001114	f4dc8393	addi	x7,x25,-179	 x25:0x80009edc  x7=0x80009e29
       52745000	      5273	80001118	00450aa3	sb	x4,21(x10)	 x10:0x80008d46  x4:0xa53e2000 PA:0x80008d5b
       52755000	      5274	8000111c	fe754883	lbu	x17,-25(x10)	 x10:0x80008d46 x17=0x0000006d PA:0x80008d2d
       52765000	      5275	80001120	8a5a9397	auipc	x7,0x8a5a9	  x7=0x0a5aa11c
       52775000	      5276	80001124	01e50223	sb	x30,4(x10)	 x10:0x80008d46 x30:0x88b93fa8 PA:0x80008d4a
       52785000	      5277	80001128	02150003	lb	x0,33(x10)	 x10:0x80008d46 PA:0x80008d67
       52795000	      5278	8000112c	03e52523	sw	x30,42(x10)	 x10:0x80008d46 x30:0x88b93fa8 PA:0x80008d70
       52805000	      5279	80001130	081abf93	sltiu	x31,x21,129	 x21:0x00006072 x31=0x00000000
       52815000	      5280	80001134	03850b23	sb	x24,54(x10)	 x10:0x80008d46 x24:0x00000084 PA:0x80008d7c
       52825000	      5281	80001138	000a8333	add	x6,x21,x0	 x21:0x00006072  x0:0x00000000  x6=0x00006072
       52835000	      5282	8000113c	fe055283	lhu	x5,-32(x10)	 x10:0x80008d46  x5=0x000000d1 PA:0x80008d26
       52845000	      5283	80001140	fd0505a3	sb	x16,-53(x10)	 x10:0x80008d46 x16:0xfffffff6 PA:0x80008d11
       52855000	      5284	80001144	ff954f83	lbu	x31,-7(x10)	 x10:0x80008d46 x31=0x00000084 PA:0x80008d3f
       52865000	      5285	80001148	bf36ad13	slti	x26,x13,-1037	 x13:0x00000064 x26=0x00000000
       52875000	      5286	8000114c	d0526913	ori	x18,x4,-763	  x4:0xa53e2000 x18=0xfffffd05
       52885000	      5287	80001150	00511f33	sll	x30,x2,x5	  x2:0xaa8dd69f  x5:0x000000d1 x30=0xad3e0000
       52895000	      5288	80001154	00b50203	lb	x4,11(x10)	 x10:0x80008d46  x4=0x00000044 PA:0x80008d51
       52905000	      5289	80001158	01650703	lb	x14,22(x10)	 x10:0x80008d46 x14=0xffffffd8 PA:0x80008d5c
       52915000	      5290	8000115c	b81de893	ori	x17,x27,-1151	 x27:0x00005e08 x17=0xffffff89
       52925000	      5291	80001160	02550ea3	sb	x5,61(x10)	 x10:0x80008d46  x5:0x000000d1 PA:0x80008d83
       52935000	      5292	80001164	00854083	lbu	x1,8(x10)	 x10:0x80008d46  x1=0x0000004c PA:0x80008d4e
       52945000	      5293	80001168	01a78617	auipc	x12,0x1a78	 x12=0x81a79164
       52955000	      5294	8000116c	01cc7333	and	x6,x24,x28	 x24:0x00000084 x28:0xfffff849  x6=0x00000000
       52965000	      5295	80001170	02ef7263	bgeu	x30,x14,80001194	 x30:0xad3e0000 x14:0xffffffd8
       52975000	      5296	80001174	001d3a33	sltu	x20,x26,x1	 x26:0x00000000  x1:0x0000004c x20=0x00000001
       52985000	      5297	80001178	05a95263	bge	x18,x26,800011bc	 x18:0xfffffd05 x26:0x00000000
       52995000	      5298	8000117c	2fe6f313	andi	x6,x13,766	 x13:0x00000064  x6=0x00000064
       53005000	      5299	80001180	d517d517	auipc	x10,0xd517d	 x10=0x5517e17c
       53015000	      5300	80001184	00306a33	or	x20,x0,x3	  x0:0x00000000  x3:0x65a18f10 x20=0x65a18f10
       53025000	      5301	80001188	000bb733	sltu	x14,x23,x0	 x23:0xfffffffd  x0:0x00000000 x14=0x00000000
       53035000	      5302	8000118c	02d01263	bne	x0,x13,800011b0	  x0:0x00000000 x13:0x00000064
       53045000	      5303	00000000	00000013	addi	x0,x0,0	  x0:0x00000000
       53055000	      5304	800011ac	00000013	addi	x0,x0,0	  x0:0x00000000
       53065000	      5305	800011b0	0263f263	bgeu	x7,x6,800011d4	  x7:0x0a5aa11c  x6:0x00000064
       53075000	      5306	00000000	00000013	addi	x0,x0,0	  x0:0x00000000
       53085000	      5307	800011d0	00000013	addi	x0,x0,0	  x0:0x00000000
       53095000	      5308	800011d4	013984b3	add	x9,x19,x19	 x19:0xa53e7e1e x19:0xa53e7e1e  x9=0x4a7cfc3c
       53105000	      5309	800011d8	ea064093	xori	x1,x12,-352	 x12:0x81a79164  x1=0x7e586fc4
       53115000	      5310	800011dc	4b6a4a93	xori	x21,x20,1206	 x20:0x65a18f10 x21=0x65a18ba6
       53125000	      5311	800011e0	40538a33	sub	x20,x7,x5	  x7:0x0a5aa11c  x5:0x000000d1 x20=0x0a5aa04b
       53135000	      5312	800011e4	6b77efb7	lui	x31,0x6b77e	 x31=0x6b77e000
       53145000	      5313	800011e8	04f25463	bge	x4,x15,80001230	  x4:0x00000044 x15:0x80009fc4
       53155000	      5314	00000000	00000013	addi	x0,x0,0	  x0:0x00000000
       53165000	      5315	8000122c	00000013	addi	x0,x0,0	  x0:0x00000000
       53175000	      5316	80001230	054fd663	bge	x31,x20,8000127c	 x31:0x6b77e000 x20:0x0a5aa04b
       53185000	      5317	00000000	00000013	addi	x0,x0,0	  x0:0x00000000
       53195000	      5318	80001278	00000013	addi	x0,x0,0	  x0:0x00000000
       53205000	      5319	8000127c	012cbdb3	sltu	x27,x25,x18	 x25:0x80009edc x18:0xfffffd05 x27=0x00000001
       53215000	      5320	80001280	01d79633	sll	x12,x15,x29	 x15:0x80009fc4 x29:0x00000001 x12=0x00013f88
       53225000	      5321	80001284	0563c463	blt	x7,x22,800012cc	  x7:0x0a5aa11c x22:0x0000007b
       53235000	      5322	80001288	016132b3	sltu	x5,x2,x22	  x2:0xaa8dd69f x22:0x0000007b  x5=0x00000000
       53245000	      5323	8000128c	0061d233	srl	x4,x3,x6	  x3:0x65a18f10  x6:0x00000064  x4=0x065a18f1
       53255000	      5324	80001290	01519e33	sll	x28,x3,x21	  x3:0x65a18f10 x21:0x65a18ba6 x28=0x6863c400
       53265000	      5325	80001294	01014863	blt	x2,x16,800012a4	  x2:0xaa8dd69f x16:0xfffffff6
       53275000	      5326	00000000	00000013	addi	x0,x0,0	  x0:0x00000000
       53285000	      5327	800012a0	00000013	addi	x0,x0,0	  x0:0x00000000
       53295000	      5328	800012a4	003f4c33	xor	x24,x30,x3	 x30:0xad3e0000  x3:0x65a18f10 x24=0xc89f8f10
       53305000	      5329	800012a8	000ad093	srli	x1,x21,0x0	 x21:0x65a18ba6  x1=0x65a18ba6
       53315000	      5330	800012ac	0138d693	srli	x13,x17,0x13	 x17:0xffffff89 x13=0x00001fff
       53325000	      5331	800012b0	01ee8e63	beq	x29,x30,800012cc	 x29:0x00000001 x30:0xad3e0000
       53335000	      5332	800012b4	01787663	bgeu	x16,x23,800012c0	 x16:0xfffffff6 x23:0xfffffffd
       53345000	      5333	800012b8	017939b3	sltu	x19,x18,x23	 x18:0xfffffd05 x23:0xfffffffd x19=0x00000001
       53355000	      5334	800012bc	02255063	bge	x10,x2,800012dc	 x10:0x5517e17c  x2:0xaa8dd69f
       53365000	      5335	00000000	00000013	addi	x0,x0,0	  x0:0x00000000
       53375000	      5336	800012d8	00000013	addi	x0,x0,0	  x0:0x00000000
       53385000	      5337	800012dc	0196c533	xor	x10,x13,x25	 x13:0x00001fff x25:0x80009edc x10=0x80008123
       53395000	      5338	800012e0	0187eb33	or	x22,x15,x24	 x15:0x80009fc4 x24:0xc89f8f10 x22=0xc89f9fd4
       53405000	      5339	800012e4	002f0863	beq	x30,x2,800012f4	 x30:0xad3e0000  x2:0xaa8dd69f
       53415000	      5340	800012e8	009e9863	bne	x29,x9,800012f8	 x29:0x00000001  x9:0x4a7cfc3c
       53425000	      5341	00000000	00000013	addi	x0,x0,0	  x0:0x00000000
       53435000	      5342	800012f4	00000013	addi	x0,x0,0	  x0:0x00000000
       53445000	      5343	800012f8	4167d413	srai	x8,x15,0x16	 x15:0x80009fc4  x8=0xfffffe00
       53455000	      5344	800012fc	60f1e713	ori	x14,x3,1551	  x3:0x65a18f10 x14=0x65a18f1f
       53465000	      5345	80001300	ed4a8993	addi	x19,x21,-300	 x21:0x65a18ba6 x19=0x65a18a7a
       53475000	      5346	80001304	00000013	addi	x0,x0,0	  x0:0x00000000
       53485000	      5347	80001308	01787733	and	x14,x16,x23	 x16:0xfffffff6 x23:0xfffffffd x14=0xfffffff4
       53495000	      5348	8000130c	033d0c63	beq	x26,x19,80001344	 x26:0x00000000 x19:0x65a18a7a
       53505000	      5349	80001310	01435193	srli	x3,x6,0x14	  x6:0x00000064  x3=0x00000000
       53515000	      5350	80001314	600e6213	ori	x4,x28,1536	 x28:0x6863c400  x4=0x6863c600
       53525000	      5351	80001318	40dbd093	srai	x1,x23,0xd	 x23:0xfffffffd  x1=0xffffffff
       53535000	      5352	8000131c	3b718393	addi	x7,x3,951	  x3:0x00000000  x7=0x000003b7
       53545000	      5353	80001320	006b3833	sltu	x16,x22,x6	 x22:0xc89f9fd4  x6:0x00000064 x16=0x00000000
       53555000	      5354	80001324	2eaa2a93	slti	x21,x20,746	 x20:0x0a5aa04b x21=0x00000000
       53565000	      5355	80001328	012ab1b3	sltu	x3,x21,x18	 x21:0x00000000 x18:0xfffffd05  x3=0x00000001
       53575000	      5356	8000132c	35c8ad13	slti	x26,x17,860	 x17:0xffffff89 x26=0x00000001
       53585000	      5357	80001330	86eccc13	xori	x24,x25,-1938	 x25:0x80009edc x24=0x7fff66b2
       53595000	      5358	80001334	01665b33	srl	x22,x12,x22	 x12:0x00013f88 x22:0xc89f9fd4 x22=0x00000000
       53605000	      5359	80001338	af6c8417	auipc	x8,0xaf6c8	  x8=0x2f6c9334
       53615000	      5360	8000133c	8a510993	addi	x19,x2,-1883	  x2:0xaa8dd69f x19=0xaa8dcf44
       53625000	      5361	80001340	88b5c913	xori	x18,x11,-1909	 x11:0x00005e1e x18=0xffffa695
       53635000	      5362	80001344	78b7ed13	ori	x26,x15,1931	 x15:0x80009fc4 x26=0x80009fcf
       53645000	      5363	80001348	0ca40337	lui	x6,0xca40	  x6=0x0ca40000
       53655000	      5364	8000134c	0b6fcc63	blt	x31,x22,80001404	 x31:0x6b77e000 x22:0x00000000
       53665000	      5365	80001350	00007197	auipc	x3,0x7	  x3=0x8000834c
       53675000	      5366	80001354	7ea18193	addi	x3,x3,2026	  x3:0x8000834c  x3=0x80008b36
       53685000	      5367	80001358	3671ce03	lbu	x28,871(x3)	  x3:0x80008b36 x28=0x0000009e PA:0x80008e9d
       53695000	      5368	8000135c	dabc8d93	addi	x27,x25,-597	 x25:0x80009edc x27=0x80009c87
       53705000	      5369	80001360	00000013	addi	x0,x0,0	  x0:0x00000000
       53715000	      5370	80001364	974fa293	slti	x5,x31,-1676	 x31:0x6b77e000  x5=0x00000000
       53725000	      5371	80001368	1d918a03	lb	x20,473(x3)	  x3:0x80008b36 x20=0xfffffff9 PA:0x80008d0f
       53735000	      5372	8000136c	00000013	addi	x0,x0,0	  x0:0x00000000
       53745000	      5373	80001370	01395393	srli	x7,x18,0x13	 x18:0xffffa695  x7=0x00001fff
       53755000	      5374	80001374	f9f1a923	sw	x31,-110(x3)	  x3:0x80008b36 x31:0x6b77e000 PA:0x80008ac8
       53765000	      5375	80001378	00222bb3	slt	x23,x4,x2	  x4:0x6863c600  x2:0xaa8dd69f x23=0x00000000
       53775000	      5376	8000137c	fee19c23	sh	x14,-8(x3)	  x3:0x80008b36 x14:0xfffffff4 PA:0x80008b2e
       53785000	      5377	80001380	5a0f8a13	addi	x20,x31,1440	 x31:0x6b77e000 x20=0x6b77e5a0
       53795000	      5378	80001384	4bf19423	sh	x31,1192(x3)	  x3:0x80008b36 x31:0x6b77e000 PA:0x80008fde
       53805000	      5379	80001388	87376413	ori	x8,x14,-1933	 x14:0xfffffff4  x8=0xfffffff7
       53815000	      5380	8000138c	3f819803	lh	x16,1016(x3)	  x3:0x80008b36 x16=0xffffb9af PA:0x80008f2e
       53825000	      5381	80001390	6f555037	lui	x0,0x6f555	
       53835000	      5382	80001394	21219623	sh	x18,524(x3)	  x3:0x80008b36 x18:0xffffa695 PA:0x80008d42
       53845000	      5383	80001398	2c518403	lb	x8,709(x3)	  x3:0x80008b36  x8=0x00000053 PA:0x80008dfb
       53855000	      5384	8000139c	003a78b3	and	x17,x20,x3	 x20:0x6b77e5a0  x3:0x80008b36 x17=0x00008120
       53865000	      5385	800013a0	41b28eb3	sub	x29,x5,x27	  x5:0x00000000 x27:0x80009c87 x29=0x7fff6379
       53875000	      5386	800013a4	00a88bb3	add	x23,x17,x10	 x17:0x00008120 x10:0x80008123 x23=0x80010243
       53885000	      5387	800013a8	fd718803	lb	x16,-41(x3)	  x3:0x80008b36 x16=0x0000002d PA:0x80008b0d
       53895000	      5388	800013ac	01d1c5b3	xor	x11,x3,x29	  x3:0x80008b36 x29:0x7fff6379 x11=0xffffe84f
       53905000	      5389	800013b0	0062b233	sltu	x4,x5,x6	  x5:0x00000000  x6:0x0ca40000  x4=0x00000001
       53915000	      5390	800013b4	169bd0b7	lui	x1,0x169bd	  x1=0x169bd000
       53925000	      5391	800013b8	eb018403	lb	x8,-336(x3)	  x3:0x80008b36  x8=0xffffffd1 PA:0x800089e6
       53935000	      5392	800013bc	2ff18283	lb	x5,767(x3)	  x3:0x80008b36  x5=0x00000076 PA:0x80008e35
       53945000	      5393	800013c0	3df18e23	sb	x31,988(x3)	  x3:0x80008b36 x31:0x6b77e000 PA:0x80008f12
       53955000	      5394	800013c4	21a19c03	lh	x24,538(x3)	  x3:0x80008b36 x24=0x000044f1 PA:0x80008d50
       53965000	      5395	800013c8	00b940b3	xor	x1,x18,x11	 x18:0xffffa695 x11:0xffffe84f  x1=0x00004eda
       53975000	      5396	800013cc	28f18a83	lb	x21,655(x3)	  x3:0x80008b36 x21=0x00000067 PA:0x80008dc5
       53985000	      5397	800013d0	d791c203	lbu	x4,-647(x3)	  x3:0x80008b36  x4=0x000000cc PA:0x800088af
       53995000	      5398	800013d4	fa91ce83	lbu	x29,-87(x3)	  x3:0x80008b36 x29=0x000000c6 PA:0x80008adf
       54005000	      5399	800013d8	9a1b1eb7	lui	x29,0x9a1b1	 x29=0x9a1b1000
       54015000	      5400	800013dc	2f4189a3	sb	x20,755(x3)	  x3:0x80008b36 x20:0x6b77e5a0 PA:0x80008e29
       54025000	      5401	800013e0	4126d913	srai	x18,x13,0x12	 x13:0x00001fff x18=0x00000000
       54035000	      5402	800013e4	2c618ea3	sb	x6,733(x3)	  x3:0x80008b36  x6:0x0ca40000 PA:0x80008e13
       54045000	      5403	800013e8	0855eb93	ori	x23,x11,133	 x11:0xffffe84f x23=0xffffe8cf
       54055000	      5404	800013ec	05535463	bge	x6,x21,80001434	  x6:0x0ca40000 x21:0x00000067
       54065000	      5405	00000000	00000013	addi	x0,x0,0	  x0:0x00000000
       54075000	      5406	80001430	00000013	addi	x0,x0,0	  x0:0x00000000
       54085000	      5407	80001434	6a396013	ori	x0,x18,1699	 x18:0x00000000
       54095000	      5408	80001438	02b14c63	blt	x2,x11,80001470	  x2:0xaa8dd69f x11:0xffffe84f
       54105000	      5409	00000000	00000013	addi	x0,x0,0	  x0:0x00000000
       54115000	      5410	8000146c	00000013	addi	x0,x0,0	  x0:0x00000000
       54125000	      5411	80001470	4075dfb3	sra	x31,x11,x7	 x11:0xffffe84f  x7:0x00001fff x31=0xffffffff
       54135000	      5412	80001474	00205613	srli	x12,x0,0x2	  x0:0x00000000 x12=0x00000000
       54145000	      5413	80001478	d63c6a93	ori	x21,x24,-669	 x24:0x000044f1 x21=0xfffffdf3
       54155000	      5414	8000147c	0169e633	or	x12,x19,x22	 x19:0xaa8dcf44 x22:0x00000000 x12=0xaa8dcf44
       54165000	      5415	80001480	01c47b33	and	x22,x8,x28	  x8:0xffffffd1 x28:0x0000009e x22=0x00000090
       54175000	      5416	80001484	00a11e13	slli	x28,x2,0xa	  x2:0xaa8dd69f x28=0x375a7c00
       54185000	      5417	80001488	00f9dc63	bge	x19,x15,800014a0	 x19:0xaa8dcf44 x15:0x80009fc4
       54195000	      5418	00000000	00000013	addi	x0,x0,0	  x0:0x00000000
       54205000	      5419	8000149c	00000013	addi	x0,x0,0	  x0:0x00000000
       54215000	      5420	800014a0	02e58063	beq	x11,x14,800014c0	 x11:0xffffe84f x14:0xfffffff4
       54225000	      5421	800014a4	c7327c13	andi	x24,x4,-909	  x4:0x000000cc x24=0x00000040
       54235000	      5422	800014a8	0198fd33	and	x26,x17,x25	 x17:0x00008120 x25:0x80009edc x26=0x00008000
       54245000	      5423	800014ac	404352b3	sra	x5,x6,x4	  x6:0x0ca40000  x4:0x000000cc  x5=0x0000ca40
       54255000	      5424	800014b0	67870e93	addi	x29,x14,1656	 x14:0xfffffff4 x29=0x0000066c
       54265000	      5425	800014b4	013a8033	add	x0,x21,x19	 x21:0xfffffdf3 x19:0xaa8dcf44
       54275000	      5426	800014b8	ac62b713	sltiu	x14,x5,-1338	  x5:0x0000ca40 x14=0x00000001
       54285000	      5427	800014bc	01c5d013	srli	x0,x11,0x1c	 x11:0xffffe84f
       54295000	      5428	800014c0	00ec33b3	sltu	x7,x24,x14	 x24:0x00000040 x14:0x00000001  x7=0x00000000
       54305000	      5429	800014c4	003ef6b3	and	x13,x29,x3	 x29:0x0000066c  x3:0x80008b36 x13=0x00000224
       54315000	      5430	800014c8	04d05463	bge	x0,x13,80001510	  x0:0x00000000 x13:0x00000224
       54325000	      5431	800014cc	03418063	beq	x3,x20,800014ec	  x3:0x80008b36 x20:0x6b77e5a0
       54335000	      5432	800014d0	009e59b3	srl	x19,x28,x9	 x28:0x375a7c00  x9:0x4a7cfc3c x19=0x00000003
       54345000	      5433	800014d4	fbaa3593	sltiu	x11,x20,-70	 x20:0x6b77e5a0 x11=0x00000001
       54355000	      5434	800014d8	cb28a813	slti	x16,x17,-846	 x17:0x00008120 x16=0x00000000
       54365000	      5435	800014dc	03615c63	bge	x2,x22,80001514	  x2:0xaa8dd69f x22:0x00000090
       54375000	      5436	800014e0	04fd8863	beq	x27,x15,80001530	 x27:0x80009c87 x15:0x80009fc4
       54385000	      5437	800014e4	81550393	addi	x7,x10,-2027	 x10:0x80008123  x7=0x80007938
       54395000	      5438	800014e8	009e1733	sll	x14,x28,x9	 x28:0x375a7c00  x9:0x4a7cfc3c x14=0x00000000
       54405000	      5439	800014ec	00000013	addi	x0,x0,0	  x0:0x00000000
       54415000	      5440	800014f0	00bd79b3	and	x19,x26,x11	 x26:0x00008000 x11:0x00000001 x19=0x00000000
       54425000	      5441	800014f4	0221d263	bge	x3,x2,80001518	  x3:0x80008b36  x2:0xaa8dd69f
       54435000	      5442	800014f8	6fee91b7	lui	x3,0x6fee9	  x3=0x6fee9000
       54445000	      5443	800014fc	01f452b3	srl	x5,x8,x31	  x8:0xffffffd1 x31:0xffffffff  x5=0x00000001
       54455000	      5444	80001500	00000013	addi	x0,x0,0	  x0:0x00000000
       54465000	      5445	80001504	01e459b3	srl	x19,x8,x30	  x8:0xffffffd1 x30:0xad3e0000 x19=0xffffffd1
       54475000	      5446	80001508	413a0e33	sub	x28,x20,x19	 x20:0x6b77e5a0 x19:0xffffffd1 x28=0x6b77e5cf
       54485000	      5447	8000150c	01ffd663	bge	x31,x31,80001518	 x31:0xffffffff x31:0xffffffff
       54495000	      5448	00000000	00000013	addi	x0,x0,0	  x0:0x00000000
       54505000	      5449	80001514	00000013	addi	x0,x0,0	  x0:0x00000000
       54515000	      5450	80001518	02db9263	bne	x23,x13,8000153c	 x23:0xffffe8cf x13:0x00000224
       54525000	      5451	00000000	00000013	addi	x0,x0,0	  x0:0x00000000
       54535000	      5452	80001538	00000013	addi	x0,x0,0	  x0:0x00000000
       54545000	      5453	8000153c	016746b3	xor	x13,x14,x22	 x14:0x00000000 x22:0x00000090 x13=0x00000090
       54555000	      5454	80001540	01a3d993	srli	x19,x7,0x1a	  x7:0x80007938 x19=0x00000020
       54565000	      5455	80001544	03d44863	blt	x8,x29,80001574	  x8:0xffffffd1 x29:0x0000066c
       54575000	      5456	00000000	00000013	addi	x0,x0,0	  x0:0x00000000
       54585000	      5457	80001570	00000013	addi	x0,x0,0	  x0:0x00000000
       54595000	      5458	80001574	04d54263	blt	x10,x13,800015b8	 x10:0x80008123 x13:0x00000090
       54605000	      5459	00000000	00000013	addi	x0,x0,0	  x0:0x00000000
       54615000	      5460	800015b4	00000013	addi	x0,x0,0	  x0:0x00000000
       54625000	      5461	800015b8	03545663	bge	x8,x21,800015e4	  x8:0xffffffd1 x21:0xfffffdf3
       54635000	      5462	00000000	00000013	addi	x0,x0,0	  x0:0x00000000
       54645000	      5463	800015e0	00000013	addi	x0,x0,0	  x0:0x00000000
       54655000	      5464	800015e4	00795813	srli	x16,x18,0x7	 x18:0x00000000 x16=0x00000000
       54665000	      5465	800015e8	00f811b3	sll	x3,x16,x15	 x16:0x00000000 x15:0x80009fc4  x3=0x00000000
       54675000	      5466	800015ec	40b1ddb3	sra	x27,x3,x11	  x3:0x00000000 x11:0x00000001 x27=0x00000000
       54685000	      5467	800015f0	e18fff13	andi	x30,x31,-488	 x31:0xffffffff x30=0xfffffe18
       54695000	      5468	800015f4	01cad4b3	srl	x9,x21,x28	 x21:0xfffffdf3 x28:0x6b77e5cf  x9=0x0001ffff
       54705000	      5469	800015f8	b4e61597	auipc	x11,0xb4e61	 x11=0x34e625f4
       54715000	      5470	800015fc	00000013	addi	x0,x0,0	  x0:0x00000000
       54725000	      5471	80001600	01766bb3	or	x23,x12,x23	 x12:0xaa8dcf44 x23:0xffffe8cf x23=0xffffefcf
       54735000	      5472	80001604	00ab1b93	slli	x23,x22,0xa	 x22:0x00000090 x23=0x00024000
       54745000	      5473	80001608	0019edb3	or	x27,x19,x1	 x19:0x00000020  x1:0x00004eda x27=0x00004efa
       54755000	      5474	8000160c	041cf863	bgeu	x25,x1,8000165c	 x25:0x80009edc  x1:0x00004eda
       54765000	      5475	00000000	00000013	addi	x0,x0,0	  x0:0x00000000
       54775000	      5476	80001658	00000013	addi	x0,x0,0	  x0:0x00000000
       54785000	      5477	8000165c	0234fc63	bgeu	x9,x3,80001694	  x9:0x0001ffff  x3:0x00000000
       54795000	      5478	00000000	00000013	addi	x0,x0,0	  x0:0x00000000
       54805000	      5479	80001690	00000013	addi	x0,x0,0	  x0:0x00000000
       54815000	      5480	80001694	b3758293	addi	x5,x11,-1225	 x11:0x34e625f4  x5=0x34e6212b
       54825000	      5481	80001698	0032c8b3	xor	x17,x5,x3	  x5:0x34e6212b  x3:0x00000000 x17=0x34e6212b
       54835000	      5482	8000169c	00747933	and	x18,x8,x7	  x8:0xffffffd1  x7:0x80007938 x18=0x80007910
       54845000	      5483	800016a0	01ad51b3	srl	x3,x26,x26	 x26:0x00008000 x26:0x00008000  x3=0x00008000
       54855000	      5484	800016a4	00287e33	and	x28,x16,x2	 x16:0x00000000  x2:0xaa8dd69f x28=0x00000000
       54865000	      5485	800016a8	00d47ab3	and	x21,x8,x13	  x8:0xffffffd1 x13:0x00000090 x21=0x00000090
       54875000	      5486	800016ac	019dcb33	xor	x22,x27,x25	 x27:0x00004efa x25:0x80009edc x22=0x8000d026
       54885000	      5487	800016b0	00000013	addi	x0,x0,0	  x0:0x00000000
       54895000	      5488	800016b4	0108bdb3	sltu	x27,x17,x16	 x17:0x34e6212b x16:0x00000000 x27=0x00000000
       54905000	      5489	800016b8	01e79333	sll	x6,x15,x30	 x15:0x80009fc4 x30:0xfffffe18  x6=0xc4000000
       54915000	      5490	800016bc	0101a0b3	slt	x1,x3,x16	  x3:0x00008000 x16:0x00000000  x1=0x00000000
       54925000	      5491	800016c0	01e268b3	or	x17,x4,x30	  x4:0x000000cc x30:0xfffffe18 x17=0xfffffedc
       54935000	      5492	800016c4	004f5e63	bge	x30,x4,800016e0	 x30:0xfffffe18  x4:0x000000cc
       54945000	      5493	800016c8	0168a6b3	slt	x13,x17,x22	 x17:0xfffffedc x22:0x8000d026 x13=0x00000000
       54955000	      5494	800016cc	414d5533	sra	x10,x26,x20	 x26:0x00008000 x20:0x6b77e5a0 x10=0x00008000
       54965000	      5495	800016d0	41e0de33	sra	x28,x1,x30	  x1:0x00000000 x30:0xfffffe18 x28=0x00000000
       54975000	      5496	800016d4	05165063	bge	x12,x17,80001714	 x12:0xaa8dcf44 x17:0xfffffedc
       54985000	      5497	800016d8	415e54b3	sra	x9,x28,x21	 x28:0x00000000 x21:0x00000090  x9=0x00000000
       54995000	      5498	800016dc	fc216297	auipc	x5,0xfc216	  x5=0x7c2176d8
       55005000	      5499	800016e0	268f3db7	lui	x27,0x268f3	 x27=0x268f3000
       55015000	      5500	800016e4	2b6e1d17	auipc	x26,0x2b6e1	 x26=0xab6e26e0
       55025000	      5501	800016e8	5fdeb913	sltiu	x18,x29,1533	 x29:0x0000066c x18=0x00000000
       55035000	      5502	800016ec	0175dfb3	srl	x31,x11,x23	 x11:0x34e625f4 x23:0x00024000 x31=0x34e625f4
       55045000	      5503	800016f0	00e6a033	slt	x0,x13,x14	 x13:0x00000000 x14:0x00000000
       55055000	      5504	800016f4	049de663	bltu	x27,x9,80001740	 x27:0x268f3000  x9:0x00000000
       55065000	      5505	800016f8	eaee1337	lui	x6,0xeaee1	  x6=0xeaee1000
       55075000	      5506	800016fc	019ef663	bgeu	x29,x25,80001708	 x29:0x0000066c x25:0x80009edc
       55085000	      5507	80001700	855c6d13	ori	x26,x24,-1963	 x24:0x00000040 x26=0xfffff855
       55095000	      5508	80001704	296eff13	andi	x30,x29,662	 x29:0x0000066c x30=0x00000204
       55105000	      5509	80001708	04b97063	bgeu	x18,x11,80001748	 x18:0x00000000 x11:0x34e625f4
       55115000	      5510	8000170c	ab22ff93	andi	x31,x5,-1358	  x5:0x7c2176d8 x31=0x7c217290
       55125000	      5511	80001710	4003d333	sra	x6,x7,x0	  x7:0x80007938  x0:0x00000000  x6=0x80007938
       55135000	      5512	80001714	017c5933	srl	x18,x24,x23	 x24:0x00000040 x23:0x00024000 x18=0x00000040
       55145000	      5513	80001718	98da6a93	ori	x21,x20,-1651	 x20:0x6b77e5a0 x21=0xfffffdad
       55155000	      5514	8000171c	01f8c863	blt	x17,x31,8000172c	 x17:0xfffffedc x31:0x7c217290
       55165000	      5515	00000000	00000013	addi	x0,x0,0	  x0:0x00000000
       55175000	      5516	80001728	00000013	addi	x0,x0,0	  x0:0x00000000
       55185000	      5517	8000172c	fbe70f93	addi	x31,x14,-66	 x14:0x00000000 x31=0xffffffbe
       55195000	      5518	80001730	04728063	beq	x5,x7,80001770	  x5:0x7c2176d8  x7:0x80007938
       55205000	      5519	80001734	9af14fb7	lui	x31,0x9af14	 x31=0x9af14000
       55215000	      5520	80001738	01f58c63	beq	x11,x31,80001750	 x11:0x34e625f4 x31:0x9af14000
       55225000	      5521	8000173c	408b5db3	sra	x27,x22,x8	 x22:0x8000d026  x8:0xffffffd1 x27=0xffffc000
       55235000	      5522	80001740	015372b3	and	x5,x6,x21	  x6:0x80007938 x21:0xfffffdad  x5=0x80007928
       55245000	      5523	80001744	ad648613	addi	x12,x9,-1322	  x9:0x00000000 x12=0xfffffad6
       55255000	      5524	80001748	026c6863	bltu	x24,x6,80001778	 x24:0x00000040  x6:0x80007938
       55265000	      5525	00000000	00000013	addi	x0,x0,0	  x0:0x00000000
       55275000	      5526	80001774	00000013	addi	x0,x0,0	  x0:0x00000000
       55285000	      5527	80001778	01d75913	srli	x18,x14,0x1d	 x14:0x00000000 x18=0x00000000
       55295000	      5528	8000177c	01dd0533	add	x10,x26,x29	 x26:0xfffff855 x29:0x0000066c x10=0xfffffec1
       55305000	      5529	80001780	011b7533	and	x10,x22,x17	 x22:0x8000d026 x17:0xfffffedc x10=0x8000d004
       55315000	      5530	80001784	27efc313	xori	x6,x31,638	 x31:0x9af14000  x6=0x9af1427e
       55325000	      5531	80001788	6374e413	ori	x8,x9,1591	  x9:0x00000000  x8=0x00000637
       55335000	      5532	8000178c	01f13a33	sltu	x20,x2,x31	  x2:0xaa8dd69f x31:0x9af14000 x20=0x00000000
       55345000	      5533	80001790	00d01e93	slli	x29,x0,0xd	  x0:0x00000000 x29=0x00000000
       55355000	      5534	80001794	0215dc63	bge	x11,x1,800017cc	 x11:0x34e625f4  x1:0x00000000
       55365000	      5535	00000000	00000013	addi	x0,x0,0	  x0:0x00000000
       55375000	      5536	800017c8	00000013	addi	x0,x0,0	  x0:0x00000000
       55385000	      5537	800017cc	0115d2b3	srl	x5,x11,x17	 x11:0x34e625f4 x17:0xfffffedc  x5=0x00000003
       55395000	      5538	800017d0	413b8e33	sub	x28,x23,x19	 x23:0x00024000 x19:0x00000020 x28=0x00023fe0
       55405000	      5539	800017d4	0011f4b3	and	x9,x3,x1	  x3:0x00008000  x1:0x00000000  x9=0x00000000
       55415000	      5540	800017d8	4a4af6b7	lui	x13,0x4a4af	 x13=0x4a4af000
       55425000	      5541	800017dc	001053b3	srl	x7,x0,x1	  x0:0x00000000  x1:0x00000000  x7=0x00000000
       55435000	      5542	800017e0	00f82233	slt	x4,x16,x15	 x16:0x00000000 x15:0x80009fc4  x4=0x00000000
       55445000	      5543	800017e4	ba5b0d13	addi	x26,x22,-1115	 x22:0x8000d026 x26=0x8000cbcb
       55455000	      5544	800017e8	02b94263	blt	x18,x11,8000180c	 x18:0x00000000 x11:0x34e625f4
       55465000	      5545	00000000	00000013	addi	x0,x0,0	  x0:0x00000000
       55475000	      5546	80001808	00000013	addi	x0,x0,0	  x0:0x00000000
       55485000	      5547	8000180c	0508d263	bge	x17,x16,80001850	 x17:0xfffffedc x16:0x00000000
       55495000	      5548	80001810	b3d48b13	addi	x22,x9,-1219	  x9:0x00000000 x22=0xfffffb3d
       55505000	      5549	80001814	00459c63	bne	x11,x4,8000182c	 x11:0x34e625f4  x4:0x00000000
       55515000	      5550	00000000	00000013	addi	x0,x0,0	  x0:0x00000000
       55525000	      5551	80001828	00000013	addi	x0,x0,0	  x0:0x00000000
       55535000	      5552	8000182c	0026a533	slt	x10,x13,x2	 x13:0x4a4af000  x2:0xaa8dd69f x10=0x00000000
       55545000	      5553	80001830	01575393	srli	x7,x14,0x15	 x14:0x00000000  x7=0x00000000
       55555000	      5554	80001834	deb04437	lui	x8,0xdeb04	  x8=0xdeb04000
       55565000	      5555	80001838	007f5fb3	srl	x31,x30,x7	 x30:0x00000204  x7:0x00000000 x31=0x00000204
       55575000	      5556	8000183c	009ee4b3	or	x9,x29,x9	 x29:0x00000000  x9:0x00000000  x9=0x00000000
       55585000	      5557	80001840	409e08b3	sub	x17,x28,x9	 x28:0x00023fe0  x9:0x00000000 x17=0x00023fe0
       55595000	      5558	80001844	40d000b3	sub	x1,x0,x13	  x0:0x00000000 x13:0x4a4af000  x1=0xb5b51000
       55605000	      5559	80001848	d8442b93	slti	x23,x8,-636	  x8:0xdeb04000 x23=0x00000001
       55615000	      5560	8000184c	7cc58593	addi	x11,x11,1996	 x11:0x34e625f4 x11=0x34e62dc0
       55625000	      5561	80001850	000d7733	and	x14,x26,x0	 x26:0x8000cbcb  x0:0x00000000 x14=0x00000000
       55635000	      5562	80001854	04eb9063	bne	x23,x14,80001894	 x23:0x00000001 x14:0x00000000
       55645000	      5563	00000000	00000013	addi	x0,x0,0	  x0:0x00000000
       55655000	      5564	80001890	00000013	addi	x0,x0,0	  x0:0x00000000
       55665000	      5565	80001894	4094dd13	srai	x26,x9,0x9	  x9:0x00000000 x26=0x00000000
       55675000	      5566	80001898	0144de63	bge	x9,x20,800018b4	  x9:0x00000000 x20:0x00000000
       55685000	      5567	00000000	00000013	addi	x0,x0,0	  x0:0x00000000
       55695000	      5568	800018b0	00000013	addi	x0,x0,0	  x0:0x00000000
       55705000	      5569	800018b4	6fbbbe93	sltiu	x29,x23,1787	 x23:0x00000001 x29=0x00000001
       55715000	      5570	800018b8	001820b3	slt	x1,x16,x1	 x16:0x00000000  x1:0xb5b51000  x1=0x00000000
       55725000	      5571	800018bc	003da4b3	slt	x9,x27,x3	 x27:0xffffc000  x3:0x00008000  x9=0x00000001
       55735000	      5572	800018c0	01d4f2b3	and	x5,x9,x29	  x9:0x00000001 x29:0x00000001  x5=0x00000001
       55745000	      5573	800018c4	417c5db3	sra	x27,x24,x23	 x24:0x00000040 x23:0x00000001 x27=0x00000020
       55755000	      5574	800018c8	afd90493	addi	x9,x18,-1283	 x18:0x00000000  x9=0xfffffafd
       55765000	      5575	800018cc	2a1fa013	slti	x0,x31,673	 x31:0x00000204
       55775000	      5576	800018d0	41dd8233	sub	x4,x27,x29	 x27:0x00000020 x29:0x00000001  x4=0x0000001f
       55785000	      5577	800018d4	01f85863	bge	x16,x31,800018e4	 x16:0x00000000 x31:0x00000204
       55795000	      5578	800018d8	783f0813	addi	x16,x30,1923	 x30:0x00000204 x16=0x00000987
       55805000	      5579	800018dc	01d5ceb3	xor	x29,x11,x29	 x11:0x34e62dc0 x29:0x00000001 x29=0x34e62dc1
       55815000	      5580	800018e0	40818733	sub	x14,x3,x8	  x3:0x00008000  x8:0xdeb04000 x14=0x21504000
       55825000	      5581	800018e4	03876693	ori	x13,x14,56	 x14:0x21504000 x13=0x21504038
       55835000	      5582	800018e8	00000013	addi	x0,x0,0	  x0:0x00000000
       55845000	      5583	800018ec	010259b3	srl	x19,x4,x16	  x4:0x0000001f x16:0x00000987 x19=0x00000000
       55855000	      5584	800018f0	01e24833	xor	x16,x4,x30	  x4:0x0000001f x30:0x00000204 x16=0x0000021b
       55865000	      5585	800018f4	000e0663	beq	x28,x0,80001900	 x28:0x00023fe0  x0:0x00000000
       55875000	      5586	800018f8	b1437493	andi	x9,x6,-1260	  x6:0x9af1427e  x9=0x9af14214
       55885000	      5587	800018fc	009cf433	and	x8,x25,x9	 x25:0x80009edc  x9:0x9af14214  x8=0x80000214
       55895000	      5588	80001900	00681093	slli	x1,x16,0x6	 x16:0x0000021b  x1=0x000086c0
       55905000	      5589	80001904	00463733	sltu	x14,x12,x4	 x12:0xfffffad6  x4:0x0000001f x14=0x00000000
       55915000	      5590	80001908	01f8e433	or	x8,x17,x31	 x17:0x00023fe0 x31:0x00000204  x8=0x00023fe4
       55925000	      5591	8000190c	01440c33	add	x24,x8,x20	  x8:0x00023fe4 x20:0x00000000 x24=0x00023fe4
       55935000	      5592	80001910	05c17463	bgeu	x2,x28,80001958	  x2:0xaa8dd69f x28:0x00023fe0
       55945000	      5593	00000000	00000013	addi	x0,x0,0	  x0:0x00000000
       55955000	      5594	80001954	00000013	addi	x0,x0,0	  x0:0x00000000
       55965000	      5595	80001958	4e922d13	slti	x26,x4,1257	  x4:0x0000001f x26=0x00000001
       55975000	      5596	8000195c	4116dab3	sra	x21,x13,x17	 x13:0x21504038 x17:0x00023fe0 x21=0x21504038
       55985000	      5597	80001960	29ddf913	andi	x18,x27,669	 x27:0x00000020 x18=0x00000000
       55995000	      5598	80001964	0040de63	bge	x1,x4,80001980	  x1:0x000086c0  x4:0x0000001f
       56005000	      5599	00000000	00000013	addi	x0,x0,0	  x0:0x00000000
       56015000	      5600	8000197c	00000013	addi	x0,x0,0	  x0:0x00000000
       56025000	      5601	80001980	1418e693	ori	x13,x17,321	 x17:0x00023fe0 x13=0x00023fe1
       56035000	      5602	80001984	00000013	addi	x0,x0,0	  x0:0x00000000
       56045000	      5603	80001988	00000013	addi	x0,x0,0	  x0:0x00000000
       56055000	      5604	8000198c	019a76b3	and	x13,x20,x25	 x20:0x00000000 x25:0x80009edc x13=0x00000000
       56065000	      5605	80001990	01369933	sll	x18,x13,x19	 x13:0x00000000 x19:0x00000000 x18=0x00000000
       56075000	      5606	80001994	0232c063	blt	x5,x3,800019b4	  x5:0x00000001  x3:0x00008000
       56085000	      5607	00000000	00000013	addi	x0,x0,0	  x0:0x00000000
       56095000	      5608	800019b0	00000013	addi	x0,x0,0	  x0:0x00000000
       56105000	      5609	800019b4	02d1f063	bgeu	x3,x13,800019d4	  x3:0x00008000 x13:0x00000000
       56115000	      5610	00000000	00000013	addi	x0,x0,0	  x0:0x00000000
       56125000	      5611	800019d0	00000013	addi	x0,x0,0	  x0:0x00000000
       56135000	      5612	800019d4	00fe89b3	add	x19,x29,x15	 x29:0x34e62dc1 x15:0x80009fc4 x19=0xb4e6cd85
       56145000	      5613	800019d8	02cc6863	bltu	x24,x12,80001a08	 x24:0x00023fe4 x12:0xfffffad6
       56155000	      5614	00000000	00000013	addi	x0,x0,0	  x0:0x00000000
       56165000	      5615	80001a04	00000013	addi	x0,x0,0	  x0:0x00000000
       56175000	      5616	80001a08	02f81063	bne	x16,x15,80001a28	 x16:0x0000021b x15:0x80009fc4
       56185000	      5617	00000000	00000013	addi	x0,x0,0	  x0:0x00000000
       56195000	      5618	80001a24	00000013	addi	x0,x0,0	  x0:0x00000000
       56205000	      5619	80001a28	00dbdf33	srl	x30,x23,x13	 x23:0x00000001 x13:0x00000000 x30=0x00000001
       56215000	      5620	80001a2c	00f95233	srl	x4,x18,x15	 x18:0x00000000 x15:0x80009fc4  x4=0x00000000
       56225000	      5621	80001a30	5164a293	slti	x5,x9,1302	  x9:0x9af14214  x5=0x00000001
       56235000	      5622	80001a34	05ec1463	bne	x24,x30,80001a7c	 x24:0x00023fe4 x30:0x00000001
       56245000	      5623	00000000	00000013	addi	x0,x0,0	  x0:0x00000000
       56255000	      5624	80001a78	00000013	addi	x0,x0,0	  x0:0x00000000
       56265000	      5625	80001a7c	01561db3	sll	x27,x12,x21	 x12:0xfffffad6 x21:0x21504038 x27=0xd6000000
       56275000	      5626	80001a80	00000013	addi	x0,x0,0	  x0:0x00000000
       56285000	      5627	80001a84	011789b3	add	x19,x15,x17	 x15:0x80009fc4 x17:0x00023fe0 x19=0x8002dfa4
       56295000	      5628	80001a88	012a45b3	xor	x11,x20,x18	 x20:0x00000000 x18:0x00000000 x11=0x00000000
       56305000	      5629	80001a8c	00007517	auipc	x10,0x7	 x10=0x80008a88
       56315000	      5630	80001a90	b6d50513	addi	x10,x10,-1171	 x10:0x80008a88 x10=0x800085f5
       56325000	      5631	80001a94	03f50b23	sb	x31,54(x10)	 x10:0x800085f5 x31:0x00000204 PA:0x8000862b
       56335000	      5632	80001a98	014bb8b3	sltu	x17,x23,x20	 x23:0x00000001 x20:0x00000000 x17=0x00000000
       56345000	      5633	80001a9c	41225213	srai	x4,x4,0x12	  x4:0x00000000  x4=0x00000000
       56355000	      5634	80001aa0	00b55683	lhu	x13,11(x10)	 x10:0x800085f5 x13=0x000044b2 PA:0x80008600
       56365000	      5635	80001aa4	ff8d4193	xori	x3,x26,-8	 x26:0x00000001  x3=0xfffffff9
       56375000	      5636	80001aa8	01de0c33	add	x24,x28,x29	 x28:0x00023fe0 x29:0x34e62dc1 x24=0x34e86da1
       56385000	      5637	80001aac	40e45493	srai	x9,x8,0xe	  x8:0x00023fe4  x9=0x00000008
       56395000	      5638	80001ab0	4ce4ab93	slti	x23,x9,1230	  x9:0x00000008 x23=0x00000001
       56405000	      5639	80001ab4	01510b33	add	x22,x2,x21	  x2:0xaa8dd69f x21:0x21504038 x22=0xcbde16d7
       56415000	      5640	80001ab8	03551383	lh	x7,53(x10)	 x10:0x800085f5  x7=0x00000443 PA:0x8000862a
       56425000	      5641	80001abc	400f5333	sra	x6,x30,x0	 x30:0x00000001  x0:0x00000000  x6=0x00000001
       56435000	      5642	80001ac0	e0e06493	ori	x9,x0,-498	  x0:0x00000000  x9=0xfffffe0e
       56445000	      5643	80001ac4	02c54683	lbu	x13,44(x10)	 x10:0x800085f5 x13=0x00000055 PA:0x80008621
       56455000	      5644	80001ac8	02f50d23	sb	x15,58(x10)	 x10:0x800085f5 x15:0x80009fc4 PA:0x8000862f
       56465000	      5645	80001acc	00950283	lb	x5,9(x10)	 x10:0x800085f5  x5=0xffffffff PA:0x800085fe
       56475000	      5646	80001ad0	02854c03	lbu	x24,40(x10)	 x10:0x800085f5 x24=0x00000046 PA:0x8000861d
       56485000	      5647	80001ad4	01c54d03	lbu	x26,28(x10)	 x10:0x800085f5 x26=0x0000009b PA:0x80008611
       56495000	      5648	80001ad8	5827ea93	ori	x21,x15,1410	 x15:0x80009fc4 x21=0x80009fc6
       56505000	      5649	80001adc	04054b83	lbu	x23,64(x10)	 x10:0x800085f5 x23=0x000000d9 PA:0x80008635
       56515000	      5650	80001ae0	0117a2b3	slt	x5,x15,x17	 x15:0x80009fc4 x17:0x00000000  x5=0x00000001
       56525000	      5651	80001ae4	ff151983	lh	x19,-15(x10)	 x10:0x800085f5 x19=0x00000d06 PA:0x800085e6
       56535000	      5652	80001ae8	03554003	lbu	x0,53(x10)	 x10:0x800085f5 PA:0x8000862a
       56545000	      5653	80001aec	00b52403	lw	x8,11(x10)	 x10:0x800085f5  x8=0x126844b2 PA:0x80008600
       56555000	      5654	80001af0	01250e03	lb	x28,18(x10)	 x10:0x800085f5 x28=0x00000073 PA:0x80008607
       56565000	      5655	80001af4	410c0e33	sub	x28,x24,x16	 x24:0x00000046 x16:0x0000021b x28=0xfffffe2b
       56575000	      5656	80001af8	01dc1933	sll	x18,x24,x29	 x24:0x00000046 x29:0x34e62dc1 x18=0x0000008c
       56585000	      5657	80001afc	01e54e03	lbu	x28,30(x10)	 x10:0x800085f5 x28=0x0000007e PA:0x80008613
       56595000	      5658	80001b00	03550f83	lb	x31,53(x10)	 x10:0x800085f5 x31=0x00000043 PA:0x8000862a
       56605000	      5659	80001b04	01250123	sb	x18,2(x10)	 x10:0x800085f5 x18:0x0000008c PA:0x800085f7
       56615000	      5660	80001b08	007f5233	srl	x4,x30,x7	 x30:0x00000001  x7:0x00000443  x4=0x00000000
       56625000	      5661	80001b0c	fe752e03	lw	x28,-25(x10)	 x10:0x800085f5 x28=0x46b05d67 PA:0x800085dc
       56635000	      5662	80001b10	018326b3	slt	x13,x6,x24	  x6:0x00000001 x24:0x00000046 x13=0x00000001
       56645000	      5663	80001b14	ffc54583	lbu	x11,-4(x10)	 x10:0x800085f5 x11=0x00000027 PA:0x800085f1
       56655000	      5664	80001b18	fda54883	lbu	x17,-38(x10)	 x10:0x800085f5 x17=0x00000097 PA:0x800085cf
       56665000	      5665	80001b1c	fe450f23	sb	x4,-2(x10)	 x10:0x800085f5  x4:0x00000000 PA:0x800085f3
       56675000	      5666	80001b20	70a33017	auipc	x0,0x70a33	
       56685000	      5667	80001b24	018eee33	or	x28,x29,x24	 x29:0x34e62dc1 x24:0x00000046 x28=0x34e62dc7
       56695000	      5668	80001b28	00000013	addi	x0,x0,0	  x0:0x00000000
       56705000	      5669	80001b2c	03755a03	lhu	x20,55(x10)	 x10:0x800085f5 x20=0x0000b69c PA:0x8000862c
       56715000	      5670	00000000	00000013	addi	x0,x0,0	  x0:0x00000000
       56725000	      5671	80001b30	83ca2b37	lui	x22,0x83ca2	 x22=0x83ca2000
       56735000	      5672	80001b34	41e5d693	srai	x13,x11,0x1e	 x11:0x00000027 x13=0x00000000
       56745000	      5673	80001b38	00889333	sll	x6,x17,x8	 x17:0x00000097  x8:0x126844b2  x6=0x025c0000
       56755000	      5674	80001b3c	ffd51aa3	sh	x29,-11(x10)	 x10:0x800085f5 x29:0x34e62dc1 PA:0x800085ea
       56765000	      5675	80001b40	269e3317	auipc	x6,0x269e3	  x6=0xa69e4b3c
       56775000	      5676	80001b44	40e8d1b3	sra	x3,x17,x14	 x17:0x00000097 x14:0x00000000  x3=0x00000097
       56785000	      5677	80001b48	d070a293	slti	x5,x1,-761	  x1:0x000086c0  x5=0x00000000
       56795000	      5678	80001b4c	01e590b3	sll	x1,x11,x30	 x11:0x00000027 x30:0x00000001  x1=0x0000004e
       56805000	      5679	80001b50	14390193	addi	x3,x18,323	 x18:0x0000008c  x3=0x000001cf
       56815000	      5680	80001b54	0bef6eb7	lui	x29,0xbef6	 x29=0x0bef6000
       56825000	      5681	80001b58	02d54f83	lbu	x31,45(x10)	 x10:0x800085f5 x31=0x00000068 PA:0x80008622
       56835000	      5682	80001b5c	03c54583	lbu	x11,60(x10)	 x10:0x800085f5 x11=0x000000c4 PA:0x80008631
       56845000	      5683	80001b60	02950183	lb	x3,41(x10)	 x10:0x800085f5  x3=0x00000072 PA:0x8000861e
       56855000	      5684	80001b64	00405eb3	srl	x29,x0,x4	  x0:0x00000000  x4:0x00000000 x29=0x00000000
       56865000	      5685	80001b68	03d18263	beq	x3,x29,80001b8c	  x3:0x00000072 x29:0x00000000
       56875000	      5686	80001b6c	00a6cf33	xor	x30,x13,x10	 x13:0x00000000 x10:0x800085f5 x30=0x800085f5
       56885000	      5687	80001b70	7fefb513	sltiu	x10,x31,2046	 x31:0x00000068 x10=0x00000001
       56895000	      5688	80001b74	010b96b3	sll	x13,x23,x16	 x23:0x000000d9 x16:0x0000021b x13=0xc8000000
       56905000	      5689	80001b78	f19b0a93	addi	x21,x22,-231	 x22:0x83ca2000 x21=0x83ca1f19
       56915000	      5690	80001b7c	47977993	andi	x19,x14,1145	 x14:0x00000000 x19=0x00000000
       56925000	      5691	80001b80	015d65b3	or	x11,x26,x21	 x26:0x0000009b x21:0x83ca1f19 x11=0x83ca1f9b
       56935000	      5692	80001b84	00bcdf33	srl	x30,x25,x11	 x25:0x80009edc x11:0x83ca1f9b x30=0x00000010
       56945000	      5693	80001b88	481ce213	ori	x4,x25,1153	 x25:0x80009edc  x4=0x80009edd
       56955000	      5694	80001b8c	99b4e993	ori	x19,x9,-1637	  x9:0xfffffe0e x19=0xffffff9f
       56965000	      5695	80001b90	410e8533	sub	x10,x29,x16	 x29:0x00000000 x16:0x0000021b x10=0xfffffde5
       56975000	      5696	80001b94	030f9263	bne	x31,x16,80001bb8	 x31:0x00000068 x16:0x0000021b
       56985000	      5697	00000000	00000013	addi	x0,x0,0	  x0:0x00000000
       56995000	      5698	80001bb4	00000013	addi	x0,x0,0	  x0:0x00000000
       57005000	      5699	80001bb8	40ce5db3	sra	x27,x28,x12	 x28:0x34e62dc7 x12:0xfffffad6 x27=0x000000d3
       57015000	      5700	80001bbc	00ebd693	srli	x13,x23,0xe	 x23:0x000000d9 x13=0x00000000
       57025000	      5701	80001bc0	0041de63	bge	x3,x4,80001bdc	  x3:0x00000072  x4:0x80009edd
       57035000	      5702	00000000	00000013	addi	x0,x0,0	  x0:0x00000000
       57045000	      5703	80001bd8	00000013	addi	x0,x0,0	  x0:0x00000000
       57055000	      5704	80001bdc	076bb693	sltiu	x13,x23,118	 x23:0x000000d9 x13=0x00000000
       57065000	      5705	80001be0	01179413	slli	x8,x15,0x11	 x15:0x80009fc4  x8=0x3f880000
       57075000	      5706	80001be4	3447bc13	sltiu	x24,x15,836	 x15:0x80009fc4 x24=0x00000000
       57085000	      5707	80001be8	00614c63	blt	x2,x6,80001c00	  x2:0xaa8dd69f  x6:0xa69e4b3c
       57095000	      5708	80001bec	02177063	bgeu	x14,x1,80001c0c	 x14:0x00000000  x1:0x0000004e
       57105000	      5709	80001bf0	011db5b3	sltu	x11,x27,x17	 x27:0x000000d3 x17:0x00000097 x11=0x00000000
       57115000	      5710	80001bf4	01b5d413	srli	x8,x11,0x1b	 x11:0x00000000  x8=0x00000000
       57125000	      5711	80001bf8	40768733	sub	x14,x13,x7	 x13:0x00000000  x7:0x00000443 x14=0xfffffbbd
       57135000	      5712	80001bfc	05534863	blt	x6,x21,80001c4c	  x6:0xa69e4b3c x21:0x83ca1f19
       57145000	      5713	80001c00	0137e6b3	or	x13,x15,x19	 x15:0x80009fc4 x19:0xffffff9f x13=0xffffffdf
       57155000	      5714	80001c04	01fd6663	bltu	x26,x31,80001c10	 x26:0x0000009b x31:0x00000068
       57165000	      5715	80001c08	5e052913	slti	x18,x10,1504	 x10:0xfffffde5 x18=0x00000001
       57175000	      5716	80001c0c	00936463	bltu	x6,x9,80001c14	  x6:0xa69e4b3c  x9:0xfffffe0e
       57185000	      5717	00000000	00000013	addi	x0,x0,0	  x0:0x00000000
       57195000	      5718	80001c10	00000013	addi	x0,x0,0	  x0:0x00000000
       57205000	      5719	80001c14	40d6da33	sra	x20,x13,x13	 x13:0xffffffdf x13:0xffffffdf x20=0xffffffff
       57215000	      5720	80001c18	00a69633	sll	x12,x13,x10	 x13:0xffffffdf x10:0xfffffde5 x12=0xfffffbe0
       57225000	      5721	80001c1c	01f95c33	srl	x24,x18,x31	 x18:0x00000001 x31:0x00000068 x24=0x00000000
       57235000	      5722	80001c20	40d8db33	sra	x22,x17,x13	 x17:0x00000097 x13:0xffffffdf x22=0x00000000
       57245000	      5723	80001c24	96f2ba13	sltiu	x20,x5,-1681	  x5:0x00000000 x20=0x00000001
       57255000	      5724	80001c28	00000013	addi	x0,x0,0	  x0:0x00000000
       57265000	      5725	80001c2c	1b0de513	ori	x10,x27,432	 x27:0x000000d3 x10=0x000001f3
       57275000	      5726	80001c30	01936e63	bltu	x6,x25,80001c4c	  x6:0xa69e4b3c x25:0x80009edc
       57285000	      5727	80001c34	c899ab93	slti	x23,x19,-887	 x19:0xffffff9f x23=0x00000000
       57295000	      5728	80001c38	1bb62597	auipc	x11,0x1bb62	 x11=0x9bb63c34
       57305000	      5729	80001c3c	ff2e7013	andi	x0,x28,-14	 x28:0x34e62dc7
       57315000	      5730	80001c40	01733f33	sltu	x30,x6,x23	  x6:0xa69e4b3c x23:0x00000000 x30=0x00000000
       57325000	      5731	80001c44	0048d5b3	srl	x11,x17,x4	 x17:0x00000097  x4:0x80009edd x11=0x00000000
       57335000	      5732	80001c48	044b6063	bltu	x22,x4,80001c88	 x22:0x00000000  x4:0x80009edd
       57345000	      5733	00000000	00000013	addi	x0,x0,0	  x0:0x00000000
       57355000	      5734	80001c84	00000013	addi	x0,x0,0	  x0:0x00000000
       57365000	      5735	80001c88	643bca93	xori	x21,x23,1603	 x23:0x00000000 x21=0x00000643
       57375000	      5736	80001c8c	c5941f97	auipc	x31,0xc5941	 x31=0x45942c88
       57385000	      5737	80001c90	00e9f933	and	x18,x19,x14	 x19:0xffffff9f x14:0xfffffbbd x18=0xfffffb9d
       57395000	      5738	80001c94	414152b3	sra	x5,x2,x20	  x2:0xaa8dd69f x20:0x00000001  x5=0xd546eb4f
       57405000	      5739	80001c98	a6ee2693	slti	x13,x28,-1426	 x28:0x34e62dc7 x13=0x00000000
       57415000	      5740	80001c9c	01d24f33	xor	x30,x4,x29	  x4:0x80009edd x29:0x00000000 x30=0x80009edd
       57425000	      5741	80001ca0	0017cbb3	xor	x23,x15,x1	 x15:0x80009fc4  x1:0x0000004e x23=0x80009f8a
       57435000	      5742	80001ca4	40015e33	sra	x28,x2,x0	  x2:0xaa8dd69f  x0:0x00000000 x28=0xaa8dd69f
       57445000	      5743	80001ca8	40670733	sub	x14,x14,x6	 x14:0xfffffbbd  x6:0xa69e4b3c x14=0x5961b081
       57455000	      5744	80001cac	01311c13	slli	x24,x2,0x13	  x2:0xaa8dd69f x24=0xb4f80000
       57465000	      5745	80001cb0	0190c0b3	xor	x1,x1,x25	  x1:0x0000004e x25:0x80009edc  x1=0x80009e92
       57475000	      5746	80001cb4	00001d97	auipc	x27,0x1	 x27=0x80002cb0
       57485000	      5747	80001cb8	a84d8d93	addi	x27,x27,-1404	 x27:0x80002cb0 x27=0x80002734
       57495000	      5748	80001cbc	25496593	ori	x11,x18,596	 x18:0xfffffb9d x11=0xfffffbdd
       57505000	      5749	80001cc0	006e74b3	and	x9,x28,x6	 x28:0xaa8dd69f  x6:0xa69e4b3c  x9=0xa28c421c
       57515000	      5750	80001cc4	005b42b3	xor	x5,x22,x5	 x22:0x00000000  x5:0xd546eb4f  x5=0xd546eb4f
       57525000	      5751	80001cc8	00321733	sll	x14,x4,x3	  x4:0x80009edd  x3:0x00000072 x14=0x7b740000
       57535000	      5752	80001ccc	decd8d93	addi	x27,x27,-532	 x27:0x80002734 x27=0x80002520
       57545000	      5753	80001cd0	01515663	bge	x2,x21,80001cdc	  x2:0xaa8dd69f x21:0x00000643
       57555000	      5754	80001cd4	01bcda13	srli	x20,x25,0x1b	 x25:0x80009edc x20=0x00000010
       57565000	      5755	80001cd8	40ac8eb3	sub	x29,x25,x10	 x25:0x80009edc x10:0x000001f3 x29=0x80009ce9
       57575000	      5756	80001cdc	214d8fe7	jalr	x31,x27,532	 x27:0x80002520 x31=0x80001cdc
       57585000	      5757	00000000	00000013	addi	x0,x0,0	  x0:0x00000000
       57595000	      5758	80002734	00000013	addi	x0,x0,0	  x0:0x00000000
       57605000	      5759	80002738	01a99863	bne	x19,x26,80002748	 x19:0xffffff9f x26:0x0000009b
       57615000	      5760	00000000	00000013	addi	x0,x0,0	  x0:0x00000000
       57625000	      5761	80002744	00000013	addi	x0,x0,0	  x0:0x00000000
       57635000	      5762	80002748	fe0c8c93	addi	x25,x25,-32	 x25:0x80009edc x25=0x80009ebc
       57645000	      5763	8000274c	01fca223	sw	x31,4(x25)	 x25:0x80009ebc x31:0x80001cdc PA:0x80009ec0
       57655000	      5764	80002750	01904733	xor	x14,x0,x25	  x0:0x00000000 x25:0x80009ebc x14=0x80009ebc
       57665000	      5765	80002754	00004717	auipc	x14,0x4	 x14=0x80006750
       57675000	      5766	80002758	e3470713	addi	x14,x14,-460	 x14:0x80006750 x14=0x80006584
       57685000	      5767	8000275c	1e3f8993	addi	x19,x31,483	 x31:0x80001cdc x19=0x80001ebf
       57695000	      5768	80002760	d1d70713	addi	x14,x14,-739	 x14:0x80006584 x14=0x800062a1
       57705000	      5769	80002764	1655fe17	auipc	x28,0x1655f	 x28=0x96561760
       57715000	      5770	80002768	00e44f33	xor	x30,x8,x14	  x8:0x00000000 x14:0x800062a1 x30=0x800062a1
       57725000	      5771	8000276c	04967393	andi	x7,x12,73	 x12:0xfffffbe0  x7=0x00000040
       57735000	      5772	80002770	4104d2b3	sra	x5,x9,x16	  x9:0xa28c421c x16:0x0000021b  x5=0xfffffff4
       57745000	      5773	80002774	2e470fe7	jalr	x31,x14,740	 x14:0x800062a1 x31=0x80002774
       57755000	      5774	00000000	00000013	addi	x0,x0,0	  x0:0x00000000
       57765000	      5775	80006584	00000013	addi	x0,x0,0	  x0:0x00000000
       57775000	      5776	80006588	fc8c8c93	addi	x25,x25,-56	 x25:0x80009ebc x25=0x80009e84
       57785000	      5777	8000658c	015f28b3	slt	x17,x30,x21	 x30:0x800062a1 x21:0x00000643 x17=0x00000001
       57795000	      5778	80006590	01fca223	sw	x31,4(x25)	 x25:0x80009e84 x31:0x80002774 PA:0x80009e88
       57805000	      5779	80006594	41e6d3b3	sra	x7,x13,x30	 x13:0x00000000 x30:0x800062a1  x7=0x00000000
       57815000	      5780	80006598	01b61513	slli	x10,x12,0x1b	 x12:0xfffffbe0 x10=0x00000000
       57825000	      5781	8000659c	403c8833	sub	x16,x25,x3	 x25:0x80009e84  x3:0x00000072 x16=0x80009e12
       57835000	      5782	800065a0	01efdf33	srl	x30,x31,x30	 x31:0x80002774 x30:0x800062a1 x30=0x400013ba
       57845000	      5783	800065a4	01b94a33	xor	x20,x18,x27	 x18:0xfffffb9d x27:0x80002520 x20=0x7fffdebd
       57855000	      5784	800065a8	dfac8db7	lui	x27,0xdfac8	 x27=0xdfac8000
       57865000	      5785	800065ac	1cfab413	sltiu	x8,x21,463	 x21:0x00000643  x8=0x00000000
       57875000	      5786	800065b0	0a2a1a97	auipc	x21,0xa2a1	 x21=0x8a2a75ac
       57885000	      5787	800065b4	f4b73913	sltiu	x18,x14,-181	 x14:0x800062a1 x18=0x00000001
       57895000	      5788	800065b8	00914993	xori	x19,x2,9	  x2:0xaa8dd69f x19=0xaa8dd696
       57905000	      5789	800065bc	007fb833	sltu	x16,x31,x7	 x31:0x80002774  x7:0x00000000 x16=0x00000000
       57915000	      5790	800065c0	025f4263	blt	x30,x5,800065e4	 x30:0x400013ba  x5:0xfffffff4
       57925000	      5791	800065c4	8401f517	auipc	x10,0x8401f	 x10=0x040255c0
       57935000	      5792	800065c8	0168b833	sltu	x16,x17,x22	 x17:0x00000001 x22:0x00000000 x16=0x00000000
       57945000	      5793	800065cc	017588b3	add	x17,x11,x23	 x11:0xfffffbdd x23:0x80009f8a x17=0x80009b67
       57955000	      5794	800065d0	016dda63	bge	x27,x22,800065e4	 x27:0xdfac8000 x22:0x00000000
       57965000	      5795	800065d4	734bf613	andi	x12,x23,1844	 x23:0x80009f8a x12=0x00000700
       57975000	      5796	800065d8	01667663	bgeu	x12,x22,800065e4	 x12:0x00000700 x22:0x00000000
       57985000	      5797	00000000	00000013	addi	x0,x0,0	  x0:0x00000000
       57995000	      5798	800065e0	00000013	addi	x0,x0,0	  x0:0x00000000
       58005000	      5799	800065e4	00fb23b3	slt	x7,x22,x15	 x22:0x00000000 x15:0x80009fc4  x7=0x00000000
       58015000	      5800	800065e8	004caf83	lw	x31,4(x25)	 x25:0x80009e84 x31=0x80002774 PA:0x80009e88
       58025000	      5801	800065ec	40705d33	sra	x26,x0,x7	  x0:0x00000000  x7:0x00000000 x26=0x00000000
       58035000	      5802	800065f0	038c8c93	addi	x25,x25,56	 x25:0x80009e84 x25=0x80009ebc
       58045000	      5803	800065f4	00582c33	slt	x24,x16,x5	 x16:0x00000000  x5:0xfffffff4 x24=0x00000000
       58055000	      5804	800065f8	00000013	addi	x0,x0,0	  x0:0x00000000
       58065000	      5805	800065fc	002a0033	add	x0,x20,x2	 x20:0x7fffdebd  x2:0xaa8dd69f
       58075000	      5806	80006600	509b2513	slti	x10,x22,1289	 x22:0x00000000 x10=0x00000001
       58085000	      5807	80006604	001f8e93	addi	x29,x31,1	 x31:0x80002774 x29=0x80002775
       58095000	      5808	80006608	000e8ee7	jalr	x29,x29,0	 x29:0x80002775 x29=0x80006608
       58105000	      5809	00000000	00000013	addi	x0,x0,0	  x0:0x00000000
       58115000	      5810	80002774	00000013	addi	x0,x0,0	  x0:0x00000000
       58125000	      5811	80002778	b12f4a93	xori	x21,x30,-1262	 x30:0x400013ba x21=0xbfffe8a8
       58135000	      5812	8000277c	00000013	addi	x0,x0,0	  x0:0x00000000
       58145000	      5813	80002780	01bc5893	srli	x17,x24,0x1b	 x24:0x00000000 x17=0x00000000
       58155000	      5814	80002784	0093ffb3	and	x31,x7,x9	  x7:0x00000000  x9:0xa28c421c x31=0x00000000
       58165000	      5815	80002788	86371317	auipc	x6,0x86371	  x6=0x06373784
       58175000	      5816	8000278c	012391b3	sll	x3,x7,x18	  x7:0x00000000 x18:0x00000001  x3=0x00000000
       58185000	      5817	80002790	c24fefef	jal	x31,80002790	 x31=0x80002790
       58195000	      5818	00000000	00000013	addi	x0,x0,0	  x0:0x00000000
       58205000	      5819	80000bb0	00000013	addi	x0,x0,0	  x0:0x00000000
       58215000	      5820	80000bb4	40f2ddb3	sra	x27,x5,x15	  x5:0xfffffff4 x15:0x80009fc4 x27=0xffffffff
       58225000	      5821	80000bb8	40540d33	sub	x26,x8,x5	  x8:0x00000000  x5:0xfffffff4 x26=0x0000000c
       58235000	      5822	80000bbc	0eb24897	auipc	x17,0xeb24	 x17=0x8eb24bb8
       58245000	      5823	80000bc0	0195d263	bge	x11,x25,80000bc4	 x11:0xfffffbdd x25:0x80009ebc
       58255000	      5824	00000000	00000013	addi	x0,x0,0	  x0:0x00000000
       58265000	      5825	80000bc0	00000013	addi	x0,x0,0	  x0:0x00000000
       58275000	      5826	80000bc4	ff4c8c93	addi	x25,x25,-12	 x25:0x80009ebc x25=0x80009eb0
       58285000	      5827	80000bc8	742c4193	xori	x3,x24,1858	 x24:0x00000000  x3=0x00000742
       58295000	      5828	80000bcc	01fca223	sw	x31,4(x25)	 x25:0x80009eb0 x31:0x80002790 PA:0x80009eb4
       58305000	      5829	80000bd0	1cfc6413	ori	x8,x24,463	 x24:0x00000000  x8=0x000001cf
       58315000	      5830	80000bd4	02def063	bgeu	x29,x13,80000bf4	 x29:0x80006608 x13:0x00000000
       58325000	      5831	00000000	00000013	addi	x0,x0,0	  x0:0x00000000
       58335000	      5832	80000bf0	00000013	addi	x0,x0,0	  x0:0x00000000
       58345000	      5833	80000bf4	0065c1b3	xor	x3,x11,x6	 x11:0xfffffbdd  x6:0x06373784  x3=0xf9c8cc59
       58355000	      5834	80000bf8	65b64413	xori	x8,x12,1627	 x12:0x00000700  x8=0x0000015b
       58365000	      5835	80000bfc	23fdba13	sltiu	x20,x27,575	 x27:0xffffffff x20=0x00000000
       58375000	      5836	80000c00	01c99533	sll	x10,x19,x28	 x19:0xaa8dd696 x28:0x96561760 x10=0xaa8dd696
       58385000	      5837	80000c04	0195db93	srli	x23,x11,0x19	 x11:0xfffffbdd x23=0x0000007f
       58395000	      5838	80000c08	05593a13	sltiu	x20,x18,85	 x18:0x00000001 x20=0x00000001
       58405000	      5839	80000c0c	4eb8cf97	auipc	x31,0x4eb8c	 x31=0xceb8cc08
       58415000	      5840	80000c10	00f5dd13	srli	x26,x11,0xf	 x11:0xfffffbdd x26=0x0001ffff
       58425000	      5841	80000c14	f20ebb13	sltiu	x22,x29,-224	 x29:0x80006608 x22=0x00000001
       58435000	      5842	80000c18	01ccc4b3	xor	x9,x25,x28	 x25:0x80009eb0 x28:0x96561760  x9=0x165689d0
       58445000	      5843	80000c1c	00000013	addi	x0,x0,0	  x0:0x00000000
       58455000	      5844	80000c20	0155d433	srl	x8,x11,x21	 x11:0xfffffbdd x21:0xbfffe8a8  x8=0x00fffffb
       58465000	      5845	80000c24	5a9d8d13	addi	x26,x27,1449	 x27:0xffffffff x26=0x000005a8
       58475000	      5846	80000c28	004caf83	lw	x31,4(x25)	 x25:0x80009eb0 x31=0x80002790 PA:0x80009eb4
       58485000	      5847	80000c2c	bf524993	xori	x19,x4,-1035	  x4:0x80009edd x19=0x7fff6528
       58495000	      5848	80000c30	eb213293	sltiu	x5,x2,-334	  x2:0xaa8dd69f  x5=0x00000001
       58505000	      5849	80000c34	002474b3	and	x9,x8,x2	  x8:0x00fffffb  x2:0xaa8dd69f  x9=0x008dd69b
       58515000	      5850	80000c38	00cc8c93	addi	x25,x25,12	 x25:0x80009eb0 x25=0x80009ebc
       58525000	      5851	80000c3c	e95cce13	xori	x28,x25,-363	 x25:0x80009ebc x28=0x7fff6029
       58535000	      5852	80000c40	cb5fb013	sltiu	x0,x31,-843	 x31:0x80002790
       58545000	      5853	80000c44	000f8493	addi	x9,x31,0	 x31:0x80002790  x9=0x80002790
       58555000	      5854	80000c48	000484e7	jalr	x9,x9,0	  x9:0x80002790  x9=0x80000c48
       58565000	      5855	00000000	00000013	addi	x0,x0,0	  x0:0x00000000
       58575000	      5856	80002790	00000013	addi	x0,x0,0	  x0:0x00000000
       58585000	      5857	80002794	8f852f93	slti	x31,x10,-1800	 x10:0xaa8dd696 x31=0x00000001
       58595000	      5858	80002798	00ca6733	or	x14,x20,x12	 x20:0x00000001 x12:0x00000700 x14=0x00000701
       58605000	      5859	8000279c	0190be33	sltu	x28,x1,x25	  x1:0x80009e92 x25:0x80009ebc x28=0x00000001
       58615000	      5860	800027a0	01105fb3	srl	x31,x0,x17	  x0:0x00000000 x17:0x8eb24bb8 x31=0x00000000
       58625000	      5861	800027a4	012aca63	blt	x21,x18,800027b8	 x21:0xbfffe8a8 x18:0x00000001
       58635000	      5862	00000000	00000013	addi	x0,x0,0	  x0:0x00000000
       58645000	      5863	800027b4	00000013	addi	x0,x0,0	  x0:0x00000000
       58655000	      5864	800027b8	bfcfefef	jal	x31,800027b8	 x31=0x800027b8
       58665000	      5865	00000000	00000013	addi	x0,x0,0	  x0:0x00000000
       58675000	      5866	80000bb0	00000013	addi	x0,x0,0	  x0:0x00000000
       58685000	      5867	80000bb4	40f2ddb3	sra	x27,x5,x15	  x5:0x00000001 x15:0x80009fc4 x27=0x00000000
       58695000	      5868	80000bb8	40540d33	sub	x26,x8,x5	  x8:0x00fffffb  x5:0x00000001 x26=0x00fffffa
       58705000	      5869	80000bbc	0eb24897	auipc	x17,0xeb24	 x17=0x8eb24bb8
       58715000	      5870	80000bc0	0195d263	bge	x11,x25,80000bc4	 x11:0xfffffbdd x25:0x80009ebc
       58725000	      5871	00000000	00000013	addi	x0,x0,0	  x0:0x00000000
       58735000	      5872	80000bc0	00000013	addi	x0,x0,0	  x0:0x00000000
       58745000	      5873	80000bc4	ff4c8c93	addi	x25,x25,-12	 x25:0x80009ebc x25=0x80009eb0
       58755000	      5874	80000bc8	742c4193	xori	x3,x24,1858	 x24:0x00000000  x3=0x00000742
       58765000	      5875	80000bcc	01fca223	sw	x31,4(x25)	 x25:0x80009eb0 x31:0x800027b8 PA:0x80009eb4
       58775000	      5876	80000bd0	1cfc6413	ori	x8,x24,463	 x24:0x00000000  x8=0x000001cf
       58785000	      5877	80000bd4	02def063	bgeu	x29,x13,80000bf4	 x29:0x80006608 x13:0x00000000
       58795000	      5878	00000000	00000013	addi	x0,x0,0	  x0:0x00000000
       58805000	      5879	80000bf0	00000013	addi	x0,x0,0	  x0:0x00000000
       58815000	      5880	80000bf4	0065c1b3	xor	x3,x11,x6	 x11:0xfffffbdd  x6:0x06373784  x3=0xf9c8cc59
       58825000	      5881	80000bf8	65b64413	xori	x8,x12,1627	 x12:0x00000700  x8=0x0000015b
       58835000	      5882	80000bfc	23fdba13	sltiu	x20,x27,575	 x27:0x00000000 x20=0x00000001
       58845000	      5883	80000c00	01c99533	sll	x10,x19,x28	 x19:0x7fff6528 x28:0x00000001 x10=0xfffeca50
       58855000	      5884	80000c04	0195db93	srli	x23,x11,0x19	 x11:0xfffffbdd x23=0x0000007f
       58865000	      5885	80000c08	05593a13	sltiu	x20,x18,85	 x18:0x00000001 x20=0x00000001
       58875000	      5886	80000c0c	4eb8cf97	auipc	x31,0x4eb8c	 x31=0xceb8cc08
       58885000	      5887	80000c10	00f5dd13	srli	x26,x11,0xf	 x11:0xfffffbdd x26=0x0001ffff
       58895000	      5888	80000c14	f20ebb13	sltiu	x22,x29,-224	 x29:0x80006608 x22=0x00000001
       58905000	      5889	80000c18	01ccc4b3	xor	x9,x25,x28	 x25:0x80009eb0 x28:0x00000001  x9=0x80009eb1
       58915000	      5890	80000c1c	00000013	addi	x0,x0,0	  x0:0x00000000
       58925000	      5891	80000c20	0155d433	srl	x8,x11,x21	 x11:0xfffffbdd x21:0xbfffe8a8  x8=0x00fffffb
       58935000	      5892	80000c24	5a9d8d13	addi	x26,x27,1449	 x27:0x00000000 x26=0x000005a9
       58945000	      5893	80000c28	004caf83	lw	x31,4(x25)	 x25:0x80009eb0 x31=0x800027b8 PA:0x80009eb4
       58955000	      5894	80000c2c	bf524993	xori	x19,x4,-1035	  x4:0x80009edd x19=0x7fff6528
       58965000	      5895	80000c30	eb213293	sltiu	x5,x2,-334	  x2:0xaa8dd69f  x5=0x00000001
       58975000	      5896	80000c34	002474b3	and	x9,x8,x2	  x8:0x00fffffb  x2:0xaa8dd69f  x9=0x008dd69b
       58985000	      5897	80000c38	00cc8c93	addi	x25,x25,12	 x25:0x80009eb0 x25=0x80009ebc
       58995000	      5898	80000c3c	e95cce13	xori	x28,x25,-363	 x25:0x80009ebc x28=0x7fff6029
       59005000	      5899	80000c40	cb5fb013	sltiu	x0,x31,-843	 x31:0x800027b8
       59015000	      5900	80000c44	000f8493	addi	x9,x31,0	 x31:0x800027b8  x9=0x800027b8
       59025000	      5901	80000c48	000484e7	jalr	x9,x9,0	  x9:0x800027b8  x9=0x80000c48
       59035000	      5902	00000000	00000013	addi	x0,x0,0	  x0:0x00000000
       59045000	      5903	800027b8	00000013	addi	x0,x0,0	  x0:0x00000000
       59055000	      5904	800027bc	32b34a93	xori	x21,x6,811	  x6:0x06373784 x21=0x063734af
       59065000	      5905	800027c0	01afe033	or	x0,x31,x26	 x31:0x800027b8 x26:0x000005a9
       59075000	      5906	800027c4	b6756993	ori	x19,x10,-1177	 x10:0xfffeca50 x19=0xfffffb77
       59085000	      5907	800027c8	0332f463	bgeu	x5,x19,800027f0	  x5:0x00000001 x19:0xfffffb77
       59095000	      5908	800027cc	00d48a33	add	x20,x9,x13	  x9:0x80000c48 x13:0x00000000 x20=0x80000c48
       59105000	      5909	800027d0	013523b3	slt	x7,x10,x19	 x10:0xfffeca50 x19:0xfffffb77  x7=0x00000001
       59115000	      5910	800027d4	00b408b3	add	x17,x8,x11	  x8:0x00fffffb x11:0xfffffbdd x17=0x00fffbd8
       59125000	      5911	800027d8	0c6a3d93	sltiu	x27,x20,198	 x20:0x80000c48 x27=0x00000000
       59135000	      5912	800027dc	a4f8b413	sltiu	x8,x17,-1457	 x17:0x00fffbd8  x8=0x00000001
       59145000	      5913	800027e0	037f7a63	bgeu	x30,x23,80002814	 x30:0x400013ba x23:0x0000007f
       59155000	      5914	00000000	00000013	addi	x0,x0,0	  x0:0x00000000
       59165000	      5915	80002810	00000013	addi	x0,x0,0	  x0:0x00000000
       59175000	      5916	80002814	01649c33	sll	x24,x9,x22	  x9:0x80000c48 x22:0x00000001 x24=0x00001890
       59185000	      5917	80002818	41dcd193	srai	x3,x25,0x1d	 x25:0x80009ebc  x3=0xfffffffc
       59195000	      5918	8000281c	42356893	ori	x17,x10,1059	 x10:0xfffeca50 x17=0xfffece73
       59205000	      5919	80002820	0f74e6b7	lui	x13,0xf74e	 x13=0x0f74e000
       59215000	      5920	80002824	00c833b3	sltu	x7,x16,x12	 x16:0x00000000 x12:0x00000700  x7=0x00000001
       59225000	      5921	80002828	14320813	addi	x16,x4,323	  x4:0x80009edd x16=0x8000a020
       59235000	      5922	8000282c	00497f33	and	x30,x18,x4	 x18:0x00000001  x4:0x80009edd x30=0x00000001
       59245000	      5923	80002830	01da1213	slli	x4,x20,0x1d	 x20:0x80000c48  x4=0x00000000
       59255000	      5924	80002834	3674e193	ori	x3,x9,871	  x9:0x80000c48  x3=0x80000f6f
       59265000	      5925	80002838	01f3ec63	bltu	x7,x31,80002850	  x7:0x00000001 x31:0x800027b8
       59275000	      5926	00000000	00000013	addi	x0,x0,0	  x0:0x00000000
       59285000	      5927	8000284c	00000013	addi	x0,x0,0	  x0:0x00000000
       59295000	      5928	80002850	00a541b3	xor	x3,x10,x10	 x10:0xfffeca50 x10:0xfffeca50  x3=0x00000000
       59305000	      5929	80002854	00dc9493	slli	x9,x25,0xd	 x25:0x80009ebc  x9=0x13d78000
       59315000	      5930	80002858	a91b2213	slti	x4,x22,-1391	 x22:0x00000001  x4=0x00000000
       59325000	      5931	8000285c	01fe8db3	add	x27,x29,x31	 x29:0x80006608 x31:0x800027b8 x27=0x00008dc0
       59335000	      5932	80002860	afb77693	andi	x13,x14,-1285	 x14:0x00000701 x13=0x00000201
       59345000	      5933	80002864	004caf83	lw	x31,4(x25)	 x25:0x80009ebc x31=0x80001cdc PA:0x80009ec0
       59355000	      5934	80002868	01cdd313	srli	x6,x27,0x1c	 x27:0x00008dc0  x6=0x00000000
       59365000	      5935	8000286c	020c8c93	addi	x25,x25,32	 x25:0x80009ebc x25=0x80009edc
       59375000	      5936	80002870	0687bf13	sltiu	x30,x15,104	 x15:0x80009fc4 x30=0x00000000
       59385000	      5937	80002874	001f8b93	addi	x23,x31,1	 x31:0x80001cdc x23=0x80001cdd
       59395000	      5938	80002878	000b8be7	jalr	x23,x23,0	 x23:0x80001cdd x23=0x80002878
       59405000	      5939	00000000	00000013	addi	x0,x0,0	  x0:0x00000000
       59415000	      5940	80001cdc	00000013	addi	x0,x0,0	  x0:0x00000000
       59425000	      5941	80001ce0	01b5a233	slt	x4,x11,x27	 x11:0xfffffbdd x27:0x00008dc0  x4=0x00000001
       59435000	      5942	80001ce4	46c0d4b7	lui	x9,0x46c0d	  x9=0x46c0d000
       59445000	      5943	80001ce8	0480f293	andi	x5,x1,72	  x1:0x80009e92  x5=0x00000000
       59455000	      5944	80001cec	5821cc37	lui	x24,0x5821c	 x24=0x5821c000
       59465000	      5945	80001cf0	00000013	addi	x0,x0,0	  x0:0x00000000
       59475000	      5946	80001cf4	00b624b3	slt	x9,x12,x11	 x12:0x00000700 x11:0xfffffbdd  x9=0x00000000
       59485000	      5947	80001cf8	01145863	bge	x8,x17,80001d08	  x8:0x00000001 x17:0xfffece73
       59495000	      5948	00000000	00000013	addi	x0,x0,0	  x0:0x00000000
       59505000	      5949	80001d04	00000013	addi	x0,x0,0	  x0:0x00000000
       59515000	      5950	80001d08	01d425b3	slt	x11,x8,x29	  x8:0x00000001 x29:0x80006608 x11=0x00000000
       59525000	      5951	80001d0c	026c5263	bge	x24,x6,80001d30	 x24:0x5821c000  x6:0x00000000
       59535000	      5952	00000000	00000013	addi	x0,x0,0	  x0:0x00000000
       59545000	      5953	80001d2c	00000013	addi	x0,x0,0	  x0:0x00000000
       59555000	      5954	80001d30	f68d0813	addi	x16,x26,-152	 x26:0x000005a9 x16=0x00000511
       59565000	      5955	80001d34	6855ea13	ori	x20,x11,1669	 x11:0x00000000 x20=0x00000685
       59575000	      5956	80001d38	009b2233	slt	x4,x22,x9	 x22:0x00000001  x9:0x00000000  x4=0x00000000
       59585000	      5957	80001d3c	03e39263	bne	x7,x30,80001d60	  x7:0x00000001 x30:0x00000000
       59595000	      5958	00000000	00000013	addi	x0,x0,0	  x0:0x00000000
       59605000	      5959	80001d5c	00000013	addi	x0,x0,0	  x0:0x00000000
       59615000	      5960	80001d60	034bd663	bge	x23,x20,80001d8c	 x23:0x80002878 x20:0x00000685
       59625000	      5961	80001d64	dba3a593	slti	x11,x7,-582	  x7:0x00000001 x11=0x00000000
       59635000	      5962	80001d68	01e19733	sll	x14,x3,x30	  x3:0x00000000 x30:0x00000000 x14=0x00000000
       59645000	      5963	80001d6c	412bde93	srai	x29,x23,0x12	 x23:0x80002878 x29=0xffffe000
       59655000	      5964	80001d70	002d5e63	bge	x26,x2,80001d8c	 x26:0x000005a9  x2:0xaa8dd69f
       59665000	      5965	00000000	00000013	addi	x0,x0,0	  x0:0x00000000
       59675000	      5966	80001d88	00000013	addi	x0,x0,0	  x0:0x00000000
       59685000	      5967	80001d8c	415206b3	sub	x13,x4,x21	  x4:0x00000000 x21:0x063734af x13=0xf9c8cb51
       59695000	      5968	80001d90	0464f063	bgeu	x9,x6,80001dd0	  x9:0x00000000  x6:0x00000000
       59705000	      5969	00000000	00000013	addi	x0,x0,0	  x0:0x00000000
       59715000	      5970	80001dcc	00000013	addi	x0,x0,0	  x0:0x00000000
       59725000	      5971	80001dd0	407cda33	sra	x20,x25,x7	 x25:0x80009edc  x7:0x00000001 x20=0xc0004f6e
       59735000	      5972	80001dd4	04df6063	bltu	x30,x13,80001e14	 x30:0x00000000 x13:0xf9c8cb51
       59745000	      5973	00000000	00000013	addi	x0,x0,0	  x0:0x00000000
       59755000	      5974	80001e10	00000013	addi	x0,x0,0	  x0:0x00000000
       59765000	      5975	80001e14	6aaf2a13	slti	x20,x30,1706	 x30:0x00000000 x20=0x00000001
       59775000	      5976	80001e18	0588d663	bge	x17,x24,80001e64	 x17:0xfffece73 x24:0x5821c000
       59785000	      5977	80001e1c	00c91863	bne	x18,x12,80001e2c	 x18:0x00000001 x12:0x00000700
       59795000	      5978	00000000	00000013	addi	x0,x0,0	  x0:0x00000000
       59805000	      5979	80001e28	00000013	addi	x0,x0,0	  x0:0x00000000
       59815000	      5980	80001e2c	013b1093	slli	x1,x22,0x13	 x22:0x00000001  x1=0x00080000
       59825000	      5981	80001e30	05bec863	blt	x29,x27,80001e80	 x29:0xffffe000 x27:0x00008dc0
       59835000	      5982	00000000	00000013	addi	x0,x0,0	  x0:0x00000000
       59845000	      5983	80001e7c	00000013	addi	x0,x0,0	  x0:0x00000000
       59855000	      5984	80001e80	0e958b17	auipc	x22,0xe958	 x22=0x8e959e7c
       59865000	      5985	80001e84	cedd80b7	lui	x1,0xcedd8	  x1=0xcedd8000
       59875000	      5986	80001e88	a645c413	xori	x8,x11,-1436	 x11:0x00000000  x8=0xfffffa64
       59885000	      5987	80001e8c	00555813	srli	x16,x10,0x5	 x10:0xfffeca50 x16=0x07fff652
       59895000	      5988	80001e90	013926b3	slt	x13,x18,x19	 x18:0x00000001 x19:0xfffffb77 x13=0x00000000
       59905000	      5989	80001e94	6eedf413	andi	x8,x27,1774	 x27:0x00008dc0  x8=0x000004c0
       59915000	      5990	80001e98	01be3a33	sltu	x20,x28,x27	 x28:0x7fff6029 x27:0x00008dc0 x20=0x00000000
       59925000	      5991	80001e9c	b5268c13	addi	x24,x13,-1198	 x13:0x00000000 x24=0xfffffb52
       59935000	      5992	80001ea0	00000013	addi	x0,x0,0	  x0:0x00000000
       59945000	      5993	80001ea4	01fe1513	slli	x10,x28,0x1f	 x28:0x7fff6029 x10=0x80000000
       59955000	      5994	80001ea8	83aa2d13	slti	x26,x20,-1990	 x20:0x00000000 x26=0x00000000
       59965000	      5995	80001eac	4132d433	sra	x8,x5,x19	  x5:0x00000000 x19:0xfffffb77  x8=0x00000000
       59975000	      5996	80001eb0	a34f4f97	auipc	x31,0xa34f4	 x31=0x234f5eac
       59985000	      5997	80001eb4	02ebc063	blt	x23,x14,80001ed4	 x23:0x80002878 x14:0x00000000
       59995000	      5998	00000000	00000013	addi	x0,x0,0	  x0:0x00000000
       60005000	      5999	80001ed0	00000013	addi	x0,x0,0	  x0:0x00000000
       60015000	      6000	80001ed4	02bb4063	blt	x22,x11,80001ef4	 x22:0x8e959e7c x11:0x00000000
       60025000	      6001	00000000	00000013	addi	x0,x0,0	  x0:0x00000000
       60035000	      6002	80001ef0	00000013	addi	x0,x0,0	  x0:0x00000000
       60045000	      6003	80001ef4	0408e063	bltu	x17,x0,80001f34	 x17:0xfffece73  x0:0x00000000
       60055000	      6004	80001ef8	00e2d593	srli	x11,x5,0xe	  x5:0x00000000 x11=0x00000000
       60065000	      6005	80001efc	01cd16b3	sll	x13,x26,x28	 x26:0x00000000 x28:0x7fff6029 x13=0x00000000
       60075000	      6006	80001f00	030bf263	bgeu	x23,x16,80001f24	 x23:0x80002878 x16:0x07fff652
       60085000	      6007	00000000	00000013	addi	x0,x0,0	  x0:0x00000000
       60095000	      6008	80001f20	00000013	addi	x0,x0,0	  x0:0x00000000
       60105000	      6009	80001f24	00000013	addi	x0,x0,0	  x0:0x00000000
       60115000	      6010	80001f28	04e3f463	bgeu	x7,x14,80001f70	  x7:0x00000001 x14:0x00000000
       60125000	      6011	00000000	00000013	addi	x0,x0,0	  x0:0x00000000
       60135000	      6012	80001f6c	00000013	addi	x0,x0,0	  x0:0x00000000
       60145000	      6013	80001f70	005befb3	or	x31,x23,x5	 x23:0x80002878  x5:0x00000000 x31=0x80002878
       60155000	      6014	80001f74	400a5e13	srai	x28,x20,0x0	 x20:0x00000000 x28=0x00000000
       60165000	      6015	80001f78	00131913	slli	x18,x6,0x1	  x6:0x00000000 x18=0x00000000
       60175000	      6016	80001f7c	56538313	addi	x6,x7,1381	  x7:0x00000001  x6=0x00000566
       60185000	      6017	80001f80	01c29313	slli	x6,x5,0x1c	  x5:0x00000000  x6=0x00000000
       60195000	      6018	80001f84	948caa93	slti	x21,x25,-1720	 x25:0x80009edc x21=0x00000001
       60205000	      6019	80001f88	31432193	slti	x3,x6,788	  x6:0x00000000  x3=0x00000001
       60215000	      6020	80001f8c	40a8d713	srai	x14,x17,0xa	 x17:0xfffece73 x14=0xffffffb3
       60225000	      6021	80001f90	0145f6b3	and	x13,x11,x20	 x11:0x00000000 x20:0x00000000 x13=0x00000000
       60235000	      6022	80001f94	00ff59b3	srl	x19,x30,x15	 x30:0x00000000 x15:0x80009fc4 x19=0x00000000
       60245000	      6023	80001f98	0470e063	bltu	x1,x7,80001fd8	  x1:0xcedd8000  x7:0x00000001
       60255000	      6024	80001f9c	00b23033	sltu	x0,x4,x11	  x4:0x00000000 x11:0x00000000
       60265000	      6025	80001fa0	c6c1ba97	auipc	x21,0xc6c1b	 x21=0x46c1cf9c
       60275000	      6026	80001fa4	0150dbb3	srl	x23,x1,x21	  x1:0xcedd8000 x21:0x46c1cf9c x23=0x0000000c
       60285000	      6027	80001fa8	28422337	lui	x6,0x28422	  x6=0x28422000
       60295000	      6028	80001fac	00168db3	add	x27,x13,x1	 x13:0x00000000  x1:0xcedd8000 x27=0xcedd8000
       60305000	      6029	80001fb0	021a8063	beq	x21,x1,80001fd0	 x21:0x46c1cf9c  x1:0xcedd8000
       60315000	      6030	80001fb4	022fc263	blt	x31,x2,80001fd8	 x31:0x80002878  x2:0xaa8dd69f
       60325000	      6031	00000000	00000013	addi	x0,x0,0	  x0:0x00000000
       60335000	      6032	80001fd4	00000013	addi	x0,x0,0	  x0:0x00000000
       60345000	      6033	80001fd8	001fe633	or	x12,x31,x1	 x31:0x80002878  x1:0xcedd8000 x12=0xcedda878
       60355000	      6034	80001fdc	041cc863	blt	x25,x1,8000202c	 x25:0x80009edc  x1:0xcedd8000
       60365000	      6035	00000000	00000013	addi	x0,x0,0	  x0:0x00000000
       60375000	      6036	80002028	00000013	addi	x0,x0,0	  x0:0x00000000
       60385000	      6037	8000202c	020c7263	bgeu	x24,x0,80002050	 x24:0xfffffb52  x0:0x00000000
       60395000	      6038	00000000	00000013	addi	x0,x0,0	  x0:0x00000000
       60405000	      6039	8000204c	00000013	addi	x0,x0,0	  x0:0x00000000
       60415000	      6040	80002050	01c7fe63	bgeu	x15,x28,8000206c	 x15:0x80009fc4 x28:0x00000000
       60425000	      6041	00000000	00000013	addi	x0,x0,0	  x0:0x00000000
       60435000	      6042	80002068	00000013	addi	x0,x0,0	  x0:0x00000000
       60445000	      6043	8000206c	92c02513	slti	x10,x0,-1748	  x0:0x00000000 x10=0x00000000
       60455000	      6044	80002070	0198b4b3	sltu	x9,x17,x25	 x17:0xfffece73 x25:0x80009edc  x9=0x00000000
       60465000	      6045	80002074	03b79c63	bne	x15,x27,800020ac	 x15:0x80009fc4 x27:0xcedd8000
       60475000	      6046	00000000	00000013	addi	x0,x0,0	  x0:0x00000000
       60485000	      6047	800020a8	00000013	addi	x0,x0,0	  x0:0x00000000
       60495000	      6048	800020ac	01a053b3	srl	x7,x0,x26	  x0:0x00000000 x26:0x00000000  x7=0x00000000
       60505000	      6049	800020b0	a2316f13	ori	x30,x2,-1501	  x2:0xaa8dd69f x30=0xfffffebf
       60515000	      6050	800020b4	014d5863	bge	x26,x20,800020c4	 x26:0x00000000 x20:0x00000000
       60525000	      6051	00000000	00000013	addi	x0,x0,0	  x0:0x00000000
       60535000	      6052	800020c0	00000013	addi	x0,x0,0	  x0:0x00000000
       60545000	      6053	800020c4	005a8663	beq	x21,x5,800020d0	 x21:0x46c1cf9c  x5:0x00000000
       60555000	      6054	800020c8	40c15ab3	sra	x21,x2,x12	  x2:0xaa8dd69f x12:0xcedda878 x21=0xffffffaa
       60565000	      6055	800020cc	0016f233	and	x4,x13,x1	 x13:0x00000000  x1:0xcedd8000  x4=0x00000000
       60575000	      6056	800020d0	057f6863	bltu	x30,x23,80002120	 x30:0xfffffebf x23:0x0000000c
       60585000	      6057	800020d4	1b994a13	xori	x20,x18,441	 x18:0x00000000 x20=0x000001b9
       60595000	      6058	800020d8	5b12e937	lui	x18,0x5b12e	 x18=0x5b12e000
       60605000	      6059	800020dc	0271c263	blt	x3,x7,80002100	  x3:0x00000001  x7:0x00000000
       60615000	      6060	800020e0	a49fce13	xori	x28,x31,-1463	 x31:0x80002878 x28=0x7fffd231
       60625000	      6061	800020e4	5aa3ce93	xori	x29,x7,1450	  x7:0x00000000 x29=0x000005aa
       60635000	      6062	800020e8	03975663	bge	x14,x25,80002114	 x14:0xffffffb3 x25:0x80009edc
       60645000	      6063	00000000	00000013	addi	x0,x0,0	  x0:0x00000000
       60655000	      6064	80002110	00000013	addi	x0,x0,0	  x0:0x00000000
       60665000	      6065	80002114	03bf9063	bne	x31,x27,80002134	 x31:0x80002878 x27:0xcedd8000
       60675000	      6066	00000000	00000013	addi	x0,x0,0	  x0:0x00000000
       60685000	      6067	80002130	00000013	addi	x0,x0,0	  x0:0x00000000
       60695000	      6068	80002134	0133a0b3	slt	x1,x7,x19	  x7:0x00000000 x19:0x00000000  x1=0x00000000
       60705000	      6069	80002138	ab274a13	xori	x20,x14,-1358	 x14:0xffffffb3 x20=0x00000501
       60715000	      6070	8000213c	418f5633	sra	x12,x30,x24	 x30:0xfffffebf x24:0xfffffb52 x12=0xffffffff
       60725000	      6071	80002140	030cd063	bge	x25,x16,80002160	 x25:0x80009edc x16:0x07fff652
       60735000	      6072	80002144	04de4863	blt	x28,x13,80002194	 x28:0x7fffd231 x13:0x00000000
       60745000	      6073	80002148	00befa33	and	x20,x29,x11	 x29:0x000005aa x11:0x00000000 x20=0x00000000
       60755000	      6074	8000214c	01827d33	and	x26,x4,x24	  x4:0x00000000 x24:0xfffffb52 x26=0x00000000
       60765000	      6075	80002150	4c642713	slti	x14,x8,1222	  x8:0x00000000 x14=0x00000001
       60775000	      6076	80002154	00351433	sll	x8,x10,x3	 x10:0x00000000  x3:0x00000001  x8=0x00000000
       60785000	      6077	80002158	0bffa913	slti	x18,x31,191	 x31:0x80002878 x18=0x00000001
       60795000	      6078	8000215c	655e9a17	auipc	x20,0x655e9	 x20=0xe55eb158
       60805000	      6079	80002160	5d863013	sltiu	x0,x12,1496	 x12:0xffffffff
       60815000	      6080	80002164	017ce233	or	x4,x25,x23	 x25:0x80009edc x23:0x0000000c  x4=0x80009edc
       60825000	      6081	80002168	009ad093	srli	x1,x21,0x9	 x21:0xffffffaa  x1=0x007fffff
       60835000	      6082	8000216c	b6554697	auipc	x13,0xb6554	 x13=0x36556168
       60845000	      6083	80002170	0242d263	bge	x5,x4,80002194	  x5:0x00000000  x4:0x80009edc
       60855000	      6084	00000000	00000013	addi	x0,x0,0	  x0:0x00000000
       60865000	      6085	80002190	00000013	addi	x0,x0,0	  x0:0x00000000
       60875000	      6086	80002194	c3943f93	sltiu	x31,x8,-967	  x8:0x00000000 x31=0x00000001
       60885000	      6087	80002198	0d0ecb93	xori	x23,x29,208	 x29:0x000005aa x23=0x0000057a
       60895000	      6088	8000219c	01fc76b3	and	x13,x24,x31	 x24:0xfffffb52 x31:0x00000001 x13=0x00000000
       60905000	      6089	800021a0	03e1fc63	bgeu	x3,x30,800021d8	  x3:0x00000001 x30:0xfffffebf
       60915000	      6090	800021a4	010f5e63	bge	x30,x16,800021c0	 x30:0xfffffebf x16:0x07fff652
       60925000	      6091	800021a8	003b0eb3	add	x29,x22,x3	 x22:0x8e959e7c  x3:0x00000001 x29=0x8e959e7d
       60935000	      6092	800021ac	005bcbb3	xor	x23,x23,x5	 x23:0x0000057a  x5:0x00000000 x23=0x0000057a
       60945000	      6093	800021b0	00c31893	slli	x17,x6,0xc	  x6:0x28422000 x17=0x22000000
       60955000	      6094	800021b4	7353c993	xori	x19,x7,1845	  x7:0x00000000 x19=0x00000735
       60965000	      6095	800021b8	04996463	bltu	x18,x9,80002200	 x18:0x00000001  x9:0x00000000
       60975000	      6096	800021bc	91dda493	slti	x9,x27,-1763	 x27:0xcedd8000  x9=0x00000001
       60985000	      6097	800021c0	0894e593	ori	x11,x9,137	  x9:0x00000001 x11=0x00000089
       60995000	      6098	800021c4	40775f33	sra	x30,x14,x7	 x14:0x00000001  x7:0x00000000 x30=0x00000001
       61005000	      6099	800021c8	018f56b3	srl	x13,x30,x24	 x30:0x00000001 x24:0xfffffb52 x13=0x00000000
       61015000	      6100	800021cc	01a29833	sll	x16,x5,x26	  x5:0x00000000 x26:0x00000000 x16=0x00000000
       61025000	      6101	800021d0	eaccf637	lui	x12,0xeaccf	 x12=0xeaccf000
       61035000	      6102	800021d4	0048fc33	and	x24,x17,x4	 x17:0x22000000  x4:0x80009edc x24=0x00000000
       61045000	      6103	800021d8	57df8d93	addi	x27,x31,1405	 x31:0x00000001 x27=0x0000057e
       61055000	      6104	800021dc	00d98933	add	x18,x19,x13	 x19:0x00000735 x13:0x00000000 x18=0x00000735
       61065000	      6105	800021e0	04235463	bge	x6,x2,80002228	  x6:0x28422000  x2:0xaa8dd69f
       61075000	      6106	00000000	00000013	addi	x0,x0,0	  x0:0x00000000
       61085000	      6107	80002224	00000013	addi	x0,x0,0	  x0:0x00000000
       61095000	      6108	80002228	007eb4b3	sltu	x9,x29,x7	 x29:0x8e959e7d  x7:0x00000000  x9=0x00000000
       61105000	      6109	8000222c	0139ed33	or	x26,x19,x19	 x19:0x00000735 x19:0x00000735 x26=0x00000735
       61115000	      6110	80002230	75273193	sltiu	x3,x14,1874	 x14:0x00000001  x3=0x00000001
       61125000	      6111	80002234	3eb2c693	xori	x13,x5,1003	  x5:0x00000000 x13=0x000003eb
       61135000	      6112	80002238	00448f33	add	x30,x9,x4	  x9:0x00000000  x4:0x80009edc x30=0x80009edc
       61145000	      6113	8000223c	01e9f233	and	x4,x19,x30	 x19:0x00000735 x30:0x80009edc  x4=0x00000614
       61155000	      6114	80002240	04ef4263	blt	x30,x14,80002284	 x30:0x80009edc x14:0x00000001
       61165000	      6115	00000000	00000013	addi	x0,x0,0	  x0:0x00000000
       61175000	      6116	80002280	00000013	addi	x0,x0,0	  x0:0x00000000
       61185000	      6117	80002284	6fa3a097	auipc	x1,0x6fa3a	  x1=0xefa3c280
       61195000	      6118	80002288	af584513	xori	x10,x16,-1291	 x16:0x00000000 x10=0xfffffaf5
       61205000	      6119	8000228c	02076c63	bltu	x14,x0,800022c4	 x14:0x00000001  x0:0x00000000
       61215000	      6120	80002290	00702fb3	slt	x31,x0,x7	  x0:0x00000000  x7:0x00000000 x31=0x00000000
       61225000	      6121	80002294	00e2d213	srli	x4,x5,0xe	  x5:0x00000000  x4=0x00000000
       61235000	      6122	80002298	58486093	ori	x1,x16,1412	 x16:0x00000000  x1=0x00000584
       61245000	      6123	8000229c	0141ce33	xor	x28,x3,x20	  x3:0x00000001 x20:0xe55eb158 x28=0xe55eb159
       61255000	      6124	800022a0	017ec233	xor	x4,x29,x23	 x29:0x8e959e7d x23:0x0000057a  x4=0x8e959b07
       61265000	      6125	800022a4	41e0d913	srai	x18,x1,0x1e	  x1:0x00000584 x18=0x00000000
       61275000	      6126	800022a8	00e4a933	slt	x18,x9,x14	  x9:0x00000000 x14:0x00000001 x18=0x00000001
       61285000	      6127	800022ac	aa17b213	sltiu	x4,x15,-1375	 x15:0x80009fc4  x4=0x00000001
       61295000	      6128	800022b0	6d3fbe93	sltiu	x29,x31,1747	 x31:0x00000000 x29=0x00000001
       61305000	      6129	800022b4	010b7733	and	x14,x22,x16	 x22:0x8e959e7c x16:0x00000000 x14=0x00000000
       61315000	      6130	800022b8	a875bf37	lui	x30,0xa875b	 x30=0xa875b000
       61325000	      6131	800022bc	4d733c13	sltiu	x24,x6,1239	  x6:0x28422000 x24=0x00000000
       61335000	      6132	800022c0	00000013	addi	x0,x0,0	  x0:0x00000000
       61345000	      6133	800022c4	7f284393	xori	x7,x16,2034	 x16:0x00000000  x7=0x000007f2
       61355000	      6134	800022c8	00000013	addi	x0,x0,0	  x0:0x00000000
       61365000	      6135	800022cc	41280ab3	sub	x21,x16,x18	 x16:0x00000000 x18:0x00000001 x21=0xffffffff
       61375000	      6136	800022d0	65852893	slti	x17,x10,1624	 x10:0xfffffaf5 x17=0x00000001
       61385000	      6137	800022d4	01977eb3	and	x29,x14,x25	 x14:0x00000000 x25:0x80009edc x29=0x00000000
       61395000	      6138	800022d8	56642213	slti	x4,x8,1382	  x8:0x00000000  x4=0x00000001
       61405000	      6139	800022dc	006a7c33	and	x24,x20,x6	 x20:0xe55eb158  x6:0x28422000 x24=0x20422000
       61415000	      6140	800022e0	003a9393	slli	x7,x21,0x3	 x21:0xffffffff  x7=0xfffffff8
       61425000	      6141	800022e4	2ad2c993	xori	x19,x5,685	  x5:0x00000000 x19=0x000002ad
       61435000	      6142	800022e8	41c451b3	sra	x3,x8,x28	  x8:0x00000000 x28:0xe55eb159  x3=0x00000000
       61445000	      6143	800022ec	40b75f13	srai	x30,x14,0xb	 x14:0x00000000 x30=0x00000000
       61455000	      6144	800022f0	00000013	addi	x0,x0,0	  x0:0x00000000
       61465000	      6145	800022f4	00ee1c63	bne	x28,x14,8000230c	 x28:0xe55eb159 x14:0x00000000
       61475000	      6146	00000000	00000013	addi	x0,x0,0	  x0:0x00000000
       61485000	      6147	80002308	00000013	addi	x0,x0,0	  x0:0x00000000
       61495000	      6148	8000230c	5e804fef	jal	x31,8000230c	 x31=0x8000230c
       61505000	      6149	00000000	00000013	addi	x0,x0,0	  x0:0x00000000
       61515000	      6150	800068f0	00000013	addi	x0,x0,0	  x0:0x00000000
       61525000	      6151	800068f4	0030c663	blt	x1,x3,80006900	  x1:0x00000584  x3:0x00000000
       61535000	      6152	800068f8	01719d33	sll	x26,x3,x23	  x3:0x00000000 x23:0x0000057a x26=0x00000000
       61545000	      6153	800068fc	0164eb33	or	x22,x9,x22	  x9:0x00000000 x22:0x8e959e7c x22=0x8e959e7c
       61555000	      6154	80006900	fe4c8c93	addi	x25,x25,-28	 x25:0x80009edc x25=0x80009ec0
       61565000	      6155	80006904	85e58e37	lui	x28,0x85e58	 x28=0x85e58000
       61575000	      6156	80006908	01970a33	add	x20,x14,x25	 x14:0x00000000 x25:0x80009ec0 x20=0x80009ec0
       61585000	      6157	8000690c	4189d693	srai	x13,x19,0x18	 x19:0x000002ad x13=0x00000000
       61595000	      6158	80006910	005e5f33	srl	x30,x28,x5	 x28:0x85e58000  x5:0x00000000 x30=0x85e58000
       61605000	      6159	80006914	01fca223	sw	x31,4(x25)	 x25:0x80009ec0 x31:0x8000230c PA:0x80009ec4
       61615000	      6160	80006918	00429613	slli	x12,x5,0x4	  x5:0x00000000 x12=0x00000000
       61625000	      6161	8000691c	fa778e93	addi	x29,x15,-89	 x15:0x80009fc4 x29=0x80009f6b
       61635000	      6162	80006920	00002217	auipc	x4,0x2	  x4=0x8000891c
       61645000	      6163	80006924	fde20213	addi	x4,x4,-34	  x4:0x8000891c  x4=0x800088fa
       61655000	      6164	80006928	01a75693	srli	x13,x14,0x1a	 x14:0x00000000 x13=0x00000000
       61665000	      6165	8000692c	66e205a3	sb	x14,1643(x4)	  x4:0x800088fa x14:0x00000000 PA:0x80008f65
       61675000	      6166	80006930	00000013	addi	x0,x0,0	  x0:0x00000000
       61685000	      6167	80006934	35a20d03	lb	x26,858(x4)	  x4:0x800088fa x26=0x0000006d PA:0x80008c54
       61695000	      6168	80006938	6ff201a3	sb	x31,1763(x4)	  x4:0x800088fa x31:0x8000230c PA:0x80008fdd
       61705000	      6169	8000693c	4fc200a3	sb	x28,1249(x4)	  x4:0x800088fa x28:0x85e58000 PA:0x80008ddb
       61715000	      6170	80006940	2b424a03	lbu	x20,692(x4)	  x4:0x800088fa x20=0x000000b4 PA:0x80008bae
       61725000	      6171	80006944	41d4d2b3	sra	x5,x9,x29	  x9:0x00000000 x29:0x80009f6b  x5=0x00000000
       61735000	      6172	80006948	01aeb433	sltu	x8,x29,x26	 x29:0x80009f6b x26:0x0000006d  x8=0x00000000
       61745000	      6173	8000694c	41e8d3b3	sra	x7,x17,x30	 x17:0x00000001 x30:0x85e58000  x7=0x00000001
       61755000	      6174	80006950	033206a3	sb	x19,45(x4)	  x4:0x800088fa x19:0x000002ad PA:0x80008927
       61765000	      6175	80006954	d526e393	ori	x7,x13,-686	 x13:0x00000000  x7=0xfffffd52
       61775000	      6176	80006958	2a222003	lw	x0,674(x4)	  x4:0x800088fa PA:0x80008b9c
       61785000	      6177	8000695c	6b020683	lb	x13,1712(x4)	  x4:0x800088fa x13=0xffffffbb PA:0x80008faa
       61795000	      6178	80006960	35ec0893	addi	x17,x24,862	 x24:0x20422000 x17=0x2042235e
       61805000	      6179	80006964	dff2c393	xori	x7,x5,-513	  x5:0x00000000  x7=0xfffffdff
       61815000	      6180	80006968	00759c13	slli	x24,x11,0x7	 x11:0x00000089 x24=0x00004480
       61825000	      6181	8000696c	003bc4b3	xor	x9,x23,x3	 x23:0x0000057a  x3:0x00000000  x9=0x0000057a
       61835000	      6182	80006970	00a09e93	slli	x29,x1,0xa	  x1:0x00000584 x29=0x00161000
       61845000	      6183	80006974	41d98833	sub	x16,x19,x29	 x19:0x000002ad x29:0x00161000 x16=0xffe9f2ad
       61855000	      6184	80006978	63a22303	lw	x6,1594(x4)	  x4:0x800088fa  x6=0xde1e530c PA:0x80008f34
       61865000	      6185	8000697c	21e62613	slti	x12,x12,542	 x12:0x00000000 x12=0x00000001
       61875000	      6186	80006980	be344a93	xori	x21,x8,-1053	  x8:0x00000000 x21=0xfffffbe3
       61885000	      6187	80006984	56924603	lbu	x12,1385(x4)	  x4:0x800088fa x12=0x000000ff PA:0x80008e63
       61895000	      6188	80006988	0a825b03	lhu	x22,168(x4)	  x4:0x800088fa x22=0x0000cfae PA:0x800089a2
       61905000	      6189	8000698c	00e20fa3	sb	x14,31(x4)	  x4:0x800088fa x14:0x00000000 PA:0x80008919
       61915000	      6190	80006990	5c3205a3	sb	x3,1483(x4)	  x4:0x800088fa  x3:0x00000000 PA:0x80008ec5
       61925000	      6191	80006994	015924b3	slt	x9,x18,x21	 x18:0x00000001 x21:0xfffffbe3  x9=0x00000000
       61935000	      6192	80006998	f6920983	lb	x19,-151(x4)	  x4:0x800088fa x19=0xffffff9c PA:0x80008863
       61945000	      6193	8000699c	01a231b3	sltu	x3,x4,x26	  x4:0x800088fa x26:0x0000006d  x3=0x00000000
       61955000	      6194	800069a0	32398e93	addi	x29,x19,803	 x19:0xffffff9c x29=0x000002bf
       61965000	      6195	800069a4	027e2713	slti	x14,x28,39	 x28:0x85e58000 x14=0x00000001
       61975000	      6196	800069a8	40155a93	srai	x21,x10,0x1	 x10:0xfffffaf5 x21=0xfffffd7a
       61985000	      6197	800069ac	00284a63	blt	x16,x2,800069c0	 x16:0xffe9f2ad  x2:0xaa8dd69f
       61995000	      6198	800069b0	00dcc8b3	xor	x17,x25,x13	 x25:0x80009ec0 x13:0xffffffbb x17=0x7fff617b
       62005000	      6199	800069b4	40ece593	ori	x11,x25,1038	 x25:0x80009ec0 x11=0x80009ece
       62015000	      6200	800069b8	b6e90717	auipc	x14,0xb6e90	 x14=0x36e969b4
       62025000	      6201	800069bc	01b39d33	sll	x26,x7,x27	  x7:0xfffffdff x27:0x0000057e x26=0xc0000000
       62035000	      6202	800069c0	00bb83b3	add	x7,x23,x11	 x23:0x0000057a x11:0x80009ece  x7=0x8000a448
       62045000	      6203	800069c4	403480b3	sub	x1,x9,x3	  x9:0x00000000  x3:0x00000000  x1=0x00000000
       62055000	      6204	800069c8	abaaeb93	ori	x23,x21,-1350	 x21:0xfffffd7a x23=0xfffffffa
       62065000	      6205	800069cc	c8ea5737	lui	x14,0xc8ea5	 x14=0xc8ea5000
       62075000	      6206	800069d0	013b0d33	add	x26,x22,x19	 x22:0x0000cfae x19:0xffffff9c x26=0x0000cf4a
       62085000	      6207	800069d4	01bf9a33	sll	x20,x31,x27	 x31:0x8000230c x27:0x0000057e x20=0x00000000
       62095000	      6208	800069d8	00bcffb3	and	x31,x25,x11	 x25:0x80009ec0 x11:0x80009ece x31=0x80009ec0
       62105000	      6209	800069dc	03945e63	bge	x8,x25,80006a18	  x8:0x00000000 x25:0x80009ec0
       62115000	      6210	00000000	00000013	addi	x0,x0,0	  x0:0x00000000
       62125000	      6211	80006a14	00000013	addi	x0,x0,0	  x0:0x00000000
       62135000	      6212	80006a18	00a9de63	bge	x19,x10,80006a34	 x19:0xffffff9c x10:0xfffffaf5
       62145000	      6213	00000000	00000013	addi	x0,x0,0	  x0:0x00000000
       62155000	      6214	80006a30	00000013	addi	x0,x0,0	  x0:0x00000000
       62165000	      6215	80006a34	01bcc833	xor	x16,x25,x27	 x25:0x80009ec0 x27:0x0000057e x16=0x80009bbe
       62175000	      6216	80006a38	002bbc33	sltu	x24,x23,x2	 x23:0xfffffffa  x2:0xaa8dd69f x24=0x00000000
       62185000	      6217	80006a3c	05f6f063	bgeu	x13,x31,80006a7c	 x13:0xffffffbb x31:0x80009ec0
       62195000	      6218	00000000	00000013	addi	x0,x0,0	  x0:0x00000000
       62205000	      6219	80006a78	00000013	addi	x0,x0,0	  x0:0x00000000
       62215000	      6220	80006a7c	00000013	addi	x0,x0,0	  x0:0x00000000
       62225000	      6221	80006a80	414f5893	srai	x17,x30,0x14	 x30:0x85e58000 x17=0xfffff85e
       62235000	      6222	80006a84	666cf017	auipc	x0,0x666cf	
       62245000	      6223	80006a88	015e8bb3	add	x23,x29,x21	 x29:0x000002bf x21:0xfffffd7a x23=0x00000039
       62255000	      6224	80006a8c	004e9393	slli	x7,x29,0x4	 x29:0x000002bf  x7=0x00002bf0
       62265000	      6225	80006a90	009f0db3	add	x27,x30,x9	 x30:0x85e58000  x9:0x00000000 x27=0x85e58000
       62275000	      6226	80006a94	03b50463	beq	x10,x27,80006abc	 x10:0xfffffaf5 x27:0x85e58000
       62285000	      6227	80006a98	40065093	srai	x1,x12,0x0	 x12:0x000000ff  x1=0x000000ff
       62295000	      6228	80006a9c	03ac5e63	bge	x24,x26,80006ad8	 x24:0x00000000 x26:0x0000cf4a
       62305000	      6229	80006aa0	40b95313	srai	x6,x18,0xb	 x18:0x00000001  x6=0x00000000
       62315000	      6230	80006aa4	019e9993	slli	x19,x29,0x19	 x29:0x000002bf x19=0x7e000000
       62325000	      6231	80006aa8	fcf96017	auipc	x0,0xfcf96	
       62335000	      6232	80006aac	0164f333	and	x6,x9,x22	  x9:0x00000000 x22:0x0000cfae  x6=0x00000000
       62345000	      6233	80006ab0	6f6eaf93	slti	x31,x29,1782	 x29:0x000002bf x31=0x00000001
       62355000	      6234	80006ab4	414dd933	sra	x18,x27,x20	 x27:0x85e58000 x20:0x00000000 x18=0x85e58000
       62365000	      6235	80006ab8	002f6863	bltu	x30,x2,80006ac8	 x30:0x85e58000  x2:0xaa8dd69f
       62375000	      6236	00000000	00000013	addi	x0,x0,0	  x0:0x00000000
       62385000	      6237	80006ac4	00000013	addi	x0,x0,0	  x0:0x00000000
       62395000	      6238	80006ac8	05fcf263	bgeu	x25,x31,80006b0c	 x25:0x80009ec0 x31:0x00000001
       62405000	      6239	00000000	00000013	addi	x0,x0,0	  x0:0x00000000
       62415000	      6240	80006b08	00000013	addi	x0,x0,0	  x0:0x00000000
       62425000	      6241	80006b0c	0139ed33	or	x26,x19,x19	 x19:0x7e000000 x19:0x7e000000 x26=0x7e000000
       62435000	      6242	80006b10	4f4f11b7	lui	x3,0x4f4f1	  x3=0x4f4f1000
       62445000	      6243	80006b14	00e55833	srl	x16,x10,x14	 x10:0xfffffaf5 x14:0xc8ea5000 x16=0xfffffaf5
       62455000	      6244	80006b18	88f0f337	lui	x6,0x88f0f	  x6=0x88f0f000
       62465000	      6245	80006b1c	01c1e633	or	x12,x3,x28	  x3:0x4f4f1000 x28:0x85e58000 x12=0xcfef9000
       62475000	      6246	80006b20	02696c63	bltu	x18,x6,80006b58	 x18:0x85e58000  x6:0x88f0f000
       62485000	      6247	00000000	00000013	addi	x0,x0,0	  x0:0x00000000
       62495000	      6248	80006b54	00000013	addi	x0,x0,0	  x0:0x00000000
       62505000	      6249	80006b58	f8077d13	andi	x26,x14,-128	 x14:0xc8ea5000 x26=0xc8ea5000
       62515000	      6250	80006b5c	3748fa17	auipc	x20,0x3748f	 x20=0xb7495b58
       62525000	      6251	80006b60	d0a3db17	auipc	x22,0xd0a3d	 x22=0x50a43b5c
       62535000	      6252	80006b64	55153e37	lui	x28,0x55153	 x28=0x55153000
       62545000	      6253	80006b68	00f53eb3	sltu	x29,x10,x15	 x10:0xfffffaf5 x15:0x80009fc4 x29=0x00000000
       62555000	      6254	80006b6c	403a52b3	sra	x5,x20,x3	 x20:0xb7495b58  x3:0x4f4f1000  x5=0xb7495b58
       62565000	      6255	80006b70	01b20ab3	add	x21,x4,x27	  x4:0x800088fa x27:0x85e58000 x21=0x05e608fa
       62575000	      6256	80006b74	01729463	bne	x5,x23,80006b7c	  x5:0xb7495b58 x23:0x00000039
       62585000	      6257	00000000	00000013	addi	x0,x0,0	  x0:0x00000000
       62595000	      6258	80006b78	00000013	addi	x0,x0,0	  x0:0x00000000
       62605000	      6259	80006b7c	00a37033	and	x0,x6,x10	  x6:0x88f0f000 x10:0xfffffaf5
       62615000	      6260	80006b80	0437e663	bltu	x15,x3,80006bcc	 x15:0x80009fc4  x3:0x4f4f1000
       62625000	      6261	80006b84	2a0a4893	xori	x17,x20,672	 x20:0xb7495b58 x17=0xb74959f8
       62635000	      6262	80006b88	0ee2f013	andi	x0,x5,238	  x5:0xb7495b58
       62645000	      6263	80006b8c	0187de33	srl	x28,x15,x24	 x15:0x80009fc4 x24:0x00000000 x28=0x80009fc4
       62655000	      6264	80006b90	01bdb533	sltu	x10,x27,x27	 x27:0x85e58000 x27:0x85e58000 x10=0x00000000
       62665000	      6265	80006b94	ce85d637	lui	x12,0xce85d	 x12=0xce85d000
       62675000	      6266	80006b98	17cf4a13	xori	x20,x30,380	 x30:0x85e58000 x20=0x85e5817c
       62685000	      6267	80006b9c	40c906b3	sub	x13,x18,x12	 x18:0x85e58000 x12:0xce85d000 x13=0xb75fb000
       62695000	      6268	80006ba0	e89aa213	slti	x4,x21,-375	 x21:0x05e608fa  x4=0x00000000
       62705000	      6269	80006ba4	0106d913	srli	x18,x13,0x10	 x13:0xb75fb000 x18=0x0000b75f
       62715000	      6270	80006ba8	00e8b633	sltu	x12,x17,x14	 x17:0xb74959f8 x14:0xc8ea5000 x12=0x00000001
       62725000	      6271	80006bac	019ae0b3	or	x1,x21,x25	 x21:0x05e608fa x25:0x80009ec0  x1=0x85e69efa
       62735000	      6272	80006bb0	009f6a33	or	x20,x30,x9	 x30:0x85e58000  x9:0x00000000 x20=0x85e58000
       62745000	      6273	80006bb4	1a1da413	slti	x8,x27,417	 x27:0x85e58000  x8=0x00000001
       62755000	      6274	80006bb8	7377ac13	slti	x24,x15,1847	 x15:0x80009fc4 x24=0x00000001
       62765000	      6275	80006bbc	011af633	and	x12,x21,x17	 x21:0x05e608fa x17:0xb74959f8 x12=0x054008f8
       62775000	      6276	80006bc0	01aa2d33	slt	x26,x20,x26	 x20:0x85e58000 x26:0xc8ea5000 x26=0x00000001
       62785000	      6277	80006bc4	0111c933	xor	x18,x3,x17	  x3:0x4f4f1000 x17:0xb74959f8 x18=0xf80649f8
       62795000	      6278	80006bc8	03097063	bgeu	x18,x16,80006be8	 x18:0xf80649f8 x16:0xfffffaf5
       62805000	      6279	80006bcc	77fc7713	andi	x14,x24,1919	 x24:0x00000001 x14=0x00000001
       62815000	      6280	80006bd0	0075d613	srli	x12,x11,0x7	 x11:0x80009ece x12=0x0100013d
       62825000	      6281	80006bd4	4183d3b3	sra	x7,x7,x24	  x7:0x00002bf0 x24:0x00000001  x7=0x000015f8
       62835000	      6282	80006bd8	4072d593	srai	x11,x5,0x7	  x5:0xb7495b58 x11=0xff6e92b6
       62845000	      6283	80006bdc	2211f493	andi	x9,x3,545	  x3:0x4f4f1000  x9=0x00000000
       62855000	      6284	80006be0	1b723e93	sltiu	x29,x4,439	  x4:0x00000000 x29=0x00000001
       62865000	      6285	80006be4	049b0193	addi	x3,x22,73	 x22:0x50a43b5c  x3=0x50a43ba5
       62875000	      6286	80006be8	41ca83b3	sub	x7,x21,x28	 x21:0x05e608fa x28:0x80009fc4  x7=0x85e56936
       62885000	      6287	80006bec	00000013	addi	x0,x0,0	  x0:0x00000000
       62895000	      6288	80006bf0	00daca63	blt	x21,x13,80006c04	 x21:0x05e608fa x13:0xb75fb000
       62905000	      6289	80006bf4	018111b3	sll	x3,x2,x24	  x2:0xaa8dd69f x24:0x00000001  x3=0x551bad3e
       62915000	      6290	80006bf8	018ad863	bge	x21,x24,80006c08	 x21:0x05e608fa x24:0x00000001
       62925000	      6291	00000000	00000013	addi	x0,x0,0	  x0:0x00000000
       62935000	      6292	80006c04	00000013	addi	x0,x0,0	  x0:0x00000000
       62945000	      6293	80006c08	000d5463	bge	x26,x0,80006c10	 x26:0x00000001  x0:0x00000000
       62955000	      6294	00000000	00000013	addi	x0,x0,0	  x0:0x00000000
       62965000	      6295	80006c0c	00000013	addi	x0,x0,0	  x0:0x00000000
       62975000	      6296	80006c10	00000013	addi	x0,x0,0	  x0:0x00000000
       62985000	      6297	80006c14	40895d93	srai	x27,x18,0x8	 x18:0xf80649f8 x27=0xfff80649
       62995000	      6298	80006c18	0178cdb3	xor	x27,x17,x23	 x17:0xb74959f8 x23:0x00000039 x27=0xb74959c1
       63005000	      6299	80006c1c	41885693	srai	x13,x16,0x18	 x16:0xfffffaf5 x13=0xffffffff
       63015000	      6300	80006c20	00d21033	sll	x0,x4,x13	  x4:0x00000000 x13:0xffffffff
       63025000	      6301	80006c24	5ea60c13	addi	x24,x12,1514	 x12:0x0100013d x24=0x01000727
       63035000	      6302	80006c28	00b4fd33	and	x26,x9,x11	  x9:0x00000000 x11:0xff6e92b6 x26=0x00000000
       63045000	      6303	80006c2c	ce9da513	slti	x10,x27,-791	 x27:0xb74959c1 x10=0x00000001
       63055000	      6304	80006c30	01800bb3	add	x23,x0,x24	  x0:0x00000000 x24:0x01000727 x23=0x01000727
       63065000	      6305	80006c34	d078c413	xori	x8,x17,-761	 x17:0xb74959f8  x8=0x48b6a4ff
       63075000	      6306	80006c38	0024b733	sltu	x14,x9,x2	  x9:0x00000000  x2:0xaa8dd69f x14=0x00000001
       63085000	      6307	80006c3c	031f6e63	bltu	x30,x17,80006c78	 x30:0x85e58000 x17:0xb74959f8
       63095000	      6308	00000000	00000013	addi	x0,x0,0	  x0:0x00000000
       63105000	      6309	80006c74	00000013	addi	x0,x0,0	  x0:0x00000000
       63115000	      6310	80006c78	00bc79b3	and	x19,x24,x11	 x24:0x01000727 x11:0xff6e92b6 x19=0x01000226
       63125000	      6311	80006c7c	41a05313	srai	x6,x0,0x1a	  x0:0x00000000  x6=0x00000000
       63135000	      6312	80006c80	00000013	addi	x0,x0,0	  x0:0x00000000
       63145000	      6313	80006c84	e7ffce93	xori	x29,x31,-385	 x31:0x00000001 x29=0xfffffe7e
       63155000	      6314	80006c88	2391f893	andi	x17,x3,569	  x3:0x551bad3e x17=0x00000038
       63165000	      6315	80006c8c	00a01533	sll	x10,x0,x10	  x0:0x00000000 x10:0x00000001 x10=0x00000000
       63175000	      6316	80006c90	9eb2bc13	sltiu	x24,x5,-1557	  x5:0xb7495b58 x24=0x00000001
       63185000	      6317	80006c94	aab2ba93	sltiu	x21,x5,-1365	  x5:0xb7495b58 x21=0x00000001
       63195000	      6318	80006c98	0155bab3	sltu	x21,x11,x21	 x11:0xff6e92b6 x21:0x00000001 x21=0x00000000
       63205000	      6319	80006c9c	411adf93	srai	x31,x21,0x11	 x21:0x00000000 x31=0x00000000
       63215000	      6320	80006ca0	00fd1613	slli	x12,x26,0xf	 x26:0x00000000 x12=0x00000000
       63225000	      6321	80006ca4	61bfb397	auipc	x7,0x61bfb	  x7=0xe1c01ca0
       63235000	      6322	80006ca8	dea4e013	ori	x0,x9,-534	  x9:0x00000000
       63245000	      6323	80006cac	2bb14d93	xori	x27,x2,699	  x2:0xaa8dd69f x27=0xaa8dd424
       63255000	      6324	80006cb0	4e074b13	xori	x22,x14,1248	 x14:0x00000001 x22=0x000004e1
       63265000	      6325	80006cb4	001f02b3	add	x5,x30,x1	 x30:0x85e58000  x1:0x85e69efa  x5=0x0bcc1efa
       63275000	      6326	80006cb8	01d68c63	beq	x13,x29,80006cd0	 x13:0xffffffff x29:0xfffffe7e
       63285000	      6327	80006cbc	87c5a293	slti	x5,x11,-1924	 x11:0xff6e92b6  x5=0x00000001
       63295000	      6328	80006cc0	fb080493	addi	x9,x16,-80	 x16:0xfffffaf5  x9=0xfffffaa5
       63305000	      6329	80006cc4	41025b93	srai	x23,x4,0x10	  x4:0x00000000 x23=0x00000000
       63315000	      6330	80006cc8	002fe463	bltu	x31,x2,80006cd0	 x31:0x00000000  x2:0xaa8dd69f
       63325000	      6331	00000000	00000013	addi	x0,x0,0	  x0:0x00000000
       63335000	      6332	80006ccc	00000013	addi	x0,x0,0	  x0:0x00000000
       63345000	      6333	80006cd0	00000013	addi	x0,x0,0	  x0:0x00000000
       63355000	      6334	80006cd4	013576b3	and	x13,x10,x19	 x10:0x00000000 x19:0x01000226 x13=0x00000000
       63365000	      6335	80006cd8	004caf83	lw	x31,4(x25)	 x25:0x80009ec0 x31=0x8000230c PA:0x80009ec4
       63375000	      6336	80006cdc	00541a33	sll	x20,x8,x5	  x8:0x48b6a4ff  x5:0x00000001 x20=0x916d49fe
       63385000	      6337	80006ce0	4f002d93	slti	x27,x0,1264	  x0:0x00000000 x27=0x00000001
       63395000	      6338	80006ce4	40c05493	srai	x9,x0,0xc	  x0:0x00000000  x9=0x00000000
       63405000	      6339	80006ce8	b77e6e13	ori	x28,x28,-1161	 x28:0x80009fc4 x28=0xfffffff7
       63415000	      6340	80006cec	01cc8c93	addi	x25,x25,28	 x25:0x80009ec0 x25=0x80009edc
       63425000	      6341	80006cf0	01673433	sltu	x8,x14,x22	 x14:0x00000001 x22:0x000004e1  x8=0x00000001
       63435000	      6342	80006cf4	7d992f13	slti	x30,x18,2009	 x18:0xf80649f8 x30=0x00000001
       63445000	      6343	80006cf8	01a881b3	add	x3,x17,x26	 x17:0x00000038 x26:0x00000000  x3=0x00000038
       63455000	      6344	80006cfc	5b618b93	addi	x23,x3,1462	  x3:0x00000038 x23=0x000005ee
       63465000	      6345	80006d00	e08dfe93	andi	x29,x27,-504	 x27:0x00000001 x29=0x00000000
       63475000	      6346	80006d04	000f8513	addi	x10,x31,0	 x31:0x8000230c x10=0x8000230c
       63485000	      6347	80006d08	00050567	jalr	x10,x10,0	 x10:0x8000230c x10=0x80006d08
       63495000	      6348	00000000	00000013	addi	x0,x0,0	  x0:0x00000000
       63505000	      6349	8000230c	00000013	addi	x0,x0,0	  x0:0x00000000
       63515000	      6350	80002310	00f375b3	and	x11,x6,x15	  x6:0x00000000 x15:0x80009fc4 x11=0x00000000
       63525000	      6351	80002314	01746c63	bltu	x8,x23,8000232c	  x8:0x00000001 x23:0x000005ee
       63535000	      6352	00000000	00000013	addi	x0,x0,0	  x0:0x00000000
       63545000	      6353	80002328	00000013	addi	x0,x0,0	  x0:0x00000000
       63555000	      6354	8000232c	817b6e13	ori	x28,x22,-2025	 x22:0x000004e1 x28=0xfffffcf7
       63565000	      6355	80002330	2b49a313	slti	x6,x19,692	 x19:0x01000226  x6=0x00000000
       63575000	      6356	80002334	015dd463	bge	x27,x21,8000233c	 x27:0x00000001 x21:0x00000000
       63585000	      6357	00000000	00000013	addi	x0,x0,0	  x0:0x00000000
       63595000	      6358	80002338	00000013	addi	x0,x0,0	  x0:0x00000000
       63605000	      6359	8000233c	01c8d013	srli	x0,x17,0x1c	 x17:0x00000038
       63615000	      6360	80002340	013f83b3	add	x7,x31,x19	 x31:0x8000230c x19:0x01000226  x7=0x81002532
       63625000	      6361	80002344	01e290b3	sll	x1,x5,x30	  x5:0x00000001 x30:0x00000001  x1=0x00000002
       63635000	      6362	80002348	00706a33	or	x20,x0,x7	  x0:0x00000000  x7:0x81002532 x20=0x81002532
       63645000	      6363	8000234c	f3218313	addi	x6,x3,-206	  x3:0x00000038  x6=0xffffff6a
       63655000	      6364	80002350	861c0193	addi	x3,x24,-1951	 x24:0x00000001  x3=0xfffff862
       63665000	      6365	80002354	01b49293	slli	x5,x9,0x1b	  x9:0x00000000  x5=0x00000000
       63675000	      6366	80002358	40d652b3	sra	x5,x12,x13	 x12:0x00000000 x13:0x00000000  x5=0x00000000
       63685000	      6367	8000235c	00c676b3	and	x13,x12,x12	 x12:0x00000000 x12:0x00000000 x13=0x00000000
       63695000	      6368	80002360	e51cc613	xori	x12,x25,-431	 x25:0x80009edc x12=0x7fff608d
       63705000	      6369	80002364	abdd6913	ori	x18,x26,-1347	 x26:0x00000000 x18=0xfffffabd
       63715000	      6370	80002368	00f6c033	xor	x0,x13,x15	 x13:0x00000000 x15:0x80009fc4
       63725000	      6371	8000236c	01c7fb33	and	x22,x15,x28	 x15:0x80009fc4 x28:0xfffffcf7 x22=0x80009cc4
       63735000	      6372	80002370	00931db3	sll	x27,x6,x9	  x6:0xffffff6a  x9:0x00000000 x27=0xffffff6a
       63745000	      6373	80002374	41b1dd13	srai	x26,x3,0x1b	  x3:0xfffff862 x26=0xffffffff
       63755000	      6374	80002378	0031d313	srli	x6,x3,0x3	  x3:0xfffff862  x6=0x1fffff0c
       63765000	      6375	8000237c	009cbbb3	sltu	x23,x25,x9	 x25:0x80009edc  x9:0x00000000 x23=0x00000000
       63775000	      6376	80002380	00000013	addi	x0,x0,0	  x0:0x00000000
       63785000	      6377	80002384	07646d13	ori	x26,x8,118	  x8:0x00000001 x26=0x00000077
       63795000	      6378	80002388	cbc2ec13	ori	x24,x5,-836	  x5:0x00000000 x24=0xfffffcbc
       63805000	      6379	8000238c	00098c33	add	x24,x19,x0	 x19:0x01000226  x0:0x00000000 x24=0x01000226
       63815000	      6380	80002390	6d2c3f13	sltiu	x30,x24,1746	 x24:0x01000226 x30=0x00000000
       63825000	      6381	80002394	00991693	slli	x13,x18,0x9	 x18:0xfffffabd x13=0xfff57a00
       63835000	      6382	80002398	01ec9a33	sll	x20,x25,x30	 x25:0x80009edc x30:0x00000000 x20=0x80009edc
       63845000	      6383	8000239c	419e5eb3	sra	x29,x28,x25	 x28:0xfffffcf7 x25:0x80009edc x29=0xffffffff
       63855000	      6384	800023a0	2118c593	xori	x11,x17,529	 x17:0x00000038 x11=0x00000229
       63865000	      6385	800023a4	02c44263	blt	x8,x12,800023c8	  x8:0x00000001 x12:0x7fff608d
       63875000	      6386	00000000	00000013	addi	x0,x0,0	  x0:0x00000000
       63885000	      6387	800023c4	00000013	addi	x0,x0,0	  x0:0x00000000
       63895000	      6388	800023c8	04bdc463	blt	x27,x11,80002410	 x27:0xffffff6a x11:0x00000229
       63905000	      6389	00000000	00000013	addi	x0,x0,0	  x0:0x00000000
       63915000	      6390	8000240c	00000013	addi	x0,x0,0	  x0:0x00000000
       63925000	      6391	80002410	019fc233	xor	x4,x31,x25	 x31:0x8000230c x25:0x80009edc  x4=0x0000bdd0
       63935000	      6392	80002414	18fc8293	addi	x5,x25,399	 x25:0x80009edc  x5=0x8000a06b
       63945000	      6393	80002418	6a71b813	sltiu	x16,x3,1703	  x3:0xfffff862 x16=0x00000000
       63955000	      6394	8000241c	40e3d733	sra	x14,x7,x14	  x7:0x81002532 x14:0x00000001 x14=0xc0801299
       63965000	      6395	80002420	014325b3	slt	x11,x6,x20	  x6:0x1fffff0c x20:0x80009edc x11=0x00000000
       63975000	      6396	80002424	db552193	slti	x3,x10,-587	 x10:0x80006d08  x3=0x00000001
       63985000	      6397	80002428	010b6db3	or	x27,x22,x16	 x22:0x80009cc4 x16:0x00000000 x27=0x80009cc4
       63995000	      6398	8000242c	001d6eb3	or	x29,x26,x1	 x26:0x00000077  x1:0x00000002 x29=0x00000077
       64005000	      6399	80002430	418ed613	srai	x12,x29,0x18	 x29:0x00000077 x12=0x00000000
       64015000	      6400	80002434	4043d433	sra	x8,x7,x4	  x7:0x81002532  x4:0x0000bdd0  x8=0xffff8100
       64025000	      6401	80002438	463f0d13	addi	x26,x30,1123	 x30:0x00000000 x26=0x00000463
       64035000	      6402	8000243c	01f6ebb3	or	x23,x13,x31	 x13:0xfff57a00 x31:0x8000230c x23=0xfff57b0c
       64045000	      6403	80002440	004012b3	sll	x5,x0,x4	  x0:0x00000000  x4:0x0000bdd0  x5=0x00000000
       64055000	      6404	80002444	0585f263	bgeu	x11,x24,80002488	 x11:0x00000000 x24:0x01000226
       64065000	      6405	80002448	41d6d593	srai	x11,x13,0x1d	 x13:0xfff57a00 x11=0xffffffff
       64075000	      6406	8000244c	a4b08593	addi	x11,x1,-1461	  x1:0x00000002 x11=0xfffffa4d
       64085000	      6407	80002450	0043d4b3	srl	x9,x7,x4	  x7:0x81002532  x4:0x0000bdd0  x9=0x00008100
       64095000	      6408	80002454	c95b8337	lui	x6,0xc95b8	  x6=0xc95b8000
       64105000	      6409	80002458	01c76f33	or	x30,x14,x28	 x14:0xc0801299 x28:0xfffffcf7 x30=0xfffffeff
       64115000	      6410	8000245c	41ac58b3	sra	x17,x24,x26	 x24:0x01000226 x26:0x00000463 x17=0x00200044
       64125000	      6411	80002460	00065bb3	srl	x23,x12,x0	 x12:0x00000000  x0:0x00000000 x23=0x00000000
       64135000	      6412	80002464	0131d233	srl	x4,x3,x19	  x3:0x00000001 x19:0x01000226  x4=0x00000000
       64145000	      6413	80002468	052b8063	beq	x23,x18,800024a8	 x23:0x00000000 x18:0xfffffabd
       64155000	      6414	8000246c	0077de63	bge	x15,x7,80002488	 x15:0x80009fc4  x7:0x81002532
       64165000	      6415	80002470	41e68933	sub	x18,x13,x30	 x13:0xfff57a00 x30:0xfffffeff x18=0xfff57b01
       64175000	      6416	80002474	03001863	bne	x0,x16,800024a4	  x0:0x00000000 x16:0x00000000
       64185000	      6417	80002478	1fd0a593	slti	x11,x1,509	  x1:0x00000002 x11=0x00000001
       64195000	      6418	8000247c	016c4c63	blt	x24,x22,80002494	 x24:0x01000226 x22:0x80009cc4
       64205000	      6419	80002480	00f66e63	bltu	x12,x15,8000249c	 x12:0x00000000 x15:0x80009fc4
       64215000	      6420	00000000	00000013	addi	x0,x0,0	  x0:0x00000000
       64225000	      6421	80002498	00000013	addi	x0,x0,0	  x0:0x00000000
       64235000	      6422	8000249c	412c89b3	sub	x19,x25,x18	 x25:0x80009edc x18:0xfff57b01 x19=0x800b23db
       64245000	      6423	800024a0	b93f8b93	addi	x23,x31,-1133	 x31:0x8000230c x23=0x80001e9f
       64255000	      6424	800024a4	03d4c063	blt	x9,x29,800024c4	  x9:0x00008100 x29:0x00000077
       64265000	      6425	800024a8	009bc533	xor	x10,x23,x9	 x23:0x80001e9f  x9:0x00008100 x10=0x80009f9f
       64275000	      6426	800024ac	036c9263	bne	x25,x22,800024d0	 x25:0x80009edc x22:0x80009cc4
       64285000	      6427	00000000	00000013	addi	x0,x0,0	  x0:0x00000000
       64295000	      6428	800024cc	00000013	addi	x0,x0,0	  x0:0x00000000
       64305000	      6429	800024d0	3da9ad93	slti	x27,x19,986	 x19:0x800b23db x27=0x00000001
       64315000	      6430	800024d4	6a7bce13	xori	x28,x23,1703	 x23:0x80001e9f x28=0x80001838
       64325000	      6431	800024d8	0186bab3	sltu	x21,x13,x24	 x13:0xfff57a00 x24:0x01000226 x21=0x00000000
       64335000	      6432	800024dc	009f81b3	add	x3,x31,x9	 x31:0x8000230c  x9:0x00008100  x3=0x8000a40c
       64345000	      6433	800024e0	01e16d33	or	x26,x2,x30	  x2:0xaa8dd69f x30:0xfffffeff x26=0xfffffeff
       64355000	      6434	800024e4	40bedc13	srai	x24,x29,0xb	 x29:0x00000077 x24=0x00000000
       64365000	      6435	800024e8	f33c7217	auipc	x4,0xf33c7	  x4=0x733c94e4
       64375000	      6436	800024ec	00db4863	blt	x22,x13,800024fc	 x22:0x80009cc4 x13:0xfff57a00
       64385000	      6437	00000000	00000013	addi	x0,x0,0	  x0:0x00000000
       64395000	      6438	800024f8	00000013	addi	x0,x0,0	  x0:0x00000000
       64405000	      6439	800024fc	03f2ec63	bltu	x5,x31,80002534	  x5:0x00000000 x31:0x8000230c
       64415000	      6440	00000000	00000013	addi	x0,x0,0	  x0:0x00000000
       64425000	      6441	80002530	00000013	addi	x0,x0,0	  x0:0x00000000
       64435000	      6442	80002534	01cec033	xor	x0,x29,x28	 x29:0x00000077 x28:0x80001838
       64445000	      6443	80002538	51e3ed13	ori	x26,x7,1310	  x7:0x81002532 x26=0x8100253e
       64455000	      6444	8000253c	ee857693	andi	x13,x10,-280	 x10:0x80009f9f x13=0x80009e88
       64465000	      6445	80002540	01a406b3	add	x13,x8,x26	  x8:0xffff8100 x26:0x8100253e x13=0x80ffa63e
       64475000	      6446	80002544	03625063	bge	x4,x22,80002564	  x4:0x733c94e4 x22:0x80009cc4
       64485000	      6447	00000000	00000013	addi	x0,x0,0	  x0:0x00000000
       64495000	      6448	80002560	00000013	addi	x0,x0,0	  x0:0x00000000
       64505000	      6449	80002564	047e6063	bltu	x28,x7,800025a4	 x28:0x80001838  x7:0x81002532
       64515000	      6450	00000000	00000013	addi	x0,x0,0	  x0:0x00000000
       64525000	      6451	800025a0	00000013	addi	x0,x0,0	  x0:0x00000000
       64535000	      6452	800025a4	73c7b193	sltiu	x3,x15,1852	 x15:0x80009fc4  x3=0x00000000
       64545000	      6453	800025a8	00000013	addi	x0,x0,0	  x0:0x00000000
       64555000	      6454	800025ac	03a49863	bne	x9,x26,800025dc	  x9:0x00008100 x26:0x8100253e
       64565000	      6455	00000000	00000013	addi	x0,x0,0	  x0:0x00000000
       64575000	      6456	800025d8	00000013	addi	x0,x0,0	  x0:0x00000000
       64585000	      6457	800025dc	00c533b3	sltu	x7,x10,x12	 x10:0x80009f9f x12:0x00000000  x7=0x00000000
       64595000	      6458	800025e0	00e2d993	srli	x19,x5,0xe	  x5:0x00000000 x19=0x00000000
       64605000	      6459	800025e4	4d2d5e37	lui	x28,0x4d2d5	 x28=0x4d2d5000
       64615000	      6460	800025e8	03bd7263	bgeu	x26,x27,8000260c	 x26:0x8100253e x27:0x00000001
       64625000	      6461	00000000	00000013	addi	x0,x0,0	  x0:0x00000000
       64635000	      6462	80002608	00000013	addi	x0,x0,0	  x0:0x00000000
       64645000	      6463	8000260c	5d26d937	lui	x18,0x5d26d	 x18=0x5d26d000
       64655000	      6464	80002610	ed553e13	sltiu	x28,x10,-299	 x10:0x80009f9f x28=0x00000001
       64665000	      6465	80002614	0106fe63	bgeu	x13,x16,80002630	 x13:0x80ffa63e x16:0x00000000
       64675000	      6466	00000000	00000013	addi	x0,x0,0	  x0:0x00000000
       64685000	      6467	8000262c	00000013	addi	x0,x0,0	  x0:0x00000000
       64695000	      6468	80002630	00ab2d33	slt	x26,x22,x10	 x22:0x80009cc4 x10:0x80009f9f x26=0x00000001
       64705000	      6469	80002634	05740063	beq	x8,x23,80002674	  x8:0xffff8100 x23:0x80001e9f
       64715000	      6470	80002638	3d42b893	sltiu	x17,x5,980	  x5:0x00000000 x17=0x00000001
       64725000	      6471	8000263c	006e8433	add	x8,x29,x6	 x29:0x00000077  x6:0xc95b8000  x8=0xc95b8077
       64735000	      6472	80002640	22402c13	slti	x24,x0,548	  x0:0x00000000 x24=0x00000001
       64745000	      6473	80002644	afd97093	andi	x1,x18,-1283	 x18:0x5d26d000  x1=0x5d26d000
       64755000	      6474	80002648	00bd8e63	beq	x27,x11,80002664	 x27:0x00000001 x11:0x00000001
       64765000	      6475	00000000	00000013	addi	x0,x0,0	  x0:0x00000000
       64775000	      6476	80002660	00000013	addi	x0,x0,0	  x0:0x00000000
       64785000	      6477	80002664	019d9663	bne	x27,x25,80002670	 x27:0x00000001 x25:0x80009edc
       64795000	      6478	00000000	00000013	addi	x0,x0,0	  x0:0x00000000
       64805000	      6479	8000266c	00000013	addi	x0,x0,0	  x0:0x00000000
       64815000	      6480	80002670	f57fae37	lui	x28,0xf57fa	 x28=0xf57fa000
       64825000	      6481	80002674	87df0d93	addi	x27,x30,-1923	 x30:0xfffffeff x27=0xfffff77c
       64835000	      6482	80002678	007f9f93	slli	x31,x31,0x7	 x31:0x8000230c x31=0x00118600
       64845000	      6483	8000267c	02aa4c63	blt	x20,x10,800026b4	 x20:0x80009edc x10:0x80009f9f
       64855000	      6484	00000000	00000013	addi	x0,x0,0	  x0:0x00000000
       64865000	      6485	800026b0	00000013	addi	x0,x0,0	  x0:0x00000000
       64875000	      6486	800026b4	002a6463	bltu	x20,x2,800026bc	 x20:0x80009edc  x2:0xaa8dd69f
       64885000	      6487	00000000	00000013	addi	x0,x0,0	  x0:0x00000000
       64895000	      6488	800026b8	00000013	addi	x0,x0,0	  x0:0x00000000
       64905000	      6489	800026bc	40a55f13	srai	x30,x10,0xa	 x10:0x80009f9f x30=0xffe00027
       64915000	      6490	800026c0	41eade93	srai	x29,x21,0x1e	 x21:0x00000000 x29=0x00000000
       64925000	      6491	800026c4	0160fc63	bgeu	x1,x22,800026dc	  x1:0x5d26d000 x22:0x80009cc4
       64935000	      6492	800026c8	13a28b93	addi	x23,x5,314	  x5:0x00000000 x23=0x0000013a
       64945000	      6493	800026cc	433dc293	xori	x5,x27,1075	 x27:0xfffff77c  x5=0xfffff34f
       64955000	      6494	800026d0	9db42d13	slti	x26,x8,-1573	  x8:0xc95b8077 x26=0x00000001
       64965000	      6495	800026d4	f0f93513	sltiu	x10,x18,-241	 x18:0x5d26d000 x10=0x00000001
       64975000	      6496	800026d8	00f86033	or	x0,x16,x15	 x16:0x00000000 x15:0x80009fc4
       64985000	      6497	800026dc	02896663	bltu	x18,x8,80002708	 x18:0x5d26d000  x8:0xc95b8077
       64995000	      6498	00000000	00000013	addi	x0,x0,0	  x0:0x00000000
       65005000	      6499	80002704	00000013	addi	x0,x0,0	  x0:0x00000000
       65015000	      6500	80002708	01ae7e33	and	x28,x28,x26	 x28:0xf57fa000 x26:0x00000001 x28=0x00000000
       65025000	      6501	8000270c	772faf13	slti	x30,x31,1906	 x31:0x00118600 x30=0x00000000
       65035000	      6502	80002710	9a314e17	auipc	x28,0x9a314	 x28=0x1a31670c
       65045000	      6503	80002714	004caf83	lw	x31,4(x25)	 x25:0x80009edc x31=0x80006654 PA:0x80009ee0
       65055000	      6504	80002718	006f1233	sll	x4,x30,x6	 x30:0x00000000  x6:0xc95b8000  x4=0x00000000
       65065000	      6505	8000271c	040c8c93	addi	x25,x25,64	 x25:0x80009edc x25=0x80009f1c
       65075000	      6506	80002720	28e23093	sltiu	x1,x4,654	  x4:0x00000000  x1=0x00000001
       65085000	      6507	80002724	2cfdaa93	slti	x21,x27,719	 x27:0xfffff77c x21=0x00000001
       65095000	      6508	80002728	c0f7bb93	sltiu	x23,x15,-1009	 x15:0x80009fc4 x23=0x00000001
       65105000	      6509	8000272c	010b1613	slli	x12,x22,0x10	 x22:0x80009cc4 x12=0x9cc40000
       65115000	      6510	80002730	001f8893	addi	x17,x31,1	 x31:0x80006654 x17=0x80006655
       65125000	      6511	80002734	000888e7	jalr	x17,x17,0	 x17:0x80006655 x17=0x80002734
       65135000	      6512	00000000	00000013	addi	x0,x0,0	  x0:0x00000000
       65145000	      6513	80006654	00000013	addi	x0,x0,0	  x0:0x00000000
       65155000	      6514	80006658	78cf5eb7	lui	x29,0x78cf5	 x29=0x78cf5000
       65165000	      6515	8000665c	ea7a4013	xori	x0,x20,-345	 x20:0x80009edc
       65175000	      6516	80006660	86786a93	ori	x21,x16,-1945	 x16:0x00000000 x21=0xfffff867
       65185000	      6517	80006664	008de1b3	or	x3,x27,x8	 x27:0xfffff77c  x8:0xc95b8077  x3=0xfffff77f
       65195000	      6518	80006668	01b9d3b3	srl	x7,x19,x27	 x19:0x00000000 x27:0xfffff77c  x7=0x00000000
       65205000	      6519	8000666c	e1a66993	ori	x19,x12,-486	 x12:0x9cc40000 x19=0xfffffe1a
       65215000	      6520	80006670	8a14e893	ori	x17,x9,-1887	  x9:0x00008100 x17=0xfffff9a1
       65225000	      6521	80006674	415ed4b3	sra	x9,x29,x21	 x29:0x78cf5000 x21:0xfffff867  x9=0x00f19ea0
       65235000	      6522	80006678	00aeee33	or	x28,x29,x10	 x29:0x78cf5000 x10:0x00000001 x28=0x78cf5001
       65245000	      6523	8000667c	0198c463	blt	x17,x25,80006684	 x17:0xfffff9a1 x25:0x80009f1c
       65255000	      6524	80006680	00da1213	slli	x4,x20,0xd	 x20:0x80009edc  x4=0x13db8000
       65265000	      6525	80006684	ef9f9fef	jal	x31,80006684	 x31=0x80006684
       65275000	      6526	00000000	00000013	addi	x0,x0,0	  x0:0x00000000
       65285000	      6527	80000578	00000013	addi	x0,x0,0	  x0:0x00000000
       65295000	      6528	8000057c	00cd9263	bne	x27,x12,80000580	 x27:0xfffff77c x12:0x9cc40000
       65305000	      6529	00000000	00000013	addi	x0,x0,0	  x0:0x00000000
       65315000	      6530	8000057c	00000013	addi	x0,x0,0	  x0:0x00000000
       65325000	      6531	80000580	fecc8c93	addi	x25,x25,-20	 x25:0x80009f1c x25=0x80009f08
       65335000	      6532	80000584	402d85b3	sub	x11,x27,x2	 x27:0xfffff77c  x2:0xaa8dd69f x11=0x557220dd
       65345000	      6533	80000588	01fca223	sw	x31,4(x25)	 x25:0x80009f08 x31:0x80006684 PA:0x80009f0c
       65355000	      6534	8000058c	01055713	srli	x14,x10,0x10	 x10:0x00000001 x14=0x00000000
       65365000	      6535	80000590	3dfba817	auipc	x16,0x3dfba	 x16=0xbdfba58c
       65375000	      6536	80000594	01039593	slli	x11,x7,0x10	  x7:0x00000000 x11=0x00000000
       65385000	      6537	80000598	019d9db3	sll	x27,x27,x25	 x27:0xfffff77c x25:0x80009f08 x27=0xfff77c00
       65395000	      6538	8000059c	00008497	auipc	x9,0x8	  x9=0x80008598
       65405000	      6539	800005a0	f0548493	addi	x9,x9,-251	  x9:0x80008598  x9=0x8000849d
       65415000	      6540	800005a4	00000013	addi	x0,x0,0	  x0:0x00000000
       65425000	      6541	800005a8	2e7488a3	sb	x7,753(x9)	  x9:0x8000849d  x7:0x00000000 PA:0x8000878e
       65435000	      6542	800005ac	00dacf33	xor	x30,x21,x13	 x21:0xfffff867 x13:0x80ffa63e x30=0x7f005e59
       65445000	      6543	800005b0	2524ea93	ori	x21,x9,594	  x9:0x8000849d x21=0x800086df
       65455000	      6544	800005b4	e1648313	addi	x6,x9,-490	  x9:0x8000849d  x6=0x800082b3
       65465000	      6545	800005b8	01126633	or	x12,x4,x17	  x4:0x13db8000 x17:0xfffff9a1 x12=0xfffff9a1
       65475000	      6546	800005bc	01784f33	xor	x30,x16,x23	 x16:0xbdfba58c x23:0x00000001 x30=0xbdfba58d
       65485000	      6547	800005c0	0085cab3	xor	x21,x11,x8	 x11:0x00000000  x8:0xc95b8077 x21=0xc95b8077
       65495000	      6548	800005c4	22e482a3	sb	x14,549(x9)	  x9:0x8000849d x14:0x00000000 PA:0x800086c2
       65505000	      6549	800005c8	cc04afa3	sw	x0,-801(x9)	  x9:0x8000849d  x0:0x00000000 PA:0x8000817c
       65515000	      6550	800005cc	aa74e417	auipc	x8,0xaa74e	  x8=0x2a74e5c8
       65525000	      6551	800005d0	dcb48223	sb	x11,-572(x9)	  x9:0x8000849d x11:0x00000000 PA:0x80008261
       65535000	      6552	800005d4	e604c083	lbu	x1,-416(x9)	  x9:0x8000849d  x1=0x00000074 PA:0x800082fd
       65545000	      6553	800005d8	d0949083	lh	x1,-759(x9)	  x9:0x8000849d  x1=0x00002e12 PA:0x800081a6
       65555000	      6554	800005dc	93093513	sltiu	x10,x18,-1744	 x18:0x5d26d000 x10=0x00000001
       65565000	      6555	800005e0	ffc48a83	lb	x21,-4(x9)	  x9:0x8000849d x21=0xffffffae PA:0x80008499
       65575000	      6556	800005e4	e3e48203	lb	x4,-450(x9)	  x9:0x8000849d  x4=0x00000025 PA:0x800082db
       65585000	      6557	800005e8	01151f13	slli	x30,x10,0x11	 x10:0x00000001 x30=0x00020000
       65595000	      6558	800005ec	1b748303	lb	x6,439(x9)	  x9:0x8000849d  x6=0xffffff9a PA:0x80008654
       65605000	      6559	800005f0	e3b4a303	lw	x6,-453(x9)	  x9:0x8000849d  x6=0x25943251 PA:0x800082d8
       65615000	      6560	800005f4	ec34ad03	lw	x26,-317(x9)	  x9:0x8000849d x26=0x7139070b PA:0x80008360
       65625000	      6561	800005f8	00dab533	sltu	x10,x21,x13	 x21:0xffffffae x13:0x80ffa63e x10=0x00000000
       65635000	      6562	800005fc	de549683	lh	x13,-539(x9)	  x9:0x8000849d x13=0xffffcb89 PA:0x80008282
       65645000	      6563	80000600	dc149a83	lh	x21,-575(x9)	  x9:0x8000849d x21=0xffffb603 PA:0x8000825e
       65655000	      6564	80000604	1e549d83	lh	x27,485(x9)	  x9:0x8000849d x27=0xffffd267 PA:0x80008682
       65665000	      6565	80000608	29d49383	lh	x7,669(x9)	  x9:0x8000849d  x7=0xffff8f93 PA:0x8000873a
       65675000	      6566	8000060c	2cc48d23	sb	x12,730(x9)	  x9:0x8000849d x12:0xfffff9a1 PA:0x80008777
       65685000	      6567	80000610	35f48083	lb	x1,863(x9)	  x9:0x8000849d  x1=0x00000034 PA:0x800087fc
       65695000	      6568	80000614	120aa713	slti	x14,x21,288	 x21:0xffffb603 x14=0x00000001
       65705000	      6569	80000618	00772933	slt	x18,x14,x7	 x14:0x00000001  x7:0xffff8f93 x18=0x00000000
       65715000	      6570	8000061c	dd348823	sb	x19,-560(x9)	  x9:0x8000849d x19:0xfffffe1a PA:0x8000826d
       65725000	      6571	80000620	14948b03	lb	x22,329(x9)	  x9:0x8000849d x22=0x00000006 PA:0x800085e6
       65735000	      6572	80000624	05b8e5b7	lui	x11,0x5b8e	 x11=0x05b8e000
       65745000	      6573	80000628	c474cc03	lbu	x24,-953(x9)	  x9:0x8000849d x24=0x0000002d PA:0x800080e4
       65755000	      6574	8000062c	404b5033	sra	x0,x22,x4	 x22:0x00000006  x4:0x00000025
       65765000	      6575	80000630	3174aba3	sw	x23,791(x9)	  x9:0x8000849d x23:0x00000001 PA:0x800087b4
       65775000	      6576	80000634	cea48e23	sb	x10,-772(x9)	  x9:0x8000849d x10:0x00000000 PA:0x80008199
       65785000	      6577	80000638	bdaec517	auipc	x10,0xbdaec	 x10=0x3daec634
       65795000	      6578	8000063c	00848523	sb	x8,10(x9)	  x9:0x8000849d  x8:0x2a74e5c8 PA:0x800084a7
       65805000	      6579	80000640	c45c8917	auipc	x18,0xc45c8	 x18=0x445c863c
       65815000	      6580	80000644	c78485a3	sb	x24,-917(x9)	  x9:0x8000849d x24:0x0000002d PA:0x80008108
       65825000	      6581	80000648	c5648323	sb	x22,-954(x9)	  x9:0x8000849d x22:0x00000006 PA:0x800080e3
       65835000	      6582	8000064c	40bcd393	srai	x7,x25,0xb	 x25:0x80009f08  x7=0xfff00013
       65845000	      6583	80000650	52bca817	auipc	x16,0x52bca	 x16=0xd2bca64c
       65855000	      6584	80000654	ce048a03	lb	x20,-800(x9)	  x9:0x8000849d x20=0x00000000 PA:0x8000817d
       65865000	      6585	80000658	41395993	srai	x19,x18,0x13	 x18:0x445c863c x19=0x0000088b
       65875000	      6586	8000065c	01133933	sltu	x18,x6,x17	  x6:0x25943251 x17:0xfffff9a1 x18=0x00000001
       65885000	      6587	80000660	e994ca83	lbu	x21,-359(x9)	  x9:0x8000849d x21=0x00000093 PA:0x80008336
       65895000	      6588	80000664	d6a8fa93	andi	x21,x17,-662	 x17:0xfffff9a1 x21=0xfffff920
       65905000	      6589	80000668	411b0a33	sub	x20,x22,x17	 x22:0x00000006 x17:0xfffff9a1 x20=0x00000665
       65915000	      6590	8000066c	eef48423	sb	x15,-280(x9)	  x9:0x8000849d x15:0x80009fc4 PA:0x80008385
       65925000	      6591	80000670	016cd813	srli	x16,x25,0x16	 x25:0x80009f08 x16=0x00000200
       65935000	      6592	80000674	40a20f33	sub	x30,x4,x10	  x4:0x00000025 x10:0x3daec634 x30=0xc25139f1
       65945000	      6593	80000678	bd5487a3	sb	x21,-1073(x9)	  x9:0x8000849d x21:0xfffff920 PA:0x8000806c
       65955000	      6594	8000067c	5b937a17	auipc	x20,0x5b937	 x20=0xdb937678
       65965000	      6595	80000680	013abc33	sltu	x24,x21,x19	 x21:0xfffff920 x19:0x0000088b x24=0x00000000
       65975000	      6596	80000684	9d287213	andi	x4,x16,-1582	 x16:0x00000200  x4=0x00000000
       65985000	      6597	80000688	00000013	addi	x0,x0,0	  x0:0x00000000
       65995000	      6598	8000068c	019cd863	bge	x25,x25,8000069c	 x25:0x80009f08 x25:0x80009f08
       66005000	      6599	00000000	00000013	addi	x0,x0,0	  x0:0x00000000
       66015000	      6600	80000698	00000013	addi	x0,x0,0	  x0:0x00000000
       66025000	      6601	8000069c	00ae1993	slli	x19,x28,0xa	 x28:0x78cf5001 x19=0x3d400400
       66035000	      6602	800006a0	0547e663	bltu	x15,x20,800006ec	 x15:0x80009fc4 x20:0xdb937678
       66045000	      6603	00000000	00000013	addi	x0,x0,0	  x0:0x00000000
       66055000	      6604	800006e8	00000013	addi	x0,x0,0	  x0:0x00000000
       66065000	      6605	800006ec	00ad62b3	or	x5,x26,x10	 x26:0x7139070b x10:0x3daec634  x5=0x7dbfc73f
       66075000	      6606	800006f0	ed5dae93	slti	x29,x27,-299	 x27:0xffffd267 x29=0x00000001
       66085000	      6607	800006f4	00000013	addi	x0,x0,0	  x0:0x00000000
       66095000	      6608	800006f8	00e09533	sll	x10,x1,x14	  x1:0x00000034 x14:0x00000001 x10=0x00000068
       66105000	      6609	800006fc	41520ab3	sub	x21,x4,x21	  x4:0x00000000 x21:0xfffff920 x21=0x000006e0
       66115000	      6610	80000700	0074a9b3	slt	x19,x9,x7	  x9:0x8000849d  x7:0xfff00013 x19=0x00000001
       66125000	      6611	80000704	500dcb97	auipc	x23,0x500dc	 x23=0xd00dc700
       66135000	      6612	80000708	01e4e9b3	or	x19,x9,x30	  x9:0x8000849d x30:0xc25139f1 x19=0xc251bdfd
       66145000	      6613	8000070c	010640b3	xor	x1,x12,x16	 x12:0xfffff9a1 x16:0x00000200  x1=0xfffffba1
       66155000	      6614	80000710	00a0f863	bgeu	x1,x10,80000720	  x1:0xfffffba1 x10:0x00000068
       66165000	      6615	00000000	00000013	addi	x0,x0,0	  x0:0x00000000
       66175000	      6616	8000071c	00000013	addi	x0,x0,0	  x0:0x00000000
       66185000	      6617	80000720	c1436693	ori	x13,x6,-1004	  x6:0x25943251 x13=0xfffffe55
       66195000	      6618	80000724	00162033	slt	x0,x12,x1	 x12:0xfffff9a1  x1:0xfffffba1
       66205000	      6619	80000728	0114ca63	blt	x9,x17,8000073c	  x9:0x8000849d x17:0xfffff9a1
       66215000	      6620	00000000	00000013	addi	x0,x0,0	  x0:0x00000000
       66225000	      6621	80000738	00000013	addi	x0,x0,0	  x0:0x00000000
       66235000	      6622	8000073c	4110de13	srai	x28,x1,0x11	  x1:0xfffffba1 x28=0xffffffff
       66245000	      6623	80000740	00000013	addi	x0,x0,0	  x0:0x00000000
       66255000	      6624	80000744	e937ab13	slti	x22,x15,-365	 x15:0x80009fc4 x22=0x00000001
       66265000	      6625	80000748	f9c72237	lui	x4,0xf9c72	  x4=0xf9c72000
       66275000	      6626	8000074c	9585c193	xori	x3,x11,-1704	 x11:0x05b8e000  x3=0xfa471958
       66285000	      6627	80000750	02ca9037	lui	x0,0x2ca9	
       66295000	      6628	80000754	00b41893	slli	x17,x8,0xb	  x8:0x2a74e5c8 x17=0xa72e4000
       66305000	      6629	80000758	00000013	addi	x0,x0,0	  x0:0x00000000
       66315000	      6630	8000075c	01e31493	slli	x9,x6,0x1e	  x6:0x25943251  x9=0x40000000
       66325000	      6631	80000760	00000013	addi	x0,x0,0	  x0:0x00000000
       66335000	      6632	80000764	0133e033	or	x0,x7,x19	  x7:0xfff00013 x19:0xc251bdfd
       66345000	      6633	80000768	018f8533	add	x10,x31,x24	 x31:0x80006684 x24:0x00000000 x10=0x80006684
       66355000	      6634	8000076c	5f5d0213	addi	x4,x26,1525	 x26:0x7139070b  x4=0x71390d00
       66365000	      6635	80000770	002c1913	slli	x18,x24,0x2	 x24:0x00000000 x18=0x00000000
       66375000	      6636	80000774	007c1013	slli	x0,x24,0x7	 x24:0x00000000
       66385000	      6637	80000778	0080d993	srli	x19,x1,0x8	  x1:0xfffffba1 x19=0x00fffffb
       66395000	      6638	8000077c	e5777013	andi	x0,x14,-425	 x14:0x00000001
       66405000	      6639	80000780	02291e63	bne	x18,x2,800007bc	 x18:0x00000000  x2:0xaa8dd69f
       66415000	      6640	00000000	00000013	addi	x0,x0,0	  x0:0x00000000
       66425000	      6641	800007b8	00000013	addi	x0,x0,0	  x0:0x00000000
       66435000	      6642	800007bc	01e02bb3	slt	x23,x0,x30	  x0:0x00000000 x30:0xc25139f1 x23=0x00000000
       66445000	      6643	800007c0	00169db3	sll	x27,x13,x1	 x13:0xfffffe55  x1:0xfffffba1 x27=0xfffffcaa
       66455000	      6644	800007c4	333dfd13	andi	x26,x27,819	 x27:0xfffffcaa x26=0x00000022
       66465000	      6645	800007c8	41d6d493	srai	x9,x13,0x1d	 x13:0xfffffe55  x9=0xffffffff
       66475000	      6646	800007cc	00b03433	sltu	x8,x0,x11	  x0:0x00000000 x11:0x05b8e000  x8=0x00000001
       66485000	      6647	800007d0	c9e87593	andi	x11,x16,-866	 x16:0x00000200 x11=0x00000000
       66495000	      6648	800007d4	00333633	sltu	x12,x6,x3	  x6:0x25943251  x3:0xfa471958 x12=0x00000001
       66505000	      6649	800007d8	417d8d33	sub	x26,x27,x23	 x27:0xfffffcaa x23:0x00000000 x26=0xfffffcaa
       66515000	      6650	800007dc	02596263	bltu	x18,x5,80000800	 x18:0x00000000  x5:0x7dbfc73f
       66525000	      6651	00000000	00000013	addi	x0,x0,0	  x0:0x00000000
       66535000	      6652	800007fc	00000013	addi	x0,x0,0	  x0:0x00000000
       66545000	      6653	80000800	546b3b13	sltiu	x22,x22,1350	 x22:0x00000001 x22=0x00000001
       66555000	      6654	80000804	00b75bb3	srl	x23,x14,x11	 x14:0x00000001 x11:0x00000000 x23=0x00000001
       66565000	      6655	80000808	0136eb33	or	x22,x13,x19	 x13:0xfffffe55 x19:0x00fffffb x22=0xffffffff
       66575000	      6656	8000080c	40cc0eb3	sub	x29,x24,x12	 x24:0x00000000 x12:0x00000001 x29=0xffffffff
       66585000	      6657	80000810	00d7e833	or	x16,x15,x13	 x15:0x80009fc4 x13:0xfffffe55 x16=0xffffffd5
       66595000	      6658	80000814	27cfdb17	auipc	x22,0x27cfd	 x22=0xa7cfd810
       66605000	      6659	80000818	00000013	addi	x0,x0,0	  x0:0x00000000
       66615000	      6660	8000081c	00781863	bne	x16,x7,8000082c	 x16:0xffffffd5  x7:0xfff00013
       66625000	      6661	00000000	00000013	addi	x0,x0,0	  x0:0x00000000
       66635000	      6662	80000828	00000013	addi	x0,x0,0	  x0:0x00000000
       66645000	      6663	8000082c	01279e93	slli	x29,x15,0x12	 x15:0x80009fc4 x29=0x7f100000
       66655000	      6664	80000830	00065a93	srli	x21,x12,0x0	 x12:0x00000001 x21=0x00000001
       66665000	      6665	80000834	00d9dab3	srl	x21,x19,x13	 x19:0x00fffffb x13:0xfffffe55 x21=0x00000007
       66675000	      6666	80000838	a4faab93	slti	x23,x21,-1457	 x21:0x00000007 x23=0x00000000
       66685000	      6667	8000083c	01c7e033	or	x0,x15,x28	 x15:0x80009fc4 x28:0xffffffff
       66695000	      6668	80000840	014f8533	add	x10,x31,x20	 x31:0x80006684 x20:0xdb937678 x10=0x5b93dcfc
       66705000	      6669	80000844	033d5063	bge	x26,x19,80000864	 x26:0xfffffcaa x19:0x00fffffb
       66715000	      6670	80000848	413cd033	sra	x0,x25,x19	 x25:0x80009f08 x19:0x00fffffb
       66725000	      6671	8000084c	401c5a33	sra	x20,x24,x1	 x24:0x00000000  x1:0xfffffba1 x20=0x00000000
       66735000	      6672	80000850	015a5863	bge	x20,x21,80000860	 x20:0x00000000 x21:0x00000007
       66745000	      6673	80000854	40d55913	srai	x18,x10,0xd	 x10:0x5b93dcfc x18=0x0002dc9e
       66755000	      6674	80000858	0027c4b3	xor	x9,x15,x2	 x15:0x80009fc4  x2:0xaa8dd69f  x9=0x2a8d495b
       66765000	      6675	8000085c	1bb44313	xori	x6,x8,443	  x8:0x00000001  x6=0x000001ba
       66775000	      6676	80000860	41150c33	sub	x24,x10,x17	 x10:0x5b93dcfc x17:0xa72e4000 x24=0xb4659cfc
       66785000	      6677	80000864	67808013	addi	x0,x1,1656	  x1:0xfffffba1
       66795000	      6678	80000868	00000013	addi	x0,x0,0	  x0:0x00000000
       66805000	      6679	8000086c	63833313	sltiu	x6,x6,1592	  x6:0x000001ba  x6=0x00000001
       66815000	      6680	80000870	d4d03913	sltiu	x18,x0,-691	  x0:0x00000000 x18=0x00000001
       66825000	      6681	80000874	ad1bfe93	andi	x29,x23,-1327	 x23:0x00000000 x29=0x00000000
       66835000	      6682	80000878	addc7697	auipc	x13,0xaddc7	 x13=0x2ddc7874
       66845000	      6683	8000087c	40738c33	sub	x24,x7,x7	  x7:0xfff00013  x7:0xfff00013 x24=0x00000000
       66855000	      6684	80000880	00e390b3	sll	x1,x7,x14	  x7:0xfff00013 x14:0x00000001  x1=0xffe00026
       66865000	      6685	80000884	0158d433	srl	x8,x17,x21	 x17:0xa72e4000 x21:0x00000007  x8=0x014e5c80
       66875000	      6686	80000888	0063f5b3	and	x11,x7,x6	  x7:0xfff00013  x6:0x00000001 x11=0x00000001
       66885000	      6687	8000088c	01e15213	srli	x4,x2,0x1e	  x2:0xaa8dd69f  x4=0x00000002
       66895000	      6688	80000890	122fc593	xori	x11,x31,290	 x31:0x80006684 x11=0x800067a6
       66905000	      6689	80000894	2f4c7693	andi	x13,x24,756	 x24:0x00000000 x13=0x00000000
       66915000	      6690	80000898	017570b3	and	x1,x10,x23	 x10:0x5b93dcfc x23:0x00000000  x1=0x00000000
       66925000	      6691	8000089c	40958b33	sub	x22,x11,x9	 x11:0x800067a6  x9:0x2a8d495b x22=0x55731e4b
       66935000	      6692	800008a0	039eec63	bltu	x29,x25,800008d8	 x29:0x00000000 x25:0x80009f08
       66945000	      6693	00000000	00000013	addi	x0,x0,0	  x0:0x00000000
       66955000	      6694	800008d4	00000013	addi	x0,x0,0	  x0:0x00000000
       66965000	      6695	800008d8	01b32433	slt	x8,x6,x27	  x6:0x00000001 x27:0xfffffcaa  x8=0x00000000
       66975000	      6696	800008dc	f6946d93	ori	x27,x8,-151	  x8:0x00000000 x27=0xffffff69
       66985000	      6697	800008e0	405edb33	sra	x22,x29,x5	 x29:0x00000000  x5:0x7dbfc73f x22=0x00000000
       66995000	      6698	800008e4	01171fb3	sll	x31,x14,x17	 x14:0x00000001 x17:0xa72e4000 x31=0x00000001
       67005000	      6699	800008e8	010b9813	slli	x16,x23,0x10	 x23:0x00000000 x16=0x00000000
       67015000	      6700	800008ec	00145193	srli	x3,x8,0x1	  x8:0x00000000  x3=0x00000000
       67025000	      6701	800008f0	411002b3	sub	x5,x0,x17	  x0:0x00000000 x17:0xa72e4000  x5=0x58d1c000
       67035000	      6702	800008f4	039b1e63	bne	x22,x25,80000930	 x22:0x00000000 x25:0x80009f08
       67045000	      6703	00000000	00000013	addi	x0,x0,0	  x0:0x00000000
       67055000	      6704	8000092c	00000013	addi	x0,x0,0	  x0:0x00000000
       67065000	      6705	80000930	353bd917	auipc	x18,0x353bd	 x18=0xb53bd92c
       67075000	      6706	80000934	00613fb3	sltu	x31,x2,x6	  x2:0xaa8dd69f  x6:0x00000001 x31=0x00000000
       67085000	      6707	80000938	0059c663	blt	x19,x5,80000944	 x19:0x00fffffb  x5:0x58d1c000
       67095000	      6708	00000000	00000013	addi	x0,x0,0	  x0:0x00000000
       67105000	      6709	80000940	00000013	addi	x0,x0,0	  x0:0x00000000
       67115000	      6710	80000944	01848863	beq	x9,x24,80000954	  x9:0x2a8d495b x24:0x00000000
       67125000	      6711	80000948	41c20733	sub	x14,x4,x28	  x4:0x00000002 x28:0xffffffff x14=0x00000003
       67135000	      6712	8000094c	fed02413	slti	x8,x0,-19	  x0:0x00000000  x8=0x00000000
       67145000	      6713	80000950	0125c2b3	xor	x5,x11,x18	 x11:0x800067a6 x18:0xb53bd92c  x5=0x353bbe8a
       67155000	      6714	80000954	015f20b3	slt	x1,x30,x21	 x30:0xc25139f1 x21:0x00000007  x1=0x00000001
       67165000	      6715	80000958	2ddd6893	ori	x17,x26,733	 x26:0xfffffcaa x17=0xfffffeff
       67175000	      6716	8000095c	00aa4d33	xor	x26,x20,x10	 x20:0x00000000 x10:0x5b93dcfc x26=0x5b93dcfc
       67185000	      6717	80000960	0f4b8663	beq	x23,x20,80000a4c	 x23:0x00000000 x20:0x00000000
       67195000	      6718	00000000	00000013	addi	x0,x0,0	  x0:0x00000000
       67205000	      6719	80000a48	00000013	addi	x0,x0,0	  x0:0x00000000
       67215000	      6720	80000a4c	5f4e3513	sltiu	x10,x28,1524	 x28:0xffffffff x10=0x00000000
       67225000	      6721	80000a50	8f23f993	andi	x19,x7,-1806	  x7:0xfff00013 x19=0xfff00012
       67235000	      6722	80000a54	a1f75db7	lui	x27,0xa1f75	 x27=0xa1f75000
       67245000	      6723	80000a58	016cda33	srl	x20,x25,x22	 x25:0x80009f08 x22:0x00000000 x20=0x80009f08
       67255000	      6724	80000a5c	01e07eb3	and	x29,x0,x30	  x0:0x00000000 x30:0xc25139f1 x29=0x00000000
       67265000	      6725	80000a60	40625b93	srai	x23,x4,0x6	  x4:0x00000002 x23=0x00000000
       67275000	      6726	80000a64	00b9c5b3	xor	x11,x19,x11	 x19:0xfff00012 x11:0x800067a6 x11=0x7ff067b4
       67285000	      6727	80000a68	00000013	addi	x0,x0,0	  x0:0x00000000
       67295000	      6728	80000a6c	a8d84893	xori	x17,x16,-1395	 x16:0x00000000 x17=0xfffffa8d
       67305000	      6729	80000a70	00e04c33	xor	x24,x0,x14	  x0:0x00000000 x14:0x00000003 x24=0x00000003
       67315000	      6730	80000a74	018ca4b3	slt	x9,x25,x24	 x25:0x80009f08 x24:0x00000003  x9=0x00000001
       67325000	      6731	80000a78	fd7fc093	xori	x1,x31,-41	 x31:0x00000000  x1=0xffffffd7
       67335000	      6732	80000a7c	01525c63	bge	x4,x21,80000a94	  x4:0x00000002 x21:0x00000007
       67345000	      6733	80000a80	04c80063	beq	x16,x12,80000ac0	 x16:0x00000000 x12:0x00000001
       67355000	      6734	80000a84	019f2f33	slt	x30,x30,x25	 x30:0xc25139f1 x25:0x80009f08 x30=0x00000000
       67365000	      6735	80000a88	01cbf1b3	and	x3,x23,x28	 x23:0x00000000 x28:0xffffffff  x3=0x00000000
       67375000	      6736	80000a8c	0153d863	bge	x7,x21,80000a9c	  x7:0xfff00013 x21:0x00000007
       67385000	      6737	80000a90	00415fb3	srl	x31,x2,x4	  x2:0xaa8dd69f  x4:0x00000002 x31=0x2aa375a7
       67395000	      6738	80000a94	0043e933	or	x18,x7,x4	  x7:0xfff00013  x4:0x00000002 x18=0xfff00013
       67405000	      6739	80000a98	01881b13	slli	x22,x16,0x18	 x16:0x00000000 x22=0x00000000
       67415000	      6740	80000a9c	00000013	addi	x0,x0,0	  x0:0x00000000
       67425000	      6741	80000aa0	ee736593	ori	x11,x6,-281	  x6:0x00000001 x11=0xfffffee7
       67435000	      6742	80000aa4	81886e93	ori	x29,x16,-2024	 x16:0x00000000 x29=0xfffff818
       67445000	      6743	80000aa8	016a9313	slli	x6,x21,0x16	 x21:0x00000007  x6=0x01c00000
       67455000	      6744	80000aac	cc19c493	xori	x9,x19,-831	 x19:0xfff00012  x9=0x000ffcd3
       67465000	      6745	80000ab0	e6e87713	andi	x14,x16,-402	 x16:0x00000000 x14=0x00000000
       67475000	      6746	80000ab4	415255b3	sra	x11,x4,x21	  x4:0x00000002 x21:0x00000007 x11=0x00000000
       67485000	      6747	80000ab8	033c6463	bltu	x24,x19,80000ae0	 x24:0x00000003 x19:0xfff00012
       67495000	      6748	00000000	00000013	addi	x0,x0,0	  x0:0x00000000
       67505000	      6749	80000adc	00000013	addi	x0,x0,0	  x0:0x00000000
       67515000	      6750	80000ae0	02a70463	beq	x14,x10,80000b08	 x14:0x00000000 x10:0x00000000
       67525000	      6751	00000000	00000013	addi	x0,x0,0	  x0:0x00000000
       67535000	      6752	80000b04	00000013	addi	x0,x0,0	  x0:0x00000000
       67545000	      6753	80000b08	04fc0663	beq	x24,x15,80000b54	 x24:0x00000003 x15:0x80009fc4
       67555000	      6754	80000b0c	c92cce97	auipc	x29,0xc92cc	 x29=0x492ccb08
       67565000	      6755	80000b10	da828337	lui	x6,0xda828	  x6=0xda828000
       67575000	      6756	80000b14	400ad3b3	sra	x7,x21,x0	 x21:0x00000007  x0:0x00000000  x7=0x00000007
       67585000	      6757	80000b18	41ee05b3	sub	x11,x28,x30	 x28:0xffffffff x30:0x00000000 x11=0xffffffff
       67595000	      6758	80000b1c	00000013	addi	x0,x0,0	  x0:0x00000000
       67605000	      6759	80000b20	4008d5b3	sra	x11,x17,x0	 x17:0xfffffa8d  x0:0x00000000 x11=0xfffffa8d
       67615000	      6760	80000b24	008f4ab3	xor	x21,x30,x8	 x30:0x00000000  x8:0x00000000 x21=0x00000000
       67625000	      6761	80000b28	40530fb3	sub	x31,x6,x5	  x6:0xda828000  x5:0x353bbe8a x31=0xa546c176
       67635000	      6762	80000b2c	dcc02413	slti	x8,x0,-564	  x0:0x00000000  x8=0x00000000
       67645000	      6763	80000b30	0091d893	srli	x17,x3,0x9	  x3:0x00000000 x17=0x00000000
       67655000	      6764	80000b34	32dc2913	slti	x18,x24,813	 x24:0x00000003 x18=0x00000001
       67665000	      6765	80000b38	01ae85b3	add	x11,x29,x26	 x29:0x492ccb08 x26:0x5b93dcfc x11=0xa4c0a804
       67675000	      6766	80000b3c	bb55ef13	ori	x30,x11,-1099	 x11:0xa4c0a804 x30=0xfffffbb5
       67685000	      6767	80000b40	5d80fb17	auipc	x22,0x5d80f	 x22=0xdd80fb3c
       67695000	      6768	80000b44	00da8e63	beq	x21,x13,80000b60	 x21:0x00000000 x13:0x00000000
       67705000	      6769	00000000	00000013	addi	x0,x0,0	  x0:0x00000000
       67715000	      6770	80000b5c	00000013	addi	x0,x0,0	  x0:0x00000000
       67725000	      6771	80000b60	00e9e863	bltu	x19,x14,80000b70	 x19:0xfff00012 x14:0x00000000
       67735000	      6772	80000b64	04308493	addi	x9,x1,67	  x1:0xffffffd7  x9=0x0000001a
       67745000	      6773	80000b68	01614333	xor	x6,x2,x22	  x2:0xaa8dd69f x22:0xdd80fb3c  x6=0x770d2da3
       67755000	      6774	80000b6c	40bd08b3	sub	x17,x26,x11	 x26:0x5b93dcfc x11:0xa4c0a804 x17=0xb6d334f8
       67765000	      6775	80000b70	40ef0b33	sub	x22,x30,x14	 x30:0xfffffbb5 x14:0x00000000 x22=0xfffffbb5
       67775000	      6776	80000b74	00159593	slli	x11,x11,0x1	 x11:0xa4c0a804 x11=0x49815008
       67785000	      6777	80000b78	00736663	bltu	x6,x7,80000b84	  x6:0x770d2da3  x7:0x00000007
       67795000	      6778	80000b7c	0059c933	xor	x18,x19,x5	 x19:0xfff00012  x5:0x353bbe8a x18=0xcacbbe98
       67805000	      6779	80000b80	bbb93393	sltiu	x7,x18,-1093	 x18:0xcacbbe98  x7=0x00000001
       67815000	      6780	80000b84	00083bb3	sltu	x23,x16,x0	 x16:0x00000000  x0:0x00000000 x23=0x00000000
       67825000	      6781	80000b88	e031a997	auipc	x19,0xe031a	 x19=0x6031ab84
       67835000	      6782	80000b8c	004caf83	lw	x31,4(x25)	 x25:0x80009f08 x31=0x80006684 PA:0x80009f0c
       67845000	      6783	80000b90	17baee13	ori	x28,x21,379	 x21:0x00000000 x28=0x0000017b
       67855000	      6784	80000b94	9e255c17	auipc	x24,0x9e255	 x24=0x1e255b90
       67865000	      6785	80000b98	7f9b0e93	addi	x29,x22,2041	 x22:0xfffffbb5 x29=0x000003ae
       67875000	      6786	80000b9c	014c8c93	addi	x25,x25,20	 x25:0x80009f08 x25=0x80009f1c
       67885000	      6787	80000ba0	01fe5893	srli	x17,x28,0x1f	 x28:0x0000017b x17=0x00000000
       67895000	      6788	80000ba4	011c58b3	srl	x17,x24,x17	 x24:0x1e255b90 x17:0x00000000 x17=0x1e255b90
       67905000	      6789	80000ba8	40100233	sub	x4,x0,x1	  x0:0x00000000  x1:0xffffffd7  x4=0x00000029
       67915000	      6790	80000bac	001f8293	addi	x5,x31,1	 x31:0x80006684  x5=0x80006685
       67925000	      6791	80000bb0	000282e7	jalr	x5,x5,0	  x5:0x80006685  x5=0x80000bb0
       67935000	      6792	00000000	00000013	addi	x0,x0,0	  x0:0x00000000
       67945000	      6793	80006684	00000013	addi	x0,x0,0	  x0:0x00000000
       67955000	      6794	80006688	40b385b3	sub	x11,x7,x11	  x7:0x00000001 x11:0x49815008 x11=0xb67eaff9
       67965000	      6795	8000668c	0197bbb3	sltu	x23,x15,x25	 x15:0x80009fc4 x25:0x80009f1c x23=0x00000000
       67975000	      6796	80006690	01b629b3	slt	x19,x12,x27	 x12:0x00000001 x27:0xa1f75000 x19=0x00000000
       67985000	      6797	80006694	414c5093	srai	x1,x24,0x14	 x24:0x1e255b90  x1=0x000001e2
       67995000	      6798	80006698	00ef81b3	add	x3,x31,x14	 x31:0x80006684 x14:0x00000000  x3=0x80006684
       68005000	      6799	8000669c	0b800fef	jal	x31,8000669c	 x31=0x8000669c
       68015000	      6800	00000000	00000013	addi	x0,x0,0	  x0:0x00000000
       68025000	      6801	80006750	00000013	addi	x0,x0,0	  x0:0x00000000
       68035000	      6802	80006754	4104da33	sra	x20,x9,x16	  x9:0x0000001a x16:0x00000000 x20=0x0000001a
       68045000	      6803	80006758	40ae85b3	sub	x11,x29,x10	 x29:0x000003ae x10:0x00000000 x11=0x000003ae
       68055000	      6804	8000675c	bf41f213	andi	x4,x3,-1036	  x3:0x80006684  x4=0x80006284
       68065000	      6805	80006760	0039d5b3	srl	x11,x19,x3	 x19:0x00000000  x3:0x80006684 x11=0x00000000
       68075000	      6806	80006764	01e46833	or	x16,x8,x30	  x8:0x00000000 x30:0xfffffbb5 x16=0xfffffbb5
       68085000	      6807	80006768	01380b33	add	x22,x16,x19	 x16:0xfffffbb5 x19:0x00000000 x22=0xfffffbb5
       68095000	      6808	8000676c	00474d33	xor	x26,x14,x4	 x14:0x00000000  x4:0x80006284 x26=0x80006284
       68105000	      6809	80006770	00ae0933	add	x18,x28,x10	 x28:0x0000017b x10:0x00000000 x18=0x0000017b
       68115000	      6810	80006774	00e7adb3	slt	x27,x15,x14	 x15:0x80009fc4 x14:0x00000000 x27=0x00000001
       68125000	      6811	80006778	fe0c8c93	addi	x25,x25,-32	 x25:0x80009f1c x25=0x80009efc
       68135000	      6812	8000677c	01fca223	sw	x31,4(x25)	 x25:0x80009efc x31:0x8000669c PA:0x80009f00
       68145000	      6813	80006780	b1f4ee13	ori	x28,x9,-1249	  x9:0x0000001a x28=0xfffffb1f
       68155000	      6814	80006784	0572c663	blt	x5,x23,800067d0	  x5:0x80000bb0 x23:0x00000000
       68165000	      6815	00000000	00000013	addi	x0,x0,0	  x0:0x00000000
       68175000	      6816	800067cc	00000013	addi	x0,x0,0	  x0:0x00000000
       68185000	      6817	800067d0	400058b3	sra	x17,x0,x0	  x0:0x00000000  x0:0x00000000 x17=0x00000000
       68195000	      6818	800067d4	0024ad33	slt	x26,x9,x2	  x9:0x0000001a  x2:0xaa8dd69f x26=0x00000000
       68205000	      6819	800067d8	00000013	addi	x0,x0,0	  x0:0x00000000
       68215000	      6820	800067dc	00880533	add	x10,x16,x8	 x16:0xfffffbb5  x8:0x00000000 x10=0xfffffbb5
       68225000	      6821	800067e0	00693233	sltu	x4,x18,x6	 x18:0x0000017b  x6:0x770d2da3  x4=0x00000001
       68235000	      6822	800067e4	00cdcd33	xor	x26,x27,x12	 x27:0x00000001 x12:0x00000001 x26=0x00000000
       68245000	      6823	800067e8	96166a93	ori	x21,x12,-1695	 x12:0x00000001 x21=0xfffff961
       68255000	      6824	800067ec	01683433	sltu	x8,x16,x22	 x16:0xfffffbb5 x22:0xfffffbb5  x8=0x00000000
       68265000	      6825	800067f0	dc862313	slti	x6,x12,-568	 x12:0x00000001  x6=0x00000000
       68275000	      6826	800067f4	00480f33	add	x30,x16,x4	 x16:0xfffffbb5  x4:0x00000001 x30=0xfffffbb6
       68285000	      6827	800067f8	41a90533	sub	x10,x18,x26	 x18:0x0000017b x26:0x00000000 x10=0x0000017b
       68295000	      6828	800067fc	0826cb13	xori	x22,x13,130	 x13:0x00000000 x22=0x00000082
       68305000	      6829	80006800	017f3d33	sltu	x26,x30,x23	 x30:0xfffffbb6 x23:0x00000000 x26=0x00000000
       68315000	      6830	80006804	94f0cf93	xori	x31,x1,-1713	  x1:0x000001e2 x31=0xfffff8ad
       68325000	      6831	80006808	675d7493	andi	x9,x26,1653	 x26:0x00000000  x9=0x00000000
       68335000	      6832	8000680c	01728c33	add	x24,x5,x23	  x5:0x80000bb0 x23:0x00000000 x24=0x80000bb0
       68345000	      6833	80006810	4e8b4093	xori	x1,x22,1256	 x22:0x00000082  x1=0x0000046a
       68355000	      6834	80006814	008d1bb3	sll	x23,x26,x8	 x26:0x00000000  x8:0x00000000 x23=0x00000000
       68365000	      6835	80006818	27e38293	addi	x5,x7,638	  x7:0x00000001  x5=0x0000027f
       68375000	      6836	8000681c	0216ce63	blt	x13,x1,80006858	 x13:0x00000000  x1:0x0000046a
       68385000	      6837	00000000	00000013	addi	x0,x0,0	  x0:0x00000000
       68395000	      6838	80006854	00000013	addi	x0,x0,0	  x0:0x00000000
       68405000	      6839	80006858	01bbf533	and	x10,x23,x27	 x23:0x00000000 x27:0x00000001 x10=0x00000000
       68415000	      6840	8000685c	068b6f93	ori	x31,x22,104	 x22:0x00000082 x31=0x000000ea
       68425000	      6841	80006860	04c50663	beq	x10,x12,800068ac	 x10:0x00000000 x12:0x00000001
       68435000	      6842	80006864	41975c13	srai	x24,x14,0x19	 x14:0x00000000 x24=0x00000000
       68445000	      6843	80006868	00f788b3	add	x17,x15,x15	 x15:0x80009fc4 x15:0x80009fc4 x17=0x00013f88
       68455000	      6844	8000686c	e96e2a13	slti	x20,x28,-362	 x28:0xfffffb1f x20=0x00000001
       68465000	      6845	80006870	d2a12d93	slti	x27,x2,-726	  x2:0xaa8dd69f x27=0x00000001
       68475000	      6846	80006874	00899863	bne	x19,x8,80006884	 x19:0x00000000  x8:0x00000000
       68485000	      6847	80006878	00000013	addi	x0,x0,0	  x0:0x00000000
       68495000	      6848	8000687c	780cc493	xori	x9,x25,1920	 x25:0x80009efc  x9=0x8000997c
       68505000	      6849	80006880	e0d02413	slti	x8,x0,-499	  x0:0x00000000  x8=0x00000000
       68515000	      6850	80006884	40b15033	sra	x0,x2,x11	  x2:0xaa8dd69f x11:0x00000000
       68525000	      6851	80006888	62ab7813	andi	x16,x22,1578	 x22:0x00000082 x16=0x00000002
       68535000	      6852	8000688c	01cf0463	beq	x30,x28,80006894	 x30:0xfffffbb6 x28:0xfffffb1f
       68545000	      6853	80006890	045cd063	bge	x25,x5,800068d0	 x25:0x80009efc  x5:0x0000027f
       68555000	      6854	80006894	2af77e37	lui	x28,0x2af77	 x28=0x2af77000
       68565000	      6855	80006898	e705e097	auipc	x1,0xe705e	  x1=0x67064894
       68575000	      6856	8000689c	47843613	sltiu	x12,x8,1144	  x8:0x00000000 x12=0x00000001
       68585000	      6857	800068a0	6c2ae613	ori	x12,x21,1730	 x21:0xfffff961 x12=0xffffffe3
       68595000	      6858	800068a4	e8e9cf93	xori	x31,x19,-370	 x19:0x00000000 x31=0xfffffe8e
       68605000	      6859	800068a8	01731c63	bne	x6,x23,800068c0	  x6:0x00000000 x23:0x00000000
       68615000	      6860	800068ac	020a1463	bne	x20,x0,800068d4	 x20:0x00000001  x0:0x00000000
       68625000	      6861	00000000	00000013	addi	x0,x0,0	  x0:0x00000000
       68635000	      6862	800068d0	00000013	addi	x0,x0,0	  x0:0x00000000
       68645000	      6863	800068d4	4053d033	sra	x0,x7,x5	  x7:0x00000001  x5:0x0000027f
       68655000	      6864	800068d8	004caf83	lw	x31,4(x25)	 x25:0x80009efc x31=0x8000669c PA:0x80009f00
       68665000	      6865	800068dc	003138b3	sltu	x17,x2,x3	  x2:0xaa8dd69f  x3:0x80006684 x17=0x00000000
       68675000	      6866	800068e0	00f8dc13	srli	x24,x17,0xf	 x17:0x00000000 x24=0x00000000
       68685000	      6867	800068e4	020c8c93	addi	x25,x25,32	 x25:0x80009efc x25=0x80009f1c
       68695000	      6868	800068e8	01f95093	srli	x1,x18,0x1f	 x18:0x0000017b  x1=0x00000000
       68705000	      6869	800068ec	001f8813	addi	x16,x31,1	 x31:0x8000669c x16=0x8000669d
       68715000	      6870	800068f0	00080867	jalr	x16,x16,0	 x16:0x8000669d x16=0x800068f0
       68725000	      6871	00000000	00000013	addi	x0,x0,0	  x0:0x00000000
       68735000	      6872	8000669c	00000013	addi	x0,x0,0	  x0:0x00000000
       68745000	      6873	800066a0	ffffc597	auipc	x11,0xffffc	 x11=0x8000269c
       68755000	      6874	800066a4	1dc58593	addi	x11,x11,476	 x11:0x8000269c x11=0x80002878
       68765000	      6875	800066a8	01a960b3	or	x1,x18,x26	 x18:0x0000017b x26:0x00000000  x1=0x0000017b
       68775000	      6876	800066ac	9a60cb93	xori	x23,x1,-1626	  x1:0x0000017b x23=0xfffff8dd
       68785000	      6877	800066b0	0de58593	addi	x11,x11,222	 x11:0x80002878 x11=0x80002956
       68795000	      6878	800066b4	013911b3	sll	x3,x18,x19	 x18:0x0000017b x19:0x00000000  x3=0x0000017b
       68805000	      6879	800066b8	00d39013	slli	x0,x7,0xd	  x7:0x00000001
       68815000	      6880	800066bc	99934e13	xori	x28,x6,-1639	  x6:0x00000000 x28=0xfffff999
       68825000	      6881	800066c0	01afc233	xor	x4,x31,x26	 x31:0x8000669c x26:0x00000000  x4=0x8000669c
       68835000	      6882	800066c4	01596433	or	x8,x18,x21	 x18:0x0000017b x21:0xfffff961  x8=0xfffff97b
       68845000	      6883	800066c8	f2358fe7	jalr	x31,x11,-221	 x11:0x80002956 x31=0x800066c8
       68855000	      6884	00000000	00000013	addi	x0,x0,0	  x0:0x00000000
       68865000	      6885	80002878	00000013	addi	x0,x0,0	  x0:0x00000000
       68875000	      6886	8000287c	01de9693	slli	x13,x29,0x1d	 x29:0x000003ae x13=0xc0000000
       68885000	      6887	80002880	fdcc8c93	addi	x25,x25,-36	 x25:0x80009f1c x25=0x80009ef8
       68895000	      6888	80002884	01fca223	sw	x31,4(x25)	 x25:0x80009ef8 x31:0x800066c8 PA:0x80009efc
       68905000	      6889	80002888	d9da4e13	xori	x28,x20,-611	 x20:0x00000001 x28=0xfffffd9c
       68915000	      6890	8000288c	45a80e13	addi	x28,x16,1114	 x16:0x800068f0 x28=0x80006d4a
       68925000	      6891	80002890	0189d233	srl	x4,x19,x24	 x19:0x00000000 x24:0x00000000  x4=0x00000000
       68935000	      6892	80002894	46d129b7	lui	x19,0x46d12	 x19=0x46d12000
       68945000	      6893	80002898	403d5233	sra	x4,x26,x3	 x26:0x00000000  x3:0x0000017b  x4=0x00000000
       68955000	      6894	8000289c	41305333	sra	x6,x0,x19	  x0:0x00000000 x19:0x46d12000  x6=0x00000000
       68965000	      6895	800028a0	01591b93	slli	x23,x18,0x15	 x18:0x0000017b x23=0x2f600000
       68975000	      6896	800028a4	008a5733	srl	x14,x20,x8	 x20:0x00000001  x8:0xfffff97b x14=0x00000000
       68985000	      6897	800028a8	00006c17	auipc	x24,0x6	 x24=0x800088a4
       68995000	      6898	800028ac	ce9c0c13	addi	x24,x24,-791	 x24:0x800088a4 x24=0x8000858d
       69005000	      6899	800028b0	b71c06a3	sb	x17,-1171(x24)	 x24:0x8000858d x17:0x00000000 PA:0x800080fa
       69015000	      6900	800028b4	006d7ab3	and	x21,x26,x6	 x26:0x00000000  x6:0x00000000 x21=0x00000000
       69025000	      6901	800028b8	152c0d23	sb	x18,346(x24)	 x24:0x8000858d x18:0x0000017b PA:0x800086e7
       69035000	      6902	800028bc	f6cc0f23	sb	x12,-130(x24)	 x24:0x8000858d x12:0xffffffe3 PA:0x8000850b
       69045000	      6903	800028c0	179c5b83	lhu	x23,377(x24)	 x24:0x8000858d x23=0x00006600 PA:0x80008706
       69055000	      6904	800028c4	3397f837	lui	x16,0x3397f	 x16=0x3397f000
       69065000	      6905	800028c8	0d9c1803	lh	x16,217(x24)	 x24:0x8000858d x16=0x00001f97 PA:0x80008666
       69075000	      6906	800028cc	00d386b3	add	x13,x7,x13	  x7:0x00000001 x13:0xc0000000 x13=0xc0000001
       69085000	      6907	800028d0	f42c0523	sb	x2,-182(x24)	 x24:0x8000858d  x2:0xaa8dd69f PA:0x800084d7
       69095000	      6908	800028d4	d1d14093	xori	x1,x2,-739	  x2:0xaa8dd69f  x1=0x55722b82
       69105000	      6909	800028d8	aeae3013	sltiu	x0,x28,-1302	 x28:0x80006d4a
       69115000	      6910	800028dc	bbec0f23	sb	x30,-1090(x24)	 x24:0x8000858d x30:0xfffffbb6 PA:0x8000814b
       69125000	      6911	800028e0	147c2203	lw	x4,327(x24)	 x24:0x8000858d  x4=0x349c9a11 PA:0x800086d4
       69135000	      6912	800028e4	b2fc5883	lhu	x17,-1233(x24)	 x24:0x8000858d x17=0x0000622b PA:0x800080bc
       69145000	      6913	800028e8	2c4d6693	ori	x13,x26,708	 x26:0x00000000 x13=0x000002c4
       69155000	      6914	800028ec	00000013	addi	x0,x0,0	  x0:0x00000000
       69165000	      6915	800028f0	e3ec0b03	lb	x22,-450(x24)	 x24:0x8000858d x22=0xffffffa1 PA:0x800083cb
       69175000	      6916	800028f4	1b9c5e83	lhu	x29,441(x24)	 x24:0x8000858d x29=0x000036d3 PA:0x80008746
       69185000	      6917	800028f8	01540db3	add	x27,x8,x21	  x8:0xfffff97b x21:0x00000000 x27=0xfffff97b
       69195000	      6918	800028fc	015c48b3	xor	x17,x24,x21	 x24:0x8000858d x21:0x00000000 x17=0x8000858d
       69205000	      6919	80002900	b07c5483	lhu	x9,-1273(x24)	 x24:0x8000858d  x9=0x00000e48 PA:0x80008094
       69215000	      6920	80002904	fc6c0083	lb	x1,-58(x24)	 x24:0x8000858d  x1=0x0000004b PA:0x80008553
       69225000	      6921	80002908	96424213	xori	x4,x4,-1692	  x4:0x349c9a11  x4=0xcb636375
       69235000	      6922	8000290c	bf7c10a3	sh	x23,-1055(x24)	 x24:0x8000858d x23:0x00006600 PA:0x8000816e
       69245000	      6923	80002910	de1c0523	sb	x1,-534(x24)	 x24:0x8000858d  x1:0x0000004b PA:0x80008377
       69255000	      6924	80002914	40b90b33	sub	x22,x18,x11	 x18:0x0000017b x11:0x80002956 x22=0x7fffd825
       69265000	      6925	80002918	ef846f93	ori	x31,x8,-264	  x8:0xfffff97b x31=0xfffffffb
       69275000	      6926	8000291c	013919b3	sll	x19,x18,x19	 x18:0x0000017b x19:0x46d12000 x19=0x0000017b
       69285000	      6927	80002920	df34c693	xori	x13,x9,-525	  x9:0x00000e48 x13=0xfffff3bb
       69295000	      6928	80002924	01deb6b3	sltu	x13,x29,x29	 x29:0x000036d3 x29:0x000036d3 x13=0x00000000
       69305000	      6929	80002928	c58c0923	sb	x24,-942(x24)	 x24:0x8000858d x24:0x8000858d PA:0x800081df
       69315000	      6930	8000292c	e2a53593	sltiu	x11,x10,-470	 x10:0x00000000 x11=0x00000001
       69325000	      6931	80002930	0022d813	srli	x16,x5,0x2	  x5:0x0000027f x16=0x0000009f
       69335000	      6932	80002934	1c5c0ca3	sb	x5,473(x24)	 x24:0x8000858d  x5:0x0000027f PA:0x80008766
       69345000	      6933	80002938	1dec4f03	lbu	x30,478(x24)	 x24:0x8000858d x30=0x000000dc PA:0x8000876b
       69355000	      6934	8000293c	eb7c2ba3	sw	x23,-329(x24)	 x24:0x8000858d x23:0x00006600 PA:0x80008444
       69365000	      6935	80002940	ad7c0223	sb	x23,-1340(x24)	 x24:0x8000858d x23:0x00006600 PA:0x80008051
       69375000	      6936	80002944	4b7e8413	addi	x8,x29,1207	 x29:0x000036d3  x8=0x00003b8a
       69385000	      6937	80002948	d1fc2e83	lw	x29,-737(x24)	 x24:0x8000858d x29=0x221956af PA:0x800082ac
       69395000	      6938	8000294c	175c2da3	sw	x21,379(x24)	 x24:0x8000858d x21:0x00000000 PA:0x80008708
       69405000	      6939	80002950	121c1e83	lh	x29,289(x24)	 x24:0x8000858d x29=0x00004e0d PA:0x800086ae
       69415000	      6940	80002954	f6894d13	xori	x26,x18,-152	 x18:0x0000017b x26=0xfffffe13
       69425000	      6941	80002958	410a0633	sub	x12,x20,x16	 x20:0x00000001 x16:0x0000009f x12=0xffffff62
       69435000	      6942	8000295c	fc8c0d03	lb	x26,-56(x24)	 x24:0x8000858d x26=0x00000066 PA:0x80008555
       69445000	      6943	80002960	6a917d13	andi	x26,x2,1705	  x2:0xaa8dd69f x26=0x00000689
       69455000	      6944	80002964	01711193	slli	x3,x2,0x17	  x2:0xaa8dd69f  x3=0x4f800000
       69465000	      6945	80002968	016250b3	srl	x1,x4,x22	  x4:0xcb636375 x22:0x7fffd825  x1=0x065b1b1b
       69475000	      6946	8000296c	c6fc5503	lhu	x10,-913(x24)	 x24:0x8000858d x10=0x00008d30 PA:0x800081fc
       69485000	      6947	80002970	56fdf017	auipc	x0,0x56fdf	
       69495000	      6948	80002974	dfad26b7	lui	x13,0xdfad2	 x13=0xdfad2000
       69505000	      6949	80002978	01372a33	slt	x20,x14,x19	 x14:0x00000000 x19:0x0000017b x20=0x00000001
       69515000	      6950	8000297c	bcbc0da3	sb	x11,-1061(x24)	 x24:0x8000858d x11:0x00000001 PA:0x80008168
       69525000	      6951	80002980	00006217	auipc	x4,0x6	  x4=0x8000897c
       69535000	      6952	80002984	0e920213	addi	x4,x4,233	  x4:0x8000897c  x4=0x80008a65
       69545000	      6953	80002988	1d322483	lw	x9,467(x4)	  x4:0x80008a65  x9=0xffc266ae PA:0x80008c38
       69555000	      6954	8000298c	05224983	lbu	x19,82(x4)	  x4:0x80008a65 x19=0x000000be PA:0x80008ab7
       69565000	      6955	80002990	19c225a3	sw	x28,395(x4)	  x4:0x80008a65 x28:0x80006d4a PA:0x80008bf0
       69575000	      6956	80002994	07224d83	lbu	x27,114(x4)	  x4:0x80008a65 x27=0x00000068 PA:0x80008ad7
       69585000	      6957	80002998	88e3ab93	slti	x23,x7,-1906	  x7:0x00000001 x23=0x00000000
       69595000	      6958	8000299c	016465b3	or	x11,x8,x22	  x8:0x00003b8a x22:0x7fffd825 x11=0x7ffffbaf
       69605000	      6959	800029a0	28420b23	sb	x4,662(x4)	  x4:0x80008a65  x4:0x80008a65 PA:0x80008cfb
       69615000	      6960	800029a4	016e63b3	or	x7,x28,x22	 x28:0x80006d4a x22:0x7fffd825  x7=0xfffffd6f
       69625000	      6961	800029a8	01520403	lb	x8,21(x4)	  x4:0x80008a65  x8=0xffffffe0 PA:0x80008a7a
       69635000	      6962	800029ac	19d20003	lb	x0,413(x4)	  x4:0x80008a65 PA:0x80008c02
       69645000	      6963	800029b0	3b121703	lh	x14,945(x4)	  x4:0x80008a65 x14=0x00000658 PA:0x80008e16
       69655000	      6964	800029b4	99e6c617	auipc	x12,0x99e6c	 x12=0x19e6e9b0
       69665000	      6965	800029b8	57924e03	lbu	x28,1401(x4)	  x4:0x80008a65 x28=0x00000000 PA:0x80008fde
       69675000	      6966	800029bc	4be21ca3	sh	x30,1209(x4)	  x4:0x80008a65 x30:0x000000dc PA:0x80008f1e
       69685000	      6967	800029c0	013af733	and	x14,x21,x19	 x21:0x00000000 x19:0x000000be x14=0x00000000
       69695000	      6968	800029c4	472207a3	sb	x18,1135(x4)	  x4:0x80008a65 x18:0x0000017b PA:0x80008ed4
       69705000	      6969	800029c8	0017e0b3	or	x1,x15,x1	 x15:0x80009fc4  x1:0x065b1b1b  x1=0x865b9fdf
       69715000	      6970	800029cc	004f6eb3	or	x29,x30,x4	 x30:0x000000dc  x4:0x80008a65 x29=0x80008afd
       69725000	      6971	800029d0	18c24183	lbu	x3,396(x4)	  x4:0x80008a65  x3=0x0000006d PA:0x80008bf1
       69735000	      6972	800029d4	34a24283	lbu	x5,842(x4)	  x4:0x80008a65  x5=0x00000045 PA:0x80008daf
       69745000	      6973	800029d8	32820f23	sb	x8,830(x4)	  x4:0x80008a65  x8:0xffffffe0 PA:0x80008da3
       69755000	      6974	800029dc	53124483	lbu	x9,1329(x4)	  x4:0x80008a65  x9=0x000000df PA:0x80008f96
       69765000	      6975	800029e0	c48fb593	sltiu	x11,x31,-952	 x31:0xfffffffb x11=0x00000000
       69775000	      6976	800029e4	00000013	addi	x0,x0,0	  x0:0x00000000
       69785000	      6977	800029e8	f7320523	sb	x19,-150(x4)	  x4:0x80008a65 x19:0x000000be PA:0x800089cf
       69795000	      6978	800029ec	012f9593	slli	x11,x31,0x12	 x31:0xfffffffb x11=0xffec0000
       69805000	      6979	800029f0	41e351b3	sra	x3,x6,x30	  x6:0x00000000 x30:0x000000dc  x3=0x00000000
       69815000	      6980	800029f4	00f25a03	lhu	x20,15(x4)	  x4:0x80008a65 x20=0x00009e93 PA:0x80008a74
       69825000	      6981	800029f8	25c24483	lbu	x9,604(x4)	  x4:0x80008a65  x9=0x0000002d PA:0x80008cc1
       69835000	      6982	800029fc	017e1bb3	sll	x23,x28,x23	 x28:0x00000000 x23:0x00000000 x23=0x00000000
       69845000	      6983	80002a00	41515093	srai	x1,x2,0x15	  x2:0xaa8dd69f  x1=0xfffffd54
       69855000	      6984	80002a04	0ea21aa3	sh	x10,245(x4)	  x4:0x80008a65 x10:0x00008d30 PA:0x80008b5a
       69865000	      6985	80002a08	21abfa93	andi	x21,x23,538	 x23:0x00000000 x21=0x00000000
       69875000	      6986	80002a0c	01f87db3	and	x27,x16,x31	 x16:0x0000009f x31:0xfffffffb x27=0x0000009b
       69885000	      6987	80002a10	1b125f03	lhu	x30,433(x4)	  x4:0x80008a65 x30=0x00000e4e PA:0x80008c16
       69895000	      6988	80002a14	e7b20c03	lb	x24,-389(x4)	  x4:0x80008a65 x24=0xffffffd7 PA:0x800088e0
       69905000	      6989	80002a18	004df033	and	x0,x27,x4	 x27:0x0000009b  x4:0x80008a65
       69915000	      6990	80002a1c	419e5033	sra	x0,x28,x25	 x28:0x00000000 x25:0x80009ef8
       69925000	      6991	80002a20	e32205a3	sb	x18,-469(x4)	  x4:0x80008a65 x18:0x0000017b PA:0x80008890
       69935000	      6992	80002a24	01c7d813	srli	x16,x15,0x1c	 x15:0x80009fc4 x16=0x00000008
       69945000	      6993	80002a28	40c0ddb3	sra	x27,x1,x12	  x1:0xfffffd54 x12:0x19e6e9b0 x27=0xffffffff
       69955000	      6994	80002a2c	01247f33	and	x30,x8,x18	  x8:0xffffffe0 x18:0x0000017b x30=0x00000160
       69965000	      6995	80002a30	2cc24703	lbu	x14,716(x4)	  x4:0x80008a65 x14=0x0000000b PA:0x80008d31
       69975000	      6996	80002a34	0162c433	xor	x8,x5,x22	  x5:0x00000045 x22:0x7fffd825  x8=0x7fffd860
       69985000	      6997	80002a38	015b2d33	slt	x26,x22,x21	 x22:0x7fffd825 x21:0x00000000 x26=0x00000000
       69995000	      6998	80002a3c	01beb933	sltu	x18,x29,x27	 x29:0x80008afd x27:0xffffffff x18=0x00000001
       70005000	      6999	80002a40	2d520123	sb	x21,706(x4)	  x4:0x80008a65 x21:0x00000000 PA:0x80008d27
       70015000	      7000	80002a44	30a6be13	sltiu	x28,x13,778	 x13:0xdfad2000 x28=0x00000000
       70025000	      7001	80002a48	01ffe033	or	x0,x31,x31	 x31:0xfffffffb x31:0xfffffffb
       70035000	      7002	80002a4c	1f920d23	sb	x25,506(x4)	  x4:0x80008a65 x25:0x80009ef8 PA:0x80008c5f
       70045000	      7003	80002a50	000236b3	sltu	x13,x4,x0	  x4:0x80008a65  x0:0x00000000 x13=0x00000000
       70055000	      7004	80002a54	45a24c03	lbu	x24,1114(x4)	  x4:0x80008a65 x24=0x0000007e PA:0x80008ebf
       70065000	      7005	80002a58	00006417	auipc	x8,0x6	  x8=0x80008a54
       70075000	      7006	80002a5c	3b740413	addi	x8,x8,951	  x8:0x80008a54  x8=0x80008e0b
       70085000	      7007	80002a60	025420a3	sw	x5,33(x8)	  x8:0x80008e0b  x5:0x00000045 PA:0x80008e2c
       70095000	      7008	80002a64	000edfb3	srl	x31,x29,x0	 x29:0x80008afd  x0:0x00000000 x31=0x80008afd
       70105000	      7009	80002a68	fbe40e23	sb	x30,-68(x8)	  x8:0x80008e0b x30:0x00000160 PA:0x80008dc7
       70115000	      7010	80002a6c	07f40323	sb	x31,102(x8)	  x8:0x80008e0b x31:0x80008afd PA:0x80008e71
       70125000	      7011	80002a70	f1741183	lh	x3,-233(x8)	  x8:0x80008e0b  x3=0x000014f4 PA:0x80008d22
       70135000	      7012	80002a74	f7d404a3	sb	x29,-151(x8)	  x8:0x80008e0b x29:0x80008afd PA:0x80008d74
       70145000	      7013	80002a78	02baf693	andi	x13,x21,43	 x21:0x00000000 x13=0x00000000
       70155000	      7014	80002a7c	f5641ba3	sh	x22,-169(x8)	  x8:0x80008e0b x22:0x7fffd825 PA:0x80008d62
       70165000	      7015	80002a80	ca8d4c13	xori	x24,x26,-856	 x26:0x00000000 x24=0xfffffca8
       70175000	      7016	80002a84	0ec44383	lbu	x7,236(x8)	  x8:0x80008e0b  x7=0x0000004f PA:0x80008ef7
       70185000	      7017	80002a88	2bc0e693	ori	x13,x1,700	  x1:0xfffffd54 x13=0xfffffffc
       70195000	      7018	80002a8c	04244a03	lbu	x20,66(x8)	  x8:0x80008e0b x20=0x00000000 PA:0x80008e4d
       70205000	      7019	80002a90	d1ae6493	ori	x9,x28,-742	 x28:0x00000000  x9=0xfffffd1a
       70215000	      7020	80002a94	f2b41483	lh	x9,-213(x8)	  x8:0x80008e0b  x9=0x00003eaf PA:0x80008d36
       70225000	      7021	80002a98	f93402a3	sb	x19,-123(x8)	  x8:0x80008e0b x19:0x000000be PA:0x80008d90
       70235000	      7022	80002a9c	31f36f93	ori	x31,x6,799	  x6:0x00000000 x31=0x0000031f
       70245000	      7023	80002aa0	f3941283	lh	x5,-199(x8)	  x8:0x80008e0b  x5=0x00004642 PA:0x80008d44
       70255000	      7024	80002aa4	0099ad33	slt	x26,x19,x9	 x19:0x000000be  x9:0x00003eaf x26=0x00000001
       70265000	      7025	80002aa8	01a45bb3	srl	x23,x8,x26	  x8:0x80008e0b x26:0x00000001 x23=0x40004705
       70275000	      7026	80002aac	05541fa3	sh	x21,95(x8)	  x8:0x80008e0b x21:0x00000000 PA:0x80008e6a
       70285000	      7027	80002ab0	6e90dab7	lui	x21,0x6e90d	 x21=0x6e90d000
       70295000	      7028	80002ab4	07d410a3	sh	x29,97(x8)	  x8:0x80008e0b x29:0x80008afd PA:0x80008e6c
       70305000	      7029	80002ab8	000c7ab3	and	x21,x24,x0	 x24:0xfffffca8  x0:0x00000000 x21=0x00000000
       70315000	      7030	80002abc	04340883	lb	x17,67(x8)	  x8:0x80008e0b x17=0x00000001 PA:0x80008e4e
       70325000	      7031	80002ac0	0e344383	lbu	x7,227(x8)	  x8:0x80008e0b  x7=0x00000023 PA:0x80008eee
       70335000	      7032	80002ac4	0f340aa3	sb	x19,245(x8)	  x8:0x80008e0b x19:0x000000be PA:0x80008f00
       70345000	      7033	80002ac8	01240383	lb	x7,18(x8)	  x8:0x80008e0b  x7=0xfffffff9 PA:0x80008e1d
       70355000	      7034	80002acc	f5440883	lb	x17,-172(x8)	  x8:0x80008e0b x17=0x0000000a PA:0x80008d5f
       70365000	      7035	80002ad0	2fdb7513	andi	x10,x22,765	 x22:0x7fffd825 x10=0x00000025
       70375000	      7036	80002ad4	01f09d33	sll	x26,x1,x31	  x1:0xfffffd54 x31:0x0000031f x26=0x00000000
       70385000	      7037	80002ad8	07545e03	lhu	x28,117(x8)	  x8:0x80008e0b x28=0x00007861 PA:0x80008e80
       70395000	      7038	80002adc	017a0733	add	x14,x20,x23	 x20:0x00000000 x23:0x40004705 x14=0x40004705
       70405000	      7039	80002ae0	e96390b7	lui	x1,0xe9639	  x1=0xe9639000
       70415000	      7040	80002ae4	08a44b83	lbu	x23,138(x8)	  x8:0x80008e0b x23=0x00000000 PA:0x80008e95
       70425000	      7041	80002ae8	fee28f13	addi	x30,x5,-18	  x5:0x00004642 x30=0x00004630
       70435000	      7042	80002aec	0d440a83	lb	x21,212(x8)	  x8:0x80008e0b x21=0xfffffff2 PA:0x80008edf
       70445000	      7043	80002af0	f1040623	sb	x16,-244(x8)	  x8:0x80008e0b x16:0x00000008 PA:0x80008d17
       70455000	      7044	80002af4	017b6b33	or	x22,x22,x23	 x22:0x7fffd825 x23:0x00000000 x22=0x7fffd825
       70465000	      7045	80002af8	00000013	addi	x0,x0,0	  x0:0x00000000
       70475000	      7046	80002afc	00733633	sltu	x12,x6,x7	  x6:0x00000000  x7:0xfffffff9 x12=0x00000001
       70485000	      7047	80002b00	fa344d83	lbu	x27,-93(x8)	  x8:0x80008e0b x27=0x00000098 PA:0x80008dae
       70495000	      7048	80002b04	f23400a3	sb	x3,-223(x8)	  x8:0x80008e0b  x3:0x000014f4 PA:0x80008d2c
       70505000	      7049	80002b08	09444983	lbu	x19,148(x8)	  x8:0x80008e0b x19=0x000000fd PA:0x80008e9f
       70515000	      7050	80002b0c	0d844683	lbu	x13,216(x8)	  x8:0x80008e0b x13=0x000000e5 PA:0x80008ee3
       70525000	      7051	80002b10	114cfab7	lui	x21,0x114cf	 x21=0x114cf000
       70535000	      7052	80002b14	05140f83	lb	x31,81(x8)	  x8:0x80008e0b x31=0x0000002b PA:0x80008e5c
       70545000	      7053	80002b18	00006517	auipc	x10,0x6	 x10=0x80008b14
       70555000	      7054	80002b1c	31e50513	addi	x10,x10,798	 x10:0x80008b14 x10=0x80008e32
       70565000	      7055	80002b20	05d54403	lbu	x8,93(x10)	 x10:0x80008e32  x8=0x00000062 PA:0x80008e8f
       70575000	      7056	80002b24	40510ab3	sub	x21,x2,x5	  x2:0xaa8dd69f  x5:0x00004642 x21=0xaa8d905d
       70585000	      7057	80002b28	00a9e233	or	x4,x19,x10	 x19:0x000000fd x10:0x80008e32  x4=0x80008eff
       70595000	      7058	80002b2c	00f53a33	sltu	x20,x10,x15	 x10:0x80008e32 x15:0x80009fc4 x20=0x00000001
       70605000	      7059	80002b30	01179493	slli	x9,x15,0x11	 x15:0x80009fc4  x9=0x3f880000
       70615000	      7060	80002b34	a4f50e03	lb	x28,-1457(x10)	 x10:0x80008e32 x28=0x0000003a PA:0x80008881
       70625000	      7061	80002b38	f02508a3	sb	x2,-239(x10)	 x10:0x80008e32  x2:0xaa8dd69f PA:0x80008d43
       70635000	      7062	80002b3c	41bad633	sra	x12,x21,x27	 x21:0xaa8d905d x27:0x00000098 x12=0xffffffaa
       70645000	      7063	80002b40	2f91f693	andi	x13,x3,761	  x3:0x000014f4 x13=0x000000f0
       70655000	      7064	80002b44	e754c193	xori	x3,x9,-395	  x9:0x3f880000  x3=0xc077fe75
       70665000	      7065	80002b48	00000013	addi	x0,x0,0	  x0:0x00000000
       70675000	      7066	80002b4c	000dd693	srli	x13,x27,0x0	 x27:0x00000098 x13=0x00000098
       70685000	      7067	80002b50	a1851883	lh	x17,-1512(x10)	 x10:0x80008e32 x17=0x0000247e PA:0x8000884a
       70695000	      7068	80002b54	00dcf3b3	and	x7,x25,x13	 x25:0x80009ef8 x13:0x00000098  x7=0x00000098
       70705000	      7069	80002b58	d9b50983	lb	x19,-613(x10)	 x10:0x80008e32 x19=0x00000008 PA:0x80008bcd
       70715000	      7070	00000000	00000013	addi	x0,x0,0	  x0:0x00000000
       70725000	      7071	80002b5c	d532bb13	sltiu	x22,x5,-685	  x5:0x00004642 x22=0x00000001
       70735000	      7072	80002b60	e86ea4b7	lui	x9,0xe86ea	  x9=0xe86ea000
       70745000	      7073	80002b64	01ebc6b3	xor	x13,x23,x30	 x23:0x00000000 x30:0x00004630 x13=0x00004630
       70755000	      7074	80002b68	41498733	sub	x14,x19,x20	 x19:0x00000008 x20:0x00000001 x14=0x00000007
       70765000	      7075	80002b6c	01f0cf33	xor	x30,x1,x31	  x1:0xe9639000 x31:0x0000002b x30=0xe963902b
       70775000	      7076	80002b70	00000013	addi	x0,x0,0	  x0:0x00000000
       70785000	      7077	80002b74	00bf4ab3	xor	x21,x30,x11	 x30:0xe963902b x11:0xffec0000 x21=0x168f902b
       70795000	      7078	80002b78	41e68233	sub	x4,x13,x30	 x13:0x00004630 x30:0xe963902b  x4=0x169cb605
       70805000	      7079	80002b7c	e19506a3	sb	x25,-499(x10)	 x10:0x80008e32 x25:0x80009ef8 PA:0x80008c3f
       70815000	      7080	80002b80	40728233	sub	x4,x5,x7	  x5:0x00004642  x7:0x00000098  x4=0x000045aa
       70825000	      7081	80002b84	008bf4b3	and	x9,x23,x8	 x23:0x00000000  x8:0x00000062  x9=0x00000000
       70835000	      7082	80002b88	add47393	andi	x7,x8,-1315	  x8:0x00000062  x7=0x00000040
       70845000	      7083	80002b8c	20912b13	slti	x22,x2,521	  x2:0xaa8dd69f x22=0x00000001
       70855000	      7084	80002b90	6230d917	auipc	x18,0x6230d	 x18=0xe230fb8c
       70865000	      7085	80002b94	b378b293	sltiu	x5,x17,-1225	 x17:0x0000247e  x5=0x00000001
       70875000	      7086	80002b98	c0a50fa3	sb	x10,-993(x10)	 x10:0x80008e32 x10:0x80008e32 PA:0x80008a51
       70885000	      7087	80002b9c	410adbb3	sra	x23,x21,x16	 x21:0x168f902b x16:0x00000008 x23=0x00168f90
       70895000	      7088	80002ba0	07154e03	lbu	x28,113(x10)	 x10:0x80008e32 x28=0x00000008 PA:0x80008ea3
       70905000	      7089	80002ba4	ab751d23	sh	x23,-1350(x10)	 x10:0x80008e32 x23:0x00168f90 PA:0x800088ec
       70915000	      7090	80002ba8	d1b507a3	sb	x27,-753(x10)	 x10:0x80008e32 x27:0x00000098 PA:0x80008b41
       70925000	      7091	80002bac	e6850803	lb	x16,-408(x10)	 x10:0x80008e32 x16=0xffffffcb PA:0x80008c9a
       70935000	      7092	80002bb0	8be72e93	slti	x29,x14,-1858	 x14:0x00000007 x29=0x00000000
       70945000	      7093	80002bb4	fff54d83	lbu	x27,-1(x10)	 x10:0x80008e32 x27=0x00000000 PA:0x80008e31
       70955000	      7094	80002bb8	00006a97	auipc	x21,0x6	 x21=0x80008bb4
       70965000	      7095	80002bbc	c21a8a93	addi	x21,x21,-991	 x21:0x80008bb4 x21=0x800087d5
       70975000	      7096	80002bc0	e99bc897	auipc	x17,0xe99bc	 x17=0x699bebbc
       70985000	      7097	80002bc4	006a8ca3	sb	x6,25(x21)	 x21:0x800087d5  x6:0x00000000 PA:0x800087ee
       70995000	      7098	80002bc8	024ac303	lbu	x6,36(x21)	 x21:0x800087d5  x6=0x000000d2 PA:0x800087f9
       71005000	      7099	80002bcc	f64a8ea3	sb	x4,-131(x21)	 x21:0x800087d5  x4:0x000045aa PA:0x80008752
       71015000	      7100	80002bd0	fa2a8383	lb	x7,-94(x21)	 x21:0x800087d5  x7=0xffffffa1 PA:0x80008777
       71025000	      7101	80002bd4	06e7b293	sltiu	x5,x15,110	 x15:0x80009fc4  x5=0x00000000
       71035000	      7102	80002bd8	f30a93a3	sh	x16,-217(x21)	 x21:0x800087d5 x16:0xffffffcb PA:0x800086fc
       71045000	      7103	80002bdc	00f11713	slli	x14,x2,0xf	  x2:0xaa8dd69f x14=0xeb4f8000
       71055000	      7104	80002be0	02baa283	lw	x5,43(x21)	 x21:0x800087d5  x5=0x8324face PA:0x80008800
       71065000	      7105	80002be4	021ac983	lbu	x19,33(x21)	 x21:0x800087d5 x19=0x000000fc PA:0x800087f6
       71075000	      7106	80002be8	f45ad983	lhu	x19,-187(x21)	 x21:0x800087d5 x19=0x0000ee1d PA:0x8000871a
       71085000	      7107	80002bec	f16a88a3	sb	x22,-239(x21)	 x21:0x800087d5 x22:0x00000001 PA:0x800086e6
       71095000	      7108	80002bf0	020ac283	lbu	x5,32(x21)	 x21:0x800087d5  x5=0x00000051 PA:0x800087f5
       71105000	      7109	80002bf4	f75a81a3	sb	x21,-157(x21)	 x21:0x800087d5 x21:0x800087d5 PA:0x80008738
       71115000	      7110	80002bf8	fd0a82a3	sb	x16,-59(x21)	 x21:0x800087d5 x16:0xffffffcb PA:0x8000879a
       71125000	      7111	80002bfc	f78a8583	lb	x11,-136(x21)	 x21:0x800087d5 x11=0xffffffd1 PA:0x8000874d
       71135000	      7112	80002c00	f0ea8803	lb	x16,-242(x21)	 x21:0x800087d5 x16=0x00000018 PA:0x800086e3
       71145000	      7113	80002c04	ff4a8fa3	sb	x20,-1(x21)	 x21:0x800087d5 x20:0x00000001 PA:0x800087d4
       71155000	      7114	80002c08	fe4ac203	lbu	x4,-28(x21)	 x21:0x800087d5  x4=0x000000c4 PA:0x800087b9
       71165000	      7115	80002c0c	0152d0b3	srl	x1,x5,x21	  x5:0x00000051 x21:0x800087d5  x1=0x00000000
       71175000	      7116	80002c10	012bf533	and	x10,x23,x18	 x23:0x00168f90 x18:0xe230fb8c x10=0x00108b80
       71185000	      7117	80002c14	f38a84a3	sb	x24,-215(x21)	 x21:0x800087d5 x24:0xfffffca8 PA:0x800086fe
       71195000	      7118	80002c18	f82a8703	lb	x14,-126(x21)	 x21:0x800087d5 x14=0xffffff84 PA:0x80008757
       71205000	      7119	80002c1c	fc1a8883	lb	x17,-63(x21)	 x21:0x800087d5 x17=0xffffffb1 PA:0x80008796
       71215000	      7120	80002c20	f3da88a3	sb	x29,-207(x21)	 x21:0x800087d5 x29:0x00000000 PA:0x80008706
       71225000	      7121	80002c24	00978433	add	x8,x15,x9	 x15:0x80009fc4  x9:0x00000000  x8=0x80009fc4
       71235000	      7122	80002c28	010a8f83	lb	x31,16(x21)	 x21:0x800087d5 x31=0xffffff95 PA:0x800087e5
       71245000	      7123	80002c2c	fcca96a3	sh	x12,-51(x21)	 x21:0x800087d5 x12:0xffffffaa PA:0x800087a2
       71255000	      7124	80002c30	02aa9aa3	sh	x10,53(x21)	 x21:0x800087d5 x10:0x00108b80 PA:0x8000880a
       71265000	      7125	80002c34	fbfacc03	lbu	x24,-65(x21)	 x21:0x800087d5 x24=0x00000005 PA:0x80008794
       71275000	      7126	80002c38	fa848eb7	lui	x29,0xfa848	 x29=0xfa848000
       71285000	      7127	80002c3c	01cde1b3	or	x3,x27,x28	 x27:0x00000000 x28:0x00000008  x3=0x00000008
       71295000	      7128	80002c40	fbeac703	lbu	x14,-66(x21)	 x21:0x800087d5 x14=0x000000d6 PA:0x80008793
       71305000	      7129	80002c44	4189d693	srai	x13,x19,0x18	 x19:0x0000ee1d x13=0x00000000
       71315000	      7130	80002c48	037a8203	lb	x4,55(x21)	 x21:0x800087d5  x4=0xffffffe2 PA:0x8000880c
       71325000	      7131	80002c4c	006b9533	sll	x10,x23,x6	 x23:0x00168f90  x6:0x000000d2 x10=0x3e400000
       71335000	      7132	80002c50	ddd03513	sltiu	x10,x0,-547	  x0:0x00000000 x10=0x00000001
       71345000	      7133	80002c54	042ac303	lbu	x6,66(x21)	 x21:0x800087d5  x6=0x00000091 PA:0x80008817
       71355000	      7134	80002c58	fc2acd03	lbu	x26,-62(x21)	 x21:0x800087d5 x26=0x00000060 PA:0x80008797
       71365000	      7135	80002c5c	fd7ac203	lbu	x4,-41(x21)	 x21:0x800087d5  x4=0x0000004d PA:0x800087ac
       71375000	      7136	80002c60	00005097	auipc	x1,0x5	  x1=0x80007c5c
       71385000	      7137	80002c64	74d08093	addi	x1,x1,1869	  x1:0x80007c5c  x1=0x800083a9
       71395000	      7138	80002c68	af03b213	sltiu	x4,x7,-1296	  x7:0xffffffa1  x4=0x00000000
       71405000	      7139	80002c6c	0012d013	srli	x0,x5,0x1	  x5:0x00000051
       71415000	      7140	80002c70	4160d733	sra	x14,x1,x22	  x1:0x800083a9 x22:0x00000001 x14=0xc00041d4
       71425000	      7141	80002c74	05c0c203	lbu	x4,92(x1)	  x1:0x800083a9  x4=0x0000000b PA:0x80008405
       71435000	      7142	80002c78	01665f93	srli	x31,x12,0x16	 x12:0xffffffaa x31=0x000003ff
       71445000	      7143	80002c7c	0052d893	srli	x17,x5,0x5	  x5:0x00000051 x17=0x00000002
       71455000	      7144	80002c80	00c47fb3	and	x31,x8,x12	  x8:0x80009fc4 x12:0xffffffaa x31=0x80009f80
       71465000	      7145	80002c84	009598b3	sll	x17,x11,x9	 x11:0xffffffd1  x9:0x00000000 x17=0xffffffd1
       71475000	      7146	80002c88	fe909483	lh	x9,-23(x1)	  x1:0x800083a9  x9=0x00000000 PA:0x80008392
       71485000	      7147	80002c8c	fe208723	sb	x2,-18(x1)	  x1:0x800083a9  x2:0xaa8dd69f PA:0x80008397
       71495000	      7148	80002c90	fa408ba3	sb	x4,-73(x1)	  x1:0x800083a9  x4:0x0000000b PA:0x80008360
       71505000	      7149	80002c94	011e85b3	add	x11,x29,x17	 x29:0xfa848000 x17:0xffffffd1 x11=0xfa847fd1
       71515000	      7150	80002c98	0e508a03	lb	x20,229(x1)	  x1:0x800083a9 x20=0x0000001a PA:0x8000848e
       71525000	      7151	80002c9c	0c40c503	lbu	x10,196(x1)	  x1:0x800083a9 x10=0x0000005b PA:0x8000846d
       71535000	      7152	80002ca0	2fb8a813	slti	x16,x17,763	 x17:0xffffffd1 x16=0x00000001
       71545000	      7153	80002ca4	0530ae03	lw	x28,83(x1)	  x1:0x800083a9 x28=0x05c7cfa5 PA:0x800083fc
       71555000	      7154	80002ca8	0d60c583	lbu	x11,214(x1)	  x1:0x800083a9 x11=0x00000053 PA:0x8000847f
       71565000	      7155	80002cac	f1109683	lh	x13,-239(x1)	  x1:0x800083a9 x13=0x00000a3e PA:0x800082ba
       71575000	      7156	00000000	00000013	addi	x0,x0,0	  x0:0x00000000
       71585000	      7157	80002cb0	fed0a3a3	sw	x13,-25(x1)	  x1:0x800083a9 x13:0x00000a3e PA:0x80008390
       71595000	      7158	80002cb4	0e60ce83	lbu	x29,230(x1)	  x1:0x800083a9 x29=0x000000dc PA:0x8000848f
       71605000	      7159	80002cb8	fe509383	lh	x7,-27(x1)	  x1:0x800083a9  x7=0xffff9e27 PA:0x8000838e
       71615000	      7160	80002cbc	0f20c903	lbu	x18,242(x1)	  x1:0x800083a9 x18=0x00000032 PA:0x8000849b
       71625000	      7161	80002cc0	03b09803	lh	x16,59(x1)	  x1:0x800083a9 x16=0xffffeb4f PA:0x800083e4
       71635000	      7162	80002cc4	0c808123	sb	x8,194(x1)	  x1:0x800083a9  x8:0x80009fc4 PA:0x8000846b
       71645000	      7163	80002cc8	0db09483	lh	x9,219(x1)	  x1:0x800083a9  x9=0xffff94c1 PA:0x80008484
       71655000	      7164	80002ccc	0ef09a83	lh	x21,239(x1)	  x1:0x800083a9 x21=0xffffae15 PA:0x80008498
       71665000	      7165	00000000	00000013	addi	x0,x0,0	  x0:0x00000000
       71675000	      7166	80002cd0	0751ca97	auipc	x21,0x751c	 x21=0x8751eccc
       71685000	      7167	80002cd4	02f08403	lb	x8,47(x1)	  x1:0x800083a9  x8=0xffffff85 PA:0x800083d8
       71695000	      7168	80002cd8	0199e3b3	or	x7,x19,x25	 x19:0x0000ee1d x25:0x80009ef8  x7=0x8000fefd
       71705000	      7169	80002cdc	fc70c403	lbu	x8,-57(x1)	  x1:0x800083a9  x8=0x00000090 PA:0x80008370
       71715000	      7170	80002ce0	fca08983	lb	x19,-54(x1)	  x1:0x800083a9 x19=0x00000016 PA:0x80008373
       71725000	      7171	80002ce4	416fd533	sra	x10,x31,x22	 x31:0x80009f80 x22:0x00000001 x10=0xc0004fc0
       71735000	      7172	80002ce8	f5908e23	sb	x25,-164(x1)	  x1:0x800083a9 x25:0x80009ef8 PA:0x80008305
       71745000	      7173	80002cec	f4a08f03	lb	x30,-182(x1)	  x1:0x800083a9 x30=0xffffff9e PA:0x800082f3
       71755000	      7174	80002cf0	0400c903	lbu	x18,64(x1)	  x1:0x800083a9 x18=0x000000da PA:0x800083e9
       71765000	      7175	80002cf4	0ba08623	sb	x26,172(x1)	  x1:0x800083a9 x26:0x00000060 PA:0x80008455
       71775000	      7176	80002cf8	f080a5a3	sw	x8,-245(x1)	  x1:0x800083a9  x8:0x00000090 PA:0x800082b4
       71785000	      7177	80002cfc	00708583	lb	x11,7(x1)	  x1:0x800083a9 x11=0x00000061 PA:0x800083b0
       71795000	      7178	80002d00	000bee33	or	x28,x23,x0	 x23:0x00168f90  x0:0x00000000 x28=0x00168f90
       71805000	      7179	80002d04	00000013	addi	x0,x0,0	  x0:0x00000000
       71815000	      7180	80002d08	f5808f03	lb	x30,-168(x1)	  x1:0x800083a9 x30=0xffffffaa PA:0x80008301
       71825000	      7181	80002d0c	00005317	auipc	x6,0x5	  x6=0x80007d08
       71835000	      7182	80002d10	3bc30313	addi	x6,x6,956	  x6:0x80007d08  x6=0x800080c4
       71845000	      7183	80002d14	00630e83	lb	x29,6(x6)	  x6:0x800080c4 x29=0x0000005f PA:0x800080ca
       71855000	      7184	80002d18	fdf30083	lb	x1,-33(x6)	  x6:0x800080c4  x1=0xffffffb7 PA:0x800080a3
       71865000	      7185	80002d1c	018291b3	sll	x3,x5,x24	  x5:0x00000051 x24:0x00000005  x3=0x00000a20
       71875000	      7186	80002d20	0b9307a3	sb	x25,175(x6)	  x6:0x800080c4 x25:0x80009ef8 PA:0x80008173
       71885000	      7187	80002d24	0b730da3	sb	x23,187(x6)	  x6:0x800080c4 x23:0x00168f90 PA:0x8000817f
       71895000	      7188	80002d28	fb734803	lbu	x16,-73(x6)	  x6:0x800080c4 x16=0x000000d7 PA:0x8000807b
       71905000	      7189	80002d2c	0d835a03	lhu	x20,216(x6)	  x6:0x800080c4 x20=0x0000ca18 PA:0x8000819c
       71915000	      7190	80002d30	fc130503	lb	x10,-63(x6)	  x6:0x800080c4 x10=0xffffff8a PA:0x80008085
       71925000	      7191	80002d34	0180c933	xor	x18,x1,x24	  x1:0xffffffb7 x24:0x00000005 x18=0xffffffb2
       71935000	      7192	80002d38	a4b73a13	sltiu	x20,x14,-1461	 x14:0xc00041d4 x20=0x00000001
       71945000	      7193	80002d3c	0fb306a3	sb	x27,237(x6)	  x6:0x800080c4 x27:0x00000000 PA:0x800081b1
       71955000	      7194	80002d40	fb032a03	lw	x20,-80(x6)	  x6:0x800080c4 x20=0xaf115471 PA:0x80008074
       71965000	      7195	80002d44	0ac31003	lh	x0,172(x6)	  x6:0x800080c4 PA:0x80008170
       71975000	      7196	80002d48	013c03b3	add	x7,x24,x19	 x24:0x00000005 x19:0x00000016  x7=0x0000001b
       71985000	      7197	80002d4c	fd134503	lbu	x10,-47(x6)	  x6:0x800080c4 x10=0x0000000e PA:0x80008095
       71995000	      7198	80002d50	01e44293	xori	x5,x8,30	  x8:0x00000090  x5=0x0000008e
       72005000	      7199	80002d54	41a05033	sra	x0,x0,x26	  x0:0x00000000 x26:0x00000060
       72015000	      7200	80002d58	408ed993	srai	x19,x29,0x8	 x29:0x0000005f x19=0x00000000
       72025000	      7201	80002d5c	b9e27e13	andi	x28,x4,-1122	  x4:0x0000000b x28=0x0000000a
       72035000	      7202	80002d60	0f631883	lh	x17,246(x6)	  x6:0x800080c4 x17=0xfffff455 PA:0x800081ba
       72045000	      7203	80002d64	fd4301a3	sb	x20,-61(x6)	  x6:0x800080c4 x20:0xaf115471 PA:0x80008087
       72055000	      7204	80002d68	00d30b23	sb	x13,22(x6)	  x6:0x800080c4 x13:0x00000a3e PA:0x800080da
       72065000	      7205	80002d6c	01bcf833	and	x16,x25,x27	 x25:0x80009ef8 x27:0x00000000 x16=0x00000000
       72075000	      7206	80002d70	fac32903	lw	x18,-84(x6)	  x6:0x800080c4 x18=0xe2b92ce3 PA:0x80008070
       72085000	      7207	80002d74	00000013	addi	x0,x0,0	  x0:0x00000000
       72095000	      7208	80002d78	0e930583	lb	x11,233(x6)	  x6:0x800080c4 x11=0x00000031 PA:0x800081ad
       72105000	      7209	80002d7c	09e31703	lh	x14,158(x6)	  x6:0x800080c4 x14=0xffffb193 PA:0x80008162
       72115000	      7210	80002d80	017acab3	xor	x21,x21,x23	 x21:0x8751eccc x23:0x00168f90 x21=0x8747635c
       72125000	      7211	80002d84	f0474293	xori	x5,x14,-252	 x14:0xffffb193  x5=0x00004e97
       72135000	      7212	80002d88	0b77a817	auipc	x16,0xb77a	 x16=0x8b77cd84
       72145000	      7213	80002d8c	04032223	sw	x0,68(x6)	  x6:0x800080c4  x0:0x00000000 PA:0x80008108
       72155000	      7214	80002d90	00f34803	lbu	x16,15(x6)	  x6:0x800080c4 x16=0x000000f0 PA:0x800080d3
       72165000	      7215	00000000	00000013	addi	x0,x0,0	  x0:0x00000000
       72175000	      7216	80002d94	010911b3	sll	x3,x18,x16	 x18:0xe2b92ce3 x16:0x000000f0  x3=0x2ce30000
       72185000	      7217	80002d98	04130883	lb	x17,65(x6)	  x6:0x800080c4 x17=0x00000016 PA:0x80008105
       72195000	      7218	80002d9c	001e36b3	sltu	x13,x28,x1	 x28:0x0000000a  x1:0xffffffb7 x13=0x00000001
       72205000	      7219	80002da0	00a0ce33	xor	x28,x1,x10	  x1:0xffffffb7 x10:0x0000000e x28=0xffffffb9
       72215000	      7220	80002da4	08e31503	lh	x10,142(x6)	  x6:0x800080c4 x10=0x000013f8 PA:0x80008152
       72225000	      7221	80002da8	f9635283	lhu	x5,-106(x6)	  x6:0x800080c4  x5=0x000040f8 PA:0x8000805a
       72235000	      7222	80002dac	ffe31883	lh	x17,-2(x6)	  x6:0x800080c4 x17=0xffff9ef0 PA:0x800080c2
       72245000	      7223	80002db0	ffb34f83	lbu	x31,-5(x6)	  x6:0x800080c4 x31=0x00000047 PA:0x800080bf
       72255000	      7224	80002db4	94cd4293	xori	x5,x26,-1716	 x26:0x00000060  x5=0xfffff92c
       72265000	      7225	80002db8	07930803	lb	x16,121(x6)	  x6:0x800080c4 x16=0xffffffe1 PA:0x8000813d
       72275000	      7226	80002dbc	08230223	sb	x2,132(x6)	  x6:0x800080c4  x2:0xaa8dd69f PA:0x80008148
       72285000	      7227	80002dc0	00006c17	auipc	x24,0x6	 x24=0x80008dbc
       72295000	      7228	80002dc4	0d2c0c13	addi	x24,x24,210	 x24:0x80008dbc x24=0x80008e8e
       72305000	      7229	80002dc8	417a5fb3	sra	x31,x20,x23	 x20:0xaf115471 x23:0x00168f90 x31=0xffffaf11
       72315000	      7230	80002dcc	004c2323	sw	x4,6(x24)	 x24:0x80008e8e  x4:0x0000000b PA:0x80008e94
       72325000	      7231	80002dd0	ff9c4583	lbu	x11,-7(x24)	 x24:0x80008e8e x11=0x0000009f PA:0x80008e87
       72335000	      7232	80002dd4	df408a93	addi	x21,x1,-524	  x1:0xffffffb7 x21=0xfffffdab
       72345000	      7233	80002dd8	005c0183	lb	x3,5(x24)	 x24:0x80008e8e  x3=0xffffffd2 PA:0x80008e93
       72355000	      7234	80002ddc	5adf0493	addi	x9,x30,1453	 x30:0xffffffaa  x9=0x00000557
       72365000	      7235	80002de0	3d7f8293	addi	x5,x31,983	 x31:0xffffaf11  x5=0xffffb2e8
       72375000	      7236	80002de4	ff6c0703	lb	x14,-10(x24)	 x24:0x80008e8e x14=0x00000078 PA:0x80008e84
       72385000	      7237	00000000	00000013	addi	x0,x0,0	  x0:0x00000000
       72395000	      7238	80002de8	40775bb3	sra	x23,x14,x7	 x14:0x00000078  x7:0x0000001b x23=0x00000000
       72405000	      7239	80002dec	0031a733	slt	x14,x3,x3	  x3:0xffffffd2  x3:0xffffffd2 x14=0x00000000
       72415000	      7240	80002df0	4149deb3	sra	x29,x19,x20	 x19:0x00000000 x20:0xaf115471 x29=0x00000000
       72425000	      7241	80002df4	2a58a513	slti	x10,x17,677	 x17:0xffff9ef0 x10=0x00000001
       72435000	      7242	80002df8	014de933	or	x18,x27,x20	 x27:0x00000000 x20:0xaf115471 x18=0xaf115471
       72445000	      7243	80002dfc	002c0083	lb	x1,2(x24)	 x24:0x80008e8e  x1=0x00000042 PA:0x80008e90
       72455000	      7244	80002e00	005c88b3	add	x17,x25,x5	 x25:0x80009ef8  x5:0xffffb2e8 x17=0x800051e0
       72465000	      7245	80002e04	ff2c1403	lh	x8,-14(x24)	 x24:0x80008e8e  x8=0x00007861 PA:0x80008e80
       72475000	      7246	80002e08	001c0483	lb	x9,1(x24)	 x24:0x80008e8e  x9=0x00000062 PA:0x80008e8f
       72485000	      7247	80002e0c	004c0483	lb	x9,4(x24)	 x24:0x80008e8e  x9=0xffffffd2 PA:0x80008e92
       72495000	      7248	80002e10	ff5c0403	lb	x8,-11(x24)	 x24:0x80008e8e  x8=0xffffffb0 PA:0x80008e83
       72505000	      7249	80002e14	009c02a3	sb	x9,5(x24)	 x24:0x80008e8e  x9:0xffffffd2 PA:0x80008e93
       72515000	      7250	80002e18	ff8c5403	lhu	x8,-8(x24)	 x24:0x80008e8e  x8=0x00009f78 PA:0x80008e86
       72525000	      7251	80002e1c	00f6d033	srl	x0,x13,x15	 x13:0x00000001 x15:0x80009fc4
       72535000	      7252	80002e20	01a958b3	srl	x17,x18,x26	 x18:0xaf115471 x26:0x00000060 x17=0xaf115471
       72545000	      7253	80002e24	400986b3	sub	x13,x19,x0	 x19:0x00000000  x0:0x00000000 x13=0x00000000
       72555000	      7254	80002e28	015c1823	sh	x21,16(x24)	 x24:0x80008e8e x21:0xfffffdab PA:0x80008e9e
       72565000	      7255	80002e2c	001c4583	lbu	x11,1(x24)	 x24:0x80008e8e x11=0x00000062 PA:0x80008e8f
       72575000	      7256	80002e30	ffec0e03	lb	x28,-2(x24)	 x24:0x80008e8e x28=0x00000001 PA:0x80008e8c
       72585000	      7257	80002e34	003c0a83	lb	x21,3(x24)	 x24:0x80008e8e x21=0xffffffc8 PA:0x80008e91
       72595000	      7258	80002e38	004c0603	lb	x12,4(x24)	 x24:0x80008e8e x12=0xffffffd2 PA:0x80008e92
       72605000	      7259	80002e3c	007015b3	sll	x11,x0,x7	  x0:0x00000000  x7:0x0000001b x11=0x00000000
       72615000	      7260	80002e40	00000013	addi	x0,x0,0	  x0:0x00000000
       72625000	      7261	80002e44	fe8c0b23	sb	x8,-10(x24)	 x24:0x80008e8e  x8:0x00009f78 PA:0x80008e84
       72635000	      7262	80002e48	010c1503	lh	x10,16(x24)	 x24:0x80008e8e x10=0xfffffdab PA:0x80008e9e
       72645000	      7263	80002e4c	00ec03a3	sb	x14,7(x24)	 x24:0x80008e8e x14:0x00000000 PA:0x80008e95
       72655000	      7264	80002e50	ffac5183	lhu	x3,-6(x24)	 x24:0x80008e8e  x3=0x0000771f PA:0x80008e88
       72665000	      7265	80002e54	c4609e97	auipc	x29,0xc4609	 x29=0x4460be50
       72675000	      7266	80002e58	ff1c0ea3	sb	x17,-3(x24)	 x24:0x80008e8e x17:0xaf115471 PA:0x80008e8b
       72685000	      7267	80002e5c	00bc4a83	lbu	x21,11(x24)	 x24:0x80008e8e x21=0x000000ab PA:0x80008e99
       72695000	      7268	80002e60	ffbc0183	lb	x3,-5(x24)	 x24:0x80008e8e  x3=0x00000077 PA:0x80008e89
       72705000	      7269	80002e64	41cedbb3	sra	x23,x29,x28	 x29:0x4460be50 x28:0x00000001 x23=0x22305f28
       72715000	      7270	80002e68	fe9c08a3	sb	x9,-15(x24)	 x24:0x80008e8e  x9:0xffffffd2 PA:0x80008e7f
       72725000	      7271	80002e6c	0153da33	srl	x20,x7,x21	  x7:0x0000001b x21:0x000000ab x20=0x00000000
       72735000	      7272	80002e70	235c4e13	xori	x28,x24,565	 x24:0x80008e8e x28=0x80008cbb
       72745000	      7273	80002e74	004c1e03	lh	x28,4(x24)	 x24:0x80008e8e x28=0xffffd2d2 PA:0x80008e92
       72755000	      7274	80002e78	002d3ab3	sltu	x21,x26,x2	 x26:0x00000060  x2:0xaa8dd69f x21=0x00000001
       72765000	      7275	80002e7c	fe2c0ca3	sb	x2,-7(x24)	 x24:0x80008e8e  x2:0xaa8dd69f PA:0x80008e87
       72775000	      7276	80002e80	000c1723	sh	x0,14(x24)	 x24:0x80008e8e  x0:0x00000000 PA:0x80008e9c
       72785000	      7277	80002e84	41c4de93	srai	x29,x9,0x1c	  x9:0xffffffd2 x29=0xffffffff
       72795000	      7278	80002e88	010c4203	lbu	x4,16(x24)	 x24:0x80008e8e  x4=0x000000ab PA:0x80008e9e
       72805000	      7279	80002e8c	01d61013	slli	x0,x12,0x1d	 x12:0xffffffd2
       72815000	      7280	80002e90	ff1c0da3	sb	x17,-5(x24)	 x24:0x80008e8e x17:0xaf115471 PA:0x80008e89
       72825000	      7281	80002e94	c4254b93	xori	x23,x10,-958	 x10:0xfffffdab x23=0x000001e9
       72835000	      7282	80002e98	001dbdb3	sltu	x27,x27,x1	 x27:0x00000000  x1:0x00000042 x27=0x00000001
       72845000	      7283	80002e9c	019c1723	sh	x25,14(x24)	 x24:0x80008e8e x25:0x80009ef8 PA:0x80008e9c
       72855000	      7284	80002ea0	00006997	auipc	x19,0x6	 x19=0x80008e9c
       72865000	      7285	80002ea4	a9898993	addi	x19,x19,-1384	 x19:0x80008e9c x19=0x80008934
       72875000	      7286	80002ea8	7cca4893	xori	x17,x20,1996	 x20:0x00000000 x17=0x000007cc
       72885000	      7287	80002eac	ff899a83	lh	x21,-8(x19)	 x19:0x80008934 x21=0x0000291a PA:0x8000892c
       72895000	      7288	80002eb0	0119c583	lbu	x11,17(x19)	 x19:0x80008934 x11=0x000000fe PA:0x80008945
       72905000	      7289	80002eb4	41a85433	sra	x8,x16,x26	 x16:0xffffffe1 x26:0x00000060  x8=0xffffffe1
       72915000	      7290	80002eb8	00c9a303	lw	x6,12(x19)	 x19:0x80008934  x6=0xe78322ff PA:0x80008940
       72925000	      7291	80002ebc	00edeb33	or	x22,x27,x14	 x27:0x00000001 x14:0x00000000 x22=0x00000001
       72935000	      7292	80002ec0	02598583	lb	x11,37(x19)	 x19:0x80008934 x11=0xffffff88 PA:0x80008959
       72945000	      7293	80002ec4	ee498b93	addi	x23,x19,-284	 x19:0x80008934 x23=0x80008818
       72955000	      7294	80002ec8	cbcf7593	andi	x11,x30,-836	 x30:0xffffffaa x11=0xfffffca8
       72965000	      7295	80002ecc	4083ec13	ori	x24,x7,1032	  x7:0x0000001b x24=0x0000041b
       72975000	      7296	80002ed0	ffb9c403	lbu	x8,-5(x19)	 x19:0x80008934  x8=0x000000f8 PA:0x8000892f
       72985000	      7297	80002ed4	302d0d37	lui	x26,0x302d0	 x26=0x302d0000
       72995000	      7298	80002ed8	ffd98683	lb	x13,-3(x19)	 x19:0x80008934 x13=0x0000001c PA:0x80008931
       73005000	      7299	80002edc	03a98fa3	sb	x26,63(x19)	 x19:0x80008934 x26:0x302d0000 PA:0x80008973
       73015000	      7300	80002ee0	ffb98123	sb	x27,-30(x19)	 x19:0x80008934 x27:0x00000001 PA:0x80008916
       73025000	      7301	80002ee4	fdb9c203	lbu	x4,-37(x19)	 x19:0x80008934  x4=0x00000054 PA:0x8000890f
       73035000	      7302	80002ee8	00000013	addi	x0,x0,0	  x0:0x00000000
       73045000	      7303	80002eec	02c9d583	lhu	x11,44(x19)	 x19:0x80008934 x11=0x00000000 PA:0x80008960
       73055000	      7304	80002ef0	01a69213	slli	x4,x13,0x1a	 x13:0x0000001c  x4=0x70000000
       73065000	      7305	80002ef4	01e99b23	sh	x30,22(x19)	 x19:0x80008934 x30:0xffffffaa PA:0x8000894a
       73075000	      7306	80002ef8	011cebb3	or	x23,x25,x17	 x25:0x80009ef8 x17:0x000007cc x23=0x80009ffc
       73085000	      7307	80002efc	e9777a93	andi	x21,x14,-361	 x14:0x00000000 x21=0x00000000
       73095000	      7308	80002f00	011981a3	sb	x17,3(x19)	 x19:0x80008934 x17:0x000007cc PA:0x80008937
       73105000	      7309	80002f04	7425ce37	lui	x28,0x7425c	 x28=0x7425c000
       73115000	      7310	80002f08	dd297e93	andi	x29,x18,-558	 x18:0xaf115471 x29=0xaf115450
       73125000	      7311	80002f0c	fed9cc03	lbu	x24,-19(x19)	 x19:0x80008934 x24=0x000000ad PA:0x80008921
       73135000	      7312	80002f10	ce9aee93	ori	x29,x21,-791	 x21:0x00000000 x29=0xfffffce9
       73145000	      7313	80002f14	03099923	sh	x16,50(x19)	 x19:0x80008934 x16:0xffffffe1 PA:0x80008966
       73155000	      7314	80002f18	01b98d03	lb	x26,27(x19)	 x19:0x80008934 x26=0x00000069 PA:0x8000894f
       73165000	      7315	80002f1c	03e9cb03	lbu	x22,62(x19)	 x19:0x80008934 x22=0x000000c4 PA:0x80008972
       73175000	      7316	80002f20	fdf988a3	sb	x31,-47(x19)	 x19:0x80008934 x31:0xffffaf11 PA:0x80008905
       73185000	      7317	80002f24	00006c17	auipc	x24,0x6	 x24=0x80008f20
       73195000	      7318	80002f28	b9dc0c13	addi	x24,x24,-1123	 x24:0x80008f20 x24=0x80008abd
       73205000	      7319	80002f2c	4123d913	srai	x18,x7,0x12	  x7:0x0000001b x18=0x00000000
       73215000	      7320	80002f30	40045e93	srai	x29,x8,0x0	  x8:0x000000f8 x29=0x000000f8
       73225000	      7321	80002f34	00000013	addi	x0,x0,0	  x0:0x00000000
       73235000	      7322	80002f38	bc867093	andi	x1,x12,-1080	 x12:0xffffffd2  x1=0xfffffbc0
       73245000	      7323	80002f3c	fcdc1903	lh	x18,-51(x24)	 x24:0x80008abd x18=0xffffaedf PA:0x80008a8a
       73255000	      7324	80002f40	028c0603	lb	x12,40(x24)	 x24:0x80008abd x12=0xfffffff9 PA:0x80008ae5
       73265000	      7325	80002f44	ffec0983	lb	x19,-2(x24)	 x24:0x80008abd x19=0x00000060 PA:0x80008abb
       73275000	      7326	80002f48	007abb33	sltu	x22,x21,x7	 x21:0x00000000  x7:0x0000001b x22=0x00000001
       73285000	      7327	80002f4c	4095d413	srai	x8,x11,0x9	 x11:0x00000000  x8=0x00000000
       73295000	      7328	80002f50	015f24b3	slt	x9,x30,x21	 x30:0xffffffaa x21:0x00000000  x9=0x00000001
       73305000	      7329	80002f54	40bd54b3	sra	x9,x26,x11	 x26:0x00000069 x11:0x00000000  x9=0x00000069
       73315000	      7330	80002f58	01f0f833	and	x16,x1,x31	  x1:0xfffffbc0 x31:0xffffaf11 x16=0xffffab00
       73325000	      7331	80002f5c	014b1b93	slli	x23,x22,0x14	 x22:0x00000001 x23=0x00100000
       73335000	      7332	80002f60	00a39893	slli	x17,x7,0xa	  x7:0x0000001b x17=0x00006c00
       73345000	      7333	80002f64	003d50b3	srl	x1,x26,x3	 x26:0x00000069  x3:0x00000077  x1=0x00000000
       73355000	      7334	80002f68	02cc0323	sb	x12,38(x24)	 x24:0x80008abd x12:0xfffffff9 PA:0x80008ae3
       73365000	      7335	80002f6c	aaff22b7	lui	x5,0xaaff2	  x5=0xaaff2000
       73375000	      7336	80002f70	02ec0383	lb	x7,46(x24)	 x24:0x80008abd  x7=0xffffffc8 PA:0x80008aeb
       73385000	      7337	80002f74	41402f97	auipc	x31,0x41402	 x31=0xc1404f70
       73395000	      7338	80002f78	5a074713	xori	x14,x14,1440	 x14:0x00000000 x14=0x000005a0
       73405000	      7339	80002f7c	02bc0703	lb	x14,43(x24)	 x24:0x80008abd x14=0xffffffef PA:0x80008ae8
       73415000	      7340	80002f80	017d99b3	sll	x19,x27,x23	 x27:0x00000001 x23:0x00100000 x19=0x00000001
       73425000	      7341	80002f84	57fba913	slti	x18,x23,1407	 x23:0x00100000 x18=0x00000000
       73435000	      7342	80002f88	41addb33	sra	x22,x27,x26	 x27:0x00000001 x26:0x00000069 x22=0x00000000
       73445000	      7343	80002f8c	fcdc2fa3	sw	x13,-33(x24)	 x24:0x80008abd x13:0x0000001c PA:0x80008a9c
       73455000	      7344	80002f90	00f20033	add	x0,x4,x15	  x4:0x70000000 x15:0x80009fc4
       73465000	      7345	80002f94	fe3c5683	lhu	x13,-29(x24)	 x24:0x80008abd x13=0x000055fc PA:0x80008aa0
       73475000	      7346	80002f98	ff7c5683	lhu	x13,-9(x24)	 x24:0x80008abd x13=0x00002efa PA:0x80008ab4
       73485000	      7347	80002f9c	01cc6533	or	x10,x24,x28	 x24:0x80008abd x28:0x7425c000 x10=0xf425cabd
       73495000	      7348	80002fa0	009959b3	srl	x19,x18,x9	 x18:0x00000000  x9:0x00000069 x19=0x00000000
       73505000	      7349	80002fa4	0009a8b3	slt	x17,x19,x0	 x19:0x00000000  x0:0x00000000 x17=0x00000000
       73515000	      7350	80002fa8	a087bd97	auipc	x27,0xa087b	 x27=0x2087dfa4
       73525000	      7351	80002fac	9ea20393	addi	x7,x4,-1558	  x4:0x70000000  x7=0x6ffff9ea
       73535000	      7352	80002fb0	010bd093	srli	x1,x23,0x10	 x23:0x00100000  x1=0x00000010
       73545000	      7353	80002fb4	01ec0023	sb	x30,0(x24)	 x24:0x80008abd x30:0xffffffaa PA:0x80008abd
       73555000	      7354	80002fb8	00006b17	auipc	x22,0x6	 x22=0x80008fb4
       73565000	      7355	80002fbc	a89b0b13	addi	x22,x22,-1399	 x22:0x80008fb4 x22=0x80008a3d
       73575000	      7356	80002fc0	0161d213	srli	x4,x3,0x16	  x3:0x00000077  x4=0x00000000
       73585000	      7357	80002fc4	f21b0883	lb	x17,-223(x22)	 x22:0x80008a3d x17=0x00000065 PA:0x8000895e
       73595000	      7358	80002fc8	fcfb5383	lhu	x7,-49(x22)	 x22:0x80008a3d  x7=0x000029b3 PA:0x80008a0c
       73605000	      7359	80002fcc	6b07ce93	xori	x29,x15,1712	 x15:0x80009fc4 x29=0x80009974
       73615000	      7360	80002fd0	c0159517	auipc	x10,0xc0159	 x10=0x4015bfcc
       73625000	      7361	80002fd4	025b1f03	lh	x30,37(x22)	 x22:0x80008a3d x30=0x000015a0 PA:0x80008a62
       73635000	      7362	80002fd8	0c8b0123	sb	x8,194(x22)	 x22:0x80008a3d  x8:0x00000000 PA:0x80008aff
       73645000	      7363	80002fdc	f5943913	sltiu	x18,x8,-167	  x8:0x00000000 x18=0x00000001
       73655000	      7364	80002fe0	41bedd33	sra	x26,x29,x27	 x29:0x80009974 x27:0x2087dfa4 x26=0xf8000997
       73665000	      7365	80002fe4	ddcc29b7	lui	x19,0xddcc2	 x19=0xddcc2000
       73675000	      7366	80002fe8	f7ab0083	lb	x1,-134(x22)	 x22:0x80008a3d  x1=0x00000000 PA:0x800089b7
       73685000	      7367	80002fec	fd3b5303	lhu	x6,-45(x22)	 x22:0x80008a3d  x6=0x0000afe0 PA:0x80008a10
       73695000	      7368	80002ff0	08cb0703	lb	x14,140(x22)	 x22:0x80008a3d x14=0xffffffe0 PA:0x80008ac9
       73705000	      7369	80002ff4	fd6b0f03	lb	x30,-42(x22)	 x22:0x80008a3d x30=0xffffffaf PA:0x80008a13
       73715000	      7370	80002ff8	41990bb3	sub	x23,x18,x25	 x18:0x00000001 x25:0x80009ef8 x23=0x7fff6109
       73725000	      7371	80002ffc	f98b4603	lbu	x12,-104(x22)	 x22:0x80008a3d x12=0x00000040 PA:0x800089d5
       73735000	      7372	00000000	00000013	addi	x0,x0,0	  x0:0x00000000
       73745000	      7373	80003000	06cb4883	lbu	x17,108(x22)	 x22:0x80008a3d x17=0x0000001f PA:0x80008aa9
       73755000	      7374	80003004	37c28593	addi	x11,x5,892	  x5:0xaaff2000 x11=0xaaff237c
       73765000	      7375	80003008	fd5b0383	lb	x7,-43(x22)	 x22:0x80008a3d  x7=0xffffffd2 PA:0x80008a12
       73775000	      7376	8000300c	013bca33	xor	x20,x23,x19	 x23:0x7fff6109 x19:0xddcc2000 x20=0xa2334109
       73785000	      7377	80003010	0117fab3	and	x21,x15,x17	 x15:0x80009fc4 x17:0x0000001f x21=0x00000004
       73795000	      7378	80003014	8c589537	lui	x10,0x8c589	 x10=0x8c589000
       73805000	      7379	80003018	f0fb08a3	sb	x15,-239(x22)	 x22:0x80008a3d x15:0x80009fc4 PA:0x8000894e
       73815000	      7380	8000301c	f77b0e83	lb	x29,-137(x22)	 x22:0x80008a3d x29=0x00000033 PA:0x800089b4
       73825000	      7381	80003020	0d1b0d03	lb	x26,209(x22)	 x22:0x80008a3d x26=0x0000001b PA:0x80008b0e
       73835000	      7382	80003024	0180efb3	or	x31,x1,x24	  x1:0x00000000 x24:0x80008abd x31=0x80008abd
       73845000	      7383	80003028	01dfdfb3	srl	x31,x31,x29	 x31:0x80008abd x29:0x00000033 x31=0x00001000
       73855000	      7384	8000302c	f28b4403	lbu	x8,-216(x22)	 x22:0x80008a3d  x8=0x000000a4 PA:0x80008965
       73865000	      7385	80003030	0f8b0023	sb	x24,224(x22)	 x22:0x80008a3d x24:0x80008abd PA:0x80008b1d
       73875000	      7386	80003034	0d2b0d83	lb	x27,210(x22)	 x22:0x80008a3d x27=0xffffffe5 PA:0x80008b0f
       73885000	      7387	80003038	fddb1703	lh	x14,-35(x22)	 x22:0x80008a3d x14=0x00000449 PA:0x80008a1a
       73895000	      7388	8000303c	100b4383	lbu	x7,256(x22)	 x22:0x80008a3d  x7=0x000000ae PA:0x80008b3d
       73905000	      7389	80003040	fbcb4983	lbu	x19,-68(x22)	 x22:0x80008a3d x19=0x00000025 PA:0x800089f9
       73915000	      7390	00000000	00000013	addi	x0,x0,0	  x0:0x00000000
       73925000	      7391	80003044	01f9b833	sltu	x16,x19,x31	 x19:0x00000025 x31:0x00001000 x16=0x00000001
       73935000	      7392	80003048	00f80eb3	add	x29,x16,x15	 x16:0x00000001 x15:0x80009fc4 x29=0x80009fc5
       73945000	      7393	8000304c	00f24333	xor	x6,x4,x15	  x4:0x00000000 x15:0x80009fc4  x6=0x80009fc4
       73955000	      7394	80003050	009a8633	add	x12,x21,x9	 x21:0x00000004  x9:0x00000069 x12=0x0000006d
       73965000	      7395	80003054	008b0803	lb	x16,8(x22)	 x22:0x80008a3d x16=0x0000003c PA:0x80008a45
       73975000	      7396	80003058	006605b3	add	x11,x12,x6	 x12:0x0000006d  x6:0x80009fc4 x11=0x8000a031
       73985000	      7397	8000305c	f2ab0303	lb	x6,-214(x22)	 x22:0x80008a3d  x6=0xffffffff PA:0x80008967
       73995000	      7398	80003060	f20b0703	lb	x14,-224(x22)	 x22:0x80008a3d x14=0x0000005f PA:0x8000895d
       74005000	      7399	80003064	01fefbb3	and	x23,x29,x31	 x29:0x80009fc5 x31:0x00001000 x23=0x00001000
       74015000	      7400	80003068	28bc0413	addi	x8,x24,651	 x24:0x80008abd  x8=0x80008d48
       74025000	      7401	8000306c	0165cc33	xor	x24,x11,x22	 x11:0x8000a031 x22:0x80008a3d x24=0x00002a0c
       74035000	      7402	80003070	025b1a83	lh	x21,37(x22)	 x22:0x80008a3d x21=0x000015a0 PA:0x80008a62
       74045000	      7403	80003074	0fcb0483	lb	x9,252(x22)	 x22:0x80008a3d  x9=0xfffffff9 PA:0x80008b39
       74055000	      7404	80003078	01389893	slli	x17,x17,0x13	 x17:0x0000001f x17=0x00f80000
       74065000	      7405	8000307c	91fcad93	slti	x27,x25,-1761	 x25:0x80009ef8 x27=0x00000001
       74075000	      7406	80003080	00eb0403	lb	x8,14(x22)	 x22:0x80008a3d  x8=0x00000037 PA:0x80008a4b
       74085000	      7407	80003084	00521733	sll	x14,x4,x5	  x4:0x00000000  x5:0xaaff2000 x14=0x00000000
       74095000	      7408	80003088	02eb0a03	lb	x20,46(x22)	 x22:0x80008a3d x20=0x00000040 PA:0x80008a6b
       74105000	      7409	8000308c	00006917	auipc	x18,0x6	 x18=0x80009088
       74115000	      7410	80003090	a9590913	addi	x18,x18,-1387	 x18:0x80009088 x18=0x80008b1d
       74125000	      7411	80003094	f0c52013	slti	x0,x10,-244	 x10:0x8c589000
       74135000	      7412	80003098	00b2f733	and	x14,x5,x11	  x5:0xaaff2000 x11:0x8000a031 x14=0x80002000
       74145000	      7413	8000309c	01f9f9b3	and	x19,x19,x31	 x19:0x00000025 x31:0x00001000 x19=0x00000000
       74155000	      7414	800030a0	00a35213	srli	x4,x6,0xa	  x6:0xffffffff  x4=0x003fffff
       74165000	      7415	800030a4	fe090b83	lb	x23,-32(x18)	 x18:0x80008b1d x23=0xffffffa3 PA:0x80008afd
       74175000	      7416	800030a8	00b94383	lbu	x7,11(x18)	 x18:0x80008b1d  x7=0x00000053 PA:0x80008b28
       74185000	      7417	800030ac	01290823	sb	x18,16(x18)	 x18:0x80008b1d x18:0x80008b1d PA:0x80008b2d
       74195000	      7418	800030b0	00791c03	lh	x24,7(x18)	 x18:0x80008b1d x24=0x00007b34 PA:0x80008b24
       74205000	      7419	800030b4	ffc90e83	lb	x29,-4(x18)	 x18:0x80008b1d x29=0x00000038 PA:0x80008b19
       74215000	      7420	800030b8	01c90703	lb	x14,28(x18)	 x18:0x80008b1d x14=0xfffffff9 PA:0x80008b39
       74225000	      7421	800030bc	ae4f7393	andi	x7,x30,-1308	 x30:0xffffffaf  x7=0xfffffaa4
       74235000	      7422	800030c0	581bfe17	auipc	x28,0x581bf	 x28=0xd81c20bc
       74245000	      7423	800030c4	01f33733	sltu	x14,x6,x31	  x6:0xffffffff x31:0x00001000 x14=0x00000000
       74255000	      7424	800030c8	fc7918a3	sh	x7,-47(x18)	 x18:0x80008b1d  x7:0xfffffaa4 PA:0x80008aee
       74265000	      7425	800030cc	00c43b33	sltu	x22,x8,x12	  x8:0x00000037 x12:0x0000006d x22=0x00000001
       74275000	      7426	800030d0	02894d03	lbu	x26,40(x18)	 x18:0x80008b1d x26=0x00000096 PA:0x80008b45
       74285000	      7427	800030d4	b2adf013	andi	x0,x27,-1238	 x27:0x00000001
       74295000	      7428	800030d8	fec90203	lb	x4,-20(x18)	 x18:0x80008b1d  x4=0xfffffff2 PA:0x80008b09
       74305000	      7429	800030dc	fc994203	lbu	x4,-55(x18)	 x18:0x80008b1d  x4=0x00000051 PA:0x80008ae6
       74315000	      7430	800030e0	03791f83	lh	x31,55(x18)	 x18:0x80008b1d x31=0xffffcd02 PA:0x80008b54
       74325000	      7431	800030e4	01c90ea3	sb	x28,29(x18)	 x18:0x80008b1d x28:0xd81c20bc PA:0x80008b3a
       74335000	      7432	800030e8	00fd5a13	srli	x20,x26,0xf	 x26:0x00000096 x20=0x00000000
       74345000	      7433	800030ec	00000013	addi	x0,x0,0	  x0:0x00000000
       74355000	      7434	800030f0	01c866b3	or	x13,x16,x28	 x16:0x0000003c x28:0xd81c20bc x13=0xd81c20bc
       74365000	      7435	800030f4	005e5213	srli	x4,x28,0x5	 x28:0xd81c20bc  x4=0x06c0e105
       74375000	      7436	800030f8	4126d393	srai	x7,x13,0x12	 x13:0xd81c20bc  x7=0xfffff607
       74385000	      7437	800030fc	fd790e23	sb	x23,-36(x18)	 x18:0x80008b1d x23:0xffffffa3 PA:0x80008af9
       74395000	      7438	80003100	fc990b03	lb	x22,-55(x18)	 x18:0x80008b1d x22=0x00000051 PA:0x80008ae6
       74405000	      7439	80003104	00e7fc33	and	x24,x15,x14	 x15:0x80009fc4 x14:0x00000000 x24=0x00000000
       74415000	      7440	80003108	fcc90d83	lb	x27,-52(x18)	 x18:0x80008b1d x27=0x00000005 PA:0x80008ae9
       74425000	      7441	8000310c	00005a17	auipc	x20,0x5	 x20=0x80008108
       74435000	      7442	80003110	71ca0a13	addi	x20,x20,1820	 x20:0x80008108 x20=0x80008824
       74445000	      7443	80003114	bd797093	andi	x1,x18,-1065	 x18:0x80008b1d  x1=0x80008b15
       74455000	      7444	80003118	2b8efd37	lui	x26,0x2b8ef	 x26=0x2b8ef000
       74465000	      7445	8000311c	00fa0e83	lb	x29,15(x20)	 x20:0x80008824 x29=0x0000007e PA:0x80008833
       74475000	      7446	80003120	ffea1e03	lh	x28,-2(x20)	 x20:0x80008824 x28=0xffffe8ac PA:0x80008822
       74485000	      7447	80003124	00ba0b83	lb	x23,11(x20)	 x20:0x80008824 x23=0xfffffff8 PA:0x8000882f
       74495000	      7448	80003128	00648633	add	x12,x9,x6	  x9:0xfffffff9  x6:0xffffffff x12=0xfffffff8
       74505000	      7449	8000312c	01aa0323	sb	x26,6(x20)	 x20:0x80008824 x26:0x2b8ef000 PA:0x8000882a
       74515000	      7450	80003130	003a4483	lbu	x9,3(x20)	 x20:0x80008824  x9=0x000000da PA:0x80008827
       74525000	      7451	80003134	2d0f4997	auipc	x19,0x2d0f4	 x19=0xad0f7130
       74535000	      7452	80003138	00fa4903	lbu	x18,15(x20)	 x20:0x80008824 x18=0x0000007e PA:0x80008833
       74545000	      7453	8000313c	00aa1983	lh	x19,10(x20)	 x20:0x80008824 x19=0xfffff870 PA:0x8000882e
       74555000	      7454	80003140	00ea0b03	lb	x22,14(x20)	 x20:0x80008824 x22=0x0000001a PA:0x80008832
       74565000	      7455	80003144	019a05a3	sb	x25,11(x20)	 x20:0x80008824 x25:0x80009ef8 PA:0x8000882f
       74575000	      7456	80003148	ffba0403	lb	x8,-5(x20)	 x20:0x80008824  x8=0xffffffca PA:0x8000881f
       74585000	      7457	8000314c	005a0403	lb	x8,5(x20)	 x20:0x80008824  x8=0x0000007a PA:0x80008829
       74595000	      7458	80003150	01a608b3	add	x17,x12,x26	 x12:0xfffffff8 x26:0x2b8ef000 x17=0x2b8eeff8
       74605000	      7459	80003154	feaa1b23	sh	x10,-10(x20)	 x20:0x80008824 x10:0x8c589000 PA:0x8000881a
       74615000	      7460	80003158	41450fb3	sub	x31,x10,x20	 x10:0x8c589000 x20:0x80008824 x31=0x0c5807dc
       74625000	      7461	8000315c	6dd37013	andi	x0,x6,1757	  x6:0xffffffff
       74635000	      7462	80003160	c294c693	xori	x13,x9,-983	  x9:0x000000da x13=0xfffffcf3
       74645000	      7463	80003164	ff7a0f83	lb	x31,-9(x20)	 x20:0x80008824 x31=0xffffff90 PA:0x8000881b
       74655000	      7464	80003168	01769493	slli	x9,x13,0x17	 x13:0xfffffcf3  x9=0x79800000
       74665000	      7465	8000316c	007a4f03	lbu	x30,7(x20)	 x20:0x80008824 x30=0x000000ec PA:0x8000882b
       74675000	      7466	80003170	00da4f03	lbu	x30,13(x20)	 x20:0x80008824 x30=0x00000041 PA:0x80008831
       74685000	      7467	80003174	a0a5bd17	auipc	x26,0xa0a5b	 x26=0x20a5e170
       74695000	      7468	80003178	ff2a1c23	sh	x18,-8(x20)	 x20:0x80008824 x18:0x0000007e PA:0x8000881c
       74705000	      7469	8000317c	ffca0683	lb	x13,-4(x20)	 x20:0x80008824 x13=0xffffff93 PA:0x80008820
       74715000	      7470	80003180	00e79813	slli	x16,x15,0xe	 x15:0x80009fc4 x16=0x27f10000
       74725000	      7471	80003184	feca1b23	sh	x12,-10(x20)	 x20:0x80008824 x12:0xfffffff8 PA:0x8000881a
       74735000	      7472	80003188	ff5a4383	lbu	x7,-11(x20)	 x20:0x80008824  x7=0x0000005c PA:0x80008819
       74745000	      7473	8000318c	ff4a2d83	lw	x27,-12(x20)	 x20:0x80008824 x27=0xfff85c1e PA:0x80008818
       74755000	      7474	80003190	005a4303	lbu	x6,5(x20)	 x20:0x80008824  x6=0x0000007a PA:0x80008829
       74765000	      7475	80003194	00006597	auipc	x11,0x6	 x11=0x80009190
       74775000	      7476	80003198	c0758593	addi	x11,x11,-1017	 x11:0x80009190 x11=0x80008d97
       74785000	      7477	8000319c	09f58b83	lb	x23,159(x11)	 x11:0x80008d97 x23=0xffffff87 PA:0x80008e36
       74795000	      7478	800031a0	00000013	addi	x0,x0,0	  x0:0x00000000
       74805000	      7479	800031a4	87e2ca13	xori	x20,x5,-1922	  x5:0xaaff2000 x20=0x5500d87e
       74815000	      7480	800031a8	0625ce83	lbu	x29,98(x11)	 x11:0x80008d97 x29=0x00000001 PA:0x80008df9
       74825000	      7481	800031ac	25013a93	sltiu	x21,x2,592	  x2:0xaa8dd69f x21=0x00000000
       74835000	      7482	800031b0	584e0293	addi	x5,x28,1412	 x28:0xffffe8ac  x5=0xffffee30
       74845000	      7483	800031b4	fa958183	lb	x3,-87(x11)	 x11:0x80008d97  x3=0x0000007e PA:0x80008d40
       74855000	      7484	800031b8	41c8d2b3	sra	x5,x17,x28	 x17:0x2b8eeff8 x28:0xffffe8ac  x5=0x0002b8ee
       74865000	      7485	800031bc	f5258e03	lb	x28,-174(x11)	 x11:0x80008d97 x28=0x00000037 PA:0x80008ce9
       74875000	      7486	800031c0	06f5d403	lhu	x8,111(x11)	 x11:0x80008d97  x8=0x00008c53 PA:0x80008e06
       74885000	      7487	800031c4	57fe4313	xori	x6,x28,1407	 x28:0x00000037  x6=0x00000548
       74895000	      7488	800031c8	010533b3	sltu	x7,x10,x16	 x10:0x8c589000 x16:0x27f10000  x7=0x00000000
       74905000	      7489	800031cc	3ec6f093	andi	x1,x13,1004	 x13:0xffffff93  x1=0x00000380
       74915000	      7490	800031d0	01b49bb3	sll	x23,x9,x27	  x9:0x79800000 x27:0xfff85c1e x23=0x00000000
       74925000	      7491	800031d4	01c129b3	slt	x19,x2,x28	  x2:0xaa8dd69f x28:0x00000037 x19=0x00000001
       74935000	      7492	800031d8	0167aab3	slt	x21,x15,x22	 x15:0x80009fc4 x22:0x0000001a x21=0x00000001
       74945000	      7493	800031dc	6e288697	auipc	x13,0x6e288	 x13=0xee28b1d8
       74955000	      7494	800031e0	01e23033	sltu	x0,x4,x30	  x4:0x06c0e105 x30:0x00000041
       74965000	      7495	800031e4	00d16733	or	x14,x2,x13	  x2:0xaa8dd69f x13:0xee28b1d8 x14=0xeeadf7df
       74975000	      7496	800031e8	b887b097	auipc	x1,0xb887b	  x1=0x3887e1e4
       74985000	      7497	800031ec	fb35dc03	lhu	x24,-77(x11)	 x11:0x80008d97 x24=0x0000b3a8 PA:0x80008d4a
       74995000	      7498	800031f0	01958523	sb	x25,10(x11)	 x11:0x80008d97 x25:0x80009ef8 PA:0x80008da1
       75005000	      7499	800031f4	01d159b3	srl	x19,x2,x29	  x2:0xaa8dd69f x29:0x00000001 x19=0x5546eb4f
       75015000	      7500	800031f8	013f1933	sll	x18,x30,x19	 x30:0x00000041 x19:0x5546eb4f x18=0x00208000
       75025000	      7501	800031fc	fe95a203	lw	x4,-23(x11)	 x11:0x80008d97  x4=0xd1413550 PA:0x80008d80
       75035000	      7502	80003200	015519b3	sll	x19,x10,x21	 x10:0x8c589000 x21:0x00000001 x19=0x18b12000
       75045000	      7503	80003204	083593a3	sh	x3,135(x11)	 x11:0x80008d97  x3:0x0000007e PA:0x80008e1e
       75055000	      7504	80003208	05058983	lb	x19,80(x11)	 x11:0x80008d97 x19=0x00000000 PA:0x80008de7
       75065000	      7505	8000320c	40475eb3	sra	x29,x14,x4	 x14:0xeeadf7df  x4:0xd1413550 x29=0xffffeead
       75075000	      7506	80003210	0795a303	lw	x6,121(x11)	 x11:0x80008d97  x6=0x00009edc PA:0x80008e10
       75085000	      7507	80003214	322abd93	sltiu	x27,x21,802	 x21:0x00000001 x27=0x00000001
       75095000	      7508	80003218	01005a33	srl	x20,x0,x16	  x0:0x00000000 x16:0x27f10000 x20=0x00000000
       75105000	      7509	8000321c	003772b3	and	x5,x14,x3	 x14:0xeeadf7df  x3:0x0000007e  x5=0x0000005e
       75115000	      7510	80003220	01f19433	sll	x8,x3,x31	  x3:0x0000007e x31:0xffffff90  x8=0x007e0000
       75125000	      7511	80003224	36e584b7	lui	x9,0x36e58	  x9=0x36e58000
       75135000	      7512	80003228	00d0f633	and	x12,x1,x13	  x1:0x3887e1e4 x13:0xee28b1d8 x12=0x2800a1c0
       75145000	      7513	8000322c	7d24bc13	sltiu	x24,x9,2002	  x9:0x36e58000 x24=0x00000000
       75155000	      7514	80003230	0f75cd83	lbu	x27,247(x11)	 x11:0x80008d97 x27=0x000000cc PA:0x80008e8e
       75165000	      7515	00000000	00000013	addi	x0,x0,0	  x0:0x00000000
       75175000	      7516	80003234	2acda013	slti	x0,x27,684	 x27:0x000000cc
       75185000	      7517	80003238	007400b3	add	x1,x8,x7	  x8:0x007e0000  x7:0x00000000  x1=0x007e0000
       75195000	      7518	8000323c	02759403	lh	x8,39(x11)	 x11:0x80008d97  x8=0x00000111 PA:0x80008dbe
       75205000	      7519	80003240	0b758903	lb	x18,183(x11)	 x11:0x80008d97 x18=0x00000001 PA:0x80008e4e
       75215000	      7520	80003244	0ad58f23	sb	x13,190(x11)	 x11:0x80008d97 x13:0xee28b1d8 PA:0x80008e55
       75225000	      7521	80003248	009af933	and	x18,x21,x9	 x21:0x00000001  x9:0x36e58000 x18=0x00000000
       75235000	      7522	8000324c	f8759683	lh	x13,-121(x11)	 x11:0x80008d97 x13=0xffffe93e PA:0x80008d1e
       75245000	      7523	80003250	00006e17	auipc	x28,0x6	 x28=0x8000924c
       75255000	      7524	80003254	c82e0e13	addi	x28,x28,-894	 x28:0x8000924c x28=0x80008ece
       75265000	      7525	80003258	41438233	sub	x4,x7,x20	  x7:0x00000000 x20:0x00000000  x4=0x00000000
       75275000	      7526	8000325c	05fe0ca3	sb	x31,89(x28)	 x28:0x80008ece x31:0xffffff90 PA:0x80008f27
       75285000	      7527	80003260	f8ce5603	lhu	x12,-116(x28)	 x28:0x80008ece x12=0x000005fe PA:0x80008e5a
       75295000	      7528	80003264	0c3e2123	sw	x3,194(x28)	 x28:0x80008ece  x3:0x0000007e PA:0x80008f90
       75305000	      7529	80003268	0d3e0203	lb	x4,211(x28)	 x28:0x80008ece  x4=0x0000001d PA:0x80008fa1
       75315000	      7530	8000326c	0dee1223	sh	x30,196(x28)	 x28:0x80008ece x30:0x00000041 PA:0x80008f92
       75325000	      7531	80003270	af6fad13	slti	x26,x31,-1290	 x31:0xffffff90 x26=0x00000000
       75335000	      7532	80003274	b9722493	slti	x9,x4,-1129	  x4:0x0000001d  x9=0x00000000
       75345000	      7533	80003278	fcfe4203	lbu	x4,-49(x28)	 x28:0x80008ece  x4=0x0000009e PA:0x80008e9d
       75355000	      7534	8000327c	07be0223	sb	x27,100(x28)	 x28:0x80008ece x27:0x000000cc PA:0x80008f32
       75365000	      7535	80003280	68874b93	xori	x23,x14,1672	 x14:0xeeadf7df x23=0xeeadf157
       75375000	      7536	80003284	016e1803	lh	x16,22(x28)	 x28:0x80008ece x16=0x00002104 PA:0x80008ee4
       75385000	      7537	80003288	6a868497	auipc	x9,0x6a868	  x9=0xea86b284
       75395000	      7538	8000328c	00d65613	srli	x12,x12,0xd	 x12:0x000005fe x12=0x00000000
       75405000	      7539	80003290	ff4e1c23	sh	x20,-8(x28)	 x28:0x80008ece x20:0x00000000 PA:0x80008ec6
       75415000	      7540	80003294	f22e0303	lb	x6,-222(x28)	 x28:0x80008ece  x6=0x0000005d PA:0x80008df0
       75425000	      7541	80003298	05ee2983	lw	x19,94(x28)	 x28:0x80008ece x19=0xb9af6b6a PA:0x80008f2c
       75435000	      7542	8000329c	f39e0f23	sb	x25,-194(x28)	 x28:0x80008ece x25:0x80009ef8 PA:0x80008e0c
       75445000	      7543	800032a0	f45e0603	lb	x12,-187(x28)	 x28:0x80008ece x12=0x00000000 PA:0x80008e13
       75455000	      7544	800032a4	01143fb3	sltu	x31,x8,x17	  x8:0x00000111 x17:0x2b8eeff8 x31=0x00000001
       75465000	      7545	800032a8	08de0d23	sb	x13,154(x28)	 x28:0x80008ece x13:0xffffe93e PA:0x80008f68
       75475000	      7546	800032ac	15f5e313	ori	x6,x11,351	 x11:0x80008d97  x6=0x80008ddf
       75485000	      7547	800032b0	0c4e1423	sh	x4,200(x28)	 x28:0x80008ece  x4:0x0000009e PA:0x80008f96
       75495000	      7548	800032b4	0cee1423	sh	x14,200(x28)	 x28:0x80008ece x14:0xeeadf7df PA:0x80008f96
       75505000	      7549	800032b8	00000013	addi	x0,x0,0	  x0:0x00000000
       75515000	      7550	800032bc	ffce1283	lh	x5,-4(x28)	 x28:0x80008ece  x5=0x0000702a PA:0x80008eca
       75525000	      7551	800032c0	fe2e01a3	sb	x2,-29(x28)	 x28:0x80008ece  x2:0xaa8dd69f PA:0x80008eb1
       75535000	      7552	800032c4	014cfa33	and	x20,x25,x20	 x25:0x80009ef8 x20:0x00000000 x20=0x00000000
       75545000	      7553	800032c8	0f4e5c03	lhu	x24,244(x28)	 x28:0x80008ece x24=0x0000f93b PA:0x80008fc2
       75555000	      7554	800032cc	fc7e0f03	lb	x30,-57(x28)	 x28:0x80008ece x30=0x00000000 PA:0x80008e95
       75565000	      7555	800032d0	003e4683	lbu	x13,3(x28)	 x28:0x80008ece x13=0x00000000 PA:0x80008ed1
       75575000	      7556	800032d4	05ce5183	lhu	x3,92(x28)	 x28:0x80008ece  x3=0x000042d3 PA:0x80008f2a
       75585000	      7557	800032d8	f38e0aa3	sb	x24,-203(x28)	 x28:0x80008ece x24:0x0000f93b PA:0x80008e03
       75595000	      7558	800032dc	4078d193	srai	x3,x17,0x7	 x17:0x2b8eeff8  x3=0x00571ddf
       75605000	      7559	800032e0	01f7b333	sltu	x6,x15,x31	 x15:0x80009fc4 x31:0x00000001  x6=0x00000000
       75615000	      7560	800032e4	69848f13	addi	x30,x9,1688	  x9:0xea86b284 x30=0xea86b91c
       75625000	      7561	800032e8	0a3e4183	lbu	x3,163(x28)	 x28:0x80008ece  x3=0x000000d1 PA:0x80008f71
       75635000	      7562	800032ec	f27e0fa3	sb	x7,-193(x28)	 x28:0x80008ece  x7:0x00000000 PA:0x80008e0d
       75645000	      7563	800032f0	00586933	or	x18,x16,x5	 x16:0x00002104  x5:0x0000702a x18=0x0000712e
       75655000	      7564	800032f4	67b8b897	auipc	x17,0x67b8b	 x17=0xe7b8e2f0
       75665000	      7565	800032f8	095e01a3	sb	x21,131(x28)	 x28:0x80008ece x21:0x00000001 PA:0x80008f51
       75675000	      7566	800032fc	03de08a3	sb	x29,49(x28)	 x28:0x80008ece x29:0xffffeead PA:0x80008eff
       75685000	      7567	80003300	020e1723	sh	x0,46(x28)	 x28:0x80008ece  x0:0x00000000 PA:0x80008efc
       75695000	      7568	80003304	d3c1bb13	sltiu	x22,x3,-708	  x3:0x000000d1 x22=0x00000001
       75705000	      7569	80003308	01505bb3	srl	x23,x0,x21	  x0:0x00000000 x21:0x00000001 x23=0x00000000
       75715000	      7570	8000330c	2ab9b293	sltiu	x5,x19,683	 x19:0xb9af6b6a  x5=0x00000000
       75725000	      7571	80003310	009e5a33	srl	x20,x28,x9	 x28:0x80008ece  x9:0xea86b284 x20=0x080008ec
       75735000	      7572	80003314	0132de93	srli	x29,x5,0x13	  x5:0x00000000 x29=0x00000000
       75745000	      7573	80003318	01a373b3	and	x7,x6,x26	  x6:0x00000000 x26:0x00000000  x7=0x00000000
       75755000	      7574	8000331c	011fb9b3	sltu	x19,x31,x17	 x31:0x00000001 x17:0xe7b8e2f0 x19=0x00000001
       75765000	      7575	80003320	a0295017	auipc	x0,0xa0295	
       75775000	      7576	80003324	03ce8f93	addi	x31,x29,60	 x29:0x00000000 x31=0x0000003c
       75785000	      7577	80003328	00e940b3	xor	x1,x18,x14	 x18:0x0000712e x14:0xeeadf7df  x1=0xeead86f1
       75795000	      7578	8000332c	001c2b33	slt	x22,x24,x1	 x24:0x0000f93b  x1:0xeead86f1 x22=0x00000000
       75805000	      7579	80003330	2402b413	sltiu	x8,x5,576	  x5:0x00000000  x8=0x00000001
       75815000	      7580	80003334	01579593	slli	x11,x15,0x15	 x15:0x80009fc4 x11=0xf8800000
       75825000	      7581	80003338	42240fb7	lui	x31,0x42240	 x31=0x42240000
       75835000	      7582	8000333c	0127da33	srl	x20,x15,x18	 x15:0x80009fc4 x18:0x0000712e x20=0x00020002
       75845000	      7583	80003340	0112fe63	bgeu	x5,x17,8000335c	  x5:0x00000000 x17:0xe7b8e2f0
       75855000	      7584	80003344	01748fb3	add	x31,x9,x23	  x9:0xea86b284 x23:0x00000000 x31=0xea86b284
       75865000	      7585	80003348	00000013	addi	x0,x0,0	  x0:0x00000000
       75875000	      7586	8000334c	0149fd33	and	x26,x19,x20	 x19:0x00000001 x20:0x00020002 x26=0x00000000
       75885000	      7587	80003350	404d5a93	srai	x21,x26,0x4	 x26:0x00000000 x21=0x00000000
       75895000	      7588	80003354	00162333	slt	x6,x12,x1	 x12:0x00000000  x1:0xeead86f1  x6=0x00000000
       75905000	      7589	80003358	abbe3393	sltiu	x7,x28,-1349	 x28:0x80008ece  x7=0x00000001
       75915000	      7590	8000335c	01f61d13	slli	x26,x12,0x1f	 x12:0x00000000 x26=0x00000000
       75925000	      7591	80003360	908ce213	ori	x4,x25,-1784	 x25:0x80009ef8  x4=0xfffffff8
       75935000	      7592	80003364	00000013	addi	x0,x0,0	  x0:0x00000000
       75945000	      7593	80003368	00a95613	srli	x12,x18,0xa	 x18:0x0000712e x12=0x0000001c
       75955000	      7594	8000336c	01ce7a63	bgeu	x28,x28,80003380	 x28:0x80008ece x28:0x80008ece
       75965000	      7595	00000000	00000013	addi	x0,x0,0	  x0:0x00000000
       75975000	      7596	8000337c	00000013	addi	x0,x0,0	  x0:0x00000000
       75985000	      7597	80003380	d91b4b13	xori	x22,x22,-623	 x22:0x00000000 x22=0xfffffd91
       75995000	      7598	80003384	015b1863	bne	x22,x21,80003394	 x22:0xfffffd91 x21:0x00000000
       76005000	      7599	00000000	00000013	addi	x0,x0,0	  x0:0x00000000
       76015000	      7600	80003390	00000013	addi	x0,x0,0	  x0:0x00000000
       76025000	      7601	80003394	16fc4713	xori	x14,x24,367	 x24:0x0000f93b x14=0x0000f854
       76035000	      7602	80003398	017fba13	sltiu	x20,x31,23	 x31:0xea86b284 x20=0x00000000
       76045000	      7603	8000339c	028e4663	blt	x28,x8,800033c8	 x28:0x80008ece  x8:0x00000001
       76055000	      7604	00000000	00000013	addi	x0,x0,0	  x0:0x00000000
       76065000	      7605	800033c4	00000013	addi	x0,x0,0	  x0:0x00000000
       76075000	      7606	800033c8	011cd8b3	srl	x17,x25,x17	 x25:0x80009ef8 x17:0xe7b8e2f0 x17=0x00008000
       76085000	      7607	800033cc	4021d613	srai	x12,x3,0x2	  x3:0x000000d1 x12=0x00000034
       76095000	      7608	800033d0	01484a33	xor	x20,x16,x20	 x16:0x00002104 x20:0x00000000 x20=0x00002104
       76105000	      7609	800033d4	0ec32313	slti	x6,x6,236	  x6:0x00000000  x6=0x00000001
       76115000	      7610	800033d8	016b9d13	slli	x26,x23,0x16	 x23:0x00000000 x26=0x00000000
       76125000	      7611	800033dc	249c8293	addi	x5,x25,585	 x25:0x80009ef8  x5=0x8000a141
       76135000	      7612	800033e0	f02c4a13	xori	x20,x24,-254	 x24:0x0000f93b x20=0xffff0639
       76145000	      7613	800033e4	02d58c63	beq	x11,x13,8000341c	 x11:0xf8800000 x13:0x00000000
       76155000	      7614	800033e8	0195e4b3	or	x9,x11,x25	 x11:0xf8800000 x25:0x80009ef8  x9=0xf8809ef8
       76165000	      7615	800033ec	40e90533	sub	x10,x18,x14	 x18:0x0000712e x14:0x0000f854 x10=0xffff78da
       76175000	      7616	800033f0	00a04463	blt	x0,x10,800033f8	  x0:0x00000000 x10:0xffff78da
       76185000	      7617	800033f4	00846633	or	x12,x8,x8	  x8:0x00000001  x8:0x00000001 x12=0x00000001
       76195000	      7618	800033f8	402b80b3	sub	x1,x23,x2	 x23:0x00000000  x2:0xaa8dd69f  x1=0x55722961
       76205000	      7619	800033fc	04c28663	beq	x5,x12,80003448	  x5:0x8000a141 x12:0x00000001
       76215000	      7620	80003400	01ce0633	add	x12,x28,x28	 x28:0x80008ece x28:0x80008ece x12=0x00011d9c
       76225000	      7621	80003404	f0ba3213	sltiu	x4,x20,-245	 x20:0xffff0639  x4=0x00000001
       76235000	      7622	80003408	00000013	addi	x0,x0,0	  x0:0x00000000
       76245000	      7623	8000340c	7d4b7313	andi	x6,x22,2004	 x22:0xfffffd91  x6=0x00000590
       76255000	      7624	80003410	00364a63	blt	x12,x3,80003424	 x12:0x00011d9c  x3:0x000000d1
       76265000	      7625	80003414	e5974e97	auipc	x29,0xe5974	 x29=0x65977410
       76275000	      7626	80003418	63a17997	auipc	x19,0x63a17	 x19=0xe3a1a414
       76285000	      7627	8000341c	002aa0b3	slt	x1,x21,x2	 x21:0x00000000  x2:0xaa8dd69f  x1=0x00000000
       76295000	      7628	80003420	4813f013	andi	x0,x7,1153	  x7:0x00000001
       76305000	      7629	80003424	a9542893	slti	x17,x8,-1387	  x8:0x00000001 x17=0x00000000
       76315000	      7630	80003428	411bd313	srai	x6,x23,0x11	 x23:0x00000000  x6=0x00000000
       76325000	      7631	8000342c	00a0dd93	srli	x27,x1,0xa	  x1:0x00000000 x27=0x00000000
       76335000	      7632	80003430	007a1193	slli	x3,x20,0x7	 x20:0xffff0639  x3=0xff831c80
       76345000	      7633	80003434	41b90433	sub	x8,x18,x27	 x18:0x0000712e x27:0x00000000  x8=0x0000712e
       76355000	      7634	80003438	97e0ef93	ori	x31,x1,-1666	  x1:0x00000000 x31=0xfffff97e
       76365000	      7635	8000343c	01029e93	slli	x29,x5,0x10	  x5:0x8000a141 x29=0xa1410000
       76375000	      7636	80003440	013fa9b3	slt	x19,x31,x19	 x31:0xfffff97e x19:0xe3a1a414 x19=0x00000000
       76385000	      7637	80003444	002d63b3	or	x7,x26,x2	 x26:0x00000000  x2:0xaa8dd69f  x7=0xaa8dd69f
       76395000	      7638	80003448	048ad663	bge	x21,x8,80003494	 x21:0x00000000  x8:0x0000712e
       76405000	      7639	8000344c	38b12817	auipc	x16,0x38b12	 x16=0xb8b15448
       76415000	      7640	80003450	7eb77913	andi	x18,x14,2027	 x14:0x0000f854 x18=0x00000040
       76425000	      7641	80003454	015d8663	beq	x27,x21,80003460	 x27:0x00000000 x21:0x00000000
       76435000	      7642	00000000	00000013	addi	x0,x0,0	  x0:0x00000000
       76445000	      7643	8000345c	00000013	addi	x0,x0,0	  x0:0x00000000
       76455000	      7644	80003460	0041dc13	srli	x24,x3,0x4	  x3:0xff831c80 x24=0x0ff831c8
       76465000	      7645	80003464	009572b3	and	x5,x10,x9	 x10:0xffff78da  x9:0xf8809ef8  x5=0xf88018d8
       76475000	      7646	80003468	01594463	blt	x18,x21,80003470	 x18:0x00000040 x21:0x00000000
       76485000	      7647	8000346c	021d8863	beq	x27,x1,8000349c	 x27:0x00000000  x1:0x00000000
       76495000	      7648	00000000	00000013	addi	x0,x0,0	  x0:0x00000000
       76505000	      7649	80003498	00000013	addi	x0,x0,0	  x0:0x00000000
       76515000	      7650	8000349c	5d6d0493	addi	x9,x26,1494	 x26:0x00000000  x9=0x000005d6
       76525000	      7651	800034a0	012ed463	bge	x29,x18,800034a8	 x29:0xa1410000 x18:0x00000040
       76535000	      7652	800034a4	8f1f3013	sltiu	x0,x30,-1807	 x30:0xea86b91c
       76545000	      7653	800034a8	5b6ffa13	andi	x20,x31,1462	 x31:0xfffff97e x20=0x00000136
       76555000	      7654	800034ac	00000013	addi	x0,x0,0	  x0:0x00000000
       76565000	      7655	800034b0	02a9d663	bge	x19,x10,800034dc	 x19:0x00000000 x10:0xffff78da
       76575000	      7656	00000000	00000013	addi	x0,x0,0	  x0:0x00000000
       76585000	      7657	800034d8	00000013	addi	x0,x0,0	  x0:0x00000000
       76595000	      7658	800034dc	ee994993	xori	x19,x18,-279	 x18:0x00000040 x19=0xfffffea9
       76605000	      7659	800034e0	00c3dd13	srli	x26,x7,0xc	  x7:0xaa8dd69f x26=0x000aa8dd
       76615000	      7660	800034e4	d2126837	lui	x16,0xd2126	 x16=0xd2126000
       76625000	      7661	800034e8	40115d33	sra	x26,x2,x1	  x2:0xaa8dd69f  x1:0x00000000 x26=0xaa8dd69f
       76635000	      7662	800034ec	577f7493	andi	x9,x30,1399	 x30:0xea86b91c  x9=0x00000114
       76645000	      7663	800034f0	ab138693	addi	x13,x7,-1359	  x7:0xaa8dd69f x13=0xaa8dd150
       76655000	      7664	800034f4	90956193	ori	x3,x10,-1783	 x10:0xffff78da  x3=0xfffff9db
       76665000	      7665	800034f8	1c899517	auipc	x10,0x1c899	 x10=0x9c89c4f4
       76675000	      7666	800034fc	05135863	bge	x6,x17,8000354c	  x6:0x00000000 x17:0x00000000
       76685000	      7667	00000000	00000013	addi	x0,x0,0	  x0:0x00000000
       76695000	      7668	80003548	00000013	addi	x0,x0,0	  x0:0x00000000
       76705000	      7669	8000354c	018b4ab3	xor	x21,x22,x24	 x22:0xfffffd91 x24:0x0ff831c8 x21=0xf007cc59
       76715000	      7670	80003550	00005213	srli	x4,x0,0x0	  x0:0x00000000  x4=0x00000000
       76725000	      7671	80003554	4e5ccf13	xori	x30,x25,1253	 x25:0x80009ef8 x30=0x80009a1d
       76735000	      7672	80003558	00adf663	bgeu	x27,x10,80003564	 x27:0x00000000 x10:0x9c89c4f4
       76745000	      7673	8000355c	008a91b3	sll	x3,x21,x8	 x21:0xf007cc59  x8:0x0000712e  x3=0xf3164000
       76755000	      7674	80003560	00b0fa63	bgeu	x1,x11,80003574	  x1:0x00000000 x11:0xf8800000
       76765000	      7675	80003564	00000013	addi	x0,x0,0	  x0:0x00000000
       76775000	      7676	80003568	00cfe633	or	x12,x31,x12	 x31:0xfffff97e x12:0x00011d9c x12=0xfffffdfe
       76785000	      7677	8000356c	40985a13	srai	x20,x16,0x9	 x16:0xd2126000 x20=0xffe90930
       76795000	      7678	80003570	00bedb33	srl	x22,x29,x11	 x29:0xa1410000 x11:0xf8800000 x22=0xa1410000
       76805000	      7679	80003574	01da5b93	srli	x23,x20,0x1d	 x20:0xffe90930 x23=0x00000007
       76815000	      7680	80003578	75cd4393	xori	x7,x26,1884	 x26:0xaa8dd69f  x7=0xaa8dd1c3
       76825000	      7681	8000357c	006c1b93	slli	x23,x24,0x6	 x24:0x0ff831c8 x23=0xfe0c7200
       76835000	      7682	80003580	03766e63	bltu	x12,x23,800035bc	 x12:0xfffffdfe x23:0xfe0c7200
       76845000	      7683	80003584	02c28663	beq	x5,x12,800035b0	  x5:0xf88018d8 x12:0xfffffdfe
       76855000	      7684	80003588	f8573193	sltiu	x3,x14,-123	 x14:0x0000f854  x3=0x00000001
       76865000	      7685	8000358c	05d2ac13	slti	x24,x5,93	  x5:0xf88018d8 x24=0x00000001
       76875000	      7686	80003590	00000013	addi	x0,x0,0	  x0:0x00000000
       76885000	      7687	80003594	bd774613	xori	x12,x14,-1065	 x14:0x0000f854 x12=0xffff0383
       76895000	      7688	80003598	0377d463	bge	x15,x23,800035c0	 x15:0x80009fc4 x23:0xfe0c7200
       76905000	      7689	8000359c	001f2b33	slt	x22,x30,x1	 x30:0x80009a1d  x1:0x00000000 x22=0x00000001
       76915000	      7690	800035a0	00ac0c63	beq	x24,x10,800035b8	 x24:0x00000001 x10:0x9c89c4f4
       76925000	      7691	800035a4	01afdb93	srli	x23,x31,0x1a	 x31:0xfffff97e x23=0x0000003f
       76935000	      7692	800035a8	03d10663	beq	x2,x29,800035d4	  x2:0xaa8dd69f x29:0xa1410000
       76945000	      7693	800035ac	374e7913	andi	x18,x28,884	 x28:0x80008ece x18=0x00000244
       76955000	      7694	800035b0	003e6463	bltu	x28,x3,800035b8	 x28:0x80008ece  x3:0x00000001
       76965000	      7695	800035b4	01ab8a63	beq	x23,x26,800035c8	 x23:0x0000003f x26:0xaa8dd69f
       76975000	      7696	800035b8	748f0193	addi	x3,x30,1864	 x30:0x80009a1d  x3=0x8000a165
       76985000	      7697	800035bc	0165e5b3	or	x11,x11,x22	 x11:0xf8800000 x22:0x00000001 x11=0xf8800001
       76995000	      7698	800035c0	049a7063	bgeu	x20,x9,80003600	 x20:0xffe90930  x9:0x00000114
       77005000	      7699	00000000	00000013	addi	x0,x0,0	  x0:0x00000000
       77015000	      7700	800035fc	00000013	addi	x0,x0,0	  x0:0x00000000
       77025000	      7701	80003600	942ded93	ori	x27,x27,-1726	 x27:0x00000000 x27=0xfffff942
       77035000	      7702	80003604	0306f663	bgeu	x13,x16,80003630	 x13:0xaa8dd150 x16:0xd2126000
       77045000	      7703	80003608	00000013	addi	x0,x0,0	  x0:0x00000000
       77055000	      7704	8000360c	032fdc63	bge	x31,x18,80003644	 x31:0xfffff97e x18:0x00000244
       77065000	      7705	80003610	0191e9b3	or	x19,x3,x25	  x3:0x8000a165 x25:0x80009ef8 x19=0x8000bffd
       77075000	      7706	80003614	011bffb3	and	x31,x23,x17	 x23:0x0000003f x17:0x00000000 x31=0x00000000
       77085000	      7707	80003618	6bb6bc13	sltiu	x24,x13,1723	 x13:0xaa8dd150 x24=0x00000000
       77095000	      7708	8000361c	018afc63	bgeu	x21,x24,80003634	 x21:0xf007cc59 x24:0x00000000
       77105000	      7709	00000000	00000013	addi	x0,x0,0	  x0:0x00000000
       77115000	      7710	80003630	00000013	addi	x0,x0,0	  x0:0x00000000
       77125000	      7711	80003634	41778d33	sub	x26,x15,x23	 x15:0x80009fc4 x23:0x0000003f x26=0x80009f85
       77135000	      7712	80003638	01d85eb3	srl	x29,x16,x29	 x16:0xd2126000 x29:0xa1410000 x29=0xd2126000
       77145000	      7713	8000363c	d4e611b7	lui	x3,0xd4e61	  x3=0xd4e61000
       77155000	      7714	80003640	5c927413	andi	x8,x4,1481	  x4:0x00000000  x8=0x00000000
       77165000	      7715	80003644	00d43633	sltu	x12,x8,x13	  x8:0x00000000 x13:0xaa8dd150 x12=0x00000001
       77175000	      7716	80003648	0031b2b3	sltu	x5,x3,x3	  x3:0xd4e61000  x3:0xd4e61000  x5=0x00000000
       77185000	      7717	8000364c	02428d13	addi	x26,x5,36	  x5:0x00000000 x26=0x00000024
       77195000	      7718	80003650	00f45193	srli	x3,x8,0xf	  x8:0x00000000  x3=0x00000000
       77205000	      7719	80003654	1beefc13	andi	x24,x29,446	 x29:0xd2126000 x24=0x00000000
       77215000	      7720	80003658	00819613	slli	x12,x3,0x8	  x3:0x00000000 x12=0x00000000
       77225000	      7721	8000365c	32410593	addi	x11,x2,804	  x2:0xaa8dd69f x11=0xaa8dd9c3
       77235000	      7722	80003660	40d4de13	srai	x28,x9,0xd	  x9:0x00000114 x28=0x00000000
       77245000	      7723	80003664	00000013	addi	x0,x0,0	  x0:0x00000000
       77255000	      7724	80003668	0011abb3	slt	x23,x3,x1	  x3:0x00000000  x1:0x00000000 x23=0x00000000
       77265000	      7725	8000366c	016ad433	srl	x8,x21,x22	 x21:0xf007cc59 x22:0x00000001  x8=0x7803e62c
       77275000	      7726	80003670	4957e813	ori	x16,x15,1173	 x15:0x80009fc4 x16=0x80009fd5
       77285000	      7727	80003674	002f9463	bne	x31,x2,8000367c	 x31:0x00000000  x2:0xaa8dd69f
       77295000	      7728	00000000	00000013	addi	x0,x0,0	  x0:0x00000000
       77305000	      7729	80003678	00000013	addi	x0,x0,0	  x0:0x00000000
       77315000	      7730	8000367c	047b1463	bne	x22,x7,800036c4	 x22:0x00000001  x7:0xaa8dd1c3
       77325000	      7731	00000000	00000013	addi	x0,x0,0	  x0:0x00000000
       77335000	      7732	800036c0	00000013	addi	x0,x0,0	  x0:0x00000000
       77345000	      7733	800036c4	591d8a93	addi	x21,x27,1425	 x27:0xfffff942 x21=0xfffffed3
       77355000	      7734	800036c8	011f83b3	add	x7,x31,x17	 x31:0x00000000 x17:0x00000000  x7=0x00000000
       77365000	      7735	800036cc	00d9d513	srli	x10,x19,0xd	 x19:0x8000bffd x10=0x00040005
       77375000	      7736	800036d0	05d2d863	bge	x5,x29,80003720	  x5:0x00000000 x29:0xd2126000
       77385000	      7737	00000000	00000013	addi	x0,x0,0	  x0:0x00000000
       77395000	      7738	8000371c	00000013	addi	x0,x0,0	  x0:0x00000000
       77405000	      7739	80003720	407ad993	srai	x19,x21,0x7	 x21:0xfffffed3 x19=0xfffffffd
       77415000	      7740	80003724	41c000b3	sub	x1,x0,x28	  x0:0x00000000 x28:0x00000000  x1=0x00000000
       77425000	      7741	80003728	149bca13	xori	x20,x23,329	 x23:0x00000000 x20=0x00000149
       77435000	      7742	8000372c	01550863	beq	x10,x21,8000373c	 x10:0x00040005 x21:0xfffffed3
       77445000	      7743	80003730	0171c333	xor	x6,x3,x23	  x3:0x00000000 x23:0x00000000  x6=0x00000000
       77455000	      7744	80003734	41438e33	sub	x28,x7,x20	  x7:0x00000000 x20:0x00000149 x28=0xfffffeb7
       77465000	      7745	80003738	01328663	beq	x5,x19,80003744	  x5:0x00000000 x19:0xfffffffd
       77475000	      7746	8000373c	403b8933	sub	x18,x23,x3	 x23:0x00000000  x3:0x00000000 x18=0x00000000
       77485000	      7747	80003740	40e35213	srai	x4,x6,0xe	  x6:0x00000000  x4=0x00000000
       77495000	      7748	80003744	004d5693	srli	x13,x26,0x4	 x26:0x00000024 x13=0x00000002
       77505000	      7749	80003748	01075e93	srli	x29,x14,0x10	 x14:0x0000f854 x29=0x00000000
       77515000	      7750	8000374c	0130c9b3	xor	x19,x1,x19	  x1:0x00000000 x19:0xfffffffd x19=0xfffffffd
       77525000	      7751	80003750	09256b93	ori	x23,x10,146	 x10:0x00040005 x23=0x00040097
       77535000	      7752	80003754	012e48b3	xor	x17,x28,x18	 x28:0xfffffeb7 x18:0x00000000 x17=0xfffffeb7
       77545000	      7753	80003758	00e6d333	srl	x6,x13,x14	 x13:0x00000002 x14:0x0000f854  x6=0x00000000
       77555000	      7754	8000375c	412dd013	srai	x0,x27,0x12	 x27:0xfffff942
       77565000	      7755	80003760	40f1d0b3	sra	x1,x3,x15	  x3:0x00000000 x15:0x80009fc4  x1=0x00000000
       77575000	      7756	80003764	015a4663	blt	x20,x21,80003770	 x20:0x00000149 x21:0xfffffed3
       77585000	      7757	80003768	411f5893	srai	x17,x30,0x11	 x30:0x80009a1d x17=0xffffc000
       77595000	      7758	8000376c	f69cb293	sltiu	x5,x25,-151	 x25:0x80009ef8  x5=0x00000001
       77605000	      7759	80003770	05fb4663	blt	x22,x31,800037bc	 x22:0x00000001 x31:0x00000000
       77615000	      7760	80003774	006ab4b3	sltu	x9,x21,x6	 x21:0xfffffed3  x6:0x00000000  x9=0x00000000
       77625000	      7761	80003778	04ef8063	beq	x31,x14,800037b8	 x31:0x00000000 x14:0x0000f854
       77635000	      7762	8000377c	004342b3	xor	x5,x6,x4	  x6:0x00000000  x4:0x00000000  x5=0x00000000
       77645000	      7763	80003780	01d41eb3	sll	x29,x8,x29	  x8:0x7803e62c x29:0x00000000 x29=0x7803e62c
       77655000	      7764	80003784	012a7733	and	x14,x20,x18	 x20:0x00000149 x18:0x00000000 x14=0x00000000
       77665000	      7765	80003788	00046a63	bltu	x8,x0,8000379c	  x8:0x7803e62c  x0:0x00000000
       77675000	      7766	8000378c	00b255b3	srl	x11,x4,x11	  x4:0x00000000 x11:0xaa8dd9c3 x11=0x00000000
       77685000	      7767	80003790	412282b3	sub	x5,x5,x18	  x5:0x00000000 x18:0x00000000  x5=0x00000000
       77695000	      7768	80003794	407f5493	srai	x9,x30,0x7	 x30:0x80009a1d  x9=0xff000134
       77705000	      7769	80003798	0329dc63	bge	x19,x18,800037d0	 x19:0xfffffffd x18:0x00000000
       77715000	      7770	8000379c	00e89893	slli	x17,x17,0xe	 x17:0xffffc000 x17=0xf0000000
       77725000	      7771	800037a0	012534b3	sltu	x9,x10,x18	 x10:0x00040005 x18:0x00000000  x9=0x00000000
       77735000	      7772	800037a4	0491c063	blt	x3,x9,800037e4	  x3:0x00000000  x9:0x00000000
       77745000	      7773	800037a8	00a871b3	and	x3,x16,x10	 x16:0x80009fd5 x10:0x00040005  x3=0x00000005
       77755000	      7774	800037ac	00ccdc63	bge	x25,x12,800037c4	 x25:0x80009ef8 x12:0x00000000
       77765000	      7775	800037b0	016c28b3	slt	x17,x24,x22	 x24:0x00000000 x22:0x00000001 x17=0x00000001
       77775000	      7776	800037b4	05ed1863	bne	x26,x30,80003804	 x26:0x00000024 x30:0x80009a1d
       77785000	      7777	00000000	00000013	addi	x0,x0,0	  x0:0x00000000
       77795000	      7778	80003800	00000013	addi	x0,x0,0	  x0:0x00000000
       77805000	      7779	80003804	04219663	bne	x3,x2,80003850	  x3:0x00000005  x2:0xaa8dd69f
       77815000	      7780	00000000	00000013	addi	x0,x0,0	  x0:0x00000000
       77825000	      7781	8000384c	00000013	addi	x0,x0,0	  x0:0x00000000
       77835000	      7782	80003850	02716663	bltu	x2,x7,8000387c	  x2:0xaa8dd69f  x7:0x00000000
       77845000	      7783	80003854	0c133693	sltiu	x13,x6,193	  x6:0x00000000 x13=0x00000001
       77855000	      7784	80003858	014661b3	or	x3,x12,x20	 x12:0x00000000 x20:0x00000149  x3=0x00000149
       77865000	      7785	8000385c	000d19b3	sll	x19,x26,x0	 x26:0x00000024  x0:0x00000000 x19=0x00000024
       77875000	      7786	80003860	23f36d93	ori	x27,x6,575	  x6:0x00000000 x27=0x0000023f
       77885000	      7787	80003864	019d0fb3	add	x31,x26,x25	 x26:0x00000024 x25:0x80009ef8 x31=0x80009f1c
       77895000	      7788	80003868	41778c33	sub	x24,x15,x23	 x15:0x80009fc4 x23:0x00040097 x24=0x7ffc9f2d
       77905000	      7789	8000386c	905f2513	slti	x10,x30,-1787	 x30:0x80009a1d x10=0x00000001
       77915000	      7790	80003870	4097d033	sra	x0,x15,x9	 x15:0x80009fc4  x9:0x00000000
       77925000	      7791	80003874	85238217	auipc	x4,0x85238	  x4=0x0523b870
       77935000	      7792	80003878	031e0663	beq	x28,x17,800038a4	 x28:0xfffffeb7 x17:0x00000001
       77945000	      7793	8000387c	c7146813	ori	x16,x8,-911	  x8:0x7803e62c x16=0xfffffe7d
       77955000	      7794	80003880	401dd8b3	sra	x17,x27,x1	 x27:0x0000023f  x1:0x00000000 x17=0x0000023f
       77965000	      7795	80003884	40c9d813	srai	x16,x19,0xc	 x19:0x00000024 x16=0x00000000
       77975000	      7796	80003888	004b5833	srl	x16,x22,x4	 x22:0x00000001  x4:0x0523b870 x16=0x00000000
       77985000	      7797	8000388c	ee5eb497	auipc	x9,0xee5eb	  x9=0x6e5ee888
       77995000	      7798	80003890	00e9d493	srli	x9,x19,0xe	 x19:0x00000024  x9=0x00000000
       78005000	      7799	80003894	41715813	srai	x16,x2,0x17	  x2:0xaa8dd69f x16=0xffffff55
       78015000	      7800	80003898	022d0663	beq	x26,x2,800038c4	 x26:0x00000024  x2:0xaa8dd69f
       78025000	      7801	8000389c	c2a7e993	ori	x19,x15,-982	 x15:0x80009fc4 x19=0xffffffee
       78035000	      7802	800038a0	406209b3	sub	x19,x4,x6	  x4:0x0523b870  x6:0x00000000 x19=0x0523b870
       78045000	      7803	800038a4	00000013	addi	x0,x0,0	  x0:0x00000000
       78055000	      7804	800038a8	b95ff993	andi	x19,x31,-1131	 x31:0x80009f1c x19=0x80009b14
       78065000	      7805	800038ac	01e55013	srli	x0,x10,0x1e	 x10:0x00000001
       78075000	      7806	800038b0	01205413	srli	x8,x0,0x12	  x0:0x00000000  x8=0x00000000
       78085000	      7807	800038b4	00eb8a63	beq	x23,x14,800038c8	 x23:0x00040097 x14:0x00000000
       78095000	      7808	800038b8	01f714b3	sll	x9,x14,x31	 x14:0x00000000 x31:0x80009f1c  x9=0x00000000
       78105000	      7809	800038bc	b5e68193	addi	x3,x13,-1186	 x13:0x00000001  x3=0xfffffb5f
       78115000	      7810	800038c0	8465b193	sltiu	x3,x11,-1978	 x11:0x00000000  x3=0x00000001
       78125000	      7811	800038c4	a44deb97	auipc	x23,0xa44de	 x23=0x244e18c0
       78135000	      7812	800038c8	01aa31b3	sltu	x3,x20,x26	 x20:0x00000149 x26:0x00000024  x3=0x00000000
       78145000	      7813	800038cc	609f66b7	lui	x13,0x609f6	 x13=0x609f6000
       78155000	      7814	800038d0	01274833	xor	x16,x14,x18	 x14:0x00000000 x18:0x00000000 x16=0x00000000
       78165000	      7815	800038d4	018785b3	add	x11,x15,x24	 x15:0x80009fc4 x24:0x7ffc9f2d x11=0xfffd3ef1
       78175000	      7816	800038d8	001f4463	blt	x30,x1,800038e0	 x30:0x80009a1d  x1:0x00000000
       78185000	      7817	00000000	00000013	addi	x0,x0,0	  x0:0x00000000
       78195000	      7818	800038dc	00000013	addi	x0,x0,0	  x0:0x00000000
       78205000	      7819	800038e0	a7396993	ori	x19,x18,-1421	 x18:0x00000000 x19=0xfffffa73
       78215000	      7820	800038e4	03b26663	bltu	x4,x27,80003910	  x4:0x0523b870 x27:0x0000023f
       78225000	      7821	800038e8	801fbe93	sltiu	x29,x31,-2047	 x31:0x80009f1c x29=0x00000001
       78235000	      7822	800038ec	03f99e63	bne	x19,x31,80003928	 x19:0xfffffa73 x31:0x80009f1c
       78245000	      7823	00000000	00000013	addi	x0,x0,0	  x0:0x00000000
       78255000	      7824	80003924	00000013	addi	x0,x0,0	  x0:0x00000000
       78265000	      7825	80003928	98d2c713	xori	x14,x5,-1651	  x5:0x00000000 x14=0xfffff98d
       78275000	      7826	8000392c	7faffb93	andi	x23,x31,2042	 x31:0x80009f1c x23=0x00000718
       78285000	      7827	80003930	addadf17	auipc	x30,0xaddad	 x30=0x2ddb092c
       78295000	      7828	80003934	00421533	sll	x10,x4,x4	  x4:0x0523b870  x4:0x0523b870 x10=0xb8700000
       78305000	      7829	80003938	015a8463	beq	x21,x21,80003940	 x21:0xfffffed3 x21:0xfffffed3
       78315000	      7830	00000000	00000013	addi	x0,x0,0	  x0:0x00000000
       78325000	      7831	8000393c	00000013	addi	x0,x0,0	  x0:0x00000000
       78335000	      7832	80003940	69a17f93	andi	x31,x2,1690	  x2:0xaa8dd69f x31=0x0000069a
       78345000	      7833	80003944	0593c663	blt	x7,x25,80003990	  x7:0x00000000 x25:0x80009ef8
       78355000	      7834	80003948	01ff6fb3	or	x31,x30,x31	 x30:0x2ddb092c x31:0x0000069a x31=0x2ddb0fbe
       78365000	      7835	8000394c	00000013	addi	x0,x0,0	  x0:0x00000000
       78375000	      7836	80003950	05c6e713	ori	x14,x13,92	 x13:0x609f6000 x14=0x609f605c
       78385000	      7837	80003954	009865b3	or	x11,x16,x9	 x16:0x00000000  x9:0x00000000 x11=0x00000000
       78395000	      7838	80003958	41075bb3	sra	x23,x14,x16	 x14:0x609f605c x16:0x00000000 x23=0x609f605c
       78405000	      7839	8000395c	00eaf733	and	x14,x21,x14	 x21:0xfffffed3 x14:0x609f605c x14=0x609f6050
       78415000	      7840	80003960	40815913	srai	x18,x2,0x8	  x2:0xaa8dd69f x18=0xffaa8dd6
       78425000	      7841	80003964	0043cab3	xor	x21,x7,x4	  x7:0x00000000  x4:0x0523b870 x21=0x0523b870
       78435000	      7842	80003968	00717433	and	x8,x2,x7	  x2:0xaa8dd69f  x7:0x00000000  x8=0x00000000
       78445000	      7843	8000396c	010a78b3	and	x17,x20,x16	 x20:0x00000149 x16:0x00000000 x17=0x00000000
       78455000	      7844	80003970	407a5fb3	sra	x31,x20,x7	 x20:0x00000149  x7:0x00000000 x31=0x00000149
       78465000	      7845	80003974	04fd7663	bgeu	x26,x15,800039c0	 x26:0x00000024 x15:0x80009fc4
       78475000	      7846	80003978	00489663	bne	x17,x4,80003984	 x17:0x00000000  x4:0x0523b870
       78485000	      7847	00000000	00000013	addi	x0,x0,0	  x0:0x00000000
       78495000	      7848	80003980	00000013	addi	x0,x0,0	  x0:0x00000000
       78505000	      7849	80003984	416bdc33	sra	x24,x23,x22	 x23:0x609f605c x22:0x00000001 x24=0x304fb02e
       78515000	      7850	80003988	40efd613	srai	x12,x31,0xe	 x31:0x00000149 x12=0x00000000
       78525000	      7851	8000398c	01475893	srli	x17,x14,0x14	 x14:0x609f6050 x17=0x00000609
       78535000	      7852	80003990	9f03e693	ori	x13,x7,-1552	  x7:0x00000000 x13=0xfffff9f0
       78545000	      7853	80003994	01451fb3	sll	x31,x10,x20	 x10:0xb8700000 x20:0x00000149 x31=0xe0000000
       78555000	      7854	80003998	0170db33	srl	x22,x1,x23	  x1:0x00000000 x23:0x609f605c x22=0x00000000
       78565000	      7855	8000399c	017a5e33	srl	x28,x20,x23	 x20:0x00000149 x23:0x609f605c x28=0x00000000
       78575000	      7856	800039a0	234c7d93	andi	x27,x24,564	 x24:0x304fb02e x27=0x00000024
       78585000	      7857	800039a4	0283e863	bltu	x7,x8,800039d4	  x7:0x00000000  x8:0x00000000
       78595000	      7858	800039a8	00fb62b3	or	x5,x22,x15	 x22:0x00000000 x15:0x80009fc4  x5=0x80009fc4
       78605000	      7859	800039ac	28d46e13	ori	x28,x8,653	  x8:0x00000000 x28=0x0000028d
       78615000	      7860	800039b0	efaf0c13	addi	x24,x30,-262	 x30:0x2ddb092c x24=0x2ddb0826
       78625000	      7861	800039b4	72400b93	addi	x23,x0,1828	  x0:0x00000000 x23=0x00000724
       78635000	      7862	800039b8	00a05213	srli	x4,x0,0xa	  x0:0x00000000  x4=0x00000000
       78645000	      7863	800039bc	010f68b3	or	x17,x30,x16	 x30:0x2ddb092c x16:0x00000000 x17=0x2ddb092c
       78655000	      7864	800039c0	417309b3	sub	x19,x6,x23	  x6:0x00000000 x23:0x00000724 x19=0xfffff8dc
       78665000	      7865	800039c4	000230b3	sltu	x1,x4,x0	  x4:0x00000000  x0:0x00000000  x1=0x00000000
       78675000	      7866	800039c8	00a89b13	slli	x22,x17,0xa	 x17:0x2ddb092c x22=0x6c24b000
       78685000	      7867	800039cc	00484e63	blt	x16,x4,800039e8	 x16:0x00000000  x4:0x00000000
       78695000	      7868	800039d0	403f8933	sub	x18,x31,x3	 x31:0xe0000000  x3:0x00000000 x18=0xe0000000
       78705000	      7869	800039d4	00000013	addi	x0,x0,0	  x0:0x00000000
       78715000	      7870	800039d8	01911e33	sll	x28,x2,x25	  x2:0xaa8dd69f x25:0x80009ef8 x28=0x9f000000
       78725000	      7871	800039dc	082b4c13	xori	x24,x22,130	 x22:0x6c24b000 x24=0x6c24b082
       78735000	      7872	800039e0	001af863	bgeu	x21,x1,800039f0	 x21:0x0523b870  x1:0x00000000
       78745000	      7873	00000000	00000013	addi	x0,x0,0	  x0:0x00000000
       78755000	      7874	800039ec	00000013	addi	x0,x0,0	  x0:0x00000000
       78765000	      7875	800039f0	04b99463	bne	x19,x11,80003a38	 x19:0xfffff8dc x11:0x00000000
       78775000	      7876	00000000	00000013	addi	x0,x0,0	  x0:0x00000000
       78785000	      7877	80003a34	00000013	addi	x0,x0,0	  x0:0x00000000
       78795000	      7878	80003a38	013fda93	srli	x21,x31,0x13	 x31:0xe0000000 x21=0x00001c00
       78805000	      7879	80003a3c	7c93fd93	andi	x27,x7,1993	  x7:0x00000000 x27=0x00000000
       78815000	      7880	80003a40	00e4dab3	srl	x21,x9,x14	  x9:0x00000000 x14:0x609f6050 x21=0x00000000
       78825000	      7881	80003a44	01720d33	add	x26,x4,x23	  x4:0x00000000 x23:0x00000724 x26=0x00000724
       78835000	      7882	80003a48	224052b7	lui	x5,0x22405	  x5=0x22405000
       78845000	      7883	80003a4c	b339f913	andi	x18,x19,-1229	 x19:0xfffff8dc x18=0xfffff810
       78855000	      7884	80003a50	8a79ec13	ori	x24,x19,-1881	 x19:0xfffff8dc x24=0xfffff8ff
       78865000	      7885	80003a54	02828263	beq	x5,x8,80003a78	  x5:0x22405000  x8:0x00000000
       78875000	      7886	80003a58	00c63233	sltu	x4,x12,x12	 x12:0x00000000 x12:0x00000000  x4=0x00000000
       78885000	      7887	80003a5c	00a68333	add	x6,x13,x10	 x13:0xfffff9f0 x10:0xb8700000  x6=0xb86ff9f0
       78895000	      7888	80003a60	00000013	addi	x0,x0,0	  x0:0x00000000
       78905000	      7889	80003a64	00000013	addi	x0,x0,0	  x0:0x00000000
       78915000	      7890	80003a68	00da9213	slli	x4,x21,0xd	 x21:0x00000000  x4=0x00000000
       78925000	      7891	80003a6c	41f88c33	sub	x24,x17,x31	 x17:0x2ddb092c x31:0xe0000000 x24=0x4ddb092c
       78935000	      7892	80003a70	00755713	srli	x14,x10,0x7	 x10:0xb8700000 x14=0x0170e000
       78945000	      7893	80003a74	1f1e8d13	addi	x26,x29,497	 x29:0x00000001 x26=0x000001f2
       78955000	      7894	80003a78	8de32e93	slti	x29,x6,-1826	  x6:0xb86ff9f0 x29=0x00000001
       78965000	      7895	80003a7c	01778033	add	x0,x15,x23	 x15:0x80009fc4 x23:0x00000724
       78975000	      7896	80003a80	67604613	xori	x12,x0,1654	  x0:0x00000000 x12=0x00000676
       78985000	      7897	80003a84	00230bb3	add	x23,x6,x2	  x6:0xb86ff9f0  x2:0xaa8dd69f x23=0x62fdd08f
       78995000	      7898	80003a88	00a633b3	sltu	x7,x12,x10	 x12:0x00000676 x10:0xb8700000  x7=0x00000001
       79005000	      7899	80003a8c	01f83ab3	sltu	x21,x16,x31	 x16:0x00000000 x31:0xe0000000 x21=0x00000001
       79015000	      7900	80003a90	41f90ab3	sub	x21,x18,x31	 x18:0xfffff810 x31:0xe0000000 x21=0x1ffff810
       79025000	      7901	80003a94	012aac33	slt	x24,x21,x18	 x21:0x1ffff810 x18:0xfffff810 x24=0x00000000
       79035000	      7902	80003a98	005abf33	sltu	x30,x21,x5	 x21:0x1ffff810  x5:0x22405000 x30=0x00000001
       79045000	      7903	80003a9c	0349f663	bgeu	x19,x20,80003ac8	 x19:0xfffff8dc x20:0x00000149
       79055000	      7904	00000000	00000013	addi	x0,x0,0	  x0:0x00000000
       79065000	      7905	80003ac4	00000013	addi	x0,x0,0	  x0:0x00000000
       79075000	      7906	80003ac8	08602997	auipc	x19,0x8602	 x19=0x88605ac4
       79085000	      7907	80003acc	01e14a63	blt	x2,x30,80003ae0	  x2:0xaa8dd69f x30:0x00000001
       79095000	      7908	00000000	00000013	addi	x0,x0,0	  x0:0x00000000
       79105000	      7909	80003adc	00000013	addi	x0,x0,0	  x0:0x00000000
       79115000	      7910	80003ae0	038c1e63	bne	x24,x24,80003b1c	 x24:0x00000000 x24:0x00000000
       79125000	      7911	80003ae4	04079663	bne	x15,x0,80003b30	 x15:0x80009fc4  x0:0x00000000
       79135000	      7912	00000000	00000013	addi	x0,x0,0	  x0:0x00000000
       79145000	      7913	80003b2c	00000013	addi	x0,x0,0	  x0:0x00000000
       79155000	      7914	80003b30	41875593	srai	x11,x14,0x18	 x14:0x0170e000 x11=0x00000001
       79165000	      7915	80003b34	03497663	bgeu	x18,x20,80003b60	 x18:0xfffff810 x20:0x00000149
       79175000	      7916	00000000	00000013	addi	x0,x0,0	  x0:0x00000000
       79185000	      7917	80003b5c	00000013	addi	x0,x0,0	  x0:0x00000000
       79195000	      7918	80003b60	039b8663	beq	x23,x25,80003b8c	 x23:0x62fdd08f x25:0x80009ef8
       79205000	      7919	80003b64	414d84b3	sub	x9,x27,x20	 x27:0x00000000 x20:0x00000149  x9=0xfffffeb7
       79215000	      7920	80003b68	fa1eed93	ori	x27,x29,-95	 x29:0x00000001 x27=0xffffffa1
       79225000	      7921	80003b6c	01679bb3	sll	x23,x15,x22	 x15:0x80009fc4 x22:0x6c24b000 x23=0x80009fc4
       79235000	      7922	80003b70	01806463	bltu	x0,x24,80003b78	  x0:0x00000000 x24:0x00000000
       79245000	      7923	80003b74	0058ea63	bltu	x17,x5,80003b88	 x17:0x2ddb092c  x5:0x22405000
       79255000	      7924	80003b78	012cee33	or	x28,x25,x18	 x25:0x80009ef8 x18:0xfffff810 x28=0xfffffef8
       79265000	      7925	80003b7c	00040c63	beq	x8,x0,80003b94	  x8:0x00000000  x0:0x00000000
       79275000	      7926	00000000	00000013	addi	x0,x0,0	  x0:0x00000000
       79285000	      7927	80003b90	00000013	addi	x0,x0,0	  x0:0x00000000
       79295000	      7928	80003b94	9de2bf93	sltiu	x31,x5,-1570	  x5:0x22405000 x31=0x00000001
       79305000	      7929	80003b98	40c75393	srai	x7,x14,0xc	 x14:0x0170e000  x7=0x0000170e
       79315000	      7930	80003b9c	04c65863	bge	x12,x12,80003bec	 x12:0x00000676 x12:0x00000676
       79325000	      7931	00000000	00000013	addi	x0,x0,0	  x0:0x00000000
       79335000	      7932	80003be8	00000013	addi	x0,x0,0	  x0:0x00000000
       79345000	      7933	80003bec	413b5d93	srai	x27,x22,0x13	 x22:0x6c24b000 x27=0x00000d84
       79355000	      7934	80003bf0	013c1463	bne	x24,x19,80003bf8	 x24:0x00000000 x19:0x88605ac4
       79365000	      7935	00000000	00000013	addi	x0,x0,0	  x0:0x00000000
       79375000	      7936	80003bf4	00000013	addi	x0,x0,0	  x0:0x00000000
       79385000	      7937	80003bf8	01565333	srl	x6,x12,x21	 x12:0x00000676 x21:0x1ffff810  x6=0x00000000
       79395000	      7938	80003bfc	01964733	xor	x14,x12,x25	 x12:0x00000676 x25:0x80009ef8 x14=0x8000988e
       79405000	      7939	80003c00	714fe593	ori	x11,x31,1812	 x31:0x00000001 x11=0x00000715
       79415000	      7940	80003c04	00000013	addi	x0,x0,0	  x0:0x00000000
       79425000	      7941	80003c08	01449463	bne	x9,x20,80003c10	  x9:0xfffffeb7 x20:0x00000149
       79435000	      7942	00000000	00000013	addi	x0,x0,0	  x0:0x00000000
       79445000	      7943	80003c0c	00000013	addi	x0,x0,0	  x0:0x00000000
       79455000	      7944	80003c10	00df1a33	sll	x20,x30,x13	 x30:0x00000001 x13:0xfffff9f0 x20=0x00010000
       79465000	      7945	80003c14	00b06a63	bltu	x0,x11,80003c28	  x0:0x00000000 x11:0x00000715
       79475000	      7946	00000000	00000013	addi	x0,x0,0	  x0:0x00000000
       79485000	      7947	80003c24	00000013	addi	x0,x0,0	  x0:0x00000000
       79495000	      7948	80003c28	00664663	blt	x12,x6,80003c34	 x12:0x00000676  x6:0x00000000
       79505000	      7949	80003c2c	04845863	bge	x8,x8,80003c7c	  x8:0x00000000  x8:0x00000000
       79515000	      7950	00000000	00000013	addi	x0,x0,0	  x0:0x00000000
       79525000	      7951	80003c78	00000013	addi	x0,x0,0	  x0:0x00000000
       79535000	      7952	80003c7c	00401637	lui	x12,0x401	 x12=0x00401000
       79545000	      7953	80003c80	0b35bb13	sltiu	x22,x11,179	 x11:0x00000715 x22=0x00000000
       79555000	      7954	80003c84	000469b3	or	x19,x8,x0	  x8:0x00000000  x0:0x00000000 x19=0x00000000
       79565000	      7955	80003c88	046c8063	beq	x25,x6,80003cc8	 x25:0x80009ef8  x6:0x00000000
       79575000	      7956	80003c8c	009398b3	sll	x17,x7,x9	  x7:0x0000170e  x9:0xfffffeb7 x17=0x87000000
       79585000	      7957	80003c90	00128a63	beq	x5,x1,80003ca4	  x5:0x22405000  x1:0x00000000
       79595000	      7958	80003c94	011e11b3	sll	x3,x28,x17	 x28:0xfffffef8 x17:0x87000000  x3=0xfffffef8
       79605000	      7959	80003c98	0198d913	srli	x18,x17,0x19	 x17:0x87000000 x18=0x00000043
       79615000	      7960	80003c9c	b347b593	sltiu	x11,x15,-1228	 x15:0x80009fc4 x11=0x00000001
       79625000	      7961	80003ca0	011d5f93	srli	x31,x26,0x11	 x26:0x000001f2 x31=0x00000000
       79635000	      7962	80003ca4	0011dc63	bge	x3,x1,80003cbc	  x3:0xfffffef8  x1:0x00000000
       79645000	      7963	80003ca8	019715b3	sll	x11,x14,x25	 x14:0x8000988e x25:0x80009ef8 x11=0x8e000000
       79655000	      7964	80003cac	01935c33	srl	x24,x6,x25	  x6:0x00000000 x25:0x80009ef8 x24=0x00000000
       79665000	      7965	80003cb0	412cdc13	srai	x24,x25,0x12	 x25:0x80009ef8 x24=0xffffe000
       79675000	      7966	80003cb4	01e291b3	sll	x3,x5,x30	  x5:0x22405000 x30:0x00000001  x3=0x4480a000
       79685000	      7967	80003cb8	009e32b3	sltu	x5,x28,x9	 x28:0xfffffef8  x9:0xfffffeb7  x5=0x00000000
       79695000	      7968	80003cbc	d53601b7	lui	x3,0xd5360	  x3=0xd5360000
       79705000	      7969	80003cc0	0152a633	slt	x12,x5,x21	  x5:0x00000000 x21:0x1ffff810 x12=0x00000001
       79715000	      7970	80003cc4	73718613	addi	x12,x3,1847	  x3:0xd5360000 x12=0xd5360737
       79725000	      7971	80003cc8	763e2513	slti	x10,x28,1891	 x28:0xfffffef8 x10=0x00000001
       79735000	      7972	80003ccc	002b1e93	slli	x29,x22,0x2	 x22:0x00000000 x29=0x00000000
       79745000	      7973	80003cd0	01917233	and	x4,x2,x25	  x2:0xaa8dd69f x25:0x80009ef8  x4=0x80009698
       79755000	      7974	80003cd4	01598b33	add	x22,x19,x21	 x19:0x00000000 x21:0x1ffff810 x22=0x1ffff810
       79765000	      7975	80003cd8	d00fb613	sltiu	x12,x31,-768	 x31:0x00000000 x12=0x00000001
       79775000	      7976	80003cdc	0f07c413	xori	x8,x15,240	 x15:0x80009fc4  x8=0x80009f34
       79785000	      7977	80003ce0	66c76997	auipc	x19,0x66c76	 x19=0xe6c79cdc
       79795000	      7978	80003ce4	1ae693b7	lui	x7,0x1ae69	  x7=0x1ae69000
       79805000	      7979	80003ce8	00d6e463	bltu	x13,x13,80003cf0	 x13:0xfffff9f0 x13:0xfffff9f0
       79815000	      7980	80003cec	3e160a97	auipc	x21,0x3e160	 x21=0xbe163ce8
       79825000	      7981	80003cf0	02b08663	beq	x1,x11,80003d1c	  x1:0x00000000 x11:0x8e000000
       79835000	      7982	80003cf4	0061aeb3	slt	x29,x3,x6	  x3:0xd5360000  x6:0x00000000 x29=0x00000001
       79845000	      7983	80003cf8	00000013	addi	x0,x0,0	  x0:0x00000000
       79855000	      7984	80003cfc	00ce78b3	and	x17,x28,x12	 x28:0xfffffef8 x12:0x00000001 x17=0x00000000
       79865000	      7985	80003d00	01490833	add	x16,x18,x20	 x18:0x00000043 x20:0x00010000 x16=0x00010043
       79875000	      7986	80003d04	9eaafd93	andi	x27,x21,-1558	 x21:0xbe163ce8 x27=0xbe1638e8
       79885000	      7987	80003d08	00368c63	beq	x13,x3,80003d20	 x13:0xfffff9f0  x3:0xd5360000
       79895000	      7988	80003d0c	01f22eb3	slt	x29,x4,x31	  x4:0x80009698 x31:0x00000000 x29=0x00000001
       79905000	      7989	80003d10	34568ab7	lui	x21,0x34568	 x21=0x34568000
       79915000	      7990	80003d14	30892f13	slti	x30,x18,776	 x18:0x00000043 x30=0x00000001
       79925000	      7991	80003d18	008704b3	add	x9,x14,x8	 x14:0x8000988e  x8:0x80009f34  x9=0x000137c2
       79935000	      7992	80003d1c	009af863	bgeu	x21,x9,80003d2c	 x21:0x34568000  x9:0x000137c2
       79945000	      7993	00000000	00000013	addi	x0,x0,0	  x0:0x00000000
       79955000	      7994	80003d28	00000013	addi	x0,x0,0	  x0:0x00000000
       79965000	      7995	80003d2c	00000013	addi	x0,x0,0	  x0:0x00000000
       79975000	      7996	80003d30	012e5433	srl	x8,x28,x18	 x28:0xfffffef8 x18:0x00000043  x8=0x1fffffdf
       79985000	      7997	80003d34	022d1863	bne	x26,x2,80003d64	 x26:0x000001f2  x2:0xaa8dd69f
       79995000	      7998	00000000	00000013	addi	x0,x0,0	  x0:0x00000000
       80005000	      7999	80003d60	00000013	addi	x0,x0,0	  x0:0x00000000
       80015000	      8000	80003d64	5c9c8893	addi	x17,x25,1481	 x25:0x80009ef8 x17=0x8000a4c1
       80025000	      8001	80003d68	012172b3	and	x5,x2,x18	  x2:0xaa8dd69f x18:0x00000043  x5=0x00000003
       80035000	      8002	80003d6c	008671b3	and	x3,x12,x8	 x12:0x00000001  x8:0x1fffffdf  x3=0x00000001
       80045000	      8003	80003d70	03059c63	bne	x11,x16,80003da8	 x11:0x8e000000 x16:0x00010043
       80055000	      8004	00000000	00000013	addi	x0,x0,0	  x0:0x00000000
       80065000	      8005	80003da4	00000013	addi	x0,x0,0	  x0:0x00000000
       80075000	      8006	80003da8	0142d213	srli	x4,x5,0x14	  x5:0x00000003  x4=0x00000000
       80085000	      8007	80003dac	03a4ee63	bltu	x9,x26,80003de8	  x9:0x000137c2 x26:0x000001f2
       80095000	      8008	80003db0	41fe8db3	sub	x27,x29,x31	 x29:0x00000001 x31:0x00000000 x27=0x00000001
       80105000	      8009	80003db4	01dc7bb3	and	x23,x24,x29	 x24:0xffffe000 x29:0x00000001 x23=0x00000000
       80115000	      8010	80003db8	04407063	bgeu	x0,x4,80003df8	  x0:0x00000000  x4:0x00000000
       80125000	      8011	00000000	00000013	addi	x0,x0,0	  x0:0x00000000
       80135000	      8012	80003df4	00000013	addi	x0,x0,0	  x0:0x00000000
       80145000	      8013	80003df8	00000013	addi	x0,x0,0	  x0:0x00000000
       80155000	      8014	80003dfc	0165bdb3	sltu	x27,x11,x22	 x11:0x8e000000 x22:0x1ffff810 x27=0x00000000
       80165000	      8015	80003e00	0131f6b3	and	x13,x3,x19	  x3:0x00000001 x19:0xe6c79cdc x13=0x00000000
       80175000	      8016	80003e04	41295713	srai	x14,x18,0x12	 x18:0x00000043 x14=0x00000000
       80185000	      8017	80003e08	00945633	srl	x12,x8,x9	  x8:0x1fffffdf  x9:0x000137c2 x12=0x07fffff7
       80195000	      8018	80003e0c	00d16b33	or	x22,x2,x13	  x2:0xaa8dd69f x13:0x00000000 x22=0xaa8dd69f
       80205000	      8019	80003e10	41f8ddb3	sra	x27,x17,x31	 x17:0x8000a4c1 x31:0x00000000 x27=0x8000a4c1
       80215000	      8020	80003e14	02459663	bne	x11,x4,80003e40	 x11:0x8e000000  x4:0x00000000
       80225000	      8021	00000000	00000013	addi	x0,x0,0	  x0:0x00000000
       80235000	      8022	80003e3c	00000013	addi	x0,x0,0	  x0:0x00000000
       80245000	      8023	80003e40	01d40ab3	add	x21,x8,x29	  x8:0x1fffffdf x29:0x00000001 x21=0x1fffffe0
       80255000	      8024	80003e44	c0b5c4b7	lui	x9,0xc0b5c	  x9=0xc0b5c000
       80265000	      8025	80003e48	41715e93	srai	x29,x2,0x17	  x2:0xaa8dd69f x29=0xffffff55
       80275000	      8026	80003e4c	00d86733	or	x14,x16,x13	 x16:0x00010043 x13:0x00000000 x14=0x00010043
       80285000	      8027	80003e50	fb21ea93	ori	x21,x3,-78	  x3:0x00000001 x21=0xffffffb3
       80295000	      8028	80003e54	011bdf93	srli	x31,x23,0x11	 x23:0x00000000 x31=0x00000000
       80305000	      8029	80003e58	00ec5463	bge	x24,x14,80003e60	 x24:0xffffe000 x14:0x00010043
       80315000	      8030	80003e5c	04d20663	beq	x4,x13,80003ea8	  x4:0x00000000 x13:0x00000000
       80325000	      8031	00000000	00000013	addi	x0,x0,0	  x0:0x00000000
       80335000	      8032	80003ea4	00000013	addi	x0,x0,0	  x0:0x00000000
       80345000	      8033	80003ea8	00000013	addi	x0,x0,0	  x0:0x00000000
       80355000	      8034	80003eac	4f2f4393	xori	x7,x30,1266	 x30:0x00000001  x7=0x000004f3
       80365000	      8035	80003eb0	009f42b3	xor	x5,x30,x9	 x30:0x00000001  x9:0xc0b5c000  x5=0xc0b5c001
       80375000	      8036	80003eb4	02ed4c63	blt	x26,x14,80003eec	 x26:0x000001f2 x14:0x00010043
       80385000	      8037	00000000	00000013	addi	x0,x0,0	  x0:0x00000000
       80395000	      8038	80003ee8	00000013	addi	x0,x0,0	  x0:0x00000000
       80405000	      8039	80003eec	4192d333	sra	x6,x5,x25	  x5:0xc0b5c001 x25:0x80009ef8  x6=0xffffffc0
       80415000	      8040	80003ef0	fa718913	addi	x18,x3,-89	  x3:0x00000001 x18=0xffffffa8
       80425000	      8041	80003ef4	00159593	slli	x11,x11,0x1	 x11:0x8e000000 x11=0x1c000000
       80435000	      8042	80003ef8	05e67663	bgeu	x12,x30,80003f44	 x12:0x07fffff7 x30:0x00000001
       80445000	      8043	00000000	00000013	addi	x0,x0,0	  x0:0x00000000
       80455000	      8044	80003f40	00000013	addi	x0,x0,0	  x0:0x00000000
       80465000	      8045	80003f44	36eba617	auipc	x12,0x36eba	 x12=0xb6ebdf40
       80475000	      8046	80003f48	81a92b17	auipc	x22,0x81a92	 x22=0x01a95f44
       80485000	      8047	80003f4c	002350b3	srl	x1,x6,x2	  x6:0xffffffc0  x2:0xaa8dd69f  x1=0x00000001
       80495000	      8048	80003f50	001448b3	xor	x17,x8,x1	  x8:0x1fffffdf  x1:0x00000001 x17=0x1fffffde
       80505000	      8049	80003f54	9782f593	andi	x11,x5,-1672	  x5:0xc0b5c001 x11=0xc0b5c000
       80515000	      8050	80003f58	014ff1b3	and	x3,x31,x20	 x31:0x00000000 x20:0x00010000  x3=0x00000000
       80525000	      8051	80003f5c	87f5bb93	sltiu	x23,x11,-1921	 x11:0xc0b5c000 x23=0x00000001
       80535000	      8052	80003f60	0409f063	bgeu	x19,x0,80003fa0	 x19:0xe6c79cdc  x0:0x00000000
       80545000	      8053	00000000	00000013	addi	x0,x0,0	  x0:0x00000000
       80555000	      8054	80003f9c	00000013	addi	x0,x0,0	  x0:0x00000000
       80565000	      8055	80003fa0	57138d93	addi	x27,x7,1393	  x7:0x000004f3 x27=0x00000a64
       80575000	      8056	80003fa4	0169a5b3	slt	x11,x19,x22	 x19:0xe6c79cdc x22:0x01a95f44 x11=0x00000001
       80585000	      8057	80003fa8	408b5c13	srai	x24,x22,0x8	 x22:0x01a95f44 x24=0x0001a95f
       80595000	      8058	80003fac	01215f13	srli	x30,x2,0x12	  x2:0xaa8dd69f x30=0x00002aa3
       80605000	      8059	80003fb0	01193db3	sltu	x27,x18,x17	 x18:0xffffffa8 x17:0x1fffffde x27=0x00000000
       80615000	      8060	80003fb4	0056d433	srl	x8,x13,x5	 x13:0x00000000  x5:0xc0b5c001  x8=0x00000000
       80625000	      8061	80003fb8	9a8d1517	auipc	x10,0x9a8d1	 x10=0x1a8d4fb4
       80635000	      8062	80003fbc	0f327663	bgeu	x4,x19,800040a8	  x4:0x00000000 x19:0xe6c79cdc
       80645000	      8063	80003fc0	418b0033	sub	x0,x22,x24	 x22:0x01a95f44 x24:0x0001a95f
       80655000	      8064	80003fc4	01a40233	add	x4,x8,x26	  x8:0x00000000 x26:0x000001f2  x4=0x000001f2
       80665000	      8065	80003fc8	699d0713	addi	x14,x26,1689	 x26:0x000001f2 x14=0x0000088b
       80675000	      8066	80003fcc	0c26cc63	blt	x13,x2,800040a4	 x13:0x00000000  x2:0xaa8dd69f
       80685000	      8067	80003fd0	015e1533	sll	x10,x28,x21	 x28:0xfffffef8 x21:0xffffffb3 x10=0xf7c00000
       80695000	      8068	80003fd4	e4f77893	andi	x17,x14,-433	 x14:0x0000088b x17=0x0000080b
       80705000	      8069	80003fd8	0db75c63	bge	x14,x27,800040b0	 x14:0x0000088b x27:0x00000000
       80715000	      8070	00000000	00000013	addi	x0,x0,0	  x0:0x00000000
       80725000	      8071	800040ac	00000013	addi	x0,x0,0	  x0:0x00000000
       80735000	      8072	800040b0	41765f13	srai	x30,x12,0x17	 x12:0xb6ebdf40 x30=0xffffff6d
       80745000	      8073	800040b4	00a7cb33	xor	x22,x15,x10	 x15:0x80009fc4 x10:0xf7c00000 x22=0x77c09fc4
       80755000	      8074	800040b8	0c3f0a93	addi	x21,x30,195	 x30:0xffffff6d x21=0x00000030
       80765000	      8075	800040bc	414f5f93	srai	x31,x30,0x14	 x30:0xffffff6d x31=0xffffffff
       80775000	      8076	800040c0	00631e63	bne	x6,x6,800040dc	  x6:0xffffffc0  x6:0xffffffc0
       80785000	      8077	800040c4	4d602313	slti	x6,x0,1238	  x0:0x00000000  x6=0x00000001
       80795000	      8078	800040c8	00466533	or	x10,x12,x4	 x12:0xb6ebdf40  x4:0x000001f2 x10=0xb6ebdff2
       80805000	      8079	800040cc	00db7663	bgeu	x22,x13,800040d8	 x22:0x77c09fc4 x13:0x00000000
       80815000	      8080	00000000	00000013	addi	x0,x0,0	  x0:0x00000000
       80825000	      8081	800040d4	00000013	addi	x0,x0,0	  x0:0x00000000
       80835000	      8082	800040d8	01009213	slli	x4,x1,0x10	  x1:0x00000001  x4=0x00010000
       80845000	      8083	800040dc	002ae633	or	x12,x21,x2	 x21:0x00000030  x2:0xaa8dd69f x12=0xaa8dd6bf
       80855000	      8084	800040e0	e264b913	sltiu	x18,x9,-474	  x9:0xc0b5c000 x18=0x00000001
       80865000	      8085	800040e4	2bbc6e93	ori	x29,x24,699	 x24:0x0001a95f x29=0x0001abff
       80875000	      8086	800040e8	406e8333	sub	x6,x29,x6	 x29:0x0001abff  x6:0x00000001  x6=0x0001abfe
       80885000	      8087	800040ec	00ab6833	or	x16,x22,x10	 x22:0x77c09fc4 x10:0xb6ebdff2 x16=0xf7ebdff6
       80895000	      8088	800040f0	26d4e393	ori	x7,x9,621	  x9:0xc0b5c000  x7=0xc0b5c26d
       80905000	      8089	800040f4	013d9463	bne	x27,x19,800040fc	 x27:0x00000000 x19:0xe6c79cdc
       80915000	      8090	00000000	00000013	addi	x0,x0,0	  x0:0x00000000
       80925000	      8091	800040f8	00000013	addi	x0,x0,0	  x0:0x00000000
       80935000	      8092	800040fc	c3b74893	xori	x17,x14,-965	 x14:0x0000088b x17=0xfffff4b0
       80945000	      8093	80004100	03a46663	bltu	x8,x26,8000412c	  x8:0x00000000 x26:0x000001f2
       80955000	      8094	00000000	00000013	addi	x0,x0,0	  x0:0x00000000
       80965000	      8095	80004128	00000013	addi	x0,x0,0	  x0:0x00000000
       80975000	      8096	8000412c	01ef6533	or	x10,x30,x30	 x30:0xffffff6d x30:0xffffff6d x10=0xffffff6d
       80985000	      8097	80004130	00f61593	slli	x11,x12,0xf	 x12:0xaa8dd6bf x11=0xeb5f8000
       80995000	      8098	80004134	00492633	slt	x12,x18,x4	 x18:0x00000001  x4:0x00010000 x12=0x00000001
       81005000	      8099	80004138	b403b413	sltiu	x8,x7,-1216	  x7:0xc0b5c26d  x8=0x00000001
       81015000	      8100	8000413c	057df463	bgeu	x27,x23,80004184	 x27:0x00000000 x23:0x00000001
       81025000	      8101	80004140	04cdc863	blt	x27,x12,80004190	 x27:0x00000000 x12:0x00000001
       81035000	      8102	00000000	00000013	addi	x0,x0,0	  x0:0x00000000
       81045000	      8103	8000418c	00000013	addi	x0,x0,0	  x0:0x00000000
       81055000	      8104	80004190	0bfd2b13	slti	x22,x26,191	 x26:0x000001f2 x22=0x00000000
       81065000	      8105	80004194	41068833	sub	x16,x13,x16	 x13:0x00000000 x16:0xf7ebdff6 x16=0x0814200a
       81075000	      8106	80004198	01691a63	bne	x18,x22,800041ac	 x18:0x00000001 x22:0x00000000
       81085000	      8107	00000000	00000013	addi	x0,x0,0	  x0:0x00000000
       81095000	      8108	800041a8	00000013	addi	x0,x0,0	  x0:0x00000000
       81105000	      8109	800041ac	00e46433	or	x8,x8,x14	  x8:0x00000001 x14:0x0000088b  x8=0x0000088b
       81115000	      8110	800041b0	40ecd093	srai	x1,x25,0xe	 x25:0x80009ef8  x1=0xfffe0002
       81125000	      8111	800041b4	01954ab3	xor	x21,x10,x25	 x10:0xffffff6d x25:0x80009ef8 x21=0x7fff6195
       81135000	      8112	800041b8	03b50663	beq	x10,x27,800041e4	 x10:0xffffff6d x27:0x00000000
       81145000	      8113	800041bc	01260663	beq	x12,x18,800041c8	 x12:0x00000001 x18:0x00000001
       81155000	      8114	00000000	00000013	addi	x0,x0,0	  x0:0x00000000
       81165000	      8115	800041c4	00000013	addi	x0,x0,0	  x0:0x00000000
       81175000	      8116	800041c8	02097663	bgeu	x18,x0,800041f4	 x18:0x00000001  x0:0x00000000
       81185000	      8117	00000000	00000013	addi	x0,x0,0	  x0:0x00000000
       81195000	      8118	800041f0	00000013	addi	x0,x0,0	  x0:0x00000000
       81205000	      8119	800041f4	01b5e433	or	x8,x11,x27	 x11:0xeb5f8000 x27:0x00000000  x8=0xeb5f8000
       81215000	      8120	800041f8	01ac9a13	slli	x20,x25,0x1a	 x25:0x80009ef8 x20=0xe0000000
       81225000	      8121	800041fc	05d87063	bgeu	x16,x29,8000423c	 x16:0x0814200a x29:0x0001abff
       81235000	      8122	00000000	00000013	addi	x0,x0,0	  x0:0x00000000
       81245000	      8123	80004238	00000013	addi	x0,x0,0	  x0:0x00000000
       81255000	      8124	8000423c	f02a3d93	sltiu	x27,x20,-254	 x20:0xe0000000 x27=0x00000001
       81265000	      8125	80004240	01821013	slli	x0,x4,0x18	  x4:0x00010000
       81275000	      8126	80004244	00759f33	sll	x30,x11,x7	 x11:0xeb5f8000  x7:0xc0b5c26d x30=0xf0000000
       81285000	      8127	80004248	41f25593	srai	x11,x4,0x1f	  x4:0x00010000 x11=0x00000000
       81295000	      8128	8000424c	6e973db7	lui	x27,0x6e973	 x27=0x6e973000
       81305000	      8129	80004250	00000013	addi	x0,x0,0	  x0:0x00000000
       81315000	      8130	80004254	01dc36b3	sltu	x13,x24,x29	 x24:0x0001a95f x29:0x0001abff x13=0x00000001
       81325000	      8131	80004258	00511d93	slli	x27,x2,0x5	  x2:0xaa8dd69f x27=0x51bad3e0
       81335000	      8132	8000425c	e3fd5937	lui	x18,0xe3fd5	 x18=0xe3fd5000
       81345000	      8133	80004260	00defeb3	and	x29,x29,x13	 x29:0x0001abff x13:0x00000001 x29=0x00000001
       81355000	      8134	80004264	30cf2e93	slti	x29,x30,780	 x30:0xf0000000 x29=0x00000001
       81365000	      8135	80004268	a32606b7	lui	x13,0xa3260	 x13=0xa3260000
       81375000	      8136	8000426c	00ca5693	srli	x13,x20,0xc	 x20:0xe0000000 x13=0x000e0000
       81385000	      8137	80004270	417bdf13	srai	x30,x23,0x17	 x23:0x00000001 x30=0x00000000
       81395000	      8138	80004274	9846f193	andi	x3,x13,-1660	 x13:0x000e0000  x3=0x000e0000
       81405000	      8139	80004278	41e38eb3	sub	x29,x7,x30	  x7:0xc0b5c26d x30:0x00000000 x29=0xc0b5c26d
       81415000	      8140	8000427c	00cf40b3	xor	x1,x30,x12	 x30:0x00000000 x12:0x00000001  x1=0x00000001
       81425000	      8141	80004280	01d90833	add	x16,x18,x29	 x18:0xe3fd5000 x29:0xc0b5c26d x16=0xa4b3126d
       81435000	      8142	80004284	41f2d413	srai	x8,x5,0x1f	  x5:0xc0b5c001  x8=0xffffffff
       81445000	      8143	80004288	00ad2333	slt	x6,x26,x10	 x26:0x000001f2 x10:0xffffff6d  x6=0x00000000
       81455000	      8144	8000428c	01e326b3	slt	x13,x6,x30	  x6:0x00000000 x30:0x00000000 x13=0x00000000
       81465000	      8145	80004290	005a0463	beq	x20,x5,80004298	 x20:0xe0000000  x5:0xc0b5c001
       81475000	      8146	80004294	66f0fd93	andi	x27,x1,1647	  x1:0x00000001 x27=0x00000001
       81485000	      8147	80004298	00ec7c63	bgeu	x24,x14,800042b0	 x24:0x0001a95f x14:0x0000088b
       81495000	      8148	00000000	00000013	addi	x0,x0,0	  x0:0x00000000
       81505000	      8149	800042ac	00000013	addi	x0,x0,0	  x0:0x00000000
       81515000	      8150	800042b0	8ec10c13	addi	x24,x2,-1812	  x2:0xaa8dd69f x24=0xaa8dcf8b
       81525000	      8151	800042b4	01a88ab3	add	x21,x17,x26	 x17:0xfffff4b0 x26:0x000001f2 x21=0xfffff6a2
       81535000	      8152	800042b8	03b11663	bne	x2,x27,800042e4	  x2:0xaa8dd69f x27:0x00000001
       81545000	      8153	00000000	00000013	addi	x0,x0,0	  x0:0x00000000
       81555000	      8154	800042e0	00000013	addi	x0,x0,0	  x0:0x00000000
       81565000	      8155	800042e4	0e60bd93	sltiu	x27,x1,230	  x1:0x00000001 x27=0x00000001
       81575000	      8156	800042e8	9c64bb13	sltiu	x22,x9,-1594	  x9:0xc0b5c000 x22=0x00000001
       81585000	      8157	800042ec	d6a67e93	andi	x29,x12,-662	 x12:0x00000001 x29=0x00000000
       81595000	      8158	800042f0	01f19613	slli	x12,x3,0x1f	  x3:0x000e0000 x12=0x00000000
       81605000	      8159	800042f4	00621333	sll	x6,x4,x6	  x4:0x00010000  x6:0x00000000  x6=0x00010000
       81615000	      8160	800042f8	41ee8933	sub	x18,x29,x30	 x29:0x00000000 x30:0x00000000 x18=0x00000000
       81625000	      8161	800042fc	05ddc863	blt	x27,x29,8000434c	 x27:0x00000001 x29:0x00000000
       81635000	      8162	80004300	de1e8c17	auipc	x24,0xde1e8	 x24=0x5e1ec2fc
       81645000	      8163	80004304	019e8a63	beq	x29,x25,80004318	 x29:0x00000000 x25:0x80009ef8
       81655000	      8164	80004308	41f28a33	sub	x20,x5,x31	  x5:0xc0b5c001 x31:0xffffffff x20=0xc0b5c002
       81665000	      8165	8000430c	03f5e663	bltu	x11,x31,80004338	 x11:0x00000000 x31:0xffffffff
       81675000	      8166	00000000	00000013	addi	x0,x0,0	  x0:0x00000000
       81685000	      8167	80004334	00000013	addi	x0,x0,0	  x0:0x00000000
       81695000	      8168	80004338	04326463	bltu	x4,x3,80004380	  x4:0x00010000  x3:0x000e0000
       81705000	      8169	00000000	00000013	addi	x0,x0,0	  x0:0x00000000
       81715000	      8170	8000437c	00000013	addi	x0,x0,0	  x0:0x00000000
       81725000	      8171	80004380	007aef33	or	x30,x21,x7	 x21:0xfffff6a2  x7:0xc0b5c26d x30=0xfffff6ef
       81735000	      8172	80004384	01b6feb3	and	x29,x13,x27	 x13:0x00000000 x27:0x00000001 x29=0x00000000
       81745000	      8173	80004388	007ecc33	xor	x24,x29,x7	 x29:0x00000000  x7:0xc0b5c26d x24=0xc0b5c26d
       81755000	      8174	8000438c	28226493	ori	x9,x4,642	  x4:0x00010000  x9=0x00010282
       81765000	      8175	80004390	00972033	slt	x0,x14,x9	 x14:0x0000088b  x9:0x00010282
       81775000	      8176	80004394	76abc713	xori	x14,x23,1898	 x23:0x00000001 x14=0x0000076b
       81785000	      8177	80004398	00bcdc13	srli	x24,x25,0xb	 x25:0x80009ef8 x24=0x00100013
       81795000	      8178	8000439c	03674663	blt	x14,x22,800043c8	 x14:0x0000076b x22:0x00000001
       81805000	      8179	800043a0	028dde63	bge	x27,x8,800043dc	 x27:0x00000001  x8:0xffffffff
       81815000	      8180	00000000	00000013	addi	x0,x0,0	  x0:0x00000000
       81825000	      8181	800043d8	00000013	addi	x0,x0,0	  x0:0x00000000
       81835000	      8182	800043dc	0b794413	xori	x8,x18,183	 x18:0x00000000  x8=0x000000b7
       81845000	      8183	800043e0	01b39f33	sll	x30,x7,x27	  x7:0xc0b5c26d x27:0x00000001 x30=0x816b84da
       81855000	      8184	800043e4	031bf463	bgeu	x23,x17,8000440c	 x23:0x00000001 x17:0xfffff4b0
       81865000	      8185	800043e8	00342db3	slt	x27,x8,x3	  x8:0x000000b7  x3:0x000e0000 x27=0x00000001
       81875000	      8186	800043ec	01cade13	srli	x28,x21,0x1c	 x21:0xfffff6a2 x28=0x0000000f
       81885000	      8187	800043f0	ebaea513	slti	x10,x29,-326	 x29:0x00000000 x10=0x00000000
       81895000	      8188	800043f4	6d073093	sltiu	x1,x14,1744	 x14:0x0000076b  x1=0x00000000
       81905000	      8189	800043f8	018baeb3	slt	x29,x23,x24	 x23:0x00000001 x24:0x00100013 x29=0x00000001
       81915000	      8190	800043fc	416009b3	sub	x19,x0,x22	  x0:0x00000000 x22:0x00000001 x19=0xffffffff
       81925000	      8191	80004400	01fa1eb3	sll	x29,x20,x31	 x20:0xc0b5c002 x31:0xffffffff x29=0x00000000
       81935000	      8192	80004404	ad989297	auipc	x5,0xad989	  x5=0x2d98d400
       81945000	      8193	80004408	0124e9b3	or	x19,x9,x18	  x9:0x00010282 x18:0x00000000 x19=0x00010282
       81955000	      8194	8000440c	81de3313	sltiu	x6,x28,-2019	 x28:0x0000000f  x6=0x00000001
       81965000	      8195	80004410	00eb7c63	bgeu	x22,x14,80004428	 x22:0x00000001 x14:0x0000076b
       81975000	      8196	80004414	04648863	beq	x9,x6,80004464	  x9:0x00010282  x6:0x00000001
       81985000	      8197	80004418	41e3d813	srai	x16,x7,0x1e	  x7:0xc0b5c26d x16=0xffffffff
       81995000	      8198	8000441c	0196ea33	or	x20,x13,x25	 x13:0x00000000 x25:0x80009ef8 x20=0x80009ef8
       82005000	      8199	80004420	5e4ade97	auipc	x29,0x5e4ad	 x29=0xde4b141c
       82015000	      8200	80004424	413c03b3	sub	x7,x24,x19	 x24:0x00100013 x19:0x00010282  x7=0x000efd91
       82025000	      8201	80004428	7a044717	auipc	x14,0x7a044	 x14=0xfa048424
       82035000	      8202	8000442c	31a10c13	addi	x24,x2,794	  x2:0xaa8dd69f x24=0xaa8dd9b9
       82045000	      8203	80004430	00811033	sll	x0,x2,x8	  x2:0xaa8dd69f  x8:0x000000b7
       82055000	      8204	80004434	00d923b3	slt	x7,x18,x13	 x18:0x00000000 x13:0x00000000  x7=0x00000000
       82065000	      8205	80004438	0198bdb3	sltu	x27,x17,x25	 x17:0xfffff4b0 x25:0x80009ef8 x27=0x00000000
       82075000	      8206	8000443c	da00ca93	xori	x21,x1,-608	  x1:0x00000000 x21=0xfffffda0
       82085000	      8207	80004440	00595fb3	srl	x31,x18,x5	 x18:0x00000000  x5:0x2d98d400 x31=0x00000000
       82095000	      8208	80004444	015c0f33	add	x30,x24,x21	 x24:0xaa8dd9b9 x21:0xfffffda0 x30=0xaa8dd759
       82105000	      8209	80004448	cd68ae13	slti	x28,x17,-810	 x17:0xfffff4b0 x28=0x00000001
       82115000	      8210	8000444c	293bf893	andi	x17,x23,659	 x23:0x00000001 x17=0x00000001
       82125000	      8211	80004450	005898b3	sll	x17,x17,x5	 x17:0x00000001  x5:0x2d98d400 x17=0x00000001
       82135000	      8212	80004454	7de9b413	sltiu	x8,x19,2014	 x19:0x00010282  x8=0x00000000
       82145000	      8213	80004458	017ed733	srl	x14,x29,x23	 x29:0xde4b141c x23:0x00000001 x14=0x6f258a0e
       82155000	      8214	8000445c	1a38d217	auipc	x4,0x1a38d	  x4=0x9a391458
       82165000	      8215	80004460	00896a63	bltu	x18,x8,80004474	 x18:0x00000000  x8:0x00000000
       82175000	      8216	80004464	020d8263	beq	x27,x0,80004488	 x27:0x00000000  x0:0x00000000
       82185000	      8217	00000000	00000013	addi	x0,x0,0	  x0:0x00000000
       82195000	      8218	80004484	00000013	addi	x0,x0,0	  x0:0x00000000
       82205000	      8219	80004488	00ead513	srli	x10,x21,0xe	 x21:0xfffffda0 x10=0x0003ffff
       82215000	      8220	8000448c	ed3e0c13	addi	x24,x28,-301	 x28:0x00000001 x24=0xfffffed4
       82225000	      8221	80004490	00acd593	srli	x11,x25,0xa	 x25:0x80009ef8 x11=0x00200027
       82235000	      8222	80004494	00a79213	slli	x4,x15,0xa	 x15:0x80009fc4  x4=0x027f1000
       82245000	      8223	80004498	0095c833	xor	x16,x11,x9	 x11:0x00200027  x9:0x00010282 x16=0x002102a5
       82255000	      8224	8000449c	5b518e93	addi	x29,x3,1461	  x3:0x000e0000 x29=0x000e05b5
       82265000	      8225	800044a0	004a71b3	and	x3,x20,x4	 x20:0x80009ef8  x4:0x027f1000  x3=0x00001000
       82275000	      8226	800044a4	403e8db3	sub	x27,x29,x3	 x29:0x000e05b5  x3:0x00001000 x27=0x000df5b5
       82285000	      8227	800044a8	009e36b3	sltu	x13,x28,x9	 x28:0x00000001  x9:0x00010282 x13=0x00000001
       82295000	      8228	800044ac	00000013	addi	x0,x0,0	  x0:0x00000000
       82305000	      8229	800044b0	417c5893	srai	x17,x24,0x17	 x24:0xfffffed4 x17=0xffffffff
       82315000	      8230	800044b4	01454013	xori	x0,x10,20	 x10:0x0003ffff
       82325000	      8231	800044b8	00585233	srl	x4,x16,x5	 x16:0x002102a5  x5:0x2d98d400  x4=0x002102a5
       82335000	      8232	800044bc	01c6b233	sltu	x4,x13,x28	 x13:0x00000001 x28:0x00000001  x4=0x00000000
       82345000	      8233	800044c0	404fdc33	sra	x24,x31,x4	 x31:0x00000000  x4:0x00000000 x24=0x00000000
       82355000	      8234	800044c4	d14d8a13	addi	x20,x27,-748	 x27:0x000df5b5 x20=0x000df2c9
       82365000	      8235	800044c8	03b07863	bgeu	x0,x27,800044f8	  x0:0x00000000 x27:0x000df5b5
       82375000	      8236	800044cc	9916e093	ori	x1,x13,-1647	 x13:0x00000001  x1=0xfffff991
       82385000	      8237	800044d0	f69b3b37	lui	x22,0xf69b3	 x22=0xf69b3000
       82395000	      8238	800044d4	00f38bb3	add	x23,x7,x15	  x7:0x00000000 x15:0x80009fc4 x23=0x80009fc4
       82405000	      8239	800044d8	00b75013	srli	x0,x14,0xb	 x14:0x6f258a0e
       82415000	      8240	800044dc	00f2cb33	xor	x22,x5,x15	  x5:0x2d98d400 x15:0x80009fc4 x22=0xad984bc4
       82425000	      8241	800044e0	401204b3	sub	x9,x4,x1	  x4:0x00000000  x1:0xfffff991  x9=0x0000066f
       82435000	      8242	800044e4	015cc533	xor	x10,x25,x21	 x25:0x80009ef8 x21:0xfffffda0 x10=0x7fff6358
       82445000	      8243	800044e8	325f0b37	lui	x22,0x325f0	 x22=0x325f0000
       82455000	      8244	800044ec	00000013	addi	x0,x0,0	  x0:0x00000000
       82465000	      8245	800044f0	01725e63	bge	x4,x23,8000450c	  x4:0x00000000 x23:0x80009fc4
       82475000	      8246	00000000	00000013	addi	x0,x0,0	  x0:0x00000000
       82485000	      8247	80004508	00000013	addi	x0,x0,0	  x0:0x00000000
       82495000	      8248	8000450c	4090d813	srai	x16,x1,0x9	  x1:0xfffff991 x16=0xfffffffc
       82505000	      8249	80004510	04694463	blt	x18,x6,80004558	 x18:0x00000000  x6:0x00000001
       82515000	      8250	00000000	00000013	addi	x0,x0,0	  x0:0x00000000
       82525000	      8251	80004554	00000013	addi	x0,x0,0	  x0:0x00000000
       82535000	      8252	80004558	012a64b3	or	x9,x20,x18	 x20:0x000df2c9 x18:0x00000000  x9=0x000df2c9
       82545000	      8253	8000455c	0193df13	srli	x30,x7,0x19	  x7:0x00000000 x30=0x00000000
       82555000	      8254	80004560	032dd663	bge	x27,x18,8000458c	 x27:0x000df5b5 x18:0x00000000
       82565000	      8255	00000000	00000013	addi	x0,x0,0	  x0:0x00000000
       82575000	      8256	80004588	00000013	addi	x0,x0,0	  x0:0x00000000
       82585000	      8257	8000458c	02158663	beq	x11,x1,800045b8	 x11:0x00200027  x1:0xfffff991
       82595000	      8258	80004590	01db7c63	bgeu	x22,x29,800045a8	 x22:0x325f0000 x29:0x000e05b5
       82605000	      8259	00000000	00000013	addi	x0,x0,0	  x0:0x00000000
       82615000	      8260	800045a4	00000013	addi	x0,x0,0	  x0:0x00000000
       82625000	      8261	800045a8	006a49b3	xor	x19,x20,x6	 x20:0x000df2c9  x6:0x00000001 x19=0x000df2c8
       82635000	      8262	800045ac	04b48663	beq	x9,x11,800045f8	  x9:0x000df2c9 x11:0x00200027
       82645000	      8263	800045b0	003a6d33	or	x26,x20,x3	 x20:0x000df2c9  x3:0x00001000 x26=0x000df2c9
       82655000	      8264	800045b4	00f51033	sll	x0,x10,x15	 x10:0x7fff6358 x15:0x80009fc4
       82665000	      8265	800045b8	00efdc13	srli	x24,x31,0xe	 x31:0x00000000 x24=0x00000000
       82675000	      8266	800045bc	006c5193	srli	x3,x24,0x6	 x24:0x00000000  x3=0x00000000
       82685000	      8267	800045c0	00491a63	bne	x18,x4,800045d4	 x18:0x00000000  x4:0x00000000
       82695000	      8268	800045c4	01914863	blt	x2,x25,800045d4	  x2:0xaa8dd69f x25:0x80009ef8
       82705000	      8269	800045c8	ee134193	xori	x3,x6,-287	  x6:0x00000001  x3=0xfffffee0
       82715000	      8270	800045cc	5a8db413	sltiu	x8,x27,1448	 x27:0x000df5b5  x8=0x00000000
       82725000	      8271	800045d0	eee68193	addi	x3,x13,-274	 x13:0x00000001  x3=0xfffffeef
       82735000	      8272	800045d4	01ea18b3	sll	x17,x20,x30	 x20:0x000df2c9 x30:0x00000000 x17=0x000df2c9
       82745000	      8273	800045d8	8c8f8593	addi	x11,x31,-1848	 x31:0x00000000 x11=0xfffff8c8
       82755000	      8274	800045dc	00c5fdb3	and	x27,x11,x12	 x11:0xfffff8c8 x12:0x00000000 x27=0x00000000
       82765000	      8275	800045e0	03687c63	bgeu	x16,x22,80004618	 x16:0xfffffffc x22:0x325f0000
       82775000	      8276	00000000	00000013	addi	x0,x0,0	  x0:0x00000000
       82785000	      8277	80004614	00000013	addi	x0,x0,0	  x0:0x00000000
       82795000	      8278	80004618	411c0a33	sub	x20,x24,x17	 x24:0x00000000 x17:0x000df2c9 x20=0xfff20d37
       82805000	      8279	8000461c	014c0663	beq	x24,x20,80004628	 x24:0x00000000 x20:0xfff20d37
       82815000	      8280	80004620	c5847997	auipc	x19,0xc5847	 x19=0x4584b61c
       82825000	      8281	80004624	0aa18393	addi	x7,x3,170	  x3:0xfffffeef  x7=0xffffff99
       82835000	      8282	80004628	013c5013	srli	x0,x24,0x13	 x24:0x00000000
       82845000	      8283	8000462c	038b1663	bne	x22,x24,80004658	 x22:0x325f0000 x24:0x00000000
       82855000	      8284	00000000	00000013	addi	x0,x0,0	  x0:0x00000000
       82865000	      8285	80004654	00000013	addi	x0,x0,0	  x0:0x00000000
       82875000	      8286	80004658	00437c63	bgeu	x6,x4,80004670	  x6:0x00000001  x4:0x00000000
       82885000	      8287	00000000	00000013	addi	x0,x0,0	  x0:0x00000000
       82895000	      8288	8000466c	00000013	addi	x0,x0,0	  x0:0x00000000
       82905000	      8289	80004670	0078b3b3	sltu	x7,x17,x7	 x17:0x000df2c9  x7:0xffffff99  x7=0x00000001
       82915000	      8290	80004674	0148e933	or	x18,x17,x20	 x17:0x000df2c9 x20:0xfff20d37 x18=0xffffffff
       82925000	      8291	80004678	016b6e63	bltu	x22,x22,80004694	 x22:0x325f0000 x22:0x325f0000
       82935000	      8292	8000467c	00260eb3	add	x29,x12,x2	 x12:0x00000000  x2:0xaa8dd69f x29=0xaa8dd69f
       82945000	      8293	80004680	012b5033	srl	x0,x22,x18	 x22:0x325f0000 x18:0xffffffff
       82955000	      8294	80004684	80827313	andi	x6,x4,-2040	  x4:0x00000000  x6=0x00000000
       82965000	      8295	80004688	03827663	bgeu	x4,x24,800046b4	  x4:0x00000000 x24:0x00000000
       82975000	      8296	00000000	00000013	addi	x0,x0,0	  x0:0x00000000
       82985000	      8297	800046b0	00000013	addi	x0,x0,0	  x0:0x00000000
       82995000	      8298	800046b4	01684fb3	xor	x31,x16,x22	 x16:0xfffffffc x22:0x325f0000 x31=0xcda0fffc
       83005000	      8299	800046b8	04025863	bge	x4,x0,80004708	  x4:0x00000000  x0:0x00000000
       83015000	      8300	00000000	00000013	addi	x0,x0,0	  x0:0x00000000
       83025000	      8301	80004704	00000013	addi	x0,x0,0	  x0:0x00000000
       83035000	      8302	80004708	025d5863	bge	x26,x5,80004738	 x26:0x000df2c9  x5:0x2d98d400
       83045000	      8303	8000470c	40f65a33	sra	x20,x12,x15	 x12:0x00000000 x15:0x80009fc4 x20=0x00000000
       83055000	      8304	80004710	a1b08393	addi	x7,x1,-1509	  x1:0xfffff991  x7=0xfffff3ac
       83065000	      8305	80004714	3d2d0393	addi	x7,x26,978	 x26:0x000df2c9  x7=0x000df69b
       83075000	      8306	80004718	40848233	sub	x4,x9,x8	  x9:0x000df2c9  x8:0x00000000  x4=0x000df2c9
       83085000	      8307	8000471c	01be9fb3	sll	x31,x29,x27	 x29:0xaa8dd69f x27:0x00000000 x31=0xaa8dd69f
       83095000	      8308	80004720	01326a33	or	x20,x4,x19	  x4:0x000df2c9 x19:0x4584b61c x20=0x458df6dd
       83105000	      8309	80004724	046f8063	beq	x31,x6,80004764	 x31:0xaa8dd69f  x6:0x00000000
       83115000	      8310	80004728	0170d013	srli	x0,x1,0x17	  x1:0xfffff991
       83125000	      8311	8000472c	7597c813	xori	x16,x15,1881	 x15:0x80009fc4 x16=0x8000989d
       83135000	      8312	80004730	00d9bb33	sltu	x22,x19,x13	 x19:0x4584b61c x13:0x00000001 x22=0x00000000
       83145000	      8313	80004734	00205d93	srli	x27,x0,0x2	  x0:0x00000000 x27=0x00000000
       83155000	      8314	80004738	01325463	bge	x4,x19,80004740	  x4:0x000df2c9 x19:0x4584b61c
       83165000	      8315	8000473c	01c3f6b3	and	x13,x7,x28	  x7:0x000df69b x28:0x00000001 x13=0x00000001
       83175000	      8316	80004740	01700a63	beq	x0,x23,80004754	  x0:0x00000000 x23:0x80009fc4
       83185000	      8317	80004744	c24eb513	sltiu	x10,x29,-988	 x29:0xaa8dd69f x10=0x00000001
       83195000	      8318	80004748	400286b3	sub	x13,x5,x0	  x5:0x2d98d400  x0:0x00000000 x13=0x2d98d400
       83205000	      8319	8000474c	00fa34b3	sltu	x9,x20,x15	 x20:0x458df6dd x15:0x80009fc4  x9=0x00000001
       83215000	      8320	80004750	40fbdf93	srai	x31,x23,0xf	 x23:0x80009fc4 x31=0xffff0001
       83225000	      8321	80004754	04cfe663	bltu	x31,x12,800047a0	 x31:0xffff0001 x12:0x00000000
       83235000	      8322	80004758	05adf663	bgeu	x27,x26,800047a4	 x27:0x00000000 x26:0x000df2c9
       83245000	      8323	8000475c	01787463	bgeu	x16,x23,80004764	 x16:0x8000989d x23:0x80009fc4
       83255000	      8324	80004760	0052a8b3	slt	x17,x5,x5	  x5:0x2d98d400  x5:0x2d98d400 x17=0x00000000
       83265000	      8325	80004764	01acea63	bltu	x25,x26,80004778	 x25:0x80009ef8 x26:0x000df2c9
       83275000	      8326	80004768	00a93533	sltu	x10,x18,x10	 x18:0xffffffff x10:0x00000001 x10=0x00000000
       83285000	      8327	8000476c	013fdc63	bge	x31,x19,80004784	 x31:0xffff0001 x19:0x4584b61c
       83295000	      8328	80004770	018f91b3	sll	x3,x31,x24	 x31:0xffff0001 x24:0x00000000  x3=0xffff0001
       83305000	      8329	80004774	00e87fb3	and	x31,x16,x14	 x16:0x8000989d x14:0x6f258a0e x31=0x0000880c
       83315000	      8330	80004778	02219663	bne	x3,x2,800047a4	  x3:0xffff0001  x2:0xaa8dd69f
       83325000	      8331	00000000	00000013	addi	x0,x0,0	  x0:0x00000000
       83335000	      8332	800047a0	00000013	addi	x0,x0,0	  x0:0x00000000
       83345000	      8333	800047a4	0149be33	sltu	x28,x19,x20	 x19:0x4584b61c x20:0x458df6dd x28=0x00000001
       83355000	      8334	800047a8	4faf0613	addi	x12,x30,1274	 x30:0x00000000 x12=0x000004fa
       83365000	      8335	800047ac	c29d7493	andi	x9,x26,-983	 x26:0x000df2c9  x9=0x000df009
       83375000	      8336	800047b0	000bcb33	xor	x22,x23,x0	 x23:0x80009fc4  x0:0x00000000 x22=0x80009fc4
       83385000	      8337	800047b4	00b67233	and	x4,x12,x11	 x12:0x000004fa x11:0xfffff8c8  x4=0x000000c8
       83395000	      8338	800047b8	40477593	andi	x11,x14,1028	 x14:0x6f258a0e x11=0x00000004
       83405000	      8339	800047bc	00d969b3	or	x19,x18,x13	 x18:0xffffffff x13:0x2d98d400 x19=0xffffffff
       83415000	      8340	800047c0	01ff6a63	bltu	x30,x31,800047d4	 x30:0x00000000 x31:0x0000880c
       83425000	      8341	00000000	00000013	addi	x0,x0,0	  x0:0x00000000
       83435000	      8342	800047d0	00000013	addi	x0,x0,0	  x0:0x00000000
       83445000	      8343	800047d4	004b0033	add	x0,x22,x4	 x22:0x80009fc4  x4:0x000000c8
       83455000	      8344	800047d8	ab804417	auipc	x8,0xab804	  x8=0x2b8087d4
       83465000	      8345	800047dc	01a36b33	or	x22,x6,x26	  x6:0x00000000 x26:0x000df2c9 x22=0x000df2c9
       83475000	      8346	800047e0	0108bdb3	sltu	x27,x17,x16	 x17:0x00000000 x16:0x8000989d x27=0x00000001
       83485000	      8347	800047e4	0485e063	bltu	x11,x8,80004824	 x11:0x00000004  x8:0x2b8087d4
       83495000	      8348	00000000	00000013	addi	x0,x0,0	  x0:0x00000000
       83505000	      8349	80004820	00000013	addi	x0,x0,0	  x0:0x00000000
       83515000	      8350	80004824	02122993	slti	x19,x4,33	  x4:0x000000c8 x19=0x00000000
       83525000	      8351	80004828	00000013	addi	x0,x0,0	  x0:0x00000000
       83535000	      8352	8000482c	00a18c63	beq	x3,x10,80004844	  x3:0xffff0001 x10:0x00000000
       83545000	      8353	80004830	40b90f33	sub	x30,x18,x11	 x18:0xffffffff x11:0x00000004 x30=0xfffffffb
       83555000	      8354	80004834	00870463	beq	x14,x8,8000483c	 x14:0x6f258a0e  x8:0x2b8087d4
       83565000	      8355	80004838	40208e33	sub	x28,x1,x2	  x1:0xfffff991  x2:0xaa8dd69f x28=0x557222f2
       83575000	      8356	8000483c	001bd863	bge	x23,x1,8000484c	 x23:0x80009fc4  x1:0xfffff991
       83585000	      8357	80004840	40a25613	srai	x12,x4,0xa	  x4:0x000000c8 x12=0x00000000
       83595000	      8358	80004844	007b8e33	add	x28,x23,x7	 x23:0x80009fc4  x7:0x000df69b x28=0x800e965f
       83605000	      8359	80004848	a0c3bd93	sltiu	x27,x7,-1524	  x7:0x000df69b x27=0x00000001
       83615000	      8360	8000484c	0e3b1a63	bne	x22,x3,80004940	 x22:0x000df2c9  x3:0xffff0001
       83625000	      8361	00000000	00000013	addi	x0,x0,0	  x0:0x00000000
       83635000	      8362	8000493c	00000013	addi	x0,x0,0	  x0:0x00000000
       83645000	      8363	80004940	01e38663	beq	x7,x30,8000494c	  x7:0x000df69b x30:0xfffffffb
       83655000	      8364	80004944	41bb85b3	sub	x11,x23,x27	 x23:0x80009fc4 x27:0x00000001 x11=0x80009fc3
       83665000	      8365	80004948	004d0d33	add	x26,x26,x4	 x26:0x000df2c9  x4:0x000000c8 x26=0x000df391
       83675000	      8366	8000494c	00465013	srli	x0,x12,0x4	 x12:0x00000000
       83685000	      8367	80004950	004d1033	sll	x0,x26,x4	 x26:0x000df391  x4:0x000000c8
       83695000	      8368	80004954	63e76b13	ori	x22,x14,1598	 x14:0x6f258a0e x22=0x6f258e3e
       83705000	      8369	80004958	c032c393	xori	x7,x5,-1021	  x5:0x2d98d400  x7=0xd2672803
       83715000	      8370	8000495c	2ae97a37	lui	x20,0x2ae97	 x20=0x2ae97000
       83725000	      8371	80004960	41f25493	srai	x9,x4,0x1f	  x4:0x000000c8  x9=0x00000000
       83735000	      8372	80004964	5dd60713	addi	x14,x12,1501	 x12:0x00000000 x14=0x000005dd
       83745000	      8373	80004968	13f96193	ori	x3,x18,319	 x18:0xffffffff  x3=0xffffffff
       83755000	      8374	8000496c	00000013	addi	x0,x0,0	  x0:0x00000000
       83765000	      8375	80004970	2d8a5337	lui	x6,0x2d8a5	  x6=0x2d8a5000
       83775000	      8376	80004974	01cce6b3	or	x13,x25,x28	 x25:0x80009ef8 x28:0x800e965f x13=0x800e9eff
       83785000	      8377	80004978	0532f663	bgeu	x5,x19,800049c4	  x5:0x2d98d400 x19:0x00000000
       83795000	      8378	00000000	00000013	addi	x0,x0,0	  x0:0x00000000
       83805000	      8379	800049c0	00000013	addi	x0,x0,0	  x0:0x00000000
       83815000	      8380	800049c4	006c1f93	slli	x31,x24,0x6	 x24:0x00000000 x31=0x00000000
       83825000	      8381	800049c8	01c698b3	sll	x17,x13,x28	 x13:0x800e9eff x28:0x800e965f x17=0x80000000
       83835000	      8382	800049cc	0114b5b3	sltu	x11,x9,x17	  x9:0x00000000 x17:0x80000000 x11=0x00000001
       83845000	      8383	800049d0	01bd33b3	sltu	x7,x26,x27	 x26:0x000df391 x27:0x00000001  x7=0x00000000
       83855000	      8384	800049d4	00431a33	sll	x20,x6,x4	  x6:0x2d8a5000  x4:0x000000c8 x20=0x8a500000
       83865000	      8385	800049d8	02418263	beq	x3,x4,800049fc	  x3:0xffffffff  x4:0x000000c8
       83875000	      8386	800049dc	0584d863	bge	x9,x24,80004a2c	  x9:0x00000000 x24:0x00000000
       83885000	      8387	00000000	00000013	addi	x0,x0,0	  x0:0x00000000
       83895000	      8388	80004a28	00000013	addi	x0,x0,0	  x0:0x00000000
       83905000	      8389	80004a2c	91ba7817	auipc	x16,0x91ba7	 x16=0x11baba28
       83915000	      8390	80004a30	047fd663	bge	x31,x7,80004a7c	 x31:0x00000000  x7:0x00000000
       83925000	      8391	00000000	00000013	addi	x0,x0,0	  x0:0x00000000
       83935000	      8392	80004a78	00000013	addi	x0,x0,0	  x0:0x00000000
       83945000	      8393	80004a7c	41ffdfb3	sra	x31,x31,x31	 x31:0x00000000 x31:0x00000000 x31=0x00000000
       83955000	      8394	80004a80	0192c833	xor	x16,x5,x25	  x5:0x2d98d400 x25:0x80009ef8 x16=0xad984af8
       83965000	      8395	80004a84	6673cc13	xori	x24,x7,1639	  x7:0x00000000 x24=0x00000667
       83975000	      8396	80004a88	00a5e333	or	x6,x11,x10	 x11:0x00000001 x10:0x00000000  x6=0x00000001
       83985000	      8397	80004a8c	010c5833	srl	x16,x24,x16	 x24:0x00000667 x16:0xad984af8 x16=0x00000000
       83995000	      8398	80004a90	01f61413	slli	x8,x12,0x1f	 x12:0x00000000  x8=0x00000000
       84005000	      8399	80004a94	c8de3c13	sltiu	x24,x28,-883	 x28:0x800e965f x24=0x00000001
       84015000	      8400	80004a98	00de9463	bne	x29,x13,80004aa0	 x29:0xaa8dd69f x13:0x800e9eff
       84025000	      8401	00000000	00000013	addi	x0,x0,0	  x0:0x00000000
       84035000	      8402	80004a9c	00000013	addi	x0,x0,0	  x0:0x00000000
       84045000	      8403	80004aa0	383633b7	lui	x7,0x38363	  x7=0x38363000
       84055000	      8404	80004aa4	001140b3	xor	x1,x2,x1	  x2:0xaa8dd69f  x1:0xfffff991  x1=0x55722f0e
       84065000	      8405	80004aa8	9db4b237	lui	x4,0x9db4b	  x4=0x9db4b000
       84075000	      8406	80004aac	01971813	slli	x16,x14,0x19	 x14:0x000005dd x16=0xba000000
       84085000	      8407	80004ab0	044ed463	bge	x29,x4,80004af8	 x29:0xaa8dd69f  x4:0x9db4b000
       84095000	      8408	00000000	00000013	addi	x0,x0,0	  x0:0x00000000
       84105000	      8409	80004af4	00000013	addi	x0,x0,0	  x0:0x00000000
       84115000	      8410	80004af8	2e1ea313	slti	x6,x29,737	 x29:0xaa8dd69f  x6=0x00000001
       84125000	      8411	80004afc	9dc0bd13	sltiu	x26,x1,-1572	  x1:0x55722f0e x26=0x00000001
       84135000	      8412	80004b00	00292933	slt	x18,x18,x2	 x18:0xffffffff  x2:0xaa8dd69f x18=0x00000000
       84145000	      8413	80004b04	c75eb513	sltiu	x10,x29,-907	 x29:0xaa8dd69f x10=0x00000001
       84155000	      8414	80004b08	d3e74b93	xori	x23,x14,-706	 x14:0x000005dd x23=0xfffff8e3
       84165000	      8415	80004b0c	e6973213	sltiu	x4,x14,-407	 x14:0x000005dd  x4=0x00000001
       84175000	      8416	80004b10	019059b3	srl	x19,x0,x25	  x0:0x00000000 x25:0x80009ef8 x19=0x00000000
       84185000	      8417	80004b14	41c60db3	sub	x27,x12,x28	 x12:0x00000000 x28:0x800e965f x27=0x7ff169a1
       84195000	      8418	80004b18	00bd5633	srl	x12,x26,x11	 x26:0x00000001 x11:0x00000001 x12=0x00000000
       84205000	      8419	80004b1c	2c55f413	andi	x8,x11,709	 x11:0x00000001  x8=0x00000001
       84215000	      8420	80004b20	143b7397	auipc	x7,0x143b7	  x7=0x943bbb1c
       84225000	      8421	80004b24	0046c433	xor	x8,x13,x4	 x13:0x800e9eff  x4:0x00000001  x8=0x800e9efe
       84235000	      8422	80004b28	4d502093	slti	x1,x0,1237	  x0:0x00000000  x1=0x00000001
       84245000	      8423	80004b2c	7568fc13	andi	x24,x17,1878	 x17:0x80000000 x24=0x00000000
       84255000	      8424	80004b30	00931633	sll	x12,x6,x9	  x6:0x00000001  x9:0x00000000 x12=0x00000001
       84265000	      8425	80004b34	0bf4c893	xori	x17,x9,191	  x9:0x00000000 x17=0x000000bf
       84275000	      8426	80004b38	ef9e7897	auipc	x17,0xef9e7	 x17=0x6f9ebb34
       84285000	      8427	80004b3c	00388233	add	x4,x17,x3	 x17:0x6f9ebb34  x3:0xffffffff  x4=0x6f9ebb33
       84295000	      8428	80004b40	00231a33	sll	x20,x6,x2	  x6:0x00000001  x2:0xaa8dd69f x20=0x80000000
       84305000	      8429	80004b44	11e66e13	ori	x28,x12,286	 x12:0x00000001 x28=0x0000011f
       84315000	      8430	80004b48	00336e63	bltu	x6,x3,80004b64	  x6:0x00000001  x3:0xffffffff
       84325000	      8431	00000000	00000013	addi	x0,x0,0	  x0:0x00000000
       84335000	      8432	80004b60	00000013	addi	x0,x0,0	  x0:0x00000000
       84345000	      8433	80004b64	00a29db3	sll	x27,x5,x10	  x5:0x2d98d400 x10:0x00000001 x27=0x5b31a800
       84355000	      8434	80004b68	00631d33	sll	x26,x6,x6	  x6:0x00000001  x6:0x00000001 x26=0x00000002
       84365000	      8435	80004b6c	01572d33	slt	x26,x14,x21	 x14:0x000005dd x21:0xfffffda0 x26=0x00000000
       84375000	      8436	80004b70	014230b3	sltu	x1,x4,x20	  x4:0x6f9ebb33 x20:0x80000000  x1=0x00000001
       84385000	      8437	80004b74	01265ab3	srl	x21,x12,x18	 x12:0x00000001 x18:0x00000000 x21=0x00000001
       84395000	      8438	80004b78	e4266a97	auipc	x21,0xe4266	 x21=0x6426ab74
       84405000	      8439	80004b7c	001e8c33	add	x24,x29,x1	 x29:0xaa8dd69f  x1:0x00000001 x24=0xaa8dd6a0
       84415000	      8440	80004b80	bae14e13	xori	x28,x2,-1106	  x2:0xaa8dd69f x28=0x55722d31
       84425000	      8441	80004b84	01c74db3	xor	x27,x14,x28	 x14:0x000005dd x28:0x55722d31 x27=0x557228ec
       84435000	      8442	80004b88	41f4d333	sra	x6,x9,x31	  x9:0x00000000 x31:0x00000000  x6=0x00000000
       84445000	      8443	80004b8c	001d9433	sll	x8,x27,x1	 x27:0x557228ec  x1:0x00000001  x8=0xaae451d8
       84455000	      8444	80004b90	d049a993	slti	x19,x19,-764	 x19:0x00000000 x19=0x00000000
       84465000	      8445	80004b94	40d10fb3	sub	x31,x2,x13	  x2:0xaa8dd69f x13:0x800e9eff x31=0x2a7f37a0
       84475000	      8446	80004b98	00b29e93	slli	x29,x5,0xb	  x5:0x2d98d400 x29=0xc6a00000
       84485000	      8447	80004b9c	02fdd463	bge	x27,x15,80004bc4	 x27:0x557228ec x15:0x80009fc4
       84495000	      8448	00000000	00000013	addi	x0,x0,0	  x0:0x00000000
       84505000	      8449	80004bc0	00000013	addi	x0,x0,0	  x0:0x00000000
       84515000	      8450	80004bc4	05809063	bne	x1,x24,80004c04	  x1:0x00000001 x24:0xaa8dd6a0
       84525000	      8451	00000000	00000013	addi	x0,x0,0	  x0:0x00000000
       84535000	      8452	80004c00	00000013	addi	x0,x0,0	  x0:0x00000000
       84545000	      8453	80004c04	01f38463	beq	x7,x31,80004c0c	  x7:0x943bbb1c x31:0x2a7f37a0
       84555000	      8454	80004c08	00000013	addi	x0,x0,0	  x0:0x00000000
       84565000	      8455	80004c0c	6ebf3b93	sltiu	x23,x30,1771	 x30:0xfffffffb x23=0x00000000
       84575000	      8456	80004c10	00c893b3	sll	x7,x17,x12	 x17:0x6f9ebb34 x12:0x00000001  x7=0xdf3d7668
       84585000	      8457	80004c14	7ff08913	addi	x18,x1,2047	  x1:0x00000001 x18=0x00000800
       84595000	      8458	80004c18	01ecda33	srl	x20,x25,x30	 x25:0x80009ef8 x30:0xfffffffb x20=0x00000010
       84605000	      8459	80004c1c	99b7ae37	lui	x28,0x99b7a	 x28=0x99b7a000
       84615000	      8460	80004c20	00004f97	auipc	x31,0x4	 x31=0x80008c1c
       84625000	      8461	80004c24	147f8f93	addi	x31,x31,327	 x31:0x80008c1c x31=0x80008d63
       84635000	      8462	80004c28	0ddf8803	lb	x16,221(x31)	 x31:0x80008d63 x16=0xffffffc2 PA:0x80008e40
       84645000	      8463	80004c2c	089fa0a3	sw	x9,129(x31)	 x31:0x80008d63  x9:0x00000000 PA:0x80008de4
       84655000	      8464	80004c30	f89fa583	lw	x11,-119(x31)	 x31:0x80008d63 x11=0xc7aa7bf1 PA:0x80008cec
       84665000	      8465	80004c34	8cf6a913	slti	x18,x13,-1841	 x13:0x800e9eff x18=0x00000001
       84675000	      8466	80004c38	03ab9e97	auipc	x29,0x3ab9	 x29=0x83abdc34
       84685000	      8467	80004c3c	0dcf8303	lb	x6,220(x31)	 x31:0x80008d63  x6=0x00000044 PA:0x80008e3f
       84695000	      8468	80004c40	062fcb03	lbu	x22,98(x31)	 x31:0x80008d63 x22=0x00000067 PA:0x80008dc5
       84705000	      8469	80004c44	f3efcd83	lbu	x27,-194(x31)	 x31:0x80008d63 x27=0x0000001d PA:0x80008ca1
       84715000	      8470	80004c48	028f98a3	sh	x8,49(x31)	 x31:0x80008d63  x8:0xaae451d8 PA:0x80008d94
       84725000	      8471	80004c4c	00ba2a33	slt	x20,x20,x11	 x20:0x00000010 x11:0xc7aa7bf1 x20=0x00000000
       84735000	      8472	80004c50	48f4a617	auipc	x12,0x48f4a	 x12=0xc8f4ec4c
       84745000	      8473	80004c54	92c3a313	slti	x6,x7,-1748	  x7:0xdf3d7668  x6=0x00000001
       84755000	      8474	80004c58	021f98a3	sh	x1,49(x31)	 x31:0x80008d63  x1:0x00000001 PA:0x80008d94
       84765000	      8475	80004c5c	0ddf9e03	lh	x28,221(x31)	 x31:0x80008d63 x28=0xffff92c2 PA:0x80008e40
       84775000	      8476	80004c60	087f8303	lb	x6,135(x31)	 x31:0x80008d63  x6=0x0000002f PA:0x80008dea
       84785000	      8477	80004c64	018a58b3	srl	x17,x20,x24	 x20:0x00000000 x24:0xaa8dd6a0 x17=0x00000000
       84795000	      8478	80004c68	ff4f8d03	lb	x26,-12(x31)	 x31:0x80008d63 x26=0xffffff82 PA:0x80008d57
       84805000	      8479	80004c6c	f4273013	sltiu	x0,x14,-190	 x14:0x000005dd
       84815000	      8480	80004c70	fe3fdf03	lhu	x30,-29(x31)	 x31:0x80008d63 x30=0x000094d9 PA:0x80008d46
       84825000	      8481	80004c74	f60fa0a3	sw	x0,-159(x31)	 x31:0x80008d63  x0:0x00000000 PA:0x80008cc4
       84835000	      8482	80004c78	044fc703	lbu	x14,68(x31)	 x31:0x80008d63 x14=0x00000098 PA:0x80008da7
       84845000	      8483	80004c7c	f76f8383	lb	x7,-138(x31)	 x31:0x80008d63  x7=0xffffffbd PA:0x80008cd9
       84855000	      8484	80004c80	4151d593	srai	x11,x3,0x15	  x3:0xffffffff x11=0xffffffff
       84865000	      8485	80004c84	f34f8883	lb	x17,-204(x31)	 x31:0x80008d63 x17=0x00000028 PA:0x80008c97
       84875000	      8486	80004c88	fcbf9583	lh	x11,-53(x31)	 x31:0x80008d63 x11=0xffffdf53 PA:0x80008d2e
       84885000	      8487	80004c8c	f5cf8483	lb	x9,-164(x31)	 x31:0x80008d63  x9=0x0000007d PA:0x80008cbf
       84895000	      8488	80004c90	05ffd383	lhu	x7,95(x31)	 x31:0x80008d63  x7=0x00005b9c PA:0x80008dc2
       84905000	      8489	80004c94	1f077693	andi	x13,x14,496	 x14:0x00000098 x13=0x00000090
       84915000	      8490	80004c98	04bec513	xori	x10,x29,75	 x29:0x83abdc34 x10=0x83abdc7f
       84925000	      8491	80004c9c	07ef8403	lb	x8,126(x31)	 x31:0x80008d63  x8=0xffffff86 PA:0x80008de1
       84935000	      8492	80004ca0	0c6fa6a3	sw	x6,205(x31)	 x31:0x80008d63  x6:0x0000002f PA:0x80008e30
       84945000	      8493	80004ca4	0b2f8a83	lb	x21,178(x31)	 x31:0x80008d63 x21=0xffffffa7 PA:0x80008e15
       84955000	      8494	80004ca8	0c3f9803	lh	x16,195(x31)	 x31:0x80008d63 x16=0xfffff4e1 PA:0x80008e26
       84965000	      8495	80004cac	f57f84a3	sb	x23,-183(x31)	 x31:0x80008d63 x23:0x00000000 PA:0x80008cac
       84975000	      8496	80004cb0	040fcb83	lbu	x23,64(x31)	 x31:0x80008d63 x23=0x000000e0 PA:0x80008da3
       84985000	      8497	80004cb4	f2cf8c03	lb	x24,-212(x31)	 x31:0x80008d63 x24=0x00000000 PA:0x80008c8f
       84995000	      8498	80004cb8	f2cf8d23	sb	x12,-198(x31)	 x31:0x80008d63 x12:0xc8f4ec4c PA:0x80008c9d
       85005000	      8499	80004cbc	419fdf13	srai	x30,x31,0x19	 x31:0x80008d63 x30=0xffffffc0
       85015000	      8500	80004cc0	f9cfc383	lbu	x7,-100(x31)	 x31:0x80008d63  x7=0x000000e2 PA:0x80008cff
       85025000	      8501	80004cc4	ff4f8323	sb	x20,-26(x31)	 x31:0x80008d63 x20:0x00000000 PA:0x80008d49
       85035000	      8502	80004cc8	40c7dc13	srai	x24,x15,0xc	 x15:0x80009fc4 x24=0xfff80009
       85045000	      8503	80004ccc	14c12493	slti	x9,x2,332	  x2:0xaa8dd69f  x9=0x00000001
       85055000	      8504	80004cd0	bb780093	addi	x1,x16,-1097	 x16:0xfffff4e1  x1=0xfffff098
       85065000	      8505	80004cd4	0caf8383	lb	x7,202(x31)	 x31:0x80008d63  x7=0x00000000 PA:0x80008e2d
       85075000	      8506	80004cd8	01ed4a63	blt	x26,x30,80004cec	 x26:0xffffff82 x30:0xffffffc0
       85085000	      8507	00000000	00000013	addi	x0,x0,0	  x0:0x00000000
       85095000	      8508	80004ce8	00000013	addi	x0,x0,0	  x0:0x00000000
       85105000	      8509	80004cec	411f0333	sub	x6,x30,x17	 x30:0xffffffc0 x17:0x00000028  x6=0xffffff98
       85115000	      8510	80004cf0	01f05013	srli	x0,x0,0x1f	  x0:0x00000000
       85125000	      8511	80004cf4	010e1f93	slli	x31,x28,0x10	 x28:0xffff92c2 x31=0x92c20000
       85135000	      8512	80004cf8	00505f13	srli	x30,x0,0x5	  x0:0x00000000 x30=0x00000000
       85145000	      8513	80004cfc	00b203b3	add	x7,x4,x11	  x4:0x6f9ebb33 x11:0xffffdf53  x7=0x6f9e9a86
       85155000	      8514	80004d00	95394d93	xori	x27,x18,-1709	 x18:0x00000001 x27=0xfffff952
       85165000	      8515	80004d04	7de72a37	lui	x20,0x7de72	 x20=0x7de72000
       85175000	      8516	80004d08	40c406b3	sub	x13,x8,x12	  x8:0xffffff86 x12:0xc8f4ec4c x13=0x370b133a
       85185000	      8517	80004d0c	40765833	sra	x16,x12,x7	 x12:0xc8f4ec4c  x7:0x6f9e9a86 x16=0xff23d3b1
       85195000	      8518	80004d10	00b50863	beq	x10,x11,80004d20	 x10:0x83abdc7f x11:0xffffdf53
       85205000	      8519	80004d14	c3996b93	ori	x23,x18,-967	 x18:0x00000001 x23=0xfffffc39
       85215000	      8520	80004d18	002c8fb3	add	x31,x25,x2	 x25:0x80009ef8  x2:0xaa8dd69f x31=0x2a8e7597
       85225000	      8521	80004d1c	400cd413	srai	x8,x25,0x0	 x25:0x80009ef8  x8=0x80009ef8
       85235000	      8522	80004d20	009f6e33	or	x28,x30,x9	 x30:0x00000000  x9:0x00000001 x28=0x00000001
       85245000	      8523	80004d24	836aea13	ori	x20,x21,-1994	 x21:0xffffffa7 x20=0xffffffb7
       85255000	      8524	80004d28	00c08633	add	x12,x1,x12	  x1:0xfffff098 x12:0xc8f4ec4c x12=0xc8f4dce4
       85265000	      8525	80004d2c	011dd6b3	srl	x13,x27,x17	 x27:0xfffff952 x17:0x00000028 x13=0x00fffff9
       85275000	      8526	80004d30	003a1f13	slli	x30,x20,0x3	 x20:0xffffffb7 x30=0xfffffdb8
       85285000	      8527	80004d34	2572ad93	slti	x27,x5,599	  x5:0x2d98d400 x27=0x00000000
       85295000	      8528	80004d38	8bc9b517	auipc	x10,0x8bc9b	 x10=0x0bc9fd34
       85305000	      8529	80004d3c	5614e293	ori	x5,x9,1377	  x9:0x00000001  x5=0x00000561
       85315000	      8530	80004d40	012aca63	blt	x21,x18,80004d54	 x21:0xffffffa7 x18:0x00000001
       85325000	      8531	00000000	00000013	addi	x0,x0,0	  x0:0x00000000
       85335000	      8532	80004d50	00000013	addi	x0,x0,0	  x0:0x00000000
       85345000	      8533	80004d54	41b35733	sra	x14,x6,x27	  x6:0xffffff98 x27:0x00000000 x14=0xffffff98
       85355000	      8534	80004d58	011a7033	and	x0,x20,x17	 x20:0xffffffb7 x17:0x00000028
       85365000	      8535	80004d5c	00f95c63	bge	x18,x15,80004d74	 x18:0x00000001 x15:0x80009fc4
       85375000	      8536	00000000	00000013	addi	x0,x0,0	  x0:0x00000000
       85385000	      8537	80004d70	00000013	addi	x0,x0,0	  x0:0x00000000
       85395000	      8538	80004d74	c8a7a193	slti	x3,x15,-886	 x15:0x80009fc4  x3=0x00000001
       85405000	      8539	80004d78	f08ce013	ori	x0,x25,-248	 x25:0x80009ef8
       85415000	      8540	80004d7c	04084863	blt	x16,x0,80004dcc	 x16:0xff23d3b1  x0:0x00000000
       85425000	      8541	00000000	00000013	addi	x0,x0,0	  x0:0x00000000
       85435000	      8542	80004dc8	00000013	addi	x0,x0,0	  x0:0x00000000
       85445000	      8543	80004dcc	00000013	addi	x0,x0,0	  x0:0x00000000
       85455000	      8544	80004dd0	bd13e397	auipc	x7,0xbd13e	  x7=0x3d142dcc
       85465000	      8545	80004dd4	40f2d8b3	sra	x17,x5,x15	  x5:0x00000561 x15:0x80009fc4 x17=0x00000056
       85475000	      8546	80004dd8	2668d497	auipc	x9,0x2668d	  x9=0xa6691dd4
       85485000	      8547	80004ddc	01b15933	srl	x18,x2,x27	  x2:0xaa8dd69f x27:0x00000000 x18=0xaa8dd69f
       85495000	      8548	80004de0	011adb33	srl	x22,x21,x17	 x21:0xffffffa7 x17:0x00000056 x22=0x000003ff
       85505000	      8549	80004de4	41f6dd93	srai	x27,x13,0x1f	 x13:0x00fffff9 x27=0x00000000
       85515000	      8550	80004de8	032df663	bgeu	x27,x18,80004e14	 x27:0x00000000 x18:0xaa8dd69f
       85525000	      8551	80004dec	00810f33	add	x30,x2,x8	  x2:0xaa8dd69f  x8:0x80009ef8 x30=0x2a8e7597
       85535000	      8552	80004df0	413d0ab3	sub	x21,x26,x19	 x26:0xffffff82 x19:0x00000000 x21=0xffffff82
       85545000	      8553	80004df4	01608233	add	x4,x1,x22	  x1:0xfffff098 x22:0x000003ff  x4=0xfffff497
       85555000	      8554	80004df8	6c12e293	ori	x5,x5,1729	  x5:0x00000561  x5=0x000007e1
       85565000	      8555	80004dfc	61974313	xori	x6,x14,1561	 x14:0xffffff98  x6=0xfffff981
       85575000	      8556	80004e00	a96dea93	ori	x21,x27,-1386	 x27:0x00000000 x21=0xfffffa96
       85585000	      8557	80004e04	2080c593	xori	x11,x1,520	  x1:0xfffff098 x11=0xfffff290
       85595000	      8558	80004e08	633b0a37	lui	x20,0x633b0	 x20=0x633b0000
       85605000	      8559	80004e0c	00732533	slt	x10,x6,x7	  x6:0xfffff981  x7:0x3d142dcc x10=0x00000001
       85615000	      8560	80004e10	0cf7c337	lui	x6,0xcf7c	  x6=0x0cf7c000
       85625000	      8561	80004e14	009cf533	and	x10,x25,x9	 x25:0x80009ef8  x9:0xa6691dd4 x10=0x80001cd0
       85635000	      8562	80004e18	28567893	andi	x17,x12,645	 x12:0xc8f4dce4 x17=0x00000084
       85645000	      8563	80004e1c	0340c263	blt	x1,x20,80004e40	  x1:0xfffff098 x20:0x633b0000
       85655000	      8564	00000000	00000013	addi	x0,x0,0	  x0:0x00000000
       85665000	      8565	80004e3c	00000013	addi	x0,x0,0	  x0:0x00000000
       85675000	      8566	80004e40	8ed7cc13	xori	x24,x15,-1811	 x15:0x80009fc4 x24=0x7fff6729
       85685000	      8567	80004e44	039e4663	blt	x28,x25,80004e70	 x28:0x00000001 x25:0x80009ef8
       85695000	      8568	80004e48	17d57613	andi	x12,x10,381	 x10:0x80001cd0 x12=0x00000050
       85705000	      8569	80004e4c	01870663	beq	x14,x24,80004e58	 x14:0xffffff98 x24:0x7fff6729
       85715000	      8570	80004e50	543c4993	xori	x19,x24,1347	 x24:0x7fff6729 x19=0x7fff626a
       85725000	      8571	80004e54	012a72b3	and	x5,x20,x18	 x20:0x633b0000 x18:0xaa8dd69f  x5=0x22090000
       85735000	      8572	80004e58	baeeb993	sltiu	x19,x29,-1106	 x29:0x83abdc34 x19=0x00000001
       85745000	      8573	80004e5c	4075da93	srai	x21,x11,0x7	 x11:0xfffff290 x21=0xffffffe5
       85755000	      8574	80004e60	00f174b3	and	x9,x2,x15	  x2:0xaa8dd69f x15:0x80009fc4  x9=0x80009684
       85765000	      8575	80004e64	0006ca33	xor	x20,x13,x0	 x13:0x00fffff9  x0:0x00000000 x20=0x00fffff9
       85775000	      8576	80004e68	027c8663	beq	x25,x7,80004e94	 x25:0x80009ef8  x7:0x3d142dcc
       85785000	      8577	80004e6c	015d8a63	beq	x27,x21,80004e80	 x27:0x00000000 x21:0xffffffe5
       85795000	      8578	80004e70	6ad86c13	ori	x24,x16,1709	 x16:0xff23d3b1 x24=0xff23d7bd
       85805000	      8579	80004e74	9157b893	sltiu	x17,x15,-1771	 x15:0x80009fc4 x17=0x00000001
       85815000	      8580	80004e78	03904e93	xori	x29,x0,57	  x0:0x00000000 x29=0x00000039
       85825000	      8581	80004e7c	01afa233	slt	x4,x31,x26	 x31:0x2a8e7597 x26:0xffffff82  x4=0x00000000
       85835000	      8582	80004e80	045a8063	beq	x21,x5,80004ec0	 x21:0xffffffe5  x5:0x22090000
       85845000	      8583	80004e84	00000013	addi	x0,x0,0	  x0:0x00000000
       85855000	      8584	80004e88	02c74463	blt	x14,x12,80004eb0	 x14:0xffffff98 x12:0x00000050
       85865000	      8585	00000000	00000013	addi	x0,x0,0	  x0:0x00000000
       85875000	      8586	80004eac	00000013	addi	x0,x0,0	  x0:0x00000000
       85885000	      8587	80004eb0	05c0f463	bgeu	x1,x28,80004ef8	  x1:0xfffff098 x28:0x00000001
       85895000	      8588	00000000	00000013	addi	x0,x0,0	  x0:0x00000000
       85905000	      8589	80004ef4	00000013	addi	x0,x0,0	  x0:0x00000000
       85915000	      8590	80004ef8	00000013	addi	x0,x0,0	  x0:0x00000000
       85925000	      8591	80004efc	01c41493	slli	x9,x8,0x1c	  x8:0x80009ef8  x9=0x80000000
       85935000	      8592	80004f00	05588663	beq	x17,x21,80004f4c	 x17:0x00000001 x21:0xffffffe5
       85945000	      8593	80004f04	00612d33	slt	x26,x2,x6	  x2:0xaa8dd69f  x6:0x0cf7c000 x26=0x00000001
       85955000	      8594	80004f08	0178d463	bge	x17,x23,80004f10	 x17:0x00000001 x23:0xfffffc39
       85965000	      8595	00000000	00000013	addi	x0,x0,0	  x0:0x00000000
       85975000	      8596	80004f0c	00000013	addi	x0,x0,0	  x0:0x00000000
       85985000	      8597	80004f10	00f89a63	bne	x17,x15,80004f24	 x17:0x00000001 x15:0x80009fc4
       85995000	      8598	00000000	00000013	addi	x0,x0,0	  x0:0x00000000
       86005000	      8599	80004f20	00000013	addi	x0,x0,0	  x0:0x00000000
       86015000	      8600	80004f24	679c8e13	addi	x28,x25,1657	 x25:0x80009ef8 x28=0x8000a571
       86025000	      8601	80004f28	a82d4537	lui	x10,0xa82d4	 x10=0xa82d4000
       86035000	      8602	80004f2c	00f74a63	blt	x14,x15,80004f40	 x14:0xffffff98 x15:0x80009fc4
       86045000	      8603	80004f30	01456b33	or	x22,x10,x20	 x10:0xa82d4000 x20:0x00fffff9 x22=0xa8fffff9
       86055000	      8604	80004f34	01470463	beq	x14,x20,80004f3c	 x14:0xffffff98 x20:0x00fffff9
       86065000	      8605	80004f38	00fd3633	sltu	x12,x26,x15	 x26:0x00000001 x15:0x80009fc4 x12=0x00000001
       86075000	      8606	80004f3c	efaf1837	lui	x16,0xefaf1	 x16=0xefaf1000
       86085000	      8607	80004f40	01bf9b93	slli	x23,x31,0x1b	 x31:0x2a8e7597 x23=0xb8000000
       86095000	      8608	80004f44	7407f2b7	lui	x5,0x7407f	  x5=0x7407f000
       86105000	      8609	80004f48	00b19e93	slli	x29,x3,0xb	  x3:0x00000001 x29=0x00000800
       86115000	      8610	80004f4c	4c1a9897	auipc	x17,0x4c1a9	 x17=0xcc1adf48
       86125000	      8611	80004f50	8b697693	andi	x13,x18,-1866	 x18:0xaa8dd69f x13=0xaa8dd096
       86135000	      8612	80004f54	01ed4db3	xor	x27,x26,x30	 x26:0x00000001 x30:0x2a8e7597 x27=0x2a8e7596
       86145000	      8613	80004f58	40598ab3	sub	x21,x19,x5	 x19:0x00000001  x5:0x7407f000 x21=0x8bf81001
       86155000	      8614	80004f5c	01d3f233	and	x4,x7,x29	  x7:0x3d142dcc x29:0x00000800  x4=0x00000800
       86165000	      8615	80004f60	41790a33	sub	x20,x18,x23	 x18:0xaa8dd69f x23:0xb8000000 x20=0xf28dd69f
       86175000	      8616	80004f64	0153da13	srli	x20,x7,0x15	  x7:0x3d142dcc x20=0x000001e8
       86185000	      8617	80004f68	788e0d93	addi	x27,x28,1928	 x28:0x8000a571 x27=0x8000acf9
       86195000	      8618	80004f6c	416fdf13	srai	x30,x31,0x16	 x31:0x2a8e7597 x30=0x000000aa
       86205000	      8619	80004f70	41b35bb3	sra	x23,x6,x27	  x6:0x0cf7c000 x27:0x8000acf9 x23=0x00000006
       86215000	      8620	80004f74	04598063	beq	x19,x5,80004fb4	 x19:0x00000001  x5:0x7407f000
       86225000	      8621	80004f78	00de15b3	sll	x11,x28,x13	 x28:0x8000a571 x13:0xaa8dd096 x11=0x5c400000
       86235000	      8622	80004f7c	055f1863	bne	x30,x21,80004fcc	 x30:0x000000aa x21:0x8bf81001
       86245000	      8623	00000000	00000013	addi	x0,x0,0	  x0:0x00000000
       86255000	      8624	80004fc8	00000013	addi	x0,x0,0	  x0:0x00000000
       86265000	      8625	80004fcc	e7f9a713	slti	x14,x19,-385	 x19:0x00000001 x14=0x00000000
       86275000	      8626	80004fd0	429a7ab7	lui	x21,0x429a7	 x21=0x429a7000
       86285000	      8627	80004fd4	01a48eb3	add	x29,x9,x26	  x9:0x80000000 x26:0x00000001 x29=0x80000001
       86295000	      8628	80004fd8	745bf437	lui	x8,0x745bf	  x8=0x745bf000
       86305000	      8629	80004fdc	40245f93	srai	x31,x8,0x2	  x8:0x745bf000 x31=0x1d16fc00
       86315000	      8630	80004fe0	1e48ae13	slti	x28,x17,484	 x17:0xcc1adf48 x28=0x00000001
       86325000	      8631	80004fe4	3c13c8b7	lui	x17,0x3c13c	 x17=0x3c13c000
       86335000	      8632	80004fe8	401fd5b3	sra	x11,x31,x1	 x31:0x1d16fc00  x1:0xfffff098 x11=0x0000001d
       86345000	      8633	80004fec	41a98433	sub	x8,x19,x26	 x19:0x00000001 x26:0x00000001  x8=0x00000000
       86355000	      8634	80004ff0	00588033	add	x0,x17,x5	 x17:0x3c13c000  x5:0x7407f000
       86365000	      8635	80004ff4	48d82a93	slti	x21,x16,1165	 x16:0xefaf1000 x21=0x00000001
       86375000	      8636	80004ff8	02950e63	beq	x10,x9,80005034	 x10:0xa82d4000  x9:0x80000000
       86385000	      8637	80004ffc	e233ed93	ori	x27,x7,-477	  x7:0x3d142dcc x27=0xffffffef
       86395000	      8638	80005000	01d0e4b3	or	x9,x1,x29	  x1:0xfffff098 x29:0x80000001  x9=0xfffff099
       86405000	      8639	80005004	4011de33	sra	x28,x3,x1	  x3:0x00000001  x1:0xfffff098 x28=0x00000000
       86415000	      8640	80005008	b467f813	andi	x16,x15,-1210	 x15:0x80009fc4 x16=0x80009b44
       86425000	      8641	8000500c	000eb833	sltu	x16,x29,x0	 x29:0x80000001  x0:0x00000000 x16=0x00000000
       86435000	      8642	80005010	593cf913	andi	x18,x25,1427	 x25:0x80009ef8 x18=0x00000490
       86445000	      8643	80005014	166099b7	lui	x19,0x16609	 x19=0x16609000
       86455000	      8644	80005018	00000013	addi	x0,x0,0	  x0:0x00000000
       86465000	      8645	8000501c	ebc714b7	lui	x9,0xebc71	  x9=0xebc71000
       86475000	      8646	80005020	00d7e663	bltu	x15,x13,8000502c	 x15:0x80009fc4 x13:0xaa8dd096
       86485000	      8647	00000000	00000013	addi	x0,x0,0	  x0:0x00000000
       86495000	      8648	80005028	00000013	addi	x0,x0,0	  x0:0x00000000
       86505000	      8649	8000502c	40d205b3	sub	x11,x4,x13	  x4:0x00000800 x13:0xaa8dd096 x11=0x5572376a
       86515000	      8650	80005030	04f5f863	bgeu	x11,x15,80005080	 x11:0x5572376a x15:0x80009fc4
       86525000	      8651	80005034	02a71663	bne	x14,x10,80005060	 x14:0x00000000 x10:0xa82d4000
       86535000	      8652	00000000	00000013	addi	x0,x0,0	  x0:0x00000000
       86545000	      8653	8000505c	00000013	addi	x0,x0,0	  x0:0x00000000
       86555000	      8654	80005060	0028a233	slt	x4,x17,x2	 x17:0x3c13c000  x2:0xaa8dd69f  x4=0x00000000
       86565000	      8655	80005064	98a68313	addi	x6,x13,-1654	 x13:0xaa8dd096  x6=0xaa8dca20
       86575000	      8656	80005068	00000013	addi	x0,x0,0	  x0:0x00000000
       86585000	      8657	8000506c	41d880b3	sub	x1,x17,x29	 x17:0x3c13c000 x29:0x80000001  x1=0xbc13bfff
       86595000	      8658	80005070	663d0737	lui	x14,0x663d0	 x14=0x663d0000
       86605000	      8659	80005074	00dec863	blt	x29,x13,80005084	 x29:0x80000001 x13:0xaa8dd096
       86615000	      8660	00000000	00000013	addi	x0,x0,0	  x0:0x00000000
       86625000	      8661	80005080	00000013	addi	x0,x0,0	  x0:0x00000000
       86635000	      8662	80005084	01161493	slli	x9,x12,0x11	 x12:0x00000001  x9=0x00020000
       86645000	      8663	80005088	016ad663	bge	x21,x22,80005094	 x21:0x00000001 x22:0xa8fffff9
       86655000	      8664	00000000	00000013	addi	x0,x0,0	  x0:0x00000000
       86665000	      8665	80005090	00000013	addi	x0,x0,0	  x0:0x00000000
       86675000	      8666	80005094	009bdb93	srli	x23,x23,0x9	 x23:0x00000006 x23=0x00000000
       86685000	      8667	80005098	41c15713	srai	x14,x2,0x1c	  x2:0xaa8dd69f x14=0xfffffffa
       86695000	      8668	8000509c	01acce63	blt	x25,x26,800050b8	 x25:0x80009ef8 x26:0x00000001
       86705000	      8669	00000000	00000013	addi	x0,x0,0	  x0:0x00000000
       86715000	      8670	800050b4	00000013	addi	x0,x0,0	  x0:0x00000000
       86725000	      8671	800050b8	01532d33	slt	x26,x6,x21	  x6:0xaa8dca20 x21:0x00000001 x26=0x00000001
       86735000	      8672	800050bc	0f690a63	beq	x18,x22,800051b0	 x18:0x00000490 x22:0xa8fffff9
       86745000	      8673	800050c0	ebda0193	addi	x3,x20,-323	 x20:0x000001e8  x3=0x000000a5
       86755000	      8674	800050c4	01e21913	slli	x18,x4,0x1e	  x4:0x00000000 x18=0x00000000
       86765000	      8675	800050c8	00004917	auipc	x18,0x4	 x18=0x800090c4
       86775000	      8676	800050cc	f0790913	addi	x18,x18,-249	 x18:0x800090c4 x18=0x80008fcb
       86785000	      8677	800050d0	40b48bb3	sub	x23,x9,x11	  x9:0x00020000 x11:0x5572376a x23=0xaa8fc896
       86795000	      8678	800050d4	01fa1b33	sll	x22,x20,x31	 x20:0x000001e8 x31:0x1d16fc00 x22=0x000001e8
       86805000	      8679	800050d8	fd195583	lhu	x11,-47(x18)	 x18:0x80008fcb x11=0x0000b052 PA:0x80008f9c
       86815000	      8680	800050dc	fe990b23	sb	x9,-10(x18)	 x18:0x80008fcb  x9:0x00020000 PA:0x80008fc1
       86825000	      8681	800050e0	00000013	addi	x0,x0,0	  x0:0x00000000
       86835000	      8682	800050e4	4123dd93	srai	x27,x7,0x12	  x7:0x3d142dcc x27=0x00000f45
       86845000	      8683	800050e8	018ac4b3	xor	x9,x21,x24	 x21:0x00000001 x24:0xff23d7bd  x9=0xff23d7bc
       86855000	      8684	800050ec	016ee733	or	x14,x29,x22	 x29:0x80000001 x22:0x000001e8 x14=0x800001e9
       86865000	      8685	800050f0	f47904a3	sb	x7,-183(x18)	 x18:0x80008fcb  x7:0x3d142dcc PA:0x80008f14
       86875000	      8686	800050f4	00de3233	sltu	x4,x28,x13	 x28:0x00000000 x13:0xaa8dd096  x4=0x00000001
       86885000	      8687	800050f8	00465b13	srli	x22,x12,0x4	 x12:0x00000001 x22=0x00000000
       86895000	      8688	800050fc	fca919a3	sh	x10,-45(x18)	 x18:0x80008fcb x10:0xa82d4000 PA:0x80008f9e
       86905000	      8689	80005100	01794303	lbu	x6,23(x18)	 x18:0x80008fcb  x6=0x000000e0 PA:0x80008fe2
       86915000	      8690	80005104	01241b13	slli	x22,x8,0x12	  x8:0x00000000 x22=0x00000000
       86925000	      8691	80005108	015e5733	srl	x14,x28,x21	 x28:0x00000000 x21:0x00000001 x14=0x00000000
       86935000	      8692	8000510c	fbd92b83	lw	x23,-67(x18)	 x18:0x80008fcb x23=0x80009fc4 PA:0x80008f88
       86945000	      8693	80005110	fc290423	sb	x2,-56(x18)	 x18:0x80008fcb  x2:0xaa8dd69f PA:0x80008f93
       86955000	      8694	80005114	ff890583	lb	x11,-8(x18)	 x18:0x80008fcb x11=0xfffffff9 PA:0x80008fc3
       86965000	      8695	80005118	f88901a3	sb	x8,-125(x18)	 x18:0x80008fcb  x8:0x00000000 PA:0x80008f4e
       86975000	      8696	8000511c	ff391b03	lh	x22,-13(x18)	 x18:0x80008fcb x22=0xffffd1a7 PA:0x80008fbe
       86985000	      8697	80005120	00342ab3	slt	x21,x8,x3	  x8:0x00000000  x3:0x000000a5 x21=0x00000001
       86995000	      8698	80005124	f8d94483	lbu	x9,-115(x18)	 x18:0x80008fcb  x9=0x000000ba PA:0x80008f58
       87005000	      8699	80005128	f50918a3	sh	x16,-175(x18)	 x18:0x80008fcb x16:0x00000000 PA:0x80008f1c
       87015000	      8700	8000512c	00000013	addi	x0,x0,0	  x0:0x00000000
       87025000	      8701	80005130	01090d03	lb	x26,16(x18)	 x18:0x80008fcb x26=0x0000003e PA:0x80008fdb
       87035000	      8702	80005134	002c9f33	sll	x30,x25,x2	 x25:0x80009ef8  x2:0xaa8dd69f x30=0x00000000
       87045000	      8703	80005138	fa090583	lb	x11,-96(x18)	 x18:0x80008fcb x11=0x00000044 PA:0x80008f6b
       87055000	      8704	8000513c	fd090aa3	sb	x16,-43(x18)	 x18:0x80008fcb x16:0x00000000 PA:0x80008fa0
       87065000	      8705	80005140	f4a90483	lb	x9,-182(x18)	 x18:0x80008fcb  x9=0xffffffa7 PA:0x80008f15
       87075000	      8706	80005144	f5c94a03	lbu	x20,-164(x18)	 x18:0x80008fcb x20=0x00000090 PA:0x80008f27
       87085000	      8707	80005148	00f99e13	slli	x28,x19,0xf	 x19:0x16609000 x28=0x48000000
       87095000	      8708	8000514c	f4b90403	lb	x8,-181(x18)	 x18:0x80008fcb  x8=0x00000006 PA:0x80008f16
       87105000	      8709	80005150	f5c90203	lb	x4,-164(x18)	 x18:0x80008fcb  x4=0xffffff90 PA:0x80008f27
       87115000	      8710	80005154	f7d95203	lhu	x4,-131(x18)	 x18:0x80008fcb  x4=0x00009a37 PA:0x80008f48
       87125000	      8711	80005158	faf92ea3	sw	x15,-67(x18)	 x18:0x80008fcb x15:0x80009fc4 PA:0x80008f88
       87135000	      8712	8000515c	fad910a3	sh	x13,-95(x18)	 x18:0x80008fcb x13:0xaa8dd096 PA:0x80008f6c
       87145000	      8713	80005160	f3d92503	lw	x10,-195(x18)	 x18:0x80008fcb x10=0x8dc2bd4d PA:0x80008f08
       87155000	      8714	80005164	f1a912a3	sh	x26,-251(x18)	 x18:0x80008fcb x26:0x0000003e PA:0x80008ed0
       87165000	      8715	80005168	01090183	lb	x3,16(x18)	 x18:0x80008fcb  x3=0x0000003e PA:0x80008fdb
       87175000	      8716	8000516c	f8694d83	lbu	x27,-122(x18)	 x18:0x80008fcb x27=0x00000001 PA:0x80008f51
       87185000	      8717	80005170	1ebd6497	auipc	x9,0x1ebd6	  x9=0x9ebdb16c
       87195000	      8718	80005174	414d5e13	srai	x28,x26,0x14	 x26:0x0000003e x28=0x00000000
       87205000	      8719	80005178	034f0663	beq	x30,x20,800051a4	 x30:0x00000000 x20:0x00000090
       87215000	      8720	8000517c	04a69463	bne	x13,x10,800051c4	 x13:0xaa8dd096 x10:0x8dc2bd4d
       87225000	      8721	00000000	00000013	addi	x0,x0,0	  x0:0x00000000
       87235000	      8722	800051c0	00000013	addi	x0,x0,0	  x0:0x00000000
       87245000	      8723	800051c4	04e76863	bltu	x14,x14,80005214	 x14:0x00000000 x14:0x00000000
       87255000	      8724	800051c8	00a08c63	beq	x1,x10,800051e0	  x1:0xbc13bfff x10:0x8dc2bd4d
       87265000	      8725	800051cc	00000013	addi	x0,x0,0	  x0:0x00000000
       87275000	      8726	800051d0	e0314993	xori	x19,x2,-509	  x2:0xaa8dd69f x19=0x5572289c
       87285000	      8727	800051d4	01cd7533	and	x10,x26,x28	 x26:0x0000003e x28:0x00000000 x10=0x00000000
       87295000	      8728	800051d8	43f50d93	addi	x27,x10,1087	 x10:0x00000000 x27=0x0000043f
       87305000	      8729	800051dc	76438b13	addi	x22,x7,1892	  x7:0x3d142dcc x22=0x3d143530
       87315000	      8730	800051e0	40528c33	sub	x24,x5,x5	  x5:0x7407f000  x5:0x7407f000 x24=0x00000000
       87325000	      8731	800051e4	415c0a33	sub	x20,x24,x21	 x24:0x00000000 x21:0x00000001 x20=0xffffffff
       87335000	      8732	800051e8	02a4f263	bgeu	x9,x10,8000520c	  x9:0x9ebdb16c x10:0x00000000
       87345000	      8733	00000000	00000013	addi	x0,x0,0	  x0:0x00000000
       87355000	      8734	80005208	00000013	addi	x0,x0,0	  x0:0x00000000
       87365000	      8735	8000520c	41338e33	sub	x28,x7,x19	  x7:0x3d142dcc x19:0x5572289c x28=0xe7a20530
       87375000	      8736	80005210	00000013	addi	x0,x0,0	  x0:0x00000000
       87385000	      8737	80005214	01c90db3	add	x27,x18,x28	 x18:0x80008fcb x28:0xe7a20530 x27=0x67a294fb
       87395000	      8738	80005218	414bd613	srai	x12,x23,0x14	 x23:0x80009fc4 x12=0xfffff800
       87405000	      8739	8000521c	00000013	addi	x0,x0,0	  x0:0x00000000
       87415000	      8740	80005220	048cd663	bge	x25,x8,8000526c	 x25:0x80009ef8  x8:0x00000006
       87425000	      8741	80005224	c5632993	slti	x19,x6,-938	  x6:0x000000e0 x19=0x00000000
       87435000	      8742	80005228	010dd733	srl	x14,x27,x16	 x27:0x67a294fb x16:0x00000000 x14=0x67a294fb
       87445000	      8743	8000522c	01e094b3	sll	x9,x1,x30	  x1:0xbc13bfff x30:0x00000000  x9=0xbc13bfff
       87455000	      8744	80005230	13ab6393	ori	x7,x22,314	 x22:0x3d143530  x7=0x3d14353a
       87465000	      8745	80005234	01c7f4b3	and	x9,x15,x28	 x15:0x80009fc4 x28:0xe7a20530  x9=0x80000500
       87475000	      8746	80005238	00000013	addi	x0,x0,0	  x0:0x00000000
       87485000	      8747	8000523c	0067ec63	bltu	x15,x6,80005254	 x15:0x80009fc4  x6:0x000000e0
       87495000	      8748	80005240	69dbcfb7	lui	x31,0x69dbc	 x31=0x69dbc000
       87505000	      8749	80005244	41f55e93	srai	x29,x10,0x1f	 x10:0x00000000 x29=0x00000000
       87515000	      8750	80005248	012cb233	sltu	x4,x25,x18	 x25:0x80009ef8 x18:0x80008fcb  x4=0x00000000
       87525000	      8751	8000524c	00000013	addi	x0,x0,0	  x0:0x00000000
       87535000	      8752	80005250	003f1193	slli	x3,x30,0x3	 x30:0x00000000  x3=0x00000000
       87545000	      8753	80005254	417dd5b3	sra	x11,x27,x23	 x27:0x67a294fb x23:0x80009fc4 x11=0x067a294f
       87555000	      8754	80005258	000c0863	beq	x24,x0,80005268	 x24:0x00000000  x0:0x00000000
       87565000	      8755	00000000	00000013	addi	x0,x0,0	  x0:0x00000000
       87575000	      8756	80005264	00000013	addi	x0,x0,0	  x0:0x00000000
       87585000	      8757	80005268	01b3e6b3	or	x13,x7,x27	  x7:0x3d14353a x27:0x67a294fb x13=0x7fb6b5fb
       87595000	      8758	8000526c	00151463	bne	x10,x1,80005274	 x10:0x00000000  x1:0xbc13bfff
       87605000	      8759	00000000	00000013	addi	x0,x0,0	  x0:0x00000000
       87615000	      8760	80005270	00000013	addi	x0,x0,0	  x0:0x00000000
       87625000	      8761	80005274	005c9933	sll	x18,x25,x5	 x25:0x80009ef8  x5:0x7407f000 x18=0x80009ef8
       87635000	      8762	80005278	00a972b3	and	x5,x18,x10	 x18:0x80009ef8 x10:0x00000000  x5=0x00000000
       87645000	      8763	8000527c	00000013	addi	x0,x0,0	  x0:0x00000000
       87655000	      8764	80005280	01e6d5b3	srl	x11,x13,x30	 x13:0x7fb6b5fb x30:0x00000000 x11=0x7fb6b5fb
       87665000	      8765	80005284	00d4db13	srli	x22,x9,0xd	  x9:0x80000500 x22=0x00040000
       87675000	      8766	80005288	00f59733	sll	x14,x11,x15	 x11:0x7fb6b5fb x15:0x80009fc4 x14=0xfb6b5fb0
       87685000	      8767	8000528c	03a58663	beq	x11,x26,800052b8	 x11:0x7fb6b5fb x26:0x0000003e
       87695000	      8768	80005290	006dfa33	and	x20,x27,x6	 x27:0x67a294fb  x6:0x000000e0 x20=0x000000e0
       87705000	      8769	80005294	0293c863	blt	x7,x9,800052c4	  x7:0x3d14353a  x9:0x80000500
       87715000	      8770	80005298	01bebbb3	sltu	x23,x29,x27	 x29:0x00000000 x27:0x67a294fb x23=0x00000001
       87725000	      8771	8000529c	026dc293	xori	x5,x27,38	 x27:0x67a294fb  x5=0x67a294dd
       87735000	      8772	800052a0	041e0863	beq	x28,x1,800052f0	 x28:0xe7a20530  x1:0xbc13bfff
       87745000	      8773	800052a4	5876bd13	sltiu	x26,x13,1415	 x13:0x7fb6b5fb x26=0x00000000
       87755000	      8774	800052a8	016f4293	xori	x5,x30,22	 x30:0x00000000  x5=0x00000016
       87765000	      8775	800052ac	40f70933	sub	x18,x14,x15	 x14:0xfb6b5fb0 x15:0x80009fc4 x18=0x7b6abfec
       87775000	      8776	800052b0	f3347737	lui	x14,0xf3347	 x14=0xf3347000
       87785000	      8777	800052b4	40cb5913	srai	x18,x22,0xc	 x22:0x00040000 x18=0x00000040
       87795000	      8778	800052b8	05984063	blt	x16,x25,800052f8	 x16:0x00000000 x25:0x80009ef8
       87805000	      8779	800052bc	01b0eb33	or	x22,x1,x27	  x1:0xbc13bfff x27:0x67a294fb x22=0xffb3bfff
       87815000	      8780	800052c0	8b99a813	slti	x16,x19,-1863	 x19:0x00000000 x16=0x00000000
       87825000	      8781	800052c4	0093f663	bgeu	x7,x9,800052d0	  x7:0x3d14353a  x9:0x80000500
       87835000	      8782	800052c8	0314fe63	bgeu	x9,x17,80005304	  x9:0x80000500 x17:0x3c13c000
       87845000	      8783	00000000	00000013	addi	x0,x0,0	  x0:0x00000000
       87855000	      8784	80005300	00000013	addi	x0,x0,0	  x0:0x00000000
       87865000	      8785	80005304	026f8663	beq	x31,x6,80005330	 x31:0x69dbc000  x6:0x000000e0
       87875000	      8786	80005308	41592e37	lui	x28,0x41592	 x28=0x41592000
       87885000	      8787	8000530c	00000013	addi	x0,x0,0	  x0:0x00000000
       87895000	      8788	80005310	014b7b33	and	x22,x22,x20	 x22:0xffb3bfff x20:0x000000e0 x22=0x000000e0
       87905000	      8789	80005314	02e47663	bgeu	x8,x14,80005340	  x8:0x00000006 x14:0xf3347000
       87915000	      8790	80005318	0129a8b3	slt	x17,x19,x18	 x19:0x00000000 x18:0x00000040 x17=0x00000001
       87925000	      8791	8000531c	011a3eb3	sltu	x29,x20,x17	 x20:0x000000e0 x17:0x00000001 x29=0x00000000
       87935000	      8792	80005320	4294d337	lui	x6,0x4294d	  x6=0x4294d000
       87945000	      8793	80005324	40275613	srai	x12,x14,0x2	 x14:0xf3347000 x12=0xfccd1c00
       87955000	      8794	80005328	053d7663	bgeu	x26,x19,80005374	 x26:0x00000000 x19:0x00000000
       87965000	      8795	00000000	00000013	addi	x0,x0,0	  x0:0x00000000
       87975000	      8796	80005370	00000013	addi	x0,x0,0	  x0:0x00000000
       87985000	      8797	80005374	01bef1b3	and	x3,x29,x27	 x29:0x00000000 x27:0x67a294fb  x3=0x00000000
       87995000	      8798	80005378	018f4833	xor	x16,x30,x24	 x30:0x00000000 x24:0x00000000 x16=0x00000000
       88005000	      8799	8000537c	01d953b3	srl	x7,x18,x29	 x18:0x00000040 x29:0x00000000  x7=0x00000040
       88015000	      8800	80005380	4f280293	addi	x5,x16,1266	 x16:0x00000000  x5=0x000004f2
       88025000	      8801	80005384	0007d1b3	srl	x3,x15,x0	 x15:0x80009fc4  x0:0x00000000  x3=0x80009fc4
       88035000	      8802	80005388	33764fb7	lui	x31,0x33764	 x31=0x33764000
       88045000	      8803	8000538c	01947663	bgeu	x8,x25,80005398	  x8:0x00000006 x25:0x80009ef8
       88055000	      8804	80005390	00d66333	or	x6,x12,x13	 x12:0xfccd1c00 x13:0x7fb6b5fb  x6=0xffffbdfb
       88065000	      8805	80005394	00369713	slli	x14,x13,0x3	 x13:0x7fb6b5fb x14=0xfdb5afd8
       88075000	      8806	80005398	52e4b8b7	lui	x17,0x52e4b	 x17=0x52e4b000
       88085000	      8807	8000539c	89698d13	addi	x26,x19,-1898	 x19:0x00000000 x26=0xfffff896
       88095000	      8808	800053a0	00b29d33	sll	x26,x5,x11	  x5:0x000004f2 x11:0x7fb6b5fb x26=0x90000000
       88105000	      8809	800053a4	0188a9b3	slt	x19,x17,x24	 x17:0x52e4b000 x24:0x00000000 x19=0x00000000
       88115000	      8810	800053a8	b6eb6293	ori	x5,x22,-1170	 x22:0x000000e0  x5=0xfffffbee
       88125000	      8811	800053ac	004a8a33	add	x20,x21,x4	 x21:0x00000001  x4:0x00000000 x20=0x00000001
       88135000	      8812	800053b0	07c94313	xori	x6,x18,124	 x18:0x00000040  x6=0x0000003c
       88145000	      8813	800053b4	7f457c13	andi	x24,x10,2036	 x10:0x00000000 x24=0x00000000
       88155000	      8814	800053b8	3ee6a993	slti	x19,x13,1006	 x13:0x7fb6b5fb x19=0x00000000
       88165000	      8815	800053bc	40a75293	srai	x5,x14,0xa	 x14:0xfdb5afd8  x5=0xffff6d6b
       88175000	      8816	800053c0	38f4a993	slti	x19,x9,911	  x9:0x80000500 x19=0x00000001
       88185000	      8817	800053c4	01ceee33	or	x28,x29,x28	 x29:0x00000000 x28:0x41592000 x28=0x41592000
       88195000	      8818	800053c8	f5e42e13	slti	x28,x8,-162	  x8:0x00000006 x28=0x00000000
       88205000	      8819	800053cc	01171e93	slli	x29,x14,0x11	 x14:0xfdb5afd8 x29=0x5fb00000
       88215000	      8820	800053d0	00000013	addi	x0,x0,0	  x0:0x00000000
       88225000	      8821	800053d4	40d359b3	sra	x19,x6,x13	  x6:0x0000003c x13:0x7fb6b5fb x19=0x00000000
       88235000	      8822	800053d8	299d2593	slti	x11,x26,665	 x26:0x90000000 x11=0x00000001
       88245000	      8823	800053dc	95aa3b13	sltiu	x22,x20,-1702	 x20:0x00000001 x22=0x00000001
       88255000	      8824	800053e0	01f11233	sll	x4,x2,x31	  x2:0xaa8dd69f x31:0x33764000  x4=0xaa8dd69f
       88265000	      8825	800053e4	01c91a63	bne	x18,x28,800053f8	 x18:0x00000040 x28:0x00000000
       88275000	      8826	00000000	00000013	addi	x0,x0,0	  x0:0x00000000
       88285000	      8827	800053f4	00000013	addi	x0,x0,0	  x0:0x00000000
       88295000	      8828	800053f8	414d0033	sub	x0,x26,x20	 x26:0x90000000 x20:0x00000001
       88305000	      8829	800053fc	01b096b3	sll	x13,x1,x27	  x1:0xbc13bfff x27:0x67a294fb x13=0xf8000000
       88315000	      8830	80005400	00ec5333	srl	x6,x24,x14	 x24:0x00000000 x14:0xfdb5afd8  x6=0x00000000
       88325000	      8831	80005404	01895663	bge	x18,x24,80005410	 x18:0x00000040 x24:0x00000000
       88335000	      8832	00000000	00000013	addi	x0,x0,0	  x0:0x00000000
       88345000	      8833	8000540c	00000013	addi	x0,x0,0	  x0:0x00000000
       88355000	      8834	80005410	01e7f8b3	and	x17,x15,x30	 x15:0x80009fc4 x30:0x00000000 x17=0x00000000
       88365000	      8835	80005414	00f654b3	srl	x9,x12,x15	 x12:0xfccd1c00 x15:0x80009fc4  x9=0x0fccd1c0
       88375000	      8836	80005418	04b3e063	bltu	x7,x11,80005458	  x7:0x00000040 x11:0x00000001
       88385000	      8837	8000541c	b158b597	auipc	x11,0xb158b	 x11=0x31590418
       88395000	      8838	80005420	4dbdf193	andi	x3,x27,1243	 x27:0x67a294fb  x3=0x000004db
       88405000	      8839	80005424	01774c63	blt	x14,x23,8000543c	 x14:0xfdb5afd8 x23:0x00000001
       88415000	      8840	00000000	00000013	addi	x0,x0,0	  x0:0x00000000
       88425000	      8841	80005438	00000013	addi	x0,x0,0	  x0:0x00000000
       88435000	      8842	8000543c	4d5cca93	xori	x21,x25,1237	 x25:0x80009ef8 x21=0x80009a2d
       88445000	      8843	80005440	41575ab3	sra	x21,x14,x21	 x14:0xfdb5afd8 x21:0x80009a2d x21=0xffffedad
       88455000	      8844	80005444	004e49b3	xor	x19,x28,x4	 x28:0x00000000  x4:0xaa8dd69f x19=0xaa8dd69f
       88465000	      8845	80005448	41cc5893	srai	x17,x24,0x1c	 x24:0x00000000 x17=0x00000000
       88475000	      8846	8000544c	027f0f13	addi	x30,x30,39	 x30:0x00000000 x30=0x00000027
       88485000	      8847	80005450	01d11413	slli	x8,x2,0x1d	  x2:0xaa8dd69f  x8=0xe0000000
       88495000	      8848	80005454	012dc463	blt	x27,x18,8000545c	 x27:0x67a294fb x18:0x00000040
       88505000	      8849	80005458	00000013	addi	x0,x0,0	  x0:0x00000000
       88515000	      8850	8000545c	04df8063	beq	x31,x13,8000549c	 x31:0x33764000 x13:0xf8000000
       88525000	      8851	80005460	01a9d663	bge	x19,x26,8000546c	 x19:0xaa8dd69f x26:0x90000000
       88535000	      8852	00000000	00000013	addi	x0,x0,0	  x0:0x00000000
       88545000	      8853	80005468	00000013	addi	x0,x0,0	  x0:0x00000000
       88555000	      8854	8000546c	1422a393	slti	x7,x5,322	  x5:0xffff6d6b  x7=0x00000001
       88565000	      8855	80005470	00fd3533	sltu	x10,x26,x15	 x26:0x90000000 x15:0x80009fc4 x10=0x00000000
       88575000	      8856	80005474	01f8da63	bge	x17,x31,80005488	 x17:0x00000000 x31:0x33764000
       88585000	      8857	80005478	76330d13	addi	x26,x6,1891	  x6:0x00000000 x26=0x00000763
       88595000	      8858	8000547c	401d5513	srai	x10,x26,0x1	 x26:0x00000763 x10=0x000003b1
       88605000	      8859	80005480	1b81f593	andi	x11,x3,440	  x3:0x000004db x11=0x00000098
       88615000	      8860	80005484	77564a13	xori	x20,x12,1909	 x12:0xfccd1c00 x20=0xfccd1b75
       88625000	      8861	80005488	0072f633	and	x12,x5,x7	  x5:0xffff6d6b  x7:0x00000001 x12=0x00000001
       88635000	      8862	8000548c	e704ca93	xori	x21,x9,-400	  x9:0x0fccd1c0 x21=0xf0332fb0
       88645000	      8863	80005490	00009c33	sll	x24,x1,x0	  x1:0xbc13bfff  x0:0x00000000 x24=0xbc13bfff
       88655000	      8864	80005494	005819b3	sll	x19,x16,x5	 x16:0x00000000  x5:0xffff6d6b x19=0x00000000
       88665000	      8865	80005498	6b5d8213	addi	x4,x27,1717	 x27:0x67a294fb  x4=0x67a29bb0
       88675000	      8866	8000549c	0198da13	srli	x20,x17,0x19	 x17:0x00000000 x20=0x00000000
       88685000	      8867	800054a0	f2158993	addi	x19,x11,-223	 x11:0x00000098 x19=0xffffffb9
       88695000	      8868	800054a4	40ce5c13	srai	x24,x28,0xc	 x28:0x00000000 x24=0x00000000
       88705000	      8869	800054a8	4035d913	srai	x18,x11,0x3	 x11:0x00000098 x18=0x00000013
       88715000	      8870	800054ac	e7f53e13	sltiu	x28,x10,-385	 x10:0x000003b1 x28=0x00000001
       88725000	      8871	800054b0	051f7863	bgeu	x30,x17,80005500	 x30:0x00000027 x17:0x00000000
       88735000	      8872	00000000	00000013	addi	x0,x0,0	  x0:0x00000000
       88745000	      8873	800054fc	00000013	addi	x0,x0,0	  x0:0x00000000
       88755000	      8874	80005500	019fa8b3	slt	x17,x31,x25	 x31:0x33764000 x25:0x80009ef8 x17=0x00000000
       88765000	      8875	80005504	00c85733	srl	x14,x16,x12	 x16:0x00000000 x12:0x00000001 x14=0x00000000
       88775000	      8876	80005508	034d1663	bne	x26,x20,80005534	 x26:0x00000763 x20:0x00000000
       88785000	      8877	00000000	00000013	addi	x0,x0,0	  x0:0x00000000
       88795000	      8878	80005530	00000013	addi	x0,x0,0	  x0:0x00000000
       88805000	      8879	80005534	00454ab3	xor	x21,x10,x4	 x10:0x000003b1  x4:0x67a29bb0 x21=0x67a29801
       88815000	      8880	80005538	013e16b3	sll	x13,x28,x19	 x28:0x00000001 x19:0xffffffb9 x13=0x02000000
       88825000	      8881	8000553c	00bb34b3	sltu	x9,x22,x11	 x22:0x00000001 x11:0x00000098  x9=0x00000001
       88835000	      8882	80005540	00972b33	slt	x22,x14,x9	 x14:0x00000000  x9:0x00000001 x22=0x00000001
       88845000	      8883	80005544	0012b633	sltu	x12,x5,x1	  x5:0xffff6d6b  x1:0xbc13bfff x12=0x00000000
       88855000	      8884	80005548	04df7663	bgeu	x30,x13,80005594	 x30:0x00000027 x13:0x02000000
       88865000	      8885	8000554c	e7b28e13	addi	x28,x5,-389	  x5:0xffff6d6b x28=0xffff6be6
       88875000	      8886	80005550	1019ec13	ori	x24,x19,257	 x19:0xffffffb9 x24=0xffffffb9
       88885000	      8887	80005554	01c10f33	add	x30,x2,x28	  x2:0xaa8dd69f x28:0xffff6be6 x30=0xaa8d4285
       88895000	      8888	80005558	01ee52b3	srl	x5,x28,x30	 x28:0xffff6be6 x30:0xaa8d4285  x5=0x07fffb5f
       88905000	      8889	8000555c	40d5dab3	sra	x21,x11,x13	 x11:0x00000098 x13:0x02000000 x21=0x00000098
       88915000	      8890	80005560	402ad6b3	sra	x13,x21,x2	 x21:0x00000098  x2:0xaa8dd69f x13=0x00000000
       88925000	      8891	80005564	01b29463	bne	x5,x27,8000556c	  x5:0x07fffb5f x27:0x67a294fb
       88935000	      8892	00000000	00000013	addi	x0,x0,0	  x0:0x00000000
       88945000	      8893	80005568	00000013	addi	x0,x0,0	  x0:0x00000000
       88955000	      8894	8000556c	40f85e13	srai	x28,x16,0xf	 x16:0x00000000 x28=0x00000000
       88965000	      8895	80005570	b9e4fe13	andi	x28,x9,-1122	  x9:0x00000001 x28=0x00000000
       88975000	      8896	80005574	a029ed93	ori	x27,x19,-1534	 x19:0xffffffb9 x27=0xffffffbb
       88985000	      8897	80005578	01c0d493	srli	x9,x1,0x1c	  x1:0xbc13bfff  x9=0x0000000b
       88995000	      8898	8000557c	0195b9b3	sltu	x19,x11,x25	 x11:0x00000098 x25:0x80009ef8 x19=0x00000001
       89005000	      8899	80005580	40c4d593	srai	x11,x9,0xc	  x9:0x0000000b x11=0x00000000
       89015000	      8900	80005584	004aad33	slt	x26,x21,x4	 x21:0x00000098  x4:0x67a29bb0 x26=0x00000001
       89025000	      8901	80005588	01130733	add	x14,x6,x17	  x6:0x00000000 x17:0x00000000 x14=0x00000000
       89035000	      8902	8000558c	0065a533	slt	x10,x11,x6	 x11:0x00000000  x6:0x00000000 x10=0x00000000
       89045000	      8903	80005590	90843f17	auipc	x30,0x90843	 x30=0x1084858c
       89055000	      8904	80005594	de9c3813	sltiu	x16,x24,-535	 x24:0xffffffb9 x16=0x00000000
       89065000	      8905	80005598	019793b3	sll	x7,x15,x25	 x15:0x80009fc4 x25:0x80009ef8  x7=0xc4000000
       89075000	      8906	8000559c	014f5bb3	srl	x23,x30,x20	 x30:0x1084858c x20:0x00000000 x23=0x1084858c
       89085000	      8907	800055a0	014b1fb3	sll	x31,x22,x20	 x22:0x00000001 x20:0x00000000 x31=0x00000001
       89095000	      8908	800055a4	00c8b3b3	sltu	x7,x17,x12	 x17:0x00000000 x12:0x00000000  x7=0x00000000
       89105000	      8909	800055a8	02828663	beq	x5,x8,800055d4	  x5:0x07fffb5f  x8:0xe0000000
       89115000	      8910	800055ac	01d2de63	bge	x5,x29,800055c8	  x5:0x07fffb5f x29:0x5fb00000
       89125000	      8911	800055b0	00f89213	slli	x4,x17,0xf	 x17:0x00000000  x4=0x00000000
       89135000	      8912	800055b4	254e00b7	lui	x1,0x254e0	  x1=0x254e0000
       89145000	      8913	800055b8	05937863	bgeu	x6,x25,80005608	  x6:0x00000000 x25:0x80009ef8
       89155000	      8914	800055bc	00edd013	srli	x0,x27,0xe	 x27:0xffffffbb
       89165000	      8915	800055c0	4d9c8893	addi	x17,x25,1241	 x25:0x80009ef8 x17=0x8000a3d1
       89175000	      8916	800055c4	00619f33	sll	x30,x3,x6	  x3:0x000004db  x6:0x00000000 x30=0x000004db
       89185000	      8917	800055c8	133f2a13	slti	x20,x30,307	 x30:0x000004db x20=0x00000000
       89195000	      8918	800055cc	190c6193	ori	x3,x24,400	 x24:0xffffffb9  x3=0xffffffb9
       89205000	      8919	800055d0	00e8f533	and	x10,x17,x14	 x17:0x8000a3d1 x14:0x00000000 x10=0x00000000
       89215000	      8920	800055d4	014dfc33	and	x24,x27,x20	 x27:0xffffffbb x20:0x00000000 x24=0x00000000
       89225000	      8921	800055d8	00aa70b3	and	x1,x20,x10	 x20:0x00000000 x10:0x00000000  x1=0x00000000
       89235000	      8922	800055dc	015ac1b3	xor	x3,x21,x21	 x21:0x00000098 x21:0x00000098  x3=0x00000000
       89245000	      8923	800055e0	05c4e663	bltu	x9,x28,8000562c	  x9:0x0000000b x28:0x00000000
       89255000	      8924	800055e4	001a6a33	or	x20,x20,x1	 x20:0x00000000  x1:0x00000000 x20=0x00000000
       89265000	      8925	800055e8	41708fb3	sub	x31,x1,x23	  x1:0x00000000 x23:0x1084858c x31=0xef7b7a74
       89275000	      8926	800055ec	8e5c8f97	auipc	x31,0x8e5c8	 x31=0x0e5cd5e8
       89285000	      8927	800055f0	01fd3b33	sltu	x22,x26,x31	 x26:0x00000001 x31:0x0e5cd5e8 x22=0x00000001
       89295000	      8928	800055f4	03067863	bgeu	x12,x16,80005624	 x12:0x00000000 x16:0x00000000
       89305000	      8929	00000000	00000013	addi	x0,x0,0	  x0:0x00000000
       89315000	      8930	80005620	00000013	addi	x0,x0,0	  x0:0x00000000
       89325000	      8931	80005624	049a7663	bgeu	x20,x9,80005670	 x20:0x00000000  x9:0x0000000b
       89335000	      8932	80005628	40705313	srai	x6,x0,0x7	  x0:0x00000000  x6=0x00000000
       89345000	      8933	8000562c	393deb93	ori	x23,x27,915	 x27:0xffffffbb x23=0xffffffbb
       89355000	      8934	80005630	7abca493	slti	x9,x25,1963	 x25:0x80009ef8  x9=0x00000001
       89365000	      8935	80005634	011d5533	srl	x10,x26,x17	 x26:0x00000001 x17:0x8000a3d1 x10=0x00000000
       89375000	      8936	80005638	58a67d93	andi	x27,x12,1418	 x12:0x00000000 x27=0x00000000
       89385000	      8937	8000563c	0209e663	bltu	x19,x0,80005668	 x19:0x00000001  x0:0x00000000
       89395000	      8938	80005640	00041463	bne	x8,x0,80005648	  x8:0xe0000000  x0:0x00000000
       89405000	      8939	00000000	00000013	addi	x0,x0,0	  x0:0x00000000
       89415000	      8940	80005644	00000013	addi	x0,x0,0	  x0:0x00000000
       89425000	      8941	80005648	01171a63	bne	x14,x17,8000565c	 x14:0x00000000 x17:0x8000a3d1
       89435000	      8942	00000000	00000013	addi	x0,x0,0	  x0:0x00000000
       89445000	      8943	80005658	00000013	addi	x0,x0,0	  x0:0x00000000
       89455000	      8944	8000565c	9cb0cd17	auipc	x26,0x9cb0c	 x26=0x1cb11658
       89465000	      8945	80005660	01a2d0b3	srl	x1,x5,x26	  x5:0x07fffb5f x26:0x1cb11658  x1=0x00000007
       89475000	      8946	80005664	40c9dd33	sra	x26,x19,x12	 x19:0x00000001 x12:0x00000000 x26=0x00000001
       89485000	      8947	80005668	8c4b2093	slti	x1,x22,-1852	 x22:0x00000001  x1=0x00000000
       89495000	      8948	8000566c	019326b3	slt	x13,x6,x25	  x6:0x00000000 x25:0x80009ef8 x13=0x00000000
       89505000	      8949	80005670	01105fb3	srl	x31,x0,x17	  x0:0x00000000 x17:0x8000a3d1 x31=0x00000000
       89515000	      8950	80005674	41e8df13	srai	x30,x17,0x1e	 x17:0x8000a3d1 x30=0xfffffffe
       89525000	      8951	80005678	01dc5b93	srli	x23,x24,0x1d	 x24:0x00000000 x23=0x00000000
       89535000	      8952	8000567c	02ff1c63	bne	x30,x15,800056b4	 x30:0xfffffffe x15:0x80009fc4
       89545000	      8953	00000000	00000013	addi	x0,x0,0	  x0:0x00000000
       89555000	      8954	800056b0	00000013	addi	x0,x0,0	  x0:0x00000000
       89565000	      8955	800056b4	415882b3	sub	x5,x17,x21	 x17:0x8000a3d1 x21:0x00000098  x5=0x8000a339
       89575000	      8956	800056b8	01bd5e63	bge	x26,x27,800056d4	 x26:0x00000001 x27:0x00000000
       89585000	      8957	00000000	00000013	addi	x0,x0,0	  x0:0x00000000
       89595000	      8958	800056d0	00000013	addi	x0,x0,0	  x0:0x00000000
       89605000	      8959	800056d4	00a84eb3	xor	x29,x16,x10	 x16:0x00000000 x10:0x00000000 x29=0x00000000
       89615000	      8960	800056d8	508dc593	xori	x11,x27,1288	 x27:0x00000000 x11=0x00000508
       89625000	      8961	800056dc	aa520493	addi	x9,x4,-1371	  x4:0x00000000  x9=0xfffffaa5
       89635000	      8962	800056e0	f9d3f093	andi	x1,x7,-99	  x7:0x00000000  x1=0x00000000
       89645000	      8963	800056e4	00000013	addi	x0,x0,0	  x0:0x00000000
       89655000	      8964	800056e8	04590063	beq	x18,x5,80005728	 x18:0x00000013  x5:0x8000a339
       89665000	      8965	800056ec	91186c13	ori	x24,x16,-1775	 x16:0x00000000 x24=0xfffff911
       89675000	      8966	800056f0	01f2ddb3	srl	x27,x5,x31	  x5:0x8000a339 x31:0x00000000 x27=0x8000a339
       89685000	      8967	800056f4	01bcf333	and	x6,x25,x27	 x25:0x80009ef8 x27:0x8000a339  x6=0x80008238
       89695000	      8968	800056f8	013f4463	blt	x30,x19,80005700	 x30:0xfffffffe x19:0x00000001
       89705000	      8969	00000000	00000013	addi	x0,x0,0	  x0:0x00000000
       89715000	      8970	800056fc	00000013	addi	x0,x0,0	  x0:0x00000000
       89725000	      8971	80005700	9da80897	auipc	x17,0x9da80	 x17=0x1da856fc
       89735000	      8972	80005704	015a8633	add	x12,x21,x21	 x21:0x00000098 x21:0x00000098 x12=0x00000130
       89745000	      8973	80005708	c3817217	auipc	x4,0xc3817	  x4=0x4381c704
       89755000	      8974	8000570c	01c6ea63	bltu	x13,x28,80005720	 x13:0x00000000 x28:0x00000000
       89765000	      8975	80005710	40b1d193	srai	x3,x3,0xb	  x3:0x00000000  x3=0x00000000
       89775000	      8976	80005714	04fbd663	bge	x23,x15,80005760	 x23:0x00000000 x15:0x80009fc4
       89785000	      8977	00000000	00000013	addi	x0,x0,0	  x0:0x00000000
       89795000	      8978	8000575c	00000013	addi	x0,x0,0	  x0:0x00000000
       89805000	      8979	80005760	00c68e33	add	x28,x13,x12	 x13:0x00000000 x12:0x00000130 x28=0x00000130
       89815000	      8980	80005764	00792c33	slt	x24,x18,x7	 x18:0x00000013  x7:0x00000000 x24=0x00000000
       89825000	      8981	80005768	028f4863	blt	x30,x8,80005798	 x30:0xfffffffe  x8:0xe0000000
       89835000	      8982	8000576c	003ec233	xor	x4,x29,x3	 x29:0x00000000  x3:0x00000000  x4=0x00000000
       89845000	      8983	80005770	0223c463	blt	x7,x2,80005798	  x7:0x00000000  x2:0xaa8dd69f
       89855000	      8984	80005774	66572e93	slti	x29,x14,1637	 x14:0x00000000 x29=0x00000001
       89865000	      8985	80005778	bf5c0837	lui	x16,0xbf5c0	 x16=0xbf5c0000
       89875000	      8986	8000577c	00b41933	sll	x18,x8,x11	  x8:0xe0000000 x11:0x00000508 x18=0x00000000
       89885000	      8987	80005780	012d9a63	bne	x27,x18,80005794	 x27:0x8000a339 x18:0x00000000
       89895000	      8988	00000000	00000013	addi	x0,x0,0	  x0:0x00000000
       89905000	      8989	80005790	00000013	addi	x0,x0,0	  x0:0x00000000
       89915000	      8990	80005794	00000013	addi	x0,x0,0	  x0:0x00000000
       89925000	      8991	80005798	cbbdb693	sltiu	x13,x27,-837	 x27:0x8000a339 x13=0x00000001
       89935000	      8992	8000579c	418c5b13	srai	x22,x24,0x18	 x24:0x00000000 x22=0x00000000
       89945000	      8993	800057a0	05f6c863	blt	x13,x31,800057f0	 x13:0x00000001 x31:0x00000000
       89955000	      8994	800057a4	01e5db93	srli	x23,x11,0x1e	 x11:0x00000508 x23=0x00000000
       89965000	      8995	800057a8	e288ac13	slti	x24,x17,-472	 x17:0x1da856fc x24=0x00000000
       89975000	      8996	800057ac	403adab3	sra	x21,x21,x3	 x21:0x00000098  x3:0x00000000 x21=0x00000098
       89985000	      8997	800057b0	00fd9713	slli	x14,x27,0xf	 x27:0x8000a339 x14=0x519c8000
       89995000	      8998	800057b4	85dd4e13	xori	x28,x26,-1955	 x26:0x00000001 x28=0xfffff85c
       90005000	      8999	800057b8	00d7f1b3	and	x3,x15,x13	 x15:0x80009fc4 x13:0x00000001  x3=0x00000000
       90015000	      9000	800057bc	00835a33	srl	x20,x6,x8	  x6:0x80008238  x8:0xe0000000 x20=0x80008238
       90025000	      9001	800057c0	00ca4eb3	xor	x29,x20,x12	 x20:0x80008238 x12:0x00000130 x29=0x80008308
       90035000	      9002	800057c4	90786993	ori	x19,x16,-1785	 x16:0xbf5c0000 x19=0xfffff907
       90045000	      9003	800057c8	01beb433	sltu	x8,x29,x27	 x29:0x80008308 x27:0x8000a339  x8=0x00000001
       90055000	      9004	800057cc	e0068d13	addi	x26,x13,-512	 x13:0x00000001 x26=0xfffffe01
       90065000	      9005	800057d0	c41f4a13	xori	x20,x30,-959	 x30:0xfffffffe x20=0x000003bf
       90075000	      9006	800057d4	00439093	slli	x1,x7,0x4	  x7:0x00000000  x1=0x00000000
       90085000	      9007	800057d8	0303f263	bgeu	x7,x16,800057fc	  x7:0x00000000 x16:0xbf5c0000
       90095000	      9008	800057dc	017fa0b3	slt	x1,x31,x23	 x31:0x00000000 x23:0x00000000  x1=0x00000000
       90105000	      9009	800057e0	00cc2f33	slt	x30,x24,x12	 x24:0x00000000 x12:0x00000130 x30=0x00000001
       90115000	      9010	800057e4	01439663	bne	x7,x20,800057f0	  x7:0x00000000 x20:0x000003bf
       90125000	      9011	00000000	00000013	addi	x0,x0,0	  x0:0x00000000
       90135000	      9012	800057ec	00000013	addi	x0,x0,0	  x0:0x00000000
       90145000	      9013	800057f0	d3a81717	auipc	x14,0xd3a81	 x14=0x53a867ec
       90155000	      9014	800057f4	04c07663	bgeu	x0,x12,80005840	  x0:0x00000000 x12:0x00000130
       90165000	      9015	800057f8	0151d433	srl	x8,x3,x21	  x3:0x00000000 x21:0x00000098  x8=0x00000000
       90175000	      9016	800057fc	12984b13	xori	x22,x16,297	 x16:0xbf5c0000 x22=0xbf5c0129
       90185000	      9017	80005800	00b89c63	bne	x17,x11,80005818	 x17:0x1da856fc x11:0x00000508
       90195000	      9018	00000000	00000013	addi	x0,x0,0	  x0:0x00000000
       90205000	      9019	80005814	00000013	addi	x0,x0,0	  x0:0x00000000
       90215000	      9020	80005818	01c72933	slt	x18,x14,x28	 x14:0x53a867ec x28:0xfffff85c x18=0x00000000
       90225000	      9021	8000581c	01b19c63	bne	x3,x27,80005834	  x3:0x00000000 x27:0x8000a339
       90235000	      9022	00000000	00000013	addi	x0,x0,0	  x0:0x00000000
       90245000	      9023	80005830	00000013	addi	x0,x0,0	  x0:0x00000000
       90255000	      9024	80005834	b623da17	auipc	x20,0xb623d	 x20=0x36242830
       90265000	      9025	80005838	fdd34e13	xori	x28,x6,-35	  x6:0x80008238 x28=0x7fff7de5
       90275000	      9026	8000583c	01c0b6b3	sltu	x13,x1,x28	  x1:0x00000000 x28:0x7fff7de5 x13=0x00000001
       90285000	      9027	80005840	007095b3	sll	x11,x1,x7	  x1:0x00000000  x7:0x00000000 x11=0x00000000
       90295000	      9028	80005844	02b37e63	bgeu	x6,x11,80005880	  x6:0x80008238 x11:0x00000000
       90305000	      9029	00000000	00000013	addi	x0,x0,0	  x0:0x00000000
       90315000	      9030	8000587c	00000013	addi	x0,x0,0	  x0:0x00000000
       90325000	      9031	80005880	0141f3b3	and	x7,x3,x20	  x3:0x00000000 x20:0x36242830  x7=0x00000000
       90335000	      9032	80005884	00c5a833	slt	x16,x11,x12	 x11:0x00000000 x12:0x00000130 x16=0x00000001
       90345000	      9033	80005888	01c49a63	bne	x9,x28,8000589c	  x9:0xfffffaa5 x28:0x7fff7de5
       90355000	      9034	00000000	00000013	addi	x0,x0,0	  x0:0x00000000
       90365000	      9035	80005898	00000013	addi	x0,x0,0	  x0:0x00000000
       90375000	      9036	8000589c	875d3e13	sltiu	x28,x26,-1931	 x26:0xfffffe01 x28=0x00000000
       90385000	      9037	800058a0	034c6c63	bltu	x24,x20,800058d8	 x24:0x00000000 x20:0x36242830
       90395000	      9038	00000000	00000013	addi	x0,x0,0	  x0:0x00000000
       90405000	      9039	800058d4	00000013	addi	x0,x0,0	  x0:0x00000000
       90415000	      9040	800058d8	55db1617	auipc	x12,0x55db1	 x12=0xd5db68d4
       90425000	      9041	800058dc	001a8d33	add	x26,x21,x1	 x21:0x00000098  x1:0x00000000 x26=0x00000098
       90435000	      9042	800058e0	01709e33	sll	x28,x1,x23	  x1:0x00000000 x23:0x00000000 x28=0x00000000
       90445000	      9043	800058e4	4056d6b3	sra	x13,x13,x5	 x13:0x00000001  x5:0x8000a339 x13=0x00000000
       90455000	      9044	800058e8	c5156b93	ori	x23,x10,-943	 x10:0x00000000 x23=0xfffffc51
       90465000	      9045	800058ec	0056c3b3	xor	x7,x13,x5	 x13:0x00000000  x5:0x8000a339  x7=0x8000a339
       90475000	      9046	800058f0	4b6fcf93	xori	x31,x31,1206	 x31:0x00000000 x31=0x000004b6
       90485000	      9047	800058f4	01bb6a33	or	x20,x22,x27	 x22:0xbf5c0129 x27:0x8000a339 x20=0xbf5ca339
       90495000	      9048	800058f8	00fe6433	or	x8,x28,x15	 x28:0x00000000 x15:0x80009fc4  x8=0x80009fc4
       90505000	      9049	800058fc	015b36b3	sltu	x13,x22,x21	 x22:0xbf5c0129 x21:0x00000098 x13=0x00000000
       90515000	      9050	80005900	5e260a93	addi	x21,x12,1506	 x12:0xd5db68d4 x21=0xd5db6eb6
       90525000	      9051	80005904	010b5433	srl	x8,x22,x16	 x22:0xbf5c0129 x16:0x00000001  x8=0x5fae0094
       90535000	      9052	80005908	02d2f463	bgeu	x5,x13,80005930	  x5:0x8000a339 x13:0x00000000
       90545000	      9053	00000000	00000013	addi	x0,x0,0	  x0:0x00000000
       90555000	      9054	8000592c	00000013	addi	x0,x0,0	  x0:0x00000000
       90565000	      9055	80005930	00000013	addi	x0,x0,0	  x0:0x00000000
       90575000	      9056	80005934	03724663	blt	x4,x23,80005960	  x4:0x00000000 x23:0xfffffc51
       90585000	      9057	80005938	061dfdb7	lui	x27,0x61df	 x27=0x061df000
       90595000	      9058	8000593c	00bf8933	add	x18,x31,x11	 x31:0x000004b6 x11:0x00000000 x18=0x000004b6
       90605000	      9059	80005940	00b74733	xor	x14,x14,x11	 x14:0x53a867ec x11:0x00000000 x14=0x53a867ec
       90615000	      9060	80005944	40ffda33	sra	x20,x31,x15	 x31:0x000004b6 x15:0x80009fc4 x20=0x0000004b
       90625000	      9061	80005948	d3fcb993	sltiu	x19,x25,-705	 x25:0x80009ef8 x19=0x00000001
       90635000	      9062	8000594c	414f05b3	sub	x11,x30,x20	 x30:0x00000001 x20:0x0000004b x11=0xffffffb6
       90645000	      9063	80005950	308d2637	lui	x12,0x308d2	 x12=0x308d2000
       90655000	      9064	80005954	41350833	sub	x16,x10,x19	 x10:0x00000000 x19:0x00000001 x16=0xffffffff
       90665000	      9065	80005958	04eb5863	bge	x22,x14,800059a8	 x22:0xbf5c0129 x14:0x53a867ec
       90675000	      9066	8000595c	05479463	bne	x15,x20,800059a4	 x15:0x80009fc4 x20:0x0000004b
       90685000	      9067	00000000	00000013	addi	x0,x0,0	  x0:0x00000000
       90695000	      9068	800059a0	00000013	addi	x0,x0,0	  x0:0x00000000
       90705000	      9069	800059a4	00440433	add	x8,x8,x4	  x8:0x5fae0094  x4:0x00000000  x8=0x5fae0094
       90715000	      9070	800059a8	00000013	addi	x0,x0,0	  x0:0x00000000
       90725000	      9071	800059ac	41825b13	srai	x22,x4,0x18	  x4:0x00000000 x22=0x00000000
       90735000	      9072	800059b0	41e2db93	srai	x23,x5,0x1e	  x5:0x8000a339 x23=0xfffffffe
       90745000	      9073	800059b4	0111bb33	sltu	x22,x3,x17	  x3:0x00000000 x17:0x1da856fc x22=0x00000001
       90755000	      9074	800059b8	316eb813	sltiu	x16,x29,790	 x29:0x80008308 x16=0x00000000
       90765000	      9075	800059bc	014c6233	or	x4,x24,x20	 x24:0x00000000 x20:0x0000004b  x4=0x0000004b
       90775000	      9076	800059c0	0026e633	or	x12,x13,x2	 x13:0x00000000  x2:0xaa8dd69f x12=0xaa8dd69f
       90785000	      9077	800059c4	058cc663	blt	x25,x24,80005a10	 x25:0x80009ef8 x24:0x00000000
       90795000	      9078	00000000	00000013	addi	x0,x0,0	  x0:0x00000000
       90805000	      9079	80005a0c	00000013	addi	x0,x0,0	  x0:0x00000000
       90815000	      9080	80005a10	52c96513	ori	x10,x18,1324	 x18:0x000004b6 x10=0x000005be
       90825000	      9081	80005a14	00916e33	or	x28,x2,x9	  x2:0xaa8dd69f  x9:0xfffffaa5 x28=0xfffffebf
       90835000	      9082	80005a18	03580663	beq	x16,x21,80005a44	 x16:0x00000000 x21:0xd5db6eb6
       90845000	      9083	80005a1c	7a548193	addi	x3,x9,1957	  x9:0xfffffaa5  x3=0x0000024a
       90855000	      9084	80005a20	01de60b3	or	x1,x28,x29	 x28:0xfffffebf x29:0x80008308  x1=0xffffffbf
       90865000	      9085	80005a24	0a6e0e13	addi	x28,x28,166	 x28:0xfffffebf x28=0xffffff65
       90875000	      9086	80005a28	97770813	addi	x16,x14,-1673	 x14:0x53a867ec x16=0x53a86163
       90885000	      9087	80005a2c	7b064f13	xori	x30,x12,1968	 x12:0xaa8dd69f x30=0xaa8dd12f
       90895000	      9088	80005a30	40975b33	sra	x22,x14,x9	 x14:0x53a867ec  x9:0xfffffaa5 x22=0x029d433f
       90905000	      9089	80005a34	401f58b3	sra	x17,x30,x1	 x30:0xaa8dd12f  x1:0xffffffbf x17=0xffffffff
       90915000	      9090	80005a38	40b05593	srai	x11,x0,0xb	  x0:0x00000000 x11=0x00000000
       90925000	      9091	80005a3c	4d440a97	auipc	x21,0x4d440	 x21=0xcd445a38
       90935000	      9092	80005a40	46877d93	andi	x27,x14,1128	 x14:0x53a867ec x27=0x00000468
       90945000	      9093	80005a44	01943433	sltu	x8,x8,x25	  x8:0x5fae0094 x25:0x80009ef8  x8=0x00000001
       90955000	      9094	80005a48	00bce3b3	or	x7,x25,x11	 x25:0x80009ef8 x11:0x00000000  x7=0x80009ef8
       90965000	      9095	80005a4c	014f8233	add	x4,x31,x20	 x31:0x000004b6 x20:0x0000004b  x4=0x00000501
       90975000	      9096	80005a50	00c8e463	bltu	x17,x12,80005a58	 x17:0xffffffff x12:0xaa8dd69f
       90985000	      9097	80005a54	277e8e37	lui	x28,0x277e8	 x28=0x277e8000
       90995000	      9098	80005a58	3ded2b13	slti	x22,x26,990	 x26:0x00000098 x22=0x00000001
       91005000	      9099	80005a5c	93b8c513	xori	x10,x17,-1733	 x17:0xffffffff x10=0x000006c4
       91015000	      9100	80005a60	f0d02937	lui	x18,0xf0d02	 x18=0xf0d02000
       91025000	      9101	80005a64	01fdc5b3	xor	x11,x27,x31	 x27:0x00000468 x31:0x000004b6 x11=0x000000de
       91035000	      9102	80005a68	29ee8fb7	lui	x31,0x29ee8	 x31=0x29ee8000
       91045000	      9103	80005a6c	00ebc0b3	xor	x1,x23,x14	 x23:0xfffffffe x14:0x53a867ec  x1=0xac579812
       91055000	      9104	80005a70	404a5d33	sra	x26,x20,x4	 x20:0x0000004b  x4:0x00000501 x26=0x00000025
       91065000	      9105	80005a74	00f81eb3	sll	x29,x16,x15	 x16:0x53a86163 x15:0x80009fc4 x29=0x3a861630
       91075000	      9106	80005a78	40ea8933	sub	x18,x21,x14	 x21:0xcd445a38 x14:0x53a867ec x18=0x799bf24c
       91085000	      9107	80005a7c	00a515b3	sll	x11,x10,x10	 x10:0x000006c4 x10:0x000006c4 x11=0x00006c40
       91095000	      9108	80005a80	40bb52b3	sra	x5,x22,x11	 x22:0x00000001 x11:0x00006c40  x5=0x00000001
       91105000	      9109	80005a84	0027c2b3	xor	x5,x15,x2	 x15:0x80009fc4  x2:0xaa8dd69f  x5=0x2a8d495b
       91115000	      9110	80005a88	839adb97	auipc	x23,0x839ad	 x23=0x039b2a84
       91125000	      9111	80005a8c	050bf663	bgeu	x23,x16,80005ad8	 x23:0x039b2a84 x16:0x53a86163
       91135000	      9112	80005a90	b2a47817	auipc	x16,0xb2a47	 x16=0x32a4ca8c
       91145000	      9113	80005a94	9306a597	auipc	x11,0x9306a	 x11=0x1306fa90
       91155000	      9114	80005a98	00b25c63	bge	x4,x11,80005ab0	  x4:0x00000501 x11:0x1306fa90
       91165000	      9115	80005a9c	ce5255b7	lui	x11,0xce525	 x11=0xce525000
       91175000	      9116	80005aa0	0372c663	blt	x5,x23,80005acc	  x5:0x2a8d495b x23:0x039b2a84
       91185000	      9117	80005aa4	ba773e93	sltiu	x29,x14,-1113	 x14:0x53a867ec x29=0x00000001
       91195000	      9118	80005aa8	0120cc33	xor	x24,x1,x18	  x1:0xac579812 x18:0x799bf24c x24=0xd5cc6a5e
       91205000	      9119	80005aac	510dbc13	sltiu	x24,x27,1296	 x27:0x00000468 x24=0x00000001
       91215000	      9120	80005ab0	0d9ff0b7	lui	x1,0xd9ff	  x1=0x0d9ff000
       91225000	      9121	80005ab4	402152b3	sra	x5,x2,x2	  x2:0xaa8dd69f  x2:0xaa8dd69f  x5=0xffffffff
       91235000	      9122	80005ab8	012bf863	bgeu	x23,x18,80005ac8	 x23:0x039b2a84 x18:0x799bf24c
       91245000	      9123	80005abc	41f2d833	sra	x16,x5,x31	  x5:0xffffffff x31:0x29ee8000 x16=0xffffffff
       91255000	      9124	80005ac0	00000013	addi	x0,x0,0	  x0:0x00000000
       91265000	      9125	80005ac4	002b96b3	sll	x13,x23,x2	 x23:0x039b2a84  x2:0xaa8dd69f x13=0x00000000
       91275000	      9126	80005ac8	b115d397	auipc	x7,0xb115d	  x7=0x31162ac4
       91285000	      9127	80005acc	6c5cba13	sltiu	x20,x25,1733	 x25:0x80009ef8 x20=0x00000000
       91295000	      9128	80005ad0	07d54593	xori	x11,x10,125	 x10:0x000006c4 x11=0x000006b9
       91305000	      9129	80005ad4	46c3a093	slti	x1,x7,1132	  x7:0x31162ac4  x1=0x00000000
       91315000	      9130	80005ad8	41e85713	srai	x14,x16,0x1e	 x16:0xffffffff x14=0xffffffff
       91325000	      9131	80005adc	401c52b3	sra	x5,x24,x1	 x24:0x00000001  x1:0x00000000  x5=0x00000001
       91335000	      9132	80005ae0	02ae7863	bgeu	x28,x10,80005b10	 x28:0x277e8000 x10:0x000006c4
       91345000	      9133	00000000	00000013	addi	x0,x0,0	  x0:0x00000000
       91355000	      9134	80005b0c	00000013	addi	x0,x0,0	  x0:0x00000000
       91365000	      9135	80005b10	014aea63	bltu	x21,x20,80005b24	 x21:0xcd445a38 x20:0x00000000
       91375000	      9136	80005b14	00587b33	and	x22,x16,x5	 x16:0xffffffff  x5:0x00000001 x22=0x00000001
       91385000	      9137	80005b18	00875863	bge	x14,x8,80005b28	 x14:0xffffffff  x8:0x00000001
       91395000	      9138	80005b1c	00a9e1b3	or	x3,x19,x10	 x19:0x00000001 x10:0x000006c4  x3=0x000006c5
       91405000	      9139	80005b20	0eaab093	sltiu	x1,x21,234	 x21:0xcd445a38  x1=0x00000000
       91415000	      9140	80005b24	f0017f13	andi	x30,x2,-256	  x2:0xaa8dd69f x30=0xaa8dd600
       91425000	      9141	80005b28	403ed6b3	sra	x13,x29,x3	 x29:0x00000001  x3:0x000006c5 x13=0x00000000
       91435000	      9142	80005b2c	004caf83	lw	x31,4(x25)	 x25:0x80009ef8 x31=0x800066c8 PA:0x80009efc
       91445000	      9143	80005b30	d2eee293	ori	x5,x29,-722	 x29:0x00000001  x5=0xfffffd2f
       91455000	      9144	80005b34	003d9193	slli	x3,x27,0x3	 x27:0x00000468  x3=0x00002340
       91465000	      9145	80005b38	006bca33	xor	x20,x23,x6	 x23:0x039b2a84  x6:0x80008238 x20=0x839ba8bc
       91475000	      9146	80005b3c	a79e1a37	lui	x20,0xa79e1	 x20=0xa79e1000
       91485000	      9147	80005b40	024c8c93	addi	x25,x25,36	 x25:0x80009ef8 x25=0x80009f1c
       91495000	      9148	80005b44	009b1c33	sll	x24,x22,x9	 x22:0x00000001  x9:0xfffffaa5 x24=0x00000020
       91505000	      9149	80005b48	00000013	addi	x0,x0,0	  x0:0x00000000
       91515000	      9150	80005b4c	0045deb3	srl	x29,x11,x4	 x11:0x000006b9  x4:0x00000501 x29=0x0000035c
       91525000	      9151	80005b50	000f8393	addi	x7,x31,0	 x31:0x800066c8  x7=0x800066c8
       91535000	      9152	80005b54	000383e7	jalr	x7,x7,0	  x7:0x800066c8  x7=0x80005b54
       91545000	      9153	00000000	00000013	addi	x0,x0,0	  x0:0x00000000
       91555000	      9154	800066c8	00000013	addi	x0,x0,0	  x0:0x00000000
       91565000	      9155	800066cc	00e35c63	bge	x6,x14,800066e4	  x6:0x80008238 x14:0xffffffff
       91575000	      9156	800066d0	001ade17	auipc	x28,0x1ad	 x28=0x801b36cc
       91585000	      9157	800066d4	d70a7393	andi	x7,x20,-656	 x20:0xa79e1000  x7=0xa79e1000
       91595000	      9158	800066d8	41e55033	sra	x0,x10,x30	 x10:0x000006c4 x30:0xaa8dd600
       91605000	      9159	800066dc	017ba5b3	slt	x11,x23,x23	 x23:0x039b2a84 x23:0x039b2a84 x11=0x00000000
       91615000	      9160	800066e0	9a166997	auipc	x19,0x9a166	 x19=0x1a16c6dc
       91625000	      9161	800066e4	07000fef	jal	x31,800066e4	 x31=0x800066e4
       91635000	      9162	00000000	00000013	addi	x0,x0,0	  x0:0x00000000
       91645000	      9163	80006750	00000013	addi	x0,x0,0	  x0:0x00000000
       91655000	      9164	80006754	4104da33	sra	x20,x9,x16	  x9:0xfffffaa5 x16:0xffffffff x20=0xffffffff
       91665000	      9165	80006758	40ae85b3	sub	x11,x29,x10	 x29:0x0000035c x10:0x000006c4 x11=0xfffffc98
       91675000	      9166	8000675c	bf41f213	andi	x4,x3,-1036	  x3:0x00002340  x4=0x00002340
       91685000	      9167	80006760	0039d5b3	srl	x11,x19,x3	 x19:0x1a16c6dc  x3:0x00002340 x11=0x1a16c6dc
       91695000	      9168	80006764	01e46833	or	x16,x8,x30	  x8:0x00000001 x30:0xaa8dd600 x16=0xaa8dd601
       91705000	      9169	80006768	01380b33	add	x22,x16,x19	 x16:0xaa8dd601 x19:0x1a16c6dc x22=0xc4a49cdd
       91715000	      9170	8000676c	00474d33	xor	x26,x14,x4	 x14:0xffffffff  x4:0x00002340 x26=0xffffdcbf
       91725000	      9171	80006770	00ae0933	add	x18,x28,x10	 x28:0x801b36cc x10:0x000006c4 x18=0x801b3d90
       91735000	      9172	80006774	00e7adb3	slt	x27,x15,x14	 x15:0x80009fc4 x14:0xffffffff x27=0x00000001
       91745000	      9173	80006778	fe0c8c93	addi	x25,x25,-32	 x25:0x80009f1c x25=0x80009efc
       91755000	      9174	8000677c	01fca223	sw	x31,4(x25)	 x25:0x80009efc x31:0x800066e4 PA:0x80009f00
       91765000	      9175	80006780	b1f4ee13	ori	x28,x9,-1249	  x9:0xfffffaa5 x28=0xfffffbbf
       91775000	      9176	80006784	0572c663	blt	x5,x23,800067d0	  x5:0xfffffd2f x23:0x039b2a84
       91785000	      9177	00000000	00000013	addi	x0,x0,0	  x0:0x00000000
       91795000	      9178	800067cc	00000013	addi	x0,x0,0	  x0:0x00000000
       91805000	      9179	800067d0	400058b3	sra	x17,x0,x0	  x0:0x00000000  x0:0x00000000 x17=0x00000000
       91815000	      9180	800067d4	0024ad33	slt	x26,x9,x2	  x9:0xfffffaa5  x2:0xaa8dd69f x26=0x00000000
       91825000	      9181	800067d8	00000013	addi	x0,x0,0	  x0:0x00000000
       91835000	      9182	800067dc	00880533	add	x10,x16,x8	 x16:0xaa8dd601  x8:0x00000001 x10=0xaa8dd602
       91845000	      9183	800067e0	00693233	sltu	x4,x18,x6	 x18:0x801b3d90  x6:0x80008238  x4=0x00000000
       91855000	      9184	800067e4	00cdcd33	xor	x26,x27,x12	 x27:0x00000001 x12:0xaa8dd69f x26=0xaa8dd69e
       91865000	      9185	800067e8	96166a93	ori	x21,x12,-1695	 x12:0xaa8dd69f x21=0xffffffff
       91875000	      9186	800067ec	01683433	sltu	x8,x16,x22	 x16:0xaa8dd601 x22:0xc4a49cdd  x8=0x00000001
       91885000	      9187	800067f0	dc862313	slti	x6,x12,-568	 x12:0xaa8dd69f  x6=0x00000001
       91895000	      9188	800067f4	00480f33	add	x30,x16,x4	 x16:0xaa8dd601  x4:0x00000000 x30=0xaa8dd601
       91905000	      9189	800067f8	41a90533	sub	x10,x18,x26	 x18:0x801b3d90 x26:0xaa8dd69e x10=0xd58d66f2
       91915000	      9190	800067fc	0826cb13	xori	x22,x13,130	 x13:0x00000000 x22=0x00000082
       91925000	      9191	80006800	017f3d33	sltu	x26,x30,x23	 x30:0xaa8dd601 x23:0x039b2a84 x26=0x00000000
       91935000	      9192	80006804	94f0cf93	xori	x31,x1,-1713	  x1:0x00000000 x31=0xfffff94f
       91945000	      9193	80006808	675d7493	andi	x9,x26,1653	 x26:0x00000000  x9=0x00000000
       91955000	      9194	8000680c	01728c33	add	x24,x5,x23	  x5:0xfffffd2f x23:0x039b2a84 x24=0x039b27b3
       91965000	      9195	80006810	4e8b4093	xori	x1,x22,1256	 x22:0x00000082  x1=0x0000046a
       91975000	      9196	80006814	008d1bb3	sll	x23,x26,x8	 x26:0x00000000  x8:0x00000001 x23=0x00000000
       91985000	      9197	80006818	27e38293	addi	x5,x7,638	  x7:0xa79e1000  x5=0xa79e127e
       91995000	      9198	8000681c	0216ce63	blt	x13,x1,80006858	 x13:0x00000000  x1:0x0000046a
       92005000	      9199	00000000	00000013	addi	x0,x0,0	  x0:0x00000000
       92015000	      9200	80006854	00000013	addi	x0,x0,0	  x0:0x00000000
       92025000	      9201	80006858	01bbf533	and	x10,x23,x27	 x23:0x00000000 x27:0x00000001 x10=0x00000000
       92035000	      9202	8000685c	068b6f93	ori	x31,x22,104	 x22:0x00000082 x31=0x000000ea
       92045000	      9203	80006860	04c50663	beq	x10,x12,800068ac	 x10:0x00000000 x12:0xaa8dd69f
       92055000	      9204	80006864	41975c13	srai	x24,x14,0x19	 x14:0xffffffff x24=0xffffffff
       92065000	      9205	80006868	00f788b3	add	x17,x15,x15	 x15:0x80009fc4 x15:0x80009fc4 x17=0x00013f88
       92075000	      9206	8000686c	e96e2a13	slti	x20,x28,-362	 x28:0xfffffbbf x20=0x00000001
       92085000	      9207	80006870	d2a12d93	slti	x27,x2,-726	  x2:0xaa8dd69f x27=0x00000001
       92095000	      9208	80006874	00899863	bne	x19,x8,80006884	 x19:0x1a16c6dc  x8:0x00000001
       92105000	      9209	00000000	00000013	addi	x0,x0,0	  x0:0x00000000
       92115000	      9210	80006880	00000013	addi	x0,x0,0	  x0:0x00000000
       92125000	      9211	80006884	40b15033	sra	x0,x2,x11	  x2:0xaa8dd69f x11:0x1a16c6dc
       92135000	      9212	80006888	62ab7813	andi	x16,x22,1578	 x22:0x00000082 x16=0x00000002
       92145000	      9213	8000688c	01cf0463	beq	x30,x28,80006894	 x30:0xaa8dd601 x28:0xfffffbbf
       92155000	      9214	80006890	045cd063	bge	x25,x5,800068d0	 x25:0x80009efc  x5:0xa79e127e
       92165000	      9215	80006894	2af77e37	lui	x28,0x2af77	 x28=0x2af77000
       92175000	      9216	80006898	e705e097	auipc	x1,0xe705e	  x1=0x67064894
       92185000	      9217	8000689c	47843613	sltiu	x12,x8,1144	  x8:0x00000001 x12=0x00000001
       92195000	      9218	800068a0	6c2ae613	ori	x12,x21,1730	 x21:0xffffffff x12=0xffffffff
       92205000	      9219	800068a4	e8e9cf93	xori	x31,x19,-370	 x19:0x1a16c6dc x31=0xe5e93852
       92215000	      9220	800068a8	01731c63	bne	x6,x23,800068c0	  x6:0x00000001 x23:0x00000000
       92225000	      9221	00000000	00000013	addi	x0,x0,0	  x0:0x00000000
       92235000	      9222	800068bc	00000013	addi	x0,x0,0	  x0:0x00000000
       92245000	      9223	800068c0	00d71513	slli	x10,x14,0xd	 x14:0xffffffff x10=0xffffe000
       92255000	      9224	800068c4	a160e293	ori	x5,x1,-1514	  x1:0x67064894  x5=0xfffffa96
       92265000	      9225	800068c8	01511213	slli	x4,x2,0x15	  x2:0xaa8dd69f  x4=0xd3e00000
       92275000	      9226	800068cc	00ac39b3	sltu	x19,x24,x10	 x24:0xffffffff x10:0xffffe000 x19=0x00000000
       92285000	      9227	800068d0	640b3513	sltiu	x10,x22,1600	 x22:0x00000082 x10=0x00000001
       92295000	      9228	800068d4	4053d033	sra	x0,x7,x5	  x7:0xa79e1000  x5:0xfffffa96
       92305000	      9229	800068d8	004caf83	lw	x31,4(x25)	 x25:0x80009efc x31=0x800066e4 PA:0x80009f00
       92315000	      9230	800068dc	003138b3	sltu	x17,x2,x3	  x2:0xaa8dd69f  x3:0x00002340 x17=0x00000000
       92325000	      9231	800068e0	00f8dc13	srli	x24,x17,0xf	 x17:0x00000000 x24=0x00000000
       92335000	      9232	800068e4	020c8c93	addi	x25,x25,32	 x25:0x80009efc x25=0x80009f1c
       92345000	      9233	800068e8	01f95093	srli	x1,x18,0x1f	 x18:0x801b3d90  x1=0x00000001
       92355000	      9234	800068ec	001f8813	addi	x16,x31,1	 x31:0x800066e4 x16=0x800066e5
       92365000	      9235	800068f0	00080867	jalr	x16,x16,0	 x16:0x800066e5 x16=0x800068f0
       92375000	      9236	00000000	00000013	addi	x0,x0,0	  x0:0x00000000
       92385000	      9237	800066e4	00000013	addi	x0,x0,0	  x0:0x00000000
       92395000	      9238	800066e8	02b01863	bne	x0,x11,80006718	  x0:0x00000000 x11:0x1a16c6dc
       92405000	      9239	00000000	00000013	addi	x0,x0,0	  x0:0x00000000
       92415000	      9240	80006714	00000013	addi	x0,x0,0	  x0:0x00000000
       92425000	      9241	80006718	dd725097	auipc	x1,0xdd725	  x1=0x5d72b714
       92435000	      9242	8000671c	010e9663	bne	x29,x16,80006728	 x29:0x0000035c x16:0x800068f0
       92445000	      9243	00000000	00000013	addi	x0,x0,0	  x0:0x00000000
       92455000	      9244	80006724	00000013	addi	x0,x0,0	  x0:0x00000000
       92465000	      9245	80006728	c2477237	lui	x4,0xc2477	  x4=0xc2477000
       92475000	      9246	8000672c	004caf83	lw	x31,4(x25)	 x25:0x80009f1c x31=0x80005b9c PA:0x80009f20
       92485000	      9247	80006730	028c8c93	addi	x25,x25,40	 x25:0x80009f1c x25=0x80009f44
       92495000	      9248	80006734	00f01093	slli	x1,x0,0xf	  x0:0x00000000  x1=0x00000000
       92505000	      9249	80006738	015fa9b3	slt	x19,x31,x21	 x31:0x80005b9c x21:0xffffffff x19=0x00000001
       92515000	      9250	8000673c	828e0913	addi	x18,x28,-2008	 x28:0x2af77000 x18=0x2af76828
       92525000	      9251	80006740	007755b3	srl	x11,x14,x7	 x14:0xffffffff  x7:0xa79e1000 x11=0xffffffff
       92535000	      9252	80006744	0160f1b3	and	x3,x1,x22	  x1:0x00000000 x22:0x00000082  x3=0x00000000
       92545000	      9253	80006748	90e9ac13	slti	x24,x19,-1778	 x19:0x00000001 x24=0x00000000
       92555000	      9254	8000674c	000f8d13	addi	x26,x31,0	 x31:0x80005b9c x26=0x80005b9c
       92565000	      9255	80006750	000d0d67	jalr	x26,x26,0	 x26:0x80005b9c x26=0x80006750
       92575000	      9256	00000000	00000013	addi	x0,x0,0	  x0:0x00000000
       92585000	      9257	80005b9c	00000013	addi	x0,x0,0	  x0:0x00000000
       92595000	      9258	80005ba0	00003197	auipc	x3,0x3	  x3=0x80008b9c
       92605000	      9259	80005ba4	39718193	addi	x3,x3,919	  x3:0x80008b9c  x3=0x80008f33
       92615000	      9260	80005ba8	f62187a3	sb	x2,-145(x3)	  x3:0x80008f33  x2:0xaa8dd69f PA:0x80008ea2
       92625000	      9261	80005bac	f6c1ce83	lbu	x29,-148(x3)	  x3:0x80008f33 x29=0x000000fd PA:0x80008e9f
       92635000	      9262	80005bb0	35cf6e93	ori	x29,x30,860	 x30:0xaa8dd601 x29=0xaa8dd75d
       92645000	      9263	80005bb4	f5b19ca3	sh	x27,-167(x3)	  x3:0x80008f33 x27:0x00000001 PA:0x80008e8c
       92655000	      9264	80005bb8	0ea74513	xori	x10,x14,234	 x14:0xffffffff x10=0xffffff15
       92665000	      9265	80005bbc	f391ca03	lbu	x20,-199(x3)	  x3:0x80008f33 x20=0x000000fd PA:0x80008e6c
       92675000	      9266	80005bc0	f4918f03	lb	x30,-183(x3)	  x3:0x80008f33 x30=0xfffffff4 PA:0x80008e7c
       92685000	      9267	80005bc4	00b0cc33	xor	x24,x1,x11	  x1:0x00000000 x11:0xffffffff x24=0xffffffff
       92695000	      9268	80005bc8	f831dc03	lhu	x24,-125(x3)	  x3:0x80008f33 x24=0x0000dcab PA:0x80008eb6
       92705000	      9269	80005bcc	f1918623	sb	x25,-244(x3)	  x3:0x80008f33 x25:0x80009f44 PA:0x80008e3f
       92715000	      9270	80005bd0	00000013	addi	x0,x0,0	  x0:0x00000000
       92725000	      9271	80005bd4	f9402d93	slti	x27,x0,-108	  x0:0x00000000 x27=0x00000000
       92735000	      9272	80005bd8	33a44a93	xori	x21,x8,826	  x8:0x00000001 x21=0x0000033b
       92745000	      9273	80005bdc	f5c18a83	lb	x21,-164(x3)	  x3:0x80008f33 x21=0x00000062 PA:0x80008e8f
       92755000	      9274	80005be0	fe61c203	lbu	x4,-26(x3)	  x3:0x80008f33  x4=0x0000008c PA:0x80008f19
       92765000	      9275	80005be4	08a18523	sb	x10,138(x3)	  x3:0x80008f33 x10:0xffffff15 PA:0x80008fbd
       92775000	      9276	80005be8	93968693	addi	x13,x13,-1735	 x13:0x00000000 x13=0xfffff939
       92785000	      9277	80005bec	f3f1cf83	lbu	x31,-193(x3)	  x3:0x80008f33 x31=0x0000006b PA:0x80008e72
       92795000	      9278	80005bf0	fb918a03	lb	x20,-71(x3)	  x3:0x80008f33 x20=0xffffffeb PA:0x80008eec
       92805000	      9279	80005bf4	2bd36293	ori	x5,x6,701	  x6:0x00000001  x5=0x000002bd
       92815000	      9280	80005bf8	f6f19fa3	sh	x15,-129(x3)	  x3:0x80008f33 x15:0x80009fc4 PA:0x80008eb2
       92825000	      9281	80005bfc	f3e18d83	lb	x27,-194(x3)	  x3:0x80008f33 x27=0xfffffffd PA:0x80008e71
       92835000	      9282	00000000	00000013	addi	x0,x0,0	  x0:0x00000000
       92845000	      9283	80005c00	03b1da03	lhu	x20,59(x3)	  x3:0x80008f33 x20=0x00004e90 PA:0x80008f6e
       92855000	      9284	80005c04	00d1f4b3	and	x9,x3,x13	  x3:0x80008f33 x13:0xfffff939  x9=0x80008931
       92865000	      9285	80005c08	06e18f03	lb	x30,110(x3)	  x3:0x80008f33 x30=0x0000001d PA:0x80008fa1
       92875000	      9286	80005c0c	a723e893	ori	x17,x7,-1422	  x7:0xa79e1000 x17=0xfffffa72
       92885000	      9287	80005c10	aa4bab13	slti	x22,x23,-1372	 x23:0x00000000 x22=0x00000000
       92895000	      9288	80005c14	f7219ca3	sh	x18,-135(x3)	  x3:0x80008f33 x18:0x2af76828 PA:0x80008eac
       92905000	      9289	80005c18	03818303	lb	x6,56(x3)	  x3:0x80008f33  x6=0x00000044 PA:0x80008f6b
       92915000	      9290	80005c1c	1b887613	andi	x12,x16,440	 x16:0x800068f0 x12=0x000000b0
       92925000	      9291	80005c20	f0619ca3	sh	x6,-231(x3)	  x3:0x80008f33  x6:0x00000044 PA:0x80008e4c
       92935000	      9292	80005c24	03418b23	sb	x20,54(x3)	  x3:0x80008f33 x20:0x00004e90 PA:0x80008f69
       92945000	      9293	80005c28	01eff0b3	and	x1,x31,x30	 x31:0x0000006b x30:0x0000001d  x1=0x00000009
       92955000	      9294	80005c2c	fe618383	lb	x7,-26(x3)	  x3:0x80008f33  x7=0xffffff8c PA:0x80008f19
       92965000	      9295	80005c30	d8ba8e13	addi	x28,x21,-629	 x21:0x00000062 x28=0xfffffded
       92975000	      9296	80005c34	0111a833	slt	x16,x3,x17	  x3:0x80008f33 x17:0xfffffa72 x16=0x00000001
       92985000	      9297	80005c38	0104d633	srl	x12,x9,x16	  x9:0x80008931 x16:0x00000001 x12=0x40004498
       92995000	      9298	80005c3c	075af413	andi	x8,x21,117	 x21:0x00000062  x8=0x00000060
       93005000	      9299	80005c40	f1418303	lb	x6,-236(x3)	  x3:0x80008f33  x6=0x00000037 PA:0x80008e47
       93015000	      9300	80005c44	4197d313	srai	x6,x15,0x19	 x15:0x80009fc4  x6=0xffffffc0
       93025000	      9301	80005c48	ff4198a3	sh	x20,-15(x3)	  x3:0x80008f33 x20:0x00004e90 PA:0x80008f24
       93035000	      9302	80005c4c	f441c703	lbu	x14,-188(x3)	  x3:0x80008f33 x14=0x0000006f PA:0x80008e77
       93045000	      9303	80005c50	01312733	slt	x14,x2,x19	  x2:0xaa8dd69f x19:0x00000001 x14=0x00000001
       93055000	      9304	80005c54	83400693	addi	x13,x0,-1996	  x0:0x00000000 x13=0xfffff834
       93065000	      9305	80005c58	f0c18283	lb	x5,-244(x3)	  x3:0x80008f33  x5=0x00000044 PA:0x80008e3f
       93075000	      9306	80005c5c	0a018083	lb	x1,160(x3)	  x3:0x80008f33  x1=0xffffff8c PA:0x80008fd3
       93085000	      9307	80005c60	07919083	lh	x1,121(x3)	  x3:0x80008f33  x1=0x00007e40 PA:0x80008fac
       93095000	      9308	80005c64	0a319583	lh	x11,163(x3)	  x3:0x80008f33 x11=0xffffdc5b PA:0x80008fd6
       93105000	      9309	80005c68	0a718023	sb	x7,160(x3)	  x3:0x80008f33  x7:0xffffff8c PA:0x80008fd3
       93115000	      9310	80005c6c	00003f17	auipc	x30,0x3	 x30=0x80008c68
       93125000	      9311	80005c70	944f0f13	addi	x30,x30,-1724	 x30:0x80008c68 x30=0x800085ac
       93135000	      9312	80005c74	0082beb3	sltu	x29,x5,x8	  x5:0x00000044  x8:0x00000060 x29=0x00000001
       93145000	      9313	80005c78	01af0203	lb	x4,26(x30)	 x30:0x800085ac  x4=0x00000019 PA:0x800085c6
       93155000	      9314	80005c7c	014d3433	sltu	x8,x26,x20	 x26:0x80006750 x20:0x00004e90  x8=0x00000000
       93165000	      9315	80005c80	00c4f2b3	and	x5,x9,x12	  x9:0x80008931 x12:0x40004498  x5=0x00000010
       93175000	      9316	80005c84	fcef0303	lb	x6,-50(x30)	 x30:0x800085ac  x6=0x0000000e PA:0x8000857a
       93185000	      9317	80005c88	00d5d833	srl	x16,x11,x13	 x11:0xffffdc5b x13:0xfffff834 x16=0x00000fff
       93195000	      9318	80005c8c	001c7ab3	and	x21,x24,x1	 x24:0x0000dcab  x1:0x00007e40 x21=0x00005c00
       93205000	      9319	80005c90	01a4d1b3	srl	x3,x9,x26	  x9:0x80008931 x26:0x80006750  x3=0x00008000
       93215000	      9320	80005c94	038f4483	lbu	x9,56(x30)	 x30:0x800085ac  x9=0x00000005 PA:0x800085e4
       93225000	      9321	80005c98	01d6d713	srli	x14,x13,0x1d	 x13:0xfffff834 x14=0x00000007
       93235000	      9322	80005c9c	40530933	sub	x18,x6,x5	  x6:0x0000000e  x5:0x00000010 x18=0xfffffffe
       93245000	      9323	80005ca0	00dac8b3	xor	x17,x21,x13	 x21:0x00005c00 x13:0xfffff834 x17=0xffffa434
       93255000	      9324	80005ca4	dc13a693	slti	x13,x7,-575	  x7:0xffffff8c x13=0x00000000
       93265000	      9325	80005ca8	019e32b3	sltu	x5,x28,x25	 x28:0xfffffded x25:0x80009f44  x5=0x00000000
       93275000	      9326	80005cac	00b365b3	or	x11,x6,x11	  x6:0x0000000e x11:0xffffdc5b x11=0xffffdc5f
       93285000	      9327	80005cb0	41f6d733	sra	x14,x13,x31	 x13:0x00000000 x31:0x0000006b x14=0x00000000
       93295000	      9328	80005cb4	40360ab3	sub	x21,x12,x3	 x12:0x40004498  x3:0x00008000 x21=0x3fffc498
       93305000	      9329	80005cb8	1d1918b7	lui	x17,0x1d191	 x17=0x1d191000
       93315000	      9330	80005cbc	00af0a03	lb	x20,10(x30)	 x30:0x800085ac x20=0xffffffd7 PA:0x800085b6
       93325000	      9331	80005cc0	000f2083	lw	x1,0(x30)	 x30:0x800085ac  x1=0xc3887708 PA:0x800085ac
       93335000	      9332	80005cc4	016f4e83	lbu	x29,22(x30)	 x30:0x800085ac x29=0x000000ac PA:0x800085c2
       93345000	      9333	80005cc8	fe8f1d83	lh	x27,-24(x30)	 x30:0x800085ac x27=0xffffbdaa PA:0x80008594
       93355000	      9334	80005ccc	000d5233	srl	x4,x26,x0	 x26:0x80006750  x0:0x00000000  x4=0x80006750
       93365000	      9335	80005cd0	fc0f4e03	lbu	x28,-64(x30)	 x30:0x800085ac x28=0x00000001 PA:0x8000856c
       93375000	      9336	80005cd4	00b69ab3	sll	x21,x13,x11	 x13:0x00000000 x11:0xffffdc5f x21=0x00000000
       93385000	      9337	80005cd8	02af4c03	lbu	x24,42(x30)	 x30:0x800085ac x24=0x00000022 PA:0x800085d6
       93395000	      9338	80005cdc	016f4b83	lbu	x23,22(x30)	 x30:0x800085ac x23=0x000000ac PA:0x800085c2
       93405000	      9339	80005ce0	401cdbb3	sra	x23,x25,x1	 x25:0x80009f44  x1:0xc3887708 x23=0xff80009f
       93415000	      9340	80005ce4	fdcf4083	lbu	x1,-36(x30)	 x30:0x800085ac  x1=0x00000028 PA:0x80008588
       93425000	      9341	80005ce8	0162fab3	and	x21,x5,x22	  x5:0x00000000 x22:0x00000000 x21=0x00000000
       93435000	      9342	80005cec	f0a8a493	slti	x9,x17,-246	 x17:0x1d191000  x9=0x00000000
       93445000	      9343	80005cf0	01acfeb3	and	x29,x25,x26	 x25:0x80009f44 x26:0x80006750 x29=0x80000740
       93455000	      9344	80005cf4	3073bb13	sltiu	x22,x7,775	  x7:0xffffff8c x22=0x00000000
       93465000	      9345	80005cf8	00666933	or	x18,x12,x6	 x12:0x40004498  x6:0x0000000e x18=0x4000449e
       93475000	      9346	80005cfc	e591f513	andi	x10,x3,-423	  x3:0x00008000 x10=0x00008000
       93485000	      9347	80005d00	ffdf0e23	sb	x29,-4(x30)	 x30:0x800085ac x29:0x80000740 PA:0x800085a8
       93495000	      9348	80005d04	fe7f0c23	sb	x7,-8(x30)	 x30:0x800085ac  x7:0xffffff8c PA:0x800085a4
       93505000	      9349	80005d08	005d9bb3	sll	x23,x27,x5	 x27:0xffffbdaa  x5:0x00000000 x23=0xffffbdaa
       93515000	      9350	80005d0c	003f2a33	slt	x20,x30,x3	 x30:0x800085ac  x3:0x00008000 x20=0x00000001
       93525000	      9351	80005d10	3bf28613	addi	x12,x5,959	  x5:0x00000000 x12=0x000003bf
       93535000	      9352	80005d14	fd3f0603	lb	x12,-45(x30)	 x30:0x800085ac x12=0x0000002f PA:0x8000857f
       93545000	      9353	80005d18	00b37733	and	x14,x6,x11	  x6:0x0000000e x11:0xffffdc5f x14=0x0000000e
       93555000	      9354	80005d1c	00209713	slli	x14,x1,0x2	  x1:0x00000028 x14=0x000000a0
       93565000	      9355	80005d20	002095b3	sll	x11,x1,x2	  x1:0x00000028  x2:0xaa8dd69f x11=0x00000000
       93575000	      9356	80005d24	002f1583	lh	x11,2(x30)	 x30:0x800085ac x11=0xffffc388 PA:0x800085ae
       93585000	      9357	80005d28	00003717	auipc	x14,0x3	 x14=0x80008d24
       93595000	      9358	80005d2c	c7870713	addi	x14,x14,-904	 x14:0x80008d24 x14=0x8000899c
       93605000	      9359	80005d30	02172e23	sw	x1,60(x14)	 x14:0x8000899c  x1:0x00000028 PA:0x800089d8
       93615000	      9360	80005d34	00374183	lbu	x3,3(x14)	 x14:0x8000899c  x3=0x00000021 PA:0x8000899f
       93625000	      9361	80005d38	02572623	sw	x5,44(x14)	 x14:0x8000899c  x5:0x00000000 PA:0x800089c8
       93635000	      9362	80005d3c	590ef517	auipc	x10,0x590ef	 x10=0xd90f4d38
       93645000	      9363	80005d40	86e0b813	sltiu	x16,x1,-1938	  x1:0x00000028 x16=0x00000001
       93655000	      9364	80005d44	00671983	lh	x19,6(x14)	 x14:0x8000899c x19=0xffffcfae PA:0x800089a2
       93665000	      9365	80005d48	fc370d83	lb	x27,-61(x14)	 x14:0x8000899c x27=0xffffff9f PA:0x8000895f
       93675000	      9366	80005d4c	fd571223	sh	x21,-60(x14)	 x14:0x8000899c x21:0x00000000 PA:0x80008960
       93685000	      9367	80005d50	0131ab33	slt	x22,x3,x19	  x3:0x00000021 x19:0xffffcfae x22=0x00000000
       93695000	      9368	80005d54	fea71883	lh	x17,-22(x14)	 x14:0x8000899c x17=0x00005631 PA:0x80008986
       93705000	      9369	80005d58	fef74f03	lbu	x30,-17(x14)	 x14:0x8000899c x30=0x00000000 PA:0x8000898b
       93715000	      9370	80005d5c	fe970ea3	sb	x9,-3(x14)	 x14:0x8000899c  x9:0x00000000 PA:0x80008999
       93725000	      9371	80005d60	03474883	lbu	x17,52(x14)	 x14:0x8000899c x17=0x0000003e PA:0x800089d0
       93735000	      9372	80005d64	4187de13	srai	x28,x15,0x18	 x15:0x80009fc4 x28=0xffffff80
       93745000	      9373	80005d68	84e70393	addi	x7,x14,-1970	 x14:0x8000899c  x7=0x800081ea
       93755000	      9374	80005d6c	419d8d33	sub	x26,x27,x25	 x27:0xffffff9f x25:0x80009f44 x26=0x7fff605b
       93765000	      9375	80005d70	00c77533	and	x10,x14,x12	 x14:0x8000899c x12:0x0000002f x10=0x0000000c
       93775000	      9376	80005d74	02d70003	lb	x0,45(x14)	 x14:0x8000899c PA:0x800089c9
       93785000	      9377	80005d78	fc574e83	lbu	x29,-59(x14)	 x14:0x8000899c x29=0x00000000 PA:0x80008961
       93795000	      9378	80005d7c	a29c7a13	andi	x20,x24,-1495	 x24:0x00000022 x20=0x00000020
       93805000	      9379	80005d80	01271003	lh	x0,18(x14)	 x14:0x8000899c PA:0x800089ae
       93815000	      9380	80005d84	032707a3	sb	x18,47(x14)	 x14:0x8000899c x18:0x4000449e PA:0x800089cb
       93825000	      9381	80005d88	fd470f83	lb	x31,-44(x14)	 x14:0x8000899c x31=0xffffffee PA:0x80008970
       93835000	      9382	80005d8c	fcf70b23	sb	x15,-42(x14)	 x14:0x8000899c x15:0x80009fc4 PA:0x80008972
       93845000	      9383	80005d90	fcd70003	lb	x0,-51(x14)	 x14:0x8000899c PA:0x80008969
       93855000	      9384	80005d94	fc972623	sw	x9,-52(x14)	 x14:0x8000899c  x9:0x00000000 PA:0x80008968
       93865000	      9385	80005d98	00171d23	sh	x1,26(x14)	 x14:0x8000899c  x1:0x00000028 PA:0x800089b6
       93875000	      9386	80005d9c	fe471403	lh	x8,-28(x14)	 x14:0x8000899c  x8=0xfffff3dc PA:0x80008980
       93885000	      9387	80005da0	fea75c03	lhu	x24,-22(x14)	 x14:0x8000899c x24=0x00005631 PA:0x80008986
       93895000	      9388	80005da4	ff770203	lb	x4,-9(x14)	 x14:0x8000899c  x4=0xffffffc7 PA:0x80008993
       93905000	      9389	80005da8	40812a37	lui	x20,0x40812	 x20=0x40812000
       93915000	      9390	80005dac	03170c03	lb	x24,49(x14)	 x14:0x8000899c x24=0x0000005a PA:0x800089cd
       93925000	      9391	80005db0	fc171323	sh	x1,-58(x14)	 x14:0x8000899c  x1:0x00000028 PA:0x80008962
       93935000	      9392	80005db4	010eabb3	slt	x23,x29,x16	 x29:0x00000000 x16:0x00000001 x23=0x00000001
       93945000	      9393	80005db8	03e71583	lh	x11,62(x14)	 x14:0x8000899c x11=0x00000000 PA:0x800089da
       93955000	      9394	80005dbc	410e56b3	sra	x13,x28,x16	 x28:0xffffff80 x16:0x00000001 x13=0xffffffc0
       93965000	      9395	80005dc0	fe072623	sw	x0,-20(x14)	 x14:0x8000899c  x0:0x00000000 PA:0x80008988
       93975000	      9396	80005dc4	fd9703a3	sb	x25,-57(x14)	 x14:0x8000899c x25:0x80009f44 PA:0x80008963
       93985000	      9397	80005dc8	fd470b83	lb	x23,-44(x14)	 x14:0x8000899c x23=0xffffffee PA:0x80008970
       93995000	      9398	80005dcc	35e5e093	ori	x1,x11,862	 x11:0x00000000  x1=0x0000035e
       94005000	      9399	80005dd0	c3f57b93	andi	x23,x10,-961	 x10:0x0000000c x23=0x0000000c
       94015000	      9400	80005dd4	41fc85b3	sub	x11,x25,x31	 x25:0x80009f44 x31:0xffffffee x11=0x80009f56
       94025000	      9401	80005dd8	b6454c13	xori	x24,x10,-1180	 x10:0x0000000c x24=0xfffffb68
       94035000	      9402	80005ddc	406888b3	sub	x17,x17,x6	 x17:0x0000003e  x6:0x0000000e x17=0x00000030
       94045000	      9403	80005de0	41ce0333	sub	x6,x28,x28	 x28:0xffffff80 x28:0xffffff80  x6=0x00000000
       94055000	      9404	80005de4	15a8f213	andi	x4,x17,346	 x17:0x00000030  x4=0x00000010
       94065000	      9405	80005de8	03427463	bgeu	x4,x20,80005e10	  x4:0x00000010 x20:0x40812000
       94075000	      9406	80005dec	402f8e33	sub	x28,x31,x2	 x31:0xffffffee  x2:0xaa8dd69f x28=0x5572294f
       94085000	      9407	80005df0	0110fa63	bgeu	x1,x17,80005e04	  x1:0x0000035e x17:0x00000030
       94095000	      9408	00000000	00000013	addi	x0,x0,0	  x0:0x00000000
       94105000	      9409	80005e00	00000013	addi	x0,x0,0	  x0:0x00000000
       94115000	      9410	80005e04	85b52293	slti	x5,x10,-1957	 x10:0x0000000c  x5=0x00000000
       94125000	      9411	80005e08	00c45493	srli	x9,x8,0xc	  x8:0xfffff3dc  x9=0x000fffff
       94135000	      9412	80005e0c	01dbe433	or	x8,x23,x29	 x23:0x0000000c x29:0x00000000  x8=0x0000000c
       94145000	      9413	80005e10	e4f17e13	andi	x28,x2,-433	  x2:0xaa8dd69f x28=0xaa8dd60f
       94155000	      9414	80005e14	41d18a33	sub	x20,x3,x29	  x3:0x00000021 x29:0x00000000 x20=0x00000021
       94165000	      9415	80005e18	58e23593	sltiu	x11,x4,1422	  x4:0x00000010 x11=0x00000001
       94175000	      9416	80005e1c	35a9d317	auipc	x6,0x35a9d	  x6=0xb5aa2e18
       94185000	      9417	80005e20	91236d93	ori	x27,x6,-1774	  x6:0xb5aa2e18 x27=0xffffff1a
       94195000	      9418	80005e24	c2330993	addi	x19,x6,-989	  x6:0xb5aa2e18 x19=0xb5aa2a3b
       94205000	      9419	80005e28	005d4463	blt	x26,x5,80005e30	 x26:0x7fff605b  x5:0x00000000
       94215000	      9420	80005e2c	406fdab3	sra	x21,x31,x6	 x31:0xffffffee  x6:0xb5aa2e18 x21=0xffffffff
       94225000	      9421	80005e30	5e91b413	sltiu	x8,x3,1513	  x3:0x00000021  x8=0x00000001
       94235000	      9422	80005e34	041fe463	bltu	x31,x1,80005e7c	 x31:0xffffffee  x1:0x0000035e
       94245000	      9423	80005e38	009e9463	bne	x29,x9,80005e40	 x29:0x00000000  x9:0x000fffff
       94255000	      9424	00000000	00000013	addi	x0,x0,0	  x0:0x00000000
       94265000	      9425	80005e3c	00000013	addi	x0,x0,0	  x0:0x00000000
       94275000	      9426	80005e40	0332ee63	bltu	x5,x19,80005e7c	  x5:0x00000000 x19:0xb5aa2a3b
       94285000	      9427	00000000	00000013	addi	x0,x0,0	  x0:0x00000000
       94295000	      9428	80005e78	00000013	addi	x0,x0,0	  x0:0x00000000
       94305000	      9429	80005e7c	04e82d13	slti	x26,x16,78	 x16:0x00000001 x26=0x00000001
       94315000	      9430	80005e80	032c1e63	bne	x24,x18,80005ebc	 x24:0xfffffb68 x18:0x4000449e
       94325000	      9431	00000000	00000013	addi	x0,x0,0	  x0:0x00000000
       94335000	      9432	80005eb8	00000013	addi	x0,x0,0	  x0:0x00000000
       94345000	      9433	80005ebc	968a0893	addi	x17,x20,-1688	 x20:0x00000021 x17=0xfffff989
       94355000	      9434	80005ec0	01969ab3	sll	x21,x13,x25	 x13:0xffffffc0 x25:0x80009f44 x21=0xfffffc00
       94365000	      9435	80005ec4	02189c63	bne	x17,x1,80005efc	 x17:0xfffff989  x1:0x0000035e
       94375000	      9436	00000000	00000013	addi	x0,x0,0	  x0:0x00000000
       94385000	      9437	80005ef8	00000013	addi	x0,x0,0	  x0:0x00000000
       94395000	      9438	80005efc	01630c63	beq	x6,x22,80005f14	  x6:0xb5aa2e18 x22:0x00000000
       94405000	      9439	80005f00	01ff9e13	slli	x28,x31,0x1f	 x31:0xffffffee x28=0x00000000
       94415000	      9440	80005f04	aff4fc13	andi	x24,x9,-1281	  x9:0x000fffff x24=0x000ffaff
       94425000	      9441	80005f08	26716513	ori	x10,x2,615	  x2:0xaa8dd69f x10=0xaa8dd6ff
       94435000	      9442	80005f0c	417b5093	srai	x1,x22,0x17	 x22:0x00000000  x1=0x00000000
       94445000	      9443	80005f10	0309d263	bge	x19,x16,80005f34	 x19:0xb5aa2a3b x16:0x00000001
       94455000	      9444	80005f14	00000013	addi	x0,x0,0	  x0:0x00000000
       94465000	      9445	80005f18	002602b3	add	x5,x12,x2	 x12:0x0000002f  x2:0xaa8dd69f  x5=0xaa8dd6ce
       94475000	      9446	80005f1c	00000013	addi	x0,x0,0	  x0:0x00000000
       94485000	      9447	80005f20	3040bf93	sltiu	x31,x1,772	  x1:0x00000000 x31=0x00000001
       94495000	      9448	80005f24	00000013	addi	x0,x0,0	  x0:0x00000000
       94505000	      9449	80005f28	01749a93	slli	x21,x9,0x17	  x9:0x000fffff x21=0xff800000
       94515000	      9450	80005f2c	f045f493	andi	x9,x11,-252	 x11:0x00000001  x9=0x00000000
       94525000	      9451	80005f30	4135d233	sra	x4,x11,x19	 x11:0x00000001 x19:0xb5aa2a3b  x4=0x00000000
       94535000	      9452	80005f34	01119933	sll	x18,x3,x17	  x3:0x00000021 x17:0xfffff989 x18=0x00004200
       94545000	      9453	80005f38	22500913	addi	x18,x0,549	  x0:0x00000000 x18=0x00000225
       94555000	      9454	80005f3c	e5777213	andi	x4,x14,-425	 x14:0x8000899c  x4=0x80008814
       94565000	      9455	80005f40	01b10c63	beq	x2,x27,80005f58	  x2:0xaa8dd69f x27:0xffffff1a
       94575000	      9456	80005f44	323beb93	ori	x23,x23,803	 x23:0x0000000c x23=0x0000032f
       94585000	      9457	80005f48	f598f893	andi	x17,x17,-167	 x17:0xfffff989 x17=0xfffff909
       94595000	      9458	80005f4c	008c0fb3	add	x31,x24,x8	 x24:0x000ffaff  x8:0x00000001 x31=0x000ffb00
       94605000	      9459	80005f50	03fce663	bltu	x25,x31,80005f7c	 x25:0x80009f44 x31:0x000ffb00
       94615000	      9460	80005f54	4160f913	andi	x18,x1,1046	  x1:0x00000000 x18=0x00000000
       94625000	      9461	80005f58	41455fb3	sra	x31,x10,x20	 x10:0xaa8dd6ff x20:0x00000021 x31=0xd546eb7f
       94635000	      9462	80005f5c	88457713	andi	x14,x10,-1916	 x10:0xaa8dd6ff x14=0xaa8dd084
       94645000	      9463	80005f60	0204d863	bge	x9,x0,80005f90	  x9:0x00000000  x0:0x00000000
       94655000	      9464	00000000	00000013	addi	x0,x0,0	  x0:0x00000000
       94665000	      9465	80005f8c	00000013	addi	x0,x0,0	  x0:0x00000000
       94675000	      9466	80005f90	001486b3	add	x13,x9,x1	  x9:0x00000000  x1:0x00000000 x13=0x00000000
       94685000	      9467	80005f94	012d5813	srli	x16,x26,0x12	 x26:0x00000001 x16=0x00000000
       94695000	      9468	80005f98	00965633	srl	x12,x12,x9	 x12:0x0000002f  x9:0x00000000 x12=0x0000002f
       94705000	      9469	80005f9c	01ef7c63	bgeu	x30,x30,80005fb4	 x30:0x00000000 x30:0x00000000
       94715000	      9470	00000000	00000013	addi	x0,x0,0	  x0:0x00000000
       94725000	      9471	80005fb0	00000013	addi	x0,x0,0	  x0:0x00000000
       94735000	      9472	80005fb4	0c4c6bb7	lui	x23,0xc4c6	 x23=0x0c4c6000
       94745000	      9473	80005fb8	01c935b3	sltu	x11,x18,x28	 x18:0x00000000 x28:0x00000000 x11=0x00000000
       94755000	      9474	80005fbc	403cdb33	sra	x22,x25,x3	 x25:0x80009f44  x3:0x00000021 x22=0xc0004fa2
       94765000	      9475	80005fc0	059e0863	beq	x28,x25,80006010	 x28:0x00000000 x25:0x80009f44
       94775000	      9476	80005fc4	004496b3	sll	x13,x9,x4	  x9:0x00000000  x4:0x80008814 x13=0x00000000
       94785000	      9477	80005fc8	00aba3b3	slt	x7,x23,x10	 x23:0x0c4c6000 x10:0xaa8dd6ff  x7=0x00000000
       94795000	      9478	80005fcc	0248f463	bgeu	x17,x4,80005ff4	 x17:0xfffff909  x4:0x80008814
       94805000	      9479	00000000	00000013	addi	x0,x0,0	  x0:0x00000000
       94815000	      9480	80005ff0	00000013	addi	x0,x0,0	  x0:0x00000000
       94825000	      9481	80005ff4	22f17e93	andi	x29,x2,559	  x2:0xaa8dd69f x29=0x0000020f
       94835000	      9482	80005ff8	01f7e663	bltu	x15,x31,80006004	 x15:0x80009fc4 x31:0xd546eb7f
       94845000	      9483	00000000	00000013	addi	x0,x0,0	  x0:0x00000000
       94855000	      9484	80006000	00000013	addi	x0,x0,0	  x0:0x00000000
       94865000	      9485	80006004	0122ca33	xor	x20,x5,x18	  x5:0xaa8dd6ce x18:0x00000000 x20=0xaa8dd6ce
       94875000	      9486	80006008	eb6fb093	sltiu	x1,x31,-330	 x31:0xd546eb7f  x1=0x00000001
       94885000	      9487	8000600c	02af0c63	beq	x30,x10,80006044	 x30:0x00000000 x10:0xaa8dd6ff
       94895000	      9488	80006010	019aa833	slt	x16,x21,x25	 x21:0xff800000 x25:0x80009f44 x16=0x00000000
       94905000	      9489	80006014	f6b42013	slti	x0,x8,-149	  x8:0x00000001
       94915000	      9490	80006018	0118b8b3	sltu	x17,x17,x17	 x17:0xfffff909 x17:0xfffff909 x17=0x00000000
       94925000	      9491	8000601c	02181263	bne	x16,x1,80006040	 x16:0x00000000  x1:0x00000001
       94935000	      9492	00000000	00000013	addi	x0,x0,0	  x0:0x00000000
       94945000	      9493	8000603c	00000013	addi	x0,x0,0	  x0:0x00000000
       94955000	      9494	80006040	405c5c33	sra	x24,x24,x5	 x24:0x000ffaff  x5:0xaa8dd6ce x24=0x0000003f
       94965000	      9495	80006044	d56f4093	xori	x1,x30,-682	 x30:0x00000000  x1=0xfffffd56
       94975000	      9496	80006048	9ff7d097	auipc	x1,0x9ff7d	  x1=0x1ff83044
       94985000	      9497	8000604c	41cf5033	sra	x0,x30,x28	 x30:0x00000000 x28:0x00000000
       94995000	      9498	80006050	463f2013	slti	x0,x30,1123	 x30:0x00000000
       95005000	      9499	80006054	7c60b393	sltiu	x7,x1,1990	  x1:0x1ff83044  x7=0x00000000
       95015000	      9500	80006058	0175d633	srl	x12,x11,x23	 x11:0x00000000 x23:0x0c4c6000 x12=0x00000000
       95025000	      9501	8000605c	40b306b3	sub	x13,x6,x11	  x6:0xb5aa2e18 x11:0x00000000 x13=0xb5aa2e18
       95035000	      9502	80006060	027e4463	blt	x28,x7,80006088	 x28:0x00000000  x7:0x00000000
       95045000	      9503	80006064	015535b3	sltu	x11,x10,x21	 x10:0xaa8dd6ff x21:0xff800000 x11=0x00000001
       95055000	      9504	80006068	00adcb33	xor	x22,x27,x10	 x27:0xffffff1a x10:0xaa8dd6ff x22=0x557229e5
       95065000	      9505	8000606c	00000013	addi	x0,x0,0	  x0:0x00000000
       95075000	      9506	80006070	d79fc313	xori	x6,x31,-647	 x31:0xd546eb7f  x6=0x2ab91606
       95085000	      9507	80006074	407ed233	sra	x4,x29,x7	 x29:0x0000020f  x7:0x00000000  x4=0x0000020f
       95095000	      9508	80006078	0140cbb3	xor	x23,x1,x20	  x1:0x1ff83044 x20:0xaa8dd6ce x23=0xb575e68a
       95105000	      9509	8000607c	0105fb33	and	x22,x11,x16	 x11:0x00000001 x16:0x00000000 x22=0x00000000
       95115000	      9510	80006080	f7658b13	addi	x22,x11,-138	 x11:0x00000001 x22=0xffffff77
       95125000	      9511	80006084	016b5a63	bge	x22,x22,80006098	 x22:0xffffff77 x22:0xffffff77
       95135000	      9512	00000000	00000013	addi	x0,x0,0	  x0:0x00000000
       95145000	      9513	80006094	00000013	addi	x0,x0,0	  x0:0x00000000
       95155000	      9514	80006098	ca03a993	slti	x19,x7,-864	  x7:0x00000000 x19=0x00000000
       95165000	      9515	8000609c	e8580d97	auipc	x27,0xe8580	 x27=0x68586098
       95175000	      9516	800060a0	018f5f13	srli	x30,x30,0x18	 x30:0x00000000 x30=0x00000000
       95185000	      9517	800060a4	00fd5993	srli	x19,x26,0xf	 x26:0x00000001 x19=0x00000000
       95195000	      9518	800060a8	41260fb3	sub	x31,x12,x18	 x12:0x00000000 x18:0x00000000 x31=0x00000000
       95205000	      9519	800060ac	00000013	addi	x0,x0,0	  x0:0x00000000
       95215000	      9520	800060b0	01f9e5b3	or	x11,x19,x31	 x19:0x00000000 x31:0x00000000 x11=0x00000000
       95225000	      9521	800060b4	0155f863	bgeu	x11,x21,800060c4	 x11:0x00000000 x21:0xff800000
       95235000	      9522	800060b8	0003d463	bge	x7,x0,800060c0	  x7:0x00000000  x0:0x00000000
       95245000	      9523	00000000	00000013	addi	x0,x0,0	  x0:0x00000000
       95255000	      9524	800060bc	00000013	addi	x0,x0,0	  x0:0x00000000
       95265000	      9525	800060c0	04cb1863	bne	x22,x12,80006110	 x22:0xffffff77 x12:0x00000000
       95275000	      9526	00000000	00000013	addi	x0,x0,0	  x0:0x00000000
       95285000	      9527	8000610c	00000013	addi	x0,x0,0	  x0:0x00000000
       95295000	      9528	80006110	40018433	sub	x8,x3,x0	  x3:0x00000021  x0:0x00000000  x8=0x00000021
       95305000	      9529	80006114	00291413	slli	x8,x18,0x2	 x18:0x00000000  x8=0x00000000
       95315000	      9530	80006118	01d2ea63	bltu	x5,x29,8000612c	  x5:0xaa8dd6ce x29:0x0000020f
       95325000	      9531	8000611c	34327893	andi	x17,x4,835	  x4:0x0000020f x17=0x00000203
       95335000	      9532	80006120	4ed0cb93	xori	x23,x1,1261	  x1:0x1ff83044 x23=0x1ff834a9
       95345000	      9533	80006124	00151bb3	sll	x23,x10,x1	 x10:0xaa8dd6ff  x1:0x1ff83044 x23=0xa8dd6ff0
       95355000	      9534	80006128	40ca0533	sub	x10,x20,x12	 x20:0xaa8dd6ce x12:0x00000000 x10=0xaa8dd6ce
       95365000	      9535	8000612c	02030463	beq	x6,x0,80006154	  x6:0x2ab91606  x0:0x00000000
       95375000	      9536	80006130	1eb1b813	sltiu	x16,x3,491	  x3:0x00000021 x16=0x00000001
       95385000	      9537	80006134	03a77c63	bgeu	x14,x26,8000616c	 x14:0xaa8dd084 x26:0x00000001
       95395000	      9538	00000000	00000013	addi	x0,x0,0	  x0:0x00000000
       95405000	      9539	80006168	00000013	addi	x0,x0,0	  x0:0x00000000
       95415000	      9540	8000616c	0113d293	srli	x5,x7,0x11	  x7:0x00000000  x5=0x00000000
       95425000	      9541	80006170	045a5463	bge	x20,x5,800061b8	 x20:0xaa8dd6ce  x5:0x00000000
       95435000	      9542	80006174	009038b3	sltu	x17,x0,x9	  x0:0x00000000  x9:0x00000000 x17=0x00000000
       95445000	      9543	80006178	006649b3	xor	x19,x12,x6	 x12:0x00000000  x6:0x2ab91606 x19=0x2ab91606
       95455000	      9544	8000617c	0195a4b3	slt	x9,x11,x25	 x11:0x00000000 x25:0x80009f44  x9=0x00000000
       95465000	      9545	80006180	01d7d993	srli	x19,x15,0x1d	 x15:0x80009fc4 x19=0x00000004
       95475000	      9546	80006184	ce302313	slti	x6,x0,-797	  x0:0x00000000  x6=0x00000000
       95485000	      9547	80006188	02adea63	bltu	x27,x10,800061bc	 x27:0x68586098 x10:0xaa8dd6ce
       95495000	      9548	00000000	00000013	addi	x0,x0,0	  x0:0x00000000
       95505000	      9549	800061b8	00000013	addi	x0,x0,0	  x0:0x00000000
       95515000	      9550	800061bc	01a6be33	sltu	x28,x13,x26	 x13:0xb5aa2e18 x26:0x00000001 x28=0x00000000
       95525000	      9551	800061c0	018f8333	add	x6,x31,x24	 x31:0x00000000 x24:0x0000003f  x6=0x0000003f
       95535000	      9552	800061c4	00eacb33	xor	x22,x21,x14	 x21:0xff800000 x14:0xaa8dd084 x22=0x550dd084
       95545000	      9553	800061c8	02255e63	bge	x10,x2,80006204	 x10:0xaa8dd6ce  x2:0xaa8dd69f
       95555000	      9554	00000000	00000013	addi	x0,x0,0	  x0:0x00000000
       95565000	      9555	80006200	00000013	addi	x0,x0,0	  x0:0x00000000
       95575000	      9556	80006204	629bc617	auipc	x12,0x629bc	 x12=0xe29c2200
       95585000	      9557	80006208	02b16a63	bltu	x2,x11,8000623c	  x2:0xaa8dd69f x11:0x00000000
       95595000	      9558	8000620c	035b0663	beq	x22,x21,80006238	 x22:0x550dd084 x21:0xff800000
       95605000	      9559	80006210	030ff063	bgeu	x31,x16,80006230	 x31:0x00000000 x16:0x00000001
       95615000	      9560	80006214	49880537	lui	x10,0x49880	 x10=0x49880000
       95625000	      9561	80006218	00f2d9b3	srl	x19,x5,x15	  x5:0x00000000 x15:0x80009fc4 x19=0x00000000
       95635000	      9562	8000621c	00f88863	beq	x17,x15,8000622c	 x17:0x00000000 x15:0x80009fc4
       95645000	      9563	80006220	eec22013	slti	x0,x4,-276	  x4:0x0000020f
       95655000	      9564	80006224	00bf1bb3	sll	x23,x30,x11	 x30:0x00000000 x11:0x00000000 x23=0x00000000
       95665000	      9565	80006228	409958b3	sra	x17,x18,x9	 x18:0x00000000  x9:0x00000000 x17=0x00000000
       95675000	      9566	8000622c	bdbcf413	andi	x8,x25,-1061	 x25:0x80009f44  x8=0x80009b40
       95685000	      9567	80006230	017456b3	srl	x13,x8,x23	  x8:0x80009b40 x23:0x00000000 x13=0x80009b40
       95695000	      9568	80006234	00000013	addi	x0,x0,0	  x0:0x00000000
       95705000	      9569	80006238	01079bb3	sll	x23,x15,x16	 x15:0x80009fc4 x16:0x00000001 x23=0x00013f88
       95715000	      9570	8000623c	01f24033	xor	x0,x4,x31	  x4:0x0000020f x31:0x00000000
       95725000	      9571	80006240	0149bf33	sltu	x30,x19,x20	 x19:0x00000000 x20:0xaa8dd6ce x30=0x00000001
       95735000	      9572	80006244	f20b7d37	lui	x26,0xf20b7	 x26=0xf20b7000
       95745000	      9573	80006248	00231293	slli	x5,x6,0x2	  x6:0x0000003f  x5=0x000000fc
       95755000	      9574	8000624c	010e8a63	beq	x29,x16,80006260	 x29:0x0000020f x16:0x00000001
       95765000	      9575	80006250	00e51c63	bne	x10,x14,80006268	 x10:0x49880000 x14:0xaa8dd084
       95775000	      9576	00000000	00000013	addi	x0,x0,0	  x0:0x00000000
       95785000	      9577	80006264	00000013	addi	x0,x0,0	  x0:0x00000000
       95795000	      9578	80006268	01b37933	and	x18,x6,x27	  x6:0x0000003f x27:0x68586098 x18=0x00000018
       95805000	      9579	8000626c	00000013	addi	x0,x0,0	  x0:0x00000000
       95815000	      9580	80006270	c6cfaf13	slti	x30,x31,-916	 x31:0x00000000 x30=0x00000000
       95825000	      9581	80006274	0042d463	bge	x5,x4,8000627c	  x5:0x000000fc  x4:0x0000020f
       95835000	      9582	80006278	04ed9a63	bne	x27,x14,800062cc	 x27:0x68586098 x14:0xaa8dd084
       95845000	      9583	00000000	00000013	addi	x0,x0,0	  x0:0x00000000
       95855000	      9584	800062c8	00000013	addi	x0,x0,0	  x0:0x00000000
       95865000	      9585	800062cc	01f6ec63	bltu	x13,x31,800062e4	 x13:0x80009b40 x31:0x00000000
       95875000	      9586	800062d0	05d37063	bgeu	x6,x29,80006310	  x6:0x0000003f x29:0x0000020f
       95885000	      9587	800062d4	00fb5913	srli	x18,x22,0xf	 x22:0x550dd084 x18=0x0000aa1b
       95895000	      9588	800062d8	688064b7	lui	x9,0x68806	  x9=0x68806000
       95905000	      9589	800062dc	47e1cd13	xori	x26,x3,1150	  x3:0x00000021 x26=0x0000045f
       95915000	      9590	800062e0	41a60933	sub	x18,x12,x26	 x12:0xe29c2200 x26:0x0000045f x18=0xe29c1da1
       95925000	      9591	800062e4	6e128213	addi	x4,x5,1761	  x5:0x000000fc  x4=0x000007dd
       95935000	      9592	800062e8	02947063	bgeu	x8,x9,80006308	  x8:0x80009b40  x9:0x68806000
       95945000	      9593	00000000	00000013	addi	x0,x0,0	  x0:0x00000000
       95955000	      9594	80006304	00000013	addi	x0,x0,0	  x0:0x00000000
       95965000	      9595	80006308	277d0413	addi	x8,x26,631	 x26:0x0000045f  x8=0x000006d6
       95975000	      9596	8000630c	04afe463	bltu	x31,x10,80006354	 x31:0x00000000 x10:0x49880000
       95985000	      9597	00000000	00000013	addi	x0,x0,0	  x0:0x00000000
       95995000	      9598	80006350	00000013	addi	x0,x0,0	  x0:0x00000000
       96005000	      9599	80006354	009c5513	srli	x10,x24,0x9	 x24:0x0000003f x10=0x00000000
       96015000	      9600	80006358	2e306b13	ori	x22,x0,739	  x0:0x00000000 x22=0x000002e3
       96025000	      9601	8000635c	01ed0e63	beq	x26,x30,80006378	 x26:0x0000045f x30:0x00000000
       96035000	      9602	80006360	010a4ab3	xor	x21,x20,x16	 x20:0xaa8dd6ce x16:0x00000001 x21=0xaa8dd6cf
       96045000	      9603	80006364	414f5393	srai	x7,x30,0x14	 x30:0x00000000  x7=0x00000000
       96055000	      9604	80006368	41538db3	sub	x27,x7,x21	  x7:0x00000000 x21:0xaa8dd6cf x27=0x55722931
       96065000	      9605	8000636c	00375b33	srl	x22,x14,x3	 x14:0xaa8dd084  x3:0x00000021 x22=0x5546e842
       96075000	      9606	80006370	ab0fa413	slti	x8,x31,-1360	 x31:0x00000000  x8=0x00000000
       96085000	      9607	80006374	40aa5db3	sra	x27,x20,x10	 x20:0xaa8dd6ce x10:0x00000000 x27=0xaa8dd6ce
       96095000	      9608	80006378	720eb897	auipc	x17,0x720eb	 x17=0xf20f1374
       96105000	      9609	8000637c	dea90a13	addi	x20,x18,-534	 x18:0xe29c1da1 x20=0xe29c1b8b
       96115000	      9610	80006380	406655b3	sra	x11,x12,x6	 x12:0xe29c2200  x6:0x0000003f x11=0xffffffff
       96125000	      9611	80006384	0e682e13	slti	x28,x16,230	 x16:0x00000001 x28=0x00000001
       96135000	      9612	80006388	006dd6b3	srl	x13,x27,x6	 x27:0xaa8dd6ce  x6:0x0000003f x13=0x00000001
       96145000	      9613	8000638c	01f11213	slli	x4,x2,0x1f	  x2:0xaa8dd69f  x4=0x80000000
       96155000	      9614	80006390	b7bfa993	slti	x19,x31,-1157	 x31:0x00000000 x19=0x00000000
       96165000	      9615	80006394	404bd033	sra	x0,x23,x4	 x23:0x00013f88  x4:0x80000000
       96175000	      9616	80006398	00000013	addi	x0,x0,0	  x0:0x00000000
       96185000	      9617	8000639c	01dc20b3	slt	x1,x24,x29	 x24:0x0000003f x29:0x0000020f  x1=0x00000001
       96195000	      9618	800063a0	01cedfb3	srl	x31,x29,x28	 x29:0x0000020f x28:0x00000001 x31=0x00000107
       96205000	      9619	800063a4	006a9d93	slli	x27,x21,0x6	 x21:0xaa8dd6cf x27=0xa375b3c0
       96215000	      9620	800063a8	01928833	add	x16,x5,x25	  x5:0x000000fc x25:0x80009f44 x16=0x8000a040
       96225000	      9621	800063ac	0199d463	bge	x19,x25,800063b4	 x19:0x00000000 x25:0x80009f44
       96235000	      9622	00000000	00000013	addi	x0,x0,0	  x0:0x00000000
       96245000	      9623	800063b0	00000013	addi	x0,x0,0	  x0:0x00000000
       96255000	      9624	800063b4	00000013	addi	x0,x0,0	  x0:0x00000000
       96265000	      9625	800063b8	002f91b3	sll	x3,x31,x2	 x31:0x00000107  x2:0xaa8dd69f  x3=0x80000000
       96275000	      9626	800063bc	74aef693	andi	x13,x29,1866	 x29:0x0000020f x13=0x0000020a
       96285000	      9627	800063c0	009d38b3	sltu	x17,x26,x9	 x26:0x0000045f  x9:0x68806000 x17=0x00000001
       96295000	      9628	800063c4	00000013	addi	x0,x0,0	  x0:0x00000000
       96305000	      9629	800063c8	0184c5b3	xor	x11,x9,x24	  x9:0x68806000 x24:0x0000003f x11=0x6880603f
       96315000	      9630	800063cc	03a17263	bgeu	x2,x26,800063f0	  x2:0xaa8dd69f x26:0x0000045f
       96325000	      9631	00000000	00000013	addi	x0,x0,0	  x0:0x00000000
       96335000	      9632	800063ec	00000013	addi	x0,x0,0	  x0:0x00000000
       96345000	      9633	800063f0	40788933	sub	x18,x17,x7	 x17:0x00000001  x7:0x00000000 x18=0x00000001
       96355000	      9634	800063f4	004f3f33	sltu	x30,x30,x4	 x30:0x00000000  x4:0x80000000 x30=0x00000001
       96365000	      9635	800063f8	007b4a63	blt	x22,x7,8000640c	 x22:0x5546e842  x7:0x00000000
       96375000	      9636	800063fc	00114a33	xor	x20,x2,x1	  x2:0xaa8dd69f  x1:0x00000001 x20=0xaa8dd69e
       96385000	      9637	80006400	010b8833	add	x16,x23,x16	 x23:0x00013f88 x16:0x8000a040 x16=0x8001dfc8
       96395000	      9638	80006404	0011c663	blt	x3,x1,80006410	  x3:0x80000000  x1:0x00000001
       96405000	      9639	00000000	00000013	addi	x0,x0,0	  x0:0x00000000
       96415000	      9640	8000640c	00000013	addi	x0,x0,0	  x0:0x00000000
       96425000	      9641	80006410	40c58b33	sub	x22,x11,x12	 x11:0x6880603f x12:0xe29c2200 x22=0x85e43e3f
       96435000	      9642	80006414	00e6e9b3	or	x19,x13,x14	 x13:0x0000020a x14:0xaa8dd084 x19=0xaa8dd28e
       96445000	      9643	80006418	a8d9f897	auipc	x17,0xa8d9f	 x17=0x28da5414
       96455000	      9644	8000641c	00000013	addi	x0,x0,0	  x0:0x00000000
       96465000	      9645	80006420	f82f8b93	addi	x23,x31,-126	 x31:0x00000107 x23=0x00000089
       96475000	      9646	80006424	5ddd8593	addi	x11,x27,1501	 x27:0xa375b3c0 x11=0xa375b99d
       96485000	      9647	80006428	045ee263	bltu	x29,x5,8000646c	 x29:0x0000020f  x5:0x000000fc
       96495000	      9648	8000642c	08357d93	andi	x27,x10,131	 x10:0x00000000 x27=0x00000000
       96505000	      9649	80006430	0108bfb3	sltu	x31,x17,x16	 x17:0x28da5414 x16:0x8001dfc8 x31=0x00000001
       96515000	      9650	80006434	01bd5263	bge	x26,x27,80006438	 x26:0x0000045f x27:0x00000000
       96525000	      9651	00000000	00000013	addi	x0,x0,0	  x0:0x00000000
       96535000	      9652	80006434	00000013	addi	x0,x0,0	  x0:0x00000000
       96545000	      9653	80006438	02e17463	bgeu	x2,x14,80006460	  x2:0xaa8dd69f x14:0xaa8dd084
       96555000	      9654	00000000	00000013	addi	x0,x0,0	  x0:0x00000000
       96565000	      9655	8000645c	00000013	addi	x0,x0,0	  x0:0x00000000
       96575000	      9656	80006460	417e51b3	sra	x3,x28,x23	 x28:0x00000001 x23:0x00000089  x3=0x00000000
       96585000	      9657	80006464	01fe3f33	sltu	x30,x28,x31	 x28:0x00000001 x31:0x00000001 x30=0x00000000
       96595000	      9658	80006468	ec3f7893	andi	x17,x30,-317	 x30:0x00000000 x17=0x00000000
       96605000	      9659	8000646c	00237c63	bgeu	x6,x2,80006484	  x6:0x0000003f  x2:0xaa8dd69f
       96615000	      9660	80006470	049cf063	bgeu	x25,x9,800064b0	 x25:0x80009f44  x9:0x68806000
       96625000	      9661	00000000	00000013	addi	x0,x0,0	  x0:0x00000000
       96635000	      9662	800064ac	00000013	addi	x0,x0,0	  x0:0x00000000
       96645000	      9663	800064b0	00bbf033	and	x0,x23,x11	 x23:0x00000089 x11:0xa375b99d
       96655000	      9664	800064b4	02637063	bgeu	x6,x6,800064d4	  x6:0x0000003f  x6:0x0000003f
       96665000	      9665	00000000	00000013	addi	x0,x0,0	  x0:0x00000000
       96675000	      9666	800064d0	00000013	addi	x0,x0,0	  x0:0x00000000
       96685000	      9667	800064d4	023cca63	blt	x25,x3,80006508	 x25:0x80009f44  x3:0x00000000
       96695000	      9668	00000000	00000013	addi	x0,x0,0	  x0:0x00000000
       96705000	      9669	80006504	00000013	addi	x0,x0,0	  x0:0x00000000
       96715000	      9670	80006508	006335b3	sltu	x11,x6,x6	  x6:0x0000003f  x6:0x0000003f x11=0x00000000
       96725000	      9671	8000650c	ce4e0a13	addi	x20,x28,-796	 x28:0x00000001 x20=0xfffffce5
       96735000	      9672	80006510	00f29a13	slli	x20,x5,0xf	  x5:0x000000fc x20=0x007e0000
       96745000	      9673	80006514	019d55b3	srl	x11,x26,x25	 x26:0x0000045f x25:0x80009f44 x11=0x00000045
       96755000	      9674	80006518	00000013	addi	x0,x0,0	  x0:0x00000000
       96765000	      9675	8000651c	0011c733	xor	x14,x3,x1	  x3:0x00000000  x1:0x00000001 x14=0x00000001
       96775000	      9676	80006520	00901333	sll	x6,x0,x9	  x0:0x00000000  x9:0x68806000  x6=0x00000000
       96785000	      9677	80006524	005eb733	sltu	x14,x29,x5	 x29:0x0000020f  x5:0x000000fc x14=0x00000000
       96795000	      9678	80006528	6a954a93	xori	x21,x10,1705	 x10:0x00000000 x21=0x000006a9
       96805000	      9679	8000652c	f8867f13	andi	x30,x12,-120	 x12:0xe29c2200 x30=0xe29c2200
       96815000	      9680	80006530	e36e6617	auipc	x12,0xe36e6	 x12=0x636ec52c
       96825000	      9681	80006534	0042d713	srli	x14,x5,0x4	  x5:0x000000fc x14=0x0000000f
       96835000	      9682	80006538	415455b3	sra	x11,x8,x21	  x8:0x00000000 x21:0x000006a9 x11=0x00000000
       96845000	      9683	8000653c	03fb3a13	sltiu	x20,x22,63	 x22:0x85e43e3f x20=0x00000000
       96855000	      9684	80006540	408ddeb3	sra	x29,x27,x8	 x27:0x00000000  x8:0x00000000 x29=0x00000000
       96865000	      9685	80006544	00cdc863	blt	x27,x12,80006554	 x27:0x00000000 x12:0x636ec52c
       96875000	      9686	00000000	00000013	addi	x0,x0,0	  x0:0x00000000
       96885000	      9687	80006550	00000013	addi	x0,x0,0	  x0:0x00000000
       96895000	      9688	80006554	9aa3e413	ori	x8,x7,-1622	  x7:0x00000000  x8=0xfffff9aa
       96905000	      9689	80006558	003c9813	slli	x16,x25,0x3	 x25:0x80009f44 x16=0x0004fa20
       96915000	      9690	8000655c	40ab0eb3	sub	x29,x22,x10	 x22:0x85e43e3f x10:0x00000000 x29=0x85e43e3f
       96925000	      9691	80006560	63b6f513	andi	x10,x13,1595	 x13:0x0000020a x10=0x0000020a
       96935000	      9692	80006564	00521eb3	sll	x29,x4,x5	  x4:0x80000000  x5:0x000000fc x29=0x00000000
       96945000	      9693	80006568	bdbb4337	lui	x6,0xbdbb4	  x6=0xbdbb4000
       96955000	      9694	8000656c	004caf83	lw	x31,4(x25)	 x25:0x80009f44 x31=0x80000210 PA:0x80009f48
       96965000	      9695	80006570	01d01a93	slli	x21,x0,0x1d	  x0:0x00000000 x21=0x00000000
       96975000	      9696	80006574	01d380b3	add	x1,x7,x29	  x7:0x00000000 x29:0x00000000  x1=0x00000000
       96985000	      9697	80006578	040c8c93	addi	x25,x25,64	 x25:0x80009f44 x25=0x80009f84
       96995000	      9698	8000657c	01e79e33	sll	x28,x15,x30	 x15:0x80009fc4 x30:0xe29c2200 x28=0x80009fc4
       97005000	      9699	80006580	001f8913	addi	x18,x31,1	 x31:0x80000210 x18=0x80000211
       97015000	      9700	80006584	00090967	jalr	x18,x18,0	 x18:0x80000211 x18=0x80006584
       97025000	      9701	00000000	00000013	addi	x0,x0,0	  x0:0x00000000
       97035000	      9702	80000210	00000013	addi	x0,x0,0	  x0:0x00000000
       97045000	      9703	80000214	0201e263	bltu	x3,x0,80000238	  x3:0x00000000  x0:0x00000000
       97055000	      9704	80000218	d95ac6b7	lui	x13,0xd95ac	 x13=0xd95ac000
       97065000	      9705	8000021c	41b85b13	srai	x22,x16,0x1b	 x16:0x0004fa20 x22=0x00000000
       97075000	      9706	80000220	4187d5b3	sra	x11,x15,x24	 x15:0x80009fc4 x24:0x0000003f x11=0xffffffff
       97085000	      9707	80000224	00000013	addi	x0,x0,0	  x0:0x00000000
       97095000	      9708	80000228	00b81f93	slli	x31,x16,0xb	 x16:0x0004fa20 x31=0x27d10000
       97105000	      9709	8000022c	28b27893	andi	x17,x4,651	  x4:0x80000000 x17=0x00000000
       97115000	      9710	80000230	5c7a3d13	sltiu	x26,x20,1479	 x20:0x00000000 x26=0x00000001
       97125000	      9711	80000234	0020dc63	bge	x1,x2,8000024c	  x1:0x00000000  x2:0xaa8dd69f
       97135000	      9712	00000000	00000013	addi	x0,x0,0	  x0:0x00000000
       97145000	      9713	80000248	00000013	addi	x0,x0,0	  x0:0x00000000
       97155000	      9714	8000024c	0110beb3	sltu	x29,x1,x17	  x1:0x00000000 x17:0x00000000 x29=0x00000000
       97165000	      9715	80000250	79c34913	xori	x18,x6,1948	  x6:0xbdbb4000 x18=0xbdbb479c
       97175000	      9716	80000254	4065d393	srai	x7,x11,0x6	 x11:0xffffffff  x7=0xffffffff
       97185000	      9717	80000258	0117d9b3	srl	x19,x15,x17	 x15:0x80009fc4 x17:0x00000000 x19=0x80009fc4
       97195000	      9718	8000025c	012cf033	and	x0,x25,x18	 x25:0x80009f84 x18:0xbdbb479c
       97205000	      9719	80000260	5565a913	slti	x18,x11,1366	 x11:0xffffffff x18=0x00000001
       97215000	      9720	80000264	4127d933	sra	x18,x15,x18	 x15:0x80009fc4 x18:0x00000001 x18=0xc0004fe2
       97225000	      9721	80000268	ba043d13	sltiu	x26,x8,-1120	  x8:0xfffff9aa x26=0x00000001
       97235000	      9722	8000026c	026be463	bltu	x23,x6,80000294	 x23:0x00000089  x6:0xbdbb4000
       97245000	      9723	00000000	00000013	addi	x0,x0,0	  x0:0x00000000
       97255000	      9724	80000290	00000013	addi	x0,x0,0	  x0:0x00000000
       97265000	      9725	80000294	00000013	addi	x0,x0,0	  x0:0x00000000
       97275000	      9726	80000298	0281d863	bge	x3,x8,800002c8	  x3:0x00000000  x8:0xfffff9aa
       97285000	      9727	00000000	00000013	addi	x0,x0,0	  x0:0x00000000
       97295000	      9728	800002c4	00000013	addi	x0,x0,0	  x0:0x00000000
       97305000	      9729	800002c8	41ef5d93	srai	x27,x30,0x1e	 x30:0xe29c2200 x27=0xffffffff
       97315000	      9730	800002cc	1c2caa13	slti	x20,x25,450	 x25:0x80009f84 x20=0x00000001
       97325000	      9731	800002d0	0089a2b3	slt	x5,x19,x8	 x19:0x80009fc4  x8:0xfffff9aa  x5=0x00000001
       97335000	      9732	800002d4	e8d24e13	xori	x28,x4,-371	  x4:0x80000000 x28=0x7ffffe8d
       97345000	      9733	800002d8	00d9b033	sltu	x0,x19,x13	 x19:0x80009fc4 x13:0xd95ac000
       97355000	      9734	800002dc	2f10b213	sltiu	x4,x1,753	  x1:0x00000000  x4=0x00000001
       97365000	      9735	800002e0	418b5a33	sra	x20,x22,x24	 x22:0x00000000 x24:0x0000003f x20=0x00000000
       97375000	      9736	800002e4	0151cd33	xor	x26,x3,x21	  x3:0x00000000 x21:0x00000000 x26=0x00000000
       97385000	      9737	800002e8	0276ce63	blt	x13,x7,80000324	 x13:0xd95ac000  x7:0xffffffff
       97395000	      9738	00000000	00000013	addi	x0,x0,0	  x0:0x00000000
       97405000	      9739	80000320	00000013	addi	x0,x0,0	  x0:0x00000000
       97415000	      9740	80000324	010b15b3	sll	x11,x22,x16	 x22:0x00000000 x16:0x0004fa20 x11=0x00000000
       97425000	      9741	80000328	8aa814b7	lui	x9,0x8aa81	  x9=0x8aa81000
       97435000	      9742	8000032c	01caec33	or	x24,x21,x28	 x21:0x00000000 x28:0x7ffffe8d x24=0x7ffffe8d
       97445000	      9743	80000330	1b647d93	andi	x27,x8,438	  x8:0xfffff9aa x27=0x000001a2
       97455000	      9744	80000334	01c1dd13	srli	x26,x3,0x1c	  x3:0x00000000 x26=0x00000000
       97465000	      9745	80000338	41e18ab3	sub	x21,x3,x30	  x3:0x00000000 x30:0xe29c2200 x21=0x1d63de00
       97475000	      9746	8000033c	00000013	addi	x0,x0,0	  x0:0x00000000
       97485000	      9747	80000340	530b3393	sltiu	x7,x22,1328	 x22:0x00000000  x7=0x00000001
       97495000	      9748	80000344	2384cc13	xori	x24,x9,568	  x9:0x8aa81000 x24=0x8aa81238
       97505000	      9749	80000348	01060a63	beq	x12,x16,8000035c	 x12:0x636ec52c x16:0x0004fa20
       97515000	      9750	8000034c	30f95d17	auipc	x26,0x30f95	 x26=0xb0f95348
       97525000	      9751	80000350	00c27e33	and	x28,x4,x12	  x4:0x00000001 x12:0x636ec52c x28=0x00000000
       97535000	      9752	80000354	01897933	and	x18,x18,x24	 x18:0xc0004fe2 x24:0x8aa81238 x18=0x80000220
       97545000	      9753	80000358	0028d263	bge	x17,x2,8000035c	 x17:0x00000000  x2:0xaa8dd69f
       97555000	      9754	00000000	00000013	addi	x0,x0,0	  x0:0x00000000
       97565000	      9755	80000358	00000013	addi	x0,x0,0	  x0:0x00000000
       97575000	      9756	8000035c	8b35a737	lui	x14,0x8b35a	 x14=0x8b35a000
       97585000	      9757	80000360	0082e463	bltu	x5,x8,80000368	  x5:0x00000001  x8:0xfffff9aa
       97595000	      9758	00000000	00000013	addi	x0,x0,0	  x0:0x00000000
       97605000	      9759	80000364	00000013	addi	x0,x0,0	  x0:0x00000000
       97615000	      9760	80000368	027e6263	bltu	x28,x7,8000038c	 x28:0x00000000  x7:0x00000001
       97625000	      9761	00000000	00000013	addi	x0,x0,0	  x0:0x00000000
       97635000	      9762	80000388	00000013	addi	x0,x0,0	  x0:0x00000000
       97645000	      9763	8000038c	0034b5b3	sltu	x11,x9,x3	  x9:0x8aa81000  x3:0x00000000 x11=0x00000000
       97655000	      9764	80000390	02507863	bgeu	x0,x5,800003c0	  x0:0x00000000  x5:0x00000001
       97665000	      9765	80000394	d8bb2437	lui	x8,0xd8bb2	  x8=0xd8bb2000
       97675000	      9766	80000398	018188b3	add	x17,x3,x24	  x3:0x00000000 x24:0x8aa81238 x17=0x8aa81238
       97685000	      9767	8000039c	01b2be33	sltu	x28,x5,x27	  x5:0x00000001 x27:0x000001a2 x28=0x00000001
       97695000	      9768	800003a0	c5890213	addi	x4,x18,-936	 x18:0x80000220  x4=0x7ffffe78
       97705000	      9769	800003a4	40745713	srai	x14,x8,0x7	  x8:0xd8bb2000 x14=0xffb17640
       97715000	      9770	800003a8	01960ab3	add	x21,x12,x25	 x12:0x636ec52c x25:0x80009f84 x21=0xe36f64b0
       97725000	      9771	800003ac	01b77bb3	and	x23,x14,x27	 x14:0xffb17640 x27:0x000001a2 x23=0x00000000
       97735000	      9772	800003b0	00221013	slli	x0,x4,0x2	  x4:0x7ffffe78
       97745000	      9773	800003b4	00000013	addi	x0,x0,0	  x0:0x00000000
       97755000	      9774	800003b8	e16af993	andi	x19,x21,-490	 x21:0xe36f64b0 x19=0xe36f6410
       97765000	      9775	800003bc	05f1e293	ori	x5,x3,95	  x3:0x00000000  x5=0x0000005f
       97775000	      9776	800003c0	05b75663	bge	x14,x27,8000040c	 x14:0xffb17640 x27:0x000001a2
       97785000	      9777	800003c4	6f55fa13	andi	x20,x11,1781	 x11:0x00000000 x20=0x00000000
       97795000	      9778	800003c8	10df4d13	xori	x26,x30,269	 x30:0xe29c2200 x26=0xe29c230d
       97805000	      9779	800003cc	01d1f833	and	x16,x3,x29	  x3:0x00000000 x29:0x00000000 x16=0x00000000
       97815000	      9780	800003d0	03f39863	bne	x7,x31,80000400	  x7:0x00000001 x31:0x27d10000
       97825000	      9781	00000000	00000013	addi	x0,x0,0	  x0:0x00000000
       97835000	      9782	800003fc	00000013	addi	x0,x0,0	  x0:0x00000000
       97845000	      9783	80000400	93232f93	slti	x31,x6,-1742	  x6:0xbdbb4000 x31=0x00000001
       97855000	      9784	80000404	00607b33	and	x22,x0,x6	  x0:0x00000000  x6:0xbdbb4000 x22=0x00000000
       97865000	      9785	80000408	6bad6e13	ori	x28,x26,1722	 x26:0xe29c230d x28=0xe29c27bf
       97875000	      9786	8000040c	41030f33	sub	x30,x6,x16	  x6:0xbdbb4000 x16:0x00000000 x30=0xbdbb4000
       97885000	      9787	80000410	0270ca63	blt	x1,x7,80000444	  x1:0x00000000  x7:0x00000001
       97895000	      9788	00000000	00000013	addi	x0,x0,0	  x0:0x00000000
       97905000	      9789	80000440	00000013	addi	x0,x0,0	  x0:0x00000000
       97915000	      9790	80000444	0379da63	bge	x19,x23,80000478	 x19:0xe36f6410 x23:0x00000000
       97925000	      9791	80000448	006aea33	or	x20,x21,x6	 x21:0xe36f64b0  x6:0xbdbb4000 x20=0xffff64b0
       97935000	      9792	8000044c	00f51f93	slli	x31,x10,0xf	 x10:0x0000020a x31=0x01050000
       97945000	      9793	80000450	01d2f033	and	x0,x5,x29	  x5:0x0000005f x29:0x00000000
       97955000	      9794	80000454	40acd433	sra	x8,x25,x10	 x25:0x80009f84 x10:0x0000020a  x8=0xffe00027
       97965000	      9795	80000458	41aac4b7	lui	x9,0x41aac	  x9=0x41aac000
       97975000	      9796	8000045c	015b9e63	bne	x23,x21,80000478	 x23:0x00000000 x21:0xe36f64b0
       97985000	      9797	00000000	00000013	addi	x0,x0,0	  x0:0x00000000
       97995000	      9798	80000474	00000013	addi	x0,x0,0	  x0:0x00000000
       98005000	      9799	80000478	00d89e93	slli	x29,x17,0xd	 x17:0x8aa81238 x29=0x02470000
       98015000	      9800	8000047c	82020b13	addi	x22,x4,-2016	  x4:0x7ffffe78 x22=0x7ffff698
       98025000	      9801	80000480	00c8d733	srl	x14,x17,x12	 x17:0x8aa81238 x12:0x636ec52c x14=0x0008aa81
       98035000	      9802	80000484	a5d9bb93	sltiu	x23,x19,-1443	 x19:0xe36f6410 x23=0x00000001
       98045000	      9803	80000488	01439db3	sll	x27,x7,x20	  x7:0x00000001 x20:0xffff64b0 x27=0x00010000
       98055000	      9804	8000048c	002e8533	add	x10,x29,x2	 x29:0x02470000  x2:0xaa8dd69f x10=0xacd4d69f
       98065000	      9805	80000490	00336333	or	x6,x6,x3	  x6:0xbdbb4000  x3:0x00000000  x6=0xbdbb4000
       98075000	      9806	80000494	00bda4b3	slt	x9,x27,x11	 x27:0x00010000 x11:0x00000000  x9=0x00000000
       98085000	      9807	80000498	00f79b33	sll	x22,x15,x15	 x15:0x80009fc4 x15:0x80009fc4 x22=0x0009fc40
       98095000	      9808	8000049c	0163c263	blt	x7,x22,800004a0	  x7:0x00000001 x22:0x0009fc40
       98105000	      9809	00000000	00000013	addi	x0,x0,0	  x0:0x00000000
       98115000	      9810	8000049c	00000013	addi	x0,x0,0	  x0:0x00000000
       98125000	      9811	800004a0	30d9c713	xori	x14,x19,781	 x19:0xe36f6410 x14=0xe36f671d
       98135000	      9812	800004a4	03fd8663	beq	x27,x31,800004d0	 x27:0x00010000 x31:0x01050000
       98145000	      9813	800004a8	b6331297	auipc	x5,0xb6331	  x5=0x363314a4
       98155000	      9814	800004ac	416d0ab3	sub	x21,x26,x22	 x26:0xe29c230d x22:0x0009fc40 x21=0xe29226cd
       98165000	      9815	800004b0	05f70063	beq	x14,x31,800004f0	 x14:0xe36f671d x31:0x01050000
       98175000	      9816	800004b4	01508c33	add	x24,x1,x21	  x1:0x00000000 x21:0xe29226cd x24=0xe29226cd
       98185000	      9817	800004b8	0062f6b3	and	x13,x5,x6	  x5:0x363314a4  x6:0xbdbb4000 x13=0x34330000
       98195000	      9818	800004bc	01e75393	srli	x7,x14,0x1e	 x14:0xe36f671d  x7=0x00000003
       98205000	      9819	800004c0	03395063	bge	x18,x19,800004e0	 x18:0x80000220 x19:0xe36f6410
       98215000	      9820	800004c4	594cbe93	sltiu	x29,x25,1428	 x25:0x80009f84 x29=0x00000000
       98225000	      9821	800004c8	0005cf33	xor	x30,x11,x0	 x11:0x00000000  x0:0x00000000 x30=0x00000000
       98235000	      9822	800004cc	0021eb33	or	x22,x3,x2	  x3:0x00000000  x2:0xaa8dd69f x22=0xaa8dd69f
       98245000	      9823	800004d0	40abd013	srai	x0,x23,0xa	 x23:0x00000001
       98255000	      9824	800004d4	40d20533	sub	x10,x4,x13	  x4:0x7ffffe78 x13:0x34330000 x10=0x4bccfe78
       98265000	      9825	800004d8	01af5463	bge	x30,x26,800004e0	 x30:0x00000000 x26:0xe29c230d
       98275000	      9826	00000000	00000013	addi	x0,x0,0	  x0:0x00000000
       98285000	      9827	800004dc	00000013	addi	x0,x0,0	  x0:0x00000000
       98295000	      9828	800004e0	035dc263	blt	x27,x21,80000504	 x27:0x00010000 x21:0xe29226cd
       98305000	      9829	800004e4	0005db13	srli	x22,x11,0x0	 x11:0x00000000 x22=0x00000000
       98315000	      9830	800004e8	b102c893	xori	x17,x5,-1264	  x5:0x363314a4 x17=0xc9ccefb4
       98325000	      9831	800004ec	40bc5613	srai	x12,x24,0xb	 x24:0xe29226cd x12=0xfffc5244
       98335000	      9832	800004f0	4147dc33	sra	x24,x15,x20	 x15:0x80009fc4 x20:0xffff64b0 x24=0xffff8000
       98345000	      9833	800004f4	409b0433	sub	x8,x22,x9	 x22:0x00000000  x9:0x00000000  x8=0x00000000
       98355000	      9834	800004f8	018aaeb3	slt	x29,x21,x24	 x21:0xe29226cd x24:0xffff8000 x29=0x00000001
       98365000	      9835	800004fc	0061e233	or	x4,x3,x6	  x3:0x00000000  x6:0xbdbb4000  x4=0xbdbb4000
       98375000	      9836	80000500	f3f2c393	xori	x7,x5,-193	  x5:0x363314a4  x7=0xc9cceb9b
       98385000	      9837	80000504	9f96f413	andi	x8,x13,-1543	 x13:0x34330000  x8=0x34330000
       98395000	      9838	80000508	003dfdb3	and	x27,x27,x3	 x27:0x00010000  x3:0x00000000 x27=0x00000000
       98405000	      9839	8000050c	00000013	addi	x0,x0,0	  x0:0x00000000
       98415000	      9840	80000510	00f8de93	srli	x29,x17,0xf	 x17:0xc9ccefb4 x29=0x00019399
       98425000	      9841	80000514	00000013	addi	x0,x0,0	  x0:0x00000000
       98435000	      9842	80000518	01cb0eb3	add	x29,x22,x28	 x22:0x00000000 x28:0xe29c27bf x29=0xe29c27bf
       98445000	      9843	8000051c	02f80c63	beq	x16,x15,80000554	 x16:0x00000000 x15:0x80009fc4
       98455000	      9844	80000520	410904b3	sub	x9,x18,x16	 x18:0x80000220 x16:0x00000000  x9=0x80000220
       98465000	      9845	80000524	032c5c63	bge	x24,x18,8000055c	 x24:0xffff8000 x18:0x80000220
       98475000	      9846	00000000	00000013	addi	x0,x0,0	  x0:0x00000000
       98485000	      9847	80000558	00000013	addi	x0,x0,0	  x0:0x00000000
       98495000	      9848	8000055c	00000013	addi	x0,x0,0	  x0:0x00000000
       98505000	      9849	80000560	40728433	sub	x8,x5,x7	  x5:0x363314a4  x7:0xc9cceb9b  x8=0x6c662909
       98515000	      9850	80000564	0104bd33	sltu	x26,x9,x16	  x9:0x80000220 x16:0x00000000 x26=0x00000000
       98525000	      9851	80000568	00000117	auipc	x2,0x0	  x2=0x80000564
       98535000	      9852	8000056c	00c10113	addi	x2,x2,12	  x2:0x80000564  x2=0x80000570
       98545000	      9853	80000570	00010067	jalr	x0,x2,0	  x2:0x80000570
       98555000	      9854	00000000	00000013	addi	x0,x0,0	  x0:0x00000000
       98565000	      9855	80000570	00000013	addi	x0,x0,0	  x0:0x00000000
       98575000	      9856	80000574	00100193	addi	x3,x0,1	  x0:0x00000000  x3=0x00000001
       98585000	      9857	80000578	00000073	ecall	
       98595000	      9858	8000057c	00cd9263	bne	x27,x12,80000580	 x27:0x00000000 x12:0xfffc5244
