		Time			Cycle	PC		Insn	Decoded instruction	Register and memory contents
          65000	         5	80000004	00000293	addi	x5,x0,0	  x0:0x00000000  x5=0x00000000
          75000	         6	80000008	00000313	addi	x6,x0,0	  x0:0x00000000  x6=0x00000000
          85000	         7	8000000c	00628263	beq	x5,x6,80000010	  x5:0x00000000  x6:0x00000000
          95000	         8	00000000	00000013	addi	x0,x0,0	  x0:0x00000000
         105000	         9	8000000c	00000013	addi	x0,x0,0	  x0:0x00000000
         115000	        10	80000010	00000917	auipc	x18,0x0	 x18=0x8000000c
         125000	        11	80000014	00c90913	addi	x18,x18,12	 x18:0x8000000c x18=0x80000018
         135000	        12	80000018	00090067	jalr	x0,x18,0	 x18:0x80000018
         145000	        13	00000000	00000013	addi	x0,x0,0	  x0:0x00000000
         155000	        14	80000018	00000013	addi	x0,x0,0	  x0:0x00000000
         165000	        15	8000001c	40000cb7	lui	x25,0x40000	 x25=0x40000000
         175000	        16	80000020	100c8c93	addi	x25,x25,256	 x25:0x40000000 x25=0x40000100
         185000	        17	80000024	00000013	addi	x0,x0,0	  x0:0x00000000
         195000	        18	80000028	0000aa97	auipc	x21,0xa	 x21=0x8000a024
         205000	        19	8000002c	fa0a8a93	addi	x21,x21,-96	 x21:0x8000a024 x21=0x80009fc4
         215000	        20	80000030	00007c97	auipc	x25,0x7	 x25=0x8000702c
         225000	        21	80000034	c00c8c93	addi	x25,x25,-1024	 x25:0x8000702c x25=0x80006c2c
         235000	        22	80000038	000cec93	ori	x25,x25,0	 x25:0x80006c2c x25=0x80006c2c
         245000	        23	8000003c	00000013	addi	x0,x0,0	  x0:0x00000000
         255000	        24	80000040	00000c97	auipc	x25,0x0	 x25=0x8000003c
         265000	        25	80000044	020c8c93	addi	x25,x25,32	 x25:0x8000003c x25=0x8000005c
         275000	        26	80000048	00000013	addi	x0,x0,0	  x0:0x00000000
         285000	        27	8000004c	00000013	addi	x0,x0,0	  x0:0x00000000
         295000	        28	80000050	00002cb7	lui	x25,0x2	 x25=0x00002000
         305000	        29	80000054	800c8c93	addi	x25,x25,-2048	 x25:0x00002000 x25=0x00001800
         315000	        30	80000058	00000013	addi	x0,x0,0	  x0:0x00000000
         325000	        31	8000005c	00000013	addi	x0,x0,0	  x0:0x00000000
         335000	        32	80000060	00c00013	addi	x0,x0,12	  x0:0x00000000
         345000	        33	80000064	d09b30b7	lui	x1,0xd09b3	  x1=0xd09b3000
         355000	        34	80000068	ee208093	addi	x1,x1,-286	  x1:0xd09b3000  x1=0xd09b2ee2
         365000	        35	8000006c	80000137	lui	x2,0x80000	  x2=0x80000000
         375000	        36	80000070	00a00193	addi	x3,x0,10	  x0:0x00000000  x3=0x0000000a
         385000	        37	80000074	0ac7c237	lui	x4,0xac7c	  x4=0x0ac7c000
         395000	        38	80000078	bc220213	addi	x4,x4,-1086	  x4:0x0ac7c000  x4=0x0ac7bbc2
         405000	        39	8000007c	800002b7	lui	x5,0x80000	  x5=0x80000000
         415000	        40	80000080	00700313	addi	x6,x0,7	  x0:0x00000000  x6=0x00000007
         425000	        41	80000084	00000393	addi	x7,x0,0	  x0:0x00000000  x7=0x00000000
         435000	        42	80000088	80000437	lui	x8,0x80000	  x8=0x80000000
         445000	        43	8000008c	b724e4b7	lui	x9,0xb724e	  x9=0xb724e000
         455000	        44	80000090	4b448493	addi	x9,x9,1204	  x9:0xb724e000  x9=0xb724e4b4
         465000	        45	80000094	fa48c537	lui	x10,0xfa48c	 x10=0xfa48c000
         475000	        46	80000098	1e450513	addi	x10,x10,484	 x10:0xfa48c000 x10=0xfa48c1e4
         485000	        47	8000009c	bb03b5b7	lui	x11,0xbb03b	 x11=0xbb03b000
         495000	        48	800000a0	a9e58593	addi	x11,x11,-1378	 x11:0xbb03b000 x11=0xbb03aa9e
         505000	        49	800000a4	00000613	addi	x12,x0,0	  x0:0x00000000 x12=0x00000000
         515000	        50	800000a8	00c00693	addi	x13,x0,12	  x0:0x00000000 x13=0x0000000c
         525000	        51	800000ac	fc4447b7	lui	x15,0xfc444	 x15=0xfc444000
         535000	        52	800000b0	5e278793	addi	x15,x15,1506	 x15:0xfc444000 x15=0xfc4445e2
         545000	        53	800000b4	80000837	lui	x16,0x80000	 x16=0x80000000
         555000	        54	800000b8	d2a538b7	lui	x17,0xd2a53	 x17=0xd2a53000
         565000	        55	800000bc	78088893	addi	x17,x17,1920	 x17:0xd2a53000 x17=0xd2a53780
         575000	        56	800000c0	80000937	lui	x18,0x80000	 x18=0x80000000
         585000	        57	800000c4	800009b7	lui	x19,0x80000	 x19=0x80000000
         595000	        58	800000c8	00000a13	addi	x20,x0,0	  x0:0x00000000 x20=0x00000000
         605000	        59	800000cc	00a00b13	addi	x22,x0,10	  x0:0x00000000 x22=0x0000000a
         615000	        60	800000d0	76aa0bb7	lui	x23,0x76aa0	 x23=0x76aa0000
         625000	        61	800000d4	960b8b93	addi	x23,x23,-1696	 x23:0x76aa0000 x23=0x76a9f960
         635000	        62	800000d8	b9b8fc37	lui	x24,0xb9b8f	 x24=0xb9b8f000
         645000	        63	800000dc	450c0c13	addi	x24,x24,1104	 x24:0xb9b8f000 x24=0xb9b8f450
         655000	        64	800000e0	80000cb7	lui	x25,0x80000	 x25=0x80000000
         665000	        65	800000e4	80000d37	lui	x26,0x80000	 x26=0x80000000
         675000	        66	800000e8	00000d93	addi	x27,x0,0	  x0:0x00000000 x27=0x00000000
         685000	        67	800000ec	00100e13	addi	x28,x0,1	  x0:0x00000000 x28=0x00000001
         695000	        68	800000f0	00000e93	addi	x29,x0,0	  x0:0x00000000 x29=0x00000000
         705000	        69	800000f4	80000f37	lui	x30,0x80000	 x30=0x80000000
         715000	        70	800000f8	ff5f1fb7	lui	x31,0xff5f1	 x31=0xff5f1000
         725000	        71	800000fc	6e0f8f93	addi	x31,x31,1760	 x31:0xff5f1000 x31=0xff5f16e0
         735000	        72	80000100	0000a717	auipc	x14,0xa	 x14=0x8000a0fc
         745000	        73	80000104	e8870713	addi	x14,x14,-376	 x14:0x8000a0fc x14=0x80009f84
         755000	        74	80000108	8f191817	auipc	x16,0x8f191	 x16=0x0f191104
         765000	        75	8000010c	4120d993	srai	x19,x1,0x12	  x1:0xd09b2ee2 x19=0xfffff426
         775000	        76	80000110	00003f17	auipc	x30,0x3	 x30=0x8000310c
         785000	        77	80000114	6c4f0f13	addi	x30,x30,1732	 x30:0x8000310c x30=0x800037d0
         795000	        78	80000118	0961c593	xori	x11,x3,150	  x3:0x0000000a x11=0x0000009c
         805000	        79	8000011c	0150f5b3	and	x11,x1,x21	  x1:0xd09b2ee2 x21:0x80009fc4 x11=0x80000ec0
         815000	        80	80000120	06c1e817	auipc	x16,0x6c1e	 x16=0x86c1e11c
         825000	        81	80000124	dfbf0f13	addi	x30,x30,-517	 x30:0x800037d0 x30=0x800035cb
         835000	        82	80000128	001c49b3	xor	x19,x24,x1	 x24:0xb9b8f450  x1:0xd09b2ee2 x19=0x6923dab2
         845000	        83	8000012c	00dea2b3	slt	x5,x29,x13	 x29:0x00000000 x13:0x0000000c  x5=0x00000001
         855000	        84	80000130	00a49113	slli	x2,x9,0xa	  x9:0xb724e4b4  x2=0x9392d000
         865000	        85	80000134	206f00e7	jalr	x1,x30,518	 x30:0x800035cb  x1=0x80000134
         875000	        86	00000000	00000013	addi	x0,x0,0	  x0:0x00000000
         885000	        87	800037d0	00000013	addi	x0,x0,0	  x0:0x00000000
         895000	        88	800037d4	013a5bb3	srl	x23,x20,x19	 x20:0x00000000 x19:0x6923dab2 x23=0x00000000
         905000	        89	800037d8	004ffc33	and	x24,x31,x4	 x31:0xff5f16e0  x4:0x0ac7bbc2 x24=0x0a4712c0
         915000	        90	800037dc	01c05863	bge	x0,x28,800037ec	  x0:0x00000000 x28:0x00000001
         925000	        91	800037e0	00d84333	xor	x6,x16,x13	 x16:0x86c1e11c x13:0x0000000c  x6=0x86c1e110
         935000	        92	800037e4	4071d9b3	sra	x19,x3,x7	  x3:0x0000000a  x7:0x00000000 x19=0x0000000a
         945000	        93	800037e8	920ff993	andi	x19,x31,-1760	 x31:0xff5f16e0 x19=0xff5f1020
         955000	        94	800037ec	fd070713	addi	x14,x14,-48	 x14:0x80009f84 x14=0x80009f54
         965000	        95	800037f0	00172223	sw	x1,4(x14)	 x14:0x80009f54  x1:0x80000134 PA:0x80009f58
         975000	        96	800037f4	01d336b3	sltu	x13,x6,x29	  x6:0x86c1e110 x29:0x00000000 x13=0x00000000
         985000	        97	800037f8	ffffe697	auipc	x13,0xffffe	 x13=0x800017f4
         995000	        98	800037fc	98c68693	addi	x13,x13,-1652	 x13:0x800017f4 x13=0x80001180
        1005000	        99	80003800	3984ef93	ori	x31,x9,920	  x9:0xb724e4b4 x31=0xb724e7bc
        1015000	       100	80003804	003fbfb3	sltu	x31,x31,x3	 x31:0xb724e7bc  x3:0x0000000a x31=0x00000000
        1025000	       101	80003808	01775313	srli	x6,x14,0x17	 x14:0x80009f54  x6=0x00000100
        1035000	       102	8000380c	01d272b3	and	x5,x4,x29	  x4:0x0ac7bbc2 x29:0x00000000  x5=0x00000000
        1045000	       103	80003810	00000013	addi	x0,x0,0	  x0:0x00000000
        1055000	       104	80003814	dfd68693	addi	x13,x13,-515	 x13:0x80001180 x13=0x80000f7d
        1065000	       105	80003818	1a866997	auipc	x19,0x1a866	 x19=0x9a869814
        1075000	       106	8000381c	204680e7	jalr	x1,x13,516	 x13:0x80000f7d  x1=0x8000381c
        1085000	       107	00000000	00000013	addi	x0,x0,0	  x0:0x00000000
        1095000	       108	80001180	00000013	addi	x0,x0,0	  x0:0x00000000
        1105000	       109	80001184	0018c263	blt	x17,x1,80001188	 x17:0xd2a53780  x1:0x8000381c
        1115000	       110	80001188	fd870713	addi	x14,x14,-40	 x14:0x80009f54 x14=0x80009f2c
        1125000	       111	8000118c	00c05893	srli	x17,x0,0xc	  x0:0x00000000 x17=0x00000000
        1135000	       112	80001190	00172223	sw	x1,4(x14)	 x14:0x80009f2c  x1:0x8000381c PA:0x80009f30
        1145000	       113	80001194	00000013	addi	x0,x0,0	  x0:0x00000000
        1155000	       114	80001198	159cf617	auipc	x12,0x159cf	 x12=0x959d0194
        1165000	       115	8000119c	401606b3	sub	x13,x12,x1	 x12:0x959d0194  x1:0x8000381c x13=0x159cc978
        1175000	       116	800011a0	41ca8bb3	sub	x23,x21,x28	 x21:0x80009fc4 x28:0x00000001 x23=0x80009fc3
        1185000	       117	800011a4	01e2ac33	slt	x24,x5,x30	  x5:0x00000000 x30:0x800035cb x24=0x00000000
        1195000	       118	800011a8	00007b97	auipc	x23,0x7	 x23=0x800081a4
        1205000	       119	800011ac	201b8b93	addi	x23,x23,513	 x23:0x800081a4 x23=0x800083a5
        1215000	       120	800011b0	ff5bdf03	lhu	x30,-11(x23)	 x23:0x800083a5 x30=0x00000000 PA:0x8000839a
        1225000	       121	800011b4	010b86a3	sb	x16,13(x23)	 x23:0x800083a5 x16:0x86c1e11c PA:0x800083b2
        1235000	       122	800011b8	b1788593	addi	x11,x17,-1257	 x17:0x00000000 x11=0xfffffb17
        1245000	       123	800011bc	a2e37cb7	lui	x25,0xa2e37	 x25=0xa2e37000
        1255000	       124	800011c0	fdfbac83	lw	x25,-33(x23)	 x23:0x800083a5 x25=0x00000000 PA:0x80008384
        1265000	       125	800011c4	00bc7e33	and	x28,x24,x11	 x24:0x00000000 x11:0xfffffb17 x28=0x00000000
        1275000	       126	800011c8	6487b7b7	lui	x15,0x6487b	 x15=0x6487b000
        1285000	       127	800011cc	026b8383	lb	x7,38(x23)	 x23:0x800083a5  x7=0x00000000 PA:0x800083cb
        1295000	       128	800011d0	021b9283	lh	x5,33(x23)	 x23:0x800083a5  x5=0x00000000 PA:0x800083c6
        1305000	       129	800011d4	012b8423	sb	x18,8(x23)	 x23:0x800083a5 x18:0x80000000 PA:0x800083ad
        1315000	       130	800011d8	01f791b3	sll	x3,x15,x31	 x15:0x6487b000 x31:0x00000000  x3=0x6487b000
        1325000	       131	800011dc	f6190d93	addi	x27,x18,-159	 x18:0x80000000 x27=0x7fffff61
        1335000	       132	800011e0	022bc383	lbu	x7,34(x23)	 x23:0x800083a5  x7=0x00000000 PA:0x800083c7
        1345000	       133	800011e4	fedb92a3	sh	x13,-27(x23)	 x23:0x800083a5 x13:0x159cc978 PA:0x8000838a
        1355000	       134	800011e8	fecb8923	sb	x12,-14(x23)	 x23:0x800083a5 x12:0x959d0194 PA:0x80008397
        1365000	       135	800011ec	0681c093	xori	x1,x3,104	  x3:0x6487b000  x1=0x6487b068
        1375000	       136	800011f0	00eb8d83	lb	x27,14(x23)	 x23:0x800083a5 x27=0x00000000 PA:0x800083b3
        1385000	       137	800011f4	01031fb3	sll	x31,x6,x16	  x6:0x00000100 x16:0x86c1e11c x31=0x00000000
        1395000	       138	800011f8	2a915997	auipc	x19,0x2a915	 x19=0xaa9161f4
        1405000	       139	800011fc	be200113	addi	x2,x0,-1054	  x0:0x00000000  x2=0xfffffbe2
        1415000	       140	80001200	01f85813	srli	x16,x16,0x1f	 x16:0x86c1e11c x16=0x00000001
        1425000	       141	80001204	016bc303	lbu	x6,22(x23)	 x23:0x800083a5  x6=0x00000000 PA:0x800083bb
        1435000	       142	80001208	4249fd13	andi	x26,x19,1060	 x19:0xaa9161f4 x26=0x00000024
        1445000	       143	8000120c	022b8e23	sb	x2,60(x23)	 x23:0x800083a5  x2:0xfffffbe2 PA:0x800083e1
        1455000	       144	80001210	02bb8f23	sb	x11,62(x23)	 x23:0x800083a5 x11:0xfffffb17 PA:0x800083e3
        1465000	       145	80001214	408fddb3	sra	x27,x31,x8	 x31:0x00000000  x8:0x80000000 x27=0x00000000
        1475000	       146	80001218	5db63e93	sltiu	x29,x12,1499	 x12:0x959d0194 x29=0x00000000
        1485000	       147	8000121c	2e2a7d13	andi	x26,x20,738	 x20:0x00000000 x26=0x00000000
        1495000	       148	80001220	034b8783	lb	x15,52(x23)	 x23:0x800083a5 x15=0x00000000 PA:0x800083d9
        1505000	       149	80001224	ff9b8823	sb	x25,-16(x23)	 x23:0x800083a5 x25:0x00000000 PA:0x80008395
        1515000	       150	80001228	00415093	srli	x1,x2,0x4	  x2:0xfffffbe2  x1=0x0fffffbe
        1525000	       151	8000122c	77e20d93	addi	x27,x4,1918	  x4:0x0ac7bbc2 x27=0x0ac7c340
        1535000	       152	80001230	a0537d93	andi	x27,x6,-1531	  x6:0x00000000 x27=0x00000000
        1545000	       153	80001234	6a2a6493	ori	x9,x20,1698	 x20:0x00000000  x9=0x000006a2
        1555000	       154	80001238	6b34ec97	auipc	x25,0x6b34e	 x25=0xeb34f234
        1565000	       155	8000123c	03ebc003	lbu	x0,62(x23)	 x23:0x800083a5 PA:0x800083e3
        1575000	       156	80001240	00888133	add	x2,x17,x8	 x17:0x00000000  x8:0x80000000  x2=0x80000000
        1585000	       157	80001244	014bcf83	lbu	x31,20(x23)	 x23:0x800083a5 x31=0x00000000 PA:0x800083b9
        1595000	       158	80001248	a4f66e13	ori	x28,x12,-1457	 x12:0x959d0194 x28=0xfffffbdf
        1605000	       159	8000124c	90c63b13	sltiu	x22,x12,-1780	 x12:0x959d0194 x22=0x00000001
        1615000	       160	80001250	03db8f03	lb	x30,61(x23)	 x23:0x800083a5 x30=0x00000000 PA:0x800083e2
        1625000	       161	80001254	036bce83	lbu	x29,54(x23)	 x23:0x800083a5 x29=0x00000000 PA:0x800083db
        1635000	       162	80001258	fd9b95a3	sh	x25,-53(x23)	 x23:0x800083a5 x25:0xeb34f234 PA:0x80008370
        1645000	       163	8000125c	110d0f13	addi	x30,x26,272	 x26:0x00000000 x30=0x00000110
        1655000	       164	80001260	55475e37	lui	x28,0x55475	 x28=0x55475000
        1665000	       165	80001264	6dcfe397	auipc	x7,0x6dcfe	  x7=0xedcff260
        1675000	       166	80001268	fc6b8c03	lb	x24,-58(x23)	 x23:0x800083a5 x24=0x00000000 PA:0x8000836b
        1685000	       167	8000126c	02db8983	lb	x19,45(x23)	 x23:0x800083a5 x19=0x00000000 PA:0x800083d2
        1695000	       168	80001270	00007517	auipc	x10,0x7	 x10=0x8000826c
        1705000	       169	80001274	1e150513	addi	x10,x10,481	 x10:0x8000826c x10=0x8000844d
        1715000	       170	80001278	1cc50623	sb	x12,460(x10)	 x10:0x8000844d x12:0x959d0194 PA:0x80008619
        1725000	       171	8000127c	eda8de17	auipc	x28,0xeda8d	 x28=0x6da8e278
        1735000	       172	80001280	e6650623	sb	x6,-404(x10)	 x10:0x8000844d  x6:0x00000000 PA:0x800082b9
        1745000	       173	80001284	01036b33	or	x22,x6,x16	  x6:0x00000000 x16:0x00000001 x22=0x00000001
        1755000	       174	80001288	00d69333	sll	x6,x13,x13	 x13:0x159cc978 x13:0x159cc978  x6=0x78000000
        1765000	       175	8000128c	40a8d093	srai	x1,x17,0xa	 x17:0x00000000  x1=0x00000000
        1775000	       176	80001290	4086dd33	sra	x26,x13,x8	 x13:0x159cc978  x8:0x80000000 x26=0x159cc978
        1785000	       177	80001294	014291b3	sll	x3,x5,x20	  x5:0x00000000 x20:0x00000000  x3=0x00000000
        1795000	       178	80001298	c1050b03	lb	x22,-1008(x10)	 x10:0x8000844d x22=0x00000000 PA:0x8000805d
        1805000	       179	8000129c	979d3193	sltiu	x3,x26,-1671	 x26:0x159cc978  x3=0x00000001
        1815000	       180	800012a0	fd854803	lbu	x16,-40(x10)	 x10:0x8000844d x16=0x00000000 PA:0x80008425
        1825000	       181	800012a4	40918433	sub	x8,x3,x9	  x3:0x00000001  x9:0x000006a2  x8=0xfffff95f
        1835000	       182	800012a8	eb140693	addi	x13,x8,-335	  x8:0xfffff95f x13=0xfffff810
        1845000	       183	800012ac	d2450003	lb	x0,-732(x10)	 x10:0x8000844d PA:0x80008171
        1855000	       184	800012b0	fe51af93	slti	x31,x3,-27	  x3:0x00000001 x31=0x00000000
        1865000	       185	800012b4	e6910393	addi	x7,x2,-407	  x2:0x80000000  x7=0x7ffffe69
        1875000	       186	800012b8	ffd50d03	lb	x26,-3(x10)	 x10:0x8000844d x26=0x00000000 PA:0x8000844a
        1885000	       187	800012bc	4138d1b3	sra	x3,x17,x19	 x17:0x00000000 x19:0x00000000  x3=0x00000000
        1895000	       188	800012c0	00000013	addi	x0,x0,0	  x0:0x00000000
        1905000	       189	800012c4	eba50a23	sb	x26,-332(x10)	 x10:0x8000844d x26:0x00000000 PA:0x80008301
        1915000	       190	800012c8	f7c50483	lb	x9,-132(x10)	 x10:0x8000844d  x9=0x00000000 PA:0x800083c9
        1925000	       191	800012cc	34850ea3	sb	x8,861(x10)	 x10:0x8000844d  x8:0xfffff95f PA:0x800087aa
        1935000	       192	800012d0	55ad2c93	slti	x25,x26,1370	 x26:0x00000000 x25=0x00000001
        1945000	       193	800012d4	1b4a0193	addi	x3,x20,436	 x20:0x00000000  x3=0x000001b4
        1955000	       194	800012d8	24754283	lbu	x5,583(x10)	 x10:0x8000844d  x5=0x00000000 PA:0x80008694
        1965000	       195	800012dc	dc755683	lhu	x13,-569(x10)	 x10:0x8000844d x13=0x00000000 PA:0x80008214
        1975000	       196	800012e0	4141df13	srai	x30,x3,0x14	  x3:0x000001b4 x30=0x00000000
        1985000	       197	800012e4	405fd593	srai	x11,x31,0x5	 x31:0x00000000 x11=0x00000000
        1995000	       198	800012e8	0c850ca3	sb	x8,217(x10)	 x10:0x8000844d  x8:0xfffff95f PA:0x80008526
        2005000	       199	800012ec	018c5fb3	srl	x31,x24,x24	 x24:0x00000000 x24:0x00000000 x31=0x00000000
        2015000	       200	800012f0	d9354e83	lbu	x29,-621(x10)	 x10:0x8000844d x29=0x00000000 PA:0x800081e0
        2025000	       201	800012f4	d9454b83	lbu	x23,-620(x10)	 x10:0x8000844d x23=0x00000000 PA:0x800081e1
        2035000	       202	800012f8	fd250e23	sb	x18,-36(x10)	 x10:0x8000844d x18:0x80000000 PA:0x80008429
        2045000	       203	800012fc	31950783	lb	x15,793(x10)	 x10:0x8000844d x15=0x00000000 PA:0x80008766
        2055000	       204	80001300	405d06b3	sub	x13,x26,x5	 x26:0x00000000  x5:0x00000000 x13=0x00000000
        2065000	       205	80001304	d6a6d0b7	lui	x1,0xd6a6d	  x1=0xd6a6d000
        2075000	       206	80001308	00f55313	srli	x6,x10,0xf	 x10:0x8000844d  x6=0x00010001
        2085000	       207	8000130c	ebf51fa3	sh	x31,-321(x10)	 x10:0x8000844d x31:0x00000000 PA:0x8000830c
        2095000	       208	80001310	005b79b3	and	x19,x22,x5	 x22:0x00000000  x5:0x00000000 x19=0x00000000
        2105000	       209	80001314	00bd9d33	sll	x26,x27,x11	 x27:0x00000000 x11:0x00000000 x26=0x00000000
        2115000	       210	80001318	d8e73693	sltiu	x13,x14,-626	 x14:0x80009f2c x13=0x00000001
        2125000	       211	8000131c	e4950123	sb	x9,-446(x10)	 x10:0x8000844d  x9:0x00000000 PA:0x8000828f
        2135000	       212	80001320	00007217	auipc	x4,0x7	  x4=0x8000831c
        2145000	       213	80001324	26e20213	addi	x4,x4,622	  x4:0x8000831c  x4=0x8000858a
        2155000	       214	80001328	00c24a03	lbu	x20,12(x4)	  x4:0x8000858a x20=0x00000000 PA:0x80008596
        2165000	       215	8000132c	edb72c13	slti	x24,x14,-293	 x14:0x80009f2c x24=0x00000001
        2175000	       216	80001330	7a42e893	ori	x17,x5,1956	  x5:0x00000000 x17=0x000007a4
        2185000	       217	80001334	00f20c03	lb	x24,15(x4)	  x4:0x8000858a x24=0x00000000 PA:0x80008599
        2195000	       218	80001338	a7287a13	andi	x20,x16,-1422	 x16:0x00000000 x20=0x00000000
        2205000	       219	8000133c	01825483	lhu	x9,24(x4)	  x4:0x8000858a  x9=0x00000000 PA:0x800085a2
        2215000	       220	80001340	fc124c83	lbu	x25,-63(x4)	  x4:0x8000858a x25=0x00000000 PA:0x8000854b
        2225000	       221	80001344	8c38cd13	xori	x26,x17,-1853	 x17:0x000007a4 x26=0xffffff67
        2235000	       222	80001348	00035f33	srl	x30,x6,x0	  x6:0x00010001  x0:0x00000000 x30=0x00010001
        2245000	       223	8000134c	02720b23	sb	x7,54(x4)	  x4:0x8000858a  x7:0x7ffffe69 PA:0x800085c0
        2255000	       224	80001350	fed20b03	lb	x22,-19(x4)	  x4:0x8000858a x22=0x00000000 PA:0x80008577
        2265000	       225	80001354	fcd24e03	lbu	x28,-51(x4)	  x4:0x8000858a x28=0x00000000 PA:0x80008557
        2275000	       226	80001358	ff2207a3	sb	x18,-17(x4)	  x4:0x8000858a x18:0x80000000 PA:0x80008579
        2285000	       227	8000135c	a0340513	addi	x10,x8,-1533	  x8:0xfffff95f x10=0xfffff362
        2295000	       228	80001360	03720c23	sb	x23,56(x4)	  x4:0x8000858a x23:0x00000000 PA:0x800085c2
        2305000	       229	80001364	00124b33	xor	x22,x4,x1	  x4:0x8000858a  x1:0xd6a6d000 x22=0x56a6558a
        2315000	       230	80001368	00000013	addi	x0,x0,0	  x0:0x00000000
        2325000	       231	8000136c	00381093	slli	x1,x16,0x3	 x16:0x00000000  x1=0x00000000
        2335000	       232	80001370	00000013	addi	x0,x0,0	  x0:0x00000000
        2345000	       233	80001374	004c6e33	or	x28,x24,x4	 x24:0x00000000  x4:0x8000858a x28=0x8000858a
        2355000	       234	80001378	fd424c03	lbu	x24,-44(x4)	  x4:0x8000858a x24=0x00000000 PA:0x8000855e
        2365000	       235	8000137c	01720ca3	sb	x23,25(x4)	  x4:0x8000858a x23:0x00000000 PA:0x800085a3
        2375000	       236	80001380	ff025083	lhu	x1,-16(x4)	  x4:0x8000858a  x1=0x00000000 PA:0x8000857a
        2385000	       237	80001384	00007b17	auipc	x22,0x7	 x22=0x80008380
        2395000	       238	80001388	62cb0b13	addi	x22,x22,1580	 x22:0x80008380 x22=0x800089ac
        2405000	       239	8000138c	006b0d23	sb	x6,26(x22)	 x22:0x800089ac  x6:0x00010001 PA:0x800089c6
        2415000	       240	80001390	fc1b0483	lb	x9,-63(x22)	 x22:0x800089ac  x9=0x00000000 PA:0x8000896d
        2425000	       241	80001394	00da12b3	sll	x5,x20,x13	 x20:0x00000000 x13:0x00000001  x5=0x00000000
        2435000	       242	80001398	0028abb3	slt	x23,x17,x2	 x17:0x000007a4  x2:0x80000000 x23=0x00000000
        2445000	       243	8000139c	011e9393	slli	x7,x29,0x11	 x29:0x00000000  x7=0x00000000
        2455000	       244	800013a0	004eebb3	or	x23,x29,x4	 x29:0x00000000  x4:0x8000858a x23=0x8000858a
        2465000	       245	800013a4	fc5b4783	lbu	x15,-59(x22)	 x22:0x800089ac x15=0x00000000 PA:0x80008971
        2475000	       246	800013a8	414a0eb3	sub	x29,x20,x20	 x20:0x00000000 x20:0x00000000 x29=0x00000000
        2485000	       247	800013ac	01c25d13	srli	x26,x4,0x1c	  x4:0x8000858a x26=0x00000008
        2495000	       248	800013b0	009f6133	or	x2,x30,x9	 x30:0x00010001  x9:0x00000000  x2=0x00010001
        2505000	       249	800013b4	00004533	xor	x10,x0,x0	  x0:0x00000000  x0:0x00000000 x10=0x00000000
        2515000	       250	800013b8	013f8f33	add	x30,x31,x19	 x31:0x00000000 x19:0x00000000 x30=0x00000000
        2525000	       251	800013bc	025b0283	lb	x5,37(x22)	 x22:0x800089ac  x5=0x00000000 PA:0x800089d1
        2535000	       252	800013c0	fe7b0fa3	sb	x7,-1(x22)	 x22:0x800089ac  x7:0x00000000 PA:0x800089ab
        2545000	       253	800013c4	fd0b0003	lb	x0,-48(x22)	 x22:0x800089ac PA:0x8000897c
        2555000	       254	800013c8	01605f13	srli	x30,x0,0x16	  x0:0x00000000 x30=0x00000000
        2565000	       255	800013cc	fe8b1f83	lh	x31,-24(x22)	 x22:0x800089ac x31=0x00000000 PA:0x80008994
        2575000	       256	800013d0	007b0023	sb	x7,0(x22)	 x22:0x800089ac  x7:0x00000000 PA:0x800089ac
        2585000	       257	800013d4	fdab4c83	lbu	x25,-38(x22)	 x22:0x800089ac x25=0x00000000 PA:0x80008986
        2595000	       258	800013d8	008b5303	lhu	x6,8(x22)	 x22:0x800089ac  x6=0x00000000 PA:0x800089b4
        2605000	       259	800013dc	fc5b0f83	lb	x31,-59(x22)	 x22:0x800089ac x31=0x00000000 PA:0x80008971
        2615000	       260	800013e0	02db0983	lb	x19,45(x22)	 x22:0x800089ac x19=0x00000000 PA:0x800089d9
        2625000	       261	800013e4	fe0b04a3	sb	x0,-23(x22)	 x22:0x800089ac  x0:0x00000000 PA:0x80008995
        2635000	       262	800013e8	006ff833	and	x16,x31,x6	 x31:0x00000000  x6:0x00000000 x16=0x00000000
        2645000	       263	800013ec	41738633	sub	x12,x7,x23	  x7:0x00000000 x23:0x8000858a x12=0x7fff7a76
        2655000	       264	800013f0	022b1423	sh	x2,40(x22)	 x22:0x800089ac  x2:0x00010001 PA:0x800089d4
        2665000	       265	800013f4	ff1b0a03	lb	x20,-15(x22)	 x22:0x800089ac x20=0x00000000 PA:0x8000899d
        2675000	       266	800013f8	fd1b4d03	lbu	x26,-47(x22)	 x22:0x800089ac x26=0x00000000 PA:0x8000897d
        2685000	       267	800013fc	021b4603	lbu	x12,33(x22)	 x22:0x800089ac x12=0x00000000 PA:0x800089cd
        2695000	       268	80001400	fceb1d83	lh	x27,-50(x22)	 x22:0x800089ac x27=0x00000000 PA:0x8000897a
        2705000	       269	80001404	014c03b3	add	x7,x24,x20	 x24:0x00000000 x20:0x00000000  x7=0x00000000
        2715000	       270	80001408	fcfb0023	sb	x15,-64(x22)	 x22:0x800089ac x15:0x00000000 PA:0x8000896c
        2725000	       271	8000140c	00007497	auipc	x9,0x7	  x9=0x80008408
        2735000	       272	80001410	5cb48493	addi	x9,x9,1483	  x9:0x80008408  x9=0x800089d3
        2745000	       273	80001414	17897d13	andi	x26,x18,376	 x18:0x80000000 x26=0x00000000
        2755000	       274	80001418	fee48c83	lb	x25,-18(x9)	  x9:0x800089d3 x25=0x00000000 PA:0x800089c1
        2765000	       275	8000141c	0df48b83	lb	x23,223(x9)	  x9:0x800089d3 x23=0x00000000 PA:0x80008ab2
        2775000	       276	80001420	018ed333	srl	x6,x29,x24	 x29:0x00000000 x24:0x00000000  x6=0x00000000
        2785000	       277	80001424	f5f49d83	lh	x27,-161(x9)	  x9:0x800089d3 x27=0x00000000 PA:0x80008932
        2795000	       278	80001428	fb848883	lb	x17,-72(x9)	  x9:0x800089d3 x17=0x00000000 PA:0x8000898b
        2805000	       279	8000142c	fad4a103	lw	x2,-83(x9)	  x9:0x800089d3  x2=0x00000000 PA:0x80008980
        2815000	       280	80001430	01c955b3	srl	x11,x18,x28	 x18:0x80000000 x28:0x8000858a x11=0x00200000
        2825000	       281	80001434	b1894997	auipc	x19,0xb1894	 x19=0x31895430
        2835000	       282	80001438	416a0db3	sub	x27,x20,x22	 x20:0x00000000 x22:0x800089ac x27=0x7fff7654
        2845000	       283	8000143c	6100f993	andi	x19,x1,1552	  x1:0x00000000 x19=0x00000000
        2855000	       284	80001440	4039dd93	srai	x27,x19,0x3	 x19:0x00000000 x27=0x00000000
        2865000	       285	80001444	ff949783	lh	x15,-7(x9)	  x9:0x800089d3 x15=0x00000000 PA:0x800089cc
        2875000	       286	80001448	0514dd03	lhu	x26,81(x9)	  x9:0x800089d3 x26=0x00000000 PA:0x80008a24
        2885000	       287	8000144c	0b549203	lh	x4,181(x9)	  x9:0x800089d3  x4=0x00000000 PA:0x80008a88
        2895000	       288	80001450	f5c4c803	lbu	x16,-164(x9)	  x9:0x800089d3 x16=0x00000000 PA:0x8000892f
        2905000	       289	80001454	f604c203	lbu	x4,-160(x9)	  x9:0x800089d3  x4=0x00000000 PA:0x80008933
        2915000	       290	80001458	faf48e23	sb	x15,-68(x9)	  x9:0x800089d3 x15:0x00000000 PA:0x8000898f
        2925000	       291	8000145c	07448e23	sb	x20,124(x9)	  x9:0x800089d3 x20:0x00000000 PA:0x80008a4f
        2935000	       292	80001460	01263eb3	sltu	x29,x12,x18	 x12:0x00000000 x18:0x80000000 x29=0x00000001
        2945000	       293	80001464	40658d33	sub	x26,x11,x6	 x11:0x00200000  x6:0x00000000 x26=0x00200000
        2955000	       294	80001468	f5448d83	lb	x27,-172(x9)	  x9:0x800089d3 x27=0x00000000 PA:0x80008927
        2965000	       295	8000146c	0083d213	srli	x4,x7,0x8	  x7:0x00000000  x4=0x00000000
        2975000	       296	80001470	40bddb13	srai	x22,x27,0xb	 x27:0x00000000 x22=0x00000000
        2985000	       297	80001474	04c48d83	lb	x27,76(x9)	  x9:0x800089d3 x27=0x00000000 PA:0x80008a1f
        2995000	       298	80001478	10048f83	lb	x31,256(x9)	  x9:0x800089d3 x31=0x00000000 PA:0x80008ad3
        3005000	       299	8000147c	5dd27793	andi	x15,x4,1501	  x4:0x00000000 x15=0x00000000
        3015000	       300	80001480	09648b23	sb	x22,150(x9)	  x9:0x800089d3 x22:0x00000000 PA:0x80008a69
        3025000	       301	80001484	1353cd13	xori	x26,x7,309	  x7:0x00000000 x26=0x00000135
        3035000	       302	80001488	a9440d93	addi	x27,x8,-1388	  x8:0xfffff95f x27=0xfffff3f3
        3045000	       303	8000148c	41d15533	sra	x10,x2,x29	  x2:0x00000000 x29:0x00000001 x10=0x00000000
        3055000	       304	80001490	87d67c13	andi	x24,x12,-1923	 x12:0x00000000 x24=0x00000000
        3065000	       305	80001494	01a990b3	sll	x1,x19,x26	 x19:0x00000000 x26:0x00000135  x1=0x00000000
        3075000	       306	80001498	f924cf03	lbu	x30,-110(x9)	  x9:0x800089d3 x30=0x00000000 PA:0x80008965
        3085000	       307	8000149c	a86ff237	lui	x4,0xa86ff	  x4=0xa86ff000
        3095000	       308	800014a0	0b248403	lb	x8,178(x9)	  x9:0x800089d3  x8=0x00000000 PA:0x80008a85
        3105000	       309	800014a4	0f94aea3	sw	x25,253(x9)	  x9:0x800089d3 x25:0x00000000 PA:0x80008ad0
        3115000	       310	800014a8	f3848c03	lb	x24,-200(x9)	  x9:0x800089d3 x24=0x00000000 PA:0x8000890b
        3125000	       311	800014ac	f9448723	sb	x20,-114(x9)	  x9:0x800089d3 x20:0x00000000 PA:0x80008961
        3135000	       312	800014b0	f04481a3	sb	x4,-253(x9)	  x9:0x800089d3  x4:0xa86ff000 PA:0x800088d6
        3145000	       313	800014b4	00000013	addi	x0,x0,0	  x0:0x00000000
        3155000	       314	800014b8	0143dbb3	srl	x23,x7,x20	  x7:0x00000000 x20:0x00000000 x23=0x00000000
        3165000	       315	800014bc	0ac4cb03	lbu	x22,172(x9)	  x9:0x800089d3 x22=0x00000000 PA:0x80008a7f
        3175000	       316	800014c0	05948023	sb	x25,64(x9)	  x9:0x800089d3 x25:0x00000000 PA:0x80008a13
        3185000	       317	800014c4	7d2d35b7	lui	x11,0x7d2d3	 x11=0x7d2d3000
        3195000	       318	800014c8	001e9e13	slli	x28,x29,0x1	 x29:0x00000001 x28=0x00000002
        3205000	       319	800014cc	00fa0eb3	add	x29,x20,x15	 x20:0x00000000 x15:0x00000000 x29=0x00000000
        3215000	       320	800014d0	fd448723	sb	x20,-50(x9)	  x9:0x800089d3 x20:0x00000000 PA:0x800089a1
        3225000	       321	800014d4	f2848383	lb	x7,-216(x9)	  x9:0x800089d3  x7=0x00000000 PA:0x800088fb
        3235000	       322	800014d8	daeff013	andi	x0,x31,-594	 x31:0x00000000
        3245000	       323	800014dc	f964c803	lbu	x16,-106(x9)	  x9:0x800089d3 x16=0x00000000 PA:0x80008969
        3255000	       324	800014e0	f7c484a3	sb	x28,-151(x9)	  x9:0x800089d3 x28:0x00000002 PA:0x8000893c
        3265000	       325	800014e4	00007597	auipc	x11,0x7	 x11=0x800084e0
        3275000	       326	800014e8	44458593	addi	x11,x11,1092	 x11:0x800084e0 x11=0x80008924
        3285000	       327	800014ec	402e5893	srai	x17,x28,0x2	 x28:0x00000002 x17=0x00000000
        3295000	       328	800014f0	0099e2b3	or	x5,x19,x9	 x19:0x00000000  x9:0x800089d3  x5=0x800089d3
        3305000	       329	800014f4	011146b3	xor	x13,x2,x17	  x2:0x00000000 x17:0x00000000 x13=0x00000000
        3315000	       330	800014f8	41545493	srai	x9,x8,0x15	  x8:0x00000000  x9=0x00000000
        3325000	       331	800014fc	00a30533	add	x10,x6,x10	  x6:0x00000000 x10:0x00000000 x10=0x00000000
        3335000	       332	80001500	00b5cd03	lbu	x26,11(x11)	 x11:0x80008924 x26=0x00000000 PA:0x8000892f
        3345000	       333	80001504	00d5cc83	lbu	x25,13(x11)	 x11:0x80008924 x25=0x00000000 PA:0x80008931
        3355000	       334	80001508	007a84b3	add	x9,x21,x7	 x21:0x80009fc4  x7:0x00000000  x9=0x80009fc4
        3365000	       335	8000150c	ff758ea3	sb	x23,-3(x11)	 x11:0x80008924 x23:0x00000000 PA:0x80008921
        3375000	       336	80001510	ff15cb83	lbu	x23,-15(x11)	 x11:0x80008924 x23=0x00000000 PA:0x80008915
        3385000	       337	80001514	00158c83	lb	x25,1(x11)	 x11:0x80008924 x25=0x00000000 PA:0x80008925
        3395000	       338	80001518	00eb5eb3	srl	x29,x22,x14	 x22:0x00000000 x14:0x80009f2c x29=0x00000000
        3405000	       339	8000151c	dca2bd97	auipc	x27,0xdca2b	 x27=0x5ca2c518
        3415000	       340	80001520	005bd113	srli	x2,x23,0x5	 x23:0x00000000  x2=0x00000000
        3425000	       341	80001524	00d5c103	lbu	x2,13(x11)	 x11:0x80008924  x2=0x00000000 PA:0x80008931
        3435000	       342	80001528	00dad8b3	srl	x17,x21,x13	 x21:0x80009fc4 x13:0x00000000 x17=0x80009fc4
        3445000	       343	8000152c	00d59623	sh	x13,12(x11)	 x11:0x80008924 x13:0x00000000 PA:0x80008930
        3455000	       344	80001530	014228b3	slt	x17,x4,x20	  x4:0xa86ff000 x20:0x00000000 x17=0x00000001
        3465000	       345	80001534	00958c83	lb	x25,9(x11)	 x11:0x80008924 x25=0x00000000 PA:0x8000892d
        3475000	       346	80001538	ff55c183	lbu	x3,-11(x11)	 x11:0x80008924  x3=0x00000000 PA:0x80008919
        3485000	       347	8000153c	41916513	ori	x10,x2,1049	  x2:0x00000000 x10=0x00000419
        3495000	       348	80001540	006b61b3	or	x3,x22,x6	 x22:0x00000000  x6:0x00000000  x3=0x00000000
        3505000	       349	80001544	00f580a3	sb	x15,1(x11)	 x11:0x80008924 x15:0x00000000 PA:0x80008925
        3515000	       350	80001548	002c2033	slt	x0,x24,x2	 x24:0x00000000  x2:0x00000000
        3525000	       351	8000154c	ffc5a823	sw	x28,-16(x11)	 x11:0x80008924 x28:0x00000002 PA:0x80008914
        3535000	       352	80001550	4098d833	sra	x16,x17,x9	 x17:0x00000001  x9:0x80009fc4 x16=0x00000000
        3545000	       353	80001554	fee5a823	sw	x14,-16(x11)	 x11:0x80008924 x14:0x80009f2c PA:0x80008914
        3555000	       354	80001558	01f59523	sh	x31,10(x11)	 x11:0x80008924 x31:0x00000000 PA:0x8000892e
        3565000	       355	8000155c	00007497	auipc	x9,0x7	  x9=0x80008558
        3575000	       356	80001560	e0148493	addi	x9,x9,-511	  x9:0x80008558  x9=0x80008359
        3585000	       357	80001564	03d48403	lb	x8,61(x9)	  x9:0x80008359  x8=0x00000000 PA:0x80008396
        3595000	       358	80001568	01b5be33	sltu	x28,x11,x27	 x11:0x80008924 x27:0x5ca2c518 x28=0x00000000
        3605000	       359	8000156c	0044c803	lbu	x16,4(x9)	  x9:0x80008359 x16=0x00000000 PA:0x8000835d
        3615000	       360	80001570	41eb53b3	sra	x7,x22,x30	 x22:0x00000000 x30:0x00000000  x7=0x00000000
        3625000	       361	80001574	ffe4cd83	lbu	x27,-2(x9)	  x9:0x80008359 x27=0x00000000 PA:0x80008357
        3635000	       362	80001578	03d4d783	lhu	x15,61(x9)	  x9:0x80008359 x15=0x00009400 PA:0x80008396
        3645000	       363	8000157c	006726b3	slt	x13,x14,x6	 x14:0x80009f2c  x6:0x00000000 x13=0x00000001
        3655000	       364	80001580	fc8492a3	sh	x8,-59(x9)	  x9:0x80008359  x8:0x00000000 PA:0x8000831e
        3665000	       365	80001584	002460b3	or	x1,x8,x2	  x8:0x00000000  x2:0x00000000  x1=0x00000000
        3675000	       366	80001588	0012d513	srli	x10,x5,0x1	  x5:0x800089d3 x10=0x400044e9
        3685000	       367	8000158c	fe149683	lh	x13,-31(x9)	  x9:0x80008359 x13=0x00000000 PA:0x8000833a
        3695000	       368	80001590	fc548c23	sb	x5,-40(x9)	  x9:0x80008359  x5:0x800089d3 PA:0x80008331
        3705000	       369	80001594	00648723	sb	x6,14(x9)	  x9:0x80008359  x6:0x00000000 PA:0x80008367
        3715000	       370	80001598	020488a3	sb	x0,49(x9)	  x9:0x80008359  x0:0x00000000 PA:0x8000838a
        3725000	       371	8000159c	00995413	srli	x8,x18,0x9	 x18:0x80000000  x8=0x00400000
        3735000	       372	800015a0	00006e33	or	x28,x0,x0	  x0:0x00000000  x0:0x00000000 x28=0x00000000
        3745000	       373	800015a4	fe34aa03	lw	x20,-29(x9)	  x9:0x80008359 x20=0x00000000 PA:0x8000833c
        3755000	       374	800015a8	fef66d37	lui	x26,0xfef66	 x26=0xfef66000
        3765000	       375	800015ac	fd64c003	lbu	x0,-42(x9)	  x9:0x80008359 PA:0x8000832f
        3775000	       376	800015b0	04048303	lb	x6,64(x9)	  x9:0x80008359  x6=0x00000000 PA:0x80008399
        3785000	       377	800015b4	0384cd83	lbu	x27,56(x9)	  x9:0x80008359 x27=0x00000000 PA:0x80008391
        3795000	       378	800015b8	40b150b3	sra	x1,x2,x11	  x2:0x00000000 x11:0x80008924  x1=0x00000000
        3805000	       379	800015bc	003993b3	sll	x7,x19,x3	 x19:0x00000000  x3:0x00000000  x7=0x00000000
        3815000	       380	800015c0	40685d13	srai	x26,x16,0x6	 x16:0x00000000 x26=0x00000000
        3825000	       381	800015c4	fd8486a3	sb	x24,-51(x9)	  x9:0x80008359 x24:0x00000000 PA:0x80008326
        3835000	       382	800015c8	02448223	sb	x4,36(x9)	  x9:0x80008359  x4:0xa86ff000 PA:0x8000837d
        3845000	       383	800015cc	0274ad83	lw	x27,39(x9)	  x9:0x80008359 x27=0x00000000 PA:0x80008380
        3855000	       384	800015d0	fd048503	lb	x10,-48(x9)	  x9:0x80008359 x10=0x00000000 PA:0x80008329
        3865000	       385	800015d4	015726b3	slt	x13,x14,x21	 x14:0x80009f2c x21:0x80009fc4 x13=0x00000001
        3875000	       386	800015d8	fdc48e23	sb	x28,-36(x9)	  x9:0x80008359 x28:0x00000000 PA:0x80008335
        3885000	       387	800015dc	00a48223	sb	x10,4(x9)	  x9:0x80008359 x10:0x00000000 PA:0x8000835d
        3895000	       388	800015e0	00007c17	auipc	x24,0x7	 x24=0x800085dc
        3905000	       389	800015e4	c7ac0c13	addi	x24,x24,-902	 x24:0x800085dc x24=0x80008256
        3915000	       390	800015e8	01e0cfb3	xor	x31,x1,x30	  x1:0x00000000 x30:0x00000000 x31=0x00000000
        3925000	       391	800015ec	eb0c1b03	lh	x22,-336(x24)	 x24:0x80008256 x22=0x00000000 PA:0x80008106
        3935000	       392	800015f0	00d0e533	or	x10,x1,x13	  x1:0x00000000 x13:0x00000001 x10=0x00000001
        3945000	       393	800015f4	27cc5303	lhu	x6,636(x24)	 x24:0x80008256  x6=0x00000000 PA:0x800084d2
        3955000	       394	800015f8	e36c0823	sb	x22,-464(x24)	 x24:0x80008256 x22:0x00000000 PA:0x80008086
        3965000	       395	800015fc	325c0403	lb	x8,805(x24)	 x24:0x80008256  x8=0x00000000 PA:0x8000857b
        3975000	       396	80001600	39bc4f03	lbu	x30,923(x24)	 x24:0x80008256 x30=0x00000000 PA:0x800085f1
        3985000	       397	80001604	fe4c0983	lb	x19,-28(x24)	 x24:0x80008256 x19=0x00000000 PA:0x8000823a
        3995000	       398	80001608	4170d433	sra	x8,x1,x23	  x1:0x00000000 x23:0x00000000  x8=0x00000000
        4005000	       399	8000160c	017c0ba3	sb	x23,23(x24)	 x24:0x80008256 x23:0x00000000 PA:0x8000826d
        4015000	       400	80001610	154c0083	lb	x1,340(x24)	 x24:0x80008256  x1=0x00000000 PA:0x800083aa
        4025000	       401	80001614	ae368893	addi	x17,x13,-1309	 x13:0x00000001 x17=0xfffffae4
        4035000	       402	80001618	4eda7313	andi	x6,x20,1261	 x20:0x00000000  x6=0x00000000
        4045000	       403	8000161c	00413f33	sltu	x30,x2,x4	  x2:0x00000000  x4:0xa86ff000 x30=0x00000001
        4055000	       404	80001620	e9fc0da3	sb	x31,-357(x24)	 x24:0x80008256 x31:0x00000000 PA:0x800080f1
        4065000	       405	80001624	efe0fbb7	lui	x23,0xefe0f	 x23=0xefe0f000
        4075000	       406	80001628	2d6c0d23	sb	x22,730(x24)	 x24:0x80008256 x22:0x00000000 PA:0x80008530
        4085000	       407	8000162c	e67c0fa3	sb	x7,-385(x24)	 x24:0x80008256  x7:0x00000000 PA:0x800080d5
        4095000	       408	80001630	256e7337	lui	x6,0x256e7	  x6=0x256e7000
        4105000	       409	80001634	26cc09a3	sb	x12,627(x24)	 x24:0x80008256 x12:0x00000000 PA:0x800084c9
        4115000	       410	80001638	f4ac4e03	lbu	x28,-182(x24)	 x24:0x80008256 x28=0x00000000 PA:0x800081a0
        4125000	       411	8000163c	5b7c0103	lb	x2,1463(x24)	 x24:0x80008256  x2=0x00000000 PA:0x8000880d
        4135000	       412	80001640	fcbc2f23	sw	x11,-34(x24)	 x24:0x80008256 x11:0x80008924 PA:0x80008234
        4145000	       413	80001644	3bbc0d83	lb	x27,955(x24)	 x24:0x80008256 x27=0x00000000 PA:0x80008611
        4155000	       414	80001648	58ac4883	lbu	x17,1418(x24)	 x24:0x80008256 x17=0x00000000 PA:0x800087e0
        4165000	       415	8000164c	1aec0203	lb	x4,430(x24)	 x24:0x80008256  x4=0x00000000 PA:0x80008404
        4175000	       416	80001650	001c6e33	or	x28,x24,x1	 x24:0x80008256  x1:0x00000000 x28=0x80008256
        4185000	       417	80001654	142c2f03	lw	x30,322(x24)	 x24:0x80008256 x30=0x00000000 PA:0x80008398
        4195000	       418	80001658	3bfc4003	lbu	x0,959(x24)	 x24:0x80008256 PA:0x80008615
        4205000	       419	8000165c	0a5c0483	lb	x9,165(x24)	 x24:0x80008256  x9=0x00000000 PA:0x800082fb
        4215000	       420	80001660	001622b3	slt	x5,x12,x1	 x12:0x00000000  x1:0x00000000  x5=0x00000000
        4225000	       421	80001664	3ebc0483	lb	x9,1003(x24)	 x24:0x80008256  x9=0x00000000 PA:0x80008641
        4235000	       422	80001668	fcbc4e03	lbu	x28,-53(x24)	 x24:0x80008256 x28=0x00000000 PA:0x80008221
        4245000	       423	8000166c	f1bc4003	lbu	x0,-229(x24)	 x24:0x80008256 PA:0x80008171
        4255000	       424	80001670	3d4c0e83	lb	x29,980(x24)	 x24:0x80008256 x29=0x00000000 PA:0x8000862a
        4265000	       425	80001674	00007897	auipc	x17,0x7	 x17=0x80008670
        4275000	       426	80001678	f0488893	addi	x17,x17,-252	 x17:0x80008670 x17=0x80008574
        4285000	       427	8000167c	0041a633	slt	x12,x3,x4	  x3:0x00000000  x4:0x00000000 x12=0x00000000
        4295000	       428	80001680	0e79ee93	ori	x29,x19,231	 x19:0x00000000 x29=0x000000e7
        4305000	       429	80001684	fcb8cf83	lbu	x31,-53(x17)	 x17:0x80008574 x31=0x00000000 PA:0x8000853f
        4315000	       430	80001688	307f3613	sltiu	x12,x30,775	 x30:0x00000000 x12=0x00000001
        4325000	       431	8000168c	ff78ca03	lbu	x20,-9(x17)	 x17:0x80008574 x20=0x00000000 PA:0x8000856b
        4335000	       432	80001690	001d36b3	sltu	x13,x26,x1	 x26:0x00000000  x1:0x00000000 x13=0x00000000
        4345000	       433	80001694	4182d213	srai	x4,x5,0x18	  x5:0x00000000  x4=0x00000000
        4355000	       434	80001698	4ace8093	addi	x1,x29,1196	 x29:0x000000e7  x1=0x00000593
        4365000	       435	8000169c	03a887a3	sb	x26,47(x17)	 x17:0x80008574 x26:0x00000000 PA:0x800085a3
        4375000	       436	800016a0	01204a33	xor	x20,x0,x18	  x0:0x00000000 x18:0x80000000 x20=0x80000000
        4385000	       437	800016a4	00b88583	lb	x11,11(x17)	 x17:0x80008574 x11=0x00000000 PA:0x8000857f
        4395000	       438	800016a8	01875d13	srli	x26,x14,0x18	 x14:0x80009f2c x26=0x00000080
        4405000	       439	800016ac	01f73d33	sltu	x26,x14,x31	 x14:0x80009f2c x31:0x00000000 x26=0x00000000
        4415000	       440	800016b0	617cc013	xori	x0,x25,1559	 x25:0x00000000
        4425000	       441	800016b4	00000013	addi	x0,x0,0	  x0:0x00000000
        4435000	       442	800016b8	05de0237	lui	x4,0x5de0	  x4=0x05de0000
        4445000	       443	800016bc	4af6f593	andi	x11,x13,1199	 x13:0x00000000 x11=0x00000000
        4455000	       444	800016c0	fd588ea3	sb	x21,-35(x17)	 x17:0x80008574 x21:0x80009fc4 PA:0x80008551
        4465000	       445	800016c4	fc78cf83	lbu	x31,-57(x17)	 x17:0x80008574 x31=0x00000000 PA:0x8000853b
        4475000	       446	800016c8	40c95793	srai	x15,x18,0xc	 x18:0x80000000 x15=0xfff80000
        4485000	       447	800016cc	00d8c783	lbu	x15,13(x17)	 x17:0x80008574 x15=0x00000000 PA:0x80008581
        4495000	       448	800016d0	00000013	addi	x0,x0,0	  x0:0x00000000
        4505000	       449	800016d4	005a9633	sll	x12,x21,x5	 x21:0x80009fc4  x5:0x00000000 x12=0x80009fc4
        4515000	       450	800016d8	013122b3	slt	x5,x2,x19	  x2:0x00000000 x19:0x00000000  x5=0x00000000
        4525000	       451	800016dc	007adbb3	srl	x23,x21,x7	 x21:0x80009fc4  x7:0x00000000 x23=0x80009fc4
        4535000	       452	800016e0	208a2b37	lui	x22,0x208a2	 x22=0x208a2000
        4545000	       453	800016e4	c2f7cd93	xori	x27,x15,-977	 x15:0x00000000 x27=0xfffffc2f
        4555000	       454	800016e8	fe38c003	lbu	x0,-29(x17)	 x17:0x80008574 PA:0x80008557
        4565000	       455	800016ec	00000013	addi	x0,x0,0	  x0:0x00000000
        4575000	       456	800016f0	ffd88323	sb	x29,-26(x17)	 x17:0x80008574 x29:0x000000e7 PA:0x8000855a
        4585000	       457	800016f4	bc8a6db7	lui	x27,0xbc8a6	 x27=0xbc8a6000
        4595000	       458	800016f8	cf07c793	xori	x15,x15,-784	 x15:0x00000000 x15=0xfffffcf0
        4605000	       459	800016fc	412eda33	sra	x20,x29,x18	 x29:0x000000e7 x18:0x80000000 x20=0x000000e7
        4615000	       460	80001700	000066b3	or	x13,x0,x0	  x0:0x00000000  x0:0x00000000 x13=0x00000000
        4625000	       461	80001704	fcf88f23	sb	x15,-34(x17)	 x17:0x80008574 x15:0xfffffcf0 PA:0x80008552
        4635000	       462	80001708	4dff4793	xori	x15,x30,1247	 x30:0x00000000 x15=0x000004df
        4645000	       463	8000170c	018efc33	and	x24,x29,x24	 x29:0x000000e7 x24:0x80008256 x24=0x00000046
        4655000	       464	80001710	00e8da33	srl	x20,x17,x14	 x17:0x80008574 x14:0x80009f2c x20=0x00080008
        4665000	       465	80001714	c4ef2f17	auipc	x30,0xc4ef2	 x30=0x44ef3710
        4675000	       466	80001718	183cab13	slti	x22,x25,387	 x25:0x00000000 x22=0x00000001
        4685000	       467	8000171c	ffc8c383	lbu	x7,-4(x17)	 x17:0x80008574  x7=0x00000000 PA:0x80008570
        4695000	       468	80001720	00007117	auipc	x2,0x7	  x2=0x8000871c
        4705000	       469	80001724	0ad10113	addi	x2,x2,173	  x2:0x8000871c  x2=0x800087c9
        4715000	       470	80001728	fd414f83	lbu	x31,-44(x2)	  x2:0x800087c9 x31=0x00000000 PA:0x8000879d
        4725000	       471	8000172c	01988833	add	x16,x17,x25	 x17:0x80008574 x25:0x00000000 x16=0x80008574
        4735000	       472	80001730	4b34a193	slti	x3,x9,1203	  x9:0x00000000  x3=0x00000001
        4745000	       473	80001734	00a10503	lb	x10,10(x2)	  x2:0x800087c9 x10=0x00000000 PA:0x800087d3
        4755000	       474	80001738	012e42b3	xor	x5,x28,x18	 x28:0x00000000 x18:0x80000000  x5=0x80000000
        4765000	       475	8000173c	ff014f03	lbu	x30,-16(x2)	  x2:0x800087c9 x30=0x00000000 PA:0x800087b9
        4775000	       476	80001740	ff614c03	lbu	x24,-10(x2)	  x2:0x800087c9 x24=0x00000000 PA:0x800087bf
        4785000	       477	80001744	00d93d33	sltu	x26,x18,x13	 x18:0x80000000 x13:0x00000000 x26=0x00000000
        4795000	       478	80001748	03115b03	lhu	x22,49(x2)	  x2:0x800087c9 x22=0x00000000 PA:0x800087fa
        4805000	       479	8000174c	037119a3	sh	x23,51(x2)	  x2:0x800087c9 x23:0x80009fc4 PA:0x800087fc
        4815000	       480	80001750	fd7108a3	sb	x23,-47(x2)	  x2:0x800087c9 x23:0x80009fc4 PA:0x8000879a
        4825000	       481	80001754	fdb15883	lhu	x17,-37(x2)	  x2:0x800087c9 x17=0x00000000 PA:0x800087a4
        4835000	       482	80001758	72594613	xori	x12,x18,1829	 x18:0x80000000 x12=0x80000725
        4845000	       483	8000175c	03c10b23	sb	x28,54(x2)	  x2:0x800087c9 x28:0x00000000 PA:0x800087ff
        4855000	       484	80001760	03312303	lw	x6,51(x2)	  x2:0x800087c9  x6=0x00009fc4 PA:0x800087fc
        4865000	       485	80001764	fd312203	lw	x4,-45(x2)	  x2:0x800087c9  x4=0x00000000 PA:0x8000879c
        4875000	       486	80001768	fee10523	sb	x14,-22(x2)	  x2:0x800087c9 x14:0x80009f2c PA:0x800087b3
        4885000	       487	8000176c	586b0313	addi	x6,x22,1414	 x22:0x00000000  x6=0x00000586
        4895000	       488	80001770	0113aeb3	slt	x29,x7,x17	  x7:0x00000000 x17:0x00000000 x29=0x00000000
        4905000	       489	80001774	fd610803	lb	x16,-42(x2)	  x2:0x800087c9 x16=0x00000000 PA:0x8000879f
        4915000	       490	80001778	fe214b03	lbu	x22,-30(x2)	  x2:0x800087c9 x22=0x00000000 PA:0x800087ab
        4925000	       491	8000177c	000cd793	srli	x15,x25,0x0	 x25:0x00000000 x15=0x00000000
        4935000	       492	80001780	03814583	lbu	x11,56(x2)	  x2:0x800087c9 x11=0x00000000 PA:0x80008801
        4945000	       493	80001784	01c14b83	lbu	x23,28(x2)	  x2:0x800087c9 x23=0x00000000 PA:0x800087e5
        4955000	       494	80001788	00c14c03	lbu	x24,12(x2)	  x2:0x800087c9 x24=0x00000000 PA:0x800087d5
        4965000	       495	8000178c	03a14483	lbu	x9,58(x2)	  x2:0x800087c9  x9=0x00000000 PA:0x80008803
        4975000	       496	80001790	7706a517	auipc	x10,0x7706a	 x10=0xf706b78c
        4985000	       497	80001794	fe810583	lb	x11,-24(x2)	  x2:0x800087c9 x11=0x00000000 PA:0x800087b1
        4995000	       498	80001798	03210f03	lb	x30,50(x2)	  x2:0x800087c9 x30=0x00000000 PA:0x800087fb
        5005000	       499	8000179c	fd410a03	lb	x20,-44(x2)	  x2:0x800087c9 x20=0x00000000 PA:0x8000879d
        5015000	       500	800017a0	03610883	lb	x17,54(x2)	  x2:0x800087c9 x17=0x00000000 PA:0x800087ff
        5025000	       501	800017a4	fc9118a3	sh	x9,-47(x2)	  x2:0x800087c9  x9:0x00000000 PA:0x8000879a
        5035000	       502	800017a8	f6a60193	addi	x3,x12,-150	 x12:0x80000725  x3=0x8000068f
        5045000	       503	800017ac	b2a33293	sltiu	x5,x6,-1238	  x6:0x00000586  x5=0x00000001
        5055000	       504	800017b0	409a85b3	sub	x11,x21,x9	 x21:0x80009fc4  x9:0x00000000 x11=0x80009fc4
        5065000	       505	800017b4	fd014483	lbu	x9,-48(x2)	  x2:0x800087c9  x9=0x00000000 PA:0x80008799
        5075000	       506	800017b8	ff511f83	lh	x31,-11(x2)	  x2:0x800087c9 x31=0x00000000 PA:0x800087be
        5085000	       507	800017bc	04010b03	lb	x22,64(x2)	  x2:0x800087c9 x22=0x00000000 PA:0x80008809
        5095000	       508	800017c0	03f10823	sb	x31,48(x2)	  x2:0x800087c9 x31:0x00000000 PA:0x800087f9
        5105000	       509	800017c4	fed11983	lh	x19,-19(x2)	  x2:0x800087c9 x19=0x00000000 PA:0x800087b6
        5115000	       510	800017c8	02110b83	lb	x23,33(x2)	  x2:0x800087c9 x23=0x00000000 PA:0x800087ea
        5125000	       511	800017cc	02914d03	lbu	x26,41(x2)	  x2:0x800087c9 x26=0x00000000 PA:0x800087f2
        5135000	       512	800017d0	00007117	auipc	x2,0x7	  x2=0x800087cc
        5145000	       513	800017d4	93e10113	addi	x2,x2,-1730	  x2:0x800087cc  x2=0x8000810a
        5155000	       514	800017d8	33411323	sh	x20,806(x2)	  x2:0x8000810a x20:0x00000000 PA:0x80008430
        5165000	       515	800017dc	006a5833	srl	x16,x20,x6	 x20:0x00000000  x6:0x00000586 x16=0x00000000
        5175000	       516	800017e0	ff210c23	sb	x18,-8(x2)	  x2:0x8000810a x18:0x80000000 PA:0x80008102
        5185000	       517	800017e4	5cb105a3	sb	x11,1483(x2)	  x2:0x8000810a x11:0x80009fc4 PA:0x800086d5
        5195000	       518	800017e8	4e411223	sh	x4,1252(x2)	  x2:0x8000810a  x4:0x00000000 PA:0x800085ee
        5205000	       519	800017ec	36110823	sb	x1,880(x2)	  x2:0x8000810a  x1:0x00000593 PA:0x8000847a
        5215000	       520	800017f0	9d6e7b13	andi	x22,x28,-1578	 x28:0x00000000 x22=0x00000000
        5225000	       521	800017f4	01d0d993	srli	x19,x1,0x1d	  x1:0x00000593 x19=0x00000000
        5235000	       522	800017f8	2aa106a3	sb	x10,685(x2)	  x2:0x8000810a x10:0xf706b78c PA:0x800083b7
        5245000	       523	800017fc	37510383	lb	x7,885(x2)	  x2:0x8000810a  x7=0x00000000 PA:0x8000847f
        5255000	       524	80001800	0f214f83	lbu	x31,242(x2)	  x2:0x8000810a x31=0x00000000 PA:0x800081fc
        5265000	       525	80001804	58910d03	lb	x26,1417(x2)	  x2:0x8000810a x26=0x00000000 PA:0x80008693
        5275000	       526	80001808	01f86d33	or	x26,x16,x31	 x16:0x00000000 x31:0x00000000 x26=0x00000000
        5285000	       527	8000180c	01333d33	sltu	x26,x6,x19	  x6:0x00000586 x19:0x00000000 x26=0x00000000
        5295000	       528	80001810	00000013	addi	x0,x0,0	  x0:0x00000000
        5305000	       529	80001814	5bb14e03	lbu	x28,1467(x2)	  x2:0x8000810a x28=0x00000000 PA:0x800086c5
        5315000	       530	80001818	76d27293	andi	x5,x4,1901	  x4:0x00000000  x5=0x00000000
        5325000	       531	8000181c	57615803	lhu	x16,1398(x2)	  x2:0x8000810a x16=0x00000000 PA:0x80008680
        5335000	       532	80001820	4ec15c83	lhu	x25,1260(x2)	  x2:0x8000810a x25=0x00000000 PA:0x800085f6
        5345000	       533	80001824	412808b3	sub	x17,x16,x18	 x16:0x00000000 x18:0x80000000 x17=0x80000000
        5355000	       534	80001828	9212cd93	xori	x27,x5,-1759	  x5:0x00000000 x27=0xfffff921
        5365000	       535	8000182c	6f511f23	sh	x21,1790(x2)	  x2:0x8000810a x21:0x80009fc4 PA:0x80008808
        5375000	       536	80001830	004844b3	xor	x9,x16,x4	 x16:0x00000000  x4:0x00000000  x9=0x00000000
        5385000	       537	80001834	417b5f93	srai	x31,x22,0x17	 x22:0x00000000 x31=0x00000000
        5395000	       538	80001838	1c514483	lbu	x9,453(x2)	  x2:0x8000810a  x9=0x00000000 PA:0x800082cf
        5405000	       539	8000183c	6c212d03	lw	x26,1730(x2)	  x2:0x8000810a x26=0x00000000 PA:0x800087cc
        5415000	       540	80001840	fc511823	sh	x5,-48(x2)	  x2:0x8000810a  x5:0x00000000 PA:0x800080da
        5425000	       541	80001844	f4f5b093	sltiu	x1,x11,-177	 x11:0x80009fc4  x1=0x00000001
        5435000	       542	80001848	014677b3	and	x15,x12,x20	 x12:0x80000725 x20:0x00000000 x15=0x00000000
        5445000	       543	8000184c	32110603	lb	x12,801(x2)	  x2:0x8000810a x12=0x00000000 PA:0x8000842b
        5455000	       544	80001850	51dc3393	sltiu	x7,x24,1309	 x24:0x00000000  x7=0x00000001
        5465000	       545	80001854	30014203	lbu	x4,768(x2)	  x2:0x8000810a  x4=0x00000000 PA:0x8000840a
        5475000	       546	80001858	1e011e23	sh	x0,508(x2)	  x2:0x8000810a  x0:0x00000000 PA:0x80008306
        5485000	       547	8000185c	414d0333	sub	x6,x26,x20	 x26:0x00000000 x20:0x00000000  x6=0x00000000
        5495000	       548	80001860	2f8106a3	sb	x24,749(x2)	  x2:0x8000810a x24:0x00000000 PA:0x800083f7
        5505000	       549	80001864	00007117	auipc	x2,0x7	  x2=0x80008860
        5515000	       550	80001868	c6810113	addi	x2,x2,-920	  x2:0x80008860  x2=0x800084c8
        5525000	       551	8000186c	fe410f23	sb	x4,-2(x2)	  x2:0x800084c8  x4:0x00000000 PA:0x800084c6
        5535000	       552	80001870	fe615d03	lhu	x26,-26(x2)	  x2:0x800084c8 x26=0x00000000 PA:0x800084ae
        5545000	       553	80001874	3acc7617	auipc	x12,0x3acc7	 x12=0xbacc8870
        5555000	       554	80001878	018473b3	and	x7,x8,x24	  x8:0x00000000 x24:0x00000000  x7=0x00000000
        5565000	       555	8000187c	01f101a3	sb	x31,3(x2)	  x2:0x800084c8 x31:0x00000000 PA:0x800084cb
        5575000	       556	80001880	56a77d13	andi	x26,x14,1386	 x14:0x80009f2c x26=0x00000528
        5585000	       557	80001884	fe615303	lhu	x6,-26(x2)	  x2:0x800084c8  x6=0x00000000 PA:0x800084ae
        5595000	       558	80001888	01b805b3	add	x11,x16,x27	 x16:0x00000000 x27:0xfffff921 x11=0xfffff921
        5605000	       559	8000188c	9162cc93	xori	x25,x5,-1770	  x5:0x00000000 x25=0xfffff916
        5615000	       560	80001890	01499d93	slli	x27,x19,0x14	 x19:0x00000000 x27=0x00000000
        5625000	       561	80001894	01910d23	sb	x25,26(x2)	  x2:0x800084c8 x25:0xfffff916 PA:0x800084e2
        5635000	       562	80001898	01f14403	lbu	x8,31(x2)	  x2:0x800084c8  x8=0x00000000 PA:0x800084e7
        5645000	       563	8000189c	01e101a3	sb	x30,3(x2)	  x2:0x800084c8 x30:0x00000000 PA:0x800084cb
        5655000	       564	800018a0	8fb48313	addi	x6,x9,-1797	  x9:0x00000000  x6=0xfffff8fb
        5665000	       565	800018a4	00e7a633	slt	x12,x15,x14	 x15:0x00000000 x14:0x80009f2c x12=0x00000000
        5675000	       566	800018a8	01b40c33	add	x24,x8,x27	  x8:0x00000000 x27:0x00000000 x24=0x00000000
        5685000	       567	800018ac	41845533	sra	x10,x8,x24	  x8:0x00000000 x24:0x00000000 x10=0x00000000
        5695000	       568	800018b0	5dac7413	andi	x8,x24,1498	 x24:0x00000000  x8=0x00000000
        5705000	       569	800018b4	03210183	lb	x3,50(x2)	  x2:0x800084c8  x3=0x00000000 PA:0x800084fa
        5715000	       570	800018b8	03815503	lhu	x10,56(x2)	  x2:0x800084c8 x10=0x00000000 PA:0x80008500
        5725000	       571	800018bc	01a14683	lbu	x13,26(x2)	  x2:0x800084c8 x13=0x00000016 PA:0x800084e2
        5735000	       572	800018c0	fea12023	sw	x10,-32(x2)	  x2:0x800084c8 x10:0x00000000 PA:0x800084a8
        5745000	       573	800018c4	00112223	sw	x1,4(x2)	  x2:0x800084c8  x1:0x00000001 PA:0x800084cc
        5755000	       574	800018c8	03510f83	lb	x31,53(x2)	  x2:0x800084c8 x31=0x00000000 PA:0x800084fd
        5765000	       575	800018cc	fc4100a3	sb	x4,-63(x2)	  x2:0x800084c8  x4:0x00000000 PA:0x80008489
        5775000	       576	800018d0	c5186b13	ori	x22,x16,-943	 x16:0x00000000 x22=0xfffffc51
        5785000	       577	800018d4	0145db13	srli	x22,x11,0x14	 x11:0xfffff921 x22=0x00000fff
        5795000	       578	800018d8	00cd5433	srl	x8,x26,x12	 x26:0x00000528 x12:0x00000000  x8=0x00000528
        5805000	       579	800018dc	019191b3	sll	x3,x3,x25	  x3:0x00000000 x25:0xfffff916  x3=0x00000000
        5815000	       580	800018e0	fe810223	sb	x8,-28(x2)	  x2:0x800084c8  x8:0x00000528 PA:0x800084ac
        5825000	       581	800018e4	4139df33	sra	x30,x19,x19	 x19:0x00000000 x19:0x00000000 x30=0x00000000
        5835000	       582	800018e8	009066b3	or	x13,x0,x9	  x0:0x00000000  x9:0x00000000 x13=0x00000000
        5845000	       583	800018ec	1478f593	andi	x11,x17,327	 x17:0x80000000 x11=0x00000000
        5855000	       584	800018f0	c62feb37	lui	x22,0xc62fe	 x22=0xc62fe000
        5865000	       585	800018f4	e79f0013	addi	x0,x30,-391	 x30:0x00000000
        5875000	       586	800018f8	00abb833	sltu	x16,x23,x10	 x23:0x00000000 x10:0x00000000 x16=0x00000000
        5885000	       587	800018fc	00c66833	or	x16,x12,x12	 x12:0x00000000 x12:0x00000000 x16=0x00000000
        5895000	       588	80001900	48653293	sltiu	x5,x10,1158	 x10:0x00000000  x5=0x00000001
        5905000	       589	80001904	04014983	lbu	x19,64(x2)	  x2:0x800084c8 x19=0x00000000 PA:0x80008508
        5915000	       590	80001908	00812823	sw	x8,16(x2)	  x2:0x800084c8  x8:0x00000528 PA:0x800084d8
        5925000	       591	8000190c	005e5e13	srli	x28,x28,0x5	 x28:0x00000000 x28=0x00000000
        5935000	       592	80001910	fe314f83	lbu	x31,-29(x2)	  x2:0x800084c8 x31=0x00000000 PA:0x800084ab
        5945000	       593	80001914	fe714583	lbu	x11,-25(x2)	  x2:0x800084c8 x11=0x00000000 PA:0x800084af
        5955000	       594	80001918	fe412583	lw	x11,-28(x2)	  x2:0x800084c8 x11=0x00000028 PA:0x800084ac
        5965000	       595	8000191c	00e4d7b3	srl	x15,x9,x14	  x9:0x00000000 x14:0x80009f2c x15=0x00000000
        5975000	       596	80001920	feb10c83	lb	x25,-21(x2)	  x2:0x800084c8 x25=0x00000000 PA:0x800084b3
        5985000	       597	80001924	fc812023	sw	x8,-64(x2)	  x2:0x800084c8  x8:0x00000528 PA:0x80008488
        5995000	       598	80001928	00000013	addi	x0,x0,0	  x0:0x00000000
        6005000	       599	8000192c	ffe11c83	lh	x25,-2(x2)	  x2:0x800084c8 x25=0x00000000 PA:0x800084c6
        6015000	       600	80001930	fe014a03	lbu	x20,-32(x2)	  x2:0x800084c8 x20=0x00000000 PA:0x800084a8
        6025000	       601	80001934	01d696b3	sll	x13,x13,x29	 x13:0x00000000 x29:0x00000000 x13=0x00000000
        6035000	       602	80001938	fd114803	lbu	x16,-47(x2)	  x2:0x800084c8 x16=0x00000000 PA:0x80008499
        6045000	       603	8000193c	b5c60c13	addi	x24,x12,-1188	 x12:0x00000000 x24=0xfffffb5c
        6055000	       604	80001940	85308f13	addi	x30,x1,-1965	  x1:0x00000001 x30=0xfffff854
        6065000	       605	80001944	01910aa3	sb	x25,21(x2)	  x2:0x800084c8 x25:0x00000000 PA:0x800084dd
        6075000	       606	80001948	00f12623	sw	x15,12(x2)	  x2:0x800084c8 x15:0x00000000 PA:0x800084d4
        6085000	       607	8000194c	fea10503	lb	x10,-22(x2)	  x2:0x800084c8 x10=0x00000000 PA:0x800084b2
        6095000	       608	80001950	00d016b3	sll	x13,x0,x13	  x0:0x00000000 x13:0x00000000 x13=0x00000000
        6105000	       609	80001954	01414b03	lbu	x22,20(x2)	  x2:0x800084c8 x22=0x00000000 PA:0x800084dc
        6115000	       610	80001958	ffd10883	lb	x17,-3(x2)	  x2:0x800084c8 x17=0x00000000 PA:0x800084c5
        6125000	       611	8000195c	00007897	auipc	x17,0x7	 x17=0x80008958
        6135000	       612	80001960	14188893	addi	x17,x17,321	 x17:0x80008958 x17=0x80008a99
        6145000	       613	80001964	144883a3	sb	x4,327(x17)	 x17:0x80008a99  x4:0x00000000 PA:0x80008be0
        6155000	       614	80001968	5da14f13	xori	x30,x2,1498	  x2:0x800084c8 x30=0x80008112
        6165000	       615	8000196c	e718d803	lhu	x16,-399(x17)	 x17:0x80008a99 x16=0x00000000 PA:0x8000890a
        6175000	       616	80001970	00000013	addi	x0,x0,0	  x0:0x00000000
        6185000	       617	80001974	50488483	lb	x9,1284(x17)	 x17:0x80008a99  x9=0x00000000 PA:0x80008f9d
        6195000	       618	80001978	0eb88d23	sb	x11,250(x17)	 x17:0x80008a99 x11:0x00000028 PA:0x80008b93
        6205000	       619	8000197c	423884a3	sb	x3,1065(x17)	 x17:0x80008a99  x3:0x00000000 PA:0x80008ec2
        6215000	       620	80001980	013116b3	sll	x13,x2,x19	  x2:0x800084c8 x19:0x00000000 x13=0x800084c8
        6225000	       621	80001984	3eb890a3	sh	x11,993(x17)	 x17:0x80008a99 x11:0x00000028 PA:0x80008e7a
        6235000	       622	80001988	45789ea3	sh	x23,1117(x17)	 x17:0x80008a99 x23:0x00000000 PA:0x80008ef6
        6245000	       623	8000198c	0fe88e83	lb	x29,254(x17)	 x17:0x80008a99 x29=0x00000000 PA:0x80008b97
        6255000	       624	80001990	f8f89ea3	sh	x15,-99(x17)	 x17:0x80008a99 x15:0x00000000 PA:0x80008a36
        6265000	       625	80001994	e2088c23	sb	x0,-456(x17)	 x17:0x80008a99  x0:0x00000000 PA:0x800088d1
        6275000	       626	80001998	1c3899a3	sh	x3,467(x17)	 x17:0x80008a99  x3:0x00000000 PA:0x80008c6c
        6285000	       627	8000199c	1868c183	lbu	x3,390(x17)	 x17:0x80008a99  x3=0x00000000 PA:0x80008c1f
        6295000	       628	800019a0	41b40133	sub	x2,x8,x27	  x8:0x00000528 x27:0x00000000  x2=0x00000528
        6305000	       629	800019a4	1658cd03	lbu	x26,357(x17)	 x17:0x80008a99 x26=0x00000000 PA:0x80008bfe
        6315000	       630	800019a8	0e488b23	sb	x4,246(x17)	 x17:0x80008a99  x4:0x00000000 PA:0x80008b8f
        6325000	       631	800019ac	3dd88503	lb	x10,989(x17)	 x17:0x80008a99 x10=0x00000000 PA:0x80008e76
        6335000	       632	800019b0	d7c6ac13	slti	x24,x13,-644	 x13:0x800084c8 x24=0x00000001
        6345000	       633	800019b4	e2b88303	lb	x6,-469(x17)	 x17:0x80008a99  x6=0x00000000 PA:0x800088c4
        6355000	       634	800019b8	51e88d83	lb	x27,1310(x17)	 x17:0x80008a99 x27=0x00000000 PA:0x80008fb7
        6365000	       635	800019bc	42b8a383	lw	x7,1067(x17)	 x17:0x80008a99  x7=0x00000000 PA:0x80008ec4
        6375000	       636	800019c0	02888f03	lb	x30,40(x17)	 x17:0x80008a99 x30=0x00000000 PA:0x80008ac1
        6385000	       637	800019c4	f138c083	lbu	x1,-237(x17)	 x17:0x80008a99  x1=0x00000000 PA:0x800089ac
        6395000	       638	800019c8	40958833	sub	x16,x11,x9	 x11:0x00000028  x9:0x00000000 x16=0x00000028
        6405000	       639	800019cc	0ac8c303	lbu	x6,172(x17)	 x17:0x80008a99  x6=0x00000000 PA:0x80008b45
        6415000	       640	800019d0	42788aa3	sb	x7,1077(x17)	 x17:0x80008a99  x7:0x00000000 PA:0x80008ece
        6425000	       641	800019d4	e8d8aba3	sw	x13,-361(x17)	 x17:0x80008a99 x13:0x800084c8 PA:0x80008930
        6435000	       642	800019d8	2d88a3a3	sw	x24,711(x17)	 x17:0x80008a99 x24:0x00000001 PA:0x80008d60
        6445000	       643	800019dc	418add33	sra	x26,x21,x24	 x21:0x80009fc4 x24:0x00000001 x26=0xc0004fe2
        6455000	       644	800019e0	b8526813	ori	x16,x4,-1147	  x4:0x00000000 x16=0xfffffb85
        6465000	       645	800019e4	41e15d93	srai	x27,x2,0x1e	  x2:0x00000528 x27=0x00000000
        6475000	       646	800019e8	0c58c483	lbu	x9,197(x17)	 x17:0x80008a99  x9=0x00000000 PA:0x80008b5e
        6485000	       647	800019ec	06688ba3	sb	x6,119(x17)	 x17:0x80008a99  x6:0x00000000 PA:0x80008b10
        6495000	       648	800019f0	09f8d383	lhu	x7,159(x17)	 x17:0x80008a99  x7=0x00000000 PA:0x80008b38
        6505000	       649	800019f4	3dd8c803	lbu	x16,989(x17)	 x17:0x80008a99 x16=0x00000000 PA:0x80008e76
        6515000	       650	800019f8	20f9fa17	auipc	x20,0x20f9f	 x20=0xa0fa09f4
        6525000	       651	800019fc	0033c3b3	xor	x7,x7,x3	  x7:0x00000000  x3:0x00000000  x7=0x00000000
        6535000	       652	80001a00	01f17833	and	x16,x2,x31	  x2:0x00000528 x31:0x00000000 x16=0x00000000
        6545000	       653	80001a04	e5488523	sb	x20,-438(x17)	 x17:0x80008a99 x20:0xa0fa09f4 PA:0x800088e3
        6555000	       654	80001a08	01a99513	slli	x10,x19,0x1a	 x19:0x00000000 x10=0x00000000
        6565000	       655	80001a0c	00000013	addi	x0,x0,0	  x0:0x00000000
        6575000	       656	80001a10	415f5993	srai	x19,x30,0x15	 x30:0x00000000 x19=0x00000000
        6585000	       657	80001a14	00d32db3	slt	x27,x6,x13	  x6:0x00000000 x13:0x800084c8 x27=0x00000000
        6595000	       658	80001a18	05015fb7	lui	x31,0x5015	 x31=0x05015000
        6605000	       659	80001a1c	035b1863	bne	x22,x21,80001a4c	 x22:0x00000000 x21:0x80009fc4
        6615000	       660	00000000	00000013	addi	x0,x0,0	  x0:0x00000000
        6625000	       661	80001a48	00000013	addi	x0,x0,0	  x0:0x00000000
        6635000	       662	80001a4c	50946213	ori	x4,x8,1289	  x8:0x00000528  x4=0x00000529
        6645000	       663	80001a50	01e39fb3	sll	x31,x7,x30	  x7:0x00000000 x30:0x00000000 x31=0x00000000
        6655000	       664	80001a54	00000013	addi	x0,x0,0	  x0:0x00000000
        6665000	       665	80001a58	01c21c63	bne	x4,x28,80001a70	  x4:0x00000529 x28:0x00000000
        6675000	       666	00000000	00000013	addi	x0,x0,0	  x0:0x00000000
        6685000	       667	80001a6c	00000013	addi	x0,x0,0	  x0:0x00000000
        6695000	       668	80001a70	00ee7263	bgeu	x28,x14,80001a74	 x28:0x00000000 x14:0x80009f2c
        6705000	       669	80001a74	d75cec97	auipc	x25,0xd75ce	 x25=0x575cfa70
        6715000	       670	80001a78	2b4e3613	sltiu	x12,x28,692	 x28:0x00000000 x12=0x00000001
        6725000	       671	80001a7c	014da6b3	slt	x13,x27,x20	 x27:0x00000000 x20:0xa0fa09f4 x13=0x00000000
        6735000	       672	80001a80	00b2e863	bltu	x5,x11,80001a90	  x5:0x00000001 x11:0x00000028
        6745000	       673	00000000	00000013	addi	x0,x0,0	  x0:0x00000000
        6755000	       674	80001a8c	00000013	addi	x0,x0,0	  x0:0x00000000
        6765000	       675	80001a90	051d4463	blt	x26,x17,80001ad8	 x26:0xc0004fe2 x17:0x80008a99
        6775000	       676	80001a94	01e5c833	xor	x16,x11,x30	 x11:0x00000028 x30:0x00000000 x16=0x00000028
        6785000	       677	80001a98	00f1b0b3	sltu	x1,x3,x15	  x3:0x00000000 x15:0x00000000  x1=0x00000000
        6795000	       678	80001a9c	0332f463	bgeu	x5,x19,80001ac4	  x5:0x00000001 x19:0x00000000
        6805000	       679	00000000	00000013	addi	x0,x0,0	  x0:0x00000000
        6815000	       680	80001ac0	00000013	addi	x0,x0,0	  x0:0x00000000
        6825000	       681	80001ac4	002813b3	sll	x7,x16,x2	 x16:0x00000028  x2:0x00000528  x7=0x00002800
        6835000	       682	80001ac8	da3d4813	xori	x16,x26,-605	 x26:0xc0004fe2 x16=0x3fffb241
        6845000	       683	80001acc	01151bb3	sll	x23,x10,x17	 x10:0x00000000 x17:0x80008a99 x23=0x00000000
        6855000	       684	80001ad0	8aba9cb7	lui	x25,0x8aba9	 x25=0x8aba9000
        6865000	       685	80001ad4	017e9513	slli	x10,x29,0x17	 x29:0x00000000 x10=0x00000000
        6875000	       686	80001ad8	412a54b3	sra	x9,x20,x18	 x20:0xa0fa09f4 x18:0x80000000  x9=0xa0fa09f4
        6885000	       687	80001adc	009329b3	slt	x19,x6,x9	  x6:0x00000000  x9:0xa0fa09f4 x19=0x00000000
        6895000	       688	80001ae0	00000013	addi	x0,x0,0	  x0:0x00000000
        6905000	       689	80001ae4	01e69db3	sll	x27,x13,x30	 x13:0x00000000 x30:0x00000000 x27=0x00000000
        6915000	       690	80001ae8	405c5513	srai	x10,x24,0x5	 x24:0x00000001 x10=0x00000000
        6925000	       691	80001aec	006a83b3	add	x7,x21,x6	 x21:0x80009fc4  x6:0x00000000  x7=0x80009fc4
        6935000	       692	80001af0	92e3a497	auipc	x9,0x92e3a	  x9=0x12e3baec
        6945000	       693	80001af4	051f9463	bne	x31,x17,80001b3c	 x31:0x00000000 x17:0x80008a99
        6955000	       694	00000000	00000013	addi	x0,x0,0	  x0:0x00000000
        6965000	       695	80001b38	00000013	addi	x0,x0,0	  x0:0x00000000
        6975000	       696	80001b3c	00194463	blt	x18,x1,80001b44	 x18:0x80000000  x1:0x00000000
        6985000	       697	00000000	00000013	addi	x0,x0,0	  x0:0x00000000
        6995000	       698	80001b40	00000013	addi	x0,x0,0	  x0:0x00000000
        7005000	       699	80001b44	00fdc433	xor	x8,x27,x15	 x27:0x00000000 x15:0x00000000  x8=0x00000000
        7015000	       700	80001b48	01be4b33	xor	x22,x28,x27	 x28:0x00000000 x27:0x00000000 x22=0x00000000
        7025000	       701	80001b4c	07f86f93	ori	x31,x16,127	 x16:0x3fffb241 x31=0x3fffb27f
        7035000	       702	80001b50	66004137	lui	x2,0x66004	  x2=0x66004000
        7045000	       703	80001b54	0056d613	srli	x12,x13,0x5	 x13:0x00000000 x12=0x00000000
        7055000	       704	80001b58	04401263	bne	x0,x4,80001b9c	  x0:0x00000000  x4:0x00000529
        7065000	       705	00000000	00000013	addi	x0,x0,0	  x0:0x00000000
        7075000	       706	80001b98	00000013	addi	x0,x0,0	  x0:0x00000000
        7085000	       707	80001b9c	1ab8dd37	lui	x26,0x1ab8d	 x26=0x1ab8d000
        7095000	       708	80001ba0	95270993	addi	x19,x14,-1710	 x14:0x80009f2c x19=0x8000987e
        7105000	       709	80001ba4	607ca217	auipc	x4,0x607ca	  x4=0xe07cbba0
        7115000	       710	80001ba8	00c79cb3	sll	x25,x15,x12	 x15:0x00000000 x12:0x00000000 x25=0x00000000
        7125000	       711	80001bac	00e0d8b3	srl	x17,x1,x14	  x1:0x00000000 x14:0x80009f2c x17=0x00000000
        7135000	       712	80001bb0	02006463	bltu	x0,x0,80001bd8	  x0:0x00000000  x0:0x00000000
        7145000	       713	80001bb4	a2407813	andi	x16,x0,-1500	  x0:0x00000000 x16=0x00000000
        7155000	       714	80001bb8	01f324b3	slt	x9,x6,x31	  x6:0x00000000 x31:0x3fffb27f  x9=0x00000001
        7165000	       715	80001bbc	055be663	bltu	x23,x21,80001c08	 x23:0x00000000 x21:0x80009fc4
        7175000	       716	00000000	00000013	addi	x0,x0,0	  x0:0x00000000
        7185000	       717	80001c04	00000013	addi	x0,x0,0	  x0:0x00000000
        7195000	       718	80001c08	7e03ec93	ori	x25,x7,2016	  x7:0x80009fc4 x25=0x80009fe4
        7205000	       719	80001c0c	01bd8533	add	x10,x27,x27	 x27:0x00000000 x27:0x00000000 x10=0x00000000
        7215000	       720	80001c10	03614863	blt	x2,x22,80001c40	  x2:0x66004000 x22:0x00000000
        7225000	       721	80001c14	405558b3	sra	x17,x10,x5	 x10:0x00000000  x5:0x00000001 x17=0x00000000
        7235000	       722	80001c18	00301433	sll	x8,x0,x3	  x0:0x00000000  x3:0x00000000  x8=0x00000000
        7245000	       723	80001c1c	e6bdc513	xori	x10,x27,-405	 x27:0x00000000 x10=0xfffffe6b
        7255000	       724	80001c20	004b0263	beq	x22,x4,80001c24	 x22:0x00000000  x4:0xe07cbba0
        7265000	       725	80001c24	92194113	xori	x2,x18,-1759	 x18:0x80000000  x2=0x7ffff921
        7275000	       726	80001c28	40008eb3	sub	x29,x1,x0	  x1:0x00000000  x0:0x00000000 x29=0x00000000
        7285000	       727	80001c2c	004c4663	blt	x24,x4,80001c38	 x24:0x00000001  x4:0xe07cbba0
        7295000	       728	80001c30	ae703397	auipc	x7,0xae703	  x7=0x2e704c2c
        7305000	       729	80001c34	4041d4b3	sra	x9,x3,x4	  x3:0x00000000  x4:0xe07cbba0  x9=0x00000000
        7315000	       730	80001c38	03b15063	bge	x2,x27,80001c58	  x2:0x7ffff921 x27:0x00000000
        7325000	       731	00000000	00000013	addi	x0,x0,0	  x0:0x00000000
        7335000	       732	80001c54	00000013	addi	x0,x0,0	  x0:0x00000000
        7345000	       733	80001c58	015121b3	slt	x3,x2,x21	  x2:0x7ffff921 x21:0x80009fc4  x3=0x00000000
        7355000	       734	80001c5c	01d0acb3	slt	x25,x1,x29	  x1:0x00000000 x29:0x00000000 x25=0x00000000
        7365000	       735	80001c60	03d34c63	blt	x6,x29,80001c98	  x6:0x00000000 x29:0x00000000
        7375000	       736	80001c64	fce76113	ori	x2,x14,-50	 x14:0x80009f2c  x2=0xffffffee
        7385000	       737	80001c68	00dca1b3	slt	x3,x25,x13	 x25:0x00000000 x13:0x00000000  x3=0x00000000
        7395000	       738	80001c6c	00bd9eb3	sll	x29,x27,x11	 x27:0x00000000 x11:0x00000028 x29=0x00000000
        7405000	       739	80001c70	ed61e513	ori	x10,x3,-298	  x3:0x00000000 x10=0xfffffed6
        7415000	       740	80001c74	4179d433	sra	x8,x19,x23	 x19:0x8000987e x23:0x00000000  x8=0x8000987e
        7425000	       741	80001c78	05648663	beq	x9,x22,80001cc4	  x9:0x00000000 x22:0x00000000
        7435000	       742	00000000	00000013	addi	x0,x0,0	  x0:0x00000000
        7445000	       743	80001cc0	00000013	addi	x0,x0,0	  x0:0x00000000
        7455000	       744	80001cc4	402803b3	sub	x7,x16,x2	 x16:0x00000000  x2:0xffffffee  x7=0x00000012
        7465000	       745	80001cc8	01bcd413	srli	x8,x25,0x1b	 x25:0x00000000  x8=0x00000000
        7475000	       746	80001ccc	005b7263	bgeu	x22,x5,80001cd0	 x22:0x00000000  x5:0x00000001
        7485000	       747	80001cd0	84583b93	sltiu	x23,x16,-1979	 x16:0x00000000 x23=0x00000001
        7495000	       748	80001cd4	4d9cfb13	andi	x22,x25,1241	 x25:0x00000000 x22=0x00000000
        7505000	       749	80001cd8	01f87eb3	and	x29,x16,x31	 x16:0x00000000 x31:0x3fffb27f x29=0x00000000
        7515000	       750	80001cdc	01999e63	bne	x19,x25,80001cf8	 x19:0x8000987e x25:0x00000000
        7525000	       751	00000000	00000013	addi	x0,x0,0	  x0:0x00000000
        7535000	       752	80001cf4	00000013	addi	x0,x0,0	  x0:0x00000000
        7545000	       753	80001cf8	02396063	bltu	x18,x3,80001d18	 x18:0x80000000  x3:0x00000000
        7555000	       754	80001cfc	592ced13	ori	x26,x25,1426	 x25:0x00000000 x26=0x00000592
        7565000	       755	80001d00	06ed3493	sltiu	x9,x26,110	 x26:0x00000592  x9=0x00000000
        7575000	       756	80001d04	006c63b3	or	x7,x24,x6	 x24:0x00000001  x6:0x00000000  x7=0x00000001
        7585000	       757	80001d08	013d8a63	beq	x27,x19,80001d1c	 x27:0x00000000 x19:0x8000987e
        7595000	       758	80001d0c	df65c093	xori	x1,x11,-522	 x11:0x00000028  x1=0xfffffdde
        7605000	       759	80001d10	80ec8d13	addi	x26,x25,-2034	 x25:0x00000000 x26=0xfffff80e
        7615000	       760	80001d14	01e36633	or	x12,x6,x30	  x6:0x00000000 x30:0x00000000 x12=0x00000000
        7625000	       761	80001d18	40910eb3	sub	x29,x2,x9	  x2:0xffffffee  x9:0x00000000 x29=0xffffffee
        7635000	       762	80001d1c	01b5d9b3	srl	x19,x11,x27	 x11:0x00000028 x27:0x00000000 x19=0x00000028
        7645000	       763	80001d20	01dddb33	srl	x22,x27,x29	 x27:0x00000000 x29:0xffffffee x22=0x00000000
        7655000	       764	80001d24	e6c17113	andi	x2,x2,-404	  x2:0xffffffee  x2=0xfffffe6c
        7665000	       765	80001d28	010199b3	sll	x19,x3,x16	  x3:0x00000000 x16:0x00000000 x19=0x00000000
        7675000	       766	80001d2c	05ad4093	xori	x1,x26,90	 x26:0xfffff80e  x1=0xfffff854
        7685000	       767	80001d30	aad4aa13	slti	x20,x9,-1363	  x9:0x00000000 x20=0x00000000
        7695000	       768	80001d34	00ff6bb3	or	x23,x30,x15	 x30:0x00000000 x15:0x00000000 x23=0x00000000
        7705000	       769	80001d38	caf3fd13	andi	x26,x7,-849	  x7:0x00000001 x26=0x00000001
        7715000	       770	80001d3c	01de6433	or	x8,x28,x29	 x28:0x00000000 x29:0xffffffee  x8=0xffffffee
        7725000	       771	80001d40	1dade993	ori	x19,x27,474	 x27:0x00000000 x19=0x000001da
        7735000	       772	80001d44	d1283c13	sltiu	x24,x16,-750	 x16:0x00000000 x24=0x00000001
        7745000	       773	80001d48	00d00cb3	add	x25,x0,x13	  x0:0x00000000 x13:0x00000000 x25=0x00000000
        7755000	       774	80001d4c	008b4033	xor	x0,x22,x8	 x22:0x00000000  x8:0xffffffee
        7765000	       775	80001d50	01d99eb3	sll	x29,x19,x29	 x19:0x000001da x29:0xffffffee x29=0x00768000
        7775000	       776	80001d54	488f7337	lui	x6,0x488f7	  x6=0x488f7000
        7785000	       777	80001d58	01858133	add	x2,x11,x24	 x11:0x00000028 x24:0x00000001  x2=0x00000029
        7795000	       778	80001d5c	01786a63	bltu	x16,x23,80001d70	 x16:0x00000000 x23:0x00000000
        7805000	       779	80001d60	01255663	bge	x10,x18,80001d6c	 x10:0xfffffed6 x18:0x80000000
        7815000	       780	00000000	00000013	addi	x0,x0,0	  x0:0x00000000
        7825000	       781	80001d68	00000013	addi	x0,x0,0	  x0:0x00000000
        7835000	       782	80001d6c	01df9463	bne	x31,x29,80001d74	 x31:0x3fffb27f x29:0x00768000
        7845000	       783	00000000	00000013	addi	x0,x0,0	  x0:0x00000000
        7855000	       784	80001d70	00000013	addi	x0,x0,0	  x0:0x00000000
        7865000	       785	80001d74	006bcc63	blt	x23,x6,80001d8c	 x23:0x00000000  x6:0x488f7000
        7875000	       786	00000000	00000013	addi	x0,x0,0	  x0:0x00000000
        7885000	       787	80001d88	00000013	addi	x0,x0,0	  x0:0x00000000
        7895000	       788	80001d8c	01069b93	slli	x23,x13,0x10	 x13:0x00000000 x23=0x00000000
        7905000	       789	80001d90	00136d33	or	x26,x6,x1	  x6:0x488f7000  x1:0xfffff854 x26=0xfffff854
        7915000	       790	80001d94	41625b93	srai	x23,x4,0x16	  x4:0xe07cbba0 x23=0xffffff81
        7925000	       791	80001d98	01f0e633	or	x12,x1,x31	  x1:0xfffff854 x31:0x3fffb27f x12=0xfffffa7f
        7935000	       792	80001d9c	a16e8c93	addi	x25,x29,-1514	 x29:0x00768000 x25=0x00767a16
        7945000	       793	80001da0	6a8cc193	xori	x3,x25,1704	 x25:0x00767a16  x3=0x00767cbe
        7955000	       794	80001da4	03fb4863	blt	x22,x31,80001dd4	 x22:0x00000000 x31:0x3fffb27f
        7965000	       795	00000000	00000013	addi	x0,x0,0	  x0:0x00000000
        7975000	       796	80001dd0	00000013	addi	x0,x0,0	  x0:0x00000000
        7985000	       797	80001dd4	01574cb3	xor	x25,x14,x21	 x14:0x80009f2c x21:0x80009fc4 x25=0x000000e8
        7995000	       798	80001dd8	417a5e13	srai	x28,x20,0x17	 x20:0x00000000 x28=0x00000000
        8005000	       799	80001ddc	00000013	addi	x0,x0,0	  x0:0x00000000
        8015000	       800	80001de0	8f627193	andi	x3,x4,-1802	  x4:0xe07cbba0  x3=0xe07cb8a0
        8025000	       801	80001de4	ce0fb413	sltiu	x8,x31,-800	 x31:0x3fffb27f  x8=0x00000001
        8035000	       802	80001de8	00000013	addi	x0,x0,0	  x0:0x00000000
        8045000	       803	80001dec	00000013	addi	x0,x0,0	  x0:0x00000000
        8055000	       804	80001df0	0442c263	blt	x5,x4,80001e34	  x5:0x00000001  x4:0xe07cbba0
        8065000	       805	80001df4	03d2c663	blt	x5,x29,80001e20	  x5:0x00000001 x29:0x00768000
        8075000	       806	00000000	00000013	addi	x0,x0,0	  x0:0x00000000
        8085000	       807	80001e1c	00000013	addi	x0,x0,0	  x0:0x00000000
        8095000	       808	80001e20	0024fe33	and	x28,x9,x2	  x9:0x00000000  x2:0x00000029 x28=0x00000000
        8105000	       809	80001e24	28dc3013	sltiu	x0,x24,653	 x24:0x00000001
        8115000	       810	80001e28	41a50a33	sub	x20,x10,x26	 x10:0xfffffed6 x26:0xfffff854 x20=0x00000682
        8125000	       811	80001e2c	401450b3	sra	x1,x8,x1	  x8:0x00000001  x1:0xfffff854  x1=0x00000000
        8135000	       812	80001e30	00415c33	srl	x24,x2,x4	  x2:0x00000029  x4:0xe07cbba0 x24=0x00000029
        8145000	       813	80001e34	ae217893	andi	x17,x2,-1310	  x2:0x00000029 x17=0x00000020
        8155000	       814	80001e38	02b60863	beq	x12,x11,80001e68	 x12:0xfffffa7f x11:0x00000028
        8165000	       815	80001e3c	407c5833	sra	x16,x24,x7	 x24:0x00000029  x7:0x00000001 x16=0x00000014
        8175000	       816	80001e40	01769263	bne	x13,x23,80001e44	 x13:0x00000000 x23:0xffffff81
        8185000	       817	00000000	00000013	addi	x0,x0,0	  x0:0x00000000
        8195000	       818	80001e40	00000013	addi	x0,x0,0	  x0:0x00000000
        8205000	       819	80001e44	00b26433	or	x8,x4,x11	  x4:0xe07cbba0 x11:0x00000028  x8=0xe07cbba8
        8215000	       820	80001e48	dc714613	xori	x12,x2,-569	  x2:0x00000029 x12=0xfffffdee
        8225000	       821	80001e4c	408001b3	sub	x3,x0,x8	  x0:0x00000000  x8:0xe07cbba8  x3=0x1f834458
        8235000	       822	80001e50	398f2113	slti	x2,x30,920	 x30:0x00000000  x2=0x00000001
        8245000	       823	80001e54	01731033	sll	x0,x6,x23	  x6:0x488f7000 x23:0xffffff81
        8255000	       824	80001e58	013604b3	add	x9,x12,x19	 x12:0xfffffdee x19:0x000001da  x9=0xffffffc8
        8265000	       825	80001e5c	008ca0b3	slt	x1,x25,x8	 x25:0x000000e8  x8:0xe07cbba8  x1=0x00000000
        8275000	       826	80001e60	c56c0093	addi	x1,x24,-938	 x24:0x00000029  x1=0xfffffc7f
        8285000	       827	80001e64	b97c6193	ori	x3,x24,-1129	 x24:0x00000029  x3=0xfffffbbf
        8295000	       828	80001e68	11183093	sltiu	x1,x16,273	 x16:0x00000014  x1=0x00000001
        8305000	       829	80001e6c	00bcfeb3	and	x29,x25,x11	 x25:0x000000e8 x11:0x00000028 x29=0x00000028
        8315000	       830	80001e70	00000013	addi	x0,x0,0	  x0:0x00000000
        8325000	       831	80001e74	fbe76413	ori	x8,x14,-66	 x14:0x80009f2c  x8=0xffffffbe
        8335000	       832	80001e78	a2aa8313	addi	x6,x21,-1494	 x21:0x80009fc4  x6=0x800099ee
        8345000	       833	80001e7c	9c840513	addi	x10,x8,-1592	  x8:0xffffffbe x10=0xfffff986
        8355000	       834	80001e80	01db11b3	sll	x3,x22,x29	 x22:0x00000000 x29:0x00000028  x3=0x00000000
        8365000	       835	80001e84	00275d93	srli	x27,x14,0x2	 x14:0x80009f2c x27=0x200027cb
        8375000	       836	80001e88	01a85393	srli	x7,x16,0x1a	 x16:0x00000014  x7=0x00000000
        8385000	       837	80001e8c	00e467b3	or	x15,x8,x14	  x8:0xffffffbe x14:0x80009f2c x15=0xffffffbe
        8395000	       838	80001e90	006cb333	sltu	x6,x25,x6	 x25:0x000000e8  x6:0x800099ee  x6=0x00000001
        8405000	       839	80001e94	00000013	addi	x0,x0,0	  x0:0x00000000
        8415000	       840	80001e98	02a74463	blt	x14,x10,80001ec0	 x14:0x80009f2c x10:0xfffff986
        8425000	       841	00000000	00000013	addi	x0,x0,0	  x0:0x00000000
        8435000	       842	80001ebc	00000013	addi	x0,x0,0	  x0:0x00000000
        8445000	       843	80001ec0	48547f13	andi	x30,x8,1157	  x8:0xffffffbe x30=0x00000484
        8455000	       844	80001ec4	01bc93b3	sll	x7,x25,x27	 x25:0x000000e8 x27:0x200027cb  x7=0x00074000
        8465000	       845	80001ec8	0455d663	bge	x11,x5,80001f14	 x11:0x00000028  x5:0x00000001
        8475000	       846	00000000	00000013	addi	x0,x0,0	  x0:0x00000000
        8485000	       847	80001f10	00000013	addi	x0,x0,0	  x0:0x00000000
        8495000	       848	80001f14	45c4c313	xori	x6,x9,1116	  x9:0xffffffc8  x6=0xfffffb94
        8505000	       849	80001f18	016ad593	srli	x11,x21,0x16	 x21:0x80009fc4 x11=0x00000200
        8515000	       850	80001f1c	bd5b8213	addi	x4,x23,-1067	 x23:0xffffff81  x4=0xfffffb56
        8525000	       851	80001f20	00225d33	srl	x26,x4,x2	  x4:0xfffffb56  x2:0x00000001 x26=0x7ffffdab
        8535000	       852	80001f24	7138ed13	ori	x26,x17,1811	 x17:0x00000020 x26=0x00000733
        8545000	       853	80001f28	006c2bb3	slt	x23,x24,x6	 x24:0x00000029  x6:0xfffffb94 x23=0x00000000
        8555000	       854	80001f2c	05c75263	bge	x14,x28,80001f70	 x14:0x80009f2c x28:0x00000000
        8565000	       855	80001f30	01d166b3	or	x13,x2,x29	  x2:0x00000001 x29:0x00000028 x13=0x00000029
        8575000	       856	80001f34	009c79b3	and	x19,x24,x9	 x24:0x00000029  x9:0xffffffc8 x19=0x00000008
        8585000	       857	80001f38	f3378d93	addi	x27,x15,-205	 x15:0xffffffbe x27=0xfffffef1
        8595000	       858	80001f3c	00000013	addi	x0,x0,0	  x0:0x00000000
        8605000	       859	80001f40	00a90463	beq	x18,x10,80001f48	 x18:0x80000000 x10:0xfffff986
        8615000	       860	80001f44	2811f593	andi	x11,x3,641	  x3:0x00000000 x11=0x00000000
        8625000	       861	80001f48	004df2b3	and	x5,x27,x4	 x27:0xfffffef1  x4:0xfffffb56  x5=0xfffffa50
        8635000	       862	80001f4c	00000013	addi	x0,x0,0	  x0:0x00000000
        8645000	       863	80001f50	05270613	addi	x12,x14,82	 x14:0x80009f2c x12=0x80009f7e
        8655000	       864	80001f54	00b71f13	slli	x30,x14,0xb	 x14:0x80009f2c x30=0x04f96000
        8665000	       865	80001f58	8ac09897	auipc	x17,0x8ac09	 x17=0x0ac0af54
        8675000	       866	80001f5c	57306417	auipc	x8,0x57306	  x8=0xd7307f58
        8685000	       867	80001f60	00cecdb3	xor	x27,x29,x12	 x29:0x00000028 x12:0x80009f7e x27=0x80009f56
        8695000	       868	80001f64	044ae463	bltu	x21,x4,80001fac	 x21:0x80009fc4  x4:0xfffffb56
        8705000	       869	00000000	00000013	addi	x0,x0,0	  x0:0x00000000
        8715000	       870	80001fa8	00000013	addi	x0,x0,0	  x0:0x00000000
        8725000	       871	80001fac	fde8b313	sltiu	x6,x17,-34	 x17:0x0ac0af54  x6=0x00000001
        8735000	       872	80001fb0	01941c13	slli	x24,x8,0x19	  x8:0xd7307f58 x24=0xb0000000
        8745000	       873	80001fb4	025fd463	bge	x31,x5,80001fdc	 x31:0x3fffb27f  x5:0xfffffa50
        8755000	       874	00000000	00000013	addi	x0,x0,0	  x0:0x00000000
        8765000	       875	80001fd8	00000013	addi	x0,x0,0	  x0:0x00000000
        8775000	       876	80001fdc	40385193	srai	x3,x16,0x3	 x16:0x00000014  x3=0x00000002
        8785000	       877	80001fe0	9bc22613	slti	x12,x4,-1604	  x4:0xfffffb56 x12=0x00000000
        8795000	       878	80001fe4	2afcb313	sltiu	x6,x25,687	 x25:0x000000e8  x6=0x00000001
        8805000	       879	80001fe8	361f4413	xori	x8,x30,865	 x30:0x04f96000  x8=0x04f96361
        8815000	       880	80001fec	b8592613	slti	x12,x18,-1147	 x18:0x80000000 x12=0x00000001
        8825000	       881	80001ff0	01cdd233	srl	x4,x27,x28	 x27:0x80009f56 x28:0x00000000  x4=0x80009f56
        8835000	       882	80001ff4	0110dd13	srli	x26,x1,0x11	  x1:0x00000001 x26=0x00000000
        8845000	       883	80001ff8	5edfcb93	xori	x23,x31,1517	 x31:0x3fffb27f x23=0x3fffb792
        8855000	       884	80001ffc	01c75a63	bge	x14,x28,80002010	 x14:0x80009f2c x28:0x00000000
        8865000	       885	80002000	008392b3	sll	x5,x7,x8	  x7:0x00074000  x8:0x04f96361  x5=0x000e8000
        8875000	       886	80002004	caad6613	ori	x12,x26,-854	 x26:0x00000000 x12=0xfffffcaa
        8885000	       887	80002008	01cd5993	srli	x19,x26,0x1c	 x26:0x00000000 x19=0x00000000
        8895000	       888	8000200c	404f5a13	srai	x20,x30,0x4	 x30:0x04f96000 x20=0x004f9600
        8905000	       889	80002010	051b0663	beq	x22,x17,8000205c	 x22:0x00000000 x17:0x0ac0af54
        8915000	       890	80002014	38310c93	addi	x25,x2,899	  x2:0x00000001 x25=0x00000384
        8925000	       891	80002018	322ffc13	andi	x24,x31,802	 x31:0x3fffb27f x24=0x00000222
        8935000	       892	8000201c	009120b3	slt	x1,x2,x9	  x2:0x00000001  x9:0xffffffc8  x1=0x00000000
        8945000	       893	80002020	00bf6133	or	x2,x30,x11	 x30:0x04f96000 x11:0x00000000  x2=0x04f96000
        8955000	       894	80002024	17e68213	addi	x4,x13,382	 x13:0x00000029  x4=0x000001a7
        8965000	       895	80002028	fcab8213	addi	x4,x23,-54	 x23:0x3fffb792  x4=0x3fffb75c
        8975000	       896	8000202c	ef123513	sltiu	x10,x4,-271	  x4:0x3fffb75c x10=0x00000001
        8985000	       897	80002030	00000013	addi	x0,x0,0	  x0:0x00000000
        8995000	       898	80002034	00000013	addi	x0,x0,0	  x0:0x00000000
        9005000	       899	80002038	01be9863	bne	x29,x27,80002048	 x29:0x00000028 x27:0x80009f56
        9015000	       900	00000000	00000013	addi	x0,x0,0	  x0:0x00000000
        9025000	       901	80002044	00000013	addi	x0,x0,0	  x0:0x00000000
        9035000	       902	80002048	0110afb3	slt	x31,x1,x17	  x1:0x00000000 x17:0x0ac0af54 x31=0x00000001
        9045000	       903	8000204c	00506f33	or	x30,x0,x5	  x0:0x00000000  x5:0x000e8000 x30=0x000e8000
        9055000	       904	80002050	02cbf063	bgeu	x23,x12,80002070	 x23:0x3fffb792 x12:0xfffffcaa
        9065000	       905	80002054	98597e37	lui	x28,0x98597	 x28=0x98597000
        9075000	       906	80002058	01a75013	srli	x0,x14,0x1a	 x14:0x80009f2c
        9085000	       907	8000205c	44e82213	slti	x4,x16,1102	 x16:0x00000014  x4=0x00000001
        9095000	       908	80002060	009adeb3	srl	x29,x21,x9	 x21:0x80009fc4  x9:0xffffffc8 x29=0x0080009f
        9105000	       909	80002064	8c660b93	addi	x23,x12,-1850	 x12:0xfffffcaa x23=0xfffff570
        9115000	       910	80002068	00233e33	sltu	x28,x6,x2	  x6:0x00000001  x2:0x04f96000 x28=0x00000001
        9125000	       911	8000206c	00000013	addi	x0,x0,0	  x0:0x00000000
        9135000	       912	80002070	02140863	beq	x8,x1,800020a0	  x8:0x04f96361  x1:0x00000000
        9145000	       913	80002074	01214663	blt	x2,x18,80002080	  x2:0x04f96000 x18:0x80000000
        9155000	       914	80002078	c9e32e13	slti	x28,x6,-866	  x6:0x00000001 x28=0x00000000
        9165000	       915	8000207c	0039d893	srli	x17,x19,0x3	 x19:0x00000000 x17=0x00000000
        9175000	       916	80002080	02d34063	blt	x6,x13,800020a0	  x6:0x00000001 x13:0x00000029
        9185000	       917	00000000	00000013	addi	x0,x0,0	  x0:0x00000000
        9195000	       918	8000209c	00000013	addi	x0,x0,0	  x0:0x00000000
        9205000	       919	800020a0	04277463	bgeu	x14,x2,800020e8	 x14:0x80009f2c  x2:0x04f96000
        9215000	       920	00000000	00000013	addi	x0,x0,0	  x0:0x00000000
        9225000	       921	800020e4	00000013	addi	x0,x0,0	  x0:0x00000000
        9235000	       922	800020e8	00519cb3	sll	x25,x3,x5	  x3:0x00000002  x5:0x000e8000 x25=0x00000002
        9245000	       923	800020ec	048b8663	beq	x23,x8,80002138	 x23:0xfffff570  x8:0x04f96361
        9255000	       924	800020f0	00000013	addi	x0,x0,0	  x0:0x00000000
        9265000	       925	800020f4	55bb2813	slti	x16,x22,1371	 x22:0x00000000 x16=0x00000001
        9275000	       926	800020f8	0114fc33	and	x24,x9,x17	  x9:0xffffffc8 x17:0x00000000 x24=0x00000000
        9285000	       927	800020fc	f2ddd0b7	lui	x1,0xf2ddd	  x1=0xf2ddd000
        9295000	       928	80002100	00ee2833	slt	x16,x28,x14	 x28:0x00000000 x14:0x80009f2c x16=0x00000000
        9305000	       929	80002104	4a68f293	andi	x5,x17,1190	 x17:0x00000000  x5=0x00000000
        9315000	       930	80002108	002d9113	slli	x2,x27,0x2	 x27:0x80009f56  x2=0x00027d58
        9325000	       931	8000210c	0351d463	bge	x3,x21,80002134	  x3:0x00000002 x21:0x80009fc4
        9335000	       932	00000000	00000013	addi	x0,x0,0	  x0:0x00000000
        9345000	       933	80002130	00000013	addi	x0,x0,0	  x0:0x00000000
        9355000	       934	80002134	006c6e63	bltu	x24,x6,80002150	 x24:0x00000000  x6:0x00000001
        9365000	       935	00000000	00000013	addi	x0,x0,0	  x0:0x00000000
        9375000	       936	8000214c	00000013	addi	x0,x0,0	  x0:0x00000000
        9385000	       937	80002150	4991bc13	sltiu	x24,x3,1177	  x3:0x00000002 x24=0x00000001
        9395000	       938	80002154	01db3b33	sltu	x22,x22,x29	 x22:0x00000000 x29:0x0080009f x22=0x00000001
        9405000	       939	80002158	00b19d33	sll	x26,x3,x11	  x3:0x00000002 x11:0x00000000 x26=0x00000002
        9415000	       940	8000215c	e4a8cf93	xori	x31,x17,-438	 x17:0x00000000 x31=0xfffffe4a
        9425000	       941	80002160	99be2493	slti	x9,x28,-1637	 x28:0x00000000  x9=0x00000000
        9435000	       942	80002164	e5804693	xori	x13,x0,-424	  x0:0x00000000 x13=0xfffffe58
        9445000	       943	80002168	009df4b3	and	x9,x27,x9	 x27:0x80009f56  x9:0x00000000  x9=0x00000000
        9455000	       944	8000216c	40d7d0b3	sra	x1,x15,x13	 x15:0xffffffbe x13:0xfffffe58  x1=0xffffffff
        9465000	       945	80002170	01d01e93	slli	x29,x0,0x1d	  x0:0x00000000 x29=0x00000000
        9475000	       946	80002174	00dd64b3	or	x9,x26,x13	 x26:0x00000002 x13:0xfffffe58  x9=0xfffffe5a
        9485000	       947	80002178	0060dfb3	srl	x31,x1,x6	  x1:0xffffffff  x6:0x00000001 x31=0x7fffffff
        9495000	       948	8000217c	a2bd3cb7	lui	x25,0xa2bd3	 x25=0xa2bd3000
        9505000	       949	80002180	01579493	slli	x9,x15,0x15	 x15:0xffffffbe  x9=0xf7c00000
        9515000	       950	80002184	526bcf93	xori	x31,x23,1318	 x23:0xfffff570 x31=0xfffff056
        9525000	       951	80002188	1f704093	xori	x1,x0,503	  x0:0x00000000  x1=0x000001f7
        9535000	       952	8000218c	417bde93	srai	x29,x23,0x17	 x23:0xfffff570 x29=0xffffffff
        9545000	       953	80002190	414f5093	srai	x1,x30,0x14	 x30:0x000e8000  x1=0x00000000
        9555000	       954	80002194	00814133	xor	x2,x2,x8	  x2:0x00027d58  x8:0x04f96361  x2=0x04fb1e39
        9565000	       955	80002198	0137f463	bgeu	x15,x19,800021a0	 x15:0xffffffbe x19:0x00000000
        9575000	       956	00000000	00000013	addi	x0,x0,0	  x0:0x00000000
        9585000	       957	8000219c	00000013	addi	x0,x0,0	  x0:0x00000000
        9595000	       958	800021a0	7b08a393	slti	x7,x17,1968	 x17:0x00000000  x7=0x00000001
        9605000	       959	800021a4	0038c9b3	xor	x19,x17,x3	 x17:0x00000000  x3:0x00000002 x19=0x00000002
        9615000	       960	800021a8	00b26cb3	or	x25,x4,x11	  x4:0x00000001 x11:0x00000000 x25=0x00000001
        9625000	       961	800021ac	00000013	addi	x0,x0,0	  x0:0x00000000
        9635000	       962	800021b0	41545cb3	sra	x25,x8,x21	  x8:0x04f96361 x21:0x80009fc4 x25=0x004f9636
        9645000	       963	800021b4	0102e263	bltu	x5,x16,800021b8	  x5:0x00000000 x16:0x00000000
        9655000	       964	800021b8	63da99b7	lui	x19,0x63da9	 x19=0x63da9000
        9665000	       965	800021bc	04e5e663	bltu	x11,x14,80002208	 x11:0x00000000 x14:0x80009f2c
        9675000	       966	00000000	00000013	addi	x0,x0,0	  x0:0x00000000
        9685000	       967	80002204	00000013	addi	x0,x0,0	  x0:0x00000000
        9695000	       968	80002208	05ab9263	bne	x23,x26,8000224c	 x23:0xfffff570 x26:0x00000002
        9705000	       969	00000000	00000013	addi	x0,x0,0	  x0:0x00000000
        9715000	       970	80002248	00000013	addi	x0,x0,0	  x0:0x00000000
        9725000	       971	8000224c	011bde33	srl	x28,x23,x17	 x23:0xfffff570 x17:0x00000000 x28=0xfffff570
        9735000	       972	80002250	4118d533	sra	x10,x17,x17	 x17:0x00000000 x17:0x00000000 x10=0x00000000
        9745000	       973	80002254	00000013	addi	x0,x0,0	  x0:0x00000000
        9755000	       974	80002258	40715013	srai	x0,x2,0x7	  x2:0x04fb1e39
        9765000	       975	8000225c	016074b3	and	x9,x0,x22	  x0:0x00000000 x22:0x00000001  x9=0x00000000
        9775000	       976	80002260	009e2fb3	slt	x31,x28,x9	 x28:0xfffff570  x9:0x00000000 x31=0x00000001
        9785000	       977	80002264	95e7ca13	xori	x20,x15,-1698	 x15:0xffffffbe x20=0x000006e0
        9795000	       978	80002268	01c69533	sll	x10,x13,x28	 x13:0xfffffe58 x28:0xfffff570 x10=0xfe580000
        9805000	       979	8000226c	05081463	bne	x16,x16,800022b4	 x16:0x00000000 x16:0x00000000
        9815000	       980	80002270	7e97cf93	xori	x31,x15,2025	 x15:0xffffffbe x31=0xfffff857
        9825000	       981	80002274	00d8f4b3	and	x9,x17,x13	 x17:0x00000000 x13:0xfffffe58  x9=0x00000000
        9835000	       982	80002278	4108d313	srai	x6,x17,0x10	 x17:0x00000000  x6=0x00000000
        9845000	       983	8000227c	009fc133	xor	x2,x31,x9	 x31:0xfffff857  x9:0x00000000  x2=0xfffff857
        9855000	       984	80002280	bb6b2813	slti	x16,x22,-1098	 x22:0x00000001 x16=0x00000000
        9865000	       985	80002284	01559133	sll	x2,x11,x21	 x11:0x00000000 x21:0x80009fc4  x2=0x00000000
        9875000	       986	80002288	02d50a63	beq	x10,x13,800022bc	 x10:0xfe580000 x13:0xfffffe58
        9885000	       987	8000228c	55173b93	sltiu	x23,x14,1361	 x14:0x80009f2c x23=0x00000000
        9895000	       988	80002290	f34d6093	ori	x1,x26,-204	 x26:0x00000002  x1=0xffffff36
        9905000	       989	80002294	00605863	bge	x0,x6,800022a4	  x0:0x00000000  x6:0x00000000
        9915000	       990	00000000	00000013	addi	x0,x0,0	  x0:0x00000000
        9925000	       991	800022a0	00000013	addi	x0,x0,0	  x0:0x00000000
        9935000	       992	800022a4	00199313	slli	x6,x19,0x1	 x19:0x63da9000  x6=0xc7b52000
        9945000	       993	800022a8	00aa0a63	beq	x20,x10,800022bc	 x20:0x000006e0 x10:0xfe580000
        9955000	       994	800022ac	415e5c13	srai	x24,x28,0x15	 x28:0xfffff570 x24=0xffffffff
        9965000	       995	800022b0	04399863	bne	x19,x3,80002300	 x19:0x63da9000  x3:0x00000002
        9975000	       996	00000000	00000013	addi	x0,x0,0	  x0:0x00000000
        9985000	       997	800022fc	00000013	addi	x0,x0,0	  x0:0x00000000
        9995000	       998	80002300	01f71c13	slli	x24,x14,0x1f	 x14:0x80009f2c x24=0x00000000
       10005000	       999	80002304	01a39d33	sll	x26,x7,x26	  x7:0x00000001 x26:0x00000002 x26=0x00000004
       10015000	      1000	80002308	0082c2b3	xor	x5,x5,x8	  x5:0x00000000  x8:0x04f96361  x5=0x04f96361
       10025000	      1001	8000230c	025d4863	blt	x26,x5,8000233c	 x26:0x00000004  x5:0x04f96361
       10035000	      1002	00000000	00000013	addi	x0,x0,0	  x0:0x00000000
       10045000	      1003	80002338	00000013	addi	x0,x0,0	  x0:0x00000000
       10055000	      1004	8000233c	62655537	lui	x10,0x62655	 x10=0x62655000
       10065000	      1005	80002340	6611ed13	ori	x26,x3,1633	  x3:0x00000002 x26=0x00000663
       10075000	      1006	80002344	012d4f33	xor	x30,x26,x18	 x26:0x00000663 x18:0x80000000 x30=0x80000663
       10085000	      1007	80002348	db6e4817	auipc	x16,0xdb6e4	 x16=0x5b6e6344
       10095000	      1008	8000234c	744a8097	auipc	x1,0x744a8	  x1=0xf44aa348
       10105000	      1009	80002350	001cde33	srl	x28,x25,x1	 x25:0x004f9636  x1:0xf44aa348 x28=0x00004f96
       10115000	      1010	80002354	004f1233	sll	x4,x30,x4	 x30:0x80000663  x4:0x00000001  x4=0x00000cc6
       10125000	      1011	80002358	03ed9a63	bne	x27,x30,8000238c	 x27:0x80009f56 x30:0x80000663
       10135000	      1012	00000000	00000013	addi	x0,x0,0	  x0:0x00000000
       10145000	      1013	80002388	00000013	addi	x0,x0,0	  x0:0x00000000
       10155000	      1014	8000238c	40410eb3	sub	x29,x2,x4	  x2:0x00000000  x4:0x00000cc6 x29=0xfffff33a
       10165000	      1015	80002390	0049d113	srli	x2,x19,0x4	 x19:0x63da9000  x2=0x063da900
       10175000	      1016	80002394	0285e063	bltu	x11,x8,800023b4	 x11:0x00000000  x8:0x04f96361
       10185000	      1017	00000000	00000013	addi	x0,x0,0	  x0:0x00000000
       10195000	      1018	800023b0	00000013	addi	x0,x0,0	  x0:0x00000000
       10205000	      1019	800023b4	00ccbf33	sltu	x30,x25,x12	 x25:0x004f9636 x12:0xfffffcaa x30=0x00000001
       10215000	      1020	800023b8	04061663	bne	x12,x0,80002404	 x12:0xfffffcaa  x0:0x00000000
       10225000	      1021	00000000	00000013	addi	x0,x0,0	  x0:0x00000000
       10235000	      1022	80002400	00000013	addi	x0,x0,0	  x0:0x00000000
       10245000	      1023	80002404	93827493	andi	x9,x4,-1736	  x4:0x00000cc6  x9=0x00000800
       10255000	      1024	80002408	98987993	andi	x19,x16,-1655	 x16:0x5b6e6344 x19=0x5b6e6100
       10265000	      1025	8000240c	409b5533	sra	x10,x22,x9	 x22:0x00000001  x9:0x00000800 x10=0x00000001
       10275000	      1026	80002410	ba947013	andi	x0,x8,-1111	  x8:0x04f96361
       10285000	      1027	80002414	02015a63	bge	x2,x0,80002448	  x2:0x063da900  x0:0x00000000
       10295000	      1028	00000000	00000013	addi	x0,x0,0	  x0:0x00000000
       10305000	      1029	80002444	00000013	addi	x0,x0,0	  x0:0x00000000
       10315000	      1030	80002448	04d40463	beq	x8,x13,80002490	  x8:0x04f96361 x13:0xfffffe58
       10325000	      1031	8000244c	010bda63	bge	x23,x16,80002460	 x23:0x00000000 x16:0x5b6e6344
       10335000	      1032	80002450	0146ad33	slt	x26,x13,x20	 x13:0xfffffe58 x20:0x000006e0 x26=0x00000001
       10345000	      1033	80002454	00a1c233	xor	x4,x3,x10	  x3:0x00000002 x10:0x00000001  x4=0x00000003
       10355000	      1034	80002458	402887b3	sub	x15,x17,x2	 x17:0x00000000  x2:0x063da900 x15=0xf9c25700
       10365000	      1035	8000245c	e03b7a13	andi	x20,x22,-509	 x22:0x00000001 x20=0x00000001
       10375000	      1036	80002460	00258133	add	x2,x11,x2	 x11:0x00000000  x2:0x063da900  x2=0x063da900
       10385000	      1037	80002464	40eb8633	sub	x12,x23,x14	 x23:0x00000000 x14:0x80009f2c x12=0x7fff60d4
       10395000	      1038	80002468	76a12393	slti	x7,x2,1898	  x2:0x063da900  x7=0x00000000
       10405000	      1039	8000246c	0114e633	or	x12,x9,x17	  x9:0x00000800 x17:0x00000000 x12=0x00000800
       10415000	      1040	80002470	019fd033	srl	x0,x31,x25	 x31:0xfffff857 x25:0x004f9636
       10425000	      1041	80002474	00410233	add	x4,x2,x4	  x2:0x063da900  x4:0x00000003  x4=0x063da903
       10435000	      1042	80002478	00c86cb3	or	x25,x16,x12	 x16:0x5b6e6344 x12:0x00000800 x25=0x5b6e6b44
       10445000	      1043	8000247c	1ebe3d93	sltiu	x27,x28,491	 x28:0x00004f96 x27=0x00000000
       10455000	      1044	80002480	411b87b3	sub	x15,x23,x17	 x23:0x00000000 x17:0x00000000 x15=0x00000000
       10465000	      1045	80002484	040f4463	blt	x30,x0,800024cc	 x30:0x00000001  x0:0x00000000
       10475000	      1046	80002488	04501263	bne	x0,x5,800024cc	  x0:0x00000000  x5:0x04f96361
       10485000	      1047	00000000	00000013	addi	x0,x0,0	  x0:0x00000000
       10495000	      1048	800024c8	00000013	addi	x0,x0,0	  x0:0x00000000
       10505000	      1049	800024cc	00669393	slli	x7,x13,0x6	 x13:0xfffffe58  x7=0xffff9600
       10515000	      1050	800024d0	160a3b93	sltiu	x23,x20,352	 x20:0x00000001 x23=0x00000001
       10525000	      1051	800024d4	6bc0bb93	sltiu	x23,x1,1724	  x1:0xf44aa348 x23=0x00000000
       10535000	      1052	800024d8	0d512213	slti	x4,x2,213	  x2:0x063da900  x4=0x00000000
       10545000	      1053	800024dc	ee0d04b7	lui	x9,0xee0d0	  x9=0xee0d0000
       10555000	      1054	800024e0	40dd03b3	sub	x7,x26,x13	 x26:0x00000001 x13:0xfffffe58  x7=0x000001a9
       10565000	      1055	800024e4	0031db33	srl	x22,x3,x3	  x3:0x00000002  x3:0x00000002 x22=0x00000000
       10575000	      1056	800024e8	010107b3	add	x15,x2,x16	  x2:0x063da900 x16:0x5b6e6344 x15=0x61ac0c44
       10585000	      1057	800024ec	002fd033	srl	x0,x31,x2	 x31:0xfffff857  x2:0x063da900
       10595000	      1058	800024f0	16014b93	xori	x23,x2,352	  x2:0x063da900 x23=0x063da860
       10605000	      1059	800024f4	016d5693	srli	x13,x26,0x16	 x26:0x00000001 x13=0x00000000
       10615000	      1060	800024f8	dc307793	andi	x15,x0,-573	  x0:0x00000000 x15=0x00000000
       10625000	      1061	800024fc	02a3e863	bltu	x7,x10,8000252c	  x7:0x000001a9 x10:0x00000001
       10635000	      1062	80002500	0004f9b3	and	x19,x9,x0	  x9:0xee0d0000  x0:0x00000000 x19=0x00000000
       10645000	      1063	80002504	012995b3	sll	x11,x19,x18	 x19:0x00000000 x18:0x80000000 x11=0x00000000
       10655000	      1064	80002508	00d2da63	bge	x5,x13,8000251c	  x5:0x04f96361 x13:0x00000000
       10665000	      1065	00000000	00000013	addi	x0,x0,0	  x0:0x00000000
       10675000	      1066	80002518	00000013	addi	x0,x0,0	  x0:0x00000000
       10685000	      1067	8000251c	413e56b3	sra	x13,x28,x19	 x28:0x00004f96 x19:0x00000000 x13=0x00004f96
       10695000	      1068	80002520	00000013	addi	x0,x0,0	  x0:0x00000000
       10705000	      1069	80002524	00bfbdb3	sltu	x27,x31,x11	 x31:0xfffff857 x11:0x00000000 x27=0x00000000
       10715000	      1070	80002528	01f96fb3	or	x31,x18,x31	 x18:0x80000000 x31:0xfffff857 x31=0xfffff857
       10725000	      1071	8000252c	46ba6c13	ori	x24,x20,1131	 x20:0x00000001 x24=0x0000046b
       10735000	      1072	80002530	05931463	bne	x6,x25,80002578	  x6:0xc7b52000 x25:0x5b6e6b44
       10745000	      1073	00000000	00000013	addi	x0,x0,0	  x0:0x00000000
       10755000	      1074	80002574	00000013	addi	x0,x0,0	  x0:0x00000000
       10765000	      1075	80002578	41d4dc93	srai	x25,x9,0x1d	  x9:0xee0d0000 x25=0xffffffff
       10775000	      1076	8000257c	27f12293	slti	x5,x2,639	  x2:0x063da900  x5=0x00000000
       10785000	      1077	80002580	02b68063	beq	x13,x11,800025a0	 x13:0x00004f96 x11:0x00000000
       10795000	      1078	80002584	00c39533	sll	x10,x7,x12	  x7:0x000001a9 x12:0x00000800 x10=0x000001a9
       10805000	      1079	80002588	012f0533	add	x10,x30,x18	 x30:0x00000001 x18:0x80000000 x10=0x80000001
       10815000	      1080	8000258c	ce619d17	auipc	x26,0xce619	 x26=0x4e61b588
       10825000	      1081	80002590	409187b3	sub	x15,x3,x9	  x3:0x00000002  x9:0xee0d0000 x15=0x11f30002
       10835000	      1082	80002594	ba90e693	ori	x13,x1,-1111	  x1:0xf44aa348 x13=0xfffffbe9
       10845000	      1083	80002598	0017f3b3	and	x7,x15,x1	 x15:0x11f30002  x1:0xf44aa348  x7=0x10420000
       10855000	      1084	8000259c	01ccdb13	srli	x22,x25,0x1c	 x25:0xffffffff x22=0x0000000f
       10865000	      1085	800025a0	01e0fe63	bgeu	x1,x30,800025bc	  x1:0xf44aa348 x30:0x00000001
       10875000	      1086	00000000	00000013	addi	x0,x0,0	  x0:0x00000000
       10885000	      1087	800025b8	00000013	addi	x0,x0,0	  x0:0x00000000
       10895000	      1088	800025bc	001f51b3	srl	x3,x30,x1	 x30:0x00000001  x1:0xf44aa348  x3=0x00000000
       10905000	      1089	800025c0	026d6a63	bltu	x26,x6,800025f4	 x26:0x4e61b588  x6:0xc7b52000
       10915000	      1090	00000000	00000013	addi	x0,x0,0	  x0:0x00000000
       10925000	      1091	800025f0	00000013	addi	x0,x0,0	  x0:0x00000000
       10935000	      1092	800025f4	0279fa63	bgeu	x19,x7,80002628	 x19:0x00000000  x7:0x10420000
       10945000	      1093	800025f8	71352e37	lui	x28,0x71352	 x28=0x71352000
       10955000	      1094	800025fc	40e98fb3	sub	x31,x19,x14	 x19:0x00000000 x14:0x80009f2c x31=0x7fff60d4
       10965000	      1095	80002600	025af463	bgeu	x21,x5,80002628	 x21:0x80009fc4  x5:0x00000000
       10975000	      1096	00000000	00000013	addi	x0,x0,0	  x0:0x00000000
       10985000	      1097	80002624	00000013	addi	x0,x0,0	  x0:0x00000000
       10995000	      1098	80002628	8bc86d13	ori	x26,x16,-1860	 x16:0x5b6e6344 x26=0xfffffbfc
       11005000	      1099	8000262c	019d1cb3	sll	x25,x26,x25	 x26:0xfffffbfc x25:0xffffffff x25=0x00000000
       11015000	      1100	80002630	44bcddb7	lui	x27,0x44bcd	 x27=0x44bcd000
       11025000	      1101	80002634	041f0663	beq	x30,x1,80002680	 x30:0x00000001  x1:0xf44aa348
       11035000	      1102	80002638	01f4a7b3	slt	x15,x9,x31	  x9:0xee0d0000 x31:0x7fff60d4 x15=0x00000001
       11045000	      1103	8000263c	a06d3c93	sltiu	x25,x26,-1530	 x26:0xfffffbfc x25=0x00000000
       11055000	      1104	80002640	034e5863	bge	x28,x20,80002670	 x28:0x71352000 x20:0x00000001
       11065000	      1105	00000000	00000013	addi	x0,x0,0	  x0:0x00000000
       11075000	      1106	8000266c	00000013	addi	x0,x0,0	  x0:0x00000000
       11085000	      1107	80002670	00739f33	sll	x30,x7,x7	  x7:0x10420000  x7:0x10420000 x30=0x10420000
       11095000	      1108	80002674	16efcb13	xori	x22,x31,366	 x31:0x7fff60d4 x22=0x7fff61ba
       11105000	      1109	80002678	074bcf93	xori	x31,x23,116	 x23:0x063da860 x31=0x063da814
       11115000	      1110	8000267c	014baa33	slt	x20,x23,x20	 x23:0x063da860 x20:0x00000001 x20=0x00000000
       11125000	      1111	80002680	018ed513	srli	x10,x29,0x18	 x29:0xfffff33a x10=0x000000ff
       11135000	      1112	80002684	013f1bb3	sll	x23,x30,x19	 x30:0x10420000 x19:0x00000000 x23=0x10420000
       11145000	      1113	80002688	40098cb3	sub	x25,x19,x0	 x19:0x00000000  x0:0x00000000 x25=0x00000000
       11155000	      1114	8000268c	00000013	addi	x0,x0,0	  x0:0x00000000
       11165000	      1115	80002690	40340e33	sub	x28,x8,x3	  x8:0x04f96361  x3:0x00000000 x28=0x04f96361
       11175000	      1116	80002694	40b6dbb3	sra	x23,x13,x11	 x13:0xfffffbe9 x11:0x00000000 x23=0xfffffbe9
       11185000	      1117	80002698	41bed313	srai	x6,x29,0x1b	 x29:0xfffff33a  x6=0xffffffff
       11195000	      1118	8000269c	93708793	addi	x15,x1,-1737	  x1:0xf44aa348 x15=0xf44a9c7f
       11205000	      1119	800026a0	00885263	bge	x16,x8,800026a4	 x16:0x5b6e6344  x8:0x04f96361
       11215000	      1120	00000000	00000013	addi	x0,x0,0	  x0:0x00000000
       11225000	      1121	800026a0	00000013	addi	x0,x0,0	  x0:0x00000000
       11235000	      1122	800026a4	000c9693	slli	x13,x25,0x0	 x25:0x00000000 x13=0x00000000
       11245000	      1123	800026a8	e75c4693	xori	x13,x24,-395	 x24:0x0000046b x13=0xfffffa1e
       11255000	      1124	800026ac	159eaa13	slti	x20,x29,345	 x29:0xfffff33a x20=0x00000001
       11265000	      1125	800026b0	3a6c8793	addi	x15,x25,934	 x25:0x00000000 x15=0x000003a6
       11275000	      1126	800026b4	4366ce93	xori	x29,x13,1078	 x13:0xfffffa1e x29=0xfffffe28
       11285000	      1127	800026b8	00579093	slli	x1,x15,0x5	 x15:0x000003a6  x1=0x000074c0
       11295000	      1128	800026bc	7d0fb037	lui	x0,0x7d0fb	
       11305000	      1129	800026c0	bad36893	ori	x17,x6,-1107	  x6:0xffffffff x17=0xffffffff
       11315000	      1130	800026c4	00000013	addi	x0,x0,0	  x0:0x00000000
       11325000	      1131	800026c8	d987a493	slti	x9,x15,-616	 x15:0x000003a6  x9=0x00000000
       11335000	      1132	800026cc	407fd093	srai	x1,x31,0x7	 x31:0x063da814  x1=0x000c7b50
       11345000	      1133	800026d0	05fb4663	blt	x22,x31,8000271c	 x22:0x7fff61ba x31:0x063da814
       11355000	      1134	800026d4	40ba56b3	sra	x13,x20,x11	 x20:0x00000001 x11:0x00000000 x13=0x00000001
       11365000	      1135	800026d8	096e0f13	addi	x30,x28,150	 x28:0x04f96361 x30=0x04f963f7
       11375000	      1136	800026dc	020d9863	bne	x27,x0,8000270c	 x27:0x44bcd000  x0:0x00000000
       11385000	      1137	00000000	00000013	addi	x0,x0,0	  x0:0x00000000
       11395000	      1138	80002708	00000013	addi	x0,x0,0	  x0:0x00000000
       11405000	      1139	8000270c	006aa533	slt	x10,x21,x6	 x21:0x80009fc4  x6:0xffffffff x10=0x00000001
       11415000	      1140	80002710	13ad6693	ori	x13,x26,314	 x26:0xfffffbfc x13=0xfffffbfe
       11425000	      1141	80002714	018b7cb3	and	x25,x22,x24	 x22:0x7fff61ba x24:0x0000046b x25=0x0000002a
       11435000	      1142	80002718	fef10d13	addi	x26,x2,-17	  x2:0x063da900 x26=0x063da8ef
       11445000	      1143	8000271c	02f09663	bne	x1,x15,80002748	  x1:0x000c7b50 x15:0x000003a6
       11455000	      1144	00000000	00000013	addi	x0,x0,0	  x0:0x00000000
       11465000	      1145	80002744	00000013	addi	x0,x0,0	  x0:0x00000000
       11475000	      1146	80002748	00d7ea63	bltu	x15,x13,8000275c	 x15:0x000003a6 x13:0xfffffbfe
       11485000	      1147	00000000	00000013	addi	x0,x0,0	  x0:0x00000000
       11495000	      1148	80002758	00000013	addi	x0,x0,0	  x0:0x00000000
       11505000	      1149	8000275c	db990437	lui	x8,0xdb990	  x8=0xdb990000
       11515000	      1150	80002760	01da9fb3	sll	x31,x21,x29	 x21:0x80009fc4 x29:0xfffffe28 x31=0x009fc400
       11525000	      1151	80002764	005ecfb3	xor	x31,x29,x5	 x29:0xfffffe28  x5:0x00000000 x31=0xfffffe28
       11535000	      1152	80002768	00087c33	and	x24,x16,x0	 x16:0x5b6e6344  x0:0x00000000 x24=0x00000000
       11545000	      1153	8000276c	0009f333	and	x6,x19,x0	 x19:0x00000000  x0:0x00000000  x6=0x00000000
       11555000	      1154	80002770	89ac3c37	lui	x24,0x89ac3	 x24=0x89ac3000
       11565000	      1155	80002774	01ab7033	and	x0,x22,x26	 x22:0x7fff61ba x26:0x063da8ef
       11575000	      1156	80002778	17520c93	addi	x25,x4,373	  x4:0x00000000 x25=0x00000175
       11585000	      1157	8000277c	00c15f93	srli	x31,x2,0xc	  x2:0x063da900 x31=0x000063da
       11595000	      1158	80002780	023d8863	beq	x27,x3,800027b0	 x27:0x44bcd000  x3:0x00000000
       11605000	      1159	80002784	41dc5493	srai	x9,x24,0x1d	 x24:0x89ac3000  x9=0xfffffffc
       11615000	      1160	80002788	fd557893	andi	x17,x10,-43	 x10:0x00000001 x17=0x00000001
       11625000	      1161	8000278c	afc4c137	lui	x2,0xafc4c	  x2=0xafc4c000
       11635000	      1162	80002790	415e82b3	sub	x5,x29,x21	 x29:0xfffffe28 x21:0x80009fc4  x5=0x7fff5e64
       11645000	      1163	80002794	008d5993	srli	x19,x26,0x8	 x26:0x063da8ef x19=0x00063da8
       11655000	      1164	80002798	94c2a413	slti	x8,x5,-1716	  x5:0x7fff5e64  x8=0x00000000
       11665000	      1165	8000279c	02196863	bltu	x18,x1,800027cc	 x18:0x80000000  x1:0x000c7b50
       11675000	      1166	800027a0	00000013	addi	x0,x0,0	  x0:0x00000000
       11685000	      1167	800027a4	02e0d063	bge	x1,x14,800027c4	  x1:0x000c7b50 x14:0x80009f2c
       11695000	      1168	00000000	00000013	addi	x0,x0,0	  x0:0x00000000
       11705000	      1169	800027c0	00000013	addi	x0,x0,0	  x0:0x00000000
       11715000	      1170	800027c4	df7e2c93	slti	x25,x28,-521	 x28:0x04f96361 x25=0x00000000
       11725000	      1171	800027c8	6ec62a13	slti	x20,x12,1772	 x12:0x00000800 x20=0x00000000
       11735000	      1172	800027cc	0057c1b3	xor	x3,x15,x5	 x15:0x000003a6  x5:0x7fff5e64  x3=0x7fff5dc2
       11745000	      1173	800027d0	7637ad93	slti	x27,x15,1891	 x15:0x000003a6 x27=0x00000001
       11755000	      1174	800027d4	85880d13	addi	x26,x16,-1960	 x16:0x5b6e6344 x26=0x5b6e5b9c
       11765000	      1175	800027d8	0073e0b3	or	x1,x7,x7	  x7:0x10420000  x7:0x10420000  x1=0x10420000
       11775000	      1176	800027dc	01369813	slli	x16,x13,0x13	 x13:0xfffffbfe x16=0xdff00000
       11785000	      1177	800027e0	01b46eb3	or	x29,x8,x27	  x8:0x00000000 x27:0x00000001 x29=0x00000001
       11795000	      1178	800027e4	01142f33	slt	x30,x8,x17	  x8:0x00000000 x17:0x00000001 x30=0x00000001
       11805000	      1179	800027e8	034b1a63	bne	x22,x20,8000281c	 x22:0x7fff61ba x20:0x00000000
       11815000	      1180	00000000	00000013	addi	x0,x0,0	  x0:0x00000000
       11825000	      1181	80002818	00000013	addi	x0,x0,0	  x0:0x00000000
       11835000	      1182	8000281c	01e65e33	srl	x28,x12,x30	 x12:0x00000800 x30:0x00000001 x28=0x00000400
       11845000	      1183	80002820	2c94f313	andi	x6,x9,713	  x9:0xfffffffc  x6=0x000002c8
       11855000	      1184	80002824	001bc433	xor	x8,x23,x1	 x23:0xfffffbe9  x1:0x10420000  x8=0xefbdfbe9
       11865000	      1185	80002828	4e89e013	ori	x0,x19,1256	 x19:0x00063da8
       11875000	      1186	8000282c	4bdb8313	addi	x6,x23,1213	 x23:0xfffffbe9  x6=0x000000a6
       11885000	      1187	80002830	00904a33	xor	x20,x0,x9	  x0:0x00000000  x9:0xfffffffc x20=0xfffffffc
       11895000	      1188	80002834	84a83693	sltiu	x13,x16,-1974	 x16:0xdff00000 x13=0x00000001
       11905000	      1189	80002838	00bb1463	bne	x22,x11,80002840	 x22:0x7fff61ba x11:0x00000000
       11915000	      1190	00000000	00000013	addi	x0,x0,0	  x0:0x00000000
       11925000	      1191	8000283c	00000013	addi	x0,x0,0	  x0:0x00000000
       11935000	      1192	80002840	0101c9b3	xor	x19,x3,x16	  x3:0x7fff5dc2 x16:0xdff00000 x19=0xa00f5dc2
       11945000	      1193	80002844	a7d24293	xori	x5,x4,-1411	  x4:0x00000000  x5=0xfffffa7d
       11955000	      1194	80002848	01127433	and	x8,x4,x17	  x4:0x00000000 x17:0x00000001  x8=0x00000000
       11965000	      1195	8000284c	1792cc17	auipc	x24,0x1792c	 x24=0x9792e848
       11975000	      1196	80002850	00fc9693	slli	x13,x25,0xf	 x25:0x00000000 x13=0x00000000
       11985000	      1197	80002854	cbf70693	addi	x13,x14,-833	 x14:0x80009f2c x13=0x80009beb
       11995000	      1198	80002858	01ef8f33	add	x30,x31,x30	 x31:0x000063da x30:0x00000001 x30=0x000063db
       12005000	      1199	8000285c	01e225b3	slt	x11,x4,x30	  x4:0x00000000 x30:0x000063db x11=0x00000001
       12015000	      1200	80002860	00939493	slli	x9,x7,0x9	  x7:0x10420000  x9=0x84000000
       12025000	      1201	80002864	00a86a33	or	x20,x16,x10	 x16:0xdff00000 x10:0x00000001 x20=0xdff00001
       12035000	      1202	80002868	00000013	addi	x0,x0,0	  x0:0x00000000
       12045000	      1203	8000286c	00000013	addi	x0,x0,0	  x0:0x00000000
       12055000	      1204	80002870	02a84663	blt	x16,x10,8000289c	 x16:0xdff00000 x10:0x00000001
       12065000	      1205	00000000	00000013	addi	x0,x0,0	  x0:0x00000000
       12075000	      1206	80002898	00000013	addi	x0,x0,0	  x0:0x00000000
       12085000	      1207	8000289c	0521d463	bge	x3,x18,800028e4	  x3:0x7fff5dc2 x18:0x80000000
       12095000	      1208	00000000	00000013	addi	x0,x0,0	  x0:0x00000000
       12105000	      1209	800028e0	00000013	addi	x0,x0,0	  x0:0x00000000
       12115000	      1210	800028e4	010c69b3	or	x19,x24,x16	 x24:0x9792e848 x16:0xdff00000 x19=0xdff2e848
       12125000	      1211	800028e8	016adfb3	srl	x31,x21,x22	 x21:0x80009fc4 x22:0x7fff61ba x31=0x00000020
       12135000	      1212	800028ec	019ca1b3	slt	x3,x25,x25	 x25:0x00000000 x25:0x00000000  x3=0x00000000
       12145000	      1213	800028f0	02e8fa63	bgeu	x17,x14,80002924	 x17:0x00000001 x14:0x80009f2c
       12155000	      1214	800028f4	41e7d5b3	sra	x11,x15,x30	 x15:0x000003a6 x30:0x000063db x11=0x00000000
       12165000	      1215	800028f8	01d5db93	srli	x23,x11,0x1d	 x11:0x00000000 x23=0x00000000
       12175000	      1216	800028fc	40728c33	sub	x24,x5,x7	  x5:0xfffffa7d  x7:0x10420000 x24=0xefbdfa7d
       12185000	      1217	80002900	00db7033	and	x0,x22,x13	 x22:0x7fff61ba x13:0x80009beb
       12195000	      1218	80002904	41cf5813	srai	x16,x30,0x1c	 x30:0x000063db x16=0x00000000
       12205000	      1219	80002908	039ae463	bltu	x21,x25,80002930	 x21:0x80009fc4 x25:0x00000000
       12215000	      1220	8000290c	01e23f33	sltu	x30,x4,x30	  x4:0x00000000 x30:0x000063db x30=0x00000001
       12225000	      1221	80002910	40ed8fb3	sub	x31,x27,x14	 x27:0x00000001 x14:0x80009f2c x31=0x7fff60d5
       12235000	      1222	80002914	00cef833	and	x16,x29,x12	 x29:0x00000001 x12:0x00000800 x16=0x00000000
       12245000	      1223	80002918	41e4de93	srai	x29,x9,0x1e	  x9:0x84000000 x29=0xfffffffe
       12255000	      1224	8000291c	bfaf1c17	auipc	x24,0xbfaf1	 x24=0x3faf3918
       12265000	      1225	80002920	007a0263	beq	x20,x7,80002924	 x20:0xdff00001  x7:0x10420000
       12275000	      1226	80002924	00ddde93	srli	x29,x27,0xd	 x27:0x00000001 x29=0x00000000
       12285000	      1227	80002928	00b70533	add	x10,x14,x11	 x14:0x80009f2c x11:0x00000000 x10=0x80009f2c
       12295000	      1228	8000292c	0484c663	blt	x9,x8,80002978	  x9:0x84000000  x8:0x00000000
       12305000	      1229	00000000	00000013	addi	x0,x0,0	  x0:0x00000000
       12315000	      1230	80002974	00000013	addi	x0,x0,0	  x0:0x00000000
       12325000	      1231	80002978	40b9dcb3	sra	x25,x19,x11	 x19:0xdff2e848 x11:0x00000000 x25=0xdff2e848
       12335000	      1232	8000297c	014d0663	beq	x26,x20,80002988	 x26:0x5b6e5b9c x20:0xdff00001
       12345000	      1233	80002980	df061017	auipc	x0,0xdf061	
       12355000	      1234	80002984	01249c13	slli	x24,x9,0x12	  x9:0x84000000 x24=0x00000000
       12365000	      1235	80002988	00fdf533	and	x10,x27,x15	 x27:0x00000001 x15:0x000003a6 x10=0x00000000
       12375000	      1236	8000298c	67539e37	lui	x28,0x67539	 x28=0x67539000
       12385000	      1237	80002990	973a6213	ori	x4,x20,-1677	 x20:0xdff00001  x4=0xfffff973
       12395000	      1238	80002994	f38dff13	andi	x30,x27,-200	 x27:0x00000001 x30=0x00000000
       12405000	      1239	80002998	fb5bcc93	xori	x25,x23,-75	 x23:0x00000000 x25=0xffffffb5
       12415000	      1240	8000299c	016c3db3	sltu	x27,x24,x22	 x24:0x00000000 x22:0x7fff61ba x27=0x00000001
       12425000	      1241	800029a0	79fe6e13	ori	x28,x28,1951	 x28:0x67539000 x28=0x6753979f
       12435000	      1242	800029a4	0265fc63	bgeu	x11,x6,800029dc	 x11:0x00000000  x6:0x000000a6
       12445000	      1243	800029a8	002d04b3	add	x9,x26,x2	 x26:0x5b6e5b9c  x2:0xafc4c000  x9=0x0b331b9c
       12455000	      1244	800029ac	1c3d8293	addi	x5,x27,451	 x27:0x00000001  x5=0x000001c4
       12465000	      1245	800029b0	7da4e637	lui	x12,0x7da4e	 x12=0x7da4e000
       12475000	      1246	800029b4	00000013	addi	x0,x0,0	  x0:0x00000000
       12485000	      1247	800029b8	02cc6a63	bltu	x24,x12,800029ec	 x24:0x00000000 x12:0x7da4e000
       12495000	      1248	00000000	00000013	addi	x0,x0,0	  x0:0x00000000
       12505000	      1249	800029e8	00000013	addi	x0,x0,0	  x0:0x00000000
       12515000	      1250	800029ec	00d4c6b3	xor	x13,x9,x13	  x9:0x0b331b9c x13:0x80009beb x13=0x8b338077
       12525000	      1251	800029f0	05be9463	bne	x29,x27,80002a38	 x29:0x00000000 x27:0x00000001
       12535000	      1252	00000000	00000013	addi	x0,x0,0	  x0:0x00000000
       12545000	      1253	80002a34	00000013	addi	x0,x0,0	  x0:0x00000000
       12555000	      1254	80002a38	71e01617	auipc	x12,0x71e01	 x12=0xf1e03a34
       12565000	      1255	80002a3c	4070d193	srai	x3,x1,0x7	  x1:0x10420000  x3=0x00208400
       12575000	      1256	80002a40	027c7a63	bgeu	x24,x7,80002a74	 x24:0x00000000  x7:0x10420000
       12585000	      1257	80002a44	068bb297	auipc	x5,0x68bb	  x5=0x868bda40
       12595000	      1258	80002a48	42b57d93	andi	x27,x10,1067	 x10:0x00000000 x27=0x00000000
       12605000	      1259	80002a4c	014e9693	slli	x13,x29,0x14	 x29:0x00000000 x13=0x00000000
       12615000	      1260	80002a50	59410213	addi	x4,x2,1428	  x2:0xafc4c000  x4=0xafc4c594
       12625000	      1261	80002a54	79650f17	auipc	x30,0x79650	 x30=0xf9652a50
       12635000	      1262	80002a58	00af43b3	xor	x7,x30,x10	 x30:0xf9652a50 x10:0x00000000  x7=0xf9652a50
       12645000	      1263	80002a5c	00ee5093	srli	x1,x28,0xe	 x28:0x6753979f  x1=0x00019d4e
       12655000	      1264	80002a60	00ad3a33	sltu	x20,x26,x10	 x26:0x5b6e5b9c x10:0x00000000 x20=0x00000000
       12665000	      1265	80002a64	47763a13	sltiu	x20,x12,1143	 x12:0xf1e03a34 x20=0x00000000
       12675000	      1266	80002a68	05c7e663	bltu	x15,x28,80002ab4	 x15:0x000003a6 x28:0x6753979f
       12685000	      1267	00000000	00000013	addi	x0,x0,0	  x0:0x00000000
       12695000	      1268	80002ab0	00000013	addi	x0,x0,0	  x0:0x00000000
       12705000	      1269	80002ab4	01026bb3	or	x23,x4,x16	  x4:0xafc4c594 x16:0x00000000 x23=0xafc4c594
       12715000	      1270	80002ab8	635cba13	sltiu	x20,x25,1589	 x25:0xffffffb5 x20=0x00000000
       12725000	      1271	80002abc	012e54b3	srl	x9,x28,x18	 x28:0x6753979f x18:0x80000000  x9=0x6753979f
       12735000	      1272	80002ac0	012a27b3	slt	x15,x20,x18	 x20:0x00000000 x18:0x80000000 x15=0x00000000
       12745000	      1273	80002ac4	bb994b37	lui	x22,0xbb994	 x22=0xbb994000
       12755000	      1274	80002ac8	bd1d8993	addi	x19,x27,-1071	 x27:0x00000000 x19=0xfffffbd1
       12765000	      1275	80002acc	00d2f633	and	x12,x5,x13	  x5:0x868bda40 x13:0x00000000 x12=0x00000000
       12775000	      1276	80002ad0	40a75c93	srai	x25,x14,0xa	 x14:0x80009f2c x25=0xffe00027
       12785000	      1277	80002ad4	00389013	slli	x0,x17,0x3	 x17:0x00000001
       12795000	      1278	80002ad8	028c0863	beq	x24,x8,80002b08	 x24:0x00000000  x8:0x00000000
       12805000	      1279	00000000	00000013	addi	x0,x0,0	  x0:0x00000000
       12815000	      1280	80002b04	00000013	addi	x0,x0,0	  x0:0x00000000
       12825000	      1281	80002b08	025ed663	bge	x29,x5,80002b34	 x29:0x00000000  x5:0x868bda40
       12835000	      1282	00000000	00000013	addi	x0,x0,0	  x0:0x00000000
       12845000	      1283	80002b30	00000013	addi	x0,x0,0	  x0:0x00000000
       12855000	      1284	80002b34	00a3ee33	or	x28,x7,x10	  x7:0xf9652a50 x10:0x00000000 x28=0xf9652a50
       12865000	      1285	80002b38	001a1633	sll	x12,x20,x1	 x20:0x00000000  x1:0x00019d4e x12=0x00000000
       12875000	      1286	80002b3c	03191463	bne	x18,x17,80002b64	 x18:0x80000000 x17:0x00000001
       12885000	      1287	00000000	00000013	addi	x0,x0,0	  x0:0x00000000
       12895000	      1288	80002b60	00000013	addi	x0,x0,0	  x0:0x00000000
       12905000	      1289	80002b64	019d1b13	slli	x22,x26,0x19	 x26:0x5b6e5b9c x22=0x38000000
       12915000	      1290	80002b68	403e0533	sub	x10,x28,x3	 x28:0xf9652a50  x3:0x00208400 x10=0xf944a650
       12925000	      1291	80002b6c	00a6b9b3	sltu	x19,x13,x10	 x13:0x00000000 x10:0xf944a650 x19=0x00000001
       12935000	      1292	80002b70	d92d3593	sltiu	x11,x26,-622	 x26:0x5b6e5b9c x11=0x00000001
       12945000	      1293	80002b74	978a6f13	ori	x30,x20,-1672	 x20:0x00000000 x30=0xfffff978
       12955000	      1294	80002b78	56096497	auipc	x9,0x56096	  x9=0xd6098b74
       12965000	      1295	80002b7c	00ba1a33	sll	x20,x20,x11	 x20:0x00000000 x11:0x00000001 x20=0x00000000
       12975000	      1296	80002b80	008c34b3	sltu	x9,x24,x8	 x24:0x00000000  x8:0x00000000  x9=0x00000000
       12985000	      1297	80002b84	02f05063	bge	x0,x15,80002ba4	  x0:0x00000000 x15:0x00000000
       12995000	      1298	00000000	00000013	addi	x0,x0,0	  x0:0x00000000
       13005000	      1299	80002ba0	00000013	addi	x0,x0,0	  x0:0x00000000
       13015000	      1300	80002ba4	0097f633	and	x12,x15,x9	 x15:0x00000000  x9:0x00000000 x12=0x00000000
       13025000	      1301	80002ba8	0556c263	blt	x13,x21,80002bec	 x13:0x00000000 x21:0x80009fc4
       13035000	      1302	80002bac	ddabbb93	sltiu	x23,x23,-550	 x23:0xafc4c594 x23=0x00000001
       13045000	      1303	80002bb0	04f50663	beq	x10,x15,80002bfc	 x10:0xf944a650 x15:0x00000000
       13055000	      1304	80002bb4	0149ce63	blt	x19,x20,80002bd0	 x19:0x00000001 x20:0x00000000
       13065000	      1305	80002bb8	41c35c33	sra	x24,x6,x28	  x6:0x000000a6 x28:0xf9652a50 x24=0x00000000
       13075000	      1306	80002bbc	412f5d13	srai	x26,x30,0x12	 x30:0xfffff978 x26=0xffffffff
       13085000	      1307	80002bc0	c88e8493	addi	x9,x29,-888	 x29:0x00000000  x9=0xfffffc88
       13095000	      1308	80002bc4	25b20093	addi	x1,x4,603	  x4:0xafc4c594  x1=0xafc4c7ef
       13105000	      1309	80002bc8	043d0863	beq	x26,x3,80002c18	 x26:0xffffffff  x3:0x00208400
       13115000	      1310	80002bcc	668d4c13	xori	x24,x26,1640	 x26:0xffffffff x24=0xfffff997
       13125000	      1311	80002bd0	0458e463	bltu	x17,x5,80002c18	 x17:0x00000001  x5:0x868bda40
       13135000	      1312	00000000	00000013	addi	x0,x0,0	  x0:0x00000000
       13145000	      1313	80002c14	00000013	addi	x0,x0,0	  x0:0x00000000
       13155000	      1314	80002c18	00c14e63	blt	x2,x12,80002c34	  x2:0xafc4c000 x12:0x00000000
       13165000	      1315	00000000	00000013	addi	x0,x0,0	  x0:0x00000000
       13175000	      1316	80002c30	00000013	addi	x0,x0,0	  x0:0x00000000
       13185000	      1317	80002c34	41fdd013	srai	x0,x27,0x1f	 x27:0x00000000
       13195000	      1318	80002c38	45607c13	andi	x24,x0,1110	  x0:0x00000000 x24=0x00000000
       13205000	      1319	80002c3c	00a97db3	and	x27,x18,x10	 x18:0x80000000 x10:0xf944a650 x27=0x80000000
       13215000	      1320	80002c40	011301b3	add	x3,x6,x17	  x6:0x000000a6 x17:0x00000001  x3=0x000000a7
       13225000	      1321	80002c44	01117c63	bgeu	x2,x17,80002c5c	  x2:0xafc4c000 x17:0x00000001
       13235000	      1322	00000000	00000013	addi	x0,x0,0	  x0:0x00000000
       13245000	      1323	80002c58	00000013	addi	x0,x0,0	  x0:0x00000000
       13255000	      1324	80002c5c	01030033	add	x0,x6,x16	  x6:0x000000a6 x16:0x00000000
       13265000	      1325	80002c60	0080ee33	or	x28,x1,x8	  x1:0xafc4c7ef  x8:0x00000000 x28=0xafc4c7ef
       13275000	      1326	80002c64	019a3233	sltu	x4,x20,x25	 x20:0x00000000 x25:0xffe00027  x4=0x00000001
       13285000	      1327	80002c68	016c1793	slli	x15,x24,0x16	 x24:0x00000000 x15=0x00000000
       13295000	      1328	80002c6c	00c76133	or	x2,x14,x12	 x14:0x80009f2c x12:0x00000000  x2=0x80009f2c
       13305000	      1329	80002c70	013b9033	sll	x0,x23,x19	 x23:0x00000001 x19:0x00000001
       13315000	      1330	80002c74	01b11463	bne	x2,x27,80002c7c	  x2:0x80009f2c x27:0x80000000
       13325000	      1331	00000000	00000013	addi	x0,x0,0	  x0:0x00000000
       13335000	      1332	80002c78	00000013	addi	x0,x0,0	  x0:0x00000000
       13345000	      1333	80002c7c	039b1a63	bne	x22,x25,80002cb0	 x22:0x38000000 x25:0xffe00027
       13355000	      1334	00000000	00000013	addi	x0,x0,0	  x0:0x00000000
       13365000	      1335	80002cac	00000013	addi	x0,x0,0	  x0:0x00000000
       13375000	      1336	80002cb0	0032d593	srli	x11,x5,0x3	  x5:0x868bda40 x11=0x10d17b48
       13385000	      1337	80002cb4	0153e233	or	x4,x7,x21	  x7:0xf9652a50 x21:0x80009fc4  x4=0xf965bfd4
       13395000	      1338	80002cb8	40f858b3	sra	x17,x16,x15	 x16:0x00000000 x15:0x00000000 x17=0x00000000
       13405000	      1339	80002cbc	7016c513	xori	x10,x13,1793	 x13:0x00000000 x10=0x00000701
       13415000	      1340	80002cc0	b4ab4e93	xori	x29,x22,-1206	 x22:0x38000000 x29=0xc7fffb4a
       13425000	      1341	80002cc4	00a25f33	srl	x30,x4,x10	  x4:0xf965bfd4 x10:0x00000701 x30=0x7cb2dfea
       13435000	      1342	80002cc8	99560b93	addi	x23,x12,-1643	 x12:0x00000000 x23=0xfffff995
       13445000	      1343	80002ccc	411253b3	sra	x7,x4,x17	  x4:0xf965bfd4 x17:0x00000000  x7=0xf965bfd4
       13455000	      1344	80002cd0	008040b3	xor	x1,x0,x8	  x0:0x00000000  x8:0x00000000  x1=0x00000000
       13465000	      1345	80002cd4	03e06463	bltu	x0,x30,80002cfc	  x0:0x00000000 x30:0x7cb2dfea
       13475000	      1346	00000000	00000013	addi	x0,x0,0	  x0:0x00000000
       13485000	      1347	80002cf8	00000013	addi	x0,x0,0	  x0:0x00000000
       13495000	      1348	80002cfc	00c43533	sltu	x10,x8,x12	  x8:0x00000000 x12:0x00000000 x10=0x00000000
       13505000	      1349	80002d00	00458833	add	x16,x11,x4	 x11:0x10d17b48  x4:0xf965bfd4 x16=0x0a373b1c
       13515000	      1350	80002d04	05add663	bge	x27,x26,80002d50	 x27:0x80000000 x26:0xffffffff
       13525000	      1351	80002d08	00b77b33	and	x22,x14,x11	 x14:0x80009f2c x11:0x10d17b48 x22=0x00001b08
       13535000	      1352	80002d0c	01a1c033	xor	x0,x3,x26	  x3:0x000000a7 x26:0xffffffff
       13545000	      1353	80002d10	ca8ca313	slti	x6,x25,-856	 x25:0xffe00027  x6=0x00000001
       13555000	      1354	80002d14	403d5d13	srai	x26,x26,0x3	 x26:0xffffffff x26=0xffffffff
       13565000	      1355	80002d18	77cd8b17	auipc	x22,0x77cd8	 x22=0xf7cdad14
       13575000	      1356	80002d1c	b8bef893	andi	x17,x29,-1141	 x29:0xc7fffb4a x17=0xc7fffb0a
       13585000	      1357	80002d20	005d6533	or	x10,x26,x5	 x26:0xffffffff  x5:0x868bda40 x10=0xffffffff
       13595000	      1358	80002d24	d13c3413	sltiu	x8,x24,-749	 x24:0x00000000  x8=0x00000001
       13605000	      1359	80002d28	005bf463	bgeu	x23,x5,80002d30	 x23:0xfffff995  x5:0x868bda40
       13615000	      1360	00000000	00000013	addi	x0,x0,0	  x0:0x00000000
       13625000	      1361	80002d2c	00000013	addi	x0,x0,0	  x0:0x00000000
       13635000	      1362	80002d30	013de1b3	or	x3,x27,x19	 x27:0x80000000 x19:0x00000001  x3=0x80000001
       13645000	      1363	80002d34	401cd8b3	sra	x17,x25,x1	 x25:0xffe00027  x1:0x00000000 x17=0xffe00027
       13655000	      1364	80002d38	8fd43593	sltiu	x11,x8,-1795	  x8:0x00000001 x11=0x00000001
       13665000	      1365	80002d3c	001d3433	sltu	x8,x26,x1	 x26:0xffffffff  x1:0x00000000  x8=0x00000000
       13675000	      1366	80002d40	018eb833	sltu	x16,x29,x24	 x29:0xc7fffb4a x24:0x00000000 x16=0x00000000
       13685000	      1367	80002d44	05e46663	bltu	x8,x30,80002d90	  x8:0x00000000 x30:0x7cb2dfea
       13695000	      1368	00000000	00000013	addi	x0,x0,0	  x0:0x00000000
       13705000	      1369	80002d8c	00000013	addi	x0,x0,0	  x0:0x00000000
       13715000	      1370	80002d90	40f7d433	sra	x8,x15,x15	 x15:0x00000000 x15:0x00000000  x8=0x00000000
       13725000	      1371	80002d94	ad068a37	lui	x20,0xad068	 x20=0xad068000
       13735000	      1372	80002d98	01fbd093	srli	x1,x23,0x1f	 x23:0xfffff995  x1=0x00000001
       13745000	      1373	80002d9c	00cb9213	slli	x4,x23,0xc	 x23:0xfffff995  x4=0xff995000
       13755000	      1374	80002da0	8cc6a993	slti	x19,x13,-1844	 x13:0x00000000 x19=0x00000000
       13765000	      1375	80002da4	01ad5d93	srli	x27,x26,0x1a	 x26:0xffffffff x27=0x0000003f
       13775000	      1376	80002da8	02721c63	bne	x4,x7,80002de0	  x4:0xff995000  x7:0xf965bfd4
       13785000	      1377	00000000	00000013	addi	x0,x0,0	  x0:0x00000000
       13795000	      1378	80002ddc	00000013	addi	x0,x0,0	  x0:0x00000000
       13805000	      1379	80002de0	a4bd4813	xori	x16,x26,-1461	 x26:0xffffffff x16=0x000005b4
       13815000	      1380	80002de4	4044df13	srai	x30,x9,0x4	  x9:0xfffffc88 x30=0xffffffc8
       13825000	      1381	80002de8	006a1813	slli	x16,x20,0x6	 x20:0xad068000 x16=0x41a00000
       13835000	      1382	80002dec	018f0cb3	add	x25,x30,x24	 x30:0xffffffc8 x24:0x00000000 x25=0xffffffc8
       13845000	      1383	80002df0	00000013	addi	x0,x0,0	  x0:0x00000000
       13855000	      1384	80002df4	013d13b3	sll	x7,x26,x19	 x26:0xffffffff x19:0x00000000  x7=0xffffffff
       13865000	      1385	80002df8	93ce2693	slti	x13,x28,-1732	 x28:0xafc4c7ef x13=0x00000001
       13875000	      1386	80002dfc	41c4dd13	srai	x26,x9,0x1c	  x9:0xfffffc88 x26=0xffffffff
       13885000	      1387	80002e00	010d85b3	add	x11,x27,x16	 x27:0x0000003f x16:0x41a00000 x11=0x41a0003f
       13895000	      1388	80002e04	27e50b13	addi	x22,x10,638	 x10:0xffffffff x22=0x0000027d
       13905000	      1389	80002e08	68f5c513	xori	x10,x11,1679	 x11:0x41a0003f x10=0x41a006b0
       13915000	      1390	80002e0c	0169d113	srli	x2,x19,0x16	 x19:0x00000000  x2=0x00000000
       13925000	      1391	80002e10	404f5d13	srai	x26,x30,0x4	 x30:0xffffffc8 x26=0xfffffffc
       13935000	      1392	80002e14	af14b437	lui	x8,0xaf14b	  x8=0xaf14b000
       13945000	      1393	80002e18	41755c13	srai	x24,x10,0x17	 x10:0x41a006b0 x24=0x00000083
       13955000	      1394	80002e1c	002844b3	xor	x9,x16,x2	 x16:0x41a00000  x2:0x00000000  x9=0x41a00000
       13965000	      1395	80002e20	fa514893	xori	x17,x2,-91	  x2:0x00000000 x17=0xffffffa5
       13975000	      1396	80002e24	011cd133	srl	x2,x25,x17	 x25:0xffffffc8 x17:0xffffffa5  x2=0x07fffffe
       13985000	      1397	80002e28	8d44b997	auipc	x19,0x8d44b	 x19=0x0d44de24
       13995000	      1398	80002e2c	001a5cb3	srl	x25,x20,x1	 x20:0xad068000  x1:0x00000001 x25=0x56834000
       14005000	      1399	80002e30	14fb3093	sltiu	x1,x22,335	 x22:0x0000027d  x1=0x00000000
       14015000	      1400	80002e34	d64fd0ef	jal	x1,80002e34	  x1=0x80002e34
       14025000	      1401	00000000	00000013	addi	x0,x0,0	  x0:0x00000000
       14035000	      1402	80000394	00000013	addi	x0,x0,0	  x0:0x00000000
       14045000	      1403	80000398	01d3d463	bge	x7,x29,800003a0	  x7:0xffffffff x29:0xc7fffb4a
       14055000	      1404	00000000	00000013	addi	x0,x0,0	  x0:0x00000000
       14065000	      1405	8000039c	00000013	addi	x0,x0,0	  x0:0x00000000
       14075000	      1406	800003a0	fe070713	addi	x14,x14,-32	 x14:0x80009f2c x14=0x80009f0c
       14085000	      1407	800003a4	00172223	sw	x1,4(x14)	 x14:0x80009f0c  x1:0x80002e34 PA:0x80009f10
       14095000	      1408	800003a8	00000013	addi	x0,x0,0	  x0:0x00000000
       14105000	      1409	800003ac	16afcd93	xori	x27,x31,362	 x31:0x7fff60d5 x27=0x7fff61bf
       14115000	      1410	800003b0	011c6533	or	x10,x24,x17	 x24:0x00000083 x17:0xffffffa5 x10=0xffffffa7
       14125000	      1411	800003b4	ac2d1d37	lui	x26,0xac2d1	 x26=0xac2d1000
       14135000	      1412	800003b8	00289c13	slli	x24,x17,0x2	 x17:0xffffffa5 x24=0xfffffe94
       14145000	      1413	800003bc	d87f7613	andi	x12,x30,-633	 x30:0xffffffc8 x12=0xfffffd80
       14155000	      1414	800003c0	008a5493	srli	x9,x20,0x8	 x20:0xad068000  x9=0x00ad0680
       14165000	      1415	800003c4	00008897	auipc	x17,0x8	 x17=0x800083c0
       14175000	      1416	800003c8	db388893	addi	x17,x17,-589	 x17:0x800083c0 x17=0x80008173
       14185000	      1417	800003cc	00d6c633	xor	x12,x13,x13	 x13:0x00000001 x13:0x00000001 x12=0x00000000
       14195000	      1418	800003d0	42ecc993	xori	x19,x25,1070	 x25:0x56834000 x19=0x5683442e
       14205000	      1419	800003d4	00288823	sb	x2,16(x17)	 x17:0x80008173  x2:0x07fffffe PA:0x80008183
       14215000	      1420	800003d8	00e35d13	srli	x26,x6,0xe	  x6:0x00000001 x26=0x00000000
       14225000	      1421	800003dc	01b03e33	sltu	x28,x0,x27	  x0:0x00000000 x27:0x7fff61bf x28=0x00000001
       14235000	      1422	800003e0	f26a6993	ori	x19,x20,-218	 x20:0xad068000 x19=0xffffff26
       14245000	      1423	800003e4	017892a3	sh	x23,5(x17)	 x17:0x80008173 x23:0xfffff995 PA:0x80008178
       14255000	      1424	800003e8	41940333	sub	x6,x8,x25	  x8:0xaf14b000 x25:0x56834000  x6=0x58917000
       14265000	      1425	800003ec	00921b33	sll	x22,x4,x9	  x4:0xff995000  x9:0x00ad0680 x22=0xff995000
       14275000	      1426	800003f0	f8066c37	lui	x24,0xf8066	 x24=0xf8066000
       14285000	      1427	800003f4	aca68c97	auipc	x25,0xaca68	 x25=0x2ca683f0
       14295000	      1428	800003f8	e0db4213	xori	x4,x22,-499	 x22:0xff995000  x4=0x0066ae0d
       14305000	      1429	800003fc	e4c84b13	xori	x22,x16,-436	 x16:0x41a00000 x22=0xbe5ffe4c
       14315000	      1430	80000400	0162dd93	srli	x27,x5,0x16	  x5:0x868bda40 x27=0x0000021a
       14325000	      1431	80000404	e2b2e993	ori	x19,x5,-469	  x5:0x868bda40 x19=0xfffffe6b
       14335000	      1432	80000408	fff89183	lh	x3,-1(x17)	 x17:0x80008173  x3=0x00000000 PA:0x80008172
       14345000	      1433	8000040c	009873b3	and	x7,x16,x9	 x16:0x41a00000  x9:0x00ad0680  x7=0x00a00000
       14355000	      1434	80000410	48852213	slti	x4,x10,1160	 x10:0xffffffa7  x4=0x00000001
       14365000	      1435	80000414	ff688e03	lb	x28,-10(x17)	 x17:0x80008173 x28=0x00000000 PA:0x80008169
       14375000	      1436	80000418	00f88f83	lb	x31,15(x17)	 x17:0x80008173 x31=0x00000000 PA:0x80008182
       14385000	      1437	8000041c	011c1b13	slli	x22,x24,0x11	 x24:0xf8066000 x22=0xc0000000
       14395000	      1438	80000420	018832b3	sltu	x5,x16,x24	 x16:0x41a00000 x24:0xf8066000  x5=0x00000001
       14405000	      1439	80000424	b4f0b113	sltiu	x2,x1,-1201	  x1:0x80002e34  x2=0x00000001
       14415000	      1440	80000428	699f7d13	andi	x26,x30,1689	 x30:0xffffffc8 x26=0x00000688
       14425000	      1441	8000042c	00e8c803	lbu	x16,14(x17)	 x17:0x80008173 x16=0x00000000 PA:0x80008181
       14435000	      1442	80000430	ff789403	lh	x8,-9(x17)	 x17:0x80008173  x8=0x00000000 PA:0x8000816a
       14445000	      1443	80000434	010ddb93	srli	x23,x27,0x10	 x27:0x0000021a x23=0x00000000
       14455000	      1444	80000438	40bcb613	sltiu	x12,x25,1035	 x25:0x2ca683f0 x12=0x00000000
       14465000	      1445	8000043c	003fa2b3	slt	x5,x31,x3	 x31:0x00000000  x3:0x00000000  x5=0x00000000
       14475000	      1446	80000440	001ff5b3	and	x11,x31,x1	 x31:0x00000000  x1:0x80002e34 x11=0x00000000
       14485000	      1447	80000444	01d2c3b3	xor	x7,x5,x29	  x5:0x00000000 x29:0xc7fffb4a  x7=0xc7fffb4a
       14495000	      1448	80000448	8a3bf813	andi	x16,x23,-1885	 x23:0x00000000 x16=0x00000000
       14505000	      1449	8000044c	0b9d3313	sltiu	x6,x26,185	 x26:0x00000688  x6=0x00000000
       14515000	      1450	80000450	5a24c617	auipc	x12,0x5a24c	 x12=0xda24c44c
       14525000	      1451	80000454	01f512b3	sll	x5,x10,x31	 x10:0xffffffa7 x31:0x00000000  x5=0xffffffa7
       14535000	      1452	80000458	ff88c083	lbu	x1,-8(x17)	 x17:0x80008173  x1=0x00000000 PA:0x8000816b
       14545000	      1453	8000045c	01f891a3	sh	x31,3(x17)	 x17:0x80008173 x31:0x00000000 PA:0x80008176
       14555000	      1454	80000460	8ee77793	andi	x15,x14,-1810	 x14:0x80009f0c x15=0x8000980c
       14565000	      1455	80000464	a69f4013	xori	x0,x30,-1431	 x30:0xffffffc8
       14575000	      1456	80000468	00688803	lb	x16,6(x17)	 x17:0x80008173 x16=0xfffffff9 PA:0x80008179
       14585000	      1457	8000046c	00008617	auipc	x12,0x8	 x12=0x80008468
       14595000	      1458	80000470	fcb60613	addi	x12,x12,-53	 x12:0x80008468 x12=0x80008433
       14605000	      1459	80000474	41278133	sub	x2,x15,x18	 x15:0x8000980c x18:0x80000000  x2=0x0000980c
       14615000	      1460	80000478	06164d03	lbu	x26,97(x12)	 x12:0x80008433 x26=0x00000000 PA:0x80008494
       14625000	      1461	8000047c	ff360b23	sb	x19,-10(x12)	 x12:0x80008433 x19:0xfffffe6b PA:0x80008429
       14635000	      1462	80000480	f3560c23	sb	x21,-200(x12)	 x12:0x80008433 x21:0x80009fc4 PA:0x8000836b
       14645000	      1463	80000484	01250eb3	add	x29,x10,x18	 x10:0xffffffa7 x18:0x80000000 x29=0x7fffffa7
       14655000	      1464	80000488	c9c42113	slti	x2,x8,-868	  x8:0x00000000  x2=0x00000000
       14665000	      1465	8000048c	f9260383	lb	x7,-110(x12)	 x12:0x80008433  x7=0x00000000 PA:0x800083c5
       14675000	      1466	80000490	01bb33b3	sltu	x7,x22,x27	 x22:0xc0000000 x27:0x0000021a  x7=0x00000000
       14685000	      1467	80000494	0db64583	lbu	x11,219(x12)	 x12:0x80008433 x11=0x00000000 PA:0x8000850e
       14695000	      1468	80000498	40d9d793	srai	x15,x19,0xd	 x19:0xfffffe6b x15=0xffffffff
       14705000	      1469	8000049c	00461d13	slli	x26,x12,0x4	 x12:0x80008433 x26=0x00084330
       14715000	      1470	800004a0	f0165303	lhu	x6,-255(x12)	 x12:0x80008433  x6=0x00000000 PA:0x80008334
       14725000	      1471	800004a4	f9f64f03	lbu	x30,-97(x12)	 x12:0x80008433 x30=0x00000000 PA:0x800083d2
       14735000	      1472	800004a8	00000013	addi	x0,x0,0	  x0:0x00000000
       14745000	      1473	800004ac	f4a60da3	sb	x10,-165(x12)	 x12:0x80008433 x10:0xffffffa7 PA:0x8000838e
       14755000	      1474	800004b0	fb864d83	lbu	x27,-72(x12)	 x12:0x80008433 x27=0x00000000 PA:0x800083eb
       14765000	      1475	800004b4	f2060e83	lb	x29,-224(x12)	 x12:0x80008433 x29=0x00000000 PA:0x80008353
       14775000	      1476	800004b8	fe660483	lb	x9,-26(x12)	 x12:0x80008433  x9=0x00000000 PA:0x80008419
       14785000	      1477	800004bc	0a362aa3	sw	x3,181(x12)	 x12:0x80008433  x3:0x00000000 PA:0x800084e8
       14795000	      1478	800004c0	019d5b93	srli	x23,x26,0x19	 x26:0x00084330 x23=0x00000000
       14805000	      1479	800004c4	f2760ba3	sb	x7,-201(x12)	 x12:0x80008433  x7:0x00000000 PA:0x8000836a
       14815000	      1480	800004c8	01360723	sb	x19,14(x12)	 x12:0x80008433 x19:0xfffffe6b PA:0x80008441
       14825000	      1481	800004cc	f3e60c83	lb	x25,-194(x12)	 x12:0x80008433 x25=0xfffffff2 PA:0x80008371
       14835000	      1482	800004d0	13c18d13	addi	x26,x3,316	  x3:0x00000000 x26=0x0000013c
       14845000	      1483	800004d4	001e0bb3	add	x23,x28,x1	 x28:0x00000000  x1:0x00000000 x23=0x00000000
       14855000	      1484	800004d8	09562ca3	sw	x21,153(x12)	 x12:0x80008433 x21:0x80009fc4 PA:0x800084cc
       14865000	      1485	800004dc	0cd60f03	lb	x30,205(x12)	 x12:0x80008433 x30=0x00000000 PA:0x80008500
       14875000	      1486	00000000	00000013	addi	x0,x0,0	  x0:0x00000000
       14885000	      1487	800004e0	709f7c93	andi	x25,x30,1801	 x30:0x00000000 x25=0x00000000
       14895000	      1488	800004e4	fd564d03	lbu	x26,-43(x12)	 x12:0x80008433 x26=0x00000000 PA:0x80008408
       14905000	      1489	800004e8	fd860983	lb	x19,-40(x12)	 x12:0x80008433 x19=0x00000000 PA:0x8000840b
       14915000	      1490	800004ec	9823c513	xori	x10,x7,-1662	  x7:0x00000000 x10=0xfffff982
       14925000	      1491	800004f0	0f461aa3	sh	x20,245(x12)	 x12:0x80008433 x20:0xad068000 PA:0x80008528
       14935000	      1492	800004f4	06d64583	lbu	x11,109(x12)	 x12:0x80008433 x11=0x00000000 PA:0x800084a0
       14945000	      1493	800004f8	408681b3	sub	x3,x13,x8	 x13:0x00000001  x8:0x00000000  x3=0x00000001
       14955000	      1494	800004fc	f7564803	lbu	x16,-139(x12)	 x12:0x80008433 x16=0x00000000 PA:0x800083a8
       14965000	      1495	80000500	00460923	sb	x4,18(x12)	 x12:0x80008433  x4:0x00000001 PA:0x80008445
       14975000	      1496	80000504	00008417	auipc	x8,0x8	  x8=0x80008500
       14985000	      1497	80000508	d1640413	addi	x8,x8,-746	  x8:0x80008500  x8=0x80008216
       14995000	      1498	8000050c	f6344083	lbu	x1,-157(x8)	  x8:0x80008216  x1=0x000000f9 PA:0x80008179
       15005000	      1499	80000510	f9640883	lb	x17,-106(x8)	  x8:0x80008216 x17=0x00000000 PA:0x800081ac
       15015000	      1500	80000514	00437cb3	and	x25,x6,x4	  x6:0x00000000  x4:0x00000001 x25=0x00000000
       15025000	      1501	80000518	0e040983	lb	x19,224(x8)	  x8:0x80008216 x19=0x00000000 PA:0x800082f6
       15035000	      1502	8000051c	f7841b03	lh	x22,-136(x8)	  x8:0x80008216 x22=0x00000000 PA:0x8000818e
       15045000	      1503	80000520	4098d4b3	sra	x9,x17,x9	 x17:0x00000000  x9:0x00000000  x9=0x00000000
       15055000	      1504	80000524	62d03013	sltiu	x0,x0,1581	  x0:0x00000000
       15065000	      1505	80000528	04841023	sh	x8,64(x8)	  x8:0x80008216  x8:0x80008216 PA:0x80008256
       15075000	      1506	8000052c	9ddd4d93	xori	x27,x26,-1571	 x26:0x00000000 x27=0xfffff9dd
       15085000	      1507	80000530	f0440da3	sb	x4,-229(x8)	  x8:0x80008216  x4:0x00000001 PA:0x80008131
       15095000	      1508	80000534	00c44203	lbu	x4,12(x8)	  x8:0x80008216  x4=0x00000000 PA:0x80008222
       15105000	      1509	80000538	0d144583	lbu	x11,209(x8)	  x8:0x80008216 x11=0x00000000 PA:0x800082e7
       15115000	      1510	8000053c	f9c87293	andi	x5,x16,-100	 x16:0x00000000  x5=0x00000000
       15125000	      1511	80000540	02540523	sb	x5,42(x8)	  x8:0x80008216  x5:0x00000000 PA:0x80008240
       15135000	      1512	80000544	00000013	addi	x0,x0,0	  x0:0x00000000
       15145000	      1513	80000548	0a241e83	lh	x29,162(x8)	  x8:0x80008216 x29=0x00000000 PA:0x800082b8
       15155000	      1514	8000054c	01344983	lbu	x19,19(x8)	  x8:0x80008216 x19=0x00000000 PA:0x80008229
       15165000	      1515	80000550	676aa593	slti	x11,x21,1654	 x21:0x80009fc4 x11=0x00000001
       15175000	      1516	80000554	f70402a3	sb	x16,-155(x8)	  x8:0x80008216 x16:0x00000000 PA:0x8000817b
       15185000	      1517	80000558	01f0cb33	xor	x22,x1,x31	  x1:0x000000f9 x31:0x00000000 x22=0x000000f9
       15195000	      1518	8000055c	0ae40e03	lb	x28,174(x8)	  x8:0x80008216 x28=0x00000000 PA:0x800082c4
       15205000	      1519	80000560	fec44883	lbu	x17,-20(x8)	  x8:0x80008216 x17=0x00000000 PA:0x80008202
       15215000	      1520	80000564	cc060db7	lui	x27,0xcc060	 x27=0xcc060000
       15225000	      1521	80000568	fe445103	lhu	x2,-28(x8)	  x8:0x80008216  x2=0x00000000 PA:0x800081fa
       15235000	      1522	8000056c	03244103	lbu	x2,50(x8)	  x8:0x80008216  x2=0x00000000 PA:0x80008248
       15245000	      1523	80000570	f9340123	sb	x19,-126(x8)	  x8:0x80008216 x19:0x00000000 PA:0x80008198
       15255000	      1524	80000574	f2840283	lb	x5,-216(x8)	  x8:0x80008216  x5=0x00000000 PA:0x8000813e
       15265000	      1525	80000578	01383c33	sltu	x24,x16,x19	 x16:0x00000000 x19:0x00000000 x24=0x00000000
       15275000	      1526	8000057c	02c45203	lhu	x4,44(x8)	  x8:0x80008216  x4=0x00000000 PA:0x80008242
       15285000	      1527	80000580	01f685b3	add	x11,x13,x31	 x13:0x00000001 x31:0x00000000 x11=0x00000001
       15295000	      1528	80000584	5907eb13	ori	x22,x15,1424	 x15:0xffffffff x22=0xffffffff
       15305000	      1529	80000588	fc140603	lb	x12,-63(x8)	  x8:0x80008216 x12=0x00000000 PA:0x800081d7
       15315000	      1530	8000058c	ba0dbe93	sltiu	x29,x27,-1120	 x27:0xcc060000 x29=0x00000001
       15325000	      1531	80000590	fe640523	sb	x6,-22(x8)	  x8:0x80008216  x6:0x00000000 PA:0x80008200
       15335000	      1532	80000594	09f0c193	xori	x3,x1,159	  x1:0x000000f9  x3=0x00000066
       15345000	      1533	80000598	fa840da3	sb	x8,-69(x8)	  x8:0x80008216  x8:0x80008216 PA:0x800081d1
       15355000	      1534	8000059c	b5873613	sltiu	x12,x14,-1192	 x14:0x80009f0c x12=0x00000001
       15365000	      1535	800005a0	0c340123	sb	x3,194(x8)	  x8:0x80008216  x3:0x00000066 PA:0x800082d8
       15375000	      1536	800005a4	05c10263	beq	x2,x28,800005e8	  x2:0x00000000 x28:0x00000000
       15385000	      1537	00000000	00000013	addi	x0,x0,0	  x0:0x00000000
       15395000	      1538	800005e4	00000013	addi	x0,x0,0	  x0:0x00000000
       15405000	      1539	800005e8	9c30e793	ori	x15,x1,-1597	  x1:0x000000f9 x15=0xfffff9fb
       15415000	      1540	800005ec	0090b0b3	sltu	x1,x1,x9	  x1:0x000000f9  x9:0x00000000  x1=0x00000000
       15425000	      1541	800005f0	01095893	srli	x17,x18,0x10	 x18:0x80000000 x17=0x00008000
       15435000	      1542	800005f4	00707c33	and	x24,x0,x7	  x0:0x00000000  x7:0x00000000 x24=0x00000000
       15445000	      1543	800005f8	02501863	bne	x0,x5,80000628	  x0:0x00000000  x5:0x00000000
       15455000	      1544	800005fc	013da6b3	slt	x13,x27,x19	 x27:0xcc060000 x19:0x00000000 x13=0x00000001
       15465000	      1545	80000600	402a0633	sub	x12,x20,x2	 x20:0xad068000  x2:0x00000000 x12=0xad068000
       15475000	      1546	80000604	64c32393	slti	x7,x6,1612	  x6:0x00000000  x7=0x00000001
       15485000	      1547	80000608	4e807293	andi	x5,x0,1256	  x0:0x00000000  x5=0x00000000
       15495000	      1548	8000060c	000a90b3	sll	x1,x21,x0	 x21:0x80009fc4  x0:0x00000000  x1=0x80009fc4
       15505000	      1549	80000610	00eb2633	slt	x12,x22,x14	 x22:0xffffffff x14:0x80009f0c x12=0x00000000
       15515000	      1550	80000614	00efa5b3	slt	x11,x31,x14	 x31:0x00000000 x14:0x80009f0c x11=0x00000000
       15525000	      1551	80000618	56c58493	addi	x9,x11,1388	 x11:0x00000000  x9=0x0000056c
       15535000	      1552	8000061c	5f03c813	xori	x16,x7,1520	  x7:0x00000001 x16=0x000005f1
       15545000	      1553	80000620	00000013	addi	x0,x0,0	  x0:0x00000000
       15555000	      1554	80000624	3f84ac13	slti	x24,x9,1016	  x9:0x0000056c x24=0x00000000
       15565000	      1555	80000628	00167f33	and	x30,x12,x1	 x12:0x00000000  x1:0x80009fc4 x30=0x00000000
       15575000	      1556	8000062c	05777063	bgeu	x14,x23,8000066c	 x14:0x80009f0c x23:0x00000000
       15585000	      1557	00000000	00000013	addi	x0,x0,0	  x0:0x00000000
       15595000	      1558	80000668	00000013	addi	x0,x0,0	  x0:0x00000000
       15605000	      1559	8000066c	0199f233	and	x4,x19,x25	 x19:0x00000000 x25:0x00000000  x4=0x00000000
       15615000	      1560	80000670	41d75013	srai	x0,x14,0x1d	 x14:0x80009f0c
       15625000	      1561	80000674	006a3e33	sltu	x28,x20,x6	 x20:0xad068000  x6:0x00000000 x28=0x00000000
       15635000	      1562	80000678	d13b6813	ori	x16,x22,-749	 x22:0xffffffff x16=0xffffffff
       15645000	      1563	8000067c	05996663	bltu	x18,x25,800006c8	 x18:0x80000000 x25:0x00000000
       15655000	      1564	80000680	02561463	bne	x12,x5,800006a8	 x12:0x00000000  x5:0x00000000
       15665000	      1565	80000684	51033037	lui	x0,0x51033	
       15675000	      1566	80000688	017400b3	add	x1,x8,x23	  x8:0x80008216 x23:0x00000000  x1=0x80008216
       15685000	      1567	8000068c	418a5f93	srai	x31,x20,0x18	 x20:0xad068000 x31=0xffffffad
       15695000	      1568	80000690	24160d97	auipc	x27,0x24160	 x27=0xa416068c
       15705000	      1569	80000694	01062cb3	slt	x25,x12,x16	 x12:0x00000000 x16:0xffffffff x25=0x00000000
       15715000	      1570	80000698	01f85093	srli	x1,x16,0x1f	 x16:0xffffffff  x1=0x00000001
       15725000	      1571	8000069c	04531663	bne	x6,x5,800006e8	  x6:0x00000000  x5:0x00000000
       15735000	      1572	800006a0	00b18cb3	add	x25,x3,x11	  x3:0x00000066 x11:0x00000000 x25=0x00000066
       15745000	      1573	800006a4	01bda4b3	slt	x9,x27,x27	 x27:0xa416068c x27:0xa416068c  x9=0x00000000
       15755000	      1574	800006a8	02a9ee63	bltu	x19,x10,800006e4	 x19:0x00000000 x10:0xfffff982
       15765000	      1575	00000000	00000013	addi	x0,x0,0	  x0:0x00000000
       15775000	      1576	800006e0	00000013	addi	x0,x0,0	  x0:0x00000000
       15785000	      1577	800006e4	0194c263	blt	x9,x25,800006e8	  x9:0x00000000 x25:0x00000066
       15795000	      1578	00000000	00000013	addi	x0,x0,0	  x0:0x00000000
       15805000	      1579	800006e4	00000013	addi	x0,x0,0	  x0:0x00000000
       15815000	      1580	800006e8	007c6c63	bltu	x24,x7,80000700	 x24:0x00000000  x7:0x00000001
       15825000	      1581	00000000	00000013	addi	x0,x0,0	  x0:0x00000000
       15835000	      1582	800006fc	00000013	addi	x0,x0,0	  x0:0x00000000
       15845000	      1583	80000700	50053193	sltiu	x3,x10,1280	 x10:0xfffff982  x3=0x00000000
       15855000	      1584	80000704	d39219b7	lui	x19,0xd3921	 x19=0xd3921000
       15865000	      1585	80000708	120a0313	addi	x6,x20,288	 x20:0xad068000  x6=0xad068120
       15875000	      1586	8000070c	0158be33	sltu	x28,x17,x21	 x17:0x00008000 x21:0x80009fc4 x28=0x00000001
       15885000	      1587	80000710	7809bf97	auipc	x31,0x7809b	 x31=0xf809b70c
       15895000	      1588	80000714	001c8233	add	x4,x25,x1	 x25:0x00000066  x1:0x00000001  x4=0x00000067
       15905000	      1589	80000718	00e81793	slli	x15,x16,0xe	 x16:0xffffffff x15=0xffffc000
       15915000	      1590	8000071c	5ed86393	ori	x7,x16,1517	 x16:0xffffffff  x7=0xffffffff
       15925000	      1591	80000720	00670a63	beq	x14,x6,80000734	 x14:0x80009f0c  x6:0xad068120
       15935000	      1592	80000724	010c7663	bgeu	x24,x16,80000730	 x24:0x00000000 x16:0xffffffff
       15945000	      1593	80000728	c6d94493	xori	x9,x18,-915	 x18:0x80000000  x9=0x7ffffc6d
       15955000	      1594	8000072c	00000013	addi	x0,x0,0	  x0:0x00000000
       15965000	      1595	80000730	54842813	slti	x16,x8,1352	  x8:0x80008216 x16=0x00000001
       15975000	      1596	80000734	40050633	sub	x12,x10,x0	 x10:0xfffff982  x0:0x00000000 x12=0xfffff982
       15985000	      1597	80000738	00b7de63	bge	x15,x11,80000754	 x15:0xffffc000 x11:0x00000000
       15995000	      1598	8000073c	404004b3	sub	x9,x0,x4	  x0:0x00000000  x4:0x00000067  x9=0xffffff99
       16005000	      1599	80000740	00a7da63	bge	x15,x10,80000754	 x15:0xffffc000 x10:0xfffff982
       16015000	      1600	80000744	01701533	sll	x10,x0,x23	  x0:0x00000000 x23:0x00000000 x10=0x00000000
       16025000	      1601	80000748	6d0b7d13	andi	x26,x22,1744	 x22:0xffffffff x26=0x000006d0
       16035000	      1602	8000074c	00cd0633	add	x12,x26,x12	 x26:0x000006d0 x12:0xfffff982 x12=0x00000052
       16045000	      1603	80000750	41ab5693	srai	x13,x22,0x1a	 x22:0xffffffff x13=0xffffffff
       16055000	      1604	80000754	00f290b3	sll	x1,x5,x15	  x5:0x00000000 x15:0xffffc000  x1=0x00000000
       16065000	      1605	80000758	30b13637	lui	x12,0x30b13	 x12=0x30b13000
       16075000	      1606	8000075c	a8d9d417	auipc	x8,0xa8d9d	  x8=0x28d9d758
       16085000	      1607	80000760	00746133	or	x2,x8,x7	  x8:0x28d9d758  x7:0xffffffff  x2=0xffffffff
       16095000	      1608	80000764	015412b3	sll	x5,x8,x21	  x8:0x28d9d758 x21:0x80009fc4  x5=0x8d9d7580
       16105000	      1609	80000768	00e7be33	sltu	x28,x15,x14	 x15:0xffffc000 x14:0x80009f0c x28=0x00000000
       16115000	      1610	8000076c	41d88133	sub	x2,x17,x29	 x17:0x00008000 x29:0x00000001  x2=0x00007fff
       16125000	      1611	80000770	00e8acb3	slt	x25,x17,x14	 x17:0x00008000 x14:0x80009f0c x25=0x00000000
       16135000	      1612	80000774	05c3d063	bge	x7,x28,800007b4	  x7:0xffffffff x28:0x00000000
       16145000	      1613	80000778	008f9f93	slli	x31,x31,0x8	 x31:0xf809b70c x31=0x09b70c00
       16155000	      1614	8000077c	000a1fb3	sll	x31,x20,x0	 x20:0xad068000  x0:0x00000000 x31=0xad068000
       16165000	      1615	80000780	02307a63	bgeu	x0,x3,800007b4	  x0:0x00000000  x3:0x00000000
       16175000	      1616	00000000	00000013	addi	x0,x0,0	  x0:0x00000000
       16185000	      1617	800007b0	00000013	addi	x0,x0,0	  x0:0x00000000
       16195000	      1618	800007b4	02b11063	bne	x2,x11,800007d4	  x2:0x00007fff x11:0x00000000
       16205000	      1619	00000000	00000013	addi	x0,x0,0	  x0:0x00000000
       16215000	      1620	800007d0	00000013	addi	x0,x0,0	  x0:0x00000000
       16225000	      1621	800007d4	a5346c93	ori	x25,x8,-1453	  x8:0x28d9d758 x25=0xffffff5b
       16235000	      1622	800007d8	c4e78613	addi	x12,x15,-946	 x15:0xffffc000 x12=0xffffbc4e
       16245000	      1623	800007dc	41d15e93	srai	x29,x2,0x1d	  x2:0x00007fff x29=0x00000000
       16255000	      1624	800007e0	774ded93	ori	x27,x27,1908	 x27:0xa416068c x27=0xa41607fc
       16265000	      1625	800007e4	00895663	bge	x18,x8,800007f0	 x18:0x80000000  x8:0x28d9d758
       16275000	      1626	800007e8	03af1063	bne	x30,x26,80000808	 x30:0x00000000 x26:0x000006d0
       16285000	      1627	00000000	00000013	addi	x0,x0,0	  x0:0x00000000
       16295000	      1628	80000804	00000013	addi	x0,x0,0	  x0:0x00000000
       16305000	      1629	80000808	006e8b33	add	x22,x29,x6	 x29:0x00000000  x6:0xad068120 x22=0xad068120
       16315000	      1630	8000080c	0594f263	bgeu	x9,x25,80000850	  x9:0xffffff99 x25:0xffffff5b
       16325000	      1631	00000000	00000013	addi	x0,x0,0	  x0:0x00000000
       16335000	      1632	8000084c	00000013	addi	x0,x0,0	  x0:0x00000000
       16345000	      1633	80000850	0704fc63	bgeu	x9,x16,800008c8	  x9:0xffffff99 x16:0x00000001
       16355000	      1634	00000000	00000013	addi	x0,x0,0	  x0:0x00000000
       16365000	      1635	800008c4	00000013	addi	x0,x0,0	  x0:0x00000000
       16375000	      1636	800008c8	033f1863	bne	x30,x19,800008f8	 x30:0x00000000 x19:0xd3921000
       16385000	      1637	00000000	00000013	addi	x0,x0,0	  x0:0x00000000
       16395000	      1638	800008f4	00000013	addi	x0,x0,0	  x0:0x00000000
       16405000	      1639	800008f8	70cd2197	auipc	x3,0x70cd2	  x3=0xf0cd28f4
       16415000	      1640	800008fc	00d6a2b3	slt	x5,x13,x13	 x13:0xffffffff x13:0xffffffff  x5=0x00000000
       16425000	      1641	80000900	1ea83e13	sltiu	x28,x16,490	 x16:0x00000001 x28=0x00000001
       16435000	      1642	80000904	40952313	slti	x6,x10,1033	 x10:0x00000000  x6=0x00000001
       16445000	      1643	80000908	0406c663	blt	x13,x0,80000954	 x13:0xffffffff  x0:0x00000000
       16455000	      1644	00000000	00000013	addi	x0,x0,0	  x0:0x00000000
       16465000	      1645	80000950	00000013	addi	x0,x0,0	  x0:0x00000000
       16475000	      1646	80000954	0097d813	srli	x16,x15,0x9	 x15:0xffffc000 x16=0x007fffe0
       16485000	      1647	80000958	3f5eff93	andi	x31,x29,1013	 x29:0x00000000 x31=0x00000000
       16495000	      1648	8000095c	00c35f93	srli	x31,x6,0xc	  x6:0x00000001 x31=0x00000000
       16505000	      1649	80000960	00dc52b3	srl	x5,x24,x13	 x24:0x00000000 x13:0xffffffff  x5=0x00000000
       16515000	      1650	80000964	00000013	addi	x0,x0,0	  x0:0x00000000
       16525000	      1651	80000968	00fcd663	bge	x25,x15,80000974	 x25:0xffffff5b x15:0xffffc000
       16535000	      1652	00000000	00000013	addi	x0,x0,0	  x0:0x00000000
       16545000	      1653	80000970	00000013	addi	x0,x0,0	  x0:0x00000000
       16555000	      1654	80000974	010971b3	and	x3,x18,x16	 x18:0x80000000 x16:0x007fffe0  x3=0x00000000
       16565000	      1655	80000978	02d35a63	bge	x6,x13,800009ac	  x6:0x00000001 x13:0xffffffff
       16575000	      1656	00000000	00000013	addi	x0,x0,0	  x0:0x00000000
       16585000	      1657	800009a8	00000013	addi	x0,x0,0	  x0:0x00000000
       16595000	      1658	800009ac	6fd9aa13	slti	x20,x19,1789	 x19:0xd3921000 x20=0x00000001
       16605000	      1659	800009b0	02e85063	bge	x16,x14,800009d0	 x16:0x007fffe0 x14:0x80009f0c
       16615000	      1660	00000000	00000013	addi	x0,x0,0	  x0:0x00000000
       16625000	      1661	800009cc	00000013	addi	x0,x0,0	  x0:0x00000000
       16635000	      1662	800009d0	0a6601b7	lui	x3,0xa660	  x3=0x0a660000
       16645000	      1663	800009d4	d71f4693	xori	x13,x30,-655	 x30:0x00000000 x13=0xfffffd71
       16655000	      1664	800009d8	004fe9b3	or	x19,x31,x4	 x31:0x00000000  x4:0x00000067 x19=0x00000067
       16665000	      1665	800009dc	004ccc93	xori	x25,x25,4	 x25:0xffffff5b x25=0xffffff5f
       16675000	      1666	800009e0	c0c02993	slti	x19,x0,-1012	  x0:0x00000000 x19=0x00000000
       16685000	      1667	800009e4	40a15d93	srai	x27,x2,0xa	  x2:0x00007fff x27=0x0000001f
       16695000	      1668	800009e8	01df5613	srli	x12,x30,0x1d	 x30:0x00000000 x12=0x00000000
       16705000	      1669	800009ec	0b42bdb7	lui	x27,0xb42b	 x27=0x0b42b000
       16715000	      1670	800009f0	2d513f13	sltiu	x30,x2,725	  x2:0x00007fff x30=0x00000000
       16725000	      1671	800009f4	00000013	addi	x0,x0,0	  x0:0x00000000
       16735000	      1672	800009f8	00e9ba33	sltu	x20,x19,x14	 x19:0x00000000 x14:0x80009f0c x20=0x00000001
       16745000	      1673	800009fc	e36b3593	sltiu	x11,x22,-458	 x22:0xad068120 x11=0x00000001
       16755000	      1674	80000a00	4150db93	srai	x23,x1,0x15	  x1:0x00000000 x23=0x00000000
       16765000	      1675	80000a04	007097b3	sll	x15,x1,x7	  x1:0x00000000  x7:0xffffffff x15=0x00000000
       16775000	      1676	80000a08	c66e0697	auipc	x13,0xc66e0	 x13=0x466e0a04
       16785000	      1677	80000a0c	0003db33	srl	x22,x7,x0	  x7:0xffffffff  x0:0x00000000 x22=0xffffffff
       16795000	      1678	80000a10	0139f6b3	and	x13,x19,x19	 x19:0x00000000 x19:0x00000000 x13=0x00000000
       16805000	      1679	80000a14	00000013	addi	x0,x0,0	  x0:0x00000000
       16815000	      1680	80000a18	eab4e013	ori	x0,x9,-341	  x9:0xffffff99
       16825000	      1681	80000a1c	0111bc33	sltu	x24,x3,x17	  x3:0x0a660000 x17:0x00008000 x24=0x00000000
       16835000	      1682	80000a20	d908ee93	ori	x29,x17,-624	 x17:0x00008000 x29=0xfffffd90
       16845000	      1683	80000a24	0106c333	xor	x6,x13,x16	 x13:0x00000000 x16:0x007fffe0  x6=0x007fffe0
       16855000	      1684	80000a28	010d4033	xor	x0,x26,x16	 x26:0x000006d0 x16:0x007fffe0
       16865000	      1685	80000a2c	f088e117	auipc	x2,0xf088e	  x2=0x7088ea28
       16875000	      1686	80000a30	04e9d063	bge	x19,x14,80000a70	 x19:0x00000000 x14:0x80009f0c
       16885000	      1687	00000000	00000013	addi	x0,x0,0	  x0:0x00000000
       16895000	      1688	80000a6c	00000013	addi	x0,x0,0	  x0:0x00000000
       16905000	      1689	80000a70	015642b3	xor	x5,x12,x21	 x12:0x00000000 x21:0x80009fc4  x5=0x80009fc4
       16915000	      1690	80000a74	042d6063	bltu	x26,x2,80000ab4	 x26:0x000006d0  x2:0x7088ea28
       16925000	      1691	00000000	00000013	addi	x0,x0,0	  x0:0x00000000
       16935000	      1692	80000ab0	00000013	addi	x0,x0,0	  x0:0x00000000
       16945000	      1693	80000ab4	0248c463	blt	x17,x4,80000adc	 x17:0x00008000  x4:0x00000067
       16955000	      1694	80000ab8	1ae48193	addi	x3,x9,430	  x9:0xffffff99  x3=0x00000147
       16965000	      1695	80000abc	0182da13	srli	x20,x5,0x18	  x5:0x80009fc4 x20=0x00000080
       16975000	      1696	80000ac0	00000013	addi	x0,x0,0	  x0:0x00000000
       16985000	      1697	80000ac4	00dddb93	srli	x23,x27,0xd	 x27:0x0b42b000 x23=0x00005a15
       16995000	      1698	80000ac8	0377fa63	bgeu	x15,x23,80000afc	 x15:0x00000000 x23:0x00005a15
       17005000	      1699	80000acc	056dc663	blt	x27,x22,80000b18	 x27:0x0b42b000 x22:0xffffffff
       17015000	      1700	80000ad0	60802e93	slti	x29,x0,1544	  x0:0x00000000 x29=0x00000001
       17025000	      1701	80000ad4	ef723113	sltiu	x2,x4,-265	  x4:0x00000067  x2=0x00000001
       17035000	      1702	80000ad8	0012e833	or	x16,x5,x1	  x5:0x80009fc4  x1:0x00000000 x16=0x80009fc4
       17045000	      1703	80000adc	f771a513	slti	x10,x3,-137	  x3:0x00000147 x10=0x00000000
       17055000	      1704	80000ae0	008bb233	sltu	x4,x23,x8	 x23:0x00005a15  x8:0x28d9d758  x4=0x00000001
       17065000	      1705	80000ae4	42d58e93	addi	x29,x11,1069	 x11:0x00000001 x29=0x0000042e
       17075000	      1706	80000ae8	417b8233	sub	x4,x23,x23	 x23:0x00005a15 x23:0x00005a15  x4=0x00000000
       17085000	      1707	80000aec	41f657b3	sra	x15,x12,x31	 x12:0x00000000 x31:0x00000000 x15=0x00000000
       17095000	      1708	80000af0	00000013	addi	x0,x0,0	  x0:0x00000000
       17105000	      1709	80000af4	c4404c13	xori	x24,x0,-956	  x0:0x00000000 x24=0xfffffc44
       17115000	      1710	80000af8	cfe9a993	slti	x19,x19,-770	 x19:0x00000000 x19=0x00000000
       17125000	      1711	80000afc	9c76e113	ori	x2,x13,-1593	 x13:0x00000000  x2=0xfffff9c7
       17135000	      1712	80000b00	00000013	addi	x0,x0,0	  x0:0x00000000
       17145000	      1713	80000b04	02e08663	beq	x1,x14,80000b30	  x1:0x00000000 x14:0x80009f0c
       17155000	      1714	80000b08	405f0e33	sub	x28,x30,x5	 x30:0x00000000  x5:0x80009fc4 x28=0x7fff603c
       17165000	      1715	80000b0c	01701663	bne	x0,x23,80000b18	  x0:0x00000000 x23:0x00005a15
       17175000	      1716	00000000	00000013	addi	x0,x0,0	  x0:0x00000000
       17185000	      1717	80000b14	00000013	addi	x0,x0,0	  x0:0x00000000
       17195000	      1718	80000b18	03eb9063	bne	x23,x30,80000b38	 x23:0x00005a15 x30:0x00000000
       17205000	      1719	00000000	00000013	addi	x0,x0,0	  x0:0x00000000
       17215000	      1720	80000b34	00000013	addi	x0,x0,0	  x0:0x00000000
       17225000	      1721	80000b38	70c6be13	sltiu	x28,x13,1804	 x13:0x00000000 x28=0x00000001
       17235000	      1722	80000b3c	011551b3	srl	x3,x10,x17	 x10:0x00000000 x17:0x00008000  x3=0x00000000
       17245000	      1723	80000b40	019e3cb3	sltu	x25,x28,x25	 x28:0x00000001 x25:0xffffff5f x25=0x00000001
       17255000	      1724	80000b44	01a8d863	bge	x17,x26,80000b54	 x17:0x00008000 x26:0x000006d0
       17265000	      1725	00000000	00000013	addi	x0,x0,0	  x0:0x00000000
       17275000	      1726	80000b50	00000013	addi	x0,x0,0	  x0:0x00000000
       17285000	      1727	80000b54	243d6393	ori	x7,x26,579	 x26:0x000006d0  x7=0x000006d3
       17295000	      1728	80000b58	496fbf97	auipc	x31,0x496fb	 x31=0xc96fbb54
       17305000	      1729	80000b5c	603daf13	slti	x30,x27,1539	 x27:0x0b42b000 x30=0x00000000
       17315000	      1730	80000b60	55097613	andi	x12,x18,1360	 x18:0x80000000 x12=0x00000000
       17325000	      1731	80000b64	01c93133	sltu	x2,x18,x28	 x18:0x80000000 x28:0x00000001  x2=0x00000000
       17335000	      1732	80000b68	04218663	beq	x3,x2,80000bb4	  x3:0x00000000  x2:0x00000000
       17345000	      1733	00000000	00000013	addi	x0,x0,0	  x0:0x00000000
       17355000	      1734	80000bb0	00000013	addi	x0,x0,0	  x0:0x00000000
       17365000	      1735	80000bb4	00c2df33	srl	x30,x5,x12	  x5:0x80009fc4 x12:0x00000000 x30=0x80009fc4
       17375000	      1736	80000bb8	018f0cb3	add	x25,x30,x24	 x30:0x80009fc4 x24:0xfffffc44 x25=0x80009c08
       17385000	      1737	80000bbc	00000013	addi	x0,x0,0	  x0:0x00000000
       17395000	      1738	80000bc0	30e06693	ori	x13,x0,782	  x0:0x00000000 x13=0x0000030e
       17405000	      1739	80000bc4	00be2433	slt	x8,x28,x11	 x28:0x00000001 x11:0x00000001  x8=0x00000000
       17415000	      1740	80000bc8	01d50533	add	x10,x10,x29	 x10:0x00000000 x29:0x0000042e x10=0x0000042e
       17425000	      1741	80000bcc	40ec8e33	sub	x28,x25,x14	 x25:0x80009c08 x14:0x80009f0c x28=0xfffffcfc
       17435000	      1742	80000bd0	7afc3213	sltiu	x4,x24,1967	 x24:0xfffffc44  x4=0x00000000
       17445000	      1743	80000bd4	002430b3	sltu	x1,x8,x2	  x8:0x00000000  x2:0x00000000  x1=0x00000000
       17455000	      1744	80000bd8	053e9063	bne	x29,x19,80000c18	 x29:0x0000042e x19:0x00000000
       17465000	      1745	00000000	00000013	addi	x0,x0,0	  x0:0x00000000
       17475000	      1746	80000c14	00000013	addi	x0,x0,0	  x0:0x00000000
       17485000	      1747	80000c18	5585a893	slti	x17,x11,1368	 x11:0x00000001 x17=0x00000001
       17495000	      1748	80000c1c	047c8063	beq	x25,x7,80000c5c	 x25:0x80009c08  x7:0x000006d3
       17505000	      1749	80000c20	419a8b33	sub	x22,x21,x25	 x21:0x80009fc4 x25:0x80009c08 x22=0x000003bc
       17515000	      1750	80000c24	b6009137	lui	x2,0xb6009	  x2=0xb6009000
       17525000	      1751	80000c28	01ad0c33	add	x24,x26,x26	 x26:0x000006d0 x26:0x000006d0 x24=0x00000da0
       17535000	      1752	80000c2c	0530f063	bgeu	x1,x19,80000c6c	  x1:0x00000000 x19:0x00000000
       17545000	      1753	00000000	00000013	addi	x0,x0,0	  x0:0x00000000
       17555000	      1754	80000c68	00000013	addi	x0,x0,0	  x0:0x00000000
       17565000	      1755	80000c6c	41b1dfb3	sra	x31,x3,x27	  x3:0x00000000 x27:0x0b42b000 x31=0x00000000
       17575000	      1756	80000c70	0051c4b3	xor	x9,x3,x5	  x3:0x00000000  x5:0x80009fc4  x9=0x80009fc4
       17585000	      1757	80000c74	018ce133	or	x2,x25,x24	 x25:0x80009c08 x24:0x00000da0  x2=0x80009da8
       17595000	      1758	80000c78	fbf22f93	slti	x31,x4,-65	  x4:0x00000000 x31=0x00000000
       17605000	      1759	80000c7c	03e36663	bltu	x6,x30,80000ca8	  x6:0x007fffe0 x30:0x80009fc4
       17615000	      1760	00000000	00000013	addi	x0,x0,0	  x0:0x00000000
       17625000	      1761	80000ca4	00000013	addi	x0,x0,0	  x0:0x00000000
       17635000	      1762	80000ca8	00729213	slli	x4,x5,0x7	  x5:0x80009fc4  x4=0x004fe200
       17645000	      1763	80000cac	0068d013	srli	x0,x17,0x6	 x17:0x00000001
       17655000	      1764	80000cb0	01c2fe63	bgeu	x5,x28,80000ccc	  x5:0x80009fc4 x28:0xfffffcfc
       17665000	      1765	80000cb4	03784863	blt	x16,x23,80000ce4	 x16:0x80009fc4 x23:0x00005a15
       17675000	      1766	00000000	00000013	addi	x0,x0,0	  x0:0x00000000
       17685000	      1767	80000ce0	00000013	addi	x0,x0,0	  x0:0x00000000
       17695000	      1768	80000ce4	6a5ef793	andi	x15,x29,1701	 x29:0x0000042e x15=0x00000424
       17705000	      1769	80000ce8	0139e263	bltu	x19,x19,80000cec	 x19:0x00000000 x19:0x00000000
       17715000	      1770	80000cec	0f7c0463	beq	x24,x23,80000dd4	 x24:0x00000da0 x23:0x00005a15
       17725000	      1771	80000cf0	013cba33	sltu	x20,x25,x19	 x25:0x80009c08 x19:0x00000000 x20=0x00000000
       17735000	      1772	80000cf4	0e509263	bne	x1,x5,80000dd8	  x1:0x00000000  x5:0x80009fc4
       17745000	      1773	00000000	00000013	addi	x0,x0,0	  x0:0x00000000
       17755000	      1774	80000dd4	00000013	addi	x0,x0,0	  x0:0x00000000
       17765000	      1775	80000dd8	011ebeb3	sltu	x29,x29,x17	 x29:0x0000042e x17:0x00000001 x29=0x00000000
       17775000	      1776	80000ddc	93076113	ori	x2,x14,-1744	 x14:0x80009f0c  x2=0xffffff3c
       17785000	      1777	80000de0	001853b3	srl	x7,x16,x1	 x16:0x80009fc4  x1:0x00000000  x7=0x80009fc4
       17795000	      1778	80000de4	155cf513	andi	x10,x25,341	 x25:0x80009c08 x10=0x00000000
       17805000	      1779	80000de8	9bb13593	sltiu	x11,x2,-1605	  x2:0xffffff3c x11=0x00000000
       17815000	      1780	80000dec	777e2f37	lui	x30,0x777e2	 x30=0x777e2000
       17825000	      1781	80000df0	01aaf833	and	x16,x21,x26	 x21:0x80009fc4 x26:0x000006d0 x16=0x000006c0
       17835000	      1782	80000df4	00000013	addi	x0,x0,0	  x0:0x00000000
       17845000	      1783	80000df8	4a93f813	andi	x16,x7,1193	  x7:0x80009fc4 x16=0x00000480
       17855000	      1784	80000dfc	0044e333	or	x6,x9,x4	  x9:0x80009fc4  x4:0x004fe200  x6=0x804fffc4
       17865000	      1785	80000e00	7e643b13	sltiu	x22,x8,2022	  x8:0x00000000 x22=0x00000001
       17875000	      1786	80000e04	00859693	slli	x13,x11,0x8	 x11:0x00000000 x13=0x00000000
       17885000	      1787	80000e08	01e51b33	sll	x22,x10,x30	 x10:0x00000000 x30:0x777e2000 x22=0x00000000
       17895000	      1788	80000e0c	0097e663	bltu	x15,x9,80000e18	 x15:0x00000424  x9:0x80009fc4
       17905000	      1789	00000000	00000013	addi	x0,x0,0	  x0:0x00000000
       17915000	      1790	80000e14	00000013	addi	x0,x0,0	  x0:0x00000000
       17925000	      1791	80000e18	088a2313	slti	x6,x20,136	 x20:0x00000000  x6=0x00000001
       17935000	      1792	80000e1c	01511c93	slli	x25,x2,0x15	  x2:0xffffff3c x25=0xe7800000
       17945000	      1793	80000e20	058ff663	bgeu	x31,x24,80000e6c	 x31:0x00000000 x24:0x00000da0
       17955000	      1794	80000e24	f18f1397	auipc	x7,0xf18f1	  x7=0x718f1e20
       17965000	      1795	80000e28	a78629b7	lui	x19,0xa7862	 x19=0xa7862000
       17975000	      1796	80000e2c	017e9233	sll	x4,x29,x23	 x29:0x00000000 x23:0x00005a15  x4=0x00000000
       17985000	      1797	80000e30	047bc263	blt	x23,x7,80000e74	 x23:0x00005a15  x7:0x718f1e20
       17995000	      1798	00000000	00000013	addi	x0,x0,0	  x0:0x00000000
       18005000	      1799	80000e70	00000013	addi	x0,x0,0	  x0:0x00000000
       18015000	      1800	80000e74	01795a63	bge	x18,x23,80000e88	 x18:0x80000000 x23:0x00005a15
       18025000	      1801	80000e78	f0bbc613	xori	x12,x23,-245	 x23:0x00005a15 x12=0xffffa51e
       18035000	      1802	80000e7c	001cdb93	srli	x23,x25,0x1	 x25:0xe7800000 x23=0x73c00000
       18045000	      1803	80000e80	017e9533	sll	x10,x29,x23	 x29:0x00000000 x23:0x73c00000 x10=0x00000000
       18055000	      1804	80000e84	00000013	addi	x0,x0,0	  x0:0x00000000
       18065000	      1805	80000e88	2823cd13	xori	x26,x7,642	  x7:0x718f1e20 x26=0x718f1ca2
       18075000	      1806	80000e8c	012e1513	slli	x10,x28,0x12	 x28:0xfffffcfc x10=0xf3f00000
       18085000	      1807	80000e90	00b67333	and	x6,x12,x11	 x12:0xffffa51e x11:0x00000000  x6=0x00000000
       18095000	      1808	80000e94	00f3abb3	slt	x23,x7,x15	  x7:0x718f1e20 x15:0x00000424 x23=0x00000000
       18105000	      1809	80000e98	40850533	sub	x10,x10,x8	 x10:0xf3f00000  x8:0x00000000 x10=0xf3f00000
       18115000	      1810	80000e9c	01366233	or	x4,x12,x19	 x12:0xffffa51e x19:0xa7862000  x4=0xffffa51e
       18125000	      1811	80000ea0	93184eb7	lui	x29,0x93184	 x29=0x93184000
       18135000	      1812	80000ea4	41630b33	sub	x22,x6,x22	  x6:0x00000000 x22:0x00000000 x22=0x00000000
       18145000	      1813	80000ea8	01af1d33	sll	x26,x30,x26	 x30:0x777e2000 x26:0x718f1ca2 x26=0xddf88000
       18155000	      1814	80000eac	05b98c63	beq	x19,x27,80000f04	 x19:0xa7862000 x27:0x0b42b000
       18165000	      1815	80000eb0	01acaf33	slt	x30,x25,x26	 x25:0xe7800000 x26:0xddf88000 x30=0x00000000
       18175000	      1816	80000eb4	c77a7e13	andi	x28,x20,-905	 x20:0x00000000 x28=0x00000000
       18185000	      1817	80000eb8	0084da63	bge	x9,x8,80000ecc	  x9:0x80009fc4  x8:0x00000000
       18195000	      1818	80000ebc	014766b3	or	x13,x14,x20	 x14:0x80009f0c x20:0x00000000 x13=0x80009f0c
       18205000	      1819	80000ec0	00358533	add	x10,x11,x3	 x11:0x00000000  x3:0x00000000 x10=0x00000000
       18215000	      1820	80000ec4	00774663	blt	x14,x7,80000ed0	 x14:0x80009f0c  x7:0x718f1e20
       18225000	      1821	00000000	00000013	addi	x0,x0,0	  x0:0x00000000
       18235000	      1822	80000ecc	00000013	addi	x0,x0,0	  x0:0x00000000
       18245000	      1823	80000ed0	04c71a63	bne	x14,x12,80000f24	 x14:0x80009f0c x12:0xffffa51e
       18255000	      1824	00000000	00000013	addi	x0,x0,0	  x0:0x00000000
       18265000	      1825	80000f20	00000013	addi	x0,x0,0	  x0:0x00000000
       18275000	      1826	80000f24	6b10e313	ori	x6,x1,1713	  x1:0x00000000  x6=0x000006b1
       18285000	      1827	80000f28	00e724b3	slt	x9,x14,x14	 x14:0x80009f0c x14:0x80009f0c  x9=0x00000000
       18295000	      1828	80000f2c	a23ff793	andi	x15,x31,-1501	 x31:0x00000000 x15=0x00000000
       18305000	      1829	80000f30	000794b3	sll	x9,x15,x0	 x15:0x00000000  x0:0x00000000  x9=0x00000000
       18315000	      1830	80000f34	0341f663	bgeu	x3,x20,80000f60	  x3:0x00000000 x20:0x00000000
       18325000	      1831	00000000	00000013	addi	x0,x0,0	  x0:0x00000000
       18335000	      1832	80000f5c	00000013	addi	x0,x0,0	  x0:0x00000000
       18345000	      1833	80000f60	00000013	addi	x0,x0,0	  x0:0x00000000
       18355000	      1834	80000f64	0062d593	srli	x11,x5,0x6	  x5:0x80009fc4 x11=0x0200027f
       18365000	      1835	80000f68	3344ca37	lui	x20,0x3344c	 x20=0x3344c000
       18375000	      1836	80000f6c	c709ac93	slti	x25,x19,-912	 x19:0xa7862000 x25=0x00000001
       18385000	      1837	80000f70	c3818db7	lui	x27,0xc3818	 x27=0xc3818000
       18395000	      1838	80000f74	019e1113	slli	x2,x28,0x19	 x28:0x00000000  x2=0x00000000
       18405000	      1839	80000f78	01e13833	sltu	x16,x2,x30	  x2:0x00000000 x30:0x00000000 x16=0x00000000
       18415000	      1840	80000f7c	00048633	add	x12,x9,x0	  x9:0x00000000  x0:0x00000000 x12=0x00000000
       18425000	      1841	80000f80	9382b513	sltiu	x10,x5,-1736	  x5:0x80009fc4 x10=0x00000001
       18435000	      1842	80000f84	00000013	addi	x0,x0,0	  x0:0x00000000
       18445000	      1843	80000f88	41fadeb3	sra	x29,x21,x31	 x21:0x80009fc4 x31:0x00000000 x29=0x80009fc4
       18455000	      1844	80000f8c	01670863	beq	x14,x22,80000f9c	 x14:0x80009f0c x22:0x00000000
       18465000	      1845	80000f90	01218c63	beq	x3,x18,80000fa8	  x3:0x00000000 x18:0x80000000
       18475000	      1846	80000f94	00720263	beq	x4,x7,80000f98	  x4:0xffffa51e  x7:0x718f1e20
       18485000	      1847	80000f98	3e7a6d93	ori	x27,x20,999	 x20:0x3344c000 x27=0x3344c3e7
       18495000	      1848	80000f9c	018d69b3	or	x19,x26,x24	 x26:0xddf88000 x24:0x00000da0 x19=0xddf88da0
       18505000	      1849	80000fa0	0359d463	bge	x19,x21,80000fc8	 x19:0xddf88da0 x21:0x80009fc4
       18515000	      1850	00000000	00000013	addi	x0,x0,0	  x0:0x00000000
       18525000	      1851	80000fc4	00000013	addi	x0,x0,0	  x0:0x00000000
       18535000	      1852	80000fc8	00918eb3	add	x29,x3,x9	  x3:0x00000000  x9:0x00000000 x29=0x00000000
       18545000	      1853	80000fcc	03d36863	bltu	x6,x29,80000ffc	  x6:0x000006b1 x29:0x00000000
       18555000	      1854	80000fd0	04a80663	beq	x16,x10,8000101c	 x16:0x00000000 x10:0x00000001
       18565000	      1855	80000fd4	00d7f0b3	and	x1,x15,x13	 x15:0x00000000 x13:0x80009f0c  x1=0x00000000
       18575000	      1856	80000fd8	01651613	slli	x12,x10,0x16	 x10:0x00000001 x12=0x00400000
       18585000	      1857	80000fdc	01086263	bltu	x16,x16,80000fe0	 x16:0x00000000 x16:0x00000000
       18595000	      1858	80000fe0	6c967b93	andi	x23,x12,1737	 x12:0x00400000 x23=0x00000000
       18605000	      1859	80000fe4	0077a2b3	slt	x5,x15,x7	 x15:0x00000000  x7:0x718f1e20  x5=0x00000001
       18615000	      1860	80000fe8	01afd493	srli	x9,x31,0x1a	 x31:0x00000000  x9=0x00000000
       18625000	      1861	80000fec	40300cb3	sub	x25,x0,x3	  x0:0x00000000  x3:0x00000000 x25=0x00000000
       18635000	      1862	80000ff0	40afda33	sra	x20,x31,x10	 x31:0x00000000 x10:0x00000001 x20=0x00000000
       18645000	      1863	80000ff4	0166ea63	bltu	x13,x22,80001008	 x13:0x80009f0c x22:0x00000000
       18655000	      1864	80000ff8	0414e063	bltu	x9,x1,80001038	  x9:0x00000000  x1:0x00000000
       18665000	      1865	80000ffc	009c06b3	add	x13,x24,x9	 x24:0x00000da0  x9:0x00000000 x13=0x00000da0
       18675000	      1866	80001000	018a5e13	srli	x28,x20,0x18	 x20:0x00000000 x28=0x00000000
       18685000	      1867	80001004	00000013	addi	x0,x0,0	  x0:0x00000000
       18695000	      1868	80001008	00000013	addi	x0,x0,0	  x0:0x00000000
       18705000	      1869	8000100c	01915b33	srl	x22,x2,x25	  x2:0x00000000 x25:0x00000000 x22=0x00000000
       18715000	      1870	80001010	01abbe33	sltu	x28,x23,x26	 x23:0x00000000 x26:0xddf88000 x28=0x00000001
       18725000	      1871	80001014	80f77193	andi	x3,x14,-2033	 x14:0x80009f0c  x3=0x8000980c
       18735000	      1872	80001018	4194d9b3	sra	x19,x9,x25	  x9:0x00000000 x25:0x00000000 x19=0x00000000
       18745000	      1873	8000101c	00cee8b3	or	x17,x29,x12	 x29:0x00000000 x12:0x00400000 x17=0x00400000
       18755000	      1874	80001020	5e827d97	auipc	x27,0x5e827	 x27=0xde82801c
       18765000	      1875	80001024	f3d2fc13	andi	x24,x5,-195	  x5:0x00000001 x24=0x00000001
       18775000	      1876	80001028	029a9063	bne	x21,x9,80001048	 x21:0x80009fc4  x9:0x00000000
       18785000	      1877	00000000	00000013	addi	x0,x0,0	  x0:0x00000000
       18795000	      1878	80001044	00000013	addi	x0,x0,0	  x0:0x00000000
       18805000	      1879	80001048	008700b3	add	x1,x14,x8	 x14:0x80009f0c  x8:0x00000000  x1=0x80009f0c
       18815000	      1880	8000104c	fbf74cb7	lui	x25,0xfbf74	 x25=0xfbf74000
       18825000	      1881	80001050	01a7dc33	srl	x24,x15,x26	 x15:0x00000000 x26:0xddf88000 x24=0x00000000
       18835000	      1882	80001054	00000013	addi	x0,x0,0	  x0:0x00000000
       18845000	      1883	80001058	19158313	addi	x6,x11,401	 x11:0x0200027f  x6=0x02000410
       18855000	      1884	8000105c	f0ce2313	slti	x6,x28,-244	 x28:0x00000001  x6=0x00000000
       18865000	      1885	80001060	f1e33b13	sltiu	x22,x6,-226	  x6:0x00000000 x22=0x00000001
       18875000	      1886	80001064	22bae293	ori	x5,x21,555	 x21:0x80009fc4  x5=0x80009fef
       18885000	      1887	80001068	008525b3	slt	x11,x10,x8	 x10:0x00000001  x8:0x00000000 x11=0x00000000
       18895000	      1888	8000106c	01b46863	bltu	x8,x27,8000107c	  x8:0x00000000 x27:0xde82801c
       18905000	      1889	00000000	00000013	addi	x0,x0,0	  x0:0x00000000
       18915000	      1890	80001078	00000013	addi	x0,x0,0	  x0:0x00000000
       18925000	      1891	8000107c	6c603393	sltiu	x7,x0,1734	  x0:0x00000000  x7=0x00000001
       18935000	      1892	80001080	dac08697	auipc	x13,0xdac08	 x13=0x5ac0907c
       18945000	      1893	80001084	00472083	lw	x1,4(x14)	 x14:0x80009f0c  x1=0x80002e34 PA:0x80009f10
       18955000	      1894	80001088	02070713	addi	x14,x14,32	 x14:0x80009f0c x14=0x80009f2c
       18965000	      1895	8000108c	00035b33	srl	x22,x6,x0	  x6:0x00000000  x0:0x00000000 x22=0x00000000
       18975000	      1896	80001090	09ee2eb7	lui	x29,0x9ee2	 x29=0x09ee2000
       18985000	      1897	80001094	001cceb3	xor	x29,x25,x1	 x25:0xfbf74000  x1:0x80002e34 x29=0x7bf76e34
       18995000	      1898	80001098	00108593	addi	x11,x1,1	  x1:0x80002e34 x11=0x80002e35
       19005000	      1899	8000109c	000585e7	jalr	x11,x11,0	 x11:0x80002e35 x11=0x8000109c
       19015000	      1900	00000000	00000013	addi	x0,x0,0	  x0:0x00000000
       19025000	      1901	80002e34	00000013	addi	x0,x0,0	  x0:0x00000000
       19035000	      1902	80002e38	01961433	sll	x8,x12,x25	 x12:0x00400000 x25:0xfbf74000  x8=0x00400000
       19045000	      1903	80002e3c	005fee33	or	x28,x31,x5	 x31:0x00000000  x5:0x80009fef x28=0x80009fef
       19055000	      1904	80002e40	015ed493	srli	x9,x29,0x15	 x29:0x7bf76e34  x9=0x000003df
       19065000	      1905	80002e44	02099863	bne	x19,x0,80002e74	 x19:0x00000000  x0:0x00000000
       19075000	      1906	80002e48	54e6c693	xori	x13,x13,1358	 x13:0x5ac0907c x13=0x5ac09532
       19085000	      1907	80002e4c	0269f463	bgeu	x19,x6,80002e74	 x19:0x00000000  x6:0x00000000
       19095000	      1908	00000000	00000013	addi	x0,x0,0	  x0:0x00000000
       19105000	      1909	80002e70	00000013	addi	x0,x0,0	  x0:0x00000000
       19115000	      1910	80002e74	40855f93	srai	x31,x10,0x8	 x10:0x00000001 x31=0x00000000
       19125000	      1911	80002e78	78b83c13	sltiu	x24,x16,1931	 x16:0x00000000 x24=0x00000001
       19135000	      1912	80002e7c	03f65c63	bge	x12,x31,80002eb4	 x12:0x00400000 x31:0x00000000
       19145000	      1913	00000000	00000013	addi	x0,x0,0	  x0:0x00000000
       19155000	      1914	80002eb0	00000013	addi	x0,x0,0	  x0:0x00000000
       19165000	      1915	80002eb4	566c6113	ori	x2,x24,1382	 x24:0x00000001  x2=0x00000567
       19175000	      1916	80002eb8	03857a63	bgeu	x10,x24,80002eec	 x10:0x00000001 x24:0x00000001
       19185000	      1917	00000000	00000013	addi	x0,x0,0	  x0:0x00000000
       19195000	      1918	80002ee8	00000013	addi	x0,x0,0	  x0:0x00000000
       19205000	      1919	80002eec	01eae433	or	x8,x21,x30	 x21:0x80009fc4 x30:0x00000000  x8=0x80009fc4
       19215000	      1920	80002ef0	4d7c8fb7	lui	x31,0x4d7c8	 x31=0x4d7c8000
       19225000	      1921	80002ef4	01effe63	bgeu	x31,x30,80002f10	 x31:0x4d7c8000 x30:0x00000000
       19235000	      1922	00000000	00000013	addi	x0,x0,0	  x0:0x00000000
       19245000	      1923	80002f0c	00000013	addi	x0,x0,0	  x0:0x00000000
       19255000	      1924	80002f10	00000013	addi	x0,x0,0	  x0:0x00000000
       19265000	      1925	80002f14	01cd6833	or	x16,x26,x28	 x26:0xddf88000 x28:0x80009fef x16=0xddf89fef
       19275000	      1926	80002f18	00171413	slli	x8,x14,0x1	 x14:0x80009f2c  x8=0x00013e58
       19285000	      1927	80002f1c	032f8063	beq	x31,x18,80002f3c	 x31:0x4d7c8000 x18:0x80000000
       19295000	      1928	80002f20	336a8c13	addi	x24,x21,822	 x21:0x80009fc4 x24=0x8000a2fa
       19305000	      1929	80002f24	136be313	ori	x6,x23,310	 x23:0x00000000  x6=0x00000136
       19315000	      1930	80002f28	41238d33	sub	x26,x7,x18	  x7:0x00000001 x18:0x80000000 x26=0x80000001
       19325000	      1931	80002f2c	35496493	ori	x9,x18,852	 x18:0x80000000  x9=0x80000354
       19335000	      1932	80002f30	003b5e93	srli	x29,x22,0x3	 x22:0x00000000 x29=0x00000000
       19345000	      1933	80002f34	005a80b3	add	x1,x21,x5	 x21:0x80009fc4  x5:0x80009fef  x1=0x00013fb3
       19355000	      1934	80002f38	a0c39c17	auipc	x24,0xa0c39	 x24=0x20c3bf34
       19365000	      1935	80002f3c	414d0c33	sub	x24,x26,x20	 x26:0x80000001 x20:0x00000000 x24=0x80000001
       19375000	      1936	80002f40	01986133	or	x2,x16,x25	 x16:0xddf89fef x25:0xfbf74000  x2=0xffffdfef
       19385000	      1937	80002f44	5dd31137	lui	x2,0x5dd31	  x2=0x5dd31000
       19395000	      1938	80002f48	d731bc93	sltiu	x25,x3,-653	  x3:0x8000980c x25=0x00000001
       19405000	      1939	80002f4c	007fa3b3	slt	x7,x31,x7	 x31:0x4d7c8000  x7:0x00000001  x7=0x00000000
       19415000	      1940	80002f50	41a45eb3	sra	x29,x8,x26	  x8:0x00013e58 x26:0x80000001 x29=0x00009f2c
       19425000	      1941	80002f54	0d312793	slti	x15,x2,211	  x2:0x5dd31000 x15=0x00000000
       19435000	      1942	80002f58	00991863	bne	x18,x9,80002f68	 x18:0x80000000  x9:0x80000354
       19445000	      1943	00000000	00000013	addi	x0,x0,0	  x0:0x00000000
       19455000	      1944	80002f64	00000013	addi	x0,x0,0	  x0:0x00000000
       19465000	      1945	80002f68	0c79ce93	xori	x29,x19,199	 x19:0x00000000 x29=0x000000c7
       19475000	      1946	80002f6c	bd2c3697	auipc	x13,0xbd2c3	 x13=0x3d2c5f68
       19485000	      1947	80002f70	01fc6d33	or	x26,x24,x31	 x24:0x80000001 x31:0x4d7c8000 x26=0xcd7c8001
       19495000	      1948	80002f74	037b0863	beq	x22,x23,80002fa4	 x22:0x00000000 x23:0x00000000
       19505000	      1949	00000000	00000013	addi	x0,x0,0	  x0:0x00000000
       19515000	      1950	80002fa0	00000013	addi	x0,x0,0	  x0:0x00000000
       19525000	      1951	80002fa4	030a5063	bge	x20,x16,80002fc4	 x20:0x00000000 x16:0xddf89fef
       19535000	      1952	00000000	00000013	addi	x0,x0,0	  x0:0x00000000
       19545000	      1953	80002fc0	00000013	addi	x0,x0,0	  x0:0x00000000
       19555000	      1954	80002fc4	25bafb93	andi	x23,x21,603	 x21:0x80009fc4 x23=0x00000240
       19565000	      1955	80002fc8	05577663	bgeu	x14,x21,80003014	 x14:0x80009f2c x21:0x80009fc4
       19575000	      1956	80002fcc	00f11a63	bne	x2,x15,80002fe0	  x2:0x5dd31000 x15:0x00000000
       19585000	      1957	00000000	00000013	addi	x0,x0,0	  x0:0x00000000
       19595000	      1958	80002fdc	00000013	addi	x0,x0,0	  x0:0x00000000
       19605000	      1959	80002fe0	55eff793	andi	x15,x31,1374	 x31:0x4d7c8000 x15=0x00000000
       19615000	      1960	80002fe4	441bb513	sltiu	x10,x23,1089	 x23:0x00000240 x10=0x00000001
       19625000	      1961	80002fe8	41e60b33	sub	x22,x12,x30	 x12:0x00400000 x30:0x00000000 x22=0x00400000
       19635000	      1962	80002fec	052f6863	bltu	x30,x18,8000303c	 x30:0x00000000 x18:0x80000000
       19645000	      1963	00000000	00000013	addi	x0,x0,0	  x0:0x00000000
       19655000	      1964	80003038	00000013	addi	x0,x0,0	  x0:0x00000000
       19665000	      1965	8000303c	0317c463	blt	x15,x17,80003064	 x15:0x00000000 x17:0x00400000
       19675000	      1966	00000000	00000013	addi	x0,x0,0	  x0:0x00000000
       19685000	      1967	80003060	00000013	addi	x0,x0,0	  x0:0x00000000
       19695000	      1968	80003064	3530c313	xori	x6,x1,851	  x1:0x00013fb3  x6=0x00013ce0
       19705000	      1969	80003068	2921a693	slti	x13,x3,658	  x3:0x8000980c x13=0x00000001
       19715000	      1970	8000306c	00381293	slli	x5,x16,0x3	 x16:0xddf89fef  x5=0xefc4ff78
       19725000	      1971	80003070	682a6d93	ori	x27,x20,1666	 x20:0x00000000 x27=0x00000682
       19735000	      1972	80003074	17662c13	slti	x24,x12,374	 x12:0x00400000 x24=0x00000000
       19745000	      1973	80003078	7d998f13	addi	x30,x19,2009	 x19:0x00000000 x30=0x000007d9
       19755000	      1974	8000307c	0141de33	srl	x28,x3,x20	  x3:0x8000980c x20:0x00000000 x28=0x8000980c
       19765000	      1975	80003080	40e15c33	sra	x24,x2,x14	  x2:0x5dd31000 x14:0x80009f2c x24=0x0005dd31
       19775000	      1976	80003084	f8f7bb13	sltiu	x22,x15,-113	 x15:0x00000000 x22=0x00000001
       19785000	      1977	80003088	04706663	bltu	x0,x7,800030d4	  x0:0x00000000  x7:0x00000000
       19795000	      1978	8000308c	00000013	addi	x0,x0,0	  x0:0x00000000
       19805000	      1979	80003090	01a9d533	srl	x10,x19,x26	 x19:0x00000000 x26:0xcd7c8001 x10=0x00000000
       19815000	      1980	80003094	0e724293	xori	x5,x4,231	  x4:0xffffa51e  x5=0xffffa5f9
       19825000	      1981	80003098	015e6db3	or	x27,x28,x21	 x28:0x8000980c x21:0x80009fc4 x27=0x80009fcc
       19835000	      1982	8000309c	01b9dfb3	srl	x31,x19,x27	 x19:0x00000000 x27:0x80009fcc x31=0x00000000
       19845000	      1983	800030a0	02774863	blt	x14,x7,800030d0	 x14:0x80009f2c  x7:0x00000000
       19855000	      1984	00000000	00000013	addi	x0,x0,0	  x0:0x00000000
       19865000	      1985	800030cc	00000013	addi	x0,x0,0	  x0:0x00000000
       19875000	      1986	800030d0	01ab9893	slli	x17,x23,0x1a	 x23:0x00000240 x17=0x00000000
       19885000	      1987	800030d4	01eb7bb3	and	x23,x22,x30	 x22:0x00000001 x30:0x000007d9 x23=0x00000001
       19895000	      1988	800030d8	01beeb33	or	x22,x29,x27	 x29:0x000000c7 x27:0x80009fcc x22=0x80009fcf
       19905000	      1989	800030dc	40200cb3	sub	x25,x0,x2	  x0:0x00000000  x2:0x5dd31000 x25=0xa22cf000
       19915000	      1990	800030e0	009480b3	add	x1,x9,x9	  x9:0x80000354  x9:0x80000354  x1=0x000006a8
       19925000	      1991	800030e4	92de2813	slti	x16,x28,-1747	 x28:0x8000980c x16=0x00000001
       19935000	      1992	800030e8	0163a533	slt	x10,x7,x22	  x7:0x00000000 x22:0x80009fcf x10=0x00000000
       19945000	      1993	800030ec	41145513	srai	x10,x8,0x11	  x8:0x00013e58 x10=0x00000000
       19955000	      1994	800030f0	4220eb13	ori	x22,x1,1058	  x1:0x000006a8 x22=0x000006aa
       19965000	      1995	800030f4	35206293	ori	x5,x0,850	  x0:0x00000000  x5=0x00000352
       19975000	      1996	800030f8	3cfa0e13	addi	x28,x20,975	 x20:0x00000000 x28=0x000003cf
       19985000	      1997	800030fc	015cfbb3	and	x23,x25,x21	 x25:0xa22cf000 x21:0x80009fc4 x23=0x80009000
       19995000	      1998	80003100	00819293	slli	x5,x3,0x8	  x3:0x8000980c  x5=0x00980c00
       20005000	      1999	80003104	63b1f013	andi	x0,x3,1595	  x3:0x8000980c
       20015000	      2000	80003108	00c378b3	and	x17,x6,x12	  x6:0x00013ce0 x12:0x00400000 x17=0x00000000
       20025000	      2001	8000310c	00391813	slli	x16,x18,0x3	 x18:0x80000000 x16=0x00000000
       20035000	      2002	80003110	6049e413	ori	x8,x19,1540	 x19:0x00000000  x8=0x00000604
       20045000	      2003	80003114	02f94063	blt	x18,x15,80003134	 x18:0x80000000 x15:0x00000000
       20055000	      2004	00000000	00000013	addi	x0,x0,0	  x0:0x00000000
       20065000	      2005	80003130	00000013	addi	x0,x0,0	  x0:0x00000000
       20075000	      2006	80003134	20b94513	xori	x10,x18,523	 x18:0x80000000 x10=0x8000020b
       20085000	      2007	80003138	01600e63	beq	x0,x22,80003154	  x0:0x00000000 x22:0x000006aa
       20095000	      2008	8000313c	00000013	addi	x0,x0,0	  x0:0x00000000
       20105000	      2009	80003140	0fa47193	andi	x3,x8,250	  x8:0x00000604  x3=0x00000000
       20115000	      2010	80003144	000ff033	and	x0,x31,x0	 x31:0x00000000  x0:0x00000000
       20125000	      2011	80003148	49e1b213	sltiu	x4,x3,1182	  x3:0x00000000  x4=0x00000001
       20135000	      2012	8000314c	000f48b3	xor	x17,x30,x0	 x30:0x000007d9  x0:0x00000000 x17=0x000007d9
       20145000	      2013	80003150	e7cbad13	slti	x26,x23,-388	 x23:0x80009000 x26=0x00000001
       20155000	      2014	80003154	a79a8793	addi	x15,x21,-1415	 x21:0x80009fc4 x15=0x80009a3d
       20165000	      2015	80003158	b484fd93	andi	x27,x9,-1208	  x9:0x80000354 x27=0x80000340
       20175000	      2016	8000315c	00f20c63	beq	x4,x15,80003174	  x4:0x00000001 x15:0x80009a3d
       20185000	      2017	80003160	011126b3	slt	x13,x2,x17	  x2:0x5dd31000 x17:0x000007d9 x13=0x00000000
       20195000	      2018	80003164	410651b3	sra	x3,x12,x16	 x12:0x00400000 x16:0x00000000  x3=0x00400000
       20205000	      2019	80003168	60f91097	auipc	x1,0x60f91	  x1=0xe0f94164
       20215000	      2020	8000316c	002af833	and	x16,x21,x2	 x21:0x80009fc4  x2:0x5dd31000 x16=0x00001000
       20225000	      2021	80003170	03ee6863	bltu	x28,x30,800031a0	 x28:0x000003cf x30:0x000007d9
       20235000	      2022	00000000	00000013	addi	x0,x0,0	  x0:0x00000000
       20245000	      2023	8000319c	00000013	addi	x0,x0,0	  x0:0x00000000
       20255000	      2024	800031a0	015a04b3	add	x9,x20,x21	 x20:0x00000000 x21:0x80009fc4  x9=0x80009fc4
       20265000	      2025	800031a4	015cea63	bltu	x25,x21,800031b8	 x25:0xa22cf000 x21:0x80009fc4
       20275000	      2026	800031a8	306a7393	andi	x7,x20,774	 x20:0x00000000  x7=0x00000000
       20285000	      2027	800031ac	00650463	beq	x10,x6,800031b4	 x10:0x8000020b  x6:0x00013ce0
       20295000	      2028	800031b0	021e0c63	beq	x28,x1,800031e8	 x28:0x000003cf  x1:0xe0f94164
       20305000	      2029	800031b4	01df1b13	slli	x22,x30,0x1d	 x30:0x000007d9 x22=0x20000000
       20315000	      2030	800031b8	74ba4697	auipc	x13,0x74ba4	 x13=0xf4ba71b4
       20325000	      2031	800031bc	034b4663	blt	x22,x20,800031e8	 x22:0x20000000 x20:0x00000000
       20335000	      2032	800031c0	01dd5a33	srl	x20,x26,x29	 x26:0x00000001 x29:0x000000c7 x20=0x00000000
       20345000	      2033	800031c4	00000013	addi	x0,x0,0	  x0:0x00000000
       20355000	      2034	800031c8	01ff22b3	slt	x5,x30,x31	 x30:0x000007d9 x31:0x00000000  x5=0x00000000
       20365000	      2035	800031cc	b3c3e813	ori	x16,x7,-1220	  x7:0x00000000 x16=0xfffffb3c
       20375000	      2036	800031d0	055bf463	bgeu	x23,x21,80003218	 x23:0x80009000 x21:0x80009fc4
       20385000	      2037	800031d4	c91aa993	slti	x19,x21,-879	 x21:0x80009fc4 x19=0x00000001
       20395000	      2038	800031d8	023f8063	beq	x31,x3,800031f8	 x31:0x00000000  x3:0x00400000
       20405000	      2039	800031dc	e15f8393	addi	x7,x31,-491	 x31:0x00000000  x7=0xfffffe15
       20415000	      2040	800031e0	010baa33	slt	x20,x23,x16	 x23:0x80009000 x16:0xfffffb3c x20=0x00000001
       20425000	      2041	800031e4	d92e2813	slti	x16,x28,-622	 x28:0x000003cf x16=0x00000000
       20435000	      2042	800031e8	c40ebe13	sltiu	x28,x29,-960	 x29:0x000000c7 x28=0x00000001
       20445000	      2043	800031ec	00591863	bne	x18,x5,800031fc	 x18:0x80000000  x5:0x00000000
       20455000	      2044	00000000	00000013	addi	x0,x0,0	  x0:0x00000000
       20465000	      2045	800031f8	00000013	addi	x0,x0,0	  x0:0x00000000
       20475000	      2046	800031fc	00b22033	slt	x0,x4,x11	  x4:0x00000001 x11:0x8000109c
       20485000	      2047	80003200	40b655b3	sra	x11,x12,x11	 x12:0x00400000 x11:0x8000109c x11=0x00000000
       20495000	      2048	80003204	01108b33	add	x22,x1,x17	  x1:0xe0f94164 x17:0x000007d9 x22=0xe0f9493d
       20505000	      2049	80003208	40d15493	srai	x9,x2,0xd	  x2:0x5dd31000  x9=0x0002ee98
       20515000	      2050	8000320c	40730e33	sub	x28,x6,x7	  x6:0x00013ce0  x7:0xfffffe15 x28=0x00013ecb
       20525000	      2051	80003210	1aa5c993	xori	x19,x11,426	 x11:0x00000000 x19=0x000001aa
       20535000	      2052	80003214	7dd7e613	ori	x12,x15,2013	 x15:0x80009a3d x12=0x80009ffd
       20545000	      2053	80003218	8069d497	auipc	x9,0x8069d	  x9=0x006a0214
       20555000	      2054	8000321c	01db1eb3	sll	x29,x22,x29	 x22:0xe0f9493d x29:0x000000c7 x29=0x7ca49e80
       20565000	      2055	80003220	223de417	auipc	x8,0x223de	  x8=0xa23e121c
       20575000	      2056	80003224	00000013	addi	x0,x0,0	  x0:0x00000000
       20585000	      2057	80003228	004f8fb3	add	x31,x31,x4	 x31:0x00000000  x4:0x00000001 x31=0x00000001
       20595000	      2058	8000322c	0064e863	bltu	x9,x6,8000323c	  x9:0x006a0214  x6:0x00013ce0
       20605000	      2059	80003230	005b82b3	add	x5,x23,x5	 x23:0x80009000  x5:0x00000000  x5=0x80009000
       20615000	      2060	80003234	b6670a13	addi	x20,x14,-1178	 x14:0x80009f2c x20=0x80009a92
       20625000	      2061	80003238	03ef6a63	bltu	x30,x30,8000326c	 x30:0x000007d9 x30:0x000007d9
       20635000	      2062	8000323c	0130bbb3	sltu	x23,x1,x19	  x1:0xe0f94164 x19:0x000001aa x23=0x00000000
       20645000	      2063	80003240	00836263	bltu	x6,x8,80003244	  x6:0x00013ce0  x8:0xa23e121c
       20655000	      2064	00000000	00000013	addi	x0,x0,0	  x0:0x00000000
       20665000	      2065	80003240	00000013	addi	x0,x0,0	  x0:0x00000000
       20675000	      2066	80003244	ab0cb113	sltiu	x2,x25,-1360	 x25:0xa22cf000  x2=0x00000001
       20685000	      2067	80003248	010ab2b3	sltu	x5,x21,x16	 x21:0x80009fc4 x16:0x00000000  x5=0x00000000
       20695000	      2068	8000324c	9c246f93	ori	x31,x8,-1598	  x8:0xa23e121c x31=0xfffffbde
       20705000	      2069	80003250	0569c263	blt	x19,x22,80003294	 x19:0x000001aa x22:0xe0f9493d
       20715000	      2070	80003254	00000013	addi	x0,x0,0	  x0:0x00000000
       20725000	      2071	80003258	04d74493	xori	x9,x14,77	 x14:0x80009f2c  x9=0x80009f61
       20735000	      2072	8000325c	0ee60f93	addi	x31,x12,238	 x12:0x80009ffd x31=0x8000a0eb
       20745000	      2073	80003260	003c1693	slli	x13,x24,0x3	 x24:0x0005dd31 x13=0x002ee988
       20755000	      2074	80003264	00000013	addi	x0,x0,0	  x0:0x00000000
       20765000	      2075	80003268	05335463	bge	x6,x19,800032b0	  x6:0x00013ce0 x19:0x000001aa
       20775000	      2076	00000000	00000013	addi	x0,x0,0	  x0:0x00000000
       20785000	      2077	800032ac	00000013	addi	x0,x0,0	  x0:0x00000000
       20795000	      2078	800032b0	b3dc7c93	andi	x25,x24,-1219	 x24:0x0005dd31 x25=0x0005d931
       20805000	      2079	800032b4	01ab03b3	add	x7,x22,x26	 x22:0xe0f9493d x26:0x00000001  x7=0xe0f9493e
       20815000	      2080	800032b8	7fe86813	ori	x16,x16,2046	 x16:0x00000000 x16=0x000007fe
       20825000	      2081	800032bc	0158dfb3	srl	x31,x17,x21	 x17:0x000007d9 x21:0x80009fc4 x31=0x0000007d
       20835000	      2082	800032c0	00d97fb3	and	x31,x18,x13	 x18:0x80000000 x13:0x002ee988 x31=0x00000000
       20845000	      2083	800032c4	00000013	addi	x0,x0,0	  x0:0x00000000
       20855000	      2084	800032c8	008d7cb3	and	x25,x26,x8	 x26:0x00000001  x8:0xa23e121c x25=0x00000000
       20865000	      2085	800032cc	417bd7b3	sra	x15,x23,x23	 x23:0x00000000 x23:0x00000000 x15=0x00000000
       20875000	      2086	800032d0	015b7a63	bgeu	x22,x21,800032e4	 x22:0xe0f9493d x21:0x80009fc4
       20885000	      2087	00000000	00000013	addi	x0,x0,0	  x0:0x00000000
       20895000	      2088	800032e0	00000013	addi	x0,x0,0	  x0:0x00000000
       20905000	      2089	800032e4	042b1663	bne	x22,x2,80003330	 x22:0xe0f9493d  x2:0x00000001
       20915000	      2090	00000000	00000013	addi	x0,x0,0	  x0:0x00000000
       20925000	      2091	8000332c	00000013	addi	x0,x0,0	  x0:0x00000000
       20935000	      2092	80003330	01b15113	srli	x2,x2,0x1b	  x2:0x00000001  x2=0x00000000
       20945000	      2093	80003334	0052fdb3	and	x27,x5,x5	  x5:0x00000000  x5:0x00000000 x27=0x00000000
       20955000	      2094	80003338	05a46463	bltu	x8,x26,80003380	  x8:0xa23e121c x26:0x00000001
       20965000	      2095	8000333c	0230e863	bltu	x1,x3,8000336c	  x1:0xe0f94164  x3:0x00400000
       20975000	      2096	80003340	41060bb3	sub	x23,x12,x16	 x12:0x80009ffd x16:0x000007fe x23=0x800097ff
       20985000	      2097	80003344	32e4be13	sltiu	x28,x9,814	  x9:0x80009f61 x28=0x00000000
       20995000	      2098	80003348	01f0c4b3	xor	x9,x1,x31	  x1:0xe0f94164 x31:0x00000000  x9=0xe0f94164
       21005000	      2099	8000334c	41e580b3	sub	x1,x11,x30	 x11:0x00000000 x30:0x000007d9  x1=0xfffff827
       21015000	      2100	80003350	012c9993	slli	x19,x25,0x12	 x25:0x00000000 x19=0x00000000
       21025000	      2101	80003354	01f09233	sll	x4,x1,x31	  x1:0xfffff827 x31:0x00000000  x4=0xfffff827
       21035000	      2102	80003358	67a03013	sltiu	x0,x0,1658	  x0:0x00000000
       21045000	      2103	8000335c	05079663	bne	x15,x16,800033a8	 x15:0x00000000 x16:0x000007fe
       21055000	      2104	00000000	00000013	addi	x0,x0,0	  x0:0x00000000
       21065000	      2105	800033a4	00000013	addi	x0,x0,0	  x0:0x00000000
       21075000	      2106	800033a8	7cc27d93	andi	x27,x4,1996	  x4:0xfffff827 x27=0x00000004
       21085000	      2107	800033ac	00d25c13	srli	x24,x4,0xd	  x4:0xfffff827 x24=0x0007ffff
       21095000	      2108	800033b0	33922493	slti	x9,x4,825	  x4:0xfffff827  x9=0x00000001
       21105000	      2109	800033b4	00d31e93	slli	x29,x6,0xd	  x6:0x00013ce0 x29=0x279c0000
       21115000	      2110	800033b8	6296f293	andi	x5,x13,1577	 x13:0x002ee988  x5=0x00000008
       21125000	      2111	800033bc	09b9f193	andi	x3,x19,155	 x19:0x00000000  x3=0x00000000
       21135000	      2112	800033c0	40df5433	sra	x8,x30,x13	 x30:0x000007d9 x13:0x002ee988  x8=0x00000007
       21145000	      2113	800033c4	00000013	addi	x0,x0,0	  x0:0x00000000
       21155000	      2114	800033c8	00000013	addi	x0,x0,0	  x0:0x00000000
       21165000	      2115	800033cc	0df0c513	xori	x10,x1,223	  x1:0xfffff827 x10=0xfffff8f8
       21175000	      2116	800033d0	42ffb213	sltiu	x4,x31,1071	 x31:0x00000000  x4=0x00000001
       21185000	      2117	800033d4	abd19d17	auipc	x26,0xabd19	 x26=0x2bd1c3d0
       21195000	      2118	800033d8	01caa533	slt	x10,x21,x28	 x21:0x80009fc4 x28:0x00000000 x10=0x00000001
       21205000	      2119	800033dc	00472083	lw	x1,4(x14)	 x14:0x80009f2c  x1=0x8000381c PA:0x80009f30
       21215000	      2120	800033e0	40438233	sub	x4,x7,x4	  x7:0xe0f9493e  x4:0x00000001  x4=0xe0f9493d
       21225000	      2121	800033e4	02870713	addi	x14,x14,40	 x14:0x80009f2c x14=0x80009f54
       21235000	      2122	800033e8	a8bdf493	andi	x9,x27,-1397	 x27:0x00000004  x9=0x00000000
       21245000	      2123	800033ec	aa013893	sltiu	x17,x2,-1376	  x2:0x00000000 x17=0x00000001
       21255000	      2124	800033f0	b904c493	xori	x9,x9,-1136	  x9:0x00000000  x9=0xfffffb90
       21265000	      2125	800033f4	6e3f0037	lui	x0,0x6e3f0	
       21275000	      2126	800033f8	01a64d33	xor	x26,x12,x26	 x12:0x80009ffd x26:0x2bd1c3d0 x26=0xabd15c2d
       21285000	      2127	800033fc	00000013	addi	x0,x0,0	  x0:0x00000000
       21295000	      2128	80003400	00108493	addi	x9,x1,1	  x1:0x8000381c  x9=0x8000381d
       21305000	      2129	80003404	000484e7	jalr	x9,x9,0	  x9:0x8000381d  x9=0x80003404
       21315000	      2130	00000000	00000013	addi	x0,x0,0	  x0:0x00000000
       21325000	      2131	8000381c	00000013	addi	x0,x0,0	  x0:0x00000000
       21335000	      2132	80003820	00005817	auipc	x16,0x5	 x16=0x8000881c
       21345000	      2133	80003824	dc080813	addi	x16,x16,-576	 x16:0x8000881c x16=0x800085dc
       21355000	      2134	80003828	f2a84e83	lbu	x29,-214(x16)	 x16:0x800085dc x29=0x00000000 PA:0x80008506
       21365000	      2135	00000000	00000013	addi	x0,x0,0	  x0:0x00000000
       21375000	      2136	8000382c	01dcc533	xor	x10,x25,x29	 x25:0x00000000 x29:0x00000000 x10=0x00000000
       21385000	      2137	80003830	2f2a7d93	andi	x27,x20,754	 x20:0x80009a92 x27=0x00000292
       21395000	      2138	80003834	010660b3	or	x1,x12,x16	 x12:0x80009ffd x16:0x800085dc  x1=0x80009ffd
       21405000	      2139	80003838	127d6593	ori	x11,x26,295	 x26:0xabd15c2d x11=0xabd15d2f
       21415000	      2140	8000383c	016243b3	xor	x7,x4,x22	  x4:0xe0f9493d x22:0xe0f9493d  x7=0x00000000
       21425000	      2141	80003840	01f7d093	srli	x1,x15,0x1f	 x15:0x00000000  x1=0x00000000
       21435000	      2142	80003844	fa980da3	sb	x9,-69(x16)	 x16:0x800085dc  x9:0x80003404 PA:0x80008597
       21445000	      2143	80003848	0d184203	lbu	x4,209(x16)	 x16:0x800085dc  x4=0x00000000 PA:0x800086ad
       21455000	      2144	8000384c	f5584083	lbu	x1,-171(x16)	 x16:0x800085dc  x1=0x00000000 PA:0x80008531
       21465000	      2145	80003850	40b7db93	srai	x23,x15,0xb	 x15:0x00000000 x23=0x00000000
       21475000	      2146	80003854	413301b3	sub	x3,x6,x19	  x6:0x00013ce0 x19:0x00000000  x3=0x00013ce0
       21485000	      2147	80003858	609cef13	ori	x30,x25,1545	 x25:0x00000000 x30=0x00000609
       21495000	      2148	8000385c	0ef80103	lb	x2,239(x16)	 x16:0x800085dc  x2=0x00000000 PA:0x800086cb
       21505000	      2149	00000000	00000013	addi	x0,x0,0	  x0:0x00000000
       21515000	      2150	80003860	fa284793	xori	x15,x16,-94	 x16:0x800085dc x15=0x7fff7a7e
       21525000	      2151	80003864	f7081303	lh	x6,-144(x16)	 x16:0x800085dc  x6=0x00000000 PA:0x8000854c
       21535000	      2152	80003868	41a6d093	srai	x1,x13,0x1a	 x13:0x002ee988  x1=0x00000000
       21545000	      2153	8000386c	f4b803a3	sb	x11,-185(x16)	 x16:0x800085dc x11:0xabd15d2f PA:0x80008523
       21555000	      2154	80003870	bbc65117	auipc	x2,0xbbc65	  x2=0x3bc6886c
       21565000	      2155	80003874	04285583	lhu	x11,66(x16)	 x16:0x800085dc x11=0x00000000 PA:0x8000861e
       21575000	      2156	80003878	37188393	addi	x7,x17,881	 x17:0x00000001  x7=0x00000372
       21585000	      2157	8000387c	d78dc313	xori	x6,x27,-648	 x27:0x00000292  x6=0xffffffea
       21595000	      2158	80003880	a1553a13	sltiu	x20,x10,-1515	 x10:0x00000000 x20=0x00000001
       21605000	      2159	80003884	00230db3	add	x27,x6,x2	  x6:0xffffffea  x2:0x3bc6886c x27=0x3bc68856
       21615000	      2160	80003888	f4485303	lhu	x6,-188(x16)	 x16:0x800085dc  x6=0x00000000 PA:0x80008520
       21625000	      2161	8000388c	00ef24b3	slt	x9,x30,x14	 x30:0x00000609 x14:0x80009f54  x9=0x00000000
       21635000	      2162	80003890	00000013	addi	x0,x0,0	  x0:0x00000000
       21645000	      2163	80003894	04085583	lhu	x11,64(x16)	 x16:0x800085dc x11=0x00000000 PA:0x8000861c
       21655000	      2164	80003898	eedc8113	addi	x2,x25,-275	 x25:0x00000000  x2=0xfffffeed
       21665000	      2165	8000389c	000d7c33	and	x24,x26,x0	 x26:0xabd15c2d  x0:0x00000000 x24=0x00000000
       21675000	      2166	800038a0	f8417893	andi	x17,x2,-124	  x2:0xfffffeed x17=0xfffffe84
       21685000	      2167	800038a4	00d10333	add	x6,x2,x13	  x2:0xfffffeed x13:0x002ee988  x6=0x002ee875
       21695000	      2168	800038a8	f9580003	lb	x0,-107(x16)	 x16:0x800085dc PA:0x80008571
       21705000	      2169	800038ac	02180c63	beq	x16,x1,800038e4	 x16:0x800085dc  x1:0x00000000
       21715000	      2170	800038b0	0071ed33	or	x26,x3,x7	  x3:0x00013ce0  x7:0x00000372 x26=0x00013ff2
       21725000	      2171	800038b4	01f75293	srli	x5,x14,0x1f	 x14:0x80009f54  x5=0x00000001
       21735000	      2172	800038b8	a5026817	auipc	x16,0xa5026	 x16=0x250298b4
       21745000	      2173	800038bc	017c26b3	slt	x13,x24,x23	 x24:0x00000000 x23:0x00000000 x13=0x00000000
       21755000	      2174	800038c0	7f638193	addi	x3,x7,2038	  x7:0x00000372  x3=0x00000b68
       21765000	      2175	800038c4	01d89c63	bne	x17,x29,800038dc	 x17:0xfffffe84 x29:0x00000000
       21775000	      2176	00000000	00000013	addi	x0,x0,0	  x0:0x00000000
       21785000	      2177	800038d8	00000013	addi	x0,x0,0	  x0:0x00000000
       21795000	      2178	800038dc	00000013	addi	x0,x0,0	  x0:0x00000000
       21805000	      2179	800038e0	9a9187b7	lui	x15,0x9a918	 x15=0x9a918000
       21815000	      2180	800038e4	e76db693	sltiu	x13,x27,-394	 x27:0x3bc68856 x13=0x00000001
       21825000	      2181	800038e8	00c0c9b3	xor	x19,x1,x12	  x1:0x00000000 x12:0x80009ffd x19=0x80009ffd
       21835000	      2182	800038ec	00aaf3b3	and	x7,x21,x10	 x21:0x80009fc4 x10:0x00000000  x7=0x00000000
       21845000	      2183	800038f0	0f484a63	blt	x16,x20,800039e4	 x16:0x250298b4 x20:0x00000001
       21855000	      2184	800038f4	01e3d2b3	srl	x5,x7,x30	  x7:0x00000000 x30:0x00000609  x5=0x00000000
       21865000	      2185	800038f8	00000013	addi	x0,x0,0	  x0:0x00000000
       21875000	      2186	800038fc	00005797	auipc	x15,0x5	 x15=0x800088f8
       21885000	      2187	80003900	d4478793	addi	x15,x15,-700	 x15:0x800088f8 x15=0x8000863c
       21895000	      2188	80003904	d77782a3	sb	x23,-667(x15)	 x15:0x8000863c x23:0x00000000 PA:0x800083a1
       21905000	      2189	80003908	01dfe4b3	or	x9,x31,x29	 x31:0x00000000 x29:0x00000000  x9=0x00000000
       21915000	      2190	8000390c	0bb78123	sb	x27,162(x15)	 x15:0x8000863c x27:0x3bc68856 PA:0x800086de
       21925000	      2191	80003910	00405f93	srli	x31,x0,0x4	  x0:0x00000000 x31=0x00000000
       21935000	      2192	80003914	d3503e13	sltiu	x28,x0,-715	  x0:0x00000000 x28=0x00000001
       21945000	      2193	80003918	ddd7cf03	lbu	x30,-547(x15)	 x15:0x8000863c x30=0x00000000 PA:0x80008419
       21955000	      2194	00000000	00000013	addi	x0,x0,0	  x0:0x00000000
       21965000	      2195	8000391c	6dcf4c93	xori	x25,x30,1756	 x30:0x00000000 x25=0x000006dc
       21975000	      2196	80003920	a2f784a3	sb	x15,-1495(x15)	 x15:0x8000863c x15:0x8000863c PA:0x80008065
       21985000	      2197	80003924	0170d513	srli	x10,x1,0x17	  x1:0x00000000 x10=0x00000000
       21995000	      2198	80003928	1c7a6113	ori	x2,x20,455	 x20:0x00000001  x2=0x000001c7
       22005000	      2199	8000392c	de17cd03	lbu	x26,-543(x15)	 x15:0x8000863c x26=0x00000000 PA:0x8000841d
       22015000	      2200	80003930	efb78ba3	sb	x27,-265(x15)	 x15:0x8000863c x27:0x3bc68856 PA:0x80008533
       22025000	      2201	80003934	d8b78583	lb	x11,-629(x15)	 x15:0x8000863c x11=0x00000000 PA:0x800083c7
       22035000	      2202	80003938	009989b3	add	x19,x19,x9	 x19:0x80009ffd  x9:0x00000000 x19=0x80009ffd
       22045000	      2203	8000393c	0012e233	or	x4,x5,x1	  x5:0x00000000  x1:0x00000000  x4=0x00000000
       22055000	      2204	80003940	7d502813	slti	x16,x0,2005	  x0:0x00000000 x16=0x00000001
       22065000	      2205	80003944	00ec2a33	slt	x20,x24,x14	 x24:0x00000000 x14:0x80009f54 x20=0x00000000
       22075000	      2206	80003948	00a6ce33	xor	x28,x13,x10	 x13:0x00000001 x10:0x00000000 x28=0x00000001
       22085000	      2207	8000394c	1af79923	sh	x15,434(x15)	 x15:0x8000863c x15:0x8000863c PA:0x800087ee
       22095000	      2208	80003950	02b79323	sh	x11,38(x15)	 x15:0x8000863c x11:0x00000000 PA:0x80008662
       22105000	      2209	80003954	5426f193	andi	x3,x13,1346	 x13:0x00000001  x3=0x00000000
       22115000	      2210	80003958	de47c983	lbu	x19,-540(x15)	 x15:0x8000863c x19=0x00000000 PA:0x80008420
       22125000	      2211	8000395c	f91782a3	sb	x17,-123(x15)	 x15:0x8000863c x17:0xfffffe84 PA:0x800085c1
       22135000	      2212	80003960	a8e79d23	sh	x14,-1382(x15)	 x15:0x8000863c x14:0x80009f54 PA:0x800080d6
       22145000	      2213	80003964	a7b4cb13	xori	x22,x9,-1413	  x9:0x00000000 x22=0xfffffa7b
       22155000	      2214	80003968	db07c183	lbu	x3,-592(x15)	 x15:0x8000863c  x3=0x00000000 PA:0x800083ec
       22165000	      2215	8000396c	41dcd313	srai	x6,x25,0x1d	 x25:0x000006dc  x6=0x00000000
       22175000	      2216	80003970	c5e7da03	lhu	x20,-930(x15)	 x15:0x8000863c x20=0x00000000 PA:0x8000829a
       22185000	      2217	80003974	00bba993	slti	x19,x23,11	 x23:0x00000000 x19=0x00000001
       22195000	      2218	80003978	274f6e13	ori	x28,x30,628	 x30:0x00000000 x28=0x00000274
       22205000	      2219	8000397c	cb479a03	lh	x20,-844(x15)	 x15:0x8000863c x20=0x00000000 PA:0x800082f0
       22215000	      2220	80003980	00dca833	slt	x16,x25,x13	 x25:0x000006dc x13:0x00000001 x16=0x00000000
       22225000	      2221	80003984	00b666b3	or	x13,x12,x11	 x12:0x80009ffd x11:0x00000000 x13=0x80009ffd
       22235000	      2222	80003988	00f79db3	sll	x27,x15,x15	 x15:0x8000863c x15:0x8000863c x27=0xc0000000
       22245000	      2223	8000398c	00000013	addi	x0,x0,0	  x0:0x00000000
       22255000	      2224	80003990	b7478623	sb	x20,-1172(x15)	 x15:0x8000863c x20:0x00000000 PA:0x800081a8
       22265000	      2225	80003994	c5278023	sb	x18,-960(x15)	 x15:0x8000863c x18:0x80000000 PA:0x8000827c
       22275000	      2226	80003998	f6a782a3	sb	x10,-155(x15)	 x15:0x8000863c x10:0x00000000 PA:0x800085a1
       22285000	      2227	8000399c	1c37c203	lbu	x4,451(x15)	 x15:0x8000863c  x4=0x00000000 PA:0x800087ff
       22295000	      2228	800039a0	85bfb313	sltiu	x6,x31,-1957	 x31:0x00000000  x6=0x00000001
       22305000	      2229	800039a4	00000013	addi	x0,x0,0	  x0:0x00000000
       22315000	      2230	800039a8	000d1f33	sll	x30,x26,x0	 x26:0x00000000  x0:0x00000000 x30=0x00000000
       22325000	      2231	800039ac	13a33b17	auipc	x22,0x13a33	 x22=0x93a369a8
       22335000	      2232	800039b0	40068d33	sub	x26,x13,x0	 x13:0x80009ffd  x0:0x00000000 x26=0x80009ffd
       22345000	      2233	800039b4	0072db93	srli	x23,x5,0x7	  x5:0x00000000 x23=0x00000000
       22355000	      2234	800039b8	40cd88b3	sub	x17,x27,x12	 x27:0xc0000000 x12:0x80009ffd x17=0x3fff6003
       22365000	      2235	800039bc	014561b3	or	x3,x10,x20	 x10:0x00000000 x20:0x00000000  x3=0x00000000
       22375000	      2236	800039c0	032a4263	blt	x20,x18,800039e4	 x20:0x00000000 x18:0x80000000
       22385000	      2237	800039c4	01fcde63	bge	x25,x31,800039e0	 x25:0x000006dc x31:0x00000000
       22395000	      2238	00000000	00000013	addi	x0,x0,0	  x0:0x00000000
       22405000	      2239	800039dc	00000013	addi	x0,x0,0	  x0:0x00000000
       22415000	      2240	800039e0	40318533	sub	x10,x3,x3	  x3:0x00000000  x3:0x00000000 x10=0x00000000
       22425000	      2241	800039e4	d5f3a893	slti	x17,x7,-673	  x7:0x00000000 x17=0x00000000
       22435000	      2242	800039e8	004721b3	slt	x3,x14,x4	 x14:0x80009f54  x4:0x00000000  x3=0x00000001
       22445000	      2243	800039ec	03a30a63	beq	x6,x26,80003a20	  x6:0x00000001 x26:0x80009ffd
       22455000	      2244	800039f0	dd46fa13	andi	x20,x13,-556	 x13:0x80009ffd x20=0x80009dd4
       22465000	      2245	800039f4	00211a13	slli	x20,x2,0x2	  x2:0x000001c7 x20=0x0000071c
       22475000	      2246	800039f8	008e1c63	bne	x28,x8,80003a10	 x28:0x00000274  x8:0x00000007
       22485000	      2247	00000000	00000013	addi	x0,x0,0	  x0:0x00000000
       22495000	      2248	80003a0c	00000013	addi	x0,x0,0	  x0:0x00000000
       22505000	      2249	80003a10	01b0beb3	sltu	x29,x1,x27	  x1:0x00000000 x27:0xc0000000 x29=0x00000001
       22515000	      2250	80003a14	015a91b3	sll	x3,x21,x21	 x21:0x80009fc4 x21:0x80009fc4  x3=0x0009fc40
       22525000	      2251	80003a18	9ad2c393	xori	x7,x5,-1619	  x5:0x00000000  x7=0xfffff9ad
       22535000	      2252	80003a1c	018ee3b3	or	x7,x29,x24	 x29:0x00000001 x24:0x00000000  x7=0x00000001
       22545000	      2253	80003a20	362c3b13	sltiu	x22,x24,866	 x24:0x00000000 x22=0x00000001
       22555000	      2254	80003a24	01015333	srl	x6,x2,x16	  x2:0x000001c7 x16:0x00000000  x6=0x000001c7
       22565000	      2255	80003a28	00f3e263	bltu	x7,x15,80003a2c	  x7:0x00000001 x15:0x8000863c
       22575000	      2256	00000000	00000013	addi	x0,x0,0	  x0:0x00000000
       22585000	      2257	80003a28	00000013	addi	x0,x0,0	  x0:0x00000000
       22595000	      2258	80003a2c	000f7e63	bgeu	x30,x0,80003a48	 x30:0x00000000  x0:0x00000000
       22605000	      2259	00000000	00000013	addi	x0,x0,0	  x0:0x00000000
       22615000	      2260	80003a44	00000013	addi	x0,x0,0	  x0:0x00000000
       22625000	      2261	80003a48	02066c63	bltu	x12,x0,80003a80	 x12:0x80009ffd  x0:0x00000000
       22635000	      2262	80003a4c	835f7213	andi	x4,x30,-1995	 x30:0x00000000  x4=0x00000000
       22645000	      2263	80003a50	40505f13	srai	x30,x0,0x5	  x0:0x00000000 x30=0x00000000
       22655000	      2264	80003a54	002b6c63	bltu	x22,x2,80003a6c	 x22:0x00000001  x2:0x000001c7
       22665000	      2265	00000000	00000013	addi	x0,x0,0	  x0:0x00000000
       22675000	      2266	80003a68	00000013	addi	x0,x0,0	  x0:0x00000000
       22685000	      2267	80003a6c	73b08593	addi	x11,x1,1851	  x1:0x00000000 x11=0x0000073b
       22695000	      2268	80003a70	3d8eafb7	lui	x31,0x3d8ea	 x31=0x3d8ea000
       22705000	      2269	80003a74	00a85633	srl	x12,x16,x10	 x16:0x00000000 x10:0x00000000 x12=0x00000000
       22715000	      2270	80003a78	02ad3c93	sltiu	x25,x26,42	 x26:0x80009ffd x25=0x00000000
       22725000	      2271	80003a7c	ec62f493	andi	x9,x5,-314	  x5:0x00000000  x9=0x00000000
       22735000	      2272	80003a80	03504863	blt	x0,x21,80003ab0	  x0:0x00000000 x21:0x80009fc4
       22745000	      2273	80003a84	b378bc93	sltiu	x25,x17,-1225	 x17:0x00000000 x25=0x00000001
       22755000	      2274	80003a88	c7ac8417	auipc	x8,0xc7ac8	  x8=0x47acba84
       22765000	      2275	80003a8c	003f0133	add	x2,x30,x3	 x30:0x00000000  x3:0x0009fc40  x2=0x0009fc40
       22775000	      2276	80003a90	01bf4e63	blt	x30,x27,80003aac	 x30:0x00000000 x27:0xc0000000
       22785000	      2277	80003a94	018378b3	and	x17,x6,x24	  x6:0x000001c7 x24:0x00000000 x17=0x00000000
       22795000	      2278	80003a98	410259b3	sra	x19,x4,x16	  x4:0x00000000 x16:0x00000000 x19=0x00000000
       22805000	      2279	80003a9c	0025a5b3	slt	x11,x11,x2	 x11:0x0000073b  x2:0x0009fc40 x11=0x00000001
       22815000	      2280	80003aa0	01a0f4b3	and	x9,x1,x26	  x1:0x00000000 x26:0x80009ffd  x9=0x00000000
       22825000	      2281	80003aa4	00978eb3	add	x29,x15,x9	 x15:0x8000863c  x9:0x00000000 x29=0x8000863c
       22835000	      2282	80003aa8	41918a33	sub	x20,x3,x25	  x3:0x0009fc40 x25:0x00000001 x20=0x0009fc3f
       22845000	      2283	80003aac	007f6eb3	or	x29,x30,x7	 x30:0x00000000  x7:0x00000001 x29=0x00000001
       22855000	      2284	80003ab0	00000013	addi	x0,x0,0	  x0:0x00000000
       22865000	      2285	80003ab4	404cd393	srai	x7,x25,0x4	 x25:0x00000001  x7=0x00000000
       22875000	      2286	80003ab8	018352b3	srl	x5,x6,x24	  x6:0x000001c7 x24:0x00000000  x5=0x000001c7
       22885000	      2287	80003abc	f9d1ae13	slti	x28,x3,-99	  x3:0x0009fc40 x28=0x00000000
       22895000	      2288	80003ac0	01035613	srli	x12,x6,0x10	  x6:0x000001c7 x12=0x00000000
       22905000	      2289	80003ac4	40928bb3	sub	x23,x5,x9	  x5:0x000001c7  x9:0x00000000 x23=0x000001c7
       22915000	      2290	80003ac8	00000013	addi	x0,x0,0	  x0:0x00000000
       22925000	      2291	80003acc	043ee063	bltu	x29,x3,80003b0c	 x29:0x00000001  x3:0x0009fc40
       22935000	      2292	00000000	00000013	addi	x0,x0,0	  x0:0x00000000
       22945000	      2293	80003b08	00000013	addi	x0,x0,0	  x0:0x00000000
       22955000	      2294	80003b0c	004bb6b3	sltu	x13,x23,x4	 x23:0x000001c7  x4:0x00000000 x13=0x00000000
       22965000	      2295	80003b10	c8412a13	slti	x20,x2,-892	  x2:0x0009fc40 x20=0x00000000
       22975000	      2296	80003b14	01e91893	slli	x17,x18,0x1e	 x18:0x80000000 x17=0x00000000
       22985000	      2297	80003b18	019866b3	or	x13,x16,x25	 x16:0x00000000 x25:0x00000001 x13=0x00000001
       22995000	      2298	80003b1c	04a6c463	blt	x13,x10,80003b64	 x13:0x00000001 x10:0x00000000
       23005000	      2299	80003b20	01f09e63	bne	x1,x31,80003b3c	  x1:0x00000000 x31:0x3d8ea000
       23015000	      2300	00000000	00000013	addi	x0,x0,0	  x0:0x00000000
       23025000	      2301	80003b38	00000013	addi	x0,x0,0	  x0:0x00000000
       23035000	      2302	80003b3c	29d260b7	lui	x1,0x29d26	  x1=0x29d26000
       23045000	      2303	80003b40	017fefb3	or	x31,x31,x23	 x31:0x3d8ea000 x23:0x000001c7 x31=0x3d8ea1c7
       23055000	      2304	80003b44	020f5263	bge	x30,x0,80003b68	 x30:0x00000000  x0:0x00000000
       23065000	      2305	00000000	00000013	addi	x0,x0,0	  x0:0x00000000
       23075000	      2306	80003b64	00000013	addi	x0,x0,0	  x0:0x00000000
       23085000	      2307	80003b68	01eefc63	bgeu	x29,x30,80003b80	 x29:0x00000001 x30:0x00000000
       23095000	      2308	00000000	00000013	addi	x0,x0,0	  x0:0x00000000
       23105000	      2309	80003b7c	00000013	addi	x0,x0,0	  x0:0x00000000
       23115000	      2310	80003b80	01f50263	beq	x10,x31,80003b84	 x10:0x00000000 x31:0x3d8ea1c7
       23125000	      2311	80003b84	02f70663	beq	x14,x15,80003bb0	 x14:0x80009f54 x15:0x8000863c
       23135000	      2312	80003b88	41985fb3	sra	x31,x16,x25	 x16:0x00000000 x25:0x00000001 x31=0x00000000
       23145000	      2313	80003b8c	00000013	addi	x0,x0,0	  x0:0x00000000
       23155000	      2314	80003b90	672461b7	lui	x3,0x67246	  x3=0x67246000
       23165000	      2315	80003b94	03315e63	bge	x2,x19,80003bd0	  x2:0x0009fc40 x19:0x00000000
       23175000	      2316	00000000	00000013	addi	x0,x0,0	  x0:0x00000000
       23185000	      2317	80003bcc	00000013	addi	x0,x0,0	  x0:0x00000000
       23195000	      2318	80003bd0	81c08993	addi	x19,x1,-2020	  x1:0x29d26000 x19=0x29d2581c
       23205000	      2319	80003bd4	0556f863	bgeu	x13,x21,80003c24	 x13:0x00000001 x21:0x80009fc4
       23215000	      2320	80003bd8	7402e337	lui	x6,0x7402e	  x6=0x7402e000
       23225000	      2321	80003bdc	3055b813	sltiu	x16,x11,773	 x11:0x00000001 x16=0x00000001
       23235000	      2322	80003be0	00391eb3	sll	x29,x18,x3	 x18:0x80000000  x3:0x67246000 x29=0x80000000
       23245000	      2323	80003be4	49e9b013	sltiu	x0,x19,1182	 x19:0x29d2581c
       23255000	      2324	80003be8	285fda17	auipc	x20,0x285fd	 x20=0xa8600be4
       23265000	      2325	80003bec	c481b7b7	lui	x15,0xc481b	 x15=0xc481b000
       23275000	      2326	80003bf0	ba3e8e93	addi	x29,x29,-1117	 x29:0x80000000 x29=0x7ffffba3
       23285000	      2327	80003bf4	017799b3	sll	x19,x15,x23	 x15:0xc481b000 x23:0x000001c7 x19=0x40d80000
       23295000	      2328	80003bf8	00b5eb33	or	x22,x11,x11	 x11:0x00000001 x11:0x00000001 x22=0x00000001
       23305000	      2329	80003bfc	04f80063	beq	x16,x15,80003c3c	 x16:0x00000001 x15:0xc481b000
       23315000	      2330	80003c00	013e4833	xor	x16,x28,x19	 x28:0x00000000 x19:0x40d80000 x16=0x40d80000
       23325000	      2331	80003c04	41f75c33	sra	x24,x14,x31	 x14:0x80009f54 x31:0x00000000 x24=0x80009f54
       23335000	      2332	80003c08	01e79b93	slli	x23,x15,0x1e	 x15:0xc481b000 x23=0x00000000
       23345000	      2333	80003c0c	008f9233	sll	x4,x31,x8	 x31:0x00000000  x8:0x47acba84  x4=0x00000000
       23355000	      2334	80003c10	007b11b3	sll	x3,x22,x7	 x22:0x00000001  x7:0x00000000  x3=0x00000001
       23365000	      2335	80003c14	eed5ce13	xori	x28,x11,-275	 x11:0x00000001 x28=0xfffffeec
       23375000	      2336	80003c18	00fa2b33	slt	x22,x20,x15	 x20:0xa8600be4 x15:0xc481b000 x22=0x00000001
       23385000	      2337	80003c1c	40295e33	sra	x28,x18,x2	 x18:0x80000000  x2:0x0009fc40 x28=0x80000000
       23395000	      2338	80003c20	02911c63	bne	x2,x9,80003c58	  x2:0x0009fc40  x9:0x00000000
       23405000	      2339	00000000	00000013	addi	x0,x0,0	  x0:0x00000000
       23415000	      2340	80003c54	00000013	addi	x0,x0,0	  x0:0x00000000
       23425000	      2341	80003c58	00571c63	bne	x14,x5,80003c70	 x14:0x80009f54  x5:0x000001c7
       23435000	      2342	00000000	00000013	addi	x0,x0,0	  x0:0x00000000
       23445000	      2343	80003c6c	00000013	addi	x0,x0,0	  x0:0x00000000
       23455000	      2344	80003c70	0177c863	blt	x15,x23,80003c80	 x15:0xc481b000 x23:0x00000000
       23465000	      2345	00000000	00000013	addi	x0,x0,0	  x0:0x00000000
       23475000	      2346	80003c7c	00000013	addi	x0,x0,0	  x0:0x00000000
       23485000	      2347	80003c80	01ba1c63	bne	x20,x27,80003c98	 x20:0xa8600be4 x27:0xc0000000
       23495000	      2348	00000000	00000013	addi	x0,x0,0	  x0:0x00000000
       23505000	      2349	80003c94	00000013	addi	x0,x0,0	  x0:0x00000000
       23515000	      2350	80003c98	f11b0a13	addi	x20,x22,-239	 x22:0x00000001 x20=0xffffff12
       23525000	      2351	80003c9c	00000013	addi	x0,x0,0	  x0:0x00000000
       23535000	      2352	80003ca0	0136d663	bge	x13,x19,80003cac	 x13:0x00000001 x19:0x40d80000
       23545000	      2353	80003ca4	03631863	bne	x6,x22,80003cd4	  x6:0x7402e000 x22:0x00000001
       23555000	      2354	00000000	00000013	addi	x0,x0,0	  x0:0x00000000
       23565000	      2355	80003cd0	00000013	addi	x0,x0,0	  x0:0x00000000
       23575000	      2356	80003cd4	02c18663	beq	x3,x12,80003d00	  x3:0x00000001 x12:0x00000000
       23585000	      2357	80003cd8	d36a4d13	xori	x26,x20,-714	 x20:0xffffff12 x26=0x00000224
       23595000	      2358	80003cdc	136fa313	slti	x6,x31,310	 x31:0x00000000  x6=0x00000001
       23605000	      2359	80003ce0	039aee63	bltu	x21,x25,80003d1c	 x21:0x80009fc4 x25:0x00000001
       23615000	      2360	80003ce4	004d0863	beq	x26,x4,80003cf4	 x26:0x00000224  x4:0x00000000
       23625000	      2361	80003ce8	c4728093	addi	x1,x5,-953	  x5:0x000001c7  x1=0xfffffe0e
       23635000	      2362	80003cec	1f2a3813	sltiu	x16,x20,498	 x20:0xffffff12 x16=0x00000000
       23645000	      2363	80003cf0	2fcda193	slti	x3,x27,764	 x27:0xc0000000  x3=0x00000001
       23655000	      2364	80003cf4	41170f33	sub	x30,x14,x17	 x14:0x80009f54 x17:0x00000000 x30=0x80009f54
       23665000	      2365	80003cf8	405ad793	srai	x15,x21,0x5	 x21:0x80009fc4 x15=0xfc0004fe
       23675000	      2366	80003cfc	00396c63	bltu	x18,x3,80003d14	 x18:0x80000000  x3:0x00000001
       23685000	      2367	80003d00	cf059d37	lui	x26,0xcf059	 x26=0xcf059000
       23695000	      2368	80003d04	1c1fb637	lui	x12,0x1c1fb	 x12=0x1c1fb000
       23705000	      2369	80003d08	0129d313	srli	x6,x19,0x12	 x19:0x40d80000  x6=0x00001036
       23715000	      2370	80003d0c	011299b3	sll	x19,x5,x17	  x5:0x000001c7 x17:0x00000000 x19=0x000001c7
       23725000	      2371	80003d10	41e4db33	sra	x22,x9,x30	  x9:0x00000000 x30:0x80009f54 x22=0x00000000
       23735000	      2372	80003d14	0313ec63	bltu	x7,x17,80003d4c	  x7:0x00000000 x17:0x00000000
       23745000	      2373	80003d18	e6bc6d97	auipc	x27,0xe6bc6	 x27=0x66bc9d14
       23755000	      2374	80003d1c	ace39037	lui	x0,0xace39	
       23765000	      2375	80003d20	01831663	bne	x6,x24,80003d2c	  x6:0x00001036 x24:0x80009f54
       23775000	      2376	00000000	00000013	addi	x0,x0,0	  x0:0x00000000
       23785000	      2377	80003d28	00000013	addi	x0,x0,0	  x0:0x00000000
       23795000	      2378	80003d2c	01046a63	bltu	x8,x16,80003d40	  x8:0x47acba84 x16:0x00000000
       23805000	      2379	80003d30	411fd793	srai	x15,x31,0x11	 x31:0x00000000 x15=0x00000000
       23815000	      2380	80003d34	5773aeb7	lui	x29,0x5773a	 x29=0x5773a000
       23825000	      2381	80003d38	01fe4233	xor	x4,x28,x31	 x28:0x80000000 x31:0x00000000  x4=0x80000000
       23835000	      2382	80003d3c	00bbc9b3	xor	x19,x23,x11	 x23:0x00000000 x11:0x00000001 x19=0x00000001
       23845000	      2383	80003d40	0b420213	addi	x4,x4,180	  x4:0x80000000  x4=0x800000b4
       23855000	      2384	80003d44	00bb8e63	beq	x23,x11,80003d60	 x23:0x00000000 x11:0x00000001
       23865000	      2385	80003d48	83d88e13	addi	x28,x17,-1987	 x17:0x00000000 x28=0xfffff83d
       23875000	      2386	80003d4c	f916bf37	lui	x30,0xf916b	 x30=0xf916b000
       23885000	      2387	80003d50	0041b4b3	sltu	x9,x3,x4	  x3:0x00000001  x4:0x800000b4  x9=0x00000001
       23895000	      2388	80003d54	016206b3	add	x13,x4,x22	  x4:0x800000b4 x22:0x00000000 x13=0x800000b4
       23905000	      2389	80003d58	41e12f13	slti	x30,x2,1054	  x2:0x0009fc40 x30=0x00000000
       23915000	      2390	80003d5c	69b6ed93	ori	x27,x13,1691	 x13:0x800000b4 x27=0x800006bf
       23925000	      2391	80003d60	41915cb3	sra	x25,x2,x25	  x2:0x0009fc40 x25:0x00000001 x25=0x0004fe20
       23935000	      2392	80003d64	0015ba33	sltu	x20,x11,x1	 x11:0x00000001  x1:0xfffffe0e x20=0x00000001
       23945000	      2393	80003d68	e5da52b7	lui	x5,0xe5da5	  x5=0xe5da5000
       23955000	      2394	80003d6c	004adb13	srli	x22,x21,0x4	 x21:0x80009fc4 x22=0x080009fc
       23965000	      2395	80003d70	013e2c33	slt	x24,x28,x19	 x28:0xfffff83d x19:0x00000001 x24=0x00000001
       23975000	      2396	80003d74	41c90333	sub	x6,x18,x28	 x18:0x80000000 x28:0xfffff83d  x6=0x800007c3
       23985000	      2397	80003d78	000593b3	sll	x7,x11,x0	 x11:0x00000001  x0:0x00000000  x7=0x00000001
       23995000	      2398	80003d7c	416a08b3	sub	x17,x20,x22	 x20:0x00000001 x22:0x080009fc x17=0xf7fff605
       24005000	      2399	80003d80	01697533	and	x10,x18,x22	 x18:0x80000000 x22:0x080009fc x10=0x00000000
       24015000	      2400	80003d84	01b065b3	or	x11,x0,x27	  x0:0x00000000 x27:0x800006bf x11=0x800006bf
       24025000	      2401	80003d88	e492c693	xori	x13,x5,-439	  x5:0xe5da5000 x13=0x1a25ae49
       24035000	      2402	80003d8c	0342e663	bltu	x5,x20,80003db8	  x5:0xe5da5000 x20:0x00000001
       24045000	      2403	80003d90	01afafb3	slt	x31,x31,x26	 x31:0x00000000 x26:0xcf059000 x31=0x00000000
       24055000	      2404	80003d94	001cf033	and	x0,x25,x1	 x25:0x0004fe20  x1:0xfffffe0e
       24065000	      2405	80003d98	6044c1b7	lui	x3,0x6044c	  x3=0x6044c000
       24075000	      2406	80003d9c	015f6e63	bltu	x30,x21,80003db8	 x30:0x00000000 x21:0x80009fc4
       24085000	      2407	00000000	00000013	addi	x0,x0,0	  x0:0x00000000
       24095000	      2408	80003db4	00000013	addi	x0,x0,0	  x0:0x00000000
       24105000	      2409	80003db8	005797b3	sll	x15,x15,x5	 x15:0x00000000  x5:0xe5da5000 x15=0x00000000
       24115000	      2410	80003dbc	01b4d513	srli	x10,x9,0x1b	  x9:0x00000001 x10=0x00000000
       24125000	      2411	80003dc0	00472083	lw	x1,4(x14)	 x14:0x80009f54  x1=0x80000134 PA:0x80009f58
       24135000	      2412	80003dc4	01315013	srli	x0,x2,0x13	  x2:0x0009fc40
       24145000	      2413	80003dc8	03070713	addi	x14,x14,48	 x14:0x80009f54 x14=0x80009f84
       24155000	      2414	80003dcc	d4050213	addi	x4,x10,-704	 x10:0x00000000  x4=0xfffffd40
       24165000	      2415	80003dd0	932ef413	andi	x8,x29,-1742	 x29:0x5773a000  x8=0x5773a000
       24175000	      2416	80003dd4	00008393	addi	x7,x1,0	  x1:0x80000134  x7=0x80000134
       24185000	      2417	80003dd8	000383e7	jalr	x7,x7,0	  x7:0x80000134  x7=0x80003dd8
       24195000	      2418	00000000	00000013	addi	x0,x0,0	  x0:0x00000000
       24205000	      2419	80000134	00000013	addi	x0,x0,0	  x0:0x00000000
       24215000	      2420	80000138	00008c97	auipc	x25,0x8	 x25=0x80008134
       24225000	      2421	8000013c	f95c8c93	addi	x25,x25,-107	 x25:0x80008134 x25=0x800080c9
       24235000	      2422	80000140	00bc8683	lb	x13,11(x25)	 x25:0x800080c9 x13=0x00000000 PA:0x800080d4
       24245000	      2423	80000144	01ac80a3	sb	x26,1(x25)	 x25:0x800080c9 x26:0xcf059000 PA:0x800080ca
       24255000	      2424	80000148	00fca383	lw	x7,15(x25)	 x25:0x800080c9  x7=0x00000000 PA:0x800080d8
       24265000	      2425	8000014c	32a02597	auipc	x11,0x32a02	 x11=0xb2a02148
       24275000	      2426	80000150	00acc383	lbu	x7,10(x25)	 x25:0x800080c9  x7=0x00000000 PA:0x800080d3
       24285000	      2427	80000154	402657b3	sra	x15,x12,x2	 x12:0x1c1fb000  x2:0x0009fc40 x15=0x1c1fb000
       24295000	      2428	80000158	0182d113	srli	x2,x5,0x18	  x5:0xe5da5000  x2=0x000000e5
       24305000	      2429	8000015c	00de9f13	slli	x30,x29,0xd	 x29:0x5773a000 x30=0x74000000
       24315000	      2430	80000160	ff2c8783	lb	x15,-14(x25)	 x25:0x800080c9 x15=0x00000000 PA:0x800080bb
       24325000	      2431	80000164	ff0c8503	lb	x10,-16(x25)	 x25:0x800080c9 x10=0x00000000 PA:0x800080b9
       24335000	      2432	80000168	ff4cca03	lbu	x20,-12(x25)	 x25:0x800080c9 x20=0x00000000 PA:0x800080bd
       24345000	      2433	8000016c	ff3c8583	lb	x11,-13(x25)	 x25:0x800080c9 x11=0x00000000 PA:0x800080bc
       24355000	      2434	80000170	e74b8b93	addi	x23,x23,-396	 x23:0x00000000 x23=0xfffffe74
       24365000	      2435	80000174	00fc8423	sb	x15,8(x25)	 x25:0x800080c9 x15:0x00000000 PA:0x800080d1
       24375000	      2436	80000178	b0546b13	ori	x22,x8,-1275	  x8:0x5773a000 x22=0xfffffb05
       24385000	      2437	8000017c	ffec8083	lb	x1,-2(x25)	 x25:0x800080c9  x1=0x00000000 PA:0x800080c7
       24395000	      2438	80000180	405e5793	srai	x15,x28,0x5	 x28:0xfffff83d x15=0xffffffc1
       24405000	      2439	80000184	41d280b3	sub	x1,x5,x29	  x5:0xe5da5000 x29:0x5773a000  x1=0x8e66b000
       24415000	      2440	80000188	ff5c8e03	lb	x28,-11(x25)	 x25:0x800080c9 x28=0x00000000 PA:0x800080be
       24425000	      2441	8000018c	00646b33	or	x22,x8,x6	  x8:0x5773a000  x6:0x800007c3 x22=0xd773a7c3
       24435000	      2442	80000190	003cce03	lbu	x28,3(x25)	 x25:0x800080c9 x28=0x00000000 PA:0x800080cc
       24445000	      2443	80000194	017ae433	or	x8,x21,x23	 x21:0x80009fc4 x23:0xfffffe74  x8=0xfffffff4
       24455000	      2444	80000198	00000013	addi	x0,x0,0	  x0:0x00000000
       24465000	      2445	8000019c	01949a13	slli	x20,x9,0x19	  x9:0x00000001 x20=0x02000000
       24475000	      2446	800001a0	401fdb93	srai	x23,x31,0x1	 x31:0x00000000 x23=0x00000000
       24485000	      2447	800001a4	fe4c8c23	sb	x4,-8(x25)	 x25:0x800080c9  x4:0xfffffd40 PA:0x800080c1
       24495000	      2448	800001a8	feac8923	sb	x10,-14(x25)	 x25:0x800080c9 x10:0x00000000 PA:0x800080bb
       24505000	      2449	800001ac	c5598b13	addi	x22,x19,-939	 x19:0x00000001 x22=0xfffffc56
       24515000	      2450	800001b0	ff8c8783	lb	x15,-8(x25)	 x25:0x800080c9 x15=0x00000040 PA:0x800080c1
       24525000	      2451	800001b4	010cc983	lbu	x19,16(x25)	 x25:0x800080c9 x19=0x00000000 PA:0x800080d9
       24535000	      2452	800001b8	ffcc8e23	sb	x28,-4(x25)	 x25:0x800080c9 x28:0x00000000 PA:0x800080c5
       24545000	      2453	800001bc	0026a033	slt	x0,x13,x2	 x13:0x00000000  x2:0x000000e5
       24555000	      2454	800001c0	01761513	slli	x10,x12,0x17	 x12:0x1c1fb000 x10=0x00000000
       24565000	      2455	800001c4	01167633	and	x12,x12,x17	 x12:0x1c1fb000 x17:0xf7fff605 x12=0x141fb000
       24575000	      2456	800001c8	01c0a333	slt	x6,x1,x28	  x1:0x8e66b000 x28:0x00000000  x6=0x00000001
       24585000	      2457	800001cc	00cad533	srl	x10,x21,x12	 x21:0x80009fc4 x12:0x141fb000 x10=0x80009fc4
       24595000	      2458	800001d0	1c7b4213	xori	x4,x22,455	 x22:0xfffffc56  x4=0xfffffd91
       24605000	      2459	800001d4	ea954f13	xori	x30,x10,-343	 x10:0x80009fc4 x30=0x7fff616d
       24615000	      2460	800001d8	0174d1b3	srl	x3,x9,x23	  x9:0x00000001 x23:0x00000000  x3=0x00000001
       24625000	      2461	800001dc	014c8123	sb	x20,2(x25)	 x25:0x800080c9 x20:0x02000000 PA:0x800080cb
       24635000	      2462	800001e0	01a49d33	sll	x26,x9,x26	  x9:0x00000001 x26:0xcf059000 x26=0x00000001
       24645000	      2463	800001e4	ff8c8783	lb	x15,-8(x25)	 x25:0x800080c9 x15=0x00000040 PA:0x800080c1
       24655000	      2464	800001e8	001cd783	lhu	x15,1(x25)	 x25:0x800080c9 x15=0x00000000 PA:0x800080ca
       24665000	      2465	800001ec	008cc883	lbu	x17,8(x25)	 x25:0x800080c9 x17=0x00000000 PA:0x800080d1
       24675000	      2466	800001f0	21552613	slti	x12,x10,533	 x10:0x80009fc4 x12=0x00000001
       24685000	      2467	800001f4	0001cc33	xor	x24,x3,x0	  x3:0x00000001  x0:0x00000000 x24=0x00000001
       24695000	      2468	800001f8	ff2c8b03	lb	x22,-14(x25)	 x25:0x800080c9 x22=0x00000000 PA:0x800080bb
       24705000	      2469	800001fc	a179f513	andi	x10,x19,-1513	 x19:0x00000000 x10=0x00000000
       24715000	      2470	80000200	40745133	sra	x2,x8,x7	  x8:0xfffffff4  x7:0x00000000  x2=0xfffffff4
       24725000	      2471	80000204	016f72b3	and	x5,x30,x22	 x30:0x7fff616d x22:0x00000000  x5=0x00000000
       24735000	      2472	80000208	00a02833	slt	x16,x0,x10	  x0:0x00000000 x10:0x00000000 x16=0x00000000
       24745000	      2473	8000020c	ceb16417	auipc	x8,0xceb16	  x8=0x4eb16208
       24755000	      2474	80000210	85500e13	addi	x28,x0,-1963	  x0:0x00000000 x28=0xfffff855
       24765000	      2475	80000214	00956e33	or	x28,x10,x9	 x10:0x00000000  x9:0x00000001 x28=0x00000001
       24775000	      2476	80000218	005e0eb3	add	x29,x28,x5	 x28:0x00000001  x5:0x00000000 x29=0x00000001
       24785000	      2477	8000021c	001887b3	add	x15,x17,x1	 x17:0x00000000  x1:0x8e66b000 x15=0x8e66b000
       24795000	      2478	80000220	00003b17	auipc	x22,0x3	 x22=0x8000321c
       24805000	      2479	80000224	5b4b0b13	addi	x22,x22,1460	 x22:0x8000321c x22=0x800037d0
       24815000	      2480	80000228	21ab0b13	addi	x22,x22,538	 x22:0x800037d0 x22=0x800039ea
       24825000	      2481	8000022c	007b1213	slli	x4,x22,0x7	 x22:0x800039ea  x4=0x001cf500
       24835000	      2482	80000230	cd432013	slti	x0,x6,-812	  x6:0x00000001
       24845000	      2483	80000234	de7b00e7	jalr	x1,x22,-537	 x22:0x800039ea  x1=0x80000234
       24855000	      2484	00000000	00000013	addi	x0,x0,0	  x0:0x00000000
       24865000	      2485	800037d0	00000013	addi	x0,x0,0	  x0:0x00000000
       24875000	      2486	800037d4	013a5bb3	srl	x23,x20,x19	 x20:0x02000000 x19:0x00000000 x23=0x02000000
       24885000	      2487	800037d8	004ffc33	and	x24,x31,x4	 x31:0x00000000  x4:0x001cf500 x24=0x00000000
       24895000	      2488	800037dc	01c05863	bge	x0,x28,800037ec	  x0:0x00000000 x28:0x00000001
       24905000	      2489	800037e0	00d84333	xor	x6,x16,x13	 x16:0x00000000 x13:0x00000000  x6=0x00000000
       24915000	      2490	800037e4	4071d9b3	sra	x19,x3,x7	  x3:0x00000001  x7:0x00000000 x19=0x00000001
       24925000	      2491	800037e8	920ff993	andi	x19,x31,-1760	 x31:0x00000000 x19=0x00000000
       24935000	      2492	800037ec	fd070713	addi	x14,x14,-48	 x14:0x80009f84 x14=0x80009f54
       24945000	      2493	800037f0	00172223	sw	x1,4(x14)	 x14:0x80009f54  x1:0x80000234 PA:0x80009f58
       24955000	      2494	800037f4	01d336b3	sltu	x13,x6,x29	  x6:0x00000000 x29:0x00000001 x13=0x00000001
       24965000	      2495	800037f8	ffffe697	auipc	x13,0xffffe	 x13=0x800017f4
       24975000	      2496	800037fc	98c68693	addi	x13,x13,-1652	 x13:0x800017f4 x13=0x80001180
       24985000	      2497	80003800	3984ef93	ori	x31,x9,920	  x9:0x00000001 x31=0x00000399
       24995000	      2498	80003804	003fbfb3	sltu	x31,x31,x3	 x31:0x00000399  x3:0x00000001 x31=0x00000000
       25005000	      2499	80003808	01775313	srli	x6,x14,0x17	 x14:0x80009f54  x6=0x00000100
       25015000	      2500	8000380c	01d272b3	and	x5,x4,x29	  x4:0x001cf500 x29:0x00000001  x5=0x00000000
       25025000	      2501	80003810	00000013	addi	x0,x0,0	  x0:0x00000000
       25035000	      2502	80003814	dfd68693	addi	x13,x13,-515	 x13:0x80001180 x13=0x80000f7d
       25045000	      2503	80003818	1a866997	auipc	x19,0x1a866	 x19=0x9a869814
       25055000	      2504	8000381c	204680e7	jalr	x1,x13,516	 x13:0x80000f7d  x1=0x8000381c
       25065000	      2505	00000000	00000013	addi	x0,x0,0	  x0:0x00000000
       25075000	      2506	80001180	00000013	addi	x0,x0,0	  x0:0x00000000
       25085000	      2507	80001184	0018c263	blt	x17,x1,80001188	 x17:0x00000000  x1:0x8000381c
       25095000	      2508	80001188	fd870713	addi	x14,x14,-40	 x14:0x80009f54 x14=0x80009f2c
       25105000	      2509	8000118c	00c05893	srli	x17,x0,0xc	  x0:0x00000000 x17=0x00000000
       25115000	      2510	80001190	00172223	sw	x1,4(x14)	 x14:0x80009f2c  x1:0x8000381c PA:0x80009f30
       25125000	      2511	80001194	00000013	addi	x0,x0,0	  x0:0x00000000
       25135000	      2512	80001198	159cf617	auipc	x12,0x159cf	 x12=0x959d0194
       25145000	      2513	8000119c	401606b3	sub	x13,x12,x1	 x12:0x959d0194  x1:0x8000381c x13=0x159cc978
       25155000	      2514	800011a0	41ca8bb3	sub	x23,x21,x28	 x21:0x80009fc4 x28:0x00000001 x23=0x80009fc3
       25165000	      2515	800011a4	01e2ac33	slt	x24,x5,x30	  x5:0x00000000 x30:0x7fff616d x24=0x00000001
       25175000	      2516	800011a8	00007b97	auipc	x23,0x7	 x23=0x800081a4
       25185000	      2517	800011ac	201b8b93	addi	x23,x23,513	 x23:0x800081a4 x23=0x800083a5
       25195000	      2518	800011b0	ff5bdf03	lhu	x30,-11(x23)	 x23:0x800083a5 x30=0x00000000 PA:0x8000839a
       25205000	      2519	800011b4	010b86a3	sb	x16,13(x23)	 x23:0x800083a5 x16:0x00000000 PA:0x800083b2
       25215000	      2520	800011b8	b1788593	addi	x11,x17,-1257	 x17:0x00000000 x11=0xfffffb17
       25225000	      2521	800011bc	a2e37cb7	lui	x25,0xa2e37	 x25=0xa2e37000
       25235000	      2522	800011c0	fdfbac83	lw	x25,-33(x23)	 x23:0x800083a5 x25=0x00000000 PA:0x80008384
       25245000	      2523	800011c4	00bc7e33	and	x28,x24,x11	 x24:0x00000001 x11:0xfffffb17 x28=0x00000001
       25255000	      2524	800011c8	6487b7b7	lui	x15,0x6487b	 x15=0x6487b000
       25265000	      2525	800011cc	026b8383	lb	x7,38(x23)	 x23:0x800083a5  x7=0x00000000 PA:0x800083cb
       25275000	      2526	800011d0	021b9283	lh	x5,33(x23)	 x23:0x800083a5  x5=0x00000000 PA:0x800083c6
       25285000	      2527	800011d4	012b8423	sb	x18,8(x23)	 x23:0x800083a5 x18:0x80000000 PA:0x800083ad
       25295000	      2528	800011d8	01f791b3	sll	x3,x15,x31	 x15:0x6487b000 x31:0x00000000  x3=0x6487b000
       25305000	      2529	800011dc	f6190d93	addi	x27,x18,-159	 x18:0x80000000 x27=0x7fffff61
       25315000	      2530	800011e0	022bc383	lbu	x7,34(x23)	 x23:0x800083a5  x7=0x00000000 PA:0x800083c7
       25325000	      2531	800011e4	fedb92a3	sh	x13,-27(x23)	 x23:0x800083a5 x13:0x159cc978 PA:0x8000838a
       25335000	      2532	800011e8	fecb8923	sb	x12,-14(x23)	 x23:0x800083a5 x12:0x959d0194 PA:0x80008397
       25345000	      2533	800011ec	0681c093	xori	x1,x3,104	  x3:0x6487b000  x1=0x6487b068
       25355000	      2534	800011f0	00eb8d83	lb	x27,14(x23)	 x23:0x800083a5 x27=0x00000000 PA:0x800083b3
       25365000	      2535	800011f4	01031fb3	sll	x31,x6,x16	  x6:0x00000100 x16:0x00000000 x31=0x00000100
       25375000	      2536	800011f8	2a915997	auipc	x19,0x2a915	 x19=0xaa9161f4
       25385000	      2537	800011fc	be200113	addi	x2,x0,-1054	  x0:0x00000000  x2=0xfffffbe2
       25395000	      2538	80001200	01f85813	srli	x16,x16,0x1f	 x16:0x00000000 x16=0x00000000
       25405000	      2539	80001204	016bc303	lbu	x6,22(x23)	 x23:0x800083a5  x6=0x00000000 PA:0x800083bb
       25415000	      2540	80001208	4249fd13	andi	x26,x19,1060	 x19:0xaa9161f4 x26=0x00000024
       25425000	      2541	8000120c	022b8e23	sb	x2,60(x23)	 x23:0x800083a5  x2:0xfffffbe2 PA:0x800083e1
       25435000	      2542	80001210	02bb8f23	sb	x11,62(x23)	 x23:0x800083a5 x11:0xfffffb17 PA:0x800083e3
       25445000	      2543	80001214	408fddb3	sra	x27,x31,x8	 x31:0x00000100  x8:0x4eb16208 x27=0x00000001
       25455000	      2544	80001218	5db63e93	sltiu	x29,x12,1499	 x12:0x959d0194 x29=0x00000000
       25465000	      2545	8000121c	2e2a7d13	andi	x26,x20,738	 x20:0x02000000 x26=0x00000000
       25475000	      2546	80001220	034b8783	lb	x15,52(x23)	 x23:0x800083a5 x15=0x00000000 PA:0x800083d9
       25485000	      2547	80001224	ff9b8823	sb	x25,-16(x23)	 x23:0x800083a5 x25:0x00000000 PA:0x80008395
       25495000	      2548	80001228	00415093	srli	x1,x2,0x4	  x2:0xfffffbe2  x1=0x0fffffbe
       25505000	      2549	8000122c	77e20d93	addi	x27,x4,1918	  x4:0x001cf500 x27=0x001cfc7e
       25515000	      2550	80001230	a0537d93	andi	x27,x6,-1531	  x6:0x00000000 x27=0x00000000
       25525000	      2551	80001234	6a2a6493	ori	x9,x20,1698	 x20:0x02000000  x9=0x020006a2
       25535000	      2552	80001238	6b34ec97	auipc	x25,0x6b34e	 x25=0xeb34f234
       25545000	      2553	8000123c	03ebc003	lbu	x0,62(x23)	 x23:0x800083a5 PA:0x800083e3
       25555000	      2554	80001240	00888133	add	x2,x17,x8	 x17:0x00000000  x8:0x4eb16208  x2=0x4eb16208
       25565000	      2555	80001244	014bcf83	lbu	x31,20(x23)	 x23:0x800083a5 x31=0x00000000 PA:0x800083b9
       25575000	      2556	80001248	a4f66e13	ori	x28,x12,-1457	 x12:0x959d0194 x28=0xfffffbdf
       25585000	      2557	8000124c	90c63b13	sltiu	x22,x12,-1780	 x12:0x959d0194 x22=0x00000001
       25595000	      2558	80001250	03db8f03	lb	x30,61(x23)	 x23:0x800083a5 x30=0x00000000 PA:0x800083e2
       25605000	      2559	80001254	036bce83	lbu	x29,54(x23)	 x23:0x800083a5 x29=0x00000000 PA:0x800083db
       25615000	      2560	80001258	fd9b95a3	sh	x25,-53(x23)	 x23:0x800083a5 x25:0xeb34f234 PA:0x80008370
       25625000	      2561	8000125c	110d0f13	addi	x30,x26,272	 x26:0x00000000 x30=0x00000110
       25635000	      2562	80001260	55475e37	lui	x28,0x55475	 x28=0x55475000
       25645000	      2563	80001264	6dcfe397	auipc	x7,0x6dcfe	  x7=0xedcff260
       25655000	      2564	80001268	fc6b8c03	lb	x24,-58(x23)	 x23:0x800083a5 x24=0xffffffc4 PA:0x8000836b
       25665000	      2565	8000126c	02db8983	lb	x19,45(x23)	 x23:0x800083a5 x19=0x00000000 PA:0x800083d2
       25675000	      2566	80001270	00007517	auipc	x10,0x7	 x10=0x8000826c
       25685000	      2567	80001274	1e150513	addi	x10,x10,481	 x10:0x8000826c x10=0x8000844d
       25695000	      2568	80001278	1cc50623	sb	x12,460(x10)	 x10:0x8000844d x12:0x959d0194 PA:0x80008619
       25705000	      2569	8000127c	eda8de17	auipc	x28,0xeda8d	 x28=0x6da8e278
       25715000	      2570	80001280	e6650623	sb	x6,-404(x10)	 x10:0x8000844d  x6:0x00000000 PA:0x800082b9
       25725000	      2571	80001284	01036b33	or	x22,x6,x16	  x6:0x00000000 x16:0x00000000 x22=0x00000000
       25735000	      2572	80001288	00d69333	sll	x6,x13,x13	 x13:0x159cc978 x13:0x159cc978  x6=0x78000000
       25745000	      2573	8000128c	40a8d093	srai	x1,x17,0xa	 x17:0x00000000  x1=0x00000000
       25755000	      2574	80001290	4086dd33	sra	x26,x13,x8	 x13:0x159cc978  x8:0x4eb16208 x26=0x00159cc9
       25765000	      2575	80001294	014291b3	sll	x3,x5,x20	  x5:0x00000000 x20:0x02000000  x3=0x00000000
       25775000	      2576	80001298	c1050b03	lb	x22,-1008(x10)	 x10:0x8000844d x22=0x00000000 PA:0x8000805d
       25785000	      2577	8000129c	979d3193	sltiu	x3,x26,-1671	 x26:0x00159cc9  x3=0x00000001
       25795000	      2578	800012a0	fd854803	lbu	x16,-40(x10)	 x10:0x8000844d x16=0x00000000 PA:0x80008425
       25805000	      2579	800012a4	40918433	sub	x8,x3,x9	  x3:0x00000001  x9:0x020006a2  x8=0xfdfff95f
       25815000	      2580	800012a8	eb140693	addi	x13,x8,-335	  x8:0xfdfff95f x13=0xfdfff810
       25825000	      2581	800012ac	d2450003	lb	x0,-732(x10)	 x10:0x8000844d PA:0x80008171
       25835000	      2582	800012b0	fe51af93	slti	x31,x3,-27	  x3:0x00000001 x31=0x00000000
       25845000	      2583	800012b4	e6910393	addi	x7,x2,-407	  x2:0x4eb16208  x7=0x4eb16071
       25855000	      2584	800012b8	ffd50d03	lb	x26,-3(x10)	 x10:0x8000844d x26=0x00000000 PA:0x8000844a
       25865000	      2585	800012bc	4138d1b3	sra	x3,x17,x19	 x17:0x00000000 x19:0x00000000  x3=0x00000000
       25875000	      2586	800012c0	00000013	addi	x0,x0,0	  x0:0x00000000
       25885000	      2587	800012c4	eba50a23	sb	x26,-332(x10)	 x10:0x8000844d x26:0x00000000 PA:0x80008301
       25895000	      2588	800012c8	f7c50483	lb	x9,-132(x10)	 x10:0x8000844d  x9=0x00000000 PA:0x800083c9
       25905000	      2589	800012cc	34850ea3	sb	x8,861(x10)	 x10:0x8000844d  x8:0xfdfff95f PA:0x800087aa
       25915000	      2590	800012d0	55ad2c93	slti	x25,x26,1370	 x26:0x00000000 x25=0x00000001
       25925000	      2591	800012d4	1b4a0193	addi	x3,x20,436	 x20:0x02000000  x3=0x020001b4
       25935000	      2592	800012d8	24754283	lbu	x5,583(x10)	 x10:0x8000844d  x5=0x00000000 PA:0x80008694
       25945000	      2593	800012dc	dc755683	lhu	x13,-569(x10)	 x10:0x8000844d x13=0x00000000 PA:0x80008214
       25955000	      2594	800012e0	4141df13	srai	x30,x3,0x14	  x3:0x020001b4 x30=0x00000020
       25965000	      2595	800012e4	405fd593	srai	x11,x31,0x5	 x31:0x00000000 x11=0x00000000
       25975000	      2596	800012e8	0c850ca3	sb	x8,217(x10)	 x10:0x8000844d  x8:0xfdfff95f PA:0x80008526
       25985000	      2597	800012ec	018c5fb3	srl	x31,x24,x24	 x24:0xffffffc4 x24:0xffffffc4 x31=0x0ffffffc
       25995000	      2598	800012f0	d9354e83	lbu	x29,-621(x10)	 x10:0x8000844d x29=0x00000000 PA:0x800081e0
       26005000	      2599	800012f4	d9454b83	lbu	x23,-620(x10)	 x10:0x8000844d x23=0x00000000 PA:0x800081e1
       26015000	      2600	800012f8	fd250e23	sb	x18,-36(x10)	 x10:0x8000844d x18:0x80000000 PA:0x80008429
       26025000	      2601	800012fc	31950783	lb	x15,793(x10)	 x10:0x8000844d x15=0x00000000 PA:0x80008766
       26035000	      2602	80001300	405d06b3	sub	x13,x26,x5	 x26:0x00000000  x5:0x00000000 x13=0x00000000
       26045000	      2603	80001304	d6a6d0b7	lui	x1,0xd6a6d	  x1=0xd6a6d000
       26055000	      2604	80001308	00f55313	srli	x6,x10,0xf	 x10:0x8000844d  x6=0x00010001
       26065000	      2605	8000130c	ebf51fa3	sh	x31,-321(x10)	 x10:0x8000844d x31:0x0ffffffc PA:0x8000830c
       26075000	      2606	80001310	005b79b3	and	x19,x22,x5	 x22:0x00000000  x5:0x00000000 x19=0x00000000
       26085000	      2607	80001314	00bd9d33	sll	x26,x27,x11	 x27:0x00000000 x11:0x00000000 x26=0x00000000
       26095000	      2608	80001318	d8e73693	sltiu	x13,x14,-626	 x14:0x80009f2c x13=0x00000001
       26105000	      2609	8000131c	e4950123	sb	x9,-446(x10)	 x10:0x8000844d  x9:0x00000000 PA:0x8000828f
       26115000	      2610	80001320	00007217	auipc	x4,0x7	  x4=0x8000831c
       26125000	      2611	80001324	26e20213	addi	x4,x4,622	  x4:0x8000831c  x4=0x8000858a
       26135000	      2612	80001328	00c24a03	lbu	x20,12(x4)	  x4:0x8000858a x20=0x00000000 PA:0x80008596
       26145000	      2613	8000132c	edb72c13	slti	x24,x14,-293	 x14:0x80009f2c x24=0x00000001
       26155000	      2614	80001330	7a42e893	ori	x17,x5,1956	  x5:0x00000000 x17=0x000007a4
       26165000	      2615	80001334	00f20c03	lb	x24,15(x4)	  x4:0x8000858a x24=0x00000000 PA:0x80008599
       26175000	      2616	80001338	a7287a13	andi	x20,x16,-1422	 x16:0x00000000 x20=0x00000000
       26185000	      2617	8000133c	01825483	lhu	x9,24(x4)	  x4:0x8000858a  x9=0x00000000 PA:0x800085a2
       26195000	      2618	80001340	fc124c83	lbu	x25,-63(x4)	  x4:0x8000858a x25=0x00000000 PA:0x8000854b
       26205000	      2619	80001344	8c38cd13	xori	x26,x17,-1853	 x17:0x000007a4 x26=0xffffff67
       26215000	      2620	80001348	00035f33	srl	x30,x6,x0	  x6:0x00010001  x0:0x00000000 x30=0x00010001
       26225000	      2621	8000134c	02720b23	sb	x7,54(x4)	  x4:0x8000858a  x7:0x4eb16071 PA:0x800085c0
       26235000	      2622	80001350	fed20b03	lb	x22,-19(x4)	  x4:0x8000858a x22=0x00000000 PA:0x80008577
       26245000	      2623	80001354	fcd24e03	lbu	x28,-51(x4)	  x4:0x8000858a x28=0x00000000 PA:0x80008557
       26255000	      2624	80001358	ff2207a3	sb	x18,-17(x4)	  x4:0x8000858a x18:0x80000000 PA:0x80008579
       26265000	      2625	8000135c	a0340513	addi	x10,x8,-1533	  x8:0xfdfff95f x10=0xfdfff362
       26275000	      2626	80001360	03720c23	sb	x23,56(x4)	  x4:0x8000858a x23:0x00000000 PA:0x800085c2
       26285000	      2627	80001364	00124b33	xor	x22,x4,x1	  x4:0x8000858a  x1:0xd6a6d000 x22=0x56a6558a
       26295000	      2628	80001368	00000013	addi	x0,x0,0	  x0:0x00000000
       26305000	      2629	8000136c	00381093	slli	x1,x16,0x3	 x16:0x00000000  x1=0x00000000
       26315000	      2630	80001370	00000013	addi	x0,x0,0	  x0:0x00000000
       26325000	      2631	80001374	004c6e33	or	x28,x24,x4	 x24:0x00000000  x4:0x8000858a x28=0x8000858a
       26335000	      2632	80001378	fd424c03	lbu	x24,-44(x4)	  x4:0x8000858a x24=0x00000000 PA:0x8000855e
       26345000	      2633	8000137c	01720ca3	sb	x23,25(x4)	  x4:0x8000858a x23:0x00000000 PA:0x800085a3
       26355000	      2634	80001380	ff025083	lhu	x1,-16(x4)	  x4:0x8000858a  x1=0x00000000 PA:0x8000857a
       26365000	      2635	80001384	00007b17	auipc	x22,0x7	 x22=0x80008380
       26375000	      2636	80001388	62cb0b13	addi	x22,x22,1580	 x22:0x80008380 x22=0x800089ac
       26385000	      2637	8000138c	006b0d23	sb	x6,26(x22)	 x22:0x800089ac  x6:0x00010001 PA:0x800089c6
       26395000	      2638	80001390	fc1b0483	lb	x9,-63(x22)	 x22:0x800089ac  x9=0x00000000 PA:0x8000896d
       26405000	      2639	80001394	00da12b3	sll	x5,x20,x13	 x20:0x00000000 x13:0x00000001  x5=0x00000000
       26415000	      2640	80001398	0028abb3	slt	x23,x17,x2	 x17:0x000007a4  x2:0x4eb16208 x23=0x00000001
       26425000	      2641	8000139c	011e9393	slli	x7,x29,0x11	 x29:0x00000000  x7=0x00000000
       26435000	      2642	800013a0	004eebb3	or	x23,x29,x4	 x29:0x00000000  x4:0x8000858a x23=0x8000858a
       26445000	      2643	800013a4	fc5b4783	lbu	x15,-59(x22)	 x22:0x800089ac x15=0x00000000 PA:0x80008971
       26455000	      2644	800013a8	414a0eb3	sub	x29,x20,x20	 x20:0x00000000 x20:0x00000000 x29=0x00000000
       26465000	      2645	800013ac	01c25d13	srli	x26,x4,0x1c	  x4:0x8000858a x26=0x00000008
       26475000	      2646	800013b0	009f6133	or	x2,x30,x9	 x30:0x00010001  x9:0x00000000  x2=0x00010001
       26485000	      2647	800013b4	00004533	xor	x10,x0,x0	  x0:0x00000000  x0:0x00000000 x10=0x00000000
       26495000	      2648	800013b8	013f8f33	add	x30,x31,x19	 x31:0x0ffffffc x19:0x00000000 x30=0x0ffffffc
       26505000	      2649	800013bc	025b0283	lb	x5,37(x22)	 x22:0x800089ac  x5=0x00000000 PA:0x800089d1
       26515000	      2650	800013c0	fe7b0fa3	sb	x7,-1(x22)	 x22:0x800089ac  x7:0x00000000 PA:0x800089ab
       26525000	      2651	800013c4	fd0b0003	lb	x0,-48(x22)	 x22:0x800089ac PA:0x8000897c
       26535000	      2652	800013c8	01605f13	srli	x30,x0,0x16	  x0:0x00000000 x30=0x00000000
       26545000	      2653	800013cc	fe8b1f83	lh	x31,-24(x22)	 x22:0x800089ac x31=0x00000000 PA:0x80008994
       26555000	      2654	800013d0	007b0023	sb	x7,0(x22)	 x22:0x800089ac  x7:0x00000000 PA:0x800089ac
       26565000	      2655	800013d4	fdab4c83	lbu	x25,-38(x22)	 x22:0x800089ac x25=0x00000000 PA:0x80008986
       26575000	      2656	800013d8	008b5303	lhu	x6,8(x22)	 x22:0x800089ac  x6=0x00000000 PA:0x800089b4
       26585000	      2657	800013dc	fc5b0f83	lb	x31,-59(x22)	 x22:0x800089ac x31=0x00000000 PA:0x80008971
       26595000	      2658	800013e0	02db0983	lb	x19,45(x22)	 x22:0x800089ac x19=0x00000000 PA:0x800089d9
       26605000	      2659	800013e4	fe0b04a3	sb	x0,-23(x22)	 x22:0x800089ac  x0:0x00000000 PA:0x80008995
       26615000	      2660	800013e8	006ff833	and	x16,x31,x6	 x31:0x00000000  x6:0x00000000 x16=0x00000000
       26625000	      2661	800013ec	41738633	sub	x12,x7,x23	  x7:0x00000000 x23:0x8000858a x12=0x7fff7a76
       26635000	      2662	800013f0	022b1423	sh	x2,40(x22)	 x22:0x800089ac  x2:0x00010001 PA:0x800089d4
       26645000	      2663	800013f4	ff1b0a03	lb	x20,-15(x22)	 x22:0x800089ac x20=0x00000000 PA:0x8000899d
       26655000	      2664	800013f8	fd1b4d03	lbu	x26,-47(x22)	 x22:0x800089ac x26=0x00000000 PA:0x8000897d
       26665000	      2665	800013fc	021b4603	lbu	x12,33(x22)	 x22:0x800089ac x12=0x00000000 PA:0x800089cd
       26675000	      2666	80001400	fceb1d83	lh	x27,-50(x22)	 x22:0x800089ac x27=0x00000000 PA:0x8000897a
       26685000	      2667	80001404	014c03b3	add	x7,x24,x20	 x24:0x00000000 x20:0x00000000  x7=0x00000000
       26695000	      2668	80001408	fcfb0023	sb	x15,-64(x22)	 x22:0x800089ac x15:0x00000000 PA:0x8000896c
       26705000	      2669	8000140c	00007497	auipc	x9,0x7	  x9=0x80008408
       26715000	      2670	80001410	5cb48493	addi	x9,x9,1483	  x9:0x80008408  x9=0x800089d3
       26725000	      2671	80001414	17897d13	andi	x26,x18,376	 x18:0x80000000 x26=0x00000000
       26735000	      2672	80001418	fee48c83	lb	x25,-18(x9)	  x9:0x800089d3 x25=0x00000000 PA:0x800089c1
       26745000	      2673	8000141c	0df48b83	lb	x23,223(x9)	  x9:0x800089d3 x23=0x00000000 PA:0x80008ab2
       26755000	      2674	80001420	018ed333	srl	x6,x29,x24	 x29:0x00000000 x24:0x00000000  x6=0x00000000
       26765000	      2675	80001424	f5f49d83	lh	x27,-161(x9)	  x9:0x800089d3 x27=0xffff8000 PA:0x80008932
       26775000	      2676	80001428	fb848883	lb	x17,-72(x9)	  x9:0x800089d3 x17=0x00000000 PA:0x8000898b
       26785000	      2677	8000142c	fad4a103	lw	x2,-83(x9)	  x9:0x800089d3  x2=0x00000000 PA:0x80008980
       26795000	      2678	80001430	01c955b3	srl	x11,x18,x28	 x18:0x80000000 x28:0x8000858a x11=0x00200000
       26805000	      2679	80001434	b1894997	auipc	x19,0xb1894	 x19=0x31895430
       26815000	      2680	80001438	416a0db3	sub	x27,x20,x22	 x20:0x00000000 x22:0x800089ac x27=0x7fff7654
       26825000	      2681	8000143c	6100f993	andi	x19,x1,1552	  x1:0x00000000 x19=0x00000000
       26835000	      2682	80001440	4039dd93	srai	x27,x19,0x3	 x19:0x00000000 x27=0x00000000
       26845000	      2683	80001444	ff949783	lh	x15,-7(x9)	  x9:0x800089d3 x15=0x00000000 PA:0x800089cc
       26855000	      2684	80001448	0514dd03	lhu	x26,81(x9)	  x9:0x800089d3 x26=0x00000000 PA:0x80008a24
       26865000	      2685	8000144c	0b549203	lh	x4,181(x9)	  x9:0x800089d3  x4=0x00000000 PA:0x80008a88
       26875000	      2686	80001450	f5c4c803	lbu	x16,-164(x9)	  x9:0x800089d3 x16=0x00000000 PA:0x8000892f
       26885000	      2687	80001454	f604c203	lbu	x4,-160(x9)	  x9:0x800089d3  x4=0x00000080 PA:0x80008933
       26895000	      2688	80001458	faf48e23	sb	x15,-68(x9)	  x9:0x800089d3 x15:0x00000000 PA:0x8000898f
       26905000	      2689	8000145c	07448e23	sb	x20,124(x9)	  x9:0x800089d3 x20:0x00000000 PA:0x80008a4f
       26915000	      2690	80001460	01263eb3	sltu	x29,x12,x18	 x12:0x00000000 x18:0x80000000 x29=0x00000001
       26925000	      2691	80001464	40658d33	sub	x26,x11,x6	 x11:0x00200000  x6:0x00000000 x26=0x00200000
       26935000	      2692	80001468	f5448d83	lb	x27,-172(x9)	  x9:0x800089d3 x27=0x00000000 PA:0x80008927
       26945000	      2693	8000146c	0083d213	srli	x4,x7,0x8	  x7:0x00000000  x4=0x00000000
       26955000	      2694	80001470	40bddb13	srai	x22,x27,0xb	 x27:0x00000000 x22=0x00000000
       26965000	      2695	80001474	04c48d83	lb	x27,76(x9)	  x9:0x800089d3 x27=0x00000000 PA:0x80008a1f
       26975000	      2696	80001478	10048f83	lb	x31,256(x9)	  x9:0x800089d3 x31=0x00000000 PA:0x80008ad3
       26985000	      2697	8000147c	5dd27793	andi	x15,x4,1501	  x4:0x00000000 x15=0x00000000
       26995000	      2698	80001480	09648b23	sb	x22,150(x9)	  x9:0x800089d3 x22:0x00000000 PA:0x80008a69
       27005000	      2699	80001484	1353cd13	xori	x26,x7,309	  x7:0x00000000 x26=0x00000135
       27015000	      2700	80001488	a9440d93	addi	x27,x8,-1388	  x8:0xfdfff95f x27=0xfdfff3f3
       27025000	      2701	8000148c	41d15533	sra	x10,x2,x29	  x2:0x00000000 x29:0x00000001 x10=0x00000000
       27035000	      2702	80001490	87d67c13	andi	x24,x12,-1923	 x12:0x00000000 x24=0x00000000
       27045000	      2703	80001494	01a990b3	sll	x1,x19,x26	 x19:0x00000000 x26:0x00000135  x1=0x00000000
       27055000	      2704	80001498	f924cf03	lbu	x30,-110(x9)	  x9:0x800089d3 x30=0x00000000 PA:0x80008965
       27065000	      2705	8000149c	a86ff237	lui	x4,0xa86ff	  x4=0xa86ff000
       27075000	      2706	800014a0	0b248403	lb	x8,178(x9)	  x9:0x800089d3  x8=0x00000000 PA:0x80008a85
       27085000	      2707	800014a4	0f94aea3	sw	x25,253(x9)	  x9:0x800089d3 x25:0x00000000 PA:0x80008ad0
       27095000	      2708	800014a8	f3848c03	lb	x24,-200(x9)	  x9:0x800089d3 x24=0x00000000 PA:0x8000890b
       27105000	      2709	800014ac	f9448723	sb	x20,-114(x9)	  x9:0x800089d3 x20:0x00000000 PA:0x80008961
       27115000	      2710	800014b0	f04481a3	sb	x4,-253(x9)	  x9:0x800089d3  x4:0xa86ff000 PA:0x800088d6
       27125000	      2711	800014b4	00000013	addi	x0,x0,0	  x0:0x00000000
       27135000	      2712	800014b8	0143dbb3	srl	x23,x7,x20	  x7:0x00000000 x20:0x00000000 x23=0x00000000
       27145000	      2713	800014bc	0ac4cb03	lbu	x22,172(x9)	  x9:0x800089d3 x22=0x00000000 PA:0x80008a7f
       27155000	      2714	800014c0	05948023	sb	x25,64(x9)	  x9:0x800089d3 x25:0x00000000 PA:0x80008a13
       27165000	      2715	800014c4	7d2d35b7	lui	x11,0x7d2d3	 x11=0x7d2d3000
       27175000	      2716	800014c8	001e9e13	slli	x28,x29,0x1	 x29:0x00000001 x28=0x00000002
       27185000	      2717	800014cc	00fa0eb3	add	x29,x20,x15	 x20:0x00000000 x15:0x00000000 x29=0x00000000
       27195000	      2718	800014d0	fd448723	sb	x20,-50(x9)	  x9:0x800089d3 x20:0x00000000 PA:0x800089a1
       27205000	      2719	800014d4	f2848383	lb	x7,-216(x9)	  x9:0x800089d3  x7=0x00000000 PA:0x800088fb
       27215000	      2720	800014d8	daeff013	andi	x0,x31,-594	 x31:0x00000000
       27225000	      2721	800014dc	f964c803	lbu	x16,-106(x9)	  x9:0x800089d3 x16=0x00000000 PA:0x80008969
       27235000	      2722	800014e0	f7c484a3	sb	x28,-151(x9)	  x9:0x800089d3 x28:0x00000002 PA:0x8000893c
       27245000	      2723	800014e4	00007597	auipc	x11,0x7	 x11=0x800084e0
       27255000	      2724	800014e8	44458593	addi	x11,x11,1092	 x11:0x800084e0 x11=0x80008924
       27265000	      2725	800014ec	402e5893	srai	x17,x28,0x2	 x28:0x00000002 x17=0x00000000
       27275000	      2726	800014f0	0099e2b3	or	x5,x19,x9	 x19:0x00000000  x9:0x800089d3  x5=0x800089d3
       27285000	      2727	800014f4	011146b3	xor	x13,x2,x17	  x2:0x00000000 x17:0x00000000 x13=0x00000000
       27295000	      2728	800014f8	41545493	srai	x9,x8,0x15	  x8:0x00000000  x9=0x00000000
       27305000	      2729	800014fc	00a30533	add	x10,x6,x10	  x6:0x00000000 x10:0x00000000 x10=0x00000000
       27315000	      2730	80001500	00b5cd03	lbu	x26,11(x11)	 x11:0x80008924 x26=0x00000000 PA:0x8000892f
       27325000	      2731	80001504	00d5cc83	lbu	x25,13(x11)	 x11:0x80008924 x25=0x00000084 PA:0x80008931
       27335000	      2732	80001508	007a84b3	add	x9,x21,x7	 x21:0x80009fc4  x7:0x00000000  x9=0x80009fc4
       27345000	      2733	8000150c	ff758ea3	sb	x23,-3(x11)	 x11:0x80008924 x23:0x00000000 PA:0x80008921
       27355000	      2734	80001510	ff15cb83	lbu	x23,-15(x11)	 x11:0x80008924 x23=0x0000009f PA:0x80008915
       27365000	      2735	80001514	00158c83	lb	x25,1(x11)	 x11:0x80008924 x25=0x00000000 PA:0x80008925
       27375000	      2736	80001518	00eb5eb3	srl	x29,x22,x14	 x22:0x00000000 x14:0x80009f2c x29=0x00000000
       27385000	      2737	8000151c	dca2bd97	auipc	x27,0xdca2b	 x27=0x5ca2c518
       27395000	      2738	80001520	005bd113	srli	x2,x23,0x5	 x23:0x0000009f  x2=0x00000004
       27405000	      2739	80001524	00d5c103	lbu	x2,13(x11)	 x11:0x80008924  x2=0x00000084 PA:0x80008931
       27415000	      2740	80001528	00dad8b3	srl	x17,x21,x13	 x21:0x80009fc4 x13:0x00000000 x17=0x80009fc4
       27425000	      2741	8000152c	00d59623	sh	x13,12(x11)	 x11:0x80008924 x13:0x00000000 PA:0x80008930
       27435000	      2742	80001530	014228b3	slt	x17,x4,x20	  x4:0xa86ff000 x20:0x00000000 x17=0x00000001
       27445000	      2743	80001534	00958c83	lb	x25,9(x11)	 x11:0x80008924 x25=0x00000000 PA:0x8000892d
       27455000	      2744	80001538	ff55c183	lbu	x3,-11(x11)	 x11:0x80008924  x3=0x00000000 PA:0x80008919
       27465000	      2745	8000153c	41916513	ori	x10,x2,1049	  x2:0x00000084 x10=0x0000049d
       27475000	      2746	80001540	006b61b3	or	x3,x22,x6	 x22:0x00000000  x6:0x00000000  x3=0x00000000
       27485000	      2747	80001544	00f580a3	sb	x15,1(x11)	 x11:0x80008924 x15:0x00000000 PA:0x80008925
       27495000	      2748	80001548	002c2033	slt	x0,x24,x2	 x24:0x00000000  x2:0x00000084
       27505000	      2749	8000154c	ffc5a823	sw	x28,-16(x11)	 x11:0x80008924 x28:0x00000002 PA:0x80008914
       27515000	      2750	80001550	4098d833	sra	x16,x17,x9	 x17:0x00000001  x9:0x80009fc4 x16=0x00000000
       27525000	      2751	80001554	fee5a823	sw	x14,-16(x11)	 x11:0x80008924 x14:0x80009f2c PA:0x80008914
       27535000	      2752	80001558	01f59523	sh	x31,10(x11)	 x11:0x80008924 x31:0x00000000 PA:0x8000892e
       27545000	      2753	8000155c	00007497	auipc	x9,0x7	  x9=0x80008558
       27555000	      2754	80001560	e0148493	addi	x9,x9,-511	  x9:0x80008558  x9=0x80008359
       27565000	      2755	80001564	03d48403	lb	x8,61(x9)	  x9:0x80008359  x8=0x00000000 PA:0x80008396
       27575000	      2756	80001568	01b5be33	sltu	x28,x11,x27	 x11:0x80008924 x27:0x5ca2c518 x28=0x00000000
       27585000	      2757	8000156c	0044c803	lbu	x16,4(x9)	  x9:0x80008359 x16=0x00000000 PA:0x8000835d
       27595000	      2758	80001570	41eb53b3	sra	x7,x22,x30	 x22:0x00000000 x30:0x00000000  x7=0x00000000
       27605000	      2759	80001574	ffe4cd83	lbu	x27,-2(x9)	  x9:0x80008359 x27=0x00000000 PA:0x80008357
       27615000	      2760	80001578	03d4d783	lhu	x15,61(x9)	  x9:0x80008359 x15=0x00009400 PA:0x80008396
       27625000	      2761	8000157c	006726b3	slt	x13,x14,x6	 x14:0x80009f2c  x6:0x00000000 x13=0x00000001
       27635000	      2762	80001580	fc8492a3	sh	x8,-59(x9)	  x9:0x80008359  x8:0x00000000 PA:0x8000831e
       27645000	      2763	80001584	002460b3	or	x1,x8,x2	  x8:0x00000000  x2:0x00000084  x1=0x00000084
       27655000	      2764	80001588	0012d513	srli	x10,x5,0x1	  x5:0x800089d3 x10=0x400044e9
       27665000	      2765	8000158c	fe149683	lh	x13,-31(x9)	  x9:0x80008359 x13=0x00000000 PA:0x8000833a
       27675000	      2766	80001590	fc548c23	sb	x5,-40(x9)	  x9:0x80008359  x5:0x800089d3 PA:0x80008331
       27685000	      2767	80001594	00648723	sb	x6,14(x9)	  x9:0x80008359  x6:0x00000000 PA:0x80008367
       27695000	      2768	80001598	020488a3	sb	x0,49(x9)	  x9:0x80008359  x0:0x00000000 PA:0x8000838a
       27705000	      2769	8000159c	00995413	srli	x8,x18,0x9	 x18:0x80000000  x8=0x00400000
       27715000	      2770	800015a0	00006e33	or	x28,x0,x0	  x0:0x00000000  x0:0x00000000 x28=0x00000000
       27725000	      2771	800015a4	fe34aa03	lw	x20,-29(x9)	  x9:0x80008359 x20=0x00000000 PA:0x8000833c
       27735000	      2772	800015a8	fef66d37	lui	x26,0xfef66	 x26=0xfef66000
       27745000	      2773	800015ac	fd64c003	lbu	x0,-42(x9)	  x9:0x80008359 PA:0x8000832f
       27755000	      2774	800015b0	04048303	lb	x6,64(x9)	  x9:0x80008359  x6=0x00000000 PA:0x80008399
       27765000	      2775	800015b4	0384cd83	lbu	x27,56(x9)	  x9:0x80008359 x27=0x00000000 PA:0x80008391
       27775000	      2776	800015b8	40b150b3	sra	x1,x2,x11	  x2:0x00000084 x11:0x80008924  x1=0x00000008
       27785000	      2777	800015bc	003993b3	sll	x7,x19,x3	 x19:0x00000000  x3:0x00000000  x7=0x00000000
       27795000	      2778	800015c0	40685d13	srai	x26,x16,0x6	 x16:0x00000000 x26=0x00000000
       27805000	      2779	800015c4	fd8486a3	sb	x24,-51(x9)	  x9:0x80008359 x24:0x00000000 PA:0x80008326
       27815000	      2780	800015c8	02448223	sb	x4,36(x9)	  x9:0x80008359  x4:0xa86ff000 PA:0x8000837d
       27825000	      2781	800015cc	0274ad83	lw	x27,39(x9)	  x9:0x80008359 x27=0x00000000 PA:0x80008380
       27835000	      2782	800015d0	fd048503	lb	x10,-48(x9)	  x9:0x80008359 x10=0x00000000 PA:0x80008329
       27845000	      2783	800015d4	015726b3	slt	x13,x14,x21	 x14:0x80009f2c x21:0x80009fc4 x13=0x00000001
       27855000	      2784	800015d8	fdc48e23	sb	x28,-36(x9)	  x9:0x80008359 x28:0x00000000 PA:0x80008335
       27865000	      2785	800015dc	00a48223	sb	x10,4(x9)	  x9:0x80008359 x10:0x00000000 PA:0x8000835d
       27875000	      2786	800015e0	00007c17	auipc	x24,0x7	 x24=0x800085dc
       27885000	      2787	800015e4	c7ac0c13	addi	x24,x24,-902	 x24:0x800085dc x24=0x80008256
       27895000	      2788	800015e8	01e0cfb3	xor	x31,x1,x30	  x1:0x00000008 x30:0x00000000 x31=0x00000008
       27905000	      2789	800015ec	eb0c1b03	lh	x22,-336(x24)	 x24:0x80008256 x22=0x00000000 PA:0x80008106
       27915000	      2790	800015f0	00d0e533	or	x10,x1,x13	  x1:0x00000008 x13:0x00000001 x10=0x00000009
       27925000	      2791	800015f4	27cc5303	lhu	x6,636(x24)	 x24:0x80008256  x6=0x00000000 PA:0x800084d2
       27935000	      2792	800015f8	e36c0823	sb	x22,-464(x24)	 x24:0x80008256 x22:0x00000000 PA:0x80008086
       27945000	      2793	800015fc	325c0403	lb	x8,805(x24)	 x24:0x80008256  x8=0x00000000 PA:0x8000857b
       27955000	      2794	80001600	39bc4f03	lbu	x30,923(x24)	 x24:0x80008256 x30=0x00000000 PA:0x800085f1
       27965000	      2795	80001604	fe4c0983	lb	x19,-28(x24)	 x24:0x80008256 x19=0x00000000 PA:0x8000823a
       27975000	      2796	80001608	4170d433	sra	x8,x1,x23	  x1:0x00000008 x23:0x0000009f  x8=0x00000000
       27985000	      2797	8000160c	017c0ba3	sb	x23,23(x24)	 x24:0x80008256 x23:0x0000009f PA:0x8000826d
       27995000	      2798	80001610	154c0083	lb	x1,340(x24)	 x24:0x80008256  x1=0x00000000 PA:0x800083aa
       28005000	      2799	80001614	ae368893	addi	x17,x13,-1309	 x13:0x00000001 x17=0xfffffae4
       28015000	      2800	80001618	4eda7313	andi	x6,x20,1261	 x20:0x00000000  x6=0x00000000
       28025000	      2801	8000161c	00413f33	sltu	x30,x2,x4	  x2:0x00000084  x4:0xa86ff000 x30=0x00000001
       28035000	      2802	80001620	e9fc0da3	sb	x31,-357(x24)	 x24:0x80008256 x31:0x00000008 PA:0x800080f1
       28045000	      2803	80001624	efe0fbb7	lui	x23,0xefe0f	 x23=0xefe0f000
       28055000	      2804	80001628	2d6c0d23	sb	x22,730(x24)	 x24:0x80008256 x22:0x00000000 PA:0x80008530
       28065000	      2805	8000162c	e67c0fa3	sb	x7,-385(x24)	 x24:0x80008256  x7:0x00000000 PA:0x800080d5
       28075000	      2806	80001630	256e7337	lui	x6,0x256e7	  x6=0x256e7000
       28085000	      2807	80001634	26cc09a3	sb	x12,627(x24)	 x24:0x80008256 x12:0x00000000 PA:0x800084c9
       28095000	      2808	80001638	f4ac4e03	lbu	x28,-182(x24)	 x24:0x80008256 x28=0x00000000 PA:0x800081a0
       28105000	      2809	8000163c	5b7c0103	lb	x2,1463(x24)	 x24:0x80008256  x2=0x00000000 PA:0x8000880d
       28115000	      2810	80001640	fcbc2f23	sw	x11,-34(x24)	 x24:0x80008256 x11:0x80008924 PA:0x80008234
       28125000	      2811	80001644	3bbc0d83	lb	x27,955(x24)	 x24:0x80008256 x27=0x00000000 PA:0x80008611
       28135000	      2812	80001648	58ac4883	lbu	x17,1418(x24)	 x24:0x80008256 x17=0x00000000 PA:0x800087e0
       28145000	      2813	8000164c	1aec0203	lb	x4,430(x24)	 x24:0x80008256  x4=0x00000000 PA:0x80008404
       28155000	      2814	80001650	001c6e33	or	x28,x24,x1	 x24:0x80008256  x1:0x00000000 x28=0x80008256
       28165000	      2815	80001654	142c2f03	lw	x30,322(x24)	 x24:0x80008256 x30=0x00000000 PA:0x80008398
       28175000	      2816	80001658	3bfc4003	lbu	x0,959(x24)	 x24:0x80008256 PA:0x80008615
       28185000	      2817	8000165c	0a5c0483	lb	x9,165(x24)	 x24:0x80008256  x9=0x00000000 PA:0x800082fb
       28195000	      2818	80001660	001622b3	slt	x5,x12,x1	 x12:0x00000000  x1:0x00000000  x5=0x00000000
       28205000	      2819	80001664	3ebc0483	lb	x9,1003(x24)	 x24:0x80008256  x9=0x00000000 PA:0x80008641
       28215000	      2820	80001668	fcbc4e03	lbu	x28,-53(x24)	 x24:0x80008256 x28=0x00000000 PA:0x80008221
       28225000	      2821	8000166c	f1bc4003	lbu	x0,-229(x24)	 x24:0x80008256 PA:0x80008171
       28235000	      2822	80001670	3d4c0e83	lb	x29,980(x24)	 x24:0x80008256 x29=0x00000000 PA:0x8000862a
       28245000	      2823	80001674	00007897	auipc	x17,0x7	 x17=0x80008670
       28255000	      2824	80001678	f0488893	addi	x17,x17,-252	 x17:0x80008670 x17=0x80008574
       28265000	      2825	8000167c	0041a633	slt	x12,x3,x4	  x3:0x00000000  x4:0x00000000 x12=0x00000000
       28275000	      2826	80001680	0e79ee93	ori	x29,x19,231	 x19:0x00000000 x29=0x000000e7
       28285000	      2827	80001684	fcb8cf83	lbu	x31,-53(x17)	 x17:0x80008574 x31=0x00000000 PA:0x8000853f
       28295000	      2828	80001688	307f3613	sltiu	x12,x30,775	 x30:0x00000000 x12=0x00000001
       28305000	      2829	8000168c	ff78ca03	lbu	x20,-9(x17)	 x17:0x80008574 x20=0x00000000 PA:0x8000856b
       28315000	      2830	80001690	001d36b3	sltu	x13,x26,x1	 x26:0x00000000  x1:0x00000000 x13=0x00000000
       28325000	      2831	80001694	4182d213	srai	x4,x5,0x18	  x5:0x00000000  x4=0x00000000
       28335000	      2832	80001698	4ace8093	addi	x1,x29,1196	 x29:0x000000e7  x1=0x00000593
       28345000	      2833	8000169c	03a887a3	sb	x26,47(x17)	 x17:0x80008574 x26:0x00000000 PA:0x800085a3
       28355000	      2834	800016a0	01204a33	xor	x20,x0,x18	  x0:0x00000000 x18:0x80000000 x20=0x80000000
       28365000	      2835	800016a4	00b88583	lb	x11,11(x17)	 x17:0x80008574 x11=0x00000000 PA:0x8000857f
       28375000	      2836	800016a8	01875d13	srli	x26,x14,0x18	 x14:0x80009f2c x26=0x00000080
       28385000	      2837	800016ac	01f73d33	sltu	x26,x14,x31	 x14:0x80009f2c x31:0x00000000 x26=0x00000000
       28395000	      2838	800016b0	617cc013	xori	x0,x25,1559	 x25:0x00000000
       28405000	      2839	800016b4	00000013	addi	x0,x0,0	  x0:0x00000000
       28415000	      2840	800016b8	05de0237	lui	x4,0x5de0	  x4=0x05de0000
       28425000	      2841	800016bc	4af6f593	andi	x11,x13,1199	 x13:0x00000000 x11=0x00000000
       28435000	      2842	800016c0	fd588ea3	sb	x21,-35(x17)	 x17:0x80008574 x21:0x80009fc4 PA:0x80008551
       28445000	      2843	800016c4	fc78cf83	lbu	x31,-57(x17)	 x17:0x80008574 x31=0x00000000 PA:0x8000853b
       28455000	      2844	800016c8	40c95793	srai	x15,x18,0xc	 x18:0x80000000 x15=0xfff80000
       28465000	      2845	800016cc	00d8c783	lbu	x15,13(x17)	 x17:0x80008574 x15=0x00000000 PA:0x80008581
       28475000	      2846	800016d0	00000013	addi	x0,x0,0	  x0:0x00000000
       28485000	      2847	800016d4	005a9633	sll	x12,x21,x5	 x21:0x80009fc4  x5:0x00000000 x12=0x80009fc4
       28495000	      2848	800016d8	013122b3	slt	x5,x2,x19	  x2:0x00000000 x19:0x00000000  x5=0x00000000
       28505000	      2849	800016dc	007adbb3	srl	x23,x21,x7	 x21:0x80009fc4  x7:0x00000000 x23=0x80009fc4
       28515000	      2850	800016e0	208a2b37	lui	x22,0x208a2	 x22=0x208a2000
       28525000	      2851	800016e4	c2f7cd93	xori	x27,x15,-977	 x15:0x00000000 x27=0xfffffc2f
       28535000	      2852	800016e8	fe38c003	lbu	x0,-29(x17)	 x17:0x80008574 PA:0x80008557
       28545000	      2853	800016ec	00000013	addi	x0,x0,0	  x0:0x00000000
       28555000	      2854	800016f0	ffd88323	sb	x29,-26(x17)	 x17:0x80008574 x29:0x000000e7 PA:0x8000855a
       28565000	      2855	800016f4	bc8a6db7	lui	x27,0xbc8a6	 x27=0xbc8a6000
       28575000	      2856	800016f8	cf07c793	xori	x15,x15,-784	 x15:0x00000000 x15=0xfffffcf0
       28585000	      2857	800016fc	412eda33	sra	x20,x29,x18	 x29:0x000000e7 x18:0x80000000 x20=0x000000e7
       28595000	      2858	80001700	000066b3	or	x13,x0,x0	  x0:0x00000000  x0:0x00000000 x13=0x00000000
       28605000	      2859	80001704	fcf88f23	sb	x15,-34(x17)	 x17:0x80008574 x15:0xfffffcf0 PA:0x80008552
       28615000	      2860	80001708	4dff4793	xori	x15,x30,1247	 x30:0x00000000 x15=0x000004df
       28625000	      2861	8000170c	018efc33	and	x24,x29,x24	 x29:0x000000e7 x24:0x80008256 x24=0x00000046
       28635000	      2862	80001710	00e8da33	srl	x20,x17,x14	 x17:0x80008574 x14:0x80009f2c x20=0x00080008
       28645000	      2863	80001714	c4ef2f17	auipc	x30,0xc4ef2	 x30=0x44ef3710
       28655000	      2864	80001718	183cab13	slti	x22,x25,387	 x25:0x00000000 x22=0x00000001
       28665000	      2865	8000171c	ffc8c383	lbu	x7,-4(x17)	 x17:0x80008574  x7=0x00000000 PA:0x80008570
       28675000	      2866	80001720	00007117	auipc	x2,0x7	  x2=0x8000871c
       28685000	      2867	80001724	0ad10113	addi	x2,x2,173	  x2:0x8000871c  x2=0x800087c9
       28695000	      2868	80001728	fd414f83	lbu	x31,-44(x2)	  x2:0x800087c9 x31=0x00000000 PA:0x8000879d
       28705000	      2869	8000172c	01988833	add	x16,x17,x25	 x17:0x80008574 x25:0x00000000 x16=0x80008574
       28715000	      2870	80001730	4b34a193	slti	x3,x9,1203	  x9:0x00000000  x3=0x00000001
       28725000	      2871	80001734	00a10503	lb	x10,10(x2)	  x2:0x800087c9 x10=0x00000000 PA:0x800087d3
       28735000	      2872	80001738	012e42b3	xor	x5,x28,x18	 x28:0x00000000 x18:0x80000000  x5=0x80000000
       28745000	      2873	8000173c	ff014f03	lbu	x30,-16(x2)	  x2:0x800087c9 x30=0x00000000 PA:0x800087b9
       28755000	      2874	80001740	ff614c03	lbu	x24,-10(x2)	  x2:0x800087c9 x24=0x00000000 PA:0x800087bf
       28765000	      2875	80001744	00d93d33	sltu	x26,x18,x13	 x18:0x80000000 x13:0x00000000 x26=0x00000000
       28775000	      2876	80001748	03115b03	lhu	x22,49(x2)	  x2:0x800087c9 x22=0x00000000 PA:0x800087fa
       28785000	      2877	8000174c	037119a3	sh	x23,51(x2)	  x2:0x800087c9 x23:0x80009fc4 PA:0x800087fc
       28795000	      2878	80001750	fd7108a3	sb	x23,-47(x2)	  x2:0x800087c9 x23:0x80009fc4 PA:0x8000879a
       28805000	      2879	80001754	fdb15883	lhu	x17,-37(x2)	  x2:0x800087c9 x17=0x00000000 PA:0x800087a4
       28815000	      2880	80001758	72594613	xori	x12,x18,1829	 x18:0x80000000 x12=0x80000725
       28825000	      2881	8000175c	03c10b23	sb	x28,54(x2)	  x2:0x800087c9 x28:0x00000000 PA:0x800087ff
       28835000	      2882	80001760	03312303	lw	x6,51(x2)	  x2:0x800087c9  x6=0x00009fc4 PA:0x800087fc
       28845000	      2883	80001764	fd312203	lw	x4,-45(x2)	  x2:0x800087c9  x4=0x00000000 PA:0x8000879c
       28855000	      2884	80001768	fee10523	sb	x14,-22(x2)	  x2:0x800087c9 x14:0x80009f2c PA:0x800087b3
       28865000	      2885	8000176c	586b0313	addi	x6,x22,1414	 x22:0x00000000  x6=0x00000586
       28875000	      2886	80001770	0113aeb3	slt	x29,x7,x17	  x7:0x00000000 x17:0x00000000 x29=0x00000000
       28885000	      2887	80001774	fd610803	lb	x16,-42(x2)	  x2:0x800087c9 x16=0x00000000 PA:0x8000879f
       28895000	      2888	80001778	fe214b03	lbu	x22,-30(x2)	  x2:0x800087c9 x22=0x00000000 PA:0x800087ab
       28905000	      2889	8000177c	000cd793	srli	x15,x25,0x0	 x25:0x00000000 x15=0x00000000
       28915000	      2890	80001780	03814583	lbu	x11,56(x2)	  x2:0x800087c9 x11=0x00000000 PA:0x80008801
       28925000	      2891	80001784	01c14b83	lbu	x23,28(x2)	  x2:0x800087c9 x23=0x00000000 PA:0x800087e5
       28935000	      2892	80001788	00c14c03	lbu	x24,12(x2)	  x2:0x800087c9 x24=0x00000000 PA:0x800087d5
       28945000	      2893	8000178c	03a14483	lbu	x9,58(x2)	  x2:0x800087c9  x9=0x00000000 PA:0x80008803
       28955000	      2894	80001790	7706a517	auipc	x10,0x7706a	 x10=0xf706b78c
       28965000	      2895	80001794	fe810583	lb	x11,-24(x2)	  x2:0x800087c9 x11=0x00000000 PA:0x800087b1
       28975000	      2896	80001798	03210f03	lb	x30,50(x2)	  x2:0x800087c9 x30=0x00000000 PA:0x800087fb
       28985000	      2897	8000179c	fd410a03	lb	x20,-44(x2)	  x2:0x800087c9 x20=0x00000000 PA:0x8000879d
       28995000	      2898	800017a0	03610883	lb	x17,54(x2)	  x2:0x800087c9 x17=0x00000000 PA:0x800087ff
       29005000	      2899	800017a4	fc9118a3	sh	x9,-47(x2)	  x2:0x800087c9  x9:0x00000000 PA:0x8000879a
       29015000	      2900	800017a8	f6a60193	addi	x3,x12,-150	 x12:0x80000725  x3=0x8000068f
       29025000	      2901	800017ac	b2a33293	sltiu	x5,x6,-1238	  x6:0x00000586  x5=0x00000001
       29035000	      2902	800017b0	409a85b3	sub	x11,x21,x9	 x21:0x80009fc4  x9:0x00000000 x11=0x80009fc4
       29045000	      2903	800017b4	fd014483	lbu	x9,-48(x2)	  x2:0x800087c9  x9=0x00000000 PA:0x80008799
       29055000	      2904	800017b8	ff511f83	lh	x31,-11(x2)	  x2:0x800087c9 x31=0x00000000 PA:0x800087be
       29065000	      2905	800017bc	04010b03	lb	x22,64(x2)	  x2:0x800087c9 x22=0xffffff9f PA:0x80008809
       29075000	      2906	800017c0	03f10823	sb	x31,48(x2)	  x2:0x800087c9 x31:0x00000000 PA:0x800087f9
       29085000	      2907	800017c4	fed11983	lh	x19,-19(x2)	  x2:0x800087c9 x19=0x00000000 PA:0x800087b6
       29095000	      2908	800017c8	02110b83	lb	x23,33(x2)	  x2:0x800087c9 x23=0x00000000 PA:0x800087ea
       29105000	      2909	800017cc	02914d03	lbu	x26,41(x2)	  x2:0x800087c9 x26=0x00000000 PA:0x800087f2
       29115000	      2910	800017d0	00007117	auipc	x2,0x7	  x2=0x800087cc
       29125000	      2911	800017d4	93e10113	addi	x2,x2,-1730	  x2:0x800087cc  x2=0x8000810a
       29135000	      2912	800017d8	33411323	sh	x20,806(x2)	  x2:0x8000810a x20:0x00000000 PA:0x80008430
       29145000	      2913	800017dc	006a5833	srl	x16,x20,x6	 x20:0x00000000  x6:0x00000586 x16=0x00000000
       29155000	      2914	800017e0	ff210c23	sb	x18,-8(x2)	  x2:0x8000810a x18:0x80000000 PA:0x80008102
       29165000	      2915	800017e4	5cb105a3	sb	x11,1483(x2)	  x2:0x8000810a x11:0x80009fc4 PA:0x800086d5
       29175000	      2916	800017e8	4e411223	sh	x4,1252(x2)	  x2:0x8000810a  x4:0x00000000 PA:0x800085ee
       29185000	      2917	800017ec	36110823	sb	x1,880(x2)	  x2:0x8000810a  x1:0x00000593 PA:0x8000847a
       29195000	      2918	800017f0	9d6e7b13	andi	x22,x28,-1578	 x28:0x00000000 x22=0x00000000
       29205000	      2919	800017f4	01d0d993	srli	x19,x1,0x1d	  x1:0x00000593 x19=0x00000000
       29215000	      2920	800017f8	2aa106a3	sb	x10,685(x2)	  x2:0x8000810a x10:0xf706b78c PA:0x800083b7
       29225000	      2921	800017fc	37510383	lb	x7,885(x2)	  x2:0x8000810a  x7=0x00000000 PA:0x8000847f
       29235000	      2922	80001800	0f214f83	lbu	x31,242(x2)	  x2:0x8000810a x31=0x00000000 PA:0x800081fc
       29245000	      2923	80001804	58910d03	lb	x26,1417(x2)	  x2:0x8000810a x26=0x00000000 PA:0x80008693
       29255000	      2924	80001808	01f86d33	or	x26,x16,x31	 x16:0x00000000 x31:0x00000000 x26=0x00000000
       29265000	      2925	8000180c	01333d33	sltu	x26,x6,x19	  x6:0x00000586 x19:0x00000000 x26=0x00000000
       29275000	      2926	80001810	00000013	addi	x0,x0,0	  x0:0x00000000
       29285000	      2927	80001814	5bb14e03	lbu	x28,1467(x2)	  x2:0x8000810a x28=0x00000000 PA:0x800086c5
       29295000	      2928	80001818	76d27293	andi	x5,x4,1901	  x4:0x00000000  x5=0x00000000
       29305000	      2929	8000181c	57615803	lhu	x16,1398(x2)	  x2:0x8000810a x16=0x00000000 PA:0x80008680
       29315000	      2930	80001820	4ec15c83	lhu	x25,1260(x2)	  x2:0x8000810a x25=0x00000000 PA:0x800085f6
       29325000	      2931	80001824	412808b3	sub	x17,x16,x18	 x16:0x00000000 x18:0x80000000 x17=0x80000000
       29335000	      2932	80001828	9212cd93	xori	x27,x5,-1759	  x5:0x00000000 x27=0xfffff921
       29345000	      2933	8000182c	6f511f23	sh	x21,1790(x2)	  x2:0x8000810a x21:0x80009fc4 PA:0x80008808
       29355000	      2934	80001830	004844b3	xor	x9,x16,x4	 x16:0x00000000  x4:0x00000000  x9=0x00000000
       29365000	      2935	80001834	417b5f93	srai	x31,x22,0x17	 x22:0x00000000 x31=0x00000000
       29375000	      2936	80001838	1c514483	lbu	x9,453(x2)	  x2:0x8000810a  x9=0x00000000 PA:0x800082cf
       29385000	      2937	8000183c	6c212d03	lw	x26,1730(x2)	  x2:0x8000810a x26=0x00000000 PA:0x800087cc
       29395000	      2938	80001840	fc511823	sh	x5,-48(x2)	  x2:0x8000810a  x5:0x00000000 PA:0x800080da
       29405000	      2939	80001844	f4f5b093	sltiu	x1,x11,-177	 x11:0x80009fc4  x1=0x00000001
       29415000	      2940	80001848	014677b3	and	x15,x12,x20	 x12:0x80000725 x20:0x00000000 x15=0x00000000
       29425000	      2941	8000184c	32110603	lb	x12,801(x2)	  x2:0x8000810a x12=0x00000000 PA:0x8000842b
       29435000	      2942	80001850	51dc3393	sltiu	x7,x24,1309	 x24:0x00000000  x7=0x00000001
       29445000	      2943	80001854	30014203	lbu	x4,768(x2)	  x2:0x8000810a  x4=0x00000000 PA:0x8000840a
       29455000	      2944	80001858	1e011e23	sh	x0,508(x2)	  x2:0x8000810a  x0:0x00000000 PA:0x80008306
       29465000	      2945	8000185c	414d0333	sub	x6,x26,x20	 x26:0x00000000 x20:0x00000000  x6=0x00000000
       29475000	      2946	80001860	2f8106a3	sb	x24,749(x2)	  x2:0x8000810a x24:0x00000000 PA:0x800083f7
       29485000	      2947	80001864	00007117	auipc	x2,0x7	  x2=0x80008860
       29495000	      2948	80001868	c6810113	addi	x2,x2,-920	  x2:0x80008860  x2=0x800084c8
       29505000	      2949	8000186c	fe410f23	sb	x4,-2(x2)	  x2:0x800084c8  x4:0x00000000 PA:0x800084c6
       29515000	      2950	80001870	fe615d03	lhu	x26,-26(x2)	  x2:0x800084c8 x26=0x00000000 PA:0x800084ae
       29525000	      2951	80001874	3acc7617	auipc	x12,0x3acc7	 x12=0xbacc8870
       29535000	      2952	80001878	018473b3	and	x7,x8,x24	  x8:0x00000000 x24:0x00000000  x7=0x00000000
       29545000	      2953	8000187c	01f101a3	sb	x31,3(x2)	  x2:0x800084c8 x31:0x00000000 PA:0x800084cb
       29555000	      2954	80001880	56a77d13	andi	x26,x14,1386	 x14:0x80009f2c x26=0x00000528
       29565000	      2955	80001884	fe615303	lhu	x6,-26(x2)	  x2:0x800084c8  x6=0x00000000 PA:0x800084ae
       29575000	      2956	80001888	01b805b3	add	x11,x16,x27	 x16:0x00000000 x27:0xfffff921 x11=0xfffff921
       29585000	      2957	8000188c	9162cc93	xori	x25,x5,-1770	  x5:0x00000000 x25=0xfffff916
       29595000	      2958	80001890	01499d93	slli	x27,x19,0x14	 x19:0x00000000 x27=0x00000000
       29605000	      2959	80001894	01910d23	sb	x25,26(x2)	  x2:0x800084c8 x25:0xfffff916 PA:0x800084e2
       29615000	      2960	80001898	01f14403	lbu	x8,31(x2)	  x2:0x800084c8  x8=0x00000000 PA:0x800084e7
       29625000	      2961	8000189c	01e101a3	sb	x30,3(x2)	  x2:0x800084c8 x30:0x00000000 PA:0x800084cb
       29635000	      2962	800018a0	8fb48313	addi	x6,x9,-1797	  x9:0x00000000  x6=0xfffff8fb
       29645000	      2963	800018a4	00e7a633	slt	x12,x15,x14	 x15:0x00000000 x14:0x80009f2c x12=0x00000000
       29655000	      2964	800018a8	01b40c33	add	x24,x8,x27	  x8:0x00000000 x27:0x00000000 x24=0x00000000
       29665000	      2965	800018ac	41845533	sra	x10,x8,x24	  x8:0x00000000 x24:0x00000000 x10=0x00000000
       29675000	      2966	800018b0	5dac7413	andi	x8,x24,1498	 x24:0x00000000  x8=0x00000000
       29685000	      2967	800018b4	03210183	lb	x3,50(x2)	  x2:0x800084c8  x3=0x00000000 PA:0x800084fa
       29695000	      2968	800018b8	03815503	lhu	x10,56(x2)	  x2:0x800084c8 x10=0x00000000 PA:0x80008500
       29705000	      2969	800018bc	01a14683	lbu	x13,26(x2)	  x2:0x800084c8 x13=0x00000016 PA:0x800084e2
       29715000	      2970	800018c0	fea12023	sw	x10,-32(x2)	  x2:0x800084c8 x10:0x00000000 PA:0x800084a8
       29725000	      2971	800018c4	00112223	sw	x1,4(x2)	  x2:0x800084c8  x1:0x00000001 PA:0x800084cc
       29735000	      2972	800018c8	03510f83	lb	x31,53(x2)	  x2:0x800084c8 x31=0x00000000 PA:0x800084fd
       29745000	      2973	800018cc	fc4100a3	sb	x4,-63(x2)	  x2:0x800084c8  x4:0x00000000 PA:0x80008489
       29755000	      2974	800018d0	c5186b13	ori	x22,x16,-943	 x16:0x00000000 x22=0xfffffc51
       29765000	      2975	800018d4	0145db13	srli	x22,x11,0x14	 x11:0xfffff921 x22=0x00000fff
       29775000	      2976	800018d8	00cd5433	srl	x8,x26,x12	 x26:0x00000528 x12:0x00000000  x8=0x00000528
       29785000	      2977	800018dc	019191b3	sll	x3,x3,x25	  x3:0x00000000 x25:0xfffff916  x3=0x00000000
       29795000	      2978	800018e0	fe810223	sb	x8,-28(x2)	  x2:0x800084c8  x8:0x00000528 PA:0x800084ac
       29805000	      2979	800018e4	4139df33	sra	x30,x19,x19	 x19:0x00000000 x19:0x00000000 x30=0x00000000
       29815000	      2980	800018e8	009066b3	or	x13,x0,x9	  x0:0x00000000  x9:0x00000000 x13=0x00000000
       29825000	      2981	800018ec	1478f593	andi	x11,x17,327	 x17:0x80000000 x11=0x00000000
       29835000	      2982	800018f0	c62feb37	lui	x22,0xc62fe	 x22=0xc62fe000
       29845000	      2983	800018f4	e79f0013	addi	x0,x30,-391	 x30:0x00000000
       29855000	      2984	800018f8	00abb833	sltu	x16,x23,x10	 x23:0x00000000 x10:0x00000000 x16=0x00000000
       29865000	      2985	800018fc	00c66833	or	x16,x12,x12	 x12:0x00000000 x12:0x00000000 x16=0x00000000
       29875000	      2986	80001900	48653293	sltiu	x5,x10,1158	 x10:0x00000000  x5=0x00000001
       29885000	      2987	80001904	04014983	lbu	x19,64(x2)	  x2:0x800084c8 x19=0x00000000 PA:0x80008508
       29895000	      2988	80001908	00812823	sw	x8,16(x2)	  x2:0x800084c8  x8:0x00000528 PA:0x800084d8
       29905000	      2989	8000190c	005e5e13	srli	x28,x28,0x5	 x28:0x00000000 x28=0x00000000
       29915000	      2990	80001910	fe314f83	lbu	x31,-29(x2)	  x2:0x800084c8 x31=0x00000000 PA:0x800084ab
       29925000	      2991	80001914	fe714583	lbu	x11,-25(x2)	  x2:0x800084c8 x11=0x00000000 PA:0x800084af
       29935000	      2992	80001918	fe412583	lw	x11,-28(x2)	  x2:0x800084c8 x11=0x00000028 PA:0x800084ac
       29945000	      2993	8000191c	00e4d7b3	srl	x15,x9,x14	  x9:0x00000000 x14:0x80009f2c x15=0x00000000
       29955000	      2994	80001920	feb10c83	lb	x25,-21(x2)	  x2:0x800084c8 x25=0x00000000 PA:0x800084b3
       29965000	      2995	80001924	fc812023	sw	x8,-64(x2)	  x2:0x800084c8  x8:0x00000528 PA:0x80008488
       29975000	      2996	80001928	00000013	addi	x0,x0,0	  x0:0x00000000
       29985000	      2997	8000192c	ffe11c83	lh	x25,-2(x2)	  x2:0x800084c8 x25=0x00000000 PA:0x800084c6
       29995000	      2998	80001930	fe014a03	lbu	x20,-32(x2)	  x2:0x800084c8 x20=0x00000000 PA:0x800084a8
       30005000	      2999	80001934	01d696b3	sll	x13,x13,x29	 x13:0x00000000 x29:0x00000000 x13=0x00000000
       30015000	      3000	80001938	fd114803	lbu	x16,-47(x2)	  x2:0x800084c8 x16=0x00000000 PA:0x80008499
       30025000	      3001	8000193c	b5c60c13	addi	x24,x12,-1188	 x12:0x00000000 x24=0xfffffb5c
       30035000	      3002	80001940	85308f13	addi	x30,x1,-1965	  x1:0x00000001 x30=0xfffff854
       30045000	      3003	80001944	01910aa3	sb	x25,21(x2)	  x2:0x800084c8 x25:0x00000000 PA:0x800084dd
       30055000	      3004	80001948	00f12623	sw	x15,12(x2)	  x2:0x800084c8 x15:0x00000000 PA:0x800084d4
       30065000	      3005	8000194c	fea10503	lb	x10,-22(x2)	  x2:0x800084c8 x10=0x00000000 PA:0x800084b2
       30075000	      3006	80001950	00d016b3	sll	x13,x0,x13	  x0:0x00000000 x13:0x00000000 x13=0x00000000
       30085000	      3007	80001954	01414b03	lbu	x22,20(x2)	  x2:0x800084c8 x22=0x00000000 PA:0x800084dc
       30095000	      3008	80001958	ffd10883	lb	x17,-3(x2)	  x2:0x800084c8 x17=0x00000000 PA:0x800084c5
       30105000	      3009	8000195c	00007897	auipc	x17,0x7	 x17=0x80008958
       30115000	      3010	80001960	14188893	addi	x17,x17,321	 x17:0x80008958 x17=0x80008a99
       30125000	      3011	80001964	144883a3	sb	x4,327(x17)	 x17:0x80008a99  x4:0x00000000 PA:0x80008be0
       30135000	      3012	80001968	5da14f13	xori	x30,x2,1498	  x2:0x800084c8 x30=0x80008112
       30145000	      3013	8000196c	e718d803	lhu	x16,-399(x17)	 x17:0x80008a99 x16=0x00000000 PA:0x8000890a
       30155000	      3014	80001970	00000013	addi	x0,x0,0	  x0:0x00000000
       30165000	      3015	80001974	50488483	lb	x9,1284(x17)	 x17:0x80008a99  x9=0x00000000 PA:0x80008f9d
       30175000	      3016	80001978	0eb88d23	sb	x11,250(x17)	 x17:0x80008a99 x11:0x00000028 PA:0x80008b93
       30185000	      3017	8000197c	423884a3	sb	x3,1065(x17)	 x17:0x80008a99  x3:0x00000000 PA:0x80008ec2
       30195000	      3018	80001980	013116b3	sll	x13,x2,x19	  x2:0x800084c8 x19:0x00000000 x13=0x800084c8
       30205000	      3019	80001984	3eb890a3	sh	x11,993(x17)	 x17:0x80008a99 x11:0x00000028 PA:0x80008e7a
       30215000	      3020	80001988	45789ea3	sh	x23,1117(x17)	 x17:0x80008a99 x23:0x00000000 PA:0x80008ef6
       30225000	      3021	8000198c	0fe88e83	lb	x29,254(x17)	 x17:0x80008a99 x29=0x00000000 PA:0x80008b97
       30235000	      3022	80001990	f8f89ea3	sh	x15,-99(x17)	 x17:0x80008a99 x15:0x00000000 PA:0x80008a36
       30245000	      3023	80001994	e2088c23	sb	x0,-456(x17)	 x17:0x80008a99  x0:0x00000000 PA:0x800088d1
       30255000	      3024	80001998	1c3899a3	sh	x3,467(x17)	 x17:0x80008a99  x3:0x00000000 PA:0x80008c6c
       30265000	      3025	8000199c	1868c183	lbu	x3,390(x17)	 x17:0x80008a99  x3=0x00000000 PA:0x80008c1f
       30275000	      3026	800019a0	41b40133	sub	x2,x8,x27	  x8:0x00000528 x27:0x00000000  x2=0x00000528
       30285000	      3027	800019a4	1658cd03	lbu	x26,357(x17)	 x17:0x80008a99 x26=0x00000000 PA:0x80008bfe
       30295000	      3028	800019a8	0e488b23	sb	x4,246(x17)	 x17:0x80008a99  x4:0x00000000 PA:0x80008b8f
       30305000	      3029	800019ac	3dd88503	lb	x10,989(x17)	 x17:0x80008a99 x10=0x00000000 PA:0x80008e76
       30315000	      3030	800019b0	d7c6ac13	slti	x24,x13,-644	 x13:0x800084c8 x24=0x00000001
       30325000	      3031	800019b4	e2b88303	lb	x6,-469(x17)	 x17:0x80008a99  x6=0x00000000 PA:0x800088c4
       30335000	      3032	800019b8	51e88d83	lb	x27,1310(x17)	 x17:0x80008a99 x27=0x00000000 PA:0x80008fb7
       30345000	      3033	800019bc	42b8a383	lw	x7,1067(x17)	 x17:0x80008a99  x7=0x00000000 PA:0x80008ec4
       30355000	      3034	800019c0	02888f03	lb	x30,40(x17)	 x17:0x80008a99 x30=0x00000000 PA:0x80008ac1
       30365000	      3035	800019c4	f138c083	lbu	x1,-237(x17)	 x17:0x80008a99  x1=0x00000000 PA:0x800089ac
       30375000	      3036	800019c8	40958833	sub	x16,x11,x9	 x11:0x00000028  x9:0x00000000 x16=0x00000028
       30385000	      3037	800019cc	0ac8c303	lbu	x6,172(x17)	 x17:0x80008a99  x6=0x00000000 PA:0x80008b45
       30395000	      3038	800019d0	42788aa3	sb	x7,1077(x17)	 x17:0x80008a99  x7:0x00000000 PA:0x80008ece
       30405000	      3039	800019d4	e8d8aba3	sw	x13,-361(x17)	 x17:0x80008a99 x13:0x800084c8 PA:0x80008930
       30415000	      3040	800019d8	2d88a3a3	sw	x24,711(x17)	 x17:0x80008a99 x24:0x00000001 PA:0x80008d60
       30425000	      3041	800019dc	418add33	sra	x26,x21,x24	 x21:0x80009fc4 x24:0x00000001 x26=0xc0004fe2
       30435000	      3042	800019e0	b8526813	ori	x16,x4,-1147	  x4:0x00000000 x16=0xfffffb85
       30445000	      3043	800019e4	41e15d93	srai	x27,x2,0x1e	  x2:0x00000528 x27=0x00000000
       30455000	      3044	800019e8	0c58c483	lbu	x9,197(x17)	 x17:0x80008a99  x9=0x00000000 PA:0x80008b5e
       30465000	      3045	800019ec	06688ba3	sb	x6,119(x17)	 x17:0x80008a99  x6:0x00000000 PA:0x80008b10
       30475000	      3046	800019f0	09f8d383	lhu	x7,159(x17)	 x17:0x80008a99  x7=0x00000000 PA:0x80008b38
       30485000	      3047	800019f4	3dd8c803	lbu	x16,989(x17)	 x17:0x80008a99 x16=0x00000000 PA:0x80008e76
       30495000	      3048	800019f8	20f9fa17	auipc	x20,0x20f9f	 x20=0xa0fa09f4
       30505000	      3049	800019fc	0033c3b3	xor	x7,x7,x3	  x7:0x00000000  x3:0x00000000  x7=0x00000000
       30515000	      3050	80001a00	01f17833	and	x16,x2,x31	  x2:0x00000528 x31:0x00000000 x16=0x00000000
       30525000	      3051	80001a04	e5488523	sb	x20,-438(x17)	 x17:0x80008a99 x20:0xa0fa09f4 PA:0x800088e3
       30535000	      3052	80001a08	01a99513	slli	x10,x19,0x1a	 x19:0x00000000 x10=0x00000000
       30545000	      3053	80001a0c	00000013	addi	x0,x0,0	  x0:0x00000000
       30555000	      3054	80001a10	415f5993	srai	x19,x30,0x15	 x30:0x00000000 x19=0x00000000
       30565000	      3055	80001a14	00d32db3	slt	x27,x6,x13	  x6:0x00000000 x13:0x800084c8 x27=0x00000000
       30575000	      3056	80001a18	05015fb7	lui	x31,0x5015	 x31=0x05015000
       30585000	      3057	80001a1c	035b1863	bne	x22,x21,80001a4c	 x22:0x00000000 x21:0x80009fc4
       30595000	      3058	00000000	00000013	addi	x0,x0,0	  x0:0x00000000
       30605000	      3059	80001a48	00000013	addi	x0,x0,0	  x0:0x00000000
       30615000	      3060	80001a4c	50946213	ori	x4,x8,1289	  x8:0x00000528  x4=0x00000529
       30625000	      3061	80001a50	01e39fb3	sll	x31,x7,x30	  x7:0x00000000 x30:0x00000000 x31=0x00000000
       30635000	      3062	80001a54	00000013	addi	x0,x0,0	  x0:0x00000000
       30645000	      3063	80001a58	01c21c63	bne	x4,x28,80001a70	  x4:0x00000529 x28:0x00000000
       30655000	      3064	00000000	00000013	addi	x0,x0,0	  x0:0x00000000
       30665000	      3065	80001a6c	00000013	addi	x0,x0,0	  x0:0x00000000
       30675000	      3066	80001a70	00ee7263	bgeu	x28,x14,80001a74	 x28:0x00000000 x14:0x80009f2c
       30685000	      3067	80001a74	d75cec97	auipc	x25,0xd75ce	 x25=0x575cfa70
       30695000	      3068	80001a78	2b4e3613	sltiu	x12,x28,692	 x28:0x00000000 x12=0x00000001
       30705000	      3069	80001a7c	014da6b3	slt	x13,x27,x20	 x27:0x00000000 x20:0xa0fa09f4 x13=0x00000000
       30715000	      3070	80001a80	00b2e863	bltu	x5,x11,80001a90	  x5:0x00000001 x11:0x00000028
       30725000	      3071	00000000	00000013	addi	x0,x0,0	  x0:0x00000000
       30735000	      3072	80001a8c	00000013	addi	x0,x0,0	  x0:0x00000000
       30745000	      3073	80001a90	051d4463	blt	x26,x17,80001ad8	 x26:0xc0004fe2 x17:0x80008a99
       30755000	      3074	80001a94	01e5c833	xor	x16,x11,x30	 x11:0x00000028 x30:0x00000000 x16=0x00000028
       30765000	      3075	80001a98	00f1b0b3	sltu	x1,x3,x15	  x3:0x00000000 x15:0x00000000  x1=0x00000000
       30775000	      3076	80001a9c	0332f463	bgeu	x5,x19,80001ac4	  x5:0x00000001 x19:0x00000000
       30785000	      3077	00000000	00000013	addi	x0,x0,0	  x0:0x00000000
       30795000	      3078	80001ac0	00000013	addi	x0,x0,0	  x0:0x00000000
       30805000	      3079	80001ac4	002813b3	sll	x7,x16,x2	 x16:0x00000028  x2:0x00000528  x7=0x00002800
       30815000	      3080	80001ac8	da3d4813	xori	x16,x26,-605	 x26:0xc0004fe2 x16=0x3fffb241
       30825000	      3081	80001acc	01151bb3	sll	x23,x10,x17	 x10:0x00000000 x17:0x80008a99 x23=0x00000000
       30835000	      3082	80001ad0	8aba9cb7	lui	x25,0x8aba9	 x25=0x8aba9000
       30845000	      3083	80001ad4	017e9513	slli	x10,x29,0x17	 x29:0x00000000 x10=0x00000000
       30855000	      3084	80001ad8	412a54b3	sra	x9,x20,x18	 x20:0xa0fa09f4 x18:0x80000000  x9=0xa0fa09f4
       30865000	      3085	80001adc	009329b3	slt	x19,x6,x9	  x6:0x00000000  x9:0xa0fa09f4 x19=0x00000000
       30875000	      3086	80001ae0	00000013	addi	x0,x0,0	  x0:0x00000000
       30885000	      3087	80001ae4	01e69db3	sll	x27,x13,x30	 x13:0x00000000 x30:0x00000000 x27=0x00000000
       30895000	      3088	80001ae8	405c5513	srai	x10,x24,0x5	 x24:0x00000001 x10=0x00000000
       30905000	      3089	80001aec	006a83b3	add	x7,x21,x6	 x21:0x80009fc4  x6:0x00000000  x7=0x80009fc4
       30915000	      3090	80001af0	92e3a497	auipc	x9,0x92e3a	  x9=0x12e3baec
       30925000	      3091	80001af4	051f9463	bne	x31,x17,80001b3c	 x31:0x00000000 x17:0x80008a99
       30935000	      3092	00000000	00000013	addi	x0,x0,0	  x0:0x00000000
       30945000	      3093	80001b38	00000013	addi	x0,x0,0	  x0:0x00000000
       30955000	      3094	80001b3c	00194463	blt	x18,x1,80001b44	 x18:0x80000000  x1:0x00000000
       30965000	      3095	00000000	00000013	addi	x0,x0,0	  x0:0x00000000
       30975000	      3096	80001b40	00000013	addi	x0,x0,0	  x0:0x00000000
       30985000	      3097	80001b44	00fdc433	xor	x8,x27,x15	 x27:0x00000000 x15:0x00000000  x8=0x00000000
       30995000	      3098	80001b48	01be4b33	xor	x22,x28,x27	 x28:0x00000000 x27:0x00000000 x22=0x00000000
       31005000	      3099	80001b4c	07f86f93	ori	x31,x16,127	 x16:0x3fffb241 x31=0x3fffb27f
       31015000	      3100	80001b50	66004137	lui	x2,0x66004	  x2=0x66004000
       31025000	      3101	80001b54	0056d613	srli	x12,x13,0x5	 x13:0x00000000 x12=0x00000000
       31035000	      3102	80001b58	04401263	bne	x0,x4,80001b9c	  x0:0x00000000  x4:0x00000529
       31045000	      3103	00000000	00000013	addi	x0,x0,0	  x0:0x00000000
       31055000	      3104	80001b98	00000013	addi	x0,x0,0	  x0:0x00000000
       31065000	      3105	80001b9c	1ab8dd37	lui	x26,0x1ab8d	 x26=0x1ab8d000
       31075000	      3106	80001ba0	95270993	addi	x19,x14,-1710	 x14:0x80009f2c x19=0x8000987e
       31085000	      3107	80001ba4	607ca217	auipc	x4,0x607ca	  x4=0xe07cbba0
       31095000	      3108	80001ba8	00c79cb3	sll	x25,x15,x12	 x15:0x00000000 x12:0x00000000 x25=0x00000000
       31105000	      3109	80001bac	00e0d8b3	srl	x17,x1,x14	  x1:0x00000000 x14:0x80009f2c x17=0x00000000
       31115000	      3110	80001bb0	02006463	bltu	x0,x0,80001bd8	  x0:0x00000000  x0:0x00000000
       31125000	      3111	80001bb4	a2407813	andi	x16,x0,-1500	  x0:0x00000000 x16=0x00000000
       31135000	      3112	80001bb8	01f324b3	slt	x9,x6,x31	  x6:0x00000000 x31:0x3fffb27f  x9=0x00000001
       31145000	      3113	80001bbc	055be663	bltu	x23,x21,80001c08	 x23:0x00000000 x21:0x80009fc4
       31155000	      3114	00000000	00000013	addi	x0,x0,0	  x0:0x00000000
       31165000	      3115	80001c04	00000013	addi	x0,x0,0	  x0:0x00000000
       31175000	      3116	80001c08	7e03ec93	ori	x25,x7,2016	  x7:0x80009fc4 x25=0x80009fe4
       31185000	      3117	80001c0c	01bd8533	add	x10,x27,x27	 x27:0x00000000 x27:0x00000000 x10=0x00000000
       31195000	      3118	80001c10	03614863	blt	x2,x22,80001c40	  x2:0x66004000 x22:0x00000000
       31205000	      3119	80001c14	405558b3	sra	x17,x10,x5	 x10:0x00000000  x5:0x00000001 x17=0x00000000
       31215000	      3120	80001c18	00301433	sll	x8,x0,x3	  x0:0x00000000  x3:0x00000000  x8=0x00000000
       31225000	      3121	80001c1c	e6bdc513	xori	x10,x27,-405	 x27:0x00000000 x10=0xfffffe6b
       31235000	      3122	80001c20	004b0263	beq	x22,x4,80001c24	 x22:0x00000000  x4:0xe07cbba0
       31245000	      3123	80001c24	92194113	xori	x2,x18,-1759	 x18:0x80000000  x2=0x7ffff921
       31255000	      3124	80001c28	40008eb3	sub	x29,x1,x0	  x1:0x00000000  x0:0x00000000 x29=0x00000000
       31265000	      3125	80001c2c	004c4663	blt	x24,x4,80001c38	 x24:0x00000001  x4:0xe07cbba0
       31275000	      3126	80001c30	ae703397	auipc	x7,0xae703	  x7=0x2e704c2c
       31285000	      3127	80001c34	4041d4b3	sra	x9,x3,x4	  x3:0x00000000  x4:0xe07cbba0  x9=0x00000000
       31295000	      3128	80001c38	03b15063	bge	x2,x27,80001c58	  x2:0x7ffff921 x27:0x00000000
       31305000	      3129	00000000	00000013	addi	x0,x0,0	  x0:0x00000000
       31315000	      3130	80001c54	00000013	addi	x0,x0,0	  x0:0x00000000
       31325000	      3131	80001c58	015121b3	slt	x3,x2,x21	  x2:0x7ffff921 x21:0x80009fc4  x3=0x00000000
       31335000	      3132	80001c5c	01d0acb3	slt	x25,x1,x29	  x1:0x00000000 x29:0x00000000 x25=0x00000000
       31345000	      3133	80001c60	03d34c63	blt	x6,x29,80001c98	  x6:0x00000000 x29:0x00000000
       31355000	      3134	80001c64	fce76113	ori	x2,x14,-50	 x14:0x80009f2c  x2=0xffffffee
       31365000	      3135	80001c68	00dca1b3	slt	x3,x25,x13	 x25:0x00000000 x13:0x00000000  x3=0x00000000
       31375000	      3136	80001c6c	00bd9eb3	sll	x29,x27,x11	 x27:0x00000000 x11:0x00000028 x29=0x00000000
       31385000	      3137	80001c70	ed61e513	ori	x10,x3,-298	  x3:0x00000000 x10=0xfffffed6
       31395000	      3138	80001c74	4179d433	sra	x8,x19,x23	 x19:0x8000987e x23:0x00000000  x8=0x8000987e
       31405000	      3139	80001c78	05648663	beq	x9,x22,80001cc4	  x9:0x00000000 x22:0x00000000
       31415000	      3140	00000000	00000013	addi	x0,x0,0	  x0:0x00000000
       31425000	      3141	80001cc0	00000013	addi	x0,x0,0	  x0:0x00000000
       31435000	      3142	80001cc4	402803b3	sub	x7,x16,x2	 x16:0x00000000  x2:0xffffffee  x7=0x00000012
       31445000	      3143	80001cc8	01bcd413	srli	x8,x25,0x1b	 x25:0x00000000  x8=0x00000000
       31455000	      3144	80001ccc	005b7263	bgeu	x22,x5,80001cd0	 x22:0x00000000  x5:0x00000001
       31465000	      3145	80001cd0	84583b93	sltiu	x23,x16,-1979	 x16:0x00000000 x23=0x00000001
       31475000	      3146	80001cd4	4d9cfb13	andi	x22,x25,1241	 x25:0x00000000 x22=0x00000000
       31485000	      3147	80001cd8	01f87eb3	and	x29,x16,x31	 x16:0x00000000 x31:0x3fffb27f x29=0x00000000
       31495000	      3148	80001cdc	01999e63	bne	x19,x25,80001cf8	 x19:0x8000987e x25:0x00000000
       31505000	      3149	00000000	00000013	addi	x0,x0,0	  x0:0x00000000
       31515000	      3150	80001cf4	00000013	addi	x0,x0,0	  x0:0x00000000
       31525000	      3151	80001cf8	02396063	bltu	x18,x3,80001d18	 x18:0x80000000  x3:0x00000000
       31535000	      3152	80001cfc	592ced13	ori	x26,x25,1426	 x25:0x00000000 x26=0x00000592
       31545000	      3153	80001d00	06ed3493	sltiu	x9,x26,110	 x26:0x00000592  x9=0x00000000
       31555000	      3154	80001d04	006c63b3	or	x7,x24,x6	 x24:0x00000001  x6:0x00000000  x7=0x00000001
       31565000	      3155	80001d08	013d8a63	beq	x27,x19,80001d1c	 x27:0x00000000 x19:0x8000987e
       31575000	      3156	80001d0c	df65c093	xori	x1,x11,-522	 x11:0x00000028  x1=0xfffffdde
       31585000	      3157	80001d10	80ec8d13	addi	x26,x25,-2034	 x25:0x00000000 x26=0xfffff80e
       31595000	      3158	80001d14	01e36633	or	x12,x6,x30	  x6:0x00000000 x30:0x00000000 x12=0x00000000
       31605000	      3159	80001d18	40910eb3	sub	x29,x2,x9	  x2:0xffffffee  x9:0x00000000 x29=0xffffffee
       31615000	      3160	80001d1c	01b5d9b3	srl	x19,x11,x27	 x11:0x00000028 x27:0x00000000 x19=0x00000028
       31625000	      3161	80001d20	01dddb33	srl	x22,x27,x29	 x27:0x00000000 x29:0xffffffee x22=0x00000000
       31635000	      3162	80001d24	e6c17113	andi	x2,x2,-404	  x2:0xffffffee  x2=0xfffffe6c
       31645000	      3163	80001d28	010199b3	sll	x19,x3,x16	  x3:0x00000000 x16:0x00000000 x19=0x00000000
       31655000	      3164	80001d2c	05ad4093	xori	x1,x26,90	 x26:0xfffff80e  x1=0xfffff854
       31665000	      3165	80001d30	aad4aa13	slti	x20,x9,-1363	  x9:0x00000000 x20=0x00000000
       31675000	      3166	80001d34	00ff6bb3	or	x23,x30,x15	 x30:0x00000000 x15:0x00000000 x23=0x00000000
       31685000	      3167	80001d38	caf3fd13	andi	x26,x7,-849	  x7:0x00000001 x26=0x00000001
       31695000	      3168	80001d3c	01de6433	or	x8,x28,x29	 x28:0x00000000 x29:0xffffffee  x8=0xffffffee
       31705000	      3169	80001d40	1dade993	ori	x19,x27,474	 x27:0x00000000 x19=0x000001da
       31715000	      3170	80001d44	d1283c13	sltiu	x24,x16,-750	 x16:0x00000000 x24=0x00000001
       31725000	      3171	80001d48	00d00cb3	add	x25,x0,x13	  x0:0x00000000 x13:0x00000000 x25=0x00000000
       31735000	      3172	80001d4c	008b4033	xor	x0,x22,x8	 x22:0x00000000  x8:0xffffffee
       31745000	      3173	80001d50	01d99eb3	sll	x29,x19,x29	 x19:0x000001da x29:0xffffffee x29=0x00768000
       31755000	      3174	80001d54	488f7337	lui	x6,0x488f7	  x6=0x488f7000
       31765000	      3175	80001d58	01858133	add	x2,x11,x24	 x11:0x00000028 x24:0x00000001  x2=0x00000029
       31775000	      3176	80001d5c	01786a63	bltu	x16,x23,80001d70	 x16:0x00000000 x23:0x00000000
       31785000	      3177	80001d60	01255663	bge	x10,x18,80001d6c	 x10:0xfffffed6 x18:0x80000000
       31795000	      3178	00000000	00000013	addi	x0,x0,0	  x0:0x00000000
       31805000	      3179	80001d68	00000013	addi	x0,x0,0	  x0:0x00000000
       31815000	      3180	80001d6c	01df9463	bne	x31,x29,80001d74	 x31:0x3fffb27f x29:0x00768000
       31825000	      3181	00000000	00000013	addi	x0,x0,0	  x0:0x00000000
       31835000	      3182	80001d70	00000013	addi	x0,x0,0	  x0:0x00000000
       31845000	      3183	80001d74	006bcc63	blt	x23,x6,80001d8c	 x23:0x00000000  x6:0x488f7000
       31855000	      3184	00000000	00000013	addi	x0,x0,0	  x0:0x00000000
       31865000	      3185	80001d88	00000013	addi	x0,x0,0	  x0:0x00000000
       31875000	      3186	80001d8c	01069b93	slli	x23,x13,0x10	 x13:0x00000000 x23=0x00000000
       31885000	      3187	80001d90	00136d33	or	x26,x6,x1	  x6:0x488f7000  x1:0xfffff854 x26=0xfffff854
       31895000	      3188	80001d94	41625b93	srai	x23,x4,0x16	  x4:0xe07cbba0 x23=0xffffff81
       31905000	      3189	80001d98	01f0e633	or	x12,x1,x31	  x1:0xfffff854 x31:0x3fffb27f x12=0xfffffa7f
       31915000	      3190	80001d9c	a16e8c93	addi	x25,x29,-1514	 x29:0x00768000 x25=0x00767a16
       31925000	      3191	80001da0	6a8cc193	xori	x3,x25,1704	 x25:0x00767a16  x3=0x00767cbe
       31935000	      3192	80001da4	03fb4863	blt	x22,x31,80001dd4	 x22:0x00000000 x31:0x3fffb27f
       31945000	      3193	00000000	00000013	addi	x0,x0,0	  x0:0x00000000
       31955000	      3194	80001dd0	00000013	addi	x0,x0,0	  x0:0x00000000
       31965000	      3195	80001dd4	01574cb3	xor	x25,x14,x21	 x14:0x80009f2c x21:0x80009fc4 x25=0x000000e8
       31975000	      3196	80001dd8	417a5e13	srai	x28,x20,0x17	 x20:0x00000000 x28=0x00000000
       31985000	      3197	80001ddc	00000013	addi	x0,x0,0	  x0:0x00000000
       31995000	      3198	80001de0	8f627193	andi	x3,x4,-1802	  x4:0xe07cbba0  x3=0xe07cb8a0
       32005000	      3199	80001de4	ce0fb413	sltiu	x8,x31,-800	 x31:0x3fffb27f  x8=0x00000001
       32015000	      3200	80001de8	00000013	addi	x0,x0,0	  x0:0x00000000
       32025000	      3201	80001dec	00000013	addi	x0,x0,0	  x0:0x00000000
       32035000	      3202	80001df0	0442c263	blt	x5,x4,80001e34	  x5:0x00000001  x4:0xe07cbba0
       32045000	      3203	80001df4	03d2c663	blt	x5,x29,80001e20	  x5:0x00000001 x29:0x00768000
       32055000	      3204	00000000	00000013	addi	x0,x0,0	  x0:0x00000000
       32065000	      3205	80001e1c	00000013	addi	x0,x0,0	  x0:0x00000000
       32075000	      3206	80001e20	0024fe33	and	x28,x9,x2	  x9:0x00000000  x2:0x00000029 x28=0x00000000
       32085000	      3207	80001e24	28dc3013	sltiu	x0,x24,653	 x24:0x00000001
       32095000	      3208	80001e28	41a50a33	sub	x20,x10,x26	 x10:0xfffffed6 x26:0xfffff854 x20=0x00000682
       32105000	      3209	80001e2c	401450b3	sra	x1,x8,x1	  x8:0x00000001  x1:0xfffff854  x1=0x00000000
       32115000	      3210	80001e30	00415c33	srl	x24,x2,x4	  x2:0x00000029  x4:0xe07cbba0 x24=0x00000029
       32125000	      3211	80001e34	ae217893	andi	x17,x2,-1310	  x2:0x00000029 x17=0x00000020
       32135000	      3212	80001e38	02b60863	beq	x12,x11,80001e68	 x12:0xfffffa7f x11:0x00000028
       32145000	      3213	80001e3c	407c5833	sra	x16,x24,x7	 x24:0x00000029  x7:0x00000001 x16=0x00000014
       32155000	      3214	80001e40	01769263	bne	x13,x23,80001e44	 x13:0x00000000 x23:0xffffff81
       32165000	      3215	00000000	00000013	addi	x0,x0,0	  x0:0x00000000
       32175000	      3216	80001e40	00000013	addi	x0,x0,0	  x0:0x00000000
       32185000	      3217	80001e44	00b26433	or	x8,x4,x11	  x4:0xe07cbba0 x11:0x00000028  x8=0xe07cbba8
       32195000	      3218	80001e48	dc714613	xori	x12,x2,-569	  x2:0x00000029 x12=0xfffffdee
       32205000	      3219	80001e4c	408001b3	sub	x3,x0,x8	  x0:0x00000000  x8:0xe07cbba8  x3=0x1f834458
       32215000	      3220	80001e50	398f2113	slti	x2,x30,920	 x30:0x00000000  x2=0x00000001
       32225000	      3221	80001e54	01731033	sll	x0,x6,x23	  x6:0x488f7000 x23:0xffffff81
       32235000	      3222	80001e58	013604b3	add	x9,x12,x19	 x12:0xfffffdee x19:0x000001da  x9=0xffffffc8
       32245000	      3223	80001e5c	008ca0b3	slt	x1,x25,x8	 x25:0x000000e8  x8:0xe07cbba8  x1=0x00000000
       32255000	      3224	80001e60	c56c0093	addi	x1,x24,-938	 x24:0x00000029  x1=0xfffffc7f
       32265000	      3225	80001e64	b97c6193	ori	x3,x24,-1129	 x24:0x00000029  x3=0xfffffbbf
       32275000	      3226	80001e68	11183093	sltiu	x1,x16,273	 x16:0x00000014  x1=0x00000001
       32285000	      3227	80001e6c	00bcfeb3	and	x29,x25,x11	 x25:0x000000e8 x11:0x00000028 x29=0x00000028
       32295000	      3228	80001e70	00000013	addi	x0,x0,0	  x0:0x00000000
       32305000	      3229	80001e74	fbe76413	ori	x8,x14,-66	 x14:0x80009f2c  x8=0xffffffbe
       32315000	      3230	80001e78	a2aa8313	addi	x6,x21,-1494	 x21:0x80009fc4  x6=0x800099ee
       32325000	      3231	80001e7c	9c840513	addi	x10,x8,-1592	  x8:0xffffffbe x10=0xfffff986
       32335000	      3232	80001e80	01db11b3	sll	x3,x22,x29	 x22:0x00000000 x29:0x00000028  x3=0x00000000
       32345000	      3233	80001e84	00275d93	srli	x27,x14,0x2	 x14:0x80009f2c x27=0x200027cb
       32355000	      3234	80001e88	01a85393	srli	x7,x16,0x1a	 x16:0x00000014  x7=0x00000000
       32365000	      3235	80001e8c	00e467b3	or	x15,x8,x14	  x8:0xffffffbe x14:0x80009f2c x15=0xffffffbe
       32375000	      3236	80001e90	006cb333	sltu	x6,x25,x6	 x25:0x000000e8  x6:0x800099ee  x6=0x00000001
       32385000	      3237	80001e94	00000013	addi	x0,x0,0	  x0:0x00000000
       32395000	      3238	80001e98	02a74463	blt	x14,x10,80001ec0	 x14:0x80009f2c x10:0xfffff986
       32405000	      3239	00000000	00000013	addi	x0,x0,0	  x0:0x00000000
       32415000	      3240	80001ebc	00000013	addi	x0,x0,0	  x0:0x00000000
       32425000	      3241	80001ec0	48547f13	andi	x30,x8,1157	  x8:0xffffffbe x30=0x00000484
       32435000	      3242	80001ec4	01bc93b3	sll	x7,x25,x27	 x25:0x000000e8 x27:0x200027cb  x7=0x00074000
       32445000	      3243	80001ec8	0455d663	bge	x11,x5,80001f14	 x11:0x00000028  x5:0x00000001
       32455000	      3244	00000000	00000013	addi	x0,x0,0	  x0:0x00000000
       32465000	      3245	80001f10	00000013	addi	x0,x0,0	  x0:0x00000000
       32475000	      3246	80001f14	45c4c313	xori	x6,x9,1116	  x9:0xffffffc8  x6=0xfffffb94
       32485000	      3247	80001f18	016ad593	srli	x11,x21,0x16	 x21:0x80009fc4 x11=0x00000200
       32495000	      3248	80001f1c	bd5b8213	addi	x4,x23,-1067	 x23:0xffffff81  x4=0xfffffb56
       32505000	      3249	80001f20	00225d33	srl	x26,x4,x2	  x4:0xfffffb56  x2:0x00000001 x26=0x7ffffdab
       32515000	      3250	80001f24	7138ed13	ori	x26,x17,1811	 x17:0x00000020 x26=0x00000733
       32525000	      3251	80001f28	006c2bb3	slt	x23,x24,x6	 x24:0x00000029  x6:0xfffffb94 x23=0x00000000
       32535000	      3252	80001f2c	05c75263	bge	x14,x28,80001f70	 x14:0x80009f2c x28:0x00000000
       32545000	      3253	80001f30	01d166b3	or	x13,x2,x29	  x2:0x00000001 x29:0x00000028 x13=0x00000029
       32555000	      3254	80001f34	009c79b3	and	x19,x24,x9	 x24:0x00000029  x9:0xffffffc8 x19=0x00000008
       32565000	      3255	80001f38	f3378d93	addi	x27,x15,-205	 x15:0xffffffbe x27=0xfffffef1
       32575000	      3256	80001f3c	00000013	addi	x0,x0,0	  x0:0x00000000
       32585000	      3257	80001f40	00a90463	beq	x18,x10,80001f48	 x18:0x80000000 x10:0xfffff986
       32595000	      3258	80001f44	2811f593	andi	x11,x3,641	  x3:0x00000000 x11=0x00000000
       32605000	      3259	80001f48	004df2b3	and	x5,x27,x4	 x27:0xfffffef1  x4:0xfffffb56  x5=0xfffffa50
       32615000	      3260	80001f4c	00000013	addi	x0,x0,0	  x0:0x00000000
       32625000	      3261	80001f50	05270613	addi	x12,x14,82	 x14:0x80009f2c x12=0x80009f7e
       32635000	      3262	80001f54	00b71f13	slli	x30,x14,0xb	 x14:0x80009f2c x30=0x04f96000
       32645000	      3263	80001f58	8ac09897	auipc	x17,0x8ac09	 x17=0x0ac0af54
       32655000	      3264	80001f5c	57306417	auipc	x8,0x57306	  x8=0xd7307f58
       32665000	      3265	80001f60	00cecdb3	xor	x27,x29,x12	 x29:0x00000028 x12:0x80009f7e x27=0x80009f56
       32675000	      3266	80001f64	044ae463	bltu	x21,x4,80001fac	 x21:0x80009fc4  x4:0xfffffb56
       32685000	      3267	00000000	00000013	addi	x0,x0,0	  x0:0x00000000
       32695000	      3268	80001fa8	00000013	addi	x0,x0,0	  x0:0x00000000
       32705000	      3269	80001fac	fde8b313	sltiu	x6,x17,-34	 x17:0x0ac0af54  x6=0x00000001
       32715000	      3270	80001fb0	01941c13	slli	x24,x8,0x19	  x8:0xd7307f58 x24=0xb0000000
       32725000	      3271	80001fb4	025fd463	bge	x31,x5,80001fdc	 x31:0x3fffb27f  x5:0xfffffa50
       32735000	      3272	00000000	00000013	addi	x0,x0,0	  x0:0x00000000
       32745000	      3273	80001fd8	00000013	addi	x0,x0,0	  x0:0x00000000
       32755000	      3274	80001fdc	40385193	srai	x3,x16,0x3	 x16:0x00000014  x3=0x00000002
       32765000	      3275	80001fe0	9bc22613	slti	x12,x4,-1604	  x4:0xfffffb56 x12=0x00000000
       32775000	      3276	80001fe4	2afcb313	sltiu	x6,x25,687	 x25:0x000000e8  x6=0x00000001
       32785000	      3277	80001fe8	361f4413	xori	x8,x30,865	 x30:0x04f96000  x8=0x04f96361
       32795000	      3278	80001fec	b8592613	slti	x12,x18,-1147	 x18:0x80000000 x12=0x00000001
       32805000	      3279	80001ff0	01cdd233	srl	x4,x27,x28	 x27:0x80009f56 x28:0x00000000  x4=0x80009f56
       32815000	      3280	80001ff4	0110dd13	srli	x26,x1,0x11	  x1:0x00000001 x26=0x00000000
       32825000	      3281	80001ff8	5edfcb93	xori	x23,x31,1517	 x31:0x3fffb27f x23=0x3fffb792
       32835000	      3282	80001ffc	01c75a63	bge	x14,x28,80002010	 x14:0x80009f2c x28:0x00000000
       32845000	      3283	80002000	008392b3	sll	x5,x7,x8	  x7:0x00074000  x8:0x04f96361  x5=0x000e8000
       32855000	      3284	80002004	caad6613	ori	x12,x26,-854	 x26:0x00000000 x12=0xfffffcaa
       32865000	      3285	80002008	01cd5993	srli	x19,x26,0x1c	 x26:0x00000000 x19=0x00000000
       32875000	      3286	8000200c	404f5a13	srai	x20,x30,0x4	 x30:0x04f96000 x20=0x004f9600
       32885000	      3287	80002010	051b0663	beq	x22,x17,8000205c	 x22:0x00000000 x17:0x0ac0af54
       32895000	      3288	80002014	38310c93	addi	x25,x2,899	  x2:0x00000001 x25=0x00000384
       32905000	      3289	80002018	322ffc13	andi	x24,x31,802	 x31:0x3fffb27f x24=0x00000222
       32915000	      3290	8000201c	009120b3	slt	x1,x2,x9	  x2:0x00000001  x9:0xffffffc8  x1=0x00000000
       32925000	      3291	80002020	00bf6133	or	x2,x30,x11	 x30:0x04f96000 x11:0x00000000  x2=0x04f96000
       32935000	      3292	80002024	17e68213	addi	x4,x13,382	 x13:0x00000029  x4=0x000001a7
       32945000	      3293	80002028	fcab8213	addi	x4,x23,-54	 x23:0x3fffb792  x4=0x3fffb75c
       32955000	      3294	8000202c	ef123513	sltiu	x10,x4,-271	  x4:0x3fffb75c x10=0x00000001
       32965000	      3295	80002030	00000013	addi	x0,x0,0	  x0:0x00000000
       32975000	      3296	80002034	00000013	addi	x0,x0,0	  x0:0x00000000
       32985000	      3297	80002038	01be9863	bne	x29,x27,80002048	 x29:0x00000028 x27:0x80009f56
       32995000	      3298	00000000	00000013	addi	x0,x0,0	  x0:0x00000000
       33005000	      3299	80002044	00000013	addi	x0,x0,0	  x0:0x00000000
       33015000	      3300	80002048	0110afb3	slt	x31,x1,x17	  x1:0x00000000 x17:0x0ac0af54 x31=0x00000001
       33025000	      3301	8000204c	00506f33	or	x30,x0,x5	  x0:0x00000000  x5:0x000e8000 x30=0x000e8000
       33035000	      3302	80002050	02cbf063	bgeu	x23,x12,80002070	 x23:0x3fffb792 x12:0xfffffcaa
       33045000	      3303	80002054	98597e37	lui	x28,0x98597	 x28=0x98597000
       33055000	      3304	80002058	01a75013	srli	x0,x14,0x1a	 x14:0x80009f2c
       33065000	      3305	8000205c	44e82213	slti	x4,x16,1102	 x16:0x00000014  x4=0x00000001
       33075000	      3306	80002060	009adeb3	srl	x29,x21,x9	 x21:0x80009fc4  x9:0xffffffc8 x29=0x0080009f
       33085000	      3307	80002064	8c660b93	addi	x23,x12,-1850	 x12:0xfffffcaa x23=0xfffff570
       33095000	      3308	80002068	00233e33	sltu	x28,x6,x2	  x6:0x00000001  x2:0x04f96000 x28=0x00000001
       33105000	      3309	8000206c	00000013	addi	x0,x0,0	  x0:0x00000000
       33115000	      3310	80002070	02140863	beq	x8,x1,800020a0	  x8:0x04f96361  x1:0x00000000
       33125000	      3311	80002074	01214663	blt	x2,x18,80002080	  x2:0x04f96000 x18:0x80000000
       33135000	      3312	80002078	c9e32e13	slti	x28,x6,-866	  x6:0x00000001 x28=0x00000000
       33145000	      3313	8000207c	0039d893	srli	x17,x19,0x3	 x19:0x00000000 x17=0x00000000
       33155000	      3314	80002080	02d34063	blt	x6,x13,800020a0	  x6:0x00000001 x13:0x00000029
       33165000	      3315	00000000	00000013	addi	x0,x0,0	  x0:0x00000000
       33175000	      3316	8000209c	00000013	addi	x0,x0,0	  x0:0x00000000
       33185000	      3317	800020a0	04277463	bgeu	x14,x2,800020e8	 x14:0x80009f2c  x2:0x04f96000
       33195000	      3318	00000000	00000013	addi	x0,x0,0	  x0:0x00000000
       33205000	      3319	800020e4	00000013	addi	x0,x0,0	  x0:0x00000000
       33215000	      3320	800020e8	00519cb3	sll	x25,x3,x5	  x3:0x00000002  x5:0x000e8000 x25=0x00000002
       33225000	      3321	800020ec	048b8663	beq	x23,x8,80002138	 x23:0xfffff570  x8:0x04f96361
       33235000	      3322	800020f0	00000013	addi	x0,x0,0	  x0:0x00000000
       33245000	      3323	800020f4	55bb2813	slti	x16,x22,1371	 x22:0x00000000 x16=0x00000001
       33255000	      3324	800020f8	0114fc33	and	x24,x9,x17	  x9:0xffffffc8 x17:0x00000000 x24=0x00000000
       33265000	      3325	800020fc	f2ddd0b7	lui	x1,0xf2ddd	  x1=0xf2ddd000
       33275000	      3326	80002100	00ee2833	slt	x16,x28,x14	 x28:0x00000000 x14:0x80009f2c x16=0x00000000
       33285000	      3327	80002104	4a68f293	andi	x5,x17,1190	 x17:0x00000000  x5=0x00000000
       33295000	      3328	80002108	002d9113	slli	x2,x27,0x2	 x27:0x80009f56  x2=0x00027d58
       33305000	      3329	8000210c	0351d463	bge	x3,x21,80002134	  x3:0x00000002 x21:0x80009fc4
       33315000	      3330	00000000	00000013	addi	x0,x0,0	  x0:0x00000000
       33325000	      3331	80002130	00000013	addi	x0,x0,0	  x0:0x00000000
       33335000	      3332	80002134	006c6e63	bltu	x24,x6,80002150	 x24:0x00000000  x6:0x00000001
       33345000	      3333	00000000	00000013	addi	x0,x0,0	  x0:0x00000000
       33355000	      3334	8000214c	00000013	addi	x0,x0,0	  x0:0x00000000
       33365000	      3335	80002150	4991bc13	sltiu	x24,x3,1177	  x3:0x00000002 x24=0x00000001
       33375000	      3336	80002154	01db3b33	sltu	x22,x22,x29	 x22:0x00000000 x29:0x0080009f x22=0x00000001
       33385000	      3337	80002158	00b19d33	sll	x26,x3,x11	  x3:0x00000002 x11:0x00000000 x26=0x00000002
       33395000	      3338	8000215c	e4a8cf93	xori	x31,x17,-438	 x17:0x00000000 x31=0xfffffe4a
       33405000	      3339	80002160	99be2493	slti	x9,x28,-1637	 x28:0x00000000  x9=0x00000000
       33415000	      3340	80002164	e5804693	xori	x13,x0,-424	  x0:0x00000000 x13=0xfffffe58
       33425000	      3341	80002168	009df4b3	and	x9,x27,x9	 x27:0x80009f56  x9:0x00000000  x9=0x00000000
       33435000	      3342	8000216c	40d7d0b3	sra	x1,x15,x13	 x15:0xffffffbe x13:0xfffffe58  x1=0xffffffff
       33445000	      3343	80002170	01d01e93	slli	x29,x0,0x1d	  x0:0x00000000 x29=0x00000000
       33455000	      3344	80002174	00dd64b3	or	x9,x26,x13	 x26:0x00000002 x13:0xfffffe58  x9=0xfffffe5a
       33465000	      3345	80002178	0060dfb3	srl	x31,x1,x6	  x1:0xffffffff  x6:0x00000001 x31=0x7fffffff
       33475000	      3346	8000217c	a2bd3cb7	lui	x25,0xa2bd3	 x25=0xa2bd3000
       33485000	      3347	80002180	01579493	slli	x9,x15,0x15	 x15:0xffffffbe  x9=0xf7c00000
       33495000	      3348	80002184	526bcf93	xori	x31,x23,1318	 x23:0xfffff570 x31=0xfffff056
       33505000	      3349	80002188	1f704093	xori	x1,x0,503	  x0:0x00000000  x1=0x000001f7
       33515000	      3350	8000218c	417bde93	srai	x29,x23,0x17	 x23:0xfffff570 x29=0xffffffff
       33525000	      3351	80002190	414f5093	srai	x1,x30,0x14	 x30:0x000e8000  x1=0x00000000
       33535000	      3352	80002194	00814133	xor	x2,x2,x8	  x2:0x00027d58  x8:0x04f96361  x2=0x04fb1e39
       33545000	      3353	80002198	0137f463	bgeu	x15,x19,800021a0	 x15:0xffffffbe x19:0x00000000
       33555000	      3354	00000000	00000013	addi	x0,x0,0	  x0:0x00000000
       33565000	      3355	8000219c	00000013	addi	x0,x0,0	  x0:0x00000000
       33575000	      3356	800021a0	7b08a393	slti	x7,x17,1968	 x17:0x00000000  x7=0x00000001
       33585000	      3357	800021a4	0038c9b3	xor	x19,x17,x3	 x17:0x00000000  x3:0x00000002 x19=0x00000002
       33595000	      3358	800021a8	00b26cb3	or	x25,x4,x11	  x4:0x00000001 x11:0x00000000 x25=0x00000001
       33605000	      3359	800021ac	00000013	addi	x0,x0,0	  x0:0x00000000
       33615000	      3360	800021b0	41545cb3	sra	x25,x8,x21	  x8:0x04f96361 x21:0x80009fc4 x25=0x004f9636
       33625000	      3361	800021b4	0102e263	bltu	x5,x16,800021b8	  x5:0x00000000 x16:0x00000000
       33635000	      3362	800021b8	63da99b7	lui	x19,0x63da9	 x19=0x63da9000
       33645000	      3363	800021bc	04e5e663	bltu	x11,x14,80002208	 x11:0x00000000 x14:0x80009f2c
       33655000	      3364	00000000	00000013	addi	x0,x0,0	  x0:0x00000000
       33665000	      3365	80002204	00000013	addi	x0,x0,0	  x0:0x00000000
       33675000	      3366	80002208	05ab9263	bne	x23,x26,8000224c	 x23:0xfffff570 x26:0x00000002
       33685000	      3367	00000000	00000013	addi	x0,x0,0	  x0:0x00000000
       33695000	      3368	80002248	00000013	addi	x0,x0,0	  x0:0x00000000
       33705000	      3369	8000224c	011bde33	srl	x28,x23,x17	 x23:0xfffff570 x17:0x00000000 x28=0xfffff570
       33715000	      3370	80002250	4118d533	sra	x10,x17,x17	 x17:0x00000000 x17:0x00000000 x10=0x00000000
       33725000	      3371	80002254	00000013	addi	x0,x0,0	  x0:0x00000000
       33735000	      3372	80002258	40715013	srai	x0,x2,0x7	  x2:0x04fb1e39
       33745000	      3373	8000225c	016074b3	and	x9,x0,x22	  x0:0x00000000 x22:0x00000001  x9=0x00000000
       33755000	      3374	80002260	009e2fb3	slt	x31,x28,x9	 x28:0xfffff570  x9:0x00000000 x31=0x00000001
       33765000	      3375	80002264	95e7ca13	xori	x20,x15,-1698	 x15:0xffffffbe x20=0x000006e0
       33775000	      3376	80002268	01c69533	sll	x10,x13,x28	 x13:0xfffffe58 x28:0xfffff570 x10=0xfe580000
       33785000	      3377	8000226c	05081463	bne	x16,x16,800022b4	 x16:0x00000000 x16:0x00000000
       33795000	      3378	80002270	7e97cf93	xori	x31,x15,2025	 x15:0xffffffbe x31=0xfffff857
       33805000	      3379	80002274	00d8f4b3	and	x9,x17,x13	 x17:0x00000000 x13:0xfffffe58  x9=0x00000000
       33815000	      3380	80002278	4108d313	srai	x6,x17,0x10	 x17:0x00000000  x6=0x00000000
       33825000	      3381	8000227c	009fc133	xor	x2,x31,x9	 x31:0xfffff857  x9:0x00000000  x2=0xfffff857
       33835000	      3382	80002280	bb6b2813	slti	x16,x22,-1098	 x22:0x00000001 x16=0x00000000
       33845000	      3383	80002284	01559133	sll	x2,x11,x21	 x11:0x00000000 x21:0x80009fc4  x2=0x00000000
       33855000	      3384	80002288	02d50a63	beq	x10,x13,800022bc	 x10:0xfe580000 x13:0xfffffe58
       33865000	      3385	8000228c	55173b93	sltiu	x23,x14,1361	 x14:0x80009f2c x23=0x00000000
       33875000	      3386	80002290	f34d6093	ori	x1,x26,-204	 x26:0x00000002  x1=0xffffff36
       33885000	      3387	80002294	00605863	bge	x0,x6,800022a4	  x0:0x00000000  x6:0x00000000
       33895000	      3388	00000000	00000013	addi	x0,x0,0	  x0:0x00000000
       33905000	      3389	800022a0	00000013	addi	x0,x0,0	  x0:0x00000000
       33915000	      3390	800022a4	00199313	slli	x6,x19,0x1	 x19:0x63da9000  x6=0xc7b52000
       33925000	      3391	800022a8	00aa0a63	beq	x20,x10,800022bc	 x20:0x000006e0 x10:0xfe580000
       33935000	      3392	800022ac	415e5c13	srai	x24,x28,0x15	 x28:0xfffff570 x24=0xffffffff
       33945000	      3393	800022b0	04399863	bne	x19,x3,80002300	 x19:0x63da9000  x3:0x00000002
       33955000	      3394	00000000	00000013	addi	x0,x0,0	  x0:0x00000000
       33965000	      3395	800022fc	00000013	addi	x0,x0,0	  x0:0x00000000
       33975000	      3396	80002300	01f71c13	slli	x24,x14,0x1f	 x14:0x80009f2c x24=0x00000000
       33985000	      3397	80002304	01a39d33	sll	x26,x7,x26	  x7:0x00000001 x26:0x00000002 x26=0x00000004
       33995000	      3398	80002308	0082c2b3	xor	x5,x5,x8	  x5:0x00000000  x8:0x04f96361  x5=0x04f96361
       34005000	      3399	8000230c	025d4863	blt	x26,x5,8000233c	 x26:0x00000004  x5:0x04f96361
       34015000	      3400	00000000	00000013	addi	x0,x0,0	  x0:0x00000000
       34025000	      3401	80002338	00000013	addi	x0,x0,0	  x0:0x00000000
       34035000	      3402	8000233c	62655537	lui	x10,0x62655	 x10=0x62655000
       34045000	      3403	80002340	6611ed13	ori	x26,x3,1633	  x3:0x00000002 x26=0x00000663
       34055000	      3404	80002344	012d4f33	xor	x30,x26,x18	 x26:0x00000663 x18:0x80000000 x30=0x80000663
       34065000	      3405	80002348	db6e4817	auipc	x16,0xdb6e4	 x16=0x5b6e6344
       34075000	      3406	8000234c	744a8097	auipc	x1,0x744a8	  x1=0xf44aa348
       34085000	      3407	80002350	001cde33	srl	x28,x25,x1	 x25:0x004f9636  x1:0xf44aa348 x28=0x00004f96
       34095000	      3408	80002354	004f1233	sll	x4,x30,x4	 x30:0x80000663  x4:0x00000001  x4=0x00000cc6
       34105000	      3409	80002358	03ed9a63	bne	x27,x30,8000238c	 x27:0x80009f56 x30:0x80000663
       34115000	      3410	00000000	00000013	addi	x0,x0,0	  x0:0x00000000
       34125000	      3411	80002388	00000013	addi	x0,x0,0	  x0:0x00000000
       34135000	      3412	8000238c	40410eb3	sub	x29,x2,x4	  x2:0x00000000  x4:0x00000cc6 x29=0xfffff33a
       34145000	      3413	80002390	0049d113	srli	x2,x19,0x4	 x19:0x63da9000  x2=0x063da900
       34155000	      3414	80002394	0285e063	bltu	x11,x8,800023b4	 x11:0x00000000  x8:0x04f96361
       34165000	      3415	00000000	00000013	addi	x0,x0,0	  x0:0x00000000
       34175000	      3416	800023b0	00000013	addi	x0,x0,0	  x0:0x00000000
       34185000	      3417	800023b4	00ccbf33	sltu	x30,x25,x12	 x25:0x004f9636 x12:0xfffffcaa x30=0x00000001
       34195000	      3418	800023b8	04061663	bne	x12,x0,80002404	 x12:0xfffffcaa  x0:0x00000000
       34205000	      3419	00000000	00000013	addi	x0,x0,0	  x0:0x00000000
       34215000	      3420	80002400	00000013	addi	x0,x0,0	  x0:0x00000000
       34225000	      3421	80002404	93827493	andi	x9,x4,-1736	  x4:0x00000cc6  x9=0x00000800
       34235000	      3422	80002408	98987993	andi	x19,x16,-1655	 x16:0x5b6e6344 x19=0x5b6e6100
       34245000	      3423	8000240c	409b5533	sra	x10,x22,x9	 x22:0x00000001  x9:0x00000800 x10=0x00000001
       34255000	      3424	80002410	ba947013	andi	x0,x8,-1111	  x8:0x04f96361
       34265000	      3425	80002414	02015a63	bge	x2,x0,80002448	  x2:0x063da900  x0:0x00000000
       34275000	      3426	00000000	00000013	addi	x0,x0,0	  x0:0x00000000
       34285000	      3427	80002444	00000013	addi	x0,x0,0	  x0:0x00000000
       34295000	      3428	80002448	04d40463	beq	x8,x13,80002490	  x8:0x04f96361 x13:0xfffffe58
       34305000	      3429	8000244c	010bda63	bge	x23,x16,80002460	 x23:0x00000000 x16:0x5b6e6344
       34315000	      3430	80002450	0146ad33	slt	x26,x13,x20	 x13:0xfffffe58 x20:0x000006e0 x26=0x00000001
       34325000	      3431	80002454	00a1c233	xor	x4,x3,x10	  x3:0x00000002 x10:0x00000001  x4=0x00000003
       34335000	      3432	80002458	402887b3	sub	x15,x17,x2	 x17:0x00000000  x2:0x063da900 x15=0xf9c25700
       34345000	      3433	8000245c	e03b7a13	andi	x20,x22,-509	 x22:0x00000001 x20=0x00000001
       34355000	      3434	80002460	00258133	add	x2,x11,x2	 x11:0x00000000  x2:0x063da900  x2=0x063da900
       34365000	      3435	80002464	40eb8633	sub	x12,x23,x14	 x23:0x00000000 x14:0x80009f2c x12=0x7fff60d4
       34375000	      3436	80002468	76a12393	slti	x7,x2,1898	  x2:0x063da900  x7=0x00000000
       34385000	      3437	8000246c	0114e633	or	x12,x9,x17	  x9:0x00000800 x17:0x00000000 x12=0x00000800
       34395000	      3438	80002470	019fd033	srl	x0,x31,x25	 x31:0xfffff857 x25:0x004f9636
       34405000	      3439	80002474	00410233	add	x4,x2,x4	  x2:0x063da900  x4:0x00000003  x4=0x063da903
       34415000	      3440	80002478	00c86cb3	or	x25,x16,x12	 x16:0x5b6e6344 x12:0x00000800 x25=0x5b6e6b44
       34425000	      3441	8000247c	1ebe3d93	sltiu	x27,x28,491	 x28:0x00004f96 x27=0x00000000
       34435000	      3442	80002480	411b87b3	sub	x15,x23,x17	 x23:0x00000000 x17:0x00000000 x15=0x00000000
       34445000	      3443	80002484	040f4463	blt	x30,x0,800024cc	 x30:0x00000001  x0:0x00000000
       34455000	      3444	80002488	04501263	bne	x0,x5,800024cc	  x0:0x00000000  x5:0x04f96361
       34465000	      3445	00000000	00000013	addi	x0,x0,0	  x0:0x00000000
       34475000	      3446	800024c8	00000013	addi	x0,x0,0	  x0:0x00000000
       34485000	      3447	800024cc	00669393	slli	x7,x13,0x6	 x13:0xfffffe58  x7=0xffff9600
       34495000	      3448	800024d0	160a3b93	sltiu	x23,x20,352	 x20:0x00000001 x23=0x00000001
       34505000	      3449	800024d4	6bc0bb93	sltiu	x23,x1,1724	  x1:0xf44aa348 x23=0x00000000
       34515000	      3450	800024d8	0d512213	slti	x4,x2,213	  x2:0x063da900  x4=0x00000000
       34525000	      3451	800024dc	ee0d04b7	lui	x9,0xee0d0	  x9=0xee0d0000
       34535000	      3452	800024e0	40dd03b3	sub	x7,x26,x13	 x26:0x00000001 x13:0xfffffe58  x7=0x000001a9
       34545000	      3453	800024e4	0031db33	srl	x22,x3,x3	  x3:0x00000002  x3:0x00000002 x22=0x00000000
       34555000	      3454	800024e8	010107b3	add	x15,x2,x16	  x2:0x063da900 x16:0x5b6e6344 x15=0x61ac0c44
       34565000	      3455	800024ec	002fd033	srl	x0,x31,x2	 x31:0xfffff857  x2:0x063da900
       34575000	      3456	800024f0	16014b93	xori	x23,x2,352	  x2:0x063da900 x23=0x063da860
       34585000	      3457	800024f4	016d5693	srli	x13,x26,0x16	 x26:0x00000001 x13=0x00000000
       34595000	      3458	800024f8	dc307793	andi	x15,x0,-573	  x0:0x00000000 x15=0x00000000
       34605000	      3459	800024fc	02a3e863	bltu	x7,x10,8000252c	  x7:0x000001a9 x10:0x00000001
       34615000	      3460	80002500	0004f9b3	and	x19,x9,x0	  x9:0xee0d0000  x0:0x00000000 x19=0x00000000
       34625000	      3461	80002504	012995b3	sll	x11,x19,x18	 x19:0x00000000 x18:0x80000000 x11=0x00000000
       34635000	      3462	80002508	00d2da63	bge	x5,x13,8000251c	  x5:0x04f96361 x13:0x00000000
       34645000	      3463	00000000	00000013	addi	x0,x0,0	  x0:0x00000000
       34655000	      3464	80002518	00000013	addi	x0,x0,0	  x0:0x00000000
       34665000	      3465	8000251c	413e56b3	sra	x13,x28,x19	 x28:0x00004f96 x19:0x00000000 x13=0x00004f96
       34675000	      3466	80002520	00000013	addi	x0,x0,0	  x0:0x00000000
       34685000	      3467	80002524	00bfbdb3	sltu	x27,x31,x11	 x31:0xfffff857 x11:0x00000000 x27=0x00000000
       34695000	      3468	80002528	01f96fb3	or	x31,x18,x31	 x18:0x80000000 x31:0xfffff857 x31=0xfffff857
       34705000	      3469	8000252c	46ba6c13	ori	x24,x20,1131	 x20:0x00000001 x24=0x0000046b
       34715000	      3470	80002530	05931463	bne	x6,x25,80002578	  x6:0xc7b52000 x25:0x5b6e6b44
       34725000	      3471	00000000	00000013	addi	x0,x0,0	  x0:0x00000000
       34735000	      3472	80002574	00000013	addi	x0,x0,0	  x0:0x00000000
       34745000	      3473	80002578	41d4dc93	srai	x25,x9,0x1d	  x9:0xee0d0000 x25=0xffffffff
       34755000	      3474	8000257c	27f12293	slti	x5,x2,639	  x2:0x063da900  x5=0x00000000
       34765000	      3475	80002580	02b68063	beq	x13,x11,800025a0	 x13:0x00004f96 x11:0x00000000
       34775000	      3476	80002584	00c39533	sll	x10,x7,x12	  x7:0x000001a9 x12:0x00000800 x10=0x000001a9
       34785000	      3477	80002588	012f0533	add	x10,x30,x18	 x30:0x00000001 x18:0x80000000 x10=0x80000001
       34795000	      3478	8000258c	ce619d17	auipc	x26,0xce619	 x26=0x4e61b588
       34805000	      3479	80002590	409187b3	sub	x15,x3,x9	  x3:0x00000002  x9:0xee0d0000 x15=0x11f30002
       34815000	      3480	80002594	ba90e693	ori	x13,x1,-1111	  x1:0xf44aa348 x13=0xfffffbe9
       34825000	      3481	80002598	0017f3b3	and	x7,x15,x1	 x15:0x11f30002  x1:0xf44aa348  x7=0x10420000
       34835000	      3482	8000259c	01ccdb13	srli	x22,x25,0x1c	 x25:0xffffffff x22=0x0000000f
       34845000	      3483	800025a0	01e0fe63	bgeu	x1,x30,800025bc	  x1:0xf44aa348 x30:0x00000001
       34855000	      3484	00000000	00000013	addi	x0,x0,0	  x0:0x00000000
       34865000	      3485	800025b8	00000013	addi	x0,x0,0	  x0:0x00000000
       34875000	      3486	800025bc	001f51b3	srl	x3,x30,x1	 x30:0x00000001  x1:0xf44aa348  x3=0x00000000
       34885000	      3487	800025c0	026d6a63	bltu	x26,x6,800025f4	 x26:0x4e61b588  x6:0xc7b52000
       34895000	      3488	00000000	00000013	addi	x0,x0,0	  x0:0x00000000
       34905000	      3489	800025f0	00000013	addi	x0,x0,0	  x0:0x00000000
       34915000	      3490	800025f4	0279fa63	bgeu	x19,x7,80002628	 x19:0x00000000  x7:0x10420000
       34925000	      3491	800025f8	71352e37	lui	x28,0x71352	 x28=0x71352000
       34935000	      3492	800025fc	40e98fb3	sub	x31,x19,x14	 x19:0x00000000 x14:0x80009f2c x31=0x7fff60d4
       34945000	      3493	80002600	025af463	bgeu	x21,x5,80002628	 x21:0x80009fc4  x5:0x00000000
       34955000	      3494	00000000	00000013	addi	x0,x0,0	  x0:0x00000000
       34965000	      3495	80002624	00000013	addi	x0,x0,0	  x0:0x00000000
       34975000	      3496	80002628	8bc86d13	ori	x26,x16,-1860	 x16:0x5b6e6344 x26=0xfffffbfc
       34985000	      3497	8000262c	019d1cb3	sll	x25,x26,x25	 x26:0xfffffbfc x25:0xffffffff x25=0x00000000
       34995000	      3498	80002630	44bcddb7	lui	x27,0x44bcd	 x27=0x44bcd000
       35005000	      3499	80002634	041f0663	beq	x30,x1,80002680	 x30:0x00000001  x1:0xf44aa348
       35015000	      3500	80002638	01f4a7b3	slt	x15,x9,x31	  x9:0xee0d0000 x31:0x7fff60d4 x15=0x00000001
       35025000	      3501	8000263c	a06d3c93	sltiu	x25,x26,-1530	 x26:0xfffffbfc x25=0x00000000
       35035000	      3502	80002640	034e5863	bge	x28,x20,80002670	 x28:0x71352000 x20:0x00000001
       35045000	      3503	00000000	00000013	addi	x0,x0,0	  x0:0x00000000
       35055000	      3504	8000266c	00000013	addi	x0,x0,0	  x0:0x00000000
       35065000	      3505	80002670	00739f33	sll	x30,x7,x7	  x7:0x10420000  x7:0x10420000 x30=0x10420000
       35075000	      3506	80002674	16efcb13	xori	x22,x31,366	 x31:0x7fff60d4 x22=0x7fff61ba
       35085000	      3507	80002678	074bcf93	xori	x31,x23,116	 x23:0x063da860 x31=0x063da814
       35095000	      3508	8000267c	014baa33	slt	x20,x23,x20	 x23:0x063da860 x20:0x00000001 x20=0x00000000
       35105000	      3509	80002680	018ed513	srli	x10,x29,0x18	 x29:0xfffff33a x10=0x000000ff
       35115000	      3510	80002684	013f1bb3	sll	x23,x30,x19	 x30:0x10420000 x19:0x00000000 x23=0x10420000
       35125000	      3511	80002688	40098cb3	sub	x25,x19,x0	 x19:0x00000000  x0:0x00000000 x25=0x00000000
       35135000	      3512	8000268c	00000013	addi	x0,x0,0	  x0:0x00000000
       35145000	      3513	80002690	40340e33	sub	x28,x8,x3	  x8:0x04f96361  x3:0x00000000 x28=0x04f96361
       35155000	      3514	80002694	40b6dbb3	sra	x23,x13,x11	 x13:0xfffffbe9 x11:0x00000000 x23=0xfffffbe9
       35165000	      3515	80002698	41bed313	srai	x6,x29,0x1b	 x29:0xfffff33a  x6=0xffffffff
       35175000	      3516	8000269c	93708793	addi	x15,x1,-1737	  x1:0xf44aa348 x15=0xf44a9c7f
       35185000	      3517	800026a0	00885263	bge	x16,x8,800026a4	 x16:0x5b6e6344  x8:0x04f96361
       35195000	      3518	00000000	00000013	addi	x0,x0,0	  x0:0x00000000
       35205000	      3519	800026a0	00000013	addi	x0,x0,0	  x0:0x00000000
       35215000	      3520	800026a4	000c9693	slli	x13,x25,0x0	 x25:0x00000000 x13=0x00000000
       35225000	      3521	800026a8	e75c4693	xori	x13,x24,-395	 x24:0x0000046b x13=0xfffffa1e
       35235000	      3522	800026ac	159eaa13	slti	x20,x29,345	 x29:0xfffff33a x20=0x00000001
       35245000	      3523	800026b0	3a6c8793	addi	x15,x25,934	 x25:0x00000000 x15=0x000003a6
       35255000	      3524	800026b4	4366ce93	xori	x29,x13,1078	 x13:0xfffffa1e x29=0xfffffe28
       35265000	      3525	800026b8	00579093	slli	x1,x15,0x5	 x15:0x000003a6  x1=0x000074c0
       35275000	      3526	800026bc	7d0fb037	lui	x0,0x7d0fb	
       35285000	      3527	800026c0	bad36893	ori	x17,x6,-1107	  x6:0xffffffff x17=0xffffffff
       35295000	      3528	800026c4	00000013	addi	x0,x0,0	  x0:0x00000000
       35305000	      3529	800026c8	d987a493	slti	x9,x15,-616	 x15:0x000003a6  x9=0x00000000
       35315000	      3530	800026cc	407fd093	srai	x1,x31,0x7	 x31:0x063da814  x1=0x000c7b50
       35325000	      3531	800026d0	05fb4663	blt	x22,x31,8000271c	 x22:0x7fff61ba x31:0x063da814
       35335000	      3532	800026d4	40ba56b3	sra	x13,x20,x11	 x20:0x00000001 x11:0x00000000 x13=0x00000001
       35345000	      3533	800026d8	096e0f13	addi	x30,x28,150	 x28:0x04f96361 x30=0x04f963f7
       35355000	      3534	800026dc	020d9863	bne	x27,x0,8000270c	 x27:0x44bcd000  x0:0x00000000
       35365000	      3535	00000000	00000013	addi	x0,x0,0	  x0:0x00000000
       35375000	      3536	80002708	00000013	addi	x0,x0,0	  x0:0x00000000
       35385000	      3537	8000270c	006aa533	slt	x10,x21,x6	 x21:0x80009fc4  x6:0xffffffff x10=0x00000001
       35395000	      3538	80002710	13ad6693	ori	x13,x26,314	 x26:0xfffffbfc x13=0xfffffbfe
       35405000	      3539	80002714	018b7cb3	and	x25,x22,x24	 x22:0x7fff61ba x24:0x0000046b x25=0x0000002a
       35415000	      3540	80002718	fef10d13	addi	x26,x2,-17	  x2:0x063da900 x26=0x063da8ef
       35425000	      3541	8000271c	02f09663	bne	x1,x15,80002748	  x1:0x000c7b50 x15:0x000003a6
       35435000	      3542	00000000	00000013	addi	x0,x0,0	  x0:0x00000000
       35445000	      3543	80002744	00000013	addi	x0,x0,0	  x0:0x00000000
       35455000	      3544	80002748	00d7ea63	bltu	x15,x13,8000275c	 x15:0x000003a6 x13:0xfffffbfe
       35465000	      3545	00000000	00000013	addi	x0,x0,0	  x0:0x00000000
       35475000	      3546	80002758	00000013	addi	x0,x0,0	  x0:0x00000000
       35485000	      3547	8000275c	db990437	lui	x8,0xdb990	  x8=0xdb990000
       35495000	      3548	80002760	01da9fb3	sll	x31,x21,x29	 x21:0x80009fc4 x29:0xfffffe28 x31=0x009fc400
       35505000	      3549	80002764	005ecfb3	xor	x31,x29,x5	 x29:0xfffffe28  x5:0x00000000 x31=0xfffffe28
       35515000	      3550	80002768	00087c33	and	x24,x16,x0	 x16:0x5b6e6344  x0:0x00000000 x24=0x00000000
       35525000	      3551	8000276c	0009f333	and	x6,x19,x0	 x19:0x00000000  x0:0x00000000  x6=0x00000000
       35535000	      3552	80002770	89ac3c37	lui	x24,0x89ac3	 x24=0x89ac3000
       35545000	      3553	80002774	01ab7033	and	x0,x22,x26	 x22:0x7fff61ba x26:0x063da8ef
       35555000	      3554	80002778	17520c93	addi	x25,x4,373	  x4:0x00000000 x25=0x00000175
       35565000	      3555	8000277c	00c15f93	srli	x31,x2,0xc	  x2:0x063da900 x31=0x000063da
       35575000	      3556	80002780	023d8863	beq	x27,x3,800027b0	 x27:0x44bcd000  x3:0x00000000
       35585000	      3557	80002784	41dc5493	srai	x9,x24,0x1d	 x24:0x89ac3000  x9=0xfffffffc
       35595000	      3558	80002788	fd557893	andi	x17,x10,-43	 x10:0x00000001 x17=0x00000001
       35605000	      3559	8000278c	afc4c137	lui	x2,0xafc4c	  x2=0xafc4c000
       35615000	      3560	80002790	415e82b3	sub	x5,x29,x21	 x29:0xfffffe28 x21:0x80009fc4  x5=0x7fff5e64
       35625000	      3561	80002794	008d5993	srli	x19,x26,0x8	 x26:0x063da8ef x19=0x00063da8
       35635000	      3562	80002798	94c2a413	slti	x8,x5,-1716	  x5:0x7fff5e64  x8=0x00000000
       35645000	      3563	8000279c	02196863	bltu	x18,x1,800027cc	 x18:0x80000000  x1:0x000c7b50
       35655000	      3564	800027a0	00000013	addi	x0,x0,0	  x0:0x00000000
       35665000	      3565	800027a4	02e0d063	bge	x1,x14,800027c4	  x1:0x000c7b50 x14:0x80009f2c
       35675000	      3566	00000000	00000013	addi	x0,x0,0	  x0:0x00000000
       35685000	      3567	800027c0	00000013	addi	x0,x0,0	  x0:0x00000000
       35695000	      3568	800027c4	df7e2c93	slti	x25,x28,-521	 x28:0x04f96361 x25=0x00000000
       35705000	      3569	800027c8	6ec62a13	slti	x20,x12,1772	 x12:0x00000800 x20=0x00000000
       35715000	      3570	800027cc	0057c1b3	xor	x3,x15,x5	 x15:0x000003a6  x5:0x7fff5e64  x3=0x7fff5dc2
       35725000	      3571	800027d0	7637ad93	slti	x27,x15,1891	 x15:0x000003a6 x27=0x00000001
       35735000	      3572	800027d4	85880d13	addi	x26,x16,-1960	 x16:0x5b6e6344 x26=0x5b6e5b9c
       35745000	      3573	800027d8	0073e0b3	or	x1,x7,x7	  x7:0x10420000  x7:0x10420000  x1=0x10420000
       35755000	      3574	800027dc	01369813	slli	x16,x13,0x13	 x13:0xfffffbfe x16=0xdff00000
       35765000	      3575	800027e0	01b46eb3	or	x29,x8,x27	  x8:0x00000000 x27:0x00000001 x29=0x00000001
       35775000	      3576	800027e4	01142f33	slt	x30,x8,x17	  x8:0x00000000 x17:0x00000001 x30=0x00000001
       35785000	      3577	800027e8	034b1a63	bne	x22,x20,8000281c	 x22:0x7fff61ba x20:0x00000000
       35795000	      3578	00000000	00000013	addi	x0,x0,0	  x0:0x00000000
       35805000	      3579	80002818	00000013	addi	x0,x0,0	  x0:0x00000000
       35815000	      3580	8000281c	01e65e33	srl	x28,x12,x30	 x12:0x00000800 x30:0x00000001 x28=0x00000400
       35825000	      3581	80002820	2c94f313	andi	x6,x9,713	  x9:0xfffffffc  x6=0x000002c8
       35835000	      3582	80002824	001bc433	xor	x8,x23,x1	 x23:0xfffffbe9  x1:0x10420000  x8=0xefbdfbe9
       35845000	      3583	80002828	4e89e013	ori	x0,x19,1256	 x19:0x00063da8
       35855000	      3584	8000282c	4bdb8313	addi	x6,x23,1213	 x23:0xfffffbe9  x6=0x000000a6
       35865000	      3585	80002830	00904a33	xor	x20,x0,x9	  x0:0x00000000  x9:0xfffffffc x20=0xfffffffc
       35875000	      3586	80002834	84a83693	sltiu	x13,x16,-1974	 x16:0xdff00000 x13=0x00000001
       35885000	      3587	80002838	00bb1463	bne	x22,x11,80002840	 x22:0x7fff61ba x11:0x00000000
       35895000	      3588	00000000	00000013	addi	x0,x0,0	  x0:0x00000000
       35905000	      3589	8000283c	00000013	addi	x0,x0,0	  x0:0x00000000
       35915000	      3590	80002840	0101c9b3	xor	x19,x3,x16	  x3:0x7fff5dc2 x16:0xdff00000 x19=0xa00f5dc2
       35925000	      3591	80002844	a7d24293	xori	x5,x4,-1411	  x4:0x00000000  x5=0xfffffa7d
       35935000	      3592	80002848	01127433	and	x8,x4,x17	  x4:0x00000000 x17:0x00000001  x8=0x00000000
       35945000	      3593	8000284c	1792cc17	auipc	x24,0x1792c	 x24=0x9792e848
       35955000	      3594	80002850	00fc9693	slli	x13,x25,0xf	 x25:0x00000000 x13=0x00000000
       35965000	      3595	80002854	cbf70693	addi	x13,x14,-833	 x14:0x80009f2c x13=0x80009beb
       35975000	      3596	80002858	01ef8f33	add	x30,x31,x30	 x31:0x000063da x30:0x00000001 x30=0x000063db
       35985000	      3597	8000285c	01e225b3	slt	x11,x4,x30	  x4:0x00000000 x30:0x000063db x11=0x00000001
       35995000	      3598	80002860	00939493	slli	x9,x7,0x9	  x7:0x10420000  x9=0x84000000
       36005000	      3599	80002864	00a86a33	or	x20,x16,x10	 x16:0xdff00000 x10:0x00000001 x20=0xdff00001
       36015000	      3600	80002868	00000013	addi	x0,x0,0	  x0:0x00000000
       36025000	      3601	8000286c	00000013	addi	x0,x0,0	  x0:0x00000000
       36035000	      3602	80002870	02a84663	blt	x16,x10,8000289c	 x16:0xdff00000 x10:0x00000001
       36045000	      3603	00000000	00000013	addi	x0,x0,0	  x0:0x00000000
       36055000	      3604	80002898	00000013	addi	x0,x0,0	  x0:0x00000000
       36065000	      3605	8000289c	0521d463	bge	x3,x18,800028e4	  x3:0x7fff5dc2 x18:0x80000000
       36075000	      3606	00000000	00000013	addi	x0,x0,0	  x0:0x00000000
       36085000	      3607	800028e0	00000013	addi	x0,x0,0	  x0:0x00000000
       36095000	      3608	800028e4	010c69b3	or	x19,x24,x16	 x24:0x9792e848 x16:0xdff00000 x19=0xdff2e848
       36105000	      3609	800028e8	016adfb3	srl	x31,x21,x22	 x21:0x80009fc4 x22:0x7fff61ba x31=0x00000020
       36115000	      3610	800028ec	019ca1b3	slt	x3,x25,x25	 x25:0x00000000 x25:0x00000000  x3=0x00000000
       36125000	      3611	800028f0	02e8fa63	bgeu	x17,x14,80002924	 x17:0x00000001 x14:0x80009f2c
       36135000	      3612	800028f4	41e7d5b3	sra	x11,x15,x30	 x15:0x000003a6 x30:0x000063db x11=0x00000000
       36145000	      3613	800028f8	01d5db93	srli	x23,x11,0x1d	 x11:0x00000000 x23=0x00000000
       36155000	      3614	800028fc	40728c33	sub	x24,x5,x7	  x5:0xfffffa7d  x7:0x10420000 x24=0xefbdfa7d
       36165000	      3615	80002900	00db7033	and	x0,x22,x13	 x22:0x7fff61ba x13:0x80009beb
       36175000	      3616	80002904	41cf5813	srai	x16,x30,0x1c	 x30:0x000063db x16=0x00000000
       36185000	      3617	80002908	039ae463	bltu	x21,x25,80002930	 x21:0x80009fc4 x25:0x00000000
       36195000	      3618	8000290c	01e23f33	sltu	x30,x4,x30	  x4:0x00000000 x30:0x000063db x30=0x00000001
       36205000	      3619	80002910	40ed8fb3	sub	x31,x27,x14	 x27:0x00000001 x14:0x80009f2c x31=0x7fff60d5
       36215000	      3620	80002914	00cef833	and	x16,x29,x12	 x29:0x00000001 x12:0x00000800 x16=0x00000000
       36225000	      3621	80002918	41e4de93	srai	x29,x9,0x1e	  x9:0x84000000 x29=0xfffffffe
       36235000	      3622	8000291c	bfaf1c17	auipc	x24,0xbfaf1	 x24=0x3faf3918
       36245000	      3623	80002920	007a0263	beq	x20,x7,80002924	 x20:0xdff00001  x7:0x10420000
       36255000	      3624	80002924	00ddde93	srli	x29,x27,0xd	 x27:0x00000001 x29=0x00000000
       36265000	      3625	80002928	00b70533	add	x10,x14,x11	 x14:0x80009f2c x11:0x00000000 x10=0x80009f2c
       36275000	      3626	8000292c	0484c663	blt	x9,x8,80002978	  x9:0x84000000  x8:0x00000000
       36285000	      3627	00000000	00000013	addi	x0,x0,0	  x0:0x00000000
       36295000	      3628	80002974	00000013	addi	x0,x0,0	  x0:0x00000000
       36305000	      3629	80002978	40b9dcb3	sra	x25,x19,x11	 x19:0xdff2e848 x11:0x00000000 x25=0xdff2e848
       36315000	      3630	8000297c	014d0663	beq	x26,x20,80002988	 x26:0x5b6e5b9c x20:0xdff00001
       36325000	      3631	80002980	df061017	auipc	x0,0xdf061	
       36335000	      3632	80002984	01249c13	slli	x24,x9,0x12	  x9:0x84000000 x24=0x00000000
       36345000	      3633	80002988	00fdf533	and	x10,x27,x15	 x27:0x00000001 x15:0x000003a6 x10=0x00000000
       36355000	      3634	8000298c	67539e37	lui	x28,0x67539	 x28=0x67539000
       36365000	      3635	80002990	973a6213	ori	x4,x20,-1677	 x20:0xdff00001  x4=0xfffff973
       36375000	      3636	80002994	f38dff13	andi	x30,x27,-200	 x27:0x00000001 x30=0x00000000
       36385000	      3637	80002998	fb5bcc93	xori	x25,x23,-75	 x23:0x00000000 x25=0xffffffb5
       36395000	      3638	8000299c	016c3db3	sltu	x27,x24,x22	 x24:0x00000000 x22:0x7fff61ba x27=0x00000001
       36405000	      3639	800029a0	79fe6e13	ori	x28,x28,1951	 x28:0x67539000 x28=0x6753979f
       36415000	      3640	800029a4	0265fc63	bgeu	x11,x6,800029dc	 x11:0x00000000  x6:0x000000a6
       36425000	      3641	800029a8	002d04b3	add	x9,x26,x2	 x26:0x5b6e5b9c  x2:0xafc4c000  x9=0x0b331b9c
       36435000	      3642	800029ac	1c3d8293	addi	x5,x27,451	 x27:0x00000001  x5=0x000001c4
       36445000	      3643	800029b0	7da4e637	lui	x12,0x7da4e	 x12=0x7da4e000
       36455000	      3644	800029b4	00000013	addi	x0,x0,0	  x0:0x00000000
       36465000	      3645	800029b8	02cc6a63	bltu	x24,x12,800029ec	 x24:0x00000000 x12:0x7da4e000
       36475000	      3646	00000000	00000013	addi	x0,x0,0	  x0:0x00000000
       36485000	      3647	800029e8	00000013	addi	x0,x0,0	  x0:0x00000000
       36495000	      3648	800029ec	00d4c6b3	xor	x13,x9,x13	  x9:0x0b331b9c x13:0x80009beb x13=0x8b338077
       36505000	      3649	800029f0	05be9463	bne	x29,x27,80002a38	 x29:0x00000000 x27:0x00000001
       36515000	      3650	00000000	00000013	addi	x0,x0,0	  x0:0x00000000
       36525000	      3651	80002a34	00000013	addi	x0,x0,0	  x0:0x00000000
       36535000	      3652	80002a38	71e01617	auipc	x12,0x71e01	 x12=0xf1e03a34
       36545000	      3653	80002a3c	4070d193	srai	x3,x1,0x7	  x1:0x10420000  x3=0x00208400
       36555000	      3654	80002a40	027c7a63	bgeu	x24,x7,80002a74	 x24:0x00000000  x7:0x10420000
       36565000	      3655	80002a44	068bb297	auipc	x5,0x68bb	  x5=0x868bda40
       36575000	      3656	80002a48	42b57d93	andi	x27,x10,1067	 x10:0x00000000 x27=0x00000000
       36585000	      3657	80002a4c	014e9693	slli	x13,x29,0x14	 x29:0x00000000 x13=0x00000000
       36595000	      3658	80002a50	59410213	addi	x4,x2,1428	  x2:0xafc4c000  x4=0xafc4c594
       36605000	      3659	80002a54	79650f17	auipc	x30,0x79650	 x30=0xf9652a50
       36615000	      3660	80002a58	00af43b3	xor	x7,x30,x10	 x30:0xf9652a50 x10:0x00000000  x7=0xf9652a50
       36625000	      3661	80002a5c	00ee5093	srli	x1,x28,0xe	 x28:0x6753979f  x1=0x00019d4e
       36635000	      3662	80002a60	00ad3a33	sltu	x20,x26,x10	 x26:0x5b6e5b9c x10:0x00000000 x20=0x00000000
       36645000	      3663	80002a64	47763a13	sltiu	x20,x12,1143	 x12:0xf1e03a34 x20=0x00000000
       36655000	      3664	80002a68	05c7e663	bltu	x15,x28,80002ab4	 x15:0x000003a6 x28:0x6753979f
       36665000	      3665	00000000	00000013	addi	x0,x0,0	  x0:0x00000000
       36675000	      3666	80002ab0	00000013	addi	x0,x0,0	  x0:0x00000000
       36685000	      3667	80002ab4	01026bb3	or	x23,x4,x16	  x4:0xafc4c594 x16:0x00000000 x23=0xafc4c594
       36695000	      3668	80002ab8	635cba13	sltiu	x20,x25,1589	 x25:0xffffffb5 x20=0x00000000
       36705000	      3669	80002abc	012e54b3	srl	x9,x28,x18	 x28:0x6753979f x18:0x80000000  x9=0x6753979f
       36715000	      3670	80002ac0	012a27b3	slt	x15,x20,x18	 x20:0x00000000 x18:0x80000000 x15=0x00000000
       36725000	      3671	80002ac4	bb994b37	lui	x22,0xbb994	 x22=0xbb994000
       36735000	      3672	80002ac8	bd1d8993	addi	x19,x27,-1071	 x27:0x00000000 x19=0xfffffbd1
       36745000	      3673	80002acc	00d2f633	and	x12,x5,x13	  x5:0x868bda40 x13:0x00000000 x12=0x00000000
       36755000	      3674	80002ad0	40a75c93	srai	x25,x14,0xa	 x14:0x80009f2c x25=0xffe00027
       36765000	      3675	80002ad4	00389013	slli	x0,x17,0x3	 x17:0x00000001
       36775000	      3676	80002ad8	028c0863	beq	x24,x8,80002b08	 x24:0x00000000  x8:0x00000000
       36785000	      3677	00000000	00000013	addi	x0,x0,0	  x0:0x00000000
       36795000	      3678	80002b04	00000013	addi	x0,x0,0	  x0:0x00000000
       36805000	      3679	80002b08	025ed663	bge	x29,x5,80002b34	 x29:0x00000000  x5:0x868bda40
       36815000	      3680	00000000	00000013	addi	x0,x0,0	  x0:0x00000000
       36825000	      3681	80002b30	00000013	addi	x0,x0,0	  x0:0x00000000
       36835000	      3682	80002b34	00a3ee33	or	x28,x7,x10	  x7:0xf9652a50 x10:0x00000000 x28=0xf9652a50
       36845000	      3683	80002b38	001a1633	sll	x12,x20,x1	 x20:0x00000000  x1:0x00019d4e x12=0x00000000
       36855000	      3684	80002b3c	03191463	bne	x18,x17,80002b64	 x18:0x80000000 x17:0x00000001
       36865000	      3685	00000000	00000013	addi	x0,x0,0	  x0:0x00000000
       36875000	      3686	80002b60	00000013	addi	x0,x0,0	  x0:0x00000000
       36885000	      3687	80002b64	019d1b13	slli	x22,x26,0x19	 x26:0x5b6e5b9c x22=0x38000000
       36895000	      3688	80002b68	403e0533	sub	x10,x28,x3	 x28:0xf9652a50  x3:0x00208400 x10=0xf944a650
       36905000	      3689	80002b6c	00a6b9b3	sltu	x19,x13,x10	 x13:0x00000000 x10:0xf944a650 x19=0x00000001
       36915000	      3690	80002b70	d92d3593	sltiu	x11,x26,-622	 x26:0x5b6e5b9c x11=0x00000001
       36925000	      3691	80002b74	978a6f13	ori	x30,x20,-1672	 x20:0x00000000 x30=0xfffff978
       36935000	      3692	80002b78	56096497	auipc	x9,0x56096	  x9=0xd6098b74
       36945000	      3693	80002b7c	00ba1a33	sll	x20,x20,x11	 x20:0x00000000 x11:0x00000001 x20=0x00000000
       36955000	      3694	80002b80	008c34b3	sltu	x9,x24,x8	 x24:0x00000000  x8:0x00000000  x9=0x00000000
       36965000	      3695	80002b84	02f05063	bge	x0,x15,80002ba4	  x0:0x00000000 x15:0x00000000
       36975000	      3696	00000000	00000013	addi	x0,x0,0	  x0:0x00000000
       36985000	      3697	80002ba0	00000013	addi	x0,x0,0	  x0:0x00000000
       36995000	      3698	80002ba4	0097f633	and	x12,x15,x9	 x15:0x00000000  x9:0x00000000 x12=0x00000000
       37005000	      3699	80002ba8	0556c263	blt	x13,x21,80002bec	 x13:0x00000000 x21:0x80009fc4
       37015000	      3700	80002bac	ddabbb93	sltiu	x23,x23,-550	 x23:0xafc4c594 x23=0x00000001
       37025000	      3701	80002bb0	04f50663	beq	x10,x15,80002bfc	 x10:0xf944a650 x15:0x00000000
       37035000	      3702	80002bb4	0149ce63	blt	x19,x20,80002bd0	 x19:0x00000001 x20:0x00000000
       37045000	      3703	80002bb8	41c35c33	sra	x24,x6,x28	  x6:0x000000a6 x28:0xf9652a50 x24=0x00000000
       37055000	      3704	80002bbc	412f5d13	srai	x26,x30,0x12	 x30:0xfffff978 x26=0xffffffff
       37065000	      3705	80002bc0	c88e8493	addi	x9,x29,-888	 x29:0x00000000  x9=0xfffffc88
       37075000	      3706	80002bc4	25b20093	addi	x1,x4,603	  x4:0xafc4c594  x1=0xafc4c7ef
       37085000	      3707	80002bc8	043d0863	beq	x26,x3,80002c18	 x26:0xffffffff  x3:0x00208400
       37095000	      3708	80002bcc	668d4c13	xori	x24,x26,1640	 x26:0xffffffff x24=0xfffff997
       37105000	      3709	80002bd0	0458e463	bltu	x17,x5,80002c18	 x17:0x00000001  x5:0x868bda40
       37115000	      3710	00000000	00000013	addi	x0,x0,0	  x0:0x00000000
       37125000	      3711	80002c14	00000013	addi	x0,x0,0	  x0:0x00000000
       37135000	      3712	80002c18	00c14e63	blt	x2,x12,80002c34	  x2:0xafc4c000 x12:0x00000000
       37145000	      3713	00000000	00000013	addi	x0,x0,0	  x0:0x00000000
       37155000	      3714	80002c30	00000013	addi	x0,x0,0	  x0:0x00000000
       37165000	      3715	80002c34	41fdd013	srai	x0,x27,0x1f	 x27:0x00000000
       37175000	      3716	80002c38	45607c13	andi	x24,x0,1110	  x0:0x00000000 x24=0x00000000
       37185000	      3717	80002c3c	00a97db3	and	x27,x18,x10	 x18:0x80000000 x10:0xf944a650 x27=0x80000000
       37195000	      3718	80002c40	011301b3	add	x3,x6,x17	  x6:0x000000a6 x17:0x00000001  x3=0x000000a7
       37205000	      3719	80002c44	01117c63	bgeu	x2,x17,80002c5c	  x2:0xafc4c000 x17:0x00000001
       37215000	      3720	00000000	00000013	addi	x0,x0,0	  x0:0x00000000
       37225000	      3721	80002c58	00000013	addi	x0,x0,0	  x0:0x00000000
       37235000	      3722	80002c5c	01030033	add	x0,x6,x16	  x6:0x000000a6 x16:0x00000000
       37245000	      3723	80002c60	0080ee33	or	x28,x1,x8	  x1:0xafc4c7ef  x8:0x00000000 x28=0xafc4c7ef
       37255000	      3724	80002c64	019a3233	sltu	x4,x20,x25	 x20:0x00000000 x25:0xffe00027  x4=0x00000001
       37265000	      3725	80002c68	016c1793	slli	x15,x24,0x16	 x24:0x00000000 x15=0x00000000
       37275000	      3726	80002c6c	00c76133	or	x2,x14,x12	 x14:0x80009f2c x12:0x00000000  x2=0x80009f2c
       37285000	      3727	80002c70	013b9033	sll	x0,x23,x19	 x23:0x00000001 x19:0x00000001
       37295000	      3728	80002c74	01b11463	bne	x2,x27,80002c7c	  x2:0x80009f2c x27:0x80000000
       37305000	      3729	00000000	00000013	addi	x0,x0,0	  x0:0x00000000
       37315000	      3730	80002c78	00000013	addi	x0,x0,0	  x0:0x00000000
       37325000	      3731	80002c7c	039b1a63	bne	x22,x25,80002cb0	 x22:0x38000000 x25:0xffe00027
       37335000	      3732	00000000	00000013	addi	x0,x0,0	  x0:0x00000000
       37345000	      3733	80002cac	00000013	addi	x0,x0,0	  x0:0x00000000
       37355000	      3734	80002cb0	0032d593	srli	x11,x5,0x3	  x5:0x868bda40 x11=0x10d17b48
       37365000	      3735	80002cb4	0153e233	or	x4,x7,x21	  x7:0xf9652a50 x21:0x80009fc4  x4=0xf965bfd4
       37375000	      3736	80002cb8	40f858b3	sra	x17,x16,x15	 x16:0x00000000 x15:0x00000000 x17=0x00000000
       37385000	      3737	80002cbc	7016c513	xori	x10,x13,1793	 x13:0x00000000 x10=0x00000701
       37395000	      3738	80002cc0	b4ab4e93	xori	x29,x22,-1206	 x22:0x38000000 x29=0xc7fffb4a
       37405000	      3739	80002cc4	00a25f33	srl	x30,x4,x10	  x4:0xf965bfd4 x10:0x00000701 x30=0x7cb2dfea
       37415000	      3740	80002cc8	99560b93	addi	x23,x12,-1643	 x12:0x00000000 x23=0xfffff995
       37425000	      3741	80002ccc	411253b3	sra	x7,x4,x17	  x4:0xf965bfd4 x17:0x00000000  x7=0xf965bfd4
       37435000	      3742	80002cd0	008040b3	xor	x1,x0,x8	  x0:0x00000000  x8:0x00000000  x1=0x00000000
       37445000	      3743	80002cd4	03e06463	bltu	x0,x30,80002cfc	  x0:0x00000000 x30:0x7cb2dfea
       37455000	      3744	00000000	00000013	addi	x0,x0,0	  x0:0x00000000
       37465000	      3745	80002cf8	00000013	addi	x0,x0,0	  x0:0x00000000
       37475000	      3746	80002cfc	00c43533	sltu	x10,x8,x12	  x8:0x00000000 x12:0x00000000 x10=0x00000000
       37485000	      3747	80002d00	00458833	add	x16,x11,x4	 x11:0x10d17b48  x4:0xf965bfd4 x16=0x0a373b1c
       37495000	      3748	80002d04	05add663	bge	x27,x26,80002d50	 x27:0x80000000 x26:0xffffffff
       37505000	      3749	80002d08	00b77b33	and	x22,x14,x11	 x14:0x80009f2c x11:0x10d17b48 x22=0x00001b08
       37515000	      3750	80002d0c	01a1c033	xor	x0,x3,x26	  x3:0x000000a7 x26:0xffffffff
       37525000	      3751	80002d10	ca8ca313	slti	x6,x25,-856	 x25:0xffe00027  x6=0x00000001
       37535000	      3752	80002d14	403d5d13	srai	x26,x26,0x3	 x26:0xffffffff x26=0xffffffff
       37545000	      3753	80002d18	77cd8b17	auipc	x22,0x77cd8	 x22=0xf7cdad14
       37555000	      3754	80002d1c	b8bef893	andi	x17,x29,-1141	 x29:0xc7fffb4a x17=0xc7fffb0a
       37565000	      3755	80002d20	005d6533	or	x10,x26,x5	 x26:0xffffffff  x5:0x868bda40 x10=0xffffffff
       37575000	      3756	80002d24	d13c3413	sltiu	x8,x24,-749	 x24:0x00000000  x8=0x00000001
       37585000	      3757	80002d28	005bf463	bgeu	x23,x5,80002d30	 x23:0xfffff995  x5:0x868bda40
       37595000	      3758	00000000	00000013	addi	x0,x0,0	  x0:0x00000000
       37605000	      3759	80002d2c	00000013	addi	x0,x0,0	  x0:0x00000000
       37615000	      3760	80002d30	013de1b3	or	x3,x27,x19	 x27:0x80000000 x19:0x00000001  x3=0x80000001
       37625000	      3761	80002d34	401cd8b3	sra	x17,x25,x1	 x25:0xffe00027  x1:0x00000000 x17=0xffe00027
       37635000	      3762	80002d38	8fd43593	sltiu	x11,x8,-1795	  x8:0x00000001 x11=0x00000001
       37645000	      3763	80002d3c	001d3433	sltu	x8,x26,x1	 x26:0xffffffff  x1:0x00000000  x8=0x00000000
       37655000	      3764	80002d40	018eb833	sltu	x16,x29,x24	 x29:0xc7fffb4a x24:0x00000000 x16=0x00000000
       37665000	      3765	80002d44	05e46663	bltu	x8,x30,80002d90	  x8:0x00000000 x30:0x7cb2dfea
       37675000	      3766	00000000	00000013	addi	x0,x0,0	  x0:0x00000000
       37685000	      3767	80002d8c	00000013	addi	x0,x0,0	  x0:0x00000000
       37695000	      3768	80002d90	40f7d433	sra	x8,x15,x15	 x15:0x00000000 x15:0x00000000  x8=0x00000000
       37705000	      3769	80002d94	ad068a37	lui	x20,0xad068	 x20=0xad068000
       37715000	      3770	80002d98	01fbd093	srli	x1,x23,0x1f	 x23:0xfffff995  x1=0x00000001
       37725000	      3771	80002d9c	00cb9213	slli	x4,x23,0xc	 x23:0xfffff995  x4=0xff995000
       37735000	      3772	80002da0	8cc6a993	slti	x19,x13,-1844	 x13:0x00000000 x19=0x00000000
       37745000	      3773	80002da4	01ad5d93	srli	x27,x26,0x1a	 x26:0xffffffff x27=0x0000003f
       37755000	      3774	80002da8	02721c63	bne	x4,x7,80002de0	  x4:0xff995000  x7:0xf965bfd4
       37765000	      3775	00000000	00000013	addi	x0,x0,0	  x0:0x00000000
       37775000	      3776	80002ddc	00000013	addi	x0,x0,0	  x0:0x00000000
       37785000	      3777	80002de0	a4bd4813	xori	x16,x26,-1461	 x26:0xffffffff x16=0x000005b4
       37795000	      3778	80002de4	4044df13	srai	x30,x9,0x4	  x9:0xfffffc88 x30=0xffffffc8
       37805000	      3779	80002de8	006a1813	slli	x16,x20,0x6	 x20:0xad068000 x16=0x41a00000
       37815000	      3780	80002dec	018f0cb3	add	x25,x30,x24	 x30:0xffffffc8 x24:0x00000000 x25=0xffffffc8
       37825000	      3781	80002df0	00000013	addi	x0,x0,0	  x0:0x00000000
       37835000	      3782	80002df4	013d13b3	sll	x7,x26,x19	 x26:0xffffffff x19:0x00000000  x7=0xffffffff
       37845000	      3783	80002df8	93ce2693	slti	x13,x28,-1732	 x28:0xafc4c7ef x13=0x00000001
       37855000	      3784	80002dfc	41c4dd13	srai	x26,x9,0x1c	  x9:0xfffffc88 x26=0xffffffff
       37865000	      3785	80002e00	010d85b3	add	x11,x27,x16	 x27:0x0000003f x16:0x41a00000 x11=0x41a0003f
       37875000	      3786	80002e04	27e50b13	addi	x22,x10,638	 x10:0xffffffff x22=0x0000027d
       37885000	      3787	80002e08	68f5c513	xori	x10,x11,1679	 x11:0x41a0003f x10=0x41a006b0
       37895000	      3788	80002e0c	0169d113	srli	x2,x19,0x16	 x19:0x00000000  x2=0x00000000
       37905000	      3789	80002e10	404f5d13	srai	x26,x30,0x4	 x30:0xffffffc8 x26=0xfffffffc
       37915000	      3790	80002e14	af14b437	lui	x8,0xaf14b	  x8=0xaf14b000
       37925000	      3791	80002e18	41755c13	srai	x24,x10,0x17	 x10:0x41a006b0 x24=0x00000083
       37935000	      3792	80002e1c	002844b3	xor	x9,x16,x2	 x16:0x41a00000  x2:0x00000000  x9=0x41a00000
       37945000	      3793	80002e20	fa514893	xori	x17,x2,-91	  x2:0x00000000 x17=0xffffffa5
       37955000	      3794	80002e24	011cd133	srl	x2,x25,x17	 x25:0xffffffc8 x17:0xffffffa5  x2=0x07fffffe
       37965000	      3795	80002e28	8d44b997	auipc	x19,0x8d44b	 x19=0x0d44de24
       37975000	      3796	80002e2c	001a5cb3	srl	x25,x20,x1	 x20:0xad068000  x1:0x00000001 x25=0x56834000
       37985000	      3797	80002e30	14fb3093	sltiu	x1,x22,335	 x22:0x0000027d  x1=0x00000000
       37995000	      3798	80002e34	d64fd0ef	jal	x1,80002e34	  x1=0x80002e34
       38005000	      3799	00000000	00000013	addi	x0,x0,0	  x0:0x00000000
       38015000	      3800	80000394	00000013	addi	x0,x0,0	  x0:0x00000000
       38025000	      3801	80000398	01d3d463	bge	x7,x29,800003a0	  x7:0xffffffff x29:0xc7fffb4a
       38035000	      3802	00000000	00000013	addi	x0,x0,0	  x0:0x00000000
       38045000	      3803	8000039c	00000013	addi	x0,x0,0	  x0:0x00000000
       38055000	      3804	800003a0	fe070713	addi	x14,x14,-32	 x14:0x80009f2c x14=0x80009f0c
       38065000	      3805	800003a4	00172223	sw	x1,4(x14)	 x14:0x80009f0c  x1:0x80002e34 PA:0x80009f10
       38075000	      3806	800003a8	00000013	addi	x0,x0,0	  x0:0x00000000
       38085000	      3807	800003ac	16afcd93	xori	x27,x31,362	 x31:0x7fff60d5 x27=0x7fff61bf
       38095000	      3808	800003b0	011c6533	or	x10,x24,x17	 x24:0x00000083 x17:0xffffffa5 x10=0xffffffa7
       38105000	      3809	800003b4	ac2d1d37	lui	x26,0xac2d1	 x26=0xac2d1000
       38115000	      3810	800003b8	00289c13	slli	x24,x17,0x2	 x17:0xffffffa5 x24=0xfffffe94
       38125000	      3811	800003bc	d87f7613	andi	x12,x30,-633	 x30:0xffffffc8 x12=0xfffffd80
       38135000	      3812	800003c0	008a5493	srli	x9,x20,0x8	 x20:0xad068000  x9=0x00ad0680
       38145000	      3813	800003c4	00008897	auipc	x17,0x8	 x17=0x800083c0
       38155000	      3814	800003c8	db388893	addi	x17,x17,-589	 x17:0x800083c0 x17=0x80008173
       38165000	      3815	800003cc	00d6c633	xor	x12,x13,x13	 x13:0x00000001 x13:0x00000001 x12=0x00000000
       38175000	      3816	800003d0	42ecc993	xori	x19,x25,1070	 x25:0x56834000 x19=0x5683442e
       38185000	      3817	800003d4	00288823	sb	x2,16(x17)	 x17:0x80008173  x2:0x07fffffe PA:0x80008183
       38195000	      3818	800003d8	00e35d13	srli	x26,x6,0xe	  x6:0x00000001 x26=0x00000000
       38205000	      3819	800003dc	01b03e33	sltu	x28,x0,x27	  x0:0x00000000 x27:0x7fff61bf x28=0x00000001
       38215000	      3820	800003e0	f26a6993	ori	x19,x20,-218	 x20:0xad068000 x19=0xffffff26
       38225000	      3821	800003e4	017892a3	sh	x23,5(x17)	 x17:0x80008173 x23:0xfffff995 PA:0x80008178
       38235000	      3822	800003e8	41940333	sub	x6,x8,x25	  x8:0xaf14b000 x25:0x56834000  x6=0x58917000
       38245000	      3823	800003ec	00921b33	sll	x22,x4,x9	  x4:0xff995000  x9:0x00ad0680 x22=0xff995000
       38255000	      3824	800003f0	f8066c37	lui	x24,0xf8066	 x24=0xf8066000
       38265000	      3825	800003f4	aca68c97	auipc	x25,0xaca68	 x25=0x2ca683f0
       38275000	      3826	800003f8	e0db4213	xori	x4,x22,-499	 x22:0xff995000  x4=0x0066ae0d
       38285000	      3827	800003fc	e4c84b13	xori	x22,x16,-436	 x16:0x41a00000 x22=0xbe5ffe4c
       38295000	      3828	80000400	0162dd93	srli	x27,x5,0x16	  x5:0x868bda40 x27=0x0000021a
       38305000	      3829	80000404	e2b2e993	ori	x19,x5,-469	  x5:0x868bda40 x19=0xfffffe6b
       38315000	      3830	80000408	fff89183	lh	x3,-1(x17)	 x17:0x80008173  x3=0x00000000 PA:0x80008172
       38325000	      3831	8000040c	009873b3	and	x7,x16,x9	 x16:0x41a00000  x9:0x00ad0680  x7=0x00a00000
       38335000	      3832	80000410	48852213	slti	x4,x10,1160	 x10:0xffffffa7  x4=0x00000001
       38345000	      3833	80000414	ff688e03	lb	x28,-10(x17)	 x17:0x80008173 x28=0x00000000 PA:0x80008169
       38355000	      3834	80000418	00f88f83	lb	x31,15(x17)	 x17:0x80008173 x31=0x00000000 PA:0x80008182
       38365000	      3835	8000041c	011c1b13	slli	x22,x24,0x11	 x24:0xf8066000 x22=0xc0000000
       38375000	      3836	80000420	018832b3	sltu	x5,x16,x24	 x16:0x41a00000 x24:0xf8066000  x5=0x00000001
       38385000	      3837	80000424	b4f0b113	sltiu	x2,x1,-1201	  x1:0x80002e34  x2=0x00000001
       38395000	      3838	80000428	699f7d13	andi	x26,x30,1689	 x30:0xffffffc8 x26=0x00000688
       38405000	      3839	8000042c	00e8c803	lbu	x16,14(x17)	 x17:0x80008173 x16=0x00000000 PA:0x80008181
       38415000	      3840	80000430	ff789403	lh	x8,-9(x17)	 x17:0x80008173  x8=0x00000000 PA:0x8000816a
       38425000	      3841	80000434	010ddb93	srli	x23,x27,0x10	 x27:0x0000021a x23=0x00000000
       38435000	      3842	80000438	40bcb613	sltiu	x12,x25,1035	 x25:0x2ca683f0 x12=0x00000000
       38445000	      3843	8000043c	003fa2b3	slt	x5,x31,x3	 x31:0x00000000  x3:0x00000000  x5=0x00000000
       38455000	      3844	80000440	001ff5b3	and	x11,x31,x1	 x31:0x00000000  x1:0x80002e34 x11=0x00000000
       38465000	      3845	80000444	01d2c3b3	xor	x7,x5,x29	  x5:0x00000000 x29:0xc7fffb4a  x7=0xc7fffb4a
       38475000	      3846	80000448	8a3bf813	andi	x16,x23,-1885	 x23:0x00000000 x16=0x00000000
       38485000	      3847	8000044c	0b9d3313	sltiu	x6,x26,185	 x26:0x00000688  x6=0x00000000
       38495000	      3848	80000450	5a24c617	auipc	x12,0x5a24c	 x12=0xda24c44c
       38505000	      3849	80000454	01f512b3	sll	x5,x10,x31	 x10:0xffffffa7 x31:0x00000000  x5=0xffffffa7
       38515000	      3850	80000458	ff88c083	lbu	x1,-8(x17)	 x17:0x80008173  x1=0x00000000 PA:0x8000816b
       38525000	      3851	8000045c	01f891a3	sh	x31,3(x17)	 x17:0x80008173 x31:0x00000000 PA:0x80008176
       38535000	      3852	80000460	8ee77793	andi	x15,x14,-1810	 x14:0x80009f0c x15=0x8000980c
       38545000	      3853	80000464	a69f4013	xori	x0,x30,-1431	 x30:0xffffffc8
       38555000	      3854	80000468	00688803	lb	x16,6(x17)	 x17:0x80008173 x16=0xfffffff9 PA:0x80008179
       38565000	      3855	8000046c	00008617	auipc	x12,0x8	 x12=0x80008468
       38575000	      3856	80000470	fcb60613	addi	x12,x12,-53	 x12:0x80008468 x12=0x80008433
       38585000	      3857	80000474	41278133	sub	x2,x15,x18	 x15:0x8000980c x18:0x80000000  x2=0x0000980c
       38595000	      3858	80000478	06164d03	lbu	x26,97(x12)	 x12:0x80008433 x26=0x00000000 PA:0x80008494
       38605000	      3859	8000047c	ff360b23	sb	x19,-10(x12)	 x12:0x80008433 x19:0xfffffe6b PA:0x80008429
       38615000	      3860	80000480	f3560c23	sb	x21,-200(x12)	 x12:0x80008433 x21:0x80009fc4 PA:0x8000836b
       38625000	      3861	80000484	01250eb3	add	x29,x10,x18	 x10:0xffffffa7 x18:0x80000000 x29=0x7fffffa7
       38635000	      3862	80000488	c9c42113	slti	x2,x8,-868	  x8:0x00000000  x2=0x00000000
       38645000	      3863	8000048c	f9260383	lb	x7,-110(x12)	 x12:0x80008433  x7=0x00000000 PA:0x800083c5
       38655000	      3864	80000490	01bb33b3	sltu	x7,x22,x27	 x22:0xc0000000 x27:0x0000021a  x7=0x00000000
       38665000	      3865	80000494	0db64583	lbu	x11,219(x12)	 x12:0x80008433 x11=0x00000000 PA:0x8000850e
       38675000	      3866	80000498	40d9d793	srai	x15,x19,0xd	 x19:0xfffffe6b x15=0xffffffff
       38685000	      3867	8000049c	00461d13	slli	x26,x12,0x4	 x12:0x80008433 x26=0x00084330
       38695000	      3868	800004a0	f0165303	lhu	x6,-255(x12)	 x12:0x80008433  x6=0x00000000 PA:0x80008334
       38705000	      3869	800004a4	f9f64f03	lbu	x30,-97(x12)	 x12:0x80008433 x30=0x00000000 PA:0x800083d2
       38715000	      3870	800004a8	00000013	addi	x0,x0,0	  x0:0x00000000
       38725000	      3871	800004ac	f4a60da3	sb	x10,-165(x12)	 x12:0x80008433 x10:0xffffffa7 PA:0x8000838e
       38735000	      3872	800004b0	fb864d83	lbu	x27,-72(x12)	 x12:0x80008433 x27=0x00000000 PA:0x800083eb
       38745000	      3873	800004b4	f2060e83	lb	x29,-224(x12)	 x12:0x80008433 x29=0x00000000 PA:0x80008353
       38755000	      3874	800004b8	fe660483	lb	x9,-26(x12)	 x12:0x80008433  x9=0x00000000 PA:0x80008419
       38765000	      3875	800004bc	0a362aa3	sw	x3,181(x12)	 x12:0x80008433  x3:0x00000000 PA:0x800084e8
       38775000	      3876	800004c0	019d5b93	srli	x23,x26,0x19	 x26:0x00084330 x23=0x00000000
       38785000	      3877	800004c4	f2760ba3	sb	x7,-201(x12)	 x12:0x80008433  x7:0x00000000 PA:0x8000836a
       38795000	      3878	800004c8	01360723	sb	x19,14(x12)	 x12:0x80008433 x19:0xfffffe6b PA:0x80008441
       38805000	      3879	800004cc	f3e60c83	lb	x25,-194(x12)	 x12:0x80008433 x25=0xfffffff2 PA:0x80008371
       38815000	      3880	800004d0	13c18d13	addi	x26,x3,316	  x3:0x00000000 x26=0x0000013c
       38825000	      3881	800004d4	001e0bb3	add	x23,x28,x1	 x28:0x00000000  x1:0x00000000 x23=0x00000000
       38835000	      3882	800004d8	09562ca3	sw	x21,153(x12)	 x12:0x80008433 x21:0x80009fc4 PA:0x800084cc
       38845000	      3883	800004dc	0cd60f03	lb	x30,205(x12)	 x12:0x80008433 x30=0x00000000 PA:0x80008500
       38855000	      3884	00000000	00000013	addi	x0,x0,0	  x0:0x00000000
       38865000	      3885	800004e0	709f7c93	andi	x25,x30,1801	 x30:0x00000000 x25=0x00000000
       38875000	      3886	800004e4	fd564d03	lbu	x26,-43(x12)	 x12:0x80008433 x26=0x00000000 PA:0x80008408
       38885000	      3887	800004e8	fd860983	lb	x19,-40(x12)	 x12:0x80008433 x19=0x00000000 PA:0x8000840b
       38895000	      3888	800004ec	9823c513	xori	x10,x7,-1662	  x7:0x00000000 x10=0xfffff982
       38905000	      3889	800004f0	0f461aa3	sh	x20,245(x12)	 x12:0x80008433 x20:0xad068000 PA:0x80008528
       38915000	      3890	800004f4	06d64583	lbu	x11,109(x12)	 x12:0x80008433 x11=0x00000000 PA:0x800084a0
       38925000	      3891	800004f8	408681b3	sub	x3,x13,x8	 x13:0x00000001  x8:0x00000000  x3=0x00000001
       38935000	      3892	800004fc	f7564803	lbu	x16,-139(x12)	 x12:0x80008433 x16=0x00000000 PA:0x800083a8
       38945000	      3893	80000500	00460923	sb	x4,18(x12)	 x12:0x80008433  x4:0x00000001 PA:0x80008445
       38955000	      3894	80000504	00008417	auipc	x8,0x8	  x8=0x80008500
       38965000	      3895	80000508	d1640413	addi	x8,x8,-746	  x8:0x80008500  x8=0x80008216
       38975000	      3896	8000050c	f6344083	lbu	x1,-157(x8)	  x8:0x80008216  x1=0x000000f9 PA:0x80008179
       38985000	      3897	80000510	f9640883	lb	x17,-106(x8)	  x8:0x80008216 x17=0x00000000 PA:0x800081ac
       38995000	      3898	80000514	00437cb3	and	x25,x6,x4	  x6:0x00000000  x4:0x00000001 x25=0x00000000
       39005000	      3899	80000518	0e040983	lb	x19,224(x8)	  x8:0x80008216 x19=0x00000000 PA:0x800082f6
       39015000	      3900	8000051c	f7841b03	lh	x22,-136(x8)	  x8:0x80008216 x22=0x00000000 PA:0x8000818e
       39025000	      3901	80000520	4098d4b3	sra	x9,x17,x9	 x17:0x00000000  x9:0x00000000  x9=0x00000000
       39035000	      3902	80000524	62d03013	sltiu	x0,x0,1581	  x0:0x00000000
       39045000	      3903	80000528	04841023	sh	x8,64(x8)	  x8:0x80008216  x8:0x80008216 PA:0x80008256
       39055000	      3904	8000052c	9ddd4d93	xori	x27,x26,-1571	 x26:0x00000000 x27=0xfffff9dd
       39065000	      3905	80000530	f0440da3	sb	x4,-229(x8)	  x8:0x80008216  x4:0x00000001 PA:0x80008131
       39075000	      3906	80000534	00c44203	lbu	x4,12(x8)	  x8:0x80008216  x4=0x00000000 PA:0x80008222
       39085000	      3907	80000538	0d144583	lbu	x11,209(x8)	  x8:0x80008216 x11=0x00000000 PA:0x800082e7
       39095000	      3908	8000053c	f9c87293	andi	x5,x16,-100	 x16:0x00000000  x5=0x00000000
       39105000	      3909	80000540	02540523	sb	x5,42(x8)	  x8:0x80008216  x5:0x00000000 PA:0x80008240
       39115000	      3910	80000544	00000013	addi	x0,x0,0	  x0:0x00000000
       39125000	      3911	80000548	0a241e83	lh	x29,162(x8)	  x8:0x80008216 x29=0x00000000 PA:0x800082b8
       39135000	      3912	8000054c	01344983	lbu	x19,19(x8)	  x8:0x80008216 x19=0x00000000 PA:0x80008229
       39145000	      3913	80000550	676aa593	slti	x11,x21,1654	 x21:0x80009fc4 x11=0x00000001
       39155000	      3914	80000554	f70402a3	sb	x16,-155(x8)	  x8:0x80008216 x16:0x00000000 PA:0x8000817b
       39165000	      3915	80000558	01f0cb33	xor	x22,x1,x31	  x1:0x000000f9 x31:0x00000000 x22=0x000000f9
       39175000	      3916	8000055c	0ae40e03	lb	x28,174(x8)	  x8:0x80008216 x28=0x00000000 PA:0x800082c4
       39185000	      3917	80000560	fec44883	lbu	x17,-20(x8)	  x8:0x80008216 x17=0x00000000 PA:0x80008202
       39195000	      3918	80000564	cc060db7	lui	x27,0xcc060	 x27=0xcc060000
       39205000	      3919	80000568	fe445103	lhu	x2,-28(x8)	  x8:0x80008216  x2=0x00000000 PA:0x800081fa
       39215000	      3920	8000056c	03244103	lbu	x2,50(x8)	  x8:0x80008216  x2=0x00000000 PA:0x80008248
       39225000	      3921	80000570	f9340123	sb	x19,-126(x8)	  x8:0x80008216 x19:0x00000000 PA:0x80008198
       39235000	      3922	80000574	f2840283	lb	x5,-216(x8)	  x8:0x80008216  x5=0x00000000 PA:0x8000813e
       39245000	      3923	80000578	01383c33	sltu	x24,x16,x19	 x16:0x00000000 x19:0x00000000 x24=0x00000000
       39255000	      3924	8000057c	02c45203	lhu	x4,44(x8)	  x8:0x80008216  x4=0x00000000 PA:0x80008242
       39265000	      3925	80000580	01f685b3	add	x11,x13,x31	 x13:0x00000001 x31:0x00000000 x11=0x00000001
       39275000	      3926	80000584	5907eb13	ori	x22,x15,1424	 x15:0xffffffff x22=0xffffffff
       39285000	      3927	80000588	fc140603	lb	x12,-63(x8)	  x8:0x80008216 x12=0x00000000 PA:0x800081d7
       39295000	      3928	8000058c	ba0dbe93	sltiu	x29,x27,-1120	 x27:0xcc060000 x29=0x00000001
       39305000	      3929	80000590	fe640523	sb	x6,-22(x8)	  x8:0x80008216  x6:0x00000000 PA:0x80008200
       39315000	      3930	80000594	09f0c193	xori	x3,x1,159	  x1:0x000000f9  x3=0x00000066
       39325000	      3931	80000598	fa840da3	sb	x8,-69(x8)	  x8:0x80008216  x8:0x80008216 PA:0x800081d1
       39335000	      3932	8000059c	b5873613	sltiu	x12,x14,-1192	 x14:0x80009f0c x12=0x00000001
       39345000	      3933	800005a0	0c340123	sb	x3,194(x8)	  x8:0x80008216  x3:0x00000066 PA:0x800082d8
       39355000	      3934	800005a4	05c10263	beq	x2,x28,800005e8	  x2:0x00000000 x28:0x00000000
       39365000	      3935	00000000	00000013	addi	x0,x0,0	  x0:0x00000000
       39375000	      3936	800005e4	00000013	addi	x0,x0,0	  x0:0x00000000
       39385000	      3937	800005e8	9c30e793	ori	x15,x1,-1597	  x1:0x000000f9 x15=0xfffff9fb
       39395000	      3938	800005ec	0090b0b3	sltu	x1,x1,x9	  x1:0x000000f9  x9:0x00000000  x1=0x00000000
       39405000	      3939	800005f0	01095893	srli	x17,x18,0x10	 x18:0x80000000 x17=0x00008000
       39415000	      3940	800005f4	00707c33	and	x24,x0,x7	  x0:0x00000000  x7:0x00000000 x24=0x00000000
       39425000	      3941	800005f8	02501863	bne	x0,x5,80000628	  x0:0x00000000  x5:0x00000000
       39435000	      3942	800005fc	013da6b3	slt	x13,x27,x19	 x27:0xcc060000 x19:0x00000000 x13=0x00000001
       39445000	      3943	80000600	402a0633	sub	x12,x20,x2	 x20:0xad068000  x2:0x00000000 x12=0xad068000
       39455000	      3944	80000604	64c32393	slti	x7,x6,1612	  x6:0x00000000  x7=0x00000001
       39465000	      3945	80000608	4e807293	andi	x5,x0,1256	  x0:0x00000000  x5=0x00000000
       39475000	      3946	8000060c	000a90b3	sll	x1,x21,x0	 x21:0x80009fc4  x0:0x00000000  x1=0x80009fc4
       39485000	      3947	80000610	00eb2633	slt	x12,x22,x14	 x22:0xffffffff x14:0x80009f0c x12=0x00000000
       39495000	      3948	80000614	00efa5b3	slt	x11,x31,x14	 x31:0x00000000 x14:0x80009f0c x11=0x00000000
       39505000	      3949	80000618	56c58493	addi	x9,x11,1388	 x11:0x00000000  x9=0x0000056c
       39515000	      3950	8000061c	5f03c813	xori	x16,x7,1520	  x7:0x00000001 x16=0x000005f1
       39525000	      3951	80000620	00000013	addi	x0,x0,0	  x0:0x00000000
       39535000	      3952	80000624	3f84ac13	slti	x24,x9,1016	  x9:0x0000056c x24=0x00000000
       39545000	      3953	80000628	00167f33	and	x30,x12,x1	 x12:0x00000000  x1:0x80009fc4 x30=0x00000000
       39555000	      3954	8000062c	05777063	bgeu	x14,x23,8000066c	 x14:0x80009f0c x23:0x00000000
       39565000	      3955	00000000	00000013	addi	x0,x0,0	  x0:0x00000000
       39575000	      3956	80000668	00000013	addi	x0,x0,0	  x0:0x00000000
       39585000	      3957	8000066c	0199f233	and	x4,x19,x25	 x19:0x00000000 x25:0x00000000  x4=0x00000000
       39595000	      3958	80000670	41d75013	srai	x0,x14,0x1d	 x14:0x80009f0c
       39605000	      3959	80000674	006a3e33	sltu	x28,x20,x6	 x20:0xad068000  x6:0x00000000 x28=0x00000000
       39615000	      3960	80000678	d13b6813	ori	x16,x22,-749	 x22:0xffffffff x16=0xffffffff
       39625000	      3961	8000067c	05996663	bltu	x18,x25,800006c8	 x18:0x80000000 x25:0x00000000
       39635000	      3962	80000680	02561463	bne	x12,x5,800006a8	 x12:0x00000000  x5:0x00000000
       39645000	      3963	80000684	51033037	lui	x0,0x51033	
       39655000	      3964	80000688	017400b3	add	x1,x8,x23	  x8:0x80008216 x23:0x00000000  x1=0x80008216
       39665000	      3965	8000068c	418a5f93	srai	x31,x20,0x18	 x20:0xad068000 x31=0xffffffad
       39675000	      3966	80000690	24160d97	auipc	x27,0x24160	 x27=0xa416068c
       39685000	      3967	80000694	01062cb3	slt	x25,x12,x16	 x12:0x00000000 x16:0xffffffff x25=0x00000000
       39695000	      3968	80000698	01f85093	srli	x1,x16,0x1f	 x16:0xffffffff  x1=0x00000001
       39705000	      3969	8000069c	04531663	bne	x6,x5,800006e8	  x6:0x00000000  x5:0x00000000
       39715000	      3970	800006a0	00b18cb3	add	x25,x3,x11	  x3:0x00000066 x11:0x00000000 x25=0x00000066
       39725000	      3971	800006a4	01bda4b3	slt	x9,x27,x27	 x27:0xa416068c x27:0xa416068c  x9=0x00000000
       39735000	      3972	800006a8	02a9ee63	bltu	x19,x10,800006e4	 x19:0x00000000 x10:0xfffff982
       39745000	      3973	00000000	00000013	addi	x0,x0,0	  x0:0x00000000
       39755000	      3974	800006e0	00000013	addi	x0,x0,0	  x0:0x00000000
       39765000	      3975	800006e4	0194c263	blt	x9,x25,800006e8	  x9:0x00000000 x25:0x00000066
       39775000	      3976	00000000	00000013	addi	x0,x0,0	  x0:0x00000000
       39785000	      3977	800006e4	00000013	addi	x0,x0,0	  x0:0x00000000
       39795000	      3978	800006e8	007c6c63	bltu	x24,x7,80000700	 x24:0x00000000  x7:0x00000001
       39805000	      3979	00000000	00000013	addi	x0,x0,0	  x0:0x00000000
       39815000	      3980	800006fc	00000013	addi	x0,x0,0	  x0:0x00000000
       39825000	      3981	80000700	50053193	sltiu	x3,x10,1280	 x10:0xfffff982  x3=0x00000000
       39835000	      3982	80000704	d39219b7	lui	x19,0xd3921	 x19=0xd3921000
       39845000	      3983	80000708	120a0313	addi	x6,x20,288	 x20:0xad068000  x6=0xad068120
       39855000	      3984	8000070c	0158be33	sltu	x28,x17,x21	 x17:0x00008000 x21:0x80009fc4 x28=0x00000001
       39865000	      3985	80000710	7809bf97	auipc	x31,0x7809b	 x31=0xf809b70c
       39875000	      3986	80000714	001c8233	add	x4,x25,x1	 x25:0x00000066  x1:0x00000001  x4=0x00000067
       39885000	      3987	80000718	00e81793	slli	x15,x16,0xe	 x16:0xffffffff x15=0xffffc000
       39895000	      3988	8000071c	5ed86393	ori	x7,x16,1517	 x16:0xffffffff  x7=0xffffffff
       39905000	      3989	80000720	00670a63	beq	x14,x6,80000734	 x14:0x80009f0c  x6:0xad068120
       39915000	      3990	80000724	010c7663	bgeu	x24,x16,80000730	 x24:0x00000000 x16:0xffffffff
       39925000	      3991	80000728	c6d94493	xori	x9,x18,-915	 x18:0x80000000  x9=0x7ffffc6d
       39935000	      3992	8000072c	00000013	addi	x0,x0,0	  x0:0x00000000
       39945000	      3993	80000730	54842813	slti	x16,x8,1352	  x8:0x80008216 x16=0x00000001
       39955000	      3994	80000734	40050633	sub	x12,x10,x0	 x10:0xfffff982  x0:0x00000000 x12=0xfffff982
       39965000	      3995	80000738	00b7de63	bge	x15,x11,80000754	 x15:0xffffc000 x11:0x00000000
       39975000	      3996	8000073c	404004b3	sub	x9,x0,x4	  x0:0x00000000  x4:0x00000067  x9=0xffffff99
       39985000	      3997	80000740	00a7da63	bge	x15,x10,80000754	 x15:0xffffc000 x10:0xfffff982
       39995000	      3998	80000744	01701533	sll	x10,x0,x23	  x0:0x00000000 x23:0x00000000 x10=0x00000000
       40005000	      3999	80000748	6d0b7d13	andi	x26,x22,1744	 x22:0xffffffff x26=0x000006d0
       40015000	      4000	8000074c	00cd0633	add	x12,x26,x12	 x26:0x000006d0 x12:0xfffff982 x12=0x00000052
       40025000	      4001	80000750	41ab5693	srai	x13,x22,0x1a	 x22:0xffffffff x13=0xffffffff
       40035000	      4002	80000754	00f290b3	sll	x1,x5,x15	  x5:0x00000000 x15:0xffffc000  x1=0x00000000
       40045000	      4003	80000758	30b13637	lui	x12,0x30b13	 x12=0x30b13000
       40055000	      4004	8000075c	a8d9d417	auipc	x8,0xa8d9d	  x8=0x28d9d758
       40065000	      4005	80000760	00746133	or	x2,x8,x7	  x8:0x28d9d758  x7:0xffffffff  x2=0xffffffff
       40075000	      4006	80000764	015412b3	sll	x5,x8,x21	  x8:0x28d9d758 x21:0x80009fc4  x5=0x8d9d7580
       40085000	      4007	80000768	00e7be33	sltu	x28,x15,x14	 x15:0xffffc000 x14:0x80009f0c x28=0x00000000
       40095000	      4008	8000076c	41d88133	sub	x2,x17,x29	 x17:0x00008000 x29:0x00000001  x2=0x00007fff
       40105000	      4009	80000770	00e8acb3	slt	x25,x17,x14	 x17:0x00008000 x14:0x80009f0c x25=0x00000000
       40115000	      4010	80000774	05c3d063	bge	x7,x28,800007b4	  x7:0xffffffff x28:0x00000000
       40125000	      4011	80000778	008f9f93	slli	x31,x31,0x8	 x31:0xf809b70c x31=0x09b70c00
       40135000	      4012	8000077c	000a1fb3	sll	x31,x20,x0	 x20:0xad068000  x0:0x00000000 x31=0xad068000
       40145000	      4013	80000780	02307a63	bgeu	x0,x3,800007b4	  x0:0x00000000  x3:0x00000000
       40155000	      4014	00000000	00000013	addi	x0,x0,0	  x0:0x00000000
       40165000	      4015	800007b0	00000013	addi	x0,x0,0	  x0:0x00000000
       40175000	      4016	800007b4	02b11063	bne	x2,x11,800007d4	  x2:0x00007fff x11:0x00000000
       40185000	      4017	00000000	00000013	addi	x0,x0,0	  x0:0x00000000
       40195000	      4018	800007d0	00000013	addi	x0,x0,0	  x0:0x00000000
       40205000	      4019	800007d4	a5346c93	ori	x25,x8,-1453	  x8:0x28d9d758 x25=0xffffff5b
       40215000	      4020	800007d8	c4e78613	addi	x12,x15,-946	 x15:0xffffc000 x12=0xffffbc4e
       40225000	      4021	800007dc	41d15e93	srai	x29,x2,0x1d	  x2:0x00007fff x29=0x00000000
       40235000	      4022	800007e0	774ded93	ori	x27,x27,1908	 x27:0xa416068c x27=0xa41607fc
       40245000	      4023	800007e4	00895663	bge	x18,x8,800007f0	 x18:0x80000000  x8:0x28d9d758
       40255000	      4024	800007e8	03af1063	bne	x30,x26,80000808	 x30:0x00000000 x26:0x000006d0
       40265000	      4025	00000000	00000013	addi	x0,x0,0	  x0:0x00000000
       40275000	      4026	80000804	00000013	addi	x0,x0,0	  x0:0x00000000
       40285000	      4027	80000808	006e8b33	add	x22,x29,x6	 x29:0x00000000  x6:0xad068120 x22=0xad068120
       40295000	      4028	8000080c	0594f263	bgeu	x9,x25,80000850	  x9:0xffffff99 x25:0xffffff5b
       40305000	      4029	00000000	00000013	addi	x0,x0,0	  x0:0x00000000
       40315000	      4030	8000084c	00000013	addi	x0,x0,0	  x0:0x00000000
       40325000	      4031	80000850	0704fc63	bgeu	x9,x16,800008c8	  x9:0xffffff99 x16:0x00000001
       40335000	      4032	00000000	00000013	addi	x0,x0,0	  x0:0x00000000
       40345000	      4033	800008c4	00000013	addi	x0,x0,0	  x0:0x00000000
       40355000	      4034	800008c8	033f1863	bne	x30,x19,800008f8	 x30:0x00000000 x19:0xd3921000
       40365000	      4035	00000000	00000013	addi	x0,x0,0	  x0:0x00000000
       40375000	      4036	800008f4	00000013	addi	x0,x0,0	  x0:0x00000000
       40385000	      4037	800008f8	70cd2197	auipc	x3,0x70cd2	  x3=0xf0cd28f4
       40395000	      4038	800008fc	00d6a2b3	slt	x5,x13,x13	 x13:0xffffffff x13:0xffffffff  x5=0x00000000
       40405000	      4039	80000900	1ea83e13	sltiu	x28,x16,490	 x16:0x00000001 x28=0x00000001
       40415000	      4040	80000904	40952313	slti	x6,x10,1033	 x10:0x00000000  x6=0x00000001
       40425000	      4041	80000908	0406c663	blt	x13,x0,80000954	 x13:0xffffffff  x0:0x00000000
       40435000	      4042	00000000	00000013	addi	x0,x0,0	  x0:0x00000000
       40445000	      4043	80000950	00000013	addi	x0,x0,0	  x0:0x00000000
       40455000	      4044	80000954	0097d813	srli	x16,x15,0x9	 x15:0xffffc000 x16=0x007fffe0
       40465000	      4045	80000958	3f5eff93	andi	x31,x29,1013	 x29:0x00000000 x31=0x00000000
       40475000	      4046	8000095c	00c35f93	srli	x31,x6,0xc	  x6:0x00000001 x31=0x00000000
       40485000	      4047	80000960	00dc52b3	srl	x5,x24,x13	 x24:0x00000000 x13:0xffffffff  x5=0x00000000
       40495000	      4048	80000964	00000013	addi	x0,x0,0	  x0:0x00000000
       40505000	      4049	80000968	00fcd663	bge	x25,x15,80000974	 x25:0xffffff5b x15:0xffffc000
       40515000	      4050	00000000	00000013	addi	x0,x0,0	  x0:0x00000000
       40525000	      4051	80000970	00000013	addi	x0,x0,0	  x0:0x00000000
       40535000	      4052	80000974	010971b3	and	x3,x18,x16	 x18:0x80000000 x16:0x007fffe0  x3=0x00000000
       40545000	      4053	80000978	02d35a63	bge	x6,x13,800009ac	  x6:0x00000001 x13:0xffffffff
       40555000	      4054	00000000	00000013	addi	x0,x0,0	  x0:0x00000000
       40565000	      4055	800009a8	00000013	addi	x0,x0,0	  x0:0x00000000
       40575000	      4056	800009ac	6fd9aa13	slti	x20,x19,1789	 x19:0xd3921000 x20=0x00000001
       40585000	      4057	800009b0	02e85063	bge	x16,x14,800009d0	 x16:0x007fffe0 x14:0x80009f0c
       40595000	      4058	00000000	00000013	addi	x0,x0,0	  x0:0x00000000
       40605000	      4059	800009cc	00000013	addi	x0,x0,0	  x0:0x00000000
       40615000	      4060	800009d0	0a6601b7	lui	x3,0xa660	  x3=0x0a660000
       40625000	      4061	800009d4	d71f4693	xori	x13,x30,-655	 x30:0x00000000 x13=0xfffffd71
       40635000	      4062	800009d8	004fe9b3	or	x19,x31,x4	 x31:0x00000000  x4:0x00000067 x19=0x00000067
       40645000	      4063	800009dc	004ccc93	xori	x25,x25,4	 x25:0xffffff5b x25=0xffffff5f
       40655000	      4064	800009e0	c0c02993	slti	x19,x0,-1012	  x0:0x00000000 x19=0x00000000
       40665000	      4065	800009e4	40a15d93	srai	x27,x2,0xa	  x2:0x00007fff x27=0x0000001f
       40675000	      4066	800009e8	01df5613	srli	x12,x30,0x1d	 x30:0x00000000 x12=0x00000000
       40685000	      4067	800009ec	0b42bdb7	lui	x27,0xb42b	 x27=0x0b42b000
       40695000	      4068	800009f0	2d513f13	sltiu	x30,x2,725	  x2:0x00007fff x30=0x00000000
       40705000	      4069	800009f4	00000013	addi	x0,x0,0	  x0:0x00000000
       40715000	      4070	800009f8	00e9ba33	sltu	x20,x19,x14	 x19:0x00000000 x14:0x80009f0c x20=0x00000001
       40725000	      4071	800009fc	e36b3593	sltiu	x11,x22,-458	 x22:0xad068120 x11=0x00000001
       40735000	      4072	80000a00	4150db93	srai	x23,x1,0x15	  x1:0x00000000 x23=0x00000000
       40745000	      4073	80000a04	007097b3	sll	x15,x1,x7	  x1:0x00000000  x7:0xffffffff x15=0x00000000
       40755000	      4074	80000a08	c66e0697	auipc	x13,0xc66e0	 x13=0x466e0a04
       40765000	      4075	80000a0c	0003db33	srl	x22,x7,x0	  x7:0xffffffff  x0:0x00000000 x22=0xffffffff
       40775000	      4076	80000a10	0139f6b3	and	x13,x19,x19	 x19:0x00000000 x19:0x00000000 x13=0x00000000
       40785000	      4077	80000a14	00000013	addi	x0,x0,0	  x0:0x00000000
       40795000	      4078	80000a18	eab4e013	ori	x0,x9,-341	  x9:0xffffff99
       40805000	      4079	80000a1c	0111bc33	sltu	x24,x3,x17	  x3:0x0a660000 x17:0x00008000 x24=0x00000000
       40815000	      4080	80000a20	d908ee93	ori	x29,x17,-624	 x17:0x00008000 x29=0xfffffd90
       40825000	      4081	80000a24	0106c333	xor	x6,x13,x16	 x13:0x00000000 x16:0x007fffe0  x6=0x007fffe0
       40835000	      4082	80000a28	010d4033	xor	x0,x26,x16	 x26:0x000006d0 x16:0x007fffe0
       40845000	      4083	80000a2c	f088e117	auipc	x2,0xf088e	  x2=0x7088ea28
       40855000	      4084	80000a30	04e9d063	bge	x19,x14,80000a70	 x19:0x00000000 x14:0x80009f0c
       40865000	      4085	00000000	00000013	addi	x0,x0,0	  x0:0x00000000
       40875000	      4086	80000a6c	00000013	addi	x0,x0,0	  x0:0x00000000
       40885000	      4087	80000a70	015642b3	xor	x5,x12,x21	 x12:0x00000000 x21:0x80009fc4  x5=0x80009fc4
       40895000	      4088	80000a74	042d6063	bltu	x26,x2,80000ab4	 x26:0x000006d0  x2:0x7088ea28
       40905000	      4089	00000000	00000013	addi	x0,x0,0	  x0:0x00000000
       40915000	      4090	80000ab0	00000013	addi	x0,x0,0	  x0:0x00000000
       40925000	      4091	80000ab4	0248c463	blt	x17,x4,80000adc	 x17:0x00008000  x4:0x00000067
       40935000	      4092	80000ab8	1ae48193	addi	x3,x9,430	  x9:0xffffff99  x3=0x00000147
       40945000	      4093	80000abc	0182da13	srli	x20,x5,0x18	  x5:0x80009fc4 x20=0x00000080
       40955000	      4094	80000ac0	00000013	addi	x0,x0,0	  x0:0x00000000
       40965000	      4095	80000ac4	00dddb93	srli	x23,x27,0xd	 x27:0x0b42b000 x23=0x00005a15
       40975000	      4096	80000ac8	0377fa63	bgeu	x15,x23,80000afc	 x15:0x00000000 x23:0x00005a15
       40985000	      4097	80000acc	056dc663	blt	x27,x22,80000b18	 x27:0x0b42b000 x22:0xffffffff
       40995000	      4098	80000ad0	60802e93	slti	x29,x0,1544	  x0:0x00000000 x29=0x00000001
       41005000	      4099	80000ad4	ef723113	sltiu	x2,x4,-265	  x4:0x00000067  x2=0x00000001
       41015000	      4100	80000ad8	0012e833	or	x16,x5,x1	  x5:0x80009fc4  x1:0x00000000 x16=0x80009fc4
       41025000	      4101	80000adc	f771a513	slti	x10,x3,-137	  x3:0x00000147 x10=0x00000000
       41035000	      4102	80000ae0	008bb233	sltu	x4,x23,x8	 x23:0x00005a15  x8:0x28d9d758  x4=0x00000001
       41045000	      4103	80000ae4	42d58e93	addi	x29,x11,1069	 x11:0x00000001 x29=0x0000042e
       41055000	      4104	80000ae8	417b8233	sub	x4,x23,x23	 x23:0x00005a15 x23:0x00005a15  x4=0x00000000
       41065000	      4105	80000aec	41f657b3	sra	x15,x12,x31	 x12:0x00000000 x31:0x00000000 x15=0x00000000
       41075000	      4106	80000af0	00000013	addi	x0,x0,0	  x0:0x00000000
       41085000	      4107	80000af4	c4404c13	xori	x24,x0,-956	  x0:0x00000000 x24=0xfffffc44
       41095000	      4108	80000af8	cfe9a993	slti	x19,x19,-770	 x19:0x00000000 x19=0x00000000
       41105000	      4109	80000afc	9c76e113	ori	x2,x13,-1593	 x13:0x00000000  x2=0xfffff9c7
       41115000	      4110	80000b00	00000013	addi	x0,x0,0	  x0:0x00000000
       41125000	      4111	80000b04	02e08663	beq	x1,x14,80000b30	  x1:0x00000000 x14:0x80009f0c
       41135000	      4112	80000b08	405f0e33	sub	x28,x30,x5	 x30:0x00000000  x5:0x80009fc4 x28=0x7fff603c
       41145000	      4113	80000b0c	01701663	bne	x0,x23,80000b18	  x0:0x00000000 x23:0x00005a15
       41155000	      4114	00000000	00000013	addi	x0,x0,0	  x0:0x00000000
       41165000	      4115	80000b14	00000013	addi	x0,x0,0	  x0:0x00000000
       41175000	      4116	80000b18	03eb9063	bne	x23,x30,80000b38	 x23:0x00005a15 x30:0x00000000
       41185000	      4117	00000000	00000013	addi	x0,x0,0	  x0:0x00000000
       41195000	      4118	80000b34	00000013	addi	x0,x0,0	  x0:0x00000000
       41205000	      4119	80000b38	70c6be13	sltiu	x28,x13,1804	 x13:0x00000000 x28=0x00000001
       41215000	      4120	80000b3c	011551b3	srl	x3,x10,x17	 x10:0x00000000 x17:0x00008000  x3=0x00000000
       41225000	      4121	80000b40	019e3cb3	sltu	x25,x28,x25	 x28:0x00000001 x25:0xffffff5f x25=0x00000001
       41235000	      4122	80000b44	01a8d863	bge	x17,x26,80000b54	 x17:0x00008000 x26:0x000006d0
       41245000	      4123	00000000	00000013	addi	x0,x0,0	  x0:0x00000000
       41255000	      4124	80000b50	00000013	addi	x0,x0,0	  x0:0x00000000
       41265000	      4125	80000b54	243d6393	ori	x7,x26,579	 x26:0x000006d0  x7=0x000006d3
       41275000	      4126	80000b58	496fbf97	auipc	x31,0x496fb	 x31=0xc96fbb54
       41285000	      4127	80000b5c	603daf13	slti	x30,x27,1539	 x27:0x0b42b000 x30=0x00000000
       41295000	      4128	80000b60	55097613	andi	x12,x18,1360	 x18:0x80000000 x12=0x00000000
       41305000	      4129	80000b64	01c93133	sltu	x2,x18,x28	 x18:0x80000000 x28:0x00000001  x2=0x00000000
       41315000	      4130	80000b68	04218663	beq	x3,x2,80000bb4	  x3:0x00000000  x2:0x00000000
       41325000	      4131	00000000	00000013	addi	x0,x0,0	  x0:0x00000000
       41335000	      4132	80000bb0	00000013	addi	x0,x0,0	  x0:0x00000000
       41345000	      4133	80000bb4	00c2df33	srl	x30,x5,x12	  x5:0x80009fc4 x12:0x00000000 x30=0x80009fc4
       41355000	      4134	80000bb8	018f0cb3	add	x25,x30,x24	 x30:0x80009fc4 x24:0xfffffc44 x25=0x80009c08
       41365000	      4135	80000bbc	00000013	addi	x0,x0,0	  x0:0x00000000
       41375000	      4136	80000bc0	30e06693	ori	x13,x0,782	  x0:0x00000000 x13=0x0000030e
       41385000	      4137	80000bc4	00be2433	slt	x8,x28,x11	 x28:0x00000001 x11:0x00000001  x8=0x00000000
       41395000	      4138	80000bc8	01d50533	add	x10,x10,x29	 x10:0x00000000 x29:0x0000042e x10=0x0000042e
       41405000	      4139	80000bcc	40ec8e33	sub	x28,x25,x14	 x25:0x80009c08 x14:0x80009f0c x28=0xfffffcfc
       41415000	      4140	80000bd0	7afc3213	sltiu	x4,x24,1967	 x24:0xfffffc44  x4=0x00000000
       41425000	      4141	80000bd4	002430b3	sltu	x1,x8,x2	  x8:0x00000000  x2:0x00000000  x1=0x00000000
       41435000	      4142	80000bd8	053e9063	bne	x29,x19,80000c18	 x29:0x0000042e x19:0x00000000
       41445000	      4143	00000000	00000013	addi	x0,x0,0	  x0:0x00000000
       41455000	      4144	80000c14	00000013	addi	x0,x0,0	  x0:0x00000000
       41465000	      4145	80000c18	5585a893	slti	x17,x11,1368	 x11:0x00000001 x17=0x00000001
       41475000	      4146	80000c1c	047c8063	beq	x25,x7,80000c5c	 x25:0x80009c08  x7:0x000006d3
       41485000	      4147	80000c20	419a8b33	sub	x22,x21,x25	 x21:0x80009fc4 x25:0x80009c08 x22=0x000003bc
       41495000	      4148	80000c24	b6009137	lui	x2,0xb6009	  x2=0xb6009000
       41505000	      4149	80000c28	01ad0c33	add	x24,x26,x26	 x26:0x000006d0 x26:0x000006d0 x24=0x00000da0
       41515000	      4150	80000c2c	0530f063	bgeu	x1,x19,80000c6c	  x1:0x00000000 x19:0x00000000
       41525000	      4151	00000000	00000013	addi	x0,x0,0	  x0:0x00000000
       41535000	      4152	80000c68	00000013	addi	x0,x0,0	  x0:0x00000000
       41545000	      4153	80000c6c	41b1dfb3	sra	x31,x3,x27	  x3:0x00000000 x27:0x0b42b000 x31=0x00000000
       41555000	      4154	80000c70	0051c4b3	xor	x9,x3,x5	  x3:0x00000000  x5:0x80009fc4  x9=0x80009fc4
       41565000	      4155	80000c74	018ce133	or	x2,x25,x24	 x25:0x80009c08 x24:0x00000da0  x2=0x80009da8
       41575000	      4156	80000c78	fbf22f93	slti	x31,x4,-65	  x4:0x00000000 x31=0x00000000
       41585000	      4157	80000c7c	03e36663	bltu	x6,x30,80000ca8	  x6:0x007fffe0 x30:0x80009fc4
       41595000	      4158	00000000	00000013	addi	x0,x0,0	  x0:0x00000000
       41605000	      4159	80000ca4	00000013	addi	x0,x0,0	  x0:0x00000000
       41615000	      4160	80000ca8	00729213	slli	x4,x5,0x7	  x5:0x80009fc4  x4=0x004fe200
       41625000	      4161	80000cac	0068d013	srli	x0,x17,0x6	 x17:0x00000001
       41635000	      4162	80000cb0	01c2fe63	bgeu	x5,x28,80000ccc	  x5:0x80009fc4 x28:0xfffffcfc
       41645000	      4163	80000cb4	03784863	blt	x16,x23,80000ce4	 x16:0x80009fc4 x23:0x00005a15
       41655000	      4164	00000000	00000013	addi	x0,x0,0	  x0:0x00000000
       41665000	      4165	80000ce0	00000013	addi	x0,x0,0	  x0:0x00000000
       41675000	      4166	80000ce4	6a5ef793	andi	x15,x29,1701	 x29:0x0000042e x15=0x00000424
       41685000	      4167	80000ce8	0139e263	bltu	x19,x19,80000cec	 x19:0x00000000 x19:0x00000000
       41695000	      4168	80000cec	0f7c0463	beq	x24,x23,80000dd4	 x24:0x00000da0 x23:0x00005a15
       41705000	      4169	80000cf0	013cba33	sltu	x20,x25,x19	 x25:0x80009c08 x19:0x00000000 x20=0x00000000
       41715000	      4170	80000cf4	0e509263	bne	x1,x5,80000dd8	  x1:0x00000000  x5:0x80009fc4
       41725000	      4171	00000000	00000013	addi	x0,x0,0	  x0:0x00000000
       41735000	      4172	80000dd4	00000013	addi	x0,x0,0	  x0:0x00000000
       41745000	      4173	80000dd8	011ebeb3	sltu	x29,x29,x17	 x29:0x0000042e x17:0x00000001 x29=0x00000000
       41755000	      4174	80000ddc	93076113	ori	x2,x14,-1744	 x14:0x80009f0c  x2=0xffffff3c
       41765000	      4175	80000de0	001853b3	srl	x7,x16,x1	 x16:0x80009fc4  x1:0x00000000  x7=0x80009fc4
       41775000	      4176	80000de4	155cf513	andi	x10,x25,341	 x25:0x80009c08 x10=0x00000000
       41785000	      4177	80000de8	9bb13593	sltiu	x11,x2,-1605	  x2:0xffffff3c x11=0x00000000
       41795000	      4178	80000dec	777e2f37	lui	x30,0x777e2	 x30=0x777e2000
       41805000	      4179	80000df0	01aaf833	and	x16,x21,x26	 x21:0x80009fc4 x26:0x000006d0 x16=0x000006c0
       41815000	      4180	80000df4	00000013	addi	x0,x0,0	  x0:0x00000000
       41825000	      4181	80000df8	4a93f813	andi	x16,x7,1193	  x7:0x80009fc4 x16=0x00000480
       41835000	      4182	80000dfc	0044e333	or	x6,x9,x4	  x9:0x80009fc4  x4:0x004fe200  x6=0x804fffc4
       41845000	      4183	80000e00	7e643b13	sltiu	x22,x8,2022	  x8:0x00000000 x22=0x00000001
       41855000	      4184	80000e04	00859693	slli	x13,x11,0x8	 x11:0x00000000 x13=0x00000000
       41865000	      4185	80000e08	01e51b33	sll	x22,x10,x30	 x10:0x00000000 x30:0x777e2000 x22=0x00000000
       41875000	      4186	80000e0c	0097e663	bltu	x15,x9,80000e18	 x15:0x00000424  x9:0x80009fc4
       41885000	      4187	00000000	00000013	addi	x0,x0,0	  x0:0x00000000
       41895000	      4188	80000e14	00000013	addi	x0,x0,0	  x0:0x00000000
       41905000	      4189	80000e18	088a2313	slti	x6,x20,136	 x20:0x00000000  x6=0x00000001
       41915000	      4190	80000e1c	01511c93	slli	x25,x2,0x15	  x2:0xffffff3c x25=0xe7800000
       41925000	      4191	80000e20	058ff663	bgeu	x31,x24,80000e6c	 x31:0x00000000 x24:0x00000da0
       41935000	      4192	80000e24	f18f1397	auipc	x7,0xf18f1	  x7=0x718f1e20
       41945000	      4193	80000e28	a78629b7	lui	x19,0xa7862	 x19=0xa7862000
       41955000	      4194	80000e2c	017e9233	sll	x4,x29,x23	 x29:0x00000000 x23:0x00005a15  x4=0x00000000
       41965000	      4195	80000e30	047bc263	blt	x23,x7,80000e74	 x23:0x00005a15  x7:0x718f1e20
       41975000	      4196	00000000	00000013	addi	x0,x0,0	  x0:0x00000000
       41985000	      4197	80000e70	00000013	addi	x0,x0,0	  x0:0x00000000
       41995000	      4198	80000e74	01795a63	bge	x18,x23,80000e88	 x18:0x80000000 x23:0x00005a15
       42005000	      4199	80000e78	f0bbc613	xori	x12,x23,-245	 x23:0x00005a15 x12=0xffffa51e
       42015000	      4200	80000e7c	001cdb93	srli	x23,x25,0x1	 x25:0xe7800000 x23=0x73c00000
       42025000	      4201	80000e80	017e9533	sll	x10,x29,x23	 x29:0x00000000 x23:0x73c00000 x10=0x00000000
       42035000	      4202	80000e84	00000013	addi	x0,x0,0	  x0:0x00000000
       42045000	      4203	80000e88	2823cd13	xori	x26,x7,642	  x7:0x718f1e20 x26=0x718f1ca2
       42055000	      4204	80000e8c	012e1513	slli	x10,x28,0x12	 x28:0xfffffcfc x10=0xf3f00000
       42065000	      4205	80000e90	00b67333	and	x6,x12,x11	 x12:0xffffa51e x11:0x00000000  x6=0x00000000
       42075000	      4206	80000e94	00f3abb3	slt	x23,x7,x15	  x7:0x718f1e20 x15:0x00000424 x23=0x00000000
       42085000	      4207	80000e98	40850533	sub	x10,x10,x8	 x10:0xf3f00000  x8:0x00000000 x10=0xf3f00000
       42095000	      4208	80000e9c	01366233	or	x4,x12,x19	 x12:0xffffa51e x19:0xa7862000  x4=0xffffa51e
       42105000	      4209	80000ea0	93184eb7	lui	x29,0x93184	 x29=0x93184000
       42115000	      4210	80000ea4	41630b33	sub	x22,x6,x22	  x6:0x00000000 x22:0x00000000 x22=0x00000000
       42125000	      4211	80000ea8	01af1d33	sll	x26,x30,x26	 x30:0x777e2000 x26:0x718f1ca2 x26=0xddf88000
       42135000	      4212	80000eac	05b98c63	beq	x19,x27,80000f04	 x19:0xa7862000 x27:0x0b42b000
       42145000	      4213	80000eb0	01acaf33	slt	x30,x25,x26	 x25:0xe7800000 x26:0xddf88000 x30=0x00000000
       42155000	      4214	80000eb4	c77a7e13	andi	x28,x20,-905	 x20:0x00000000 x28=0x00000000
       42165000	      4215	80000eb8	0084da63	bge	x9,x8,80000ecc	  x9:0x80009fc4  x8:0x00000000
       42175000	      4216	80000ebc	014766b3	or	x13,x14,x20	 x14:0x80009f0c x20:0x00000000 x13=0x80009f0c
       42185000	      4217	80000ec0	00358533	add	x10,x11,x3	 x11:0x00000000  x3:0x00000000 x10=0x00000000
       42195000	      4218	80000ec4	00774663	blt	x14,x7,80000ed0	 x14:0x80009f0c  x7:0x718f1e20
       42205000	      4219	00000000	00000013	addi	x0,x0,0	  x0:0x00000000
       42215000	      4220	80000ecc	00000013	addi	x0,x0,0	  x0:0x00000000
       42225000	      4221	80000ed0	04c71a63	bne	x14,x12,80000f24	 x14:0x80009f0c x12:0xffffa51e
       42235000	      4222	00000000	00000013	addi	x0,x0,0	  x0:0x00000000
       42245000	      4223	80000f20	00000013	addi	x0,x0,0	  x0:0x00000000
       42255000	      4224	80000f24	6b10e313	ori	x6,x1,1713	  x1:0x00000000  x6=0x000006b1
       42265000	      4225	80000f28	00e724b3	slt	x9,x14,x14	 x14:0x80009f0c x14:0x80009f0c  x9=0x00000000
       42275000	      4226	80000f2c	a23ff793	andi	x15,x31,-1501	 x31:0x00000000 x15=0x00000000
       42285000	      4227	80000f30	000794b3	sll	x9,x15,x0	 x15:0x00000000  x0:0x00000000  x9=0x00000000
       42295000	      4228	80000f34	0341f663	bgeu	x3,x20,80000f60	  x3:0x00000000 x20:0x00000000
       42305000	      4229	00000000	00000013	addi	x0,x0,0	  x0:0x00000000
       42315000	      4230	80000f5c	00000013	addi	x0,x0,0	  x0:0x00000000
       42325000	      4231	80000f60	00000013	addi	x0,x0,0	  x0:0x00000000
       42335000	      4232	80000f64	0062d593	srli	x11,x5,0x6	  x5:0x80009fc4 x11=0x0200027f
       42345000	      4233	80000f68	3344ca37	lui	x20,0x3344c	 x20=0x3344c000
       42355000	      4234	80000f6c	c709ac93	slti	x25,x19,-912	 x19:0xa7862000 x25=0x00000001
       42365000	      4235	80000f70	c3818db7	lui	x27,0xc3818	 x27=0xc3818000
       42375000	      4236	80000f74	019e1113	slli	x2,x28,0x19	 x28:0x00000000  x2=0x00000000
       42385000	      4237	80000f78	01e13833	sltu	x16,x2,x30	  x2:0x00000000 x30:0x00000000 x16=0x00000000
       42395000	      4238	80000f7c	00048633	add	x12,x9,x0	  x9:0x00000000  x0:0x00000000 x12=0x00000000
       42405000	      4239	80000f80	9382b513	sltiu	x10,x5,-1736	  x5:0x80009fc4 x10=0x00000001
       42415000	      4240	80000f84	00000013	addi	x0,x0,0	  x0:0x00000000
       42425000	      4241	80000f88	41fadeb3	sra	x29,x21,x31	 x21:0x80009fc4 x31:0x00000000 x29=0x80009fc4
       42435000	      4242	80000f8c	01670863	beq	x14,x22,80000f9c	 x14:0x80009f0c x22:0x00000000
       42445000	      4243	80000f90	01218c63	beq	x3,x18,80000fa8	  x3:0x00000000 x18:0x80000000
       42455000	      4244	80000f94	00720263	beq	x4,x7,80000f98	  x4:0xffffa51e  x7:0x718f1e20
       42465000	      4245	80000f98	3e7a6d93	ori	x27,x20,999	 x20:0x3344c000 x27=0x3344c3e7
       42475000	      4246	80000f9c	018d69b3	or	x19,x26,x24	 x26:0xddf88000 x24:0x00000da0 x19=0xddf88da0
       42485000	      4247	80000fa0	0359d463	bge	x19,x21,80000fc8	 x19:0xddf88da0 x21:0x80009fc4
       42495000	      4248	00000000	00000013	addi	x0,x0,0	  x0:0x00000000
       42505000	      4249	80000fc4	00000013	addi	x0,x0,0	  x0:0x00000000
       42515000	      4250	80000fc8	00918eb3	add	x29,x3,x9	  x3:0x00000000  x9:0x00000000 x29=0x00000000
       42525000	      4251	80000fcc	03d36863	bltu	x6,x29,80000ffc	  x6:0x000006b1 x29:0x00000000
       42535000	      4252	80000fd0	04a80663	beq	x16,x10,8000101c	 x16:0x00000000 x10:0x00000001
       42545000	      4253	80000fd4	00d7f0b3	and	x1,x15,x13	 x15:0x00000000 x13:0x80009f0c  x1=0x00000000
       42555000	      4254	80000fd8	01651613	slli	x12,x10,0x16	 x10:0x00000001 x12=0x00400000
       42565000	      4255	80000fdc	01086263	bltu	x16,x16,80000fe0	 x16:0x00000000 x16:0x00000000
       42575000	      4256	80000fe0	6c967b93	andi	x23,x12,1737	 x12:0x00400000 x23=0x00000000
       42585000	      4257	80000fe4	0077a2b3	slt	x5,x15,x7	 x15:0x00000000  x7:0x718f1e20  x5=0x00000001
       42595000	      4258	80000fe8	01afd493	srli	x9,x31,0x1a	 x31:0x00000000  x9=0x00000000
       42605000	      4259	80000fec	40300cb3	sub	x25,x0,x3	  x0:0x00000000  x3:0x00000000 x25=0x00000000
       42615000	      4260	80000ff0	40afda33	sra	x20,x31,x10	 x31:0x00000000 x10:0x00000001 x20=0x00000000
       42625000	      4261	80000ff4	0166ea63	bltu	x13,x22,80001008	 x13:0x80009f0c x22:0x00000000
       42635000	      4262	80000ff8	0414e063	bltu	x9,x1,80001038	  x9:0x00000000  x1:0x00000000
       42645000	      4263	80000ffc	009c06b3	add	x13,x24,x9	 x24:0x00000da0  x9:0x00000000 x13=0x00000da0
       42655000	      4264	80001000	018a5e13	srli	x28,x20,0x18	 x20:0x00000000 x28=0x00000000
       42665000	      4265	80001004	00000013	addi	x0,x0,0	  x0:0x00000000
       42675000	      4266	80001008	00000013	addi	x0,x0,0	  x0:0x00000000
       42685000	      4267	8000100c	01915b33	srl	x22,x2,x25	  x2:0x00000000 x25:0x00000000 x22=0x00000000
       42695000	      4268	80001010	01abbe33	sltu	x28,x23,x26	 x23:0x00000000 x26:0xddf88000 x28=0x00000001
       42705000	      4269	80001014	80f77193	andi	x3,x14,-2033	 x14:0x80009f0c  x3=0x8000980c
       42715000	      4270	80001018	4194d9b3	sra	x19,x9,x25	  x9:0x00000000 x25:0x00000000 x19=0x00000000
       42725000	      4271	8000101c	00cee8b3	or	x17,x29,x12	 x29:0x00000000 x12:0x00400000 x17=0x00400000
       42735000	      4272	80001020	5e827d97	auipc	x27,0x5e827	 x27=0xde82801c
       42745000	      4273	80001024	f3d2fc13	andi	x24,x5,-195	  x5:0x00000001 x24=0x00000001
       42755000	      4274	80001028	029a9063	bne	x21,x9,80001048	 x21:0x80009fc4  x9:0x00000000
       42765000	      4275	00000000	00000013	addi	x0,x0,0	  x0:0x00000000
       42775000	      4276	80001044	00000013	addi	x0,x0,0	  x0:0x00000000
       42785000	      4277	80001048	008700b3	add	x1,x14,x8	 x14:0x80009f0c  x8:0x00000000  x1=0x80009f0c
       42795000	      4278	8000104c	fbf74cb7	lui	x25,0xfbf74	 x25=0xfbf74000
       42805000	      4279	80001050	01a7dc33	srl	x24,x15,x26	 x15:0x00000000 x26:0xddf88000 x24=0x00000000
       42815000	      4280	80001054	00000013	addi	x0,x0,0	  x0:0x00000000
       42825000	      4281	80001058	19158313	addi	x6,x11,401	 x11:0x0200027f  x6=0x02000410
       42835000	      4282	8000105c	f0ce2313	slti	x6,x28,-244	 x28:0x00000001  x6=0x00000000
       42845000	      4283	80001060	f1e33b13	sltiu	x22,x6,-226	  x6:0x00000000 x22=0x00000001
       42855000	      4284	80001064	22bae293	ori	x5,x21,555	 x21:0x80009fc4  x5=0x80009fef
       42865000	      4285	80001068	008525b3	slt	x11,x10,x8	 x10:0x00000001  x8:0x00000000 x11=0x00000000
       42875000	      4286	8000106c	01b46863	bltu	x8,x27,8000107c	  x8:0x00000000 x27:0xde82801c
       42885000	      4287	00000000	00000013	addi	x0,x0,0	  x0:0x00000000
       42895000	      4288	80001078	00000013	addi	x0,x0,0	  x0:0x00000000
       42905000	      4289	8000107c	6c603393	sltiu	x7,x0,1734	  x0:0x00000000  x7=0x00000001
       42915000	      4290	80001080	dac08697	auipc	x13,0xdac08	 x13=0x5ac0907c
       42925000	      4291	80001084	00472083	lw	x1,4(x14)	 x14:0x80009f0c  x1=0x80002e34 PA:0x80009f10
       42935000	      4292	80001088	02070713	addi	x14,x14,32	 x14:0x80009f0c x14=0x80009f2c
       42945000	      4293	8000108c	00035b33	srl	x22,x6,x0	  x6:0x00000000  x0:0x00000000 x22=0x00000000
       42955000	      4294	80001090	09ee2eb7	lui	x29,0x9ee2	 x29=0x09ee2000
       42965000	      4295	80001094	001cceb3	xor	x29,x25,x1	 x25:0xfbf74000  x1:0x80002e34 x29=0x7bf76e34
       42975000	      4296	80001098	00108593	addi	x11,x1,1	  x1:0x80002e34 x11=0x80002e35
       42985000	      4297	8000109c	000585e7	jalr	x11,x11,0	 x11:0x80002e35 x11=0x8000109c
       42995000	      4298	00000000	00000013	addi	x0,x0,0	  x0:0x00000000
       43005000	      4299	80002e34	00000013	addi	x0,x0,0	  x0:0x00000000
       43015000	      4300	80002e38	01961433	sll	x8,x12,x25	 x12:0x00400000 x25:0xfbf74000  x8=0x00400000
       43025000	      4301	80002e3c	005fee33	or	x28,x31,x5	 x31:0x00000000  x5:0x80009fef x28=0x80009fef
       43035000	      4302	80002e40	015ed493	srli	x9,x29,0x15	 x29:0x7bf76e34  x9=0x000003df
       43045000	      4303	80002e44	02099863	bne	x19,x0,80002e74	 x19:0x00000000  x0:0x00000000
       43055000	      4304	80002e48	54e6c693	xori	x13,x13,1358	 x13:0x5ac0907c x13=0x5ac09532
       43065000	      4305	80002e4c	0269f463	bgeu	x19,x6,80002e74	 x19:0x00000000  x6:0x00000000
       43075000	      4306	00000000	00000013	addi	x0,x0,0	  x0:0x00000000
       43085000	      4307	80002e70	00000013	addi	x0,x0,0	  x0:0x00000000
       43095000	      4308	80002e74	40855f93	srai	x31,x10,0x8	 x10:0x00000001 x31=0x00000000
       43105000	      4309	80002e78	78b83c13	sltiu	x24,x16,1931	 x16:0x00000000 x24=0x00000001
       43115000	      4310	80002e7c	03f65c63	bge	x12,x31,80002eb4	 x12:0x00400000 x31:0x00000000
       43125000	      4311	00000000	00000013	addi	x0,x0,0	  x0:0x00000000
       43135000	      4312	80002eb0	00000013	addi	x0,x0,0	  x0:0x00000000
       43145000	      4313	80002eb4	566c6113	ori	x2,x24,1382	 x24:0x00000001  x2=0x00000567
       43155000	      4314	80002eb8	03857a63	bgeu	x10,x24,80002eec	 x10:0x00000001 x24:0x00000001
       43165000	      4315	00000000	00000013	addi	x0,x0,0	  x0:0x00000000
       43175000	      4316	80002ee8	00000013	addi	x0,x0,0	  x0:0x00000000
       43185000	      4317	80002eec	01eae433	or	x8,x21,x30	 x21:0x80009fc4 x30:0x00000000  x8=0x80009fc4
       43195000	      4318	80002ef0	4d7c8fb7	lui	x31,0x4d7c8	 x31=0x4d7c8000
       43205000	      4319	80002ef4	01effe63	bgeu	x31,x30,80002f10	 x31:0x4d7c8000 x30:0x00000000
       43215000	      4320	00000000	00000013	addi	x0,x0,0	  x0:0x00000000
       43225000	      4321	80002f0c	00000013	addi	x0,x0,0	  x0:0x00000000
       43235000	      4322	80002f10	00000013	addi	x0,x0,0	  x0:0x00000000
       43245000	      4323	80002f14	01cd6833	or	x16,x26,x28	 x26:0xddf88000 x28:0x80009fef x16=0xddf89fef
       43255000	      4324	80002f18	00171413	slli	x8,x14,0x1	 x14:0x80009f2c  x8=0x00013e58
       43265000	      4325	80002f1c	032f8063	beq	x31,x18,80002f3c	 x31:0x4d7c8000 x18:0x80000000
       43275000	      4326	80002f20	336a8c13	addi	x24,x21,822	 x21:0x80009fc4 x24=0x8000a2fa
       43285000	      4327	80002f24	136be313	ori	x6,x23,310	 x23:0x00000000  x6=0x00000136
       43295000	      4328	80002f28	41238d33	sub	x26,x7,x18	  x7:0x00000001 x18:0x80000000 x26=0x80000001
       43305000	      4329	80002f2c	35496493	ori	x9,x18,852	 x18:0x80000000  x9=0x80000354
       43315000	      4330	80002f30	003b5e93	srli	x29,x22,0x3	 x22:0x00000000 x29=0x00000000
       43325000	      4331	80002f34	005a80b3	add	x1,x21,x5	 x21:0x80009fc4  x5:0x80009fef  x1=0x00013fb3
       43335000	      4332	80002f38	a0c39c17	auipc	x24,0xa0c39	 x24=0x20c3bf34
       43345000	      4333	80002f3c	414d0c33	sub	x24,x26,x20	 x26:0x80000001 x20:0x00000000 x24=0x80000001
       43355000	      4334	80002f40	01986133	or	x2,x16,x25	 x16:0xddf89fef x25:0xfbf74000  x2=0xffffdfef
       43365000	      4335	80002f44	5dd31137	lui	x2,0x5dd31	  x2=0x5dd31000
       43375000	      4336	80002f48	d731bc93	sltiu	x25,x3,-653	  x3:0x8000980c x25=0x00000001
       43385000	      4337	80002f4c	007fa3b3	slt	x7,x31,x7	 x31:0x4d7c8000  x7:0x00000001  x7=0x00000000
       43395000	      4338	80002f50	41a45eb3	sra	x29,x8,x26	  x8:0x00013e58 x26:0x80000001 x29=0x00009f2c
       43405000	      4339	80002f54	0d312793	slti	x15,x2,211	  x2:0x5dd31000 x15=0x00000000
       43415000	      4340	80002f58	00991863	bne	x18,x9,80002f68	 x18:0x80000000  x9:0x80000354
       43425000	      4341	00000000	00000013	addi	x0,x0,0	  x0:0x00000000
       43435000	      4342	80002f64	00000013	addi	x0,x0,0	  x0:0x00000000
       43445000	      4343	80002f68	0c79ce93	xori	x29,x19,199	 x19:0x00000000 x29=0x000000c7
       43455000	      4344	80002f6c	bd2c3697	auipc	x13,0xbd2c3	 x13=0x3d2c5f68
       43465000	      4345	80002f70	01fc6d33	or	x26,x24,x31	 x24:0x80000001 x31:0x4d7c8000 x26=0xcd7c8001
       43475000	      4346	80002f74	037b0863	beq	x22,x23,80002fa4	 x22:0x00000000 x23:0x00000000
       43485000	      4347	00000000	00000013	addi	x0,x0,0	  x0:0x00000000
       43495000	      4348	80002fa0	00000013	addi	x0,x0,0	  x0:0x00000000
       43505000	      4349	80002fa4	030a5063	bge	x20,x16,80002fc4	 x20:0x00000000 x16:0xddf89fef
       43515000	      4350	00000000	00000013	addi	x0,x0,0	  x0:0x00000000
       43525000	      4351	80002fc0	00000013	addi	x0,x0,0	  x0:0x00000000
       43535000	      4352	80002fc4	25bafb93	andi	x23,x21,603	 x21:0x80009fc4 x23=0x00000240
       43545000	      4353	80002fc8	05577663	bgeu	x14,x21,80003014	 x14:0x80009f2c x21:0x80009fc4
       43555000	      4354	80002fcc	00f11a63	bne	x2,x15,80002fe0	  x2:0x5dd31000 x15:0x00000000
       43565000	      4355	00000000	00000013	addi	x0,x0,0	  x0:0x00000000
       43575000	      4356	80002fdc	00000013	addi	x0,x0,0	  x0:0x00000000
       43585000	      4357	80002fe0	55eff793	andi	x15,x31,1374	 x31:0x4d7c8000 x15=0x00000000
       43595000	      4358	80002fe4	441bb513	sltiu	x10,x23,1089	 x23:0x00000240 x10=0x00000001
       43605000	      4359	80002fe8	41e60b33	sub	x22,x12,x30	 x12:0x00400000 x30:0x00000000 x22=0x00400000
       43615000	      4360	80002fec	052f6863	bltu	x30,x18,8000303c	 x30:0x00000000 x18:0x80000000
       43625000	      4361	00000000	00000013	addi	x0,x0,0	  x0:0x00000000
       43635000	      4362	80003038	00000013	addi	x0,x0,0	  x0:0x00000000
       43645000	      4363	8000303c	0317c463	blt	x15,x17,80003064	 x15:0x00000000 x17:0x00400000
       43655000	      4364	00000000	00000013	addi	x0,x0,0	  x0:0x00000000
       43665000	      4365	80003060	00000013	addi	x0,x0,0	  x0:0x00000000
       43675000	      4366	80003064	3530c313	xori	x6,x1,851	  x1:0x00013fb3  x6=0x00013ce0
       43685000	      4367	80003068	2921a693	slti	x13,x3,658	  x3:0x8000980c x13=0x00000001
       43695000	      4368	8000306c	00381293	slli	x5,x16,0x3	 x16:0xddf89fef  x5=0xefc4ff78
       43705000	      4369	80003070	682a6d93	ori	x27,x20,1666	 x20:0x00000000 x27=0x00000682
       43715000	      4370	80003074	17662c13	slti	x24,x12,374	 x12:0x00400000 x24=0x00000000
       43725000	      4371	80003078	7d998f13	addi	x30,x19,2009	 x19:0x00000000 x30=0x000007d9
       43735000	      4372	8000307c	0141de33	srl	x28,x3,x20	  x3:0x8000980c x20:0x00000000 x28=0x8000980c
       43745000	      4373	80003080	40e15c33	sra	x24,x2,x14	  x2:0x5dd31000 x14:0x80009f2c x24=0x0005dd31
       43755000	      4374	80003084	f8f7bb13	sltiu	x22,x15,-113	 x15:0x00000000 x22=0x00000001
       43765000	      4375	80003088	04706663	bltu	x0,x7,800030d4	  x0:0x00000000  x7:0x00000000
       43775000	      4376	8000308c	00000013	addi	x0,x0,0	  x0:0x00000000
       43785000	      4377	80003090	01a9d533	srl	x10,x19,x26	 x19:0x00000000 x26:0xcd7c8001 x10=0x00000000
       43795000	      4378	80003094	0e724293	xori	x5,x4,231	  x4:0xffffa51e  x5=0xffffa5f9
       43805000	      4379	80003098	015e6db3	or	x27,x28,x21	 x28:0x8000980c x21:0x80009fc4 x27=0x80009fcc
       43815000	      4380	8000309c	01b9dfb3	srl	x31,x19,x27	 x19:0x00000000 x27:0x80009fcc x31=0x00000000
       43825000	      4381	800030a0	02774863	blt	x14,x7,800030d0	 x14:0x80009f2c  x7:0x00000000
       43835000	      4382	00000000	00000013	addi	x0,x0,0	  x0:0x00000000
       43845000	      4383	800030cc	00000013	addi	x0,x0,0	  x0:0x00000000
       43855000	      4384	800030d0	01ab9893	slli	x17,x23,0x1a	 x23:0x00000240 x17=0x00000000
       43865000	      4385	800030d4	01eb7bb3	and	x23,x22,x30	 x22:0x00000001 x30:0x000007d9 x23=0x00000001
       43875000	      4386	800030d8	01beeb33	or	x22,x29,x27	 x29:0x000000c7 x27:0x80009fcc x22=0x80009fcf
       43885000	      4387	800030dc	40200cb3	sub	x25,x0,x2	  x0:0x00000000  x2:0x5dd31000 x25=0xa22cf000
       43895000	      4388	800030e0	009480b3	add	x1,x9,x9	  x9:0x80000354  x9:0x80000354  x1=0x000006a8
       43905000	      4389	800030e4	92de2813	slti	x16,x28,-1747	 x28:0x8000980c x16=0x00000001
       43915000	      4390	800030e8	0163a533	slt	x10,x7,x22	  x7:0x00000000 x22:0x80009fcf x10=0x00000000
       43925000	      4391	800030ec	41145513	srai	x10,x8,0x11	  x8:0x00013e58 x10=0x00000000
       43935000	      4392	800030f0	4220eb13	ori	x22,x1,1058	  x1:0x000006a8 x22=0x000006aa
       43945000	      4393	800030f4	35206293	ori	x5,x0,850	  x0:0x00000000  x5=0x00000352
       43955000	      4394	800030f8	3cfa0e13	addi	x28,x20,975	 x20:0x00000000 x28=0x000003cf
       43965000	      4395	800030fc	015cfbb3	and	x23,x25,x21	 x25:0xa22cf000 x21:0x80009fc4 x23=0x80009000
       43975000	      4396	80003100	00819293	slli	x5,x3,0x8	  x3:0x8000980c  x5=0x00980c00
       43985000	      4397	80003104	63b1f013	andi	x0,x3,1595	  x3:0x8000980c
       43995000	      4398	80003108	00c378b3	and	x17,x6,x12	  x6:0x00013ce0 x12:0x00400000 x17=0x00000000
       44005000	      4399	8000310c	00391813	slli	x16,x18,0x3	 x18:0x80000000 x16=0x00000000
       44015000	      4400	80003110	6049e413	ori	x8,x19,1540	 x19:0x00000000  x8=0x00000604
       44025000	      4401	80003114	02f94063	blt	x18,x15,80003134	 x18:0x80000000 x15:0x00000000
       44035000	      4402	00000000	00000013	addi	x0,x0,0	  x0:0x00000000
       44045000	      4403	80003130	00000013	addi	x0,x0,0	  x0:0x00000000
       44055000	      4404	80003134	20b94513	xori	x10,x18,523	 x18:0x80000000 x10=0x8000020b
       44065000	      4405	80003138	01600e63	beq	x0,x22,80003154	  x0:0x00000000 x22:0x000006aa
       44075000	      4406	8000313c	00000013	addi	x0,x0,0	  x0:0x00000000
       44085000	      4407	80003140	0fa47193	andi	x3,x8,250	  x8:0x00000604  x3=0x00000000
       44095000	      4408	80003144	000ff033	and	x0,x31,x0	 x31:0x00000000  x0:0x00000000
       44105000	      4409	80003148	49e1b213	sltiu	x4,x3,1182	  x3:0x00000000  x4=0x00000001
       44115000	      4410	8000314c	000f48b3	xor	x17,x30,x0	 x30:0x000007d9  x0:0x00000000 x17=0x000007d9
       44125000	      4411	80003150	e7cbad13	slti	x26,x23,-388	 x23:0x80009000 x26=0x00000001
       44135000	      4412	80003154	a79a8793	addi	x15,x21,-1415	 x21:0x80009fc4 x15=0x80009a3d
       44145000	      4413	80003158	b484fd93	andi	x27,x9,-1208	  x9:0x80000354 x27=0x80000340
       44155000	      4414	8000315c	00f20c63	beq	x4,x15,80003174	  x4:0x00000001 x15:0x80009a3d
       44165000	      4415	80003160	011126b3	slt	x13,x2,x17	  x2:0x5dd31000 x17:0x000007d9 x13=0x00000000
       44175000	      4416	80003164	410651b3	sra	x3,x12,x16	 x12:0x00400000 x16:0x00000000  x3=0x00400000
       44185000	      4417	80003168	60f91097	auipc	x1,0x60f91	  x1=0xe0f94164
       44195000	      4418	8000316c	002af833	and	x16,x21,x2	 x21:0x80009fc4  x2:0x5dd31000 x16=0x00001000
       44205000	      4419	80003170	03ee6863	bltu	x28,x30,800031a0	 x28:0x000003cf x30:0x000007d9
       44215000	      4420	00000000	00000013	addi	x0,x0,0	  x0:0x00000000
       44225000	      4421	8000319c	00000013	addi	x0,x0,0	  x0:0x00000000
       44235000	      4422	800031a0	015a04b3	add	x9,x20,x21	 x20:0x00000000 x21:0x80009fc4  x9=0x80009fc4
       44245000	      4423	800031a4	015cea63	bltu	x25,x21,800031b8	 x25:0xa22cf000 x21:0x80009fc4
       44255000	      4424	800031a8	306a7393	andi	x7,x20,774	 x20:0x00000000  x7=0x00000000
       44265000	      4425	800031ac	00650463	beq	x10,x6,800031b4	 x10:0x8000020b  x6:0x00013ce0
       44275000	      4426	800031b0	021e0c63	beq	x28,x1,800031e8	 x28:0x000003cf  x1:0xe0f94164
       44285000	      4427	800031b4	01df1b13	slli	x22,x30,0x1d	 x30:0x000007d9 x22=0x20000000
       44295000	      4428	800031b8	74ba4697	auipc	x13,0x74ba4	 x13=0xf4ba71b4
       44305000	      4429	800031bc	034b4663	blt	x22,x20,800031e8	 x22:0x20000000 x20:0x00000000
       44315000	      4430	800031c0	01dd5a33	srl	x20,x26,x29	 x26:0x00000001 x29:0x000000c7 x20=0x00000000
       44325000	      4431	800031c4	00000013	addi	x0,x0,0	  x0:0x00000000
       44335000	      4432	800031c8	01ff22b3	slt	x5,x30,x31	 x30:0x000007d9 x31:0x00000000  x5=0x00000000
       44345000	      4433	800031cc	b3c3e813	ori	x16,x7,-1220	  x7:0x00000000 x16=0xfffffb3c
       44355000	      4434	800031d0	055bf463	bgeu	x23,x21,80003218	 x23:0x80009000 x21:0x80009fc4
       44365000	      4435	800031d4	c91aa993	slti	x19,x21,-879	 x21:0x80009fc4 x19=0x00000001
       44375000	      4436	800031d8	023f8063	beq	x31,x3,800031f8	 x31:0x00000000  x3:0x00400000
       44385000	      4437	800031dc	e15f8393	addi	x7,x31,-491	 x31:0x00000000  x7=0xfffffe15
       44395000	      4438	800031e0	010baa33	slt	x20,x23,x16	 x23:0x80009000 x16:0xfffffb3c x20=0x00000001
       44405000	      4439	800031e4	d92e2813	slti	x16,x28,-622	 x28:0x000003cf x16=0x00000000
       44415000	      4440	800031e8	c40ebe13	sltiu	x28,x29,-960	 x29:0x000000c7 x28=0x00000001
       44425000	      4441	800031ec	00591863	bne	x18,x5,800031fc	 x18:0x80000000  x5:0x00000000
       44435000	      4442	00000000	00000013	addi	x0,x0,0	  x0:0x00000000
       44445000	      4443	800031f8	00000013	addi	x0,x0,0	  x0:0x00000000
       44455000	      4444	800031fc	00b22033	slt	x0,x4,x11	  x4:0x00000001 x11:0x8000109c
       44465000	      4445	80003200	40b655b3	sra	x11,x12,x11	 x12:0x00400000 x11:0x8000109c x11=0x00000000
       44475000	      4446	80003204	01108b33	add	x22,x1,x17	  x1:0xe0f94164 x17:0x000007d9 x22=0xe0f9493d
       44485000	      4447	80003208	40d15493	srai	x9,x2,0xd	  x2:0x5dd31000  x9=0x0002ee98
       44495000	      4448	8000320c	40730e33	sub	x28,x6,x7	  x6:0x00013ce0  x7:0xfffffe15 x28=0x00013ecb
       44505000	      4449	80003210	1aa5c993	xori	x19,x11,426	 x11:0x00000000 x19=0x000001aa
       44515000	      4450	80003214	7dd7e613	ori	x12,x15,2013	 x15:0x80009a3d x12=0x80009ffd
       44525000	      4451	80003218	8069d497	auipc	x9,0x8069d	  x9=0x006a0214
       44535000	      4452	8000321c	01db1eb3	sll	x29,x22,x29	 x22:0xe0f9493d x29:0x000000c7 x29=0x7ca49e80
       44545000	      4453	80003220	223de417	auipc	x8,0x223de	  x8=0xa23e121c
       44555000	      4454	80003224	00000013	addi	x0,x0,0	  x0:0x00000000
       44565000	      4455	80003228	004f8fb3	add	x31,x31,x4	 x31:0x00000000  x4:0x00000001 x31=0x00000001
       44575000	      4456	8000322c	0064e863	bltu	x9,x6,8000323c	  x9:0x006a0214  x6:0x00013ce0
       44585000	      4457	80003230	005b82b3	add	x5,x23,x5	 x23:0x80009000  x5:0x00000000  x5=0x80009000
       44595000	      4458	80003234	b6670a13	addi	x20,x14,-1178	 x14:0x80009f2c x20=0x80009a92
       44605000	      4459	80003238	03ef6a63	bltu	x30,x30,8000326c	 x30:0x000007d9 x30:0x000007d9
       44615000	      4460	8000323c	0130bbb3	sltu	x23,x1,x19	  x1:0xe0f94164 x19:0x000001aa x23=0x00000000
       44625000	      4461	80003240	00836263	bltu	x6,x8,80003244	  x6:0x00013ce0  x8:0xa23e121c
       44635000	      4462	00000000	00000013	addi	x0,x0,0	  x0:0x00000000
       44645000	      4463	80003240	00000013	addi	x0,x0,0	  x0:0x00000000
       44655000	      4464	80003244	ab0cb113	sltiu	x2,x25,-1360	 x25:0xa22cf000  x2=0x00000001
       44665000	      4465	80003248	010ab2b3	sltu	x5,x21,x16	 x21:0x80009fc4 x16:0x00000000  x5=0x00000000
       44675000	      4466	8000324c	9c246f93	ori	x31,x8,-1598	  x8:0xa23e121c x31=0xfffffbde
       44685000	      4467	80003250	0569c263	blt	x19,x22,80003294	 x19:0x000001aa x22:0xe0f9493d
       44695000	      4468	80003254	00000013	addi	x0,x0,0	  x0:0x00000000
       44705000	      4469	80003258	04d74493	xori	x9,x14,77	 x14:0x80009f2c  x9=0x80009f61
       44715000	      4470	8000325c	0ee60f93	addi	x31,x12,238	 x12:0x80009ffd x31=0x8000a0eb
       44725000	      4471	80003260	003c1693	slli	x13,x24,0x3	 x24:0x0005dd31 x13=0x002ee988
       44735000	      4472	80003264	00000013	addi	x0,x0,0	  x0:0x00000000
       44745000	      4473	80003268	05335463	bge	x6,x19,800032b0	  x6:0x00013ce0 x19:0x000001aa
       44755000	      4474	00000000	00000013	addi	x0,x0,0	  x0:0x00000000
       44765000	      4475	800032ac	00000013	addi	x0,x0,0	  x0:0x00000000
       44775000	      4476	800032b0	b3dc7c93	andi	x25,x24,-1219	 x24:0x0005dd31 x25=0x0005d931
       44785000	      4477	800032b4	01ab03b3	add	x7,x22,x26	 x22:0xe0f9493d x26:0x00000001  x7=0xe0f9493e
       44795000	      4478	800032b8	7fe86813	ori	x16,x16,2046	 x16:0x00000000 x16=0x000007fe
       44805000	      4479	800032bc	0158dfb3	srl	x31,x17,x21	 x17:0x000007d9 x21:0x80009fc4 x31=0x0000007d
       44815000	      4480	800032c0	00d97fb3	and	x31,x18,x13	 x18:0x80000000 x13:0x002ee988 x31=0x00000000
       44825000	      4481	800032c4	00000013	addi	x0,x0,0	  x0:0x00000000
       44835000	      4482	800032c8	008d7cb3	and	x25,x26,x8	 x26:0x00000001  x8:0xa23e121c x25=0x00000000
       44845000	      4483	800032cc	417bd7b3	sra	x15,x23,x23	 x23:0x00000000 x23:0x00000000 x15=0x00000000
       44855000	      4484	800032d0	015b7a63	bgeu	x22,x21,800032e4	 x22:0xe0f9493d x21:0x80009fc4
       44865000	      4485	00000000	00000013	addi	x0,x0,0	  x0:0x00000000
       44875000	      4486	800032e0	00000013	addi	x0,x0,0	  x0:0x00000000
       44885000	      4487	800032e4	042b1663	bne	x22,x2,80003330	 x22:0xe0f9493d  x2:0x00000001
       44895000	      4488	00000000	00000013	addi	x0,x0,0	  x0:0x00000000
       44905000	      4489	8000332c	00000013	addi	x0,x0,0	  x0:0x00000000
       44915000	      4490	80003330	01b15113	srli	x2,x2,0x1b	  x2:0x00000001  x2=0x00000000
       44925000	      4491	80003334	0052fdb3	and	x27,x5,x5	  x5:0x00000000  x5:0x00000000 x27=0x00000000
       44935000	      4492	80003338	05a46463	bltu	x8,x26,80003380	  x8:0xa23e121c x26:0x00000001
       44945000	      4493	8000333c	0230e863	bltu	x1,x3,8000336c	  x1:0xe0f94164  x3:0x00400000
       44955000	      4494	80003340	41060bb3	sub	x23,x12,x16	 x12:0x80009ffd x16:0x000007fe x23=0x800097ff
       44965000	      4495	80003344	32e4be13	sltiu	x28,x9,814	  x9:0x80009f61 x28=0x00000000
       44975000	      4496	80003348	01f0c4b3	xor	x9,x1,x31	  x1:0xe0f94164 x31:0x00000000  x9=0xe0f94164
       44985000	      4497	8000334c	41e580b3	sub	x1,x11,x30	 x11:0x00000000 x30:0x000007d9  x1=0xfffff827
       44995000	      4498	80003350	012c9993	slli	x19,x25,0x12	 x25:0x00000000 x19=0x00000000
       45005000	      4499	80003354	01f09233	sll	x4,x1,x31	  x1:0xfffff827 x31:0x00000000  x4=0xfffff827
       45015000	      4500	80003358	67a03013	sltiu	x0,x0,1658	  x0:0x00000000
       45025000	      4501	8000335c	05079663	bne	x15,x16,800033a8	 x15:0x00000000 x16:0x000007fe
       45035000	      4502	00000000	00000013	addi	x0,x0,0	  x0:0x00000000
       45045000	      4503	800033a4	00000013	addi	x0,x0,0	  x0:0x00000000
       45055000	      4504	800033a8	7cc27d93	andi	x27,x4,1996	  x4:0xfffff827 x27=0x00000004
       45065000	      4505	800033ac	00d25c13	srli	x24,x4,0xd	  x4:0xfffff827 x24=0x0007ffff
       45075000	      4506	800033b0	33922493	slti	x9,x4,825	  x4:0xfffff827  x9=0x00000001
       45085000	      4507	800033b4	00d31e93	slli	x29,x6,0xd	  x6:0x00013ce0 x29=0x279c0000
       45095000	      4508	800033b8	6296f293	andi	x5,x13,1577	 x13:0x002ee988  x5=0x00000008
       45105000	      4509	800033bc	09b9f193	andi	x3,x19,155	 x19:0x00000000  x3=0x00000000
       45115000	      4510	800033c0	40df5433	sra	x8,x30,x13	 x30:0x000007d9 x13:0x002ee988  x8=0x00000007
       45125000	      4511	800033c4	00000013	addi	x0,x0,0	  x0:0x00000000
       45135000	      4512	800033c8	00000013	addi	x0,x0,0	  x0:0x00000000
       45145000	      4513	800033cc	0df0c513	xori	x10,x1,223	  x1:0xfffff827 x10=0xfffff8f8
       45155000	      4514	800033d0	42ffb213	sltiu	x4,x31,1071	 x31:0x00000000  x4=0x00000001
       45165000	      4515	800033d4	abd19d17	auipc	x26,0xabd19	 x26=0x2bd1c3d0
       45175000	      4516	800033d8	01caa533	slt	x10,x21,x28	 x21:0x80009fc4 x28:0x00000000 x10=0x00000001
       45185000	      4517	800033dc	00472083	lw	x1,4(x14)	 x14:0x80009f2c  x1=0x8000381c PA:0x80009f30
       45195000	      4518	800033e0	40438233	sub	x4,x7,x4	  x7:0xe0f9493e  x4:0x00000001  x4=0xe0f9493d
       45205000	      4519	800033e4	02870713	addi	x14,x14,40	 x14:0x80009f2c x14=0x80009f54
       45215000	      4520	800033e8	a8bdf493	andi	x9,x27,-1397	 x27:0x00000004  x9=0x00000000
       45225000	      4521	800033ec	aa013893	sltiu	x17,x2,-1376	  x2:0x00000000 x17=0x00000001
       45235000	      4522	800033f0	b904c493	xori	x9,x9,-1136	  x9:0x00000000  x9=0xfffffb90
       45245000	      4523	800033f4	6e3f0037	lui	x0,0x6e3f0	
       45255000	      4524	800033f8	01a64d33	xor	x26,x12,x26	 x12:0x80009ffd x26:0x2bd1c3d0 x26=0xabd15c2d
       45265000	      4525	800033fc	00000013	addi	x0,x0,0	  x0:0x00000000
       45275000	      4526	80003400	00108493	addi	x9,x1,1	  x1:0x8000381c  x9=0x8000381d
       45285000	      4527	80003404	000484e7	jalr	x9,x9,0	  x9:0x8000381d  x9=0x80003404
       45295000	      4528	00000000	00000013	addi	x0,x0,0	  x0:0x00000000
       45305000	      4529	8000381c	00000013	addi	x0,x0,0	  x0:0x00000000
       45315000	      4530	80003820	00005817	auipc	x16,0x5	 x16=0x8000881c
       45325000	      4531	80003824	dc080813	addi	x16,x16,-576	 x16:0x8000881c x16=0x800085dc
       45335000	      4532	80003828	f2a84e83	lbu	x29,-214(x16)	 x16:0x800085dc x29=0x00000000 PA:0x80008506
       45345000	      4533	00000000	00000013	addi	x0,x0,0	  x0:0x00000000
       45355000	      4534	8000382c	01dcc533	xor	x10,x25,x29	 x25:0x00000000 x29:0x00000000 x10=0x00000000
       45365000	      4535	80003830	2f2a7d93	andi	x27,x20,754	 x20:0x80009a92 x27=0x00000292
       45375000	      4536	80003834	010660b3	or	x1,x12,x16	 x12:0x80009ffd x16:0x800085dc  x1=0x80009ffd
       45385000	      4537	80003838	127d6593	ori	x11,x26,295	 x26:0xabd15c2d x11=0xabd15d2f
       45395000	      4538	8000383c	016243b3	xor	x7,x4,x22	  x4:0xe0f9493d x22:0xe0f9493d  x7=0x00000000
       45405000	      4539	80003840	01f7d093	srli	x1,x15,0x1f	 x15:0x00000000  x1=0x00000000
       45415000	      4540	80003844	fa980da3	sb	x9,-69(x16)	 x16:0x800085dc  x9:0x80003404 PA:0x80008597
       45425000	      4541	80003848	0d184203	lbu	x4,209(x16)	 x16:0x800085dc  x4=0x00000000 PA:0x800086ad
       45435000	      4542	8000384c	f5584083	lbu	x1,-171(x16)	 x16:0x800085dc  x1=0x00000000 PA:0x80008531
       45445000	      4543	80003850	40b7db93	srai	x23,x15,0xb	 x15:0x00000000 x23=0x00000000
       45455000	      4544	80003854	413301b3	sub	x3,x6,x19	  x6:0x00013ce0 x19:0x00000000  x3=0x00013ce0
       45465000	      4545	80003858	609cef13	ori	x30,x25,1545	 x25:0x00000000 x30=0x00000609
       45475000	      4546	8000385c	0ef80103	lb	x2,239(x16)	 x16:0x800085dc  x2=0x00000000 PA:0x800086cb
       45485000	      4547	00000000	00000013	addi	x0,x0,0	  x0:0x00000000
       45495000	      4548	80003860	fa284793	xori	x15,x16,-94	 x16:0x800085dc x15=0x7fff7a7e
       45505000	      4549	80003864	f7081303	lh	x6,-144(x16)	 x16:0x800085dc  x6=0x00000000 PA:0x8000854c
       45515000	      4550	80003868	41a6d093	srai	x1,x13,0x1a	 x13:0x002ee988  x1=0x00000000
       45525000	      4551	8000386c	f4b803a3	sb	x11,-185(x16)	 x16:0x800085dc x11:0xabd15d2f PA:0x80008523
       45535000	      4552	80003870	bbc65117	auipc	x2,0xbbc65	  x2=0x3bc6886c
       45545000	      4553	80003874	04285583	lhu	x11,66(x16)	 x16:0x800085dc x11=0x00000000 PA:0x8000861e
       45555000	      4554	80003878	37188393	addi	x7,x17,881	 x17:0x00000001  x7=0x00000372
       45565000	      4555	8000387c	d78dc313	xori	x6,x27,-648	 x27:0x00000292  x6=0xffffffea
       45575000	      4556	80003880	a1553a13	sltiu	x20,x10,-1515	 x10:0x00000000 x20=0x00000001
       45585000	      4557	80003884	00230db3	add	x27,x6,x2	  x6:0xffffffea  x2:0x3bc6886c x27=0x3bc68856
       45595000	      4558	80003888	f4485303	lhu	x6,-188(x16)	 x16:0x800085dc  x6=0x00000000 PA:0x80008520
       45605000	      4559	8000388c	00ef24b3	slt	x9,x30,x14	 x30:0x00000609 x14:0x80009f54  x9=0x00000000
       45615000	      4560	80003890	00000013	addi	x0,x0,0	  x0:0x00000000
       45625000	      4561	80003894	04085583	lhu	x11,64(x16)	 x16:0x800085dc x11=0x00000000 PA:0x8000861c
       45635000	      4562	80003898	eedc8113	addi	x2,x25,-275	 x25:0x00000000  x2=0xfffffeed
       45645000	      4563	8000389c	000d7c33	and	x24,x26,x0	 x26:0xabd15c2d  x0:0x00000000 x24=0x00000000
       45655000	      4564	800038a0	f8417893	andi	x17,x2,-124	  x2:0xfffffeed x17=0xfffffe84
       45665000	      4565	800038a4	00d10333	add	x6,x2,x13	  x2:0xfffffeed x13:0x002ee988  x6=0x002ee875
       45675000	      4566	800038a8	f9580003	lb	x0,-107(x16)	 x16:0x800085dc PA:0x80008571
       45685000	      4567	800038ac	02180c63	beq	x16,x1,800038e4	 x16:0x800085dc  x1:0x00000000
       45695000	      4568	800038b0	0071ed33	or	x26,x3,x7	  x3:0x00013ce0  x7:0x00000372 x26=0x00013ff2
       45705000	      4569	800038b4	01f75293	srli	x5,x14,0x1f	 x14:0x80009f54  x5=0x00000001
       45715000	      4570	800038b8	a5026817	auipc	x16,0xa5026	 x16=0x250298b4
       45725000	      4571	800038bc	017c26b3	slt	x13,x24,x23	 x24:0x00000000 x23:0x00000000 x13=0x00000000
       45735000	      4572	800038c0	7f638193	addi	x3,x7,2038	  x7:0x00000372  x3=0x00000b68
       45745000	      4573	800038c4	01d89c63	bne	x17,x29,800038dc	 x17:0xfffffe84 x29:0x00000000
       45755000	      4574	00000000	00000013	addi	x0,x0,0	  x0:0x00000000
       45765000	      4575	800038d8	00000013	addi	x0,x0,0	  x0:0x00000000
       45775000	      4576	800038dc	00000013	addi	x0,x0,0	  x0:0x00000000
       45785000	      4577	800038e0	9a9187b7	lui	x15,0x9a918	 x15=0x9a918000
       45795000	      4578	800038e4	e76db693	sltiu	x13,x27,-394	 x27:0x3bc68856 x13=0x00000001
       45805000	      4579	800038e8	00c0c9b3	xor	x19,x1,x12	  x1:0x00000000 x12:0x80009ffd x19=0x80009ffd
       45815000	      4580	800038ec	00aaf3b3	and	x7,x21,x10	 x21:0x80009fc4 x10:0x00000000  x7=0x00000000
       45825000	      4581	800038f0	0f484a63	blt	x16,x20,800039e4	 x16:0x250298b4 x20:0x00000001
       45835000	      4582	800038f4	01e3d2b3	srl	x5,x7,x30	  x7:0x00000000 x30:0x00000609  x5=0x00000000
       45845000	      4583	800038f8	00000013	addi	x0,x0,0	  x0:0x00000000
       45855000	      4584	800038fc	00005797	auipc	x15,0x5	 x15=0x800088f8
       45865000	      4585	80003900	d4478793	addi	x15,x15,-700	 x15:0x800088f8 x15=0x8000863c
       45875000	      4586	80003904	d77782a3	sb	x23,-667(x15)	 x15:0x8000863c x23:0x00000000 PA:0x800083a1
       45885000	      4587	80003908	01dfe4b3	or	x9,x31,x29	 x31:0x00000000 x29:0x00000000  x9=0x00000000
       45895000	      4588	8000390c	0bb78123	sb	x27,162(x15)	 x15:0x8000863c x27:0x3bc68856 PA:0x800086de
       45905000	      4589	80003910	00405f93	srli	x31,x0,0x4	  x0:0x00000000 x31=0x00000000
       45915000	      4590	80003914	d3503e13	sltiu	x28,x0,-715	  x0:0x00000000 x28=0x00000001
       45925000	      4591	80003918	ddd7cf03	lbu	x30,-547(x15)	 x15:0x8000863c x30=0x00000000 PA:0x80008419
       45935000	      4592	00000000	00000013	addi	x0,x0,0	  x0:0x00000000
       45945000	      4593	8000391c	6dcf4c93	xori	x25,x30,1756	 x30:0x00000000 x25=0x000006dc
       45955000	      4594	80003920	a2f784a3	sb	x15,-1495(x15)	 x15:0x8000863c x15:0x8000863c PA:0x80008065
       45965000	      4595	80003924	0170d513	srli	x10,x1,0x17	  x1:0x00000000 x10=0x00000000
       45975000	      4596	80003928	1c7a6113	ori	x2,x20,455	 x20:0x00000001  x2=0x000001c7
       45985000	      4597	8000392c	de17cd03	lbu	x26,-543(x15)	 x15:0x8000863c x26=0x00000000 PA:0x8000841d
       45995000	      4598	80003930	efb78ba3	sb	x27,-265(x15)	 x15:0x8000863c x27:0x3bc68856 PA:0x80008533
       46005000	      4599	80003934	d8b78583	lb	x11,-629(x15)	 x15:0x8000863c x11=0x00000000 PA:0x800083c7
       46015000	      4600	80003938	009989b3	add	x19,x19,x9	 x19:0x80009ffd  x9:0x00000000 x19=0x80009ffd
       46025000	      4601	8000393c	0012e233	or	x4,x5,x1	  x5:0x00000000  x1:0x00000000  x4=0x00000000
       46035000	      4602	80003940	7d502813	slti	x16,x0,2005	  x0:0x00000000 x16=0x00000001
       46045000	      4603	80003944	00ec2a33	slt	x20,x24,x14	 x24:0x00000000 x14:0x80009f54 x20=0x00000000
       46055000	      4604	80003948	00a6ce33	xor	x28,x13,x10	 x13:0x00000001 x10:0x00000000 x28=0x00000001
       46065000	      4605	8000394c	1af79923	sh	x15,434(x15)	 x15:0x8000863c x15:0x8000863c PA:0x800087ee
       46075000	      4606	80003950	02b79323	sh	x11,38(x15)	 x15:0x8000863c x11:0x00000000 PA:0x80008662
       46085000	      4607	80003954	5426f193	andi	x3,x13,1346	 x13:0x00000001  x3=0x00000000
       46095000	      4608	80003958	de47c983	lbu	x19,-540(x15)	 x15:0x8000863c x19=0x00000000 PA:0x80008420
       46105000	      4609	8000395c	f91782a3	sb	x17,-123(x15)	 x15:0x8000863c x17:0xfffffe84 PA:0x800085c1
       46115000	      4610	80003960	a8e79d23	sh	x14,-1382(x15)	 x15:0x8000863c x14:0x80009f54 PA:0x800080d6
       46125000	      4611	80003964	a7b4cb13	xori	x22,x9,-1413	  x9:0x00000000 x22=0xfffffa7b
       46135000	      4612	80003968	db07c183	lbu	x3,-592(x15)	 x15:0x8000863c  x3=0x00000000 PA:0x800083ec
       46145000	      4613	8000396c	41dcd313	srai	x6,x25,0x1d	 x25:0x000006dc  x6=0x00000000
       46155000	      4614	80003970	c5e7da03	lhu	x20,-930(x15)	 x15:0x8000863c x20=0x00000000 PA:0x8000829a
       46165000	      4615	80003974	00bba993	slti	x19,x23,11	 x23:0x00000000 x19=0x00000001
       46175000	      4616	80003978	274f6e13	ori	x28,x30,628	 x30:0x00000000 x28=0x00000274
       46185000	      4617	8000397c	cb479a03	lh	x20,-844(x15)	 x15:0x8000863c x20=0x00000000 PA:0x800082f0
       46195000	      4618	80003980	00dca833	slt	x16,x25,x13	 x25:0x000006dc x13:0x00000001 x16=0x00000000
       46205000	      4619	80003984	00b666b3	or	x13,x12,x11	 x12:0x80009ffd x11:0x00000000 x13=0x80009ffd
       46215000	      4620	80003988	00f79db3	sll	x27,x15,x15	 x15:0x8000863c x15:0x8000863c x27=0xc0000000
       46225000	      4621	8000398c	00000013	addi	x0,x0,0	  x0:0x00000000
       46235000	      4622	80003990	b7478623	sb	x20,-1172(x15)	 x15:0x8000863c x20:0x00000000 PA:0x800081a8
       46245000	      4623	80003994	c5278023	sb	x18,-960(x15)	 x15:0x8000863c x18:0x80000000 PA:0x8000827c
       46255000	      4624	80003998	f6a782a3	sb	x10,-155(x15)	 x15:0x8000863c x10:0x00000000 PA:0x800085a1
       46265000	      4625	8000399c	1c37c203	lbu	x4,451(x15)	 x15:0x8000863c  x4=0x00000000 PA:0x800087ff
       46275000	      4626	800039a0	85bfb313	sltiu	x6,x31,-1957	 x31:0x00000000  x6=0x00000001
       46285000	      4627	800039a4	00000013	addi	x0,x0,0	  x0:0x00000000
       46295000	      4628	800039a8	000d1f33	sll	x30,x26,x0	 x26:0x00000000  x0:0x00000000 x30=0x00000000
       46305000	      4629	800039ac	13a33b17	auipc	x22,0x13a33	 x22=0x93a369a8
       46315000	      4630	800039b0	40068d33	sub	x26,x13,x0	 x13:0x80009ffd  x0:0x00000000 x26=0x80009ffd
       46325000	      4631	800039b4	0072db93	srli	x23,x5,0x7	  x5:0x00000000 x23=0x00000000
       46335000	      4632	800039b8	40cd88b3	sub	x17,x27,x12	 x27:0xc0000000 x12:0x80009ffd x17=0x3fff6003
       46345000	      4633	800039bc	014561b3	or	x3,x10,x20	 x10:0x00000000 x20:0x00000000  x3=0x00000000
       46355000	      4634	800039c0	032a4263	blt	x20,x18,800039e4	 x20:0x00000000 x18:0x80000000
       46365000	      4635	800039c4	01fcde63	bge	x25,x31,800039e0	 x25:0x000006dc x31:0x00000000
       46375000	      4636	00000000	00000013	addi	x0,x0,0	  x0:0x00000000
       46385000	      4637	800039dc	00000013	addi	x0,x0,0	  x0:0x00000000
       46395000	      4638	800039e0	40318533	sub	x10,x3,x3	  x3:0x00000000  x3:0x00000000 x10=0x00000000
       46405000	      4639	800039e4	d5f3a893	slti	x17,x7,-673	  x7:0x00000000 x17=0x00000000
       46415000	      4640	800039e8	004721b3	slt	x3,x14,x4	 x14:0x80009f54  x4:0x00000000  x3=0x00000001
       46425000	      4641	800039ec	03a30a63	beq	x6,x26,80003a20	  x6:0x00000001 x26:0x80009ffd
       46435000	      4642	800039f0	dd46fa13	andi	x20,x13,-556	 x13:0x80009ffd x20=0x80009dd4
       46445000	      4643	800039f4	00211a13	slli	x20,x2,0x2	  x2:0x000001c7 x20=0x0000071c
       46455000	      4644	800039f8	008e1c63	bne	x28,x8,80003a10	 x28:0x00000274  x8:0x00000007
       46465000	      4645	00000000	00000013	addi	x0,x0,0	  x0:0x00000000
       46475000	      4646	80003a0c	00000013	addi	x0,x0,0	  x0:0x00000000
       46485000	      4647	80003a10	01b0beb3	sltu	x29,x1,x27	  x1:0x00000000 x27:0xc0000000 x29=0x00000001
       46495000	      4648	80003a14	015a91b3	sll	x3,x21,x21	 x21:0x80009fc4 x21:0x80009fc4  x3=0x0009fc40
       46505000	      4649	80003a18	9ad2c393	xori	x7,x5,-1619	  x5:0x00000000  x7=0xfffff9ad
       46515000	      4650	80003a1c	018ee3b3	or	x7,x29,x24	 x29:0x00000001 x24:0x00000000  x7=0x00000001
       46525000	      4651	80003a20	362c3b13	sltiu	x22,x24,866	 x24:0x00000000 x22=0x00000001
       46535000	      4652	80003a24	01015333	srl	x6,x2,x16	  x2:0x000001c7 x16:0x00000000  x6=0x000001c7
       46545000	      4653	80003a28	00f3e263	bltu	x7,x15,80003a2c	  x7:0x00000001 x15:0x8000863c
       46555000	      4654	00000000	00000013	addi	x0,x0,0	  x0:0x00000000
       46565000	      4655	80003a28	00000013	addi	x0,x0,0	  x0:0x00000000
       46575000	      4656	80003a2c	000f7e63	bgeu	x30,x0,80003a48	 x30:0x00000000  x0:0x00000000
       46585000	      4657	00000000	00000013	addi	x0,x0,0	  x0:0x00000000
       46595000	      4658	80003a44	00000013	addi	x0,x0,0	  x0:0x00000000
       46605000	      4659	80003a48	02066c63	bltu	x12,x0,80003a80	 x12:0x80009ffd  x0:0x00000000
       46615000	      4660	80003a4c	835f7213	andi	x4,x30,-1995	 x30:0x00000000  x4=0x00000000
       46625000	      4661	80003a50	40505f13	srai	x30,x0,0x5	  x0:0x00000000 x30=0x00000000
       46635000	      4662	80003a54	002b6c63	bltu	x22,x2,80003a6c	 x22:0x00000001  x2:0x000001c7
       46645000	      4663	00000000	00000013	addi	x0,x0,0	  x0:0x00000000
       46655000	      4664	80003a68	00000013	addi	x0,x0,0	  x0:0x00000000
       46665000	      4665	80003a6c	73b08593	addi	x11,x1,1851	  x1:0x00000000 x11=0x0000073b
       46675000	      4666	80003a70	3d8eafb7	lui	x31,0x3d8ea	 x31=0x3d8ea000
       46685000	      4667	80003a74	00a85633	srl	x12,x16,x10	 x16:0x00000000 x10:0x00000000 x12=0x00000000
       46695000	      4668	80003a78	02ad3c93	sltiu	x25,x26,42	 x26:0x80009ffd x25=0x00000000
       46705000	      4669	80003a7c	ec62f493	andi	x9,x5,-314	  x5:0x00000000  x9=0x00000000
       46715000	      4670	80003a80	03504863	blt	x0,x21,80003ab0	  x0:0x00000000 x21:0x80009fc4
       46725000	      4671	80003a84	b378bc93	sltiu	x25,x17,-1225	 x17:0x00000000 x25=0x00000001
       46735000	      4672	80003a88	c7ac8417	auipc	x8,0xc7ac8	  x8=0x47acba84
       46745000	      4673	80003a8c	003f0133	add	x2,x30,x3	 x30:0x00000000  x3:0x0009fc40  x2=0x0009fc40
       46755000	      4674	80003a90	01bf4e63	blt	x30,x27,80003aac	 x30:0x00000000 x27:0xc0000000
       46765000	      4675	80003a94	018378b3	and	x17,x6,x24	  x6:0x000001c7 x24:0x00000000 x17=0x00000000
       46775000	      4676	80003a98	410259b3	sra	x19,x4,x16	  x4:0x00000000 x16:0x00000000 x19=0x00000000
       46785000	      4677	80003a9c	0025a5b3	slt	x11,x11,x2	 x11:0x0000073b  x2:0x0009fc40 x11=0x00000001
       46795000	      4678	80003aa0	01a0f4b3	and	x9,x1,x26	  x1:0x00000000 x26:0x80009ffd  x9=0x00000000
       46805000	      4679	80003aa4	00978eb3	add	x29,x15,x9	 x15:0x8000863c  x9:0x00000000 x29=0x8000863c
       46815000	      4680	80003aa8	41918a33	sub	x20,x3,x25	  x3:0x0009fc40 x25:0x00000001 x20=0x0009fc3f
       46825000	      4681	80003aac	007f6eb3	or	x29,x30,x7	 x30:0x00000000  x7:0x00000001 x29=0x00000001
       46835000	      4682	80003ab0	00000013	addi	x0,x0,0	  x0:0x00000000
       46845000	      4683	80003ab4	404cd393	srai	x7,x25,0x4	 x25:0x00000001  x7=0x00000000
       46855000	      4684	80003ab8	018352b3	srl	x5,x6,x24	  x6:0x000001c7 x24:0x00000000  x5=0x000001c7
       46865000	      4685	80003abc	f9d1ae13	slti	x28,x3,-99	  x3:0x0009fc40 x28=0x00000000
       46875000	      4686	80003ac0	01035613	srli	x12,x6,0x10	  x6:0x000001c7 x12=0x00000000
       46885000	      4687	80003ac4	40928bb3	sub	x23,x5,x9	  x5:0x000001c7  x9:0x00000000 x23=0x000001c7
       46895000	      4688	80003ac8	00000013	addi	x0,x0,0	  x0:0x00000000
       46905000	      4689	80003acc	043ee063	bltu	x29,x3,80003b0c	 x29:0x00000001  x3:0x0009fc40
       46915000	      4690	00000000	00000013	addi	x0,x0,0	  x0:0x00000000
       46925000	      4691	80003b08	00000013	addi	x0,x0,0	  x0:0x00000000
       46935000	      4692	80003b0c	004bb6b3	sltu	x13,x23,x4	 x23:0x000001c7  x4:0x00000000 x13=0x00000000
       46945000	      4693	80003b10	c8412a13	slti	x20,x2,-892	  x2:0x0009fc40 x20=0x00000000
       46955000	      4694	80003b14	01e91893	slli	x17,x18,0x1e	 x18:0x80000000 x17=0x00000000
       46965000	      4695	80003b18	019866b3	or	x13,x16,x25	 x16:0x00000000 x25:0x00000001 x13=0x00000001
       46975000	      4696	80003b1c	04a6c463	blt	x13,x10,80003b64	 x13:0x00000001 x10:0x00000000
       46985000	      4697	80003b20	01f09e63	bne	x1,x31,80003b3c	  x1:0x00000000 x31:0x3d8ea000
       46995000	      4698	00000000	00000013	addi	x0,x0,0	  x0:0x00000000
       47005000	      4699	80003b38	00000013	addi	x0,x0,0	  x0:0x00000000
       47015000	      4700	80003b3c	29d260b7	lui	x1,0x29d26	  x1=0x29d26000
       47025000	      4701	80003b40	017fefb3	or	x31,x31,x23	 x31:0x3d8ea000 x23:0x000001c7 x31=0x3d8ea1c7
       47035000	      4702	80003b44	020f5263	bge	x30,x0,80003b68	 x30:0x00000000  x0:0x00000000
       47045000	      4703	00000000	00000013	addi	x0,x0,0	  x0:0x00000000
       47055000	      4704	80003b64	00000013	addi	x0,x0,0	  x0:0x00000000
       47065000	      4705	80003b68	01eefc63	bgeu	x29,x30,80003b80	 x29:0x00000001 x30:0x00000000
       47075000	      4706	00000000	00000013	addi	x0,x0,0	  x0:0x00000000
       47085000	      4707	80003b7c	00000013	addi	x0,x0,0	  x0:0x00000000
       47095000	      4708	80003b80	01f50263	beq	x10,x31,80003b84	 x10:0x00000000 x31:0x3d8ea1c7
       47105000	      4709	80003b84	02f70663	beq	x14,x15,80003bb0	 x14:0x80009f54 x15:0x8000863c
       47115000	      4710	80003b88	41985fb3	sra	x31,x16,x25	 x16:0x00000000 x25:0x00000001 x31=0x00000000
       47125000	      4711	80003b8c	00000013	addi	x0,x0,0	  x0:0x00000000
       47135000	      4712	80003b90	672461b7	lui	x3,0x67246	  x3=0x67246000
       47145000	      4713	80003b94	03315e63	bge	x2,x19,80003bd0	  x2:0x0009fc40 x19:0x00000000
       47155000	      4714	00000000	00000013	addi	x0,x0,0	  x0:0x00000000
       47165000	      4715	80003bcc	00000013	addi	x0,x0,0	  x0:0x00000000
       47175000	      4716	80003bd0	81c08993	addi	x19,x1,-2020	  x1:0x29d26000 x19=0x29d2581c
       47185000	      4717	80003bd4	0556f863	bgeu	x13,x21,80003c24	 x13:0x00000001 x21:0x80009fc4
       47195000	      4718	80003bd8	7402e337	lui	x6,0x7402e	  x6=0x7402e000
       47205000	      4719	80003bdc	3055b813	sltiu	x16,x11,773	 x11:0x00000001 x16=0x00000001
       47215000	      4720	80003be0	00391eb3	sll	x29,x18,x3	 x18:0x80000000  x3:0x67246000 x29=0x80000000
       47225000	      4721	80003be4	49e9b013	sltiu	x0,x19,1182	 x19:0x29d2581c
       47235000	      4722	80003be8	285fda17	auipc	x20,0x285fd	 x20=0xa8600be4
       47245000	      4723	80003bec	c481b7b7	lui	x15,0xc481b	 x15=0xc481b000
       47255000	      4724	80003bf0	ba3e8e93	addi	x29,x29,-1117	 x29:0x80000000 x29=0x7ffffba3
       47265000	      4725	80003bf4	017799b3	sll	x19,x15,x23	 x15:0xc481b000 x23:0x000001c7 x19=0x40d80000
       47275000	      4726	80003bf8	00b5eb33	or	x22,x11,x11	 x11:0x00000001 x11:0x00000001 x22=0x00000001
       47285000	      4727	80003bfc	04f80063	beq	x16,x15,80003c3c	 x16:0x00000001 x15:0xc481b000
       47295000	      4728	80003c00	013e4833	xor	x16,x28,x19	 x28:0x00000000 x19:0x40d80000 x16=0x40d80000
       47305000	      4729	80003c04	41f75c33	sra	x24,x14,x31	 x14:0x80009f54 x31:0x00000000 x24=0x80009f54
       47315000	      4730	80003c08	01e79b93	slli	x23,x15,0x1e	 x15:0xc481b000 x23=0x00000000
       47325000	      4731	80003c0c	008f9233	sll	x4,x31,x8	 x31:0x00000000  x8:0x47acba84  x4=0x00000000
       47335000	      4732	80003c10	007b11b3	sll	x3,x22,x7	 x22:0x00000001  x7:0x00000000  x3=0x00000001
       47345000	      4733	80003c14	eed5ce13	xori	x28,x11,-275	 x11:0x00000001 x28=0xfffffeec
       47355000	      4734	80003c18	00fa2b33	slt	x22,x20,x15	 x20:0xa8600be4 x15:0xc481b000 x22=0x00000001
       47365000	      4735	80003c1c	40295e33	sra	x28,x18,x2	 x18:0x80000000  x2:0x0009fc40 x28=0x80000000
       47375000	      4736	80003c20	02911c63	bne	x2,x9,80003c58	  x2:0x0009fc40  x9:0x00000000
       47385000	      4737	00000000	00000013	addi	x0,x0,0	  x0:0x00000000
       47395000	      4738	80003c54	00000013	addi	x0,x0,0	  x0:0x00000000
       47405000	      4739	80003c58	00571c63	bne	x14,x5,80003c70	 x14:0x80009f54  x5:0x000001c7
       47415000	      4740	00000000	00000013	addi	x0,x0,0	  x0:0x00000000
       47425000	      4741	80003c6c	00000013	addi	x0,x0,0	  x0:0x00000000
       47435000	      4742	80003c70	0177c863	blt	x15,x23,80003c80	 x15:0xc481b000 x23:0x00000000
       47445000	      4743	00000000	00000013	addi	x0,x0,0	  x0:0x00000000
       47455000	      4744	80003c7c	00000013	addi	x0,x0,0	  x0:0x00000000
       47465000	      4745	80003c80	01ba1c63	bne	x20,x27,80003c98	 x20:0xa8600be4 x27:0xc0000000
       47475000	      4746	00000000	00000013	addi	x0,x0,0	  x0:0x00000000
       47485000	      4747	80003c94	00000013	addi	x0,x0,0	  x0:0x00000000
       47495000	      4748	80003c98	f11b0a13	addi	x20,x22,-239	 x22:0x00000001 x20=0xffffff12
       47505000	      4749	80003c9c	00000013	addi	x0,x0,0	  x0:0x00000000
       47515000	      4750	80003ca0	0136d663	bge	x13,x19,80003cac	 x13:0x00000001 x19:0x40d80000
       47525000	      4751	80003ca4	03631863	bne	x6,x22,80003cd4	  x6:0x7402e000 x22:0x00000001
       47535000	      4752	00000000	00000013	addi	x0,x0,0	  x0:0x00000000
       47545000	      4753	80003cd0	00000013	addi	x0,x0,0	  x0:0x00000000
       47555000	      4754	80003cd4	02c18663	beq	x3,x12,80003d00	  x3:0x00000001 x12:0x00000000
       47565000	      4755	80003cd8	d36a4d13	xori	x26,x20,-714	 x20:0xffffff12 x26=0x00000224
       47575000	      4756	80003cdc	136fa313	slti	x6,x31,310	 x31:0x00000000  x6=0x00000001
       47585000	      4757	80003ce0	039aee63	bltu	x21,x25,80003d1c	 x21:0x80009fc4 x25:0x00000001
       47595000	      4758	80003ce4	004d0863	beq	x26,x4,80003cf4	 x26:0x00000224  x4:0x00000000
       47605000	      4759	80003ce8	c4728093	addi	x1,x5,-953	  x5:0x000001c7  x1=0xfffffe0e
       47615000	      4760	80003cec	1f2a3813	sltiu	x16,x20,498	 x20:0xffffff12 x16=0x00000000
       47625000	      4761	80003cf0	2fcda193	slti	x3,x27,764	 x27:0xc0000000  x3=0x00000001
       47635000	      4762	80003cf4	41170f33	sub	x30,x14,x17	 x14:0x80009f54 x17:0x00000000 x30=0x80009f54
       47645000	      4763	80003cf8	405ad793	srai	x15,x21,0x5	 x21:0x80009fc4 x15=0xfc0004fe
       47655000	      4764	80003cfc	00396c63	bltu	x18,x3,80003d14	 x18:0x80000000  x3:0x00000001
       47665000	      4765	80003d00	cf059d37	lui	x26,0xcf059	 x26=0xcf059000
       47675000	      4766	80003d04	1c1fb637	lui	x12,0x1c1fb	 x12=0x1c1fb000
       47685000	      4767	80003d08	0129d313	srli	x6,x19,0x12	 x19:0x40d80000  x6=0x00001036
       47695000	      4768	80003d0c	011299b3	sll	x19,x5,x17	  x5:0x000001c7 x17:0x00000000 x19=0x000001c7
       47705000	      4769	80003d10	41e4db33	sra	x22,x9,x30	  x9:0x00000000 x30:0x80009f54 x22=0x00000000
       47715000	      4770	80003d14	0313ec63	bltu	x7,x17,80003d4c	  x7:0x00000000 x17:0x00000000
       47725000	      4771	80003d18	e6bc6d97	auipc	x27,0xe6bc6	 x27=0x66bc9d14
       47735000	      4772	80003d1c	ace39037	lui	x0,0xace39	
       47745000	      4773	80003d20	01831663	bne	x6,x24,80003d2c	  x6:0x00001036 x24:0x80009f54
       47755000	      4774	00000000	00000013	addi	x0,x0,0	  x0:0x00000000
       47765000	      4775	80003d28	00000013	addi	x0,x0,0	  x0:0x00000000
       47775000	      4776	80003d2c	01046a63	bltu	x8,x16,80003d40	  x8:0x47acba84 x16:0x00000000
       47785000	      4777	80003d30	411fd793	srai	x15,x31,0x11	 x31:0x00000000 x15=0x00000000
       47795000	      4778	80003d34	5773aeb7	lui	x29,0x5773a	 x29=0x5773a000
       47805000	      4779	80003d38	01fe4233	xor	x4,x28,x31	 x28:0x80000000 x31:0x00000000  x4=0x80000000
       47815000	      4780	80003d3c	00bbc9b3	xor	x19,x23,x11	 x23:0x00000000 x11:0x00000001 x19=0x00000001
       47825000	      4781	80003d40	0b420213	addi	x4,x4,180	  x4:0x80000000  x4=0x800000b4
       47835000	      4782	80003d44	00bb8e63	beq	x23,x11,80003d60	 x23:0x00000000 x11:0x00000001
       47845000	      4783	80003d48	83d88e13	addi	x28,x17,-1987	 x17:0x00000000 x28=0xfffff83d
       47855000	      4784	80003d4c	f916bf37	lui	x30,0xf916b	 x30=0xf916b000
       47865000	      4785	80003d50	0041b4b3	sltu	x9,x3,x4	  x3:0x00000001  x4:0x800000b4  x9=0x00000001
       47875000	      4786	80003d54	016206b3	add	x13,x4,x22	  x4:0x800000b4 x22:0x00000000 x13=0x800000b4
       47885000	      4787	80003d58	41e12f13	slti	x30,x2,1054	  x2:0x0009fc40 x30=0x00000000
       47895000	      4788	80003d5c	69b6ed93	ori	x27,x13,1691	 x13:0x800000b4 x27=0x800006bf
       47905000	      4789	80003d60	41915cb3	sra	x25,x2,x25	  x2:0x0009fc40 x25:0x00000001 x25=0x0004fe20
       47915000	      4790	80003d64	0015ba33	sltu	x20,x11,x1	 x11:0x00000001  x1:0xfffffe0e x20=0x00000001
       47925000	      4791	80003d68	e5da52b7	lui	x5,0xe5da5	  x5=0xe5da5000
       47935000	      4792	80003d6c	004adb13	srli	x22,x21,0x4	 x21:0x80009fc4 x22=0x080009fc
       47945000	      4793	80003d70	013e2c33	slt	x24,x28,x19	 x28:0xfffff83d x19:0x00000001 x24=0x00000001
       47955000	      4794	80003d74	41c90333	sub	x6,x18,x28	 x18:0x80000000 x28:0xfffff83d  x6=0x800007c3
       47965000	      4795	80003d78	000593b3	sll	x7,x11,x0	 x11:0x00000001  x0:0x00000000  x7=0x00000001
       47975000	      4796	80003d7c	416a08b3	sub	x17,x20,x22	 x20:0x00000001 x22:0x080009fc x17=0xf7fff605
       47985000	      4797	80003d80	01697533	and	x10,x18,x22	 x18:0x80000000 x22:0x080009fc x10=0x00000000
       47995000	      4798	80003d84	01b065b3	or	x11,x0,x27	  x0:0x00000000 x27:0x800006bf x11=0x800006bf
       48005000	      4799	80003d88	e492c693	xori	x13,x5,-439	  x5:0xe5da5000 x13=0x1a25ae49
       48015000	      4800	80003d8c	0342e663	bltu	x5,x20,80003db8	  x5:0xe5da5000 x20:0x00000001
       48025000	      4801	80003d90	01afafb3	slt	x31,x31,x26	 x31:0x00000000 x26:0xcf059000 x31=0x00000000
       48035000	      4802	80003d94	001cf033	and	x0,x25,x1	 x25:0x0004fe20  x1:0xfffffe0e
       48045000	      4803	80003d98	6044c1b7	lui	x3,0x6044c	  x3=0x6044c000
       48055000	      4804	80003d9c	015f6e63	bltu	x30,x21,80003db8	 x30:0x00000000 x21:0x80009fc4
       48065000	      4805	00000000	00000013	addi	x0,x0,0	  x0:0x00000000
       48075000	      4806	80003db4	00000013	addi	x0,x0,0	  x0:0x00000000
       48085000	      4807	80003db8	005797b3	sll	x15,x15,x5	 x15:0x00000000  x5:0xe5da5000 x15=0x00000000
       48095000	      4808	80003dbc	01b4d513	srli	x10,x9,0x1b	  x9:0x00000001 x10=0x00000000
       48105000	      4809	80003dc0	00472083	lw	x1,4(x14)	 x14:0x80009f54  x1=0x80000234 PA:0x80009f58
       48115000	      4810	80003dc4	01315013	srli	x0,x2,0x13	  x2:0x0009fc40
       48125000	      4811	80003dc8	03070713	addi	x14,x14,48	 x14:0x80009f54 x14=0x80009f84
       48135000	      4812	80003dcc	d4050213	addi	x4,x10,-704	 x10:0x00000000  x4=0xfffffd40
       48145000	      4813	80003dd0	932ef413	andi	x8,x29,-1742	 x29:0x5773a000  x8=0x5773a000
       48155000	      4814	80003dd4	00008393	addi	x7,x1,0	  x1:0x80000234  x7=0x80000234
       48165000	      4815	80003dd8	000383e7	jalr	x7,x7,0	  x7:0x80000234  x7=0x80003dd8
       48175000	      4816	00000000	00000013	addi	x0,x0,0	  x0:0x00000000
       48185000	      4817	80000234	00000013	addi	x0,x0,0	  x0:0x00000000
       48195000	      4818	80000238	03a50263	beq	x10,x26,8000025c	 x10:0x00000000 x26:0xcf059000
       48205000	      4819	8000023c	3c81abb7	lui	x23,0x3c81a	 x23=0x3c81a000
       48215000	      4820	80000240	41618e33	sub	x28,x3,x22	  x3:0x6044c000 x22:0x080009fc x28=0x5844b604
       48225000	      4821	80000244	00767c63	bgeu	x12,x7,8000025c	 x12:0x1c1fb000  x7:0x80003dd8
       48235000	      4822	80000248	000ea9b3	slt	x19,x29,x0	 x29:0x5773a000  x0:0x00000000 x19=0x00000000
       48245000	      4823	8000024c	dd553e13	sltiu	x28,x10,-555	 x10:0x00000000 x28=0x00000001
       48255000	      4824	80000250	00f50663	beq	x10,x15,8000025c	 x10:0x00000000 x15:0x00000000
       48265000	      4825	00000000	00000013	addi	x0,x0,0	  x0:0x00000000
       48275000	      4826	80000258	00000013	addi	x0,x0,0	  x0:0x00000000
       48285000	      4827	8000025c	005a70b3	and	x1,x20,x5	 x20:0x00000001  x5:0xe5da5000  x1=0x00000000
       48295000	      4828	80000260	00000917	auipc	x18,0x0	 x18=0x8000025c
       48305000	      4829	80000264	00c90913	addi	x18,x18,12	 x18:0x8000025c x18=0x80000268
       48315000	      4830	80000268	00090067	jalr	x0,x18,0	 x18:0x80000268
       48325000	      4831	00000000	00000013	addi	x0,x0,0	  x0:0x00000000
       48335000	      4832	80000268	00000013	addi	x0,x0,0	  x0:0x00000000
       48345000	      4833	8000026c	00100193	addi	x3,x0,1	  x0:0x00000000  x3=0x00000001
       48355000	      4834	80000270	00000073	ecall	
       48365000	      4835	80000274	00601293	slli	x5,x0,0x6	  x0:0x00000000  x5=0x00000000
