		Time			Cycle	PC		Insn	Decoded instruction	Register and memory contents
          65000	         5	80000004	00000293	addi	x5,x0,0	  x0:0x00000000  x5=0x00000000
          75000	         6	80000008	00000313	addi	x6,x0,0	  x0:0x00000000  x6=0x00000000
          85000	         7	8000000c	00628263	beq	x5,x6,80000010	  x5:0x00000000  x6:0x00000000
          95000	         8	00000000	00000013	addi	x0,x0,0	  x0:0x00000000
         105000	         9	8000000c	00000013	addi	x0,x0,0	  x0:0x00000000
         115000	        10	80000010	00000d17	auipc	x26,0x0	 x26=0x8000000c
         125000	        11	80000014	00cd0d13	addi	x26,x26,12	 x26:0x8000000c x26=0x80000018
         135000	        12	80000018	000d0067	jalr	x0,x26,0	 x26:0x80000018
         145000	        13	00000000	00000013	addi	x0,x0,0	  x0:0x00000000
         155000	        14	80000018	00000013	addi	x0,x0,0	  x0:0x00000000
         165000	        15	8000001c	40000bb7	lui	x23,0x40000	 x23=0x40000000
         175000	        16	80000020	100b8b93	addi	x23,x23,256	 x23:0x40000000 x23=0x40000100
         185000	        17	80000024	00000013	addi	x0,x0,0	  x0:0x00000000
         195000	        18	80000028	0000a397	auipc	x7,0xa	  x7=0x8000a024
         205000	        19	8000002c	fa038393	addi	x7,x7,-96	  x7:0x8000a024  x7=0x80009fc4
         215000	        20	80000030	00005b97	auipc	x23,0x5	 x23=0x8000502c
         225000	        21	80000034	f54b8b93	addi	x23,x23,-172	 x23:0x8000502c x23=0x80004f80
         235000	        22	80000038	001beb93	ori	x23,x23,1	 x23:0x80004f80 x23=0x80004f81
         245000	        23	8000003c	00000013	addi	x0,x0,0	  x0:0x00000000
         255000	        24	80000040	00000b97	auipc	x23,0x0	 x23=0x8000003c
         265000	        25	80000044	020b8b93	addi	x23,x23,32	 x23:0x8000003c x23=0x8000005c
         275000	        26	80000048	00000013	addi	x0,x0,0	  x0:0x00000000
         285000	        27	8000004c	00000013	addi	x0,x0,0	  x0:0x00000000
         295000	        28	80000050	00002bb7	lui	x23,0x2	 x23=0x00002000
         305000	        29	80000054	800b8b93	addi	x23,x23,-2048	 x23:0x00002000 x23=0x00001800
         315000	        30	80000058	00000013	addi	x0,x0,0	  x0:0x00000000
         325000	        31	8000005c	00000013	addi	x0,x0,0	  x0:0x00000000
         335000	        32	80000060	00300013	addi	x0,x0,3	  x0:0x00000000
         345000	        33	80000064	00400093	addi	x1,x0,4	  x0:0x00000000  x1=0x00000004
         355000	        34	80000068	00000113	addi	x2,x0,0	  x0:0x00000000  x2=0x00000000
         365000	        35	8000006c	fa5791b7	lui	x3,0xfa579	  x3=0xfa579000
         375000	        36	80000070	d7018193	addi	x3,x3,-656	  x3:0xfa579000  x3=0xfa578d70
         385000	        37	80000074	63765237	lui	x4,0x63765	  x4=0x63765000
         395000	        38	80000078	f2e20213	addi	x4,x4,-210	  x4:0x63765000  x4=0x63764f2e
         405000	        39	8000007c	2f0482b7	lui	x5,0x2f048	  x5=0x2f048000
         415000	        40	80000080	de328293	addi	x5,x5,-541	  x5:0x2f048000  x5=0x2f047de3
         425000	        41	80000084	00000313	addi	x6,x0,0	  x0:0x00000000  x6=0x00000000
         435000	        42	80000088	1a856437	lui	x8,0x1a856	  x8=0x1a856000
         445000	        43	8000008c	4de40413	addi	x8,x8,1246	  x8:0x1a856000  x8=0x1a8564de
         455000	        44	80000090	00100493	addi	x9,x0,1	  x0:0x00000000  x9=0x00000001
         465000	        45	80000094	7c3f4537	lui	x10,0x7c3f4	 x10=0x7c3f4000
         475000	        46	80000098	cf450513	addi	x10,x10,-780	 x10:0x7c3f4000 x10=0x7c3f3cf4
         485000	        47	8000009c	800005b7	lui	x11,0x80000	 x11=0x80000000
         495000	        48	800000a0	80000637	lui	x12,0x80000	 x12=0x80000000
         505000	        49	800000a4	800006b7	lui	x13,0x80000	 x13=0x80000000
         515000	        50	800000a8	00200713	addi	x14,x0,2	  x0:0x00000000 x14=0x00000002
         525000	        51	800000ac	ff3847b7	lui	x15,0xff384	 x15=0xff384000
         535000	        52	800000b0	c1878793	addi	x15,x15,-1000	 x15:0xff384000 x15=0xff383c18
         545000	        53	800000b4	80000837	lui	x16,0x80000	 x16=0x80000000
         555000	        54	800000b8	00e00893	addi	x17,x0,14	  x0:0x00000000 x17=0x0000000e
         565000	        55	800000bc	00100913	addi	x18,x0,1	  x0:0x00000000 x18=0x00000001
         575000	        56	800000c0	ac1389b7	lui	x19,0xac138	 x19=0xac138000
         585000	        57	800000c4	b9198993	addi	x19,x19,-1135	 x19:0xac138000 x19=0xac137b91
         595000	        58	800000c8	c6644a37	lui	x20,0xc6644	 x20=0xc6644000
         605000	        59	800000cc	307a0a13	addi	x20,x20,775	 x20:0xc6644000 x20=0xc6644307
         615000	        60	800000d0	00900a93	addi	x21,x0,9	  x0:0x00000000 x21=0x00000009
         625000	        61	800000d4	00200b13	addi	x22,x0,2	  x0:0x00000000 x22=0x00000002
         635000	        62	800000d8	f18f4bb7	lui	x23,0xf18f4	 x23=0xf18f4000
         645000	        63	800000dc	ed6b8b93	addi	x23,x23,-298	 x23:0xf18f4000 x23=0xf18f3ed6
         655000	        64	800000e0	fc065c37	lui	x24,0xfc065	 x24=0xfc065000
         665000	        65	800000e4	b7dc0c13	addi	x24,x24,-1155	 x24:0xfc065000 x24=0xfc064b7d
         675000	        66	800000e8	80000cb7	lui	x25,0x80000	 x25=0x80000000
         685000	        67	800000ec	80000d37	lui	x26,0x80000	 x26=0x80000000
         695000	        68	800000f0	00700d93	addi	x27,x0,7	  x0:0x00000000 x27=0x00000007
         705000	        69	800000f4	80000e37	lui	x28,0x80000	 x28=0x80000000
         715000	        70	800000f8	80000eb7	lui	x29,0x80000	 x29=0x80000000
         725000	        71	800000fc	c74eff37	lui	x30,0xc74ef	 x30=0xc74ef000
         735000	        72	80000100	db5f0f13	addi	x30,x30,-587	 x30:0xc74ef000 x30=0xc74eedb5
         745000	        73	80000104	0000af97	auipc	x31,0xa	 x31=0x8000a100
         755000	        74	80000108	e84f8f93	addi	x31,x31,-380	 x31:0x8000a100 x31=0x80009f84
         765000	        75	8000010c	030009ef	jal	x19,8000010c	 x19=0x8000010c
         775000	        76	00000000	00000013	addi	x0,x0,0	  x0:0x00000000
         785000	        77	80000138	00000013	addi	x0,x0,0	  x0:0x00000000
         795000	        78	8000013c	004000ef	jal	x1,8000013c	  x1=0x8000013c
         805000	        79	00000000	00000013	addi	x0,x0,0	  x0:0x00000000
         815000	        80	8000013c	00000013	addi	x0,x0,0	  x0:0x00000000
         825000	        81	80000140	028000ef	jal	x1,80000140	  x1=0x80000140
         835000	        82	00000000	00000013	addi	x0,x0,0	  x0:0x00000000
         845000	        83	80000164	00000013	addi	x0,x0,0	  x0:0x00000000
         855000	        84	80000168	fc1ff0ef	jal	x1,80000168	  x1=0x80000168
         865000	        85	00000000	00000013	addi	x0,x0,0	  x0:0x00000000
         875000	        86	80000124	00000013	addi	x0,x0,0	  x0:0x00000000
         885000	        87	80000128	0040036f	jal	x6,80000128	  x6=0x80000128
         895000	        88	00000000	00000013	addi	x0,x0,0	  x0:0x00000000
         905000	        89	80000128	00000013	addi	x0,x0,0	  x0:0x00000000
         915000	        90	8000012c	fedff76f	jal	x14,8000012c	 x14=0x8000012c
         925000	        91	00000000	00000013	addi	x0,x0,0	  x0:0x00000000
         935000	        92	80000114	00000013	addi	x0,x0,0	  x0:0x00000000
         945000	        93	80000118	0400086f	jal	x16,80000118	 x16=0x80000118
         955000	        94	00000000	00000013	addi	x0,x0,0	  x0:0x00000000
         965000	        95	80000154	00000013	addi	x0,x0,0	  x0:0x00000000
         975000	        96	80000158	fbdff36f	jal	x6,80000158	  x6=0x80000158
         985000	        97	00000000	00000013	addi	x0,x0,0	  x0:0x00000000
         995000	        98	80000110	00000013	addi	x0,x0,0	  x0:0x00000000
        1005000	        99	80000114	058000ef	jal	x1,80000114	  x1=0x80000114
        1015000	       100	00000000	00000013	addi	x0,x0,0	  x0:0x00000000
        1025000	       101	80000168	00000013	addi	x0,x0,0	  x0:0x00000000
        1035000	       102	8000016c	ff5ff16f	jal	x2,8000016c	  x2=0x8000016c
        1045000	       103	00000000	00000013	addi	x0,x0,0	  x0:0x00000000
        1055000	       104	8000015c	00000013	addi	x0,x0,0	  x0:0x00000000
        1065000	       105	80000160	004000ef	jal	x1,80000160	  x1=0x80000160
        1075000	       106	00000000	00000013	addi	x0,x0,0	  x0:0x00000000
        1085000	       107	80000160	00000013	addi	x0,x0,0	  x0:0x00000000
        1095000	       108	80000164	ff1ff0ef	jal	x1,80000164	  x1=0x80000164
        1105000	       109	00000000	00000013	addi	x0,x0,0	  x0:0x00000000
        1115000	       110	80000150	00000013	addi	x0,x0,0	  x0:0x00000000
        1125000	       111	80000154	008000ef	jal	x1,80000154	  x1=0x80000154
        1135000	       112	00000000	00000013	addi	x0,x0,0	  x0:0x00000000
        1145000	       113	80000158	00000013	addi	x0,x0,0	  x0:0x00000000
        1155000	       114	8000015c	fc1ffb6f	jal	x22,8000015c	 x22=0x8000015c
        1165000	       115	00000000	00000013	addi	x0,x0,0	  x0:0x00000000
        1175000	       116	80000118	00000013	addi	x0,x0,0	  x0:0x00000000
        1185000	       117	8000011c	0540036f	jal	x6,8000011c	  x6=0x8000011c
        1195000	       118	00000000	00000013	addi	x0,x0,0	  x0:0x00000000
        1205000	       119	8000016c	00000013	addi	x0,x0,0	  x0:0x00000000
        1215000	       120	80000170	fb5ff0ef	jal	x1,80000170	  x1=0x80000170
        1225000	       121	00000000	00000013	addi	x0,x0,0	  x0:0x00000000
        1235000	       122	80000120	00000013	addi	x0,x0,0	  x0:0x00000000
        1245000	       123	80000124	024006ef	jal	x13,80000124	 x13=0x80000124
        1255000	       124	00000000	00000013	addi	x0,x0,0	  x0:0x00000000
        1265000	       125	80000144	00000013	addi	x0,x0,0	  x0:0x00000000
        1275000	       126	80000148	0040036f	jal	x6,80000148	  x6=0x80000148
        1285000	       127	00000000	00000013	addi	x0,x0,0	  x0:0x00000000
        1295000	       128	80000148	00000013	addi	x0,x0,0	  x0:0x00000000
        1305000	       129	8000014c	ff9ff0ef	jal	x1,8000014c	  x1=0x8000014c
        1315000	       130	00000000	00000013	addi	x0,x0,0	  x0:0x00000000
        1325000	       131	80000140	00000013	addi	x0,x0,0	  x0:0x00000000
        1335000	       132	80000144	fcdff36f	jal	x6,80000144	  x6=0x80000144
        1345000	       133	00000000	00000013	addi	x0,x0,0	  x0:0x00000000
        1355000	       134	8000010c	00000013	addi	x0,x0,0	  x0:0x00000000
        1365000	       135	80000110	0100036f	jal	x6,80000110	  x6=0x80000110
        1375000	       136	00000000	00000013	addi	x0,x0,0	  x0:0x00000000
        1385000	       137	8000011c	00000013	addi	x0,x0,0	  x0:0x00000000
        1395000	       138	80000120	014000ef	jal	x1,80000120	  x1=0x80000120
        1405000	       139	00000000	00000013	addi	x0,x0,0	  x0:0x00000000
        1415000	       140	80000130	00000013	addi	x0,x0,0	  x0:0x00000000
        1425000	       141	80000134	ffdff0ef	jal	x1,80000134	  x1=0x80000134
        1435000	       142	00000000	00000013	addi	x0,x0,0	  x0:0x00000000
        1445000	       143	8000012c	00000013	addi	x0,x0,0	  x0:0x00000000
        1455000	       144	80000130	0440036f	jal	x6,80000130	  x6=0x80000130
        1465000	       145	00000000	00000013	addi	x0,x0,0	  x0:0x00000000
        1475000	       146	80000170	00000013	addi	x0,x0,0	  x0:0x00000000
        1485000	       147	80000174	fddff36f	jal	x6,80000174	  x6=0x80000174
        1495000	       148	00000000	00000013	addi	x0,x0,0	  x0:0x00000000
        1505000	       149	8000014c	00000013	addi	x0,x0,0	  x0:0x00000000
        1515000	       150	80000150	fe9ff0ef	jal	x1,80000150	  x1=0x80000150
        1525000	       151	00000000	00000013	addi	x0,x0,0	  x0:0x00000000
        1535000	       152	80000134	00000013	addi	x0,x0,0	  x0:0x00000000
        1545000	       153	80000138	0400026f	jal	x4,80000138	  x4=0x80000138
        1555000	       154	00000000	00000013	addi	x0,x0,0	  x0:0x00000000
        1565000	       155	80000174	00000013	addi	x0,x0,0	  x0:0x00000000
        1575000	       156	80000178	00000013	addi	x0,x0,0	  x0:0x00000000
        1585000	       157	8000017c	06c009ef	jal	x19,8000017c	 x19=0x8000017c
        1595000	       158	00000000	00000013	addi	x0,x0,0	  x0:0x00000000
        1605000	       159	800001e4	00000013	addi	x0,x0,0	  x0:0x00000000
        1615000	       160	800001e8	fbdff36f	jal	x6,800001e8	  x6=0x800001e8
        1625000	       161	00000000	00000013	addi	x0,x0,0	  x0:0x00000000
        1635000	       162	800001a0	00000013	addi	x0,x0,0	  x0:0x00000000
        1645000	       163	800001a4	0240036f	jal	x6,800001a4	  x6=0x800001a4
        1655000	       164	00000000	00000013	addi	x0,x0,0	  x0:0x00000000
        1665000	       165	800001c4	00000013	addi	x0,x0,0	  x0:0x00000000
        1675000	       166	800001c8	fe9ff0ef	jal	x1,800001c8	  x1=0x800001c8
        1685000	       167	00000000	00000013	addi	x0,x0,0	  x0:0x00000000
        1695000	       168	800001ac	00000013	addi	x0,x0,0	  x0:0x00000000
        1705000	       169	800001b0	ff1ff96f	jal	x18,800001b0	 x18=0x800001b0
        1715000	       170	00000000	00000013	addi	x0,x0,0	  x0:0x00000000
        1725000	       171	8000019c	00000013	addi	x0,x0,0	  x0:0x00000000
        1735000	       172	800001a0	ff9ff0ef	jal	x1,800001a0	  x1=0x800001a0
        1745000	       173	00000000	00000013	addi	x0,x0,0	  x0:0x00000000
        1755000	       174	80000194	00000013	addi	x0,x0,0	  x0:0x00000000
        1765000	       175	80000198	fedff1ef	jal	x3,80000198	  x3=0x80000198
        1775000	       176	00000000	00000013	addi	x0,x0,0	  x0:0x00000000
        1785000	       177	80000180	00000013	addi	x0,x0,0	  x0:0x00000000
        1795000	       178	80000184	04c001ef	jal	x3,80000184	  x3=0x80000184
        1805000	       179	00000000	00000013	addi	x0,x0,0	  x0:0x00000000
        1815000	       180	800001cc	00000013	addi	x0,x0,0	  x0:0x00000000
        1825000	       181	800001d0	fedff0ef	jal	x1,800001d0	  x1=0x800001d0
        1835000	       182	00000000	00000013	addi	x0,x0,0	  x0:0x00000000
        1845000	       183	800001b8	00000013	addi	x0,x0,0	  x0:0x00000000
        1855000	       184	800001bc	fd5ff0ef	jal	x1,800001bc	  x1=0x800001bc
        1865000	       185	00000000	00000013	addi	x0,x0,0	  x0:0x00000000
        1875000	       186	8000018c	00000013	addi	x0,x0,0	  x0:0x00000000
        1885000	       187	80000190	034000ef	jal	x1,80000190	  x1=0x80000190
        1895000	       188	00000000	00000013	addi	x0,x0,0	  x0:0x00000000
        1905000	       189	800001c0	00000013	addi	x0,x0,0	  x0:0x00000000
        1915000	       190	800001c4	028000ef	jal	x1,800001c4	  x1=0x800001c4
        1925000	       191	00000000	00000013	addi	x0,x0,0	  x0:0x00000000
        1935000	       192	800001e8	00000013	addi	x0,x0,0	  x0:0x00000000
        1945000	       193	800001ec	fa9ff0ef	jal	x1,800001ec	  x1=0x800001ec
        1955000	       194	00000000	00000013	addi	x0,x0,0	  x0:0x00000000
        1965000	       195	80000190	00000013	addi	x0,x0,0	  x0:0x00000000
        1975000	       196	80000194	014000ef	jal	x1,80000194	  x1=0x80000194
        1985000	       197	00000000	00000013	addi	x0,x0,0	  x0:0x00000000
        1995000	       198	800001a4	00000013	addi	x0,x0,0	  x0:0x00000000
        2005000	       199	800001a8	fe1ff0ef	jal	x1,800001a8	  x1=0x800001a8
        2015000	       200	00000000	00000013	addi	x0,x0,0	  x0:0x00000000
        2025000	       201	80000184	00000013	addi	x0,x0,0	  x0:0x00000000
        2035000	       202	80000188	04c00eef	jal	x29,80000188	 x29=0x80000188
        2045000	       203	00000000	00000013	addi	x0,x0,0	  x0:0x00000000
        2055000	       204	800001d0	00000013	addi	x0,x0,0	  x0:0x00000000
        2065000	       205	800001d4	0080036f	jal	x6,800001d4	  x6=0x800001d4
        2075000	       206	00000000	00000013	addi	x0,x0,0	  x0:0x00000000
        2085000	       207	800001d8	00000013	addi	x0,x0,0	  x0:0x00000000
        2095000	       208	800001dc	fd1ff0ef	jal	x1,800001dc	  x1=0x800001dc
        2105000	       209	00000000	00000013	addi	x0,x0,0	  x0:0x00000000
        2115000	       210	800001a8	00000013	addi	x0,x0,0	  x0:0x00000000
        2125000	       211	800001ac	02c000ef	jal	x1,800001ac	  x1=0x800001ac
        2135000	       212	00000000	00000013	addi	x0,x0,0	  x0:0x00000000
        2145000	       213	800001d4	00000013	addi	x0,x0,0	  x0:0x00000000
        2155000	       214	800001d8	fb5ff0ef	jal	x1,800001d8	  x1=0x800001d8
        2165000	       215	00000000	00000013	addi	x0,x0,0	  x0:0x00000000
        2175000	       216	80000188	00000013	addi	x0,x0,0	  x0:0x00000000
        2185000	       217	8000018c	0400056f	jal	x10,8000018c	 x10=0x8000018c
        2195000	       218	00000000	00000013	addi	x0,x0,0	  x0:0x00000000
        2205000	       219	800001c8	00000013	addi	x0,x0,0	  x0:0x00000000
        2215000	       220	800001cc	014000ef	jal	x1,800001cc	  x1=0x800001cc
        2225000	       221	00000000	00000013	addi	x0,x0,0	  x0:0x00000000
        2235000	       222	800001dc	00000013	addi	x0,x0,0	  x0:0x00000000
        2245000	       223	800001e0	fbdff36f	jal	x6,800001e0	  x6=0x800001e0
        2255000	       224	00000000	00000013	addi	x0,x0,0	  x0:0x00000000
        2265000	       225	80000198	00000013	addi	x0,x0,0	  x0:0x00000000
        2275000	       226	8000019c	0240036f	jal	x6,8000019c	  x6=0x8000019c
        2285000	       227	00000000	00000013	addi	x0,x0,0	  x0:0x00000000
        2295000	       228	800001bc	00000013	addi	x0,x0,0	  x0:0x00000000
        2305000	       229	800001c0	fc1ff8ef	jal	x17,800001c0	 x17=0x800001c0
        2315000	       230	00000000	00000013	addi	x0,x0,0	  x0:0x00000000
        2325000	       231	8000017c	00000013	addi	x0,x0,0	  x0:0x00000000
        2335000	       232	80000180	0340086f	jal	x16,80000180	 x16=0x80000180
        2345000	       233	00000000	00000013	addi	x0,x0,0	  x0:0x00000000
        2355000	       234	800001b0	00000013	addi	x0,x0,0	  x0:0x00000000
        2365000	       235	800001b4	00400e6f	jal	x28,800001b4	 x28=0x800001b4
        2375000	       236	00000000	00000013	addi	x0,x0,0	  x0:0x00000000
        2385000	       237	800001b4	00000013	addi	x0,x0,0	  x0:0x00000000
        2395000	       238	800001b8	02c000ef	jal	x1,800001b8	  x1=0x800001b8
        2405000	       239	00000000	00000013	addi	x0,x0,0	  x0:0x00000000
        2415000	       240	800001e0	00000013	addi	x0,x0,0	  x0:0x00000000
        2425000	       241	800001e4	00c000ef	jal	x1,800001e4	  x1=0x800001e4
        2435000	       242	00000000	00000013	addi	x0,x0,0	  x0:0x00000000
        2445000	       243	800001ec	00000013	addi	x0,x0,0	  x0:0x00000000
        2455000	       244	800001f0	4e64f413	andi	x8,x9,1254	  x9:0x00000001  x8=0x00000000
        2465000	       245	800001f4	00301993	slli	x19,x0,0x3	  x0:0x00000000 x19=0x00000000
        2475000	       246	800001f8	0077da63	bge	x15,x7,8000020c	 x15:0xff383c18  x7:0x80009fc4
        2485000	       247	00000000	00000013	addi	x0,x0,0	  x0:0x00000000
        2495000	       248	80000208	00000013	addi	x0,x0,0	  x0:0x00000000
        2505000	       249	8000020c	018bd093	srli	x1,x23,0x18	 x23:0xf18f3ed6  x1=0x000000f1
        2515000	       250	80000210	410b0633	sub	x12,x22,x16	 x22:0x8000015c x16:0x80000180 x12=0xffffffdc
        2525000	       251	80000214	01588663	beq	x17,x21,80000220	 x17:0x800001c0 x21:0x00000009
        2535000	       252	80000218	01a521b3	slt	x3,x10,x26	 x10:0x8000018c x26:0x80000000  x3=0x00000000
        2545000	       253	8000021c	411cd4b3	sra	x9,x25,x17	 x25:0x80000000 x17:0x800001c0  x9=0x80000000
        2555000	       254	80000220	0491c463	blt	x3,x9,80000268	  x3:0x00000000  x9:0x80000000
        2565000	       255	80000224	01e5cdb3	xor	x27,x11,x30	 x11:0x80000000 x30:0xc74eedb5 x27=0x474eedb5
        2575000	       256	80000228	0019fe33	and	x28,x19,x1	 x19:0x00000000  x1:0x000000f1 x28=0x00000000
        2585000	       257	8000022c	002dca63	blt	x27,x2,80000240	 x27:0x474eedb5  x2:0x8000016c
        2595000	       258	80000230	3b7a0213	addi	x4,x20,951	 x20:0xc6644307  x4=0xc66446be
        2605000	       259	80000234	015708b3	add	x17,x14,x21	 x14:0x8000012c x21:0x00000009 x17=0x80000135
        2615000	       260	80000238	048d5863	bge	x26,x8,80000288	 x26:0x80000000  x8:0x00000000
        2625000	       261	8000023c	00694cb3	xor	x25,x18,x6	 x18:0x800001b0  x6:0x8000019c x25=0x0000002c
        2635000	       262	80000240	3f402413	slti	x8,x0,1012	  x0:0x00000000  x8=0x00000001
        2645000	       263	80000244	90c39a97	auipc	x21,0x90c39	 x21=0x10c39240
        2655000	       264	80000248	0eb7e997	auipc	x19,0xeb7e	 x19=0x8eb7e244
        2665000	       265	8000024c	0080d2b3	srl	x5,x1,x8	  x1:0x000000f1  x8:0x00000001  x5=0x00000078
        2675000	       266	80000250	038b1263	bne	x22,x24,80000274	 x22:0x8000015c x24:0xfc064b7d
        2685000	       267	00000000	00000013	addi	x0,x0,0	  x0:0x00000000
        2695000	       268	80000270	00000013	addi	x0,x0,0	  x0:0x00000000
        2705000	       269	80000274	419ad913	srai	x18,x21,0x19	 x21:0x10c39240 x18=0x00000008
        2715000	       270	80000278	07ee7a63	bgeu	x28,x30,800002ec	 x28:0x00000000 x30:0xc74eedb5
        2725000	       271	8000027c	25b4d5b7	lui	x11,0x25b4d	 x11=0x25b4d000
        2735000	       272	80000280	052e7a63	bgeu	x28,x18,800002d4	 x28:0x00000000 x18:0x00000008
        2745000	       273	80000284	00a1b033	sltu	x0,x3,x10	  x3:0x00000000 x10:0x8000018c
        2755000	       274	80000288	043e8c63	beq	x29,x3,800002e0	 x29:0x80000188  x3:0x00000000
        2765000	       275	8000028c	00000013	addi	x0,x0,0	  x0:0x00000000
        2775000	       276	80000290	2fad2097	auipc	x1,0x2fad2	  x1=0xafad228c
        2785000	       277	80000294	00004a17	auipc	x20,0x4	 x20=0x80004290
        2795000	       278	80000298	b30a0a13	addi	x20,x20,-1232	 x20:0x80004290 x20=0x80003dc0
        2805000	       279	8000029c	01881633	sll	x12,x16,x24	 x16:0x80000180 x24:0xfc064b7d x12=0x00000000
        2815000	       280	800002a0	032a0a13	addi	x20,x20,50	 x20:0x80003dc0 x20=0x80003df2
        2825000	       281	800002a4	0013cab3	xor	x21,x7,x1	  x7:0x80009fc4  x1:0xafad228c x21=0x2fadbd48
        2835000	       282	800002a8	000c6c63	bltu	x24,x0,800002c0	 x24:0xfc064b7d  x0:0x00000000
        2845000	       283	800002ac	b02f0493	addi	x9,x30,-1278	 x30:0xc74eedb5  x9=0xc74ee8b7
        2855000	       284	800002b0	dde7a593	slti	x11,x15,-546	 x15:0xff383c18 x11=0x00000001
        2865000	       285	800002b4	00fa2033	slt	x0,x20,x15	 x20:0x80003df2 x15:0xff383c18
        2875000	       286	800002b8	005e5913	srli	x18,x28,0x5	 x28:0x00000000 x18=0x00000000
        2885000	       287	800002bc	00bbd4b3	srl	x9,x23,x11	 x23:0xf18f3ed6 x11:0x00000001  x9=0x78c79f6b
        2895000	       288	800002c0	fcfa09e7	jalr	x19,x20,-49	 x20:0x80003df2 x19=0x800002c0
        2905000	       289	00000000	00000013	addi	x0,x0,0	  x0:0x00000000
        2915000	       290	80003dc0	00000013	addi	x0,x0,0	  x0:0x00000000
        2925000	       291	80003dc4	00101263	bne	x0,x1,80003dc8	  x0:0x00000000  x1:0xafad228c
        2935000	       292	00000000	00000013	addi	x0,x0,0	  x0:0x00000000
        2945000	       293	80003dc4	00000013	addi	x0,x0,0	  x0:0x00000000
        2955000	       294	80003dc8	ff4f8f93	addi	x31,x31,-12	 x31:0x80009f84 x31=0x80009f78
        2965000	       295	80003dcc	911f8a93	addi	x21,x31,-1775	 x31:0x80009f78 x21=0x80009889
        2975000	       296	80003dd0	00bb7bb3	and	x23,x22,x11	 x22:0x8000015c x11:0x00000001 x23=0x00000000
        2985000	       297	80003dd4	bd623b13	sltiu	x22,x4,-1066	  x4:0xc66446be x22=0x00000001
        2995000	       298	80003dd8	00b428b3	slt	x17,x8,x11	  x8:0x00000001 x11:0x00000001 x17=0x00000000
        3005000	       299	80003ddc	013fa223	sw	x19,4(x31)	 x31:0x80009f78 x19:0x800002c0 PA:0x80009f7c
        3015000	       300	80003de0	0166ff33	and	x30,x13,x22	 x13:0x80000124 x22:0x00000001 x30=0x00000000
        3025000	       301	80003de4	006f9e33	sll	x28,x31,x6	 x31:0x80009f78  x6:0x8000019c x28=0x80000000
        3035000	       302	80003de8	5a8c0093	addi	x1,x24,1448	 x24:0xfc064b7d  x1=0xfc065125
        3045000	       303	80003dec	00c70a33	add	x20,x14,x12	 x14:0x8000012c x12:0x00000000 x20=0x8000012c
        3055000	       304	80003df0	01057133	and	x2,x10,x16	 x10:0x8000018c x16:0x80000180  x2=0x80000180
        3065000	       305	80003df4	017d1ab3	sll	x21,x26,x23	 x26:0x80000000 x23:0x00000000 x21=0x80000000
        3075000	       306	80003df8	00000f17	auipc	x30,0x0	 x30=0x80003df4
        3085000	       307	80003dfc	4e4f0f13	addi	x30,x30,1252	 x30:0x80003df4 x30=0x800042d8
        3095000	       308	80003e00	015b9e93	slli	x29,x23,0x15	 x23:0x00000000 x29=0x00000000
        3105000	       309	80003e04	00000013	addi	x0,x0,0	  x0:0x00000000
        3115000	       310	80003e08	00fd3033	sltu	x0,x26,x15	 x26:0x80000000 x15:0xff383c18
        3125000	       311	80003e0c	fe7f0f13	addi	x30,x30,-25	 x30:0x800042d8 x30=0x800042bf
        3135000	       312	80003e10	016b4433	xor	x8,x22,x22	 x22:0x00000001 x22:0x00000001  x8=0x00000000
        3145000	       313	80003e14	004a5b13	srli	x22,x20,0x4	 x20:0x8000012c x22=0x08000012
        3155000	       314	80003e18	40095413	srai	x8,x18,0x0	 x18:0x00000000  x8=0x00000000
        3165000	       315	80003e1c	019f09e7	jalr	x19,x30,25	 x30:0x800042bf x19=0x80003e1c
        3175000	       316	00000000	00000013	addi	x0,x0,0	  x0:0x00000000
        3185000	       317	800042d8	00000013	addi	x0,x0,0	  x0:0x00000000
        3195000	       318	800042dc	f1c3b413	sltiu	x8,x7,-228	  x7:0x80009fc4  x8=0x00000001
        3205000	       319	800042e0	013af463	bgeu	x21,x19,800042e8	 x21:0x80000000 x19:0x80003e1c
        3215000	       320	800042e4	789920b7	lui	x1,0x78992	  x1=0x78992000
        3225000	       321	800042e8	fc0f8f93	addi	x31,x31,-64	 x31:0x80009f78 x31=0x80009f38
        3235000	       322	800042ec	004e3e33	sltu	x28,x28,x4	 x28:0x80000000  x4:0xc66446be x28=0x00000001
        3245000	       323	800042f0	00df1c13	slli	x24,x30,0xd	 x30:0x800042bf x24=0x0857e000
        3255000	       324	800042f4	013fa223	sw	x19,4(x31)	 x31:0x80009f38 x19:0x80003e1c PA:0x80009f3c
        3265000	       325	800042f8	4ac07413	andi	x8,x0,1196	  x0:0x00000000  x8=0x00000000
        3275000	       326	800042fc	ca4c7a93	andi	x21,x24,-860	 x24:0x0857e000 x21=0x0857e000
        3285000	       327	80004300	00000013	addi	x0,x0,0	  x0:0x00000000
        3295000	       328	80004304	01ebfa63	bgeu	x23,x30,80004318	 x23:0x00000000 x30:0x800042bf
        3305000	       329	80004308	04eed063	bge	x29,x14,80004348	 x29:0x00000000 x14:0x8000012c
        3315000	       330	00000000	00000013	addi	x0,x0,0	  x0:0x00000000
        3325000	       331	80004344	00000013	addi	x0,x0,0	  x0:0x00000000
        3335000	       332	80004348	004d1533	sll	x10,x26,x4	 x26:0x80000000  x4:0xc66446be x10=0x00000000
        3345000	       333	8000434c	0172ce33	xor	x28,x5,x23	  x5:0x00000078 x23:0x00000000 x28=0x00000078
        3355000	       334	80004350	b9857f13	andi	x30,x10,-1128	 x10:0x00000000 x30=0x00000000
        3365000	       335	80004354	201ca213	slti	x4,x25,513	 x25:0x0000002c  x4=0x00000001
        3375000	       336	80004358	40a25b13	srai	x22,x4,0xa	  x4:0x00000001 x22=0x00000000
        3385000	       337	8000435c	418086b3	sub	x13,x1,x24	  x1:0x78992000 x24:0x0857e000 x13=0x70414000
        3395000	       338	80004360	e9788793	addi	x15,x17,-361	 x17:0x00000000 x15=0xfffffe97
        3405000	       339	80004364	01866f33	or	x30,x12,x24	 x12:0x00000000 x24:0x0857e000 x30=0x0857e000
        3415000	       340	80004368	01bf7033	and	x0,x30,x27	 x30:0x0857e000 x27:0x474eedb5
        3425000	       341	8000436c	001d0463	beq	x26,x1,80004374	 x26:0x80000000  x1:0x78992000
        3435000	       342	80004370	00e19033	sll	x0,x3,x14	  x3:0x00000000 x14:0x8000012c
        3445000	       343	80004374	024ae5b7	lui	x11,0x24ae	 x11=0x024ae000
        3455000	       344	80004378	018e1413	slli	x8,x28,0x18	 x28:0x00000078  x8=0x78000000
        3465000	       345	8000437c	032be263	bltu	x23,x18,800043a0	 x23:0x00000000 x18:0x00000000
        3475000	       346	80004380	41f58733	sub	x14,x11,x31	 x11:0x024ae000 x31:0x80009f38 x14=0x824a40c8
        3485000	       347	80004384	4028d713	srai	x14,x17,0x2	 x17:0x00000000 x14=0x00000000
        3495000	       348	80004388	016c4133	xor	x2,x24,x22	 x24:0x0857e000 x22:0x00000000  x2=0x0857e000
        3505000	       349	8000438c	00d96ab3	or	x21,x18,x13	 x18:0x00000000 x13:0x70414000 x21=0x70414000
        3515000	       350	80004390	021c0063	beq	x24,x1,800043b0	 x24:0x0857e000  x1:0x78992000
        3525000	       351	80004394	00000013	addi	x0,x0,0	  x0:0x00000000
        3535000	       352	80004398	04e40663	beq	x8,x14,800043e4	  x8:0x78000000 x14:0x00000000
        3545000	       353	8000439c	0031fc63	bgeu	x3,x3,800043b4	  x3:0x00000000  x3:0x00000000
        3555000	       354	00000000	00000013	addi	x0,x0,0	  x0:0x00000000
        3565000	       355	800043b0	00000013	addi	x0,x0,0	  x0:0x00000000
        3575000	       356	800043b4	a311b513	sltiu	x10,x3,-1487	  x3:0x00000000 x10=0x00000001
        3585000	       357	800043b8	72ee7d93	andi	x27,x28,1838	 x28:0x00000078 x27=0x00000028
        3595000	       358	800043bc	6cbf01b7	lui	x3,0x6cbf0	  x3=0x6cbf0000
        3605000	       359	800043c0	01505933	srl	x18,x0,x21	  x0:0x00000000 x21:0x70414000 x18=0x00000000
        3615000	       360	800043c4	41518733	sub	x14,x3,x21	  x3:0x6cbf0000 x21:0x70414000 x14=0xfc7dc000
        3625000	       361	800043c8	05675463	bge	x14,x22,80004410	 x14:0xfc7dc000 x22:0x00000000
        3635000	       362	800043cc	521d8613	addi	x12,x27,1313	 x27:0x00000028 x12=0x00000549
        3645000	       363	800043d0	411752b3	sra	x5,x14,x17	 x14:0xfc7dc000 x17:0x00000000  x5=0xfc7dc000
        3655000	       364	800043d4	403c59b3	sra	x19,x24,x3	 x24:0x0857e000  x3:0x6cbf0000 x19=0x0857e000
        3665000	       365	800043d8	00000013	addi	x0,x0,0	  x0:0x00000000
        3675000	       366	800043dc	01da8ab3	add	x21,x21,x29	 x21:0x70414000 x29:0x00000000 x21=0x70414000
        3685000	       367	800043e0	01e3de33	srl	x28,x7,x30	  x7:0x80009fc4 x30:0x0857e000 x28=0x80009fc4
        3695000	       368	800043e4	003431b3	sltu	x3,x8,x3	  x8:0x78000000  x3:0x6cbf0000  x3=0x00000000
        3705000	       369	800043e8	007f2733	slt	x14,x30,x7	 x30:0x0857e000  x7:0x80009fc4 x14=0x00000000
        3715000	       370	800043ec	aba50493	addi	x9,x10,-1350	 x10:0x00000001  x9=0xfffffabb
        3725000	       371	800043f0	0ab4dc63	bge	x9,x11,800044a8	  x9:0xfffffabb x11:0x024ae000
        3735000	       372	800043f4	13884b13	xori	x22,x16,312	 x16:0x80000180 x22=0x800000b8
        3745000	       373	800043f8	20b57493	andi	x9,x10,523	 x10:0x00000001  x9=0x00000001
        3755000	       374	800043fc	00d5ee33	or	x28,x11,x13	 x11:0x024ae000 x13:0x70414000 x28=0x724be000
        3765000	       375	80004400	41bcdbb3	sra	x23,x25,x27	 x25:0x0000002c x27:0x00000028 x23=0x00000000
        3775000	       376	80004404	77b4c993	xori	x19,x9,1915	  x9:0x00000001 x19=0x0000077a
        3785000	       377	80004408	00a840b3	xor	x1,x16,x10	 x16:0x80000180 x10:0x00000001  x1=0x80000181
        3795000	       378	8000440c	00200db3	add	x27,x0,x2	  x0:0x00000000  x2:0x0857e000 x27=0x0857e000
        3805000	       379	80004410	08c29a63	bne	x5,x12,800044a4	  x5:0xfc7dc000 x12:0x00000549
        3815000	       380	00000000	00000013	addi	x0,x0,0	  x0:0x00000000
        3825000	       381	800044a0	00000013	addi	x0,x0,0	  x0:0x00000000
        3835000	       382	800044a4	00650e63	beq	x10,x6,800044c0	 x10:0x00000001  x6:0x8000019c
        3845000	       383	800044a8	69ff0193	addi	x3,x30,1695	 x30:0x0857e000  x3=0x0857e69f
        3855000	       384	800044ac	00e29a63	bne	x5,x14,800044c0	  x5:0xfc7dc000 x14:0x00000000
        3865000	       385	00000000	00000013	addi	x0,x0,0	  x0:0x00000000
        3875000	       386	800044bc	00000013	addi	x0,x0,0	  x0:0x00000000
        3885000	       387	800044c0	40218f33	sub	x30,x3,x2	  x3:0x0857e69f  x2:0x0857e000 x30=0x0000069f
        3895000	       388	800044c4	00485313	srli	x6,x16,0x4	 x16:0x80000180  x6=0x08000018
        3905000	       389	800044c8	61398693	addi	x13,x19,1555	 x19:0x0000077a x13=0x00000d8d
        3915000	       390	800044cc	17197797	auipc	x15,0x17197	 x15=0x9719b4c8
        3925000	       391	800044d0	3edebc13	sltiu	x24,x29,1005	 x29:0x00000000 x24=0x00000001
        3935000	       392	800044d4	555ec713	xori	x14,x29,1365	 x29:0x00000000 x14=0x00000555
        3945000	       393	800044d8	81b1bc93	sltiu	x25,x3,-2021	  x3:0x0857e69f x25=0x00000001
        3955000	       394	800044dc	03e58463	beq	x11,x30,80004504	 x11:0x024ae000 x30:0x0000069f
        3965000	       395	800044e0	7050c313	xori	x6,x1,1797	  x1:0x80000181  x6=0x80000684
        3975000	       396	800044e4	043f9263	bne	x31,x3,80004528	 x31:0x80009f38  x3:0x0857e69f
        3985000	       397	00000000	00000013	addi	x0,x0,0	  x0:0x00000000
        3995000	       398	80004524	00000013	addi	x0,x0,0	  x0:0x00000000
        4005000	       399	80004528	03a70463	beq	x14,x26,80004550	 x14:0x00000555 x26:0x80000000
        4015000	       400	8000452c	013376b3	and	x13,x6,x19	  x6:0x80000684 x19:0x0000077a x13=0x00000600
        4025000	       401	80004530	01e1c533	xor	x10,x3,x30	  x3:0x0857e69f x30:0x0000069f x10=0x0857e000
        4035000	       402	80004534	01cd1713	slli	x14,x26,0x1c	 x26:0x80000000 x14=0x00000000
        4045000	       403	80004538	9f068813	addi	x16,x13,-1552	 x13:0x00000600 x16=0xfffffff0
        4055000	       404	8000453c	b4104697	auipc	x13,0xb4104	 x13=0x34108538
        4065000	       405	80004540	9f5fa113	slti	x2,x31,-1547	 x31:0x80009f38  x2=0x00000001
        4075000	       406	80004544	41a4d513	srai	x10,x9,0x1a	  x9:0x00000001 x10=0x00000000
        4085000	       407	80004548	12d4a593	slti	x11,x9,301	  x9:0x00000001 x11=0x00000001
        4095000	       408	8000454c	00000013	addi	x0,x0,0	  x0:0x00000000
        4105000	       409	80004550	00d7d513	srli	x10,x15,0xd	 x15:0x9719b4c8 x10=0x0004b8cd
        4115000	       410	80004554	41005833	sra	x16,x0,x16	  x0:0x00000000 x16:0xfffffff0 x16=0x00000000
        4125000	       411	80004558	00b34e63	blt	x6,x11,80004574	  x6:0x80000684 x11:0x00000001
        4135000	       412	00000000	00000013	addi	x0,x0,0	  x0:0x00000000
        4145000	       413	80004570	00000013	addi	x0,x0,0	  x0:0x00000000
        4155000	       414	80004574	41b88ab3	sub	x21,x17,x27	 x17:0x00000000 x27:0x0857e000 x21=0xf7a82000
        4165000	       415	80004578	c0cfae93	slti	x29,x31,-1012	 x31:0x80009f38 x29=0x00000001
        4175000	       416	8000457c	bfa1ce93	xori	x29,x3,-1030	  x3:0x0857e69f x29=0xf7a81d65
        4185000	       417	80004580	6d024713	xori	x14,x4,1744	  x4:0x00000001 x14=0x000006d1
        4195000	       418	80004584	41788433	sub	x8,x17,x23	 x17:0x00000000 x23:0x00000000  x8=0x00000000
        4205000	       419	80004588	05f09663	bne	x1,x31,800045d4	  x1:0x80000181 x31:0x80009f38
        4215000	       420	00000000	00000013	addi	x0,x0,0	  x0:0x00000000
        4225000	       421	800045d0	00000013	addi	x0,x0,0	  x0:0x00000000
        4235000	       422	800045d4	2236ac13	slti	x24,x13,547	 x13:0x34108538 x24=0x00000000
        4245000	       423	800045d8	0142d733	srl	x14,x5,x20	  x5:0xfc7dc000 x20:0x8000012c x14=0x000fc7dc
        4255000	       424	800045dc	21f5e713	ori	x14,x11,543	 x11:0x00000001 x14=0x0000021f
        4265000	       425	800045e0	004fa983	lw	x19,4(x31)	 x31:0x80009f38 x19=0x80003e1c PA:0x80009f3c
        4275000	       426	800045e4	40d1d413	srai	x8,x3,0xd	  x3:0x0857e69f  x8=0x000042bf
        4285000	       427	800045e8	d0e92217	auipc	x4,0xd0e92	  x4=0x50e965e4
        4295000	       428	800045ec	410bd293	srai	x5,x23,0x10	 x23:0x00000000  x5=0x00000000
        4305000	       429	800045f0	4e517513	andi	x10,x2,1253	  x2:0x00000001 x10=0x00000001
        4315000	       430	800045f4	040f8f93	addi	x31,x31,64	 x31:0x80009f38 x31=0x80009f78
        4325000	       431	800045f8	2175ac93	slti	x25,x11,535	 x11:0x00000001 x25=0x00000001
        4335000	       432	800045fc	00114533	xor	x10,x2,x1	  x2:0x00000001  x1:0x80000181 x10=0x80000180
        4345000	       433	80004600	4031da93	srai	x21,x3,0x3	  x3:0x0857e69f x21=0x010afcd3
        4355000	       434	80004604	01265e33	srl	x28,x12,x18	 x12:0x00000549 x18:0x00000000 x28=0x00000549
        4365000	       435	80004608	00198093	addi	x1,x19,1	 x19:0x80003e1c  x1=0x80003e1d
        4375000	       436	8000460c	000080e7	jalr	x1,x1,0	  x1:0x80003e1d  x1=0x8000460c
        4385000	       437	00000000	00000013	addi	x0,x0,0	  x0:0x00000000
        4395000	       438	80003e1c	00000013	addi	x0,x0,0	  x0:0x00000000
        4405000	       439	80003e20	409b51b3	sra	x3,x22,x9	 x22:0x800000b8  x9:0x00000001  x3=0xc000005c
        4415000	       440	80003e24	53544a93	xori	x21,x8,1333	  x8:0x000042bf x21=0x0000478a
        4425000	       441	80003e28	dcd7be93	sltiu	x29,x15,-563	 x15:0x9719b4c8 x29=0x00000001
        4435000	       442	80003e2c	c8424917	auipc	x18,0xc8424	 x18=0x48427e28
        4445000	       443	80003e30	0be80013	addi	x0,x16,190	 x16:0x00000000
        4455000	       444	80003e34	010374b3	and	x9,x6,x16	  x6:0x80000684 x16:0x00000000  x9=0x00000000
        4465000	       445	80003e38	4110de93	srai	x29,x1,0x11	  x1:0x8000460c x29=0xffffc000
        4475000	       446	80003e3c	72c2a993	slti	x19,x5,1836	  x5:0x00000000 x19=0x00000001
        4485000	       447	80003e40	98366913	ori	x18,x12,-1661	 x12:0x00000549 x18=0xfffffdcb
        4495000	       448	80003e44	dacfc9ef	jal	x19,80003e44	 x19=0x80003e44
        4505000	       449	00000000	00000013	addi	x0,x0,0	  x0:0x00000000
        4515000	       450	800003ec	00000013	addi	x0,x0,0	  x0:0x00000000
        4525000	       451	800003f0	2575b913	sltiu	x18,x11,599	 x11:0x00000001 x18=0x00000001
        4535000	       452	800003f4	5962c693	xori	x13,x5,1430	  x5:0x00000000 x13=0x00000596
        4545000	       453	800003f8	a8c12c17	auipc	x24,0xa8c12	 x24=0x28c123f4
        4555000	       454	800003fc	fc0f8f93	addi	x31,x31,-64	 x31:0x80009f78 x31=0x80009f38
        4565000	       455	80000400	007e5eb3	srl	x29,x28,x7	 x28:0x00000549  x7:0x80009fc4 x29=0x00000054
        4575000	       456	80000404	01c96bb3	or	x23,x18,x28	 x18:0x00000001 x28:0x00000549 x23=0x00000549
        4585000	       457	80000408	4ee4b113	sltiu	x2,x9,1262	  x9:0x00000000  x2=0x00000001
        4595000	       458	8000040c	013fa223	sw	x19,4(x31)	 x31:0x80009f38 x19:0x80003e44 PA:0x80009f3c
        4605000	       459	80000410	6313ee93	ori	x29,x7,1585	  x7:0x80009fc4 x29=0x80009ff5
        4615000	       460	80000414	014009ef	jal	x19,80000414	 x19=0x80000414
        4625000	       461	00000000	00000013	addi	x0,x0,0	  x0:0x00000000
        4635000	       462	80000424	00000013	addi	x0,x0,0	  x0:0x00000000
        4645000	       463	80000428	ff9ff5ef	jal	x11,80000428	 x11=0x80000428
        4655000	       464	00000000	00000013	addi	x0,x0,0	  x0:0x00000000
        4665000	       465	8000041c	00000013	addi	x0,x0,0	  x0:0x00000000
        4675000	       466	80000420	028000ef	jal	x1,80000420	  x1=0x80000420
        4685000	       467	00000000	00000013	addi	x0,x0,0	  x0:0x00000000
        4695000	       468	80000444	00000013	addi	x0,x0,0	  x0:0x00000000
        4705000	       469	80000448	ff5ff2ef	jal	x5,80000448	  x5=0x80000448
        4715000	       470	00000000	00000013	addi	x0,x0,0	  x0:0x00000000
        4725000	       471	80000438	00000013	addi	x0,x0,0	  x0:0x00000000
        4735000	       472	8000043c	028000ef	jal	x1,8000043c	  x1=0x8000043c
        4745000	       473	00000000	00000013	addi	x0,x0,0	  x0:0x00000000
        4755000	       474	80000460	00000013	addi	x0,x0,0	  x0:0x00000000
        4765000	       475	80000464	fd1ff6ef	jal	x13,80000464	 x13=0x80000464
        4775000	       476	00000000	00000013	addi	x0,x0,0	  x0:0x00000000
        4785000	       477	80000430	00000013	addi	x0,x0,0	  x0:0x00000000
        4795000	       478	80000434	020000ef	jal	x1,80000434	  x1=0x80000434
        4805000	       479	00000000	00000013	addi	x0,x0,0	  x0:0x00000000
        4815000	       480	80000450	00000013	addi	x0,x0,0	  x0:0x00000000
        4825000	       481	80000454	ff1ffa6f	jal	x20,80000454	 x20=0x80000454
        4835000	       482	00000000	00000013	addi	x0,x0,0	  x0:0x00000000
        4845000	       483	80000440	00000013	addi	x0,x0,0	  x0:0x00000000
        4855000	       484	80000444	fd9ffaef	jal	x21,80000444	 x21=0x80000444
        4865000	       485	00000000	00000013	addi	x0,x0,0	  x0:0x00000000
        4875000	       486	80000418	00000013	addi	x0,x0,0	  x0:0x00000000
        4885000	       487	8000041c	01c000ef	jal	x1,8000041c	  x1=0x8000041c
        4895000	       488	00000000	00000013	addi	x0,x0,0	  x0:0x00000000
        4905000	       489	80000434	00000013	addi	x0,x0,0	  x0:0x00000000
        4915000	       490	80000438	008000ef	jal	x1,80000438	  x1=0x80000438
        4925000	       491	00000000	00000013	addi	x0,x0,0	  x0:0x00000000
        4935000	       492	8000043c	00000013	addi	x0,x0,0	  x0:0x00000000
        4945000	       493	80000440	ff1ff0ef	jal	x1,80000440	  x1=0x80000440
        4955000	       494	00000000	00000013	addi	x0,x0,0	  x0:0x00000000
        4965000	       495	8000042c	00000013	addi	x0,x0,0	  x0:0x00000000
        4975000	       496	80000430	02c000ef	jal	x1,80000430	  x1=0x80000430
        4985000	       497	00000000	00000013	addi	x0,x0,0	  x0:0x00000000
        4995000	       498	80000458	00000013	addi	x0,x0,0	  x0:0x00000000
        5005000	       499	8000045c	fbdffc6f	jal	x24,8000045c	 x24=0x8000045c
        5015000	       500	00000000	00000013	addi	x0,x0,0	  x0:0x00000000
        5025000	       501	80000414	00000013	addi	x0,x0,0	  x0:0x00000000
        5035000	       502	80000418	034000ef	jal	x1,80000418	  x1=0x80000418
        5045000	       503	00000000	00000013	addi	x0,x0,0	  x0:0x00000000
        5055000	       504	80000448	00000013	addi	x0,x0,0	  x0:0x00000000
        5065000	       505	8000044c	0140036f	jal	x6,8000044c	  x6=0x8000044c
        5075000	       506	00000000	00000013	addi	x0,x0,0	  x0:0x00000000
        5085000	       507	8000045c	00000013	addi	x0,x0,0	  x0:0x00000000
        5095000	       508	80000460	fcdff16f	jal	x2,80000460	  x2=0x80000460
        5105000	       509	00000000	00000013	addi	x0,x0,0	  x0:0x00000000
        5115000	       510	80000428	00000013	addi	x0,x0,0	  x0:0x00000000
        5125000	       511	8000042c	ff9ffb6f	jal	x22,8000042c	 x22=0x8000042c
        5135000	       512	00000000	00000013	addi	x0,x0,0	  x0:0x00000000
        5145000	       513	80000420	00000013	addi	x0,x0,0	  x0:0x00000000
        5155000	       514	80000424	034000ef	jal	x1,80000424	  x1=0x80000424
        5165000	       515	00000000	00000013	addi	x0,x0,0	  x0:0x00000000
        5175000	       516	80000454	00000013	addi	x0,x0,0	  x0:0x00000000
        5185000	       517	80000458	ff9ffb6f	jal	x22,80000458	 x22=0x80000458
        5195000	       518	00000000	00000013	addi	x0,x0,0	  x0:0x00000000
        5205000	       519	8000044c	00000013	addi	x0,x0,0	  x0:0x00000000
        5215000	       520	80000450	0180016f	jal	x2,80000450	  x2=0x80000450
        5225000	       521	00000000	00000013	addi	x0,x0,0	  x0:0x00000000
        5235000	       522	80000464	00000013	addi	x0,x0,0	  x0:0x00000000
        5245000	       523	80000468	0134e733	or	x14,x9,x19	  x9:0x00000000 x19:0x80000414 x14=0x80000414
        5255000	       524	8000046c	01c009ef	jal	x19,8000046c	 x19=0x8000046c
        5265000	       525	00000000	00000013	addi	x0,x0,0	  x0:0x00000000
        5275000	       526	80000484	00000013	addi	x0,x0,0	  x0:0x00000000
        5285000	       527	80000488	fe9ff0ef	jal	x1,80000488	  x1=0x80000488
        5295000	       528	00000000	00000013	addi	x0,x0,0	  x0:0x00000000
        5305000	       529	8000046c	00000013	addi	x0,x0,0	  x0:0x00000000
        5315000	       530	80000470	0200036f	jal	x6,80000470	  x6=0x80000470
        5325000	       531	00000000	00000013	addi	x0,x0,0	  x0:0x00000000
        5335000	       532	8000048c	00000013	addi	x0,x0,0	  x0:0x00000000
        5345000	       533	80000490	ff1ff8ef	jal	x17,80000490	 x17=0x80000490
        5355000	       534	00000000	00000013	addi	x0,x0,0	  x0:0x00000000
        5365000	       535	8000047c	00000013	addi	x0,x0,0	  x0:0x00000000
        5375000	       536	80000480	ff9ff1ef	jal	x3,80000480	  x3=0x80000480
        5385000	       537	00000000	00000013	addi	x0,x0,0	  x0:0x00000000
        5395000	       538	80000474	00000013	addi	x0,x0,0	  x0:0x00000000
        5405000	       539	80000478	0040036f	jal	x6,80000478	  x6=0x80000478
        5415000	       540	00000000	00000013	addi	x0,x0,0	  x0:0x00000000
        5425000	       541	80000478	00000013	addi	x0,x0,0	  x0:0x00000000
        5435000	       542	8000047c	ff9ff0ef	jal	x1,8000047c	  x1=0x8000047c
        5445000	       543	00000000	00000013	addi	x0,x0,0	  x0:0x00000000
        5455000	       544	80000470	00000013	addi	x0,x0,0	  x0:0x00000000
        5465000	       545	80000474	0180036f	jal	x6,80000474	  x6=0x80000474
        5475000	       546	00000000	00000013	addi	x0,x0,0	  x0:0x00000000
        5485000	       547	80000488	00000013	addi	x0,x0,0	  x0:0x00000000
        5495000	       548	8000048c	018001ef	jal	x3,8000048c	  x3=0x8000048c
        5505000	       549	00000000	00000013	addi	x0,x0,0	  x0:0x00000000
        5515000	       550	800004a0	00000013	addi	x0,x0,0	  x0:0x00000000
        5525000	       551	800004a4	ff1ffcef	jal	x25,800004a4	 x25=0x800004a4
        5535000	       552	00000000	00000013	addi	x0,x0,0	  x0:0x00000000
        5545000	       553	80000490	00000013	addi	x0,x0,0	  x0:0x00000000
        5555000	       554	80000494	008000ef	jal	x1,80000494	  x1=0x80000494
        5565000	       555	00000000	00000013	addi	x0,x0,0	  x0:0x00000000
        5575000	       556	80000498	00000013	addi	x0,x0,0	  x0:0x00000000
        5585000	       557	8000049c	00c000ef	jal	x1,8000049c	  x1=0x8000049c
        5595000	       558	00000000	00000013	addi	x0,x0,0	  x0:0x00000000
        5605000	       559	800004a4	00000013	addi	x0,x0,0	  x0:0x00000000
        5615000	       560	800004a8	ff1ff0ef	jal	x1,800004a8	  x1=0x800004a8
        5625000	       561	00000000	00000013	addi	x0,x0,0	  x0:0x00000000
        5635000	       562	80000494	00000013	addi	x0,x0,0	  x0:0x00000000
        5645000	       563	80000498	fedff36f	jal	x6,80000498	  x6=0x80000498
        5655000	       564	00000000	00000013	addi	x0,x0,0	  x0:0x00000000
        5665000	       565	80000480	00000013	addi	x0,x0,0	  x0:0x00000000
        5675000	       566	80000484	01c00bef	jal	x23,80000484	 x23=0x80000484
        5685000	       567	00000000	00000013	addi	x0,x0,0	  x0:0x00000000
        5695000	       568	8000049c	00000013	addi	x0,x0,0	  x0:0x00000000
        5705000	       569	800004a0	00c000ef	jal	x1,800004a0	  x1=0x800004a0
        5715000	       570	00000000	00000013	addi	x0,x0,0	  x0:0x00000000
        5725000	       571	800004a8	00000013	addi	x0,x0,0	  x0:0x00000000
        5735000	       572	800004ac	00b69113	slli	x2,x13,0xb	 x13:0x80000464  x2=0x00232000
        5745000	       573	800004b0	01c009ef	jal	x19,800004b0	 x19=0x800004b0
        5755000	       574	00000000	00000013	addi	x0,x0,0	  x0:0x00000000
        5765000	       575	800004c8	00000013	addi	x0,x0,0	  x0:0x00000000
        5775000	       576	800004cc	00c0036f	jal	x6,800004cc	  x6=0x800004cc
        5785000	       577	00000000	00000013	addi	x0,x0,0	  x0:0x00000000
        5795000	       578	800004d4	00000013	addi	x0,x0,0	  x0:0x00000000
        5805000	       579	800004d8	ffdff16f	jal	x2,800004d8	  x2=0x800004d8
        5815000	       580	00000000	00000013	addi	x0,x0,0	  x0:0x00000000
        5825000	       581	800004d0	00000013	addi	x0,x0,0	  x0:0x00000000
        5835000	       582	800004d4	024000ef	jal	x1,800004d4	  x1=0x800004d4
        5845000	       583	00000000	00000013	addi	x0,x0,0	  x0:0x00000000
        5855000	       584	800004f4	00000013	addi	x0,x0,0	  x0:0x00000000
        5865000	       585	800004f8	fd9ff0ef	jal	x1,800004f8	  x1=0x800004f8
        5875000	       586	00000000	00000013	addi	x0,x0,0	  x0:0x00000000
        5885000	       587	800004cc	00000013	addi	x0,x0,0	  x0:0x00000000
        5895000	       588	800004d0	01c000ef	jal	x1,800004d0	  x1=0x800004d0
        5905000	       589	00000000	00000013	addi	x0,x0,0	  x0:0x00000000
        5915000	       590	800004e8	00000013	addi	x0,x0,0	  x0:0x00000000
        5925000	       591	800004ec	028000ef	jal	x1,800004ec	  x1=0x800004ec
        5935000	       592	00000000	00000013	addi	x0,x0,0	  x0:0x00000000
        5945000	       593	80000510	00000013	addi	x0,x0,0	  x0:0x00000000
        5955000	       594	80000514	fedff0ef	jal	x1,80000514	  x1=0x80000514
        5965000	       595	00000000	00000013	addi	x0,x0,0	  x0:0x00000000
        5975000	       596	800004fc	00000013	addi	x0,x0,0	  x0:0x00000000
        5985000	       597	80000500	004000ef	jal	x1,80000500	  x1=0x80000500
        5995000	       598	00000000	00000013	addi	x0,x0,0	  x0:0x00000000
        6005000	       599	80000500	00000013	addi	x0,x0,0	  x0:0x00000000
        6015000	       600	80000504	ff1ff0ef	jal	x1,80000504	  x1=0x80000504
        6025000	       601	00000000	00000013	addi	x0,x0,0	  x0:0x00000000
        6035000	       602	800004f0	00000013	addi	x0,x0,0	  x0:0x00000000
        6045000	       603	800004f4	fcdff0ef	jal	x1,800004f4	  x1=0x800004f4
        6055000	       604	00000000	00000013	addi	x0,x0,0	  x0:0x00000000
        6065000	       605	800004bc	00000013	addi	x0,x0,0	  x0:0x00000000
        6075000	       606	800004c0	ff9ff0ef	jal	x1,800004c0	  x1=0x800004c0
        6085000	       607	00000000	00000013	addi	x0,x0,0	  x0:0x00000000
        6095000	       608	800004b4	00000013	addi	x0,x0,0	  x0:0x00000000
        6105000	       609	800004b8	00c000ef	jal	x1,800004b8	  x1=0x800004b8
        6115000	       610	00000000	00000013	addi	x0,x0,0	  x0:0x00000000
        6125000	       611	800004c0	00000013	addi	x0,x0,0	  x0:0x00000000
        6135000	       612	800004c4	054000ef	jal	x1,800004c4	  x1=0x800004c4
        6145000	       613	00000000	00000013	addi	x0,x0,0	  x0:0x00000000
        6155000	       614	80000514	00000013	addi	x0,x0,0	  x0:0x00000000
        6165000	       615	80000518	f9dff36f	jal	x6,80000518	  x6=0x80000518
        6175000	       616	00000000	00000013	addi	x0,x0,0	  x0:0x00000000
        6185000	       617	800004b0	00000013	addi	x0,x0,0	  x0:0x00000000
        6195000	       618	800004b4	0280036f	jal	x6,800004b4	  x6=0x800004b4
        6205000	       619	00000000	00000013	addi	x0,x0,0	  x0:0x00000000
        6215000	       620	800004d8	00000013	addi	x0,x0,0	  x0:0x00000000
        6225000	       621	800004dc	fedff0ef	jal	x1,800004dc	  x1=0x800004dc
        6235000	       622	00000000	00000013	addi	x0,x0,0	  x0:0x00000000
        6245000	       623	800004c4	00000013	addi	x0,x0,0	  x0:0x00000000
        6255000	       624	800004c8	01800bef	jal	x23,800004c8	 x23=0x800004c8
        6265000	       625	00000000	00000013	addi	x0,x0,0	  x0:0x00000000
        6275000	       626	800004dc	00000013	addi	x0,x0,0	  x0:0x00000000
        6285000	       627	800004e0	0300036f	jal	x6,800004e0	  x6=0x800004e0
        6295000	       628	00000000	00000013	addi	x0,x0,0	  x0:0x00000000
        6305000	       629	8000050c	00000013	addi	x0,x0,0	  x0:0x00000000
        6315000	       630	80000510	fd5ff0ef	jal	x1,80000510	  x1=0x80000510
        6325000	       631	00000000	00000013	addi	x0,x0,0	  x0:0x00000000
        6335000	       632	800004e0	00000013	addi	x0,x0,0	  x0:0x00000000
        6345000	       633	800004e4	004000ef	jal	x1,800004e4	  x1=0x800004e4
        6355000	       634	00000000	00000013	addi	x0,x0,0	  x0:0x00000000
        6365000	       635	800004e4	00000013	addi	x0,x0,0	  x0:0x00000000
        6375000	       636	800004e8	fd5ff0ef	jal	x1,800004e8	  x1=0x800004e8
        6385000	       637	00000000	00000013	addi	x0,x0,0	  x0:0x00000000
        6395000	       638	800004b8	00000013	addi	x0,x0,0	  x0:0x00000000
        6405000	       639	800004bc	04c00f6f	jal	x30,800004bc	 x30=0x800004bc
        6415000	       640	00000000	00000013	addi	x0,x0,0	  x0:0x00000000
        6425000	       641	80000504	00000013	addi	x0,x0,0	  x0:0x00000000
        6435000	       642	80000508	ff5ff0ef	jal	x1,80000508	  x1=0x80000508
        6445000	       643	00000000	00000013	addi	x0,x0,0	  x0:0x00000000
        6455000	       644	800004f8	00000013	addi	x0,x0,0	  x0:0x00000000
        6465000	       645	800004fc	ff5ff0ef	jal	x1,800004fc	  x1=0x800004fc
        6475000	       646	00000000	00000013	addi	x0,x0,0	  x0:0x00000000
        6485000	       647	800004ec	00000013	addi	x0,x0,0	  x0:0x00000000
        6495000	       648	800004f0	01c000ef	jal	x1,800004f0	  x1=0x800004f0
        6505000	       649	00000000	00000013	addi	x0,x0,0	  x0:0x00000000
        6515000	       650	80000508	00000013	addi	x0,x0,0	  x0:0x00000000
        6525000	       651	8000050c	01000a6f	jal	x20,8000050c	 x20=0x8000050c
        6535000	       652	00000000	00000013	addi	x0,x0,0	  x0:0x00000000
        6545000	       653	80000518	00000013	addi	x0,x0,0	  x0:0x00000000
        6555000	       654	8000051c	1424b793	sltiu	x15,x9,322	  x9:0x00000000 x15=0x00000001
        6565000	       655	80000520	014009ef	jal	x19,80000520	 x19=0x80000520
        6575000	       656	00000000	00000013	addi	x0,x0,0	  x0:0x00000000
        6585000	       657	80000530	00000013	addi	x0,x0,0	  x0:0x00000000
        6595000	       658	80000534	0440016f	jal	x2,80000534	  x2=0x80000534
        6605000	       659	00000000	00000013	addi	x0,x0,0	  x0:0x00000000
        6615000	       660	80000574	00000013	addi	x0,x0,0	  x0:0x00000000
        6625000	       661	80000578	fddff36f	jal	x6,80000578	  x6=0x80000578
        6635000	       662	00000000	00000013	addi	x0,x0,0	  x0:0x00000000
        6645000	       663	80000550	00000013	addi	x0,x0,0	  x0:0x00000000
        6655000	       664	80000554	ffdff0ef	jal	x1,80000554	  x1=0x80000554
        6665000	       665	00000000	00000013	addi	x0,x0,0	  x0:0x00000000
        6675000	       666	8000054c	00000013	addi	x0,x0,0	  x0:0x00000000
        6685000	       667	80000550	ff5ff0ef	jal	x1,80000550	  x1=0x80000550
        6695000	       668	00000000	00000013	addi	x0,x0,0	  x0:0x00000000
        6705000	       669	80000540	00000013	addi	x0,x0,0	  x0:0x00000000
        6715000	       670	80000544	0480036f	jal	x6,80000544	  x6=0x80000544
        6725000	       671	00000000	00000013	addi	x0,x0,0	  x0:0x00000000
        6735000	       672	80000588	00000013	addi	x0,x0,0	  x0:0x00000000
        6745000	       673	8000058c	f99ff0ef	jal	x1,8000058c	  x1=0x8000058c
        6755000	       674	00000000	00000013	addi	x0,x0,0	  x0:0x00000000
        6765000	       675	80000520	00000013	addi	x0,x0,0	  x0:0x00000000
        6775000	       676	80000524	018000ef	jal	x1,80000524	  x1=0x80000524
        6785000	       677	00000000	00000013	addi	x0,x0,0	  x0:0x00000000
        6795000	       678	80000538	00000013	addi	x0,x0,0	  x0:0x00000000
        6805000	       679	8000053c	004000ef	jal	x1,8000053c	  x1=0x8000053c
        6815000	       680	00000000	00000013	addi	x0,x0,0	  x0:0x00000000
        6825000	       681	8000053c	00000013	addi	x0,x0,0	  x0:0x00000000
        6835000	       682	80000540	fedff36f	jal	x6,80000540	  x6=0x80000540
        6845000	       683	00000000	00000013	addi	x0,x0,0	  x0:0x00000000
        6855000	       684	80000528	00000013	addi	x0,x0,0	  x0:0x00000000
        6865000	       685	8000052c	050000ef	jal	x1,8000052c	  x1=0x8000052c
        6875000	       686	00000000	00000013	addi	x0,x0,0	  x0:0x00000000
        6885000	       687	80000578	00000013	addi	x0,x0,0	  x0:0x00000000
        6895000	       688	8000057c	ff5ff0ef	jal	x1,8000057c	  x1=0x8000057c
        6905000	       689	00000000	00000013	addi	x0,x0,0	  x0:0x00000000
        6915000	       690	8000056c	00000013	addi	x0,x0,0	  x0:0x00000000
        6925000	       691	80000570	0040036f	jal	x6,80000570	  x6=0x80000570
        6935000	       692	00000000	00000013	addi	x0,x0,0	  x0:0x00000000
        6945000	       693	80000570	00000013	addi	x0,x0,0	  x0:0x00000000
        6955000	       694	80000574	fedff0ef	jal	x1,80000574	  x1=0x80000574
        6965000	       695	00000000	00000013	addi	x0,x0,0	  x0:0x00000000
        6975000	       696	8000055c	00000013	addi	x0,x0,0	  x0:0x00000000
        6985000	       697	80000560	004000ef	jal	x1,80000560	  x1=0x80000560
        6995000	       698	00000000	00000013	addi	x0,x0,0	  x0:0x00000000
        7005000	       699	80000560	00000013	addi	x0,x0,0	  x0:0x00000000
        7015000	       700	80000564	fc5ffdef	jal	x27,80000564	 x27=0x80000564
        7025000	       701	00000000	00000013	addi	x0,x0,0	  x0:0x00000000
        7035000	       702	80000524	00000013	addi	x0,x0,0	  x0:0x00000000
        7045000	       703	80000528	0240086f	jal	x16,80000528	 x16=0x80000528
        7055000	       704	00000000	00000013	addi	x0,x0,0	  x0:0x00000000
        7065000	       705	80000548	00000013	addi	x0,x0,0	  x0:0x00000000
        7075000	       706	8000054c	020006ef	jal	x13,8000054c	 x13=0x8000054c
        7085000	       707	00000000	00000013	addi	x0,x0,0	  x0:0x00000000
        7095000	       708	80000568	00000013	addi	x0,x0,0	  x0:0x00000000
        7105000	       709	8000056c	ffdff0ef	jal	x1,8000056c	  x1=0x8000056c
        7115000	       710	00000000	00000013	addi	x0,x0,0	  x0:0x00000000
        7125000	       711	80000564	00000013	addi	x0,x0,0	  x0:0x00000000
        7135000	       712	80000568	ff1ff0ef	jal	x1,80000568	  x1=0x80000568
        7145000	       713	00000000	00000013	addi	x0,x0,0	  x0:0x00000000
        7155000	       714	80000554	00000013	addi	x0,x0,0	  x0:0x00000000
        7165000	       715	80000558	004000ef	jal	x1,80000558	  x1=0x80000558
        7175000	       716	00000000	00000013	addi	x0,x0,0	  x0:0x00000000
        7185000	       717	80000558	00000013	addi	x0,x0,0	  x0:0x00000000
        7195000	       718	8000055c	fddff36f	jal	x6,8000055c	  x6=0x8000055c
        7205000	       719	00000000	00000013	addi	x0,x0,0	  x0:0x00000000
        7215000	       720	80000534	00000013	addi	x0,x0,0	  x0:0x00000000
        7225000	       721	80000538	010001ef	jal	x3,80000538	  x3=0x80000538
        7235000	       722	00000000	00000013	addi	x0,x0,0	  x0:0x00000000
        7245000	       723	80000544	00000013	addi	x0,x0,0	  x0:0x00000000
        7255000	       724	80000548	fe9ff86f	jal	x16,80000548	 x16=0x80000548
        7265000	       725	00000000	00000013	addi	x0,x0,0	  x0:0x00000000
        7275000	       726	8000052c	00000013	addi	x0,x0,0	  x0:0x00000000
        7285000	       727	80000530	0540026f	jal	x4,80000530	  x4=0x80000530
        7295000	       728	00000000	00000013	addi	x0,x0,0	  x0:0x00000000
        7305000	       729	80000580	00000013	addi	x0,x0,0	  x0:0x00000000
        7315000	       730	80000584	ffdff0ef	jal	x1,80000584	  x1=0x80000584
        7325000	       731	00000000	00000013	addi	x0,x0,0	  x0:0x00000000
        7335000	       732	8000057c	00000013	addi	x0,x0,0	  x0:0x00000000
        7345000	       733	80000580	008002ef	jal	x5,80000580	  x5=0x80000580
        7355000	       734	00000000	00000013	addi	x0,x0,0	  x0:0x00000000
        7365000	       735	80000584	00000013	addi	x0,x0,0	  x0:0x00000000
        7375000	       736	80000588	008000ef	jal	x1,80000588	  x1=0x80000588
        7385000	       737	00000000	00000013	addi	x0,x0,0	  x0:0x00000000
        7395000	       738	8000058c	00000013	addi	x0,x0,0	  x0:0x00000000
        7405000	       739	80000590	41285193	srai	x3,x16,0x12	 x16:0x80000548  x3=0xffffe000
        7415000	       740	80000594	010009ef	jal	x19,80000594	 x19=0x80000594
        7425000	       741	00000000	00000013	addi	x0,x0,0	  x0:0x00000000
        7435000	       742	800005a0	00000013	addi	x0,x0,0	  x0:0x00000000
        7445000	       743	800005a4	0040036f	jal	x6,800005a4	  x6=0x800005a4
        7455000	       744	00000000	00000013	addi	x0,x0,0	  x0:0x00000000
        7465000	       745	800005a4	00000013	addi	x0,x0,0	  x0:0x00000000
        7475000	       746	800005a8	01c00aef	jal	x21,800005a8	 x21=0x800005a8
        7485000	       747	00000000	00000013	addi	x0,x0,0	  x0:0x00000000
        7495000	       748	800005c0	00000013	addi	x0,x0,0	  x0:0x00000000
        7505000	       749	800005c4	004000ef	jal	x1,800005c4	  x1=0x800005c4
        7515000	       750	00000000	00000013	addi	x0,x0,0	  x0:0x00000000
        7525000	       751	800005c4	00000013	addi	x0,x0,0	  x0:0x00000000
        7535000	       752	800005c8	fe9ff0ef	jal	x1,800005c8	  x1=0x800005c8
        7545000	       753	00000000	00000013	addi	x0,x0,0	  x0:0x00000000
        7555000	       754	800005ac	00000013	addi	x0,x0,0	  x0:0x00000000
        7565000	       755	800005b0	ff1ff0ef	jal	x1,800005b0	  x1=0x800005b0
        7575000	       756	00000000	00000013	addi	x0,x0,0	  x0:0x00000000
        7585000	       757	8000059c	00000013	addi	x0,x0,0	  x0:0x00000000
        7595000	       758	800005a0	01c000ef	jal	x1,800005a0	  x1=0x800005a0
        7605000	       759	00000000	00000013	addi	x0,x0,0	  x0:0x00000000
        7615000	       760	800005b8	00000013	addi	x0,x0,0	  x0:0x00000000
        7625000	       761	800005bc	0040036f	jal	x6,800005bc	  x6=0x800005bc
        7635000	       762	00000000	00000013	addi	x0,x0,0	  x0:0x00000000
        7645000	       763	800005bc	00000013	addi	x0,x0,0	  x0:0x00000000
        7655000	       764	800005c0	ff5ff16f	jal	x2,800005c0	  x2=0x800005c0
        7665000	       765	00000000	00000013	addi	x0,x0,0	  x0:0x00000000
        7675000	       766	800005b0	00000013	addi	x0,x0,0	  x0:0x00000000
        7685000	       767	800005b4	00400aef	jal	x21,800005b4	 x21=0x800005b4
        7695000	       768	00000000	00000013	addi	x0,x0,0	  x0:0x00000000
        7705000	       769	800005b4	00000013	addi	x0,x0,0	  x0:0x00000000
        7715000	       770	800005b8	ff5ff4ef	jal	x9,800005b8	  x9=0x800005b8
        7725000	       771	00000000	00000013	addi	x0,x0,0	  x0:0x00000000
        7735000	       772	800005a8	00000013	addi	x0,x0,0	  x0:0x00000000
        7745000	       773	800005ac	fedff26f	jal	x4,800005ac	  x4=0x800005ac
        7755000	       774	00000000	00000013	addi	x0,x0,0	  x0:0x00000000
        7765000	       775	80000594	00000013	addi	x0,x0,0	  x0:0x00000000
        7775000	       776	80000598	0040036f	jal	x6,80000598	  x6=0x80000598
        7785000	       777	00000000	00000013	addi	x0,x0,0	  x0:0x00000000
        7795000	       778	80000598	00000013	addi	x0,x0,0	  x0:0x00000000
        7805000	       779	8000059c	030005ef	jal	x11,8000059c	 x11=0x8000059c
        7815000	       780	00000000	00000013	addi	x0,x0,0	  x0:0x00000000
        7825000	       781	800005c8	00000013	addi	x0,x0,0	  x0:0x00000000
        7835000	       782	800005cc	00ed3f33	sltu	x30,x26,x14	 x26:0x80000000 x14:0x80000414 x30=0x00000001
        7845000	       783	800005d0	014009ef	jal	x19,800005d0	 x19=0x800005d0
        7855000	       784	00000000	00000013	addi	x0,x0,0	  x0:0x00000000
        7865000	       785	800005e0	00000013	addi	x0,x0,0	  x0:0x00000000
        7875000	       786	800005e4	008002ef	jal	x5,800005e4	  x5=0x800005e4
        7885000	       787	00000000	00000013	addi	x0,x0,0	  x0:0x00000000
        7895000	       788	800005e8	00000013	addi	x0,x0,0	  x0:0x00000000
        7905000	       789	800005ec	004002ef	jal	x5,800005ec	  x5=0x800005ec
        7915000	       790	00000000	00000013	addi	x0,x0,0	  x0:0x00000000
        7925000	       791	800005ec	00000013	addi	x0,x0,0	  x0:0x00000000
        7935000	       792	800005f0	fe5ffc6f	jal	x24,800005f0	 x24=0x800005f0
        7945000	       793	00000000	00000013	addi	x0,x0,0	  x0:0x00000000
        7955000	       794	800005d0	00000013	addi	x0,x0,0	  x0:0x00000000
        7965000	       795	800005d4	04c000ef	jal	x1,800005d4	  x1=0x800005d4
        7975000	       796	00000000	00000013	addi	x0,x0,0	  x0:0x00000000
        7985000	       797	8000061c	00000013	addi	x0,x0,0	  x0:0x00000000
        7995000	       798	80000620	fd9ff36f	jal	x6,80000620	  x6=0x80000620
        8005000	       799	00000000	00000013	addi	x0,x0,0	  x0:0x00000000
        8015000	       800	800005f4	00000013	addi	x0,x0,0	  x0:0x00000000
        8025000	       801	800005f8	014000ef	jal	x1,800005f8	  x1=0x800005f8
        8035000	       802	00000000	00000013	addi	x0,x0,0	  x0:0x00000000
        8045000	       803	80000608	00000013	addi	x0,x0,0	  x0:0x00000000
        8055000	       804	8000060c	fd5ff36f	jal	x6,8000060c	  x6=0x8000060c
        8065000	       805	00000000	00000013	addi	x0,x0,0	  x0:0x00000000
        8075000	       806	800005dc	00000013	addi	x0,x0,0	  x0:0x00000000
        8085000	       807	800005e0	04400bef	jal	x23,800005e0	 x23=0x800005e0
        8095000	       808	00000000	00000013	addi	x0,x0,0	  x0:0x00000000
        8105000	       809	80000620	00000013	addi	x0,x0,0	  x0:0x00000000
        8115000	       810	80000624	ff9ff0ef	jal	x1,80000624	  x1=0x80000624
        8125000	       811	00000000	00000013	addi	x0,x0,0	  x0:0x00000000
        8135000	       812	80000618	00000013	addi	x0,x0,0	  x0:0x00000000
        8145000	       813	8000061c	fc1ff36f	jal	x6,8000061c	  x6=0x8000061c
        8155000	       814	00000000	00000013	addi	x0,x0,0	  x0:0x00000000
        8165000	       815	800005d8	00000013	addi	x0,x0,0	  x0:0x00000000
        8175000	       816	800005dc	020000ef	jal	x1,800005dc	  x1=0x800005dc
        8185000	       817	00000000	00000013	addi	x0,x0,0	  x0:0x00000000
        8195000	       818	800005f8	00000013	addi	x0,x0,0	  x0:0x00000000
        8205000	       819	800005fc	02c0036f	jal	x6,800005fc	  x6=0x800005fc
        8215000	       820	00000000	00000013	addi	x0,x0,0	  x0:0x00000000
        8225000	       821	80000624	00000013	addi	x0,x0,0	  x0:0x00000000
        8235000	       822	80000628	fd9ff56f	jal	x10,80000628	 x10=0x80000628
        8245000	       823	00000000	00000013	addi	x0,x0,0	  x0:0x00000000
        8255000	       824	800005fc	00000013	addi	x0,x0,0	  x0:0x00000000
        8265000	       825	80000600	014000ef	jal	x1,80000600	  x1=0x80000600
        8275000	       826	00000000	00000013	addi	x0,x0,0	  x0:0x00000000
        8285000	       827	80000610	00000013	addi	x0,x0,0	  x0:0x00000000
        8295000	       828	80000614	fe1ff0ef	jal	x1,80000614	  x1=0x80000614
        8305000	       829	00000000	00000013	addi	x0,x0,0	  x0:0x00000000
        8315000	       830	800005f0	00000013	addi	x0,x0,0	  x0:0x00000000
        8325000	       831	800005f4	024000ef	jal	x1,800005f4	  x1=0x800005f4
        8335000	       832	00000000	00000013	addi	x0,x0,0	  x0:0x00000000
        8345000	       833	80000614	00000013	addi	x0,x0,0	  x0:0x00000000
        8355000	       834	80000618	fd1ff36f	jal	x6,80000618	  x6=0x80000618
        8365000	       835	00000000	00000013	addi	x0,x0,0	  x0:0x00000000
        8375000	       836	800005e4	00000013	addi	x0,x0,0	  x0:0x00000000
        8385000	       837	800005e8	020000ef	jal	x1,800005e8	  x1=0x800005e8
        8395000	       838	00000000	00000013	addi	x0,x0,0	  x0:0x00000000
        8405000	       839	80000604	00000013	addi	x0,x0,0	  x0:0x00000000
        8415000	       840	80000608	fd1ff36f	jal	x6,80000608	  x6=0x80000608
        8425000	       841	00000000	00000013	addi	x0,x0,0	  x0:0x00000000
        8435000	       842	800005d4	00000013	addi	x0,x0,0	  x0:0x00000000
        8445000	       843	800005d8	0380036f	jal	x6,800005d8	  x6=0x800005d8
        8455000	       844	00000000	00000013	addi	x0,x0,0	  x0:0x00000000
        8465000	       845	8000060c	00000013	addi	x0,x0,0	  x0:0x00000000
        8475000	       846	80000610	ff5ff0ef	jal	x1,80000610	  x1=0x80000610
        8485000	       847	00000000	00000013	addi	x0,x0,0	  x0:0x00000000
        8495000	       848	80000600	00000013	addi	x0,x0,0	  x0:0x00000000
        8505000	       849	80000604	028005ef	jal	x11,80000604	 x11=0x80000604
        8515000	       850	00000000	00000013	addi	x0,x0,0	  x0:0x00000000
        8525000	       851	80000628	00000013	addi	x0,x0,0	  x0:0x00000000
        8535000	       852	8000062c	46c5e013	ori	x0,x11,1132	 x11:0x80000604
        8545000	       853	80000630	038009ef	jal	x19,80000630	 x19=0x80000630
        8555000	       854	00000000	00000013	addi	x0,x0,0	  x0:0x00000000
        8565000	       855	80000664	00000013	addi	x0,x0,0	  x0:0x00000000
        8575000	       856	80000668	fe9ff0ef	jal	x1,80000668	  x1=0x80000668
        8585000	       857	00000000	00000013	addi	x0,x0,0	  x0:0x00000000
        8595000	       858	8000064c	00000013	addi	x0,x0,0	  x0:0x00000000
        8605000	       859	80000650	034000ef	jal	x1,80000650	  x1=0x80000650
        8615000	       860	00000000	00000013	addi	x0,x0,0	  x0:0x00000000
        8625000	       861	80000680	00000013	addi	x0,x0,0	  x0:0x00000000
        8635000	       862	80000684	fd1ff0ef	jal	x1,80000684	  x1=0x80000684
        8645000	       863	00000000	00000013	addi	x0,x0,0	  x0:0x00000000
        8655000	       864	80000650	00000013	addi	x0,x0,0	  x0:0x00000000
        8665000	       865	80000654	ff1ff8ef	jal	x17,80000654	 x17=0x80000654
        8675000	       866	00000000	00000013	addi	x0,x0,0	  x0:0x00000000
        8685000	       867	80000640	00000013	addi	x0,x0,0	  x0:0x00000000
        8695000	       868	80000644	03c008ef	jal	x17,80000644	 x17=0x80000644
        8705000	       869	00000000	00000013	addi	x0,x0,0	  x0:0x00000000
        8715000	       870	8000067c	00000013	addi	x0,x0,0	  x0:0x00000000
        8725000	       871	80000680	008000ef	jal	x1,80000680	  x1=0x80000680
        8735000	       872	00000000	00000013	addi	x0,x0,0	  x0:0x00000000
        8745000	       873	80000684	00000013	addi	x0,x0,0	  x0:0x00000000
        8755000	       874	80000688	fddff1ef	jal	x3,80000688	  x3=0x80000688
        8765000	       875	00000000	00000013	addi	x0,x0,0	  x0:0x00000000
        8775000	       876	80000660	00000013	addi	x0,x0,0	  x0:0x00000000
        8785000	       877	80000664	028000ef	jal	x1,80000664	  x1=0x80000664
        8795000	       878	00000000	00000013	addi	x0,x0,0	  x0:0x00000000
        8805000	       879	80000688	00000013	addi	x0,x0,0	  x0:0x00000000
        8815000	       880	8000068c	fadff0ef	jal	x1,8000068c	  x1=0x8000068c
        8825000	       881	00000000	00000013	addi	x0,x0,0	  x0:0x00000000
        8835000	       882	80000634	00000013	addi	x0,x0,0	  x0:0x00000000
        8845000	       883	80000638	010000ef	jal	x1,80000638	  x1=0x80000638
        8855000	       884	00000000	00000013	addi	x0,x0,0	  x0:0x00000000
        8865000	       885	80000644	00000013	addi	x0,x0,0	  x0:0x00000000
        8875000	       886	80000648	0140026f	jal	x4,80000648	  x4=0x80000648
        8885000	       887	00000000	00000013	addi	x0,x0,0	  x0:0x00000000
        8895000	       888	80000658	00000013	addi	x0,x0,0	  x0:0x00000000
        8905000	       889	8000065c	fe1ff0ef	jal	x1,8000065c	  x1=0x8000065c
        8915000	       890	00000000	00000013	addi	x0,x0,0	  x0:0x00000000
        8925000	       891	80000638	00000013	addi	x0,x0,0	  x0:0x00000000
        8935000	       892	8000063c	0100036f	jal	x6,8000063c	  x6=0x8000063c
        8945000	       893	00000000	00000013	addi	x0,x0,0	  x0:0x00000000
        8955000	       894	80000648	00000013	addi	x0,x0,0	  x0:0x00000000
        8965000	       895	8000064c	0500036f	jal	x6,8000064c	  x6=0x8000064c
        8975000	       896	00000000	00000013	addi	x0,x0,0	  x0:0x00000000
        8985000	       897	80000698	00000013	addi	x0,x0,0	  x0:0x00000000
        8995000	       898	8000069c	004000ef	jal	x1,8000069c	  x1=0x8000069c
        9005000	       899	00000000	00000013	addi	x0,x0,0	  x0:0x00000000
        9015000	       900	8000069c	00000013	addi	x0,x0,0	  x0:0x00000000
        9025000	       901	800006a0	fcdff0ef	jal	x1,800006a0	  x1=0x800006a0
        9035000	       902	00000000	00000013	addi	x0,x0,0	  x0:0x00000000
        9045000	       903	80000668	00000013	addi	x0,x0,0	  x0:0x00000000
        9055000	       904	8000066c	0100036f	jal	x6,8000066c	  x6=0x8000066c
        9065000	       905	00000000	00000013	addi	x0,x0,0	  x0:0x00000000
        9075000	       906	80000678	00000013	addi	x0,x0,0	  x0:0x00000000
        9085000	       907	8000067c	fc5ff86f	jal	x16,8000067c	 x16=0x8000067c
        9095000	       908	00000000	00000013	addi	x0,x0,0	  x0:0x00000000
        9105000	       909	8000063c	00000013	addi	x0,x0,0	  x0:0x00000000
        9115000	       910	80000640	ff5ff4ef	jal	x9,80000640	  x9=0x80000640
        9125000	       911	00000000	00000013	addi	x0,x0,0	  x0:0x00000000
        9135000	       912	80000630	00000013	addi	x0,x0,0	  x0:0x00000000
        9145000	       913	80000634	060000ef	jal	x1,80000634	  x1=0x80000634
        9155000	       914	00000000	00000013	addi	x0,x0,0	  x0:0x00000000
        9165000	       915	80000690	00000013	addi	x0,x0,0	  x0:0x00000000
        9175000	       916	80000694	fcdff0ef	jal	x1,80000694	  x1=0x80000694
        9185000	       917	00000000	00000013	addi	x0,x0,0	  x0:0x00000000
        9195000	       918	8000065c	00000013	addi	x0,x0,0	  x0:0x00000000
        9205000	       919	80000660	010000ef	jal	x1,80000660	  x1=0x80000660
        9215000	       920	00000000	00000013	addi	x0,x0,0	  x0:0x00000000
        9225000	       921	8000066c	00000013	addi	x0,x0,0	  x0:0x00000000
        9235000	       922	80000670	008000ef	jal	x1,80000670	  x1=0x80000670
        9245000	       923	00000000	00000013	addi	x0,x0,0	  x0:0x00000000
        9255000	       924	80000674	00000013	addi	x0,x0,0	  x0:0x00000000
        9265000	       925	80000678	01800c6f	jal	x24,80000678	 x24=0x80000678
        9275000	       926	00000000	00000013	addi	x0,x0,0	  x0:0x00000000
        9285000	       927	8000068c	00000013	addi	x0,x0,0	  x0:0x00000000
        9295000	       928	80000690	fc9ff26f	jal	x4,80000690	  x4=0x80000690
        9305000	       929	00000000	00000013	addi	x0,x0,0	  x0:0x00000000
        9315000	       930	80000654	00000013	addi	x0,x0,0	  x0:0x00000000
        9325000	       931	80000658	040000ef	jal	x1,80000658	  x1=0x80000658
        9335000	       932	00000000	00000013	addi	x0,x0,0	  x0:0x00000000
        9345000	       933	80000694	00000013	addi	x0,x0,0	  x0:0x00000000
        9355000	       934	80000698	fddff36f	jal	x6,80000698	  x6=0x80000698
        9365000	       935	00000000	00000013	addi	x0,x0,0	  x0:0x00000000
        9375000	       936	80000670	00000013	addi	x0,x0,0	  x0:0x00000000
        9385000	       937	80000674	030000ef	jal	x1,80000674	  x1=0x80000674
        9395000	       938	00000000	00000013	addi	x0,x0,0	  x0:0x00000000
        9405000	       939	800006a0	00000013	addi	x0,x0,0	  x0:0x00000000
        9415000	       940	800006a4	016c6833	or	x16,x24,x22	 x24:0x80000678 x22:0x80000458 x16=0x80000678
        9425000	       941	800006a8	024009ef	jal	x19,800006a8	 x19=0x800006a8
        9435000	       942	00000000	00000013	addi	x0,x0,0	  x0:0x00000000
        9445000	       943	800006c8	00000013	addi	x0,x0,0	  x0:0x00000000
        9455000	       944	800006cc	fe5ff0ef	jal	x1,800006cc	  x1=0x800006cc
        9465000	       945	00000000	00000013	addi	x0,x0,0	  x0:0x00000000
        9475000	       946	800006ac	00000013	addi	x0,x0,0	  x0:0x00000000
        9485000	       947	800006b0	024008ef	jal	x17,800006b0	 x17=0x800006b0
        9495000	       948	00000000	00000013	addi	x0,x0,0	  x0:0x00000000
        9505000	       949	800006d0	00000013	addi	x0,x0,0	  x0:0x00000000
        9515000	       950	800006d4	fedff1ef	jal	x3,800006d4	  x3=0x800006d4
        9525000	       951	00000000	00000013	addi	x0,x0,0	  x0:0x00000000
        9535000	       952	800006bc	00000013	addi	x0,x0,0	  x0:0x00000000
        9545000	       953	800006c0	fedff36f	jal	x6,800006c0	  x6=0x800006c0
        9555000	       954	00000000	00000013	addi	x0,x0,0	  x0:0x00000000
        9565000	       955	800006a8	00000013	addi	x0,x0,0	  x0:0x00000000
        9575000	       956	800006ac	0240036f	jal	x6,800006ac	  x6=0x800006ac
        9585000	       957	00000000	00000013	addi	x0,x0,0	  x0:0x00000000
        9595000	       958	800006cc	00000013	addi	x0,x0,0	  x0:0x00000000
        9605000	       959	800006d0	fe9ffeef	jal	x29,800006d0	 x29=0x800006d0
        9615000	       960	00000000	00000013	addi	x0,x0,0	  x0:0x00000000
        9625000	       961	800006b4	00000013	addi	x0,x0,0	  x0:0x00000000
        9635000	       962	800006b8	00c000ef	jal	x1,800006b8	  x1=0x800006b8
        9645000	       963	00000000	00000013	addi	x0,x0,0	  x0:0x00000000
        9655000	       964	800006c0	00000013	addi	x0,x0,0	  x0:0x00000000
        9665000	       965	800006c4	004001ef	jal	x3,800006c4	  x3=0x800006c4
        9675000	       966	00000000	00000013	addi	x0,x0,0	  x0:0x00000000
        9685000	       967	800006c4	00000013	addi	x0,x0,0	  x0:0x00000000
        9695000	       968	800006c8	ff5ff76f	jal	x14,800006c8	 x14=0x800006c8
        9705000	       969	00000000	00000013	addi	x0,x0,0	  x0:0x00000000
        9715000	       970	800006b8	00000013	addi	x0,x0,0	  x0:0x00000000
        9725000	       971	800006bc	ff9ff0ef	jal	x1,800006bc	  x1=0x800006bc
        9735000	       972	00000000	00000013	addi	x0,x0,0	  x0:0x00000000
        9745000	       973	800006b0	00000013	addi	x0,x0,0	  x0:0x00000000
        9755000	       974	800006b4	024004ef	jal	x9,800006b4	  x9=0x800006b4
        9765000	       975	00000000	00000013	addi	x0,x0,0	  x0:0x00000000
        9775000	       976	800006d4	00000013	addi	x0,x0,0	  x0:0x00000000
        9785000	       977	800006d8	004000ef	jal	x1,800006d8	  x1=0x800006d8
        9795000	       978	00000000	00000013	addi	x0,x0,0	  x0:0x00000000
        9805000	       979	800006d8	00000013	addi	x0,x0,0	  x0:0x00000000
        9815000	       980	800006dc	00000013	addi	x0,x0,0	  x0:0x00000000
        9825000	       981	800006e0	028009ef	jal	x19,800006e0	 x19=0x800006e0
        9835000	       982	00000000	00000013	addi	x0,x0,0	  x0:0x00000000
        9845000	       983	80000704	00000013	addi	x0,x0,0	  x0:0x00000000
        9855000	       984	80000708	018000ef	jal	x1,80000708	  x1=0x80000708
        9865000	       985	00000000	00000013	addi	x0,x0,0	  x0:0x00000000
        9875000	       986	8000071c	00000013	addi	x0,x0,0	  x0:0x00000000
        9885000	       987	80000720	fd9ff0ef	jal	x1,80000720	  x1=0x80000720
        9895000	       988	00000000	00000013	addi	x0,x0,0	  x0:0x00000000
        9905000	       989	800006f4	00000013	addi	x0,x0,0	  x0:0x00000000
        9915000	       990	800006f8	008000ef	jal	x1,800006f8	  x1=0x800006f8
        9925000	       991	00000000	00000013	addi	x0,x0,0	  x0:0x00000000
        9935000	       992	800006fc	00000013	addi	x0,x0,0	  x0:0x00000000
        9945000	       993	80000700	fedff0ef	jal	x1,80000700	  x1=0x80000700
        9955000	       994	00000000	00000013	addi	x0,x0,0	  x0:0x00000000
        9965000	       995	800006e8	00000013	addi	x0,x0,0	  x0:0x00000000
        9975000	       996	800006ec	02c000ef	jal	x1,800006ec	  x1=0x800006ec
        9985000	       997	00000000	00000013	addi	x0,x0,0	  x0:0x00000000
        9995000	       998	80000714	00000013	addi	x0,x0,0	  x0:0x00000000
       10005000	       999	80000718	fe5ff26f	jal	x4,80000718	  x4=0x80000718
       10015000	      1000	00000000	00000013	addi	x0,x0,0	  x0:0x00000000
       10025000	      1001	800006f8	00000013	addi	x0,x0,0	  x0:0x00000000
       10035000	      1002	800006fc	ff9ff36f	jal	x6,800006fc	  x6=0x800006fc
       10045000	      1003	00000000	00000013	addi	x0,x0,0	  x0:0x00000000
       10055000	      1004	800006f0	00000013	addi	x0,x0,0	  x0:0x00000000
       10065000	      1005	800006f4	01c0096f	jal	x18,800006f4	 x18=0x800006f4
       10075000	      1006	00000000	00000013	addi	x0,x0,0	  x0:0x00000000
       10085000	      1007	8000070c	00000013	addi	x0,x0,0	  x0:0x00000000
       10095000	      1008	80000710	fd9ff2ef	jal	x5,80000710	  x5=0x80000710
       10105000	      1009	00000000	00000013	addi	x0,x0,0	  x0:0x00000000
       10115000	      1010	800006e4	00000013	addi	x0,x0,0	  x0:0x00000000
       10125000	      1011	800006e8	ffdff0ef	jal	x1,800006e8	  x1=0x800006e8
       10135000	      1012	00000000	00000013	addi	x0,x0,0	  x0:0x00000000
       10145000	      1013	800006e0	00000013	addi	x0,x0,0	  x0:0x00000000
       10155000	      1014	800006e4	038000ef	jal	x1,800006e4	  x1=0x800006e4
       10165000	      1015	00000000	00000013	addi	x0,x0,0	  x0:0x00000000
       10175000	      1016	80000718	00000013	addi	x0,x0,0	  x0:0x00000000
       10185000	      1017	8000071c	ff1ff0ef	jal	x1,8000071c	  x1=0x8000071c
       10195000	      1018	00000000	00000013	addi	x0,x0,0	  x0:0x00000000
       10205000	      1019	80000708	00000013	addi	x0,x0,0	  x0:0x00000000
       10215000	      1020	8000070c	ff9ff0ef	jal	x1,8000070c	  x1=0x8000070c
       10225000	      1021	00000000	00000013	addi	x0,x0,0	  x0:0x00000000
       10235000	      1022	80000700	00000013	addi	x0,x0,0	  x0:0x00000000
       10245000	      1023	80000704	fedff0ef	jal	x1,80000704	  x1=0x80000704
       10255000	      1024	00000000	00000013	addi	x0,x0,0	  x0:0x00000000
       10265000	      1025	800006ec	00000013	addi	x0,x0,0	  x0:0x00000000
       10275000	      1026	800006f0	024000ef	jal	x1,800006f0	  x1=0x800006f0
       10285000	      1027	00000000	00000013	addi	x0,x0,0	  x0:0x00000000
       10295000	      1028	80000710	00000013	addi	x0,x0,0	  x0:0x00000000
       10305000	      1029	80000714	010000ef	jal	x1,80000714	  x1=0x80000714
       10315000	      1030	00000000	00000013	addi	x0,x0,0	  x0:0x00000000
       10325000	      1031	80000720	00000013	addi	x0,x0,0	  x0:0x00000000
       10335000	      1032	80000724	340c6c17	auipc	x24,0x340c6	 x24=0xb40c6720
       10345000	      1033	80000728	074009ef	jal	x19,80000728	 x19=0x80000728
       10355000	      1034	00000000	00000013	addi	x0,x0,0	  x0:0x00000000
       10365000	      1035	80000798	00000013	addi	x0,x0,0	  x0:0x00000000
       10375000	      1036	8000079c	fb9ffe6f	jal	x28,8000079c	 x28=0x8000079c
       10385000	      1037	00000000	00000013	addi	x0,x0,0	  x0:0x00000000
       10395000	      1038	80000750	00000013	addi	x0,x0,0	  x0:0x00000000
       10405000	      1039	80000754	03000f6f	jal	x30,80000754	 x30=0x80000754
       10415000	      1040	00000000	00000013	addi	x0,x0,0	  x0:0x00000000
       10425000	      1041	80000780	00000013	addi	x0,x0,0	  x0:0x00000000
       10435000	      1042	80000784	ff9ff76f	jal	x14,80000784	 x14=0x80000784
       10445000	      1043	00000000	00000013	addi	x0,x0,0	  x0:0x00000000
       10455000	      1044	80000778	00000013	addi	x0,x0,0	  x0:0x00000000
       10465000	      1045	8000077c	0040036f	jal	x6,8000077c	  x6=0x8000077c
       10475000	      1046	00000000	00000013	addi	x0,x0,0	  x0:0x00000000
       10485000	      1047	8000077c	00000013	addi	x0,x0,0	  x0:0x00000000
       10495000	      1048	80000780	fb1ff1ef	jal	x3,80000780	  x3=0x80000780
       10505000	      1049	00000000	00000013	addi	x0,x0,0	  x0:0x00000000
       10515000	      1050	8000072c	00000013	addi	x0,x0,0	  x0:0x00000000
       10525000	      1051	80000730	014000ef	jal	x1,80000730	  x1=0x80000730
       10535000	      1052	00000000	00000013	addi	x0,x0,0	  x0:0x00000000
       10545000	      1053	80000740	00000013	addi	x0,x0,0	  x0:0x00000000
       10555000	      1054	80000744	ffdffeef	jal	x29,80000744	 x29=0x80000744
       10565000	      1055	00000000	00000013	addi	x0,x0,0	  x0:0x00000000
       10575000	      1056	8000073c	00000013	addi	x0,x0,0	  x0:0x00000000
       10585000	      1057	80000740	ffdff0ef	jal	x1,80000740	  x1=0x80000740
       10595000	      1058	00000000	00000013	addi	x0,x0,0	  x0:0x00000000
       10605000	      1059	80000738	00000013	addi	x0,x0,0	  x0:0x00000000
       10615000	      1060	8000073c	064000ef	jal	x1,8000073c	  x1=0x8000073c
       10625000	      1061	00000000	00000013	addi	x0,x0,0	  x0:0x00000000
       10635000	      1062	8000079c	00000013	addi	x0,x0,0	  x0:0x00000000
       10645000	      1063	800007a0	fb9ff36f	jal	x6,800007a0	  x6=0x800007a0
       10655000	      1064	00000000	00000013	addi	x0,x0,0	  x0:0x00000000
       10665000	      1065	80000754	00000013	addi	x0,x0,0	  x0:0x00000000
       10675000	      1066	80000758	038000ef	jal	x1,80000758	  x1=0x80000758
       10685000	      1067	00000000	00000013	addi	x0,x0,0	  x0:0x00000000
       10695000	      1068	8000078c	00000013	addi	x0,x0,0	  x0:0x00000000
       10705000	      1069	80000790	fc1ff0ef	jal	x1,80000790	  x1=0x80000790
       10715000	      1070	00000000	00000013	addi	x0,x0,0	  x0:0x00000000
       10725000	      1071	8000074c	00000013	addi	x0,x0,0	  x0:0x00000000
       10735000	      1072	80000750	044000ef	jal	x1,80000750	  x1=0x80000750
       10745000	      1073	00000000	00000013	addi	x0,x0,0	  x0:0x00000000
       10755000	      1074	80000790	00000013	addi	x0,x0,0	  x0:0x00000000
       10765000	      1075	80000794	fc9ff0ef	jal	x1,80000794	  x1=0x80000794
       10775000	      1076	00000000	00000013	addi	x0,x0,0	  x0:0x00000000
       10785000	      1077	80000758	00000013	addi	x0,x0,0	  x0:0x00000000
       10795000	      1078	8000075c	fd9ff36f	jal	x6,8000075c	  x6=0x8000075c
       10805000	      1079	00000000	00000013	addi	x0,x0,0	  x0:0x00000000
       10815000	      1080	80000730	00000013	addi	x0,x0,0	  x0:0x00000000
       10825000	      1081	80000734	034000ef	jal	x1,80000734	  x1=0x80000734
       10835000	      1082	00000000	00000013	addi	x0,x0,0	  x0:0x00000000
       10845000	      1083	80000764	00000013	addi	x0,x0,0	  x0:0x00000000
       10855000	      1084	80000768	008000ef	jal	x1,80000768	  x1=0x80000768
       10865000	      1085	00000000	00000013	addi	x0,x0,0	  x0:0x00000000
       10875000	      1086	8000076c	00000013	addi	x0,x0,0	  x0:0x00000000
       10885000	      1087	80000770	fc9ff0ef	jal	x1,80000770	  x1=0x80000770
       10895000	      1088	00000000	00000013	addi	x0,x0,0	  x0:0x00000000
       10905000	      1089	80000734	00000013	addi	x0,x0,0	  x0:0x00000000
       10915000	      1090	80000738	010000ef	jal	x1,80000738	  x1=0x80000738
       10925000	      1091	00000000	00000013	addi	x0,x0,0	  x0:0x00000000
       10935000	      1092	80000744	00000013	addi	x0,x0,0	  x0:0x00000000
       10945000	      1093	80000748	030000ef	jal	x1,80000748	  x1=0x80000748
       10955000	      1094	00000000	00000013	addi	x0,x0,0	  x0:0x00000000
       10965000	      1095	80000774	00000013	addi	x0,x0,0	  x0:0x00000000
       10975000	      1096	80000778	ff5ff0ef	jal	x1,80000778	  x1=0x80000778
       10985000	      1097	00000000	00000013	addi	x0,x0,0	  x0:0x00000000
       10995000	      1098	80000768	00000013	addi	x0,x0,0	  x0:0x00000000
       11005000	      1099	8000076c	02c000ef	jal	x1,8000076c	  x1=0x8000076c
       11015000	      1100	00000000	00000013	addi	x0,x0,0	  x0:0x00000000
       11025000	      1101	80000794	00000013	addi	x0,x0,0	  x0:0x00000000
       11035000	      1102	80000798	fb5ff0ef	jal	x1,80000798	  x1=0x80000798
       11045000	      1103	00000000	00000013	addi	x0,x0,0	  x0:0x00000000
       11055000	      1104	80000748	00000013	addi	x0,x0,0	  x0:0x00000000
       11065000	      1105	8000074c	0400046f	jal	x8,8000074c	  x8=0x8000074c
       11075000	      1106	00000000	00000013	addi	x0,x0,0	  x0:0x00000000
       11085000	      1107	80000788	00000013	addi	x0,x0,0	  x0:0x00000000
       11095000	      1108	8000078c	ffdff36f	jal	x6,8000078c	  x6=0x8000078c
       11105000	      1109	00000000	00000013	addi	x0,x0,0	  x0:0x00000000
       11115000	      1110	80000784	00000013	addi	x0,x0,0	  x0:0x00000000
       11125000	      1111	80000788	fddffa6f	jal	x20,80000788	 x20=0x80000788
       11135000	      1112	00000000	00000013	addi	x0,x0,0	  x0:0x00000000
       11145000	      1113	80000760	00000013	addi	x0,x0,0	  x0:0x00000000
       11155000	      1114	80000764	ffdff0ef	jal	x1,80000764	  x1=0x80000764
       11165000	      1115	00000000	00000013	addi	x0,x0,0	  x0:0x00000000
       11175000	      1116	8000075c	00000013	addi	x0,x0,0	  x0:0x00000000
       11185000	      1117	80000760	fcdff0ef	jal	x1,80000760	  x1=0x80000760
       11195000	      1118	00000000	00000013	addi	x0,x0,0	  x0:0x00000000
       11205000	      1119	80000728	00000013	addi	x0,x0,0	  x0:0x00000000
       11215000	      1120	8000072c	0480036f	jal	x6,8000072c	  x6=0x8000072c
       11225000	      1121	00000000	00000013	addi	x0,x0,0	  x0:0x00000000
       11235000	      1122	80000770	00000013	addi	x0,x0,0	  x0:0x00000000
       11245000	      1123	80000774	0300016f	jal	x2,80000774	  x2=0x80000774
       11255000	      1124	00000000	00000013	addi	x0,x0,0	  x0:0x00000000
       11265000	      1125	800007a0	00000013	addi	x0,x0,0	  x0:0x00000000
       11275000	      1126	800007a4	00cd6233	or	x4,x26,x12	 x26:0x80000000 x12:0x00000549  x4=0x80000549
       11285000	      1127	800007a8	416ade13	srai	x28,x21,0x16	 x21:0x800005b4 x28=0xfffffe00
       11295000	      1128	800007ac	02880663	beq	x16,x8,800007d8	 x16:0x80000678  x8:0x8000074c
       11305000	      1129	800007b0	0159f833	and	x16,x19,x21	 x19:0x80000728 x21:0x800005b4 x16=0x80000520
       11315000	      1130	800007b4	4055d1b3	sra	x3,x11,x5	 x11:0x80000604  x5:0x80000710  x3=0xffff8000
       11325000	      1131	800007b8	40558db3	sub	x27,x11,x5	 x11:0x80000604  x5:0x80000710 x27=0xfffffef4
       11335000	      1132	800007bc	013a8733	add	x14,x21,x19	 x21:0x800005b4 x19:0x80000728 x14=0x00000cdc
       11345000	      1133	800007c0	044bf663	bgeu	x23,x4,8000080c	 x23:0x800005e0  x4:0x80000549
       11355000	      1134	00000000	00000013	addi	x0,x0,0	  x0:0x00000000
       11365000	      1135	80000808	00000013	addi	x0,x0,0	  x0:0x00000000
       11375000	      1136	8000080c	d62e2593	slti	x11,x28,-670	 x28:0xfffffe00 x11=0x00000000
       11385000	      1137	80000810	401d8533	sub	x10,x27,x1	 x27:0xfffffef4  x1:0x80000760 x10=0x7ffff794
       11395000	      1138	80000814	4052d033	sra	x0,x5,x5	  x5:0x80000710  x5:0x80000710
       11405000	      1139	80000818	019fd863	bge	x31,x25,80000828	 x31:0x80009f38 x25:0x800004a4
       11415000	      1140	00000000	00000013	addi	x0,x0,0	  x0:0x00000000
       11425000	      1141	80000824	00000013	addi	x0,x0,0	  x0:0x00000000
       11435000	      1142	80000828	f8175a97	auipc	x21,0xf8175	 x21=0x78175824
       11445000	      1143	8000082c	402ddb93	srai	x23,x27,0x2	 x27:0xfffffef4 x23=0xffffffbd
       11455000	      1144	80000830	696f7893	andi	x17,x30,1686	 x30:0x80000754 x17=0x00000614
       11465000	      1145	80000834	8a1a35b7	lui	x11,0x8a1a3	 x11=0x8a1a3000
       11475000	      1146	80000838	b5b3b293	sltiu	x5,x7,-1189	  x7:0x80009fc4  x5=0x00000001
       11485000	      1147	8000083c	00708c63	beq	x1,x7,80000854	  x1:0x80000760  x7:0x80009fc4
       11495000	      1148	80000840	09ce7263	bgeu	x28,x28,800008c4	 x28:0xfffffe00 x28:0xfffffe00
       11505000	      1149	00000000	00000013	addi	x0,x0,0	  x0:0x00000000
       11515000	      1150	800008c0	00000013	addi	x0,x0,0	  x0:0x00000000
       11525000	      1151	800008c4	01fb5e13	srli	x28,x22,0x1f	 x22:0x80000458 x28=0x00000001
       11535000	      1152	800008c8	055df663	bgeu	x27,x21,80000914	 x27:0xfffffef4 x21:0x78175824
       11545000	      1153	00000000	00000013	addi	x0,x0,0	  x0:0x00000000
       11555000	      1154	80000910	00000013	addi	x0,x0,0	  x0:0x00000000
       11565000	      1155	80000914	00324c33	xor	x24,x4,x3	  x4:0x80000549  x3:0xffff8000 x24=0x7fff8549
       11575000	      1156	80000918	41655633	sra	x12,x10,x22	 x10:0x7ffff794 x22:0x80000458 x12=0x0000007f
       11585000	      1157	8000091c	e099c993	xori	x19,x19,-503	 x19:0x80000728 x19=0x7ffff921
       11595000	      1158	80000920	0076cf33	xor	x30,x13,x7	 x13:0x8000054c  x7:0x80009fc4 x30=0x00009a88
       11605000	      1159	80000924	5382f213	andi	x4,x5,1336	  x5:0x00000001  x4=0x00000000
       11615000	      1160	80000928	00151d93	slli	x27,x10,0x1	 x10:0x7ffff794 x27=0xffffef28
       11625000	      1161	8000092c	00b167b3	or	x15,x2,x11	  x2:0x80000774 x11:0x8a1a3000 x15=0x8a1a3774
       11635000	      1162	80000930	016c48b3	xor	x17,x24,x22	 x24:0x7fff8549 x22:0x80000458 x17=0xffff8111
       11645000	      1163	80000934	004a42b3	xor	x5,x20,x4	 x20:0x80000788  x4:0x00000000  x5=0x80000788
       11655000	      1164	80000938	04a96013	ori	x0,x18,74	 x18:0x800006f4
       11665000	      1165	8000093c	1ec00093	addi	x1,x0,492	  x0:0x00000000  x1=0x000001ec
       11675000	      1166	80000940	00f71433	sll	x8,x14,x15	 x14:0x00000cdc x15:0x8a1a3774  x8=0xcdc00000
       11685000	      1167	80000944	8f6be337	lui	x6,0x8f6be	  x6=0x8f6be000
       11695000	      1168	80000948	014038b3	sltu	x17,x0,x20	  x0:0x00000000 x20:0x80000788 x17=0x00000001
       11705000	      1169	8000094c	004009ef	jal	x19,8000094c	 x19=0x8000094c
       11715000	      1170	00000000	00000013	addi	x0,x0,0	  x0:0x00000000
       11725000	      1171	8000094c	00000013	addi	x0,x0,0	  x0:0x00000000
       11735000	      1172	80000950	004000ef	jal	x1,80000950	  x1=0x80000950
       11745000	      1173	00000000	00000013	addi	x0,x0,0	  x0:0x00000000
       11755000	      1174	80000950	00000013	addi	x0,x0,0	  x0:0x00000000
       11765000	      1175	80000954	0140076f	jal	x14,80000954	 x14=0x80000954
       11775000	      1176	00000000	00000013	addi	x0,x0,0	  x0:0x00000000
       11785000	      1177	80000964	00000013	addi	x0,x0,0	  x0:0x00000000
       11795000	      1178	80000968	ff1ff36f	jal	x6,80000968	  x6=0x80000968
       11805000	      1179	00000000	00000013	addi	x0,x0,0	  x0:0x00000000
       11815000	      1180	80000954	00000013	addi	x0,x0,0	  x0:0x00000000
       11825000	      1181	80000958	008000ef	jal	x1,80000958	  x1=0x80000958
       11835000	      1182	00000000	00000013	addi	x0,x0,0	  x0:0x00000000
       11845000	      1183	8000095c	00000013	addi	x0,x0,0	  x0:0x00000000
       11855000	      1184	80000960	004000ef	jal	x1,80000960	  x1=0x80000960
       11865000	      1185	00000000	00000013	addi	x0,x0,0	  x0:0x00000000
       11875000	      1186	80000960	00000013	addi	x0,x0,0	  x0:0x00000000
       11885000	      1187	80000964	ff9ff36f	jal	x6,80000964	  x6=0x80000964
       11895000	      1188	00000000	00000013	addi	x0,x0,0	  x0:0x00000000
       11905000	      1189	80000958	00000013	addi	x0,x0,0	  x0:0x00000000
       11915000	      1190	8000095c	010000ef	jal	x1,8000095c	  x1=0x8000095c
       11925000	      1191	00000000	00000013	addi	x0,x0,0	  x0:0x00000000
       11935000	      1192	80000968	00000013	addi	x0,x0,0	  x0:0x00000000
       11945000	      1193	8000096c	0040016f	jal	x2,8000096c	  x2=0x8000096c
       11955000	      1194	00000000	00000013	addi	x0,x0,0	  x0:0x00000000
       11965000	      1195	8000096c	00000013	addi	x0,x0,0	  x0:0x00000000
       11975000	      1196	80000970	004000ef	jal	x1,80000970	  x1=0x80000970
       11985000	      1197	00000000	00000013	addi	x0,x0,0	  x0:0x00000000
       11995000	      1198	80000970	00000013	addi	x0,x0,0	  x0:0x00000000
       12005000	      1199	80000974	008001ef	jal	x3,80000974	  x3=0x80000974
       12015000	      1200	00000000	00000013	addi	x0,x0,0	  x0:0x00000000
       12025000	      1201	80000978	00000013	addi	x0,x0,0	  x0:0x00000000
       12035000	      1202	8000097c	ffdff36f	jal	x6,8000097c	  x6=0x8000097c
       12045000	      1203	00000000	00000013	addi	x0,x0,0	  x0:0x00000000
       12055000	      1204	80000974	00000013	addi	x0,x0,0	  x0:0x00000000
       12065000	      1205	80000978	00800f6f	jal	x30,80000978	 x30=0x80000978
       12075000	      1206	00000000	00000013	addi	x0,x0,0	  x0:0x00000000
       12085000	      1207	8000097c	00000013	addi	x0,x0,0	  x0:0x00000000
       12095000	      1208	80000980	01f999b3	sll	x19,x19,x31	 x19:0x8000094c x31:0x80009f38 x19=0x4c000000
       12105000	      1209	80000984	00fe1593	slli	x11,x28,0xf	 x28:0x00000001 x11=0x00008000
       12115000	      1210	80000988	40895613	srai	x12,x18,0x8	 x18:0x800006f4 x12=0xff800006
       12125000	      1211	8000098c	01d2d493	srli	x9,x5,0x1d	  x5:0x80000788  x9=0x00000004
       12135000	      1212	80000990	00000013	addi	x0,x0,0	  x0:0x00000000
       12145000	      1213	80000994	01471813	slli	x16,x14,0x14	 x14:0x80000954 x16=0x95400000
       12155000	      1214	80000998	051b5263	bge	x22,x17,800009dc	 x22:0x80000458 x17:0x00000001
       12165000	      1215	8000099c	04af5663	bge	x30,x10,800009e8	 x30:0x80000978 x10:0x7ffff794
       12175000	      1216	800009a0	79596997	auipc	x19,0x79596	 x19=0xf959699c
       12185000	      1217	800009a4	025de263	bltu	x27,x5,800009c8	 x27:0xffffef28  x5:0x80000788
       12195000	      1218	800009a8	cefbeb17	auipc	x22,0xcefbe	 x22=0x4efbe9a4
       12205000	      1219	800009ac	f00a8693	addi	x13,x21,-256	 x21:0x78175824 x13=0x78175724
       12215000	      1220	800009b0	00ef1513	slli	x10,x30,0xe	 x30:0x80000978 x10=0x025e0000
       12225000	      1221	800009b4	00000013	addi	x0,x0,0	  x0:0x00000000
       12235000	      1222	800009b8	0189a733	slt	x14,x19,x24	 x19:0xf959699c x24:0x7fff8549 x14=0x00000001
       12245000	      1223	800009bc	045d5463	bge	x26,x5,80000a04	 x26:0x80000000  x5:0x80000788
       12255000	      1224	800009c0	00df37b3	sltu	x15,x30,x13	 x30:0x80000978 x13:0x78175724 x15=0x00000000
       12265000	      1225	800009c4	05604663	blt	x0,x22,80000a10	  x0:0x00000000 x22:0x4efbe9a4
       12275000	      1226	00000000	00000013	addi	x0,x0,0	  x0:0x00000000
       12285000	      1227	80000a0c	00000013	addi	x0,x0,0	  x0:0x00000000
       12295000	      1228	80000a10	00000013	addi	x0,x0,0	  x0:0x00000000
       12305000	      1229	80000a14	05840663	beq	x8,x24,80000a60	  x8:0xcdc00000 x24:0x7fff8549
       12315000	      1230	80000a18	017f1933	sll	x18,x30,x23	 x30:0x80000978 x23:0xffffffbd x18=0x00000000
       12325000	      1231	80000a1c	03abc463	blt	x23,x26,80000a44	 x23:0xffffffbd x26:0x80000000
       12335000	      1232	80000a20	cd3f8793	addi	x15,x31,-813	 x31:0x80009f38 x15=0x80009c0b
       12345000	      1233	80000a24	003c2a33	slt	x20,x24,x3	 x24:0x7fff8549  x3:0x80000974 x20=0x00000000
       12355000	      1234	80000a28	dea8fc93	andi	x25,x17,-534	 x17:0x00000001 x25=0x00000000
       12365000	      1235	80000a2c	0219ea63	bltu	x19,x1,80000a60	 x19:0xf959699c  x1:0x80000970
       12375000	      1236	80000a30	00a79813	slli	x16,x15,0xa	 x15:0x80009c0b x16=0x02702c00
       12385000	      1237	80000a34	00000013	addi	x0,x0,0	  x0:0x00000000
       12395000	      1238	80000a38	40fb56b3	sra	x13,x22,x15	 x22:0x4efbe9a4 x15:0x80009c0b x13=0x0009df7d
       12405000	      1239	80000a3c	419dd0b3	sra	x1,x27,x25	 x27:0xffffef28 x25:0x00000000  x1=0xffffef28
       12415000	      1240	80000a40	0179d233	srl	x4,x19,x23	 x19:0xf959699c x23:0xffffffbd  x4=0x00000007
       12425000	      1241	80000a44	4108d513	srai	x10,x17,0x10	 x17:0x00000001 x10=0x00000000
       12435000	      1242	80000a48	000279b3	and	x19,x4,x0	  x4:0x00000007  x0:0x00000000 x19=0x00000000
       12445000	      1243	80000a4c	e3391337	lui	x6,0xe3391	  x6=0xe3391000
       12455000	      1244	80000a50	055b7663	bgeu	x22,x21,80000a9c	 x22:0x4efbe9a4 x21:0x78175824
       12465000	      1245	80000a54	014694b3	sll	x9,x13,x20	 x13:0x0009df7d x20:0x00000000  x9=0x0009df7d
       12475000	      1246	80000a58	00301c13	slli	x24,x0,0x3	  x0:0x00000000 x24=0x00000000
       12485000	      1247	80000a5c	26cf4613	xori	x12,x30,620	 x30:0x80000978 x12=0x80000b14
       12495000	      1248	80000a60	018e5733	srl	x14,x28,x24	 x28:0x00000001 x24:0x00000000 x14=0x00000001
       12505000	      1249	80000a64	00c87333	and	x6,x16,x12	 x16:0x02702c00 x12:0x80000b14  x6=0x00000800
       12515000	      1250	80000a68	01cd1663	bne	x26,x28,80000a74	 x26:0x80000000 x28:0x00000001
       12525000	      1251	00000000	00000013	addi	x0,x0,0	  x0:0x00000000
       12535000	      1252	80000a70	00000013	addi	x0,x0,0	  x0:0x00000000
       12545000	      1253	80000a74	02214063	blt	x2,x2,80000a94	  x2:0x8000096c  x2:0x8000096c
       12555000	      1254	80000a78	035d0463	beq	x26,x21,80000aa0	 x26:0x80000000 x21:0x78175824
       12565000	      1255	80000a7c	b5552837	lui	x16,0xb5552	 x16=0xb5552000
       12575000	      1256	80000a80	0025ec63	bltu	x11,x2,80000a98	 x11:0x00008000  x2:0x8000096c
       12585000	      1257	00000000	00000013	addi	x0,x0,0	  x0:0x00000000
       12595000	      1258	80000a94	00000013	addi	x0,x0,0	  x0:0x00000000
       12605000	      1259	80000a98	54853893	sltiu	x17,x10,1352	 x10:0x00000000 x17=0x00000001
       12615000	      1260	80000a9c	00d577b3	and	x15,x10,x13	 x10:0x00000000 x13:0x0009df7d x15=0x00000000
       12625000	      1261	80000aa0	41b70533	sub	x10,x14,x27	 x14:0x00000001 x27:0xffffef28 x10=0x000010d9
       12635000	      1262	80000aa4	41e65433	sra	x8,x12,x30	 x12:0x80000b14 x30:0x80000978  x8=0xffffff80
       12645000	      1263	80000aa8	039fd663	bge	x31,x25,80000ad4	 x31:0x80009f38 x25:0x00000000
       12655000	      1264	80000aac	003f2333	slt	x6,x30,x3	 x30:0x80000978  x3:0x80000974  x6=0x00000000
       12665000	      1265	80000ab0	0014db93	srli	x23,x9,0x1	  x9:0x0009df7d x23=0x0004efbe
       12675000	      1266	80000ab4	00000013	addi	x0,x0,0	  x0:0x00000000
       12685000	      1267	80000ab8	40ae8633	sub	x12,x29,x10	 x29:0x80000744 x10:0x000010d9 x12=0x7ffff66b
       12695000	      1268	80000abc	07cc3b97	auipc	x23,0x7cc3	 x23=0x87cc3ab8
       12705000	      1269	80000ac0	00276663	bltu	x14,x2,80000acc	 x14:0x00000001  x2:0x8000096c
       12715000	      1270	00000000	00000013	addi	x0,x0,0	  x0:0x00000000
       12725000	      1271	80000ac8	00000013	addi	x0,x0,0	  x0:0x00000000
       12735000	      1272	80000acc	412c5313	srai	x6,x24,0x12	 x24:0x00000000  x6=0x00000000
       12745000	      1273	80000ad0	01fb1f13	slli	x30,x22,0x1f	 x22:0x4efbe9a4 x30=0x00000000
       12755000	      1274	80000ad4	05e05663	bge	x0,x30,80000b20	  x0:0x00000000 x30:0x00000000
       12765000	      1275	00000000	00000013	addi	x0,x0,0	  x0:0x00000000
       12775000	      1276	80000b1c	00000013	addi	x0,x0,0	  x0:0x00000000
       12785000	      1277	80000b20	034e7863	bgeu	x28,x20,80000b50	 x28:0x00000001 x20:0x00000000
       12795000	      1278	00000000	00000013	addi	x0,x0,0	  x0:0x00000000
       12805000	      1279	80000b4c	00000013	addi	x0,x0,0	  x0:0x00000000
       12815000	      1280	80000b50	5e666213	ori	x4,x12,1510	 x12:0x7ffff66b  x4=0x7ffff7ef
       12825000	      1281	80000b54	41395633	sra	x12,x18,x19	 x18:0x00000000 x19:0x00000000 x12=0x00000000
       12835000	      1282	80000b58	000cc9b3	xor	x19,x25,x0	 x25:0x00000000  x0:0x00000000 x19=0x00000000
       12845000	      1283	80000b5c	00020033	add	x0,x4,x0	  x4:0x7ffff7ef  x0:0x00000000
       12855000	      1284	80000b60	41c6c197	auipc	x3,0x41c6c	  x3=0xc1c6cb5c
       12865000	      1285	80000b64	00c29993	slli	x19,x5,0xc	  x5:0x80000788 x19=0x00788000
       12875000	      1286	80000b68	01438ab3	add	x21,x7,x20	  x7:0x80009fc4 x20:0x00000000 x21=0x80009fc4
       12885000	      1287	80000b6c	00ebcf33	xor	x30,x23,x14	 x23:0x87cc3ab8 x14:0x00000001 x30=0x87cc3ab9
       12895000	      1288	80000b70	ab730c13	addi	x24,x6,-1353	  x6:0x00000000 x24=0xfffffab7
       12905000	      1289	80000b74	00000013	addi	x0,x0,0	  x0:0x00000000
       12915000	      1290	80000b78	0101fa63	bgeu	x3,x16,80000b8c	  x3:0xc1c6cb5c x16:0xb5552000
       12925000	      1291	00000000	00000013	addi	x0,x0,0	  x0:0x00000000
       12935000	      1292	80000b88	00000013	addi	x0,x0,0	  x0:0x00000000
       12945000	      1293	80000b8c	003bec33	or	x24,x23,x3	 x23:0x87cc3ab8  x3:0xc1c6cb5c x24=0xc7cefbfc
       12955000	      1294	80000b90	4eb9cb13	xori	x22,x19,1259	 x19:0x00788000 x22=0x007884eb
       12965000	      1295	80000b94	05cad663	bge	x21,x28,80000be0	 x21:0x80009fc4 x28:0x00000001
       12975000	      1296	80000b98	01d75d93	srli	x27,x14,0x1d	 x14:0x00000001 x27=0x00000000
       12985000	      1297	80000b9c	00000013	addi	x0,x0,0	  x0:0x00000000
       12995000	      1298	80000ba0	016db133	sltu	x2,x27,x22	 x27:0x00000000 x22:0x007884eb  x2=0x00000001
       13005000	      1299	80000ba4	41b48833	sub	x16,x9,x27	  x9:0x0009df7d x27:0x00000000 x16=0x0009df7d
       13015000	      1300	80000ba8	415e81b3	sub	x3,x29,x21	 x29:0x80000744 x21:0x80009fc4  x3=0xffff6780
       13025000	      1301	80000bac	047c5663	bge	x24,x7,80000bf8	 x24:0xc7cefbfc  x7:0x80009fc4
       13035000	      1302	00000000	00000013	addi	x0,x0,0	  x0:0x00000000
       13045000	      1303	80000bf4	00000013	addi	x0,x0,0	  x0:0x00000000
       13055000	      1304	80000bf8	416f5eb3	sra	x29,x30,x22	 x30:0x87cc3ab9 x22:0x007884eb x29=0xfff0f987
       13065000	      1305	80000bfc	41e301b3	sub	x3,x6,x30	  x6:0x00000000 x30:0x87cc3ab9  x3=0x7833c547
       13075000	      1306	80000c00	00107863	bgeu	x0,x1,80000c10	  x0:0x00000000  x1:0xffffef28
       13085000	      1307	80000c04	03945a63	bge	x8,x25,80000c38	  x8:0xffffff80 x25:0x00000000
       13095000	      1308	80000c08	019197b3	sll	x15,x3,x25	  x3:0x7833c547 x25:0x00000000 x15=0x7833c547
       13105000	      1309	80000c0c	74fea613	slti	x12,x29,1871	 x29:0xfff0f987 x12=0x00000001
       13115000	      1310	80000c10	69c2a637	lui	x12,0x69c2a	 x12=0x69c2a000
       13125000	      1311	80000c14	0199c863	blt	x19,x25,80000c24	 x19:0x00788000 x25:0x00000000
       13135000	      1312	80000c18	02de0263	beq	x28,x13,80000c3c	 x28:0x00000001 x13:0x0009df7d
       13145000	      1313	80000c1c	00d592b3	sll	x5,x11,x13	 x11:0x00008000 x13:0x0009df7d  x5=0x00000000
       13155000	      1314	80000c20	40bc8033	sub	x0,x25,x11	 x25:0x00000000 x11:0x00008000
       13165000	      1315	80000c24	04560663	beq	x12,x5,80000c70	 x12:0x69c2a000  x5:0x00000000
       13175000	      1316	80000c28	007f5c93	srli	x25,x30,0x7	 x30:0x87cc3ab9 x25=0x010f9875
       13185000	      1317	80000c2c	02c46063	bltu	x8,x12,80000c4c	  x8:0xffffff80 x12:0x69c2a000
       13195000	      1318	80000c30	ccb73f17	auipc	x30,0xccb73	 x30=0x4cb73c2c
       13205000	      1319	80000c34	00000013	addi	x0,x0,0	  x0:0x00000000
       13215000	      1320	80000c38	40de8a33	sub	x20,x29,x13	 x29:0xfff0f987 x13:0x0009df7d x20=0xffe71a0a
       13225000	      1321	80000c3c	017a1593	slli	x11,x20,0x17	 x20:0xffe71a0a x11=0x05000000
       13235000	      1322	80000c40	05a47263	bgeu	x8,x26,80000c84	  x8:0xffffff80 x26:0x80000000
       13245000	      1323	00000000	00000013	addi	x0,x0,0	  x0:0x00000000
       13255000	      1324	80000c80	00000013	addi	x0,x0,0	  x0:0x00000000
       13265000	      1325	80000c84	003e71b3	and	x3,x28,x3	 x28:0x00000001  x3:0x7833c547  x3=0x00000001
       13275000	      1326	80000c88	05c69863	bne	x13,x28,80000cd8	 x13:0x0009df7d x28:0x00000001
       13285000	      1327	00000000	00000013	addi	x0,x0,0	  x0:0x00000000
       13295000	      1328	80000cd4	00000013	addi	x0,x0,0	  x0:0x00000000
       13305000	      1329	80000cd8	407a5033	sra	x0,x20,x7	 x20:0xffe71a0a  x7:0x80009fc4
       13315000	      1330	80000cdc	f6a25c37	lui	x24,0xf6a25	 x24=0xf6a25000
       13325000	      1331	80000ce0	562b7d93	andi	x27,x22,1378	 x22:0x007884eb x27=0x00000462
       13335000	      1332	80000ce4	e046b293	sltiu	x5,x13,-508	 x13:0x0009df7d  x5=0x00000001
       13345000	      1333	80000ce8	0167b933	sltu	x18,x15,x22	 x15:0x7833c547 x22:0x007884eb x18=0x00000000
       13355000	      1334	80000cec	03b4ea63	bltu	x9,x27,80000d20	  x9:0x0009df7d x27:0x00000462
       13365000	      1335	80000cf0	0151ac33	slt	x24,x3,x21	  x3:0x00000001 x21:0x80009fc4 x24=0x00000000
       13375000	      1336	80000cf4	fbcf6f37	lui	x30,0xfbcf6	 x30=0xfbcf6000
       13385000	      1337	80000cf8	0049d733	srl	x14,x19,x4	 x19:0x00788000  x4:0x7ffff7ef x14=0x000000f1
       13395000	      1338	80000cfc	00c9fdb3	and	x27,x19,x12	 x19:0x00788000 x12:0x69c2a000 x27=0x00408000
       13405000	      1339	80000d00	e018a597	auipc	x11,0xe018a	 x11=0x6018acfc
       13415000	      1340	80000d04	00255233	srl	x4,x10,x2	 x10:0x000010d9  x2:0x00000001  x4=0x0000086c
       13425000	      1341	80000d08	369b2f37	lui	x30,0x369b2	 x30=0x369b2000
       13435000	      1342	80000d0c	00000013	addi	x0,x0,0	  x0:0x00000000
       13445000	      1343	80000d10	694fc493	xori	x9,x31,1684	 x31:0x80009f38  x9=0x800099ac
       13455000	      1344	80000d14	41aa5893	srai	x17,x20,0x1a	 x20:0xffe71a0a x17=0xffffffff
       13465000	      1345	80000d18	01ba8b33	add	x22,x21,x27	 x21:0x80009fc4 x27:0x00408000 x22=0x80411fc4
       13475000	      1346	80000d1c	857a0613	addi	x12,x20,-1961	 x20:0xffe71a0a x12=0xffe71261
       13485000	      1347	80000d20	7ff7f213	andi	x4,x15,2047	 x15:0x7833c547  x4=0x00000547
       13495000	      1348	80000d24	00eed5b3	srl	x11,x29,x14	 x29:0xfff0f987 x14:0x000000f1 x11=0x00007ff8
       13505000	      1349	80000d28	400bdab3	sra	x21,x23,x0	 x23:0x87cc3ab8  x0:0x00000000 x21=0x87cc3ab8
       13515000	      1350	80000d2c	00b2cc63	blt	x5,x11,80000d44	  x5:0x00000001 x11:0x00007ff8
       13525000	      1351	00000000	00000013	addi	x0,x0,0	  x0:0x00000000
       13535000	      1352	80000d40	00000013	addi	x0,x0,0	  x0:0x00000000
       13545000	      1353	80000d44	02cf6137	lui	x2,0x2cf6	  x2=0x02cf6000
       13555000	      1354	80000d48	00af37b3	sltu	x15,x30,x10	 x30:0x369b2000 x10:0x000010d9 x15=0x00000000
       13565000	      1355	80000d4c	f31f0c13	addi	x24,x30,-207	 x30:0x369b2000 x24=0x369b1f31
       13575000	      1356	80000d50	055e8663	beq	x29,x21,80000d9c	 x29:0xfff0f987 x21:0x87cc3ab8
       13585000	      1357	80000d54	01411813	slli	x16,x2,0x14	  x2:0x02cf6000 x16=0x00000000
       13595000	      1358	80000d58	2fb2b637	lui	x12,0x2fb2b	 x12=0x2fb2b000
       13605000	      1359	80000d5c	0a5afc63	bgeu	x21,x5,80000e14	 x21:0x87cc3ab8  x5:0x00000001
       13615000	      1360	00000000	00000013	addi	x0,x0,0	  x0:0x00000000
       13625000	      1361	80000e10	00000013	addi	x0,x0,0	  x0:0x00000000
       13635000	      1362	80000e14	12f94c13	xori	x24,x18,303	 x18:0x00000000 x24=0x0000012f
       13645000	      1363	80000e18	409e8533	sub	x10,x29,x9	 x29:0xfff0f987  x9:0x800099ac x10=0x7ff05fdb
       13655000	      1364	80000e1c	40675113	srai	x2,x14,0x6	 x14:0x000000f1  x2=0x00000003
       13665000	      1365	80000e20	4d2639b7	lui	x19,0x4d263	 x19=0x4d263000
       13675000	      1366	80000e24	047be663	bltu	x23,x7,80000e70	 x23:0x87cc3ab8  x7:0x80009fc4
       13685000	      1367	80000e28	00122a33	slt	x20,x4,x1	  x4:0x00000547  x1:0xffffef28 x20=0x00000000
       13695000	      1368	80000e2c	05cd9663	bne	x27,x28,80000e78	 x27:0x00408000 x28:0x00000001
       13705000	      1369	00000000	00000013	addi	x0,x0,0	  x0:0x00000000
       13715000	      1370	80000e74	00000013	addi	x0,x0,0	  x0:0x00000000
       13725000	      1371	80000e78	02868463	beq	x13,x8,80000ea0	 x13:0x0009df7d  x8:0xffffff80
       13735000	      1372	80000e7c	00000013	addi	x0,x0,0	  x0:0x00000000
       13745000	      1373	80000e80	9a483b93	sltiu	x23,x16,-1628	 x16:0x00000000 x23=0x00000001
       13755000	      1374	80000e84	e242cc13	xori	x24,x5,-476	  x5:0x00000001 x24=0xfffffe25
       13765000	      1375	80000e88	41f405b3	sub	x11,x8,x31	  x8:0xffffff80 x31:0x80009f38 x11=0x7fff6048
       13775000	      1376	80000e8c	000512b3	sll	x5,x10,x0	 x10:0x7ff05fdb  x0:0x00000000  x5=0x7ff05fdb
       13785000	      1377	80000e90	00be9593	slli	x11,x29,0xb	 x29:0xfff0f987 x11=0x87cc3800
       13795000	      1378	80000e94	0009de93	srli	x29,x19,0x0	 x19:0x4d263000 x29=0x4d263000
       13805000	      1379	80000e98	03437663	bgeu	x6,x20,80000ec4	  x6:0x00000000 x20:0x00000000
       13815000	      1380	00000000	00000013	addi	x0,x0,0	  x0:0x00000000
       13825000	      1381	80000ec0	00000013	addi	x0,x0,0	  x0:0x00000000
       13835000	      1382	80000ec4	0bcae4b7	lui	x9,0xbcae	  x9=0x0bcae000
       13845000	      1383	80000ec8	00ca8663	beq	x21,x12,80000ed4	 x21:0x87cc3ab8 x12:0x2fb2b000
       13855000	      1384	80000ecc	fefdc7b7	lui	x15,0xfefdc	 x15=0xfefdc000
       13865000	      1385	80000ed0	0174e533	or	x10,x9,x23	  x9:0x0bcae000 x23:0x00000001 x10=0x0bcae001
       13875000	      1386	80000ed4	03598663	beq	x19,x21,80000f00	 x19:0x4d263000 x21:0x87cc3ab8
       13885000	      1387	80000ed8	01da5eb3	srl	x29,x20,x29	 x20:0x00000000 x29:0x4d263000 x29=0x00000000
       13895000	      1388	80000edc	001515b3	sll	x11,x10,x1	 x10:0x0bcae001  x1:0xffffef28 x11=0xcae00100
       13905000	      1389	80000ee0	40765633	sra	x12,x12,x7	 x12:0x2fb2b000  x7:0x80009fc4 x12=0x02fb2b00
       13915000	      1390	80000ee4	00965233	srl	x4,x12,x9	 x12:0x02fb2b00  x9:0x0bcae000  x4=0x02fb2b00
       13925000	      1391	80000ee8	40820833	sub	x16,x4,x8	  x4:0x02fb2b00  x8:0xffffff80 x16=0x02fb2b80
       13935000	      1392	80000eec	abaf0493	addi	x9,x30,-1350	 x30:0x369b2000  x9=0x369b1aba
       13945000	      1393	80000ef0	0121b133	sltu	x2,x3,x18	  x3:0x00000001 x18:0x00000000  x2=0x00000000
       13955000	      1394	80000ef4	00985e93	srli	x29,x16,0x9	 x16:0x02fb2b80 x29=0x00017d95
       13965000	      1395	80000ef8	04826263	bltu	x4,x8,80000f3c	  x4:0x02fb2b00  x8:0xffffff80
       13975000	      1396	00000000	00000013	addi	x0,x0,0	  x0:0x00000000
       13985000	      1397	80000f38	00000013	addi	x0,x0,0	  x0:0x00000000
       13995000	      1398	80000f3c	01308e33	add	x28,x1,x19	  x1:0xffffef28 x19:0x4d263000 x28=0x4d261f28
       14005000	      1399	80000f40	043e9663	bne	x29,x3,80000f8c	 x29:0x00017d95  x3:0x00000001
       14015000	      1400	00000000	00000013	addi	x0,x0,0	  x0:0x00000000
       14025000	      1401	80000f88	00000013	addi	x0,x0,0	  x0:0x00000000
       14035000	      1402	80000f8c	011dd993	srli	x19,x27,0x11	 x27:0x00408000 x19=0x00000020
       14045000	      1403	80000f90	00cb6333	or	x6,x22,x12	 x22:0x80411fc4 x12:0x02fb2b00  x6=0x82fb3fc4
       14055000	      1404	80000f94	5f9a2b13	slti	x22,x20,1529	 x20:0x00000000 x22=0x00000001
       14065000	      1405	80000f98	7f736537	lui	x10,0x7f736	 x10=0x7f736000
       14075000	      1406	80000f9c	0075bab3	sltu	x21,x11,x7	 x11:0xcae00100  x7:0x80009fc4 x21=0x00000000
       14085000	      1407	80000fa0	a0fe6493	ori	x9,x28,-1521	 x28:0x4d261f28  x9=0xffffff2f
       14095000	      1408	80000fa4	40c15e13	srai	x28,x2,0xc	  x2:0x00000000 x28=0x00000000
       14105000	      1409	80000fa8	04c38663	beq	x7,x12,80000ff4	  x7:0x80009fc4 x12:0x02fb2b00
       14115000	      1410	80000fac	0120d133	srl	x2,x1,x18	  x1:0xffffef28 x18:0x00000000  x2=0xffffef28
       14125000	      1411	80000fb0	01742933	slt	x18,x8,x23	  x8:0xffffff80 x23:0x00000001 x18=0x00000001
       14135000	      1412	80000fb4	405e58b3	sra	x17,x28,x5	 x28:0x00000000  x5:0x7ff05fdb x17=0x00000000
       14145000	      1413	80000fb8	924ff413	andi	x8,x31,-1756	 x31:0x80009f38  x8=0x80009920
       14155000	      1414	80000fbc	05114663	blt	x2,x17,80001008	  x2:0xffffef28 x17:0x00000000
       14165000	      1415	00000000	00000013	addi	x0,x0,0	  x0:0x00000000
       14175000	      1416	80001004	00000013	addi	x0,x0,0	  x0:0x00000000
       14185000	      1417	80001008	01032e33	slt	x28,x6,x16	  x6:0x82fb3fc4 x16:0x02fb2b80 x28=0x00000001
       14195000	      1418	8000100c	05977663	bgeu	x14,x25,80001058	 x14:0x000000f1 x25:0x010f9875
       14205000	      1419	80001010	bec20693	addi	x13,x4,-1044	  x4:0x02fb2b00 x13=0x02fb26ec
       14215000	      1420	80001014	02f9c863	blt	x19,x15,80001044	 x19:0x00000020 x15:0xfefdc000
       14225000	      1421	80001018	01276c63	bltu	x14,x18,80001030	 x14:0x000000f1 x18:0x00000001
       14235000	      1422	8000101c	fefc2937	lui	x18,0xfefc2	 x18=0xfefc2000
       14245000	      1423	80001020	40585933	sra	x18,x16,x5	 x16:0x02fb2b80  x5:0x7ff05fdb x18=0x00000000
       14255000	      1424	80001024	00000013	addi	x0,x0,0	  x0:0x00000000
       14265000	      1425	80001028	41ef5eb3	sra	x29,x30,x30	 x30:0x369b2000 x30:0x369b2000 x29=0x369b2000
       14275000	      1426	8000102c	00b45713	srli	x14,x8,0xb	  x8:0x80009920 x14=0x00100013
       14285000	      1427	80001030	13880797	auipc	x15,0x13880	 x15=0x9388102c
       14295000	      1428	80001034	013f5c63	bge	x30,x19,8000104c	 x30:0x369b2000 x19:0x00000020
       14305000	      1429	00000000	00000013	addi	x0,x0,0	  x0:0x00000000
       14315000	      1430	80001048	00000013	addi	x0,x0,0	  x0:0x00000000
       14325000	      1431	8000104c	02bfd063	bge	x31,x11,8000106c	 x31:0x80009f38 x11:0xcae00100
       14335000	      1432	80001050	00ad9a63	bne	x27,x10,80001064	 x27:0x00408000 x10:0x7f736000
       14345000	      1433	00000000	00000013	addi	x0,x0,0	  x0:0x00000000
       14355000	      1434	80001060	00000013	addi	x0,x0,0	  x0:0x00000000
       14365000	      1435	80001064	49083493	sltiu	x9,x16,1168	 x16:0x02fb2b80  x9=0x00000000
       14375000	      1436	80001068	00bd2133	slt	x2,x26,x11	 x26:0x80000000 x11:0xcae00100  x2=0x00000001
       14385000	      1437	8000106c	0b25dc63	bge	x11,x18,80001124	 x11:0xcae00100 x18:0x00000000
       14395000	      1438	80001070	018009ef	jal	x19,80001070	 x19=0x80001070
       14405000	      1439	00000000	00000013	addi	x0,x0,0	  x0:0x00000000
       14415000	      1440	80001084	00000013	addi	x0,x0,0	  x0:0x00000000
       14425000	      1441	80001088	ff5ff26f	jal	x4,80001088	  x4=0x80001088
       14435000	      1442	00000000	00000013	addi	x0,x0,0	  x0:0x00000000
       14445000	      1443	80001078	00000013	addi	x0,x0,0	  x0:0x00000000
       14455000	      1444	8000107c	050000ef	jal	x1,8000107c	  x1=0x8000107c
       14465000	      1445	00000000	00000013	addi	x0,x0,0	  x0:0x00000000
       14475000	      1446	800010c8	00000013	addi	x0,x0,0	  x0:0x00000000
       14485000	      1447	800010cc	ff9ff2ef	jal	x5,800010cc	  x5=0x800010cc
       14495000	      1448	00000000	00000013	addi	x0,x0,0	  x0:0x00000000
       14505000	      1449	800010c0	00000013	addi	x0,x0,0	  x0:0x00000000
       14515000	      1450	800010c4	fe9ff6ef	jal	x13,800010c4	 x13=0x800010c4
       14525000	      1451	00000000	00000013	addi	x0,x0,0	  x0:0x00000000
       14535000	      1452	800010a8	00000013	addi	x0,x0,0	  x0:0x00000000
       14545000	      1453	800010ac	ff1ffc6f	jal	x24,800010ac	 x24=0x800010ac
       14555000	      1454	00000000	00000013	addi	x0,x0,0	  x0:0x00000000
       14565000	      1455	80001098	00000013	addi	x0,x0,0	  x0:0x00000000
       14575000	      1456	8000109c	024000ef	jal	x1,8000109c	  x1=0x8000109c
       14585000	      1457	00000000	00000013	addi	x0,x0,0	  x0:0x00000000
       14595000	      1458	800010bc	00000013	addi	x0,x0,0	  x0:0x00000000
       14605000	      1459	800010c0	fb5ff0ef	jal	x1,800010c0	  x1=0x800010c0
       14615000	      1460	00000000	00000013	addi	x0,x0,0	  x0:0x00000000
       14625000	      1461	80001070	00000013	addi	x0,x0,0	  x0:0x00000000
       14635000	      1462	80001074	054004ef	jal	x9,80001074	  x9=0x80001074
       14645000	      1463	00000000	00000013	addi	x0,x0,0	  x0:0x00000000
       14655000	      1464	800010c4	00000013	addi	x0,x0,0	  x0:0x00000000
       14665000	      1465	800010c8	fd1ff9ef	jal	x19,800010c8	 x19=0x800010c8
       14675000	      1466	00000000	00000013	addi	x0,x0,0	  x0:0x00000000
       14685000	      1467	80001094	00000013	addi	x0,x0,0	  x0:0x00000000
       14695000	      1468	80001098	ff5ff36f	jal	x6,80001098	  x6=0x80001098
       14705000	      1469	00000000	00000013	addi	x0,x0,0	  x0:0x00000000
       14715000	      1470	80001088	00000013	addi	x0,x0,0	  x0:0x00000000
       14725000	      1471	8000108c	ff5ff26f	jal	x4,8000108c	  x4=0x8000108c
       14735000	      1472	00000000	00000013	addi	x0,x0,0	  x0:0x00000000
       14745000	      1473	8000107c	00000013	addi	x0,x0,0	  x0:0x00000000
       14755000	      1474	80001080	0140036f	jal	x6,80001080	  x6=0x80001080
       14765000	      1475	00000000	00000013	addi	x0,x0,0	  x0:0x00000000
       14775000	      1476	80001090	00000013	addi	x0,x0,0	  x0:0x00000000
       14785000	      1477	80001094	fe5ff0ef	jal	x1,80001094	  x1=0x80001094
       14795000	      1478	00000000	00000013	addi	x0,x0,0	  x0:0x00000000
       14805000	      1479	80001074	00000013	addi	x0,x0,0	  x0:0x00000000
       14815000	      1480	80001078	0180036f	jal	x6,80001078	  x6=0x80001078
       14825000	      1481	00000000	00000013	addi	x0,x0,0	  x0:0x00000000
       14835000	      1482	8000108c	00000013	addi	x0,x0,0	  x0:0x00000000
       14845000	      1483	80001090	018000ef	jal	x1,80001090	  x1=0x80001090
       14855000	      1484	00000000	00000013	addi	x0,x0,0	  x0:0x00000000
       14865000	      1485	800010a4	00000013	addi	x0,x0,0	  x0:0x00000000
       14875000	      1486	800010a8	02c00b6f	jal	x22,800010a8	 x22=0x800010a8
       14885000	      1487	00000000	00000013	addi	x0,x0,0	  x0:0x00000000
       14895000	      1488	800010d0	00000013	addi	x0,x0,0	  x0:0x00000000
       14905000	      1489	800010d4	ffdff16f	jal	x2,800010d4	  x2=0x800010d4
       14915000	      1490	00000000	00000013	addi	x0,x0,0	  x0:0x00000000
       14925000	      1491	800010cc	00000013	addi	x0,x0,0	  x0:0x00000000
       14935000	      1492	800010d0	fe5ff36f	jal	x6,800010d0	  x6=0x800010d0
       14945000	      1493	00000000	00000013	addi	x0,x0,0	  x0:0x00000000
       14955000	      1494	800010b0	00000013	addi	x0,x0,0	  x0:0x00000000
       14965000	      1495	800010b4	fd1ff36f	jal	x6,800010b4	  x6=0x800010b4
       14975000	      1496	00000000	00000013	addi	x0,x0,0	  x0:0x00000000
       14985000	      1497	80001080	00000013	addi	x0,x0,0	  x0:0x00000000
       14995000	      1498	80001084	01c000ef	jal	x1,80001084	  x1=0x80001084
       15005000	      1499	00000000	00000013	addi	x0,x0,0	  x0:0x00000000
       15015000	      1500	8000109c	00000013	addi	x0,x0,0	  x0:0x00000000
       15025000	      1501	800010a0	0180036f	jal	x6,800010a0	  x6=0x800010a0
       15035000	      1502	00000000	00000013	addi	x0,x0,0	  x0:0x00000000
       15045000	      1503	800010b4	00000013	addi	x0,x0,0	  x0:0x00000000
       15055000	      1504	800010b8	fedff0ef	jal	x1,800010b8	  x1=0x800010b8
       15065000	      1505	00000000	00000013	addi	x0,x0,0	  x0:0x00000000
       15075000	      1506	800010a0	00000013	addi	x0,x0,0	  x0:0x00000000
       15085000	      1507	800010a4	018000ef	jal	x1,800010a4	  x1=0x800010a4
       15095000	      1508	00000000	00000013	addi	x0,x0,0	  x0:0x00000000
       15105000	      1509	800010b8	00000013	addi	x0,x0,0	  x0:0x00000000
       15115000	      1510	800010bc	ff5ff2ef	jal	x5,800010bc	  x5=0x800010bc
       15125000	      1511	00000000	00000013	addi	x0,x0,0	  x0:0x00000000
       15135000	      1512	800010ac	00000013	addi	x0,x0,0	  x0:0x00000000
       15145000	      1513	800010b0	0280036f	jal	x6,800010b0	  x6=0x800010b0
       15155000	      1514	00000000	00000013	addi	x0,x0,0	  x0:0x00000000
       15165000	      1515	800010d4	00000013	addi	x0,x0,0	  x0:0x00000000
       15175000	      1516	800010d8	393e8993	addi	x19,x29,915	 x29:0x369b2000 x19=0x369b2393
       15185000	      1517	800010dc	03f67a63	bgeu	x12,x31,80001110	 x12:0x02fb2b00 x31:0x80009f38
       15195000	      1518	800010e0	0128be93	sltiu	x29,x17,18	 x17:0x00000000 x29=0x00000001
       15205000	      1519	800010e4	00f8fe33	and	x28,x17,x15	 x17:0x00000000 x15:0x9388102c x28=0x00000000
       15215000	      1520	800010e8	01a91533	sll	x10,x18,x26	 x18:0x00000000 x26:0x80000000 x10=0x00000000
       15225000	      1521	800010ec	35a1c213	xori	x4,x3,858	  x3:0x00000001  x4=0x0000035b
       15235000	      1522	800010f0	009da433	slt	x8,x27,x9	 x27:0x00408000  x9:0x80001074  x8=0x00000000
       15245000	      1523	800010f4	03bf5663	bge	x30,x27,80001120	 x30:0x369b2000 x27:0x00408000
       15255000	      1524	00000000	00000013	addi	x0,x0,0	  x0:0x00000000
       15265000	      1525	8000111c	00000013	addi	x0,x0,0	  x0:0x00000000
       15275000	      1526	80001120	01bc5863	bge	x24,x27,80001130	 x24:0x800010ac x27:0x00408000
       15285000	      1527	80001124	005c30b3	sltu	x1,x24,x5	 x24:0x800010ac  x5:0x800010bc  x1=0x00000001
       15295000	      1528	80001128	00101a33	sll	x20,x0,x1	  x0:0x00000000  x1:0x00000001 x20=0x00000000
       15305000	      1529	8000112c	bbb96637	lui	x12,0xbbb96	 x12=0xbbb96000
       15315000	      1530	80001130	01d28e33	add	x28,x5,x29	  x5:0x800010bc x29:0x00000001 x28=0x800010bd
       15325000	      1531	80001134	01fec8b3	xor	x17,x29,x31	 x29:0x00000001 x31:0x80009f38 x17=0x80009f39
       15335000	      1532	80001138	01d288b3	add	x17,x5,x29	  x5:0x800010bc x29:0x00000001 x17=0x800010bd
       15345000	      1533	8000113c	a25e8993	addi	x19,x29,-1499	 x29:0x00000001 x19=0xfffffa26
       15355000	      1534	80001140	402880b3	sub	x1,x17,x2	 x17:0x800010bd  x2:0x800010d4  x1=0xffffffe9
       15365000	      1535	80001144	01565e93	srli	x29,x12,0x15	 x12:0xbbb96000 x29=0x000005dd
       15375000	      1536	80001148	05069663	bne	x13,x16,80001194	 x13:0x800010c4 x16:0x02fb2b80
       15385000	      1537	00000000	00000013	addi	x0,x0,0	  x0:0x00000000
       15395000	      1538	80001190	00000013	addi	x0,x0,0	  x0:0x00000000
       15405000	      1539	80001194	00c9be33	sltu	x28,x19,x12	 x19:0xfffffa26 x12:0xbbb96000 x28=0x00000000
       15415000	      1540	80001198	410682b3	sub	x5,x13,x16	 x13:0x800010c4 x16:0x02fb2b80  x5=0x7d04e544
       15425000	      1541	8000119c	01251c93	slli	x25,x10,0x12	 x10:0x00000000 x25=0x00000000
       15435000	      1542	800011a0	8c298193	addi	x3,x19,-1854	 x19:0xfffffa26  x3=0xfffff2e8
       15445000	      1543	800011a4	a8e27a37	lui	x20,0xa8e27	 x20=0xa8e27000
       15455000	      1544	800011a8	0106c333	xor	x6,x13,x16	 x13:0x800010c4 x16:0x02fb2b80  x6=0x82fb3b44
       15465000	      1545	800011ac	013e2833	slt	x16,x28,x19	 x28:0x00000000 x19:0xfffffa26 x16=0x00000000
       15475000	      1546	800011b0	03ec0463	beq	x24,x30,800011d8	 x24:0x800010ac x30:0x369b2000
       15485000	      1547	800011b4	005bd4b3	srl	x9,x23,x5	 x23:0x00000001  x5:0x7d04e544  x9=0x00000000
       15495000	      1548	800011b8	01bd32b3	sltu	x5,x26,x27	 x26:0x80000000 x27:0x00408000  x5=0x00000000
       15505000	      1549	800011bc	5d45bd93	sltiu	x27,x11,1492	 x11:0xcae00100 x27=0x00000000
       15515000	      1550	800011c0	00000013	addi	x0,x0,0	  x0:0x00000000
       15525000	      1551	800011c4	010d4663	blt	x26,x16,800011d0	 x26:0x80000000 x16:0x00000000
       15535000	      1552	00000000	00000013	addi	x0,x0,0	  x0:0x00000000
       15545000	      1553	800011cc	00000013	addi	x0,x0,0	  x0:0x00000000
       15555000	      1554	800011d0	81acfc13	andi	x24,x25,-2022	 x25:0x00000000 x24=0x00000000
       15565000	      1555	800011d4	01271213	slli	x4,x14,0x12	 x14:0x00100013  x4=0x004c0000
       15575000	      1556	800011d8	0179da63	bge	x19,x23,800011ec	 x19:0xfffffa26 x23:0x00000001
       15585000	      1557	800011dc	c305c213	xori	x4,x11,-976	 x11:0xcae00100  x4=0x351ffd30
       15595000	      1558	800011e0	019d4f33	xor	x30,x26,x25	 x26:0x80000000 x25:0x00000000 x30=0x80000000
       15605000	      1559	800011e4	00d46333	or	x6,x8,x13	  x8:0x00000000 x13:0x800010c4  x6=0x800010c4
       15615000	      1560	800011e8	66d5ba37	lui	x20,0x66d5b	 x20=0x66d5b000
       15625000	      1561	800011ec	00f56233	or	x4,x10,x15	 x10:0x00000000 x15:0x9388102c  x4=0x9388102c
       15635000	      1562	800011f0	e9fb6593	ori	x11,x22,-353	 x22:0x800010a8 x11=0xfffffebf
       15645000	      1563	800011f4	40fc8133	sub	x2,x25,x15	 x25:0x00000000 x15:0x9388102c  x2=0x6c77efd4
       15655000	      1564	800011f8	4122d0b3	sra	x1,x5,x18	  x5:0x00000000 x18:0x00000000  x1=0x00000000
       15665000	      1565	800011fc	c3446293	ori	x5,x8,-972	  x8:0x00000000  x5=0xfffffc34
       15675000	      1566	80001200	405ade33	sra	x28,x21,x5	 x21:0x00000000  x5:0xfffffc34 x28=0x00000000
       15685000	      1567	80001204	4149d533	sra	x10,x19,x20	 x19:0xfffffa26 x20:0x66d5b000 x10=0xfffffa26
       15695000	      1568	80001208	41f50233	sub	x4,x10,x31	 x10:0xfffffa26 x31:0x80009f38  x4=0x7fff5aee
       15705000	      1569	8000120c	1c9281b7	lui	x3,0x1c928	  x3=0x1c928000
       15715000	      1570	80001210	e20b7137	lui	x2,0xe20b7	  x2=0xe20b7000
       15725000	      1571	80001214	f593c693	xori	x13,x7,-167	  x7:0x80009fc4 x13=0x7fff609d
       15735000	      1572	80001218	01cf82b3	add	x5,x31,x28	 x31:0x80009f38 x28:0x00000000  x5=0x80009f38
       15745000	      1573	8000121c	96edf813	andi	x16,x27,-1682	 x27:0x00000000 x16=0x00000000
       15755000	      1574	80001220	3b564d93	xori	x27,x12,949	 x12:0xbbb96000 x27=0xbbb963b5
       15765000	      1575	80001224	03428863	beq	x5,x20,80001254	  x5:0x80009f38 x20:0x66d5b000
       15775000	      1576	80001228	0b14f213	andi	x4,x9,177	  x9:0x00000000  x4=0x00000000
       15785000	      1577	8000122c	965e1897	auipc	x17,0x965e1	 x17=0x165e2228
       15795000	      1578	80001230	0154fbb3	and	x23,x9,x21	  x9:0x00000000 x21:0x00000000 x23=0x00000000
       15805000	      1579	80001234	014cf5b3	and	x11,x25,x20	 x25:0x00000000 x20:0x66d5b000 x11=0x00000000
       15815000	      1580	80001238	1c01c793	xori	x15,x3,448	  x3:0x1c928000 x15=0x1c9281c0
       15825000	      1581	8000123c	018aec63	bltu	x21,x24,80001254	 x21:0x00000000 x24:0x00000000
       15835000	      1582	80001240	002c49b3	xor	x19,x24,x2	 x24:0x00000000  x2:0xe20b7000 x19=0xe20b7000
       15845000	      1583	80001244	00ecfb33	and	x22,x25,x14	 x25:0x00000000 x14:0x00100013 x22=0x00000000
       15855000	      1584	80001248	00207b33	and	x22,x0,x2	  x0:0x00000000  x2:0xe20b7000 x22=0x00000000
       15865000	      1585	8000124c	0037e133	or	x2,x15,x3	 x15:0x1c9281c0  x3:0x1c928000  x2=0x1c9281c0
       15875000	      1586	80001250	745d0eb7	lui	x29,0x745d0	 x29=0x745d0000
       15885000	      1587	80001254	40c888b3	sub	x17,x17,x12	 x17:0x165e2228 x12:0xbbb96000 x17=0x5aa4c228
       15895000	      1588	80001258	c02eea97	auipc	x21,0xc02ee	 x21=0x402ef254
       15905000	      1589	8000125c	04ff5463	bge	x30,x15,800012a4	 x30:0x80000000 x15:0x1c9281c0
       15915000	      1590	80001260	01c16533	or	x10,x2,x28	  x2:0x1c9281c0 x28:0x00000000 x10=0x1c9281c0
       15925000	      1591	80001264	984e2113	slti	x2,x28,-1660	 x28:0x00000000  x2=0x00000000
       15935000	      1592	80001268	00000013	addi	x0,x0,0	  x0:0x00000000
       15945000	      1593	8000126c	0295f663	bgeu	x11,x9,80001298	 x11:0x00000000  x9:0x00000000
       15955000	      1594	00000000	00000013	addi	x0,x0,0	  x0:0x00000000
       15965000	      1595	80001294	00000013	addi	x0,x0,0	  x0:0x00000000
       15975000	      1596	80001298	41465a93	srai	x21,x12,0x14	 x12:0xbbb96000 x21=0xfffffbbb
       15985000	      1597	8000129c	00a222b3	slt	x5,x4,x10	  x4:0x00000000 x10:0x1c9281c0  x5=0x00000001
       15995000	      1598	800012a0	612c8437	lui	x8,0x612c8	  x8=0x612c8000
       16005000	      1599	800012a4	0193e733	or	x14,x7,x25	  x7:0x80009fc4 x25:0x00000000 x14=0x80009fc4
       16015000	      1600	800012a8	d257f413	andi	x8,x15,-731	 x15:0x1c9281c0  x8=0x1c928100
       16025000	      1601	800012ac	01828033	add	x0,x5,x24	  x5:0x00000001 x24:0x00000000
       16035000	      1602	800012b0	00bd06b3	add	x13,x26,x11	 x26:0x80000000 x11:0x00000000 x13=0x80000000
       16045000	      1603	800012b4	0434f663	bgeu	x9,x3,80001300	  x9:0x00000000  x3:0x1c928000
       16055000	      1604	800012b8	41325893	srai	x17,x4,0x13	  x4:0x00000000 x17=0x00000000
       16065000	      1605	800012bc	056ad863	bge	x21,x22,8000130c	 x21:0xfffffbbb x22:0x00000000
       16075000	      1606	800012c0	e830e193	ori	x3,x1,-381	  x1:0x00000000  x3=0xfffffe83
       16085000	      1607	800012c4	01439993	slli	x19,x7,0x14	  x7:0x80009fc4 x19=0xfc400000
       16095000	      1608	800012c8	05487263	bgeu	x16,x20,8000130c	 x16:0x00000000 x20:0x66d5b000
       16105000	      1609	800012cc	00660833	add	x16,x12,x6	 x12:0xbbb96000  x6:0x800010c4 x16=0x3bb970c4
       16115000	      1610	800012d0	0198ebb3	or	x23,x17,x25	 x17:0x00000000 x25:0x00000000 x23=0x00000000
       16125000	      1611	800012d4	05f38663	beq	x7,x31,80001320	  x7:0x80009fc4 x31:0x80009f38
       16135000	      1612	800012d8	01db0733	add	x14,x22,x29	 x22:0x00000000 x29:0x745d0000 x14=0x745d0000
       16145000	      1613	800012dc	35028b93	addi	x23,x5,848	  x5:0x00000001 x23=0x00000351
       16155000	      1614	800012e0	02df1063	bne	x30,x13,80001300	 x30:0x80000000 x13:0x80000000
       16165000	      1615	800012e4	019f1863	bne	x30,x25,800012f4	 x30:0x80000000 x25:0x00000000
       16175000	      1616	00000000	00000013	addi	x0,x0,0	  x0:0x00000000
       16185000	      1617	800012f0	00000013	addi	x0,x0,0	  x0:0x00000000
       16195000	      1618	800012f4	014fd193	srli	x3,x31,0x14	 x31:0x80009f38  x3=0x00000800
       16205000	      1619	800012f8	0066db33	srl	x22,x13,x6	 x13:0x80000000  x6:0x800010c4 x22=0x08000000
       16215000	      1620	800012fc	009a9513	slli	x10,x21,0x9	 x21:0xfffffbbb x10=0xfff77600
       16225000	      1621	80001300	01b3d133	srl	x2,x7,x27	  x7:0x80009fc4 x27:0xbbb963b5  x2=0x00000400
       16235000	      1622	80001304	008de863	bltu	x27,x8,80001314	 x27:0xbbb963b5  x8:0x1c928100
       16245000	      1623	80001308	013a44b3	xor	x9,x20,x19	 x20:0x66d5b000 x19:0xfc400000  x9=0x9a95b000
       16255000	      1624	8000130c	00d3edb3	or	x27,x7,x13	  x7:0x80009fc4 x13:0x80000000 x27=0x80009fc4
       16265000	      1625	80001310	41565833	sra	x16,x12,x21	 x12:0xbbb96000 x21:0xfffffbbb x16=0xfffffff7
       16275000	      1626	80001314	02d26663	bltu	x4,x13,80001340	  x4:0x00000000 x13:0x80000000
       16285000	      1627	00000000	00000013	addi	x0,x0,0	  x0:0x00000000
       16295000	      1628	8000133c	00000013	addi	x0,x0,0	  x0:0x00000000
       16305000	      1629	80001340	40dc07b3	sub	x15,x24,x13	 x24:0x00000000 x13:0x80000000 x15=0x80000000
       16315000	      1630	80001344	018e7a33	and	x20,x28,x24	 x28:0x00000000 x24:0x00000000 x20=0x00000000
       16325000	      1631	80001348	0285f263	bgeu	x11,x8,8000136c	 x11:0x00000000  x8:0x1c928100
       16335000	      1632	8000134c	04cf9263	bne	x31,x12,80001390	 x31:0x80009f38 x12:0xbbb96000
       16345000	      1633	00000000	00000013	addi	x0,x0,0	  x0:0x00000000
       16355000	      1634	8000138c	00000013	addi	x0,x0,0	  x0:0x00000000
       16365000	      1635	80001390	40afd013	srai	x0,x31,0xa	 x31:0x80009f38
       16375000	      1636	80001394	04c44263	blt	x8,x12,800013d8	  x8:0x1c928100 x12:0xbbb96000
       16385000	      1637	80001398	0544d263	bge	x9,x20,800013dc	  x9:0x9a95b000 x20:0x00000000
       16395000	      1638	8000139c	04fcc663	blt	x25,x15,800013e8	 x25:0x00000000 x15:0x80000000
       16405000	      1639	800013a0	04051663	bne	x10,x0,800013ec	 x10:0xfff77600  x0:0x00000000
       16415000	      1640	00000000	00000013	addi	x0,x0,0	  x0:0x00000000
       16425000	      1641	800013e8	00000013	addi	x0,x0,0	  x0:0x00000000
       16435000	      1642	800013ec	000a9913	slli	x18,x21,0x0	 x21:0xfffffbbb x18=0xfffffbbb
       16445000	      1643	800013f0	03b21263	bne	x4,x27,80001414	  x4:0x00000000 x27:0x80009fc4
       16455000	      1644	00000000	00000013	addi	x0,x0,0	  x0:0x00000000
       16465000	      1645	80001410	00000013	addi	x0,x0,0	  x0:0x00000000
       16475000	      1646	80001414	40578bb3	sub	x23,x15,x5	 x15:0x80000000  x5:0x00000001 x23=0x7fffffff
       16485000	      1647	80001418	00000013	addi	x0,x0,0	  x0:0x00000000
       16495000	      1648	8000141c	2684fbb7	lui	x23,0x2684f	 x23=0x2684f000
       16505000	      1649	80001420	00bdd5b3	srl	x11,x27,x11	 x27:0x80009fc4 x11:0x00000000 x11=0x80009fc4
       16515000	      1650	80001424	003b7663	bgeu	x22,x3,80001430	 x22:0x08000000  x3:0x00000800
       16525000	      1651	00000000	00000013	addi	x0,x0,0	  x0:0x00000000
       16535000	      1652	8000142c	00000013	addi	x0,x0,0	  x0:0x00000000
       16545000	      1653	80001430	002edb93	srli	x23,x29,0x2	 x29:0x745d0000 x23=0x1d174000
       16555000	      1654	80001434	95e00793	addi	x15,x0,-1698	  x0:0x00000000 x15=0xfffff95e
       16565000	      1655	80001438	01ad2733	slt	x14,x26,x26	 x26:0x80000000 x26:0x80000000 x14=0x00000000
       16575000	      1656	8000143c	0189d293	srli	x5,x19,0x18	 x19:0xfc400000  x5=0x000000fc
       16585000	      1657	80001440	048a7663	bgeu	x20,x8,8000148c	 x20:0x00000000  x8:0x1c928100
       16595000	      1658	80001444	a42f5597	auipc	x11,0xa42f5	 x11=0x242f6440
       16605000	      1659	80001448	01df1a13	slli	x20,x30,0x1d	 x30:0x80000000 x20=0x00000000
       16615000	      1660	8000144c	010ab0b3	sltu	x1,x21,x16	 x21:0xfffffbbb x16:0xfffffff7  x1=0x00000001
       16625000	      1661	80001450	41f2d613	srai	x12,x5,0x1f	  x5:0x000000fc x12=0x00000000
       16635000	      1662	80001454	0337fc63	bgeu	x15,x19,8000148c	 x15:0xfffff95e x19:0xfc400000
       16645000	      1663	00000000	00000013	addi	x0,x0,0	  x0:0x00000000
       16655000	      1664	80001488	00000013	addi	x0,x0,0	  x0:0x00000000
       16665000	      1665	8000148c	011037b3	sltu	x15,x0,x17	  x0:0x00000000 x17:0x00000000 x15=0x00000000
       16675000	      1666	80001490	37256793	ori	x15,x10,882	 x10:0xfff77600 x15=0xfff77772
       16685000	      1667	80001494	00f51433	sll	x8,x10,x15	 x10:0xfff77600 x15:0xfff77772  x8=0xd8000000
       16695000	      1668	80001498	004fa983	lw	x19,4(x31)	 x31:0x80009f38 x19=0x80003e44 PA:0x80009f3c
       16705000	      1669	8000149c	929c1f37	lui	x30,0x929c1	 x30=0x929c1000
       16715000	      1670	800014a0	040f8f93	addi	x31,x31,64	 x31:0x80009f38 x31=0x80009f78
       16725000	      1671	800014a4	00589113	slli	x2,x17,0x5	 x17:0x00000000  x2=0x00000000
       16735000	      1672	800014a8	64cd2a13	slti	x20,x26,1612	 x26:0x80000000 x20=0x00000001
       16745000	      1673	800014ac	003f2133	slt	x2,x30,x3	 x30:0x929c1000  x3:0x00000800  x2=0x00000001
       16755000	      1674	800014b0	40a4d8b3	sra	x17,x9,x10	  x9:0x9a95b000 x10:0xfff77600 x17=0x9a95b000
       16765000	      1675	800014b4	41455413	srai	x8,x10,0x14	 x10:0xfff77600  x8=0xffffffff
       16775000	      1676	800014b8	00198793	addi	x15,x19,1	 x19:0x80003e44 x15=0x80003e45
       16785000	      1677	800014bc	000787e7	jalr	x15,x15,0	 x15:0x80003e45 x15=0x800014bc
       16795000	      1678	00000000	00000013	addi	x0,x0,0	  x0:0x00000000
       16805000	      1679	80003e44	00000013	addi	x0,x0,0	  x0:0x00000000
       16815000	      1680	80003e48	708d3437	lui	x8,0x708d3	  x8=0x708d3000
       16825000	      1681	80003e4c	fffffe17	auipc	x28,0xfffff	 x28=0x80002e48
       16835000	      1682	80003e50	56ce0e13	addi	x28,x28,1388	 x28:0x80002e48 x28=0x800033b4
       16845000	      1683	80003e54	40ff0033	sub	x0,x30,x15	 x30:0x929c1000 x15:0x800014bc
       16855000	      1684	80003e58	1bde0e13	addi	x28,x28,445	 x28:0x800033b4 x28=0x80003571
       16865000	      1685	80003e5c	01a7d513	srli	x10,x15,0x1a	 x15:0x800014bc x10=0x00000020
       16875000	      1686	80003e60	0686db17	auipc	x22,0x686d	 x22=0x86870e5c
       16885000	      1687	80003e64	c1a0ac37	lui	x24,0xc1a0a	 x24=0xc1a0a000
       16895000	      1688	80003e68	0182a6b3	slt	x13,x5,x24	  x5:0x000000fc x24:0xc1a0a000 x13=0x00000000
       16905000	      1689	80003e6c	416a8cb3	sub	x25,x21,x22	 x21:0xfffffbbb x22:0x86870e5c x25=0x7978ed5f
       16915000	      1690	80003e70	003c9513	slli	x10,x25,0x3	 x25:0x7978ed5f x10=0xcbc76af8
       16925000	      1691	80003e74	e44e09e7	jalr	x19,x28,-444	 x28:0x80003571 x19=0x80003e74
       16935000	      1692	00000000	00000013	addi	x0,x0,0	  x0:0x00000000
       16945000	      1693	800033b4	00000013	addi	x0,x0,0	  x0:0x00000000
       16955000	      1694	800033b8	01cf0463	beq	x30,x28,800033c0	 x30:0x929c1000 x28:0x80003571
       16965000	      1695	800033bc	00000013	addi	x0,x0,0	  x0:0x00000000
       16975000	      1696	800033c0	fccf8f93	addi	x31,x31,-52	 x31:0x80009f78 x31=0x80009f44
       16985000	      1697	800033c4	01ec37b3	sltu	x15,x24,x30	 x24:0xc1a0a000 x30:0x929c1000 x15=0x00000000
       16995000	      1698	800033c8	00579cb3	sll	x25,x15,x5	 x15:0x00000000  x5:0x000000fc x25=0x00000000
       17005000	      1699	800033cc	013fa223	sw	x19,4(x31)	 x31:0x80009f44 x19:0x80003e74 PA:0x80009f48
       17015000	      1700	800033d0	010ca2b3	slt	x5,x25,x16	 x25:0x00000000 x16:0xfffffff7  x5=0x00000000
       17025000	      1701	800033d4	d00d0713	addi	x14,x26,-768	 x26:0x80000000 x14=0x7ffffd00
       17035000	      1702	800033d8	001df933	and	x18,x27,x1	 x27:0x80009fc4  x1:0x00000001 x18=0x00000000
       17045000	      1703	800033dc	034009ef	jal	x19,800033dc	 x19=0x800033dc
       17055000	      1704	00000000	00000013	addi	x0,x0,0	  x0:0x00000000
       17065000	      1705	8000340c	00000013	addi	x0,x0,0	  x0:0x00000000
       17075000	      1706	80003410	01800aef	jal	x21,80003410	 x21=0x80003410
       17085000	      1707	00000000	00000013	addi	x0,x0,0	  x0:0x00000000
       17095000	      1708	80003424	00000013	addi	x0,x0,0	  x0:0x00000000
       17105000	      1709	80003428	fbdff0ef	jal	x1,80003428	  x1=0x80003428
       17115000	      1710	00000000	00000013	addi	x0,x0,0	  x0:0x00000000
       17125000	      1711	800033e0	00000013	addi	x0,x0,0	  x0:0x00000000
       17135000	      1712	800033e4	ffdff76f	jal	x14,800033e4	 x14=0x800033e4
       17145000	      1713	00000000	00000013	addi	x0,x0,0	  x0:0x00000000
       17155000	      1714	800033dc	00000013	addi	x0,x0,0	  x0:0x00000000
       17165000	      1715	800033e0	020000ef	jal	x1,800033e0	  x1=0x800033e0
       17175000	      1716	00000000	00000013	addi	x0,x0,0	  x0:0x00000000
       17185000	      1717	800033fc	00000013	addi	x0,x0,0	  x0:0x00000000
       17195000	      1718	80003400	00c0036f	jal	x6,80003400	  x6=0x80003400
       17205000	      1719	00000000	00000013	addi	x0,x0,0	  x0:0x00000000
       17215000	      1720	80003408	00000013	addi	x0,x0,0	  x0:0x00000000
       17225000	      1721	8000340c	014000ef	jal	x1,8000340c	  x1=0x8000340c
       17235000	      1722	00000000	00000013	addi	x0,x0,0	  x0:0x00000000
       17245000	      1723	8000341c	00000013	addi	x0,x0,0	  x0:0x00000000
       17255000	      1724	80003420	fd9ff36f	jal	x6,80003420	  x6=0x80003420
       17265000	      1725	00000000	00000013	addi	x0,x0,0	  x0:0x00000000
       17275000	      1726	800033f4	00000013	addi	x0,x0,0	  x0:0x00000000
       17285000	      1727	800033f8	0240036f	jal	x6,800033f8	  x6=0x800033f8
       17295000	      1728	00000000	00000013	addi	x0,x0,0	  x0:0x00000000
       17305000	      1729	80003418	00000013	addi	x0,x0,0	  x0:0x00000000
       17315000	      1730	8000341c	01000eef	jal	x29,8000341c	 x29=0x8000341c
       17325000	      1731	00000000	00000013	addi	x0,x0,0	  x0:0x00000000
       17335000	      1732	80003428	00000013	addi	x0,x0,0	  x0:0x00000000
       17345000	      1733	8000342c	004004ef	jal	x9,8000342c	  x9=0x8000342c
       17355000	      1734	00000000	00000013	addi	x0,x0,0	  x0:0x00000000
       17365000	      1735	8000342c	00000013	addi	x0,x0,0	  x0:0x00000000
       17375000	      1736	80003430	fd5ffeef	jal	x29,80003430	 x29=0x80003430
       17385000	      1737	00000000	00000013	addi	x0,x0,0	  x0:0x00000000
       17395000	      1738	80003400	00000013	addi	x0,x0,0	  x0:0x00000000
       17405000	      1739	80003404	fe9ff1ef	jal	x3,80003404	  x3=0x80003404
       17415000	      1740	00000000	00000013	addi	x0,x0,0	  x0:0x00000000
       17425000	      1741	800033e8	00000013	addi	x0,x0,0	  x0:0x00000000
       17435000	      1742	800033ec	010000ef	jal	x1,800033ec	  x1=0x800033ec
       17445000	      1743	00000000	00000013	addi	x0,x0,0	  x0:0x00000000
       17455000	      1744	800033f8	00000013	addi	x0,x0,0	  x0:0x00000000
       17465000	      1745	800033fc	ff5ff0ef	jal	x1,800033fc	  x1=0x800033fc
       17475000	      1746	00000000	00000013	addi	x0,x0,0	  x0:0x00000000
       17485000	      1747	800033ec	00000013	addi	x0,x0,0	  x0:0x00000000
       17495000	      1748	800033f0	0340036f	jal	x6,800033f0	  x6=0x800033f0
       17505000	      1749	00000000	00000013	addi	x0,x0,0	  x0:0x00000000
       17515000	      1750	80003420	00000013	addi	x0,x0,0	  x0:0x00000000
       17525000	      1751	80003424	ff1ffbef	jal	x23,80003424	 x23=0x80003424
       17535000	      1752	00000000	00000013	addi	x0,x0,0	  x0:0x00000000
       17545000	      1753	80003410	00000013	addi	x0,x0,0	  x0:0x00000000
       17555000	      1754	80003414	fd5ff0ef	jal	x1,80003414	  x1=0x80003414
       17565000	      1755	00000000	00000013	addi	x0,x0,0	  x0:0x00000000
       17575000	      1756	800033e4	00000013	addi	x0,x0,0	  x0:0x00000000
       17585000	      1757	800033e8	030000ef	jal	x1,800033e8	  x1=0x800033e8
       17595000	      1758	00000000	00000013	addi	x0,x0,0	  x0:0x00000000
       17605000	      1759	80003414	00000013	addi	x0,x0,0	  x0:0x00000000
       17615000	      1760	80003418	ff1ff36f	jal	x6,80003418	  x6=0x80003418
       17625000	      1761	00000000	00000013	addi	x0,x0,0	  x0:0x00000000
       17635000	      1762	80003404	00000013	addi	x0,x0,0	  x0:0x00000000
       17645000	      1763	80003408	fedff0ef	jal	x1,80003408	  x1=0x80003408
       17655000	      1764	00000000	00000013	addi	x0,x0,0	  x0:0x00000000
       17665000	      1765	800033f0	00000013	addi	x0,x0,0	  x0:0x00000000
       17675000	      1766	800033f4	04000f6f	jal	x30,800033f4	 x30=0x800033f4
       17685000	      1767	00000000	00000013	addi	x0,x0,0	  x0:0x00000000
       17695000	      1768	80003430	00000013	addi	x0,x0,0	  x0:0x00000000
       17705000	      1769	80003434	00000013	addi	x0,x0,0	  x0:0x00000000
       17715000	      1770	80003438	074009ef	jal	x19,80003438	 x19=0x80003438
       17725000	      1771	00000000	00000013	addi	x0,x0,0	  x0:0x00000000
       17735000	      1772	800034a8	00000013	addi	x0,x0,0	  x0:0x00000000
       17745000	      1773	800034ac	fa9ffdef	jal	x27,800034ac	 x27=0x800034ac
       17755000	      1774	00000000	00000013	addi	x0,x0,0	  x0:0x00000000
       17765000	      1775	80003450	00000013	addi	x0,x0,0	  x0:0x00000000
       17775000	      1776	80003454	02c000ef	jal	x1,80003454	  x1=0x80003454
       17785000	      1777	00000000	00000013	addi	x0,x0,0	  x0:0x00000000
       17795000	      1778	8000347c	00000013	addi	x0,x0,0	  x0:0x00000000
       17805000	      1779	80003480	fedff0ef	jal	x1,80003480	  x1=0x80003480
       17815000	      1780	00000000	00000013	addi	x0,x0,0	  x0:0x00000000
       17825000	      1781	80003468	00000013	addi	x0,x0,0	  x0:0x00000000
       17835000	      1782	8000346c	018000ef	jal	x1,8000346c	  x1=0x8000346c
       17845000	      1783	00000000	00000013	addi	x0,x0,0	  x0:0x00000000
       17855000	      1784	80003480	00000013	addi	x0,x0,0	  x0:0x00000000
       17865000	      1785	80003484	fedff4ef	jal	x9,80003484	  x9=0x80003484
       17875000	      1786	00000000	00000013	addi	x0,x0,0	  x0:0x00000000
       17885000	      1787	8000346c	00000013	addi	x0,x0,0	  x0:0x00000000
       17895000	      1788	80003470	ff5ff26f	jal	x4,80003470	  x4=0x80003470
       17905000	      1789	00000000	00000013	addi	x0,x0,0	  x0:0x00000000
       17915000	      1790	80003460	00000013	addi	x0,x0,0	  x0:0x00000000
       17925000	      1791	80003464	02c00b6f	jal	x22,80003464	 x22=0x80003464
       17935000	      1792	00000000	00000013	addi	x0,x0,0	  x0:0x00000000
       17945000	      1793	8000348c	00000013	addi	x0,x0,0	  x0:0x00000000
       17955000	      1794	80003490	fbdff0ef	jal	x1,80003490	  x1=0x80003490
       17965000	      1795	00000000	00000013	addi	x0,x0,0	  x0:0x00000000
       17975000	      1796	80003448	00000013	addi	x0,x0,0	  x0:0x00000000
       17985000	      1797	8000344c	ff9ff0ef	jal	x1,8000344c	  x1=0x8000344c
       17995000	      1798	00000000	00000013	addi	x0,x0,0	  x0:0x00000000
       18005000	      1799	80003440	00000013	addi	x0,x0,0	  x0:0x00000000
       18015000	      1800	80003444	0140026f	jal	x4,80003444	  x4=0x80003444
       18025000	      1801	00000000	00000013	addi	x0,x0,0	  x0:0x00000000
       18035000	      1802	80003454	00000013	addi	x0,x0,0	  x0:0x00000000
       18045000	      1803	80003458	010000ef	jal	x1,80003458	  x1=0x80003458
       18055000	      1804	00000000	00000013	addi	x0,x0,0	  x0:0x00000000
       18065000	      1805	80003464	00000013	addi	x0,x0,0	  x0:0x00000000
       18075000	      1806	80003468	fe1ffdef	jal	x27,80003468	 x27=0x80003468
       18085000	      1807	00000000	00000013	addi	x0,x0,0	  x0:0x00000000
       18095000	      1808	80003444	00000013	addi	x0,x0,0	  x0:0x00000000
       18105000	      1809	80003448	ff9ff76f	jal	x14,80003448	 x14=0x80003448
       18115000	      1810	00000000	00000013	addi	x0,x0,0	  x0:0x00000000
       18125000	      1811	8000343c	00000013	addi	x0,x0,0	  x0:0x00000000
       18135000	      1812	80003440	03c009ef	jal	x19,80003440	 x19=0x80003440
       18145000	      1813	00000000	00000013	addi	x0,x0,0	  x0:0x00000000
       18155000	      1814	80003478	00000013	addi	x0,x0,0	  x0:0x00000000
       18165000	      1815	8000347c	00c00eef	jal	x29,8000347c	 x29=0x8000347c
       18175000	      1816	00000000	00000013	addi	x0,x0,0	  x0:0x00000000
       18185000	      1817	80003484	00000013	addi	x0,x0,0	  x0:0x00000000
       18195000	      1818	80003488	ff1ff0ef	jal	x1,80003488	  x1=0x80003488
       18205000	      1819	00000000	00000013	addi	x0,x0,0	  x0:0x00000000
       18215000	      1820	80003474	00000013	addi	x0,x0,0	  x0:0x00000000
       18225000	      1821	80003478	fe5ffeef	jal	x29,80003478	 x29=0x80003478
       18235000	      1822	00000000	00000013	addi	x0,x0,0	  x0:0x00000000
       18245000	      1823	80003458	00000013	addi	x0,x0,0	  x0:0x00000000
       18255000	      1824	8000345c	ff5ff0ef	jal	x1,8000345c	  x1=0x8000345c
       18265000	      1825	00000000	00000013	addi	x0,x0,0	  x0:0x00000000
       18275000	      1826	8000344c	00000013	addi	x0,x0,0	  x0:0x00000000
       18285000	      1827	80003450	0440036f	jal	x6,80003450	  x6=0x80003450
       18295000	      1828	00000000	00000013	addi	x0,x0,0	  x0:0x00000000
       18305000	      1829	80003490	00000013	addi	x0,x0,0	  x0:0x00000000
       18315000	      1830	80003494	00c00b6f	jal	x22,80003494	 x22=0x80003494
       18325000	      1831	00000000	00000013	addi	x0,x0,0	  x0:0x00000000
       18335000	      1832	8000349c	00000013	addi	x0,x0,0	  x0:0x00000000
       18345000	      1833	800034a0	ff9ff36f	jal	x6,800034a0	  x6=0x800034a0
       18355000	      1834	00000000	00000013	addi	x0,x0,0	  x0:0x00000000
       18365000	      1835	80003494	00000013	addi	x0,x0,0	  x0:0x00000000
       18375000	      1836	80003498	0040036f	jal	x6,80003498	  x6=0x80003498
       18385000	      1837	00000000	00000013	addi	x0,x0,0	  x0:0x00000000
       18395000	      1838	80003498	00000013	addi	x0,x0,0	  x0:0x00000000
       18405000	      1839	8000349c	fd9ff36f	jal	x6,8000349c	  x6=0x8000349c
       18415000	      1840	00000000	00000013	addi	x0,x0,0	  x0:0x00000000
       18425000	      1841	80003470	00000013	addi	x0,x0,0	  x0:0x00000000
       18435000	      1842	80003474	fc9ff0ef	jal	x1,80003474	  x1=0x80003474
       18445000	      1843	00000000	00000013	addi	x0,x0,0	  x0:0x00000000
       18455000	      1844	80003438	00000013	addi	x0,x0,0	  x0:0x00000000
       18465000	      1845	8000343c	0680066f	jal	x12,8000343c	 x12=0x8000343c
       18475000	      1846	00000000	00000013	addi	x0,x0,0	  x0:0x00000000
       18485000	      1847	800034a0	00000013	addi	x0,x0,0	  x0:0x00000000
       18495000	      1848	800034a4	fbdff7ef	jal	x15,800034a4	 x15=0x800034a4
       18505000	      1849	00000000	00000013	addi	x0,x0,0	  x0:0x00000000
       18515000	      1850	8000345c	00000013	addi	x0,x0,0	  x0:0x00000000
       18525000	      1851	80003460	04800f6f	jal	x30,80003460	 x30=0x80003460
       18535000	      1852	00000000	00000013	addi	x0,x0,0	  x0:0x00000000
       18545000	      1853	800034a4	00000013	addi	x0,x0,0	  x0:0x00000000
       18555000	      1854	800034a8	fe5ff0ef	jal	x1,800034a8	  x1=0x800034a8
       18565000	      1855	00000000	00000013	addi	x0,x0,0	  x0:0x00000000
       18575000	      1856	80003488	00000013	addi	x0,x0,0	  x0:0x00000000
       18585000	      1857	8000348c	0240026f	jal	x4,8000348c	  x4=0x8000348c
       18595000	      1858	00000000	00000013	addi	x0,x0,0	  x0:0x00000000
       18605000	      1859	800034ac	00000013	addi	x0,x0,0	  x0:0x00000000
       18615000	      1860	800034b0	402b0db3	sub	x27,x22,x2	 x22:0x80003494  x2:0x00000001 x27=0x80003493
       18625000	      1861	800034b4	038009ef	jal	x19,800034b4	 x19=0x800034b4
       18635000	      1862	00000000	00000013	addi	x0,x0,0	  x0:0x00000000
       18645000	      1863	800034e8	00000013	addi	x0,x0,0	  x0:0x00000000
       18655000	      1864	800034ec	ff5ffb6f	jal	x22,800034ec	 x22=0x800034ec
       18665000	      1865	00000000	00000013	addi	x0,x0,0	  x0:0x00000000
       18675000	      1866	800034dc	00000013	addi	x0,x0,0	  x0:0x00000000
       18685000	      1867	800034e0	ff5ff0ef	jal	x1,800034e0	  x1=0x800034e0
       18695000	      1868	00000000	00000013	addi	x0,x0,0	  x0:0x00000000
       18705000	      1869	800034d0	00000013	addi	x0,x0,0	  x0:0x00000000
       18715000	      1870	800034d4	fe9ff0ef	jal	x1,800034d4	  x1=0x800034d4
       18725000	      1871	00000000	00000013	addi	x0,x0,0	  x0:0x00000000
       18735000	      1872	800034b8	00000013	addi	x0,x0,0	  x0:0x00000000
       18745000	      1873	800034bc	054000ef	jal	x1,800034bc	  x1=0x800034bc
       18755000	      1874	00000000	00000013	addi	x0,x0,0	  x0:0x00000000
       18765000	      1875	8000350c	00000013	addi	x0,x0,0	  x0:0x00000000
       18775000	      1876	80003510	ffdff0ef	jal	x1,80003510	  x1=0x80003510
       18785000	      1877	00000000	00000013	addi	x0,x0,0	  x0:0x00000000
       18795000	      1878	80003508	00000013	addi	x0,x0,0	  x0:0x00000000
       18805000	      1879	8000350c	fe9ff0ef	jal	x1,8000350c	  x1=0x8000350c
       18815000	      1880	00000000	00000013	addi	x0,x0,0	  x0:0x00000000
       18825000	      1881	800034f0	00000013	addi	x0,x0,0	  x0:0x00000000
       18835000	      1882	800034f4	0200036f	jal	x6,800034f4	  x6=0x800034f4
       18845000	      1883	00000000	00000013	addi	x0,x0,0	  x0:0x00000000
       18855000	      1884	80003510	00000013	addi	x0,x0,0	  x0:0x00000000
       18865000	      1885	80003514	fddff0ef	jal	x1,80003514	  x1=0x80003514
       18875000	      1886	00000000	00000013	addi	x0,x0,0	  x0:0x00000000
       18885000	      1887	800034ec	00000013	addi	x0,x0,0	  x0:0x00000000
       18895000	      1888	800034f0	ff9ff36f	jal	x6,800034f0	  x6=0x800034f0
       18905000	      1889	00000000	00000013	addi	x0,x0,0	  x0:0x00000000
       18915000	      1890	800034e4	00000013	addi	x0,x0,0	  x0:0x00000000
       18925000	      1891	800034e8	02000a6f	jal	x20,800034e8	 x20=0x800034e8
       18935000	      1892	00000000	00000013	addi	x0,x0,0	  x0:0x00000000
       18945000	      1893	80003504	00000013	addi	x0,x0,0	  x0:0x00000000
       18955000	      1894	80003508	fb9ff56f	jal	x10,80003508	 x10=0x80003508
       18965000	      1895	00000000	00000013	addi	x0,x0,0	  x0:0x00000000
       18975000	      1896	800034bc	00000013	addi	x0,x0,0	  x0:0x00000000
       18985000	      1897	800034c0	0440056f	jal	x10,800034c0	 x10=0x800034c0
       18995000	      1898	00000000	00000013	addi	x0,x0,0	  x0:0x00000000
       19005000	      1899	80003500	00000013	addi	x0,x0,0	  x0:0x00000000
       19015000	      1900	80003504	fc1ff0ef	jal	x1,80003504	  x1=0x80003504
       19025000	      1901	00000000	00000013	addi	x0,x0,0	  x0:0x00000000
       19035000	      1902	800034c0	00000013	addi	x0,x0,0	  x0:0x00000000
       19045000	      1903	800034c4	014000ef	jal	x1,800034c4	  x1=0x800034c4
       19055000	      1904	00000000	00000013	addi	x0,x0,0	  x0:0x00000000
       19065000	      1905	800034d4	00000013	addi	x0,x0,0	  x0:0x00000000
       19075000	      1906	800034d8	ff5ff0ef	jal	x1,800034d8	  x1=0x800034d8
       19085000	      1907	00000000	00000013	addi	x0,x0,0	  x0:0x00000000
       19095000	      1908	800034c8	00000013	addi	x0,x0,0	  x0:0x00000000
       19105000	      1909	800034cc	030000ef	jal	x1,800034cc	  x1=0x800034cc
       19115000	      1910	00000000	00000013	addi	x0,x0,0	  x0:0x00000000
       19125000	      1911	800034f8	00000013	addi	x0,x0,0	  x0:0x00000000
       19135000	      1912	800034fc	004000ef	jal	x1,800034fc	  x1=0x800034fc
       19145000	      1913	00000000	00000013	addi	x0,x0,0	  x0:0x00000000
       19155000	      1914	800034fc	00000013	addi	x0,x0,0	  x0:0x00000000
       19165000	      1915	80003500	fddff0ef	jal	x1,80003500	  x1=0x80003500
       19175000	      1916	00000000	00000013	addi	x0,x0,0	  x0:0x00000000
       19185000	      1917	800034d8	00000013	addi	x0,x0,0	  x0:0x00000000
       19195000	      1918	800034dc	fedff16f	jal	x2,800034dc	  x2=0x800034dc
       19205000	      1919	00000000	00000013	addi	x0,x0,0	  x0:0x00000000
       19215000	      1920	800034c4	00000013	addi	x0,x0,0	  x0:0x00000000
       19225000	      1921	800034c8	008001ef	jal	x3,800034c8	  x3=0x800034c8
       19235000	      1922	00000000	00000013	addi	x0,x0,0	  x0:0x00000000
       19245000	      1923	800034cc	00000013	addi	x0,x0,0	  x0:0x00000000
       19255000	      1924	800034d0	fe9ff0ef	jal	x1,800034d0	  x1=0x800034d0
       19265000	      1925	00000000	00000013	addi	x0,x0,0	  x0:0x00000000
       19275000	      1926	800034b4	00000013	addi	x0,x0,0	  x0:0x00000000
       19285000	      1927	800034b8	040000ef	jal	x1,800034b8	  x1=0x800034b8
       19295000	      1928	00000000	00000013	addi	x0,x0,0	  x0:0x00000000
       19305000	      1929	800034f4	00000013	addi	x0,x0,0	  x0:0x00000000
       19315000	      1930	800034f8	fedff1ef	jal	x3,800034f8	  x3=0x800034f8
       19325000	      1931	00000000	00000013	addi	x0,x0,0	  x0:0x00000000
       19335000	      1932	800034e0	00000013	addi	x0,x0,0	  x0:0x00000000
       19345000	      1933	800034e4	034006ef	jal	x13,800034e4	 x13=0x800034e4
       19355000	      1934	00000000	00000013	addi	x0,x0,0	  x0:0x00000000
       19365000	      1935	80003514	00000013	addi	x0,x0,0	  x0:0x00000000
       19375000	      1936	80003518	01436c33	or	x24,x6,x20	  x6:0x800034f0 x20:0x800034e8 x24=0x800034f8
       19385000	      1937	8000351c	024009ef	jal	x19,8000351c	 x19=0x8000351c
       19395000	      1938	00000000	00000013	addi	x0,x0,0	  x0:0x00000000
       19405000	      1939	8000353c	00000013	addi	x0,x0,0	  x0:0x00000000
       19415000	      1940	80003540	ffdff0ef	jal	x1,80003540	  x1=0x80003540
       19425000	      1941	00000000	00000013	addi	x0,x0,0	  x0:0x00000000
       19435000	      1942	80003538	00000013	addi	x0,x0,0	  x0:0x00000000
       19445000	      1943	8000353c	ff5ff0ef	jal	x1,8000353c	  x1=0x8000353c
       19455000	      1944	00000000	00000013	addi	x0,x0,0	  x0:0x00000000
       19465000	      1945	8000352c	00000013	addi	x0,x0,0	  x0:0x00000000
       19475000	      1946	80003530	01400cef	jal	x25,80003530	 x25=0x80003530
       19485000	      1947	00000000	00000013	addi	x0,x0,0	  x0:0x00000000
       19495000	      1948	80003540	00000013	addi	x0,x0,0	  x0:0x00000000
       19505000	      1949	80003544	020000ef	jal	x1,80003544	  x1=0x80003544
       19515000	      1950	00000000	00000013	addi	x0,x0,0	  x0:0x00000000
       19525000	      1951	80003560	00000013	addi	x0,x0,0	  x0:0x00000000
       19535000	      1952	80003564	fd1ff36f	jal	x6,80003564	  x6=0x80003564
       19545000	      1953	00000000	00000013	addi	x0,x0,0	  x0:0x00000000
       19555000	      1954	80003530	00000013	addi	x0,x0,0	  x0:0x00000000
       19565000	      1955	80003534	01c0026f	jal	x4,80003534	  x4=0x80003534
       19575000	      1956	00000000	00000013	addi	x0,x0,0	  x0:0x00000000
       19585000	      1957	8000354c	00000013	addi	x0,x0,0	  x0:0x00000000
       19595000	      1958	80003550	ffdff0ef	jal	x1,80003550	  x1=0x80003550
       19605000	      1959	00000000	00000013	addi	x0,x0,0	  x0:0x00000000
       19615000	      1960	80003548	00000013	addi	x0,x0,0	  x0:0x00000000
       19625000	      1961	8000354c	014000ef	jal	x1,8000354c	  x1=0x8000354c
       19635000	      1962	00000000	00000013	addi	x0,x0,0	  x0:0x00000000
       19645000	      1963	8000355c	00000013	addi	x0,x0,0	  x0:0x00000000
       19655000	      1964	80003560	fd9ffb6f	jal	x22,80003560	 x22=0x80003560
       19665000	      1965	00000000	00000013	addi	x0,x0,0	  x0:0x00000000
       19675000	      1966	80003534	00000013	addi	x0,x0,0	  x0:0x00000000
       19685000	      1967	80003538	fedff0ef	jal	x1,80003538	  x1=0x80003538
       19695000	      1968	00000000	00000013	addi	x0,x0,0	  x0:0x00000000
       19705000	      1969	80003520	00000013	addi	x0,x0,0	  x0:0x00000000
       19715000	      1970	80003524	ffdff86f	jal	x16,80003524	 x16=0x80003524
       19725000	      1971	00000000	00000013	addi	x0,x0,0	  x0:0x00000000
       19735000	      1972	8000351c	00000013	addi	x0,x0,0	  x0:0x00000000
       19745000	      1973	80003520	00c002ef	jal	x5,80003520	  x5=0x80003520
       19755000	      1974	00000000	00000013	addi	x0,x0,0	  x0:0x00000000
       19765000	      1975	80003528	00000013	addi	x0,x0,0	  x0:0x00000000
       19775000	      1976	8000352c	01c0036f	jal	x6,8000352c	  x6=0x8000352c
       19785000	      1977	00000000	00000013	addi	x0,x0,0	  x0:0x00000000
       19795000	      1978	80003544	00000013	addi	x0,x0,0	  x0:0x00000000
       19805000	      1979	80003548	fe1ff96f	jal	x18,80003548	 x18=0x80003548
       19815000	      1980	00000000	00000013	addi	x0,x0,0	  x0:0x00000000
       19825000	      1981	80003524	00000013	addi	x0,x0,0	  x0:0x00000000
       19835000	      1982	80003528	034009ef	jal	x19,80003528	 x19=0x80003528
       19845000	      1983	00000000	00000013	addi	x0,x0,0	  x0:0x00000000
       19855000	      1984	80003558	00000013	addi	x0,x0,0	  x0:0x00000000
       19865000	      1985	8000355c	ffdff36f	jal	x6,8000355c	  x6=0x8000355c
       19875000	      1986	00000000	00000013	addi	x0,x0,0	  x0:0x00000000
       19885000	      1987	80003554	00000013	addi	x0,x0,0	  x0:0x00000000
       19895000	      1988	80003558	ffdff0ef	jal	x1,80003558	  x1=0x80003558
       19905000	      1989	00000000	00000013	addi	x0,x0,0	  x0:0x00000000
       19915000	      1990	80003550	00000013	addi	x0,x0,0	  x0:0x00000000
       19925000	      1991	80003554	0140046f	jal	x8,80003554	  x8=0x80003554
       19935000	      1992	00000000	00000013	addi	x0,x0,0	  x0:0x00000000
       19945000	      1993	80003564	00000013	addi	x0,x0,0	  x0:0x00000000
       19955000	      1994	80003568	00075793	srli	x15,x14,0x0	 x14:0x80003448 x15=0x80003448
       19965000	      1995	8000356c	02c009ef	jal	x19,8000356c	 x19=0x8000356c
       19975000	      1996	00000000	00000013	addi	x0,x0,0	  x0:0x00000000
       19985000	      1997	80003594	00000013	addi	x0,x0,0	  x0:0x00000000
       19995000	      1998	80003598	fe5ff7ef	jal	x15,80003598	 x15=0x80003598
       20005000	      1999	00000000	00000013	addi	x0,x0,0	  x0:0x00000000
       20015000	      2000	80003578	00000013	addi	x0,x0,0	  x0:0x00000000
       20025000	      2001	8000357c	ff5ff36f	jal	x6,8000357c	  x6=0x8000357c
       20035000	      2002	00000000	00000013	addi	x0,x0,0	  x0:0x00000000
       20045000	      2003	8000356c	00000013	addi	x0,x0,0	  x0:0x00000000
       20055000	      2004	80003570	01c000ef	jal	x1,80003570	  x1=0x80003570
       20065000	      2005	00000000	00000013	addi	x0,x0,0	  x0:0x00000000
       20075000	      2006	80003588	00000013	addi	x0,x0,0	  x0:0x00000000
       20085000	      2007	8000358c	ff5ff36f	jal	x6,8000358c	  x6=0x8000358c
       20095000	      2008	00000000	00000013	addi	x0,x0,0	  x0:0x00000000
       20105000	      2009	8000357c	00000013	addi	x0,x0,0	  x0:0x00000000
       20115000	      2010	80003580	0040036f	jal	x6,80003580	  x6=0x80003580
       20125000	      2011	00000000	00000013	addi	x0,x0,0	  x0:0x00000000
       20135000	      2012	80003580	00000013	addi	x0,x0,0	  x0:0x00000000
       20145000	      2013	80003584	00c000ef	jal	x1,80003584	  x1=0x80003584
       20155000	      2014	00000000	00000013	addi	x0,x0,0	  x0:0x00000000
       20165000	      2015	8000358c	00000013	addi	x0,x0,0	  x0:0x00000000
       20175000	      2016	80003590	fe9ff0ef	jal	x1,80003590	  x1=0x80003590
       20185000	      2017	00000000	00000013	addi	x0,x0,0	  x0:0x00000000
       20195000	      2018	80003574	00000013	addi	x0,x0,0	  x0:0x00000000
       20205000	      2019	80003578	01c00c6f	jal	x24,80003578	 x24=0x80003578
       20215000	      2020	00000000	00000013	addi	x0,x0,0	  x0:0x00000000
       20225000	      2021	80003590	00000013	addi	x0,x0,0	  x0:0x00000000
       20235000	      2022	80003594	ff5ffcef	jal	x25,80003594	 x25=0x80003594
       20245000	      2023	00000000	00000013	addi	x0,x0,0	  x0:0x00000000
       20255000	      2024	80003584	00000013	addi	x0,x0,0	  x0:0x00000000
       20265000	      2025	80003588	fedff0ef	jal	x1,80003588	  x1=0x80003588
       20275000	      2026	00000000	00000013	addi	x0,x0,0	  x0:0x00000000
       20285000	      2027	80003570	00000013	addi	x0,x0,0	  x0:0x00000000
       20295000	      2028	80003574	028000ef	jal	x1,80003574	  x1=0x80003574
       20305000	      2029	00000000	00000013	addi	x0,x0,0	  x0:0x00000000
       20315000	      2030	80003598	00000013	addi	x0,x0,0	  x0:0x00000000
       20325000	      2031	8000359c	01d4cc33	xor	x24,x9,x29	  x9:0x80003484 x29:0x80003478 x24=0x000000fc
       20335000	      2032	800035a0	028009ef	jal	x19,800035a0	 x19=0x800035a0
       20345000	      2033	00000000	00000013	addi	x0,x0,0	  x0:0x00000000
       20355000	      2034	800035c4	00000013	addi	x0,x0,0	  x0:0x00000000
       20365000	      2035	800035c8	010000ef	jal	x1,800035c8	  x1=0x800035c8
       20375000	      2036	00000000	00000013	addi	x0,x0,0	  x0:0x00000000
       20385000	      2037	800035d4	00000013	addi	x0,x0,0	  x0:0x00000000
       20395000	      2038	800035d8	fd5ff36f	jal	x6,800035d8	  x6=0x800035d8
       20405000	      2039	00000000	00000013	addi	x0,x0,0	  x0:0x00000000
       20415000	      2040	800035a8	00000013	addi	x0,x0,0	  x0:0x00000000
       20425000	      2041	800035ac	020000ef	jal	x1,800035ac	  x1=0x800035ac
       20435000	      2042	00000000	00000013	addi	x0,x0,0	  x0:0x00000000
       20445000	      2043	800035c8	00000013	addi	x0,x0,0	  x0:0x00000000
       20455000	      2044	800035cc	010000ef	jal	x1,800035cc	  x1=0x800035cc
       20465000	      2045	00000000	00000013	addi	x0,x0,0	  x0:0x00000000
       20475000	      2046	800035d8	00000013	addi	x0,x0,0	  x0:0x00000000
       20485000	      2047	800035dc	fd9ff0ef	jal	x1,800035dc	  x1=0x800035dc
       20495000	      2048	00000000	00000013	addi	x0,x0,0	  x0:0x00000000
       20505000	      2049	800035b0	00000013	addi	x0,x0,0	  x0:0x00000000
       20515000	      2050	800035b4	0040036f	jal	x6,800035b4	  x6=0x800035b4
       20525000	      2051	00000000	00000013	addi	x0,x0,0	  x0:0x00000000
       20535000	      2052	800035b4	00000013	addi	x0,x0,0	  x0:0x00000000
       20545000	      2053	800035b8	00400aef	jal	x21,800035b8	 x21=0x800035b8
       20555000	      2054	00000000	00000013	addi	x0,x0,0	  x0:0x00000000
       20565000	      2055	800035b8	00000013	addi	x0,x0,0	  x0:0x00000000
       20575000	      2056	800035bc	024007ef	jal	x15,800035bc	 x15=0x800035bc
       20585000	      2057	00000000	00000013	addi	x0,x0,0	  x0:0x00000000
       20595000	      2058	800035dc	00000013	addi	x0,x0,0	  x0:0x00000000
       20605000	      2059	800035e0	ff5ff86f	jal	x16,800035e0	 x16=0x800035e0
       20615000	      2060	00000000	00000013	addi	x0,x0,0	  x0:0x00000000
       20625000	      2061	800035d0	00000013	addi	x0,x0,0	  x0:0x00000000
       20635000	      2062	800035d4	fd1ff0ef	jal	x1,800035d4	  x1=0x800035d4
       20645000	      2063	00000000	00000013	addi	x0,x0,0	  x0:0x00000000
       20655000	      2064	800035a0	00000013	addi	x0,x0,0	  x0:0x00000000
       20665000	      2065	800035a4	02c000ef	jal	x1,800035a4	  x1=0x800035a4
       20675000	      2066	00000000	00000013	addi	x0,x0,0	  x0:0x00000000
       20685000	      2067	800035cc	00000013	addi	x0,x0,0	  x0:0x00000000
       20695000	      2068	800035d0	ff1ff16f	jal	x2,800035d0	  x2=0x800035d0
       20705000	      2069	00000000	00000013	addi	x0,x0,0	  x0:0x00000000
       20715000	      2070	800035bc	00000013	addi	x0,x0,0	  x0:0x00000000
       20725000	      2071	800035c0	004000ef	jal	x1,800035c0	  x1=0x800035c0
       20735000	      2072	00000000	00000013	addi	x0,x0,0	  x0:0x00000000
       20745000	      2073	800035c0	00000013	addi	x0,x0,0	  x0:0x00000000
       20755000	      2074	800035c4	fe5ff36f	jal	x6,800035c4	  x6=0x800035c4
       20765000	      2075	00000000	00000013	addi	x0,x0,0	  x0:0x00000000
       20775000	      2076	800035a4	00000013	addi	x0,x0,0	  x0:0x00000000
       20785000	      2077	800035a8	0080016f	jal	x2,800035a8	  x2=0x800035a8
       20795000	      2078	00000000	00000013	addi	x0,x0,0	  x0:0x00000000
       20805000	      2079	800035ac	00000013	addi	x0,x0,0	  x0:0x00000000
       20815000	      2080	800035b0	03400e6f	jal	x28,800035b0	 x28=0x800035b0
       20825000	      2081	00000000	00000013	addi	x0,x0,0	  x0:0x00000000
       20835000	      2082	800035e0	00000013	addi	x0,x0,0	  x0:0x00000000
       20845000	      2083	800035e4	00e4b633	sltu	x12,x9,x14	  x9:0x80003484 x14:0x80003448 x12=0x00000000
       20855000	      2084	800035e8	034009ef	jal	x19,800035e8	 x19=0x800035e8
       20865000	      2085	00000000	00000013	addi	x0,x0,0	  x0:0x00000000
       20875000	      2086	80003618	00000013	addi	x0,x0,0	  x0:0x00000000
       20885000	      2087	8000361c	fe9ff0ef	jal	x1,8000361c	  x1=0x8000361c
       20895000	      2088	00000000	00000013	addi	x0,x0,0	  x0:0x00000000
       20905000	      2089	80003600	00000013	addi	x0,x0,0	  x0:0x00000000
       20915000	      2090	80003604	0380036f	jal	x6,80003604	  x6=0x80003604
       20925000	      2091	00000000	00000013	addi	x0,x0,0	  x0:0x00000000
       20935000	      2092	80003638	00000013	addi	x0,x0,0	  x0:0x00000000
       20945000	      2093	8000363c	004000ef	jal	x1,8000363c	  x1=0x8000363c
       20955000	      2094	00000000	00000013	addi	x0,x0,0	  x0:0x00000000
       20965000	      2095	8000363c	00000013	addi	x0,x0,0	  x0:0x00000000
       20975000	      2096	80003640	fc9ffc6f	jal	x24,80003640	 x24=0x80003640
       20985000	      2097	00000000	00000013	addi	x0,x0,0	  x0:0x00000000
       20995000	      2098	80003604	00000013	addi	x0,x0,0	  x0:0x00000000
       21005000	      2099	80003608	0040036f	jal	x6,80003608	  x6=0x80003608
       21015000	      2100	00000000	00000013	addi	x0,x0,0	  x0:0x00000000
       21025000	      2101	80003608	00000013	addi	x0,x0,0	  x0:0x00000000
       21035000	      2102	8000360c	00800aef	jal	x21,8000360c	 x21=0x8000360c
       21045000	      2103	00000000	00000013	addi	x0,x0,0	  x0:0x00000000
       21055000	      2104	80003610	00000013	addi	x0,x0,0	  x0:0x00000000
       21065000	      2105	80003614	fe5ff0ef	jal	x1,80003614	  x1=0x80003614
       21075000	      2106	00000000	00000013	addi	x0,x0,0	  x0:0x00000000
       21085000	      2107	800035f4	00000013	addi	x0,x0,0	  x0:0x00000000
       21095000	      2108	800035f8	038000ef	jal	x1,800035f8	  x1=0x800035f8
       21105000	      2109	00000000	00000013	addi	x0,x0,0	  x0:0x00000000
       21115000	      2110	8000362c	00000013	addi	x0,x0,0	  x0:0x00000000
       21125000	      2111	80003630	fd1fff6f	jal	x30,80003630	 x30=0x80003630
       21135000	      2112	00000000	00000013	addi	x0,x0,0	  x0:0x00000000
       21145000	      2113	800035fc	00000013	addi	x0,x0,0	  x0:0x00000000
       21155000	      2114	80003600	0480036f	jal	x6,80003600	  x6=0x80003600
       21165000	      2115	00000000	00000013	addi	x0,x0,0	  x0:0x00000000
       21175000	      2116	80003644	00000013	addi	x0,x0,0	  x0:0x00000000
       21185000	      2117	80003648	fddff0ef	jal	x1,80003648	  x1=0x80003648
       21195000	      2118	00000000	00000013	addi	x0,x0,0	  x0:0x00000000
       21205000	      2119	80003620	00000013	addi	x0,x0,0	  x0:0x00000000
       21215000	      2120	80003624	00400f6f	jal	x30,80003624	 x30=0x80003624
       21225000	      2121	00000000	00000013	addi	x0,x0,0	  x0:0x00000000
       21235000	      2122	80003624	00000013	addi	x0,x0,0	  x0:0x00000000
       21245000	      2123	80003628	ff9ff7ef	jal	x15,80003628	 x15=0x80003628
       21255000	      2124	00000000	00000013	addi	x0,x0,0	  x0:0x00000000
       21265000	      2125	8000361c	00000013	addi	x0,x0,0	  x0:0x00000000
       21275000	      2126	80003620	0180036f	jal	x6,80003620	  x6=0x80003620
       21285000	      2127	00000000	00000013	addi	x0,x0,0	  x0:0x00000000
       21295000	      2128	80003634	00000013	addi	x0,x0,0	  x0:0x00000000
       21305000	      2129	80003638	ffdff0ef	jal	x1,80003638	  x1=0x80003638
       21315000	      2130	00000000	00000013	addi	x0,x0,0	  x0:0x00000000
       21325000	      2131	80003630	00000013	addi	x0,x0,0	  x0:0x00000000
       21335000	      2132	80003634	010000ef	jal	x1,80003634	  x1=0x80003634
       21345000	      2133	00000000	00000013	addi	x0,x0,0	  x0:0x00000000
       21355000	      2134	80003640	00000013	addi	x0,x0,0	  x0:0x00000000
       21365000	      2135	80003644	fadff0ef	jal	x1,80003644	  x1=0x80003644
       21375000	      2136	00000000	00000013	addi	x0,x0,0	  x0:0x00000000
       21385000	      2137	800035ec	00000013	addi	x0,x0,0	  x0:0x00000000
       21395000	      2138	800035f0	00c000ef	jal	x1,800035f0	  x1=0x800035f0
       21405000	      2139	00000000	00000013	addi	x0,x0,0	  x0:0x00000000
       21415000	      2140	800035f8	00000013	addi	x0,x0,0	  x0:0x00000000
       21425000	      2141	800035fc	030000ef	jal	x1,800035fc	  x1=0x800035fc
       21435000	      2142	00000000	00000013	addi	x0,x0,0	  x0:0x00000000
       21445000	      2143	80003628	00000013	addi	x0,x0,0	  x0:0x00000000
       21455000	      2144	8000362c	fedff0ef	jal	x1,8000362c	  x1=0x8000362c
       21465000	      2145	00000000	00000013	addi	x0,x0,0	  x0:0x00000000
       21475000	      2146	80003614	00000013	addi	x0,x0,0	  x0:0x00000000
       21485000	      2147	80003618	ff9ff2ef	jal	x5,80003618	  x5=0x80003618
       21495000	      2148	00000000	00000013	addi	x0,x0,0	  x0:0x00000000
       21505000	      2149	8000360c	00000013	addi	x0,x0,0	  x0:0x00000000
       21515000	      2150	80003610	fddff16f	jal	x2,80003610	  x2=0x80003610
       21525000	      2151	00000000	00000013	addi	x0,x0,0	  x0:0x00000000
       21535000	      2152	800035e8	00000013	addi	x0,x0,0	  x0:0x00000000
       21545000	      2153	800035ec	008001ef	jal	x3,800035ec	  x3=0x800035ec
       21555000	      2154	00000000	00000013	addi	x0,x0,0	  x0:0x00000000
       21565000	      2155	800035f0	00000013	addi	x0,x0,0	  x0:0x00000000
       21575000	      2156	800035f4	058000ef	jal	x1,800035f4	  x1=0x800035f4
       21585000	      2157	00000000	00000013	addi	x0,x0,0	  x0:0x00000000
       21595000	      2158	80003648	00000013	addi	x0,x0,0	  x0:0x00000000
       21605000	      2159	8000364c	004000ef	jal	x1,8000364c	  x1=0x8000364c
       21615000	      2160	00000000	00000013	addi	x0,x0,0	  x0:0x00000000
       21625000	      2161	8000364c	00000013	addi	x0,x0,0	  x0:0x00000000
       21635000	      2162	80003650	f1112e93	slti	x29,x2,-239	  x2:0x80003610 x29=0x00000001
       21645000	      2163	80003654	ce428793	addi	x15,x5,-796	  x5:0x80003618 x15=0x800032fc
       21655000	      2164	80003658	00693c33	sltu	x24,x18,x6	 x18:0x80003548  x6:0x80003620 x24=0x00000001
       21665000	      2165	8000365c	00000013	addi	x0,x0,0	  x0:0x00000000
       21675000	      2166	80003660	005bb933	sltu	x18,x23,x5	 x23:0x80003424  x5:0x80003618 x18=0x00000001
       21685000	      2167	80003664	01eb6ab3	or	x21,x22,x30	 x22:0x80003560 x30:0x80003624 x21=0x80003764
       21695000	      2168	80003668	41b45313	srai	x6,x8,0x1b	  x8:0x80003554  x6=0xfffffff0
       21705000	      2169	8000366c	055bd263	bge	x23,x21,800036b0	 x23:0x80003424 x21:0x80003764
       21715000	      2170	80003670	eca811b7	lui	x3,0xeca81	  x3=0xeca81000
       21725000	      2171	80003674	00387133	and	x2,x16,x3	 x16:0x800035e0  x3:0xeca81000  x2=0x80001000
       21735000	      2172	80003678	0101abb3	slt	x23,x3,x16	  x3:0xeca81000 x16:0x800035e0 x23=0x00000000
       21745000	      2173	8000367c	00a54b33	xor	x22,x10,x10	 x10:0x800034c0 x10:0x800034c0 x22=0x00000000
       21755000	      2174	80003680	00000013	addi	x0,x0,0	  x0:0x00000000
       21765000	      2175	80003684	00000013	addi	x0,x0,0	  x0:0x00000000
       21775000	      2176	80003688	00f44833	xor	x16,x8,x15	  x8:0x80003554 x15:0x800032fc x16=0x000007a8
       21785000	      2177	8000368c	02475263	bge	x14,x4,800036b0	 x14:0x80003448  x4:0x80003534
       21795000	      2178	80003690	01791813	slli	x16,x18,0x17	 x18:0x00000001 x16=0x00800000
       21805000	      2179	80003694	012154b3	srl	x9,x2,x18	  x2:0x80001000 x18:0x00000001  x9=0x40000800
       21815000	      2180	80003698	04b65863	bge	x12,x11,800036e8	 x12:0x00000000 x11:0x242f6440
       21825000	      2181	8000369c	00000013	addi	x0,x0,0	  x0:0x00000000
       21835000	      2182	800036a0	00cf5663	bge	x30,x12,800036ac	 x30:0x80003624 x12:0x00000000
       21845000	      2183	800036a4	044f4063	blt	x30,x4,800036e4	 x30:0x80003624  x4:0x80003534
       21855000	      2184	800036a8	01f4f9b3	and	x19,x9,x31	  x9:0x40000800 x31:0x80009f44 x19=0x00000800
       21865000	      2185	800036ac	01383833	sltu	x16,x16,x19	 x16:0x00800000 x19:0x00000800 x16=0x00000000
       21875000	      2186	800036b0	01d4a233	slt	x4,x9,x29	  x9:0x40000800 x29:0x00000001  x4=0x00000000
       21885000	      2187	800036b4	414edc93	srai	x25,x29,0x14	 x29:0x00000001 x25=0x00000000
       21895000	      2188	800036b8	41915833	sra	x16,x2,x25	  x2:0x80001000 x25:0x00000000 x16=0x80001000
       21905000	      2189	800036bc	41fa8b33	sub	x22,x21,x31	 x21:0x80003764 x31:0x80009f44 x22=0xffff9820
       21915000	      2190	800036c0	018600b3	add	x1,x12,x24	 x12:0x00000000 x24:0x00000001  x1=0x00000001
       21925000	      2191	800036c4	005e4233	xor	x4,x28,x5	 x28:0x800035b0  x5:0x80003618  x4=0x000003a8
       21935000	      2192	800036c8	01b11c33	sll	x24,x2,x27	  x2:0x80001000 x27:0x80003493 x24=0x80000000
       21945000	      2193	800036cc	012bc1b3	xor	x3,x23,x18	 x23:0x00000000 x18:0x00000001  x3=0x00000001
       21955000	      2194	800036d0	cfb32317	auipc	x6,0xcfb32	  x6=0x4fb356cc
       21965000	      2195	800036d4	417588b3	sub	x17,x11,x23	 x11:0x242f6440 x23:0x00000000 x17=0x242f6440
       21975000	      2196	800036d8	a3167893	andi	x17,x12,-1487	 x12:0x00000000 x17=0x00000000
       21985000	      2197	800036dc	f08dba37	lui	x20,0xf08db	 x20=0xf08db000
       21995000	      2198	800036e0	41110eb3	sub	x29,x2,x17	  x2:0x80001000 x17:0x00000000 x29=0x80001000
       22005000	      2199	800036e4	f2d67c37	lui	x24,0xf2d67	 x24=0xf2d67000
       22015000	      2200	800036e8	e0b40193	addi	x3,x8,-501	  x8:0x80003554  x3=0x8000335f
       22025000	      2201	800036ec	0020de93	srli	x29,x1,0x2	  x1:0x00000001 x29=0x00000000
       22035000	      2202	800036f0	41ec82b3	sub	x5,x25,x30	 x25:0x00000000 x30:0x80003624  x5=0x7fffc9dc
       22045000	      2203	800036f4	ea5eddb7	lui	x27,0xea5ed	 x27=0xea5ed000
       22055000	      2204	800036f8	55d3e213	ori	x4,x7,1373	  x7:0x80009fc4  x4=0x80009fdd
       22065000	      2205	800036fc	5cc4c617	auipc	x12,0x5cc4c	 x12=0xdcc4f6f8
       22075000	      2206	80003700	00f068b3	or	x17,x0,x15	  x0:0x00000000 x15:0x800032fc x17=0x800032fc
       22085000	      2207	80003704	6c629e97	auipc	x29,0x6c629	 x29=0xec62c700
       22095000	      2208	80003708	da7df993	andi	x19,x27,-601	 x27:0xea5ed000 x19=0xea5ed000
       22105000	      2209	8000370c	04ae4463	blt	x28,x10,80003754	 x28:0x800035b0 x10:0x800034c0
       22115000	      2210	80003710	01214c63	blt	x2,x18,80003728	  x2:0x80001000 x18:0x00000001
       22125000	      2211	00000000	00000013	addi	x0,x0,0	  x0:0x00000000
       22135000	      2212	80003724	00000013	addi	x0,x0,0	  x0:0x00000000
       22145000	      2213	80003728	00b2aab3	slt	x21,x5,x11	  x5:0x7fffc9dc x11:0x242f6440 x21=0x00000000
       22155000	      2214	8000372c	013c00b3	add	x1,x24,x19	 x24:0xf2d67000 x19:0xea5ed000  x1=0xdd354000
       22165000	      2215	80003730	ef3904b7	lui	x9,0xef390	  x9=0xef390000
       22175000	      2216	80003734	0313d663	bge	x7,x17,80003760	  x7:0x80009fc4 x17:0x800032fc
       22185000	      2217	00000000	00000013	addi	x0,x0,0	  x0:0x00000000
       22195000	      2218	8000375c	00000013	addi	x0,x0,0	  x0:0x00000000
       22205000	      2219	80003760	00c5d733	srl	x14,x11,x12	 x11:0x242f6440 x12:0xdcc4f6f8 x14=0x00000024
       22215000	      2220	80003764	40cfd733	sra	x14,x31,x12	 x31:0x80009f44 x12:0xdcc4f6f8 x14=0xffffff80
       22225000	      2221	80003768	407f8033	sub	x0,x31,x7	 x31:0x80009f44  x7:0x80009fc4
       22235000	      2222	8000376c	cfda3697	auipc	x13,0xcfda3	 x13=0x4fda6768
       22245000	      2223	80003770	d5710593	addi	x11,x2,-681	  x2:0x80001000 x11=0x80000d57
       22255000	      2224	80003774	00054c33	xor	x24,x10,x0	 x10:0x800034c0  x0:0x00000000 x24=0x800034c0
       22265000	      2225	80003778	00000013	addi	x0,x0,0	  x0:0x00000000
       22275000	      2226	8000377c	01a07533	and	x10,x0,x26	  x0:0x00000000 x26:0x80000000 x10=0x00000000
       22285000	      2227	80003780	41d75113	srai	x2,x14,0x1d	 x14:0xffffff80  x2=0xffffffff
       22295000	      2228	80003784	01e03c33	sltu	x24,x0,x30	  x0:0x00000000 x30:0x80003624 x24=0x00000001
       22305000	      2229	80003788	0122d9b3	srl	x19,x5,x18	  x5:0x7fffc9dc x18:0x00000001 x19=0x3fffe4ee
       22315000	      2230	8000378c	d9abe893	ori	x17,x23,-614	 x23:0x00000000 x17=0xfffffd9a
       22325000	      2231	80003790	02ff1063	bne	x30,x15,800037b0	 x30:0x80003624 x15:0x800032fc
       22335000	      2232	00000000	00000013	addi	x0,x0,0	  x0:0x00000000
       22345000	      2233	800037ac	00000013	addi	x0,x0,0	  x0:0x00000000
       22355000	      2234	800037b0	01734e63	blt	x6,x23,800037cc	  x6:0x4fb356cc x23:0x00000000
       22365000	      2235	800037b4	18314e13	xori	x28,x2,387	  x2:0xffffffff x28=0xfffffe7c
       22375000	      2236	800037b8	404fd0b3	sra	x1,x31,x4	 x31:0x80009f44  x4:0x80009fdd  x1=0xfffffffc
       22385000	      2237	800037bc	49147a17	auipc	x20,0x49147	 x20=0xc914a7b8
       22395000	      2238	800037c0	0e1c3213	sltiu	x4,x24,225	 x24:0x00000001  x4=0x00000001
       22405000	      2239	800037c4	0369dbb7	lui	x23,0x369d	 x23=0x0369d000
       22415000	      2240	800037c8	012c5933	srl	x18,x24,x18	 x24:0x00000001 x18:0x00000001 x18=0x00000000
       22425000	      2241	800037cc	2bf3c493	xori	x9,x7,703	  x7:0x80009fc4  x9=0x80009d7b
       22435000	      2242	800037d0	02824663	blt	x4,x8,800037fc	  x4:0x00000001  x8:0x80003554
       22445000	      2243	800037d4	01389263	bne	x17,x19,800037d8	 x17:0xfffffd9a x19:0x3fffe4ee
       22455000	      2244	00000000	00000013	addi	x0,x0,0	  x0:0x00000000
       22465000	      2245	800037d4	00000013	addi	x0,x0,0	  x0:0x00000000
       22475000	      2246	800037d8	0040d213	srli	x4,x1,0x4	  x1:0xfffffffc  x4=0x0fffffff
       22485000	      2247	800037dc	c378ee13	ori	x28,x17,-969	 x17:0xfffffd9a x28=0xfffffdbf
       22495000	      2248	800037e0	04cc9263	bne	x25,x12,80003824	 x25:0x00000000 x12:0xdcc4f6f8
       22505000	      2249	00000000	00000013	addi	x0,x0,0	  x0:0x00000000
       22515000	      2250	80003820	00000013	addi	x0,x0,0	  x0:0x00000000
       22525000	      2251	80003824	00381013	slli	x0,x16,0x3	 x16:0x80001000
       22535000	      2252	80003828	01e014b3	sll	x9,x0,x30	  x0:0x00000000 x30:0x80003624  x9=0x00000000
       22545000	      2253	8000382c	b74b3093	sltiu	x1,x22,-1164	 x22:0xffff9820  x1=0x00000001
       22555000	      2254	80003830	20b0e993	ori	x19,x1,523	  x1:0x00000001 x19=0x0000020b
       22565000	      2255	80003834	01794e63	blt	x18,x23,80003850	 x18:0x00000000 x23:0x0369d000
       22575000	      2256	00000000	00000013	addi	x0,x0,0	  x0:0x00000000
       22585000	      2257	8000384c	00000013	addi	x0,x0,0	  x0:0x00000000
       22595000	      2258	80003850	04f2f463	bgeu	x5,x15,80003898	  x5:0x7fffc9dc x15:0x800032fc
       22605000	      2259	80003854	00ec5e13	srli	x28,x24,0xe	 x24:0x00000001 x28=0x00000000
       22615000	      2260	80003858	4d6f6913	ori	x18,x30,1238	 x30:0x80003624 x18=0x800036f6
       22625000	      2261	8000385c	00eaf333	and	x6,x21,x14	 x21:0x00000000 x14:0xffffff80  x6=0x00000000
       22635000	      2262	80003860	936b2b13	slti	x22,x22,-1738	 x22:0xffff9820 x22=0x00000001
       22645000	      2263	80003864	0186ecb3	or	x25,x13,x24	 x13:0x4fda6768 x24:0x00000001 x25=0x4fda6769
       22655000	      2264	80003868	02181063	bne	x16,x1,80003888	 x16:0x80001000  x1:0x00000001
       22665000	      2265	00000000	00000013	addi	x0,x0,0	  x0:0x00000000
       22675000	      2266	80003884	00000013	addi	x0,x0,0	  x0:0x00000000
       22685000	      2267	80003888	41d3d813	srai	x16,x7,0x1d	  x7:0x80009fc4 x16=0xfffffffc
       22695000	      2268	8000388c	df9c6a13	ori	x20,x24,-519	 x24:0x00000001 x20=0xfffffdf9
       22705000	      2269	80003890	825fa793	slti	x15,x31,-2011	 x31:0x80009f44 x15=0x00000001
       22715000	      2270	80003894	41dd86b3	sub	x13,x27,x29	 x27:0xea5ed000 x29:0xec62c700 x13=0xfdfc0900
       22725000	      2271	80003898	b83dfa13	andi	x20,x27,-1149	 x27:0xea5ed000 x20=0xea5ed000
       22735000	      2272	8000389c	00c494b3	sll	x9,x9,x12	  x9:0x00000000 x12:0xdcc4f6f8  x9=0x00000000
       22745000	      2273	800038a0	02d5fa63	bgeu	x11,x13,800038d4	 x11:0x80000d57 x13:0xfdfc0900
       22755000	      2274	800038a4	3258ef13	ori	x30,x17,805	 x17:0xfffffd9a x30=0xffffffbf
       22765000	      2275	800038a8	006c1213	slli	x4,x24,0x6	 x24:0x00000001  x4=0x00000040
       22775000	      2276	800038ac	05c18863	beq	x3,x28,800038fc	  x3:0x8000335f x28:0x00000000
       22785000	      2277	800038b0	01769f13	slli	x30,x13,0x17	 x13:0xfdfc0900 x30=0x80000000
       22795000	      2278	800038b4	04969063	bne	x13,x9,800038f4	 x13:0xfdfc0900  x9:0x00000000
       22805000	      2279	00000000	00000013	addi	x0,x0,0	  x0:0x00000000
       22815000	      2280	800038f0	00000013	addi	x0,x0,0	  x0:0x00000000
       22825000	      2281	800038f4	1e1ba593	slti	x11,x23,481	 x23:0x0369d000 x11=0x00000000
       22835000	      2282	800038f8	408b0833	sub	x16,x22,x8	 x22:0x00000001  x8:0x80003554 x16=0x7fffcaad
       22845000	      2283	800038fc	beddbf17	auipc	x30,0xbeddb	 x30=0x3edde8f8
       22855000	      2284	80003900	01d2ce93	xori	x29,x5,29	  x5:0x7fffc9dc x29=0x7fffc9c1
       22865000	      2285	80003904	310a2e13	slti	x28,x20,784	 x20:0xea5ed000 x28=0x00000001
       22875000	      2286	80003908	3df27b13	andi	x22,x4,991	  x4:0x00000040 x22=0x00000040
       22885000	      2287	8000390c	0003a4b3	slt	x9,x7,x0	  x7:0x80009fc4  x0:0x00000000  x9=0x00000001
       22895000	      2288	80003910	00000013	addi	x0,x0,0	  x0:0x00000000
       22905000	      2289	80003914	02ae1263	bne	x28,x10,80003938	 x28:0x00000001 x10:0x00000000
       22915000	      2290	00000000	00000013	addi	x0,x0,0	  x0:0x00000000
       22925000	      2291	80003934	00000013	addi	x0,x0,0	  x0:0x00000000
       22935000	      2292	80003938	022b0463	beq	x22,x2,80003960	 x22:0x00000040  x2:0xffffffff
       22945000	      2293	8000393c	01b09313	slli	x6,x1,0x1b	  x1:0x00000001  x6=0x08000000
       22955000	      2294	80003940	00000013	addi	x0,x0,0	  x0:0x00000000
       22965000	      2295	80003944	01d77bb3	and	x23,x14,x29	 x14:0xffffff80 x29:0x7fffc9c1 x23=0x7fffc980
       22975000	      2296	80003948	00e21833	sll	x16,x4,x14	  x4:0x00000040 x14:0xffffff80 x16=0x00000040
       22985000	      2297	8000394c	00b0e1b3	or	x3,x1,x11	  x1:0x00000001 x11:0x00000000  x3=0x00000001
       22995000	      2298	80003950	00421463	bne	x4,x4,80003958	  x4:0x00000040  x4:0x00000040
       23005000	      2299	80003954	003c4033	xor	x0,x24,x3	 x24:0x00000001  x3:0x00000001
       23015000	      2300	80003958	00bb1e63	bne	x22,x11,80003974	 x22:0x00000040 x11:0x00000000
       23025000	      2301	00000000	00000013	addi	x0,x0,0	  x0:0x00000000
       23035000	      2302	80003970	00000013	addi	x0,x0,0	  x0:0x00000000
       23045000	      2303	80003974	018ed833	srl	x16,x29,x24	 x29:0x7fffc9c1 x24:0x00000001 x16=0x3fffe4e0
       23055000	      2304	80003978	47bcb993	sltiu	x19,x25,1147	 x25:0x4fda6769 x19=0x00000000
       23065000	      2305	8000397c	4120d593	srai	x11,x1,0x12	  x1:0x00000001 x11=0x00000000
       23075000	      2306	80003980	00000013	addi	x0,x0,0	  x0:0x00000000
       23085000	      2307	80003984	04206263	bltu	x0,x2,800039c8	  x0:0x00000000  x2:0xffffffff
       23095000	      2308	00000000	00000013	addi	x0,x0,0	  x0:0x00000000
       23105000	      2309	800039c4	00000013	addi	x0,x0,0	  x0:0x00000000
       23115000	      2310	800039c8	000b98b3	sll	x17,x23,x0	 x23:0x7fffc980  x0:0x00000000 x17=0x7fffc980
       23125000	      2311	800039cc	00851f13	slli	x30,x10,0x8	 x10:0x00000000 x30=0x00000000
       23135000	      2312	800039d0	3fb90737	lui	x14,0x3fb90	 x14=0x3fb90000
       23145000	      2313	800039d4	00000013	addi	x0,x0,0	  x0:0x00000000
       23155000	      2314	800039d8	04de0463	beq	x28,x13,80003a20	 x28:0x00000001 x13:0xfdfc0900
       23165000	      2315	800039dc	0465f263	bgeu	x11,x6,80003a20	 x11:0x00000000  x6:0x08000000
       23175000	      2316	800039e0	4164d433	sra	x8,x9,x22	  x9:0x00000001 x22:0x00000040  x8=0x00000001
       23185000	      2317	800039e4	28ee8193	addi	x3,x29,654	 x29:0x7fffc9c1  x3=0x7fffcc4f
       23195000	      2318	800039e8	41e65a33	sra	x20,x12,x30	 x12:0xdcc4f6f8 x30:0x00000000 x20=0xdcc4f6f8
       23205000	      2319	800039ec	00868733	add	x14,x13,x8	 x13:0xfdfc0900  x8:0x00000001 x14=0xfdfc0901
       23215000	      2320	800039f0	412d59b3	sra	x19,x26,x18	 x26:0x80000000 x18:0x800036f6 x19=0xfffffe00
       23225000	      2321	800039f4	9bad4413	xori	x8,x26,-1606	 x26:0x80000000  x8=0x7ffff9ba
       23235000	      2322	800039f8	1d086193	ori	x3,x16,464	 x16:0x3fffe4e0  x3=0x3fffe5f0
       23245000	      2323	800039fc	fd0eeb93	ori	x23,x29,-48	 x29:0x7fffc9c1 x23=0xffffffd1
       23255000	      2324	80003a00	40bee593	ori	x11,x29,1035	 x29:0x7fffc9c1 x11=0x7fffcdcb
       23265000	      2325	80003a04	01561233	sll	x4,x12,x21	 x12:0xdcc4f6f8 x21:0x00000000  x4=0xdcc4f6f8
       23275000	      2326	80003a08	33edb693	sltiu	x13,x27,830	 x27:0xea5ed000 x13=0x00000000
       23285000	      2327	80003a0c	01c23733	sltu	x14,x4,x28	  x4:0xdcc4f6f8 x28:0x00000001 x14=0x00000000
       23295000	      2328	80003a10	00cdee63	bltu	x27,x12,80003a2c	 x27:0xea5ed000 x12:0xdcc4f6f8
       23305000	      2329	80003a14	41735a93	srai	x21,x6,0x17	  x6:0x08000000 x21=0x00000010
       23315000	      2330	80003a18	01da1cb3	sll	x25,x20,x29	 x20:0xdcc4f6f8 x29:0x7fffc9c1 x25=0xb989edf0
       23325000	      2331	80003a1c	017c9113	slli	x2,x25,0x17	 x25:0xb989edf0  x2=0xf8000000
       23335000	      2332	80003a20	00616c63	bltu	x2,x6,80003a38	  x2:0xf8000000  x6:0x08000000
       23345000	      2333	80003a24	03488c63	beq	x17,x20,80003a5c	 x17:0x7fffc980 x20:0xdcc4f6f8
       23355000	      2334	80003a28	9890e493	ori	x9,x1,-1655	  x1:0x00000001  x9=0xfffff989
       23365000	      2335	80003a2c	419005b3	sub	x11,x0,x25	  x0:0x00000000 x25:0xb989edf0 x11=0x46761210
       23375000	      2336	80003a30	ec473993	sltiu	x19,x14,-316	 x14:0x00000000 x19=0x00000001
       23385000	      2337	80003a34	6eff3d93	sltiu	x27,x30,1775	 x30:0x00000000 x27=0x00000001
       23395000	      2338	80003a38	dc5d0d93	addi	x27,x26,-571	 x26:0x80000000 x27=0x7ffffdc5
       23405000	      2339	80003a3c	a14f0d93	addi	x27,x30,-1516	 x30:0x00000000 x27=0xfffffa14
       23415000	      2340	80003a40	41eb0433	sub	x8,x22,x30	 x22:0x00000040 x30:0x00000000  x8=0x00000040
       23425000	      2341	80003a44	4134d313	srai	x6,x9,0x13	  x9:0xfffff989  x6=0xffffffff
       23435000	      2342	80003a48	41cbddb3	sra	x27,x23,x28	 x23:0xffffffd1 x28:0x00000001 x27=0xffffffe8
       23445000	      2343	80003a4c	40c28733	sub	x14,x5,x12	  x5:0x7fffc9dc x12:0xdcc4f6f8 x14=0xa33ad2e4
       23455000	      2344	80003a50	4024dc93	srai	x25,x9,0x2	  x9:0xfffff989 x25=0xfffffe62
       23465000	      2345	80003a54	0186b233	sltu	x4,x13,x24	 x13:0x00000000 x24:0x00000001  x4=0x00000001
       23475000	      2346	80003a58	075a6213	ori	x4,x20,117	 x20:0xdcc4f6f8  x4=0xdcc4f6fd
       23485000	      2347	80003a5c	00ac1db3	sll	x27,x24,x10	 x24:0x00000001 x10:0x00000000 x27=0x00000001
       23495000	      2348	80003a60	00000013	addi	x0,x0,0	  x0:0x00000000
       23505000	      2349	80003a64	03cc5663	bge	x24,x28,80003a90	 x24:0x00000001 x28:0x00000001
       23515000	      2350	00000000	00000013	addi	x0,x0,0	  x0:0x00000000
       23525000	      2351	80003a8c	00000013	addi	x0,x0,0	  x0:0x00000000
       23535000	      2352	80003a90	00b19a93	slli	x21,x3,0xb	  x3:0x3fffe5f0 x21=0xff2f8000
       23545000	      2353	80003a94	04864063	blt	x12,x8,80003ad4	 x12:0xdcc4f6f8  x8:0x00000040
       23555000	      2354	00000000	00000013	addi	x0,x0,0	  x0:0x00000000
       23565000	      2355	80003ad0	00000013	addi	x0,x0,0	  x0:0x00000000
       23575000	      2356	80003ad4	bc206013	ori	x0,x0,-1086	  x0:0x00000000
       23585000	      2357	80003ad8	01d6b233	sltu	x4,x13,x29	 x13:0x00000000 x29:0x7fffc9c1  x4=0x00000001
       23595000	      2358	80003adc	008a8933	add	x18,x21,x8	 x21:0xff2f8000  x8:0x00000040 x18=0xff2f8040
       23605000	      2359	80003ae0	028df063	bgeu	x27,x8,80003b00	 x27:0x00000001  x8:0x00000040
       23615000	      2360	80003ae4	027c4063	blt	x24,x7,80003b04	 x24:0x00000001  x7:0x80009fc4
       23625000	      2361	80003ae8	00000013	addi	x0,x0,0	  x0:0x00000000
       23635000	      2362	80003aec	4b13fd93	andi	x27,x7,1201	  x7:0x80009fc4 x27=0x00000480
       23645000	      2363	80003af0	04da7463	bgeu	x20,x13,80003b38	 x20:0xdcc4f6f8 x13:0x00000000
       23655000	      2364	00000000	00000013	addi	x0,x0,0	  x0:0x00000000
       23665000	      2365	80003b34	00000013	addi	x0,x0,0	  x0:0x00000000
       23675000	      2366	80003b38	00348663	beq	x9,x3,80003b44	  x9:0xfffff989  x3:0x3fffe5f0
       23685000	      2367	80003b3c	36dd7693	andi	x13,x26,877	 x26:0x80000000 x13=0x00000000
       23695000	      2368	80003b40	0080dbb3	srl	x23,x1,x8	  x1:0x00000001  x8:0x00000040 x23=0x00000001
       23705000	      2369	80003b44	007a6633	or	x12,x20,x7	 x20:0xdcc4f6f8  x7:0x80009fc4 x12=0xdcc4fffc
       23715000	      2370	80003b48	a64fc893	xori	x17,x31,-1436	 x31:0x80009f44 x17=0x7fff6520
       23725000	      2371	80003b4c	4330e693	ori	x13,x1,1075	  x1:0x00000001 x13=0x00000433
       23735000	      2372	80003b50	04fcf263	bgeu	x25,x15,80003b94	 x25:0xfffffe62 x15:0x00000001
       23745000	      2373	00000000	00000013	addi	x0,x0,0	  x0:0x00000000
       23755000	      2374	80003b90	00000013	addi	x0,x0,0	  x0:0x00000000
       23765000	      2375	80003b94	b3fa2c93	slti	x25,x20,-1217	 x20:0xdcc4f6f8 x25=0x00000001
       23775000	      2376	80003b98	0104c133	xor	x2,x9,x16	  x9:0xfffff989 x16:0x3fffe4e0  x2=0xc0001d69
       23785000	      2377	80003b9c	a5c48913	addi	x18,x9,-1444	  x9:0xfffff989 x18=0xfffff3e5
       23795000	      2378	80003ba0	2e72aa17	auipc	x20,0x2e72a	 x20=0xae72db9c
       23805000	      2379	80003ba4	00000013	addi	x0,x0,0	  x0:0x00000000
       23815000	      2380	80003ba8	74b60a93	addi	x21,x12,1867	 x12:0xdcc4fffc x21=0xdcc50747
       23825000	      2381	80003bac	0033d913	srli	x18,x7,0x3	  x7:0x80009fc4 x18=0x100013f8
       23835000	      2382	80003bb0	007fcbb3	xor	x23,x31,x7	 x31:0x80009f44  x7:0x80009fc4 x23=0x00000080
       23845000	      2383	80003bb4	00e21ab3	sll	x21,x4,x14	  x4:0x00000001 x14:0xa33ad2e4 x21=0x00000010
       23855000	      2384	80003bb8	02f5ae93	slti	x29,x11,47	 x11:0x46761210 x29=0x00000000
       23865000	      2385	80003bbc	038ff663	bgeu	x31,x24,80003be8	 x31:0x80009f44 x24:0x00000001
       23875000	      2386	00000000	00000013	addi	x0,x0,0	  x0:0x00000000
       23885000	      2387	80003be4	00000013	addi	x0,x0,0	  x0:0x00000000
       23895000	      2388	80003be8	03ee5663	bge	x28,x30,80003c14	 x28:0x00000001 x30:0x00000000
       23905000	      2389	00000000	00000013	addi	x0,x0,0	  x0:0x00000000
       23915000	      2390	80003c10	00000013	addi	x0,x0,0	  x0:0x00000000
       23925000	      2391	80003c14	04e99063	bne	x19,x14,80003c54	 x19:0x00000001 x14:0xa33ad2e4
       23935000	      2392	00000000	00000013	addi	x0,x0,0	  x0:0x00000000
       23945000	      2393	80003c50	00000013	addi	x0,x0,0	  x0:0x00000000
       23955000	      2394	80003c54	017cec63	bltu	x25,x23,80003c6c	 x25:0x00000001 x23:0x00000080
       23965000	      2395	00000000	00000013	addi	x0,x0,0	  x0:0x00000000
       23975000	      2396	80003c68	00000013	addi	x0,x0,0	  x0:0x00000000
       23985000	      2397	80003c6c	02069063	bne	x13,x0,80003c8c	 x13:0x00000433  x0:0x00000000
       23995000	      2398	00000000	00000013	addi	x0,x0,0	  x0:0x00000000
       24005000	      2399	80003c88	00000013	addi	x0,x0,0	  x0:0x00000000
       24015000	      2400	80003c8c	ee2ba713	slti	x14,x23,-286	 x23:0x00000080 x14=0x00000000
       24025000	      2401	80003c90	cc3a0193	addi	x3,x20,-829	 x20:0xae72db9c  x3=0xae72d85f
       24035000	      2402	80003c94	01b8b633	sltu	x12,x17,x27	 x17:0x7fff6520 x27:0x00000480 x12=0x00000000
       24045000	      2403	80003c98	003ffe63	bgeu	x31,x3,80003cb4	 x31:0x80009f44  x3:0xae72d85f
       24055000	      2404	80003c9c	40c4d693	srai	x13,x9,0xc	  x9:0xfffff989 x13=0xffffffff
       24065000	      2405	80003ca0	7956a697	auipc	x13,0x7956a	 x13=0xf956dc9c
       24075000	      2406	80003ca4	8a37a693	slti	x13,x15,-1885	 x15:0x00000001 x13=0x00000000
       24085000	      2407	80003ca8	193f2a93	slti	x21,x30,403	 x30:0x00000000 x21=0x00000001
       24095000	      2408	80003cac	bee03713	sltiu	x14,x0,-1042	  x0:0x00000000 x14=0x00000001
       24105000	      2409	80003cb0	0053ddb3	srl	x27,x7,x5	  x7:0x80009fc4  x5:0x7fffc9dc x27=0x00000008
       24115000	      2410	80003cb4	010319b3	sll	x19,x6,x16	  x6:0xffffffff x16:0x3fffe4e0 x19=0xffffffff
       24125000	      2411	80003cb8	52703c93	sltiu	x25,x0,1319	  x0:0x00000000 x25=0x00000001
       24135000	      2412	80003cbc	05daea63	bltu	x21,x29,80003d10	 x21:0x00000001 x29:0x00000000
       24145000	      2413	80003cc0	01e06a33	or	x20,x0,x30	  x0:0x00000000 x30:0x00000000 x20=0x00000000
       24155000	      2414	80003cc4	00373db3	sltu	x27,x14,x3	 x14:0x00000001  x3:0xae72d85f x27=0x00000001
       24165000	      2415	80003cc8	5bb93713	sltiu	x14,x18,1467	 x18:0x100013f8 x14=0x00000000
       24175000	      2416	80003ccc	00a19bb3	sll	x23,x3,x10	  x3:0xae72d85f x10:0x00000000 x23=0xae72d85f
       24185000	      2417	80003cd0	017a65b3	or	x11,x20,x23	 x20:0x00000000 x23:0xae72d85f x11=0xae72d85f
       24195000	      2418	80003cd4	01c009ef	jal	x19,80003cd4	 x19=0x80003cd4
       24205000	      2419	00000000	00000013	addi	x0,x0,0	  x0:0x00000000
       24215000	      2420	80003cec	00000013	addi	x0,x0,0	  x0:0x00000000
       24225000	      2421	80003cf0	014000ef	jal	x1,80003cf0	  x1=0x80003cf0
       24235000	      2422	00000000	00000013	addi	x0,x0,0	  x0:0x00000000
       24245000	      2423	80003d00	00000013	addi	x0,x0,0	  x0:0x00000000
       24255000	      2424	80003d04	ff9ff36f	jal	x6,80003d04	  x6=0x80003d04
       24265000	      2425	00000000	00000013	addi	x0,x0,0	  x0:0x00000000
       24275000	      2426	80003cf8	00000013	addi	x0,x0,0	  x0:0x00000000
       24285000	      2427	80003cfc	fedff36f	jal	x6,80003cfc	  x6=0x80003cfc
       24295000	      2428	00000000	00000013	addi	x0,x0,0	  x0:0x00000000
       24305000	      2429	80003ce4	00000013	addi	x0,x0,0	  x0:0x00000000
       24315000	      2430	80003ce8	020000ef	jal	x1,80003ce8	  x1=0x80003ce8
       24325000	      2431	00000000	00000013	addi	x0,x0,0	  x0:0x00000000
       24335000	      2432	80003d04	00000013	addi	x0,x0,0	  x0:0x00000000
       24345000	      2433	80003d08	fedff6ef	jal	x13,80003d08	 x13=0x80003d08
       24355000	      2434	00000000	00000013	addi	x0,x0,0	  x0:0x00000000
       24365000	      2435	80003cf0	00000013	addi	x0,x0,0	  x0:0x00000000
       24375000	      2436	80003cf4	004000ef	jal	x1,80003cf4	  x1=0x80003cf4
       24385000	      2437	00000000	00000013	addi	x0,x0,0	  x0:0x00000000
       24395000	      2438	80003cf4	00000013	addi	x0,x0,0	  x0:0x00000000
       24405000	      2439	80003cf8	fe5ffeef	jal	x29,80003cf8	 x29=0x80003cf8
       24415000	      2440	00000000	00000013	addi	x0,x0,0	  x0:0x00000000
       24425000	      2441	80003cd8	00000013	addi	x0,x0,0	  x0:0x00000000
       24435000	      2442	80003cdc	0040036f	jal	x6,80003cdc	  x6=0x80003cdc
       24445000	      2443	00000000	00000013	addi	x0,x0,0	  x0:0x00000000
       24455000	      2444	80003cdc	00000013	addi	x0,x0,0	  x0:0x00000000
       24465000	      2445	80003ce0	0040036f	jal	x6,80003ce0	  x6=0x80003ce0
       24475000	      2446	00000000	00000013	addi	x0,x0,0	  x0:0x00000000
       24485000	      2447	80003ce0	00000013	addi	x0,x0,0	  x0:0x00000000
       24495000	      2448	80003ce4	ff5ff0ef	jal	x1,80003ce4	  x1=0x80003ce4
       24505000	      2449	00000000	00000013	addi	x0,x0,0	  x0:0x00000000
       24515000	      2450	80003cd4	00000013	addi	x0,x0,0	  x0:0x00000000
       24525000	      2451	80003cd8	028000ef	jal	x1,80003cd8	  x1=0x80003cd8
       24535000	      2452	00000000	00000013	addi	x0,x0,0	  x0:0x00000000
       24545000	      2453	80003cfc	00000013	addi	x0,x0,0	  x0:0x00000000
       24555000	      2454	80003d00	fedff0ef	jal	x1,80003d00	  x1=0x80003d00
       24565000	      2455	00000000	00000013	addi	x0,x0,0	  x0:0x00000000
       24575000	      2456	80003ce8	00000013	addi	x0,x0,0	  x0:0x00000000
       24585000	      2457	80003cec	0200036f	jal	x6,80003cec	  x6=0x80003cec
       24595000	      2458	00000000	00000013	addi	x0,x0,0	  x0:0x00000000
       24605000	      2459	80003d08	00000013	addi	x0,x0,0	  x0:0x00000000
       24615000	      2460	80003d0c	0194d113	srli	x2,x9,0x19	  x9:0xfffff989  x2=0x0000007f
       24625000	      2461	80003d10	01f2f9b3	and	x19,x5,x31	  x5:0x7fffc9dc x31:0x80009f44 x19=0x00008944
       24635000	      2462	80003d14	4114d9b3	sra	x19,x9,x17	  x9:0xfffff989 x17:0x7fff6520 x19=0xfffff989
       24645000	      2463	80003d18	20940f13	addi	x30,x8,521	  x8:0x00000040 x30=0x00000249
       24655000	      2464	80003d1c	01fd65b3	or	x11,x26,x31	 x26:0x80000000 x31:0x80009f44 x11=0x80009f44
       24665000	      2465	80003d20	001767b3	or	x15,x14,x1	 x14:0x00000000  x1:0x80003d00 x15=0x80003d00
       24675000	      2466	80003d24	04a2c263	blt	x5,x10,80003d68	  x5:0x7fffc9dc x10:0x00000000
       24685000	      2467	80003d28	e7764593	xori	x11,x12,-393	 x12:0x00000000 x11=0xfffffe77
       24695000	      2468	80003d2c	04908463	beq	x1,x9,80003d74	  x1:0x80003d00  x9:0xfffff989
       24705000	      2469	80003d30	8452fe17	auipc	x28,0x8452f	 x28=0x04532d2c
       24715000	      2470	80003d34	0577d263	bge	x15,x23,80003d78	 x15:0x80003d00 x23:0xae72d85f
       24725000	      2471	80003d38	00f9bc33	sltu	x24,x19,x15	 x19:0xfffff989 x15:0x80003d00 x24=0x00000000
       24735000	      2472	80003d3c	7b4f2313	slti	x6,x30,1972	 x30:0x00000249  x6=0x00000001
       24745000	      2473	80003d40	0154e7b3	or	x15,x9,x21	  x9:0xfffff989 x21:0x00000001 x15=0xfffff989
       24755000	      2474	80003d44	41830e33	sub	x28,x6,x24	  x6:0x00000001 x24:0x00000000 x28=0x00000001
       24765000	      2475	80003d48	0073bf33	sltu	x30,x7,x7	  x7:0x80009fc4  x7:0x80009fc4 x30=0x00000000
       24775000	      2476	80003d4c	03f08063	beq	x1,x31,80003d6c	  x1:0x80003d00 x31:0x80009f44
       24785000	      2477	80003d50	009aaeb3	slt	x29,x21,x9	 x21:0x00000001  x9:0xfffff989 x29=0x00000000
       24795000	      2478	80003d54	634c0b13	addi	x22,x24,1588	 x24:0x00000000 x22=0x00000634
       24805000	      2479	80003d58	00a770b3	and	x1,x14,x10	 x14:0x00000000 x10:0x00000000  x1=0x00000000
       24815000	      2480	80003d5c	03ae7863	bgeu	x28,x26,80003d8c	 x28:0x00000001 x26:0x80000000
       24825000	      2481	80003d60	0329f063	bgeu	x19,x18,80003d80	 x19:0xfffff989 x18:0x100013f8
       24835000	      2482	00000000	00000013	addi	x0,x0,0	  x0:0x00000000
       24845000	      2483	80003d7c	00000013	addi	x0,x0,0	  x0:0x00000000
       24855000	      2484	80003d80	019b6663	bltu	x22,x25,80003d8c	 x22:0x00000634 x25:0x00000001
       24865000	      2485	80003d84	01f64463	blt	x12,x31,80003d8c	 x12:0x00000000 x31:0x80009f44
       24875000	      2486	80003d88	41445313	srai	x6,x8,0x14	  x8:0x00000040  x6=0x00000000
       24885000	      2487	80003d8c	464a8513	addi	x10,x21,1124	 x21:0x00000001 x10=0x00000465
       24895000	      2488	80003d90	01c32633	slt	x12,x6,x28	  x6:0x00000000 x28:0x00000001 x12=0x00000001
       24905000	      2489	80003d94	00740c33	add	x24,x8,x7	  x8:0x00000040  x7:0x80009fc4 x24=0x8000a004
       24915000	      2490	80003d98	004fa983	lw	x19,4(x31)	 x31:0x80009f44 x19=0x80003e74 PA:0x80009f48
       24925000	      2491	80003d9c	01794a33	xor	x20,x18,x23	 x18:0x100013f8 x23:0xae72d85f x20=0xbe72cba7
       24935000	      2492	80003da0	034f8f93	addi	x31,x31,52	 x31:0x80009f44 x31=0x80009f78
       24945000	      2493	80003da4	4160d0b3	sra	x1,x1,x22	  x1:0x00000000 x22:0x00000634  x1=0x00000000
       24955000	      2494	80003da8	01e7a0b3	slt	x1,x15,x30	 x15:0xfffff989 x30:0x00000000  x1=0x00000001
       24965000	      2495	80003dac	79eaa613	slti	x12,x21,1950	 x21:0x00000001 x12=0x00000001
       24975000	      2496	80003db0	0075abb3	slt	x23,x11,x7	 x11:0xfffffe77  x7:0x80009fc4 x23=0x00000000
       24985000	      2497	80003db4	005e1033	sll	x0,x28,x5	 x28:0x00000001  x5:0x7fffc9dc
       24995000	      2498	80003db8	01a947b3	xor	x15,x18,x26	 x18:0x100013f8 x26:0x80000000 x15=0x900013f8
       25005000	      2499	80003dbc	00198d93	addi	x27,x19,1	 x19:0x80003e74 x27=0x80003e75
       25015000	      2500	80003dc0	000d8de7	jalr	x27,x27,0	 x27:0x80003e75 x27=0x80003dc0
       25025000	      2501	00000000	00000013	addi	x0,x0,0	  x0:0x00000000
       25035000	      2502	80003e74	00000013	addi	x0,x0,0	  x0:0x00000000
       25045000	      2503	80003e78	ffffd617	auipc	x12,0xffffd	 x12=0x80000e74
       25055000	      2504	80003e7c	64860613	addi	x12,x12,1608	 x12:0x80000e74 x12=0x800014bc
       25065000	      2505	80003e80	d8760613	addi	x12,x12,-633	 x12:0x800014bc x12=0x80001243
       25075000	      2506	80003e84	d7474313	xori	x6,x14,-652	 x14:0x00000000  x6=0xfffffd74
       25085000	      2507	80003e88	003229b3	slt	x19,x4,x3	  x4:0x00000001  x3:0xae72d85f x19=0x00000000
       25095000	      2508	80003e8c	03916063	bltu	x2,x25,80003eac	  x2:0x0000007f x25:0x00000001
       25105000	      2509	80003e90	005728b3	slt	x17,x14,x5	 x14:0x00000000  x5:0x7fffc9dc x17=0x00000001
       25115000	      2510	80003e94	01648533	add	x10,x9,x22	  x9:0xfffff989 x22:0x00000634 x10=0xffffffbd
       25125000	      2511	80003e98	4106d993	srai	x19,x13,0x10	 x13:0x80003d08 x19=0xffff8000
       25135000	      2512	80003e9c	bfcbdbb7	lui	x23,0xbfcbd	 x23=0xbfcbd000
       25145000	      2513	80003ea0	01a3e033	or	x0,x7,x26	  x7:0x80009fc4 x26:0x80000000
       25155000	      2514	80003ea4	a3387b37	lui	x22,0xa3387	 x22=0xa3387000
       25165000	      2515	80003ea8	41d0d993	srai	x19,x1,0x1d	  x1:0x00000001 x19=0x00000000
       25175000	      2516	80003eac	279609e7	jalr	x19,x12,633	 x12:0x80001243 x19=0x80003eac
       25185000	      2517	00000000	00000013	addi	x0,x0,0	  x0:0x00000000
       25195000	      2518	800014bc	00000013	addi	x0,x0,0	  x0:0x00000000
       25205000	      2519	800014c0	01167463	bgeu	x12,x17,800014c8	 x12:0x80001243 x17:0x00000001
       25215000	      2520	00000000	00000013	addi	x0,x0,0	  x0:0x00000000
       25225000	      2521	800014c4	00000013	addi	x0,x0,0	  x0:0x00000000
       25235000	      2522	800014c8	fc8f8f93	addi	x31,x31,-56	 x31:0x80009f78 x31=0x80009f40
       25245000	      2523	800014cc	00000013	addi	x0,x0,0	  x0:0x00000000
       25255000	      2524	800014d0	8acb5917	auipc	x18,0x8acb5	 x18=0x0acb64cc
       25265000	      2525	800014d4	013fa223	sw	x19,4(x31)	 x31:0x80009f40 x19:0x80003eac PA:0x80009f44
       25275000	      2526	800014d8	01b05113	srli	x2,x0,0x1b	  x0:0x00000000  x2=0x00000000
       25285000	      2527	800014dc	038009ef	jal	x19,800014dc	 x19=0x800014dc
       25295000	      2528	00000000	00000013	addi	x0,x0,0	  x0:0x00000000
       25305000	      2529	80001510	00000013	addi	x0,x0,0	  x0:0x00000000
       25315000	      2530	80001514	ffdff0ef	jal	x1,80001514	  x1=0x80001514
       25325000	      2531	00000000	00000013	addi	x0,x0,0	  x0:0x00000000
       25335000	      2532	8000150c	00000013	addi	x0,x0,0	  x0:0x00000000
       25345000	      2533	80001510	ffdff0ef	jal	x1,80001510	  x1=0x80001510
       25355000	      2534	00000000	00000013	addi	x0,x0,0	  x0:0x00000000
       25365000	      2535	80001508	00000013	addi	x0,x0,0	  x0:0x00000000
       25375000	      2536	8000150c	fd9ff26f	jal	x4,8000150c	  x4=0x8000150c
       25385000	      2537	00000000	00000013	addi	x0,x0,0	  x0:0x00000000
       25395000	      2538	800014e0	00000013	addi	x0,x0,0	  x0:0x00000000
       25405000	      2539	800014e4	050000ef	jal	x1,800014e4	  x1=0x800014e4
       25415000	      2540	00000000	00000013	addi	x0,x0,0	  x0:0x00000000
       25425000	      2541	80001530	00000013	addi	x0,x0,0	  x0:0x00000000
       25435000	      2542	80001534	ffdff0ef	jal	x1,80001534	  x1=0x80001534
       25445000	      2543	00000000	00000013	addi	x0,x0,0	  x0:0x00000000
       25455000	      2544	8000152c	00000013	addi	x0,x0,0	  x0:0x00000000
       25465000	      2545	80001530	fe9ffdef	jal	x27,80001530	 x27=0x80001530
       25475000	      2546	00000000	00000013	addi	x0,x0,0	  x0:0x00000000
       25485000	      2547	80001514	00000013	addi	x0,x0,0	  x0:0x00000000
       25495000	      2548	80001518	fe5ff0ef	jal	x1,80001518	  x1=0x80001518
       25505000	      2549	00000000	00000013	addi	x0,x0,0	  x0:0x00000000
       25515000	      2550	800014f8	00000013	addi	x0,x0,0	  x0:0x00000000
       25525000	      2551	800014fc	02c0036f	jal	x6,800014fc	  x6=0x800014fc
       25535000	      2552	00000000	00000013	addi	x0,x0,0	  x0:0x00000000
       25545000	      2553	80001524	00000013	addi	x0,x0,0	  x0:0x00000000
       25555000	      2554	80001528	ff9ff36f	jal	x6,80001528	  x6=0x80001528
       25565000	      2555	00000000	00000013	addi	x0,x0,0	  x0:0x00000000
       25575000	      2556	8000151c	00000013	addi	x0,x0,0	  x0:0x00000000
       25585000	      2557	80001520	ffdff0ef	jal	x1,80001520	  x1=0x80001520
       25595000	      2558	00000000	00000013	addi	x0,x0,0	  x0:0x00000000
       25605000	      2559	80001518	00000013	addi	x0,x0,0	  x0:0x00000000
       25615000	      2560	8000151c	008000ef	jal	x1,8000151c	  x1=0x8000151c
       25625000	      2561	00000000	00000013	addi	x0,x0,0	  x0:0x00000000
       25635000	      2562	80001520	00000013	addi	x0,x0,0	  x0:0x00000000
       25645000	      2563	80001524	fd1ff2ef	jal	x5,80001524	  x5=0x80001524
       25655000	      2564	00000000	00000013	addi	x0,x0,0	  x0:0x00000000
       25665000	      2565	800014f0	00000013	addi	x0,x0,0	  x0:0x00000000
       25675000	      2566	800014f4	0140036f	jal	x6,800014f4	  x6=0x800014f4
       25685000	      2567	00000000	00000013	addi	x0,x0,0	  x0:0x00000000
       25695000	      2568	80001504	00000013	addi	x0,x0,0	  x0:0x00000000
       25705000	      2569	80001508	fe1ff0ef	jal	x1,80001508	  x1=0x80001508
       25715000	      2570	00000000	00000013	addi	x0,x0,0	  x0:0x00000000
       25725000	      2571	800014e4	00000013	addi	x0,x0,0	  x0:0x00000000
       25735000	      2572	800014e8	01c000ef	jal	x1,800014e8	  x1=0x800014e8
       25745000	      2573	00000000	00000013	addi	x0,x0,0	  x0:0x00000000
       25755000	      2574	80001500	00000013	addi	x0,x0,0	  x0:0x00000000
       25765000	      2575	80001504	ffdff96f	jal	x18,80001504	 x18=0x80001504
       25775000	      2576	00000000	00000013	addi	x0,x0,0	  x0:0x00000000
       25785000	      2577	800014fc	00000013	addi	x0,x0,0	  x0:0x00000000
       25795000	      2578	80001500	ff1ff0ef	jal	x1,80001500	  x1=0x80001500
       25805000	      2579	00000000	00000013	addi	x0,x0,0	  x0:0x00000000
       25815000	      2580	800014ec	00000013	addi	x0,x0,0	  x0:0x00000000
       25825000	      2581	800014f0	ffdff46f	jal	x8,800014f0	  x8=0x800014f0
       25835000	      2582	00000000	00000013	addi	x0,x0,0	  x0:0x00000000
       25845000	      2583	800014e8	00000013	addi	x0,x0,0	  x0:0x00000000
       25855000	      2584	800014ec	0400046f	jal	x8,800014ec	  x8=0x800014ec
       25865000	      2585	00000000	00000013	addi	x0,x0,0	  x0:0x00000000
       25875000	      2586	80001528	00000013	addi	x0,x0,0	  x0:0x00000000
       25885000	      2587	8000152c	fcdff0ef	jal	x1,8000152c	  x1=0x8000152c
       25895000	      2588	00000000	00000013	addi	x0,x0,0	  x0:0x00000000
       25905000	      2589	800014f4	00000013	addi	x0,x0,0	  x0:0x00000000
       25915000	      2590	800014f8	fe9ff26f	jal	x4,800014f8	  x4=0x800014f8
       25925000	      2591	00000000	00000013	addi	x0,x0,0	  x0:0x00000000
       25935000	      2592	800014dc	00000013	addi	x0,x0,0	  x0:0x00000000
       25945000	      2593	800014e0	058001ef	jal	x3,800014e0	  x3=0x800014e0
       25955000	      2594	00000000	00000013	addi	x0,x0,0	  x0:0x00000000
       25965000	      2595	80001534	00000013	addi	x0,x0,0	  x0:0x00000000
       25975000	      2596	80001538	41315e93	srai	x29,x2,0x13	  x2:0x00000000 x29=0x00000000
       25985000	      2597	8000153c	05c009ef	jal	x19,8000153c	 x19=0x8000153c
       25995000	      2598	00000000	00000013	addi	x0,x0,0	  x0:0x00000000
       26005000	      2599	80001594	00000013	addi	x0,x0,0	  x0:0x00000000
       26015000	      2600	80001598	fd1ff0ef	jal	x1,80001598	  x1=0x80001598
       26025000	      2601	00000000	00000013	addi	x0,x0,0	  x0:0x00000000
       26035000	      2602	80001564	00000013	addi	x0,x0,0	  x0:0x00000000
       26045000	      2603	80001568	0080036f	jal	x6,80001568	  x6=0x80001568
       26055000	      2604	00000000	00000013	addi	x0,x0,0	  x0:0x00000000
       26065000	      2605	8000156c	00000013	addi	x0,x0,0	  x0:0x00000000
       26075000	      2606	80001570	fe9ff36f	jal	x6,80001570	  x6=0x80001570
       26085000	      2607	00000000	00000013	addi	x0,x0,0	  x0:0x00000000
       26095000	      2608	80001554	00000013	addi	x0,x0,0	  x0:0x00000000
       26105000	      2609	80001558	030000ef	jal	x1,80001558	  x1=0x80001558
       26115000	      2610	00000000	00000013	addi	x0,x0,0	  x0:0x00000000
       26125000	      2611	80001584	00000013	addi	x0,x0,0	  x0:0x00000000
       26135000	      2612	80001588	014000ef	jal	x1,80001588	  x1=0x80001588
       26145000	      2613	00000000	00000013	addi	x0,x0,0	  x0:0x00000000
       26155000	      2614	80001598	00000013	addi	x0,x0,0	  x0:0x00000000
       26165000	      2615	8000159c	fc1ff0ef	jal	x1,8000159c	  x1=0x8000159c
       26175000	      2616	00000000	00000013	addi	x0,x0,0	  x0:0x00000000
       26185000	      2617	80001558	00000013	addi	x0,x0,0	  x0:0x00000000
       26195000	      2618	8000155c	fedff36f	jal	x6,8000155c	  x6=0x8000155c
       26205000	      2619	00000000	00000013	addi	x0,x0,0	  x0:0x00000000
       26215000	      2620	80001544	00000013	addi	x0,x0,0	  x0:0x00000000
       26225000	      2621	80001548	0380026f	jal	x4,80001548	  x4=0x80001548
       26235000	      2622	00000000	00000013	addi	x0,x0,0	  x0:0x00000000
       26245000	      2623	8000157c	00000013	addi	x0,x0,0	  x0:0x00000000
       26255000	      2624	80001580	024000ef	jal	x1,80001580	  x1=0x80001580
       26265000	      2625	00000000	00000013	addi	x0,x0,0	  x0:0x00000000
       26275000	      2626	800015a0	00000013	addi	x0,x0,0	  x0:0x00000000
       26285000	      2627	800015a4	fe1ff0ef	jal	x1,800015a4	  x1=0x800015a4
       26295000	      2628	00000000	00000013	addi	x0,x0,0	  x0:0x00000000
       26305000	      2629	80001580	00000013	addi	x0,x0,0	  x0:0x00000000
       26315000	      2630	80001584	008000ef	jal	x1,80001584	  x1=0x80001584
       26325000	      2631	00000000	00000013	addi	x0,x0,0	  x0:0x00000000
       26335000	      2632	80001588	00000013	addi	x0,x0,0	  x0:0x00000000
       26345000	      2633	8000158c	fc9ff0ef	jal	x1,8000158c	  x1=0x8000158c
       26355000	      2634	00000000	00000013	addi	x0,x0,0	  x0:0x00000000
       26365000	      2635	80001550	00000013	addi	x0,x0,0	  x0:0x00000000
       26375000	      2636	80001554	010000ef	jal	x1,80001554	  x1=0x80001554
       26385000	      2637	00000000	00000013	addi	x0,x0,0	  x0:0x00000000
       26395000	      2638	80001560	00000013	addi	x0,x0,0	  x0:0x00000000
       26405000	      2639	80001564	fedffdef	jal	x27,80001564	 x27=0x80001564
       26415000	      2640	00000000	00000013	addi	x0,x0,0	  x0:0x00000000
       26425000	      2641	8000154c	00000013	addi	x0,x0,0	  x0:0x00000000
       26435000	      2642	80001550	0400066f	jal	x12,80001550	 x12=0x80001550
       26445000	      2643	00000000	00000013	addi	x0,x0,0	  x0:0x00000000
       26455000	      2644	8000158c	00000013	addi	x0,x0,0	  x0:0x00000000
       26465000	      2645	80001590	fe9ff0ef	jal	x1,80001590	  x1=0x80001590
       26475000	      2646	00000000	00000013	addi	x0,x0,0	  x0:0x00000000
       26485000	      2647	80001574	00000013	addi	x0,x0,0	  x0:0x00000000
       26495000	      2648	80001578	004000ef	jal	x1,80001578	  x1=0x80001578
       26505000	      2649	00000000	00000013	addi	x0,x0,0	  x0:0x00000000
       26515000	      2650	80001578	00000013	addi	x0,x0,0	  x0:0x00000000
       26525000	      2651	8000157c	ff9ff0ef	jal	x1,8000157c	  x1=0x8000157c
       26535000	      2652	00000000	00000013	addi	x0,x0,0	  x0:0x00000000
       26545000	      2653	80001570	00000013	addi	x0,x0,0	  x0:0x00000000
       26555000	      2654	80001574	fd1ffa6f	jal	x20,80001574	 x20=0x80001574
       26565000	      2655	00000000	00000013	addi	x0,x0,0	  x0:0x00000000
       26575000	      2656	80001540	00000013	addi	x0,x0,0	  x0:0x00000000
       26585000	      2657	80001544	ffdfff6f	jal	x30,80001544	 x30=0x80001544
       26595000	      2658	00000000	00000013	addi	x0,x0,0	  x0:0x00000000
       26605000	      2659	8000153c	00000013	addi	x0,x0,0	  x0:0x00000000
       26615000	      2660	80001540	0600036f	jal	x6,80001540	  x6=0x80001540
       26625000	      2661	00000000	00000013	addi	x0,x0,0	  x0:0x00000000
       26635000	      2662	8000159c	00000013	addi	x0,x0,0	  x0:0x00000000
       26645000	      2663	800015a0	ff5ff0ef	jal	x1,800015a0	  x1=0x800015a0
       26655000	      2664	00000000	00000013	addi	x0,x0,0	  x0:0x00000000
       26665000	      2665	80001590	00000013	addi	x0,x0,0	  x0:0x00000000
       26675000	      2666	80001594	fd9ff0ef	jal	x1,80001594	  x1=0x80001594
       26685000	      2667	00000000	00000013	addi	x0,x0,0	  x0:0x00000000
       26695000	      2668	80001568	00000013	addi	x0,x0,0	  x0:0x00000000
       26705000	      2669	8000156c	ff5ff0ef	jal	x1,8000156c	  x1=0x8000156c
       26715000	      2670	00000000	00000013	addi	x0,x0,0	  x0:0x00000000
       26725000	      2671	8000155c	00000013	addi	x0,x0,0	  x0:0x00000000
       26735000	      2672	80001560	fedff0ef	jal	x1,80001560	  x1=0x80001560
       26745000	      2673	00000000	00000013	addi	x0,x0,0	  x0:0x00000000
       26755000	      2674	80001548	00000013	addi	x0,x0,0	  x0:0x00000000
       26765000	      2675	8000154c	05c00a6f	jal	x20,8000154c	 x20=0x8000154c
       26775000	      2676	00000000	00000013	addi	x0,x0,0	  x0:0x00000000
       26785000	      2677	800015a4	00000013	addi	x0,x0,0	  x0:0x00000000
       26795000	      2678	800015a8	40fc0033	sub	x0,x24,x15	 x24:0x8000a004 x15:0x900013f8
       26805000	      2679	800015ac	01c009ef	jal	x19,800015ac	 x19=0x800015ac
       26815000	      2680	00000000	00000013	addi	x0,x0,0	  x0:0x00000000
       26825000	      2681	800015c4	00000013	addi	x0,x0,0	  x0:0x00000000
       26835000	      2682	800015c8	014000ef	jal	x1,800015c8	  x1=0x800015c8
       26845000	      2683	00000000	00000013	addi	x0,x0,0	  x0:0x00000000
       26855000	      2684	800015d8	00000013	addi	x0,x0,0	  x0:0x00000000
       26865000	      2685	800015dc	fe9ff0ef	jal	x1,800015dc	  x1=0x800015dc
       26875000	      2686	00000000	00000013	addi	x0,x0,0	  x0:0x00000000
       26885000	      2687	800015c0	00000013	addi	x0,x0,0	  x0:0x00000000
       26895000	      2688	800015c4	ff5ff0ef	jal	x1,800015c4	  x1=0x800015c4
       26905000	      2689	00000000	00000013	addi	x0,x0,0	  x0:0x00000000
       26915000	      2690	800015b4	00000013	addi	x0,x0,0	  x0:0x00000000
       26925000	      2691	800015b8	004000ef	jal	x1,800015b8	  x1=0x800015b8
       26935000	      2692	00000000	00000013	addi	x0,x0,0	  x0:0x00000000
       26945000	      2693	800015b8	00000013	addi	x0,x0,0	  x0:0x00000000
       26955000	      2694	800015bc	010000ef	jal	x1,800015bc	  x1=0x800015bc
       26965000	      2695	00000000	00000013	addi	x0,x0,0	  x0:0x00000000
       26975000	      2696	800015c8	00000013	addi	x0,x0,0	  x0:0x00000000
       26985000	      2697	800015cc	008000ef	jal	x1,800015cc	  x1=0x800015cc
       26995000	      2698	00000000	00000013	addi	x0,x0,0	  x0:0x00000000
       27005000	      2699	800015d0	00000013	addi	x0,x0,0	  x0:0x00000000
       27015000	      2700	800015d4	fedff1ef	jal	x3,800015d4	  x3=0x800015d4
       27025000	      2701	00000000	00000013	addi	x0,x0,0	  x0:0x00000000
       27035000	      2702	800015bc	00000013	addi	x0,x0,0	  x0:0x00000000
       27045000	      2703	800015c0	0200036f	jal	x6,800015c0	  x6=0x800015c0
       27055000	      2704	00000000	00000013	addi	x0,x0,0	  x0:0x00000000
       27065000	      2705	800015dc	00000013	addi	x0,x0,0	  x0:0x00000000
       27075000	      2706	800015e0	ff1ff0ef	jal	x1,800015e0	  x1=0x800015e0
       27085000	      2707	00000000	00000013	addi	x0,x0,0	  x0:0x00000000
       27095000	      2708	800015cc	00000013	addi	x0,x0,0	  x0:0x00000000
       27105000	      2709	800015d0	0140036f	jal	x6,800015d0	  x6=0x800015d0
       27115000	      2710	00000000	00000013	addi	x0,x0,0	  x0:0x00000000
       27125000	      2711	800015e0	00000013	addi	x0,x0,0	  x0:0x00000000
       27135000	      2712	800015e4	fcdff36f	jal	x6,800015e4	  x6=0x800015e4
       27145000	      2713	00000000	00000013	addi	x0,x0,0	  x0:0x00000000
       27155000	      2714	800015ac	00000013	addi	x0,x0,0	  x0:0x00000000
       27165000	      2715	800015b0	0040036f	jal	x6,800015b0	  x6=0x800015b0
       27175000	      2716	00000000	00000013	addi	x0,x0,0	  x0:0x00000000
       27185000	      2717	800015b0	00000013	addi	x0,x0,0	  x0:0x00000000
       27195000	      2718	800015b4	03400e6f	jal	x28,800015b4	 x28=0x800015b4
       27205000	      2719	00000000	00000013	addi	x0,x0,0	  x0:0x00000000
       27215000	      2720	800015e4	00000013	addi	x0,x0,0	  x0:0x00000000
       27225000	      2721	800015e8	ff1ff36f	jal	x6,800015e8	  x6=0x800015e8
       27235000	      2722	00000000	00000013	addi	x0,x0,0	  x0:0x00000000
       27245000	      2723	800015d4	00000013	addi	x0,x0,0	  x0:0x00000000
       27255000	      2724	800015d8	014000ef	jal	x1,800015d8	  x1=0x800015d8
       27265000	      2725	00000000	00000013	addi	x0,x0,0	  x0:0x00000000
       27275000	      2726	800015e8	00000013	addi	x0,x0,0	  x0:0x00000000
       27285000	      2727	800015ec	004002ef	jal	x5,800015ec	  x5=0x800015ec
       27295000	      2728	00000000	00000013	addi	x0,x0,0	  x0:0x00000000
       27305000	      2729	800015ec	00000013	addi	x0,x0,0	  x0:0x00000000
       27315000	      2730	800015f0	01b60c33	add	x24,x12,x27	 x12:0x80001550 x27:0x80001564 x24=0x00002ab4
       27325000	      2731	800015f4	020009ef	jal	x19,800015f4	 x19=0x800015f4
       27335000	      2732	00000000	00000013	addi	x0,x0,0	  x0:0x00000000
       27345000	      2733	80001610	00000013	addi	x0,x0,0	  x0:0x00000000
       27355000	      2734	80001614	fe5ff0ef	jal	x1,80001614	  x1=0x80001614
       27365000	      2735	00000000	00000013	addi	x0,x0,0	  x0:0x00000000
       27375000	      2736	800015f4	00000013	addi	x0,x0,0	  x0:0x00000000
       27385000	      2737	800015f8	0200016f	jal	x2,800015f8	  x2=0x800015f8
       27395000	      2738	00000000	00000013	addi	x0,x0,0	  x0:0x00000000
       27405000	      2739	80001614	00000013	addi	x0,x0,0	  x0:0x00000000
       27415000	      2740	80001618	0040036f	jal	x6,80001618	  x6=0x80001618
       27425000	      2741	00000000	00000013	addi	x0,x0,0	  x0:0x00000000
       27435000	      2742	80001618	00000013	addi	x0,x0,0	  x0:0x00000000
       27445000	      2743	8000161c	0200036f	jal	x6,8000161c	  x6=0x8000161c
       27455000	      2744	00000000	00000013	addi	x0,x0,0	  x0:0x00000000
       27465000	      2745	80001638	00000013	addi	x0,x0,0	  x0:0x00000000
       27475000	      2746	8000163c	ff1ffb6f	jal	x22,8000163c	 x22=0x8000163c
       27485000	      2747	00000000	00000013	addi	x0,x0,0	  x0:0x00000000
       27495000	      2748	80001628	00000013	addi	x0,x0,0	  x0:0x00000000
       27505000	      2749	8000162c	ffdff6ef	jal	x13,8000162c	 x13=0x8000162c
       27515000	      2750	00000000	00000013	addi	x0,x0,0	  x0:0x00000000
       27525000	      2751	80001624	00000013	addi	x0,x0,0	  x0:0x00000000
       27535000	      2752	80001628	0080036f	jal	x6,80001628	  x6=0x80001628
       27545000	      2753	00000000	00000013	addi	x0,x0,0	  x0:0x00000000
       27555000	      2754	8000162c	00000013	addi	x0,x0,0	  x0:0x00000000
       27565000	      2755	80001630	014000ef	jal	x1,80001630	  x1=0x80001630
       27575000	      2756	00000000	00000013	addi	x0,x0,0	  x0:0x00000000
       27585000	      2757	80001640	00000013	addi	x0,x0,0	  x0:0x00000000
       27595000	      2758	80001644	ff1ff66f	jal	x12,80001644	 x12=0x80001644
       27605000	      2759	00000000	00000013	addi	x0,x0,0	  x0:0x00000000
       27615000	      2760	80001630	00000013	addi	x0,x0,0	  x0:0x00000000
       27625000	      2761	80001634	00c0036f	jal	x6,80001634	  x6=0x80001634
       27635000	      2762	00000000	00000013	addi	x0,x0,0	  x0:0x00000000
       27645000	      2763	8000163c	00000013	addi	x0,x0,0	  x0:0x00000000
       27655000	      2764	80001640	fc9ff36f	jal	x6,80001640	  x6=0x80001640
       27665000	      2765	00000000	00000013	addi	x0,x0,0	  x0:0x00000000
       27675000	      2766	80001604	00000013	addi	x0,x0,0	  x0:0x00000000
       27685000	      2767	80001608	01c0086f	jal	x16,80001608	 x16=0x80001608
       27695000	      2768	00000000	00000013	addi	x0,x0,0	  x0:0x00000000
       27705000	      2769	80001620	00000013	addi	x0,x0,0	  x0:0x00000000
       27715000	      2770	80001624	024000ef	jal	x1,80001624	  x1=0x80001624
       27725000	      2771	00000000	00000013	addi	x0,x0,0	  x0:0x00000000
       27735000	      2772	80001644	00000013	addi	x0,x0,0	  x0:0x00000000
       27745000	      2773	80001648	fbdff36f	jal	x6,80001648	  x6=0x80001648
       27755000	      2774	00000000	00000013	addi	x0,x0,0	  x0:0x00000000
       27765000	      2775	80001600	00000013	addi	x0,x0,0	  x0:0x00000000
       27775000	      2776	80001604	0080036f	jal	x6,80001604	  x6=0x80001604
       27785000	      2777	00000000	00000013	addi	x0,x0,0	  x0:0x00000000
       27795000	      2778	80001608	00000013	addi	x0,x0,0	  x0:0x00000000
       27805000	      2779	8000160c	014000ef	jal	x1,8000160c	  x1=0x8000160c
       27815000	      2780	00000000	00000013	addi	x0,x0,0	  x0:0x00000000
       27825000	      2781	8000161c	00000013	addi	x0,x0,0	  x0:0x00000000
       27835000	      2782	80001620	ff1ff0ef	jal	x1,80001620	  x1=0x80001620
       27845000	      2783	00000000	00000013	addi	x0,x0,0	  x0:0x00000000
       27855000	      2784	8000160c	00000013	addi	x0,x0,0	  x0:0x00000000
       27865000	      2785	80001610	ff1ff0ef	jal	x1,80001610	  x1=0x80001610
       27875000	      2786	00000000	00000013	addi	x0,x0,0	  x0:0x00000000
       27885000	      2787	800015fc	00000013	addi	x0,x0,0	  x0:0x00000000
       27895000	      2788	80001600	ffdff0ef	jal	x1,80001600	  x1=0x80001600
       27905000	      2789	00000000	00000013	addi	x0,x0,0	  x0:0x00000000
       27915000	      2790	800015f8	00000013	addi	x0,x0,0	  x0:0x00000000
       27925000	      2791	800015fc	03c000ef	jal	x1,800015fc	  x1=0x800015fc
       27935000	      2792	00000000	00000013	addi	x0,x0,0	  x0:0x00000000
       27945000	      2793	80001634	00000013	addi	x0,x0,0	  x0:0x00000000
       27955000	      2794	80001638	014000ef	jal	x1,80001638	  x1=0x80001638
       27965000	      2795	00000000	00000013	addi	x0,x0,0	  x0:0x00000000
       27975000	      2796	80001648	00000013	addi	x0,x0,0	  x0:0x00000000
       27985000	      2797	8000164c	4175de33	sra	x28,x11,x23	 x11:0xfffffe77 x23:0xbfcbd000 x28=0xfffffe77
       27995000	      2798	80001650	008009ef	jal	x19,80001650	 x19=0x80001650
       28005000	      2799	00000000	00000013	addi	x0,x0,0	  x0:0x00000000
       28015000	      2800	80001654	00000013	addi	x0,x0,0	  x0:0x00000000
       28025000	      2801	80001658	01c000ef	jal	x1,80001658	  x1=0x80001658
       28035000	      2802	00000000	00000013	addi	x0,x0,0	  x0:0x00000000
       28045000	      2803	80001670	00000013	addi	x0,x0,0	  x0:0x00000000
       28055000	      2804	80001674	ffdff0ef	jal	x1,80001674	  x1=0x80001674
       28065000	      2805	00000000	00000013	addi	x0,x0,0	  x0:0x00000000
       28075000	      2806	8000166c	00000013	addi	x0,x0,0	  x0:0x00000000
       28085000	      2807	80001670	00c000ef	jal	x1,80001670	  x1=0x80001670
       28095000	      2808	00000000	00000013	addi	x0,x0,0	  x0:0x00000000
       28105000	      2809	80001678	00000013	addi	x0,x0,0	  x0:0x00000000
       28115000	      2810	8000167c	fedff0ef	jal	x1,8000167c	  x1=0x8000167c
       28125000	      2811	00000000	00000013	addi	x0,x0,0	  x0:0x00000000
       28135000	      2812	80001664	00000013	addi	x0,x0,0	  x0:0x00000000
       28145000	      2813	80001668	fedffa6f	jal	x20,80001668	 x20=0x80001668
       28155000	      2814	00000000	00000013	addi	x0,x0,0	  x0:0x00000000
       28165000	      2815	80001650	00000013	addi	x0,x0,0	  x0:0x00000000
       28175000	      2816	80001654	010000ef	jal	x1,80001654	  x1=0x80001654
       28185000	      2817	00000000	00000013	addi	x0,x0,0	  x0:0x00000000
       28195000	      2818	80001660	00000013	addi	x0,x0,0	  x0:0x00000000
       28205000	      2819	80001664	ff9ff0ef	jal	x1,80001664	  x1=0x80001664
       28215000	      2820	00000000	00000013	addi	x0,x0,0	  x0:0x00000000
       28225000	      2821	80001658	00000013	addi	x0,x0,0	  x0:0x00000000
       28235000	      2822	8000165c	010000ef	jal	x1,8000165c	  x1=0x8000165c
       28245000	      2823	00000000	00000013	addi	x0,x0,0	  x0:0x00000000
       28255000	      2824	80001668	00000013	addi	x0,x0,0	  x0:0x00000000
       28265000	      2825	8000166c	00c000ef	jal	x1,8000166c	  x1=0x8000166c
       28275000	      2826	00000000	00000013	addi	x0,x0,0	  x0:0x00000000
       28285000	      2827	80001674	00000013	addi	x0,x0,0	  x0:0x00000000
       28295000	      2828	80001678	fe9ff26f	jal	x4,80001678	  x4=0x80001678
       28305000	      2829	00000000	00000013	addi	x0,x0,0	  x0:0x00000000
       28315000	      2830	8000165c	00000013	addi	x0,x0,0	  x0:0x00000000
       28325000	      2831	80001660	0200036f	jal	x6,80001660	  x6=0x80001660
       28335000	      2832	00000000	00000013	addi	x0,x0,0	  x0:0x00000000
       28345000	      2833	8000167c	00000013	addi	x0,x0,0	  x0:0x00000000
       28355000	      2834	80001680	41348eb3	sub	x29,x9,x19	  x9:0xfffff989 x19:0x80001650 x29=0x7fffe339
       28365000	      2835	80001684	060009ef	jal	x19,80001684	 x19=0x80001684
       28375000	      2836	00000000	00000013	addi	x0,x0,0	  x0:0x00000000
       28385000	      2837	800016e0	00000013	addi	x0,x0,0	  x0:0x00000000
       28395000	      2838	800016e4	0080036f	jal	x6,800016e4	  x6=0x800016e4
       28405000	      2839	00000000	00000013	addi	x0,x0,0	  x0:0x00000000
       28415000	      2840	800016e8	00000013	addi	x0,x0,0	  x0:0x00000000
       28425000	      2841	800016ec	ff1ff0ef	jal	x1,800016ec	  x1=0x800016ec
       28435000	      2842	00000000	00000013	addi	x0,x0,0	  x0:0x00000000
       28445000	      2843	800016d8	00000013	addi	x0,x0,0	  x0:0x00000000
       28455000	      2844	800016dc	fd5ff0ef	jal	x1,800016dc	  x1=0x800016dc
       28465000	      2845	00000000	00000013	addi	x0,x0,0	  x0:0x00000000
       28475000	      2846	800016ac	00000013	addi	x0,x0,0	  x0:0x00000000
       28485000	      2847	800016b0	fd9ff8ef	jal	x17,800016b0	 x17=0x800016b0
       28495000	      2848	00000000	00000013	addi	x0,x0,0	  x0:0x00000000
       28505000	      2849	80001684	00000013	addi	x0,x0,0	  x0:0x00000000
       28515000	      2850	80001688	02c000ef	jal	x1,80001688	  x1=0x80001688
       28525000	      2851	00000000	00000013	addi	x0,x0,0	  x0:0x00000000
       28535000	      2852	800016b0	00000013	addi	x0,x0,0	  x0:0x00000000
       28545000	      2853	800016b4	034001ef	jal	x3,800016b4	  x3=0x800016b4
       28555000	      2854	00000000	00000013	addi	x0,x0,0	  x0:0x00000000
       28565000	      2855	800016e4	00000013	addi	x0,x0,0	  x0:0x00000000
       28575000	      2856	800016e8	fc5ff6ef	jal	x13,800016e8	 x13=0x800016e8
       28585000	      2857	00000000	00000013	addi	x0,x0,0	  x0:0x00000000
       28595000	      2858	800016a8	00000013	addi	x0,x0,0	  x0:0x00000000
       28605000	      2859	800016ac	0200066f	jal	x12,800016ac	 x12=0x800016ac
       28615000	      2860	00000000	00000013	addi	x0,x0,0	  x0:0x00000000
       28625000	      2861	800016c8	00000013	addi	x0,x0,0	  x0:0x00000000
       28635000	      2862	800016cc	fcdff16f	jal	x2,800016cc	  x2=0x800016cc
       28645000	      2863	00000000	00000013	addi	x0,x0,0	  x0:0x00000000
       28655000	      2864	80001694	00000013	addi	x0,x0,0	  x0:0x00000000
       28665000	      2865	80001698	03c000ef	jal	x1,80001698	  x1=0x80001698
       28675000	      2866	00000000	00000013	addi	x0,x0,0	  x0:0x00000000
       28685000	      2867	800016d0	00000013	addi	x0,x0,0	  x0:0x00000000
       28695000	      2868	800016d4	fcdffc6f	jal	x24,800016d4	 x24=0x800016d4
       28705000	      2869	00000000	00000013	addi	x0,x0,0	  x0:0x00000000
       28715000	      2870	8000169c	00000013	addi	x0,x0,0	  x0:0x00000000
       28725000	      2871	800016a0	fedffb6f	jal	x22,800016a0	 x22=0x800016a0
       28735000	      2872	00000000	00000013	addi	x0,x0,0	  x0:0x00000000
       28745000	      2873	80001688	00000013	addi	x0,x0,0	  x0:0x00000000
       28755000	      2874	8000168c	038007ef	jal	x15,8000168c	 x15=0x8000168c
       28765000	      2875	00000000	00000013	addi	x0,x0,0	  x0:0x00000000
       28775000	      2876	800016c0	00000013	addi	x0,x0,0	  x0:0x00000000
       28785000	      2877	800016c4	fe5ffbef	jal	x23,800016c4	 x23=0x800016c4
       28795000	      2878	00000000	00000013	addi	x0,x0,0	  x0:0x00000000
       28805000	      2879	800016a4	00000013	addi	x0,x0,0	  x0:0x00000000
       28815000	      2880	800016a8	0300036f	jal	x6,800016a8	  x6=0x800016a8
       28825000	      2881	00000000	00000013	addi	x0,x0,0	  x0:0x00000000
       28835000	      2882	800016d4	00000013	addi	x0,x0,0	  x0:0x00000000
       28845000	      2883	800016d8	fb9ff36f	jal	x6,800016d8	  x6=0x800016d8
       28855000	      2884	00000000	00000013	addi	x0,x0,0	  x0:0x00000000
       28865000	      2885	8000168c	00000013	addi	x0,x0,0	  x0:0x00000000
       28875000	      2886	80001690	01400a6f	jal	x20,80001690	 x20=0x80001690
       28885000	      2887	00000000	00000013	addi	x0,x0,0	  x0:0x00000000
       28895000	      2888	800016a0	00000013	addi	x0,x0,0	  x0:0x00000000
       28905000	      2889	800016a4	03c000ef	jal	x1,800016a4	  x1=0x800016a4
       28915000	      2890	00000000	00000013	addi	x0,x0,0	  x0:0x00000000
       28925000	      2891	800016dc	00000013	addi	x0,x0,0	  x0:0x00000000
       28935000	      2892	800016e0	fd9ffaef	jal	x21,800016e0	 x21=0x800016e0
       28945000	      2893	00000000	00000013	addi	x0,x0,0	  x0:0x00000000
       28955000	      2894	800016b4	00000013	addi	x0,x0,0	  x0:0x00000000
       28965000	      2895	800016b8	0080076f	jal	x14,800016b8	 x14=0x800016b8
       28975000	      2896	00000000	00000013	addi	x0,x0,0	  x0:0x00000000
       28985000	      2897	800016bc	00000013	addi	x0,x0,0	  x0:0x00000000
       28995000	      2898	800016c0	008000ef	jal	x1,800016c0	  x1=0x800016c0
       29005000	      2899	00000000	00000013	addi	x0,x0,0	  x0:0x00000000
       29015000	      2900	800016c4	00000013	addi	x0,x0,0	  x0:0x00000000
       29025000	      2901	800016c8	fd5ffeef	jal	x29,800016c8	 x29=0x800016c8
       29035000	      2902	00000000	00000013	addi	x0,x0,0	  x0:0x00000000
       29045000	      2903	80001698	00000013	addi	x0,x0,0	  x0:0x00000000
       29055000	      2904	8000169c	0340036f	jal	x6,8000169c	  x6=0x8000169c
       29065000	      2905	00000000	00000013	addi	x0,x0,0	  x0:0x00000000
       29075000	      2906	800016cc	00000013	addi	x0,x0,0	  x0:0x00000000
       29085000	      2907	800016d0	fc5ff0ef	jal	x1,800016d0	  x1=0x800016d0
       29095000	      2908	00000000	00000013	addi	x0,x0,0	  x0:0x00000000
       29105000	      2909	80001690	00000013	addi	x0,x0,0	  x0:0x00000000
       29115000	      2910	80001694	0280036f	jal	x6,80001694	  x6=0x80001694
       29125000	      2911	00000000	00000013	addi	x0,x0,0	  x0:0x00000000
       29135000	      2912	800016b8	00000013	addi	x0,x0,0	  x0:0x00000000
       29145000	      2913	800016bc	03400e6f	jal	x28,800016bc	 x28=0x800016bc
       29155000	      2914	00000000	00000013	addi	x0,x0,0	  x0:0x00000000
       29165000	      2915	800016ec	00000013	addi	x0,x0,0	  x0:0x00000000
       29175000	      2916	800016f0	00b46233	or	x4,x8,x11	  x8:0x800014ec x11:0xfffffe77  x4=0xfffffeff
       29185000	      2917	800016f4	040009ef	jal	x19,800016f4	 x19=0x800016f4
       29195000	      2918	00000000	00000013	addi	x0,x0,0	  x0:0x00000000
       29205000	      2919	80001730	00000013	addi	x0,x0,0	  x0:0x00000000
       29215000	      2920	80001734	fe1ff16f	jal	x2,80001734	  x2=0x80001734
       29225000	      2921	00000000	00000013	addi	x0,x0,0	  x0:0x00000000
       29235000	      2922	80001710	00000013	addi	x0,x0,0	  x0:0x00000000
       29245000	      2923	80001714	014000ef	jal	x1,80001714	  x1=0x80001714
       29255000	      2924	00000000	00000013	addi	x0,x0,0	  x0:0x00000000
       29265000	      2925	80001724	00000013	addi	x0,x0,0	  x0:0x00000000
       29275000	      2926	80001728	0040036f	jal	x6,80001728	  x6=0x80001728
       29285000	      2927	00000000	00000013	addi	x0,x0,0	  x0:0x00000000
       29295000	      2928	80001728	00000013	addi	x0,x0,0	  x0:0x00000000
       29305000	      2929	8000172c	004000ef	jal	x1,8000172c	  x1=0x8000172c
       29315000	      2930	00000000	00000013	addi	x0,x0,0	  x0:0x00000000
       29325000	      2931	8000172c	00000013	addi	x0,x0,0	  x0:0x00000000
       29335000	      2932	80001730	ff5ff0ef	jal	x1,80001730	  x1=0x80001730
       29345000	      2933	00000000	00000013	addi	x0,x0,0	  x0:0x00000000
       29355000	      2934	80001720	00000013	addi	x0,x0,0	  x0:0x00000000
       29365000	      2935	80001724	fe5ff0ef	jal	x1,80001724	  x1=0x80001724
       29375000	      2936	00000000	00000013	addi	x0,x0,0	  x0:0x00000000
       29385000	      2937	80001704	00000013	addi	x0,x0,0	  x0:0x00000000
       29395000	      2938	80001708	008000ef	jal	x1,80001708	  x1=0x80001708
       29405000	      2939	00000000	00000013	addi	x0,x0,0	  x0:0x00000000
       29415000	      2940	8000170c	00000013	addi	x0,x0,0	  x0:0x00000000
       29425000	      2941	80001710	fedff36f	jal	x6,80001710	  x6=0x80001710
       29435000	      2942	00000000	00000013	addi	x0,x0,0	  x0:0x00000000
       29445000	      2943	800016f8	00000013	addi	x0,x0,0	  x0:0x00000000
       29455000	      2944	800016fc	020000ef	jal	x1,800016fc	  x1=0x800016fc
       29465000	      2945	00000000	00000013	addi	x0,x0,0	  x0:0x00000000
       29475000	      2946	80001718	00000013	addi	x0,x0,0	  x0:0x00000000
       29485000	      2947	8000171c	fe9ff0ef	jal	x1,8000171c	  x1=0x8000171c
       29495000	      2948	00000000	00000013	addi	x0,x0,0	  x0:0x00000000
       29505000	      2949	80001700	00000013	addi	x0,x0,0	  x0:0x00000000
       29515000	      2950	80001704	01c00def	jal	x27,80001704	 x27=0x80001704
       29525000	      2951	00000000	00000013	addi	x0,x0,0	  x0:0x00000000
       29535000	      2952	8000171c	00000013	addi	x0,x0,0	  x0:0x00000000
       29545000	      2953	80001720	ff9ff36f	jal	x6,80001720	  x6=0x80001720
       29555000	      2954	00000000	00000013	addi	x0,x0,0	  x0:0x00000000
       29565000	      2955	80001714	00000013	addi	x0,x0,0	  x0:0x00000000
       29575000	      2956	80001718	fe1ffdef	jal	x27,80001718	 x27=0x80001718
       29585000	      2957	00000000	00000013	addi	x0,x0,0	  x0:0x00000000
       29595000	      2958	800016f4	00000013	addi	x0,x0,0	  x0:0x00000000
       29605000	      2959	800016f8	01400def	jal	x27,800016f8	 x27=0x800016f8
       29615000	      2960	00000000	00000013	addi	x0,x0,0	  x0:0x00000000
       29625000	      2961	80001708	00000013	addi	x0,x0,0	  x0:0x00000000
       29635000	      2962	8000170c	ff5ff36f	jal	x6,8000170c	  x6=0x8000170c
       29645000	      2963	00000000	00000013	addi	x0,x0,0	  x0:0x00000000
       29655000	      2964	800016fc	00000013	addi	x0,x0,0	  x0:0x00000000
       29665000	      2965	80001700	038000ef	jal	x1,80001700	  x1=0x80001700
       29675000	      2966	00000000	00000013	addi	x0,x0,0	  x0:0x00000000
       29685000	      2967	80001734	00000013	addi	x0,x0,0	  x0:0x00000000
       29695000	      2968	80001738	00164b33	xor	x22,x12,x1	 x12:0x800016ac  x1:0x80001700 x22=0x000001ac
       29705000	      2969	8000173c	058009ef	jal	x19,8000173c	 x19=0x8000173c
       29715000	      2970	00000000	00000013	addi	x0,x0,0	  x0:0x00000000
       29725000	      2971	80001790	00000013	addi	x0,x0,0	  x0:0x00000000
       29735000	      2972	80001794	00c002ef	jal	x5,80001794	  x5=0x80001794
       29745000	      2973	00000000	00000013	addi	x0,x0,0	  x0:0x00000000
       29755000	      2974	8000179c	00000013	addi	x0,x0,0	  x0:0x00000000
       29765000	      2975	800017a0	fddff0ef	jal	x1,800017a0	  x1=0x800017a0
       29775000	      2976	00000000	00000013	addi	x0,x0,0	  x0:0x00000000
       29785000	      2977	80001778	00000013	addi	x0,x0,0	  x0:0x00000000
       29795000	      2978	8000177c	fe5fff6f	jal	x30,8000177c	 x30=0x8000177c
       29805000	      2979	00000000	00000013	addi	x0,x0,0	  x0:0x00000000
       29815000	      2980	8000175c	00000013	addi	x0,x0,0	  x0:0x00000000
       29825000	      2981	80001760	0380046f	jal	x8,80001760	  x8=0x80001760
       29835000	      2982	00000000	00000013	addi	x0,x0,0	  x0:0x00000000
       29845000	      2983	80001794	00000013	addi	x0,x0,0	  x0:0x00000000
       29855000	      2984	80001798	fc5ff0ef	jal	x1,80001798	  x1=0x80001798
       29865000	      2985	00000000	00000013	addi	x0,x0,0	  x0:0x00000000
       29875000	      2986	80001758	00000013	addi	x0,x0,0	  x0:0x00000000
       29885000	      2987	8000175c	018000ef	jal	x1,8000175c	  x1=0x8000175c
       29895000	      2988	00000000	00000013	addi	x0,x0,0	  x0:0x00000000
       29905000	      2989	80001770	00000013	addi	x0,x0,0	  x0:0x00000000
       29915000	      2990	80001774	ff5ff0ef	jal	x1,80001774	  x1=0x80001774
       29925000	      2991	00000000	00000013	addi	x0,x0,0	  x0:0x00000000
       29935000	      2992	80001764	00000013	addi	x0,x0,0	  x0:0x00000000
       29945000	      2993	80001768	fe1ff36f	jal	x6,80001768	  x6=0x80001768
       29955000	      2994	00000000	00000013	addi	x0,x0,0	  x0:0x00000000
       29965000	      2995	80001744	00000013	addi	x0,x0,0	  x0:0x00000000
       29975000	      2996	80001748	ffdffcef	jal	x25,80001748	 x25=0x80001748
       29985000	      2997	00000000	00000013	addi	x0,x0,0	  x0:0x00000000
       29995000	      2998	80001740	00000013	addi	x0,x0,0	  x0:0x00000000
       30005000	      2999	80001744	ffdff0ef	jal	x1,80001744	  x1=0x80001744
       30015000	      3000	00000000	00000013	addi	x0,x0,0	  x0:0x00000000
       30025000	      3001	8000173c	00000013	addi	x0,x0,0	  x0:0x00000000
       30035000	      3002	80001740	014000ef	jal	x1,80001740	  x1=0x80001740
       30045000	      3003	00000000	00000013	addi	x0,x0,0	  x0:0x00000000
       30055000	      3004	80001750	00000013	addi	x0,x0,0	  x0:0x00000000
       30065000	      3005	80001754	030000ef	jal	x1,80001754	  x1=0x80001754
       30075000	      3006	00000000	00000013	addi	x0,x0,0	  x0:0x00000000
       30085000	      3007	80001780	00000013	addi	x0,x0,0	  x0:0x00000000
       30095000	      3008	80001784	fe9ff36f	jal	x6,80001784	  x6=0x80001784
       30105000	      3009	00000000	00000013	addi	x0,x0,0	  x0:0x00000000
       30115000	      3010	80001768	00000013	addi	x0,x0,0	  x0:0x00000000
       30125000	      3011	8000176c	ff9ff8ef	jal	x17,8000176c	 x17=0x8000176c
       30135000	      3012	00000000	00000013	addi	x0,x0,0	  x0:0x00000000
       30145000	      3013	80001760	00000013	addi	x0,x0,0	  x0:0x00000000
       30155000	      3014	80001764	02c000ef	jal	x1,80001764	  x1=0x80001764
       30165000	      3015	00000000	00000013	addi	x0,x0,0	  x0:0x00000000
       30175000	      3016	8000178c	00000013	addi	x0,x0,0	  x0:0x00000000
       30185000	      3017	80001790	fe9ff0ef	jal	x1,80001790	  x1=0x80001790
       30195000	      3018	00000000	00000013	addi	x0,x0,0	  x0:0x00000000
       30205000	      3019	80001774	00000013	addi	x0,x0,0	  x0:0x00000000
       30215000	      3020	80001778	010006ef	jal	x13,80001778	 x13=0x80001778
       30225000	      3021	00000000	00000013	addi	x0,x0,0	  x0:0x00000000
       30235000	      3022	80001784	00000013	addi	x0,x0,0	  x0:0x00000000
       30245000	      3023	80001788	fd1ff0ef	jal	x1,80001788	  x1=0x80001788
       30255000	      3024	00000000	00000013	addi	x0,x0,0	  x0:0x00000000
       30265000	      3025	80001754	00000013	addi	x0,x0,0	  x0:0x00000000
       30275000	      3026	80001758	044000ef	jal	x1,80001758	  x1=0x80001758
       30285000	      3027	00000000	00000013	addi	x0,x0,0	  x0:0x00000000
       30295000	      3028	80001798	00000013	addi	x0,x0,0	  x0:0x00000000
       30305000	      3029	8000179c	fd5ff0ef	jal	x1,8000179c	  x1=0x8000179c
       30315000	      3030	00000000	00000013	addi	x0,x0,0	  x0:0x00000000
       30325000	      3031	8000176c	00000013	addi	x0,x0,0	  x0:0x00000000
       30335000	      3032	80001770	010000ef	jal	x1,80001770	  x1=0x80001770
       30345000	      3033	00000000	00000013	addi	x0,x0,0	  x0:0x00000000
       30355000	      3034	8000177c	00000013	addi	x0,x0,0	  x0:0x00000000
       30365000	      3035	80001780	fd1ff0ef	jal	x1,80001780	  x1=0x80001780
       30375000	      3036	00000000	00000013	addi	x0,x0,0	  x0:0x00000000
       30385000	      3037	8000174c	00000013	addi	x0,x0,0	  x0:0x00000000
       30395000	      3038	80001750	03c000ef	jal	x1,80001750	  x1=0x80001750
       30405000	      3039	00000000	00000013	addi	x0,x0,0	  x0:0x00000000
       30415000	      3040	80001788	00000013	addi	x0,x0,0	  x0:0x00000000
       30425000	      3041	8000178c	fc1ff0ef	jal	x1,8000178c	  x1=0x8000178c
       30435000	      3042	00000000	00000013	addi	x0,x0,0	  x0:0x00000000
       30445000	      3043	80001748	00000013	addi	x0,x0,0	  x0:0x00000000
       30455000	      3044	8000174c	0580036f	jal	x6,8000174c	  x6=0x8000174c
       30465000	      3045	00000000	00000013	addi	x0,x0,0	  x0:0x00000000
       30475000	      3046	800017a0	00000013	addi	x0,x0,0	  x0:0x00000000
       30485000	      3047	800017a4	00fcd713	srli	x14,x25,0xf	 x25:0x80001748 x14=0x00010000
       30495000	      3048	800017a8	038009ef	jal	x19,800017a8	 x19=0x800017a8
       30505000	      3049	00000000	00000013	addi	x0,x0,0	  x0:0x00000000
       30515000	      3050	800017dc	00000013	addi	x0,x0,0	  x0:0x00000000
       30525000	      3051	800017e0	fddff36f	jal	x6,800017e0	  x6=0x800017e0
       30535000	      3052	00000000	00000013	addi	x0,x0,0	  x0:0x00000000
       30545000	      3053	800017b8	00000013	addi	x0,x0,0	  x0:0x00000000
       30555000	      3054	800017bc	01c000ef	jal	x1,800017bc	  x1=0x800017bc
       30565000	      3055	00000000	00000013	addi	x0,x0,0	  x0:0x00000000
       30575000	      3056	800017d4	00000013	addi	x0,x0,0	  x0:0x00000000
       30585000	      3057	800017d8	ff1ff0ef	jal	x1,800017d8	  x1=0x800017d8
       30595000	      3058	00000000	00000013	addi	x0,x0,0	  x0:0x00000000
       30605000	      3059	800017c4	00000013	addi	x0,x0,0	  x0:0x00000000
       30615000	      3060	800017c8	ff9ff0ef	jal	x1,800017c8	  x1=0x800017c8
       30625000	      3061	00000000	00000013	addi	x0,x0,0	  x0:0x00000000
       30635000	      3062	800017bc	00000013	addi	x0,x0,0	  x0:0x00000000
       30645000	      3063	800017c0	028000ef	jal	x1,800017c0	  x1=0x800017c0
       30655000	      3064	00000000	00000013	addi	x0,x0,0	  x0:0x00000000
       30665000	      3065	800017e4	00000013	addi	x0,x0,0	  x0:0x00000000
       30675000	      3066	800017e8	ff5ff0ef	jal	x1,800017e8	  x1=0x800017e8
       30685000	      3067	00000000	00000013	addi	x0,x0,0	  x0:0x00000000
       30695000	      3068	800017d8	00000013	addi	x0,x0,0	  x0:0x00000000
       30705000	      3069	800017dc	fe9ff16f	jal	x2,800017dc	  x2=0x800017dc
       30715000	      3070	00000000	00000013	addi	x0,x0,0	  x0:0x00000000
       30725000	      3071	800017c0	00000013	addi	x0,x0,0	  x0:0x00000000
       30735000	      3072	800017c4	008000ef	jal	x1,800017c4	  x1=0x800017c4
       30745000	      3073	00000000	00000013	addi	x0,x0,0	  x0:0x00000000
       30755000	      3074	800017c8	00000013	addi	x0,x0,0	  x0:0x00000000
       30765000	      3075	800017cc	018000ef	jal	x1,800017cc	  x1=0x800017cc
       30775000	      3076	00000000	00000013	addi	x0,x0,0	  x0:0x00000000
       30785000	      3077	800017e0	00000013	addi	x0,x0,0	  x0:0x00000000
       30795000	      3078	800017e4	fcdff36f	jal	x6,800017e4	  x6=0x800017e4
       30805000	      3079	00000000	00000013	addi	x0,x0,0	  x0:0x00000000
       30815000	      3080	800017ac	00000013	addi	x0,x0,0	  x0:0x00000000
       30825000	      3081	800017b0	0080036f	jal	x6,800017b0	  x6=0x800017b0
       30835000	      3082	00000000	00000013	addi	x0,x0,0	  x0:0x00000000
       30845000	      3083	800017b4	00000013	addi	x0,x0,0	  x0:0x00000000
       30855000	      3084	800017b8	ff5ff0ef	jal	x1,800017b8	  x1=0x800017b8
       30865000	      3085	00000000	00000013	addi	x0,x0,0	  x0:0x00000000
       30875000	      3086	800017a8	00000013	addi	x0,x0,0	  x0:0x00000000
       30885000	      3087	800017ac	02800bef	jal	x23,800017ac	 x23=0x800017ac
       30895000	      3088	00000000	00000013	addi	x0,x0,0	  x0:0x00000000
       30905000	      3089	800017d0	00000013	addi	x0,x0,0	  x0:0x00000000
       30915000	      3090	800017d4	ffdff0ef	jal	x1,800017d4	  x1=0x800017d4
       30925000	      3091	00000000	00000013	addi	x0,x0,0	  x0:0x00000000
       30935000	      3092	800017cc	00000013	addi	x0,x0,0	  x0:0x00000000
       30945000	      3093	800017d0	fe5ff0ef	jal	x1,800017d0	  x1=0x800017d0
       30955000	      3094	00000000	00000013	addi	x0,x0,0	  x0:0x00000000
       30965000	      3095	800017b0	00000013	addi	x0,x0,0	  x0:0x00000000
       30975000	      3096	800017b4	038000ef	jal	x1,800017b4	  x1=0x800017b4
       30985000	      3097	00000000	00000013	addi	x0,x0,0	  x0:0x00000000
       30995000	      3098	800017e8	00000013	addi	x0,x0,0	  x0:0x00000000
       31005000	      3099	800017ec	8c48f917	auipc	x18,0x8c48f	 x18=0x0c4907e8
       31015000	      3100	800017f0	014009ef	jal	x19,800017f0	 x19=0x800017f0
       31025000	      3101	00000000	00000013	addi	x0,x0,0	  x0:0x00000000
       31035000	      3102	80001800	00000013	addi	x0,x0,0	  x0:0x00000000
       31045000	      3103	80001804	ff1ff0ef	jal	x1,80001804	  x1=0x80001804
       31055000	      3104	00000000	00000013	addi	x0,x0,0	  x0:0x00000000
       31065000	      3105	800017f0	00000013	addi	x0,x0,0	  x0:0x00000000
       31075000	      3106	800017f4	020000ef	jal	x1,800017f4	  x1=0x800017f4
       31085000	      3107	00000000	00000013	addi	x0,x0,0	  x0:0x00000000
       31095000	      3108	80001810	00000013	addi	x0,x0,0	  x0:0x00000000
       31105000	      3109	80001814	02400cef	jal	x25,80001814	 x25=0x80001814
       31115000	      3110	00000000	00000013	addi	x0,x0,0	  x0:0x00000000
       31125000	      3111	80001834	00000013	addi	x0,x0,0	  x0:0x00000000
       31135000	      3112	80001838	fe5ff16f	jal	x2,80001838	  x2=0x80001838
       31145000	      3113	00000000	00000013	addi	x0,x0,0	  x0:0x00000000
       31155000	      3114	80001818	00000013	addi	x0,x0,0	  x0:0x00000000
       31165000	      3115	8000181c	020000ef	jal	x1,8000181c	  x1=0x8000181c
       31175000	      3116	00000000	00000013	addi	x0,x0,0	  x0:0x00000000
       31185000	      3117	80001838	00000013	addi	x0,x0,0	  x0:0x00000000
       31195000	      3118	8000183c	fc5ffdef	jal	x27,8000183c	 x27=0x8000183c
       31205000	      3119	00000000	00000013	addi	x0,x0,0	  x0:0x00000000
       31215000	      3120	800017fc	00000013	addi	x0,x0,0	  x0:0x00000000
       31225000	      3121	80001800	ffdff0ef	jal	x1,80001800	  x1=0x80001800
       31235000	      3122	00000000	00000013	addi	x0,x0,0	  x0:0x00000000
       31245000	      3123	800017f8	00000013	addi	x0,x0,0	  x0:0x00000000
       31255000	      3124	800017fc	00c0036f	jal	x6,800017fc	  x6=0x800017fc
       31265000	      3125	00000000	00000013	addi	x0,x0,0	  x0:0x00000000
       31275000	      3126	80001804	00000013	addi	x0,x0,0	  x0:0x00000000
       31285000	      3127	80001808	01800cef	jal	x25,80001808	 x25=0x80001808
       31295000	      3128	00000000	00000013	addi	x0,x0,0	  x0:0x00000000
       31305000	      3129	8000181c	00000013	addi	x0,x0,0	  x0:0x00000000
       31315000	      3130	80001820	0200076f	jal	x14,80001820	 x14=0x80001820
       31325000	      3131	00000000	00000013	addi	x0,x0,0	  x0:0x00000000
       31335000	      3132	8000183c	00000013	addi	x0,x0,0	  x0:0x00000000
       31345000	      3133	80001840	fd1ff0ef	jal	x1,80001840	  x1=0x80001840
       31355000	      3134	00000000	00000013	addi	x0,x0,0	  x0:0x00000000
       31365000	      3135	8000180c	00000013	addi	x0,x0,0	  x0:0x00000000
       31375000	      3136	80001810	ffdff0ef	jal	x1,80001810	  x1=0x80001810
       31385000	      3137	00000000	00000013	addi	x0,x0,0	  x0:0x00000000
       31395000	      3138	80001808	00000013	addi	x0,x0,0	  x0:0x00000000
       31405000	      3139	8000180c	0180036f	jal	x6,8000180c	  x6=0x8000180c
       31415000	      3140	00000000	00000013	addi	x0,x0,0	  x0:0x00000000
       31425000	      3141	80001820	00000013	addi	x0,x0,0	  x0:0x00000000
       31435000	      3142	80001824	0100026f	jal	x4,80001824	  x4=0x80001824
       31445000	      3143	00000000	00000013	addi	x0,x0,0	  x0:0x00000000
       31455000	      3144	80001830	00000013	addi	x0,x0,0	  x0:0x00000000
       31465000	      3145	80001834	ff9ffaef	jal	x21,80001834	 x21=0x80001834
       31475000	      3146	00000000	00000013	addi	x0,x0,0	  x0:0x00000000
       31485000	      3147	80001828	00000013	addi	x0,x0,0	  x0:0x00000000
       31495000	      3148	8000182c	fcdff26f	jal	x4,8000182c	  x4=0x8000182c
       31505000	      3149	00000000	00000013	addi	x0,x0,0	  x0:0x00000000
       31515000	      3150	800017f4	00000013	addi	x0,x0,0	  x0:0x00000000
       31525000	      3151	800017f8	020000ef	jal	x1,800017f8	  x1=0x800017f8
       31535000	      3152	00000000	00000013	addi	x0,x0,0	  x0:0x00000000
       31545000	      3153	80001814	00000013	addi	x0,x0,0	  x0:0x00000000
       31555000	      3154	80001818	010009ef	jal	x19,80001818	 x19=0x80001818
       31565000	      3155	00000000	00000013	addi	x0,x0,0	  x0:0x00000000
       31575000	      3156	80001824	00000013	addi	x0,x0,0	  x0:0x00000000
       31585000	      3157	80001828	008000ef	jal	x1,80001828	  x1=0x80001828
       31595000	      3158	00000000	00000013	addi	x0,x0,0	  x0:0x00000000
       31605000	      3159	8000182c	00000013	addi	x0,x0,0	  x0:0x00000000
       31615000	      3160	80001830	0140036f	jal	x6,80001830	  x6=0x80001830
       31625000	      3161	00000000	00000013	addi	x0,x0,0	  x0:0x00000000
       31635000	      3162	80001840	00000013	addi	x0,x0,0	  x0:0x00000000
       31645000	      3163	80001844	01d35733	srl	x14,x6,x29	  x6:0x80001830 x29:0x800016c8 x14=0x00800018
       31655000	      3164	80001848	014009ef	jal	x19,80001848	 x19=0x80001848
       31665000	      3165	00000000	00000013	addi	x0,x0,0	  x0:0x00000000
       31675000	      3166	80001858	00000013	addi	x0,x0,0	  x0:0x00000000
       31685000	      3167	8000185c	00c000ef	jal	x1,8000185c	  x1=0x8000185c
       31695000	      3168	00000000	00000013	addi	x0,x0,0	  x0:0x00000000
       31705000	      3169	80001864	00000013	addi	x0,x0,0	  x0:0x00000000
       31715000	      3170	80001868	03c000ef	jal	x1,80001868	  x1=0x80001868
       31725000	      3171	00000000	00000013	addi	x0,x0,0	  x0:0x00000000
       31735000	      3172	800018a0	00000013	addi	x0,x0,0	  x0:0x00000000
       31745000	      3173	800018a4	014000ef	jal	x1,800018a4	  x1=0x800018a4
       31755000	      3174	00000000	00000013	addi	x0,x0,0	  x0:0x00000000
       31765000	      3175	800018b4	00000013	addi	x0,x0,0	  x0:0x00000000
       31775000	      3176	800018b8	ff1ff0ef	jal	x1,800018b8	  x1=0x800018b8
       31785000	      3177	00000000	00000013	addi	x0,x0,0	  x0:0x00000000
       31795000	      3178	800018a4	00000013	addi	x0,x0,0	  x0:0x00000000
       31805000	      3179	800018a8	fa5ff0ef	jal	x1,800018a8	  x1=0x800018a8
       31815000	      3180	00000000	00000013	addi	x0,x0,0	  x0:0x00000000
       31825000	      3181	80001848	00000013	addi	x0,x0,0	  x0:0x00000000
       31835000	      3182	8000184c	0340016f	jal	x2,8000184c	  x2=0x8000184c
       31845000	      3183	00000000	00000013	addi	x0,x0,0	  x0:0x00000000
       31855000	      3184	8000187c	00000013	addi	x0,x0,0	  x0:0x00000000
       31865000	      3185	80001880	fe1ff86f	jal	x16,80001880	 x16=0x80001880
       31875000	      3186	00000000	00000013	addi	x0,x0,0	  x0:0x00000000
       31885000	      3187	8000185c	00000013	addi	x0,x0,0	  x0:0x00000000
       31895000	      3188	80001860	01c000ef	jal	x1,80001860	  x1=0x80001860
       31905000	      3189	00000000	00000013	addi	x0,x0,0	  x0:0x00000000
       31915000	      3190	80001878	00000013	addi	x0,x0,0	  x0:0x00000000
       31925000	      3191	8000187c	fd9ff0ef	jal	x1,8000187c	  x1=0x8000187c
       31935000	      3192	00000000	00000013	addi	x0,x0,0	  x0:0x00000000
       31945000	      3193	80001850	00000013	addi	x0,x0,0	  x0:0x00000000
       31955000	      3194	80001854	024000ef	jal	x1,80001854	  x1=0x80001854
       31965000	      3195	00000000	00000013	addi	x0,x0,0	  x0:0x00000000
       31975000	      3196	80001874	00000013	addi	x0,x0,0	  x0:0x00000000
       31985000	      3197	80001878	ffdffaef	jal	x21,80001878	 x21=0x80001878
       31995000	      3198	00000000	00000013	addi	x0,x0,0	  x0:0x00000000
       32005000	      3199	80001870	00000013	addi	x0,x0,0	  x0:0x00000000
       32015000	      3200	80001874	020000ef	jal	x1,80001874	  x1=0x80001874
       32025000	      3201	00000000	00000013	addi	x0,x0,0	  x0:0x00000000
       32035000	      3202	80001890	00000013	addi	x0,x0,0	  x0:0x00000000
       32045000	      3203	80001894	fd1ffb6f	jal	x22,80001894	 x22=0x80001894
       32055000	      3204	00000000	00000013	addi	x0,x0,0	  x0:0x00000000
       32065000	      3205	80001860	00000013	addi	x0,x0,0	  x0:0x00000000
       32075000	      3206	80001864	0340056f	jal	x10,80001864	 x10=0x80001864
       32085000	      3207	00000000	00000013	addi	x0,x0,0	  x0:0x00000000
       32095000	      3208	80001894	00000013	addi	x0,x0,0	  x0:0x00000000
       32105000	      3209	80001898	ff5ff36f	jal	x6,80001898	  x6=0x80001898
       32115000	      3210	00000000	00000013	addi	x0,x0,0	  x0:0x00000000
       32125000	      3211	80001888	00000013	addi	x0,x0,0	  x0:0x00000000
       32135000	      3212	8000188c	fe5fff6f	jal	x30,8000188c	 x30=0x8000188c
       32145000	      3213	00000000	00000013	addi	x0,x0,0	  x0:0x00000000
       32155000	      3214	8000186c	00000013	addi	x0,x0,0	  x0:0x00000000
       32165000	      3215	80001870	02c000ef	jal	x1,80001870	  x1=0x80001870
       32175000	      3216	00000000	00000013	addi	x0,x0,0	  x0:0x00000000
       32185000	      3217	80001898	00000013	addi	x0,x0,0	  x0:0x00000000
       32195000	      3218	8000189c	fedff0ef	jal	x1,8000189c	  x1=0x8000189c
       32205000	      3219	00000000	00000013	addi	x0,x0,0	  x0:0x00000000
       32215000	      3220	80001884	00000013	addi	x0,x0,0	  x0:0x00000000
       32225000	      3221	80001888	0080036f	jal	x6,80001888	  x6=0x80001888
       32235000	      3222	00000000	00000013	addi	x0,x0,0	  x0:0x00000000
       32245000	      3223	8000188c	00000013	addi	x0,x0,0	  x0:0x00000000
       32255000	      3224	80001890	ff5ff0ef	jal	x1,80001890	  x1=0x80001890
       32265000	      3225	00000000	00000013	addi	x0,x0,0	  x0:0x00000000
       32275000	      3226	80001880	00000013	addi	x0,x0,0	  x0:0x00000000
       32285000	      3227	80001884	fcdff66f	jal	x12,80001884	 x12=0x80001884
       32295000	      3228	00000000	00000013	addi	x0,x0,0	  x0:0x00000000
       32305000	      3229	8000184c	00000013	addi	x0,x0,0	  x0:0x00000000
       32315000	      3230	80001850	064000ef	jal	x1,80001850	  x1=0x80001850
       32325000	      3231	00000000	00000013	addi	x0,x0,0	  x0:0x00000000
       32335000	      3232	800018b0	00000013	addi	x0,x0,0	  x0:0x00000000
       32345000	      3233	800018b4	fa5ff0ef	jal	x1,800018b4	  x1=0x800018b4
       32355000	      3234	00000000	00000013	addi	x0,x0,0	  x0:0x00000000
       32365000	      3235	80001854	00000013	addi	x0,x0,0	  x0:0x00000000
       32375000	      3236	80001858	058000ef	jal	x1,80001858	  x1=0x80001858
       32385000	      3237	00000000	00000013	addi	x0,x0,0	  x0:0x00000000
       32395000	      3238	800018ac	00000013	addi	x0,x0,0	  x0:0x00000000
       32405000	      3239	800018b0	ffdff0ef	jal	x1,800018b0	  x1=0x800018b0
       32415000	      3240	00000000	00000013	addi	x0,x0,0	  x0:0x00000000
       32425000	      3241	800018a8	00000013	addi	x0,x0,0	  x0:0x00000000
       32435000	      3242	800018ac	ff5ff0ef	jal	x1,800018ac	  x1=0x800018ac
       32445000	      3243	00000000	00000013	addi	x0,x0,0	  x0:0x00000000
       32455000	      3244	8000189c	00000013	addi	x0,x0,0	  x0:0x00000000
       32465000	      3245	800018a0	fcdff0ef	jal	x1,800018a0	  x1=0x800018a0
       32475000	      3246	00000000	00000013	addi	x0,x0,0	  x0:0x00000000
       32485000	      3247	80001868	00000013	addi	x0,x0,0	  x0:0x00000000
       32495000	      3248	8000186c	050001ef	jal	x3,8000186c	  x3=0x8000186c
       32505000	      3249	00000000	00000013	addi	x0,x0,0	  x0:0x00000000
       32515000	      3250	800018b8	00000013	addi	x0,x0,0	  x0:0x00000000
       32525000	      3251	800018bc	0131d993	srli	x19,x3,0x13	  x3:0x8000186c x19=0x00001000
       32535000	      3252	800018c0	034009ef	jal	x19,800018c0	 x19=0x800018c0
       32545000	      3253	00000000	00000013	addi	x0,x0,0	  x0:0x00000000
       32555000	      3254	800018f0	00000013	addi	x0,x0,0	  x0:0x00000000
       32565000	      3255	800018f4	fddff2ef	jal	x5,800018f4	  x5=0x800018f4
       32575000	      3256	00000000	00000013	addi	x0,x0,0	  x0:0x00000000
       32585000	      3257	800018cc	00000013	addi	x0,x0,0	  x0:0x00000000
       32595000	      3258	800018d0	018002ef	jal	x5,800018d0	  x5=0x800018d0
       32605000	      3259	00000000	00000013	addi	x0,x0,0	  x0:0x00000000
       32615000	      3260	800018e4	00000013	addi	x0,x0,0	  x0:0x00000000
       32625000	      3261	800018e8	fddffc6f	jal	x24,800018e8	 x24=0x800018e8
       32635000	      3262	00000000	00000013	addi	x0,x0,0	  x0:0x00000000
       32645000	      3263	800018c0	00000013	addi	x0,x0,0	  x0:0x00000000
       32655000	      3264	800018c4	034000ef	jal	x1,800018c4	  x1=0x800018c4
       32665000	      3265	00000000	00000013	addi	x0,x0,0	  x0:0x00000000
       32675000	      3266	800018f4	00000013	addi	x0,x0,0	  x0:0x00000000
       32685000	      3267	800018f8	fedff0ef	jal	x1,800018f8	  x1=0x800018f8
       32695000	      3268	00000000	00000013	addi	x0,x0,0	  x0:0x00000000
       32705000	      3269	800018e0	00000013	addi	x0,x0,0	  x0:0x00000000
       32715000	      3270	800018e4	008004ef	jal	x9,800018e4	  x9=0x800018e4
       32725000	      3271	00000000	00000013	addi	x0,x0,0	  x0:0x00000000
       32735000	      3272	800018e8	00000013	addi	x0,x0,0	  x0:0x00000000
       32745000	      3273	800018ec	0040036f	jal	x6,800018ec	  x6=0x800018ec
       32755000	      3274	00000000	00000013	addi	x0,x0,0	  x0:0x00000000
       32765000	      3275	800018ec	00000013	addi	x0,x0,0	  x0:0x00000000
       32775000	      3276	800018f0	ff1fff6f	jal	x30,800018f0	 x30=0x800018f0
       32785000	      3277	00000000	00000013	addi	x0,x0,0	  x0:0x00000000
       32795000	      3278	800018dc	00000013	addi	x0,x0,0	  x0:0x00000000
       32805000	      3279	800018e0	ffdff0ef	jal	x1,800018e0	  x1=0x800018e0
       32815000	      3280	00000000	00000013	addi	x0,x0,0	  x0:0x00000000
       32825000	      3281	800018d8	00000013	addi	x0,x0,0	  x0:0x00000000
       32835000	      3282	800018dc	ff9ff36f	jal	x6,800018dc	  x6=0x800018dc
       32845000	      3283	00000000	00000013	addi	x0,x0,0	  x0:0x00000000
       32855000	      3284	800018d0	00000013	addi	x0,x0,0	  x0:0x00000000
       32865000	      3285	800018d4	ff9ff1ef	jal	x3,800018d4	  x3=0x800018d4
       32875000	      3286	00000000	00000013	addi	x0,x0,0	  x0:0x00000000
       32885000	      3287	800018c8	00000013	addi	x0,x0,0	  x0:0x00000000
       32895000	      3288	800018cc	00c000ef	jal	x1,800018cc	  x1=0x800018cc
       32905000	      3289	00000000	00000013	addi	x0,x0,0	  x0:0x00000000
       32915000	      3290	800018d4	00000013	addi	x0,x0,0	  x0:0x00000000
       32925000	      3291	800018d8	ff1ff0ef	jal	x1,800018d8	  x1=0x800018d8
       32935000	      3292	00000000	00000013	addi	x0,x0,0	  x0:0x00000000
       32945000	      3293	800018c4	00000013	addi	x0,x0,0	  x0:0x00000000
       32955000	      3294	800018c8	034000ef	jal	x1,800018c8	  x1=0x800018c8
       32965000	      3295	00000000	00000013	addi	x0,x0,0	  x0:0x00000000
       32975000	      3296	800018f8	00000013	addi	x0,x0,0	  x0:0x00000000
       32985000	      3297	800018fc	b070e893	ori	x17,x1,-1273	  x1:0x800018c8 x17=0xfffffbcf
       32995000	      3298	80001900	044009ef	jal	x19,80001900	 x19=0x80001900
       33005000	      3299	00000000	00000013	addi	x0,x0,0	  x0:0x00000000
       33015000	      3300	80001940	00000013	addi	x0,x0,0	  x0:0x00000000
       33025000	      3301	80001944	ff9ff0ef	jal	x1,80001944	  x1=0x80001944
       33035000	      3302	00000000	00000013	addi	x0,x0,0	  x0:0x00000000
       33045000	      3303	80001938	00000013	addi	x0,x0,0	  x0:0x00000000
       33055000	      3304	8000193c	fedff36f	jal	x6,8000193c	  x6=0x8000193c
       33065000	      3305	00000000	00000013	addi	x0,x0,0	  x0:0x00000000
       33075000	      3306	80001924	00000013	addi	x0,x0,0	  x0:0x00000000
       33085000	      3307	80001928	004000ef	jal	x1,80001928	  x1=0x80001928
       33095000	      3308	00000000	00000013	addi	x0,x0,0	  x0:0x00000000
       33105000	      3309	80001928	00000013	addi	x0,x0,0	  x0:0x00000000
       33115000	      3310	8000192c	fe5ff0ef	jal	x1,8000192c	  x1=0x8000192c
       33125000	      3311	00000000	00000013	addi	x0,x0,0	  x0:0x00000000
       33135000	      3312	8000190c	00000013	addi	x0,x0,0	  x0:0x00000000
       33145000	      3313	80001910	ff9ff0ef	jal	x1,80001910	  x1=0x80001910
       33155000	      3314	00000000	00000013	addi	x0,x0,0	  x0:0x00000000
       33165000	      3315	80001904	00000013	addi	x0,x0,0	  x0:0x00000000
       33175000	      3316	80001908	00c0086f	jal	x16,80001908	 x16=0x80001908
       33185000	      3317	00000000	00000013	addi	x0,x0,0	  x0:0x00000000
       33195000	      3318	80001910	00000013	addi	x0,x0,0	  x0:0x00000000
       33205000	      3319	80001914	024006ef	jal	x13,80001914	 x13=0x80001914
       33215000	      3320	00000000	00000013	addi	x0,x0,0	  x0:0x00000000
       33225000	      3321	80001934	00000013	addi	x0,x0,0	  x0:0x00000000
       33235000	      3322	80001938	fe1ff0ef	jal	x1,80001938	  x1=0x80001938
       33245000	      3323	00000000	00000013	addi	x0,x0,0	  x0:0x00000000
       33255000	      3324	80001914	00000013	addi	x0,x0,0	  x0:0x00000000
       33265000	      3325	80001918	01c0036f	jal	x6,80001918	  x6=0x80001918
       33275000	      3326	00000000	00000013	addi	x0,x0,0	  x0:0x00000000
       33285000	      3327	80001930	00000013	addi	x0,x0,0	  x0:0x00000000
       33295000	      3328	80001934	fd1ff0ef	jal	x1,80001934	  x1=0x80001934
       33305000	      3329	00000000	00000013	addi	x0,x0,0	  x0:0x00000000
       33315000	      3330	80001900	00000013	addi	x0,x0,0	  x0:0x00000000
       33325000	      3331	80001904	03c000ef	jal	x1,80001904	  x1=0x80001904
       33335000	      3332	00000000	00000013	addi	x0,x0,0	  x0:0x00000000
       33345000	      3333	8000193c	00000013	addi	x0,x0,0	  x0:0x00000000
       33355000	      3334	80001940	fe5ff2ef	jal	x5,80001940	  x5=0x80001940
       33365000	      3335	00000000	00000013	addi	x0,x0,0	  x0:0x00000000
       33375000	      3336	80001920	00000013	addi	x0,x0,0	  x0:0x00000000
       33385000	      3337	80001924	ffdff36f	jal	x6,80001924	  x6=0x80001924
       33395000	      3338	00000000	00000013	addi	x0,x0,0	  x0:0x00000000
       33405000	      3339	8000191c	00000013	addi	x0,x0,0	  x0:0x00000000
       33415000	      3340	80001920	010000ef	jal	x1,80001920	  x1=0x80001920
       33425000	      3341	00000000	00000013	addi	x0,x0,0	  x0:0x00000000
       33435000	      3342	8000192c	00000013	addi	x0,x0,0	  x0:0x00000000
       33445000	      3343	80001930	fedff7ef	jal	x15,80001930	 x15=0x80001930
       33455000	      3344	00000000	00000013	addi	x0,x0,0	  x0:0x00000000
       33465000	      3345	80001918	00000013	addi	x0,x0,0	  x0:0x00000000
       33475000	      3346	8000191c	ff1ffe6f	jal	x28,8000191c	 x28=0x8000191c
       33485000	      3347	00000000	00000013	addi	x0,x0,0	  x0:0x00000000
       33495000	      3348	80001908	00000013	addi	x0,x0,0	  x0:0x00000000
       33505000	      3349	8000190c	03c00a6f	jal	x20,8000190c	 x20=0x8000190c
       33515000	      3350	00000000	00000013	addi	x0,x0,0	  x0:0x00000000
       33525000	      3351	80001944	00000013	addi	x0,x0,0	  x0:0x00000000
       33535000	      3352	80001948	00000013	addi	x0,x0,0	  x0:0x00000000
       33545000	      3353	8000194c	018009ef	jal	x19,8000194c	 x19=0x8000194c
       33555000	      3354	00000000	00000013	addi	x0,x0,0	  x0:0x00000000
       33565000	      3355	80001960	00000013	addi	x0,x0,0	  x0:0x00000000
       33575000	      3356	80001964	008000ef	jal	x1,80001964	  x1=0x80001964
       33585000	      3357	00000000	00000013	addi	x0,x0,0	  x0:0x00000000
       33595000	      3358	80001968	00000013	addi	x0,x0,0	  x0:0x00000000
       33605000	      3359	8000196c	ff5ff0ef	jal	x1,8000196c	  x1=0x8000196c
       33615000	      3360	00000000	00000013	addi	x0,x0,0	  x0:0x00000000
       33625000	      3361	8000195c	00000013	addi	x0,x0,0	  x0:0x00000000
       33635000	      3362	80001960	014000ef	jal	x1,80001960	  x1=0x80001960
       33645000	      3363	00000000	00000013	addi	x0,x0,0	  x0:0x00000000
       33655000	      3364	80001970	00000013	addi	x0,x0,0	  x0:0x00000000
       33665000	      3365	80001974	004000ef	jal	x1,80001974	  x1=0x80001974
       33675000	      3366	00000000	00000013	addi	x0,x0,0	  x0:0x00000000
       33685000	      3367	80001974	00000013	addi	x0,x0,0	  x0:0x00000000
       33695000	      3368	80001978	ff9ff36f	jal	x6,80001978	  x6=0x80001978
       33705000	      3369	00000000	00000013	addi	x0,x0,0	  x0:0x00000000
       33715000	      3370	8000196c	00000013	addi	x0,x0,0	  x0:0x00000000
       33725000	      3371	80001970	ff9ff36f	jal	x6,80001970	  x6=0x80001970
       33735000	      3372	00000000	00000013	addi	x0,x0,0	  x0:0x00000000
       33745000	      3373	80001964	00000013	addi	x0,x0,0	  x0:0x00000000
       33755000	      3374	80001968	ff5ff0ef	jal	x1,80001968	  x1=0x80001968
       33765000	      3375	00000000	00000013	addi	x0,x0,0	  x0:0x00000000
       33775000	      3376	80001958	00000013	addi	x0,x0,0	  x0:0x00000000
       33785000	      3377	8000195c	ff9ff0ef	jal	x1,8000195c	  x1=0x8000195c
       33795000	      3378	00000000	00000013	addi	x0,x0,0	  x0:0x00000000
       33805000	      3379	80001950	00000013	addi	x0,x0,0	  x0:0x00000000
       33815000	      3380	80001954	ffdff36f	jal	x6,80001954	  x6=0x80001954
       33825000	      3381	00000000	00000013	addi	x0,x0,0	  x0:0x00000000
       33835000	      3382	8000194c	00000013	addi	x0,x0,0	  x0:0x00000000
       33845000	      3383	80001950	008000ef	jal	x1,80001950	  x1=0x80001950
       33855000	      3384	00000000	00000013	addi	x0,x0,0	  x0:0x00000000
       33865000	      3385	80001954	00000013	addi	x0,x0,0	  x0:0x00000000
       33875000	      3386	80001958	024007ef	jal	x15,80001958	 x15=0x80001958
       33885000	      3387	00000000	00000013	addi	x0,x0,0	  x0:0x00000000
       33895000	      3388	80001978	00000013	addi	x0,x0,0	  x0:0x00000000
       33905000	      3389	8000197c	003a1313	slli	x6,x20,0x3	 x20:0x8000190c  x6=0x0000c860
       33915000	      3390	80001980	030009ef	jal	x19,80001980	 x19=0x80001980
       33925000	      3391	00000000	00000013	addi	x0,x0,0	  x0:0x00000000
       33935000	      3392	800019ac	00000013	addi	x0,x0,0	  x0:0x00000000
       33945000	      3393	800019b0	018000ef	jal	x1,800019b0	  x1=0x800019b0
       33955000	      3394	00000000	00000013	addi	x0,x0,0	  x0:0x00000000
       33965000	      3395	800019c4	00000013	addi	x0,x0,0	  x0:0x00000000
       33975000	      3396	800019c8	ff1ff0ef	jal	x1,800019c8	  x1=0x800019c8
       33985000	      3397	00000000	00000013	addi	x0,x0,0	  x0:0x00000000
       33995000	      3398	800019b4	00000013	addi	x0,x0,0	  x0:0x00000000
       34005000	      3399	800019b8	004000ef	jal	x1,800019b8	  x1=0x800019b8
       34015000	      3400	00000000	00000013	addi	x0,x0,0	  x0:0x00000000
       34025000	      3401	800019b8	00000013	addi	x0,x0,0	  x0:0x00000000
       34035000	      3402	800019bc	01c000ef	jal	x1,800019bc	  x1=0x800019bc
       34045000	      3403	00000000	00000013	addi	x0,x0,0	  x0:0x00000000
       34055000	      3404	800019d4	00000013	addi	x0,x0,0	  x0:0x00000000
       34065000	      3405	800019d8	008000ef	jal	x1,800019d8	  x1=0x800019d8
       34075000	      3406	00000000	00000013	addi	x0,x0,0	  x0:0x00000000
       34085000	      3407	800019dc	00000013	addi	x0,x0,0	  x0:0x00000000
       34095000	      3408	800019e0	fedffc6f	jal	x24,800019e0	 x24=0x800019e0
       34105000	      3409	00000000	00000013	addi	x0,x0,0	  x0:0x00000000
       34115000	      3410	800019c8	00000013	addi	x0,x0,0	  x0:0x00000000
       34125000	      3411	800019cc	fcdffbef	jal	x23,800019cc	 x23=0x800019cc
       34135000	      3412	00000000	00000013	addi	x0,x0,0	  x0:0x00000000
       34145000	      3413	80001994	00000013	addi	x0,x0,0	  x0:0x00000000
       34155000	      3414	80001998	03c000ef	jal	x1,80001998	  x1=0x80001998
       34165000	      3415	00000000	00000013	addi	x0,x0,0	  x0:0x00000000
       34175000	      3416	800019d0	00000013	addi	x0,x0,0	  x0:0x00000000
       34185000	      3417	800019d4	fd1ff46f	jal	x8,800019d4	  x8=0x800019d4
       34195000	      3418	00000000	00000013	addi	x0,x0,0	  x0:0x00000000
       34205000	      3419	800019a0	00000013	addi	x0,x0,0	  x0:0x00000000
       34215000	      3420	800019a4	0380036f	jal	x6,800019a4	  x6=0x800019a4
       34225000	      3421	00000000	00000013	addi	x0,x0,0	  x0:0x00000000
       34235000	      3422	800019d8	00000013	addi	x0,x0,0	  x0:0x00000000
       34245000	      3423	800019dc	fd9ff36f	jal	x6,800019dc	  x6=0x800019dc
       34255000	      3424	00000000	00000013	addi	x0,x0,0	  x0:0x00000000
       34265000	      3425	800019b0	00000013	addi	x0,x0,0	  x0:0x00000000
       34275000	      3426	800019b4	fd9ff0ef	jal	x1,800019b4	  x1=0x800019b4
       34285000	      3427	00000000	00000013	addi	x0,x0,0	  x0:0x00000000
       34295000	      3428	80001988	00000013	addi	x0,x0,0	  x0:0x00000000
       34305000	      3429	8000198c	008008ef	jal	x17,8000198c	 x17=0x8000198c
       34315000	      3430	00000000	00000013	addi	x0,x0,0	  x0:0x00000000
       34325000	      3431	80001990	00000013	addi	x0,x0,0	  x0:0x00000000
       34335000	      3432	80001994	014000ef	jal	x1,80001994	  x1=0x80001994
       34345000	      3433	00000000	00000013	addi	x0,x0,0	  x0:0x00000000
       34355000	      3434	800019a4	00000013	addi	x0,x0,0	  x0:0x00000000
       34365000	      3435	800019a8	fe1ff0ef	jal	x1,800019a8	  x1=0x800019a8
       34375000	      3436	00000000	00000013	addi	x0,x0,0	  x0:0x00000000
       34385000	      3437	80001984	00000013	addi	x0,x0,0	  x0:0x00000000
       34395000	      3438	80001988	0080036f	jal	x6,80001988	  x6=0x80001988
       34405000	      3439	00000000	00000013	addi	x0,x0,0	  x0:0x00000000
       34415000	      3440	8000198c	00000013	addi	x0,x0,0	  x0:0x00000000
       34425000	      3441	80001990	01c000ef	jal	x1,80001990	  x1=0x80001990
       34435000	      3442	00000000	00000013	addi	x0,x0,0	  x0:0x00000000
       34445000	      3443	800019a8	00000013	addi	x0,x0,0	  x0:0x00000000
       34455000	      3444	800019ac	fd9ff36f	jal	x6,800019ac	  x6=0x800019ac
       34465000	      3445	00000000	00000013	addi	x0,x0,0	  x0:0x00000000
       34475000	      3446	80001980	00000013	addi	x0,x0,0	  x0:0x00000000
       34485000	      3447	80001984	01c000ef	jal	x1,80001984	  x1=0x80001984
       34495000	      3448	00000000	00000013	addi	x0,x0,0	  x0:0x00000000
       34505000	      3449	8000199c	00000013	addi	x0,x0,0	  x0:0x00000000
       34515000	      3450	800019a0	02000cef	jal	x25,800019a0	 x25=0x800019a0
       34525000	      3451	00000000	00000013	addi	x0,x0,0	  x0:0x00000000
       34535000	      3452	800019bc	00000013	addi	x0,x0,0	  x0:0x00000000
       34545000	      3453	800019c0	fddff9ef	jal	x19,800019c0	 x19=0x800019c0
       34555000	      3454	00000000	00000013	addi	x0,x0,0	  x0:0x00000000
       34565000	      3455	80001998	00000013	addi	x0,x0,0	  x0:0x00000000
       34575000	      3456	8000199c	034004ef	jal	x9,8000199c	  x9=0x8000199c
       34585000	      3457	00000000	00000013	addi	x0,x0,0	  x0:0x00000000
       34595000	      3458	800019cc	00000013	addi	x0,x0,0	  x0:0x00000000
       34605000	      3459	800019d0	0180036f	jal	x6,800019d0	  x6=0x800019d0
       34615000	      3460	00000000	00000013	addi	x0,x0,0	  x0:0x00000000
       34625000	      3461	800019e4	00000013	addi	x0,x0,0	  x0:0x00000000
       34635000	      3462	800019e8	00400cef	jal	x25,800019e8	 x25=0x800019e8
       34645000	      3463	00000000	00000013	addi	x0,x0,0	  x0:0x00000000
       34655000	      3464	800019e8	00000013	addi	x0,x0,0	  x0:0x00000000
       34665000	      3465	800019ec	ff9ff36f	jal	x6,800019ec	  x6=0x800019ec
       34675000	      3466	00000000	00000013	addi	x0,x0,0	  x0:0x00000000
       34685000	      3467	800019e0	00000013	addi	x0,x0,0	  x0:0x00000000
       34695000	      3468	800019e4	fe1ff0ef	jal	x1,800019e4	  x1=0x800019e4
       34705000	      3469	00000000	00000013	addi	x0,x0,0	  x0:0x00000000
       34715000	      3470	800019c0	00000013	addi	x0,x0,0	  x0:0x00000000
       34725000	      3471	800019c4	02c0036f	jal	x6,800019c4	  x6=0x800019c4
       34735000	      3472	00000000	00000013	addi	x0,x0,0	  x0:0x00000000
       34745000	      3473	800019ec	00000013	addi	x0,x0,0	  x0:0x00000000
       34755000	      3474	800019f0	41698033	sub	x0,x19,x22	 x19:0x800019c0 x22:0x80001894
       34765000	      3475	800019f4	008009ef	jal	x19,800019f4	 x19=0x800019f4
       34775000	      3476	00000000	00000013	addi	x0,x0,0	  x0:0x00000000
       34785000	      3477	800019f8	00000013	addi	x0,x0,0	  x0:0x00000000
       34795000	      3478	800019fc	01c00bef	jal	x23,800019fc	 x23=0x800019fc
       34805000	      3479	00000000	00000013	addi	x0,x0,0	  x0:0x00000000
       34815000	      3480	80001a14	00000013	addi	x0,x0,0	  x0:0x00000000
       34825000	      3481	80001a18	ffdff0ef	jal	x1,80001a18	  x1=0x80001a18
       34835000	      3482	00000000	00000013	addi	x0,x0,0	  x0:0x00000000
       34845000	      3483	80001a10	00000013	addi	x0,x0,0	  x0:0x00000000
       34855000	      3484	80001a14	01c000ef	jal	x1,80001a14	  x1=0x80001a14
       34865000	      3485	00000000	00000013	addi	x0,x0,0	  x0:0x00000000
       34875000	      3486	80001a2c	00000013	addi	x0,x0,0	  x0:0x00000000
       34885000	      3487	80001a30	ff9ff0ef	jal	x1,80001a30	  x1=0x80001a30
       34895000	      3488	00000000	00000013	addi	x0,x0,0	  x0:0x00000000
       34905000	      3489	80001a24	00000013	addi	x0,x0,0	  x0:0x00000000
       34915000	      3490	80001a28	ff9ff0ef	jal	x1,80001a28	  x1=0x80001a28
       34925000	      3491	00000000	00000013	addi	x0,x0,0	  x0:0x00000000
       34935000	      3492	80001a1c	00000013	addi	x0,x0,0	  x0:0x00000000
       34945000	      3493	80001a20	0040026f	jal	x4,80001a20	  x4=0x80001a20
       34955000	      3494	00000000	00000013	addi	x0,x0,0	  x0:0x00000000
       34965000	      3495	80001a20	00000013	addi	x0,x0,0	  x0:0x00000000
       34975000	      3496	80001a24	fe1ff0ef	jal	x1,80001a24	  x1=0x80001a24
       34985000	      3497	00000000	00000013	addi	x0,x0,0	  x0:0x00000000
       34995000	      3498	80001a00	00000013	addi	x0,x0,0	  x0:0x00000000
       35005000	      3499	80001a04	03c000ef	jal	x1,80001a04	  x1=0x80001a04
       35015000	      3500	00000000	00000013	addi	x0,x0,0	  x0:0x00000000
       35025000	      3501	80001a3c	00000013	addi	x0,x0,0	  x0:0x00000000
       35035000	      3502	80001a40	fddff0ef	jal	x1,80001a40	  x1=0x80001a40
       35045000	      3503	00000000	00000013	addi	x0,x0,0	  x0:0x00000000
       35055000	      3504	80001a18	00000013	addi	x0,x0,0	  x0:0x00000000
       35065000	      3505	80001a1c	01000e6f	jal	x28,80001a1c	 x28=0x80001a1c
       35075000	      3506	00000000	00000013	addi	x0,x0,0	  x0:0x00000000
       35085000	      3507	80001a28	00000013	addi	x0,x0,0	  x0:0x00000000
       35095000	      3508	80001a2c	020000ef	jal	x1,80001a2c	  x1=0x80001a2c
       35105000	      3509	00000000	00000013	addi	x0,x0,0	  x0:0x00000000
       35115000	      3510	80001a48	00000013	addi	x0,x0,0	  x0:0x00000000
       35125000	      3511	80001a4c	fc5ff36f	jal	x6,80001a4c	  x6=0x80001a4c
       35135000	      3512	00000000	00000013	addi	x0,x0,0	  x0:0x00000000
       35145000	      3513	80001a0c	00000013	addi	x0,x0,0	  x0:0x00000000
       35155000	      3514	80001a10	ffdff0ef	jal	x1,80001a10	  x1=0x80001a10
       35165000	      3515	00000000	00000013	addi	x0,x0,0	  x0:0x00000000
       35175000	      3516	80001a08	00000013	addi	x0,x0,0	  x0:0x00000000
       35185000	      3517	80001a0c	028000ef	jal	x1,80001a0c	  x1=0x80001a0c
       35195000	      3518	00000000	00000013	addi	x0,x0,0	  x0:0x00000000
       35205000	      3519	80001a30	00000013	addi	x0,x0,0	  x0:0x00000000
       35215000	      3520	80001a34	010000ef	jal	x1,80001a34	  x1=0x80001a34
       35225000	      3521	00000000	00000013	addi	x0,x0,0	  x0:0x00000000
       35235000	      3522	80001a40	00000013	addi	x0,x0,0	  x0:0x00000000
       35245000	      3523	80001a44	ff5ff0ef	jal	x1,80001a44	  x1=0x80001a44
       35255000	      3524	00000000	00000013	addi	x0,x0,0	  x0:0x00000000
       35265000	      3525	80001a34	00000013	addi	x0,x0,0	  x0:0x00000000
       35275000	      3526	80001a38	fc1ff0ef	jal	x1,80001a38	  x1=0x80001a38
       35285000	      3527	00000000	00000013	addi	x0,x0,0	  x0:0x00000000
       35295000	      3528	800019f4	00000013	addi	x0,x0,0	  x0:0x00000000
       35305000	      3529	800019f8	0440036f	jal	x6,800019f8	  x6=0x800019f8
       35315000	      3530	00000000	00000013	addi	x0,x0,0	  x0:0x00000000
       35325000	      3531	80001a38	00000013	addi	x0,x0,0	  x0:0x00000000
       35335000	      3532	80001a3c	00c0016f	jal	x2,80001a3c	  x2=0x80001a3c
       35345000	      3533	00000000	00000013	addi	x0,x0,0	  x0:0x00000000
       35355000	      3534	80001a44	00000013	addi	x0,x0,0	  x0:0x00000000
       35365000	      3535	80001a48	fc1ff0ef	jal	x1,80001a48	  x1=0x80001a48
       35375000	      3536	00000000	00000013	addi	x0,x0,0	  x0:0x00000000
       35385000	      3537	80001a04	00000013	addi	x0,x0,0	  x0:0x00000000
       35395000	      3538	80001a08	ff9ff36f	jal	x6,80001a08	  x6=0x80001a08
       35405000	      3539	00000000	00000013	addi	x0,x0,0	  x0:0x00000000
       35415000	      3540	800019fc	00000013	addi	x0,x0,0	  x0:0x00000000
       35425000	      3541	80001a00	050008ef	jal	x17,80001a00	 x17=0x80001a00
       35435000	      3542	00000000	00000013	addi	x0,x0,0	  x0:0x00000000
       35445000	      3543	80001a4c	00000013	addi	x0,x0,0	  x0:0x00000000
       35455000	      3544	80001a50	011a3833	sltu	x16,x20,x17	 x20:0x8000190c x17:0x80001a00 x16=0x00000001
       35465000	      3545	80001a54	01c009ef	jal	x19,80001a54	 x19=0x80001a54
       35475000	      3546	00000000	00000013	addi	x0,x0,0	  x0:0x00000000
       35485000	      3547	80001a6c	00000013	addi	x0,x0,0	  x0:0x00000000
       35495000	      3548	80001a70	0080036f	jal	x6,80001a70	  x6=0x80001a70
       35505000	      3549	00000000	00000013	addi	x0,x0,0	  x0:0x00000000
       35515000	      3550	80001a74	00000013	addi	x0,x0,0	  x0:0x00000000
       35525000	      3551	80001a78	0080096f	jal	x18,80001a78	 x18=0x80001a78
       35535000	      3552	00000000	00000013	addi	x0,x0,0	  x0:0x00000000
       35545000	      3553	80001a7c	00000013	addi	x0,x0,0	  x0:0x00000000
       35555000	      3554	80001a80	fedff0ef	jal	x1,80001a80	  x1=0x80001a80
       35565000	      3555	00000000	00000013	addi	x0,x0,0	  x0:0x00000000
       35575000	      3556	80001a68	00000013	addi	x0,x0,0	  x0:0x00000000
       35585000	      3557	80001a6c	ff9ff0ef	jal	x1,80001a6c	  x1=0x80001a6c
       35595000	      3558	00000000	00000013	addi	x0,x0,0	  x0:0x00000000
       35605000	      3559	80001a60	00000013	addi	x0,x0,0	  x0:0x00000000
       35615000	      3560	80001a64	ffdff36f	jal	x6,80001a64	  x6=0x80001a64
       35625000	      3561	00000000	00000013	addi	x0,x0,0	  x0:0x00000000
       35635000	      3562	80001a5c	00000013	addi	x0,x0,0	  x0:0x00000000
       35645000	      3563	80001a60	014000ef	jal	x1,80001a60	  x1=0x80001a60
       35655000	      3564	00000000	00000013	addi	x0,x0,0	  x0:0x00000000
       35665000	      3565	80001a70	00000013	addi	x0,x0,0	  x0:0x00000000
       35675000	      3566	80001a74	fe9ff0ef	jal	x1,80001a74	  x1=0x80001a74
       35685000	      3567	00000000	00000013	addi	x0,x0,0	  x0:0x00000000
       35695000	      3568	80001a58	00000013	addi	x0,x0,0	  x0:0x00000000
       35705000	      3569	80001a5c	0280036f	jal	x6,80001a5c	  x6=0x80001a5c
       35715000	      3570	00000000	00000013	addi	x0,x0,0	  x0:0x00000000
       35725000	      3571	80001a80	00000013	addi	x0,x0,0	  x0:0x00000000
       35735000	      3572	80001a84	fe5ff0ef	jal	x1,80001a84	  x1=0x80001a84
       35745000	      3573	00000000	00000013	addi	x0,x0,0	  x0:0x00000000
       35755000	      3574	80001a64	00000013	addi	x0,x0,0	  x0:0x00000000
       35765000	      3575	80001a68	01400def	jal	x27,80001a68	 x27=0x80001a68
       35775000	      3576	00000000	00000013	addi	x0,x0,0	  x0:0x00000000
       35785000	      3577	80001a78	00000013	addi	x0,x0,0	  x0:0x00000000
       35795000	      3578	80001a7c	fddffbef	jal	x23,80001a7c	 x23=0x80001a7c
       35805000	      3579	00000000	00000013	addi	x0,x0,0	  x0:0x00000000
       35815000	      3580	80001a54	00000013	addi	x0,x0,0	  x0:0x00000000
       35825000	      3581	80001a58	0300036f	jal	x6,80001a58	  x6=0x80001a58
       35835000	      3582	00000000	00000013	addi	x0,x0,0	  x0:0x00000000
       35845000	      3583	80001a84	00000013	addi	x0,x0,0	  x0:0x00000000
       35855000	      3584	80001a88	e2baa993	slti	x19,x21,-469	 x21:0x80001878 x19=0x00000001
       35865000	      3585	80001a8c	024009ef	jal	x19,80001a8c	 x19=0x80001a8c
       35875000	      3586	00000000	00000013	addi	x0,x0,0	  x0:0x00000000
       35885000	      3587	80001aac	00000013	addi	x0,x0,0	  x0:0x00000000
       35895000	      3588	80001ab0	0080036f	jal	x6,80001ab0	  x6=0x80001ab0
       35905000	      3589	00000000	00000013	addi	x0,x0,0	  x0:0x00000000
       35915000	      3590	80001ab4	00000013	addi	x0,x0,0	  x0:0x00000000
       35925000	      3591	80001ab8	fedff0ef	jal	x1,80001ab8	  x1=0x80001ab8
       35935000	      3592	00000000	00000013	addi	x0,x0,0	  x0:0x00000000
       35945000	      3593	80001aa0	00000013	addi	x0,x0,0	  x0:0x00000000
       35955000	      3594	80001aa4	008000ef	jal	x1,80001aa4	  x1=0x80001aa4
       35965000	      3595	00000000	00000013	addi	x0,x0,0	  x0:0x00000000
       35975000	      3596	80001aa8	00000013	addi	x0,x0,0	  x0:0x00000000
       35985000	      3597	80001aac	ff1ffdef	jal	x27,80001aac	 x27=0x80001aac
       35995000	      3598	00000000	00000013	addi	x0,x0,0	  x0:0x00000000
       36005000	      3599	80001a98	00000013	addi	x0,x0,0	  x0:0x00000000
       36015000	      3600	80001a9c	ff5ff0ef	jal	x1,80001a9c	  x1=0x80001a9c
       36025000	      3601	00000000	00000013	addi	x0,x0,0	  x0:0x00000000
       36035000	      3602	80001a8c	00000013	addi	x0,x0,0	  x0:0x00000000
       36045000	      3603	80001a90	010000ef	jal	x1,80001a90	  x1=0x80001a90
       36055000	      3604	00000000	00000013	addi	x0,x0,0	  x0:0x00000000
       36065000	      3605	80001a9c	00000013	addi	x0,x0,0	  x0:0x00000000
       36075000	      3606	80001aa0	ff9ff0ef	jal	x1,80001aa0	  x1=0x80001aa0
       36085000	      3607	00000000	00000013	addi	x0,x0,0	  x0:0x00000000
       36095000	      3608	80001a94	00000013	addi	x0,x0,0	  x0:0x00000000
       36105000	      3609	80001a98	0100036f	jal	x6,80001a98	  x6=0x80001a98
       36115000	      3610	00000000	00000013	addi	x0,x0,0	  x0:0x00000000
       36125000	      3611	80001aa4	00000013	addi	x0,x0,0	  x0:0x00000000
       36135000	      3612	80001aa8	00c0036f	jal	x6,80001aa8	  x6=0x80001aa8
       36145000	      3613	00000000	00000013	addi	x0,x0,0	  x0:0x00000000
       36155000	      3614	80001ab0	00000013	addi	x0,x0,0	  x0:0x00000000
       36165000	      3615	80001ab4	fe1ff26f	jal	x4,80001ab4	  x4=0x80001ab4
       36175000	      3616	00000000	00000013	addi	x0,x0,0	  x0:0x00000000
       36185000	      3617	80001a90	00000013	addi	x0,x0,0	  x0:0x00000000
       36195000	      3618	80001a94	028000ef	jal	x1,80001a94	  x1=0x80001a94
       36205000	      3619	00000000	00000013	addi	x0,x0,0	  x0:0x00000000
       36215000	      3620	80001ab8	00000013	addi	x0,x0,0	  x0:0x00000000
       36225000	      3621	80001abc	00421bb3	sll	x23,x4,x4	  x4:0x80001ab4  x4:0x80001ab4 x23=0xab400000
       36235000	      3622	80001ac0	054009ef	jal	x19,80001ac0	 x19=0x80001ac0
       36245000	      3623	00000000	00000013	addi	x0,x0,0	  x0:0x00000000
       36255000	      3624	80001b10	00000013	addi	x0,x0,0	  x0:0x00000000
       36265000	      3625	80001b14	fc5ff36f	jal	x6,80001b14	  x6=0x80001b14
       36275000	      3626	00000000	00000013	addi	x0,x0,0	  x0:0x00000000
       36285000	      3627	80001ad4	00000013	addi	x0,x0,0	  x0:0x00000000
       36295000	      3628	80001ad8	ff9ff0ef	jal	x1,80001ad8	  x1=0x80001ad8
       36305000	      3629	00000000	00000013	addi	x0,x0,0	  x0:0x00000000
       36315000	      3630	80001acc	00000013	addi	x0,x0,0	  x0:0x00000000
       36325000	      3631	80001ad0	0400066f	jal	x12,80001ad0	 x12=0x80001ad0
       36335000	      3632	00000000	00000013	addi	x0,x0,0	  x0:0x00000000
       36345000	      3633	80001b0c	00000013	addi	x0,x0,0	  x0:0x00000000
       36355000	      3634	80001b10	ff9ff0ef	jal	x1,80001b10	  x1=0x80001b10
       36365000	      3635	00000000	00000013	addi	x0,x0,0	  x0:0x00000000
       36375000	      3636	80001b04	00000013	addi	x0,x0,0	  x0:0x00000000
       36385000	      3637	80001b08	fd5ff0ef	jal	x1,80001b08	  x1=0x80001b08
       36395000	      3638	00000000	00000013	addi	x0,x0,0	  x0:0x00000000
       36405000	      3639	80001ad8	00000013	addi	x0,x0,0	  x0:0x00000000
       36415000	      3640	80001adc	020000ef	jal	x1,80001adc	  x1=0x80001adc
       36425000	      3641	00000000	00000013	addi	x0,x0,0	  x0:0x00000000
       36435000	      3642	80001af8	00000013	addi	x0,x0,0	  x0:0x00000000
       36445000	      3643	80001afc	0040036f	jal	x6,80001afc	  x6=0x80001afc
       36455000	      3644	00000000	00000013	addi	x0,x0,0	  x0:0x00000000
       36465000	      3645	80001afc	00000013	addi	x0,x0,0	  x0:0x00000000
       36475000	      3646	80001b00	fc9ff16f	jal	x2,80001b00	  x2=0x80001b00
       36485000	      3647	00000000	00000013	addi	x0,x0,0	  x0:0x00000000
       36495000	      3648	80001ac4	00000013	addi	x0,x0,0	  x0:0x00000000
       36505000	      3649	80001ac8	0440036f	jal	x6,80001ac8	  x6=0x80001ac8
       36515000	      3650	00000000	00000013	addi	x0,x0,0	  x0:0x00000000
       36525000	      3651	80001b08	00000013	addi	x0,x0,0	  x0:0x00000000
       36535000	      3652	80001b0c	fb9ff0ef	jal	x1,80001b0c	  x1=0x80001b0c
       36545000	      3653	00000000	00000013	addi	x0,x0,0	  x0:0x00000000
       36555000	      3654	80001ac0	00000013	addi	x0,x0,0	  x0:0x00000000
       36565000	      3655	80001ac4	02c000ef	jal	x1,80001ac4	  x1=0x80001ac4
       36575000	      3656	00000000	00000013	addi	x0,x0,0	  x0:0x00000000
       36585000	      3657	80001aec	00000013	addi	x0,x0,0	  x0:0x00000000
       36595000	      3658	80001af0	fe5ffe6f	jal	x28,80001af0	 x28=0x80001af0
       36605000	      3659	00000000	00000013	addi	x0,x0,0	  x0:0x00000000
       36615000	      3660	80001ad0	00000013	addi	x0,x0,0	  x0:0x00000000
       36625000	      3661	80001ad4	014000ef	jal	x1,80001ad4	  x1=0x80001ad4
       36635000	      3662	00000000	00000013	addi	x0,x0,0	  x0:0x00000000
       36645000	      3663	80001ae4	00000013	addi	x0,x0,0	  x0:0x00000000
       36655000	      3664	80001ae8	0100076f	jal	x14,80001ae8	 x14=0x80001ae8
       36665000	      3665	00000000	00000013	addi	x0,x0,0	  x0:0x00000000
       36675000	      3666	80001af4	00000013	addi	x0,x0,0	  x0:0x00000000
       36685000	      3667	80001af8	ffdff0ef	jal	x1,80001af8	  x1=0x80001af8
       36695000	      3668	00000000	00000013	addi	x0,x0,0	  x0:0x00000000
       36705000	      3669	80001af0	00000013	addi	x0,x0,0	  x0:0x00000000
       36715000	      3670	80001af4	010007ef	jal	x15,80001af4	 x15=0x80001af4
       36725000	      3671	00000000	00000013	addi	x0,x0,0	  x0:0x00000000
       36735000	      3672	80001b00	00000013	addi	x0,x0,0	  x0:0x00000000
       36745000	      3673	80001b04	fe1ff36f	jal	x6,80001b04	  x6=0x80001b04
       36755000	      3674	00000000	00000013	addi	x0,x0,0	  x0:0x00000000
       36765000	      3675	80001ae0	00000013	addi	x0,x0,0	  x0:0x00000000
       36775000	      3676	80001ae4	008000ef	jal	x1,80001ae4	  x1=0x80001ae4
       36785000	      3677	00000000	00000013	addi	x0,x0,0	  x0:0x00000000
       36795000	      3678	80001ae8	00000013	addi	x0,x0,0	  x0:0x00000000
       36805000	      3679	80001aec	ff5ff8ef	jal	x17,80001aec	 x17=0x80001aec
       36815000	      3680	00000000	00000013	addi	x0,x0,0	  x0:0x00000000
       36825000	      3681	80001adc	00000013	addi	x0,x0,0	  x0:0x00000000
       36835000	      3682	80001ae0	fedff36f	jal	x6,80001ae0	  x6=0x80001ae0
       36845000	      3683	00000000	00000013	addi	x0,x0,0	  x0:0x00000000
       36855000	      3684	80001ac8	00000013	addi	x0,x0,0	  x0:0x00000000
       36865000	      3685	80001acc	04c0036f	jal	x6,80001acc	  x6=0x80001acc
       36875000	      3686	00000000	00000013	addi	x0,x0,0	  x0:0x00000000
       36885000	      3687	80001b14	00000013	addi	x0,x0,0	  x0:0x00000000
       36895000	      3688	80001b18	01b75a13	srli	x20,x14,0x1b	 x14:0x80001ae8 x20=0x00000010
       36905000	      3689	80001b1c	050009ef	jal	x19,80001b1c	 x19=0x80001b1c
       36915000	      3690	00000000	00000013	addi	x0,x0,0	  x0:0x00000000
       36925000	      3691	80001b68	00000013	addi	x0,x0,0	  x0:0x00000000
       36935000	      3692	80001b6c	fd5ffcef	jal	x25,80001b6c	 x25=0x80001b6c
       36945000	      3693	00000000	00000013	addi	x0,x0,0	  x0:0x00000000
       36955000	      3694	80001b3c	00000013	addi	x0,x0,0	  x0:0x00000000
       36965000	      3695	80001b40	fe5ff0ef	jal	x1,80001b40	  x1=0x80001b40
       36975000	      3696	00000000	00000013	addi	x0,x0,0	  x0:0x00000000
       36985000	      3697	80001b20	00000013	addi	x0,x0,0	  x0:0x00000000
       36995000	      3698	80001b24	044000ef	jal	x1,80001b24	  x1=0x80001b24
       37005000	      3699	00000000	00000013	addi	x0,x0,0	  x0:0x00000000
       37015000	      3700	80001b64	00000013	addi	x0,x0,0	  x0:0x00000000
       37025000	      3701	80001b68	fd5ff0ef	jal	x1,80001b68	  x1=0x80001b68
       37035000	      3702	00000000	00000013	addi	x0,x0,0	  x0:0x00000000
       37045000	      3703	80001b38	00000013	addi	x0,x0,0	  x0:0x00000000
       37055000	      3704	80001b3c	02000aef	jal	x21,80001b3c	 x21=0x80001b3c
       37065000	      3705	00000000	00000013	addi	x0,x0,0	  x0:0x00000000
       37075000	      3706	80001b58	00000013	addi	x0,x0,0	  x0:0x00000000
       37085000	      3707	80001b5c	fedffa6f	jal	x20,80001b5c	 x20=0x80001b5c
       37095000	      3708	00000000	00000013	addi	x0,x0,0	  x0:0x00000000
       37105000	      3709	80001b44	00000013	addi	x0,x0,0	  x0:0x00000000
       37115000	      3710	80001b48	0080036f	jal	x6,80001b48	  x6=0x80001b48
       37125000	      3711	00000000	00000013	addi	x0,x0,0	  x0:0x00000000
       37135000	      3712	80001b4c	00000013	addi	x0,x0,0	  x0:0x00000000
       37145000	      3713	80001b50	02c000ef	jal	x1,80001b50	  x1=0x80001b50
       37155000	      3714	00000000	00000013	addi	x0,x0,0	  x0:0x00000000
       37165000	      3715	80001b78	00000013	addi	x0,x0,0	  x0:0x00000000
       37175000	      3716	80001b7c	ffdff0ef	jal	x1,80001b7c	  x1=0x80001b7c
       37185000	      3717	00000000	00000013	addi	x0,x0,0	  x0:0x00000000
       37195000	      3718	80001b74	00000013	addi	x0,x0,0	  x0:0x00000000
       37205000	      3719	80001b78	fe9ff0ef	jal	x1,80001b78	  x1=0x80001b78
       37215000	      3720	00000000	00000013	addi	x0,x0,0	  x0:0x00000000
       37225000	      3721	80001b5c	00000013	addi	x0,x0,0	  x0:0x00000000
       37235000	      3722	80001b60	fc1ff0ef	jal	x1,80001b60	  x1=0x80001b60
       37245000	      3723	00000000	00000013	addi	x0,x0,0	  x0:0x00000000
       37255000	      3724	80001b1c	00000013	addi	x0,x0,0	  x0:0x00000000
       37265000	      3725	80001b20	060000ef	jal	x1,80001b20	  x1=0x80001b20
       37275000	      3726	00000000	00000013	addi	x0,x0,0	  x0:0x00000000
       37285000	      3727	80001b7c	00000013	addi	x0,x0,0	  x0:0x00000000
       37295000	      3728	80001b80	fb9ff0ef	jal	x1,80001b80	  x1=0x80001b80
       37305000	      3729	00000000	00000013	addi	x0,x0,0	  x0:0x00000000
       37315000	      3730	80001b34	00000013	addi	x0,x0,0	  x0:0x00000000
       37325000	      3731	80001b38	0200046f	jal	x8,80001b38	  x8=0x80001b38
       37335000	      3732	00000000	00000013	addi	x0,x0,0	  x0:0x00000000
       37345000	      3733	80001b54	00000013	addi	x0,x0,0	  x0:0x00000000
       37355000	      3734	80001b58	00c000ef	jal	x1,80001b58	  x1=0x80001b58
       37365000	      3735	00000000	00000013	addi	x0,x0,0	  x0:0x00000000
       37375000	      3736	80001b60	00000013	addi	x0,x0,0	  x0:0x00000000
       37385000	      3737	80001b64	0100036f	jal	x6,80001b64	  x6=0x80001b64
       37395000	      3738	00000000	00000013	addi	x0,x0,0	  x0:0x00000000
       37405000	      3739	80001b70	00000013	addi	x0,x0,0	  x0:0x00000000
       37415000	      3740	80001b74	fb5ff0ef	jal	x1,80001b74	  x1=0x80001b74
       37425000	      3741	00000000	00000013	addi	x0,x0,0	  x0:0x00000000
       37435000	      3742	80001b24	00000013	addi	x0,x0,0	  x0:0x00000000
       37445000	      3743	80001b28	00c000ef	jal	x1,80001b28	  x1=0x80001b28
       37455000	      3744	00000000	00000013	addi	x0,x0,0	  x0:0x00000000
       37465000	      3745	80001b30	00000013	addi	x0,x0,0	  x0:0x00000000
       37475000	      3746	80001b34	010000ef	jal	x1,80001b34	  x1=0x80001b34
       37485000	      3747	00000000	00000013	addi	x0,x0,0	  x0:0x00000000
       37495000	      3748	80001b40	00000013	addi	x0,x0,0	  x0:0x00000000
       37505000	      3749	80001b44	fedff0ef	jal	x1,80001b44	  x1=0x80001b44
       37515000	      3750	00000000	00000013	addi	x0,x0,0	  x0:0x00000000
       37525000	      3751	80001b2c	00000013	addi	x0,x0,0	  x0:0x00000000
       37535000	      3752	80001b30	ffdff36f	jal	x6,80001b30	  x6=0x80001b30
       37545000	      3753	00000000	00000013	addi	x0,x0,0	  x0:0x00000000
       37555000	      3754	80001b28	00000013	addi	x0,x0,0	  x0:0x00000000
       37565000	      3755	80001b2c	044000ef	jal	x1,80001b2c	  x1=0x80001b2c
       37575000	      3756	00000000	00000013	addi	x0,x0,0	  x0:0x00000000
       37585000	      3757	80001b6c	00000013	addi	x0,x0,0	  x0:0x00000000
       37595000	      3758	80001b70	fe5ff0ef	jal	x1,80001b70	  x1=0x80001b70
       37605000	      3759	00000000	00000013	addi	x0,x0,0	  x0:0x00000000
       37615000	      3760	80001b50	00000013	addi	x0,x0,0	  x0:0x00000000
       37625000	      3761	80001b54	ff9ff0ef	jal	x1,80001b54	  x1=0x80001b54
       37635000	      3762	00000000	00000013	addi	x0,x0,0	  x0:0x00000000
       37645000	      3763	80001b48	00000013	addi	x0,x0,0	  x0:0x00000000
       37655000	      3764	80001b4c	03800b6f	jal	x22,80001b4c	 x22=0x80001b4c
       37665000	      3765	00000000	00000013	addi	x0,x0,0	  x0:0x00000000
       37675000	      3766	80001b80	00000013	addi	x0,x0,0	  x0:0x00000000
       37685000	      3767	80001b84	bf3e2213	slti	x4,x28,-1037	 x28:0x80001af0  x4=0x00000001
       37695000	      3768	80001b88	004009ef	jal	x19,80001b88	 x19=0x80001b88
       37705000	      3769	00000000	00000013	addi	x0,x0,0	  x0:0x00000000
       37715000	      3770	80001b88	00000013	addi	x0,x0,0	  x0:0x00000000
       37725000	      3771	80001b8c	05c000ef	jal	x1,80001b8c	  x1=0x80001b8c
       37735000	      3772	00000000	00000013	addi	x0,x0,0	  x0:0x00000000
       37745000	      3773	80001be4	00000013	addi	x0,x0,0	  x0:0x00000000
       37755000	      3774	80001be8	ff1ff0ef	jal	x1,80001be8	  x1=0x80001be8
       37765000	      3775	00000000	00000013	addi	x0,x0,0	  x0:0x00000000
       37775000	      3776	80001bd4	00000013	addi	x0,x0,0	  x0:0x00000000
       37785000	      3777	80001bd8	fc1ff0ef	jal	x1,80001bd8	  x1=0x80001bd8
       37795000	      3778	00000000	00000013	addi	x0,x0,0	  x0:0x00000000
       37805000	      3779	80001b94	00000013	addi	x0,x0,0	  x0:0x00000000
       37815000	      3780	80001b98	00c008ef	jal	x17,80001b98	 x17=0x80001b98
       37825000	      3781	00000000	00000013	addi	x0,x0,0	  x0:0x00000000
       37835000	      3782	80001ba0	00000013	addi	x0,x0,0	  x0:0x00000000
       37845000	      3783	80001ba4	028000ef	jal	x1,80001ba4	  x1=0x80001ba4
       37855000	      3784	00000000	00000013	addi	x0,x0,0	  x0:0x00000000
       37865000	      3785	80001bc8	00000013	addi	x0,x0,0	  x0:0x00000000
       37875000	      3786	80001bcc	ff1ff0ef	jal	x1,80001bcc	  x1=0x80001bcc
       37885000	      3787	00000000	00000013	addi	x0,x0,0	  x0:0x00000000
       37895000	      3788	80001bb8	00000013	addi	x0,x0,0	  x0:0x00000000
       37905000	      3789	80001bbc	ff1ff26f	jal	x4,80001bbc	  x4=0x80001bbc
       37915000	      3790	00000000	00000013	addi	x0,x0,0	  x0:0x00000000
       37925000	      3791	80001ba8	00000013	addi	x0,x0,0	  x0:0x00000000
       37935000	      3792	80001bac	018000ef	jal	x1,80001bac	  x1=0x80001bac
       37945000	      3793	00000000	00000013	addi	x0,x0,0	  x0:0x00000000
       37955000	      3794	80001bc0	00000013	addi	x0,x0,0	  x0:0x00000000
       37965000	      3795	80001bc4	fcdff0ef	jal	x1,80001bc4	  x1=0x80001bc4
       37975000	      3796	00000000	00000013	addi	x0,x0,0	  x0:0x00000000
       37985000	      3797	80001b8c	00000013	addi	x0,x0,0	  x0:0x00000000
       37995000	      3798	80001b90	0300036f	jal	x6,80001b90	  x6=0x80001b90
       38005000	      3799	00000000	00000013	addi	x0,x0,0	  x0:0x00000000
       38015000	      3800	80001bbc	00000013	addi	x0,x0,0	  x0:0x00000000
       38025000	      3801	80001bc0	0240036f	jal	x6,80001bc0	  x6=0x80001bc0
       38035000	      3802	00000000	00000013	addi	x0,x0,0	  x0:0x00000000
       38045000	      3803	80001be0	00000013	addi	x0,x0,0	  x0:0x00000000
       38055000	      3804	80001be4	fd5ff0ef	jal	x1,80001be4	  x1=0x80001be4
       38065000	      3805	00000000	00000013	addi	x0,x0,0	  x0:0x00000000
       38075000	      3806	80001bb4	00000013	addi	x0,x0,0	  x0:0x00000000
       38085000	      3807	80001bb8	ff9ff36f	jal	x6,80001bb8	  x6=0x80001bb8
       38095000	      3808	00000000	00000013	addi	x0,x0,0	  x0:0x00000000
       38105000	      3809	80001bac	00000013	addi	x0,x0,0	  x0:0x00000000
       38115000	      3810	80001bb0	ff9ff36f	jal	x6,80001bb0	  x6=0x80001bb0
       38125000	      3811	00000000	00000013	addi	x0,x0,0	  x0:0x00000000
       38135000	      3812	80001ba4	00000013	addi	x0,x0,0	  x0:0x00000000
       38145000	      3813	80001ba8	02c000ef	jal	x1,80001ba8	  x1=0x80001ba8
       38155000	      3814	00000000	00000013	addi	x0,x0,0	  x0:0x00000000
       38165000	      3815	80001bd0	00000013	addi	x0,x0,0	  x0:0x00000000
       38175000	      3816	80001bd4	fc9ff36f	jal	x6,80001bd4	  x6=0x80001bd4
       38185000	      3817	00000000	00000013	addi	x0,x0,0	  x0:0x00000000
       38195000	      3818	80001b98	00000013	addi	x0,x0,0	  x0:0x00000000
       38205000	      3819	80001b9c	018000ef	jal	x1,80001b9c	  x1=0x80001b9c
       38215000	      3820	00000000	00000013	addi	x0,x0,0	  x0:0x00000000
       38225000	      3821	80001bb0	00000013	addi	x0,x0,0	  x0:0x00000000
       38235000	      3822	80001bb4	fe1ff36f	jal	x6,80001bb4	  x6=0x80001bb4
       38245000	      3823	00000000	00000013	addi	x0,x0,0	  x0:0x00000000
       38255000	      3824	80001b90	00000013	addi	x0,x0,0	  x0:0x00000000
       38265000	      3825	80001b94	03c000ef	jal	x1,80001b94	  x1=0x80001b94
       38275000	      3826	00000000	00000013	addi	x0,x0,0	  x0:0x00000000
       38285000	      3827	80001bcc	00000013	addi	x0,x0,0	  x0:0x00000000
       38295000	      3828	80001bd0	ff9ff0ef	jal	x1,80001bd0	  x1=0x80001bd0
       38305000	      3829	00000000	00000013	addi	x0,x0,0	  x0:0x00000000
       38315000	      3830	80001bc4	00000013	addi	x0,x0,0	  x0:0x00000000
       38325000	      3831	80001bc8	fd9ff0ef	jal	x1,80001bc8	  x1=0x80001bc8
       38335000	      3832	00000000	00000013	addi	x0,x0,0	  x0:0x00000000
       38345000	      3833	80001b9c	00000013	addi	x0,x0,0	  x0:0x00000000
       38355000	      3834	80001ba0	03c000ef	jal	x1,80001ba0	  x1=0x80001ba0
       38365000	      3835	00000000	00000013	addi	x0,x0,0	  x0:0x00000000
       38375000	      3836	80001bd8	00000013	addi	x0,x0,0	  x0:0x00000000
       38385000	      3837	80001bdc	004000ef	jal	x1,80001bdc	  x1=0x80001bdc
       38395000	      3838	00000000	00000013	addi	x0,x0,0	  x0:0x00000000
       38405000	      3839	80001bdc	00000013	addi	x0,x0,0	  x0:0x00000000
       38415000	      3840	80001be0	00c000ef	jal	x1,80001be0	  x1=0x80001be0
       38425000	      3841	00000000	00000013	addi	x0,x0,0	  x0:0x00000000
       38435000	      3842	80001be8	00000013	addi	x0,x0,0	  x0:0x00000000
       38445000	      3843	80001bec	002d49b3	xor	x19,x26,x2	 x26:0x80000000  x2:0x80001b00 x19=0x00001b00
       38455000	      3844	80001bf0	038009ef	jal	x19,80001bf0	 x19=0x80001bf0
       38465000	      3845	00000000	00000013	addi	x0,x0,0	  x0:0x00000000
       38475000	      3846	80001c24	00000013	addi	x0,x0,0	  x0:0x00000000
       38485000	      3847	80001c28	fddff86f	jal	x16,80001c28	 x16=0x80001c28
       38495000	      3848	00000000	00000013	addi	x0,x0,0	  x0:0x00000000
       38505000	      3849	80001c00	00000013	addi	x0,x0,0	  x0:0x00000000
       38515000	      3850	80001c04	040000ef	jal	x1,80001c04	  x1=0x80001c04
       38525000	      3851	00000000	00000013	addi	x0,x0,0	  x0:0x00000000
       38535000	      3852	80001c40	00000013	addi	x0,x0,0	  x0:0x00000000
       38545000	      3853	80001c44	fe1ff36f	jal	x6,80001c44	  x6=0x80001c44
       38555000	      3854	00000000	00000013	addi	x0,x0,0	  x0:0x00000000
       38565000	      3855	80001c20	00000013	addi	x0,x0,0	  x0:0x00000000
       38575000	      3856	80001c24	ff9ff0ef	jal	x1,80001c24	  x1=0x80001c24
       38585000	      3857	00000000	00000013	addi	x0,x0,0	  x0:0x00000000
       38595000	      3858	80001c18	00000013	addi	x0,x0,0	  x0:0x00000000
       38605000	      3859	80001c1c	ff5ff0ef	jal	x1,80001c1c	  x1=0x80001c1c
       38615000	      3860	00000000	00000013	addi	x0,x0,0	  x0:0x00000000
       38625000	      3861	80001c0c	00000013	addi	x0,x0,0	  x0:0x00000000
       38635000	      3862	80001c10	008000ef	jal	x1,80001c10	  x1=0x80001c10
       38645000	      3863	00000000	00000013	addi	x0,x0,0	  x0:0x00000000
       38655000	      3864	80001c14	00000013	addi	x0,x0,0	  x0:0x00000000
       38665000	      3865	80001c18	03c000ef	jal	x1,80001c18	  x1=0x80001c18
       38675000	      3866	00000000	00000013	addi	x0,x0,0	  x0:0x00000000
       38685000	      3867	80001c50	00000013	addi	x0,x0,0	  x0:0x00000000
       38695000	      3868	80001c54	fa5ff0ef	jal	x1,80001c54	  x1=0x80001c54
       38705000	      3869	00000000	00000013	addi	x0,x0,0	  x0:0x00000000
       38715000	      3870	80001bf4	00000013	addi	x0,x0,0	  x0:0x00000000
       38725000	      3871	80001bf8	058000ef	jal	x1,80001bf8	  x1=0x80001bf8
       38735000	      3872	00000000	00000013	addi	x0,x0,0	  x0:0x00000000
       38745000	      3873	80001c4c	00000013	addi	x0,x0,0	  x0:0x00000000
       38755000	      3874	80001c50	fb9ffeef	jal	x29,80001c50	 x29=0x80001c50
       38765000	      3875	00000000	00000013	addi	x0,x0,0	  x0:0x00000000
       38775000	      3876	80001c04	00000013	addi	x0,x0,0	  x0:0x00000000
       38785000	      3877	80001c08	054000ef	jal	x1,80001c08	  x1=0x80001c08
       38795000	      3878	00000000	00000013	addi	x0,x0,0	  x0:0x00000000
       38805000	      3879	80001c58	00000013	addi	x0,x0,0	  x0:0x00000000
       38815000	      3880	80001c5c	fddff0ef	jal	x1,80001c5c	  x1=0x80001c5c
       38825000	      3881	00000000	00000013	addi	x0,x0,0	  x0:0x00000000
       38835000	      3882	80001c34	00000013	addi	x0,x0,0	  x0:0x00000000
       38845000	      3883	80001c38	028001ef	jal	x3,80001c38	  x3=0x80001c38
       38855000	      3884	00000000	00000013	addi	x0,x0,0	  x0:0x00000000
       38865000	      3885	80001c5c	00000013	addi	x0,x0,0	  x0:0x00000000
       38875000	      3886	80001c60	fc1ffc6f	jal	x24,80001c60	 x24=0x80001c60
       38885000	      3887	00000000	00000013	addi	x0,x0,0	  x0:0x00000000
       38895000	      3888	80001c1c	00000013	addi	x0,x0,0	  x0:0x00000000
       38905000	      3889	80001c20	0280036f	jal	x6,80001c20	  x6=0x80001c20
       38915000	      3890	00000000	00000013	addi	x0,x0,0	  x0:0x00000000
       38925000	      3891	80001c44	00000013	addi	x0,x0,0	  x0:0x00000000
       38935000	      3892	80001c48	fe9ff36f	jal	x6,80001c48	  x6=0x80001c48
       38945000	      3893	00000000	00000013	addi	x0,x0,0	  x0:0x00000000
       38955000	      3894	80001c2c	00000013	addi	x0,x0,0	  x0:0x00000000
       38965000	      3895	80001c30	034000ef	jal	x1,80001c30	  x1=0x80001c30
       38975000	      3896	00000000	00000013	addi	x0,x0,0	  x0:0x00000000
       38985000	      3897	80001c60	00000013	addi	x0,x0,0	  x0:0x00000000
       38995000	      3898	80001c64	ff5ff0ef	jal	x1,80001c64	  x1=0x80001c64
       39005000	      3899	00000000	00000013	addi	x0,x0,0	  x0:0x00000000
       39015000	      3900	80001c54	00000013	addi	x0,x0,0	  x0:0x00000000
       39025000	      3901	80001c58	fd5ff36f	jal	x6,80001c58	  x6=0x80001c58
       39035000	      3902	00000000	00000013	addi	x0,x0,0	  x0:0x00000000
       39045000	      3903	80001c28	00000013	addi	x0,x0,0	  x0:0x00000000
       39055000	      3904	80001c2c	fd1ff0ef	jal	x1,80001c2c	  x1=0x80001c2c
       39065000	      3905	00000000	00000013	addi	x0,x0,0	  x0:0x00000000
       39075000	      3906	80001bf8	00000013	addi	x0,x0,0	  x0:0x00000000
       39085000	      3907	80001bfc	040000ef	jal	x1,80001bfc	  x1=0x80001bfc
       39095000	      3908	00000000	00000013	addi	x0,x0,0	  x0:0x00000000
       39105000	      3909	80001c38	00000013	addi	x0,x0,0	  x0:0x00000000
       39115000	      3910	80001c3c	fd1ff0ef	jal	x1,80001c3c	  x1=0x80001c3c
       39125000	      3911	00000000	00000013	addi	x0,x0,0	  x0:0x00000000
       39135000	      3912	80001c08	00000013	addi	x0,x0,0	  x0:0x00000000
       39145000	      3913	80001c0c	ff5ffeef	jal	x29,80001c0c	 x29=0x80001c0c
       39155000	      3914	00000000	00000013	addi	x0,x0,0	  x0:0x00000000
       39165000	      3915	80001bfc	00000013	addi	x0,x0,0	  x0:0x00000000
       39175000	      3916	80001c00	0340036f	jal	x6,80001c00	  x6=0x80001c00
       39185000	      3917	00000000	00000013	addi	x0,x0,0	  x0:0x00000000
       39195000	      3918	80001c30	00000013	addi	x0,x0,0	  x0:0x00000000
       39205000	      3919	80001c34	018000ef	jal	x1,80001c34	  x1=0x80001c34
       39215000	      3920	00000000	00000013	addi	x0,x0,0	  x0:0x00000000
       39225000	      3921	80001c48	00000013	addi	x0,x0,0	  x0:0x00000000
       39235000	      3922	80001c4c	fc9ff0ef	jal	x1,80001c4c	  x1=0x80001c4c
       39245000	      3923	00000000	00000013	addi	x0,x0,0	  x0:0x00000000
       39255000	      3924	80001c10	00000013	addi	x0,x0,0	  x0:0x00000000
       39265000	      3925	80001c14	02c0046f	jal	x8,80001c14	  x8=0x80001c14
       39275000	      3926	00000000	00000013	addi	x0,x0,0	  x0:0x00000000
       39285000	      3927	80001c3c	00000013	addi	x0,x0,0	  x0:0x00000000
       39295000	      3928	80001c40	fb5ff0ef	jal	x1,80001c40	  x1=0x80001c40
       39305000	      3929	00000000	00000013	addi	x0,x0,0	  x0:0x00000000
       39315000	      3930	80001bf0	00000013	addi	x0,x0,0	  x0:0x00000000
       39325000	      3931	80001bf4	0740056f	jal	x10,80001bf4	 x10=0x80001bf4
       39335000	      3932	00000000	00000013	addi	x0,x0,0	  x0:0x00000000
       39345000	      3933	80001c64	00000013	addi	x0,x0,0	  x0:0x00000000
       39355000	      3934	80001c68	40af84b3	sub	x9,x31,x10	 x31:0x80009f40 x10:0x80001bf4  x9=0x0000834c
       39365000	      3935	80001c6c	014009ef	jal	x19,80001c6c	 x19=0x80001c6c
       39375000	      3936	00000000	00000013	addi	x0,x0,0	  x0:0x00000000
       39385000	      3937	80001c7c	00000013	addi	x0,x0,0	  x0:0x00000000
       39395000	      3938	80001c80	0200026f	jal	x4,80001c80	  x4=0x80001c80
       39405000	      3939	00000000	00000013	addi	x0,x0,0	  x0:0x00000000
       39415000	      3940	80001c9c	00000013	addi	x0,x0,0	  x0:0x00000000
       39425000	      3941	80001ca0	fddff96f	jal	x18,80001ca0	 x18=0x80001ca0
       39435000	      3942	00000000	00000013	addi	x0,x0,0	  x0:0x00000000
       39445000	      3943	80001c78	00000013	addi	x0,x0,0	  x0:0x00000000
       39455000	      3944	80001c7c	00c000ef	jal	x1,80001c7c	  x1=0x80001c7c
       39465000	      3945	00000000	00000013	addi	x0,x0,0	  x0:0x00000000
       39475000	      3946	80001c84	00000013	addi	x0,x0,0	  x0:0x00000000
       39485000	      3947	80001c88	0140036f	jal	x6,80001c88	  x6=0x80001c88
       39495000	      3948	00000000	00000013	addi	x0,x0,0	  x0:0x00000000
       39505000	      3949	80001c98	00000013	addi	x0,x0,0	  x0:0x00000000
       39515000	      3950	80001c9c	ff5ff0ef	jal	x1,80001c9c	  x1=0x80001c9c
       39525000	      3951	00000000	00000013	addi	x0,x0,0	  x0:0x00000000
       39535000	      3952	80001c8c	00000013	addi	x0,x0,0	  x0:0x00000000
       39545000	      3953	80001c90	ffdff0ef	jal	x1,80001c90	  x1=0x80001c90
       39555000	      3954	00000000	00000013	addi	x0,x0,0	  x0:0x00000000
       39565000	      3955	80001c88	00000013	addi	x0,x0,0	  x0:0x00000000
       39575000	      3956	80001c8c	fedff0ef	jal	x1,80001c8c	  x1=0x80001c8c
       39585000	      3957	00000000	00000013	addi	x0,x0,0	  x0:0x00000000
       39595000	      3958	80001c74	00000013	addi	x0,x0,0	  x0:0x00000000
       39605000	      3959	80001c78	ff9ff36f	jal	x6,80001c78	  x6=0x80001c78
       39615000	      3960	00000000	00000013	addi	x0,x0,0	  x0:0x00000000
       39625000	      3961	80001c6c	00000013	addi	x0,x0,0	  x0:0x00000000
       39635000	      3962	80001c70	0340036f	jal	x6,80001c70	  x6=0x80001c70
       39645000	      3963	00000000	00000013	addi	x0,x0,0	  x0:0x00000000
       39655000	      3964	80001ca0	00000013	addi	x0,x0,0	  x0:0x00000000
       39665000	      3965	80001ca4	fd1ff5ef	jal	x11,80001ca4	 x11=0x80001ca4
       39675000	      3966	00000000	00000013	addi	x0,x0,0	  x0:0x00000000
       39685000	      3967	80001c70	00000013	addi	x0,x0,0	  x0:0x00000000
       39695000	      3968	80001c74	010000ef	jal	x1,80001c74	  x1=0x80001c74
       39705000	      3969	00000000	00000013	addi	x0,x0,0	  x0:0x00000000
       39715000	      3970	80001c80	00000013	addi	x0,x0,0	  x0:0x00000000
       39725000	      3971	80001c84	014000ef	jal	x1,80001c84	  x1=0x80001c84
       39735000	      3972	00000000	00000013	addi	x0,x0,0	  x0:0x00000000
       39745000	      3973	80001c94	00000013	addi	x0,x0,0	  x0:0x00000000
       39755000	      3974	80001c98	ffdff36f	jal	x6,80001c98	  x6=0x80001c98
       39765000	      3975	00000000	00000013	addi	x0,x0,0	  x0:0x00000000
       39775000	      3976	80001c90	00000013	addi	x0,x0,0	  x0:0x00000000
       39785000	      3977	80001c94	014000ef	jal	x1,80001c94	  x1=0x80001c94
       39795000	      3978	00000000	00000013	addi	x0,x0,0	  x0:0x00000000
       39805000	      3979	80001ca4	00000013	addi	x0,x0,0	  x0:0x00000000
       39815000	      3980	80001ca8	00888333	add	x6,x17,x8	 x17:0x80001b98  x8:0x80001c14  x6=0x000037ac
       39825000	      3981	80001cac	019e5933	srl	x18,x28,x25	 x28:0x80001af0 x25:0x80001b6c x18=0x00080001
       39835000	      3982	80001cb0	01d61a33	sll	x20,x12,x29	 x12:0x80001ad0 x29:0x80001c0c x20=0x01ad0000
       39845000	      3983	80001cb4	79bdb213	sltiu	x4,x27,1947	 x27:0x80001aac  x4=0x00000000
       39855000	      3984	80001cb8	e586a593	slti	x11,x13,-424	 x13:0x80001914 x11=0x00000001
       39865000	      3985	80001cbc	01c25e13	srli	x28,x4,0x1c	  x4:0x00000000 x28=0x00000000
       39875000	      3986	80001cc0	3878ec13	ori	x24,x17,903	 x17:0x80001b98 x24=0x80001b9f
       39885000	      3987	80001cc4	01f9dc13	srli	x24,x19,0x1f	 x19:0x80001c6c x24=0x00000001
       39895000	      3988	80001cc8	0041aeb3	slt	x29,x3,x4	  x3:0x80001c38  x4:0x00000000 x29=0x00000001
       39905000	      3989	80001ccc	accc6517	auipc	x10,0xaccc6	 x10=0x2ccc7cc8
       39915000	      3990	80001cd0	00ecaab3	slt	x21,x25,x14	 x25:0x80001b6c x14:0x80001ae8 x21=0x00000000
       39925000	      3991	80001cd4	000adb13	srli	x22,x21,0x0	 x21:0x00000000 x22=0x00000000
       39935000	      3992	80001cd8	014815b3	sll	x11,x16,x20	 x16:0x80001c28 x20:0x01ad0000 x11=0x80001c28
       39945000	      3993	80001cdc	a86e6913	ori	x18,x28,-1402	 x28:0x00000000 x18=0xfffffa86
       39955000	      3994	80001ce0	41038eb3	sub	x29,x7,x16	  x7:0x80009fc4 x16:0x80001c28 x29=0x0000839c
       39965000	      3995	80001ce4	008e1733	sll	x14,x28,x8	 x28:0x00000000  x8:0x80001c14 x14=0x00000000
       39975000	      3996	80001ce8	40a10cb3	sub	x25,x2,x10	  x2:0x80001b00 x10:0x2ccc7cc8 x25=0x53339e38
       39985000	      3997	80001cec	017cd913	srli	x18,x25,0x17	 x25:0x53339e38 x18=0x000000a6
       39995000	      3998	80001cf0	33caf917	auipc	x18,0x33caf	 x18=0xb3cb0cec
       40005000	      3999	80001cf4	3b080813	addi	x16,x16,944	 x16:0x80001c28 x16=0x80001fd8
       40015000	      4000	80001cf8	007f8863	beq	x31,x7,80001d08	 x31:0x80009f40  x7:0x80009fc4
       40025000	      4001	80001cfc	41be0eb3	sub	x29,x28,x27	 x28:0x00000000 x27:0x80001aac x29=0x7fffe554
       40035000	      4002	80001d00	00619833	sll	x16,x3,x6	  x3:0x80001c38  x6:0x000037ac x16=0x01c38000
       40045000	      4003	80001d04	7ede8b93	addi	x23,x29,2029	 x29:0x7fffe554 x23=0x7fffed41
       40055000	      4004	80001d08	01ca6e63	bltu	x20,x28,80001d24	 x20:0x01ad0000 x28:0x00000000
       40065000	      4005	80001d0c	f8556413	ori	x8,x10,-123	 x10:0x2ccc7cc8  x8=0xffffffcd
       40075000	      4006	80001d10	00508663	beq	x1,x5,80001d1c	  x1:0x80001c94  x5:0x80001940
       40085000	      4007	80001d14	00fc3633	sltu	x12,x24,x15	 x24:0x00000001 x15:0x80001af4 x12=0x00000001
       40095000	      4008	80001d18	00219693	slli	x13,x3,0x2	  x3:0x80001c38 x13=0x000070e0
       40105000	      4009	80001d1c	059c0263	beq	x24,x25,80001d60	 x24:0x00000001 x25:0x53339e38
       40115000	      4010	80001d20	02dac863	blt	x21,x13,80001d50	 x21:0x00000000 x13:0x000070e0
       40125000	      4011	00000000	00000013	addi	x0,x0,0	  x0:0x00000000
       40135000	      4012	80001d4c	00000013	addi	x0,x0,0	  x0:0x00000000
       40145000	      4013	80001d50	005229b3	slt	x19,x4,x5	  x4:0x00000000  x5:0x80001940 x19=0x00000000
       40155000	      4014	80001d54	40ef5d93	srai	x27,x30,0xe	 x30:0x800018f0 x27=0xfffe0000
       40165000	      4015	80001d58	016dee33	or	x28,x27,x22	 x27:0xfffe0000 x22:0x00000000 x28=0xfffe0000
       40175000	      4016	80001d5c	00387c63	bgeu	x16,x3,80001d74	 x16:0x01c38000  x3:0x80001c38
       40185000	      4017	80001d60	048e8263	beq	x29,x8,80001da4	 x29:0x7fffe554  x8:0xffffffcd
       40195000	      4018	80001d64	016f1863	bne	x30,x22,80001d74	 x30:0x800018f0 x22:0x00000000
       40205000	      4019	00000000	00000013	addi	x0,x0,0	  x0:0x00000000
       40215000	      4020	80001d70	00000013	addi	x0,x0,0	  x0:0x00000000
       40225000	      4021	80001d74	4de1c613	xori	x12,x3,1246	  x3:0x80001c38 x12=0x800018e6
       40235000	      4022	80001d78	036b5063	bge	x22,x22,80001d98	 x22:0x00000000 x22:0x00000000
       40245000	      4023	00000000	00000013	addi	x0,x0,0	  x0:0x00000000
       40255000	      4024	80001d94	00000013	addi	x0,x0,0	  x0:0x00000000
       40265000	      4025	80001d98	61f67737	lui	x14,0x61f67	 x14=0x61f67000
       40275000	      4026	80001d9c	01ac29b3	slt	x19,x24,x26	 x24:0x00000001 x26:0x80000000 x19=0x00000000
       40285000	      4027	80001da0	cf48c993	xori	x19,x17,-780	 x17:0x80001b98 x19=0x7fffe76c
       40295000	      4028	80001da4	03fc4463	blt	x24,x31,80001dcc	 x24:0x00000001 x31:0x80009f40
       40305000	      4029	80001da8	01186733	or	x14,x16,x17	 x16:0x01c38000 x17:0x80001b98 x14=0x81c39b98
       40315000	      4030	80001dac	01bb52b3	srl	x5,x22,x27	 x22:0x00000000 x27:0xfffe0000  x5=0x00000000
       40325000	      4031	80001db0	02b6c063	blt	x13,x11,80001dd0	 x13:0x000070e0 x11:0x80001c28
       40335000	      4032	80001db4	c1143293	sltiu	x5,x8,-1007	  x8:0xffffffcd  x5=0x00000000
       40345000	      4033	80001db8	0017c833	xor	x16,x15,x1	 x15:0x80001af4  x1:0x80001c94 x16=0x00000660
       40355000	      4034	80001dbc	00b74c63	blt	x14,x11,80001dd4	 x14:0x81c39b98 x11:0x80001c28
       40365000	      4035	80001dc0	00eb3193	sltiu	x3,x22,14	 x22:0x00000000  x3=0x00000001
       40375000	      4036	80001dc4	00d1df13	srli	x30,x3,0xd	  x3:0x00000001 x30=0x00000000
       40385000	      4037	80001dc8	00000013	addi	x0,x0,0	  x0:0x00000000
       40395000	      4038	80001dcc	70978593	addi	x11,x15,1801	 x15:0x80001af4 x11=0x800021fd
       40405000	      4039	80001dd0	00e1de93	srli	x29,x3,0xe	  x3:0x00000001 x29=0x00000000
       40415000	      4040	80001dd4	00d07263	bgeu	x0,x13,80001dd8	  x0:0x00000000 x13:0x000070e0
       40425000	      4041	80001dd8	008d9b33	sll	x22,x27,x8	 x27:0xfffe0000  x8:0xffffffcd x22=0xc0000000
       40435000	      4042	80001ddc	017477b3	and	x15,x8,x23	  x8:0xffffffcd x23:0x7fffed41 x15=0x7fffed41
       40445000	      4043	80001de0	0162b5b3	sltu	x11,x5,x22	  x5:0x00000000 x22:0xc0000000 x11=0x00000001
       40455000	      4044	80001de4	01a026b3	slt	x13,x0,x26	  x0:0x00000000 x26:0x80000000 x13=0x00000000
       40465000	      4045	80001de8	001e3833	sltu	x16,x28,x1	 x28:0xfffe0000  x1:0x80001c94 x16=0x00000000
       40475000	      4046	80001dec	01be5413	srli	x8,x28,0x1b	 x28:0xfffe0000  x8=0x0000001f
       40485000	      4047	80001df0	00800b33	add	x22,x0,x8	  x0:0x00000000  x8:0x0000001f x22=0x0000001f
       40495000	      4048	80001df4	632d7193	andi	x3,x26,1586	 x26:0x80000000  x3=0x00000000
       40505000	      4049	80001df8	dba2a613	slti	x12,x5,-582	  x5:0x00000000 x12=0x00000000
       40515000	      4050	80001dfc	014bfc63	bgeu	x23,x20,80001e14	 x23:0x7fffed41 x20:0x01ad0000
       40525000	      4051	00000000	00000013	addi	x0,x0,0	  x0:0x00000000
       40535000	      4052	80001e10	00000013	addi	x0,x0,0	  x0:0x00000000
       40545000	      4053	80001e14	40025033	sra	x0,x4,x0	  x4:0x00000000  x0:0x00000000
       40555000	      4054	80001e18	05314263	blt	x2,x19,80001e5c	  x2:0x80001b00 x19:0x7fffe76c
       40565000	      4055	00000000	00000013	addi	x0,x0,0	  x0:0x00000000
       40575000	      4056	80001e58	00000013	addi	x0,x0,0	  x0:0x00000000
       40585000	      4057	80001e5c	03314063	blt	x2,x19,80001e7c	  x2:0x80001b00 x19:0x7fffe76c
       40595000	      4058	00000000	00000013	addi	x0,x0,0	  x0:0x00000000
       40605000	      4059	80001e78	00000013	addi	x0,x0,0	  x0:0x00000000
       40615000	      4060	80001e7c	0288cc63	blt	x17,x8,80001eb4	 x17:0x80001b98  x8:0x0000001f
       40625000	      4061	00000000	00000013	addi	x0,x0,0	  x0:0x00000000
       40635000	      4062	80001eb0	00000013	addi	x0,x0,0	  x0:0x00000000
       40645000	      4063	80001eb4	03510c63	beq	x2,x21,80001eec	  x2:0x80001b00 x21:0x00000000
       40655000	      4064	80001eb8	038a5663	bge	x20,x24,80001ee4	 x20:0x01ad0000 x24:0x00000001
       40665000	      4065	00000000	00000013	addi	x0,x0,0	  x0:0x00000000
       40675000	      4066	80001ee0	00000013	addi	x0,x0,0	  x0:0x00000000
       40685000	      4067	80001ee4	01b1d213	srli	x4,x3,0x1b	  x3:0x00000000  x4=0x00000000
       40695000	      4068	80001ee8	00d6ce63	blt	x13,x13,80001f04	 x13:0x00000000 x13:0x00000000
       40705000	      4069	80001eec	015b5193	srli	x3,x22,0x15	 x22:0x0000001f  x3=0x00000000
       40715000	      4070	80001ef0	004fb7b3	sltu	x15,x31,x4	 x31:0x80009f40  x4:0x00000000 x15=0x00000000
       40725000	      4071	80001ef4	01cc1933	sll	x18,x24,x28	 x24:0x00000001 x28:0xfffe0000 x18=0x00000001
       40735000	      4072	80001ef8	29959697	auipc	x13,0x29959	 x13=0xa995aef4
       40745000	      4073	80001efc	04176263	bltu	x14,x1,80001f40	 x14:0x81c39b98  x1:0x80001c94
       40755000	      4074	80001f00	03556263	bltu	x10,x21,80001f24	 x10:0x2ccc7cc8 x21:0x00000000
       40765000	      4075	80001f04	ac5d3493	sltiu	x9,x26,-1339	 x26:0x80000000  x9=0x00000001
       40775000	      4076	80001f08	4478e213	ori	x4,x17,1095	 x17:0x80001b98  x4=0x80001fdf
       40785000	      4077	80001f0c	4143d233	sra	x4,x7,x20	  x7:0x80009fc4 x20:0x01ad0000  x4=0x80009fc4
       40795000	      4078	80001f10	00000013	addi	x0,x0,0	  x0:0x00000000
       40805000	      4079	80001f14	00fc9a33	sll	x20,x25,x15	 x25:0x53339e38 x15:0x00000000 x20=0x53339e38
       40815000	      4080	80001f18	6f81ab13	slti	x22,x3,1784	  x3:0x00000000 x22=0x00000001
       40825000	      4081	80001f1c	057b7263	bgeu	x22,x23,80001f60	 x22:0x00000001 x23:0x7fffed41
       40835000	      4082	80001f20	2155c313	xori	x6,x11,533	 x11:0x00000001  x6=0x00000214
       40845000	      4083	80001f24	01a2c7b3	xor	x15,x5,x26	  x5:0x00000000 x26:0x80000000 x15=0x80000000
       40855000	      4084	80001f28	00e71e63	bne	x14,x14,80001f44	 x14:0x81c39b98 x14:0x81c39b98
       40865000	      4085	80001f2c	0209de63	bge	x19,x0,80001f68	 x19:0x7fffe76c  x0:0x00000000
       40875000	      4086	00000000	00000013	addi	x0,x0,0	  x0:0x00000000
       40885000	      4087	80001f64	00000013	addi	x0,x0,0	  x0:0x00000000
       40895000	      4088	80001f68	8dd5f493	andi	x9,x11,-1827	 x11:0x00000001  x9=0x00000001
       40905000	      4089	80001f6c	01a25433	srl	x8,x4,x26	  x4:0x80009fc4 x26:0x80000000  x8=0x80009fc4
       40915000	      4090	80001f70	0d3af063	bgeu	x21,x19,80002030	 x21:0x00000000 x19:0x7fffe76c
       40925000	      4091	80001f74	038009ef	jal	x19,80001f74	 x19=0x80001f74
       40935000	      4092	00000000	00000013	addi	x0,x0,0	  x0:0x00000000
       40945000	      4093	80001fa8	00000013	addi	x0,x0,0	  x0:0x00000000
       40955000	      4094	80001fac	fe1ff0ef	jal	x1,80001fac	  x1=0x80001fac
       40965000	      4095	00000000	00000013	addi	x0,x0,0	  x0:0x00000000
       40975000	      4096	80001f88	00000013	addi	x0,x0,0	  x0:0x00000000
       40985000	      4097	80001f8c	0500036f	jal	x6,80001f8c	  x6=0x80001f8c
       40995000	      4098	00000000	00000013	addi	x0,x0,0	  x0:0x00000000
       41005000	      4099	80001fd8	00000013	addi	x0,x0,0	  x0:0x00000000
       41015000	      4100	80001fdc	fc9ff36f	jal	x6,80001fdc	  x6=0x80001fdc
       41025000	      4101	00000000	00000013	addi	x0,x0,0	  x0:0x00000000
       41035000	      4102	80001fa0	00000013	addi	x0,x0,0	  x0:0x00000000
       41045000	      4103	80001fa4	fedff0ef	jal	x1,80001fa4	  x1=0x80001fa4
       41055000	      4104	00000000	00000013	addi	x0,x0,0	  x0:0x00000000
       41065000	      4105	80001f8c	00000013	addi	x0,x0,0	  x0:0x00000000
       41075000	      4106	80001f90	0340036f	jal	x6,80001f90	  x6=0x80001f90
       41085000	      4107	00000000	00000013	addi	x0,x0,0	  x0:0x00000000
       41095000	      4108	80001fc0	00000013	addi	x0,x0,0	  x0:0x00000000
       41105000	      4109	80001fc4	014000ef	jal	x1,80001fc4	  x1=0x80001fc4
       41115000	      4110	00000000	00000013	addi	x0,x0,0	  x0:0x00000000
       41125000	      4111	80001fd4	00000013	addi	x0,x0,0	  x0:0x00000000
       41135000	      4112	80001fd8	ffdff36f	jal	x6,80001fd8	  x6=0x80001fd8
       41145000	      4113	00000000	00000013	addi	x0,x0,0	  x0:0x00000000
       41155000	      4114	80001fd0	00000013	addi	x0,x0,0	  x0:0x00000000
       41165000	      4115	80001fd4	ffdff0ef	jal	x1,80001fd4	  x1=0x80001fd4
       41175000	      4116	00000000	00000013	addi	x0,x0,0	  x0:0x00000000
       41185000	      4117	80001fcc	00000013	addi	x0,x0,0	  x0:0x00000000
       41195000	      4118	80001fd0	fb1ff56f	jal	x10,80001fd0	 x10=0x80001fd0
       41205000	      4119	00000000	00000013	addi	x0,x0,0	  x0:0x00000000
       41215000	      4120	80001f7c	00000013	addi	x0,x0,0	  x0:0x00000000
       41225000	      4121	80001f80	020000ef	jal	x1,80001f80	  x1=0x80001f80
       41235000	      4122	00000000	00000013	addi	x0,x0,0	  x0:0x00000000
       41245000	      4123	80001f9c	00000013	addi	x0,x0,0	  x0:0x00000000
       41255000	      4124	80001fa0	02c001ef	jal	x3,80001fa0	  x3=0x80001fa0
       41265000	      4125	00000000	00000013	addi	x0,x0,0	  x0:0x00000000
       41275000	      4126	80001fc8	00000013	addi	x0,x0,0	  x0:0x00000000
       41285000	      4127	80001fcc	fedff0ef	jal	x1,80001fcc	  x1=0x80001fcc
       41295000	      4128	00000000	00000013	addi	x0,x0,0	  x0:0x00000000
       41305000	      4129	80001fb4	00000013	addi	x0,x0,0	  x0:0x00000000
       41315000	      4130	80001fb8	0080036f	jal	x6,80001fb8	  x6=0x80001fb8
       41325000	      4131	00000000	00000013	addi	x0,x0,0	  x0:0x00000000
       41335000	      4132	80001fbc	00000013	addi	x0,x0,0	  x0:0x00000000
       41345000	      4133	80001fc0	028000ef	jal	x1,80001fc0	  x1=0x80001fc0
       41355000	      4134	00000000	00000013	addi	x0,x0,0	  x0:0x00000000
       41365000	      4135	80001fe4	00000013	addi	x0,x0,0	  x0:0x00000000
       41375000	      4136	80001fe8	f95ff0ef	jal	x1,80001fe8	  x1=0x80001fe8
       41385000	      4137	00000000	00000013	addi	x0,x0,0	  x0:0x00000000
       41395000	      4138	80001f78	00000013	addi	x0,x0,0	  x0:0x00000000
       41405000	      4139	80001f7c	02c0036f	jal	x6,80001f7c	  x6=0x80001f7c
       41415000	      4140	00000000	00000013	addi	x0,x0,0	  x0:0x00000000
       41425000	      4141	80001fa4	00000013	addi	x0,x0,0	  x0:0x00000000
       41435000	      4142	80001fa8	020002ef	jal	x5,80001fa8	  x5=0x80001fa8
       41445000	      4143	00000000	00000013	addi	x0,x0,0	  x0:0x00000000
       41455000	      4144	80001fc4	00000013	addi	x0,x0,0	  x0:0x00000000
       41465000	      4145	80001fc8	fe9ff16f	jal	x2,80001fc8	  x2=0x80001fc8
       41475000	      4146	00000000	00000013	addi	x0,x0,0	  x0:0x00000000
       41485000	      4147	80001fac	00000013	addi	x0,x0,0	  x0:0x00000000
       41495000	      4148	80001fb0	00c00e6f	jal	x28,80001fb0	 x28=0x80001fb0
       41505000	      4149	00000000	00000013	addi	x0,x0,0	  x0:0x00000000
       41515000	      4150	80001fb8	00000013	addi	x0,x0,0	  x0:0x00000000
       41525000	      4151	80001fbc	ff9ff0ef	jal	x1,80001fbc	  x1=0x80001fbc
       41535000	      4152	00000000	00000013	addi	x0,x0,0	  x0:0x00000000
       41545000	      4153	80001fb0	00000013	addi	x0,x0,0	  x0:0x00000000
       41555000	      4154	80001fb4	fe5ff0ef	jal	x1,80001fb4	  x1=0x80001fb4
       41565000	      4155	00000000	00000013	addi	x0,x0,0	  x0:0x00000000
       41575000	      4156	80001f94	00000013	addi	x0,x0,0	  x0:0x00000000
       41585000	      4157	80001f98	0480036f	jal	x6,80001f98	  x6=0x80001f98
       41595000	      4158	00000000	00000013	addi	x0,x0,0	  x0:0x00000000
       41605000	      4159	80001fdc	00000013	addi	x0,x0,0	  x0:0x00000000
       41615000	      4160	80001fe0	fa9ff0ef	jal	x1,80001fe0	  x1=0x80001fe0
       41625000	      4161	00000000	00000013	addi	x0,x0,0	  x0:0x00000000
       41635000	      4162	80001f84	00000013	addi	x0,x0,0	  x0:0x00000000
       41645000	      4163	80001f88	ff1ff0ef	jal	x1,80001f88	  x1=0x80001f88
       41655000	      4164	00000000	00000013	addi	x0,x0,0	  x0:0x00000000
       41665000	      4165	80001f74	00000013	addi	x0,x0,0	  x0:0x00000000
       41675000	      4166	80001f78	01c000ef	jal	x1,80001f78	  x1=0x80001f78
       41685000	      4167	00000000	00000013	addi	x0,x0,0	  x0:0x00000000
       41695000	      4168	80001f90	00000013	addi	x0,x0,0	  x0:0x00000000
       41705000	      4169	80001f94	ff1ff36f	jal	x6,80001f94	  x6=0x80001f94
       41715000	      4170	00000000	00000013	addi	x0,x0,0	  x0:0x00000000
       41725000	      4171	80001f80	00000013	addi	x0,x0,0	  x0:0x00000000
       41735000	      4172	80001f84	060000ef	jal	x1,80001f84	  x1=0x80001f84
       41745000	      4173	00000000	00000013	addi	x0,x0,0	  x0:0x00000000
       41755000	      4174	80001fe0	00000013	addi	x0,x0,0	  x0:0x00000000
       41765000	      4175	80001fe4	fb9ff0ef	jal	x1,80001fe4	  x1=0x80001fe4
       41775000	      4176	00000000	00000013	addi	x0,x0,0	  x0:0x00000000
       41785000	      4177	80001f98	00000013	addi	x0,x0,0	  x0:0x00000000
       41795000	      4178	80001f9c	050000ef	jal	x1,80001f9c	  x1=0x80001f9c
       41805000	      4179	00000000	00000013	addi	x0,x0,0	  x0:0x00000000
       41815000	      4180	80001fe8	00000013	addi	x0,x0,0	  x0:0x00000000
       41825000	      4181	80001fec	41cdd693	srai	x13,x27,0x1c	 x27:0xfffe0000 x13=0xffffffff
       41835000	      4182	80001ff0	0285c863	blt	x11,x8,80002020	 x11:0x00000001  x8:0x80009fc4
       41845000	      4183	80001ff4	017600b3	add	x1,x12,x23	 x12:0x00000000 x23:0x7fffed41  x1=0x7fffed41
       41855000	      4184	80001ff8	ff064b13	xori	x22,x12,-16	 x12:0x00000000 x22=0xfffffff0
       41865000	      4185	80001ffc	a0cdfb13	andi	x22,x27,-1524	 x27:0xfffe0000 x22=0xfffe0000
       41875000	      4186	80002000	4014dc93	srai	x25,x9,0x1	  x9:0x00000001 x25=0x00000000
       41885000	      4187	80002004	02ef4063	blt	x30,x14,80002024	 x30:0x00000000 x14:0x81c39b98
       41895000	      4188	80002008	00a6e213	ori	x4,x13,10	 x13:0xffffffff  x4=0xffffffff
       41905000	      4189	8000200c	dee7ca93	xori	x21,x15,-530	 x15:0x80000000 x21=0x7ffffdee
       41915000	      4190	80002010	00892e33	slt	x28,x18,x8	 x18:0x00000001  x8:0x80009fc4 x28=0x00000000
       41925000	      4191	80002014	3bfc8e13	addi	x28,x25,959	 x25:0x00000000 x28=0x000003bf
       41935000	      4192	80002018	001c61b3	or	x3,x24,x1	 x24:0x00000001  x1:0x7fffed41  x3=0x7fffed41
       41945000	      4193	8000201c	00031cb3	sll	x25,x6,x0	  x6:0x80001f94  x0:0x00000000 x25=0x80001f94
       41955000	      4194	80002020	7cfd7f13	andi	x30,x26,1999	 x26:0x80000000 x30=0x00000000
       41965000	      4195	80002024	5176a013	slti	x0,x13,1303	 x13:0xffffffff
       41975000	      4196	80002028	004b3c33	sltu	x24,x22,x4	 x22:0xfffe0000  x4:0xffffffff x24=0x00000001
       41985000	      4197	8000202c	042ae263	bltu	x21,x2,80002070	 x21:0x7ffffdee  x2:0x80001fc8
       41995000	      4198	00000000	00000013	addi	x0,x0,0	  x0:0x00000000
       42005000	      4199	8000206c	00000013	addi	x0,x0,0	  x0:0x00000000
       42015000	      4200	80002070	a8bf2293	slti	x5,x30,-1397	 x30:0x00000000  x5=0x00000000
       42025000	      4201	80002074	47396b93	ori	x23,x18,1139	 x18:0x00000001 x23=0x00000473
       42035000	      4202	80002078	2e781437	lui	x8,0x2e781	  x8=0x2e781000
       42045000	      4203	8000207c	fda7c613	xori	x12,x15,-38	 x15:0x80000000 x12=0x7fffffda
       42055000	      4204	80002080	414e08b3	sub	x17,x28,x20	 x28:0x000003bf x20:0x53339e38 x17=0xaccc6587
       42065000	      4205	80002084	a3af9497	auipc	x9,0xa3af9	  x9=0x23afb080
       42075000	      4206	80002088	4153d2b3	sra	x5,x7,x21	  x7:0x80009fc4 x21:0x7ffffdee  x5=0xfffe0002
       42085000	      4207	8000208c	01202f33	slt	x30,x0,x18	  x0:0x00000000 x18:0x00000001 x30=0x00000001
       42095000	      4208	80002090	00113433	sltu	x8,x2,x1	  x2:0x80001fc8  x1:0x7fffed41  x8=0x00000000
       42105000	      4209	80002094	00a65d93	srli	x27,x12,0xa	 x12:0x7fffffda x27=0x001fffff
       42115000	      4210	80002098	0fd78f13	addi	x30,x15,253	 x15:0x80000000 x30=0x800000fd
       42125000	      4211	8000209c	9c11b193	sltiu	x3,x3,-1599	  x3:0x7fffed41  x3=0x00000001
       42135000	      4212	800020a0	3f312c13	slti	x24,x2,1011	  x2:0x80001fc8 x24=0x00000001
       42145000	      4213	800020a4	409fd813	srai	x16,x31,0x9	 x31:0x80009f40 x16=0xffc0004f
       42155000	      4214	800020a8	408cd333	sra	x6,x25,x8	 x25:0x80001f94  x8:0x00000000  x6=0x80001f94
       42165000	      4215	800020ac	012a89b3	add	x19,x21,x18	 x21:0x7ffffdee x18:0x00000001 x19=0x7ffffdef
       42175000	      4216	800020b0	00271cb3	sll	x25,x14,x2	 x14:0x81c39b98  x2:0x80001fc8 x25=0xc39b9800
       42185000	      4217	800020b4	0135c663	blt	x11,x19,800020c0	 x11:0x00000001 x19:0x7ffffdef
       42195000	      4218	00000000	00000013	addi	x0,x0,0	  x0:0x00000000
       42205000	      4219	800020bc	00000013	addi	x0,x0,0	  x0:0x00000000
       42215000	      4220	800020c0	01f45b13	srli	x22,x8,0x1f	  x8:0x00000000 x22=0x00000000
       42225000	      4221	800020c4	0a887a13	andi	x20,x16,168	 x16:0xffc0004f x20=0x00000008
       42235000	      4222	800020c8	5c62a293	slti	x5,x5,1478	  x5:0xfffe0002  x5=0x00000001
       42245000	      4223	800020cc	0110d833	srl	x16,x1,x17	  x1:0x7fffed41 x17:0xaccc6587 x16=0x00ffffda
       42255000	      4224	800020d0	03141863	bne	x8,x17,80002100	  x8:0x00000000 x17:0xaccc6587
       42265000	      4225	00000000	00000013	addi	x0,x0,0	  x0:0x00000000
       42275000	      4226	800020fc	00000013	addi	x0,x0,0	  x0:0x00000000
       42285000	      4227	80002100	00a067b3	or	x15,x0,x10	  x0:0x00000000 x10:0x80001fd0 x15=0x80001fd0
       42295000	      4228	80002104	41ec5093	srai	x1,x24,0x1e	 x24:0x00000001  x1=0x00000000
       42305000	      4229	80002108	001e6ab3	or	x21,x28,x1	 x28:0x000003bf  x1:0x00000000 x21=0x000003bf
       42315000	      4230	8000210c	006d9633	sll	x12,x27,x6	 x27:0x001fffff  x6:0x80001f94 x12=0xfff00000
       42325000	      4231	80002110	01054533	xor	x10,x10,x16	 x10:0x80001fd0 x16:0x00ffffda x10=0x80ffe00a
       42335000	      4232	80002114	01da57b3	srl	x15,x20,x29	 x20:0x00000008 x29:0x00000000 x15=0x00000008
       42345000	      4233	80002118	98268913	addi	x18,x13,-1662	 x13:0xffffffff x18=0xfffff981
       42355000	      4234	8000211c	413f4293	xori	x5,x30,1043	 x30:0x800000fd  x5=0x800004ee
       42365000	      4235	80002120	01a995b3	sll	x11,x19,x26	 x19:0x7ffffdef x26:0x80000000 x11=0x7ffffdef
       42375000	      4236	80002124	02798c63	beq	x19,x7,8000215c	 x19:0x7ffffdef  x7:0x80009fc4
       42385000	      4237	80002128	4000d533	sra	x10,x1,x0	  x1:0x00000000  x0:0x00000000 x10=0x00000000
       42395000	      4238	8000212c	e5fe59b7	lui	x19,0xe5fe5	 x19=0xe5fe5000
       42405000	      4239	80002130	00af1c63	bne	x30,x10,80002148	 x30:0x800000fd x10:0x00000000
       42415000	      4240	00000000	00000013	addi	x0,x0,0	  x0:0x00000000
       42425000	      4241	80002144	00000013	addi	x0,x0,0	  x0:0x00000000
       42435000	      4242	80002148	001cf1b3	and	x3,x25,x1	 x25:0xc39b9800  x1:0x00000000  x3=0x00000000
       42445000	      4243	8000214c	00419913	slli	x18,x3,0x4	  x3:0x00000000 x18=0x00000000
       42455000	      4244	80002150	1222cdb7	lui	x27,0x1222c	 x27=0x1222c000
       42465000	      4245	80002154	00481c33	sll	x24,x16,x4	 x16:0x00ffffda  x4:0xffffffff x24=0x00000000
       42475000	      4246	80002158	01dbb2b3	sltu	x5,x23,x29	 x23:0x00000473 x29:0x00000000  x5=0x00000000
       42485000	      4247	8000215c	ef26a293	slti	x5,x13,-270	 x13:0xffffffff  x5=0x00000000
       42495000	      4248	80002160	01ddf133	and	x2,x27,x29	 x27:0x1222c000 x29:0x00000000  x2=0x00000000
       42505000	      4249	80002164	0150fe33	and	x28,x1,x21	  x1:0x00000000 x21:0x000003bf x28=0x00000000
       42515000	      4250	80002168	ab82b013	sltiu	x0,x5,-1352	  x5:0x00000000
       42525000	      4251	8000216c	023cf863	bgeu	x25,x3,8000219c	 x25:0xc39b9800  x3:0x00000000
       42535000	      4252	00000000	00000013	addi	x0,x0,0	  x0:0x00000000
       42545000	      4253	80002198	00000013	addi	x0,x0,0	  x0:0x00000000
       42555000	      4254	8000219c	00795933	srl	x18,x18,x7	 x18:0x00000000  x7:0x80009fc4 x18=0x00000000
       42565000	      4255	800021a0	00000013	addi	x0,x0,0	  x0:0x00000000
       42575000	      4256	800021a4	00728e63	beq	x5,x7,800021c0	  x5:0x00000000  x7:0x80009fc4
       42585000	      4257	800021a8	4b21f7b7	lui	x15,0x4b21f	 x15=0x4b21f000
       42595000	      4258	800021ac	37cf4817	auipc	x16,0x37cf4	 x16=0xb7cf61a8
       42605000	      4259	800021b0	cd7f2537	lui	x10,0xcd7f2	 x10=0xcd7f2000
       42615000	      4260	800021b4	0382ec63	bltu	x5,x24,800021ec	  x5:0x00000000 x24:0x00000000
       42625000	      4261	800021b8	019ce633	or	x12,x25,x25	 x25:0xc39b9800 x25:0xc39b9800 x12=0xc39b9800
       42635000	      4262	800021bc	00f4f7b3	and	x15,x9,x15	  x9:0x23afb080 x15:0x4b21f000 x15=0x0321b000
       42645000	      4263	800021c0	40b152b3	sra	x5,x2,x11	  x2:0x00000000 x11:0x7ffffdef  x5=0x00000000
       42655000	      4264	800021c4	0289c863	blt	x19,x8,800021f4	 x19:0xe5fe5000  x8:0x00000000
       42665000	      4265	00000000	00000013	addi	x0,x0,0	  x0:0x00000000
       42675000	      4266	800021f0	00000013	addi	x0,x0,0	  x0:0x00000000
       42685000	      4267	800021f4	c3697c13	andi	x24,x18,-970	 x18:0x00000000 x24=0x00000000
       42695000	      4268	800021f8	63ee1837	lui	x16,0x63ee1	 x16=0x63ee1000
       42705000	      4269	800021fc	00ff4cb3	xor	x25,x30,x15	 x30:0x800000fd x15:0x0321b000 x25=0x8321b0fd
       42715000	      4270	80002200	00d2ef33	or	x30,x5,x13	  x5:0x00000000 x13:0xffffffff x30=0xffffffff
       42725000	      4271	80002204	00000013	addi	x0,x0,0	  x0:0x00000000
       42735000	      4272	80002208	00b34eb3	xor	x29,x6,x11	  x6:0x80001f94 x11:0x7ffffdef x29=0xffffe27b
       42745000	      4273	8000220c	0636f463	bgeu	x13,x3,80002274	 x13:0xffffffff  x3:0x00000000
       42755000	      4274	00000000	00000013	addi	x0,x0,0	  x0:0x00000000
       42765000	      4275	80002270	00000013	addi	x0,x0,0	  x0:0x00000000
       42775000	      4276	80002274	1ae7c813	xori	x16,x15,430	 x15:0x0321b000 x16=0x0321b1ae
       42785000	      4277	80002278	01337533	and	x10,x6,x19	  x6:0x80001f94 x19:0xe5fe5000 x10=0x80001000
       42795000	      4278	8000227c	01cea7b3	slt	x15,x29,x28	 x29:0xffffe27b x28:0x00000000 x15=0x00000001
       42805000	      4279	80002280	64160193	addi	x3,x12,1601	 x12:0xc39b9800  x3=0xc39b9e41
       42815000	      4280	80002284	3021c193	xori	x3,x3,770	  x3:0xc39b9e41  x3=0xc39b9d43
       42825000	      4281	80002288	41df5613	srai	x12,x30,0x1d	 x30:0xffffffff x12=0xffffffff
       42835000	      4282	8000228c	017d55b3	srl	x11,x26,x23	 x26:0x80000000 x23:0x00000473 x11=0x00001000
       42845000	      4283	80002290	1c89a313	slti	x6,x19,456	 x19:0xe5fe5000  x6=0x00000001
       42855000	      4284	80002294	4295c713	xori	x14,x11,1065	 x11:0x00001000 x14=0x00001429
       42865000	      4285	80002298	975a7b93	andi	x23,x20,-1675	 x20:0x00000008 x23=0x00000000
       42875000	      4286	8000229c	c9787713	andi	x14,x16,-873	 x16:0x0321b1ae x14=0x0321b086
       42885000	      4287	800022a0	02210e63	beq	x2,x2,800022dc	  x2:0x00000000  x2:0x00000000
       42895000	      4288	00000000	00000013	addi	x0,x0,0	  x0:0x00000000
       42905000	      4289	800022d8	00000013	addi	x0,x0,0	  x0:0x00000000
       42915000	      4290	800022dc	009c7863	bgeu	x24,x9,800022ec	 x24:0x00000000  x9:0x23afb080
       42925000	      4291	800022e0	39e52517	auipc	x10,0x39e52	 x10=0xb9e542dc
       42935000	      4292	800022e4	00df8533	add	x10,x31,x13	 x31:0x80009f40 x13:0xffffffff x10=0x80009f3f
       42945000	      4293	800022e8	d1907a93	andi	x21,x0,-743	  x0:0x00000000 x21=0x00000000
       42955000	      4294	800022ec	00dfedb3	or	x27,x31,x13	 x31:0x80009f40 x13:0xffffffff x27=0xffffffff
       42965000	      4295	800022f0	00000013	addi	x0,x0,0	  x0:0x00000000
       42975000	      4296	800022f4	40a25e93	srai	x29,x4,0xa	  x4:0xffffffff x29=0xffffffff
       42985000	      4297	800022f8	4064dab3	sra	x21,x9,x6	  x9:0x23afb080  x6:0x00000001 x21=0x11d7d840
       42995000	      4298	800022fc	007fee33	or	x28,x31,x7	 x31:0x80009f40  x7:0x80009fc4 x28=0x80009fc4
       43005000	      4299	80002300	03368263	beq	x13,x19,80002324	 x13:0xffffffff x19:0xe5fe5000
       43015000	      4300	80002304	b664f813	andi	x16,x9,-1178	  x9:0x23afb080 x16=0x23afb000
       43025000	      4301	80002308	b7b2b993	sltiu	x19,x5,-1157	  x5:0x00000000 x19=0x00000001
       43035000	      4302	8000230c	40888b33	sub	x22,x17,x8	 x17:0xaccc6587  x8:0x00000000 x22=0xaccc6587
       43045000	      4303	80002310	00a69b93	slli	x23,x13,0xa	 x13:0xffffffff x23=0xfffffc00
       43055000	      4304	80002314	4adecb93	xori	x23,x29,1197	 x29:0xffffffff x23=0xfffffb52
       43065000	      4305	80002318	41d25733	sra	x14,x4,x29	  x4:0xffffffff x29:0xffffffff x14=0xffffffff
       43075000	      4306	8000231c	012309b3	add	x19,x6,x18	  x6:0x00000001 x18:0x00000000 x19=0x00000001
       43085000	      4307	80002320	009f9233	sll	x4,x31,x9	 x31:0x80009f40  x9:0x23afb080  x4=0x80009f40
       43095000	      4308	80002324	026d6063	bltu	x26,x6,80002344	 x26:0x80000000  x6:0x00000001
       43105000	      4309	80002328	01458733	add	x14,x11,x20	 x11:0x00001000 x20:0x00000008 x14=0x00001008
       43115000	      4310	8000232c	00e06c33	or	x24,x0,x14	  x0:0x00000000 x14:0x00001008 x24=0x00001008
       43125000	      4311	80002330	01e75633	srl	x12,x14,x30	 x14:0x00001008 x30:0xffffffff x12=0x00000000
       43135000	      4312	80002334	ed637793	andi	x15,x6,-298	  x6:0x00000001 x15=0x00000000
       43145000	      4313	80002338	019be233	or	x4,x23,x25	 x23:0xfffffb52 x25:0x8321b0fd  x4=0xfffffbff
       43155000	      4314	8000233c	3d646693	ori	x13,x8,982	  x8:0x00000000 x13=0x000003d6
       43165000	      4315	80002340	000ecf33	xor	x30,x29,x0	 x29:0xffffffff  x0:0x00000000 x30=0xffffffff
       43175000	      4316	80002344	344c3f13	sltiu	x30,x24,836	 x24:0x00001008 x30=0x00000000
       43185000	      4317	80002348	254d2993	slti	x19,x26,596	 x26:0x80000000 x19=0x00000001
       43195000	      4318	8000234c	58ed3c93	sltiu	x25,x26,1422	 x26:0x80000000 x25=0x00000000
       43205000	      4319	80002350	0177ec63	bltu	x15,x23,80002368	 x15:0x00000000 x23:0xfffffb52
       43215000	      4320	00000000	00000013	addi	x0,x0,0	  x0:0x00000000
       43225000	      4321	80002364	00000013	addi	x0,x0,0	  x0:0x00000000
       43235000	      4322	80002368	fa09a993	slti	x19,x19,-96	 x19:0x00000001 x19=0x00000000
       43245000	      4323	8000236c	01449313	slli	x6,x9,0x14	  x9:0x23afb080  x6=0x08000000
       43255000	      4324	80002370	00bab1b3	sltu	x3,x21,x11	 x21:0x11d7d840 x11:0x00001000  x3=0x00000000
       43265000	      4325	80002374	01b19db3	sll	x27,x3,x27	  x3:0x00000000 x27:0xffffffff x27=0x00000000
       43275000	      4326	80002378	a015e337	lui	x6,0xa015e	  x6=0xa015e000
       43285000	      4327	8000237c	41cb09b3	sub	x19,x22,x28	 x22:0xaccc6587 x28:0x80009fc4 x19=0x2ccbc5c3
       43295000	      4328	80002380	00f47eb3	and	x29,x8,x15	  x8:0x00000000 x15:0x00000000 x29=0x00000000
       43305000	      4329	80002384	a76df013	andi	x0,x27,-1418	 x27:0x00000000
       43315000	      4330	80002388	40620533	sub	x10,x4,x6	  x4:0xfffffbff  x6:0xa015e000 x10=0x5fea1bff
       43325000	      4331	8000238c	01cf88b3	add	x17,x31,x28	 x31:0x80009f40 x28:0x80009fc4 x17=0x00013f04
       43335000	      4332	80002390	b8c2cc17	auipc	x24,0xb8c2c	 x24=0x38c2e38c
       43345000	      4333	80002394	00000013	addi	x0,x0,0	  x0:0x00000000
       43355000	      4334	80002398	d0caee13	ori	x28,x21,-756	 x21:0x11d7d840 x28=0xfffffd4c
       43365000	      4335	8000239c	41d3df33	sra	x30,x7,x29	  x7:0x80009fc4 x29:0x00000000 x30=0x80009fc4
       43375000	      4336	800023a0	00dbcbb3	xor	x23,x23,x13	 x23:0xfffffb52 x13:0x000003d6 x23=0xfffff884
       43385000	      4337	800023a4	01af9513	slli	x10,x31,0x1a	 x31:0x80009f40 x10=0x00000000
       43395000	      4338	800023a8	01379a33	sll	x20,x15,x19	 x15:0x00000000 x19:0x2ccbc5c3 x20=0x00000000
       43405000	      4339	800023ac	01f0c9b3	xor	x19,x1,x31	  x1:0x00000000 x31:0x80009f40 x19=0x80009f40
       43415000	      4340	800023b0	033c5063	bge	x24,x19,800023d0	 x24:0x38c2e38c x19:0x80009f40
       43425000	      4341	00000000	00000013	addi	x0,x0,0	  x0:0x00000000
       43435000	      4342	800023cc	00000013	addi	x0,x0,0	  x0:0x00000000
       43445000	      4343	800023d0	afbd4013	xori	x0,x26,-1285	 x26:0x80000000
       43455000	      4344	800023d4	019a1a13	slli	x20,x20,0x19	 x20:0x00000000 x20=0x00000000
       43465000	      4345	800023d8	400b5713	srai	x14,x22,0x0	 x22:0xaccc6587 x14=0xaccc6587
       43475000	      4346	800023dc	01061863	bne	x12,x16,800023ec	 x12:0x00000000 x16:0x23afb000
       43485000	      4347	00000000	00000013	addi	x0,x0,0	  x0:0x00000000
       43495000	      4348	800023e8	00000013	addi	x0,x0,0	  x0:0x00000000
       43505000	      4349	800023ec	4d543713	sltiu	x14,x8,1237	  x8:0x00000000 x14=0x00000001
       43515000	      4350	800023f0	e37a2a97	auipc	x21,0xe37a2	 x21=0x637a43ec
       43525000	      4351	800023f4	006af6b3	and	x13,x21,x6	 x21:0x637a43ec  x6:0xa015e000 x13=0x20104000
       43535000	      4352	800023f8	014e4863	blt	x28,x20,80002408	 x28:0xfffffd4c x20:0x00000000
       43545000	      4353	00000000	00000013	addi	x0,x0,0	  x0:0x00000000
       43555000	      4354	80002404	00000013	addi	x0,x0,0	  x0:0x00000000
       43565000	      4355	80002408	46715697	auipc	x13,0x46715	 x13=0xc6717404
       43575000	      4356	8000240c	77d44997	auipc	x19,0x77d44	 x19=0xf7d46408
       43585000	      4357	80002410	0176d913	srli	x18,x13,0x17	 x13:0xc6717404 x18=0x0000018c
       43595000	      4358	80002414	01533733	sltu	x14,x6,x21	  x6:0xa015e000 x21:0x637a43ec x14=0x00000000
       43605000	      4359	80002418	34cbf013	andi	x0,x23,844	 x23:0xfffff884
       43615000	      4360	8000241c	84034a13	xori	x20,x6,-1984	  x6:0xa015e000 x20=0x5fea1840
       43625000	      4361	80002420	01b42833	slt	x16,x8,x27	  x8:0x00000000 x27:0x00000000 x16=0x00000000
       43635000	      4362	80002424	011c6933	or	x18,x24,x17	 x24:0x38c2e38c x17:0x00013f04 x18=0x38c3ff8c
       43645000	      4363	80002428	000f1113	slli	x2,x30,0x0	 x30:0x80009fc4  x2=0x80009fc4
       43655000	      4364	8000242c	02b01463	bne	x0,x11,80002454	  x0:0x00000000 x11:0x00001000
       43665000	      4365	00000000	00000013	addi	x0,x0,0	  x0:0x00000000
       43675000	      4366	80002450	00000013	addi	x0,x0,0	  x0:0x00000000
       43685000	      4367	80002454	0140f0b3	and	x1,x1,x20	  x1:0x00000000 x20:0x5fea1840  x1=0x00000000
       43695000	      4368	80002458	39fbdf37	lui	x30,0x39fbd	 x30=0x39fbd000
       43705000	      4369	8000245c	02291c63	bne	x18,x2,80002494	 x18:0x38c3ff8c  x2:0x80009fc4
       43715000	      4370	00000000	00000013	addi	x0,x0,0	  x0:0x00000000
       43725000	      4371	80002490	00000013	addi	x0,x0,0	  x0:0x00000000
       43735000	      4372	80002494	400f07b3	sub	x15,x30,x0	 x30:0x39fbd000  x0:0x00000000 x15=0x39fbd000
       43745000	      4373	80002498	059cc263	blt	x25,x25,800024dc	 x25:0x00000000 x25:0x00000000
       43755000	      4374	8000249c	9e675597	auipc	x11,0x9e675	 x11=0x1e677498
       43765000	      4375	800024a0	ff864013	xori	x0,x12,-8	 x12:0x00000000
       43775000	      4376	800024a4	41ddd893	srai	x17,x27,0x1d	 x27:0x00000000 x17=0x00000000
       43785000	      4377	800024a8	40fb0033	sub	x0,x22,x15	 x22:0xaccc6587 x15:0x39fbd000
       43795000	      4378	800024ac	0471d263	bge	x3,x7,800024f0	  x3:0x00000000  x7:0x80009fc4
       43805000	      4379	00000000	00000013	addi	x0,x0,0	  x0:0x00000000
       43815000	      4380	800024ec	00000013	addi	x0,x0,0	  x0:0x00000000
       43825000	      4381	800024f0	00000013	addi	x0,x0,0	  x0:0x00000000
       43835000	      4382	800024f4	c2853c13	sltiu	x24,x10,-984	 x10:0x00000000 x24=0x00000001
       43845000	      4383	800024f8	c9138813	addi	x16,x7,-879	  x7:0x80009fc4 x16=0x80009c55
       43855000	      4384	800024fc	001cd663	bge	x25,x1,80002508	 x25:0x00000000  x1:0x00000000
       43865000	      4385	00000000	00000013	addi	x0,x0,0	  x0:0x00000000
       43875000	      4386	80002504	00000013	addi	x0,x0,0	  x0:0x00000000
       43885000	      4387	80002508	0055a633	slt	x12,x11,x5	 x11:0x1e677498  x5:0x00000000 x12=0x00000000
       43895000	      4388	8000250c	7bc12b13	slti	x22,x2,1980	  x2:0x80009fc4 x22=0x00000001
       43905000	      4389	80002510	01af9db3	sll	x27,x31,x26	 x31:0x80009f40 x26:0x80000000 x27=0x80009f40
       43915000	      4390	80002514	00500bb3	add	x23,x0,x5	  x0:0x00000000  x5:0x00000000 x23=0x00000000
       43925000	      4391	80002518	95d3c093	xori	x1,x7,-1699	  x7:0x80009fc4  x1=0x7fff6699
       43935000	      4392	8000251c	0136c863	blt	x13,x19,8000252c	 x13:0xc6717404 x19:0xf7d46408
       43945000	      4393	00000000	00000013	addi	x0,x0,0	  x0:0x00000000
       43955000	      4394	80002528	00000013	addi	x0,x0,0	  x0:0x00000000
       43965000	      4395	8000252c	0f1e8d93	addi	x27,x29,241	 x29:0x00000000 x27=0x000000f1
       43975000	      4396	80002530	00ce6863	bltu	x28,x12,80002540	 x28:0xfffffd4c x12:0x00000000
       43985000	      4397	80002534	000fbc33	sltu	x24,x31,x0	 x31:0x80009f40  x0:0x00000000 x24=0x00000000
       43995000	      4398	80002538	00b79713	slli	x14,x15,0xb	 x15:0x39fbd000 x14=0xde800000
       44005000	      4399	8000253c	d0df4493	xori	x9,x30,-755	 x30:0x39fbd000  x9=0xc6042d0d
       44015000	      4400	80002540	400b87b3	sub	x15,x23,x0	 x23:0x00000000  x0:0x00000000 x15=0x00000000
       44025000	      4401	80002544	00ff4333	xor	x6,x30,x15	 x30:0x39fbd000 x15:0x00000000  x6=0x39fbd000
       44035000	      4402	80002548	001a1b13	slli	x22,x20,0x1	 x20:0x5fea1840 x22=0xbfd43080
       44045000	      4403	8000254c	be8e0913	addi	x18,x28,-1048	 x28:0xfffffd4c x18=0xfffff934
       44055000	      4404	80002550	be43c093	xori	x1,x7,-1052	  x7:0x80009fc4  x1=0x7fff6420
       44065000	      4405	80002554	015a91b3	sll	x3,x21,x21	 x21:0x637a43ec x21:0x637a43ec  x3=0xa43ec000
       44075000	      4406	80002558	00c90133	add	x2,x18,x12	 x18:0xfffff934 x12:0x00000000  x2=0xfffff934
       44085000	      4407	8000255c	03f9f063	bgeu	x19,x31,8000257c	 x19:0xf7d46408 x31:0x80009f40
       44095000	      4408	00000000	00000013	addi	x0,x0,0	  x0:0x00000000
       44105000	      4409	80002578	00000013	addi	x0,x0,0	  x0:0x00000000
       44115000	      4410	8000257c	01f1e263	bltu	x3,x31,80002580	  x3:0xa43ec000 x31:0x80009f40
       44125000	      4411	80002580	00000013	addi	x0,x0,0	  x0:0x00000000
       44135000	      4412	80002584	01146cb3	or	x25,x8,x17	  x8:0x00000000 x17:0x00000000 x25=0x00000000
       44145000	      4413	80002588	017fde63	bge	x31,x23,800025a4	 x31:0x80009f40 x23:0x00000000
       44155000	      4414	8000258c	d0f62293	slti	x5,x12,-753	 x12:0x00000000  x5=0x00000000
       44165000	      4415	80002590	003044b3	xor	x9,x0,x3	  x0:0x00000000  x3:0xa43ec000  x9=0xa43ec000
       44175000	      4416	80002594	003c66b3	or	x13,x24,x3	 x24:0x00000000  x3:0xa43ec000 x13=0xa43ec000
       44185000	      4417	80002598	5174cf13	xori	x30,x9,1303	  x9:0xa43ec000 x30=0xa43ec517
       44195000	      4418	8000259c	416cd693	srai	x13,x25,0x16	 x25:0x00000000 x13=0x00000000
       44205000	      4419	800025a0	01b98533	add	x10,x19,x27	 x19:0xf7d46408 x27:0x000000f1 x10=0xf7d464f9
       44215000	      4420	800025a4	51763f13	sltiu	x30,x12,1303	 x12:0x00000000 x30=0x00000001
       44225000	      4421	800025a8	d899cd93	xori	x27,x19,-631	 x19:0xf7d46408 x27=0x082b9981
       44235000	      4422	800025ac	00061c63	bne	x12,x0,800025c4	 x12:0x00000000  x0:0x00000000
       44245000	      4423	800025b0	9c58e793	ori	x15,x17,-1595	 x17:0x00000000 x15=0xfffff9c5
       44255000	      4424	800025b4	49944b13	xori	x22,x8,1177	  x8:0x00000000 x22=0x00000499
       44265000	      4425	800025b8	00da74b3	and	x9,x20,x13	 x20:0x5fea1840 x13:0x00000000  x9=0x00000000
       44275000	      4426	800025bc	00b1b933	sltu	x18,x3,x11	  x3:0xa43ec000 x11:0x1e677498 x18=0x00000000
       44285000	      4427	800025c0	018d6633	or	x12,x26,x24	 x26:0x80000000 x24:0x00000000 x12=0x80000000
       44295000	      4428	800025c4	0095a233	slt	x4,x11,x9	 x11:0x1e677498  x9:0x00000000  x4=0x00000000
       44305000	      4429	800025c8	0083aa33	slt	x20,x7,x8	  x7:0x80009fc4  x8:0x00000000 x20=0x00000001
       44315000	      4430	800025cc	01e4ccb3	xor	x25,x9,x30	  x9:0x00000000 x30:0x00000001 x25=0x00000001
       44325000	      4431	800025d0	01ed5933	srl	x18,x26,x30	 x26:0x80000000 x30:0x00000001 x18=0x40000000
       44335000	      4432	800025d4	03501863	bne	x0,x21,80002604	  x0:0x00000000 x21:0x637a43ec
       44345000	      4433	00000000	00000013	addi	x0,x0,0	  x0:0x00000000
       44355000	      4434	80002600	00000013	addi	x0,x0,0	  x0:0x00000000
       44365000	      4435	80002604	02969263	bne	x13,x9,80002628	 x13:0x00000000  x9:0x00000000
       44375000	      4436	80002608	002a2ab3	slt	x21,x20,x2	 x20:0x00000001  x2:0xfffff934 x21=0x00000000
       44385000	      4437	8000260c	018a89b3	add	x19,x21,x24	 x21:0x00000000 x24:0x00000000 x19=0x00000000
       44395000	      4438	80002610	012f5793	srli	x15,x30,0x12	 x30:0x00000001 x15=0x00000000
       44405000	      4439	80002614	01cb7e63	bgeu	x22,x28,80002630	 x22:0x00000499 x28:0xfffffd4c
       44415000	      4440	80002618	c4e52e17	auipc	x28,0xc4e52	 x28=0x44e54614
       44425000	      4441	8000261c	00dc5413	srli	x8,x24,0xd	 x24:0x00000000  x8=0x00000000
       44435000	      4442	80002620	0166f533	and	x10,x13,x22	 x13:0x00000000 x22:0x00000499 x10=0x00000000
       44445000	      4443	80002624	00dd9893	slli	x17,x27,0xd	 x27:0x082b9981 x17=0x73302000
       44455000	      4444	80002628	0244fc63	bgeu	x9,x4,80002660	  x9:0x00000000  x4:0x00000000
       44465000	      4445	00000000	00000013	addi	x0,x0,0	  x0:0x00000000
       44475000	      4446	8000265c	00000013	addi	x0,x0,0	  x0:0x00000000
       44485000	      4447	80002660	00000013	addi	x0,x0,0	  x0:0x00000000
       44495000	      4448	80002664	0180c863	blt	x1,x24,80002674	  x1:0x7fff6420 x24:0x00000000
       44505000	      4449	80002668	01be0cb3	add	x25,x28,x27	 x28:0x44e54614 x27:0x082b9981 x25=0x4d10df95
       44515000	      4450	8000266c	00c44cb3	xor	x25,x8,x12	  x8:0x00000000 x12:0x80000000 x25=0x80000000
       44525000	      4451	80002670	012b1133	sll	x2,x22,x18	 x22:0x00000499 x18:0x40000000  x2=0x00000499
       44535000	      4452	80002674	00d7fbb3	and	x23,x15,x13	 x15:0x00000000 x13:0x00000000 x23=0x00000000
       44545000	      4453	80002678	014d8933	add	x18,x27,x20	 x27:0x082b9981 x20:0x00000001 x18=0x082b9982
       44555000	      4454	8000267c	03ac0c63	beq	x24,x26,800026b4	 x24:0x00000000 x26:0x80000000
       44565000	      4455	80002680	542bbc93	sltiu	x25,x23,1346	 x23:0x00000000 x25=0x00000001
       44575000	      4456	80002684	017919b3	sll	x19,x18,x23	 x18:0x082b9982 x23:0x00000000 x19=0x082b9982
       44585000	      4457	80002688	0e6e6a93	ori	x21,x28,230	 x28:0x44e54614 x21=0x44e546f6
       44595000	      4458	8000268c	01e69db3	sll	x27,x13,x30	 x13:0x00000000 x30:0x00000001 x27=0x00000000
       44605000	      4459	80002690	00983333	sltu	x6,x16,x9	 x16:0x80009c55  x9:0x00000000  x6=0x00000000
       44615000	      4460	80002694	0076f863	bgeu	x13,x7,800026a4	 x13:0x00000000  x7:0x80009fc4
       44625000	      4461	80002698	00000013	addi	x0,x0,0	  x0:0x00000000
       44635000	      4462	8000269c	c80d4b93	xori	x23,x26,-896	 x26:0x80000000 x23=0x7ffffc80
       44645000	      4463	800026a0	00e189b3	add	x19,x3,x14	  x3:0xa43ec000 x14:0xde800000 x19=0x82bec000
       44655000	      4464	800026a4	417f5313	srai	x6,x30,0x17	 x30:0x00000001  x6=0x00000000
       44665000	      4465	800026a8	00000013	addi	x0,x0,0	  x0:0x00000000
       44675000	      4466	800026ac	17ab8697	auipc	x13,0x17ab8	 x13=0x97aba6a8
       44685000	      4467	800026b0	006d1133	sll	x2,x26,x6	 x26:0x80000000  x6:0x00000000  x2=0x80000000
       44695000	      4468	800026b4	00000013	addi	x0,x0,0	  x0:0x00000000
       44705000	      4469	800026b8	41b3d913	srai	x18,x7,0x1b	  x7:0x80009fc4 x18=0xfffffff0
       44715000	      4470	800026bc	03289063	bne	x17,x18,800026dc	 x17:0x73302000 x18:0xfffffff0
       44725000	      4471	00000000	00000013	addi	x0,x0,0	  x0:0x00000000
       44735000	      4472	800026d8	00000013	addi	x0,x0,0	  x0:0x00000000
       44745000	      4473	800026dc	00499ab3	sll	x21,x19,x4	 x19:0x82bec000  x4:0x00000000 x21=0x82bec000
       44755000	      4474	800026e0	40145093	srai	x1,x8,0x1	  x8:0x00000000  x1=0x00000000
       44765000	      4475	800026e4	01a21813	slli	x16,x4,0x1a	  x4:0x00000000 x16=0x00000000
       44775000	      4476	800026e8	00ec6e63	bltu	x24,x14,80002704	 x24:0x00000000 x14:0xde800000
       44785000	      4477	00000000	00000013	addi	x0,x0,0	  x0:0x00000000
       44795000	      4478	80002700	00000013	addi	x0,x0,0	  x0:0x00000000
       44805000	      4479	80002704	0128f663	bgeu	x17,x18,80002710	 x17:0x73302000 x18:0xfffffff0
       44815000	      4480	80002708	883f8a97	auipc	x21,0x883f8	 x21=0x083fa704
       44825000	      4481	8000270c	75582b37	lui	x22,0x75582	 x22=0x75582000
       44835000	      4482	80002710	ed48d6b7	lui	x13,0xed48d	 x13=0xed48d000
       44845000	      4483	80002714	cac5c717	auipc	x14,0xcac5c	 x14=0x4ac5e710
       44855000	      4484	80002718	017becb3	or	x25,x23,x23	 x23:0x7ffffc80 x23:0x7ffffc80 x25=0x7ffffc80
       44865000	      4485	8000271c	66d2f093	andi	x1,x5,1645	  x5:0x00000000  x1=0x00000000
       44875000	      4486	80002720	01203bb3	sltu	x23,x0,x18	  x0:0x00000000 x18:0xfffffff0 x23=0x00000001
       44885000	      4487	80002724	00937663	bgeu	x6,x9,80002730	  x6:0x00000000  x9:0x00000000
       44895000	      4488	00000000	00000013	addi	x0,x0,0	  x0:0x00000000
       44905000	      4489	8000272c	00000013	addi	x0,x0,0	  x0:0x00000000
       44915000	      4490	80002730	02f30863	beq	x6,x15,80002760	  x6:0x00000000 x15:0x00000000
       44925000	      4491	00000000	00000013	addi	x0,x0,0	  x0:0x00000000
       44935000	      4492	8000275c	00000013	addi	x0,x0,0	  x0:0x00000000
       44945000	      4493	80002760	40c28733	sub	x14,x5,x12	  x5:0x00000000 x12:0x80000000 x14=0x80000000
       44955000	      4494	80002764	00b2dc63	bge	x5,x11,8000277c	  x5:0x00000000 x11:0x1e677498
       44965000	      4495	80002768	00611813	slli	x16,x2,0x6	  x2:0x80000000 x16=0x00000000
       44975000	      4496	8000276c	00d7b8b3	sltu	x17,x15,x13	 x15:0x00000000 x13:0xed48d000 x17=0x00000001
       44985000	      4497	80002770	009e81b3	add	x3,x29,x9	 x29:0x00000000  x9:0x00000000  x3=0x00000000
       44995000	      4498	80002774	7675bb93	sltiu	x23,x11,1895	 x11:0x1e677498 x23=0x00000000
       45005000	      4499	80002778	0057cab3	xor	x21,x15,x5	 x15:0x00000000  x5:0x00000000 x21=0x00000000
       45015000	      4500	8000277c	002c52b3	srl	x5,x24,x2	 x24:0x00000000  x2:0x80000000  x5=0x00000000
       45025000	      4501	80002780	05ad1263	bne	x26,x26,800027c4	 x26:0x80000000 x26:0x80000000
       45035000	      4502	80002784	405bd813	srai	x16,x23,0x5	 x23:0x00000000 x16=0x00000000
       45045000	      4503	80002788	008abbb3	sltu	x23,x21,x8	 x21:0x00000000  x8:0x00000000 x23=0x00000000
       45055000	      4504	8000278c	00000013	addi	x0,x0,0	  x0:0x00000000
       45065000	      4505	80002790	00169b33	sll	x22,x13,x1	 x13:0xed48d000  x1:0x00000000 x22=0xed48d000
       45075000	      4506	80002794	01ede2b3	or	x5,x27,x30	 x27:0x00000000 x30:0x00000001  x5=0x00000001
       45085000	      4507	80002798	da6eeb93	ori	x23,x29,-602	 x29:0x00000000 x23=0xfffffda6
       45095000	      4508	8000279c	000e6133	or	x2,x28,x0	 x28:0x44e54614  x0:0x00000000  x2=0x44e54614
       45105000	      4509	800027a0	01fa2233	slt	x4,x20,x31	 x20:0x00000001 x31:0x80009f40  x4=0x00000000
       45115000	      4510	800027a4	e852b093	sltiu	x1,x5,-379	  x5:0x00000001  x1=0x00000001
       45125000	      4511	800027a8	41fdd433	sra	x8,x27,x31	 x27:0x00000000 x31:0x80009f40  x8=0x00000000
       45135000	      4512	800027ac	003c8933	add	x18,x25,x3	 x25:0x7ffffc80  x3:0x00000000 x18=0x7ffffc80
       45145000	      4513	800027b0	0181ff33	and	x30,x3,x24	  x3:0x00000000 x24:0x00000000 x30=0x00000000
       45155000	      4514	800027b4	037d0c63	beq	x26,x23,800027ec	 x26:0x80000000 x23:0xfffffda6
       45165000	      4515	800027b8	16448693	addi	x13,x9,356	  x9:0x00000000 x13=0x00000164
       45175000	      4516	800027bc	0192cc33	xor	x24,x5,x25	  x5:0x00000001 x25:0x7ffffc80 x24=0x7ffffc81
       45185000	      4517	800027c0	7d3129b7	lui	x19,0x7d312	 x19=0x7d312000
       45195000	      4518	800027c4	f279df17	auipc	x30,0xf279d	 x30=0x7279f7c0
       45205000	      4519	800027c8	7d212413	slti	x8,x2,2002	  x2:0x44e54614  x8=0x00000000
       45215000	      4520	800027cc	00d61ab3	sll	x21,x12,x13	 x12:0x80000000 x13:0x00000164 x21=0x00000000
       45225000	      4521	800027d0	00000013	addi	x0,x0,0	  x0:0x00000000
       45235000	      4522	800027d4	017c31b3	sltu	x3,x24,x23	 x24:0x7ffffc81 x23:0xfffffda6  x3=0x00000001
       45245000	      4523	800027d8	00ab1913	slli	x18,x22,0xa	 x22:0xed48d000 x18=0x23400000
       45255000	      4524	800027dc	004b76b3	and	x13,x22,x4	 x22:0xed48d000  x4:0x00000000 x13=0x00000000
       45265000	      4525	800027e0	a9da0497	auipc	x9,0xa9da0	  x9=0x29da27dc
       45275000	      4526	800027e4	7aaa8c93	addi	x25,x21,1962	 x21:0x00000000 x25=0x000007aa
       45285000	      4527	800027e8	9f87e513	ori	x10,x15,-1544	 x15:0x00000000 x10=0xfffff9f8
       45295000	      4528	800027ec	0138c7b3	xor	x15,x17,x19	 x17:0x00000001 x19:0x7d312000 x15=0x7d312001
       45305000	      4529	800027f0	01bbc8b3	xor	x17,x23,x27	 x23:0xfffffda6 x27:0x00000000 x17=0xfffffda6
       45315000	      4530	800027f4	27f97813	andi	x16,x18,639	 x18:0x23400000 x16=0x00000000
       45325000	      4531	800027f8	2b76e013	ori	x0,x13,695	 x13:0x00000000
       45335000	      4532	800027fc	017368b3	or	x17,x6,x23	  x6:0x00000000 x23:0xfffffda6 x17=0xfffffda6
       45345000	      4533	80002800	01101b33	sll	x22,x0,x17	  x0:0x00000000 x17:0xfffffda6 x22=0x00000000
       45355000	      4534	80002804	0dedd263	bge	x27,x30,800028c8	 x27:0x00000000 x30:0x7279f7c0
       45365000	      4535	80002808	00d6e5b3	or	x11,x13,x13	 x13:0x00000000 x13:0x00000000 x11=0x00000000
       45375000	      4536	8000280c	415454b3	sra	x9,x8,x21	  x8:0x00000000 x21:0x00000000  x9=0x00000000
       45385000	      4537	80002810	00f2dc93	srli	x25,x5,0xf	  x5:0x00000001 x25=0x00000000
       45395000	      4538	80002814	0bda1c63	bne	x20,x29,800028cc	 x20:0x00000001 x29:0x00000000
       45405000	      4539	00000000	00000013	addi	x0,x0,0	  x0:0x00000000
       45415000	      4540	800028c8	00000013	addi	x0,x0,0	  x0:0x00000000
       45425000	      4541	800028cc	00729e93	slli	x29,x5,0x7	  x5:0x00000001 x29=0x00000080
       45435000	      4542	800028d0	00643ab3	sltu	x21,x8,x6	  x8:0x00000000  x6:0x00000000 x21=0x00000000
       45445000	      4543	800028d4	019f5593	srli	x11,x30,0x19	 x30:0x7279f7c0 x11=0x00000039
       45455000	      4544	800028d8	00695f13	srli	x30,x18,0x6	 x18:0x23400000 x30=0x008d0000
       45465000	      4545	800028dc	8f802513	slti	x10,x0,-1800	  x0:0x00000000 x10=0x00000000
       45475000	      4546	800028e0	01fbf133	and	x2,x23,x31	 x23:0xfffffda6 x31:0x80009f40  x2=0x80009d00
       45485000	      4547	800028e4	01739713	slli	x14,x7,0x17	  x7:0x80009fc4 x14=0xe2000000
       45495000	      4548	800028e8	02026663	bltu	x4,x0,80002914	  x4:0x00000000  x0:0x00000000
       45505000	      4549	800028ec	01ad60b3	or	x1,x26,x26	 x26:0x80000000 x26:0x80000000  x1=0x80000000
       45515000	      4550	800028f0	008e9eb3	sll	x29,x29,x8	 x29:0x00000080  x8:0x00000000 x29=0x00000080
       45525000	      4551	800028f4	39723d93	sltiu	x27,x4,919	  x4:0x00000000 x27=0x00000001
       45535000	      4552	800028f8	5cd37717	auipc	x14,0x5cd37	 x14=0xdcd398f4
       45545000	      4553	800028fc	40a88533	sub	x10,x17,x10	 x17:0xfffffda6 x10:0x00000000 x10=0xfffffda6
       45555000	      4554	80002900	353290b7	lui	x1,0x35329	  x1=0x35329000
       45565000	      4555	80002904	03508063	beq	x1,x21,80002924	  x1:0x35329000 x21:0x00000000
       45575000	      4556	80002908	00a00c63	beq	x0,x10,80002920	  x0:0x00000000 x10:0xfffffda6
       45585000	      4557	8000290c	037ef863	bgeu	x29,x23,8000293c	 x29:0x00000080 x23:0xfffffda6
       45595000	      4558	80002910	418c5a93	srai	x21,x24,0x18	 x24:0x7ffffc81 x21=0x0000007f
       45605000	      4559	80002914	00278e63	beq	x15,x2,80002930	 x15:0x7d312001  x2:0x80009d00
       45615000	      4560	80002918	010079b3	and	x19,x0,x16	  x0:0x00000000 x16:0x00000000 x19=0x00000000
       45625000	      4561	8000291c	01497263	bgeu	x18,x20,80002920	 x18:0x23400000 x20:0x00000001
       45635000	      4562	00000000	00000013	addi	x0,x0,0	  x0:0x00000000
       45645000	      4563	8000291c	00000013	addi	x0,x0,0	  x0:0x00000000
       45655000	      4564	80002920	012eec63	bltu	x29,x18,80002938	 x29:0x00000080 x18:0x23400000
       45665000	      4565	00000000	00000013	addi	x0,x0,0	  x0:0x00000000
       45675000	      4566	80002934	00000013	addi	x0,x0,0	  x0:0x00000000
       45685000	      4567	80002938	45506a13	ori	x20,x0,1109	  x0:0x00000000 x20=0x00000455
       45695000	      4568	8000293c	40f15113	srai	x2,x2,0xf	  x2:0x80009d00  x2=0xffff0001
       45705000	      4569	80002940	9e843317	auipc	x6,0x9e843	  x6=0x1e84593c
       45715000	      4570	80002944	acfa4813	xori	x16,x20,-1329	 x20:0x00000455 x16=0xfffffe9a
       45725000	      4571	80002948	00f76e33	or	x28,x14,x15	 x14:0xdcd398f4 x15:0x7d312001 x28=0xfdf3b8f5
       45735000	      4572	8000294c	01a0c733	xor	x14,x1,x26	  x1:0x35329000 x26:0x80000000 x14=0xb5329000
       45745000	      4573	80002950	00000013	addi	x0,x0,0	  x0:0x00000000
       45755000	      4574	80002954	f69dee93	ori	x29,x27,-151	 x27:0x00000001 x29=0xffffff69
       45765000	      4575	80002958	41698233	sub	x4,x19,x22	 x19:0x00000000 x22:0x00000000  x4=0x00000000
       45775000	      4576	8000295c	0083fe63	bgeu	x7,x8,80002978	  x7:0x80009fc4  x8:0x00000000
       45785000	      4577	00000000	00000013	addi	x0,x0,0	  x0:0x00000000
       45795000	      4578	80002974	00000013	addi	x0,x0,0	  x0:0x00000000
       45805000	      4579	80002978	013edbb3	srl	x23,x29,x19	 x29:0xffffff69 x19:0x00000000 x23=0xffffff69
       45815000	      4580	8000297c	c17d8993	addi	x19,x27,-1001	 x27:0x00000001 x19=0xfffffc18
       45825000	      4581	80002980	00c2a1b3	slt	x3,x5,x12	  x5:0x00000001 x12:0x80000000  x3=0x00000000
       45835000	      4582	80002984	0063cb33	xor	x22,x7,x6	  x7:0x80009fc4  x6:0x1e84593c x22=0x9e84c6f8
       45845000	      4583	80002988	01f2d863	bge	x5,x31,80002998	  x5:0x00000001 x31:0x80009f40
       45855000	      4584	00000000	00000013	addi	x0,x0,0	  x0:0x00000000
       45865000	      4585	80002994	00000013	addi	x0,x0,0	  x0:0x00000000
       45875000	      4586	80002998	00d4fc63	bgeu	x9,x13,800029b0	  x9:0x00000000 x13:0x00000000
       45885000	      4587	00000000	00000013	addi	x0,x0,0	  x0:0x00000000
       45895000	      4588	800029ac	00000013	addi	x0,x0,0	  x0:0x00000000
       45905000	      4589	800029b0	00000013	addi	x0,x0,0	  x0:0x00000000
       45915000	      4590	800029b4	03bd1063	bne	x26,x27,800029d4	 x26:0x80000000 x27:0x00000001
       45925000	      4591	00000000	00000013	addi	x0,x0,0	  x0:0x00000000
       45935000	      4592	800029d0	00000013	addi	x0,x0,0	  x0:0x00000000
       45945000	      4593	800029d4	014698b3	sll	x17,x13,x20	 x13:0x00000000 x20:0x00000455 x17=0x00000000
       45955000	      4594	800029d8	016d90b3	sll	x1,x27,x22	 x27:0x00000001 x22:0x9e84c6f8  x1=0x01000000
       45965000	      4595	800029dc	b4954713	xori	x14,x10,-1207	 x10:0xfffffda6 x14=0x000006ef
       45975000	      4596	800029e0	007f6a33	or	x20,x30,x7	 x30:0x008d0000  x7:0x80009fc4 x20=0x808d9fc4
       45985000	      4597	800029e4	013aa233	slt	x4,x21,x19	 x21:0x0000007f x19:0xfffffc18  x4=0x00000000
       45995000	      4598	800029e8	01404db3	xor	x27,x0,x20	  x0:0x00000000 x20:0x808d9fc4 x27=0x808d9fc4
       46005000	      4599	800029ec	01bf17b3	sll	x15,x30,x27	 x30:0x008d0000 x27:0x808d9fc4 x15=0x08d00000
       46015000	      4600	800029f0	03bbc263	blt	x23,x27,80002a14	 x23:0xffffff69 x27:0x808d9fc4
       46025000	      4601	800029f4	000a7c63	bgeu	x20,x0,80002a0c	 x20:0x808d9fc4  x0:0x00000000
       46035000	      4602	00000000	00000013	addi	x0,x0,0	  x0:0x00000000
       46045000	      4603	80002a08	00000013	addi	x0,x0,0	  x0:0x00000000
       46055000	      4604	80002a0c	005a5e93	srli	x29,x20,0x5	 x20:0x808d9fc4 x29=0x04046cfe
       46065000	      4605	80002a10	006f1f33	sll	x30,x30,x6	 x30:0x008d0000  x6:0x1e84593c x30=0x00000000
       46075000	      4606	80002a14	0296cc63	blt	x13,x9,80002a4c	 x13:0x00000000  x9:0x00000000
       46085000	      4607	80002a18	01fa6633	or	x12,x20,x31	 x20:0x808d9fc4 x31:0x80009f40 x12=0x808d9fc4
       46095000	      4608	80002a1c	c1768413	addi	x8,x13,-1001	 x13:0x00000000  x8=0xfffffc17
       46105000	      4609	80002a20	012a0663	beq	x20,x18,80002a2c	 x20:0x808d9fc4 x18:0x23400000
       46115000	      4610	80002a24	b840ce93	xori	x29,x1,-1148	  x1:0x01000000 x29=0xfefffb84
       46125000	      4611	80002a28	013fb333	sltu	x6,x31,x19	 x31:0x80009f40 x19:0xfffffc18  x6=0x00000001
       46135000	      4612	80002a2c	00b29f33	sll	x30,x5,x11	  x5:0x00000001 x11:0x00000039 x30=0x02000000
       46145000	      4613	80002a30	0036a6b3	slt	x13,x13,x3	 x13:0x00000000  x3:0x00000000 x13=0x00000000
       46155000	      4614	80002a34	25253a13	sltiu	x20,x10,594	 x10:0xfffffda6 x20=0x00000000
       46165000	      4615	80002a38	04276463	bltu	x14,x2,80002a80	 x14:0x000006ef  x2:0xffff0001
       46175000	      4616	00000000	00000013	addi	x0,x0,0	  x0:0x00000000
       46185000	      4617	80002a7c	00000013	addi	x0,x0,0	  x0:0x00000000
       46195000	      4618	80002a80	02211063	bne	x2,x2,80002aa0	  x2:0xffff0001  x2:0xffff0001
       46205000	      4619	80002a84	070c5997	auipc	x19,0x70c5	 x19=0x870c7a80
       46215000	      4620	80002a88	b57d3613	sltiu	x12,x26,-1193	 x26:0x80000000 x12=0x00000001
       46225000	      4621	80002a8c	000027b3	slt	x15,x0,x0	  x0:0x00000000  x0:0x00000000 x15=0x00000000
       46235000	      4622	80002a90	a2a72193	slti	x3,x14,-1494	 x14:0x000006ef  x3=0x00000000
       46245000	      4623	80002a94	c88b0f13	addi	x30,x22,-888	 x22:0x9e84c6f8 x30=0x9e84c380
       46255000	      4624	80002a98	40b95193	srai	x3,x18,0xb	 x18:0x23400000  x3=0x00046800
       46265000	      4625	80002a9c	0061f833	and	x16,x3,x6	  x3:0x00046800  x6:0x00000001 x16=0x00000000
       46275000	      4626	80002aa0	40e5d293	srai	x5,x11,0xe	 x11:0x00000039  x5=0x00000000
       46285000	      4627	80002aa4	38302813	slti	x16,x0,899	  x0:0x00000000 x16=0x00000001
       46295000	      4628	80002aa8	00672b33	slt	x22,x14,x6	 x14:0x000006ef  x6:0x00000001 x22=0x00000000
       46305000	      4629	80002aac	12d3e093	ori	x1,x7,301	  x7:0x80009fc4  x1=0x80009fed
       46315000	      4630	80002ab0	a79c8097	auipc	x1,0xa79c8	  x1=0x279caaac
       46325000	      4631	80002ab4	054bf263	bgeu	x23,x20,80002af8	 x23:0xffffff69 x20:0x00000000
       46335000	      4632	00000000	00000013	addi	x0,x0,0	  x0:0x00000000
       46345000	      4633	80002af4	00000013	addi	x0,x0,0	  x0:0x00000000
       46355000	      4634	80002af8	01e5af33	slt	x30,x11,x30	 x11:0x00000039 x30:0x9e84c380 x30=0x00000000
       46365000	      4635	80002afc	01d9ecb3	or	x25,x19,x29	 x19:0x870c7a80 x29:0xfefffb84 x25=0xfffffb84
       46375000	      4636	80002b00	005ed293	srli	x5,x29,0x5	 x29:0xfefffb84  x5=0x07f7ffdc
       46385000	      4637	80002b04	5a433713	sltiu	x14,x6,1444	  x6:0x00000001 x14=0x00000001
       46395000	      4638	80002b08	019b7263	bgeu	x22,x25,80002b0c	 x22:0x00000000 x25:0xfffffb84
       46405000	      4639	80002b0c	0077d813	srli	x16,x15,0x7	 x15:0x00000000 x16=0x00000000
       46415000	      4640	80002b10	04d20263	beq	x4,x13,80002b54	  x4:0x00000000 x13:0x00000000
       46425000	      4641	00000000	00000013	addi	x0,x0,0	  x0:0x00000000
       46435000	      4642	80002b50	00000013	addi	x0,x0,0	  x0:0x00000000
       46445000	      4643	80002b54	08e2b213	sltiu	x4,x5,142	  x5:0x07f7ffdc  x4=0x00000000
       46455000	      4644	80002b58	012d6233	or	x4,x26,x18	 x26:0x80000000 x18:0x23400000  x4=0xa3400000
       46465000	      4645	80002b5c	009f01b3	add	x3,x30,x9	 x30:0x00000000  x9:0x00000000  x3=0x00000000
       46475000	      4646	80002b60	40395033	sra	x0,x18,x3	 x18:0x23400000  x3:0x00000000
       46485000	      4647	80002b64	006c0c33	add	x24,x24,x6	 x24:0x7ffffc81  x6:0x00000001 x24=0x7ffffc82
       46495000	      4648	80002b68	72cac913	xori	x18,x21,1836	 x21:0x0000007f x18=0x00000753
       46505000	      4649	80002b6c	01392f33	slt	x30,x18,x19	 x18:0x00000753 x19:0x870c7a80 x30=0x00000000
       46515000	      4650	80002b70	66efc413	xori	x8,x31,1646	 x31:0x80009f40  x8=0x8000992e
       46525000	      4651	80002b74	0066e933	or	x18,x13,x6	 x13:0x00000000  x6:0x00000001 x18=0x00000001
       46535000	      4652	80002b78	00000013	addi	x0,x0,0	  x0:0x00000000
       46545000	      4653	80002b7c	00421713	slli	x14,x4,0x4	  x4:0xa3400000 x14=0x34000000
       46555000	      4654	80002b80	01d27833	and	x16,x4,x29	  x4:0xa3400000 x29:0xfefffb84 x16=0xa2400000
       46565000	      4655	80002b84	35ab7113	andi	x2,x22,858	 x22:0x00000000  x2=0x00000000
       46575000	      4656	80002b88	415504b3	sub	x9,x10,x21	 x10:0xfffffda6 x21:0x0000007f  x9=0xfffffd27
       46585000	      4657	80002b8c	01934e63	blt	x6,x25,80002ba8	  x6:0x00000001 x25:0xfffffb84
       46595000	      4658	80002b90	00000013	addi	x0,x0,0	  x0:0x00000000
       46605000	      4659	80002b94	01cd9813	slli	x16,x27,0x1c	 x27:0x808d9fc4 x16=0x40000000
       46615000	      4660	80002b98	0418f263	bgeu	x17,x1,80002bdc	 x17:0x00000000  x1:0x279caaac
       46625000	      4661	80002b9c	01011793	slli	x15,x2,0x10	  x2:0x00000000 x15=0x00000000
       46635000	      4662	80002ba0	175ac797	auipc	x15,0x175ac	 x15=0x975aeb9c
       46645000	      4663	80002ba4	337b8f13	addi	x30,x23,823	 x23:0xffffff69 x30=0x000002a0
       46655000	      4664	80002ba8	00fe1a33	sll	x20,x28,x15	 x28:0xfdf3b8f5 x15:0x975aeb9c x20=0x50000000
       46665000	      4665	80002bac	00000013	addi	x0,x0,0	  x0:0x00000000
       46675000	      4666	80002bb0	d53ffe93	andi	x29,x31,-685	 x31:0x80009f40 x29=0x80009d40
       46685000	      4667	80002bb4	4034d733	sra	x14,x9,x3	  x9:0xfffffd27  x3:0x00000000 x14=0xfffffd27
       46695000	      4668	80002bb8	039ec863	blt	x29,x25,80002be8	 x29:0x80009d40 x25:0xfffffb84
       46705000	      4669	00000000	00000013	addi	x0,x0,0	  x0:0x00000000
       46715000	      4670	80002be4	00000013	addi	x0,x0,0	  x0:0x00000000
       46725000	      4671	80002be8	80f5cc37	lui	x24,0x80f5c	 x24=0x80f5c000
       46735000	      4672	80002bec	415802b3	sub	x5,x16,x21	 x16:0x40000000 x21:0x0000007f  x5=0x3fffff81
       46745000	      4673	80002bf0	40b35793	srai	x15,x6,0xb	  x6:0x00000001 x15=0x00000000
       46755000	      4674	80002bf4	019ac663	blt	x21,x25,80002c00	 x21:0x0000007f x25:0xfffffb84
       46765000	      4675	80002bf8	012ade63	bge	x21,x18,80002c14	 x21:0x0000007f x18:0x00000001
       46775000	      4676	00000000	00000013	addi	x0,x0,0	  x0:0x00000000
       46785000	      4677	80002c10	00000013	addi	x0,x0,0	  x0:0x00000000
       46795000	      4678	80002c14	00529db3	sll	x27,x5,x5	  x5:0x3fffff81  x5:0x3fffff81 x27=0x7fffff02
       46805000	      4679	80002c18	01e710b3	sll	x1,x14,x30	 x14:0xfffffd27 x30:0x000002a0  x1=0xfffffd27
       46815000	      4680	80002c1c	0100a5b3	slt	x11,x1,x16	  x1:0xfffffd27 x16:0x40000000 x11=0x00000001
       46825000	      4681	80002c20	03688063	beq	x17,x22,80002c40	 x17:0x00000000 x22:0x00000000
       46835000	      4682	00000000	00000013	addi	x0,x0,0	  x0:0x00000000
       46845000	      4683	80002c3c	00000013	addi	x0,x0,0	  x0:0x00000000
       46855000	      4684	80002c40	019675b3	and	x11,x12,x25	 x12:0x00000001 x25:0xfffffb84 x11=0x00000000
       46865000	      4685	80002c44	0070d833	srl	x16,x1,x7	  x1:0xfffffd27  x7:0x80009fc4 x16=0x0fffffd2
       46875000	      4686	80002c48	018e1433	sll	x8,x28,x24	 x28:0xfdf3b8f5 x24:0x80f5c000  x8=0xfdf3b8f5
       46885000	      4687	80002c4c	009198b3	sll	x17,x3,x9	  x3:0x00000000  x9:0xfffffd27 x17=0x00000000
       46895000	      4688	80002c50	402f0db3	sub	x27,x30,x2	 x30:0x000002a0  x2:0x00000000 x27=0x000002a0
       46905000	      4689	80002c54	0067c863	blt	x15,x6,80002c64	 x15:0x00000000  x6:0x00000001
       46915000	      4690	00000000	00000013	addi	x0,x0,0	  x0:0x00000000
       46925000	      4691	80002c60	00000013	addi	x0,x0,0	  x0:0x00000000
       46935000	      4692	80002c64	92d46093	ori	x1,x8,-1747	  x8:0xfdf3b8f5  x1=0xfffff9fd
       46945000	      4693	80002c68	fd084513	xori	x10,x16,-48	 x16:0x0fffffd2 x10=0xf0000002
       46955000	      4694	80002c6c	02fac863	blt	x21,x15,80002c9c	 x21:0x0000007f x15:0x00000000
       46965000	      4695	80002c70	0a4e4313	xori	x6,x28,164	 x28:0xfdf3b8f5  x6=0xfdf3b851
       46975000	      4696	80002c74	e3cbbc13	sltiu	x24,x23,-452	 x23:0xffffff69 x24=0x00000000
       46985000	      4697	80002c78	01f69663	bne	x13,x31,80002c84	 x13:0x00000000 x31:0x80009f40
       46995000	      4698	00000000	00000013	addi	x0,x0,0	  x0:0x00000000
       47005000	      4699	80002c80	00000013	addi	x0,x0,0	  x0:0x00000000
       47015000	      4700	80002c84	9a502c97	auipc	x25,0x9a502	 x25=0x1a504c80
       47025000	      4701	80002c88	46a9e013	ori	x0,x19,1130	 x19:0x870c7a80
       47035000	      4702	80002c8c	c11db993	sltiu	x19,x27,-1007	 x27:0x000002a0 x19=0x00000001
       47045000	      4703	80002c90	40a30cb3	sub	x25,x6,x10	  x6:0xfdf3b851 x10:0xf0000002 x25=0x0df3b84f
       47055000	      4704	80002c94	0b97f597	auipc	x11,0xb97f	 x11=0x8b981c90
       47065000	      4705	80002c98	01c2e8b3	or	x17,x5,x28	  x5:0x3fffff81 x28:0xfdf3b8f5 x17=0xfffffff5
       47075000	      4706	80002c9c	01778a33	add	x20,x15,x23	 x15:0x00000000 x23:0xffffff69 x20=0xffffff69
       47085000	      4707	80002ca0	01126663	bltu	x4,x17,80002cac	  x4:0xa3400000 x17:0xfffffff5
       47095000	      4708	00000000	00000013	addi	x0,x0,0	  x0:0x00000000
       47105000	      4709	80002ca8	00000013	addi	x0,x0,0	  x0:0x00000000
       47115000	      4710	80002cac	03b28063	beq	x5,x27,80002ccc	  x5:0x3fffff81 x27:0x000002a0
       47125000	      4711	80002cb0	015fbcb3	sltu	x25,x31,x21	 x31:0x80009f40 x21:0x0000007f x25=0x00000000
       47135000	      4712	80002cb4	41010cb3	sub	x25,x2,x16	  x2:0x00000000 x16:0x0fffffd2 x25=0xf000002e
       47145000	      4713	80002cb8	01988433	add	x8,x17,x25	 x17:0xfffffff5 x25:0xf000002e  x8=0xf0000023
       47155000	      4714	80002cbc	0215d463	bge	x11,x1,80002ce4	 x11:0x8b981c90  x1:0xfffff9fd
       47165000	      4715	80002cc0	028af663	bgeu	x21,x8,80002cec	 x21:0x0000007f  x8:0xf0000023
       47175000	      4716	80002cc4	008c9533	sll	x10,x25,x8	 x25:0xf000002e  x8:0xf0000023 x10=0x80000170
       47185000	      4717	80002cc8	e70a0613	addi	x12,x20,-400	 x20:0xffffff69 x12=0xfffffdd9
       47195000	      4718	80002ccc	6687e613	ori	x12,x15,1640	 x15:0x00000000 x12=0x00000668
       47205000	      4719	80002cd0	0195ec63	bltu	x11,x25,80002ce8	 x11:0x8b981c90 x25:0xf000002e
       47215000	      4720	00000000	00000013	addi	x0,x0,0	  x0:0x00000000
       47225000	      4721	80002ce4	00000013	addi	x0,x0,0	  x0:0x00000000
       47235000	      4722	80002ce8	00a5f1b3	and	x3,x11,x10	 x11:0x8b981c90 x10:0x80000170  x3=0x80000010
       47245000	      4723	80002cec	00685733	srl	x14,x16,x6	 x16:0x0fffffd2  x6:0xfdf3b851 x14=0x000007ff
       47255000	      4724	80002cf0	00f09713	slli	x14,x1,0xf	  x1:0xfffff9fd x14=0xfcfe8000
       47265000	      4725	80002cf4	0555e263	bltu	x11,x21,80002d38	 x11:0x8b981c90 x21:0x0000007f
       47275000	      4726	80002cf8	01a95833	srl	x16,x18,x26	 x18:0x00000001 x26:0x80000000 x16=0x00000001
       47285000	      4727	80002cfc	e843e897	auipc	x17,0xe843e	 x17=0x68440cf8
       47295000	      4728	80002d00	009b2eb3	slt	x29,x22,x9	 x22:0x00000000  x9:0xfffffd27 x29=0x00000000
       47305000	      4729	80002d04	8dc537b7	lui	x15,0x8dc53	 x15=0x8dc53000
       47315000	      4730	80002d08	56a03593	sltiu	x11,x0,1386	  x0:0x00000000 x11=0x00000001
       47325000	      4731	80002d0c	01c06e63	bltu	x0,x28,80002d28	  x0:0x00000000 x28:0xfdf3b8f5
       47335000	      4732	00000000	00000013	addi	x0,x0,0	  x0:0x00000000
       47345000	      4733	80002d24	00000013	addi	x0,x0,0	  x0:0x00000000
       47355000	      4734	80002d28	263f8d93	addi	x27,x31,611	 x31:0x80009f40 x27=0x8000a1a3
       47365000	      4735	80002d2c	0073d993	srli	x19,x7,0x7	  x7:0x80009fc4 x19=0x0100013f
       47375000	      4736	80002d30	a33d6413	ori	x8,x26,-1485	 x26:0x80000000  x8=0xfffffa33
       47385000	      4737	80002d34	05ba7263	bgeu	x20,x27,80002d78	 x20:0xffffff69 x27:0x8000a1a3
       47395000	      4738	00000000	00000013	addi	x0,x0,0	  x0:0x00000000
       47405000	      4739	80002d74	00000013	addi	x0,x0,0	  x0:0x00000000
       47415000	      4740	80002d78	035acc63	blt	x21,x21,80002db0	 x21:0x0000007f x21:0x0000007f
       47425000	      4741	80002d7c	719ab6b7	lui	x13,0x719ab	 x13=0x719ab000
       47435000	      4742	80002d80	00ac2333	slt	x6,x24,x10	 x24:0x00000000 x10:0x80000170  x6=0x00000000
       47445000	      4743	80002d84	4177d813	srai	x16,x15,0x17	 x15:0x8dc53000 x16=0xffffff1b
       47455000	      4744	80002d88	49c14213	xori	x4,x2,1180	  x2:0x00000000  x4=0x0000049c
       47465000	      4745	80002d8c	004a9c63	bne	x21,x4,80002da4	 x21:0x0000007f  x4:0x0000049c
       47475000	      4746	00000000	00000013	addi	x0,x0,0	  x0:0x00000000
       47485000	      4747	80002da0	00000013	addi	x0,x0,0	  x0:0x00000000
       47495000	      4748	80002da4	8af30513	addi	x10,x6,-1873	  x6:0x00000000 x10=0xfffff8af
       47505000	      4749	80002da8	43fd4b93	xori	x23,x26,1087	 x26:0x80000000 x23=0x8000043f
       47515000	      4750	80002dac	028d5e63	bge	x26,x8,80002de8	 x26:0x80000000  x8:0xfffffa33
       47525000	      4751	80002db0	03719c63	bne	x3,x23,80002de8	  x3:0x80000010 x23:0x8000043f
       47535000	      4752	00000000	00000013	addi	x0,x0,0	  x0:0x00000000
       47545000	      4753	80002de4	00000013	addi	x0,x0,0	  x0:0x00000000
       47555000	      4754	80002de8	00fcc4b3	xor	x9,x25,x15	 x25:0xf000002e x15:0x8dc53000  x9=0x7dc5302e
       47565000	      4755	80002dec	00df01b3	add	x3,x30,x13	 x30:0x000002a0 x13:0x719ab000  x3=0x719ab2a0
       47575000	      4756	80002df0	01b406b3	add	x13,x8,x27	  x8:0xfffffa33 x27:0x8000a1a3 x13=0x80009bd6
       47585000	      4757	80002df4	0078f333	and	x6,x17,x7	 x17:0x68440cf8  x7:0x80009fc4  x6=0x00000cc0
       47595000	      4758	80002df8	d7a30013	addi	x0,x6,-646	  x6:0x00000cc0
       47605000	      4759	80002dfc	8d75a317	auipc	x6,0x8d75a	  x6=0x0d75cdf8
       47615000	      4760	80002e00	01734863	blt	x6,x23,80002e10	  x6:0x0d75cdf8 x23:0x8000043f
       47625000	      4761	80002e04	00d52033	slt	x0,x10,x13	 x10:0xfffff8af x13:0x80009bd6
       47635000	      4762	80002e08	e812fb37	lui	x22,0xe812f	 x22=0xe812f000
       47645000	      4763	80002e0c	4037d733	sra	x14,x15,x3	 x15:0x8dc53000  x3:0x719ab2a0 x14=0x8dc53000
       47655000	      4764	80002e10	03796263	bltu	x18,x23,80002e34	 x18:0x00000001 x23:0x8000043f
       47665000	      4765	00000000	00000013	addi	x0,x0,0	  x0:0x00000000
       47675000	      4766	80002e30	00000013	addi	x0,x0,0	  x0:0x00000000
       47685000	      4767	80002e34	0183c263	blt	x7,x24,80002e38	  x7:0x80009fc4 x24:0x00000000
       47695000	      4768	00000000	00000013	addi	x0,x0,0	  x0:0x00000000
       47705000	      4769	80002e34	00000013	addi	x0,x0,0	  x0:0x00000000
       47715000	      4770	80002e38	0165d993	srli	x19,x11,0x16	 x11:0x00000001 x19=0x00000000
       47725000	      4771	80002e3c	01d2cc63	blt	x5,x29,80002e54	  x5:0x3fffff81 x29:0x00000000
       47735000	      4772	80002e40	f4baf413	andi	x8,x21,-181	 x21:0x0000007f  x8=0x0000004b
       47745000	      4773	80002e44	5d8b0813	addi	x16,x22,1496	 x22:0xe812f000 x16=0xe812f5d8
       47755000	      4774	80002e48	a7032593	slti	x11,x6,-1424	  x6:0x0d75cdf8 x11=0x00000000
       47765000	      4775	80002e4c	95315097	auipc	x1,0x95315	  x1=0x15317e48
       47775000	      4776	80002e50	14574413	xori	x8,x14,325	 x14:0x8dc53000  x8=0x8dc53145
       47785000	      4777	80002e54	00a49913	slli	x18,x9,0xa	  x9:0x7dc5302e x18=0x14c0b800
       47795000	      4778	80002e58	be703217	auipc	x4,0xbe703	  x4=0x3e705e54
       47805000	      4779	80002e5c	0dad9063	bne	x27,x26,80002f1c	 x27:0x8000a1a3 x26:0x80000000
       47815000	      4780	00000000	00000013	addi	x0,x0,0	  x0:0x00000000
       47825000	      4781	80002f18	00000013	addi	x0,x0,0	  x0:0x00000000
       47835000	      4782	80002f1c	0224f063	bgeu	x9,x2,80002f3c	  x9:0x7dc5302e  x2:0x00000000
       47845000	      4783	00000000	00000013	addi	x0,x0,0	  x0:0x00000000
       47855000	      4784	80002f38	00000013	addi	x0,x0,0	  x0:0x00000000
       47865000	      4785	80002f3c	01256133	or	x2,x10,x18	 x10:0xfffff8af x18:0x14c0b800  x2=0xfffff8af
       47875000	      4786	80002f40	033a7e63	bgeu	x20,x19,80002f7c	 x20:0xffffff69 x19:0x00000000
       47885000	      4787	00000000	00000013	addi	x0,x0,0	  x0:0x00000000
       47895000	      4788	80002f78	00000013	addi	x0,x0,0	  x0:0x00000000
       47905000	      4789	80002f7c	ebdc2713	slti	x14,x24,-323	 x24:0x00000000 x14=0x00000000
       47915000	      4790	80002f80	40ad50b3	sra	x1,x26,x10	 x26:0x80000000 x10:0xfffff8af  x1=0xffff0000
       47925000	      4791	80002f84	4010c497	auipc	x9,0x4010c	  x9=0xc010ef80
       47935000	      4792	80002f88	02607c63	bgeu	x0,x6,80002fc0	  x0:0x00000000  x6:0x0d75cdf8
       47945000	      4793	80002f8c	1e081e17	auipc	x28,0x1e081	 x28=0x9e083f88
       47955000	      4794	80002f90	080ea613	slti	x12,x29,128	 x29:0x00000000 x12=0x00000001
       47965000	      4795	80002f94	01f642b3	xor	x5,x12,x31	 x12:0x00000001 x31:0x80009f40  x5=0x80009f41
       47975000	      4796	80002f98	fa8ca297	auipc	x5,0xfa8ca	  x5=0x7a8ccf94
       47985000	      4797	80002f9c	00f81e13	slli	x28,x16,0xf	 x16:0xe812f5d8 x28=0x7aec0000
       47995000	      4798	80002fa0	37820713	addi	x14,x4,888	  x4:0x3e705e54 x14=0x3e7061cc
       48005000	      4799	80002fa4	cef82c13	slti	x24,x16,-785	 x16:0xe812f5d8 x24=0x00000001
       48015000	      4800	80002fa8	018d9413	slli	x8,x27,0x18	 x27:0x8000a1a3  x8=0xa3000000
       48025000	      4801	80002fac	031c4863	blt	x24,x17,80002fdc	 x24:0x00000001 x17:0x68440cf8
       48035000	      4802	00000000	00000013	addi	x0,x0,0	  x0:0x00000000
       48045000	      4803	80002fd8	00000013	addi	x0,x0,0	  x0:0x00000000
       48055000	      4804	80002fdc	41985993	srai	x19,x16,0x19	 x16:0xe812f5d8 x19=0xfffffff4
       48065000	      4805	80002fe0	00174e63	blt	x14,x1,80002ffc	 x14:0x3e7061cc  x1:0xffff0000
       48075000	      4806	80002fe4	3583bc13	sltiu	x24,x7,856	  x7:0x80009fc4 x24=0x00000000
       48085000	      4807	80002fe8	000e7533	and	x10,x28,x0	 x28:0x7aec0000  x0:0x00000000 x10=0x00000000
       48095000	      4808	80002fec	00a3db93	srli	x23,x7,0xa	  x7:0x80009fc4 x23=0x00200027
       48105000	      4809	80002ff0	afbe4293	xori	x5,x28,-1285	 x28:0x7aec0000  x5=0x8513fafb
       48115000	      4810	80002ff4	04416263	bltu	x2,x4,80003038	  x2:0xfffff8af  x4:0x3e705e54
       48125000	      4811	80002ff8	00875f33	srl	x30,x14,x8	 x14:0x3e7061cc  x8:0xa3000000 x30=0x3e7061cc
       48135000	      4812	80002ffc	00fa0533	add	x10,x20,x15	 x20:0xffffff69 x15:0x8dc53000 x10=0x8dc52f69
       48145000	      4813	80003000	01cb3cb3	sltu	x25,x22,x28	 x22:0xe812f000 x28:0x7aec0000 x25=0x00000000
       48155000	      4814	80003004	01b58033	add	x0,x11,x27	 x11:0x00000000 x27:0x8000a1a3
       48165000	      4815	80003008	013f2733	slt	x14,x30,x19	 x30:0x3e7061cc x19:0xfffffff4 x14=0x00000000
       48175000	      4816	8000300c	02fde863	bltu	x27,x15,8000303c	 x27:0x8000a1a3 x15:0x8dc53000
       48185000	      4817	00000000	00000013	addi	x0,x0,0	  x0:0x00000000
       48195000	      4818	80003038	00000013	addi	x0,x0,0	  x0:0x00000000
       48205000	      4819	8000303c	20ce2993	slti	x19,x28,524	 x28:0x7aec0000 x19=0x00000000
       48215000	      4820	80003040	00000013	addi	x0,x0,0	  x0:0x00000000
       48225000	      4821	80003044	013c5c13	srli	x24,x24,0x13	 x24:0x00000000 x24=0x00000000
       48235000	      4822	80003048	03dd6013	ori	x0,x26,61	 x26:0x80000000
       48245000	      4823	8000304c	015c15b3	sll	x11,x24,x21	 x24:0x00000000 x21:0x0000007f x11=0x00000000
       48255000	      4824	80003050	01e9fe33	and	x28,x19,x30	 x19:0x00000000 x30:0x3e7061cc x28=0x00000000
       48265000	      4825	80003054	a6d30f13	addi	x30,x6,-1427	  x6:0x0d75cdf8 x30=0x0d75c865
       48275000	      4826	80003058	008b0863	beq	x22,x8,80003068	 x22:0xe812f000  x8:0xa3000000
       48285000	      4827	8000305c	01098333	add	x6,x19,x16	 x19:0x00000000 x16:0xe812f5d8  x6=0xe812f5d8
       48295000	      4828	80003060	d8a73337	lui	x6,0xd8a73	  x6=0xd8a73000
       48305000	      4829	80003064	41be0cb3	sub	x25,x28,x27	 x28:0x00000000 x27:0x8000a1a3 x25=0x7fff5e5d
       48315000	      4830	80003068	03c10c63	beq	x2,x28,800030a0	  x2:0xfffff8af x28:0x00000000
       48325000	      4831	8000306c	2c784f13	xori	x30,x16,711	 x16:0xe812f5d8 x30=0xe812f71f
       48335000	      4832	80003070	90f61717	auipc	x14,0x90f61	 x14=0x10f6406c
       48345000	      4833	80003074	00ca44b3	xor	x9,x20,x12	 x20:0xffffff69 x12:0x00000001  x9=0xffffff68
       48355000	      4834	80003078	41d187b3	sub	x15,x3,x29	  x3:0x719ab2a0 x29:0x00000000 x15=0x719ab2a0
       48365000	      4835	8000307c	409f5b33	sra	x22,x30,x9	 x30:0xe812f71f  x9:0xffffff68 x22=0xffe812f7
       48375000	      4836	80003080	791cce13	xori	x28,x25,1937	 x25:0x7fff5e5d x28=0x7fff59cc
       48385000	      4837	80003084	003f5a33	srl	x20,x30,x3	 x30:0xe812f71f  x3:0x719ab2a0 x20=0xe812f71f
       48395000	      4838	80003088	d0ed4213	xori	x4,x26,-754	 x26:0x80000000  x4=0x7ffffd0e
       48405000	      4839	8000308c	f9447093	andi	x1,x8,-108	  x8:0xa3000000  x1=0xa3000000
       48415000	      4840	80003090	c9554a93	xori	x21,x10,-875	 x10:0x8dc52f69 x21=0x723ad3fc
       48425000	      4841	80003094	41abddb3	sra	x27,x23,x26	 x23:0x00200027 x26:0x80000000 x27=0x00200027
       48435000	      4842	80003098	03b7c463	blt	x15,x27,800030c0	 x15:0x719ab2a0 x27:0x00200027
       48445000	      4843	8000309c	401fd8b3	sra	x17,x31,x1	 x31:0x80009f40  x1:0xa3000000 x17=0x80009f40
       48455000	      4844	800030a0	01f4f5b3	and	x11,x9,x31	  x9:0xffffff68 x31:0x80009f40 x11=0x80009f40
       48465000	      4845	800030a4	01515b33	srl	x22,x2,x21	  x2:0xfffff8af x21:0x723ad3fc x22=0x0000000f
       48475000	      4846	800030a8	00613db3	sltu	x27,x2,x6	  x2:0xfffff8af  x6:0xd8a73000 x27=0x00000000
       48485000	      4847	800030ac	3715bb93	sltiu	x23,x11,881	 x11:0x80009f40 x23=0x00000000
       48495000	      4848	800030b0	27ad8c13	addi	x24,x27,634	 x27:0x00000000 x24=0x0000027a
       48505000	      4849	800030b4	001401b3	add	x3,x8,x1	  x8:0xa3000000  x1:0xa3000000  x3=0x46000000
       48515000	      4850	800030b8	011102b3	add	x5,x2,x17	  x2:0xfffff8af x17:0x80009f40  x5=0x800097ef
       48525000	      4851	800030bc	413ddb93	srai	x23,x27,0x13	 x27:0x00000000 x23=0x00000000
       48535000	      4852	800030c0	3b378793	addi	x15,x15,947	 x15:0x719ab2a0 x15=0x719ab653
       48545000	      4853	800030c4	05d5e263	bltu	x11,x29,80003108	 x11:0x80009f40 x29:0x00000000
       48555000	      4854	800030c8	01dd57b3	srl	x15,x26,x29	 x26:0x80000000 x29:0x00000000 x15=0x80000000
       48565000	      4855	800030cc	54598693	addi	x13,x19,1349	 x19:0x00000000 x13=0x00000545
       48575000	      4856	800030d0	0115ea33	or	x20,x11,x17	 x11:0x80009f40 x17:0x80009f40 x20=0x80009f40
       48585000	      4857	800030d4	02653793	sltiu	x15,x10,38	 x10:0x8dc52f69 x15=0x00000000
       48595000	      4858	800030d8	011094b3	sll	x9,x1,x17	  x1:0xa3000000 x17:0x80009f40  x9=0xa3000000
       48605000	      4859	800030dc	02a28063	beq	x5,x10,800030fc	  x5:0x800097ef x10:0x8dc52f69
       48615000	      4860	800030e0	014a7263	bgeu	x20,x20,800030e4	 x20:0x80009f40 x20:0x80009f40
       48625000	      4861	00000000	00000013	addi	x0,x0,0	  x0:0x00000000
       48635000	      4862	800030e0	00000013	addi	x0,x0,0	  x0:0x00000000
       48645000	      4863	800030e4	59ea08b7	lui	x17,0x59ea0	 x17=0x59ea0000
       48655000	      4864	800030e8	2f1aab93	slti	x23,x21,753	 x21:0x723ad3fc x23=0x00000000
       48665000	      4865	800030ec	419950b3	sra	x1,x18,x25	 x18:0x14c0b800 x25:0x7fff5e5d  x1=0x00000000
       48675000	      4866	800030f0	dc730e93	addi	x29,x6,-569	  x6:0xd8a73000 x29=0xd8a72dc7
       48685000	      4867	800030f4	7cc22513	slti	x10,x4,1996	  x4:0x7ffffd0e x10=0x00000000
       48695000	      4868	800030f8	788bc593	xori	x11,x23,1928	 x23:0x00000000 x11=0x00000788
       48705000	      4869	800030fc	00274e33	xor	x28,x14,x2	 x14:0x10f6406c  x2:0xfffff8af x28=0xef09b8c3
       48715000	      4870	80003100	01c6f533	and	x10,x13,x28	 x13:0x00000545 x28:0xef09b8c3 x10=0x00000041
       48725000	      4871	80003104	24057193	andi	x3,x10,576	 x10:0x00000041  x3=0x00000040
       48735000	      4872	80003108	5d691cb7	lui	x25,0x5d691	 x25=0x5d691000
       48745000	      4873	8000310c	9b6bb613	sltiu	x12,x23,-1610	 x23:0x00000000 x12=0x00000001
       48755000	      4874	80003110	002a2133	slt	x2,x20,x2	 x20:0x80009f40  x2:0xfffff8af  x2=0x00000001
       48765000	      4875	80003114	00000013	addi	x0,x0,0	  x0:0x00000000
       48775000	      4876	80003118	037e7e63	bgeu	x28,x23,80003154	 x28:0xef09b8c3 x23:0x00000000
       48785000	      4877	00000000	00000013	addi	x0,x0,0	  x0:0x00000000
       48795000	      4878	80003150	00000013	addi	x0,x0,0	  x0:0x00000000
       48805000	      4879	80003154	878f3537	lui	x10,0x878f3	 x10=0x878f3000
       48815000	      4880	80003158	1b963593	sltiu	x11,x12,441	 x12:0x00000001 x11=0x00000001
       48825000	      4881	8000315c	01bdc863	blt	x27,x27,8000316c	 x27:0x00000000 x27:0x00000000
       48835000	      4882	80003160	424639b7	lui	x19,0x42463	 x19=0x42463000
       48845000	      4883	80003164	57dcc413	xori	x8,x25,1405	 x25:0x5d691000  x8=0x5d69157d
       48855000	      4884	80003168	21adcb13	xori	x22,x27,538	 x27:0x00000000 x22=0x0000021a
       48865000	      4885	8000316c	36536e93	ori	x29,x6,869	  x6:0xd8a73000 x29=0xd8a73365
       48875000	      4886	80003170	246d2937	lui	x18,0x246d2	 x18=0x246d2000
       48885000	      4887	80003174	01519863	bne	x3,x21,80003184	  x3:0x00000040 x21:0x723ad3fc
       48895000	      4888	00000000	00000013	addi	x0,x0,0	  x0:0x00000000
       48905000	      4889	80003180	00000013	addi	x0,x0,0	  x0:0x00000000
       48915000	      4890	80003184	014f1bb3	sll	x23,x30,x20	 x30:0xe812f71f x20:0x80009f40 x23=0xe812f71f
       48925000	      4891	80003188	41cf8eb3	sub	x29,x31,x28	 x31:0x80009f40 x28:0xef09b8c3 x29=0x90f6e67d
       48935000	      4892	8000318c	d77d2a13	slti	x20,x26,-649	 x26:0x80000000 x20=0x00000001
       48945000	      4893	80003190	006301b3	add	x3,x6,x6	  x6:0xd8a73000  x6:0xd8a73000  x3=0xb14e6000
       48955000	      4894	80003194	0195ebb3	or	x23,x11,x25	 x11:0x00000001 x25:0x5d691000 x23=0x5d691001
       48965000	      4895	80003198	247f1297	auipc	x5,0x247f1	  x5=0xa47f4194
       48975000	      4896	8000319c	c0c9cd93	xori	x27,x19,-1012	 x19:0x42463000 x27=0xbdb9cc0c
       48985000	      4897	800031a0	0033fab3	and	x21,x7,x3	  x7:0x80009fc4  x3:0xb14e6000 x21=0x80000000
       48995000	      4898	800031a4	e4894a13	xori	x20,x18,-440	 x18:0x246d2000 x20=0xdb92de48
       49005000	      4899	800031a8	01baee63	bltu	x21,x27,800031c4	 x21:0x80000000 x27:0xbdb9cc0c
       49015000	      4900	00000000	00000013	addi	x0,x0,0	  x0:0x00000000
       49025000	      4901	800031c0	00000013	addi	x0,x0,0	  x0:0x00000000
       49035000	      4902	800031c4	048b0463	beq	x22,x8,8000320c	 x22:0x0000021a  x8:0x5d69157d
       49045000	      4903	800031c8	0069deb3	srl	x29,x19,x6	 x19:0x42463000  x6:0xd8a73000 x29=0x42463000
       49055000	      4904	800031cc	565d6097	auipc	x1,0x565d6	  x1=0xd65d91c8
       49065000	      4905	800031d0	405c0c33	sub	x24,x24,x5	 x24:0x0000027a  x5:0xa47f4194 x24=0x5b80c0e6
       49075000	      4906	800031d4	40f10c33	sub	x24,x2,x15	  x2:0x00000001 x15:0x00000000 x24=0x00000001
       49085000	      4907	800031d8	01b3a2b3	slt	x5,x7,x27	  x7:0x80009fc4 x27:0xbdb9cc0c  x5=0x00000001
       49095000	      4908	800031dc	7163bc13	sltiu	x24,x7,1814	  x7:0x80009fc4 x24=0x00000000
       49105000	      4909	800031e0	bb2f7213	andi	x4,x30,-1102	 x30:0xe812f71f  x4=0xe812f312
       49115000	      4910	800031e4	00000013	addi	x0,x0,0	  x0:0x00000000
       49125000	      4911	800031e8	700a0697	auipc	x13,0x700a0	 x13=0xf00a31e4
       49135000	      4912	800031ec	0159dc13	srli	x24,x19,0x15	 x19:0x42463000 x24=0x00000212
       49145000	      4913	800031f0	003b1733	sll	x14,x22,x3	 x22:0x0000021a  x3:0xb14e6000 x14=0x0000021a
       49155000	      4914	800031f4	53ae2517	auipc	x10,0x53ae2	 x10=0xd3ae51f0
       49165000	      4915	800031f8	0118fab3	and	x21,x17,x17	 x17:0x59ea0000 x17:0x59ea0000 x21=0x59ea0000
       49175000	      4916	800031fc	04c17263	bgeu	x2,x12,80003240	  x2:0x00000001 x12:0x00000001
       49185000	      4917	00000000	00000013	addi	x0,x0,0	  x0:0x00000000
       49195000	      4918	8000323c	00000013	addi	x0,x0,0	  x0:0x00000000
       49205000	      4919	80003240	00bf47b3	xor	x15,x30,x11	 x30:0xe812f71f x11:0x00000001 x15=0xe812f71e
       49215000	      4920	80003244	41e4dc33	sra	x24,x9,x30	  x9:0xa3000000 x30:0xe812f71f x24=0xffffffff
       49225000	      4921	80003248	004c5663	bge	x24,x4,80003254	 x24:0xffffffff  x4:0xe812f312
       49235000	      4922	00000000	00000013	addi	x0,x0,0	  x0:0x00000000
       49245000	      4923	80003250	00000013	addi	x0,x0,0	  x0:0x00000000
       49255000	      4924	80003254	f2c5c513	xori	x10,x11,-212	 x11:0x00000001 x10=0xffffff2d
       49265000	      4925	80003258	00f69ab3	sll	x21,x13,x15	 x13:0xf00a31e4 x15:0xe812f71e x21=0x00000000
       49275000	      4926	8000325c	49ecfc93	andi	x25,x25,1182	 x25:0x5d691000 x25=0x00000000
       49285000	      4927	80003260	01e93333	sltu	x6,x18,x30	 x18:0x246d2000 x30:0xe812f71f  x6=0x00000001
       49295000	      4928	80003264	006efc63	bgeu	x29,x6,8000327c	 x29:0x42463000  x6:0x00000001
       49305000	      4929	00000000	00000013	addi	x0,x0,0	  x0:0x00000000
       49315000	      4930	80003278	00000013	addi	x0,x0,0	  x0:0x00000000
       49325000	      4931	8000327c	406886b3	sub	x13,x17,x6	 x17:0x59ea0000  x6:0x00000001 x13=0x59e9ffff
       49335000	      4932	80003280	41e3d213	srai	x4,x7,0x1e	  x7:0x80009fc4  x4=0xfffffffe
       49345000	      4933	80003284	41c6d613	srai	x12,x13,0x1c	 x13:0x59e9ffff x12=0x00000005
       49355000	      4934	80003288	01dfdab3	srl	x21,x31,x29	 x31:0x80009f40 x29:0x42463000 x21=0x80009f40
       49365000	      4935	8000328c	01725413	srli	x8,x4,0x17	  x4:0xfffffffe  x8=0x000001ff
       49375000	      4936	80003290	008f57b3	srl	x15,x30,x8	 x30:0xe812f71f  x8:0x000001ff x15=0x00000001
       49385000	      4937	80003294	04c26263	bltu	x4,x12,800032d8	  x4:0xfffffffe x12:0x00000005
       49395000	      4938	80003298	00f5c433	xor	x8,x11,x15	 x11:0x00000001 x15:0x00000001  x8=0x00000000
       49405000	      4939	8000329c	59de3713	sltiu	x14,x28,1437	 x28:0xef09b8c3 x14=0x00000000
       49415000	      4940	800032a0	0055aa33	slt	x20,x11,x5	 x11:0x00000001  x5:0x00000001 x20=0x00000000
       49425000	      4941	800032a4	033ffc63	bgeu	x31,x19,800032dc	 x31:0x80009f40 x19:0x42463000
       49435000	      4942	00000000	00000013	addi	x0,x0,0	  x0:0x00000000
       49445000	      4943	800032d8	00000013	addi	x0,x0,0	  x0:0x00000000
       49455000	      4944	800032dc	0206c863	blt	x13,x0,8000330c	 x13:0x59e9ffff  x0:0x00000000
       49465000	      4945	800032e0	00c052b3	srl	x5,x0,x12	  x0:0x00000000 x12:0x00000005  x5=0x00000000
       49475000	      4946	800032e4	03b30063	beq	x6,x27,80003304	  x6:0x00000001 x27:0xbdb9cc0c
       49485000	      4947	800032e8	00cca933	slt	x18,x25,x12	 x25:0x00000000 x12:0x00000005 x18=0x00000001
       49495000	      4948	800032ec	2b713313	sltiu	x6,x2,695	  x2:0x00000001  x6=0x00000001
       49505000	      4949	800032f0	1530c893	xori	x17,x1,339	  x1:0xd65d91c8 x17=0xd65d909b
       49515000	      4950	800032f4	40b45893	srai	x17,x8,0xb	  x8:0x00000000 x17=0x00000000
       49525000	      4951	800032f8	41450db3	sub	x27,x10,x20	 x10:0xffffff2d x20:0x00000000 x27=0xffffff2d
       49535000	      4952	800032fc	f6244a17	auipc	x20,0xf6244	 x20=0x762472f8
       49545000	      4953	80003300	f975fd93	andi	x27,x11,-105	 x11:0x00000001 x27=0x00000001
       49555000	      4954	80003304	00f43ab3	sltu	x21,x8,x15	  x8:0x00000000 x15:0x00000001 x21=0x00000001
       49565000	      4955	80003308	005b9993	slli	x19,x23,0x5	 x23:0x5d691001 x19=0xad220020
       49575000	      4956	8000330c	7fc38793	addi	x15,x7,2044	  x7:0x80009fc4 x15=0x8000a7c0
       49585000	      4957	80003310	76ba4d93	xori	x27,x20,1899	 x20:0x762472f8 x27=0x76247593
       49595000	      4958	80003314	f9a60917	auipc	x18,0xf9a60	 x18=0x79a63310
       49605000	      4959	80003318	03caf063	bgeu	x21,x28,80003338	 x21:0x00000001 x28:0xef09b8c3
       49615000	      4960	8000331c	2aa1c293	xori	x5,x3,682	  x3:0xb14e6000  x5=0xb14e62aa
       49625000	      4961	80003320	bba93e13	sltiu	x28,x18,-1094	 x18:0x79a63310 x28=0x00000001
       49635000	      4962	80003324	410addb3	sra	x27,x21,x16	 x21:0x00000001 x16:0xe812f5d8 x27=0x00000000
       49645000	      4963	80003328	f8b53a93	sltiu	x21,x10,-117	 x10:0xffffff2d x21=0x00000001
       49655000	      4964	8000332c	0579c263	blt	x19,x23,80003370	 x19:0xad220020 x23:0x5d691001
       49665000	      4965	00000000	00000013	addi	x0,x0,0	  x0:0x00000000
       49675000	      4966	8000336c	00000013	addi	x0,x0,0	  x0:0x00000000
       49685000	      4967	80003370	41d90233	sub	x4,x18,x29	 x18:0x79a63310 x29:0x42463000  x4=0x37600310
       49695000	      4968	80003374	00c78db3	add	x27,x15,x12	 x15:0x8000a7c0 x12:0x00000005 x27=0x8000a7c5
       49705000	      4969	80003378	004f9a93	slli	x21,x31,0x4	 x31:0x80009f40 x21=0x0009f400
       49715000	      4970	8000337c	010a7e63	bgeu	x20,x16,80003398	 x20:0x762472f8 x16:0xe812f5d8
       49725000	      4971	80003380	01186c63	bltu	x16,x17,80003398	 x16:0xe812f5d8 x17:0x00000000
       49735000	      4972	80003384	018a9113	slli	x2,x21,0x18	 x21:0x0009f400  x2=0x00000000
       49745000	      4973	80003388	01a15a93	srli	x21,x2,0x1a	  x2:0x00000000 x21=0x00000000
       49755000	      4974	8000338c	41e500b3	sub	x1,x10,x30	 x10:0xffffff2d x30:0xe812f71f  x1=0x17ed080e
       49765000	      4975	80003390	01dc1463	bne	x24,x29,80003398	 x24:0xffffffff x29:0x42463000
       49775000	      4976	00000000	00000013	addi	x0,x0,0	  x0:0x00000000
       49785000	      4977	80003394	00000013	addi	x0,x0,0	  x0:0x00000000
       49795000	      4978	80003398	c87c7217	auipc	x4,0xc87c7	  x4=0x487ca394
       49805000	      4979	8000339c	004fa983	lw	x19,4(x31)	 x31:0x80009f40 x19=0x80003eac PA:0x80009f44
       49815000	      4980	800033a0	41cadf33	sra	x30,x21,x28	 x21:0x00000000 x28:0x00000001 x30=0x00000000
       49825000	      4981	800033a4	038f8f93	addi	x31,x31,56	 x31:0x80009f40 x31=0x80009f78
       49835000	      4982	800033a8	410584b3	sub	x9,x11,x16	 x11:0x00000001 x16:0xe812f5d8  x9=0x17ed0a29
       49845000	      4983	800033ac	48f1a013	slti	x0,x3,1167	  x3:0xb14e6000
       49855000	      4984	800033b0	00198b13	addi	x22,x19,1	 x19:0x80003eac x22=0x80003ead
       49865000	      4985	800033b4	000b0b67	jalr	x22,x22,0	 x22:0x80003ead x22=0x800033b4
       49875000	      4986	00000000	00000013	addi	x0,x0,0	  x0:0x00000000
       49885000	      4987	80003eac	00000013	addi	x0,x0,0	  x0:0x00000000
       49895000	      4988	80003eb0	044009ef	jal	x19,80003eb0	 x19=0x80003eb0
       49905000	      4989	00000000	00000013	addi	x0,x0,0	  x0:0x00000000
       49915000	      4990	80003ef0	00000013	addi	x0,x0,0	  x0:0x00000000
       49925000	      4991	80003ef4	fe1ff36f	jal	x6,80003ef4	  x6=0x80003ef4
       49935000	      4992	00000000	00000013	addi	x0,x0,0	  x0:0x00000000
       49945000	      4993	80003ed0	00000013	addi	x0,x0,0	  x0:0x00000000
       49955000	      4994	80003ed4	ff5ff0ef	jal	x1,80003ed4	  x1=0x80003ed4
       49965000	      4995	00000000	00000013	addi	x0,x0,0	  x0:0x00000000
       49975000	      4996	80003ec4	00000013	addi	x0,x0,0	  x0:0x00000000
       49985000	      4997	80003ec8	ff1ff0ef	jal	x1,80003ec8	  x1=0x80003ec8
       49995000	      4998	00000000	00000013	addi	x0,x0,0	  x0:0x00000000
       50005000	      4999	80003eb4	00000013	addi	x0,x0,0	  x0:0x00000000
       50015000	      5000	80003eb8	00c000ef	jal	x1,80003eb8	  x1=0x80003eb8
       50025000	      5001	00000000	00000013	addi	x0,x0,0	  x0:0x00000000
       50035000	      5002	80003ec0	00000013	addi	x0,x0,0	  x0:0x00000000
       50045000	      5003	80003ec4	ff1ff0ef	jal	x1,80003ec4	  x1=0x80003ec4
       50055000	      5004	00000000	00000013	addi	x0,x0,0	  x0:0x00000000
       50065000	      5005	80003eb0	00000013	addi	x0,x0,0	  x0:0x00000000
       50075000	      5006	80003eb4	034000ef	jal	x1,80003eb4	  x1=0x80003eb4
       50085000	      5007	00000000	00000013	addi	x0,x0,0	  x0:0x00000000
       50095000	      5008	80003ee4	00000013	addi	x0,x0,0	  x0:0x00000000
       50105000	      5009	80003ee8	004000ef	jal	x1,80003ee8	  x1=0x80003ee8
       50115000	      5010	00000000	00000013	addi	x0,x0,0	  x0:0x00000000
       50125000	      5011	80003ee8	00000013	addi	x0,x0,0	  x0:0x00000000
       50135000	      5012	80003eec	fd1ff0ef	jal	x1,80003eec	  x1=0x80003eec
       50145000	      5013	00000000	00000013	addi	x0,x0,0	  x0:0x00000000
       50155000	      5014	80003eb8	00000013	addi	x0,x0,0	  x0:0x00000000
       50165000	      5015	80003ebc	024000ef	jal	x1,80003ebc	  x1=0x80003ebc
       50175000	      5016	00000000	00000013	addi	x0,x0,0	  x0:0x00000000
       50185000	      5017	80003edc	00000013	addi	x0,x0,0	  x0:0x00000000
       50195000	      5018	80003ee0	01800aef	jal	x21,80003ee0	 x21=0x80003ee0
       50205000	      5019	00000000	00000013	addi	x0,x0,0	  x0:0x00000000
       50215000	      5020	80003ef4	00000013	addi	x0,x0,0	  x0:0x00000000
       50225000	      5021	80003ef8	fe1ff7ef	jal	x15,80003ef8	 x15=0x80003ef8
       50235000	      5022	00000000	00000013	addi	x0,x0,0	  x0:0x00000000
       50245000	      5023	80003ed4	00000013	addi	x0,x0,0	  x0:0x00000000
       50255000	      5024	80003ed8	00c000ef	jal	x1,80003ed8	  x1=0x80003ed8
       50265000	      5025	00000000	00000013	addi	x0,x0,0	  x0:0x00000000
       50275000	      5026	80003ee0	00000013	addi	x0,x0,0	  x0:0x00000000
       50285000	      5027	80003ee4	00c0026f	jal	x4,80003ee4	  x4=0x80003ee4
       50295000	      5028	00000000	00000013	addi	x0,x0,0	  x0:0x00000000
       50305000	      5029	80003eec	00000013	addi	x0,x0,0	  x0:0x00000000
       50315000	      5030	80003ef0	fedff0ef	jal	x1,80003ef0	  x1=0x80003ef0
       50325000	      5031	00000000	00000013	addi	x0,x0,0	  x0:0x00000000
       50335000	      5032	80003ed8	00000013	addi	x0,x0,0	  x0:0x00000000
       50345000	      5033	80003edc	0240026f	jal	x4,80003edc	  x4=0x80003edc
       50355000	      5034	00000000	00000013	addi	x0,x0,0	  x0:0x00000000
       50365000	      5035	80003efc	00000013	addi	x0,x0,0	  x0:0x00000000
       50375000	      5036	80003f00	fd1ff0ef	jal	x1,80003f00	  x1=0x80003f00
       50385000	      5037	00000000	00000013	addi	x0,x0,0	  x0:0x00000000
       50395000	      5038	80003ecc	00000013	addi	x0,x0,0	  x0:0x00000000
       50405000	      5039	80003ed0	02c001ef	jal	x3,80003ed0	  x3=0x80003ed0
       50415000	      5040	00000000	00000013	addi	x0,x0,0	  x0:0x00000000
       50425000	      5041	80003ef8	00000013	addi	x0,x0,0	  x0:0x00000000
       50435000	      5042	80003efc	fc5ff0ef	jal	x1,80003efc	  x1=0x80003efc
       50445000	      5043	00000000	00000013	addi	x0,x0,0	  x0:0x00000000
       50455000	      5044	80003ebc	00000013	addi	x0,x0,0	  x0:0x00000000
       50465000	      5045	80003ec0	00c002ef	jal	x5,80003ec0	  x5=0x80003ec0
       50475000	      5046	00000000	00000013	addi	x0,x0,0	  x0:0x00000000
       50485000	      5047	80003ec8	00000013	addi	x0,x0,0	  x0:0x00000000
       50495000	      5048	80003ecc	0380086f	jal	x16,80003ecc	 x16=0x80003ecc
       50505000	      5049	00000000	00000013	addi	x0,x0,0	  x0:0x00000000
       50515000	      5050	80003f00	00000013	addi	x0,x0,0	  x0:0x00000000
       50525000	      5051	80003f04	faa2c937	lui	x18,0xfaa2c	 x18=0xfaa2c000
       50535000	      5052	80003f08	010009ef	jal	x19,80003f08	 x19=0x80003f08
       50545000	      5053	00000000	00000013	addi	x0,x0,0	  x0:0x00000000
       50555000	      5054	80003f14	00000013	addi	x0,x0,0	  x0:0x00000000
       50565000	      5055	80003f18	0100086f	jal	x16,80003f18	 x16=0x80003f18
       50575000	      5056	00000000	00000013	addi	x0,x0,0	  x0:0x00000000
       50585000	      5057	80003f24	00000013	addi	x0,x0,0	  x0:0x00000000
       50595000	      5058	80003f28	ff9ffc6f	jal	x24,80003f28	 x24=0x80003f28
       50605000	      5059	00000000	00000013	addi	x0,x0,0	  x0:0x00000000
       50615000	      5060	80003f1c	00000013	addi	x0,x0,0	  x0:0x00000000
       50625000	      5061	80003f20	fedff26f	jal	x4,80003f20	  x4=0x80003f20
       50635000	      5062	00000000	00000013	addi	x0,x0,0	  x0:0x00000000
       50645000	      5063	80003f08	00000013	addi	x0,x0,0	  x0:0x00000000
       50655000	      5064	80003f0c	0080036f	jal	x6,80003f0c	  x6=0x80003f0c
       50665000	      5065	00000000	00000013	addi	x0,x0,0	  x0:0x00000000
       50675000	      5066	80003f10	00000013	addi	x0,x0,0	  x0:0x00000000
       50685000	      5067	80003f14	ffdff0ef	jal	x1,80003f14	  x1=0x80003f14
       50695000	      5068	00000000	00000013	addi	x0,x0,0	  x0:0x00000000
       50705000	      5069	80003f0c	00000013	addi	x0,x0,0	  x0:0x00000000
       50715000	      5070	80003f10	034004ef	jal	x9,80003f10	  x9=0x80003f10
       50725000	      5071	00000000	00000013	addi	x0,x0,0	  x0:0x00000000
       50735000	      5072	80003f40	00000013	addi	x0,x0,0	  x0:0x00000000
       50745000	      5073	80003f44	fedff16f	jal	x2,80003f44	  x2=0x80003f44
       50755000	      5074	00000000	00000013	addi	x0,x0,0	  x0:0x00000000
       50765000	      5075	80003f2c	00000013	addi	x0,x0,0	  x0:0x00000000
       50775000	      5076	80003f30	fedffe6f	jal	x28,80003f30	 x28=0x80003f30
       50785000	      5077	00000000	00000013	addi	x0,x0,0	  x0:0x00000000
       50795000	      5078	80003f18	00000013	addi	x0,x0,0	  x0:0x00000000
       50805000	      5079	80003f1c	024000ef	jal	x1,80003f1c	  x1=0x80003f1c
       50815000	      5080	00000000	00000013	addi	x0,x0,0	  x0:0x00000000
       50825000	      5081	80003f3c	00000013	addi	x0,x0,0	  x0:0x00000000
       50835000	      5082	80003f40	fedff0ef	jal	x1,80003f40	  x1=0x80003f40
       50845000	      5083	00000000	00000013	addi	x0,x0,0	  x0:0x00000000
       50855000	      5084	80003f28	00000013	addi	x0,x0,0	  x0:0x00000000
       50865000	      5085	80003f2c	008000ef	jal	x1,80003f2c	  x1=0x80003f2c
       50875000	      5086	00000000	00000013	addi	x0,x0,0	  x0:0x00000000
       50885000	      5087	80003f30	00000013	addi	x0,x0,0	  x0:0x00000000
       50895000	      5088	80003f34	004009ef	jal	x19,80003f34	 x19=0x80003f34
       50905000	      5089	00000000	00000013	addi	x0,x0,0	  x0:0x00000000
       50915000	      5090	80003f34	00000013	addi	x0,x0,0	  x0:0x00000000
       50925000	      5091	80003f38	fedff0ef	jal	x1,80003f38	  x1=0x80003f38
       50935000	      5092	00000000	00000013	addi	x0,x0,0	  x0:0x00000000
       50945000	      5093	80003f20	00000013	addi	x0,x0,0	  x0:0x00000000
       50955000	      5094	80003f24	018000ef	jal	x1,80003f24	  x1=0x80003f24
       50965000	      5095	00000000	00000013	addi	x0,x0,0	  x0:0x00000000
       50975000	      5096	80003f38	00000013	addi	x0,x0,0	  x0:0x00000000
       50985000	      5097	80003f3c	00c00cef	jal	x25,80003f3c	 x25=0x80003f3c
       50995000	      5098	00000000	00000013	addi	x0,x0,0	  x0:0x00000000
       51005000	      5099	80003f44	00000013	addi	x0,x0,0	  x0:0x00000000
       51015000	      5100	80003f48	40ec5993	srai	x19,x24,0xe	 x24:0x80003f28 x19=0xfffe0000
       51025000	      5101	80003f4c	020009ef	jal	x19,80003f4c	 x19=0x80003f4c
       51035000	      5102	00000000	00000013	addi	x0,x0,0	  x0:0x00000000
       51045000	      5103	80003f68	00000013	addi	x0,x0,0	  x0:0x00000000
       51055000	      5104	80003f6c	004000ef	jal	x1,80003f6c	  x1=0x80003f6c
       51065000	      5105	00000000	00000013	addi	x0,x0,0	  x0:0x00000000
       51075000	      5106	80003f6c	00000013	addi	x0,x0,0	  x0:0x00000000
       51085000	      5107	80003f70	010000ef	jal	x1,80003f70	  x1=0x80003f70
       51095000	      5108	00000000	00000013	addi	x0,x0,0	  x0:0x00000000
       51105000	      5109	80003f7c	00000013	addi	x0,x0,0	  x0:0x00000000
       51115000	      5110	80003f80	fe9ff2ef	jal	x5,80003f80	  x5=0x80003f80
       51125000	      5111	00000000	00000013	addi	x0,x0,0	  x0:0x00000000
       51135000	      5112	80003f64	00000013	addi	x0,x0,0	  x0:0x00000000
       51145000	      5113	80003f68	ff9ff0ef	jal	x1,80003f68	  x1=0x80003f68
       51155000	      5114	00000000	00000013	addi	x0,x0,0	  x0:0x00000000
       51165000	      5115	80003f5c	00000013	addi	x0,x0,0	  x0:0x00000000
       51175000	      5116	80003f60	ff1ff0ef	jal	x1,80003f60	  x1=0x80003f60
       51185000	      5117	00000000	00000013	addi	x0,x0,0	  x0:0x00000000
       51195000	      5118	80003f4c	00000013	addi	x0,x0,0	  x0:0x00000000
       51205000	      5119	80003f50	02c0036f	jal	x6,80003f50	  x6=0x80003f50
       51215000	      5120	00000000	00000013	addi	x0,x0,0	  x0:0x00000000
       51225000	      5121	80003f78	00000013	addi	x0,x0,0	  x0:0x00000000
       51235000	      5122	80003f7c	fe9ff0ef	jal	x1,80003f7c	  x1=0x80003f7c
       51245000	      5123	00000000	00000013	addi	x0,x0,0	  x0:0x00000000
       51255000	      5124	80003f60	00000013	addi	x0,x0,0	  x0:0x00000000
       51265000	      5125	80003f64	014000ef	jal	x1,80003f64	  x1=0x80003f64
       51275000	      5126	00000000	00000013	addi	x0,x0,0	  x0:0x00000000
       51285000	      5127	80003f74	00000013	addi	x0,x0,0	  x0:0x00000000
       51295000	      5128	80003f78	fe1ff0ef	jal	x1,80003f78	  x1=0x80003f78
       51305000	      5129	00000000	00000013	addi	x0,x0,0	  x0:0x00000000
       51315000	      5130	80003f54	00000013	addi	x0,x0,0	  x0:0x00000000
       51325000	      5131	80003f58	004002ef	jal	x5,80003f58	  x5=0x80003f58
       51335000	      5132	00000000	00000013	addi	x0,x0,0	  x0:0x00000000
       51345000	      5133	80003f58	00000013	addi	x0,x0,0	  x0:0x00000000
       51355000	      5134	80003f5c	01800a6f	jal	x20,80003f5c	 x20=0x80003f5c
       51365000	      5135	00000000	00000013	addi	x0,x0,0	  x0:0x00000000
       51375000	      5136	80003f70	00000013	addi	x0,x0,0	  x0:0x00000000
       51385000	      5137	80003f74	fe1ff0ef	jal	x1,80003f74	  x1=0x80003f74
       51395000	      5138	00000000	00000013	addi	x0,x0,0	  x0:0x00000000
       51405000	      5139	80003f50	00000013	addi	x0,x0,0	  x0:0x00000000
       51415000	      5140	80003f54	030000ef	jal	x1,80003f54	  x1=0x80003f54
       51425000	      5141	00000000	00000013	addi	x0,x0,0	  x0:0x00000000
       51435000	      5142	80003f80	00000013	addi	x0,x0,0	  x0:0x00000000
       51445000	      5143	80003f84	008ff6b3	and	x13,x31,x8	 x31:0x80009f78  x8:0x00000000 x13=0x00000000
       51455000	      5144	80003f88	017fd813	srli	x16,x31,0x17	 x31:0x80009f78 x16=0x00000100
       51465000	      5145	80003f8c	c1747117	auipc	x2,0xc1747	  x2=0x4174af88
       51475000	      5146	80003f90	01d35113	srli	x2,x6,0x1d	  x6:0x80003f50  x2=0x00000004
       51485000	      5147	80003f94	00809793	slli	x15,x1,0x8	  x1:0x80003f54 x15=0x003f5400
       51495000	      5148	80003f98	01e3ddb3	srl	x27,x7,x30	  x7:0x80009fc4 x30:0x00000000 x27=0x80009fc4
       51505000	      5149	80003f9c	40dd8cb3	sub	x25,x27,x13	 x27:0x80009fc4 x13:0x00000000 x25=0x80009fc4
       51515000	      5150	80003fa0	8e994893	xori	x17,x18,-1815	 x18:0xfaa2c000 x17=0x055d38e9
       51525000	      5151	80003fa4	29c99497	auipc	x9,0x29c99	  x9=0xa9c9cfa0
       51535000	      5152	80003fa8	5fa6a197	auipc	x3,0x5fa6a	  x3=0xdfa6dfa4
       51545000	      5153	80003fac	05ae7063	bgeu	x28,x26,80003fec	 x28:0x80003f30 x26:0x80000000
       51555000	      5154	00000000	00000013	addi	x0,x0,0	  x0:0x00000000
       51565000	      5155	80003fe8	00000013	addi	x0,x0,0	  x0:0x00000000
       51575000	      5156	80003fec	4d500493	addi	x9,x0,1237	  x0:0x00000000  x9=0x000004d5
       51585000	      5157	80003ff0	00f45a33	srl	x20,x8,x15	  x8:0x00000000 x15:0x003f5400 x20=0x00000000
       51595000	      5158	80003ff4	016f5213	srli	x4,x30,0x16	 x30:0x00000000  x4=0x00000000
       51605000	      5159	80003ff8	ea64e413	ori	x8,x9,-346	  x9:0x000004d5  x8=0xfffffef7
       51615000	      5160	80003ffc	d4878313	addi	x6,x15,-696	 x15:0x003f5400  x6=0x003f5148
       51625000	      5161	80004000	0478e063	bltu	x17,x7,80004040	 x17:0x055d38e9  x7:0x80009fc4
       51635000	      5162	00000000	00000013	addi	x0,x0,0	  x0:0x00000000
       51645000	      5163	8000403c	00000013	addi	x0,x0,0	  x0:0x00000000
       51655000	      5164	80004040	0188fbb3	and	x23,x17,x24	 x17:0x055d38e9 x24:0x80003f28 x23=0x00003828
       51665000	      5165	80004044	4782f413	andi	x8,x5,1144	  x5:0x80003f58  x8=0x00000458
       51675000	      5166	80004048	40450c33	sub	x24,x10,x4	 x10:0xffffff2d  x4:0x00000000 x24=0xffffff2d
       51685000	      5167	8000404c	01085213	srli	x4,x16,0x10	 x16:0x00000100  x4=0x00000000
       51695000	      5168	80004050	013201b3	add	x3,x4,x19	  x4:0x00000000 x19:0x80003f4c  x3=0x80003f4c
       51705000	      5169	80004054	3b285a97	auipc	x21,0x3b285	 x21=0xbb289050
       51715000	      5170	80004058	005687b3	add	x15,x13,x5	 x13:0x00000000  x5:0x80003f58 x15=0x80003f58
       51725000	      5171	8000405c	03924263	blt	x4,x25,80004080	  x4:0x00000000 x25:0x80009fc4
       51735000	      5172	80004060	1f590e13	addi	x28,x18,501	 x18:0xfaa2c000 x28=0xfaa2c1f5
       51745000	      5173	80004064	00a258b3	srl	x17,x4,x10	  x4:0x00000000 x10:0xffffff2d x17=0x00000000
       51755000	      5174	80004068	01df9793	slli	x15,x31,0x1d	 x31:0x80009f78 x15=0x00000000
       51765000	      5175	8000406c	00ec6f33	or	x30,x24,x14	 x24:0xffffff2d x14:0x00000000 x30=0xffffff2d
       51775000	      5176	80004070	837e4013	xori	x0,x28,-1993	 x28:0xfaa2c1f5
       51785000	      5177	80004074	309ba437	lui	x8,0x309ba	  x8=0x309ba000
       51795000	      5178	80004078	41015993	srai	x19,x2,0x10	  x2:0x00000004 x19=0x00000000
       51805000	      5179	8000407c	415dd213	srai	x4,x27,0x15	 x27:0x80009fc4  x4=0xfffffc00
       51815000	      5180	80004080	002339b3	sltu	x19,x6,x2	  x6:0x003f5148  x2:0x00000004 x19=0x00000000
       51825000	      5181	80004084	01bb7ab3	and	x21,x22,x27	 x22:0x800033b4 x27:0x80009fc4 x21=0x80001384
       51835000	      5182	80004088	01906663	bltu	x0,x25,80004094	  x0:0x00000000 x25:0x80009fc4
       51845000	      5183	00000000	00000013	addi	x0,x0,0	  x0:0x00000000
       51855000	      5184	80004090	00000013	addi	x0,x0,0	  x0:0x00000000
       51865000	      5185	80004094	00000013	addi	x0,x0,0	  x0:0x00000000
       51875000	      5186	80004098	01760133	add	x2,x12,x23	 x12:0x00000005 x23:0x00003828  x2=0x0000382d
       51885000	      5187	8000409c	c1652517	auipc	x10,0xc1652	 x10=0x41656098
       51895000	      5188	800040a0	4084d313	srai	x6,x9,0x8	  x9:0x000004d5  x6=0x00000004
       51905000	      5189	800040a4	02b6fc63	bgeu	x13,x11,800040dc	 x13:0x00000000 x11:0x00000001
       51915000	      5190	800040a8	01c1eeb3	or	x29,x3,x28	  x3:0x80003f4c x28:0xfaa2c1f5 x29=0xfaa2fffd
       51925000	      5191	800040ac	0060d263	bge	x1,x6,800040b0	  x1:0x80003f54  x6:0x00000004
       51935000	      5192	800040b0	01ed1c33	sll	x24,x26,x30	 x26:0x80000000 x30:0xffffff2d x24=0x00000000
       51945000	      5193	800040b4	00000013	addi	x0,x0,0	  x0:0x00000000
       51955000	      5194	800040b8	010f1bb3	sll	x23,x30,x16	 x30:0xffffff2d x16:0x00000100 x23=0xffffff2d
       51965000	      5195	800040bc	03529c63	bne	x5,x21,800040f4	  x5:0x80003f58 x21:0x80001384
       51975000	      5196	00000000	00000013	addi	x0,x0,0	  x0:0x00000000
       51985000	      5197	800040f0	00000013	addi	x0,x0,0	  x0:0x00000000
       51995000	      5198	800040f4	001eddb3	srl	x27,x29,x1	 x29:0xfaa2fffd  x1:0x80003f54 x27=0x00000faa
       52005000	      5199	800040f8	01b54133	xor	x2,x10,x27	 x10:0x41656098 x27:0x00000faa  x2=0x41656f32
       52015000	      5200	800040fc	41f4d113	srai	x2,x9,0x1f	  x9:0x000004d5  x2=0x00000000
       52025000	      5201	80004100	01ae5db3	srl	x27,x28,x26	 x28:0xfaa2c1f5 x26:0x80000000 x27=0xfaa2c1f5
       52035000	      5202	80004104	42aafa93	andi	x21,x21,1066	 x21:0x80001384 x21=0x00000000
       52045000	      5203	80004108	850d8113	addi	x2,x27,-1968	 x27:0xfaa2c1f5  x2=0xfaa2ba45
       52055000	      5204	8000410c	61eaaa93	slti	x21,x21,1566	 x21:0x00000000 x21=0x00000001
       52065000	      5205	80004110	7925e013	ori	x0,x11,1938	 x11:0x00000001
       52075000	      5206	80004114	03b17863	bgeu	x2,x27,80004144	  x2:0xfaa2ba45 x27:0xfaa2c1f5
       52085000	      5207	80004118	03095863	bge	x18,x16,80004148	 x18:0xfaa2c000 x16:0x00000100
       52095000	      5208	8000411c	01151b33	sll	x22,x10,x17	 x10:0x41656098 x17:0x00000000 x22=0x41656098
       52105000	      5209	80004120	00c36533	or	x10,x6,x12	  x6:0x00000004 x12:0x00000005 x10=0x00000005
       52115000	      5210	80004124	01efdcb3	srl	x25,x31,x30	 x31:0x80009f78 x30:0xffffff2d x25=0x00040004
       52125000	      5211	80004128	024c1663	bne	x24,x4,80004154	 x24:0x00000000  x4:0xfffffc00
       52135000	      5212	00000000	00000013	addi	x0,x0,0	  x0:0x00000000
       52145000	      5213	80004150	00000013	addi	x0,x0,0	  x0:0x00000000
       52155000	      5214	80004154	61d32a17	auipc	x20,0x61d32	 x20=0xe1d36150
       52165000	      5215	80004158	01b75b33	srl	x22,x14,x27	 x14:0x00000000 x27:0xfaa2c1f5 x22=0x00000000
       52175000	      5216	8000415c	03ce7863	bgeu	x28,x28,8000418c	 x28:0xfaa2c1f5 x28:0xfaa2c1f5
       52185000	      5217	00000000	00000013	addi	x0,x0,0	  x0:0x00000000
       52195000	      5218	80004188	00000013	addi	x0,x0,0	  x0:0x00000000
       52205000	      5219	8000418c	00f2f663	bgeu	x5,x15,80004198	  x5:0x80003f58 x15:0x00000000
       52215000	      5220	00000000	00000013	addi	x0,x0,0	  x0:0x00000000
       52225000	      5221	80004194	00000013	addi	x0,x0,0	  x0:0x00000000
       52235000	      5222	80004198	abaaf113	andi	x2,x21,-1350	 x21:0x00000001  x2=0x00000000
       52245000	      5223	8000419c	2eb93c97	auipc	x25,0x2eb93	 x25=0xaeb97198
       52255000	      5224	800041a0	40a2da93	srai	x21,x5,0xa	  x5:0x80003f58 x21=0xffe0000f
       52265000	      5225	800041a4	cd99b113	sltiu	x2,x19,-807	 x19:0x00000000  x2=0x00000001
       52275000	      5226	800041a8	029a0e63	beq	x20,x9,800041e4	 x20:0xe1d36150  x9:0x000004d5
       52285000	      5227	800041ac	8d12ec17	auipc	x24,0x8d12e	 x24=0x0d1321a8
       52295000	      5228	800041b0	853cd5b7	lui	x11,0x853cd	 x11=0x853cd000
       52305000	      5229	800041b4	40a68533	sub	x10,x13,x10	 x13:0x00000000 x10:0x00000005 x10=0xfffffffb
       52315000	      5230	800041b8	408a5693	srai	x13,x20,0x8	 x20:0xe1d36150 x13=0xffe1d361
       52325000	      5231	800041bc	00f7e7b3	or	x15,x15,x15	 x15:0x00000000 x15:0x00000000 x15=0x00000000
       52335000	      5232	800041c0	00f501b3	add	x3,x10,x15	 x10:0xfffffffb x15:0x00000000  x3=0xfffffffb
       52345000	      5233	800041c4	0582c463	blt	x5,x24,8000420c	  x5:0x80003f58 x24:0x0d1321a8
       52355000	      5234	00000000	00000013	addi	x0,x0,0	  x0:0x00000000
       52365000	      5235	80004208	00000013	addi	x0,x0,0	  x0:0x00000000
       52375000	      5236	8000420c	00868233	add	x4,x13,x8	 x13:0xffe1d361  x8:0x309ba000  x4=0x307d7361
       52385000	      5237	80004210	01c9d013	srli	x0,x19,0x1c	 x19:0x00000000
       52395000	      5238	80004214	400dd613	srai	x12,x27,0x0	 x27:0xfaa2c1f5 x12=0xfaa2c1f5
       52405000	      5239	80004218	35883013	sltiu	x0,x16,856	 x16:0x00000100
       52415000	      5240	8000421c	40175db3	sra	x27,x14,x1	 x14:0x00000000  x1:0x80003f54 x27=0x00000000
       52425000	      5241	80004220	03a5ec63	bltu	x11,x26,80004258	 x11:0x853cd000 x26:0x80000000
       52435000	      5242	80004224	ab767713	andi	x14,x12,-1353	 x12:0xfaa2c1f5 x14=0xfaa2c0b5
       52445000	      5243	80004228	403d0a33	sub	x20,x26,x3	 x26:0x80000000  x3:0xfffffffb x20=0x80000005
       52455000	      5244	8000422c	41b8d1b3	sra	x3,x17,x27	 x17:0x00000000 x27:0x00000000  x3=0x00000000
       52465000	      5245	80004230	41c3d193	srai	x3,x7,0x1c	  x7:0x80009fc4  x3=0xfffffff8
       52475000	      5246	80004234	028f7c63	bgeu	x30,x8,8000426c	 x30:0xffffff2d  x8:0x309ba000
       52485000	      5247	00000000	00000013	addi	x0,x0,0	  x0:0x00000000
       52495000	      5248	80004268	00000013	addi	x0,x0,0	  x0:0x00000000
       52505000	      5249	8000426c	01e74663	blt	x14,x30,80004278	 x14:0xfaa2c0b5 x30:0xffffff2d
       52515000	      5250	00000000	00000013	addi	x0,x0,0	  x0:0x00000000
       52525000	      5251	80004274	00000013	addi	x0,x0,0	  x0:0x00000000
       52535000	      5252	80004278	01f0b333	sltu	x6,x1,x31	  x1:0x80003f54 x31:0x80009f78  x6=0x00000001
       52545000	      5253	8000427c	014fba33	sltu	x20,x31,x20	 x31:0x80009f78 x20:0x80000005 x20=0x00000000
       52555000	      5254	80004280	01dc67b3	or	x15,x24,x29	 x24:0x0d1321a8 x29:0xfaa2fffd x15=0xffb3fffd
       52565000	      5255	80004284	40218a33	sub	x20,x3,x2	  x3:0xfffffff8  x2:0x00000001 x20=0xfffffff7
       52575000	      5256	80004288	018c0c63	beq	x24,x24,800042a0	 x24:0x0d1321a8 x24:0x0d1321a8
       52585000	      5257	00000000	00000013	addi	x0,x0,0	  x0:0x00000000
       52595000	      5258	8000429c	00000013	addi	x0,x0,0	  x0:0x00000000
       52605000	      5259	800042a0	6ff10697	auipc	x13,0x6ff10	 x13=0xeff1429c
       52615000	      5260	800042a4	004fa983	lw	x19,4(x31)	 x31:0x80009f78 x19=0x800002c0 PA:0x80009f7c
       52625000	      5261	800042a8	8074e493	ori	x9,x9,-2041	  x9:0x000004d5  x9=0xfffffcd7
       52635000	      5262	800042ac	4bf3c413	xori	x8,x7,1215	  x7:0x80009fc4  x8=0x80009b7b
       52645000	      5263	800042b0	00c69e13	slli	x28,x13,0xc	 x13:0xeff1429c x28=0x1429c000
       52655000	      5264	800042b4	d50bf037	lui	x0,0xd50bf	
       52665000	      5265	800042b8	01fe27b3	slt	x15,x28,x31	 x28:0x1429c000 x31:0x80009f78 x15=0x00000000
       52675000	      5266	800042bc	00cf8f93	addi	x31,x31,12	 x31:0x80009f78 x31=0x80009f84
       52685000	      5267	800042c0	27a47793	andi	x15,x8,634	  x8:0x80009b7b x15=0x0000027a
       52695000	      5268	800042c4	005b5833	srl	x16,x22,x5	 x22:0x00000000  x5:0x80003f58 x16=0x00000000
       52705000	      5269	800042c8	40220233	sub	x4,x4,x2	  x4:0x307d7361  x2:0x00000001  x4=0x307d7360
       52715000	      5270	800042cc	625cae13	slti	x28,x25,1573	 x25:0xaeb97198 x28=0x00000001
       52725000	      5271	800042d0	00d49db3	sll	x27,x9,x13	  x9:0xfffffcd7 x13:0xeff1429c x27=0x70000000
       52735000	      5272	800042d4	00098293	addi	x5,x19,0	 x19:0x800002c0  x5=0x800002c0
       52745000	      5273	800042d8	000282e7	jalr	x5,x5,0	  x5:0x800002c0  x5=0x800042d8
       52755000	      5274	00000000	00000013	addi	x0,x0,0	  x0:0x00000000
       52765000	      5275	800002c0	00000013	addi	x0,x0,0	  x0:0x00000000
       52775000	      5276	800002c4	00c3f513	andi	x10,x7,12	  x7:0x80009fc4 x10=0x00000004
       52785000	      5277	800002c8	044c6863	bltu	x24,x4,80000318	 x24:0x0d1321a8  x4:0x307d7360
       52795000	      5278	00000000	00000013	addi	x0,x0,0	  x0:0x00000000
       52805000	      5279	80000314	00000013	addi	x0,x0,0	  x0:0x00000000
       52815000	      5280	80000318	418a0233	sub	x4,x20,x24	 x20:0xfffffff7 x24:0x0d1321a8  x4=0xf2ecde4f
       52825000	      5281	8000031c	005a1eb3	sll	x29,x20,x5	 x20:0xfffffff7  x5:0x800042d8 x29=0xf7000000
       52835000	      5282	80000320	003d9e13	slli	x28,x27,0x3	 x27:0x70000000 x28=0x80000000
       52845000	      5283	80000324	01fd2433	slt	x8,x26,x31	 x26:0x80000000 x31:0x80009f84  x8=0x00000001
       52855000	      5284	80000328	ec324313	xori	x6,x4,-317	  x4:0xf2ecde4f  x6=0x0d13208c
       52865000	      5285	8000032c	1456b993	sltiu	x19,x13,325	 x13:0xeff1429c x19=0x00000000
       52875000	      5286	80000330	00827663	bgeu	x4,x8,8000033c	  x4:0xf2ecde4f  x8:0x00000001
       52885000	      5287	00000000	00000013	addi	x0,x0,0	  x0:0x00000000
       52895000	      5288	80000338	00000013	addi	x0,x0,0	  x0:0x00000000
       52905000	      5289	8000033c	7f860613	addi	x12,x12,2040	 x12:0xfaa2c1f5 x12=0xfaa2c9ed
       52915000	      5290	80000340	0175cf33	xor	x30,x11,x23	 x11:0x853cd000 x23:0xffffff2d x30=0x7ac32f2d
       52925000	      5291	80000344	019cbf33	sltu	x30,x25,x25	 x25:0xaeb97198 x25:0xaeb97198 x30=0x00000000
       52935000	      5292	80000348	01d519b3	sll	x19,x10,x29	 x10:0x00000004 x29:0xf7000000 x19=0x00000004
       52945000	      5293	8000034c	030b7a63	bgeu	x22,x16,80000380	 x22:0x00000000 x16:0x00000000
       52955000	      5294	00000000	00000013	addi	x0,x0,0	  x0:0x00000000
       52965000	      5295	8000037c	00000013	addi	x0,x0,0	  x0:0x00000000
       52975000	      5296	80000380	40a35e93	srai	x29,x6,0xa	  x6:0x0d13208c x29=0x000344c8
       52985000	      5297	80000384	ba5ea293	slti	x5,x29,-1115	 x29:0x000344c8  x5=0x00000000
       52995000	      5298	80000388	00d89193	slli	x3,x17,0xd	 x17:0x00000000  x3=0x00000000
       53005000	      5299	8000038c	41f10e33	sub	x28,x2,x31	  x2:0x00000001 x31:0x80009f84 x28=0x7fff607d
       53015000	      5300	80000390	414e02b3	sub	x5,x28,x20	 x28:0x7fff607d x20:0xfffffff7  x5=0x7fff6086
       53025000	      5301	80000394	058ad263	bge	x21,x24,800003d8	 x21:0xffe0000f x24:0x0d1321a8
       53035000	      5302	80000398	e3202513	slti	x10,x0,-462	  x0:0x00000000 x10=0x00000000
       53045000	      5303	8000039c	02eece63	blt	x29,x14,800003d8	 x29:0x000344c8 x14:0xfaa2c0b5
       53055000	      5304	800003a0	01458933	add	x18,x11,x20	 x11:0x853cd000 x20:0xfffffff7 x18=0x853ccff7
       53065000	      5305	800003a4	00f6ae33	slt	x28,x13,x15	 x13:0xeff1429c x15:0x0000027a x28=0x00000001
       53075000	      5306	800003a8	414650b3	sra	x1,x12,x20	 x12:0xfaa2c9ed x20:0xfffffff7  x1=0xfffffff5
       53085000	      5307	800003ac	a2ee7497	auipc	x9,0xa2ee7	  x9=0x22ee73a8
       53095000	      5308	800003b0	01ae9893	slli	x17,x29,0x1a	 x29:0x000344c8 x17=0x20000000
       53105000	      5309	800003b4	00e830b3	sltu	x1,x16,x14	 x16:0x00000000 x14:0xfaa2c0b5  x1=0x00000001
       53115000	      5310	800003b8	414c0ab3	sub	x21,x24,x20	 x24:0x0d1321a8 x20:0xfffffff7 x21=0x0d1321b1
       53125000	      5311	800003bc	01bb9c63	bne	x23,x27,800003d4	 x23:0xffffff2d x27:0x70000000
       53135000	      5312	00000000	00000013	addi	x0,x0,0	  x0:0x00000000
       53145000	      5313	800003d0	00000013	addi	x0,x0,0	  x0:0x00000000
       53155000	      5314	800003d4	6b917413	andi	x8,x2,1721	  x2:0x00000001  x8=0x00000001
       53165000	      5315	800003d8	3856e693	ori	x13,x13,901	 x13:0xeff1429c x13=0xeff1439d
       53175000	      5316	800003dc	00000d17	auipc	x26,0x0	 x26=0x800003d8
       53185000	      5317	800003e0	00cd0d13	addi	x26,x26,12	 x26:0x800003d8 x26=0x800003e4
       53195000	      5318	800003e4	000d0067	jalr	x0,x26,0	 x26:0x800003e4
       53205000	      5319	00000000	00000013	addi	x0,x0,0	  x0:0x00000000
       53215000	      5320	800003e4	00000013	addi	x0,x0,0	  x0:0x00000000
       53225000	      5321	800003e8	00100193	addi	x3,x0,1	  x0:0x00000000  x3=0x00000001
       53235000	      5322	800003ec	00000073	ecall	
       53245000	      5323	800003f0	2575b913	sltiu	x18,x11,599	 x11:0x853cd000 x18=0x00000000
