		Time			Cycle	PC		Insn	Decoded instruction	Register and memory contents
          65000	         5	80000004	00000293	addi	x5,x0,0	  x0:0x00000000  x5=0x00000000
          75000	         6	80000008	00000313	addi	x6,x0,0	  x0:0x00000000  x6=0x00000000
          85000	         7	8000000c	00628263	beq	x5,x6,80000010	  x5:0x00000000  x6:0x00000000
          95000	         8	00000000	00000013	addi	x0,x0,0	  x0:0x00000000
         105000	         9	8000000c	00000013	addi	x0,x0,0	  x0:0x00000000
         115000	        10	80000010	00000e17	auipc	x28,0x0	 x28=0x8000000c
         125000	        11	80000014	00ce0e13	addi	x28,x28,12	 x28:0x8000000c x28=0x80000018
         135000	        12	80000018	000e0067	jalr	x0,x28,0	 x28:0x80000018
         145000	        13	00000000	00000013	addi	x0,x0,0	  x0:0x00000000
         155000	        14	80000018	00000013	addi	x0,x0,0	  x0:0x00000000
         165000	        15	8000001c	400009b7	lui	x19,0x40000	 x19=0x40000000
         175000	        16	80000020	10098993	addi	x19,x19,256	 x19:0x40000000 x19=0x40000100
         185000	        17	80000024	00000013	addi	x0,x0,0	  x0:0x00000000
         195000	        18	80000028	0000a297	auipc	x5,0xa	  x5=0x8000a024
         205000	        19	8000002c	fa028293	addi	x5,x5,-96	  x5:0x8000a024  x5=0x80009fc4
         215000	        20	80000030	00004997	auipc	x19,0x4	 x19=0x8000402c
         225000	        21	80000034	6d898993	addi	x19,x19,1752	 x19:0x8000402c x19=0x80004704
         235000	        22	80000038	0009e993	ori	x19,x19,0	 x19:0x80004704 x19=0x80004704
         245000	        23	8000003c	00000013	addi	x0,x0,0	  x0:0x00000000
         255000	        24	80000040	00000997	auipc	x19,0x0	 x19=0x8000003c
         265000	        25	80000044	02098993	addi	x19,x19,32	 x19:0x8000003c x19=0x8000005c
         275000	        26	80000048	00000013	addi	x0,x0,0	  x0:0x00000000
         285000	        27	8000004c	00000013	addi	x0,x0,0	  x0:0x00000000
         295000	        28	80000050	000029b7	lui	x19,0x2	 x19=0x00002000
         305000	        29	80000054	80098993	addi	x19,x19,-2048	 x19:0x00002000 x19=0x00001800
         315000	        30	80000058	00000013	addi	x0,x0,0	  x0:0x00000000
         325000	        31	8000005c	00000013	addi	x0,x0,0	  x0:0x00000000
         335000	        32	80000060	00000013	addi	x0,x0,0	  x0:0x00000000
         345000	        33	80000064	fb54c0b7	lui	x1,0xfb54c	  x1=0xfb54c000
         355000	        34	80000068	bed08093	addi	x1,x1,-1043	  x1:0xfb54c000  x1=0xfb54bbed
         365000	        35	8000006c	00000113	addi	x2,x0,0	  x0:0x00000000  x2=0x00000000
         375000	        36	80000070	00e00193	addi	x3,x0,14	  x0:0x00000000  x3=0x0000000e
         385000	        37	80000074	00000213	addi	x4,x0,0	  x0:0x00000000  x4=0x00000000
         395000	        38	80000078	00000313	addi	x6,x0,0	  x0:0x00000000  x6=0x00000000
         405000	        39	8000007c	fb0bd3b7	lui	x7,0xfb0bd	  x7=0xfb0bd000
         415000	        40	80000080	1b638393	addi	x7,x7,438	  x7:0xfb0bd000  x7=0xfb0bd1b6
         425000	        41	80000084	00000413	addi	x8,x0,0	  x0:0x00000000  x8=0x00000000
         435000	        42	80000088	800004b7	lui	x9,0x80000	  x9=0x80000000
         445000	        43	8000008c	00000513	addi	x10,x0,0	  x0:0x00000000 x10=0x00000000
         455000	        44	80000090	b2804637	lui	x12,0xb2804	 x12=0xb2804000
         465000	        45	80000094	0fb60613	addi	x12,x12,251	 x12:0xb2804000 x12=0xb28040fb
         475000	        46	80000098	00000693	addi	x13,x0,0	  x0:0x00000000 x13=0x00000000
         485000	        47	8000009c	00700713	addi	x14,x0,7	  x0:0x00000000 x14=0x00000007
         495000	        48	800000a0	00300793	addi	x15,x0,3	  x0:0x00000000 x15=0x00000003
         505000	        49	800000a4	00800813	addi	x16,x0,8	  x0:0x00000000 x16=0x00000008
         515000	        50	800000a8	fdba58b7	lui	x17,0xfdba5	 x17=0xfdba5000
         525000	        51	800000ac	43188893	addi	x17,x17,1073	 x17:0xfdba5000 x17=0xfdba5431
         535000	        52	800000b0	00000913	addi	x18,x0,0	  x0:0x00000000 x18=0x00000000
         545000	        53	800000b4	00000993	addi	x19,x0,0	  x0:0x00000000 x19=0x00000000
         555000	        54	800000b8	52877a37	lui	x20,0x52877	 x20=0x52877000
         565000	        55	800000bc	ae9a0a13	addi	x20,x20,-1303	 x20:0x52877000 x20=0x52876ae9
         575000	        56	800000c0	00000a93	addi	x21,x0,0	  x0:0x00000000 x21=0x00000000
         585000	        57	800000c4	00000b13	addi	x22,x0,0	  x0:0x00000000 x22=0x00000000
         595000	        58	800000c8	00100b93	addi	x23,x0,1	  x0:0x00000000 x23=0x00000001
         605000	        59	800000cc	80000c37	lui	x24,0x80000	 x24=0x80000000
         615000	        60	800000d0	00000c93	addi	x25,x0,0	  x0:0x00000000 x25=0x00000000
         625000	        61	800000d4	00000d13	addi	x26,x0,0	  x0:0x00000000 x26=0x00000000
         635000	        62	800000d8	0658edb7	lui	x27,0x658e	 x27=0x0658e000
         645000	        63	800000dc	28cd8d93	addi	x27,x27,652	 x27:0x0658e000 x27=0x0658e28c
         655000	        64	800000e0	00000e13	addi	x28,x0,0	  x0:0x00000000 x28=0x00000000
         665000	        65	800000e4	9c209eb7	lui	x29,0x9c209	 x29=0x9c209000
         675000	        66	800000e8	47ce8e93	addi	x29,x29,1148	 x29:0x9c209000 x29=0x9c20947c
         685000	        67	800000ec	00300f13	addi	x30,x0,3	  x0:0x00000000 x30=0x00000003
         695000	        68	800000f0	fc181fb7	lui	x31,0xfc181	 x31=0xfc181000
         705000	        69	800000f4	6e3f8f93	addi	x31,x31,1763	 x31:0xfc181000 x31=0xfc1816e3
         715000	        70	800000f8	0000a597	auipc	x11,0xa	 x11=0x8000a0f4
         725000	        71	800000fc	e9058593	addi	x11,x11,-368	 x11:0x8000a0f4 x11=0x80009f84
         735000	        72	80000100	0140016f	jal	x2,80000100	  x2=0x80000100
         745000	        73	00000000	00000013	addi	x0,x0,0	  x0:0x00000000
         755000	        74	80000110	00000013	addi	x0,x0,0	  x0:0x00000000
         765000	        75	80000114	0280036f	jal	x6,80000114	  x6=0x80000114
         775000	        76	00000000	00000013	addi	x0,x0,0	  x0:0x00000000
         785000	        77	80000138	00000013	addi	x0,x0,0	  x0:0x00000000
         795000	        78	8000013c	fd5ff1ef	jal	x3,8000013c	  x3=0x8000013c
         805000	        79	00000000	00000013	addi	x0,x0,0	  x0:0x00000000
         815000	        80	8000010c	00000013	addi	x0,x0,0	  x0:0x00000000
         825000	        81	80000110	018000ef	jal	x1,80000110	  x1=0x80000110
         835000	        82	00000000	00000013	addi	x0,x0,0	  x0:0x00000000
         845000	        83	80000124	00000013	addi	x0,x0,0	  x0:0x00000000
         855000	        84	80000128	ff5ff4ef	jal	x9,80000128	  x9=0x80000128
         865000	        85	00000000	00000013	addi	x0,x0,0	  x0:0x00000000
         875000	        86	80000118	00000013	addi	x0,x0,0	  x0:0x00000000
         885000	        87	8000011c	02c00f6f	jal	x30,8000011c	 x30=0x8000011c
         895000	        88	00000000	00000013	addi	x0,x0,0	  x0:0x00000000
         905000	        89	80000144	00000013	addi	x0,x0,0	  x0:0x00000000
         915000	        90	80000148	fedff0ef	jal	x1,80000148	  x1=0x80000148
         925000	        91	00000000	00000013	addi	x0,x0,0	  x0:0x00000000
         935000	        92	80000130	00000013	addi	x0,x0,0	  x0:0x00000000
         945000	        93	80000134	fd5ff0ef	jal	x1,80000134	  x1=0x80000134
         955000	        94	00000000	00000013	addi	x0,x0,0	  x0:0x00000000
         965000	        95	80000104	00000013	addi	x0,x0,0	  x0:0x00000000
         975000	        96	80000108	030000ef	jal	x1,80000108	  x1=0x80000108
         985000	        97	00000000	00000013	addi	x0,x0,0	  x0:0x00000000
         995000	        98	80000134	00000013	addi	x0,x0,0	  x0:0x00000000
        1005000	        99	80000138	fd5ff0ef	jal	x1,80000138	  x1=0x80000138
        1015000	       100	00000000	00000013	addi	x0,x0,0	  x0:0x00000000
        1025000	       101	80000108	00000013	addi	x0,x0,0	  x0:0x00000000
        1035000	       102	8000010c	014000ef	jal	x1,8000010c	  x1=0x8000010c
        1045000	       103	00000000	00000013	addi	x0,x0,0	  x0:0x00000000
        1055000	       104	8000011c	00000013	addi	x0,x0,0	  x0:0x00000000
        1065000	       105	80000120	004000ef	jal	x1,80000120	  x1=0x80000120
        1075000	       106	00000000	00000013	addi	x0,x0,0	  x0:0x00000000
        1085000	       107	80000120	00000013	addi	x0,x0,0	  x0:0x00000000
        1095000	       108	80000124	02000f6f	jal	x30,80000124	 x30=0x80000124
        1105000	       109	00000000	00000013	addi	x0,x0,0	  x0:0x00000000
        1115000	       110	80000140	00000013	addi	x0,x0,0	  x0:0x00000000
        1125000	       111	80000144	fe9fff6f	jal	x30,80000144	 x30=0x80000144
        1135000	       112	00000000	00000013	addi	x0,x0,0	  x0:0x00000000
        1145000	       113	80000128	00000013	addi	x0,x0,0	  x0:0x00000000
        1155000	       114	8000012c	fd9ff26f	jal	x4,8000012c	  x4=0x8000012c
        1165000	       115	00000000	00000013	addi	x0,x0,0	  x0:0x00000000
        1175000	       116	80000100	00000013	addi	x0,x0,0	  x0:0x00000000
        1185000	       117	80000104	02c000ef	jal	x1,80000104	  x1=0x80000104
        1195000	       118	00000000	00000013	addi	x0,x0,0	  x0:0x00000000
        1205000	       119	8000012c	00000013	addi	x0,x0,0	  x0:0x00000000
        1215000	       120	80000130	010000ef	jal	x1,80000130	  x1=0x80000130
        1225000	       121	00000000	00000013	addi	x0,x0,0	  x0:0x00000000
        1235000	       122	8000013c	00000013	addi	x0,x0,0	  x0:0x00000000
        1245000	       123	80000140	fd9ff0ef	jal	x1,80000140	  x1=0x80000140
        1255000	       124	00000000	00000013	addi	x0,x0,0	  x0:0x00000000
        1265000	       125	80000114	00000013	addi	x0,x0,0	  x0:0x00000000
        1275000	       126	80000118	034000ef	jal	x1,80000118	  x1=0x80000118
        1285000	       127	00000000	00000013	addi	x0,x0,0	  x0:0x00000000
        1295000	       128	80000148	00000013	addi	x0,x0,0	  x0:0x00000000
        1305000	       129	8000014c	00a65fb3	srl	x31,x12,x10	 x12:0xb28040fb x10:0x00000000 x31=0xb28040fb
        1315000	       130	80000150	0200016f	jal	x2,80000150	  x2=0x80000150
        1325000	       131	00000000	00000013	addi	x0,x0,0	  x0:0x00000000
        1335000	       132	8000016c	00000013	addi	x0,x0,0	  x0:0x00000000
        1345000	       133	80000170	ffdff8ef	jal	x17,80000170	 x17=0x80000170
        1355000	       134	00000000	00000013	addi	x0,x0,0	  x0:0x00000000
        1365000	       135	80000168	00000013	addi	x0,x0,0	  x0:0x00000000
        1375000	       136	8000016c	fedff0ef	jal	x1,8000016c	  x1=0x8000016c
        1385000	       137	00000000	00000013	addi	x0,x0,0	  x0:0x00000000
        1395000	       138	80000154	00000013	addi	x0,x0,0	  x0:0x00000000
        1405000	       139	80000158	008000ef	jal	x1,80000158	  x1=0x80000158
        1415000	       140	00000000	00000013	addi	x0,x0,0	  x0:0x00000000
        1425000	       141	8000015c	00000013	addi	x0,x0,0	  x0:0x00000000
        1435000	       142	80000160	0140066f	jal	x12,80000160	 x12=0x80000160
        1445000	       143	00000000	00000013	addi	x0,x0,0	  x0:0x00000000
        1455000	       144	80000170	00000013	addi	x0,x0,0	  x0:0x00000000
        1465000	       145	80000174	004000ef	jal	x1,80000174	  x1=0x80000174
        1475000	       146	00000000	00000013	addi	x0,x0,0	  x0:0x00000000
        1485000	       147	80000174	00000013	addi	x0,x0,0	  x0:0x00000000
        1495000	       148	80000178	fddff0ef	jal	x1,80000178	  x1=0x80000178
        1505000	       149	00000000	00000013	addi	x0,x0,0	  x0:0x00000000
        1515000	       150	80000150	00000013	addi	x0,x0,0	  x0:0x00000000
        1525000	       151	80000154	0140036f	jal	x6,80000154	  x6=0x80000154
        1535000	       152	00000000	00000013	addi	x0,x0,0	  x0:0x00000000
        1545000	       153	80000164	00000013	addi	x0,x0,0	  x0:0x00000000
        1555000	       154	80000168	ff5ff0ef	jal	x1,80000168	  x1=0x80000168
        1565000	       155	00000000	00000013	addi	x0,x0,0	  x0:0x00000000
        1575000	       156	80000158	00000013	addi	x0,x0,0	  x0:0x00000000
        1585000	       157	8000015c	020000ef	jal	x1,8000015c	  x1=0x8000015c
        1595000	       158	00000000	00000013	addi	x0,x0,0	  x0:0x00000000
        1605000	       159	80000178	00000013	addi	x0,x0,0	  x0:0x00000000
        1615000	       160	8000017c	fe9ff0ef	jal	x1,8000017c	  x1=0x8000017c
        1625000	       161	00000000	00000013	addi	x0,x0,0	  x0:0x00000000
        1635000	       162	80000160	00000013	addi	x0,x0,0	  x0:0x00000000
        1645000	       163	80000164	01c0046f	jal	x8,80000164	  x8=0x80000164
        1655000	       164	00000000	00000013	addi	x0,x0,0	  x0:0x00000000
        1665000	       165	8000017c	00000013	addi	x0,x0,0	  x0:0x00000000
        1675000	       166	80000180	0197f233	and	x4,x15,x25	 x15:0x00000003 x25:0x00000000  x4=0x00000000
        1685000	       167	80000184	0040016f	jal	x2,80000184	  x2=0x80000184
        1695000	       168	00000000	00000013	addi	x0,x0,0	  x0:0x00000000
        1705000	       169	80000184	00000013	addi	x0,x0,0	  x0:0x00000000
        1715000	       170	80000188	0340036f	jal	x6,80000188	  x6=0x80000188
        1725000	       171	00000000	00000013	addi	x0,x0,0	  x0:0x00000000
        1735000	       172	800001b8	00000013	addi	x0,x0,0	  x0:0x00000000
        1745000	       173	800001bc	fedff0ef	jal	x1,800001bc	  x1=0x800001bc
        1755000	       174	00000000	00000013	addi	x0,x0,0	  x0:0x00000000
        1765000	       175	800001a4	00000013	addi	x0,x0,0	  x0:0x00000000
        1775000	       176	800001a8	ff5ff36f	jal	x6,800001a8	  x6=0x800001a8
        1785000	       177	00000000	00000013	addi	x0,x0,0	  x0:0x00000000
        1795000	       178	80000198	00000013	addi	x0,x0,0	  x0:0x00000000
        1805000	       179	8000019c	ff1ff0ef	jal	x1,8000019c	  x1=0x8000019c
        1815000	       180	00000000	00000013	addi	x0,x0,0	  x0:0x00000000
        1825000	       181	80000188	00000013	addi	x0,x0,0	  x0:0x00000000
        1835000	       182	8000018c	018009ef	jal	x19,8000018c	 x19=0x8000018c
        1845000	       183	00000000	00000013	addi	x0,x0,0	  x0:0x00000000
        1855000	       184	800001a0	00000013	addi	x0,x0,0	  x0:0x00000000
        1865000	       185	800001a4	0100016f	jal	x2,800001a4	  x2=0x800001a4
        1875000	       186	00000000	00000013	addi	x0,x0,0	  x0:0x00000000
        1885000	       187	800001b0	00000013	addi	x0,x0,0	  x0:0x00000000
        1895000	       188	800001b4	fddff7ef	jal	x15,800001b4	 x15=0x800001b4
        1905000	       189	00000000	00000013	addi	x0,x0,0	  x0:0x00000000
        1915000	       190	8000018c	00000013	addi	x0,x0,0	  x0:0x00000000
        1925000	       191	80000190	008000ef	jal	x1,80000190	  x1=0x80000190
        1935000	       192	00000000	00000013	addi	x0,x0,0	  x0:0x00000000
        1945000	       193	80000194	00000013	addi	x0,x0,0	  x0:0x00000000
        1955000	       194	80000198	020000ef	jal	x1,80000198	  x1=0x80000198
        1965000	       195	00000000	00000013	addi	x0,x0,0	  x0:0x00000000
        1975000	       196	800001b4	00000013	addi	x0,x0,0	  x0:0x00000000
        1985000	       197	800001b8	fddff36f	jal	x6,800001b8	  x6=0x800001b8
        1995000	       198	00000000	00000013	addi	x0,x0,0	  x0:0x00000000
        2005000	       199	80000190	00000013	addi	x0,x0,0	  x0:0x00000000
        2015000	       200	80000194	018000ef	jal	x1,80000194	  x1=0x80000194
        2025000	       201	00000000	00000013	addi	x0,x0,0	  x0:0x00000000
        2035000	       202	800001a8	00000013	addi	x0,x0,0	  x0:0x00000000
        2045000	       203	800001ac	004000ef	jal	x1,800001ac	  x1=0x800001ac
        2055000	       204	00000000	00000013	addi	x0,x0,0	  x0:0x00000000
        2065000	       205	800001ac	00000013	addi	x0,x0,0	  x0:0x00000000
        2075000	       206	800001b0	ff1ff0ef	jal	x1,800001b0	  x1=0x800001b0
        2085000	       207	00000000	00000013	addi	x0,x0,0	  x0:0x00000000
        2095000	       208	8000019c	00000013	addi	x0,x0,0	  x0:0x00000000
        2105000	       209	800001a0	0200036f	jal	x6,800001a0	  x6=0x800001a0
        2115000	       210	00000000	00000013	addi	x0,x0,0	  x0:0x00000000
        2125000	       211	800001bc	00000013	addi	x0,x0,0	  x0:0x00000000
        2135000	       212	800001c0	00d49a33	sll	x20,x9,x13	  x9:0x80000128 x13:0x00000000 x20=0x80000128
        2145000	       213	800001c4	0040016f	jal	x2,800001c4	  x2=0x800001c4
        2155000	       214	00000000	00000013	addi	x0,x0,0	  x0:0x00000000
        2165000	       215	800001c4	00000013	addi	x0,x0,0	  x0:0x00000000
        2175000	       216	800001c8	0140036f	jal	x6,800001c8	  x6=0x800001c8
        2185000	       217	00000000	00000013	addi	x0,x0,0	  x0:0x00000000
        2195000	       218	800001d8	00000013	addi	x0,x0,0	  x0:0x00000000
        2205000	       219	800001dc	ff5ff96f	jal	x18,800001dc	 x18=0x800001dc
        2215000	       220	00000000	00000013	addi	x0,x0,0	  x0:0x00000000
        2225000	       221	800001cc	00000013	addi	x0,x0,0	  x0:0x00000000
        2235000	       222	800001d0	01c008ef	jal	x17,800001d0	 x17=0x800001d0
        2245000	       223	00000000	00000013	addi	x0,x0,0	  x0:0x00000000
        2255000	       224	800001e8	00000013	addi	x0,x0,0	  x0:0x00000000
        2265000	       225	800001ec	ff9ff0ef	jal	x1,800001ec	  x1=0x800001ec
        2275000	       226	00000000	00000013	addi	x0,x0,0	  x0:0x00000000
        2285000	       227	800001e0	00000013	addi	x0,x0,0	  x0:0x00000000
        2295000	       228	800001e4	ff1ff96f	jal	x18,800001e4	 x18=0x800001e4
        2305000	       229	00000000	00000013	addi	x0,x0,0	  x0:0x00000000
        2315000	       230	800001d0	00000013	addi	x0,x0,0	  x0:0x00000000
        2325000	       231	800001d4	00c000ef	jal	x1,800001d4	  x1=0x800001d4
        2335000	       232	00000000	00000013	addi	x0,x0,0	  x0:0x00000000
        2345000	       233	800001dc	00000013	addi	x0,x0,0	  x0:0x00000000
        2355000	       234	800001e0	014000ef	jal	x1,800001e0	  x1=0x800001e0
        2365000	       235	00000000	00000013	addi	x0,x0,0	  x0:0x00000000
        2375000	       236	800001f0	00000013	addi	x0,x0,0	  x0:0x00000000
        2385000	       237	800001f4	ffdff0ef	jal	x1,800001f4	  x1=0x800001f4
        2395000	       238	00000000	00000013	addi	x0,x0,0	  x0:0x00000000
        2405000	       239	800001ec	00000013	addi	x0,x0,0	  x0:0x00000000
        2415000	       240	800001f0	fe9ff0ef	jal	x1,800001f0	  x1=0x800001f0
        2425000	       241	00000000	00000013	addi	x0,x0,0	  x0:0x00000000
        2435000	       242	800001d4	00000013	addi	x0,x0,0	  x0:0x00000000
        2445000	       243	800001d8	ff5ff36f	jal	x6,800001d8	  x6=0x800001d8
        2455000	       244	00000000	00000013	addi	x0,x0,0	  x0:0x00000000
        2465000	       245	800001c8	00000013	addi	x0,x0,0	  x0:0x00000000
        2475000	       246	800001cc	01c000ef	jal	x1,800001cc	  x1=0x800001cc
        2485000	       247	00000000	00000013	addi	x0,x0,0	  x0:0x00000000
        2495000	       248	800001e4	00000013	addi	x0,x0,0	  x0:0x00000000
        2505000	       249	800001e8	010000ef	jal	x1,800001e8	  x1=0x800001e8
        2515000	       250	00000000	00000013	addi	x0,x0,0	  x0:0x00000000
        2525000	       251	800001f4	00000013	addi	x0,x0,0	  x0:0x00000000
        2535000	       252	800001f8	0057db13	srli	x22,x15,0x5	 x15:0x800001b4 x22=0x0400000d
        2545000	       253	800001fc	02c0016f	jal	x2,800001fc	  x2=0x800001fc
        2555000	       254	00000000	00000013	addi	x0,x0,0	  x0:0x00000000
        2565000	       255	80000224	00000013	addi	x0,x0,0	  x0:0x00000000
        2575000	       256	80000228	fe1ff7ef	jal	x15,80000228	 x15=0x80000228
        2585000	       257	00000000	00000013	addi	x0,x0,0	  x0:0x00000000
        2595000	       258	80000204	00000013	addi	x0,x0,0	  x0:0x00000000
        2605000	       259	80000208	0300036f	jal	x6,80000208	  x6=0x80000208
        2615000	       260	00000000	00000013	addi	x0,x0,0	  x0:0x00000000
        2625000	       261	80000234	00000013	addi	x0,x0,0	  x0:0x00000000
        2635000	       262	80000238	ffdff46f	jal	x8,80000238	  x8=0x80000238
        2645000	       263	00000000	00000013	addi	x0,x0,0	  x0:0x00000000
        2655000	       264	80000230	00000013	addi	x0,x0,0	  x0:0x00000000
        2665000	       265	80000234	fd9ffa6f	jal	x20,80000234	 x20=0x80000234
        2675000	       266	00000000	00000013	addi	x0,x0,0	  x0:0x00000000
        2685000	       267	80000208	00000013	addi	x0,x0,0	  x0:0x00000000
        2695000	       268	8000020c	ff5ff0ef	jal	x1,8000020c	  x1=0x8000020c
        2705000	       269	00000000	00000013	addi	x0,x0,0	  x0:0x00000000
        2715000	       270	800001fc	00000013	addi	x0,x0,0	  x0:0x00000000
        2725000	       271	80000200	020000ef	jal	x1,80000200	  x1=0x80000200
        2735000	       272	00000000	00000013	addi	x0,x0,0	  x0:0x00000000
        2745000	       273	8000021c	00000013	addi	x0,x0,0	  x0:0x00000000
        2755000	       274	80000220	fe5ff96f	jal	x18,80000220	 x18=0x80000220
        2765000	       275	00000000	00000013	addi	x0,x0,0	  x0:0x00000000
        2775000	       276	80000200	00000013	addi	x0,x0,0	  x0:0x00000000
        2785000	       277	80000204	0380036f	jal	x6,80000204	  x6=0x80000204
        2795000	       278	00000000	00000013	addi	x0,x0,0	  x0:0x00000000
        2805000	       279	80000238	00000013	addi	x0,x0,0	  x0:0x00000000
        2815000	       280	8000023c	fd9ff0ef	jal	x1,8000023c	  x1=0x8000023c
        2825000	       281	00000000	00000013	addi	x0,x0,0	  x0:0x00000000
        2835000	       282	80000210	00000013	addi	x0,x0,0	  x0:0x00000000
        2845000	       283	80000214	018000ef	jal	x1,80000214	  x1=0x80000214
        2855000	       284	00000000	00000013	addi	x0,x0,0	  x0:0x00000000
        2865000	       285	80000228	00000013	addi	x0,x0,0	  x0:0x00000000
        2875000	       286	8000022c	ff9ff0ef	jal	x1,8000022c	  x1=0x8000022c
        2885000	       287	00000000	00000013	addi	x0,x0,0	  x0:0x00000000
        2895000	       288	80000220	00000013	addi	x0,x0,0	  x0:0x00000000
        2905000	       289	80000224	ff5ff0ef	jal	x1,80000224	  x1=0x80000224
        2915000	       290	00000000	00000013	addi	x0,x0,0	  x0:0x00000000
        2925000	       291	80000214	00000013	addi	x0,x0,0	  x0:0x00000000
        2935000	       292	80000218	ff9ff0ef	jal	x1,80000218	  x1=0x80000218
        2945000	       293	00000000	00000013	addi	x0,x0,0	  x0:0x00000000
        2955000	       294	8000020c	00000013	addi	x0,x0,0	  x0:0x00000000
        2965000	       295	80000210	00c000ef	jal	x1,80000210	  x1=0x80000210
        2975000	       296	00000000	00000013	addi	x0,x0,0	  x0:0x00000000
        2985000	       297	80000218	00000013	addi	x0,x0,0	  x0:0x00000000
        2995000	       298	8000021c	01400b6f	jal	x22,8000021c	 x22=0x8000021c
        3005000	       299	00000000	00000013	addi	x0,x0,0	  x0:0x00000000
        3015000	       300	8000022c	00000013	addi	x0,x0,0	  x0:0x00000000
        3025000	       301	80000230	010000ef	jal	x1,80000230	  x1=0x80000230
        3035000	       302	00000000	00000013	addi	x0,x0,0	  x0:0x00000000
        3045000	       303	8000023c	00000013	addi	x0,x0,0	  x0:0x00000000
        3055000	       304	80000240	00df5393	srli	x7,x30,0xd	 x30:0x80000144  x7=0x00040000
        3065000	       305	80000244	0040016f	jal	x2,80000244	  x2=0x80000244
        3075000	       306	00000000	00000013	addi	x0,x0,0	  x0:0x00000000
        3085000	       307	80000244	00000013	addi	x0,x0,0	  x0:0x00000000
        3095000	       308	80000248	050000ef	jal	x1,80000248	  x1=0x80000248
        3105000	       309	00000000	00000013	addi	x0,x0,0	  x0:0x00000000
        3115000	       310	80000294	00000013	addi	x0,x0,0	  x0:0x00000000
        3125000	       311	80000298	008000ef	jal	x1,80000298	  x1=0x80000298
        3135000	       312	00000000	00000013	addi	x0,x0,0	  x0:0x00000000
        3145000	       313	8000029c	00000013	addi	x0,x0,0	  x0:0x00000000
        3155000	       314	800002a0	fc9ff46f	jal	x8,800002a0	  x8=0x800002a0
        3165000	       315	00000000	00000013	addi	x0,x0,0	  x0:0x00000000
        3175000	       316	80000264	00000013	addi	x0,x0,0	  x0:0x00000000
        3185000	       317	80000268	fe5ff0ef	jal	x1,80000268	  x1=0x80000268
        3195000	       318	00000000	00000013	addi	x0,x0,0	  x0:0x00000000
        3205000	       319	80000248	00000013	addi	x0,x0,0	  x0:0x00000000
        3215000	       320	8000024c	0500026f	jal	x4,8000024c	  x4=0x8000024c
        3225000	       321	00000000	00000013	addi	x0,x0,0	  x0:0x00000000
        3235000	       322	80000298	00000013	addi	x0,x0,0	  x0:0x00000000
        3245000	       323	8000029c	fd9ff0ef	jal	x1,8000029c	  x1=0x8000029c
        3255000	       324	00000000	00000013	addi	x0,x0,0	  x0:0x00000000
        3265000	       325	80000270	00000013	addi	x0,x0,0	  x0:0x00000000
        3275000	       326	80000274	fe9ff0ef	jal	x1,80000274	  x1=0x80000274
        3285000	       327	00000000	00000013	addi	x0,x0,0	  x0:0x00000000
        3295000	       328	80000258	00000013	addi	x0,x0,0	  x0:0x00000000
        3305000	       329	8000025c	020000ef	jal	x1,8000025c	  x1=0x8000025c
        3315000	       330	00000000	00000013	addi	x0,x0,0	  x0:0x00000000
        3325000	       331	80000278	00000013	addi	x0,x0,0	  x0:0x00000000
        3335000	       332	8000027c	00c00bef	jal	x23,8000027c	 x23=0x8000027c
        3345000	       333	00000000	00000013	addi	x0,x0,0	  x0:0x00000000
        3355000	       334	80000284	00000013	addi	x0,x0,0	  x0:0x00000000
        3365000	       335	80000288	01c000ef	jal	x1,80000288	  x1=0x80000288
        3375000	       336	00000000	00000013	addi	x0,x0,0	  x0:0x00000000
        3385000	       337	800002a0	00000013	addi	x0,x0,0	  x0:0x00000000
        3395000	       338	800002a4	fd5ff0ef	jal	x1,800002a4	  x1=0x800002a4
        3405000	       339	00000000	00000013	addi	x0,x0,0	  x0:0x00000000
        3415000	       340	80000274	00000013	addi	x0,x0,0	  x0:0x00000000
        3425000	       341	80000278	fedff76f	jal	x14,80000278	 x14=0x80000278
        3435000	       342	00000000	00000013	addi	x0,x0,0	  x0:0x00000000
        3445000	       343	80000260	00000013	addi	x0,x0,0	  x0:0x00000000
        3455000	       344	80000264	044000ef	jal	x1,80000264	  x1=0x80000264
        3465000	       345	00000000	00000013	addi	x0,x0,0	  x0:0x00000000
        3475000	       346	800002a4	00000013	addi	x0,x0,0	  x0:0x00000000
        3485000	       347	800002a8	fd9ff36f	jal	x6,800002a8	  x6=0x800002a8
        3495000	       348	00000000	00000013	addi	x0,x0,0	  x0:0x00000000
        3505000	       349	8000027c	00000013	addi	x0,x0,0	  x0:0x00000000
        3515000	       350	80000280	fedff66f	jal	x12,80000280	 x12=0x80000280
        3525000	       351	00000000	00000013	addi	x0,x0,0	  x0:0x00000000
        3535000	       352	80000268	00000013	addi	x0,x0,0	  x0:0x00000000
        3545000	       353	8000026c	fedff6ef	jal	x13,8000026c	 x13=0x8000026c
        3555000	       354	00000000	00000013	addi	x0,x0,0	  x0:0x00000000
        3565000	       355	80000254	00000013	addi	x0,x0,0	  x0:0x00000000
        3575000	       356	80000258	018000ef	jal	x1,80000258	  x1=0x80000258
        3585000	       357	00000000	00000013	addi	x0,x0,0	  x0:0x00000000
        3595000	       358	8000026c	00000013	addi	x0,x0,0	  x0:0x00000000
        3605000	       359	80000270	fe5ff0ef	jal	x1,80000270	  x1=0x80000270
        3615000	       360	00000000	00000013	addi	x0,x0,0	  x0:0x00000000
        3625000	       361	80000250	00000013	addi	x0,x0,0	  x0:0x00000000
        3635000	       362	80000254	ffdff0ef	jal	x1,80000254	  x1=0x80000254
        3645000	       363	00000000	00000013	addi	x0,x0,0	  x0:0x00000000
        3655000	       364	8000024c	00000013	addi	x0,x0,0	  x0:0x00000000
        3665000	       365	80000250	010000ef	jal	x1,80000250	  x1=0x80000250
        3675000	       366	00000000	00000013	addi	x0,x0,0	  x0:0x00000000
        3685000	       367	8000025c	00000013	addi	x0,x0,0	  x0:0x00000000
        3695000	       368	80000260	04c000ef	jal	x1,80000260	  x1=0x80000260
        3705000	       369	00000000	00000013	addi	x0,x0,0	  x0:0x00000000
        3715000	       370	800002a8	00000013	addi	x0,x0,0	  x0:0x00000000
        3725000	       371	800002ac	fd9ffeef	jal	x29,800002ac	 x29=0x800002ac
        3735000	       372	00000000	00000013	addi	x0,x0,0	  x0:0x00000000
        3745000	       373	80000280	00000013	addi	x0,x0,0	  x0:0x00000000
        3755000	       374	80000284	00c0036f	jal	x6,80000284	  x6=0x80000284
        3765000	       375	00000000	00000013	addi	x0,x0,0	  x0:0x00000000
        3775000	       376	8000028c	00000013	addi	x0,x0,0	  x0:0x00000000
        3785000	       377	80000290	0040046f	jal	x8,80000290	  x8=0x80000290
        3795000	       378	00000000	00000013	addi	x0,x0,0	  x0:0x00000000
        3805000	       379	80000290	00000013	addi	x0,x0,0	  x0:0x00000000
        3815000	       380	80000294	ff9ff7ef	jal	x15,80000294	 x15=0x80000294
        3825000	       381	00000000	00000013	addi	x0,x0,0	  x0:0x00000000
        3835000	       382	80000288	00000013	addi	x0,x0,0	  x0:0x00000000
        3845000	       383	8000028c	02400c6f	jal	x24,8000028c	 x24=0x8000028c
        3855000	       384	00000000	00000013	addi	x0,x0,0	  x0:0x00000000
        3865000	       385	800002ac	00000013	addi	x0,x0,0	  x0:0x00000000
        3875000	       386	800002b0	01fb4933	xor	x18,x22,x31	 x22:0x8000021c x31:0xb28040fb x18=0x328042e7
        3885000	       387	800002b4	0240016f	jal	x2,800002b4	  x2=0x800002b4
        3895000	       388	00000000	00000013	addi	x0,x0,0	  x0:0x00000000
        3905000	       389	800002d4	00000013	addi	x0,x0,0	  x0:0x00000000
        3915000	       390	800002d8	010000ef	jal	x1,800002d8	  x1=0x800002d8
        3925000	       391	00000000	00000013	addi	x0,x0,0	  x0:0x00000000
        3935000	       392	800002e4	00000013	addi	x0,x0,0	  x0:0x00000000
        3945000	       393	800002e8	014000ef	jal	x1,800002e8	  x1=0x800002e8
        3955000	       394	00000000	00000013	addi	x0,x0,0	  x0:0x00000000
        3965000	       395	800002f8	00000013	addi	x0,x0,0	  x0:0x00000000
        3975000	       396	800002fc	ffdff0ef	jal	x1,800002fc	  x1=0x800002fc
        3985000	       397	00000000	00000013	addi	x0,x0,0	  x0:0x00000000
        3995000	       398	800002f4	00000013	addi	x0,x0,0	  x0:0x00000000
        4005000	       399	800002f8	fd5ff0ef	jal	x1,800002f8	  x1=0x800002f8
        4015000	       400	00000000	00000013	addi	x0,x0,0	  x0:0x00000000
        4025000	       401	800002c8	00000013	addi	x0,x0,0	  x0:0x00000000
        4035000	       402	800002cc	00800b6f	jal	x22,800002cc	 x22=0x800002cc
        4045000	       403	00000000	00000013	addi	x0,x0,0	  x0:0x00000000
        4055000	       404	800002d0	00000013	addi	x0,x0,0	  x0:0x00000000
        4065000	       405	800002d4	0080036f	jal	x6,800002d4	  x6=0x800002d4
        4075000	       406	00000000	00000013	addi	x0,x0,0	  x0:0x00000000
        4085000	       407	800002d8	00000013	addi	x0,x0,0	  x0:0x00000000
        4095000	       408	800002dc	fe1ff16f	jal	x2,800002dc	  x2=0x800002dc
        4105000	       409	00000000	00000013	addi	x0,x0,0	  x0:0x00000000
        4115000	       410	800002b8	00000013	addi	x0,x0,0	  x0:0x00000000
        4125000	       411	800002bc	00c000ef	jal	x1,800002bc	  x1=0x800002bc
        4135000	       412	00000000	00000013	addi	x0,x0,0	  x0:0x00000000
        4145000	       413	800002c4	00000013	addi	x0,x0,0	  x0:0x00000000
        4155000	       414	800002c8	0080036f	jal	x6,800002c8	  x6=0x800002c8
        4165000	       415	00000000	00000013	addi	x0,x0,0	  x0:0x00000000
        4175000	       416	800002cc	00000013	addi	x0,x0,0	  x0:0x00000000
        4185000	       417	800002d0	fe9ff0ef	jal	x1,800002d0	  x1=0x800002d0
        4195000	       418	00000000	00000013	addi	x0,x0,0	  x0:0x00000000
        4205000	       419	800002b4	00000013	addi	x0,x0,0	  x0:0x00000000
        4215000	       420	800002b8	008000ef	jal	x1,800002b8	  x1=0x800002b8
        4225000	       421	00000000	00000013	addi	x0,x0,0	  x0:0x00000000
        4235000	       422	800002bc	00000013	addi	x0,x0,0	  x0:0x00000000
        4245000	       423	800002c0	02c000ef	jal	x1,800002c0	  x1=0x800002c0
        4255000	       424	00000000	00000013	addi	x0,x0,0	  x0:0x00000000
        4265000	       425	800002e8	00000013	addi	x0,x0,0	  x0:0x00000000
        4275000	       426	800002ec	ff5ff0ef	jal	x1,800002ec	  x1=0x800002ec
        4285000	       427	00000000	00000013	addi	x0,x0,0	  x0:0x00000000
        4295000	       428	800002dc	00000013	addi	x0,x0,0	  x0:0x00000000
        4305000	       429	800002e0	fe5ff0ef	jal	x1,800002e0	  x1=0x800002e0
        4315000	       430	00000000	00000013	addi	x0,x0,0	  x0:0x00000000
        4325000	       431	800002c0	00000013	addi	x0,x0,0	  x0:0x00000000
        4335000	       432	800002c4	030000ef	jal	x1,800002c4	  x1=0x800002c4
        4345000	       433	00000000	00000013	addi	x0,x0,0	  x0:0x00000000
        4355000	       434	800002f0	00000013	addi	x0,x0,0	  x0:0x00000000
        4365000	       435	800002f4	ffdff0ef	jal	x1,800002f4	  x1=0x800002f4
        4375000	       436	00000000	00000013	addi	x0,x0,0	  x0:0x00000000
        4385000	       437	800002ec	00000013	addi	x0,x0,0	  x0:0x00000000
        4395000	       438	800002f0	ff5ff0ef	jal	x1,800002f0	  x1=0x800002f0
        4405000	       439	00000000	00000013	addi	x0,x0,0	  x0:0x00000000
        4415000	       440	800002e0	00000013	addi	x0,x0,0	  x0:0x00000000
        4425000	       441	800002e4	01c0036f	jal	x6,800002e4	  x6=0x800002e4
        4435000	       442	00000000	00000013	addi	x0,x0,0	  x0:0x00000000
        4445000	       443	800002fc	00000013	addi	x0,x0,0	  x0:0x00000000
        4455000	       444	80000300	58e05397	auipc	x7,0x58e05	  x7=0xd8e052fc
        4465000	       445	80000304	0040016f	jal	x2,80000304	  x2=0x80000304
        4475000	       446	00000000	00000013	addi	x0,x0,0	  x0:0x00000000
        4485000	       447	80000304	00000013	addi	x0,x0,0	  x0:0x00000000
        4495000	       448	80000308	024000ef	jal	x1,80000308	  x1=0x80000308
        4505000	       449	00000000	00000013	addi	x0,x0,0	  x0:0x00000000
        4515000	       450	80000328	00000013	addi	x0,x0,0	  x0:0x00000000
        4525000	       451	8000032c	fe1ff0ef	jal	x1,8000032c	  x1=0x8000032c
        4535000	       452	00000000	00000013	addi	x0,x0,0	  x0:0x00000000
        4545000	       453	80000308	00000013	addi	x0,x0,0	  x0:0x00000000
        4555000	       454	8000030c	01c000ef	jal	x1,8000030c	  x1=0x8000030c
        4565000	       455	00000000	00000013	addi	x0,x0,0	  x0:0x00000000
        4575000	       456	80000324	00000013	addi	x0,x0,0	  x0:0x00000000
        4585000	       457	80000328	0140036f	jal	x6,80000328	  x6=0x80000328
        4595000	       458	00000000	00000013	addi	x0,x0,0	  x0:0x00000000
        4605000	       459	80000338	00000013	addi	x0,x0,0	  x0:0x00000000
        4615000	       460	8000033c	ff5ff0ef	jal	x1,8000033c	  x1=0x8000033c
        4625000	       461	00000000	00000013	addi	x0,x0,0	  x0:0x00000000
        4635000	       462	8000032c	00000013	addi	x0,x0,0	  x0:0x00000000
        4645000	       463	80000330	ff5ff0ef	jal	x1,80000330	  x1=0x80000330
        4655000	       464	00000000	00000013	addi	x0,x0,0	  x0:0x00000000
        4665000	       465	80000320	00000013	addi	x0,x0,0	  x0:0x00000000
        4675000	       466	80000324	ff5ff36f	jal	x6,80000324	  x6=0x80000324
        4685000	       467	00000000	00000013	addi	x0,x0,0	  x0:0x00000000
        4695000	       468	80000314	00000013	addi	x0,x0,0	  x0:0x00000000
        4705000	       469	80000318	01c0036f	jal	x6,80000318	  x6=0x80000318
        4715000	       470	00000000	00000013	addi	x0,x0,0	  x0:0x00000000
        4725000	       471	80000330	00000013	addi	x0,x0,0	  x0:0x00000000
        4735000	       472	80000334	fddff66f	jal	x12,80000334	 x12=0x80000334
        4745000	       473	00000000	00000013	addi	x0,x0,0	  x0:0x00000000
        4755000	       474	8000030c	00000013	addi	x0,x0,0	  x0:0x00000000
        4765000	       475	80000310	010000ef	jal	x1,80000310	  x1=0x80000310
        4775000	       476	00000000	00000013	addi	x0,x0,0	  x0:0x00000000
        4785000	       477	8000031c	00000013	addi	x0,x0,0	  x0:0x00000000
        4795000	       478	80000320	ffdff0ef	jal	x1,80000320	  x1=0x80000320
        4805000	       479	00000000	00000013	addi	x0,x0,0	  x0:0x00000000
        4815000	       480	80000318	00000013	addi	x0,x0,0	  x0:0x00000000
        4825000	       481	8000031c	024000ef	jal	x1,8000031c	  x1=0x8000031c
        4835000	       482	00000000	00000013	addi	x0,x0,0	  x0:0x00000000
        4845000	       483	8000033c	00000013	addi	x0,x0,0	  x0:0x00000000
        4855000	       484	80000340	ff9ff0ef	jal	x1,80000340	  x1=0x80000340
        4865000	       485	00000000	00000013	addi	x0,x0,0	  x0:0x00000000
        4875000	       486	80000334	00000013	addi	x0,x0,0	  x0:0x00000000
        4885000	       487	80000338	fddff36f	jal	x6,80000338	  x6=0x80000338
        4895000	       488	00000000	00000013	addi	x0,x0,0	  x0:0x00000000
        4905000	       489	80000310	00000013	addi	x0,x0,0	  x0:0x00000000
        4915000	       490	80000314	0300036f	jal	x6,80000314	  x6=0x80000314
        4925000	       491	00000000	00000013	addi	x0,x0,0	  x0:0x00000000
        4935000	       492	80000340	00000013	addi	x0,x0,0	  x0:0x00000000
        4945000	       493	80000344	37397e93	andi	x29,x18,883	 x18:0x328042e7 x29=0x00000263
        4955000	       494	80000348	03c0016f	jal	x2,80000348	  x2=0x80000348
        4965000	       495	00000000	00000013	addi	x0,x0,0	  x0:0x00000000
        4975000	       496	80000380	00000013	addi	x0,x0,0	  x0:0x00000000
        4985000	       497	80000384	fe9ff0ef	jal	x1,80000384	  x1=0x80000384
        4995000	       498	00000000	00000013	addi	x0,x0,0	  x0:0x00000000
        5005000	       499	80000368	00000013	addi	x0,x0,0	  x0:0x00000000
        5015000	       500	8000036c	044000ef	jal	x1,8000036c	  x1=0x8000036c
        5025000	       501	00000000	00000013	addi	x0,x0,0	  x0:0x00000000
        5035000	       502	800003ac	00000013	addi	x0,x0,0	  x0:0x00000000
        5045000	       503	800003b0	ff5ff36f	jal	x6,800003b0	  x6=0x800003b0
        5055000	       504	00000000	00000013	addi	x0,x0,0	  x0:0x00000000
        5065000	       505	800003a0	00000013	addi	x0,x0,0	  x0:0x00000000
        5075000	       506	800003a4	014006ef	jal	x13,800003a4	 x13=0x800003a4
        5085000	       507	00000000	00000013	addi	x0,x0,0	  x0:0x00000000
        5095000	       508	800003b4	00000013	addi	x0,x0,0	  x0:0x00000000
        5105000	       509	800003b8	008000ef	jal	x1,800003b8	  x1=0x800003b8
        5115000	       510	00000000	00000013	addi	x0,x0,0	  x0:0x00000000
        5125000	       511	800003bc	00000013	addi	x0,x0,0	  x0:0x00000000
        5135000	       512	800003c0	fa9ff1ef	jal	x3,800003c0	  x3=0x800003c0
        5145000	       513	00000000	00000013	addi	x0,x0,0	  x0:0x00000000
        5155000	       514	80000364	00000013	addi	x0,x0,0	  x0:0x00000000
        5165000	       515	80000368	020000ef	jal	x1,80000368	  x1=0x80000368
        5175000	       516	00000000	00000013	addi	x0,x0,0	  x0:0x00000000
        5185000	       517	80000384	00000013	addi	x0,x0,0	  x0:0x00000000
        5195000	       518	80000388	fedff0ef	jal	x1,80000388	  x1=0x80000388
        5205000	       519	00000000	00000013	addi	x0,x0,0	  x0:0x00000000
        5215000	       520	80000370	00000013	addi	x0,x0,0	  x0:0x00000000
        5225000	       521	80000374	00c0036f	jal	x6,80000374	  x6=0x80000374
        5235000	       522	00000000	00000013	addi	x0,x0,0	  x0:0x00000000
        5245000	       523	8000037c	00000013	addi	x0,x0,0	  x0:0x00000000
        5255000	       524	80000380	ff9ff86f	jal	x16,80000380	 x16=0x80000380
        5265000	       525	00000000	00000013	addi	x0,x0,0	  x0:0x00000000
        5275000	       526	80000374	00000013	addi	x0,x0,0	  x0:0x00000000
        5285000	       527	80000378	ff9ff36f	jal	x6,80000378	  x6=0x80000378
        5295000	       528	00000000	00000013	addi	x0,x0,0	  x0:0x00000000
        5305000	       529	8000036c	00000013	addi	x0,x0,0	  x0:0x00000000
        5315000	       530	80000370	fe5ffa6f	jal	x20,80000370	 x20=0x80000370
        5325000	       531	00000000	00000013	addi	x0,x0,0	  x0:0x00000000
        5335000	       532	80000350	00000013	addi	x0,x0,0	  x0:0x00000000
        5345000	       533	80000354	028000ef	jal	x1,80000354	  x1=0x80000354
        5355000	       534	00000000	00000013	addi	x0,x0,0	  x0:0x00000000
        5365000	       535	80000378	00000013	addi	x0,x0,0	  x0:0x00000000
        5375000	       536	8000037c	fe1ff0ef	jal	x1,8000037c	  x1=0x8000037c
        5385000	       537	00000000	00000013	addi	x0,x0,0	  x0:0x00000000
        5395000	       538	80000358	00000013	addi	x0,x0,0	  x0:0x00000000
        5405000	       539	8000035c	03800c6f	jal	x24,8000035c	 x24=0x8000035c
        5415000	       540	00000000	00000013	addi	x0,x0,0	  x0:0x00000000
        5425000	       541	80000390	00000013	addi	x0,x0,0	  x0:0x00000000
        5435000	       542	80000394	014000ef	jal	x1,80000394	  x1=0x80000394
        5445000	       543	00000000	00000013	addi	x0,x0,0	  x0:0x00000000
        5455000	       544	800003a4	00000013	addi	x0,x0,0	  x0:0x00000000
        5465000	       545	800003a8	ff9ff0ef	jal	x1,800003a8	  x1=0x800003a8
        5475000	       546	00000000	00000013	addi	x0,x0,0	  x0:0x00000000
        5485000	       547	8000039c	00000013	addi	x0,x0,0	  x0:0x00000000
        5495000	       548	800003a0	ff1ff0ef	jal	x1,800003a0	  x1=0x800003a0
        5505000	       549	00000000	00000013	addi	x0,x0,0	  x0:0x00000000
        5515000	       550	8000038c	00000013	addi	x0,x0,0	  x0:0x00000000
        5525000	       551	80000390	ffdff36f	jal	x6,80000390	  x6=0x80000390
        5535000	       552	00000000	00000013	addi	x0,x0,0	  x0:0x00000000
        5545000	       553	80000388	00000013	addi	x0,x0,0	  x0:0x00000000
        5555000	       554	8000038c	010000ef	jal	x1,8000038c	  x1=0x8000038c
        5565000	       555	00000000	00000013	addi	x0,x0,0	  x0:0x00000000
        5575000	       556	80000398	00000013	addi	x0,x0,0	  x0:0x00000000
        5585000	       557	8000039c	ffdff0ef	jal	x1,8000039c	  x1=0x8000039c
        5595000	       558	00000000	00000013	addi	x0,x0,0	  x0:0x00000000
        5605000	       559	80000394	00000013	addi	x0,x0,0	  x0:0x00000000
        5615000	       560	80000398	fcdff0ef	jal	x1,80000398	  x1=0x80000398
        5625000	       561	00000000	00000013	addi	x0,x0,0	  x0:0x00000000
        5635000	       562	80000360	00000013	addi	x0,x0,0	  x0:0x00000000
        5645000	       563	80000364	fedff0ef	jal	x1,80000364	  x1=0x80000364
        5655000	       564	00000000	00000013	addi	x0,x0,0	  x0:0x00000000
        5665000	       565	8000034c	00000013	addi	x0,x0,0	  x0:0x00000000
        5675000	       566	80000350	008000ef	jal	x1,80000350	  x1=0x80000350
        5685000	       567	00000000	00000013	addi	x0,x0,0	  x0:0x00000000
        5695000	       568	80000354	00000013	addi	x0,x0,0	  x0:0x00000000
        5705000	       569	80000358	0640066f	jal	x12,80000358	 x12=0x80000358
        5715000	       570	00000000	00000013	addi	x0,x0,0	  x0:0x00000000
        5725000	       571	800003b8	00000013	addi	x0,x0,0	  x0:0x00000000
        5735000	       572	800003bc	f91ff36f	jal	x6,800003bc	  x6=0x800003bc
        5745000	       573	00000000	00000013	addi	x0,x0,0	  x0:0x00000000
        5755000	       574	80000348	00000013	addi	x0,x0,0	  x0:0x00000000
        5765000	       575	8000034c	068000ef	jal	x1,8000034c	  x1=0x8000034c
        5775000	       576	00000000	00000013	addi	x0,x0,0	  x0:0x00000000
        5785000	       577	800003b0	00000013	addi	x0,x0,0	  x0:0x00000000
        5795000	       578	800003b4	fadff0ef	jal	x1,800003b4	  x1=0x800003b4
        5805000	       579	00000000	00000013	addi	x0,x0,0	  x0:0x00000000
        5815000	       580	8000035c	00000013	addi	x0,x0,0	  x0:0x00000000
        5825000	       581	80000360	04c000ef	jal	x1,80000360	  x1=0x80000360
        5835000	       582	00000000	00000013	addi	x0,x0,0	  x0:0x00000000
        5845000	       583	800003a8	00000013	addi	x0,x0,0	  x0:0x00000000
        5855000	       584	800003ac	0180036f	jal	x6,800003ac	  x6=0x800003ac
        5865000	       585	00000000	00000013	addi	x0,x0,0	  x0:0x00000000
        5875000	       586	800003c0	00000013	addi	x0,x0,0	  x0:0x00000000
        5885000	       587	800003c4	40d158b3	sra	x17,x2,x13	  x2:0x80000348 x13:0x800003a4 x17=0xf8000034
        5895000	       588	800003c8	0580016f	jal	x2,800003c8	  x2=0x800003c8
        5905000	       589	00000000	00000013	addi	x0,x0,0	  x0:0x00000000
        5915000	       590	8000041c	00000013	addi	x0,x0,0	  x0:0x00000000
        5925000	       591	80000420	fb9ff0ef	jal	x1,80000420	  x1=0x80000420
        5935000	       592	00000000	00000013	addi	x0,x0,0	  x0:0x00000000
        5945000	       593	800003d4	00000013	addi	x0,x0,0	  x0:0x00000000
        5955000	       594	800003d8	ff5ff0ef	jal	x1,800003d8	  x1=0x800003d8
        5965000	       595	00000000	00000013	addi	x0,x0,0	  x0:0x00000000
        5975000	       596	800003c8	00000013	addi	x0,x0,0	  x0:0x00000000
        5985000	       597	800003cc	03c000ef	jal	x1,800003cc	  x1=0x800003cc
        5995000	       598	00000000	00000013	addi	x0,x0,0	  x0:0x00000000
        6005000	       599	80000404	00000013	addi	x0,x0,0	  x0:0x00000000
        6015000	       600	80000408	fe9ff0ef	jal	x1,80000408	  x1=0x80000408
        6025000	       601	00000000	00000013	addi	x0,x0,0	  x0:0x00000000
        6035000	       602	800003ec	00000013	addi	x0,x0,0	  x0:0x00000000
        6045000	       603	800003f0	008001ef	jal	x3,800003f0	  x3=0x800003f0
        6055000	       604	00000000	00000013	addi	x0,x0,0	  x0:0x00000000
        6065000	       605	800003f4	00000013	addi	x0,x0,0	  x0:0x00000000
        6075000	       606	800003f8	00c000ef	jal	x1,800003f8	  x1=0x800003f8
        6085000	       607	00000000	00000013	addi	x0,x0,0	  x0:0x00000000
        6095000	       608	80000400	00000013	addi	x0,x0,0	  x0:0x00000000
        6105000	       609	80000404	00c000ef	jal	x1,80000404	  x1=0x80000404
        6115000	       610	00000000	00000013	addi	x0,x0,0	  x0:0x00000000
        6125000	       611	8000040c	00000013	addi	x0,x0,0	  x0:0x00000000
        6135000	       612	80000410	fd1ff0ef	jal	x1,80000410	  x1=0x80000410
        6145000	       613	00000000	00000013	addi	x0,x0,0	  x0:0x00000000
        6155000	       614	800003dc	00000013	addi	x0,x0,0	  x0:0x00000000
        6165000	       615	800003e0	014000ef	jal	x1,800003e0	  x1=0x800003e0
        6175000	       616	00000000	00000013	addi	x0,x0,0	  x0:0x00000000
        6185000	       617	800003f0	00000013	addi	x0,x0,0	  x0:0x00000000
        6195000	       618	800003f4	00c000ef	jal	x1,800003f4	  x1=0x800003f4
        6205000	       619	00000000	00000013	addi	x0,x0,0	  x0:0x00000000
        6215000	       620	800003fc	00000013	addi	x0,x0,0	  x0:0x00000000
        6225000	       621	80000400	fd5ff36f	jal	x6,80000400	  x6=0x80000400
        6235000	       622	00000000	00000013	addi	x0,x0,0	  x0:0x00000000
        6245000	       623	800003d0	00000013	addi	x0,x0,0	  x0:0x00000000
        6255000	       624	800003d4	0280016f	jal	x2,800003d4	  x2=0x800003d4
        6265000	       625	00000000	00000013	addi	x0,x0,0	  x0:0x00000000
        6275000	       626	800003f8	00000013	addi	x0,x0,0	  x0:0x00000000
        6285000	       627	800003fc	020000ef	jal	x1,800003fc	  x1=0x800003fc
        6295000	       628	00000000	00000013	addi	x0,x0,0	  x0:0x00000000
        6305000	       629	80000418	00000013	addi	x0,x0,0	  x0:0x00000000
        6315000	       630	8000041c	fc9ff0ef	jal	x1,8000041c	  x1=0x8000041c
        6325000	       631	00000000	00000013	addi	x0,x0,0	  x0:0x00000000
        6335000	       632	800003e0	00000013	addi	x0,x0,0	  x0:0x00000000
        6345000	       633	800003e4	008000ef	jal	x1,800003e4	  x1=0x800003e4
        6355000	       634	00000000	00000013	addi	x0,x0,0	  x0:0x00000000
        6365000	       635	800003e8	00000013	addi	x0,x0,0	  x0:0x00000000
        6375000	       636	800003ec	0280036f	jal	x6,800003ec	  x6=0x800003ec
        6385000	       637	00000000	00000013	addi	x0,x0,0	  x0:0x00000000
        6395000	       638	80000410	00000013	addi	x0,x0,0	  x0:0x00000000
        6405000	       639	80000414	0040036f	jal	x6,80000414	  x6=0x80000414
        6415000	       640	00000000	00000013	addi	x0,x0,0	  x0:0x00000000
        6425000	       641	80000414	00000013	addi	x0,x0,0	  x0:0x00000000
        6435000	       642	80000418	fb9ff0ef	jal	x1,80000418	  x1=0x80000418
        6445000	       643	00000000	00000013	addi	x0,x0,0	  x0:0x00000000
        6455000	       644	800003cc	00000013	addi	x0,x0,0	  x0:0x00000000
        6465000	       645	800003d0	018000ef	jal	x1,800003d0	  x1=0x800003d0
        6475000	       646	00000000	00000013	addi	x0,x0,0	  x0:0x00000000
        6485000	       647	800003e4	00000013	addi	x0,x0,0	  x0:0x00000000
        6495000	       648	800003e8	ff5fffef	jal	x31,800003e8	 x31=0x800003e8
        6505000	       649	00000000	00000013	addi	x0,x0,0	  x0:0x00000000
        6515000	       650	800003d8	00000013	addi	x0,x0,0	  x0:0x00000000
        6525000	       651	800003dc	030000ef	jal	x1,800003dc	  x1=0x800003dc
        6535000	       652	00000000	00000013	addi	x0,x0,0	  x0:0x00000000
        6545000	       653	80000408	00000013	addi	x0,x0,0	  x0:0x00000000
        6555000	       654	8000040c	0180036f	jal	x6,8000040c	  x6=0x8000040c
        6565000	       655	00000000	00000013	addi	x0,x0,0	  x0:0x00000000
        6575000	       656	80000420	00000013	addi	x0,x0,0	  x0:0x00000000
        6585000	       657	80000424	68b31d17	auipc	x26,0x68b31	 x26=0xe8b31420
        6595000	       658	80000428	02c0016f	jal	x2,80000428	  x2=0x80000428
        6605000	       659	00000000	00000013	addi	x0,x0,0	  x0:0x00000000
        6615000	       660	80000450	00000013	addi	x0,x0,0	  x0:0x00000000
        6625000	       661	80000454	ffdff0ef	jal	x1,80000454	  x1=0x80000454
        6635000	       662	00000000	00000013	addi	x0,x0,0	  x0:0x00000000
        6645000	       663	8000044c	00000013	addi	x0,x0,0	  x0:0x00000000
        6655000	       664	80000450	0200026f	jal	x4,80000450	  x4=0x80000450
        6665000	       665	00000000	00000013	addi	x0,x0,0	  x0:0x00000000
        6675000	       666	8000046c	00000013	addi	x0,x0,0	  x0:0x00000000
        6685000	       667	80000470	fddff86f	jal	x16,80000470	 x16=0x80000470
        6695000	       668	00000000	00000013	addi	x0,x0,0	  x0:0x00000000
        6705000	       669	80000448	00000013	addi	x0,x0,0	  x0:0x00000000
        6715000	       670	8000044c	014000ef	jal	x1,8000044c	  x1=0x8000044c
        6725000	       671	00000000	00000013	addi	x0,x0,0	  x0:0x00000000
        6735000	       672	8000045c	00000013	addi	x0,x0,0	  x0:0x00000000
        6745000	       673	80000460	fd1ff26f	jal	x4,80000460	  x4=0x80000460
        6755000	       674	00000000	00000013	addi	x0,x0,0	  x0:0x00000000
        6765000	       675	8000042c	00000013	addi	x0,x0,0	  x0:0x00000000
        6775000	       676	80000430	0340056f	jal	x10,80000430	 x10=0x80000430
        6785000	       677	00000000	00000013	addi	x0,x0,0	  x0:0x00000000
        6795000	       678	80000460	00000013	addi	x0,x0,0	  x0:0x00000000
        6805000	       679	80000464	fddff96f	jal	x18,80000464	 x18=0x80000464
        6815000	       680	00000000	00000013	addi	x0,x0,0	  x0:0x00000000
        6825000	       681	8000043c	00000013	addi	x0,x0,0	  x0:0x00000000
        6835000	       682	80000440	fedff16f	jal	x2,80000440	  x2=0x80000440
        6845000	       683	00000000	00000013	addi	x0,x0,0	  x0:0x00000000
        6855000	       684	80000428	00000013	addi	x0,x0,0	  x0:0x00000000
        6865000	       685	8000042c	040000ef	jal	x1,8000042c	  x1=0x8000042c
        6875000	       686	00000000	00000013	addi	x0,x0,0	  x0:0x00000000
        6885000	       687	80000468	00000013	addi	x0,x0,0	  x0:0x00000000
        6895000	       688	8000046c	00c0066f	jal	x12,8000046c	 x12=0x8000046c
        6905000	       689	00000000	00000013	addi	x0,x0,0	  x0:0x00000000
        6915000	       690	80000474	00000013	addi	x0,x0,0	  x0:0x00000000
        6925000	       691	80000478	fd1ff0ef	jal	x1,80000478	  x1=0x80000478
        6935000	       692	00000000	00000013	addi	x0,x0,0	  x0:0x00000000
        6945000	       693	80000444	00000013	addi	x0,x0,0	  x0:0x00000000
        6955000	       694	80000448	02c0036f	jal	x6,80000448	  x6=0x80000448
        6965000	       695	00000000	00000013	addi	x0,x0,0	  x0:0x00000000
        6975000	       696	80000470	00000013	addi	x0,x0,0	  x0:0x00000000
        6985000	       697	80000474	00800fef	jal	x31,80000474	 x31=0x80000474
        6995000	       698	00000000	00000013	addi	x0,x0,0	  x0:0x00000000
        7005000	       699	80000478	00000013	addi	x0,x0,0	  x0:0x00000000
        7015000	       700	8000047c	fb9ff36f	jal	x6,8000047c	  x6=0x8000047c
        7025000	       701	00000000	00000013	addi	x0,x0,0	  x0:0x00000000
        7035000	       702	80000430	00000013	addi	x0,x0,0	  x0:0x00000000
        7045000	       703	80000434	0240036f	jal	x6,80000434	  x6=0x80000434
        7055000	       704	00000000	00000013	addi	x0,x0,0	  x0:0x00000000
        7065000	       705	80000454	00000013	addi	x0,x0,0	  x0:0x00000000
        7075000	       706	80000458	fe1ff0ef	jal	x1,80000458	  x1=0x80000458
        7085000	       707	00000000	00000013	addi	x0,x0,0	  x0:0x00000000
        7095000	       708	80000434	00000013	addi	x0,x0,0	  x0:0x00000000
        7105000	       709	80000438	004001ef	jal	x3,80000438	  x3=0x80000438
        7115000	       710	00000000	00000013	addi	x0,x0,0	  x0:0x00000000
        7125000	       711	80000438	00000013	addi	x0,x0,0	  x0:0x00000000
        7135000	       712	8000043c	020000ef	jal	x1,8000043c	  x1=0x8000043c
        7145000	       713	00000000	00000013	addi	x0,x0,0	  x0:0x00000000
        7155000	       714	80000458	00000013	addi	x0,x0,0	  x0:0x00000000
        7165000	       715	8000045c	00c009ef	jal	x19,8000045c	 x19=0x8000045c
        7175000	       716	00000000	00000013	addi	x0,x0,0	  x0:0x00000000
        7185000	       717	80000464	00000013	addi	x0,x0,0	  x0:0x00000000
        7195000	       718	80000468	fddff0ef	jal	x1,80000468	  x1=0x80000468
        7205000	       719	00000000	00000013	addi	x0,x0,0	  x0:0x00000000
        7215000	       720	80000440	00000013	addi	x0,x0,0	  x0:0x00000000
        7225000	       721	80000444	03c000ef	jal	x1,80000444	  x1=0x80000444
        7235000	       722	00000000	00000013	addi	x0,x0,0	  x0:0x00000000
        7245000	       723	8000047c	00000013	addi	x0,x0,0	  x0:0x00000000
        7255000	       724	80000480	4040d0b3	sra	x1,x1,x4	  x1:0x80000444  x4:0x80000460  x1=0x80000444
        7265000	       725	80000484	0140016f	jal	x2,80000484	  x2=0x80000484
        7275000	       726	00000000	00000013	addi	x0,x0,0	  x0:0x00000000
        7285000	       727	80000494	00000013	addi	x0,x0,0	  x0:0x00000000
        7295000	       728	80000498	020000ef	jal	x1,80000498	  x1=0x80000498
        7305000	       729	00000000	00000013	addi	x0,x0,0	  x0:0x00000000
        7315000	       730	800004b4	00000013	addi	x0,x0,0	  x0:0x00000000
        7325000	       731	800004b8	fedff26f	jal	x4,800004b8	  x4=0x800004b8
        7335000	       732	00000000	00000013	addi	x0,x0,0	  x0:0x00000000
        7345000	       733	800004a0	00000013	addi	x0,x0,0	  x0:0x00000000
        7355000	       734	800004a4	00c000ef	jal	x1,800004a4	  x1=0x800004a4
        7365000	       735	00000000	00000013	addi	x0,x0,0	  x0:0x00000000
        7375000	       736	800004ac	00000013	addi	x0,x0,0	  x0:0x00000000
        7385000	       737	800004b0	ff1ff0ef	jal	x1,800004b0	  x1=0x800004b0
        7395000	       738	00000000	00000013	addi	x0,x0,0	  x0:0x00000000
        7405000	       739	8000049c	00000013	addi	x0,x0,0	  x0:0x00000000
        7415000	       740	800004a0	ffdff1ef	jal	x3,800004a0	  x3=0x800004a0
        7425000	       741	00000000	00000013	addi	x0,x0,0	  x0:0x00000000
        7435000	       742	80000498	00000013	addi	x0,x0,0	  x0:0x00000000
        7445000	       743	8000049c	ff5ff1ef	jal	x3,8000049c	  x3=0x8000049c
        7455000	       744	00000000	00000013	addi	x0,x0,0	  x0:0x00000000
        7465000	       745	8000048c	00000013	addi	x0,x0,0	  x0:0x00000000
        7475000	       746	80000490	024000ef	jal	x1,80000490	  x1=0x80000490
        7485000	       747	00000000	00000013	addi	x0,x0,0	  x0:0x00000000
        7495000	       748	800004b0	00000013	addi	x0,x0,0	  x0:0x00000000
        7505000	       749	800004b4	fd5ff36f	jal	x6,800004b4	  x6=0x800004b4
        7515000	       750	00000000	00000013	addi	x0,x0,0	  x0:0x00000000
        7525000	       751	80000484	00000013	addi	x0,x0,0	  x0:0x00000000
        7535000	       752	80000488	00c007ef	jal	x15,80000488	 x15=0x80000488
        7545000	       753	00000000	00000013	addi	x0,x0,0	  x0:0x00000000
        7555000	       754	80000490	00000013	addi	x0,x0,0	  x0:0x00000000
        7565000	       755	80000494	014000ef	jal	x1,80000494	  x1=0x80000494
        7575000	       756	00000000	00000013	addi	x0,x0,0	  x0:0x00000000
        7585000	       757	800004a4	00000013	addi	x0,x0,0	  x0:0x00000000
        7595000	       758	800004a8	fe5ff7ef	jal	x15,800004a8	 x15=0x800004a8
        7605000	       759	00000000	00000013	addi	x0,x0,0	  x0:0x00000000
        7615000	       760	80000488	00000013	addi	x0,x0,0	  x0:0x00000000
        7625000	       761	8000048c	0200046f	jal	x8,8000048c	  x8=0x8000048c
        7635000	       762	00000000	00000013	addi	x0,x0,0	  x0:0x00000000
        7645000	       763	800004a8	00000013	addi	x0,x0,0	  x0:0x00000000
        7655000	       764	800004ac	0100036f	jal	x6,800004ac	  x6=0x800004ac
        7665000	       765	00000000	00000013	addi	x0,x0,0	  x0:0x00000000
        7675000	       766	800004b8	00000013	addi	x0,x0,0	  x0:0x00000000
        7685000	       767	800004bc	00779513	slli	x10,x15,0x7	 x15:0x800004a8 x10=0x00025400
        7695000	       768	800004c0	0680016f	jal	x2,800004c0	  x2=0x800004c0
        7705000	       769	00000000	00000013	addi	x0,x0,0	  x0:0x00000000
        7715000	       770	80000524	00000013	addi	x0,x0,0	  x0:0x00000000
        7725000	       771	80000528	fc5ff0ef	jal	x1,80000528	  x1=0x80000528
        7735000	       772	00000000	00000013	addi	x0,x0,0	  x0:0x00000000
        7745000	       773	800004e8	00000013	addi	x0,x0,0	  x0:0x00000000
        7755000	       774	800004ec	fe1ff0ef	jal	x1,800004ec	  x1=0x800004ec
        7765000	       775	00000000	00000013	addi	x0,x0,0	  x0:0x00000000
        7775000	       776	800004c8	00000013	addi	x0,x0,0	  x0:0x00000000
        7785000	       777	800004cc	0080016f	jal	x2,800004cc	  x2=0x800004cc
        7795000	       778	00000000	00000013	addi	x0,x0,0	  x0:0x00000000
        7805000	       779	800004d0	00000013	addi	x0,x0,0	  x0:0x00000000
        7815000	       780	800004d4	038000ef	jal	x1,800004d4	  x1=0x800004d4
        7825000	       781	00000000	00000013	addi	x0,x0,0	  x0:0x00000000
        7835000	       782	80000508	00000013	addi	x0,x0,0	  x0:0x00000000
        7845000	       783	8000050c	fd1ff9ef	jal	x19,8000050c	 x19=0x8000050c
        7855000	       784	00000000	00000013	addi	x0,x0,0	  x0:0x00000000
        7865000	       785	800004d8	00000013	addi	x0,x0,0	  x0:0x00000000
        7875000	       786	800004dc	02c0016f	jal	x2,800004dc	  x2=0x800004dc
        7885000	       787	00000000	00000013	addi	x0,x0,0	  x0:0x00000000
        7895000	       788	80000504	00000013	addi	x0,x0,0	  x0:0x00000000
        7905000	       789	80000508	ffdffb6f	jal	x22,80000508	 x22=0x80000508
        7915000	       790	00000000	00000013	addi	x0,x0,0	  x0:0x00000000
        7925000	       791	80000500	00000013	addi	x0,x0,0	  x0:0x00000000
        7935000	       792	80000504	ff9ff0ef	jal	x1,80000504	  x1=0x80000504
        7945000	       793	00000000	00000013	addi	x0,x0,0	  x0:0x00000000
        7955000	       794	800004f8	00000013	addi	x0,x0,0	  x0:0x00000000
        7965000	       795	800004fc	028000ef	jal	x1,800004fc	  x1=0x800004fc
        7975000	       796	00000000	00000013	addi	x0,x0,0	  x0:0x00000000
        7985000	       797	80000520	00000013	addi	x0,x0,0	  x0:0x00000000
        7995000	       798	80000524	fedff0ef	jal	x1,80000524	  x1=0x80000524
        8005000	       799	00000000	00000013	addi	x0,x0,0	  x0:0x00000000
        8015000	       800	8000050c	00000013	addi	x0,x0,0	  x0:0x00000000
        8025000	       801	80000510	004000ef	jal	x1,80000510	  x1=0x80000510
        8035000	       802	00000000	00000013	addi	x0,x0,0	  x0:0x00000000
        8045000	       803	80000510	00000013	addi	x0,x0,0	  x0:0x00000000
        8055000	       804	80000514	fedff36f	jal	x6,80000514	  x6=0x80000514
        8065000	       805	00000000	00000013	addi	x0,x0,0	  x0:0x00000000
        8075000	       806	800004fc	00000013	addi	x0,x0,0	  x0:0x00000000
        8085000	       807	80000500	ff9ff0ef	jal	x1,80000500	  x1=0x80000500
        8095000	       808	00000000	00000013	addi	x0,x0,0	  x0:0x00000000
        8105000	       809	800004f4	00000013	addi	x0,x0,0	  x0:0x00000000
        8115000	       810	800004f8	fedff0ef	jal	x1,800004f8	  x1=0x800004f8
        8125000	       811	00000000	00000013	addi	x0,x0,0	  x0:0x00000000
        8135000	       812	800004e0	00000013	addi	x0,x0,0	  x0:0x00000000
        8145000	       813	800004e4	038000ef	jal	x1,800004e4	  x1=0x800004e4
        8155000	       814	00000000	00000013	addi	x0,x0,0	  x0:0x00000000
        8165000	       815	80000518	00000013	addi	x0,x0,0	  x0:0x00000000
        8175000	       816	8000051c	fbdff0ef	jal	x1,8000051c	  x1=0x8000051c
        8185000	       817	00000000	00000013	addi	x0,x0,0	  x0:0x00000000
        8195000	       818	800004d4	00000013	addi	x0,x0,0	  x0:0x00000000
        8205000	       819	800004d8	040000ef	jal	x1,800004d8	  x1=0x800004d8
        8215000	       820	00000000	00000013	addi	x0,x0,0	  x0:0x00000000
        8225000	       821	80000514	00000013	addi	x0,x0,0	  x0:0x00000000
        8235000	       822	80000518	fd1ff0ef	jal	x1,80000518	  x1=0x80000518
        8245000	       823	00000000	00000013	addi	x0,x0,0	  x0:0x00000000
        8255000	       824	800004e4	00000013	addi	x0,x0,0	  x0:0x00000000
        8265000	       825	800004e8	fddff46f	jal	x8,800004e8	  x8=0x800004e8
        8275000	       826	00000000	00000013	addi	x0,x0,0	  x0:0x00000000
        8285000	       827	800004c0	00000013	addi	x0,x0,0	  x0:0x00000000
        8295000	       828	800004c4	01c000ef	jal	x1,800004c4	  x1=0x800004c4
        8305000	       829	00000000	00000013	addi	x0,x0,0	  x0:0x00000000
        8315000	       830	800004dc	00000013	addi	x0,x0,0	  x0:0x00000000
        8325000	       831	800004e0	fe9ff0ef	jal	x1,800004e0	  x1=0x800004e0
        8335000	       832	00000000	00000013	addi	x0,x0,0	  x0:0x00000000
        8345000	       833	800004c4	00000013	addi	x0,x0,0	  x0:0x00000000
        8355000	       834	800004c8	0580026f	jal	x4,800004c8	  x4=0x800004c8
        8365000	       835	00000000	00000013	addi	x0,x0,0	  x0:0x00000000
        8375000	       836	8000051c	00000013	addi	x0,x0,0	  x0:0x00000000
        8385000	       837	80000520	fd5ff36f	jal	x6,80000520	  x6=0x80000520
        8395000	       838	00000000	00000013	addi	x0,x0,0	  x0:0x00000000
        8405000	       839	800004f0	00000013	addi	x0,x0,0	  x0:0x00000000
        8415000	       840	800004f4	fddff0ef	jal	x1,800004f4	  x1=0x800004f4
        8425000	       841	00000000	00000013	addi	x0,x0,0	  x0:0x00000000
        8435000	       842	800004cc	00000013	addi	x0,x0,0	  x0:0x00000000
        8445000	       843	800004d0	0200066f	jal	x12,800004d0	 x12=0x800004d0
        8455000	       844	00000000	00000013	addi	x0,x0,0	  x0:0x00000000
        8465000	       845	800004ec	00000013	addi	x0,x0,0	  x0:0x00000000
        8475000	       846	800004f0	03c00f6f	jal	x30,800004f0	 x30=0x800004f0
        8485000	       847	00000000	00000013	addi	x0,x0,0	  x0:0x00000000
        8495000	       848	80000528	00000013	addi	x0,x0,0	  x0:0x00000000
        8505000	       849	8000052c	2c904313	xori	x6,x0,713	  x0:0x00000000  x6=0x000002c9
        8515000	       850	80000530	0100016f	jal	x2,80000530	  x2=0x80000530
        8525000	       851	00000000	00000013	addi	x0,x0,0	  x0:0x00000000
        8535000	       852	8000053c	00000013	addi	x0,x0,0	  x0:0x00000000
        8545000	       853	80000540	ff5ff0ef	jal	x1,80000540	  x1=0x80000540
        8555000	       854	00000000	00000013	addi	x0,x0,0	  x0:0x00000000
        8565000	       855	80000530	00000013	addi	x0,x0,0	  x0:0x00000000
        8575000	       856	80000534	01c0036f	jal	x6,80000534	  x6=0x80000534
        8585000	       857	00000000	00000013	addi	x0,x0,0	  x0:0x00000000
        8595000	       858	8000054c	00000013	addi	x0,x0,0	  x0:0x00000000
        8605000	       859	80000550	ff9ff36f	jal	x6,80000550	  x6=0x80000550
        8615000	       860	00000000	00000013	addi	x0,x0,0	  x0:0x00000000
        8625000	       861	80000544	00000013	addi	x0,x0,0	  x0:0x00000000
        8635000	       862	80000548	ff1ff36f	jal	x6,80000548	  x6=0x80000548
        8645000	       863	00000000	00000013	addi	x0,x0,0	  x0:0x00000000
        8655000	       864	80000534	00000013	addi	x0,x0,0	  x0:0x00000000
        8665000	       865	80000538	01c000ef	jal	x1,80000538	  x1=0x80000538
        8675000	       866	00000000	00000013	addi	x0,x0,0	  x0:0x00000000
        8685000	       867	80000550	00000013	addi	x0,x0,0	  x0:0x00000000
        8695000	       868	80000554	ff9ff36f	jal	x6,80000554	  x6=0x80000554
        8705000	       869	00000000	00000013	addi	x0,x0,0	  x0:0x00000000
        8715000	       870	80000548	00000013	addi	x0,x0,0	  x0:0x00000000
        8725000	       871	8000054c	00c000ef	jal	x1,8000054c	  x1=0x8000054c
        8735000	       872	00000000	00000013	addi	x0,x0,0	  x0:0x00000000
        8745000	       873	80000554	00000013	addi	x0,x0,0	  x0:0x00000000
        8755000	       874	80000558	fedff0ef	jal	x1,80000558	  x1=0x80000558
        8765000	       875	00000000	00000013	addi	x0,x0,0	  x0:0x00000000
        8775000	       876	80000540	00000013	addi	x0,x0,0	  x0:0x00000000
        8785000	       877	80000544	ff9ff16f	jal	x2,80000544	  x2=0x80000544
        8795000	       878	00000000	00000013	addi	x0,x0,0	  x0:0x00000000
        8805000	       879	80000538	00000013	addi	x0,x0,0	  x0:0x00000000
        8815000	       880	8000053c	020000ef	jal	x1,8000053c	  x1=0x8000053c
        8825000	       881	00000000	00000013	addi	x0,x0,0	  x0:0x00000000
        8835000	       882	80000558	00000013	addi	x0,x0,0	  x0:0x00000000
        8845000	       883	8000055c	01d21eb3	sll	x29,x4,x29	  x4:0x800004c8 x29:0x00000263 x29=0x00002640
        8855000	       884	80000560	0180016f	jal	x2,80000560	  x2=0x80000560
        8865000	       885	00000000	00000013	addi	x0,x0,0	  x0:0x00000000
        8875000	       886	80000574	00000013	addi	x0,x0,0	  x0:0x00000000
        8885000	       887	80000578	00c0036f	jal	x6,80000578	  x6=0x80000578
        8895000	       888	00000000	00000013	addi	x0,x0,0	  x0:0x00000000
        8905000	       889	80000580	00000013	addi	x0,x0,0	  x0:0x00000000
        8915000	       890	80000584	fe9ff0ef	jal	x1,80000584	  x1=0x80000584
        8925000	       891	00000000	00000013	addi	x0,x0,0	  x0:0x00000000
        8935000	       892	80000568	00000013	addi	x0,x0,0	  x0:0x00000000
        8945000	       893	8000056c	ffdff26f	jal	x4,8000056c	  x4=0x8000056c
        8955000	       894	00000000	00000013	addi	x0,x0,0	  x0:0x00000000
        8965000	       895	80000564	00000013	addi	x0,x0,0	  x0:0x00000000
        8975000	       896	80000568	ffdff0ef	jal	x1,80000568	  x1=0x80000568
        8985000	       897	00000000	00000013	addi	x0,x0,0	  x0:0x00000000
        8995000	       898	80000560	00000013	addi	x0,x0,0	  x0:0x00000000
        9005000	       899	80000564	0100036f	jal	x6,80000564	  x6=0x80000564
        9015000	       900	00000000	00000013	addi	x0,x0,0	  x0:0x00000000
        9025000	       901	80000570	00000013	addi	x0,x0,0	  x0:0x00000000
        9035000	       902	80000574	008000ef	jal	x1,80000574	  x1=0x80000574
        9045000	       903	00000000	00000013	addi	x0,x0,0	  x0:0x00000000
        9055000	       904	80000578	00000013	addi	x0,x0,0	  x0:0x00000000
        9065000	       905	8000057c	ff5ff0ef	jal	x1,8000057c	  x1=0x8000057c
        9075000	       906	00000000	00000013	addi	x0,x0,0	  x0:0x00000000
        9085000	       907	8000056c	00000013	addi	x0,x0,0	  x0:0x00000000
        9095000	       908	80000570	018000ef	jal	x1,80000570	  x1=0x80000570
        9105000	       909	00000000	00000013	addi	x0,x0,0	  x0:0x00000000
        9115000	       910	80000584	00000013	addi	x0,x0,0	  x0:0x00000000
        9125000	       911	80000588	ff9ff36f	jal	x6,80000588	  x6=0x80000588
        9135000	       912	00000000	00000013	addi	x0,x0,0	  x0:0x00000000
        9145000	       913	8000057c	00000013	addi	x0,x0,0	  x0:0x00000000
        9155000	       914	80000580	00c000ef	jal	x1,80000580	  x1=0x80000580
        9165000	       915	00000000	00000013	addi	x0,x0,0	  x0:0x00000000
        9175000	       916	80000588	00000013	addi	x0,x0,0	  x0:0x00000000
        9185000	       917	8000058c	0000dc33	srl	x24,x1,x0	  x1:0x80000580  x0:0x00000000 x24=0x80000580
        9195000	       918	80000590	0380016f	jal	x2,80000590	  x2=0x80000590
        9205000	       919	00000000	00000013	addi	x0,x0,0	  x0:0x00000000
        9215000	       920	800005c4	00000013	addi	x0,x0,0	  x0:0x00000000
        9225000	       921	800005c8	fe1ff0ef	jal	x1,800005c8	  x1=0x800005c8
        9235000	       922	00000000	00000013	addi	x0,x0,0	  x0:0x00000000
        9245000	       923	800005a4	00000013	addi	x0,x0,0	  x0:0x00000000
        9255000	       924	800005a8	02c000ef	jal	x1,800005a8	  x1=0x800005a8
        9265000	       925	00000000	00000013	addi	x0,x0,0	  x0:0x00000000
        9275000	       926	800005d0	00000013	addi	x0,x0,0	  x0:0x00000000
        9285000	       927	800005d4	ffdff0ef	jal	x1,800005d4	  x1=0x800005d4
        9295000	       928	00000000	00000013	addi	x0,x0,0	  x0:0x00000000
        9305000	       929	800005cc	00000013	addi	x0,x0,0	  x0:0x00000000
        9315000	       930	800005d0	fe1ff0ef	jal	x1,800005d0	  x1=0x800005d0
        9325000	       931	00000000	00000013	addi	x0,x0,0	  x0:0x00000000
        9335000	       932	800005ac	00000013	addi	x0,x0,0	  x0:0x00000000
        9345000	       933	800005b0	00c0036f	jal	x6,800005b0	  x6=0x800005b0
        9355000	       934	00000000	00000013	addi	x0,x0,0	  x0:0x00000000
        9365000	       935	800005b8	00000013	addi	x0,x0,0	  x0:0x00000000
        9375000	       936	800005bc	ff9ff0ef	jal	x1,800005bc	  x1=0x800005bc
        9385000	       937	00000000	00000013	addi	x0,x0,0	  x0:0x00000000
        9395000	       938	800005b0	00000013	addi	x0,x0,0	  x0:0x00000000
        9405000	       939	800005b4	fedff36f	jal	x6,800005b4	  x6=0x800005b4
        9415000	       940	00000000	00000013	addi	x0,x0,0	  x0:0x00000000
        9425000	       941	8000059c	00000013	addi	x0,x0,0	  x0:0x00000000
        9435000	       942	800005a0	024000ef	jal	x1,800005a0	  x1=0x800005a0
        9445000	       943	00000000	00000013	addi	x0,x0,0	  x0:0x00000000
        9455000	       944	800005c0	00000013	addi	x0,x0,0	  x0:0x00000000
        9465000	       945	800005c4	fd1ffc6f	jal	x24,800005c4	 x24=0x800005c4
        9475000	       946	00000000	00000013	addi	x0,x0,0	  x0:0x00000000
        9485000	       947	80000590	00000013	addi	x0,x0,0	  x0:0x00000000
        9495000	       948	80000594	0240016f	jal	x2,80000594	  x2=0x80000594
        9505000	       949	00000000	00000013	addi	x0,x0,0	  x0:0x00000000
        9515000	       950	800005b4	00000013	addi	x0,x0,0	  x0:0x00000000
        9525000	       951	800005b8	014000ef	jal	x1,800005b8	  x1=0x800005b8
        9535000	       952	00000000	00000013	addi	x0,x0,0	  x0:0x00000000
        9545000	       953	800005c8	00000013	addi	x0,x0,0	  x0:0x00000000
        9555000	       954	800005cc	fd1ff0ef	jal	x1,800005cc	  x1=0x800005cc
        9565000	       955	00000000	00000013	addi	x0,x0,0	  x0:0x00000000
        9575000	       956	80000598	00000013	addi	x0,x0,0	  x0:0x00000000
        9585000	       957	8000059c	010000ef	jal	x1,8000059c	  x1=0x8000059c
        9595000	       958	00000000	00000013	addi	x0,x0,0	  x0:0x00000000
        9605000	       959	800005a8	00000013	addi	x0,x0,0	  x0:0x00000000
        9615000	       960	800005ac	ff9ff0ef	jal	x1,800005ac	  x1=0x800005ac
        9625000	       961	00000000	00000013	addi	x0,x0,0	  x0:0x00000000
        9635000	       962	800005a0	00000013	addi	x0,x0,0	  x0:0x00000000
        9645000	       963	800005a4	ff5ff0ef	jal	x1,800005a4	  x1=0x800005a4
        9655000	       964	00000000	00000013	addi	x0,x0,0	  x0:0x00000000
        9665000	       965	80000594	00000013	addi	x0,x0,0	  x0:0x00000000
        9675000	       966	80000598	028000ef	jal	x1,80000598	  x1=0x80000598
        9685000	       967	00000000	00000013	addi	x0,x0,0	  x0:0x00000000
        9695000	       968	800005bc	00000013	addi	x0,x0,0	  x0:0x00000000
        9705000	       969	800005c0	0180036f	jal	x6,800005c0	  x6=0x800005c0
        9715000	       970	00000000	00000013	addi	x0,x0,0	  x0:0x00000000
        9725000	       971	800005d4	00000013	addi	x0,x0,0	  x0:0x00000000
        9735000	       972	800005d8	01765133	srl	x2,x12,x23	 x12:0x800004d0 x23:0x8000027c  x2=0x00000008
        9745000	       973	800005dc	41add1b3	sra	x3,x27,x26	 x27:0x0658e28c x26:0xe8b31420  x3=0x0658e28c
        9755000	       974	800005e0	02d00c63	beq	x0,x13,80000618	  x0:0x00000000 x13:0x800003a4
        9765000	       975	800005e4	00df1c63	bne	x30,x13,800005fc	 x30:0x800004f0 x13:0x800003a4
        9775000	       976	00000000	00000013	addi	x0,x0,0	  x0:0x00000000
        9785000	       977	800005f8	00000013	addi	x0,x0,0	  x0:0x00000000
        9795000	       978	800005fc	012404b3	add	x9,x8,x18	  x8:0x800004e8 x18:0x80000464  x9=0x0000094c
        9805000	       979	80000600	9bb70913	addi	x18,x14,-1605	 x14:0x80000278 x18=0x7ffffc33
        9815000	       980	80000604	41340333	sub	x6,x8,x19	  x8:0x800004e8 x19:0x8000050c  x6=0xffffffdc
        9825000	       981	80000608	01481a63	bne	x16,x20,8000061c	 x16:0x80000470 x20:0x80000370
        9835000	       982	00000000	00000013	addi	x0,x0,0	  x0:0x00000000
        9845000	       983	80000618	00000013	addi	x0,x0,0	  x0:0x00000000
        9855000	       984	8000061c	018e1413	slli	x8,x28,0x18	 x28:0x00000000  x8=0x00000000
        9865000	       985	80000620	01b037b3	sltu	x15,x0,x27	  x0:0x00000000 x27:0x0658e28c x15=0x00000001
        9875000	       986	80000624	010bd433	srl	x8,x23,x16	 x23:0x8000027c x16:0x80000470  x8=0x00008000
        9885000	       987	80000628	00000013	addi	x0,x0,0	  x0:0x00000000
        9895000	       988	8000062c	008ce033	or	x0,x25,x8	 x25:0x00000000  x8:0x00008000
        9905000	       989	80000630	007897b3	sll	x15,x17,x7	 x17:0xf8000034  x7:0xd8e052fc x15=0x40000000
        9915000	       990	80000634	00d35db3	srl	x27,x6,x13	  x6:0xffffffdc x13:0x800003a4 x27=0x0ffffffd
        9925000	       991	80000638	00edb333	sltu	x6,x27,x14	 x27:0x0ffffffd x14:0x80000278  x6=0x00000001
        9935000	       992	8000063c	01398b33	add	x22,x19,x19	 x19:0x8000050c x19:0x8000050c x22=0x00000a18
        9945000	       993	80000640	de30b013	sltiu	x0,x1,-541	  x1:0x80000598
        9955000	       994	80000644	00a93433	sltu	x8,x18,x10	 x18:0x7ffffc33 x10:0x00025400  x8=0x00000000
        9965000	       995	80000648	00004717	auipc	x14,0x4	 x14=0x80004644
        9975000	       996	8000064c	88070713	addi	x14,x14,-1920	 x14:0x80004644 x14=0x80003ec4
        9985000	       997	80000650	e5f9be93	sltiu	x29,x19,-417	 x19:0x8000050c x29=0x00000001
        9995000	       998	80000654	f7d70713	addi	x14,x14,-131	 x14:0x80003ec4 x14=0x80003e41
       10005000	       999	80000658	41ee5a13	srai	x20,x28,0x1e	 x28:0x00000000 x20=0x00000000
       10015000	      1000	8000065c	00585663	bge	x16,x5,80000668	 x16:0x80000470  x5:0x80009fc4
       10025000	      1001	80000660	71d49b17	auipc	x22,0x71d49	 x22=0xf1d4965c
       10035000	      1002	80000664	0050c4b3	xor	x9,x1,x5	  x1:0x80000598  x5:0x80009fc4  x9=0x00009a5c
       10045000	      1003	80000668	08370167	jalr	x2,x14,131	 x14:0x80003e41  x2=0x80000668
       10055000	      1004	00000000	00000013	addi	x0,x0,0	  x0:0x00000000
       10065000	      1005	80003ec4	00000013	addi	x0,x0,0	  x0:0x00000000
       10075000	      1006	80003ec8	8d8717b7	lui	x15,0x8d871	 x15=0x8d871000
       10085000	      1007	80003ecc	0336e063	bltu	x13,x19,80003eec	 x13:0x800003a4 x19:0x8000050c
       10095000	      1008	00000000	00000013	addi	x0,x0,0	  x0:0x00000000
       10105000	      1009	80003ee8	00000013	addi	x0,x0,0	  x0:0x00000000
       10115000	      1010	80003eec	fe858593	addi	x11,x11,-24	 x11:0x80009f84 x11=0x80009f6c
       10125000	      1011	80003ef0	8c6d8913	addi	x18,x27,-1850	 x27:0x0ffffffd x18=0x0ffff8c3
       10135000	      1012	80003ef4	0025a223	sw	x2,4(x11)	 x11:0x80009f6c  x2:0x80000668 PA:0x80009f70
       10145000	      1013	80003ef8	01d65cb3	srl	x25,x12,x29	 x12:0x800004d0 x29:0x00000001 x25=0x40000268
       10155000	      1014	80003efc	7719cc93	xori	x25,x19,1905	 x19:0x8000050c x25=0x8000027d
       10165000	      1015	80003f00	c5f77417	auipc	x8,0xc5f77	  x8=0x45f7aefc
       10175000	      1016	80003f04	00988bb3	add	x23,x17,x9	 x17:0xf8000034  x9:0x00009a5c x23=0xf8009a90
       10185000	      1017	80003f08	00acf233	and	x4,x25,x10	 x25:0x8000027d x10:0x00025400  x4=0x00000000
       10195000	      1018	80003f0c	0133e663	bltu	x7,x19,80003f18	  x7:0xd8e052fc x19:0x8000050c
       10205000	      1019	80003f10	01ae1c93	slli	x25,x28,0x1a	 x28:0x00000000 x25=0x00000000
       10215000	      1020	80003f14	9aad7f93	andi	x31,x26,-1622	 x26:0xe8b31420 x31=0xe8b31020
       10225000	      1021	80003f18	9f8ff16f	jal	x2,80003f18	  x2=0x80003f18
       10235000	      1022	00000000	00000013	addi	x0,x0,0	  x0:0x00000000
       10245000	      1023	8000310c	00000013	addi	x0,x0,0	  x0:0x00000000
       10255000	      1024	80003110	013f43b3	xor	x7,x30,x19	 x30:0x800004f0 x19:0x8000050c  x7=0x000001fc
       10265000	      1025	80003114	016ab6b3	sltu	x13,x21,x22	 x21:0x00000000 x22:0xf1d4965c x13=0x00000001
       10275000	      1026	80003118	00e7c463	blt	x15,x14,80003120	 x15:0x8d871000 x14:0x80003e41
       10285000	      1027	8000311c	004f2433	slt	x8,x30,x4	 x30:0x800004f0  x4:0x00000000  x8=0x00000001
       10295000	      1028	80003120	fd458593	addi	x11,x11,-44	 x11:0x80009f6c x11=0x80009f40
       10305000	      1029	80003124	015c00b3	add	x1,x24,x21	 x24:0x800005c4 x21:0x00000000  x1=0x800005c4
       10315000	      1030	80003128	cb8a7213	andi	x4,x20,-840	 x20:0x00000000  x4=0x00000000
       10325000	      1031	8000312c	01abd013	srli	x0,x23,0x1a	 x23:0xf8009a90
       10335000	      1032	80003130	0025a223	sw	x2,4(x11)	 x11:0x80009f40  x2:0x80003f18 PA:0x80009f44
       10345000	      1033	80003134	009ed3b3	srl	x7,x29,x9	 x29:0x00000001  x9:0x00009a5c  x7=0x00000000
       10355000	      1034	80003138	06c0016f	jal	x2,80003138	  x2=0x80003138
       10365000	      1035	00000000	00000013	addi	x0,x0,0	  x0:0x00000000
       10375000	      1036	800031a0	00000013	addi	x0,x0,0	  x0:0x00000000
       10385000	      1037	800031a4	fd5ff0ef	jal	x1,800031a4	  x1=0x800031a4
       10395000	      1038	00000000	00000013	addi	x0,x0,0	  x0:0x00000000
       10405000	      1039	80003174	00000013	addi	x0,x0,0	  x0:0x00000000
       10415000	      1040	80003178	ff1ff0ef	jal	x1,80003178	  x1=0x80003178
       10425000	      1041	00000000	00000013	addi	x0,x0,0	  x0:0x00000000
       10435000	      1042	80003164	00000013	addi	x0,x0,0	  x0:0x00000000
       10445000	      1043	80003168	04000a6f	jal	x20,80003168	 x20=0x80003168
       10455000	      1044	00000000	00000013	addi	x0,x0,0	  x0:0x00000000
       10465000	      1045	800031a4	00000013	addi	x0,x0,0	  x0:0x00000000
       10475000	      1046	800031a8	fbdff36f	jal	x6,800031a8	  x6=0x800031a8
       10485000	      1047	00000000	00000013	addi	x0,x0,0	  x0:0x00000000
       10495000	      1048	80003160	00000013	addi	x0,x0,0	  x0:0x00000000
       10505000	      1049	80003164	ff5ff7ef	jal	x15,80003164	 x15=0x80003164
       10515000	      1050	00000000	00000013	addi	x0,x0,0	  x0:0x00000000
       10525000	      1051	80003154	00000013	addi	x0,x0,0	  x0:0x00000000
       10535000	      1052	80003158	fe9ff8ef	jal	x17,80003158	 x17=0x80003158
       10545000	      1053	00000000	00000013	addi	x0,x0,0	  x0:0x00000000
       10555000	      1054	8000313c	00000013	addi	x0,x0,0	  x0:0x00000000
       10565000	      1055	80003140	048000ef	jal	x1,80003140	  x1=0x80003140
       10575000	      1056	00000000	00000013	addi	x0,x0,0	  x0:0x00000000
       10585000	      1057	80003184	00000013	addi	x0,x0,0	  x0:0x00000000
       10595000	      1058	80003188	ffdff36f	jal	x6,80003188	  x6=0x80003188
       10605000	      1059	00000000	00000013	addi	x0,x0,0	  x0:0x00000000
       10615000	      1060	80003180	00000013	addi	x0,x0,0	  x0:0x00000000
       10625000	      1061	80003184	0180036f	jal	x6,80003184	  x6=0x80003184
       10635000	      1062	00000000	00000013	addi	x0,x0,0	  x0:0x00000000
       10645000	      1063	80003198	00000013	addi	x0,x0,0	  x0:0x00000000
       10655000	      1064	8000319c	ff5ff36f	jal	x6,8000319c	  x6=0x8000319c
       10665000	      1065	00000000	00000013	addi	x0,x0,0	  x0:0x00000000
       10675000	      1066	8000318c	00000013	addi	x0,x0,0	  x0:0x00000000
       10685000	      1067	80003190	fcdff0ef	jal	x1,80003190	  x1=0x80003190
       10695000	      1068	00000000	00000013	addi	x0,x0,0	  x0:0x00000000
       10705000	      1069	80003158	00000013	addi	x0,x0,0	  x0:0x00000000
       10715000	      1070	8000315c	05000def	jal	x27,8000315c	 x27=0x8000315c
       10725000	      1071	00000000	00000013	addi	x0,x0,0	  x0:0x00000000
       10735000	      1072	800031a8	00000013	addi	x0,x0,0	  x0:0x00000000
       10745000	      1073	800031ac	f9dff0ef	jal	x1,800031ac	  x1=0x800031ac
       10755000	      1074	00000000	00000013	addi	x0,x0,0	  x0:0x00000000
       10765000	      1075	80003144	00000013	addi	x0,x0,0	  x0:0x00000000
       10775000	      1076	80003148	028000ef	jal	x1,80003148	  x1=0x80003148
       10785000	      1077	00000000	00000013	addi	x0,x0,0	  x0:0x00000000
       10795000	      1078	8000316c	00000013	addi	x0,x0,0	  x0:0x00000000
       10805000	      1079	80003170	ffdff36f	jal	x6,80003170	  x6=0x80003170
       10815000	      1080	00000000	00000013	addi	x0,x0,0	  x0:0x00000000
       10825000	      1081	80003168	00000013	addi	x0,x0,0	  x0:0x00000000
       10835000	      1082	8000316c	008000ef	jal	x1,8000316c	  x1=0x8000316c
       10845000	      1083	00000000	00000013	addi	x0,x0,0	  x0:0x00000000
       10855000	      1084	80003170	00000013	addi	x0,x0,0	  x0:0x00000000
       10865000	      1085	80003174	008000ef	jal	x1,80003174	  x1=0x80003174
       10875000	      1086	00000000	00000013	addi	x0,x0,0	  x0:0x00000000
       10885000	      1087	80003178	00000013	addi	x0,x0,0	  x0:0x00000000
       10895000	      1088	8000317c	fe5ffb6f	jal	x22,8000317c	 x22=0x8000317c
       10905000	      1089	00000000	00000013	addi	x0,x0,0	  x0:0x00000000
       10915000	      1090	8000315c	00000013	addi	x0,x0,0	  x0:0x00000000
       10925000	      1091	80003160	038000ef	jal	x1,80003160	  x1=0x80003160
       10935000	      1092	00000000	00000013	addi	x0,x0,0	  x0:0x00000000
       10945000	      1093	80003194	00000013	addi	x0,x0,0	  x0:0x00000000
       10955000	      1094	80003198	ff5ff36f	jal	x6,80003198	  x6=0x80003198
       10965000	      1095	00000000	00000013	addi	x0,x0,0	  x0:0x00000000
       10975000	      1096	80003188	00000013	addi	x0,x0,0	  x0:0x00000000
       10985000	      1097	8000318c	0140036f	jal	x6,8000318c	  x6=0x8000318c
       10995000	      1098	00000000	00000013	addi	x0,x0,0	  x0:0x00000000
       11005000	      1099	8000319c	00000013	addi	x0,x0,0	  x0:0x00000000
       11015000	      1100	800031a0	ff5ff0ef	jal	x1,800031a0	  x1=0x800031a0
       11025000	      1101	00000000	00000013	addi	x0,x0,0	  x0:0x00000000
       11035000	      1102	80003190	00000013	addi	x0,x0,0	  x0:0x00000000
       11045000	      1103	80003194	fb1ff0ef	jal	x1,80003194	  x1=0x80003194
       11055000	      1104	00000000	00000013	addi	x0,x0,0	  x0:0x00000000
       11065000	      1105	80003140	00000013	addi	x0,x0,0	  x0:0x00000000
       11075000	      1106	80003144	010000ef	jal	x1,80003144	  x1=0x80003144
       11085000	      1107	00000000	00000013	addi	x0,x0,0	  x0:0x00000000
       11095000	      1108	80003150	00000013	addi	x0,x0,0	  x0:0x00000000
       11105000	      1109	80003154	02c000ef	jal	x1,80003154	  x1=0x80003154
       11115000	      1110	00000000	00000013	addi	x0,x0,0	  x0:0x00000000
       11125000	      1111	8000317c	00000013	addi	x0,x0,0	  x0:0x00000000
       11135000	      1112	80003180	fd1ff46f	jal	x8,80003180	  x8=0x80003180
       11145000	      1113	00000000	00000013	addi	x0,x0,0	  x0:0x00000000
       11155000	      1114	8000314c	00000013	addi	x0,x0,0	  x0:0x00000000
       11165000	      1115	80003150	ffdff0ef	jal	x1,80003150	  x1=0x80003150
       11175000	      1116	00000000	00000013	addi	x0,x0,0	  x0:0x00000000
       11185000	      1117	80003148	00000013	addi	x0,x0,0	  x0:0x00000000
       11195000	      1118	8000314c	ff1ff0ef	jal	x1,8000314c	  x1=0x8000314c
       11205000	      1119	00000000	00000013	addi	x0,x0,0	  x0:0x00000000
       11215000	      1120	80003138	00000013	addi	x0,x0,0	  x0:0x00000000
       11225000	      1121	8000313c	074000ef	jal	x1,8000313c	  x1=0x8000313c
       11235000	      1122	00000000	00000013	addi	x0,x0,0	  x0:0x00000000
       11245000	      1123	800031ac	00000013	addi	x0,x0,0	  x0:0x00000000
       11255000	      1124	800031b0	00459c93	slli	x25,x11,0x4	 x11:0x80009f40 x25=0x0009f400
       11265000	      1125	800031b4	0300016f	jal	x2,800031b4	  x2=0x800031b4
       11275000	      1126	00000000	00000013	addi	x0,x0,0	  x0:0x00000000
       11285000	      1127	800031e0	00000013	addi	x0,x0,0	  x0:0x00000000
       11295000	      1128	800031e4	008000ef	jal	x1,800031e4	  x1=0x800031e4
       11305000	      1129	00000000	00000013	addi	x0,x0,0	  x0:0x00000000
       11315000	      1130	800031e8	00000013	addi	x0,x0,0	  x0:0x00000000
       11325000	      1131	800031ec	ffdff36f	jal	x6,800031ec	  x6=0x800031ec
       11335000	      1132	00000000	00000013	addi	x0,x0,0	  x0:0x00000000
       11345000	      1133	800031e4	00000013	addi	x0,x0,0	  x0:0x00000000
       11355000	      1134	800031e8	fe1ff26f	jal	x4,800031e8	  x4=0x800031e8
       11365000	      1135	00000000	00000013	addi	x0,x0,0	  x0:0x00000000
       11375000	      1136	800031c4	00000013	addi	x0,x0,0	  x0:0x00000000
       11385000	      1137	800031c8	008009ef	jal	x19,800031c8	 x19=0x800031c8
       11395000	      1138	00000000	00000013	addi	x0,x0,0	  x0:0x00000000
       11405000	      1139	800031cc	00000013	addi	x0,x0,0	  x0:0x00000000
       11415000	      1140	800031d0	ff1ffbef	jal	x23,800031d0	 x23=0x800031d0
       11425000	      1141	00000000	00000013	addi	x0,x0,0	  x0:0x00000000
       11435000	      1142	800031bc	00000013	addi	x0,x0,0	  x0:0x00000000
       11445000	      1143	800031c0	04c000ef	jal	x1,800031c0	  x1=0x800031c0
       11455000	      1144	00000000	00000013	addi	x0,x0,0	  x0:0x00000000
       11465000	      1145	80003208	00000013	addi	x0,x0,0	  x0:0x00000000
       11475000	      1146	8000320c	ff5ff0ef	jal	x1,8000320c	  x1=0x8000320c
       11485000	      1147	00000000	00000013	addi	x0,x0,0	  x0:0x00000000
       11495000	      1148	800031fc	00000013	addi	x0,x0,0	  x0:0x00000000
       11505000	      1149	80003200	fb9ff0ef	jal	x1,80003200	  x1=0x80003200
       11515000	      1150	00000000	00000013	addi	x0,x0,0	  x0:0x00000000
       11525000	      1151	800031b4	00000013	addi	x0,x0,0	  x0:0x00000000
       11535000	      1152	800031b8	044000ef	jal	x1,800031b8	  x1=0x800031b8
       11545000	      1153	00000000	00000013	addi	x0,x0,0	  x0:0x00000000
       11555000	      1154	800031f8	00000013	addi	x0,x0,0	  x0:0x00000000
       11565000	      1155	800031fc	fc1ff26f	jal	x4,800031fc	  x4=0x800031fc
       11575000	      1156	00000000	00000013	addi	x0,x0,0	  x0:0x00000000
       11585000	      1157	800031b8	00000013	addi	x0,x0,0	  x0:0x00000000
       11595000	      1158	800031bc	010000ef	jal	x1,800031bc	  x1=0x800031bc
       11605000	      1159	00000000	00000013	addi	x0,x0,0	  x0:0x00000000
       11615000	      1160	800031c8	00000013	addi	x0,x0,0	  x0:0x00000000
       11625000	      1161	800031cc	024000ef	jal	x1,800031cc	  x1=0x800031cc
       11635000	      1162	00000000	00000013	addi	x0,x0,0	  x0:0x00000000
       11645000	      1163	800031ec	00000013	addi	x0,x0,0	  x0:0x00000000
       11655000	      1164	800031f0	0200036f	jal	x6,800031f0	  x6=0x800031f0
       11665000	      1165	00000000	00000013	addi	x0,x0,0	  x0:0x00000000
       11675000	      1166	8000320c	00000013	addi	x0,x0,0	  x0:0x00000000
       11685000	      1167	80003210	fc5ff46f	jal	x8,80003210	  x8=0x80003210
       11695000	      1168	00000000	00000013	addi	x0,x0,0	  x0:0x00000000
       11705000	      1169	800031d0	00000013	addi	x0,x0,0	  x0:0x00000000
       11715000	      1170	800031d4	034004ef	jal	x9,800031d4	  x9=0x800031d4
       11725000	      1171	00000000	00000013	addi	x0,x0,0	  x0:0x00000000
       11735000	      1172	80003204	00000013	addi	x0,x0,0	  x0:0x00000000
       11745000	      1173	80003208	01c0036f	jal	x6,80003208	  x6=0x80003208
       11755000	      1174	00000000	00000013	addi	x0,x0,0	  x0:0x00000000
       11765000	      1175	80003220	00000013	addi	x0,x0,0	  x0:0x00000000
       11775000	      1176	80003224	fd1ff0ef	jal	x1,80003224	  x1=0x80003224
       11785000	      1177	00000000	00000013	addi	x0,x0,0	  x0:0x00000000
       11795000	      1178	800031f0	00000013	addi	x0,x0,0	  x0:0x00000000
       11805000	      1179	800031f4	02c0026f	jal	x4,800031f4	  x4=0x800031f4
       11815000	      1180	00000000	00000013	addi	x0,x0,0	  x0:0x00000000
       11825000	      1181	8000321c	00000013	addi	x0,x0,0	  x0:0x00000000
       11835000	      1182	80003220	ff9ff36f	jal	x6,80003220	  x6=0x80003220
       11845000	      1183	00000000	00000013	addi	x0,x0,0	  x0:0x00000000
       11855000	      1184	80003214	00000013	addi	x0,x0,0	  x0:0x00000000
       11865000	      1185	80003218	ffdff36f	jal	x6,80003218	  x6=0x80003218
       11875000	      1186	00000000	00000013	addi	x0,x0,0	  x0:0x00000000
       11885000	      1187	80003210	00000013	addi	x0,x0,0	  x0:0x00000000
       11895000	      1188	80003214	ff1ff0ef	jal	x1,80003214	  x1=0x80003214
       11905000	      1189	00000000	00000013	addi	x0,x0,0	  x0:0x00000000
       11915000	      1190	80003200	00000013	addi	x0,x0,0	  x0:0x00000000
       11925000	      1191	80003204	024000ef	jal	x1,80003204	  x1=0x80003204
       11935000	      1192	00000000	00000013	addi	x0,x0,0	  x0:0x00000000
       11945000	      1193	80003224	00000013	addi	x0,x0,0	  x0:0x00000000
       11955000	      1194	80003228	fb9ff26f	jal	x4,80003228	  x4=0x80003228
       11965000	      1195	00000000	00000013	addi	x0,x0,0	  x0:0x00000000
       11975000	      1196	800031dc	00000013	addi	x0,x0,0	  x0:0x00000000
       11985000	      1197	800031e0	03c0026f	jal	x4,800031e0	  x4=0x800031e0
       11995000	      1198	00000000	00000013	addi	x0,x0,0	  x0:0x00000000
       12005000	      1199	80003218	00000013	addi	x0,x0,0	  x0:0x00000000
       12015000	      1200	8000321c	fbdff36f	jal	x6,8000321c	  x6=0x8000321c
       12025000	      1201	00000000	00000013	addi	x0,x0,0	  x0:0x00000000
       12035000	      1202	800031d4	00000013	addi	x0,x0,0	  x0:0x00000000
       12045000	      1203	800031d8	0040036f	jal	x6,800031d8	  x6=0x800031d8
       12055000	      1204	00000000	00000013	addi	x0,x0,0	  x0:0x00000000
       12065000	      1205	800031d8	00000013	addi	x0,x0,0	  x0:0x00000000
       12075000	      1206	800031dc	fe9ff36f	jal	x6,800031dc	  x6=0x800031dc
       12085000	      1207	00000000	00000013	addi	x0,x0,0	  x0:0x00000000
       12095000	      1208	800031c0	00000013	addi	x0,x0,0	  x0:0x00000000
       12105000	      1209	800031c4	0340026f	jal	x4,800031c4	  x4=0x800031c4
       12115000	      1210	00000000	00000013	addi	x0,x0,0	  x0:0x00000000
       12125000	      1211	800031f4	00000013	addi	x0,x0,0	  x0:0x00000000
       12135000	      1212	800031f8	0340026f	jal	x4,800031f8	  x4=0x800031f8
       12145000	      1213	00000000	00000013	addi	x0,x0,0	  x0:0x00000000
       12155000	      1214	80003228	00000013	addi	x0,x0,0	  x0:0x00000000
       12165000	      1215	8000322c	00331133	sll	x2,x6,x3	  x6:0x800031dc  x3:0x0658e28c  x2=0x031dc000
       12175000	      1216	80003230	02c0016f	jal	x2,80003230	  x2=0x80003230
       12185000	      1217	00000000	00000013	addi	x0,x0,0	  x0:0x00000000
       12195000	      1218	80003258	00000013	addi	x0,x0,0	  x0:0x00000000
       12205000	      1219	8000325c	fd9ff0ef	jal	x1,8000325c	  x1=0x8000325c
       12215000	      1220	00000000	00000013	addi	x0,x0,0	  x0:0x00000000
       12225000	      1221	80003230	00000013	addi	x0,x0,0	  x0:0x00000000
       12235000	      1222	80003234	024000ef	jal	x1,80003234	  x1=0x80003234
       12245000	      1223	00000000	00000013	addi	x0,x0,0	  x0:0x00000000
       12255000	      1224	80003254	00000013	addi	x0,x0,0	  x0:0x00000000
       12265000	      1225	80003258	fe1ff0ef	jal	x1,80003258	  x1=0x80003258
       12275000	      1226	00000000	00000013	addi	x0,x0,0	  x0:0x00000000
       12285000	      1227	80003234	00000013	addi	x0,x0,0	  x0:0x00000000
       12295000	      1228	80003238	0100036f	jal	x6,80003238	  x6=0x80003238
       12305000	      1229	00000000	00000013	addi	x0,x0,0	  x0:0x00000000
       12315000	      1230	80003244	00000013	addi	x0,x0,0	  x0:0x00000000
       12325000	      1231	80003248	ff9ff1ef	jal	x3,80003248	  x3=0x80003248
       12335000	      1232	00000000	00000013	addi	x0,x0,0	  x0:0x00000000
       12345000	      1233	8000323c	00000013	addi	x0,x0,0	  x0:0x00000000
       12355000	      1234	80003240	010000ef	jal	x1,80003240	  x1=0x80003240
       12365000	      1235	00000000	00000013	addi	x0,x0,0	  x0:0x00000000
       12375000	      1236	8000324c	00000013	addi	x0,x0,0	  x0:0x00000000
       12385000	      1237	80003250	ffdffc6f	jal	x24,80003250	 x24=0x80003250
       12395000	      1238	00000000	00000013	addi	x0,x0,0	  x0:0x00000000
       12405000	      1239	80003248	00000013	addi	x0,x0,0	  x0:0x00000000
       12415000	      1240	8000324c	014004ef	jal	x9,8000324c	  x9=0x8000324c
       12425000	      1241	00000000	00000013	addi	x0,x0,0	  x0:0x00000000
       12435000	      1242	8000325c	00000013	addi	x0,x0,0	  x0:0x00000000
       12445000	      1243	80003260	fddff0ef	jal	x1,80003260	  x1=0x80003260
       12455000	      1244	00000000	00000013	addi	x0,x0,0	  x0:0x00000000
       12465000	      1245	80003238	00000013	addi	x0,x0,0	  x0:0x00000000
       12475000	      1246	8000323c	008000ef	jal	x1,8000323c	  x1=0x8000323c
       12485000	      1247	00000000	00000013	addi	x0,x0,0	  x0:0x00000000
       12495000	      1248	80003240	00000013	addi	x0,x0,0	  x0:0x00000000
       12505000	      1249	80003244	010000ef	jal	x1,80003244	  x1=0x80003244
       12515000	      1250	00000000	00000013	addi	x0,x0,0	  x0:0x00000000
       12525000	      1251	80003250	00000013	addi	x0,x0,0	  x0:0x00000000
       12535000	      1252	80003254	0100036f	jal	x6,80003254	  x6=0x80003254
       12545000	      1253	00000000	00000013	addi	x0,x0,0	  x0:0x00000000
       12555000	      1254	80003260	00000013	addi	x0,x0,0	  x0:0x00000000
       12565000	      1255	80003264	a4142013	slti	x0,x8,-1471	  x8:0x80003210
       12575000	      1256	80003268	02c0016f	jal	x2,80003268	  x2=0x80003268
       12585000	      1257	00000000	00000013	addi	x0,x0,0	  x0:0x00000000
       12595000	      1258	80003290	00000013	addi	x0,x0,0	  x0:0x00000000
       12605000	      1259	80003294	fddff4ef	jal	x9,80003294	  x9=0x80003294
       12615000	      1260	00000000	00000013	addi	x0,x0,0	  x0:0x00000000
       12625000	      1261	8000326c	00000013	addi	x0,x0,0	  x0:0x00000000
       12635000	      1262	80003270	020000ef	jal	x1,80003270	  x1=0x80003270
       12645000	      1263	00000000	00000013	addi	x0,x0,0	  x0:0x00000000
       12655000	      1264	8000328c	00000013	addi	x0,x0,0	  x0:0x00000000
       12665000	      1265	80003290	fddff0ef	jal	x1,80003290	  x1=0x80003290
       12675000	      1266	00000000	00000013	addi	x0,x0,0	  x0:0x00000000
       12685000	      1267	80003268	00000013	addi	x0,x0,0	  x0:0x00000000
       12695000	      1268	8000326c	02c0046f	jal	x8,8000326c	  x8=0x8000326c
       12705000	      1269	00000000	00000013	addi	x0,x0,0	  x0:0x00000000
       12715000	      1270	80003294	00000013	addi	x0,x0,0	  x0:0x00000000
       12725000	      1271	80003298	004000ef	jal	x1,80003298	  x1=0x80003298
       12735000	      1272	00000000	00000013	addi	x0,x0,0	  x0:0x00000000
       12745000	      1273	80003298	00000013	addi	x0,x0,0	  x0:0x00000000
       12755000	      1274	8000329c	fddff6ef	jal	x13,8000329c	 x13=0x8000329c
       12765000	      1275	00000000	00000013	addi	x0,x0,0	  x0:0x00000000
       12775000	      1276	80003274	00000013	addi	x0,x0,0	  x0:0x00000000
       12785000	      1277	80003278	00c0036f	jal	x6,80003278	  x6=0x80003278
       12795000	      1278	00000000	00000013	addi	x0,x0,0	  x0:0x00000000
       12805000	      1279	80003280	00000013	addi	x0,x0,0	  x0:0x00000000
       12815000	      1280	80003284	ff9ff0ef	jal	x1,80003284	  x1=0x80003284
       12825000	      1281	00000000	00000013	addi	x0,x0,0	  x0:0x00000000
       12835000	      1282	80003278	00000013	addi	x0,x0,0	  x0:0x00000000
       12845000	      1283	8000327c	ff9ff0ef	jal	x1,8000327c	  x1=0x8000327c
       12855000	      1284	00000000	00000013	addi	x0,x0,0	  x0:0x00000000
       12865000	      1285	80003270	00000013	addi	x0,x0,0	  x0:0x00000000
       12875000	      1286	80003274	018006ef	jal	x13,80003274	 x13=0x80003274
       12885000	      1287	00000000	00000013	addi	x0,x0,0	  x0:0x00000000
       12895000	      1288	80003288	00000013	addi	x0,x0,0	  x0:0x00000000
       12905000	      1289	8000328c	ff5ff36f	jal	x6,8000328c	  x6=0x8000328c
       12915000	      1290	00000000	00000013	addi	x0,x0,0	  x0:0x00000000
       12925000	      1291	8000327c	00000013	addi	x0,x0,0	  x0:0x00000000
       12935000	      1292	80003280	008003ef	jal	x7,80003280	  x7=0x80003280
       12945000	      1293	00000000	00000013	addi	x0,x0,0	  x0:0x00000000
       12955000	      1294	80003284	00000013	addi	x0,x0,0	  x0:0x00000000
       12965000	      1295	80003288	018000ef	jal	x1,80003288	  x1=0x80003288
       12975000	      1296	00000000	00000013	addi	x0,x0,0	  x0:0x00000000
       12985000	      1297	8000329c	00000013	addi	x0,x0,0	  x0:0x00000000
       12995000	      1298	800032a0	006c9d33	sll	x26,x25,x6	 x25:0x0009f400  x6:0x8000328c x26=0x9f400000
       13005000	      1299	800032a4	02c0016f	jal	x2,800032a4	  x2=0x800032a4
       13015000	      1300	00000000	00000013	addi	x0,x0,0	  x0:0x00000000
       13025000	      1301	800032cc	00000013	addi	x0,x0,0	  x0:0x00000000
       13035000	      1302	800032d0	ff9ff0ef	jal	x1,800032d0	  x1=0x800032d0
       13045000	      1303	00000000	00000013	addi	x0,x0,0	  x0:0x00000000
       13055000	      1304	800032c4	00000013	addi	x0,x0,0	  x0:0x00000000
       13065000	      1305	800032c8	00c000ef	jal	x1,800032c8	  x1=0x800032c8
       13075000	      1306	00000000	00000013	addi	x0,x0,0	  x0:0x00000000
       13085000	      1307	800032d0	00000013	addi	x0,x0,0	  x0:0x00000000
       13095000	      1308	800032d4	fe5ff0ef	jal	x1,800032d4	  x1=0x800032d4
       13105000	      1309	00000000	00000013	addi	x0,x0,0	  x0:0x00000000
       13115000	      1310	800032b4	00000013	addi	x0,x0,0	  x0:0x00000000
       13125000	      1311	800032b8	024000ef	jal	x1,800032b8	  x1=0x800032b8
       13135000	      1312	00000000	00000013	addi	x0,x0,0	  x0:0x00000000
       13145000	      1313	800032d8	00000013	addi	x0,x0,0	  x0:0x00000000
       13155000	      1314	800032dc	fd9ff0ef	jal	x1,800032dc	  x1=0x800032dc
       13165000	      1315	00000000	00000013	addi	x0,x0,0	  x0:0x00000000
       13175000	      1316	800032b0	00000013	addi	x0,x0,0	  x0:0x00000000
       13185000	      1317	800032b4	00c000ef	jal	x1,800032b4	  x1=0x800032b4
       13195000	      1318	00000000	00000013	addi	x0,x0,0	  x0:0x00000000
       13205000	      1319	800032bc	00000013	addi	x0,x0,0	  x0:0x00000000
       13215000	      1320	800032c0	04400b6f	jal	x22,800032c0	 x22=0x800032c0
       13225000	      1321	00000000	00000013	addi	x0,x0,0	  x0:0x00000000
       13235000	      1322	80003300	00000013	addi	x0,x0,0	  x0:0x00000000
       13245000	      1323	80003304	ff1ffd6f	jal	x26,80003304	 x26=0x80003304
       13255000	      1324	00000000	00000013	addi	x0,x0,0	  x0:0x00000000
       13265000	      1325	800032f0	00000013	addi	x0,x0,0	  x0:0x00000000
       13275000	      1326	800032f4	fbdff36f	jal	x6,800032f4	  x6=0x800032f4
       13285000	      1327	00000000	00000013	addi	x0,x0,0	  x0:0x00000000
       13295000	      1328	800032ac	00000013	addi	x0,x0,0	  x0:0x00000000
       13305000	      1329	800032b0	ffdff0ef	jal	x1,800032b0	  x1=0x800032b0
       13315000	      1330	00000000	00000013	addi	x0,x0,0	  x0:0x00000000
       13325000	      1331	800032a8	00000013	addi	x0,x0,0	  x0:0x00000000
       13335000	      1332	800032ac	0440036f	jal	x6,800032ac	  x6=0x800032ac
       13345000	      1333	00000000	00000013	addi	x0,x0,0	  x0:0x00000000
       13355000	      1334	800032ec	00000013	addi	x0,x0,0	  x0:0x00000000
       13365000	      1335	800032f0	ff9ff36f	jal	x6,800032f0	  x6=0x800032f0
       13375000	      1336	00000000	00000013	addi	x0,x0,0	  x0:0x00000000
       13385000	      1337	800032e4	00000013	addi	x0,x0,0	  x0:0x00000000
       13395000	      1338	800032e8	ffdff36f	jal	x6,800032e8	  x6=0x800032e8
       13405000	      1339	00000000	00000013	addi	x0,x0,0	  x0:0x00000000
       13415000	      1340	800032e0	00000013	addi	x0,x0,0	  x0:0x00000000
       13425000	      1341	800032e4	fd9ff0ef	jal	x1,800032e4	  x1=0x800032e4
       13435000	      1342	00000000	00000013	addi	x0,x0,0	  x0:0x00000000
       13445000	      1343	800032b8	00000013	addi	x0,x0,0	  x0:0x00000000
       13455000	      1344	800032bc	008000ef	jal	x1,800032bc	  x1=0x800032bc
       13465000	      1345	00000000	00000013	addi	x0,x0,0	  x0:0x00000000
       13475000	      1346	800032c0	00000013	addi	x0,x0,0	  x0:0x00000000
       13485000	      1347	800032c4	028000ef	jal	x1,800032c4	  x1=0x800032c4
       13495000	      1348	00000000	00000013	addi	x0,x0,0	  x0:0x00000000
       13505000	      1349	800032e8	00000013	addi	x0,x0,0	  x0:0x00000000
       13515000	      1350	800032ec	00c0086f	jal	x16,800032ec	 x16=0x800032ec
       13525000	      1351	00000000	00000013	addi	x0,x0,0	  x0:0x00000000
       13535000	      1352	800032f4	00000013	addi	x0,x0,0	  x0:0x00000000
       13545000	      1353	800032f8	fb1ff0ef	jal	x1,800032f8	  x1=0x800032f8
       13555000	      1354	00000000	00000013	addi	x0,x0,0	  x0:0x00000000
       13565000	      1355	800032a4	00000013	addi	x0,x0,0	  x0:0x00000000
       13575000	      1356	800032a8	024000ef	jal	x1,800032a8	  x1=0x800032a8
       13585000	      1357	00000000	00000013	addi	x0,x0,0	  x0:0x00000000
       13595000	      1358	800032c8	00000013	addi	x0,x0,0	  x0:0x00000000
       13605000	      1359	800032cc	014003ef	jal	x7,800032cc	  x7=0x800032cc
       13615000	      1360	00000000	00000013	addi	x0,x0,0	  x0:0x00000000
       13625000	      1361	800032dc	00000013	addi	x0,x0,0	  x0:0x00000000
       13635000	      1362	800032e0	020000ef	jal	x1,800032e0	  x1=0x800032e0
       13645000	      1363	00000000	00000013	addi	x0,x0,0	  x0:0x00000000
       13655000	      1364	800032fc	00000013	addi	x0,x0,0	  x0:0x00000000
       13665000	      1365	80003300	fd9ff0ef	jal	x1,80003300	  x1=0x80003300
       13675000	      1366	00000000	00000013	addi	x0,x0,0	  x0:0x00000000
       13685000	      1367	800032d4	00000013	addi	x0,x0,0	  x0:0x00000000
       13695000	      1368	800032d8	0240016f	jal	x2,800032d8	  x2=0x800032d8
       13705000	      1369	00000000	00000013	addi	x0,x0,0	  x0:0x00000000
       13715000	      1370	800032f8	00000013	addi	x0,x0,0	  x0:0x00000000
       13725000	      1371	800032fc	00c000ef	jal	x1,800032fc	  x1=0x800032fc
       13735000	      1372	00000000	00000013	addi	x0,x0,0	  x0:0x00000000
       13745000	      1373	80003304	00000013	addi	x0,x0,0	  x0:0x00000000
       13755000	      1374	80003308	e7b36313	ori	x6,x6,-389	  x6:0x800032e8  x6=0xfffffefb
       13765000	      1375	8000330c	0280016f	jal	x2,8000330c	  x2=0x8000330c
       13775000	      1376	00000000	00000013	addi	x0,x0,0	  x0:0x00000000
       13785000	      1377	80003330	00000013	addi	x0,x0,0	  x0:0x00000000
       13795000	      1378	80003334	fe9ff26f	jal	x4,80003334	  x4=0x80003334
       13805000	      1379	00000000	00000013	addi	x0,x0,0	  x0:0x00000000
       13815000	      1380	80003318	00000013	addi	x0,x0,0	  x0:0x00000000
       13825000	      1381	8000331c	01c000ef	jal	x1,8000331c	  x1=0x8000331c
       13835000	      1382	00000000	00000013	addi	x0,x0,0	  x0:0x00000000
       13845000	      1383	80003334	00000013	addi	x0,x0,0	  x0:0x00000000
       13855000	      1384	80003338	fddff36f	jal	x6,80003338	  x6=0x80003338
       13865000	      1385	00000000	00000013	addi	x0,x0,0	  x0:0x00000000
       13875000	      1386	80003310	00000013	addi	x0,x0,0	  x0:0x00000000
       13885000	      1387	80003314	05000f6f	jal	x30,80003314	 x30=0x80003314
       13895000	      1388	00000000	00000013	addi	x0,x0,0	  x0:0x00000000
       13905000	      1389	80003360	00000013	addi	x0,x0,0	  x0:0x00000000
       13915000	      1390	80003364	fb5ff36f	jal	x6,80003364	  x6=0x80003364
       13925000	      1391	00000000	00000013	addi	x0,x0,0	  x0:0x00000000
       13935000	      1392	80003314	00000013	addi	x0,x0,0	  x0:0x00000000
       13945000	      1393	80003318	018000ef	jal	x1,80003318	  x1=0x80003318
       13955000	      1394	00000000	00000013	addi	x0,x0,0	  x0:0x00000000
       13965000	      1395	8000332c	00000013	addi	x0,x0,0	  x0:0x00000000
       13975000	      1396	80003330	020000ef	jal	x1,80003330	  x1=0x80003330
       13985000	      1397	00000000	00000013	addi	x0,x0,0	  x0:0x00000000
       13995000	      1398	8000334c	00000013	addi	x0,x0,0	  x0:0x00000000
       14005000	      1399	80003350	ffdff0ef	jal	x1,80003350	  x1=0x80003350
       14015000	      1400	00000000	00000013	addi	x0,x0,0	  x0:0x00000000
       14025000	      1401	80003348	00000013	addi	x0,x0,0	  x0:0x00000000
       14035000	      1402	8000334c	ff9ff3ef	jal	x7,8000334c	  x7=0x8000334c
       14045000	      1403	00000000	00000013	addi	x0,x0,0	  x0:0x00000000
       14055000	      1404	80003340	00000013	addi	x0,x0,0	  x0:0x00000000
       14065000	      1405	80003344	fe9ff0ef	jal	x1,80003344	  x1=0x80003344
       14075000	      1406	00000000	00000013	addi	x0,x0,0	  x0:0x00000000
       14085000	      1407	80003328	00000013	addi	x0,x0,0	  x0:0x00000000
       14095000	      1408	8000332c	02800a6f	jal	x20,8000332c	 x20=0x8000332c
       14105000	      1409	00000000	00000013	addi	x0,x0,0	  x0:0x00000000
       14115000	      1410	80003350	00000013	addi	x0,x0,0	  x0:0x00000000
       14125000	      1411	80003354	fedff1ef	jal	x3,80003354	  x3=0x80003354
       14135000	      1412	00000000	00000013	addi	x0,x0,0	  x0:0x00000000
       14145000	      1413	8000333c	00000013	addi	x0,x0,0	  x0:0x00000000
       14155000	      1414	80003340	fe5ff0ef	jal	x1,80003340	  x1=0x80003340
       14165000	      1415	00000000	00000013	addi	x0,x0,0	  x0:0x00000000
       14175000	      1416	80003320	00000013	addi	x0,x0,0	  x0:0x00000000
       14185000	      1417	80003324	fedff0ef	jal	x1,80003324	  x1=0x80003324
       14195000	      1418	00000000	00000013	addi	x0,x0,0	  x0:0x00000000
       14205000	      1419	8000330c	00000013	addi	x0,x0,0	  x0:0x00000000
       14215000	      1420	80003310	048000ef	jal	x1,80003310	  x1=0x80003310
       14225000	      1421	00000000	00000013	addi	x0,x0,0	  x0:0x00000000
       14235000	      1422	80003354	00000013	addi	x0,x0,0	  x0:0x00000000
       14245000	      1423	80003358	ff1ff0ef	jal	x1,80003358	  x1=0x80003358
       14255000	      1424	00000000	00000013	addi	x0,x0,0	  x0:0x00000000
       14265000	      1425	80003344	00000013	addi	x0,x0,0	  x0:0x00000000
       14275000	      1426	80003348	ff5ff0ef	jal	x1,80003348	  x1=0x80003348
       14285000	      1427	00000000	00000013	addi	x0,x0,0	  x0:0x00000000
       14295000	      1428	80003338	00000013	addi	x0,x0,0	  x0:0x00000000
       14305000	      1429	8000333c	02c000ef	jal	x1,8000333c	  x1=0x8000333c
       14315000	      1430	00000000	00000013	addi	x0,x0,0	  x0:0x00000000
       14325000	      1431	80003364	00000013	addi	x0,x0,0	  x0:0x00000000
       14335000	      1432	80003368	ff9fffef	jal	x31,80003368	 x31=0x80003368
       14345000	      1433	00000000	00000013	addi	x0,x0,0	  x0:0x00000000
       14355000	      1434	8000335c	00000013	addi	x0,x0,0	  x0:0x00000000
       14365000	      1435	80003360	fc9ff36f	jal	x6,80003360	  x6=0x80003360
       14375000	      1436	00000000	00000013	addi	x0,x0,0	  x0:0x00000000
       14385000	      1437	80003324	00000013	addi	x0,x0,0	  x0:0x00000000
       14395000	      1438	80003328	ff9ffd6f	jal	x26,80003328	 x26=0x80003328
       14405000	      1439	00000000	00000013	addi	x0,x0,0	  x0:0x00000000
       14415000	      1440	8000331c	00000013	addi	x0,x0,0	  x0:0x00000000
       14425000	      1441	80003320	03c000ef	jal	x1,80003320	  x1=0x80003320
       14435000	      1442	00000000	00000013	addi	x0,x0,0	  x0:0x00000000
       14445000	      1443	80003358	00000013	addi	x0,x0,0	  x0:0x00000000
       14455000	      1444	8000335c	010000ef	jal	x1,8000335c	  x1=0x8000335c
       14465000	      1445	00000000	00000013	addi	x0,x0,0	  x0:0x00000000
       14475000	      1446	80003368	00000013	addi	x0,x0,0	  x0:0x00000000
       14485000	      1447	8000336c	00000013	addi	x0,x0,0	  x0:0x00000000
       14495000	      1448	80003370	000b4533	xor	x10,x22,x0	 x22:0x800032c0  x0:0x00000000 x10=0x800032c0
       14505000	      1449	80003374	01c99f33	sll	x30,x19,x28	 x19:0x800031c8 x28:0x00000000 x30=0x800031c8
       14515000	      1450	80003378	d6446c93	ori	x25,x8,-668	  x8:0x8000326c x25=0xffffff6c
       14525000	      1451	8000337c	523b3637	lui	x12,0x523b3	 x12=0x523b3000
       14535000	      1452	80003380	01119033	sll	x0,x3,x17	  x3:0x80003354 x17:0x80003158
       14545000	      1453	80003384	019e6e63	bltu	x28,x25,800033a0	 x28:0x00000000 x25:0xffffff6c
       14555000	      1454	00000000	00000013	addi	x0,x0,0	  x0:0x00000000
       14565000	      1455	8000339c	00000013	addi	x0,x0,0	  x0:0x00000000
       14575000	      1456	800033a0	00eafc63	bgeu	x21,x14,800033b8	 x21:0x00000000 x14:0x80003e41
       14585000	      1457	800033a4	01f65793	srli	x15,x12,0x1f	 x12:0x523b3000 x15=0x00000000
       14595000	      1458	800033a8	01a1bdb3	sltu	x27,x3,x26	  x3:0x80003354 x26:0x80003328 x27=0x00000000
       14605000	      1459	800033ac	4049dd33	sra	x26,x19,x4	 x19:0x800031c8  x4:0x80003334 x26=0xfffff800
       14615000	      1460	800033b0	0092e8b3	or	x17,x5,x9	  x5:0x80009fc4  x9:0x80003294 x17=0x8000bfd4
       14625000	      1461	800033b4	012c17b3	sll	x15,x24,x18	 x24:0x80003250 x18:0x0ffff8c3 x15=0x00019280
       14635000	      1462	800033b8	0ccff063	bgeu	x31,x12,80003478	 x31:0x80003368 x12:0x523b3000
       14645000	      1463	00000000	00000013	addi	x0,x0,0	  x0:0x00000000
       14655000	      1464	80003474	00000013	addi	x0,x0,0	  x0:0x00000000
       14665000	      1465	80003478	01ecd613	srli	x12,x25,0x1e	 x25:0xffffff6c x12=0x00000003
       14675000	      1466	8000347c	18903193	sltiu	x3,x0,393	  x0:0x00000000  x3=0x00000001
       14685000	      1467	80003480	01021693	slli	x13,x4,0x10	  x4:0x80003334 x13=0x33340000
       14695000	      1468	80003484	40235213	srai	x4,x6,0x2	  x6:0x80003360  x4=0xe0000cd8
       14705000	      1469	80003488	3c8aff13	andi	x30,x21,968	 x21:0x00000000 x30=0x00000000
       14715000	      1470	8000348c	01475813	srli	x16,x14,0x14	 x14:0x80003e41 x16=0x00000800
       14725000	      1471	80003490	00213633	sltu	x12,x2,x2	  x2:0x8000330c  x2:0x8000330c x12=0x00000000
       14735000	      1472	80003494	aaee7737	lui	x14,0xaaee7	 x14=0xaaee7000
       14745000	      1473	80003498	01316463	bltu	x2,x19,800034a0	  x2:0x8000330c x19:0x800031c8
       14755000	      1474	8000349c	00de5f33	srl	x30,x28,x13	 x28:0x00000000 x13:0x33340000 x30=0x00000000
       14765000	      1475	800034a0	51a7ff93	andi	x31,x15,1306	 x15:0x00019280 x31=0x00000000
       14775000	      1476	800034a4	0179ac33	slt	x24,x19,x23	 x19:0x800031c8 x23:0x800031d0 x24=0x00000001
       14785000	      1477	800034a8	02119a63	bne	x3,x1,800034dc	  x3:0x00000001  x1:0x8000335c
       14795000	      1478	00000000	00000013	addi	x0,x0,0	  x0:0x00000000
       14805000	      1479	800034d8	00000013	addi	x0,x0,0	  x0:0x00000000
       14815000	      1480	800034dc	01536233	or	x4,x6,x21	  x6:0x80003360 x21:0x00000000  x4=0x80003360
       14825000	      1481	800034e0	01d4f9b3	and	x19,x9,x29	  x9:0x80003294 x29:0x00000001 x19=0x00000000
       14835000	      1482	800034e4	bf17b813	sltiu	x16,x15,-1039	 x15:0x00019280 x16=0x00000001
       14845000	      1483	800034e8	073da893	slti	x17,x27,115	 x27:0x00000000 x17=0x00000001
       14855000	      1484	800034ec	3332b093	sltiu	x1,x5,819	  x5:0x80009fc4  x1=0x00000000
       14865000	      1485	800034f0	419adbb3	sra	x23,x21,x25	 x21:0x00000000 x25:0xffffff6c x23=0x00000000
       14875000	      1486	800034f4	00d1d033	srl	x0,x3,x13	  x3:0x00000001 x13:0x33340000
       14885000	      1487	800034f8	a787ca17	auipc	x20,0xa787c	 x20=0x2787f4f4
       14895000	      1488	800034fc	005cdb13	srli	x22,x25,0x5	 x25:0xffffff6c x22=0x07fffffb
       14905000	      1489	80003500	00cbffb3	and	x31,x23,x12	 x23:0x00000000 x12:0x00000000 x31=0x00000000
       14915000	      1490	80003504	edbe6993	ori	x19,x28,-293	 x28:0x00000000 x19=0xfffffedb
       14925000	      1491	80003508	00d5bdb3	sltu	x27,x11,x13	 x11:0x80009f40 x13:0x33340000 x27=0x00000000
       14935000	      1492	8000350c	01af6863	bltu	x30,x26,8000351c	 x30:0x00000000 x26:0xfffff800
       14945000	      1493	00000000	00000013	addi	x0,x0,0	  x0:0x00000000
       14955000	      1494	80003518	00000013	addi	x0,x0,0	  x0:0x00000000
       14965000	      1495	8000351c	413cd193	srai	x3,x25,0x13	 x25:0xffffff6c  x3=0xffffffff
       14975000	      1496	80003520	95612b93	slti	x23,x2,-1706	  x2:0x8000330c x23=0x00000001
       14985000	      1497	80003524	4a714313	xori	x6,x2,1191	  x2:0x8000330c  x6=0x800037ab
       14995000	      1498	80003528	019afe63	bgeu	x21,x25,80003544	 x21:0x00000000 x25:0xffffff6c
       15005000	      1499	8000352c	bb814e97	auipc	x29,0xbb814	 x29=0x3b817528
       15015000	      1500	80003530	01a46ab3	or	x21,x8,x26	  x8:0x8000326c x26:0xfffff800 x21=0xfffffa6c
       15025000	      1501	80003534	00ff9a63	bne	x31,x15,80003548	 x31:0x00000000 x15:0x00019280
       15035000	      1502	00000000	00000013	addi	x0,x0,0	  x0:0x00000000
       15045000	      1503	80003544	00000013	addi	x0,x0,0	  x0:0x00000000
       15055000	      1504	80003548	00000013	addi	x0,x0,0	  x0:0x00000000
       15065000	      1505	8000354c	1f04fd17	auipc	x26,0x1f04f	 x26=0x9f052548
       15075000	      1506	80003550	017cb533	sltu	x10,x25,x23	 x25:0xffffff6c x23:0x00000001 x10=0x00000000
       15085000	      1507	80003554	0acff917	auipc	x18,0xacff	 x18=0x8ad02550
       15095000	      1508	80003558	00000013	addi	x0,x0,0	  x0:0x00000000
       15105000	      1509	8000355c	02481e63	bne	x16,x4,80003598	 x16:0x00000001  x4:0x80003360
       15115000	      1510	00000000	00000013	addi	x0,x0,0	  x0:0x00000000
       15125000	      1511	80003594	00000013	addi	x0,x0,0	  x0:0x00000000
       15135000	      1512	80003598	00c4b433	sltu	x8,x9,x12	  x9:0x80003294 x12:0x00000000  x8=0x00000000
       15145000	      1513	8000359c	0402c463	blt	x5,x0,800035e4	  x5:0x80009fc4  x0:0x00000000
       15155000	      1514	00000000	00000013	addi	x0,x0,0	  x0:0x00000000
       15165000	      1515	800035e0	00000013	addi	x0,x0,0	  x0:0x00000000
       15175000	      1516	800035e4	00f97233	and	x4,x18,x15	 x18:0x8ad02550 x15:0x00019280  x4=0x00000000
       15185000	      1517	800035e8	0124d833	srl	x16,x9,x18	  x9:0x80003294 x18:0x8ad02550 x16=0x00008000
       15195000	      1518	800035ec	0133d193	srli	x3,x7,0x13	  x7:0x8000334c  x3=0x00001000
       15205000	      1519	800035f0	03804a63	blt	x0,x24,80003624	  x0:0x00000000 x24:0x00000001
       15215000	      1520	00000000	00000013	addi	x0,x0,0	  x0:0x00000000
       15225000	      1521	80003620	00000013	addi	x0,x0,0	  x0:0x00000000
       15235000	      1522	80003624	012fa9b3	slt	x19,x31,x18	 x31:0x00000000 x18:0x8ad02550 x19=0x00000000
       15245000	      1523	80003628	1bb8b893	sltiu	x17,x17,443	 x17:0x00000001 x17=0x00000001
       15255000	      1524	8000362c	00fa5933	srl	x18,x20,x15	 x20:0x2787f4f4 x15:0x00019280 x18=0x2787f4f4
       15265000	      1525	80003630	5f862697	auipc	x13,0x5f862	 x13=0xdf86562c
       15275000	      1526	80003634	40a05b13	srai	x22,x0,0xa	  x0:0x00000000 x22=0x00000000
       15285000	      1527	80003638	0144dd93	srli	x27,x9,0x14	  x9:0x80003294 x27=0x00000800
       15295000	      1528	8000363c	010d79b3	and	x19,x26,x16	 x26:0x9f052548 x16:0x00008000 x19=0x00000000
       15305000	      1529	80003640	0070b1b3	sltu	x3,x1,x7	  x1:0x00000000  x7:0x8000334c  x3=0x00000001
       15315000	      1530	80003644	001ed113	srli	x2,x29,0x1	 x29:0x3b817528  x2=0x1dc0ba94
       15325000	      1531	80003648	40f8d0b3	sra	x1,x17,x15	 x17:0x00000001 x15:0x00019280  x1=0x00000001
       15335000	      1532	8000364c	fffffc97	auipc	x25,0xfffff	 x25=0x80002648
       15345000	      1533	80003650	0fcc8c93	addi	x25,x25,252	 x25:0x80002648 x25=0x80002744
       15355000	      1534	80003654	004e1b33	sll	x22,x28,x4	 x28:0x00000000  x4:0x00000000 x22=0x00000000
       15365000	      1535	80003658	dad0e313	ori	x6,x1,-595	  x1:0x00000001  x6=0xfffffdad
       15375000	      1536	8000365c	00da43b3	xor	x7,x20,x13	 x20:0x2787f4f4 x13:0xdf86562c  x7=0xf801a2d8
       15385000	      1537	80003660	00b25193	srli	x3,x4,0xb	  x4:0x00000000  x3=0x00000000
       15395000	      1538	80003664	31ec8c93	addi	x25,x25,798	 x25:0x80002744 x25=0x80002a62
       15405000	      1539	80003668	ebf7da17	auipc	x20,0xebf7d	 x20=0x6bf80664
       15415000	      1540	8000366c	00db6863	bltu	x22,x13,8000367c	 x22:0x00000000 x13:0xdf86562c
       15425000	      1541	00000000	00000013	addi	x0,x0,0	  x0:0x00000000
       15435000	      1542	80003678	00000013	addi	x0,x0,0	  x0:0x00000000
       15445000	      1543	8000367c	ce2c8167	jalr	x2,x25,-798	 x25:0x80002a62  x2=0x8000367c
       15455000	      1544	00000000	00000013	addi	x0,x0,0	  x0:0x00000000
       15465000	      1545	80002744	00000013	addi	x0,x0,0	  x0:0x00000000
       15475000	      1546	80002748	fd458593	addi	x11,x11,-44	 x11:0x80009f40 x11=0x80009f14
       15485000	      1547	8000274c	f673f837	lui	x16,0xf673f	 x16=0xf673f000
       15495000	      1548	80002750	0025a223	sw	x2,4(x11)	 x11:0x80009f14  x2:0x8000367c PA:0x80009f18
       15505000	      1549	80002754	01df69b3	or	x19,x30,x29	 x30:0x00000000 x29:0x3b817528 x19=0x3b817528
       15515000	      1550	80002758	fe8e3e93	sltiu	x29,x28,-24	 x28:0x00000000 x29=0x00000001
       15525000	      1551	8000275c	530f5f17	auipc	x30,0x530f5	 x30=0xd30f7758
       15535000	      1552	80002760	5b13be93	sltiu	x29,x7,1457	  x7:0xf801a2d8 x29=0x00000000
       15545000	      1553	80002764	00c119b3	sll	x19,x2,x12	  x2:0x8000367c x12:0x00000000 x19=0x8000367c
       15555000	      1554	80002768	00d59533	sll	x10,x11,x13	 x11:0x80009f14 x13:0xdf86562c x10=0x09f14000
       15565000	      1555	8000276c	0112a9b3	slt	x19,x5,x17	  x5:0x80009fc4 x17:0x00000001 x19=0x00000001
       15575000	      1556	80002770	fffff097	auipc	x1,0xfffff	  x1=0x8000176c
       15585000	      1557	80002774	5d008093	addi	x1,x1,1488	  x1:0x8000176c  x1=0x80001d3c
       15595000	      1558	80002778	868b3a93	sltiu	x21,x22,-1944	 x22:0x00000000 x21=0x00000001
       15605000	      1559	8000277c	01c1bdb3	sltu	x27,x3,x28	  x3:0x00000000 x28:0x00000000 x27=0x00000000
       15615000	      1560	80002780	2750ca93	xori	x21,x1,629	  x1:0x80001d3c x21=0x80001f49
       15625000	      1561	80002784	40037c93	andi	x25,x6,1024	  x6:0xfffffdad x25=0x00000400
       15635000	      1562	80002788	30008093	addi	x1,x1,768	  x1:0x80001d3c  x1=0x8000203c
       15645000	      1563	8000278c	419cdfb3	sra	x31,x25,x25	 x25:0x00000400 x25:0x00000400 x31=0x00000400
       15655000	      1564	80002790	01a70463	beq	x14,x26,80002798	 x14:0xaaee7000 x26:0x9f052548
       15665000	      1565	80002794	40f68fb3	sub	x31,x13,x15	 x13:0xdf86562c x15:0x00019280 x31=0xdf84c3ac
       15675000	      1566	80002798	d0108167	jalr	x2,x1,-767	  x1:0x8000203c  x2=0x80002798
       15685000	      1567	00000000	00000013	addi	x0,x0,0	  x0:0x00000000
       15695000	      1568	80001d3c	00000013	addi	x0,x0,0	  x0:0x00000000
       15705000	      1569	80001d40	21786f17	auipc	x30,0x21786	 x30=0xa1787d3c
       15715000	      1570	80001d44	00415c33	srl	x24,x2,x4	  x2:0x80002798  x4:0x00000000 x24=0x80002798
       15725000	      1571	80001d48	fe484a13	xori	x20,x16,-28	 x16:0xf673f000 x20=0x098c0fe4
       15735000	      1572	80001d4c	c01cfc13	andi	x24,x25,-1023	 x25:0x00000400 x24=0x00000400
       15745000	      1573	80001d50	41855693	srai	x13,x10,0x18	 x10:0x09f14000 x13=0x00000009
       15755000	      1574	80001d54	0174dd13	srli	x26,x9,0x17	  x9:0x80003294 x26=0x00000100
       15765000	      1575	80001d58	dc054b93	xori	x23,x10,-576	 x10:0x09f14000 x23=0xf60ebdc0
       15775000	      1576	80001d5c	405e56b3	sra	x13,x28,x5	 x28:0x00000000  x5:0x80009fc4 x13=0x00000000
       15785000	      1577	80001d60	fc058593	addi	x11,x11,-64	 x11:0x80009f14 x11=0x80009ed4
       15795000	      1578	80001d64	0025a223	sw	x2,4(x11)	 x11:0x80009ed4  x2:0x80002798 PA:0x80009ed8
       15805000	      1579	80001d68	417dd833	sra	x16,x27,x23	 x27:0x00000000 x23:0xf60ebdc0 x16=0x00000000
       15815000	      1580	80001d6c	0340016f	jal	x2,80001d6c	  x2=0x80001d6c
       15825000	      1581	00000000	00000013	addi	x0,x0,0	  x0:0x00000000
       15835000	      1582	80001d9c	00000013	addi	x0,x0,0	  x0:0x00000000
       15845000	      1583	80001da0	fd1ff0ef	jal	x1,80001da0	  x1=0x80001da0
       15855000	      1584	00000000	00000013	addi	x0,x0,0	  x0:0x00000000
       15865000	      1585	80001d6c	00000013	addi	x0,x0,0	  x0:0x00000000
       15875000	      1586	80001d70	040000ef	jal	x1,80001d70	  x1=0x80001d70
       15885000	      1587	00000000	00000013	addi	x0,x0,0	  x0:0x00000000
       15895000	      1588	80001dac	00000013	addi	x0,x0,0	  x0:0x00000000
       15905000	      1589	80001db0	fd1ff0ef	jal	x1,80001db0	  x1=0x80001db0
       15915000	      1590	00000000	00000013	addi	x0,x0,0	  x0:0x00000000
       15925000	      1591	80001d7c	00000013	addi	x0,x0,0	  x0:0x00000000
       15935000	      1592	80001d80	ffdff0ef	jal	x1,80001d80	  x1=0x80001d80
       15945000	      1593	00000000	00000013	addi	x0,x0,0	  x0:0x00000000
       15955000	      1594	80001d78	00000013	addi	x0,x0,0	  x0:0x00000000
       15965000	      1595	80001d7c	0300036f	jal	x6,80001d7c	  x6=0x80001d7c
       15975000	      1596	00000000	00000013	addi	x0,x0,0	  x0:0x00000000
       15985000	      1597	80001da8	00000013	addi	x0,x0,0	  x0:0x00000000
       15995000	      1598	80001dac	00c004ef	jal	x9,80001dac	  x9=0x80001dac
       16005000	      1599	00000000	00000013	addi	x0,x0,0	  x0:0x00000000
       16015000	      1600	80001db4	00000013	addi	x0,x0,0	  x0:0x00000000
       16025000	      1601	80001db8	fbdff6ef	jal	x13,80001db8	 x13=0x80001db8
       16035000	      1602	00000000	00000013	addi	x0,x0,0	  x0:0x00000000
       16045000	      1603	80001d70	00000013	addi	x0,x0,0	  x0:0x00000000
       16055000	      1604	80001d74	014000ef	jal	x1,80001d74	  x1=0x80001d74
       16065000	      1605	00000000	00000013	addi	x0,x0,0	  x0:0x00000000
       16075000	      1606	80001d84	00000013	addi	x0,x0,0	  x0:0x00000000
       16085000	      1607	80001d88	0400026f	jal	x4,80001d88	  x4=0x80001d88
       16095000	      1608	00000000	00000013	addi	x0,x0,0	  x0:0x00000000
       16105000	      1609	80001dc4	00000013	addi	x0,x0,0	  x0:0x00000000
       16115000	      1610	80001dc8	ffdff0ef	jal	x1,80001dc8	  x1=0x80001dc8
       16125000	      1611	00000000	00000013	addi	x0,x0,0	  x0:0x00000000
       16135000	      1612	80001dc0	00000013	addi	x0,x0,0	  x0:0x00000000
       16145000	      1613	80001dc4	fd1ffb6f	jal	x22,80001dc4	 x22=0x80001dc4
       16155000	      1614	00000000	00000013	addi	x0,x0,0	  x0:0x00000000
       16165000	      1615	80001d90	00000013	addi	x0,x0,0	  x0:0x00000000
       16175000	      1616	80001d94	03c000ef	jal	x1,80001d94	  x1=0x80001d94
       16185000	      1617	00000000	00000013	addi	x0,x0,0	  x0:0x00000000
       16195000	      1618	80001dcc	00000013	addi	x0,x0,0	  x0:0x00000000
       16205000	      1619	80001dd0	fbdff0ef	jal	x1,80001dd0	  x1=0x80001dd0
       16215000	      1620	00000000	00000013	addi	x0,x0,0	  x0:0x00000000
       16225000	      1621	80001d88	00000013	addi	x0,x0,0	  x0:0x00000000
       16235000	      1622	80001d8c	010000ef	jal	x1,80001d8c	  x1=0x80001d8c
       16245000	      1623	00000000	00000013	addi	x0,x0,0	  x0:0x00000000
       16255000	      1624	80001d98	00000013	addi	x0,x0,0	  x0:0x00000000
       16265000	      1625	80001d9c	020000ef	jal	x1,80001d9c	  x1=0x80001d9c
       16275000	      1626	00000000	00000013	addi	x0,x0,0	  x0:0x00000000
       16285000	      1627	80001db8	00000013	addi	x0,x0,0	  x0:0x00000000
       16295000	      1628	80001dbc	fedff0ef	jal	x1,80001dbc	  x1=0x80001dbc
       16305000	      1629	00000000	00000013	addi	x0,x0,0	  x0:0x00000000
       16315000	      1630	80001da4	00000013	addi	x0,x0,0	  x0:0x00000000
       16325000	      1631	80001da8	ffdff0ef	jal	x1,80001da8	  x1=0x80001da8
       16335000	      1632	00000000	00000013	addi	x0,x0,0	  x0:0x00000000
       16345000	      1633	80001da0	00000013	addi	x0,x0,0	  x0:0x00000000
       16355000	      1634	80001da4	fedff0ef	jal	x1,80001da4	  x1=0x80001da4
       16365000	      1635	00000000	00000013	addi	x0,x0,0	  x0:0x00000000
       16375000	      1636	80001d8c	00000013	addi	x0,x0,0	  x0:0x00000000
       16385000	      1637	80001d90	030000ef	jal	x1,80001d90	  x1=0x80001d90
       16395000	      1638	00000000	00000013	addi	x0,x0,0	  x0:0x00000000
       16405000	      1639	80001dbc	00000013	addi	x0,x0,0	  x0:0x00000000
       16415000	      1640	80001dc0	00c0026f	jal	x4,80001dc0	  x4=0x80001dc0
       16425000	      1641	00000000	00000013	addi	x0,x0,0	  x0:0x00000000
       16435000	      1642	80001dc8	00000013	addi	x0,x0,0	  x0:0x00000000
       16445000	      1643	80001dcc	fe9ff36f	jal	x6,80001dcc	  x6=0x80001dcc
       16455000	      1644	00000000	00000013	addi	x0,x0,0	  x0:0x00000000
       16465000	      1645	80001db0	00000013	addi	x0,x0,0	  x0:0x00000000
       16475000	      1646	80001db4	fe5ff0ef	jal	x1,80001db4	  x1=0x80001db4
       16485000	      1647	00000000	00000013	addi	x0,x0,0	  x0:0x00000000
       16495000	      1648	80001d94	00000013	addi	x0,x0,0	  x0:0x00000000
       16505000	      1649	80001d98	fe1ff0ef	jal	x1,80001d98	  x1=0x80001d98
       16515000	      1650	00000000	00000013	addi	x0,x0,0	  x0:0x00000000
       16525000	      1651	80001d74	00000013	addi	x0,x0,0	  x0:0x00000000
       16535000	      1652	80001d78	00c0016f	jal	x2,80001d78	  x2=0x80001d78
       16545000	      1653	00000000	00000013	addi	x0,x0,0	  x0:0x00000000
       16555000	      1654	80001d80	00000013	addi	x0,x0,0	  x0:0x00000000
       16565000	      1655	80001d84	050001ef	jal	x3,80001d84	  x3=0x80001d84
       16575000	      1656	00000000	00000013	addi	x0,x0,0	  x0:0x00000000
       16585000	      1657	80001dd0	00000013	addi	x0,x0,0	  x0:0x00000000
       16595000	      1658	80001dd4	01feb833	sltu	x16,x29,x31	 x29:0x00000000 x31:0xdf84c3ac x16=0x00000001
       16605000	      1659	80001dd8	04c0016f	jal	x2,80001dd8	  x2=0x80001dd8
       16615000	      1660	00000000	00000013	addi	x0,x0,0	  x0:0x00000000
       16625000	      1661	80001e20	00000013	addi	x0,x0,0	  x0:0x00000000
       16635000	      1662	80001e24	ff1ff0ef	jal	x1,80001e24	  x1=0x80001e24
       16645000	      1663	00000000	00000013	addi	x0,x0,0	  x0:0x00000000
       16655000	      1664	80001e10	00000013	addi	x0,x0,0	  x0:0x00000000
       16665000	      1665	80001e14	01c000ef	jal	x1,80001e14	  x1=0x80001e14
       16675000	      1666	00000000	00000013	addi	x0,x0,0	  x0:0x00000000
       16685000	      1667	80001e2c	00000013	addi	x0,x0,0	  x0:0x00000000
       16695000	      1668	80001e30	fc5ff0ef	jal	x1,80001e30	  x1=0x80001e30
       16705000	      1669	00000000	00000013	addi	x0,x0,0	  x0:0x00000000
       16715000	      1670	80001df0	00000013	addi	x0,x0,0	  x0:0x00000000
       16725000	      1671	80001df4	038000ef	jal	x1,80001df4	  x1=0x80001df4
       16735000	      1672	00000000	00000013	addi	x0,x0,0	  x0:0x00000000
       16745000	      1673	80001e28	00000013	addi	x0,x0,0	  x0:0x00000000
       16755000	      1674	80001e2c	fc1ff0ef	jal	x1,80001e2c	  x1=0x80001e2c
       16765000	      1675	00000000	00000013	addi	x0,x0,0	  x0:0x00000000
       16775000	      1676	80001de8	00000013	addi	x0,x0,0	  x0:0x00000000
       16785000	      1677	80001dec	010000ef	jal	x1,80001dec	  x1=0x80001dec
       16795000	      1678	00000000	00000013	addi	x0,x0,0	  x0:0x00000000
       16805000	      1679	80001df8	00000013	addi	x0,x0,0	  x0:0x00000000
       16815000	      1680	80001dfc	0500036f	jal	x6,80001dfc	  x6=0x80001dfc
       16825000	      1681	00000000	00000013	addi	x0,x0,0	  x0:0x00000000
       16835000	      1682	80001e48	00000013	addi	x0,x0,0	  x0:0x00000000
       16845000	      1683	80001e4c	fd1ff0ef	jal	x1,80001e4c	  x1=0x80001e4c
       16855000	      1684	00000000	00000013	addi	x0,x0,0	  x0:0x00000000
       16865000	      1685	80001e18	00000013	addi	x0,x0,0	  x0:0x00000000
       16875000	      1686	80001e1c	0280026f	jal	x4,80001e1c	  x4=0x80001e1c
       16885000	      1687	00000000	00000013	addi	x0,x0,0	  x0:0x00000000
       16895000	      1688	80001e40	00000013	addi	x0,x0,0	  x0:0x00000000
       16905000	      1689	80001e44	fa1ff0ef	jal	x1,80001e44	  x1=0x80001e44
       16915000	      1690	00000000	00000013	addi	x0,x0,0	  x0:0x00000000
       16925000	      1691	80001de0	00000013	addi	x0,x0,0	  x0:0x00000000
       16935000	      1692	80001de4	ffdff0ef	jal	x1,80001de4	  x1=0x80001de4
       16945000	      1693	00000000	00000013	addi	x0,x0,0	  x0:0x00000000
       16955000	      1694	80001ddc	00000013	addi	x0,x0,0	  x0:0x00000000
       16965000	      1695	80001de0	0580016f	jal	x2,80001de0	  x2=0x80001de0
       16975000	      1696	00000000	00000013	addi	x0,x0,0	  x0:0x00000000
       16985000	      1697	80001e34	00000013	addi	x0,x0,0	  x0:0x00000000
       16995000	      1698	80001e38	008000ef	jal	x1,80001e38	  x1=0x80001e38
       17005000	      1699	00000000	00000013	addi	x0,x0,0	  x0:0x00000000
       17015000	      1700	80001e3c	00000013	addi	x0,x0,0	  x0:0x00000000
       17025000	      1701	80001e40	ffdff9ef	jal	x19,80001e40	 x19=0x80001e40
       17035000	      1702	00000000	00000013	addi	x0,x0,0	  x0:0x00000000
       17045000	      1703	80001e38	00000013	addi	x0,x0,0	  x0:0x00000000
       17055000	      1704	80001e3c	00c00c6f	jal	x24,80001e3c	 x24=0x80001e3c
       17065000	      1705	00000000	00000013	addi	x0,x0,0	  x0:0x00000000
       17075000	      1706	80001e44	00000013	addi	x0,x0,0	  x0:0x00000000
       17085000	      1707	80001e48	fbdffbef	jal	x23,80001e48	 x23=0x80001e48
       17095000	      1708	00000000	00000013	addi	x0,x0,0	  x0:0x00000000
       17105000	      1709	80001e00	00000013	addi	x0,x0,0	  x0:0x00000000
       17115000	      1710	80001e04	0300036f	jal	x6,80001e04	  x6=0x80001e04
       17125000	      1711	00000000	00000013	addi	x0,x0,0	  x0:0x00000000
       17135000	      1712	80001e30	00000013	addi	x0,x0,0	  x0:0x00000000
       17145000	      1713	80001e34	fc5ff0ef	jal	x1,80001e34	  x1=0x80001e34
       17155000	      1714	00000000	00000013	addi	x0,x0,0	  x0:0x00000000
       17165000	      1715	80001df4	00000013	addi	x0,x0,0	  x0:0x00000000
       17175000	      1716	80001df8	018000ef	jal	x1,80001df8	  x1=0x80001df8
       17185000	      1717	00000000	00000013	addi	x0,x0,0	  x0:0x00000000
       17195000	      1718	80001e0c	00000013	addi	x0,x0,0	  x0:0x00000000
       17205000	      1719	80001e10	ff1ff36f	jal	x6,80001e10	  x6=0x80001e10
       17215000	      1720	00000000	00000013	addi	x0,x0,0	  x0:0x00000000
       17225000	      1721	80001dfc	00000013	addi	x0,x0,0	  x0:0x00000000
       17235000	      1722	80001e00	fe9ff0ef	jal	x1,80001e00	  x1=0x80001e00
       17245000	      1723	00000000	00000013	addi	x0,x0,0	  x0:0x00000000
       17255000	      1724	80001de4	00000013	addi	x0,x0,0	  x0:0x00000000
       17265000	      1725	80001de8	0200036f	jal	x6,80001de8	  x6=0x80001de8
       17275000	      1726	00000000	00000013	addi	x0,x0,0	  x0:0x00000000
       17285000	      1727	80001e04	00000013	addi	x0,x0,0	  x0:0x00000000
       17295000	      1728	80001e08	0200036f	jal	x6,80001e08	  x6=0x80001e08
       17305000	      1729	00000000	00000013	addi	x0,x0,0	  x0:0x00000000
       17315000	      1730	80001e24	00000013	addi	x0,x0,0	  x0:0x00000000
       17325000	      1731	80001e28	fb5ff0ef	jal	x1,80001e28	  x1=0x80001e28
       17335000	      1732	00000000	00000013	addi	x0,x0,0	  x0:0x00000000
       17345000	      1733	80001dd8	00000013	addi	x0,x0,0	  x0:0x00000000
       17355000	      1734	80001ddc	044000ef	jal	x1,80001ddc	  x1=0x80001ddc
       17365000	      1735	00000000	00000013	addi	x0,x0,0	  x0:0x00000000
       17375000	      1736	80001e1c	00000013	addi	x0,x0,0	  x0:0x00000000
       17385000	      1737	80001e20	fd1ff1ef	jal	x3,80001e20	  x3=0x80001e20
       17395000	      1738	00000000	00000013	addi	x0,x0,0	  x0:0x00000000
       17405000	      1739	80001dec	00000013	addi	x0,x0,0	  x0:0x00000000
       17415000	      1740	80001df0	01c00b6f	jal	x22,80001df0	 x22=0x80001df0
       17425000	      1741	00000000	00000013	addi	x0,x0,0	  x0:0x00000000
       17435000	      1742	80001e08	00000013	addi	x0,x0,0	  x0:0x00000000
       17445000	      1743	80001e0c	00c000ef	jal	x1,80001e0c	  x1=0x80001e0c
       17455000	      1744	00000000	00000013	addi	x0,x0,0	  x0:0x00000000
       17465000	      1745	80001e14	00000013	addi	x0,x0,0	  x0:0x00000000
       17475000	      1746	80001e18	038000ef	jal	x1,80001e18	  x1=0x80001e18
       17485000	      1747	00000000	00000013	addi	x0,x0,0	  x0:0x00000000
       17495000	      1748	80001e4c	00000013	addi	x0,x0,0	  x0:0x00000000
       17505000	      1749	80001e50	41e75913	srai	x18,x14,0x1e	 x14:0xaaee7000 x18=0xfffffffe
       17515000	      1750	80001e54	00c0016f	jal	x2,80001e54	  x2=0x80001e54
       17525000	      1751	00000000	00000013	addi	x0,x0,0	  x0:0x00000000
       17535000	      1752	80001e5c	00000013	addi	x0,x0,0	  x0:0x00000000
       17545000	      1753	80001e60	ff9ff0ef	jal	x1,80001e60	  x1=0x80001e60
       17555000	      1754	00000000	00000013	addi	x0,x0,0	  x0:0x00000000
       17565000	      1755	80001e54	00000013	addi	x0,x0,0	  x0:0x00000000
       17575000	      1756	80001e58	0340056f	jal	x10,80001e58	 x10=0x80001e58
       17585000	      1757	00000000	00000013	addi	x0,x0,0	  x0:0x00000000
       17595000	      1758	80001e88	00000013	addi	x0,x0,0	  x0:0x00000000
       17605000	      1759	80001e8c	fedff0ef	jal	x1,80001e8c	  x1=0x80001e8c
       17615000	      1760	00000000	00000013	addi	x0,x0,0	  x0:0x00000000
       17625000	      1761	80001e74	00000013	addi	x0,x0,0	  x0:0x00000000
       17635000	      1762	80001e78	fedff0ef	jal	x1,80001e78	  x1=0x80001e78
       17645000	      1763	00000000	00000013	addi	x0,x0,0	  x0:0x00000000
       17655000	      1764	80001e60	00000013	addi	x0,x0,0	  x0:0x00000000
       17665000	      1765	80001e64	020000ef	jal	x1,80001e64	  x1=0x80001e64
       17675000	      1766	00000000	00000013	addi	x0,x0,0	  x0:0x00000000
       17685000	      1767	80001e80	00000013	addi	x0,x0,0	  x0:0x00000000
       17695000	      1768	80001e84	fe9ff0ef	jal	x1,80001e84	  x1=0x80001e84
       17705000	      1769	00000000	00000013	addi	x0,x0,0	  x0:0x00000000
       17715000	      1770	80001e68	00000013	addi	x0,x0,0	  x0:0x00000000
       17725000	      1771	80001e6c	0100036f	jal	x6,80001e6c	  x6=0x80001e6c
       17735000	      1772	00000000	00000013	addi	x0,x0,0	  x0:0x00000000
       17745000	      1773	80001e78	00000013	addi	x0,x0,0	  x0:0x00000000
       17755000	      1774	80001e7c	00400f6f	jal	x30,80001e7c	 x30=0x80001e7c
       17765000	      1775	00000000	00000013	addi	x0,x0,0	  x0:0x00000000
       17775000	      1776	80001e7c	00000013	addi	x0,x0,0	  x0:0x00000000
       17785000	      1777	80001e80	01000def	jal	x27,80001e80	 x27=0x80001e80
       17795000	      1778	00000000	00000013	addi	x0,x0,0	  x0:0x00000000
       17805000	      1779	80001e8c	00000013	addi	x0,x0,0	  x0:0x00000000
       17815000	      1780	80001e90	ff9ff0ef	jal	x1,80001e90	  x1=0x80001e90
       17825000	      1781	00000000	00000013	addi	x0,x0,0	  x0:0x00000000
       17835000	      1782	80001e84	00000013	addi	x0,x0,0	  x0:0x00000000
       17845000	      1783	80001e88	00c0066f	jal	x12,80001e88	 x12=0x80001e88
       17855000	      1784	00000000	00000013	addi	x0,x0,0	  x0:0x00000000
       17865000	      1785	80001e90	00000013	addi	x0,x0,0	  x0:0x00000000
       17875000	      1786	80001e94	004000ef	jal	x1,80001e94	  x1=0x80001e94
       17885000	      1787	00000000	00000013	addi	x0,x0,0	  x0:0x00000000
       17895000	      1788	80001e94	00000013	addi	x0,x0,0	  x0:0x00000000
       17905000	      1789	80001e98	fddff36f	jal	x6,80001e98	  x6=0x80001e98
       17915000	      1790	00000000	00000013	addi	x0,x0,0	  x0:0x00000000
       17925000	      1791	80001e70	00000013	addi	x0,x0,0	  x0:0x00000000
       17935000	      1792	80001e74	ff5ff0ef	jal	x1,80001e74	  x1=0x80001e74
       17945000	      1793	00000000	00000013	addi	x0,x0,0	  x0:0x00000000
       17955000	      1794	80001e64	00000013	addi	x0,x0,0	  x0:0x00000000
       17965000	      1795	80001e68	034000ef	jal	x1,80001e68	  x1=0x80001e68
       17975000	      1796	00000000	00000013	addi	x0,x0,0	  x0:0x00000000
       17985000	      1797	80001e98	00000013	addi	x0,x0,0	  x0:0x00000000
       17995000	      1798	80001e9c	fd5ff0ef	jal	x1,80001e9c	  x1=0x80001e9c
       18005000	      1799	00000000	00000013	addi	x0,x0,0	  x0:0x00000000
       18015000	      1800	80001e6c	00000013	addi	x0,x0,0	  x0:0x00000000
       18025000	      1801	80001e70	0300036f	jal	x6,80001e70	  x6=0x80001e70
       18035000	      1802	00000000	00000013	addi	x0,x0,0	  x0:0x00000000
       18045000	      1803	80001e9c	00000013	addi	x0,x0,0	  x0:0x00000000
       18055000	      1804	80001ea0	fbdff46f	jal	x8,80001ea0	  x8=0x80001ea0
       18065000	      1805	00000000	00000013	addi	x0,x0,0	  x0:0x00000000
       18075000	      1806	80001e58	00000013	addi	x0,x0,0	  x0:0x00000000
       18085000	      1807	80001e5c	04800bef	jal	x23,80001e5c	 x23=0x80001e5c
       18095000	      1808	00000000	00000013	addi	x0,x0,0	  x0:0x00000000
       18105000	      1809	80001ea0	00000013	addi	x0,x0,0	  x0:0x00000000
       18115000	      1810	80001ea4	0137e0b3	or	x1,x15,x19	 x15:0x00019280 x19:0x80001e40  x1=0x80019ec0
       18125000	      1811	80001ea8	0040016f	jal	x2,80001ea8	  x2=0x80001ea8
       18135000	      1812	00000000	00000013	addi	x0,x0,0	  x0:0x00000000
       18145000	      1813	80001ea8	00000013	addi	x0,x0,0	  x0:0x00000000
       18155000	      1814	80001eac	0440096f	jal	x18,80001eac	 x18=0x80001eac
       18165000	      1815	00000000	00000013	addi	x0,x0,0	  x0:0x00000000
       18175000	      1816	80001eec	00000013	addi	x0,x0,0	  x0:0x00000000
       18185000	      1817	80001ef0	010000ef	jal	x1,80001ef0	  x1=0x80001ef0
       18195000	      1818	00000000	00000013	addi	x0,x0,0	  x0:0x00000000
       18205000	      1819	80001efc	00000013	addi	x0,x0,0	  x0:0x00000000
       18215000	      1820	80001f00	010000ef	jal	x1,80001f00	  x1=0x80001f00
       18225000	      1821	00000000	00000013	addi	x0,x0,0	  x0:0x00000000
       18235000	      1822	80001f0c	00000013	addi	x0,x0,0	  x0:0x00000000
       18245000	      1823	80001f10	fa1ff0ef	jal	x1,80001f10	  x1=0x80001f10
       18255000	      1824	00000000	00000013	addi	x0,x0,0	  x0:0x00000000
       18265000	      1825	80001eac	00000013	addi	x0,x0,0	  x0:0x00000000
       18275000	      1826	80001eb0	018009ef	jal	x19,80001eb0	 x19=0x80001eb0
       18285000	      1827	00000000	00000013	addi	x0,x0,0	  x0:0x00000000
       18295000	      1828	80001ec4	00000013	addi	x0,x0,0	  x0:0x00000000
       18305000	      1829	80001ec8	014007ef	jal	x15,80001ec8	 x15=0x80001ec8
       18315000	      1830	00000000	00000013	addi	x0,x0,0	  x0:0x00000000
       18325000	      1831	80001ed8	00000013	addi	x0,x0,0	  x0:0x00000000
       18335000	      1832	80001edc	004000ef	jal	x1,80001edc	  x1=0x80001edc
       18345000	      1833	00000000	00000013	addi	x0,x0,0	  x0:0x00000000
       18355000	      1834	80001edc	00000013	addi	x0,x0,0	  x0:0x00000000
       18365000	      1835	80001ee0	0140016f	jal	x2,80001ee0	  x2=0x80001ee0
       18375000	      1836	00000000	00000013	addi	x0,x0,0	  x0:0x00000000
       18385000	      1837	80001ef0	00000013	addi	x0,x0,0	  x0:0x00000000
       18395000	      1838	80001ef4	fe5ff0ef	jal	x1,80001ef4	  x1=0x80001ef4
       18405000	      1839	00000000	00000013	addi	x0,x0,0	  x0:0x00000000
       18415000	      1840	80001ed4	00000013	addi	x0,x0,0	  x0:0x00000000
       18425000	      1841	80001ed8	0140036f	jal	x6,80001ed8	  x6=0x80001ed8
       18435000	      1842	00000000	00000013	addi	x0,x0,0	  x0:0x00000000
       18445000	      1843	80001ee8	00000013	addi	x0,x0,0	  x0:0x00000000
       18455000	      1844	80001eec	fd9ff0ef	jal	x1,80001eec	  x1=0x80001eec
       18465000	      1845	00000000	00000013	addi	x0,x0,0	  x0:0x00000000
       18475000	      1846	80001ec0	00000013	addi	x0,x0,0	  x0:0x00000000
       18485000	      1847	80001ec4	034006ef	jal	x13,80001ec4	 x13=0x80001ec4
       18495000	      1848	00000000	00000013	addi	x0,x0,0	  x0:0x00000000
       18505000	      1849	80001ef4	00000013	addi	x0,x0,0	  x0:0x00000000
       18515000	      1850	80001ef8	fd9ff0ef	jal	x1,80001ef8	  x1=0x80001ef8
       18525000	      1851	00000000	00000013	addi	x0,x0,0	  x0:0x00000000
       18535000	      1852	80001ecc	00000013	addi	x0,x0,0	  x0:0x00000000
       18545000	      1853	80001ed0	fe9ff36f	jal	x6,80001ed0	  x6=0x80001ed0
       18555000	      1854	00000000	00000013	addi	x0,x0,0	  x0:0x00000000
       18565000	      1855	80001eb4	00000013	addi	x0,x0,0	  x0:0x00000000
       18575000	      1856	80001eb8	0140036f	jal	x6,80001eb8	  x6=0x80001eb8
       18585000	      1857	00000000	00000013	addi	x0,x0,0	  x0:0x00000000
       18595000	      1858	80001ec8	00000013	addi	x0,x0,0	  x0:0x00000000
       18605000	      1859	80001ecc	040000ef	jal	x1,80001ecc	  x1=0x80001ecc
       18615000	      1860	00000000	00000013	addi	x0,x0,0	  x0:0x00000000
       18625000	      1861	80001f08	00000013	addi	x0,x0,0	  x0:0x00000000
       18635000	      1862	80001f0c	ff9ff76f	jal	x14,80001f0c	 x14=0x80001f0c
       18645000	      1863	00000000	00000013	addi	x0,x0,0	  x0:0x00000000
       18655000	      1864	80001f00	00000013	addi	x0,x0,0	  x0:0x00000000
       18665000	      1865	80001f04	004009ef	jal	x19,80001f04	 x19=0x80001f04
       18675000	      1866	00000000	00000013	addi	x0,x0,0	  x0:0x00000000
       18685000	      1867	80001f04	00000013	addi	x0,x0,0	  x0:0x00000000
       18695000	      1868	80001f08	ff5ff0ef	jal	x1,80001f08	  x1=0x80001f08
       18705000	      1869	00000000	00000013	addi	x0,x0,0	  x0:0x00000000
       18715000	      1870	80001ef8	00000013	addi	x0,x0,0	  x0:0x00000000
       18725000	      1871	80001efc	fd9ff16f	jal	x2,80001efc	  x2=0x80001efc
       18735000	      1872	00000000	00000013	addi	x0,x0,0	  x0:0x00000000
       18745000	      1873	80001ed0	00000013	addi	x0,x0,0	  x0:0x00000000
       18755000	      1874	80001ed4	fedff0ef	jal	x1,80001ed4	  x1=0x80001ed4
       18765000	      1875	00000000	00000013	addi	x0,x0,0	  x0:0x00000000
       18775000	      1876	80001ebc	00000013	addi	x0,x0,0	  x0:0x00000000
       18785000	      1877	80001ec0	0280016f	jal	x2,80001ec0	  x2=0x80001ec0
       18795000	      1878	00000000	00000013	addi	x0,x0,0	  x0:0x00000000
       18805000	      1879	80001ee4	00000013	addi	x0,x0,0	  x0:0x00000000
       18815000	      1880	80001ee8	fd5ff0ef	jal	x1,80001ee8	  x1=0x80001ee8
       18825000	      1881	00000000	00000013	addi	x0,x0,0	  x0:0x00000000
       18835000	      1882	80001eb8	00000013	addi	x0,x0,0	  x0:0x00000000
       18845000	      1883	80001ebc	ff9ff0ef	jal	x1,80001ebc	  x1=0x80001ebc
       18855000	      1884	00000000	00000013	addi	x0,x0,0	  x0:0x00000000
       18865000	      1885	80001eb0	00000013	addi	x0,x0,0	  x0:0x00000000
       18875000	      1886	80001eb4	030000ef	jal	x1,80001eb4	  x1=0x80001eb4
       18885000	      1887	00000000	00000013	addi	x0,x0,0	  x0:0x00000000
       18895000	      1888	80001ee0	00000013	addi	x0,x0,0	  x0:0x00000000
       18905000	      1889	80001ee4	03000b6f	jal	x22,80001ee4	 x22=0x80001ee4
       18915000	      1890	00000000	00000013	addi	x0,x0,0	  x0:0x00000000
       18925000	      1891	80001f10	00000013	addi	x0,x0,0	  x0:0x00000000
       18935000	      1892	80001f14	05efff93	andi	x31,x31,94	 x31:0xdf84c3ac x31=0x0000000c
       18945000	      1893	80001f18	0500016f	jal	x2,80001f18	  x2=0x80001f18
       18955000	      1894	00000000	00000013	addi	x0,x0,0	  x0:0x00000000
       18965000	      1895	80001f64	00000013	addi	x0,x0,0	  x0:0x00000000
       18975000	      1896	80001f68	01c000ef	jal	x1,80001f68	  x1=0x80001f68
       18985000	      1897	00000000	00000013	addi	x0,x0,0	  x0:0x00000000
       18995000	      1898	80001f80	00000013	addi	x0,x0,0	  x0:0x00000000
       19005000	      1899	80001f84	fd5ff0ef	jal	x1,80001f84	  x1=0x80001f84
       19015000	      1900	00000000	00000013	addi	x0,x0,0	  x0:0x00000000
       19025000	      1901	80001f54	00000013	addi	x0,x0,0	  x0:0x00000000
       19035000	      1902	80001f58	fd5ff36f	jal	x6,80001f58	  x6=0x80001f58
       19045000	      1903	00000000	00000013	addi	x0,x0,0	  x0:0x00000000
       19055000	      1904	80001f28	00000013	addi	x0,x0,0	  x0:0x00000000
       19065000	      1905	80001f2c	00c0036f	jal	x6,80001f2c	  x6=0x80001f2c
       19075000	      1906	00000000	00000013	addi	x0,x0,0	  x0:0x00000000
       19085000	      1907	80001f34	00000013	addi	x0,x0,0	  x0:0x00000000
       19095000	      1908	80001f38	ffdff16f	jal	x2,80001f38	  x2=0x80001f38
       19105000	      1909	00000000	00000013	addi	x0,x0,0	  x0:0x00000000
       19115000	      1910	80001f30	00000013	addi	x0,x0,0	  x0:0x00000000
       19125000	      1911	80001f34	ff1ffc6f	jal	x24,80001f34	 x24=0x80001f34
       19135000	      1912	00000000	00000013	addi	x0,x0,0	  x0:0x00000000
       19145000	      1913	80001f20	00000013	addi	x0,x0,0	  x0:0x00000000
       19155000	      1914	80001f24	0500036f	jal	x6,80001f24	  x6=0x80001f24
       19165000	      1915	00000000	00000013	addi	x0,x0,0	  x0:0x00000000
       19175000	      1916	80001f70	00000013	addi	x0,x0,0	  x0:0x00000000
       19185000	      1917	80001f74	fcdff0ef	jal	x1,80001f74	  x1=0x80001f74
       19195000	      1918	00000000	00000013	addi	x0,x0,0	  x0:0x00000000
       19205000	      1919	80001f3c	00000013	addi	x0,x0,0	  x0:0x00000000
       19215000	      1920	80001f40	030000ef	jal	x1,80001f40	  x1=0x80001f40
       19225000	      1921	00000000	00000013	addi	x0,x0,0	  x0:0x00000000
       19235000	      1922	80001f6c	00000013	addi	x0,x0,0	  x0:0x00000000
       19245000	      1923	80001f70	fd5ff0ef	jal	x1,80001f70	  x1=0x80001f70
       19255000	      1924	00000000	00000013	addi	x0,x0,0	  x0:0x00000000
       19265000	      1925	80001f40	00000013	addi	x0,x0,0	  x0:0x00000000
       19275000	      1926	80001f44	010000ef	jal	x1,80001f44	  x1=0x80001f44
       19285000	      1927	00000000	00000013	addi	x0,x0,0	  x0:0x00000000
       19295000	      1928	80001f50	00000013	addi	x0,x0,0	  x0:0x00000000
       19305000	      1929	80001f54	fcdff36f	jal	x6,80001f54	  x6=0x80001f54
       19315000	      1930	00000000	00000013	addi	x0,x0,0	  x0:0x00000000
       19325000	      1931	80001f1c	00000013	addi	x0,x0,0	  x0:0x00000000
       19335000	      1932	80001f20	01c000ef	jal	x1,80001f20	  x1=0x80001f20
       19345000	      1933	00000000	00000013	addi	x0,x0,0	  x0:0x00000000
       19355000	      1934	80001f38	00000013	addi	x0,x0,0	  x0:0x00000000
       19365000	      1935	80001f3c	040000ef	jal	x1,80001f3c	  x1=0x80001f3c
       19375000	      1936	00000000	00000013	addi	x0,x0,0	  x0:0x00000000
       19385000	      1937	80001f78	00000013	addi	x0,x0,0	  x0:0x00000000
       19395000	      1938	80001f7c	fe5ff16f	jal	x2,80001f7c	  x2=0x80001f7c
       19405000	      1939	00000000	00000013	addi	x0,x0,0	  x0:0x00000000
       19415000	      1940	80001f5c	00000013	addi	x0,x0,0	  x0:0x00000000
       19425000	      1941	80001f60	fc9ff0ef	jal	x1,80001f60	  x1=0x80001f60
       19435000	      1942	00000000	00000013	addi	x0,x0,0	  x0:0x00000000
       19445000	      1943	80001f24	00000013	addi	x0,x0,0	  x0:0x00000000
       19455000	      1944	80001f28	0580026f	jal	x4,80001f28	  x4=0x80001f28
       19465000	      1945	00000000	00000013	addi	x0,x0,0	  x0:0x00000000
       19475000	      1946	80001f7c	00000013	addi	x0,x0,0	  x0:0x00000000
       19485000	      1947	80001f80	ff9ff0ef	jal	x1,80001f80	  x1=0x80001f80
       19495000	      1948	00000000	00000013	addi	x0,x0,0	  x0:0x00000000
       19505000	      1949	80001f74	00000013	addi	x0,x0,0	  x0:0x00000000
       19515000	      1950	80001f78	fd1ff46f	jal	x8,80001f78	  x8=0x80001f78
       19525000	      1951	00000000	00000013	addi	x0,x0,0	  x0:0x00000000
       19535000	      1952	80001f44	00000013	addi	x0,x0,0	  x0:0x00000000
       19545000	      1953	80001f48	0240026f	jal	x4,80001f48	  x4=0x80001f48
       19555000	      1954	00000000	00000013	addi	x0,x0,0	  x0:0x00000000
       19565000	      1955	80001f68	00000013	addi	x0,x0,0	  x0:0x00000000
       19575000	      1956	80001f6c	01c0036f	jal	x6,80001f6c	  x6=0x80001f6c
       19585000	      1957	00000000	00000013	addi	x0,x0,0	  x0:0x00000000
       19595000	      1958	80001f84	00000013	addi	x0,x0,0	  x0:0x00000000
       19605000	      1959	80001f88	fd5ff0ef	jal	x1,80001f88	  x1=0x80001f88
       19615000	      1960	00000000	00000013	addi	x0,x0,0	  x0:0x00000000
       19625000	      1961	80001f58	00000013	addi	x0,x0,0	  x0:0x00000000
       19635000	      1962	80001f5c	ff1ff9ef	jal	x19,80001f5c	 x19=0x80001f5c
       19645000	      1963	00000000	00000013	addi	x0,x0,0	  x0:0x00000000
       19655000	      1964	80001f48	00000013	addi	x0,x0,0	  x0:0x00000000
       19665000	      1965	80001f4c	018000ef	jal	x1,80001f4c	  x1=0x80001f4c
       19675000	      1966	00000000	00000013	addi	x0,x0,0	  x0:0x00000000
       19685000	      1967	80001f60	00000013	addi	x0,x0,0	  x0:0x00000000
       19695000	      1968	80001f64	fedff36f	jal	x6,80001f64	  x6=0x80001f64
       19705000	      1969	00000000	00000013	addi	x0,x0,0	  x0:0x00000000
       19715000	      1970	80001f4c	00000013	addi	x0,x0,0	  x0:0x00000000
       19725000	      1971	80001f50	fe1ff0ef	jal	x1,80001f50	  x1=0x80001f50
       19735000	      1972	00000000	00000013	addi	x0,x0,0	  x0:0x00000000
       19745000	      1973	80001f2c	00000013	addi	x0,x0,0	  x0:0x00000000
       19755000	      1974	80001f30	fedff0ef	jal	x1,80001f30	  x1=0x80001f30
       19765000	      1975	00000000	00000013	addi	x0,x0,0	  x0:0x00000000
       19775000	      1976	80001f18	00000013	addi	x0,x0,0	  x0:0x00000000
       19785000	      1977	80001f1c	07000a6f	jal	x20,80001f1c	 x20=0x80001f1c
       19795000	      1978	00000000	00000013	addi	x0,x0,0	  x0:0x00000000
       19805000	      1979	80001f88	00000013	addi	x0,x0,0	  x0:0x00000000
       19815000	      1980	80001f8c	01f49193	slli	x3,x9,0x1f	  x9:0x80001dac  x3=0x00000000
       19825000	      1981	80001f90	99d8a993	slti	x19,x17,-1635	 x17:0x00000001 x19=0x00000000
       19835000	      1982	80001f94	00811493	slli	x9,x2,0x8	  x2:0x80001f7c  x9=0x001f7c00
       19845000	      1983	80001f98	015cb233	sltu	x4,x25,x21	 x25:0x00000400 x21:0x80001f49  x4=0x00000001
       19855000	      1984	80001f9c	573fb493	sltiu	x9,x31,1395	 x31:0x0000000c  x9=0x00000001
       19865000	      1985	80001fa0	01297233	and	x4,x18,x18	 x18:0x80001eac x18:0x80001eac  x4=0x80001eac
       19875000	      1986	80001fa4	0103bb33	sltu	x22,x7,x16	  x7:0xf801a2d8 x16:0x00000001 x22=0x00000000
       19885000	      1987	80001fa8	41f05ab3	sra	x21,x0,x31	  x0:0x00000000 x31:0x0000000c x21=0x00000000
       19895000	      1988	80001fac	a6fcc793	xori	x15,x25,-1425	 x25:0x00000400 x15=0xfffffe6f
       19905000	      1989	80001fb0	18777c93	andi	x25,x14,391	 x14:0x80001f0c x25=0x00000104
       19915000	      1990	80001fb4	01c3dbb3	srl	x23,x7,x28	  x7:0xf801a2d8 x28:0x00000000 x23=0xf801a2d8
       19925000	      1991	80001fb8	63cacb93	xori	x23,x21,1596	 x21:0x00000000 x23=0x0000063c
       19935000	      1992	80001fbc	00630eb3	add	x29,x6,x6	  x6:0x80001f64  x6:0x80001f64 x29=0x00003ec8
       19945000	      1993	80001fc0	04664263	blt	x12,x6,80002004	 x12:0x80001e88  x6:0x80001f64
       19955000	      1994	00000000	00000013	addi	x0,x0,0	  x0:0x00000000
       19965000	      1995	80002000	00000013	addi	x0,x0,0	  x0:0x00000000
       19975000	      1996	80002004	007e0533	add	x10,x28,x7	 x28:0x00000000  x7:0xf801a2d8 x10=0xf801a2d8
       19985000	      1997	80002008	03265463	bge	x12,x18,80002030	 x12:0x80001e88 x18:0x80001eac
       19995000	      1998	8000200c	01885393	srli	x7,x16,0x18	 x16:0x00000001  x7=0x00000000
       20005000	      1999	80002010	01c5db13	srli	x22,x11,0x1c	 x11:0x80009ed4 x22=0x00000008
       20015000	      2000	80002014	57127393	andi	x7,x4,1393	  x4:0x80001eac  x7=0x00000420
       20025000	      2001	80002018	b691cd13	xori	x26,x3,-1175	  x3:0x00000000 x26=0xfffffb69
       20035000	      2002	8000201c	013411b3	sll	x3,x8,x19	  x8:0x80001f78 x19:0x00000000  x3=0x80001f78
       20045000	      2003	80002020	0052bbb3	sltu	x23,x5,x5	  x5:0x80009fc4  x5:0x80009fc4 x23=0x00000000
       20055000	      2004	80002024	018868b3	or	x17,x16,x24	 x16:0x00000001 x24:0x80001f34 x17=0x80001f35
       20065000	      2005	80002028	001c0663	beq	x24,x1,80002034	 x24:0x80001f34  x1:0x80001f30
       20075000	      2006	8000202c	40578cb3	sub	x25,x15,x5	 x15:0xfffffe6f  x5:0x80009fc4 x25=0x7fff5eab
       20085000	      2007	80002030	6af33793	sltiu	x15,x6,1711	  x6:0x80001f64 x15=0x00000000
       20095000	      2008	80002034	01016b33	or	x22,x2,x16	  x2:0x80001f7c x16:0x00000001 x22=0x80001f7d
       20105000	      2009	80002038	00941e63	bne	x8,x9,80002054	  x8:0x80001f78  x9:0x00000001
       20115000	      2010	00000000	00000013	addi	x0,x0,0	  x0:0x00000000
       20125000	      2011	80002050	00000013	addi	x0,x0,0	  x0:0x00000000
       20135000	      2012	80002054	00e75493	srli	x9,x14,0xe	 x14:0x80001f0c  x9=0x00020000
       20145000	      2013	80002058	00000013	addi	x0,x0,0	  x0:0x00000000
       20155000	      2014	8000205c	01c74463	blt	x14,x28,80002064	 x14:0x80001f0c x28:0x00000000
       20165000	      2015	00000000	00000013	addi	x0,x0,0	  x0:0x00000000
       20175000	      2016	80002060	00000013	addi	x0,x0,0	  x0:0x00000000
       20185000	      2017	80002064	01441c63	bne	x8,x20,8000207c	  x8:0x80001f78 x20:0x80001f1c
       20195000	      2018	00000000	00000013	addi	x0,x0,0	  x0:0x00000000
       20205000	      2019	80002078	00000013	addi	x0,x0,0	  x0:0x00000000
       20215000	      2020	8000207c	01097cb3	and	x25,x18,x16	 x18:0x80001eac x16:0x00000001 x25=0x00000000
       20225000	      2021	80002080	df5e7193	andi	x3,x28,-523	 x28:0x00000000  x3=0x00000000
       20235000	      2022	80002084	da99ee93	ori	x29,x19,-599	 x19:0x00000000 x29=0xfffffda9
       20245000	      2023	80002088	00215093	srli	x1,x2,0x2	  x2:0x80001f7c  x1=0x200007df
       20255000	      2024	8000208c	35697097	auipc	x1,0x35697	  x1=0xb5699088
       20265000	      2025	80002090	0d97c193	xori	x3,x15,217	 x15:0x00000000  x3=0x000000d9
       20275000	      2026	80002094	003a2233	slt	x4,x20,x3	 x20:0x80001f1c  x3:0x000000d9  x4=0x00000001
       20285000	      2027	80002098	0084b4b3	sltu	x9,x9,x8	  x9:0x00020000  x8:0x80001f78  x9=0x00000001
       20295000	      2028	8000209c	0086ee63	bltu	x13,x8,800020b8	 x13:0x80001ec4  x8:0x80001f78
       20305000	      2029	00000000	00000013	addi	x0,x0,0	  x0:0x00000000
       20315000	      2030	800020b4	00000013	addi	x0,x0,0	  x0:0x00000000
       20325000	      2031	800020b8	01c18b33	add	x22,x3,x28	  x3:0x000000d9 x28:0x00000000 x22=0x000000d9
       20335000	      2032	800020bc	0126d913	srli	x18,x13,0x12	 x13:0x80001ec4 x18=0x00002000
       20345000	      2033	800020c0	00000013	addi	x0,x0,0	  x0:0x00000000
       20355000	      2034	800020c4	f7737613	andi	x12,x6,-137	  x6:0x80001f64 x12=0x80001f64
       20365000	      2035	800020c8	41af01b3	sub	x3,x30,x26	 x30:0x80001e7c x26:0xfffffb69  x3=0x80002313
       20375000	      2036	800020cc	00e18733	add	x14,x3,x14	  x3:0x80002313 x14:0x80001f0c x14=0x0000421f
       20385000	      2037	800020d0	405051b3	sra	x3,x0,x5	  x0:0x00000000  x5:0x80009fc4  x3=0x00000000
       20395000	      2038	800020d4	00729fb3	sll	x31,x5,x7	  x5:0x80009fc4  x7:0x00000420 x31=0x80009fc4
       20405000	      2039	800020d8	3ea5a713	slti	x14,x11,1002	 x11:0x80009ed4 x14=0x00000001
       20415000	      2040	800020dc	40455533	sra	x10,x10,x4	 x10:0xf801a2d8  x4:0x00000001 x10=0xfc00d16c
       20425000	      2041	800020e0	010b9033	sll	x0,x23,x16	 x23:0x00000000 x16:0x00000001
       20435000	      2042	800020e4	3b584393	xori	x7,x16,949	 x16:0x00000001  x7=0x000003b4
       20445000	      2043	800020e8	9867f613	andi	x12,x15,-1658	 x15:0x00000000 x12=0x00000000
       20455000	      2044	800020ec	014394b3	sll	x9,x7,x20	  x7:0x000003b4 x20:0x80001f1c  x9=0x40000000
       20465000	      2045	800020f0	d94bc793	xori	x15,x23,-620	 x23:0x00000000 x15=0xfffffd94
       20475000	      2046	800020f4	0333da63	bge	x7,x19,80002128	  x7:0x000003b4 x19:0x00000000
       20485000	      2047	00000000	00000013	addi	x0,x0,0	  x0:0x00000000
       20495000	      2048	80002124	00000013	addi	x0,x0,0	  x0:0x00000000
       20505000	      2049	80002128	dca37493	andi	x9,x6,-566	  x6:0x80001f64  x9=0x80001d40
       20515000	      2050	8000212c	00000013	addi	x0,x0,0	  x0:0x00000000
       20525000	      2051	80002130	07c1d063	bge	x3,x28,80002190	  x3:0x00000000 x28:0x00000000
       20535000	      2052	00000000	00000013	addi	x0,x0,0	  x0:0x00000000
       20545000	      2053	8000218c	00000013	addi	x0,x0,0	  x0:0x00000000
       20555000	      2054	80002190	05f01663	bne	x0,x31,800021dc	  x0:0x00000000 x31:0x80009fc4
       20565000	      2055	00000000	00000013	addi	x0,x0,0	  x0:0x00000000
       20575000	      2056	800021d8	00000013	addi	x0,x0,0	  x0:0x00000000
       20585000	      2057	800021dc	7c934637	lui	x12,0x7c934	 x12=0x7c934000
       20595000	      2058	800021e0	003e03b3	add	x7,x28,x3	 x28:0x00000000  x3:0x00000000  x7=0x00000000
       20605000	      2059	800021e4	988a4613	xori	x12,x20,-1656	 x20:0x80001f1c x12=0x7fffe694
       20615000	      2060	800021e8	05045863	bge	x8,x16,80002238	  x8:0x80001f78 x16:0x00000001
       20625000	      2061	800021ec	039e8463	beq	x29,x25,80002214	 x29:0xfffffda9 x25:0x00000000
       20635000	      2062	800021f0	2bcec693	xori	x13,x29,700	 x29:0xfffffda9 x13=0xffffff15
       20645000	      2063	800021f4	a1c25437	lui	x8,0xa1c25	  x8=0xa1c25000
       20655000	      2064	800021f8	008d18b3	sll	x17,x26,x8	 x26:0xfffffb69  x8:0xa1c25000 x17=0xfffffb69
       20665000	      2065	800021fc	01710db3	add	x27,x2,x23	  x2:0x80001f7c x23:0x00000000 x27=0x80001f7c
       20675000	      2066	80002200	ecd23013	sltiu	x0,x4,-307	  x4:0x00000001
       20685000	      2067	80002204	014aed33	or	x26,x21,x20	 x21:0x00000000 x20:0x80001f1c x26=0x80001f1c
       20695000	      2068	80002208	01e71193	slli	x3,x14,0x1e	 x14:0x00000001  x3=0x40000000
       20705000	      2069	8000220c	0157b4b3	sltu	x9,x15,x21	 x15:0xfffffd94 x21:0x00000000  x9=0x00000000
       20715000	      2070	80002210	01b239b3	sltu	x19,x4,x27	  x4:0x00000001 x27:0x80001f7c x19=0x00000001
       20725000	      2071	80002214	00000013	addi	x0,x0,0	  x0:0x00000000
       20735000	      2072	80002218	ba60c913	xori	x18,x1,-1114	  x1:0xb5699088 x18=0x4a966b2e
       20745000	      2073	8000221c	014aec63	bltu	x21,x20,80002234	 x21:0x00000000 x20:0x80001f1c
       20755000	      2074	00000000	00000013	addi	x0,x0,0	  x0:0x00000000
       20765000	      2075	80002230	00000013	addi	x0,x0,0	  x0:0x00000000
       20775000	      2076	80002234	01045c63	bge	x8,x16,8000224c	  x8:0xa1c25000 x16:0x00000001
       20785000	      2077	80002238	09d44913	xori	x18,x8,157	  x8:0xa1c25000 x18=0xa1c2509d
       20795000	      2078	8000223c	01c3b233	sltu	x4,x7,x28	  x7:0x00000000 x28:0x00000000  x4=0x00000000
       20805000	      2079	80002240	016be433	or	x8,x23,x22	 x23:0x00000000 x22:0x000000d9  x8=0x000000d9
       20815000	      2080	80002244	03c26a63	bltu	x4,x28,80002278	  x4:0x00000000 x28:0x00000000
       20825000	      2081	80002248	05fac263	blt	x21,x31,8000228c	 x21:0x00000000 x31:0x80009fc4
       20835000	      2082	8000224c	abdd1d37	lui	x26,0xabdd1	 x26=0xabdd1000
       20845000	      2083	80002250	014018b3	sll	x17,x0,x20	  x0:0x00000000 x20:0x80001f1c x17=0x00000000
       20855000	      2084	80002254	01b07c63	bgeu	x0,x27,8000226c	  x0:0x00000000 x27:0x80001f7c
       20865000	      2085	80002258	41b00f33	sub	x30,x0,x27	  x0:0x00000000 x27:0x80001f7c x30=0x7fffe084
       20875000	      2086	8000225c	01299db3	sll	x27,x19,x18	 x19:0x00000001 x18:0xa1c2509d x27=0x20000000
       20885000	      2087	80002260	00cb9693	slli	x13,x23,0xc	 x23:0x00000000 x13=0x00000000
       20895000	      2088	80002264	41fa80b3	sub	x1,x21,x31	 x21:0x00000000 x31:0x80009fc4  x1=0x7fff603c
       20905000	      2089	80002268	20eb8c93	addi	x25,x23,526	 x23:0x00000000 x25=0x0000020e
       20915000	      2090	8000226c	0db74263	blt	x14,x27,80002330	 x14:0x00000001 x27:0x20000000
       20925000	      2091	00000000	00000013	addi	x0,x0,0	  x0:0x00000000
       20935000	      2092	8000232c	00000013	addi	x0,x0,0	  x0:0x00000000
       20945000	      2093	80002330	018ad713	srli	x14,x21,0x18	 x21:0x00000000 x14=0x00000000
       20955000	      2094	80002334	003777b3	and	x15,x14,x3	 x14:0x00000000  x3:0x40000000 x15=0x00000000
       20965000	      2095	80002338	00afe533	or	x10,x31,x10	 x31:0x80009fc4 x10:0xfc00d16c x10=0xfc00dfec
       20975000	      2096	8000233c	71757093	andi	x1,x10,1815	 x10:0xfc00dfec  x1=0x00000704
       20985000	      2097	80002340	41e25633	sra	x12,x4,x30	  x4:0x00000000 x30:0x7fffe084 x12=0x00000000
       20995000	      2098	80002344	4121da93	srai	x21,x3,0x12	  x3:0x40000000 x21=0x00001000
       21005000	      2099	80002348	7e488d37	lui	x26,0x7e488	 x26=0x7e488000
       21015000	      2100	8000234c	f2ec6b13	ori	x22,x24,-210	 x24:0x80001f34 x22=0xffffff3e
       21025000	      2101	80002350	0000db13	srli	x22,x1,0x0	  x1:0x00000704 x22=0x00000704
       21035000	      2102	80002354	413ed0b3	sra	x1,x29,x19	 x29:0xfffffda9 x19:0x00000001  x1=0xfffffed4
       21045000	      2103	80002358	00346c63	bltu	x8,x3,80002370	  x8:0x000000d9  x3:0x40000000
       21055000	      2104	00000000	00000013	addi	x0,x0,0	  x0:0x00000000
       21065000	      2105	8000236c	00000013	addi	x0,x0,0	  x0:0x00000000
       21075000	      2106	80002370	0081c533	xor	x10,x3,x8	  x3:0x40000000  x8:0x000000d9 x10=0x400000d9
       21085000	      2107	80002374	05d30663	beq	x6,x29,800023c0	  x6:0x80001f64 x29:0xfffffda9
       21095000	      2108	80002378	005c6233	or	x4,x24,x5	 x24:0x80001f34  x5:0x80009fc4  x4=0x80009ff4
       21105000	      2109	8000237c	40e6d313	srai	x6,x13,0xe	 x13:0x00000000  x6=0x00000000
       21115000	      2110	80002380	01035a33	srl	x20,x6,x16	  x6:0x00000000 x16:0x00000001 x20=0x00000000
       21125000	      2111	80002384	006eceb3	xor	x29,x29,x6	 x29:0xfffffda9  x6:0x00000000 x29=0xfffffda9
       21135000	      2112	80002388	b81b3b13	sltiu	x22,x22,-1151	 x22:0x00000704 x22=0x00000001
       21145000	      2113	8000238c	5df60893	addi	x17,x12,1503	 x12:0x00000000 x17=0x000005df
       21155000	      2114	80002390	5b4aed93	ori	x27,x21,1460	 x21:0x00001000 x27=0x000015b4
       21165000	      2115	80002394	b43a2137	lui	x2,0xb43a2	  x2=0xb43a2000
       21175000	      2116	80002398	01c94e63	blt	x18,x28,800023b4	 x18:0xa1c2509d x28:0x00000000
       21185000	      2117	00000000	00000013	addi	x0,x0,0	  x0:0x00000000
       21195000	      2118	800023b0	00000013	addi	x0,x0,0	  x0:0x00000000
       21205000	      2119	800023b4	012a5c93	srli	x25,x20,0x12	 x20:0x00000000 x25=0x00000000
       21215000	      2120	800023b8	01005313	srli	x6,x0,0x10	  x0:0x00000000  x6=0x00000000
       21225000	      2121	800023bc	5a377713	andi	x14,x14,1443	 x14:0x00000000 x14=0x00000000
       21235000	      2122	800023c0	403e5113	srai	x2,x28,0x3	 x28:0x00000000  x2=0x00000000
       21245000	      2123	800023c4	40b55d93	srai	x27,x10,0xb	 x10:0x400000d9 x27=0x00080000
       21255000	      2124	800023c8	006fd493	srli	x9,x31,0x6	 x31:0x80009fc4  x9=0x0200027f
       21265000	      2125	800023cc	0030d3b3	srl	x7,x1,x3	  x1:0xfffffed4  x3:0x40000000  x7=0xfffffed4
       21275000	      2126	800023d0	03c15463	bge	x2,x28,800023f8	  x2:0x00000000 x28:0x00000000
       21285000	      2127	00000000	00000013	addi	x0,x0,0	  x0:0x00000000
       21295000	      2128	800023f4	00000013	addi	x0,x0,0	  x0:0x00000000
       21305000	      2129	800023f8	0061d7b3	srl	x15,x3,x6	  x3:0x40000000  x6:0x00000000 x15=0x40000000
       21315000	      2130	800023fc	020f4463	blt	x30,x0,80002424	 x30:0x7fffe084  x0:0x00000000
       21325000	      2131	80002400	01196f33	or	x30,x18,x17	 x18:0xa1c2509d x17:0x000005df x30=0xa1c255df
       21335000	      2132	80002404	19012413	slti	x8,x2,400	  x2:0x00000000  x8=0x00000001
       21345000	      2133	80002408	1813a793	slti	x15,x7,385	  x7:0xfffffed4 x15=0x00000001
       21355000	      2134	8000240c	93613913	sltiu	x18,x2,-1738	  x2:0x00000000 x18=0x00000001
       21365000	      2135	80002410	de3e2b17	auipc	x22,0xde3e2	 x22=0x5e3e440c
       21375000	      2136	80002414	00abc033	xor	x0,x23,x10	 x23:0x00000000 x10:0x400000d9
       21385000	      2137	80002418	1e414017	auipc	x0,0x1e414	
       21395000	      2138	8000241c	416b5bb3	sra	x23,x22,x22	 x22:0x5e3e440c x22:0x5e3e440c x23=0x0005e3e4
       21405000	      2139	80002420	af568613	addi	x12,x13,-1291	 x13:0x00000000 x12=0xfffffaf5
       21415000	      2140	80002424	95ae3393	sltiu	x7,x28,-1702	 x28:0x00000000  x7=0x00000001
       21425000	      2141	80002428	ab758613	addi	x12,x11,-1353	 x11:0x80009ed4 x12=0x8000998b
       21435000	      2142	8000242c	005fdb13	srli	x22,x31,0x5	 x31:0x80009fc4 x22=0x040004fe
       21445000	      2143	80002430	00e099b3	sll	x19,x1,x14	  x1:0xfffffed4 x14:0x00000000 x19=0xfffffed4
       21455000	      2144	80002434	408b8533	sub	x10,x23,x8	 x23:0x0005e3e4  x8:0x00000001 x10=0x0005e3e3
       21465000	      2145	80002438	05fcf863	bgeu	x25,x31,80002488	 x25:0x00000000 x31:0x80009fc4
       21475000	      2146	8000243c	3af83993	sltiu	x19,x16,943	 x16:0x00000001 x19=0x00000001
       21485000	      2147	80002440	003e5e63	bge	x28,x3,8000245c	 x28:0x00000000  x3:0x40000000
       21495000	      2148	80002444	02261663	bne	x12,x2,80002470	 x12:0x8000998b  x2:0x00000000
       21505000	      2149	00000000	00000013	addi	x0,x0,0	  x0:0x00000000
       21515000	      2150	8000246c	00000013	addi	x0,x0,0	  x0:0x00000000
       21525000	      2151	80002470	01cb54b3	srl	x9,x22,x28	 x22:0x040004fe x28:0x00000000  x9=0x040004fe
       21535000	      2152	80002474	349f8693	addi	x13,x31,841	 x31:0x80009fc4 x13=0x8000a30d
       21545000	      2153	80002478	016c9b13	slli	x22,x25,0x16	 x25:0x00000000 x22=0x00000000
       21555000	      2154	8000247c	006ef663	bgeu	x29,x6,80002488	 x29:0xfffffda9  x6:0x00000000
       21565000	      2155	00000000	00000013	addi	x0,x0,0	  x0:0x00000000
       21575000	      2156	80002484	00000013	addi	x0,x0,0	  x0:0x00000000
       21585000	      2157	80002488	0176c733	xor	x14,x13,x23	 x13:0x8000a30d x23:0x0005e3e4 x14=0x800540e9
       21595000	      2158	8000248c	75dcff93	andi	x31,x25,1885	 x25:0x00000000 x31=0x00000000
       21605000	      2159	80002490	01434db3	xor	x27,x6,x20	  x6:0x00000000 x20:0x00000000 x27=0x00000000
       21615000	      2160	80002494	1f166fb7	lui	x31,0x1f166	 x31=0x1f166000
       21625000	      2161	80002498	0463e263	bltu	x7,x6,800024dc	  x7:0x00000001  x6:0x00000000
       21635000	      2162	8000249c	06378693	addi	x13,x15,99	 x15:0x00000001 x13=0x00000064
       21645000	      2163	800024a0	01b15c93	srli	x25,x2,0x1b	  x2:0x00000000 x25=0x00000000
       21655000	      2164	800024a4	41565793	srai	x15,x12,0x15	 x12:0x8000998b x15=0xfffffc00
       21665000	      2165	800024a8	f9b36f13	ori	x30,x6,-101	  x6:0x00000000 x30=0xffffff9b
       21675000	      2166	800024ac	00df4fb3	xor	x31,x30,x13	 x30:0xffffff9b x13:0x00000064 x31=0xffffffff
       21685000	      2167	800024b0	761508b7	lui	x17,0x76150	 x17=0x76150000
       21695000	      2168	800024b4	7bfe6493	ori	x9,x28,1983	 x28:0x00000000  x9=0x000007bf
       21705000	      2169	800024b8	26dbfd93	andi	x27,x23,621	 x23:0x0005e3e4 x27=0x00000264
       21715000	      2170	800024bc	01ddf463	bgeu	x27,x29,800024c4	 x27:0x00000264 x29:0xfffffda9
       21725000	      2171	800024c0	01af5f13	srli	x30,x30,0x1a	 x30:0xffffff9b x30=0x0000003f
       21735000	      2172	800024c4	04691063	bne	x18,x6,80002504	 x18:0x00000001  x6:0x00000000
       21745000	      2173	00000000	00000013	addi	x0,x0,0	  x0:0x00000000
       21755000	      2174	80002500	00000013	addi	x0,x0,0	  x0:0x00000000
       21765000	      2175	80002504	8c68b413	sltiu	x8,x17,-1850	 x17:0x76150000  x8=0x00000001
       21775000	      2176	80002508	01349913	slli	x18,x9,0x13	  x9:0x000007bf x18=0x3df80000
       21785000	      2177	8000250c	c04ccc93	xori	x25,x25,-1020	 x25:0x00000000 x25=0xfffffc04
       21795000	      2178	80002510	26e4e493	ori	x9,x9,622	  x9:0x000007bf  x9=0x000007ff
       21805000	      2179	80002514	6f910093	addi	x1,x2,1785	  x2:0x00000000  x1=0x000006f9
       21815000	      2180	80002518	01d1d693	srli	x13,x3,0x1d	  x3:0x40000000 x13=0x00000002
       21825000	      2181	8000251c	4112d333	sra	x6,x5,x17	  x5:0x80009fc4 x17:0x76150000  x6=0x80009fc4
       21835000	      2182	80002520	672fe737	lui	x14,0x672fe	 x14=0x672fe000
       21845000	      2183	80002524	0352e663	bltu	x5,x21,80002550	  x5:0x80009fc4 x21:0x00001000
       21855000	      2184	80002528	a6c1c693	xori	x13,x3,-1428	  x3:0x40000000 x13=0xbffffa6c
       21865000	      2185	8000252c	407fd193	srai	x3,x31,0x7	 x31:0xffffffff  x3=0xffffffff
       21875000	      2186	80002530	b22c3d37	lui	x26,0xb22c3	 x26=0xb22c3000
       21885000	      2187	80002534	00047db3	and	x27,x8,x0	  x8:0x00000001  x0:0x00000000 x27=0x00000000
       21895000	      2188	80002538	01b73cb3	sltu	x25,x14,x27	 x14:0x672fe000 x27:0x00000000 x25=0x00000000
       21905000	      2189	8000253c	00688db3	add	x27,x17,x6	 x17:0x76150000  x6:0x80009fc4 x27=0xf6159fc4
       21915000	      2190	80002540	000c5993	srli	x19,x24,0x0	 x24:0x80001f34 x19=0x80001f34
       21925000	      2191	80002544	e6134213	xori	x4,x6,-415	  x6:0x80009fc4  x4=0x7fff61a5
       21935000	      2192	80002548	00801933	sll	x18,x0,x8	  x0:0x00000000  x8:0x00000001 x18=0x00000000
       21945000	      2193	8000254c	802c8e93	addi	x29,x25,-2046	 x25:0x00000000 x29=0xfffff802
       21955000	      2194	80002550	64d07393	andi	x7,x0,1613	  x0:0x00000000  x7=0x00000000
       21965000	      2195	80002554	2ce54693	xori	x13,x10,718	 x10:0x0005e3e3 x13=0x0005e12d
       21975000	      2196	80002558	008b1913	slli	x18,x22,0x8	 x22:0x00000000 x18=0x00000000
       21985000	      2197	8000255c	0255f263	bgeu	x11,x5,80002580	 x11:0x80009ed4  x5:0x80009fc4
       21995000	      2198	80002560	005c7c63	bgeu	x24,x5,80002578	 x24:0x80001f34  x5:0x80009fc4
       22005000	      2199	80002564	f54cf913	andi	x18,x25,-172	 x25:0x00000000 x18=0x00000000
       22015000	      2200	80002568	01e75e93	srli	x29,x14,0x1e	 x14:0x672fe000 x29=0x00000001
       22025000	      2201	8000256c	00a9f333	and	x6,x19,x10	 x19:0x80001f34 x10:0x0005e3e3  x6=0x00000320
       22035000	      2202	80002570	40228433	sub	x8,x5,x2	  x5:0x80009fc4  x2:0x00000000  x8=0x80009fc4
       22045000	      2203	80002574	0026a9b3	slt	x19,x13,x2	 x13:0x0005e12d  x2:0x00000000 x19=0x00000000
       22055000	      2204	80002578	01e477b3	and	x15,x8,x30	  x8:0x80009fc4 x30:0x0000003f x15=0x00000004
       22065000	      2205	8000257c	41675993	srai	x19,x14,0x16	 x14:0x672fe000 x19=0x0000019c
       22075000	      2206	80002580	70962493	slti	x9,x12,1801	 x12:0x8000998b  x9=0x00000001
       22085000	      2207	80002584	4f44b413	sltiu	x8,x9,1268	  x9:0x00000001  x8=0x00000001
       22095000	      2208	80002588	01850133	add	x2,x10,x24	 x10:0x0005e3e3 x24:0x80001f34  x2=0x80060317
       22105000	      2209	8000258c	1dbf2713	slti	x14,x30,475	 x30:0x0000003f x14=0x00000001
       22115000	      2210	80002590	3a8e6a93	ori	x21,x28,936	 x28:0x00000000 x21=0x000003a8
       22125000	      2211	80002594	00507663	bgeu	x0,x5,800025a0	  x0:0x00000000  x5:0x80009fc4
       22135000	      2212	80002598	8d7f6e93	ori	x29,x30,-1833	 x30:0x0000003f x29=0xfffff8ff
       22145000	      2213	8000259c	000598b3	sll	x17,x11,x0	 x11:0x80009ed4  x0:0x00000000 x17=0x80009ed4
       22155000	      2214	800025a0	01980533	add	x10,x16,x25	 x16:0x00000001 x25:0x00000000 x10=0x00000001
       22165000	      2215	800025a4	c2744f13	xori	x30,x8,-985	  x8:0x00000001 x30=0xfffffc26
       22175000	      2216	800025a8	00c21eb3	sll	x29,x4,x12	  x4:0x7fff61a5 x12:0x8000998b x29=0xfb0d2800
       22185000	      2217	800025ac	00bcd493	srli	x9,x25,0xb	 x25:0x00000000  x9=0x00000000
       22195000	      2218	800025b0	01211633	sll	x12,x2,x18	  x2:0x80060317 x18:0x00000000 x12=0x80060317
       22205000	      2219	800025b4	d1c09617	auipc	x12,0xd1c09	 x12=0x51c0b5b0
       22215000	      2220	800025b8	8339c393	xori	x7,x19,-1997	 x19:0x0000019c  x7=0xfffff9af
       22225000	      2221	800025bc	00000013	addi	x0,x0,0	  x0:0x00000000
       22235000	      2222	800025c0	009cb1b3	sltu	x3,x25,x9	 x25:0x00000000  x9:0x00000000  x3=0x00000000
       22245000	      2223	800025c4	035ae463	bltu	x21,x21,800025ec	 x21:0x000003a8 x21:0x000003a8
       22255000	      2224	800025c8	011cde93	srli	x29,x25,0x11	 x25:0x00000000 x29=0x00000000
       22265000	      2225	800025cc	01e51c63	bne	x10,x30,800025e4	 x10:0x00000001 x30:0xfffffc26
       22275000	      2226	00000000	00000013	addi	x0,x0,0	  x0:0x00000000
       22285000	      2227	800025e0	00000013	addi	x0,x0,0	  x0:0x00000000
       22295000	      2228	800025e4	02d95663	bge	x18,x13,80002610	 x18:0x00000000 x13:0x0005e12d
       22305000	      2229	800025e8	0bfb0e63	beq	x22,x31,800026a4	 x22:0x00000000 x31:0xffffffff
       22315000	      2230	800025ec	007b3cb3	sltu	x25,x22,x7	 x22:0x00000000  x7:0xfffff9af x25=0x00000001
       22325000	      2231	800025f0	0068ce63	blt	x17,x6,8000260c	 x17:0x80009ed4  x6:0x00000320
       22335000	      2232	00000000	00000013	addi	x0,x0,0	  x0:0x00000000
       22345000	      2233	80002608	00000013	addi	x0,x0,0	  x0:0x00000000
       22355000	      2234	8000260c	41445493	srai	x9,x8,0x14	  x8:0x00000001  x9=0x00000000
       22365000	      2235	80002610	bb327093	andi	x1,x4,-1101	  x4:0x7fff61a5  x1=0x7fff61a1
       22375000	      2236	80002614	0b154863	blt	x10,x17,800026c4	 x10:0x00000001 x17:0x80009ed4
       22385000	      2237	80002618	40ecb013	sltiu	x0,x25,1038	 x25:0x00000001
       22395000	      2238	8000261c	41cf0f33	sub	x30,x30,x28	 x30:0xfffffc26 x28:0x00000000 x30=0xfffffc26
       22405000	      2239	80002620	01e78d33	add	x26,x15,x30	 x15:0x00000004 x30:0xfffffc26 x26=0xfffffc2a
       22415000	      2240	80002624	074f0c63	beq	x30,x20,8000269c	 x30:0xfffffc26 x20:0x00000000
       22425000	      2241	80002628	0040016f	jal	x2,80002628	  x2=0x80002628
       22435000	      2242	00000000	00000013	addi	x0,x0,0	  x0:0x00000000
       22445000	      2243	80002628	00000013	addi	x0,x0,0	  x0:0x00000000
       22455000	      2244	8000262c	04c000ef	jal	x1,8000262c	  x1=0x8000262c
       22465000	      2245	00000000	00000013	addi	x0,x0,0	  x0:0x00000000
       22475000	      2246	80002674	00000013	addi	x0,x0,0	  x0:0x00000000
       22485000	      2247	80002678	fddff76f	jal	x14,80002678	 x14=0x80002678
       22495000	      2248	00000000	00000013	addi	x0,x0,0	  x0:0x00000000
       22505000	      2249	80002650	00000013	addi	x0,x0,0	  x0:0x00000000
       22515000	      2250	80002654	02c0026f	jal	x4,80002654	  x4=0x80002654
       22525000	      2251	00000000	00000013	addi	x0,x0,0	  x0:0x00000000
       22535000	      2252	8000267c	00000013	addi	x0,x0,0	  x0:0x00000000
       22545000	      2253	80002680	fbdffd6f	jal	x26,80002680	 x26=0x80002680
       22555000	      2254	00000000	00000013	addi	x0,x0,0	  x0:0x00000000
       22565000	      2255	80002638	00000013	addi	x0,x0,0	  x0:0x00000000
       22575000	      2256	8000263c	04c0036f	jal	x6,8000263c	  x6=0x8000263c
       22585000	      2257	00000000	00000013	addi	x0,x0,0	  x0:0x00000000
       22595000	      2258	80002684	00000013	addi	x0,x0,0	  x0:0x00000000
       22605000	      2259	80002688	fe9ff36f	jal	x6,80002688	  x6=0x80002688
       22615000	      2260	00000000	00000013	addi	x0,x0,0	  x0:0x00000000
       22625000	      2261	8000266c	00000013	addi	x0,x0,0	  x0:0x00000000
       22635000	      2262	80002670	014000ef	jal	x1,80002670	  x1=0x80002670
       22645000	      2263	00000000	00000013	addi	x0,x0,0	  x0:0x00000000
       22655000	      2264	80002680	00000013	addi	x0,x0,0	  x0:0x00000000
       22665000	      2265	80002684	fe9ff36f	jal	x6,80002684	  x6=0x80002684
       22675000	      2266	00000000	00000013	addi	x0,x0,0	  x0:0x00000000
       22685000	      2267	80002668	00000013	addi	x0,x0,0	  x0:0x00000000
       22695000	      2268	8000266c	ff9ff0ef	jal	x1,8000266c	  x1=0x8000266c
       22705000	      2269	00000000	00000013	addi	x0,x0,0	  x0:0x00000000
       22715000	      2270	80002660	00000013	addi	x0,x0,0	  x0:0x00000000
       22725000	      2271	80002664	fddff0ef	jal	x1,80002664	  x1=0x80002664
       22735000	      2272	00000000	00000013	addi	x0,x0,0	  x0:0x00000000
       22745000	      2273	8000263c	00000013	addi	x0,x0,0	  x0:0x00000000
       22755000	      2274	80002640	00c000ef	jal	x1,80002640	  x1=0x80002640
       22765000	      2275	00000000	00000013	addi	x0,x0,0	  x0:0x00000000
       22775000	      2276	80002648	00000013	addi	x0,x0,0	  x0:0x00000000
       22785000	      2277	8000264c	014000ef	jal	x1,8000264c	  x1=0x8000264c
       22795000	      2278	00000000	00000013	addi	x0,x0,0	  x0:0x00000000
       22805000	      2279	8000265c	00000013	addi	x0,x0,0	  x0:0x00000000
       22815000	      2280	80002660	fd9ff0ef	jal	x1,80002660	  x1=0x80002660
       22825000	      2281	00000000	00000013	addi	x0,x0,0	  x0:0x00000000
       22835000	      2282	80002634	00000013	addi	x0,x0,0	  x0:0x00000000
       22845000	      2283	80002638	03c0086f	jal	x16,80002638	 x16=0x80002638
       22855000	      2284	00000000	00000013	addi	x0,x0,0	  x0:0x00000000
       22865000	      2285	80002670	00000013	addi	x0,x0,0	  x0:0x00000000
       22875000	      2286	80002674	008000ef	jal	x1,80002674	  x1=0x80002674
       22885000	      2287	00000000	00000013	addi	x0,x0,0	  x0:0x00000000
       22895000	      2288	80002678	00000013	addi	x0,x0,0	  x0:0x00000000
       22905000	      2289	8000267c	fc9ff16f	jal	x2,8000267c	  x2=0x8000267c
       22915000	      2290	00000000	00000013	addi	x0,x0,0	  x0:0x00000000
       22925000	      2291	80002640	00000013	addi	x0,x0,0	  x0:0x00000000
       22935000	      2292	80002644	014000ef	jal	x1,80002644	  x1=0x80002644
       22945000	      2293	00000000	00000013	addi	x0,x0,0	  x0:0x00000000
       22955000	      2294	80002654	00000013	addi	x0,x0,0	  x0:0x00000000
       22965000	      2295	80002658	038000ef	jal	x1,80002658	  x1=0x80002658
       22975000	      2296	00000000	00000013	addi	x0,x0,0	  x0:0x00000000
       22985000	      2297	8000268c	00000013	addi	x0,x0,0	  x0:0x00000000
       22995000	      2298	80002690	fc1ff1ef	jal	x3,80002690	  x3=0x80002690
       23005000	      2299	00000000	00000013	addi	x0,x0,0	  x0:0x00000000
       23015000	      2300	8000264c	00000013	addi	x0,x0,0	  x0:0x00000000
       23025000	      2301	80002650	0180036f	jal	x6,80002650	  x6=0x80002650
       23035000	      2302	00000000	00000013	addi	x0,x0,0	  x0:0x00000000
       23045000	      2303	80002664	00000013	addi	x0,x0,0	  x0:0x00000000
       23055000	      2304	80002668	fe1ff0ef	jal	x1,80002668	  x1=0x80002668
       23065000	      2305	00000000	00000013	addi	x0,x0,0	  x0:0x00000000
       23075000	      2306	80002644	00000013	addi	x0,x0,0	  x0:0x00000000
       23085000	      2307	80002648	014000ef	jal	x1,80002648	  x1=0x80002648
       23095000	      2308	00000000	00000013	addi	x0,x0,0	  x0:0x00000000
       23105000	      2309	80002658	00000013	addi	x0,x0,0	  x0:0x00000000
       23115000	      2310	8000265c	03000a6f	jal	x20,8000265c	 x20=0x8000265c
       23125000	      2311	00000000	00000013	addi	x0,x0,0	  x0:0x00000000
       23135000	      2312	80002688	00000013	addi	x0,x0,0	  x0:0x00000000
       23145000	      2313	8000268c	fa5ff0ef	jal	x1,8000268c	  x1=0x8000268c
       23155000	      2314	00000000	00000013	addi	x0,x0,0	  x0:0x00000000
       23165000	      2315	8000262c	00000013	addi	x0,x0,0	  x0:0x00000000
       23175000	      2316	80002630	004000ef	jal	x1,80002630	  x1=0x80002630
       23185000	      2317	00000000	00000013	addi	x0,x0,0	  x0:0x00000000
       23195000	      2318	80002630	00000013	addi	x0,x0,0	  x0:0x00000000
       23205000	      2319	80002634	060000ef	jal	x1,80002634	  x1=0x80002634
       23215000	      2320	00000000	00000013	addi	x0,x0,0	  x0:0x00000000
       23225000	      2321	80002690	00000013	addi	x0,x0,0	  x0:0x00000000
       23235000	      2322	80002694	94897a13	andi	x20,x18,-1720	 x18:0x00000000 x20=0x00000000
       23245000	      2323	80002698	02cfe063	bltu	x31,x12,800026b8	 x31:0xffffffff x12:0x51c0b5b0
       23255000	      2324	8000269c	00941993	slli	x19,x8,0x9	  x8:0x00000001 x19=0x00000200
       23265000	      2325	800026a0	040dd863	bge	x27,x0,800026f0	 x27:0xf6159fc4  x0:0x00000000
       23275000	      2326	800026a4	0ac13a37	lui	x20,0xac13	 x20=0x0ac13000
       23285000	      2327	800026a8	011d98b3	sll	x17,x27,x17	 x27:0xf6159fc4 x17:0x80009ed4 x17=0xfc400000
       23295000	      2328	800026ac	00000013	addi	x0,x0,0	  x0:0x00000000
       23305000	      2329	800026b0	05184263	blt	x16,x17,800026f4	 x16:0x80002638 x17:0xfc400000
       23315000	      2330	00000000	00000013	addi	x0,x0,0	  x0:0x00000000
       23325000	      2331	800026f0	00000013	addi	x0,x0,0	  x0:0x00000000
       23335000	      2332	800026f4	03bb9663	bne	x23,x27,80002720	 x23:0x0005e3e4 x27:0xf6159fc4
       23345000	      2333	00000000	00000013	addi	x0,x0,0	  x0:0x00000000
       23355000	      2334	8000271c	00000013	addi	x0,x0,0	  x0:0x00000000
       23365000	      2335	80002720	006afdb3	and	x27,x21,x6	 x21:0x000003a8  x6:0x80002650 x27=0x00000200
       23375000	      2336	80002724	e9d7e493	ori	x9,x15,-355	 x15:0x00000004  x9=0xfffffe9d
       23385000	      2337	80002728	0045a103	lw	x2,4(x11)	 x11:0x80009ed4  x2=0x80002798 PA:0x80009ed8
       23395000	      2338	00000000	00000013	addi	x0,x0,0	  x0:0x00000000
       23405000	      2339	8000272c	c3010313	addi	x6,x2,-976	  x2:0x80002798  x6=0x800023c8
       23415000	      2340	80002730	04058593	addi	x11,x11,64	 x11:0x80009ed4 x11=0x80009f14
       23425000	      2341	80002734	17206613	ori	x12,x0,370	  x0:0x00000000 x12=0x00000172
       23435000	      2342	80002738	0085beb3	sltu	x29,x11,x8	 x11:0x80009f14  x8:0x00000001 x29=0x00000000
       23445000	      2343	8000273c	015c9eb3	sll	x29,x25,x21	 x25:0x00000001 x21:0x000003a8 x29=0x00000100
       23455000	      2344	80002740	00110113	addi	x2,x2,1	  x2:0x80002798  x2=0x80002799
       23465000	      2345	80002744	00010167	jalr	x2,x2,0	  x2:0x80002799  x2=0x80002744
       23475000	      2346	00000000	00000013	addi	x0,x0,0	  x0:0x00000000
       23485000	      2347	80002798	00000013	addi	x0,x0,0	  x0:0x00000000
       23495000	      2348	8000279c	03c0016f	jal	x2,8000279c	  x2=0x8000279c
       23505000	      2349	00000000	00000013	addi	x0,x0,0	  x0:0x00000000
       23515000	      2350	800027d4	00000013	addi	x0,x0,0	  x0:0x00000000
       23525000	      2351	800027d8	fd1ffdef	jal	x27,800027d8	 x27=0x800027d8
       23535000	      2352	00000000	00000013	addi	x0,x0,0	  x0:0x00000000
       23545000	      2353	800027a4	00000013	addi	x0,x0,0	  x0:0x00000000
       23555000	      2354	800027a8	05c0036f	jal	x6,800027a8	  x6=0x800027a8
       23565000	      2355	00000000	00000013	addi	x0,x0,0	  x0:0x00000000
       23575000	      2356	80002800	00000013	addi	x0,x0,0	  x0:0x00000000
       23585000	      2357	80002804	fc5ff36f	jal	x6,80002804	  x6=0x80002804
       23595000	      2358	00000000	00000013	addi	x0,x0,0	  x0:0x00000000
       23605000	      2359	800027c4	00000013	addi	x0,x0,0	  x0:0x00000000
       23615000	      2360	800027c8	fedffa6f	jal	x20,800027c8	 x20=0x800027c8
       23625000	      2361	00000000	00000013	addi	x0,x0,0	  x0:0x00000000
       23635000	      2362	800027b0	00000013	addi	x0,x0,0	  x0:0x00000000
       23645000	      2363	800027b4	04c0036f	jal	x6,800027b4	  x6=0x800027b4
       23655000	      2364	00000000	00000013	addi	x0,x0,0	  x0:0x00000000
       23665000	      2365	800027fc	00000013	addi	x0,x0,0	  x0:0x00000000
       23675000	      2366	80002800	fd1ff0ef	jal	x1,80002800	  x1=0x80002800
       23685000	      2367	00000000	00000013	addi	x0,x0,0	  x0:0x00000000
       23695000	      2368	800027cc	00000013	addi	x0,x0,0	  x0:0x00000000
       23705000	      2369	800027d0	01c000ef	jal	x1,800027d0	  x1=0x800027d0
       23715000	      2370	00000000	00000013	addi	x0,x0,0	  x0:0x00000000
       23725000	      2371	800027e8	00000013	addi	x0,x0,0	  x0:0x00000000
       23735000	      2372	800027ec	ff9ff36f	jal	x6,800027ec	  x6=0x800027ec
       23745000	      2373	00000000	00000013	addi	x0,x0,0	  x0:0x00000000
       23755000	      2374	800027e0	00000013	addi	x0,x0,0	  x0:0x00000000
       23765000	      2375	800027e4	004000ef	jal	x1,800027e4	  x1=0x800027e4
       23775000	      2376	00000000	00000013	addi	x0,x0,0	  x0:0x00000000
       23785000	      2377	800027e4	00000013	addi	x0,x0,0	  x0:0x00000000
       23795000	      2378	800027e8	fd5ff0ef	jal	x1,800027e8	  x1=0x800027e8
       23805000	      2379	00000000	00000013	addi	x0,x0,0	  x0:0x00000000
       23815000	      2380	800027b8	00000013	addi	x0,x0,0	  x0:0x00000000
       23825000	      2381	800027bc	034001ef	jal	x3,800027bc	  x3=0x800027bc
       23835000	      2382	00000000	00000013	addi	x0,x0,0	  x0:0x00000000
       23845000	      2383	800027ec	00000013	addi	x0,x0,0	  x0:0x00000000
       23855000	      2384	800027f0	0180016f	jal	x2,800027f0	  x2=0x800027f0
       23865000	      2385	00000000	00000013	addi	x0,x0,0	  x0:0x00000000
       23875000	      2386	80002804	00000013	addi	x0,x0,0	  x0:0x00000000
       23885000	      2387	80002808	fa5ff7ef	jal	x15,80002808	 x15=0x80002808
       23895000	      2388	00000000	00000013	addi	x0,x0,0	  x0:0x00000000
       23905000	      2389	800027a8	00000013	addi	x0,x0,0	  x0:0x00000000
       23915000	      2390	800027ac	004000ef	jal	x1,800027ac	  x1=0x800027ac
       23925000	      2391	00000000	00000013	addi	x0,x0,0	  x0:0x00000000
       23935000	      2392	800027ac	00000013	addi	x0,x0,0	  x0:0x00000000
       23945000	      2393	800027b0	0080046f	jal	x8,800027b0	  x8=0x800027b0
       23955000	      2394	00000000	00000013	addi	x0,x0,0	  x0:0x00000000
       23965000	      2395	800027b4	00000013	addi	x0,x0,0	  x0:0x00000000
       23975000	      2396	800027b8	028001ef	jal	x3,800027b8	  x3=0x800027b8
       23985000	      2397	00000000	00000013	addi	x0,x0,0	  x0:0x00000000
       23995000	      2398	800027dc	00000013	addi	x0,x0,0	  x0:0x00000000
       24005000	      2399	800027e0	014001ef	jal	x3,800027e0	  x3=0x800027e0
       24015000	      2400	00000000	00000013	addi	x0,x0,0	  x0:0x00000000
       24025000	      2401	800027f0	00000013	addi	x0,x0,0	  x0:0x00000000
       24035000	      2402	800027f4	fcdff1ef	jal	x3,800027f4	  x3=0x800027f4
       24045000	      2403	00000000	00000013	addi	x0,x0,0	  x0:0x00000000
       24055000	      2404	800027bc	00000013	addi	x0,x0,0	  x0:0x00000000
       24065000	      2405	800027c0	00c000ef	jal	x1,800027c0	  x1=0x800027c0
       24075000	      2406	00000000	00000013	addi	x0,x0,0	  x0:0x00000000
       24085000	      2407	800027c8	00000013	addi	x0,x0,0	  x0:0x00000000
       24095000	      2408	800027cc	ff9ff76f	jal	x14,800027cc	 x14=0x800027cc
       24105000	      2409	00000000	00000013	addi	x0,x0,0	  x0:0x00000000
       24115000	      2410	800027c0	00000013	addi	x0,x0,0	  x0:0x00000000
       24125000	      2411	800027c4	010000ef	jal	x1,800027c4	  x1=0x800027c4
       24135000	      2412	00000000	00000013	addi	x0,x0,0	  x0:0x00000000
       24145000	      2413	800027d0	00000013	addi	x0,x0,0	  x0:0x00000000
       24155000	      2414	800027d4	fcdff36f	jal	x6,800027d4	  x6=0x800027d4
       24165000	      2415	00000000	00000013	addi	x0,x0,0	  x0:0x00000000
       24175000	      2416	8000279c	00000013	addi	x0,x0,0	  x0:0x00000000
       24185000	      2417	800027a0	05c00c6f	jal	x24,800027a0	 x24=0x800027a0
       24195000	      2418	00000000	00000013	addi	x0,x0,0	  x0:0x00000000
       24205000	      2419	800027f8	00000013	addi	x0,x0,0	  x0:0x00000000
       24215000	      2420	800027fc	ffdff36f	jal	x6,800027fc	  x6=0x800027fc
       24225000	      2421	00000000	00000013	addi	x0,x0,0	  x0:0x00000000
       24235000	      2422	800027f4	00000013	addi	x0,x0,0	  x0:0x00000000
       24245000	      2423	800027f8	fe5ff0ef	jal	x1,800027f8	  x1=0x800027f8
       24255000	      2424	00000000	00000013	addi	x0,x0,0	  x0:0x00000000
       24265000	      2425	800027d8	00000013	addi	x0,x0,0	  x0:0x00000000
       24275000	      2426	800027dc	fc9ff26f	jal	x4,800027dc	  x4=0x800027dc
       24285000	      2427	00000000	00000013	addi	x0,x0,0	  x0:0x00000000
       24295000	      2428	800027a0	00000013	addi	x0,x0,0	  x0:0x00000000
       24305000	      2429	800027a4	068000ef	jal	x1,800027a4	  x1=0x800027a4
       24315000	      2430	00000000	00000013	addi	x0,x0,0	  x0:0x00000000
       24325000	      2431	80002808	00000013	addi	x0,x0,0	  x0:0x00000000
       24335000	      2432	8000280c	01654f33	xor	x30,x10,x22	 x10:0x00000001 x22:0x00000000 x30=0x00000001
       24345000	      2433	80002810	0340016f	jal	x2,80002810	  x2=0x80002810
       24355000	      2434	00000000	00000013	addi	x0,x0,0	  x0:0x00000000
       24365000	      2435	80002840	00000013	addi	x0,x0,0	  x0:0x00000000
       24375000	      2436	80002844	0280026f	jal	x4,80002844	  x4=0x80002844
       24385000	      2437	00000000	00000013	addi	x0,x0,0	  x0:0x00000000
       24395000	      2438	80002868	00000013	addi	x0,x0,0	  x0:0x00000000
       24405000	      2439	8000286c	fb1ff36f	jal	x6,8000286c	  x6=0x8000286c
       24415000	      2440	00000000	00000013	addi	x0,x0,0	  x0:0x00000000
       24425000	      2441	80002818	00000013	addi	x0,x0,0	  x0:0x00000000
       24435000	      2442	8000281c	01c000ef	jal	x1,8000281c	  x1=0x8000281c
       24445000	      2443	00000000	00000013	addi	x0,x0,0	  x0:0x00000000
       24455000	      2444	80002834	00000013	addi	x0,x0,0	  x0:0x00000000
       24465000	      2445	80002838	010000ef	jal	x1,80002838	  x1=0x80002838
       24475000	      2446	00000000	00000013	addi	x0,x0,0	  x0:0x00000000
       24485000	      2447	80002844	00000013	addi	x0,x0,0	  x0:0x00000000
       24495000	      2448	80002848	fedff36f	jal	x6,80002848	  x6=0x80002848
       24505000	      2449	00000000	00000013	addi	x0,x0,0	  x0:0x00000000
       24515000	      2450	80002830	00000013	addi	x0,x0,0	  x0:0x00000000
       24525000	      2451	80002834	0200036f	jal	x6,80002834	  x6=0x80002834
       24535000	      2452	00000000	00000013	addi	x0,x0,0	  x0:0x00000000
       24545000	      2453	80002850	00000013	addi	x0,x0,0	  x0:0x00000000
       24555000	      2454	80002854	008006ef	jal	x13,80002854	 x13=0x80002854
       24565000	      2455	00000000	00000013	addi	x0,x0,0	  x0:0x00000000
       24575000	      2456	80002858	00000013	addi	x0,x0,0	  x0:0x00000000
       24585000	      2457	8000285c	fd5ff0ef	jal	x1,8000285c	  x1=0x8000285c
       24595000	      2458	00000000	00000013	addi	x0,x0,0	  x0:0x00000000
       24605000	      2459	8000282c	00000013	addi	x0,x0,0	  x0:0x00000000
       24615000	      2460	80002830	ffdff0ef	jal	x1,80002830	  x1=0x80002830
       24625000	      2461	00000000	00000013	addi	x0,x0,0	  x0:0x00000000
       24635000	      2462	80002828	00000013	addi	x0,x0,0	  x0:0x00000000
       24645000	      2463	8000282c	ffdff56f	jal	x10,8000282c	 x10=0x8000282c
       24655000	      2464	00000000	00000013	addi	x0,x0,0	  x0:0x00000000
       24665000	      2465	80002824	00000013	addi	x0,x0,0	  x0:0x00000000
       24675000	      2466	80002828	024000ef	jal	x1,80002828	  x1=0x80002828
       24685000	      2467	00000000	00000013	addi	x0,x0,0	  x0:0x00000000
       24695000	      2468	80002848	00000013	addi	x0,x0,0	  x0:0x00000000
       24705000	      2469	8000284c	00c000ef	jal	x1,8000284c	  x1=0x8000284c
       24715000	      2470	00000000	00000013	addi	x0,x0,0	  x0:0x00000000
       24725000	      2471	80002854	00000013	addi	x0,x0,0	  x0:0x00000000
       24735000	      2472	80002858	01c000ef	jal	x1,80002858	  x1=0x80002858
       24745000	      2473	00000000	00000013	addi	x0,x0,0	  x0:0x00000000
       24755000	      2474	80002870	00000013	addi	x0,x0,0	  x0:0x00000000
       24765000	      2475	80002874	ff5ff0ef	jal	x1,80002874	  x1=0x80002874
       24775000	      2476	00000000	00000013	addi	x0,x0,0	  x0:0x00000000
       24785000	      2477	80002864	00000013	addi	x0,x0,0	  x0:0x00000000
       24795000	      2478	80002868	0080026f	jal	x4,80002868	  x4=0x80002868
       24805000	      2479	00000000	00000013	addi	x0,x0,0	  x0:0x00000000
       24815000	      2480	8000286c	00000013	addi	x0,x0,0	  x0:0x00000000
       24825000	      2481	80002870	fa5ff7ef	jal	x15,80002870	 x15=0x80002870
       24835000	      2482	00000000	00000013	addi	x0,x0,0	  x0:0x00000000
       24845000	      2483	80002810	00000013	addi	x0,x0,0	  x0:0x00000000
       24855000	      2484	80002814	02c00def	jal	x27,80002814	 x27=0x80002814
       24865000	      2485	00000000	00000013	addi	x0,x0,0	  x0:0x00000000
       24875000	      2486	8000283c	00000013	addi	x0,x0,0	  x0:0x00000000
       24885000	      2487	80002840	020000ef	jal	x1,80002840	  x1=0x80002840
       24895000	      2488	00000000	00000013	addi	x0,x0,0	  x0:0x00000000
       24905000	      2489	8000285c	00000013	addi	x0,x0,0	  x0:0x00000000
       24915000	      2490	80002860	fc5ff1ef	jal	x3,80002860	  x3=0x80002860
       24925000	      2491	00000000	00000013	addi	x0,x0,0	  x0:0x00000000
       24935000	      2492	80002820	00000013	addi	x0,x0,0	  x0:0x00000000
       24945000	      2493	80002824	02c0016f	jal	x2,80002824	  x2=0x80002824
       24955000	      2494	00000000	00000013	addi	x0,x0,0	  x0:0x00000000
       24965000	      2495	8000284c	00000013	addi	x0,x0,0	  x0:0x00000000
       24975000	      2496	80002850	fd1ff26f	jal	x4,80002850	  x4=0x80002850
       24985000	      2497	00000000	00000013	addi	x0,x0,0	  x0:0x00000000
       24995000	      2498	8000281c	00000013	addi	x0,x0,0	  x0:0x00000000
       25005000	      2499	80002820	044000ef	jal	x1,80002820	  x1=0x80002820
       25015000	      2500	00000000	00000013	addi	x0,x0,0	  x0:0x00000000
       25025000	      2501	80002860	00000013	addi	x0,x0,0	  x0:0x00000000
       25035000	      2502	80002864	fb5ff16f	jal	x2,80002864	  x2=0x80002864
       25045000	      2503	00000000	00000013	addi	x0,x0,0	  x0:0x00000000
       25055000	      2504	80002814	00000013	addi	x0,x0,0	  x0:0x00000000
       25065000	      2505	80002818	024000ef	jal	x1,80002818	  x1=0x80002818
       25075000	      2506	00000000	00000013	addi	x0,x0,0	  x0:0x00000000
       25085000	      2507	80002838	00000013	addi	x0,x0,0	  x0:0x00000000
       25095000	      2508	8000283c	03c0036f	jal	x6,8000283c	  x6=0x8000283c
       25105000	      2509	00000000	00000013	addi	x0,x0,0	  x0:0x00000000
       25115000	      2510	80002874	00000013	addi	x0,x0,0	  x0:0x00000000
       25125000	      2511	80002878	01e43fb3	sltu	x31,x8,x30	  x8:0x800027b0 x30:0x00000001 x31=0x00000000
       25135000	      2512	8000287c	0300016f	jal	x2,8000287c	  x2=0x8000287c
       25145000	      2513	00000000	00000013	addi	x0,x0,0	  x0:0x00000000
       25155000	      2514	800028a8	00000013	addi	x0,x0,0	  x0:0x00000000
       25165000	      2515	800028ac	fd5ff36f	jal	x6,800028ac	  x6=0x800028ac
       25175000	      2516	00000000	00000013	addi	x0,x0,0	  x0:0x00000000
       25185000	      2517	8000287c	00000013	addi	x0,x0,0	  x0:0x00000000
       25195000	      2518	80002880	0140036f	jal	x6,80002880	  x6=0x80002880
       25205000	      2519	00000000	00000013	addi	x0,x0,0	  x0:0x00000000
       25215000	      2520	80002890	00000013	addi	x0,x0,0	  x0:0x00000000
       25225000	      2521	80002894	010000ef	jal	x1,80002894	  x1=0x80002894
       25235000	      2522	00000000	00000013	addi	x0,x0,0	  x0:0x00000000
       25245000	      2523	800028a0	00000013	addi	x0,x0,0	  x0:0x00000000
       25255000	      2524	800028a4	ff5ff0ef	jal	x1,800028a4	  x1=0x800028a4
       25265000	      2525	00000000	00000013	addi	x0,x0,0	  x0:0x00000000
       25275000	      2526	80002894	00000013	addi	x0,x0,0	  x0:0x00000000
       25285000	      2527	80002898	010000ef	jal	x1,80002898	  x1=0x80002898
       25295000	      2528	00000000	00000013	addi	x0,x0,0	  x0:0x00000000
       25305000	      2529	800028a4	00000013	addi	x0,x0,0	  x0:0x00000000
       25315000	      2530	800028a8	ff5ff0ef	jal	x1,800028a8	  x1=0x800028a8
       25325000	      2531	00000000	00000013	addi	x0,x0,0	  x0:0x00000000
       25335000	      2532	80002898	00000013	addi	x0,x0,0	  x0:0x00000000
       25345000	      2533	8000289c	fe9ff0ef	jal	x1,8000289c	  x1=0x8000289c
       25355000	      2534	00000000	00000013	addi	x0,x0,0	  x0:0x00000000
       25365000	      2535	80002880	00000013	addi	x0,x0,0	  x0:0x00000000
       25375000	      2536	80002884	01c008ef	jal	x17,80002884	 x17=0x80002884
       25385000	      2537	00000000	00000013	addi	x0,x0,0	  x0:0x00000000
       25395000	      2538	8000289c	00000013	addi	x0,x0,0	  x0:0x00000000
       25405000	      2539	800028a0	ff1ff7ef	jal	x15,800028a0	 x15=0x800028a0
       25415000	      2540	00000000	00000013	addi	x0,x0,0	  x0:0x00000000
       25425000	      2541	8000288c	00000013	addi	x0,x0,0	  x0:0x00000000
       25435000	      2542	80002890	ff9ff0ef	jal	x1,80002890	  x1=0x80002890
       25445000	      2543	00000000	00000013	addi	x0,x0,0	  x0:0x00000000
       25455000	      2544	80002884	00000013	addi	x0,x0,0	  x0:0x00000000
       25465000	      2545	80002888	028000ef	jal	x1,80002888	  x1=0x80002888
       25475000	      2546	00000000	00000013	addi	x0,x0,0	  x0:0x00000000
       25485000	      2547	800028ac	00000013	addi	x0,x0,0	  x0:0x00000000
       25495000	      2548	800028b0	fddff26f	jal	x4,800028b0	  x4=0x800028b0
       25505000	      2549	00000000	00000013	addi	x0,x0,0	  x0:0x00000000
       25515000	      2550	80002888	00000013	addi	x0,x0,0	  x0:0x00000000
       25525000	      2551	8000288c	028000ef	jal	x1,8000288c	  x1=0x8000288c
       25535000	      2552	00000000	00000013	addi	x0,x0,0	  x0:0x00000000
       25545000	      2553	800028b0	00000013	addi	x0,x0,0	  x0:0x00000000
       25555000	      2554	800028b4	015dd733	srl	x14,x27,x21	 x27:0x80002814 x21:0x000003a8 x14=0x00800028
       25565000	      2555	800028b8	0540016f	jal	x2,800028b8	  x2=0x800028b8
       25575000	      2556	00000000	00000013	addi	x0,x0,0	  x0:0x00000000
       25585000	      2557	80002908	00000013	addi	x0,x0,0	  x0:0x00000000
       25595000	      2558	8000290c	fe1ff1ef	jal	x3,8000290c	  x3=0x8000290c
       25605000	      2559	00000000	00000013	addi	x0,x0,0	  x0:0x00000000
       25615000	      2560	800028e8	00000013	addi	x0,x0,0	  x0:0x00000000
       25625000	      2561	800028ec	034008ef	jal	x17,800028ec	 x17=0x800028ec
       25635000	      2562	00000000	00000013	addi	x0,x0,0	  x0:0x00000000
       25645000	      2563	8000291c	00000013	addi	x0,x0,0	  x0:0x00000000
       25655000	      2564	80002920	fe1ff36f	jal	x6,80002920	  x6=0x80002920
       25665000	      2565	00000000	00000013	addi	x0,x0,0	  x0:0x00000000
       25675000	      2566	800028fc	00000013	addi	x0,x0,0	  x0:0x00000000
       25685000	      2567	80002900	ff9ff36f	jal	x6,80002900	  x6=0x80002900
       25695000	      2568	00000000	00000013	addi	x0,x0,0	  x0:0x00000000
       25705000	      2569	800028f4	00000013	addi	x0,x0,0	  x0:0x00000000
       25715000	      2570	800028f8	ffdff36f	jal	x6,800028f8	  x6=0x800028f8
       25725000	      2571	00000000	00000013	addi	x0,x0,0	  x0:0x00000000
       25735000	      2572	800028f0	00000013	addi	x0,x0,0	  x0:0x00000000
       25745000	      2573	800028f4	020000ef	jal	x1,800028f4	  x1=0x800028f4
       25755000	      2574	00000000	00000013	addi	x0,x0,0	  x0:0x00000000
       25765000	      2575	80002910	00000013	addi	x0,x0,0	  x0:0x00000000
       25775000	      2576	80002914	00400c6f	jal	x24,80002914	 x24=0x80002914
       25785000	      2577	00000000	00000013	addi	x0,x0,0	  x0:0x00000000
       25795000	      2578	80002914	00000013	addi	x0,x0,0	  x0:0x00000000
       25805000	      2579	80002918	fe5ff36f	jal	x6,80002918	  x6=0x80002918
       25815000	      2580	00000000	00000013	addi	x0,x0,0	  x0:0x00000000
       25825000	      2581	800028f8	00000013	addi	x0,x0,0	  x0:0x00000000
       25835000	      2582	800028fc	fd1ff0ef	jal	x1,800028fc	  x1=0x800028fc
       25845000	      2583	00000000	00000013	addi	x0,x0,0	  x0:0x00000000
       25855000	      2584	800028c8	00000013	addi	x0,x0,0	  x0:0x00000000
       25865000	      2585	800028cc	ff1ff0ef	jal	x1,800028cc	  x1=0x800028cc
       25875000	      2586	00000000	00000013	addi	x0,x0,0	  x0:0x00000000
       25885000	      2587	800028b8	00000013	addi	x0,x0,0	  x0:0x00000000
       25895000	      2588	800028bc	02c0016f	jal	x2,800028bc	  x2=0x800028bc
       25905000	      2589	00000000	00000013	addi	x0,x0,0	  x0:0x00000000
       25915000	      2590	800028e4	00000013	addi	x0,x0,0	  x0:0x00000000
       25925000	      2591	800028e8	fe1ff0ef	jal	x1,800028e8	  x1=0x800028e8
       25935000	      2592	00000000	00000013	addi	x0,x0,0	  x0:0x00000000
       25945000	      2593	800028c4	00000013	addi	x0,x0,0	  x0:0x00000000
       25955000	      2594	800028c8	00c000ef	jal	x1,800028c8	  x1=0x800028c8
       25965000	      2595	00000000	00000013	addi	x0,x0,0	  x0:0x00000000
       25975000	      2596	800028d0	00000013	addi	x0,x0,0	  x0:0x00000000
       25985000	      2597	800028d4	ff1ffeef	jal	x29,800028d4	 x29=0x800028d4
       25995000	      2598	00000000	00000013	addi	x0,x0,0	  x0:0x00000000
       26005000	      2599	800028c0	00000013	addi	x0,x0,0	  x0:0x00000000
       26015000	      2600	800028c4	0580026f	jal	x4,800028c4	  x4=0x800028c4
       26025000	      2601	00000000	00000013	addi	x0,x0,0	  x0:0x00000000
       26035000	      2602	80002918	00000013	addi	x0,x0,0	  x0:0x00000000
       26045000	      2603	8000291c	fd5ff36f	jal	x6,8000291c	  x6=0x8000291c
       26055000	      2604	00000000	00000013	addi	x0,x0,0	  x0:0x00000000
       26065000	      2605	800028ec	00000013	addi	x0,x0,0	  x0:0x00000000
       26075000	      2606	800028f0	018000ef	jal	x1,800028f0	  x1=0x800028f0
       26085000	      2607	00000000	00000013	addi	x0,x0,0	  x0:0x00000000
       26095000	      2608	80002904	00000013	addi	x0,x0,0	  x0:0x00000000
       26105000	      2609	80002908	fc9ff0ef	jal	x1,80002908	  x1=0x80002908
       26115000	      2610	00000000	00000013	addi	x0,x0,0	  x0:0x00000000
       26125000	      2611	800028cc	00000013	addi	x0,x0,0	  x0:0x00000000
       26135000	      2612	800028d0	ff1ff0ef	jal	x1,800028d0	  x1=0x800028d0
       26145000	      2613	00000000	00000013	addi	x0,x0,0	  x0:0x00000000
       26155000	      2614	800028bc	00000013	addi	x0,x0,0	  x0:0x00000000
       26165000	      2615	800028c0	024000ef	jal	x1,800028c0	  x1=0x800028c0
       26175000	      2616	00000000	00000013	addi	x0,x0,0	  x0:0x00000000
       26185000	      2617	800028e0	00000013	addi	x0,x0,0	  x0:0x00000000
       26195000	      2618	800028e4	ff9ff0ef	jal	x1,800028e4	  x1=0x800028e4
       26205000	      2619	00000000	00000013	addi	x0,x0,0	  x0:0x00000000
       26215000	      2620	800028d8	00000013	addi	x0,x0,0	  x0:0x00000000
       26225000	      2621	800028dc	004000ef	jal	x1,800028dc	  x1=0x800028dc
       26235000	      2622	00000000	00000013	addi	x0,x0,0	  x0:0x00000000
       26245000	      2623	800028dc	00000013	addi	x0,x0,0	  x0:0x00000000
       26255000	      2624	800028e0	ff9ff0ef	jal	x1,800028e0	  x1=0x800028e0
       26265000	      2625	00000000	00000013	addi	x0,x0,0	  x0:0x00000000
       26275000	      2626	800028d4	00000013	addi	x0,x0,0	  x0:0x00000000
       26285000	      2627	800028d8	038000ef	jal	x1,800028d8	  x1=0x800028d8
       26295000	      2628	00000000	00000013	addi	x0,x0,0	  x0:0x00000000
       26305000	      2629	8000290c	00000013	addi	x0,x0,0	  x0:0x00000000
       26315000	      2630	80002910	ff5ffdef	jal	x27,80002910	 x27=0x80002910
       26325000	      2631	00000000	00000013	addi	x0,x0,0	  x0:0x00000000
       26335000	      2632	80002900	00000013	addi	x0,x0,0	  x0:0x00000000
       26345000	      2633	80002904	02000fef	jal	x31,80002904	 x31=0x80002904
       26355000	      2634	00000000	00000013	addi	x0,x0,0	  x0:0x00000000
       26365000	      2635	80002920	00000013	addi	x0,x0,0	  x0:0x00000000
       26375000	      2636	80002924	0007d1b3	srl	x3,x15,x0	 x15:0x800028a0  x0:0x00000000  x3=0x800028a0
       26385000	      2637	80002928	0040016f	jal	x2,80002928	  x2=0x80002928
       26395000	      2638	00000000	00000013	addi	x0,x0,0	  x0:0x00000000
       26405000	      2639	80002928	00000013	addi	x0,x0,0	  x0:0x00000000
       26415000	      2640	8000292c	01c0026f	jal	x4,8000292c	  x4=0x8000292c
       26425000	      2641	00000000	00000013	addi	x0,x0,0	  x0:0x00000000
       26435000	      2642	80002944	00000013	addi	x0,x0,0	  x0:0x00000000
       26445000	      2643	80002948	024000ef	jal	x1,80002948	  x1=0x80002948
       26455000	      2644	00000000	00000013	addi	x0,x0,0	  x0:0x00000000
       26465000	      2645	80002968	00000013	addi	x0,x0,0	  x0:0x00000000
       26475000	      2646	8000296c	ff5ff0ef	jal	x1,8000296c	  x1=0x8000296c
       26485000	      2647	00000000	00000013	addi	x0,x0,0	  x0:0x00000000
       26495000	      2648	8000295c	00000013	addi	x0,x0,0	  x0:0x00000000
       26505000	      2649	80002960	ffdff36f	jal	x6,80002960	  x6=0x80002960
       26515000	      2650	00000000	00000013	addi	x0,x0,0	  x0:0x00000000
       26525000	      2651	80002958	00000013	addi	x0,x0,0	  x0:0x00000000
       26535000	      2652	8000295c	fd9ff36f	jal	x6,8000295c	  x6=0x8000295c
       26545000	      2653	00000000	00000013	addi	x0,x0,0	  x0:0x00000000
       26555000	      2654	80002930	00000013	addi	x0,x0,0	  x0:0x00000000
       26565000	      2655	80002934	034004ef	jal	x9,80002934	  x9=0x80002934
       26575000	      2656	00000000	00000013	addi	x0,x0,0	  x0:0x00000000
       26585000	      2657	80002964	00000013	addi	x0,x0,0	  x0:0x00000000
       26595000	      2658	80002968	fddff0ef	jal	x1,80002968	  x1=0x80002968
       26605000	      2659	00000000	00000013	addi	x0,x0,0	  x0:0x00000000
       26615000	      2660	80002940	00000013	addi	x0,x0,0	  x0:0x00000000
       26625000	      2661	80002944	ff5ff0ef	jal	x1,80002944	  x1=0x80002944
       26635000	      2662	00000000	00000013	addi	x0,x0,0	  x0:0x00000000
       26645000	      2663	80002934	00000013	addi	x0,x0,0	  x0:0x00000000
       26655000	      2664	80002938	0200036f	jal	x6,80002938	  x6=0x80002938
       26665000	      2665	00000000	00000013	addi	x0,x0,0	  x0:0x00000000
       26675000	      2666	80002954	00000013	addi	x0,x0,0	  x0:0x00000000
       26685000	      2667	80002958	00c000ef	jal	x1,80002958	  x1=0x80002958
       26695000	      2668	00000000	00000013	addi	x0,x0,0	  x0:0x00000000
       26705000	      2669	80002960	00000013	addi	x0,x0,0	  x0:0x00000000
       26715000	      2670	80002964	fe9ff0ef	jal	x1,80002964	  x1=0x80002964
       26725000	      2671	00000000	00000013	addi	x0,x0,0	  x0:0x00000000
       26735000	      2672	80002948	00000013	addi	x0,x0,0	  x0:0x00000000
       26745000	      2673	8000294c	004001ef	jal	x3,8000294c	  x3=0x8000294c
       26755000	      2674	00000000	00000013	addi	x0,x0,0	  x0:0x00000000
       26765000	      2675	8000294c	00000013	addi	x0,x0,0	  x0:0x00000000
       26775000	      2676	80002950	ff1ff0ef	jal	x1,80002950	  x1=0x80002950
       26785000	      2677	00000000	00000013	addi	x0,x0,0	  x0:0x00000000
       26795000	      2678	8000293c	00000013	addi	x0,x0,0	  x0:0x00000000
       26805000	      2679	80002940	0140036f	jal	x6,80002940	  x6=0x80002940
       26815000	      2680	00000000	00000013	addi	x0,x0,0	  x0:0x00000000
       26825000	      2681	80002950	00000013	addi	x0,x0,0	  x0:0x00000000
       26835000	      2682	80002954	02400b6f	jal	x22,80002954	 x22=0x80002954
       26845000	      2683	00000000	00000013	addi	x0,x0,0	  x0:0x00000000
       26855000	      2684	80002974	00000013	addi	x0,x0,0	  x0:0x00000000
       26865000	      2685	80002978	ffdff36f	jal	x6,80002978	  x6=0x80002978
       26875000	      2686	00000000	00000013	addi	x0,x0,0	  x0:0x00000000
       26885000	      2687	80002970	00000013	addi	x0,x0,0	  x0:0x00000000
       26895000	      2688	80002974	ffdff0ef	jal	x1,80002974	  x1=0x80002974
       26905000	      2689	00000000	00000013	addi	x0,x0,0	  x0:0x00000000
       26915000	      2690	8000296c	00000013	addi	x0,x0,0	  x0:0x00000000
       26925000	      2691	80002970	fcdff0ef	jal	x1,80002970	  x1=0x80002970
       26935000	      2692	00000000	00000013	addi	x0,x0,0	  x0:0x00000000
       26945000	      2693	80002938	00000013	addi	x0,x0,0	  x0:0x00000000
       26955000	      2694	8000293c	ff5ff3ef	jal	x7,8000293c	  x7=0x8000293c
       26965000	      2695	00000000	00000013	addi	x0,x0,0	  x0:0x00000000
       26975000	      2696	8000292c	00000013	addi	x0,x0,0	  x0:0x00000000
       26985000	      2697	80002930	04c0036f	jal	x6,80002930	  x6=0x80002930
       26995000	      2698	00000000	00000013	addi	x0,x0,0	  x0:0x00000000
       27005000	      2699	80002978	00000013	addi	x0,x0,0	  x0:0x00000000
       27015000	      2700	8000297c	010b1493	slli	x9,x22,0x10	 x22:0x80002954  x9=0x29540000
       27025000	      2701	80002980	0180016f	jal	x2,80002980	  x2=0x80002980
       27035000	      2702	00000000	00000013	addi	x0,x0,0	  x0:0x00000000
       27045000	      2703	80002994	00000013	addi	x0,x0,0	  x0:0x00000000
       27055000	      2704	80002998	044000ef	jal	x1,80002998	  x1=0x80002998
       27065000	      2705	00000000	00000013	addi	x0,x0,0	  x0:0x00000000
       27075000	      2706	800029d8	00000013	addi	x0,x0,0	  x0:0x00000000
       27085000	      2707	800029dc	fb5fffef	jal	x31,800029dc	 x31=0x800029dc
       27095000	      2708	00000000	00000013	addi	x0,x0,0	  x0:0x00000000
       27105000	      2709	8000298c	00000013	addi	x0,x0,0	  x0:0x00000000
       27115000	      2710	80002990	040000ef	jal	x1,80002990	  x1=0x80002990
       27125000	      2711	00000000	00000013	addi	x0,x0,0	  x0:0x00000000
       27135000	      2712	800029cc	00000013	addi	x0,x0,0	  x0:0x00000000
       27145000	      2713	800029d0	01c001ef	jal	x3,800029d0	  x3=0x800029d0
       27155000	      2714	00000000	00000013	addi	x0,x0,0	  x0:0x00000000
       27165000	      2715	800029e8	00000013	addi	x0,x0,0	  x0:0x00000000
       27175000	      2716	800029ec	ff5ffeef	jal	x29,800029ec	 x29=0x800029ec
       27185000	      2717	00000000	00000013	addi	x0,x0,0	  x0:0x00000000
       27195000	      2718	800029dc	00000013	addi	x0,x0,0	  x0:0x00000000
       27205000	      2719	800029e0	fcdff0ef	jal	x1,800029e0	  x1=0x800029e0
       27215000	      2720	00000000	00000013	addi	x0,x0,0	  x0:0x00000000
       27225000	      2721	800029a8	00000013	addi	x0,x0,0	  x0:0x00000000
       27235000	      2722	800029ac	fddfff6f	jal	x30,800029ac	 x30=0x800029ac
       27245000	      2723	00000000	00000013	addi	x0,x0,0	  x0:0x00000000
       27255000	      2724	80002984	00000013	addi	x0,x0,0	  x0:0x00000000
       27265000	      2725	80002988	018000ef	jal	x1,80002988	  x1=0x80002988
       27275000	      2726	00000000	00000013	addi	x0,x0,0	  x0:0x00000000
       27285000	      2727	8000299c	00000013	addi	x0,x0,0	  x0:0x00000000
       27295000	      2728	800029a0	02800a6f	jal	x20,800029a0	 x20=0x800029a0
       27305000	      2729	00000000	00000013	addi	x0,x0,0	  x0:0x00000000
       27315000	      2730	800029c4	00000013	addi	x0,x0,0	  x0:0x00000000
       27325000	      2731	800029c8	fd5ff0ef	jal	x1,800029c8	  x1=0x800029c8
       27335000	      2732	00000000	00000013	addi	x0,x0,0	  x0:0x00000000
       27345000	      2733	80002998	00000013	addi	x0,x0,0	  x0:0x00000000
       27355000	      2734	8000299c	0180036f	jal	x6,8000299c	  x6=0x8000299c
       27365000	      2735	00000000	00000013	addi	x0,x0,0	  x0:0x00000000
       27375000	      2736	800029b0	00000013	addi	x0,x0,0	  x0:0x00000000
       27385000	      2737	800029b4	ff5ff16f	jal	x2,800029b4	  x2=0x800029b4
       27395000	      2738	00000000	00000013	addi	x0,x0,0	  x0:0x00000000
       27405000	      2739	800029a4	00000013	addi	x0,x0,0	  x0:0x00000000
       27415000	      2740	800029a8	fddff36f	jal	x6,800029a8	  x6=0x800029a8
       27425000	      2741	00000000	00000013	addi	x0,x0,0	  x0:0x00000000
       27435000	      2742	80002980	00000013	addi	x0,x0,0	  x0:0x00000000
       27445000	      2743	80002984	02c000ef	jal	x1,80002984	  x1=0x80002984
       27455000	      2744	00000000	00000013	addi	x0,x0,0	  x0:0x00000000
       27465000	      2745	800029ac	00000013	addi	x0,x0,0	  x0:0x00000000
       27475000	      2746	800029b0	ff5ff1ef	jal	x3,800029b0	  x3=0x800029b0
       27485000	      2747	00000000	00000013	addi	x0,x0,0	  x0:0x00000000
       27495000	      2748	800029a0	00000013	addi	x0,x0,0	  x0:0x00000000
       27505000	      2749	800029a4	018007ef	jal	x15,800029a4	 x15=0x800029a4
       27515000	      2750	00000000	00000013	addi	x0,x0,0	  x0:0x00000000
       27525000	      2751	800029b8	00000013	addi	x0,x0,0	  x0:0x00000000
       27535000	      2752	800029bc	01c0036f	jal	x6,800029bc	  x6=0x800029bc
       27545000	      2753	00000000	00000013	addi	x0,x0,0	  x0:0x00000000
       27555000	      2754	800029d4	00000013	addi	x0,x0,0	  x0:0x00000000
       27565000	      2755	800029d8	fe9ff26f	jal	x4,800029d8	  x4=0x800029d8
       27575000	      2756	00000000	00000013	addi	x0,x0,0	  x0:0x00000000
       27585000	      2757	800029bc	00000013	addi	x0,x0,0	  x0:0x00000000
       27595000	      2758	800029c0	fcdff86f	jal	x16,800029c0	 x16=0x800029c0
       27605000	      2759	00000000	00000013	addi	x0,x0,0	  x0:0x00000000
       27615000	      2760	80002988	00000013	addi	x0,x0,0	  x0:0x00000000
       27625000	      2761	8000298c	0080036f	jal	x6,8000298c	  x6=0x8000298c
       27635000	      2762	00000000	00000013	addi	x0,x0,0	  x0:0x00000000
       27645000	      2763	80002990	00000013	addi	x0,x0,0	  x0:0x00000000
       27655000	      2764	80002994	030000ef	jal	x1,80002994	  x1=0x80002994
       27665000	      2765	00000000	00000013	addi	x0,x0,0	  x0:0x00000000
       27675000	      2766	800029c0	00000013	addi	x0,x0,0	  x0:0x00000000
       27685000	      2767	800029c4	008000ef	jal	x1,800029c4	  x1=0x800029c4
       27695000	      2768	00000000	00000013	addi	x0,x0,0	  x0:0x00000000
       27705000	      2769	800029c8	00000013	addi	x0,x0,0	  x0:0x00000000
       27715000	      2770	800029cc	01c000ef	jal	x1,800029cc	  x1=0x800029cc
       27725000	      2771	00000000	00000013	addi	x0,x0,0	  x0:0x00000000
       27735000	      2772	800029e4	00000013	addi	x0,x0,0	  x0:0x00000000
       27745000	      2773	800029e8	fd1ff0ef	jal	x1,800029e8	  x1=0x800029e8
       27755000	      2774	00000000	00000013	addi	x0,x0,0	  x0:0x00000000
       27765000	      2775	800029b4	00000013	addi	x0,x0,0	  x0:0x00000000
       27775000	      2776	800029b8	01c00bef	jal	x23,800029b8	 x23=0x800029b8
       27785000	      2777	00000000	00000013	addi	x0,x0,0	  x0:0x00000000
       27795000	      2778	800029d0	00000013	addi	x0,x0,0	  x0:0x00000000
       27805000	      2779	800029d4	0100036f	jal	x6,800029d4	  x6=0x800029d4
       27815000	      2780	00000000	00000013	addi	x0,x0,0	  x0:0x00000000
       27825000	      2781	800029e0	00000013	addi	x0,x0,0	  x0:0x00000000
       27835000	      2782	800029e4	00c000ef	jal	x1,800029e4	  x1=0x800029e4
       27845000	      2783	00000000	00000013	addi	x0,x0,0	  x0:0x00000000
       27855000	      2784	800029ec	00000013	addi	x0,x0,0	  x0:0x00000000
       27865000	      2785	800029f0	29817a13	andi	x20,x2,664	  x2:0x800029b4 x20=0x00000090
       27875000	      2786	800029f4	01658233	add	x4,x11,x22	 x11:0x80009f14 x22:0x80002954  x4=0x0000c868
       27885000	      2787	800029f8	00000013	addi	x0,x0,0	  x0:0x00000000
       27895000	      2788	800029fc	3ed34d13	xori	x26,x6,1005	  x6:0x800029d4 x26=0x80002a39
       27905000	      2789	80002a00	00c25463	bge	x4,x12,80002a08	  x4:0x0000c868 x12:0x00000172
       27915000	      2790	00000000	00000013	addi	x0,x0,0	  x0:0x00000000
       27925000	      2791	80002a04	00000013	addi	x0,x0,0	  x0:0x00000000
       27935000	      2792	80002a08	51da7b93	andi	x23,x20,1309	 x20:0x00000090 x23=0x00000010
       27945000	      2793	80002a0c	8c180813	addi	x16,x16,-1855	 x16:0x800029c0 x16=0x80002281
       27955000	      2794	80002a10	03484863	blt	x16,x20,80002a40	 x16:0x80002281 x20:0x00000090
       27965000	      2795	00000000	00000013	addi	x0,x0,0	  x0:0x00000000
       27975000	      2796	80002a3c	00000013	addi	x0,x0,0	  x0:0x00000000
       27985000	      2797	80002a40	01480eb3	add	x29,x16,x20	 x16:0x80002281 x20:0x00000090 x29=0x80002311
       27995000	      2798	80002a44	0187ef33	or	x30,x15,x24	 x15:0x800029a4 x24:0x80002914 x30=0x800029b4
       28005000	      2799	80002a48	426cfd93	andi	x27,x25,1062	 x25:0x00000001 x27=0x00000000
       28015000	      2800	80002a4c	03c34c63	blt	x6,x28,80002a84	  x6:0x800029d4 x28:0x00000000
       28025000	      2801	00000000	00000013	addi	x0,x0,0	  x0:0x00000000
       28035000	      2802	80002a80	00000013	addi	x0,x0,0	  x0:0x00000000
       28045000	      2803	80002a84	00cc33b3	sltu	x7,x24,x12	 x24:0x80002914 x12:0x00000172  x7=0x00000000
       28055000	      2804	80002a88	7c884113	xori	x2,x16,1992	 x16:0x80002281  x2=0x80002549
       28065000	      2805	80002a8c	7aa0ab93	slti	x23,x1,1962	  x1:0x800029e4 x23=0x00000001
       28075000	      2806	80002a90	0197c1b3	xor	x3,x15,x25	 x15:0x800029a4 x25:0x00000001  x3=0x800029a5
       28085000	      2807	80002a94	000c79b3	and	x19,x24,x0	 x24:0x80002914  x0:0x00000000 x19=0x00000000
       28095000	      2808	80002a98	2d17c893	xori	x17,x15,721	 x15:0x800029a4 x17=0x80002b75
       28105000	      2809	80002a9c	00000013	addi	x0,x0,0	  x0:0x00000000
       28115000	      2810	80002aa0	015f1493	slli	x9,x30,0x15	 x30:0x800029b4  x9=0x36800000
       28125000	      2811	80002aa4	011b1693	slli	x13,x22,0x11	 x22:0x80002954 x13=0x52a80000
       28135000	      2812	80002aa8	c44f7513	andi	x10,x30,-956	 x30:0x800029b4 x10=0x80002804
       28145000	      2813	80002aac	c0d71f17	auipc	x30,0xc0d71	 x30=0x40d73aa8
       28155000	      2814	80002ab0	0172ca33	xor	x20,x5,x23	  x5:0x80009fc4 x23:0x00000001 x20=0x80009fc5
       28165000	      2815	80002ab4	41a25a33	sra	x20,x4,x26	  x4:0x0000c868 x26:0x80002a39 x20=0x00000000
       28175000	      2816	80002ab8	c4308813	addi	x16,x1,-957	  x1:0x800029e4 x16=0x80002627
       28185000	      2817	80002abc	7a8a9837	lui	x16,0x7a8a9	 x16=0x7a8a9000
       28195000	      2818	80002ac0	00000013	addi	x0,x0,0	  x0:0x00000000
       28205000	      2819	80002ac4	00000013	addi	x0,x0,0	  x0:0x00000000
       28215000	      2820	80002ac8	a78ff16f	jal	x2,80002ac8	  x2=0x80002ac8
       28225000	      2821	00000000	00000013	addi	x0,x0,0	  x0:0x00000000
       28235000	      2822	80001d3c	00000013	addi	x0,x0,0	  x0:0x00000000
       28245000	      2823	80001d40	21786f17	auipc	x30,0x21786	 x30=0xa1787d3c
       28255000	      2824	80001d44	00415c33	srl	x24,x2,x4	  x2:0x80002ac8  x4:0x0000c868 x24=0x0080002a
       28265000	      2825	80001d48	fe484a13	xori	x20,x16,-28	 x16:0x7a8a9000 x20=0x85756fe4
       28275000	      2826	80001d4c	c01cfc13	andi	x24,x25,-1023	 x25:0x00000001 x24=0x00000001
       28285000	      2827	80001d50	41855693	srai	x13,x10,0x18	 x10:0x80002804 x13=0xffffff80
       28295000	      2828	80001d54	0174dd13	srli	x26,x9,0x17	  x9:0x36800000 x26=0x0000006d
       28305000	      2829	80001d58	dc054b93	xori	x23,x10,-576	 x10:0x80002804 x23=0x7fffd5c4
       28315000	      2830	80001d5c	405e56b3	sra	x13,x28,x5	 x28:0x00000000  x5:0x80009fc4 x13=0x00000000
       28325000	      2831	80001d60	fc058593	addi	x11,x11,-64	 x11:0x80009f14 x11=0x80009ed4
       28335000	      2832	80001d64	0025a223	sw	x2,4(x11)	 x11:0x80009ed4  x2:0x80002ac8 PA:0x80009ed8
       28345000	      2833	80001d68	417dd833	sra	x16,x27,x23	 x27:0x00000000 x23:0x7fffd5c4 x16=0x00000000
       28355000	      2834	80001d6c	0340016f	jal	x2,80001d6c	  x2=0x80001d6c
       28365000	      2835	00000000	00000013	addi	x0,x0,0	  x0:0x00000000
       28375000	      2836	80001d9c	00000013	addi	x0,x0,0	  x0:0x00000000
       28385000	      2837	80001da0	fd1ff0ef	jal	x1,80001da0	  x1=0x80001da0
       28395000	      2838	00000000	00000013	addi	x0,x0,0	  x0:0x00000000
       28405000	      2839	80001d6c	00000013	addi	x0,x0,0	  x0:0x00000000
       28415000	      2840	80001d70	040000ef	jal	x1,80001d70	  x1=0x80001d70
       28425000	      2841	00000000	00000013	addi	x0,x0,0	  x0:0x00000000
       28435000	      2842	80001dac	00000013	addi	x0,x0,0	  x0:0x00000000
       28445000	      2843	80001db0	fd1ff0ef	jal	x1,80001db0	  x1=0x80001db0
       28455000	      2844	00000000	00000013	addi	x0,x0,0	  x0:0x00000000
       28465000	      2845	80001d7c	00000013	addi	x0,x0,0	  x0:0x00000000
       28475000	      2846	80001d80	ffdff0ef	jal	x1,80001d80	  x1=0x80001d80
       28485000	      2847	00000000	00000013	addi	x0,x0,0	  x0:0x00000000
       28495000	      2848	80001d78	00000013	addi	x0,x0,0	  x0:0x00000000
       28505000	      2849	80001d7c	0300036f	jal	x6,80001d7c	  x6=0x80001d7c
       28515000	      2850	00000000	00000013	addi	x0,x0,0	  x0:0x00000000
       28525000	      2851	80001da8	00000013	addi	x0,x0,0	  x0:0x00000000
       28535000	      2852	80001dac	00c004ef	jal	x9,80001dac	  x9=0x80001dac
       28545000	      2853	00000000	00000013	addi	x0,x0,0	  x0:0x00000000
       28555000	      2854	80001db4	00000013	addi	x0,x0,0	  x0:0x00000000
       28565000	      2855	80001db8	fbdff6ef	jal	x13,80001db8	 x13=0x80001db8
       28575000	      2856	00000000	00000013	addi	x0,x0,0	  x0:0x00000000
       28585000	      2857	80001d70	00000013	addi	x0,x0,0	  x0:0x00000000
       28595000	      2858	80001d74	014000ef	jal	x1,80001d74	  x1=0x80001d74
       28605000	      2859	00000000	00000013	addi	x0,x0,0	  x0:0x00000000
       28615000	      2860	80001d84	00000013	addi	x0,x0,0	  x0:0x00000000
       28625000	      2861	80001d88	0400026f	jal	x4,80001d88	  x4=0x80001d88
       28635000	      2862	00000000	00000013	addi	x0,x0,0	  x0:0x00000000
       28645000	      2863	80001dc4	00000013	addi	x0,x0,0	  x0:0x00000000
       28655000	      2864	80001dc8	ffdff0ef	jal	x1,80001dc8	  x1=0x80001dc8
       28665000	      2865	00000000	00000013	addi	x0,x0,0	  x0:0x00000000
       28675000	      2866	80001dc0	00000013	addi	x0,x0,0	  x0:0x00000000
       28685000	      2867	80001dc4	fd1ffb6f	jal	x22,80001dc4	 x22=0x80001dc4
       28695000	      2868	00000000	00000013	addi	x0,x0,0	  x0:0x00000000
       28705000	      2869	80001d90	00000013	addi	x0,x0,0	  x0:0x00000000
       28715000	      2870	80001d94	03c000ef	jal	x1,80001d94	  x1=0x80001d94
       28725000	      2871	00000000	00000013	addi	x0,x0,0	  x0:0x00000000
       28735000	      2872	80001dcc	00000013	addi	x0,x0,0	  x0:0x00000000
       28745000	      2873	80001dd0	fbdff0ef	jal	x1,80001dd0	  x1=0x80001dd0
       28755000	      2874	00000000	00000013	addi	x0,x0,0	  x0:0x00000000
       28765000	      2875	80001d88	00000013	addi	x0,x0,0	  x0:0x00000000
       28775000	      2876	80001d8c	010000ef	jal	x1,80001d8c	  x1=0x80001d8c
       28785000	      2877	00000000	00000013	addi	x0,x0,0	  x0:0x00000000
       28795000	      2878	80001d98	00000013	addi	x0,x0,0	  x0:0x00000000
       28805000	      2879	80001d9c	020000ef	jal	x1,80001d9c	  x1=0x80001d9c
       28815000	      2880	00000000	00000013	addi	x0,x0,0	  x0:0x00000000
       28825000	      2881	80001db8	00000013	addi	x0,x0,0	  x0:0x00000000
       28835000	      2882	80001dbc	fedff0ef	jal	x1,80001dbc	  x1=0x80001dbc
       28845000	      2883	00000000	00000013	addi	x0,x0,0	  x0:0x00000000
       28855000	      2884	80001da4	00000013	addi	x0,x0,0	  x0:0x00000000
       28865000	      2885	80001da8	ffdff0ef	jal	x1,80001da8	  x1=0x80001da8
       28875000	      2886	00000000	00000013	addi	x0,x0,0	  x0:0x00000000
       28885000	      2887	80001da0	00000013	addi	x0,x0,0	  x0:0x00000000
       28895000	      2888	80001da4	fedff0ef	jal	x1,80001da4	  x1=0x80001da4
       28905000	      2889	00000000	00000013	addi	x0,x0,0	  x0:0x00000000
       28915000	      2890	80001d8c	00000013	addi	x0,x0,0	  x0:0x00000000
       28925000	      2891	80001d90	030000ef	jal	x1,80001d90	  x1=0x80001d90
       28935000	      2892	00000000	00000013	addi	x0,x0,0	  x0:0x00000000
       28945000	      2893	80001dbc	00000013	addi	x0,x0,0	  x0:0x00000000
       28955000	      2894	80001dc0	00c0026f	jal	x4,80001dc0	  x4=0x80001dc0
       28965000	      2895	00000000	00000013	addi	x0,x0,0	  x0:0x00000000
       28975000	      2896	80001dc8	00000013	addi	x0,x0,0	  x0:0x00000000
       28985000	      2897	80001dcc	fe9ff36f	jal	x6,80001dcc	  x6=0x80001dcc
       28995000	      2898	00000000	00000013	addi	x0,x0,0	  x0:0x00000000
       29005000	      2899	80001db0	00000013	addi	x0,x0,0	  x0:0x00000000
       29015000	      2900	80001db4	fe5ff0ef	jal	x1,80001db4	  x1=0x80001db4
       29025000	      2901	00000000	00000013	addi	x0,x0,0	  x0:0x00000000
       29035000	      2902	80001d94	00000013	addi	x0,x0,0	  x0:0x00000000
       29045000	      2903	80001d98	fe1ff0ef	jal	x1,80001d98	  x1=0x80001d98
       29055000	      2904	00000000	00000013	addi	x0,x0,0	  x0:0x00000000
       29065000	      2905	80001d74	00000013	addi	x0,x0,0	  x0:0x00000000
       29075000	      2906	80001d78	00c0016f	jal	x2,80001d78	  x2=0x80001d78
       29085000	      2907	00000000	00000013	addi	x0,x0,0	  x0:0x00000000
       29095000	      2908	80001d80	00000013	addi	x0,x0,0	  x0:0x00000000
       29105000	      2909	80001d84	050001ef	jal	x3,80001d84	  x3=0x80001d84
       29115000	      2910	00000000	00000013	addi	x0,x0,0	  x0:0x00000000
       29125000	      2911	80001dd0	00000013	addi	x0,x0,0	  x0:0x00000000
       29135000	      2912	80001dd4	01feb833	sltu	x16,x29,x31	 x29:0x80002311 x31:0x800029dc x16=0x00000001
       29145000	      2913	80001dd8	04c0016f	jal	x2,80001dd8	  x2=0x80001dd8
       29155000	      2914	00000000	00000013	addi	x0,x0,0	  x0:0x00000000
       29165000	      2915	80001e20	00000013	addi	x0,x0,0	  x0:0x00000000
       29175000	      2916	80001e24	ff1ff0ef	jal	x1,80001e24	  x1=0x80001e24
       29185000	      2917	00000000	00000013	addi	x0,x0,0	  x0:0x00000000
       29195000	      2918	80001e10	00000013	addi	x0,x0,0	  x0:0x00000000
       29205000	      2919	80001e14	01c000ef	jal	x1,80001e14	  x1=0x80001e14
       29215000	      2920	00000000	00000013	addi	x0,x0,0	  x0:0x00000000
       29225000	      2921	80001e2c	00000013	addi	x0,x0,0	  x0:0x00000000
       29235000	      2922	80001e30	fc5ff0ef	jal	x1,80001e30	  x1=0x80001e30
       29245000	      2923	00000000	00000013	addi	x0,x0,0	  x0:0x00000000
       29255000	      2924	80001df0	00000013	addi	x0,x0,0	  x0:0x00000000
       29265000	      2925	80001df4	038000ef	jal	x1,80001df4	  x1=0x80001df4
       29275000	      2926	00000000	00000013	addi	x0,x0,0	  x0:0x00000000
       29285000	      2927	80001e28	00000013	addi	x0,x0,0	  x0:0x00000000
       29295000	      2928	80001e2c	fc1ff0ef	jal	x1,80001e2c	  x1=0x80001e2c
       29305000	      2929	00000000	00000013	addi	x0,x0,0	  x0:0x00000000
       29315000	      2930	80001de8	00000013	addi	x0,x0,0	  x0:0x00000000
       29325000	      2931	80001dec	010000ef	jal	x1,80001dec	  x1=0x80001dec
       29335000	      2932	00000000	00000013	addi	x0,x0,0	  x0:0x00000000
       29345000	      2933	80001df8	00000013	addi	x0,x0,0	  x0:0x00000000
       29355000	      2934	80001dfc	0500036f	jal	x6,80001dfc	  x6=0x80001dfc
       29365000	      2935	00000000	00000013	addi	x0,x0,0	  x0:0x00000000
       29375000	      2936	80001e48	00000013	addi	x0,x0,0	  x0:0x00000000
       29385000	      2937	80001e4c	fd1ff0ef	jal	x1,80001e4c	  x1=0x80001e4c
       29395000	      2938	00000000	00000013	addi	x0,x0,0	  x0:0x00000000
       29405000	      2939	80001e18	00000013	addi	x0,x0,0	  x0:0x00000000
       29415000	      2940	80001e1c	0280026f	jal	x4,80001e1c	  x4=0x80001e1c
       29425000	      2941	00000000	00000013	addi	x0,x0,0	  x0:0x00000000
       29435000	      2942	80001e40	00000013	addi	x0,x0,0	  x0:0x00000000
       29445000	      2943	80001e44	fa1ff0ef	jal	x1,80001e44	  x1=0x80001e44
       29455000	      2944	00000000	00000013	addi	x0,x0,0	  x0:0x00000000
       29465000	      2945	80001de0	00000013	addi	x0,x0,0	  x0:0x00000000
       29475000	      2946	80001de4	ffdff0ef	jal	x1,80001de4	  x1=0x80001de4
       29485000	      2947	00000000	00000013	addi	x0,x0,0	  x0:0x00000000
       29495000	      2948	80001ddc	00000013	addi	x0,x0,0	  x0:0x00000000
       29505000	      2949	80001de0	0580016f	jal	x2,80001de0	  x2=0x80001de0
       29515000	      2950	00000000	00000013	addi	x0,x0,0	  x0:0x00000000
       29525000	      2951	80001e34	00000013	addi	x0,x0,0	  x0:0x00000000
       29535000	      2952	80001e38	008000ef	jal	x1,80001e38	  x1=0x80001e38
       29545000	      2953	00000000	00000013	addi	x0,x0,0	  x0:0x00000000
       29555000	      2954	80001e3c	00000013	addi	x0,x0,0	  x0:0x00000000
       29565000	      2955	80001e40	ffdff9ef	jal	x19,80001e40	 x19=0x80001e40
       29575000	      2956	00000000	00000013	addi	x0,x0,0	  x0:0x00000000
       29585000	      2957	80001e38	00000013	addi	x0,x0,0	  x0:0x00000000
       29595000	      2958	80001e3c	00c00c6f	jal	x24,80001e3c	 x24=0x80001e3c
       29605000	      2959	00000000	00000013	addi	x0,x0,0	  x0:0x00000000
       29615000	      2960	80001e44	00000013	addi	x0,x0,0	  x0:0x00000000
       29625000	      2961	80001e48	fbdffbef	jal	x23,80001e48	 x23=0x80001e48
       29635000	      2962	00000000	00000013	addi	x0,x0,0	  x0:0x00000000
       29645000	      2963	80001e00	00000013	addi	x0,x0,0	  x0:0x00000000
       29655000	      2964	80001e04	0300036f	jal	x6,80001e04	  x6=0x80001e04
       29665000	      2965	00000000	00000013	addi	x0,x0,0	  x0:0x00000000
       29675000	      2966	80001e30	00000013	addi	x0,x0,0	  x0:0x00000000
       29685000	      2967	80001e34	fc5ff0ef	jal	x1,80001e34	  x1=0x80001e34
       29695000	      2968	00000000	00000013	addi	x0,x0,0	  x0:0x00000000
       29705000	      2969	80001df4	00000013	addi	x0,x0,0	  x0:0x00000000
       29715000	      2970	80001df8	018000ef	jal	x1,80001df8	  x1=0x80001df8
       29725000	      2971	00000000	00000013	addi	x0,x0,0	  x0:0x00000000
       29735000	      2972	80001e0c	00000013	addi	x0,x0,0	  x0:0x00000000
       29745000	      2973	80001e10	ff1ff36f	jal	x6,80001e10	  x6=0x80001e10
       29755000	      2974	00000000	00000013	addi	x0,x0,0	  x0:0x00000000
       29765000	      2975	80001dfc	00000013	addi	x0,x0,0	  x0:0x00000000
       29775000	      2976	80001e00	fe9ff0ef	jal	x1,80001e00	  x1=0x80001e00
       29785000	      2977	00000000	00000013	addi	x0,x0,0	  x0:0x00000000
       29795000	      2978	80001de4	00000013	addi	x0,x0,0	  x0:0x00000000
       29805000	      2979	80001de8	0200036f	jal	x6,80001de8	  x6=0x80001de8
       29815000	      2980	00000000	00000013	addi	x0,x0,0	  x0:0x00000000
       29825000	      2981	80001e04	00000013	addi	x0,x0,0	  x0:0x00000000
       29835000	      2982	80001e08	0200036f	jal	x6,80001e08	  x6=0x80001e08
       29845000	      2983	00000000	00000013	addi	x0,x0,0	  x0:0x00000000
       29855000	      2984	80001e24	00000013	addi	x0,x0,0	  x0:0x00000000
       29865000	      2985	80001e28	fb5ff0ef	jal	x1,80001e28	  x1=0x80001e28
       29875000	      2986	00000000	00000013	addi	x0,x0,0	  x0:0x00000000
       29885000	      2987	80001dd8	00000013	addi	x0,x0,0	  x0:0x00000000
       29895000	      2988	80001ddc	044000ef	jal	x1,80001ddc	  x1=0x80001ddc
       29905000	      2989	00000000	00000013	addi	x0,x0,0	  x0:0x00000000
       29915000	      2990	80001e1c	00000013	addi	x0,x0,0	  x0:0x00000000
       29925000	      2991	80001e20	fd1ff1ef	jal	x3,80001e20	  x3=0x80001e20
       29935000	      2992	00000000	00000013	addi	x0,x0,0	  x0:0x00000000
       29945000	      2993	80001dec	00000013	addi	x0,x0,0	  x0:0x00000000
       29955000	      2994	80001df0	01c00b6f	jal	x22,80001df0	 x22=0x80001df0
       29965000	      2995	00000000	00000013	addi	x0,x0,0	  x0:0x00000000
       29975000	      2996	80001e08	00000013	addi	x0,x0,0	  x0:0x00000000
       29985000	      2997	80001e0c	00c000ef	jal	x1,80001e0c	  x1=0x80001e0c
       29995000	      2998	00000000	00000013	addi	x0,x0,0	  x0:0x00000000
       30005000	      2999	80001e14	00000013	addi	x0,x0,0	  x0:0x00000000
       30015000	      3000	80001e18	038000ef	jal	x1,80001e18	  x1=0x80001e18
       30025000	      3001	00000000	00000013	addi	x0,x0,0	  x0:0x00000000
       30035000	      3002	80001e4c	00000013	addi	x0,x0,0	  x0:0x00000000
       30045000	      3003	80001e50	41e75913	srai	x18,x14,0x1e	 x14:0x00800028 x18=0x00000000
       30055000	      3004	80001e54	00c0016f	jal	x2,80001e54	  x2=0x80001e54
       30065000	      3005	00000000	00000013	addi	x0,x0,0	  x0:0x00000000
       30075000	      3006	80001e5c	00000013	addi	x0,x0,0	  x0:0x00000000
       30085000	      3007	80001e60	ff9ff0ef	jal	x1,80001e60	  x1=0x80001e60
       30095000	      3008	00000000	00000013	addi	x0,x0,0	  x0:0x00000000
       30105000	      3009	80001e54	00000013	addi	x0,x0,0	  x0:0x00000000
       30115000	      3010	80001e58	0340056f	jal	x10,80001e58	 x10=0x80001e58
       30125000	      3011	00000000	00000013	addi	x0,x0,0	  x0:0x00000000
       30135000	      3012	80001e88	00000013	addi	x0,x0,0	  x0:0x00000000
       30145000	      3013	80001e8c	fedff0ef	jal	x1,80001e8c	  x1=0x80001e8c
       30155000	      3014	00000000	00000013	addi	x0,x0,0	  x0:0x00000000
       30165000	      3015	80001e74	00000013	addi	x0,x0,0	  x0:0x00000000
       30175000	      3016	80001e78	fedff0ef	jal	x1,80001e78	  x1=0x80001e78
       30185000	      3017	00000000	00000013	addi	x0,x0,0	  x0:0x00000000
       30195000	      3018	80001e60	00000013	addi	x0,x0,0	  x0:0x00000000
       30205000	      3019	80001e64	020000ef	jal	x1,80001e64	  x1=0x80001e64
       30215000	      3020	00000000	00000013	addi	x0,x0,0	  x0:0x00000000
       30225000	      3021	80001e80	00000013	addi	x0,x0,0	  x0:0x00000000
       30235000	      3022	80001e84	fe9ff0ef	jal	x1,80001e84	  x1=0x80001e84
       30245000	      3023	00000000	00000013	addi	x0,x0,0	  x0:0x00000000
       30255000	      3024	80001e68	00000013	addi	x0,x0,0	  x0:0x00000000
       30265000	      3025	80001e6c	0100036f	jal	x6,80001e6c	  x6=0x80001e6c
       30275000	      3026	00000000	00000013	addi	x0,x0,0	  x0:0x00000000
       30285000	      3027	80001e78	00000013	addi	x0,x0,0	  x0:0x00000000
       30295000	      3028	80001e7c	00400f6f	jal	x30,80001e7c	 x30=0x80001e7c
       30305000	      3029	00000000	00000013	addi	x0,x0,0	  x0:0x00000000
       30315000	      3030	80001e7c	00000013	addi	x0,x0,0	  x0:0x00000000
       30325000	      3031	80001e80	01000def	jal	x27,80001e80	 x27=0x80001e80
       30335000	      3032	00000000	00000013	addi	x0,x0,0	  x0:0x00000000
       30345000	      3033	80001e8c	00000013	addi	x0,x0,0	  x0:0x00000000
       30355000	      3034	80001e90	ff9ff0ef	jal	x1,80001e90	  x1=0x80001e90
       30365000	      3035	00000000	00000013	addi	x0,x0,0	  x0:0x00000000
       30375000	      3036	80001e84	00000013	addi	x0,x0,0	  x0:0x00000000
       30385000	      3037	80001e88	00c0066f	jal	x12,80001e88	 x12=0x80001e88
       30395000	      3038	00000000	00000013	addi	x0,x0,0	  x0:0x00000000
       30405000	      3039	80001e90	00000013	addi	x0,x0,0	  x0:0x00000000
       30415000	      3040	80001e94	004000ef	jal	x1,80001e94	  x1=0x80001e94
       30425000	      3041	00000000	00000013	addi	x0,x0,0	  x0:0x00000000
       30435000	      3042	80001e94	00000013	addi	x0,x0,0	  x0:0x00000000
       30445000	      3043	80001e98	fddff36f	jal	x6,80001e98	  x6=0x80001e98
       30455000	      3044	00000000	00000013	addi	x0,x0,0	  x0:0x00000000
       30465000	      3045	80001e70	00000013	addi	x0,x0,0	  x0:0x00000000
       30475000	      3046	80001e74	ff5ff0ef	jal	x1,80001e74	  x1=0x80001e74
       30485000	      3047	00000000	00000013	addi	x0,x0,0	  x0:0x00000000
       30495000	      3048	80001e64	00000013	addi	x0,x0,0	  x0:0x00000000
       30505000	      3049	80001e68	034000ef	jal	x1,80001e68	  x1=0x80001e68
       30515000	      3050	00000000	00000013	addi	x0,x0,0	  x0:0x00000000
       30525000	      3051	80001e98	00000013	addi	x0,x0,0	  x0:0x00000000
       30535000	      3052	80001e9c	fd5ff0ef	jal	x1,80001e9c	  x1=0x80001e9c
       30545000	      3053	00000000	00000013	addi	x0,x0,0	  x0:0x00000000
       30555000	      3054	80001e6c	00000013	addi	x0,x0,0	  x0:0x00000000
       30565000	      3055	80001e70	0300036f	jal	x6,80001e70	  x6=0x80001e70
       30575000	      3056	00000000	00000013	addi	x0,x0,0	  x0:0x00000000
       30585000	      3057	80001e9c	00000013	addi	x0,x0,0	  x0:0x00000000
       30595000	      3058	80001ea0	fbdff46f	jal	x8,80001ea0	  x8=0x80001ea0
       30605000	      3059	00000000	00000013	addi	x0,x0,0	  x0:0x00000000
       30615000	      3060	80001e58	00000013	addi	x0,x0,0	  x0:0x00000000
       30625000	      3061	80001e5c	04800bef	jal	x23,80001e5c	 x23=0x80001e5c
       30635000	      3062	00000000	00000013	addi	x0,x0,0	  x0:0x00000000
       30645000	      3063	80001ea0	00000013	addi	x0,x0,0	  x0:0x00000000
       30655000	      3064	80001ea4	0137e0b3	or	x1,x15,x19	 x15:0x800029a4 x19:0x80001e40  x1=0x80003fe4
       30665000	      3065	80001ea8	0040016f	jal	x2,80001ea8	  x2=0x80001ea8
       30675000	      3066	00000000	00000013	addi	x0,x0,0	  x0:0x00000000
       30685000	      3067	80001ea8	00000013	addi	x0,x0,0	  x0:0x00000000
       30695000	      3068	80001eac	0440096f	jal	x18,80001eac	 x18=0x80001eac
       30705000	      3069	00000000	00000013	addi	x0,x0,0	  x0:0x00000000
       30715000	      3070	80001eec	00000013	addi	x0,x0,0	  x0:0x00000000
       30725000	      3071	80001ef0	010000ef	jal	x1,80001ef0	  x1=0x80001ef0
       30735000	      3072	00000000	00000013	addi	x0,x0,0	  x0:0x00000000
       30745000	      3073	80001efc	00000013	addi	x0,x0,0	  x0:0x00000000
       30755000	      3074	80001f00	010000ef	jal	x1,80001f00	  x1=0x80001f00
       30765000	      3075	00000000	00000013	addi	x0,x0,0	  x0:0x00000000
       30775000	      3076	80001f0c	00000013	addi	x0,x0,0	  x0:0x00000000
       30785000	      3077	80001f10	fa1ff0ef	jal	x1,80001f10	  x1=0x80001f10
       30795000	      3078	00000000	00000013	addi	x0,x0,0	  x0:0x00000000
       30805000	      3079	80001eac	00000013	addi	x0,x0,0	  x0:0x00000000
       30815000	      3080	80001eb0	018009ef	jal	x19,80001eb0	 x19=0x80001eb0
       30825000	      3081	00000000	00000013	addi	x0,x0,0	  x0:0x00000000
       30835000	      3082	80001ec4	00000013	addi	x0,x0,0	  x0:0x00000000
       30845000	      3083	80001ec8	014007ef	jal	x15,80001ec8	 x15=0x80001ec8
       30855000	      3084	00000000	00000013	addi	x0,x0,0	  x0:0x00000000
       30865000	      3085	80001ed8	00000013	addi	x0,x0,0	  x0:0x00000000
       30875000	      3086	80001edc	004000ef	jal	x1,80001edc	  x1=0x80001edc
       30885000	      3087	00000000	00000013	addi	x0,x0,0	  x0:0x00000000
       30895000	      3088	80001edc	00000013	addi	x0,x0,0	  x0:0x00000000
       30905000	      3089	80001ee0	0140016f	jal	x2,80001ee0	  x2=0x80001ee0
       30915000	      3090	00000000	00000013	addi	x0,x0,0	  x0:0x00000000
       30925000	      3091	80001ef0	00000013	addi	x0,x0,0	  x0:0x00000000
       30935000	      3092	80001ef4	fe5ff0ef	jal	x1,80001ef4	  x1=0x80001ef4
       30945000	      3093	00000000	00000013	addi	x0,x0,0	  x0:0x00000000
       30955000	      3094	80001ed4	00000013	addi	x0,x0,0	  x0:0x00000000
       30965000	      3095	80001ed8	0140036f	jal	x6,80001ed8	  x6=0x80001ed8
       30975000	      3096	00000000	00000013	addi	x0,x0,0	  x0:0x00000000
       30985000	      3097	80001ee8	00000013	addi	x0,x0,0	  x0:0x00000000
       30995000	      3098	80001eec	fd9ff0ef	jal	x1,80001eec	  x1=0x80001eec
       31005000	      3099	00000000	00000013	addi	x0,x0,0	  x0:0x00000000
       31015000	      3100	80001ec0	00000013	addi	x0,x0,0	  x0:0x00000000
       31025000	      3101	80001ec4	034006ef	jal	x13,80001ec4	 x13=0x80001ec4
       31035000	      3102	00000000	00000013	addi	x0,x0,0	  x0:0x00000000
       31045000	      3103	80001ef4	00000013	addi	x0,x0,0	  x0:0x00000000
       31055000	      3104	80001ef8	fd9ff0ef	jal	x1,80001ef8	  x1=0x80001ef8
       31065000	      3105	00000000	00000013	addi	x0,x0,0	  x0:0x00000000
       31075000	      3106	80001ecc	00000013	addi	x0,x0,0	  x0:0x00000000
       31085000	      3107	80001ed0	fe9ff36f	jal	x6,80001ed0	  x6=0x80001ed0
       31095000	      3108	00000000	00000013	addi	x0,x0,0	  x0:0x00000000
       31105000	      3109	80001eb4	00000013	addi	x0,x0,0	  x0:0x00000000
       31115000	      3110	80001eb8	0140036f	jal	x6,80001eb8	  x6=0x80001eb8
       31125000	      3111	00000000	00000013	addi	x0,x0,0	  x0:0x00000000
       31135000	      3112	80001ec8	00000013	addi	x0,x0,0	  x0:0x00000000
       31145000	      3113	80001ecc	040000ef	jal	x1,80001ecc	  x1=0x80001ecc
       31155000	      3114	00000000	00000013	addi	x0,x0,0	  x0:0x00000000
       31165000	      3115	80001f08	00000013	addi	x0,x0,0	  x0:0x00000000
       31175000	      3116	80001f0c	ff9ff76f	jal	x14,80001f0c	 x14=0x80001f0c
       31185000	      3117	00000000	00000013	addi	x0,x0,0	  x0:0x00000000
       31195000	      3118	80001f00	00000013	addi	x0,x0,0	  x0:0x00000000
       31205000	      3119	80001f04	004009ef	jal	x19,80001f04	 x19=0x80001f04
       31215000	      3120	00000000	00000013	addi	x0,x0,0	  x0:0x00000000
       31225000	      3121	80001f04	00000013	addi	x0,x0,0	  x0:0x00000000
       31235000	      3122	80001f08	ff5ff0ef	jal	x1,80001f08	  x1=0x80001f08
       31245000	      3123	00000000	00000013	addi	x0,x0,0	  x0:0x00000000
       31255000	      3124	80001ef8	00000013	addi	x0,x0,0	  x0:0x00000000
       31265000	      3125	80001efc	fd9ff16f	jal	x2,80001efc	  x2=0x80001efc
       31275000	      3126	00000000	00000013	addi	x0,x0,0	  x0:0x00000000
       31285000	      3127	80001ed0	00000013	addi	x0,x0,0	  x0:0x00000000
       31295000	      3128	80001ed4	fedff0ef	jal	x1,80001ed4	  x1=0x80001ed4
       31305000	      3129	00000000	00000013	addi	x0,x0,0	  x0:0x00000000
       31315000	      3130	80001ebc	00000013	addi	x0,x0,0	  x0:0x00000000
       31325000	      3131	80001ec0	0280016f	jal	x2,80001ec0	  x2=0x80001ec0
       31335000	      3132	00000000	00000013	addi	x0,x0,0	  x0:0x00000000
       31345000	      3133	80001ee4	00000013	addi	x0,x0,0	  x0:0x00000000
       31355000	      3134	80001ee8	fd5ff0ef	jal	x1,80001ee8	  x1=0x80001ee8
       31365000	      3135	00000000	00000013	addi	x0,x0,0	  x0:0x00000000
       31375000	      3136	80001eb8	00000013	addi	x0,x0,0	  x0:0x00000000
       31385000	      3137	80001ebc	ff9ff0ef	jal	x1,80001ebc	  x1=0x80001ebc
       31395000	      3138	00000000	00000013	addi	x0,x0,0	  x0:0x00000000
       31405000	      3139	80001eb0	00000013	addi	x0,x0,0	  x0:0x00000000
       31415000	      3140	80001eb4	030000ef	jal	x1,80001eb4	  x1=0x80001eb4
       31425000	      3141	00000000	00000013	addi	x0,x0,0	  x0:0x00000000
       31435000	      3142	80001ee0	00000013	addi	x0,x0,0	  x0:0x00000000
       31445000	      3143	80001ee4	03000b6f	jal	x22,80001ee4	 x22=0x80001ee4
       31455000	      3144	00000000	00000013	addi	x0,x0,0	  x0:0x00000000
       31465000	      3145	80001f10	00000013	addi	x0,x0,0	  x0:0x00000000
       31475000	      3146	80001f14	05efff93	andi	x31,x31,94	 x31:0x800029dc x31=0x0000005c
       31485000	      3147	80001f18	0500016f	jal	x2,80001f18	  x2=0x80001f18
       31495000	      3148	00000000	00000013	addi	x0,x0,0	  x0:0x00000000
       31505000	      3149	80001f64	00000013	addi	x0,x0,0	  x0:0x00000000
       31515000	      3150	80001f68	01c000ef	jal	x1,80001f68	  x1=0x80001f68
       31525000	      3151	00000000	00000013	addi	x0,x0,0	  x0:0x00000000
       31535000	      3152	80001f80	00000013	addi	x0,x0,0	  x0:0x00000000
       31545000	      3153	80001f84	fd5ff0ef	jal	x1,80001f84	  x1=0x80001f84
       31555000	      3154	00000000	00000013	addi	x0,x0,0	  x0:0x00000000
       31565000	      3155	80001f54	00000013	addi	x0,x0,0	  x0:0x00000000
       31575000	      3156	80001f58	fd5ff36f	jal	x6,80001f58	  x6=0x80001f58
       31585000	      3157	00000000	00000013	addi	x0,x0,0	  x0:0x00000000
       31595000	      3158	80001f28	00000013	addi	x0,x0,0	  x0:0x00000000
       31605000	      3159	80001f2c	00c0036f	jal	x6,80001f2c	  x6=0x80001f2c
       31615000	      3160	00000000	00000013	addi	x0,x0,0	  x0:0x00000000
       31625000	      3161	80001f34	00000013	addi	x0,x0,0	  x0:0x00000000
       31635000	      3162	80001f38	ffdff16f	jal	x2,80001f38	  x2=0x80001f38
       31645000	      3163	00000000	00000013	addi	x0,x0,0	  x0:0x00000000
       31655000	      3164	80001f30	00000013	addi	x0,x0,0	  x0:0x00000000
       31665000	      3165	80001f34	ff1ffc6f	jal	x24,80001f34	 x24=0x80001f34
       31675000	      3166	00000000	00000013	addi	x0,x0,0	  x0:0x00000000
       31685000	      3167	80001f20	00000013	addi	x0,x0,0	  x0:0x00000000
       31695000	      3168	80001f24	0500036f	jal	x6,80001f24	  x6=0x80001f24
       31705000	      3169	00000000	00000013	addi	x0,x0,0	  x0:0x00000000
       31715000	      3170	80001f70	00000013	addi	x0,x0,0	  x0:0x00000000
       31725000	      3171	80001f74	fcdff0ef	jal	x1,80001f74	  x1=0x80001f74
       31735000	      3172	00000000	00000013	addi	x0,x0,0	  x0:0x00000000
       31745000	      3173	80001f3c	00000013	addi	x0,x0,0	  x0:0x00000000
       31755000	      3174	80001f40	030000ef	jal	x1,80001f40	  x1=0x80001f40
       31765000	      3175	00000000	00000013	addi	x0,x0,0	  x0:0x00000000
       31775000	      3176	80001f6c	00000013	addi	x0,x0,0	  x0:0x00000000
       31785000	      3177	80001f70	fd5ff0ef	jal	x1,80001f70	  x1=0x80001f70
       31795000	      3178	00000000	00000013	addi	x0,x0,0	  x0:0x00000000
       31805000	      3179	80001f40	00000013	addi	x0,x0,0	  x0:0x00000000
       31815000	      3180	80001f44	010000ef	jal	x1,80001f44	  x1=0x80001f44
       31825000	      3181	00000000	00000013	addi	x0,x0,0	  x0:0x00000000
       31835000	      3182	80001f50	00000013	addi	x0,x0,0	  x0:0x00000000
       31845000	      3183	80001f54	fcdff36f	jal	x6,80001f54	  x6=0x80001f54
       31855000	      3184	00000000	00000013	addi	x0,x0,0	  x0:0x00000000
       31865000	      3185	80001f1c	00000013	addi	x0,x0,0	  x0:0x00000000
       31875000	      3186	80001f20	01c000ef	jal	x1,80001f20	  x1=0x80001f20
       31885000	      3187	00000000	00000013	addi	x0,x0,0	  x0:0x00000000
       31895000	      3188	80001f38	00000013	addi	x0,x0,0	  x0:0x00000000
       31905000	      3189	80001f3c	040000ef	jal	x1,80001f3c	  x1=0x80001f3c
       31915000	      3190	00000000	00000013	addi	x0,x0,0	  x0:0x00000000
       31925000	      3191	80001f78	00000013	addi	x0,x0,0	  x0:0x00000000
       31935000	      3192	80001f7c	fe5ff16f	jal	x2,80001f7c	  x2=0x80001f7c
       31945000	      3193	00000000	00000013	addi	x0,x0,0	  x0:0x00000000
       31955000	      3194	80001f5c	00000013	addi	x0,x0,0	  x0:0x00000000
       31965000	      3195	80001f60	fc9ff0ef	jal	x1,80001f60	  x1=0x80001f60
       31975000	      3196	00000000	00000013	addi	x0,x0,0	  x0:0x00000000
       31985000	      3197	80001f24	00000013	addi	x0,x0,0	  x0:0x00000000
       31995000	      3198	80001f28	0580026f	jal	x4,80001f28	  x4=0x80001f28
       32005000	      3199	00000000	00000013	addi	x0,x0,0	  x0:0x00000000
       32015000	      3200	80001f7c	00000013	addi	x0,x0,0	  x0:0x00000000
       32025000	      3201	80001f80	ff9ff0ef	jal	x1,80001f80	  x1=0x80001f80
       32035000	      3202	00000000	00000013	addi	x0,x0,0	  x0:0x00000000
       32045000	      3203	80001f74	00000013	addi	x0,x0,0	  x0:0x00000000
       32055000	      3204	80001f78	fd1ff46f	jal	x8,80001f78	  x8=0x80001f78
       32065000	      3205	00000000	00000013	addi	x0,x0,0	  x0:0x00000000
       32075000	      3206	80001f44	00000013	addi	x0,x0,0	  x0:0x00000000
       32085000	      3207	80001f48	0240026f	jal	x4,80001f48	  x4=0x80001f48
       32095000	      3208	00000000	00000013	addi	x0,x0,0	  x0:0x00000000
       32105000	      3209	80001f68	00000013	addi	x0,x0,0	  x0:0x00000000
       32115000	      3210	80001f6c	01c0036f	jal	x6,80001f6c	  x6=0x80001f6c
       32125000	      3211	00000000	00000013	addi	x0,x0,0	  x0:0x00000000
       32135000	      3212	80001f84	00000013	addi	x0,x0,0	  x0:0x00000000
       32145000	      3213	80001f88	fd5ff0ef	jal	x1,80001f88	  x1=0x80001f88
       32155000	      3214	00000000	00000013	addi	x0,x0,0	  x0:0x00000000
       32165000	      3215	80001f58	00000013	addi	x0,x0,0	  x0:0x00000000
       32175000	      3216	80001f5c	ff1ff9ef	jal	x19,80001f5c	 x19=0x80001f5c
       32185000	      3217	00000000	00000013	addi	x0,x0,0	  x0:0x00000000
       32195000	      3218	80001f48	00000013	addi	x0,x0,0	  x0:0x00000000
       32205000	      3219	80001f4c	018000ef	jal	x1,80001f4c	  x1=0x80001f4c
       32215000	      3220	00000000	00000013	addi	x0,x0,0	  x0:0x00000000
       32225000	      3221	80001f60	00000013	addi	x0,x0,0	  x0:0x00000000
       32235000	      3222	80001f64	fedff36f	jal	x6,80001f64	  x6=0x80001f64
       32245000	      3223	00000000	00000013	addi	x0,x0,0	  x0:0x00000000
       32255000	      3224	80001f4c	00000013	addi	x0,x0,0	  x0:0x00000000
       32265000	      3225	80001f50	fe1ff0ef	jal	x1,80001f50	  x1=0x80001f50
       32275000	      3226	00000000	00000013	addi	x0,x0,0	  x0:0x00000000
       32285000	      3227	80001f2c	00000013	addi	x0,x0,0	  x0:0x00000000
       32295000	      3228	80001f30	fedff0ef	jal	x1,80001f30	  x1=0x80001f30
       32305000	      3229	00000000	00000013	addi	x0,x0,0	  x0:0x00000000
       32315000	      3230	80001f18	00000013	addi	x0,x0,0	  x0:0x00000000
       32325000	      3231	80001f1c	07000a6f	jal	x20,80001f1c	 x20=0x80001f1c
       32335000	      3232	00000000	00000013	addi	x0,x0,0	  x0:0x00000000
       32345000	      3233	80001f88	00000013	addi	x0,x0,0	  x0:0x00000000
       32355000	      3234	80001f8c	01f49193	slli	x3,x9,0x1f	  x9:0x80001dac  x3=0x00000000
       32365000	      3235	80001f90	99d8a993	slti	x19,x17,-1635	 x17:0x80002b75 x19=0x00000001
       32375000	      3236	80001f94	00811493	slli	x9,x2,0x8	  x2:0x80001f7c  x9=0x001f7c00
       32385000	      3237	80001f98	015cb233	sltu	x4,x25,x21	 x25:0x00000001 x21:0x000003a8  x4=0x00000001
       32395000	      3238	80001f9c	573fb493	sltiu	x9,x31,1395	 x31:0x0000005c  x9=0x00000001
       32405000	      3239	80001fa0	01297233	and	x4,x18,x18	 x18:0x80001eac x18:0x80001eac  x4=0x80001eac
       32415000	      3240	80001fa4	0103bb33	sltu	x22,x7,x16	  x7:0x00000000 x16:0x00000001 x22=0x00000001
       32425000	      3241	80001fa8	41f05ab3	sra	x21,x0,x31	  x0:0x00000000 x31:0x0000005c x21=0x00000000
       32435000	      3242	80001fac	a6fcc793	xori	x15,x25,-1425	 x25:0x00000001 x15=0xfffffa6e
       32445000	      3243	80001fb0	18777c93	andi	x25,x14,391	 x14:0x80001f0c x25=0x00000104
       32455000	      3244	80001fb4	01c3dbb3	srl	x23,x7,x28	  x7:0x00000000 x28:0x00000000 x23=0x00000000
       32465000	      3245	80001fb8	63cacb93	xori	x23,x21,1596	 x21:0x00000000 x23=0x0000063c
       32475000	      3246	80001fbc	00630eb3	add	x29,x6,x6	  x6:0x80001f64  x6:0x80001f64 x29=0x00003ec8
       32485000	      3247	80001fc0	04664263	blt	x12,x6,80002004	 x12:0x80001e88  x6:0x80001f64
       32495000	      3248	00000000	00000013	addi	x0,x0,0	  x0:0x00000000
       32505000	      3249	80002000	00000013	addi	x0,x0,0	  x0:0x00000000
       32515000	      3250	80002004	007e0533	add	x10,x28,x7	 x28:0x00000000  x7:0x00000000 x10=0x00000000
       32525000	      3251	80002008	03265463	bge	x12,x18,80002030	 x12:0x80001e88 x18:0x80001eac
       32535000	      3252	8000200c	01885393	srli	x7,x16,0x18	 x16:0x00000001  x7=0x00000000
       32545000	      3253	80002010	01c5db13	srli	x22,x11,0x1c	 x11:0x80009ed4 x22=0x00000008
       32555000	      3254	80002014	57127393	andi	x7,x4,1393	  x4:0x80001eac  x7=0x00000420
       32565000	      3255	80002018	b691cd13	xori	x26,x3,-1175	  x3:0x00000000 x26=0xfffffb69
       32575000	      3256	8000201c	013411b3	sll	x3,x8,x19	  x8:0x80001f78 x19:0x00000001  x3=0x00003ef0
       32585000	      3257	80002020	0052bbb3	sltu	x23,x5,x5	  x5:0x80009fc4  x5:0x80009fc4 x23=0x00000000
       32595000	      3258	80002024	018868b3	or	x17,x16,x24	 x16:0x00000001 x24:0x80001f34 x17=0x80001f35
       32605000	      3259	80002028	001c0663	beq	x24,x1,80002034	 x24:0x80001f34  x1:0x80001f30
       32615000	      3260	8000202c	40578cb3	sub	x25,x15,x5	 x15:0xfffffa6e  x5:0x80009fc4 x25=0x7fff5aaa
       32625000	      3261	80002030	6af33793	sltiu	x15,x6,1711	  x6:0x80001f64 x15=0x00000000
       32635000	      3262	80002034	01016b33	or	x22,x2,x16	  x2:0x80001f7c x16:0x00000001 x22=0x80001f7d
       32645000	      3263	80002038	00941e63	bne	x8,x9,80002054	  x8:0x80001f78  x9:0x00000001
       32655000	      3264	00000000	00000013	addi	x0,x0,0	  x0:0x00000000
       32665000	      3265	80002050	00000013	addi	x0,x0,0	  x0:0x00000000
       32675000	      3266	80002054	00e75493	srli	x9,x14,0xe	 x14:0x80001f0c  x9=0x00020000
       32685000	      3267	80002058	00000013	addi	x0,x0,0	  x0:0x00000000
       32695000	      3268	8000205c	01c74463	blt	x14,x28,80002064	 x14:0x80001f0c x28:0x00000000
       32705000	      3269	00000000	00000013	addi	x0,x0,0	  x0:0x00000000
       32715000	      3270	80002060	00000013	addi	x0,x0,0	  x0:0x00000000
       32725000	      3271	80002064	01441c63	bne	x8,x20,8000207c	  x8:0x80001f78 x20:0x80001f1c
       32735000	      3272	00000000	00000013	addi	x0,x0,0	  x0:0x00000000
       32745000	      3273	80002078	00000013	addi	x0,x0,0	  x0:0x00000000
       32755000	      3274	8000207c	01097cb3	and	x25,x18,x16	 x18:0x80001eac x16:0x00000001 x25=0x00000000
       32765000	      3275	80002080	df5e7193	andi	x3,x28,-523	 x28:0x00000000  x3=0x00000000
       32775000	      3276	80002084	da99ee93	ori	x29,x19,-599	 x19:0x00000001 x29=0xfffffda9
       32785000	      3277	80002088	00215093	srli	x1,x2,0x2	  x2:0x80001f7c  x1=0x200007df
       32795000	      3278	8000208c	35697097	auipc	x1,0x35697	  x1=0xb5699088
       32805000	      3279	80002090	0d97c193	xori	x3,x15,217	 x15:0x00000000  x3=0x000000d9
       32815000	      3280	80002094	003a2233	slt	x4,x20,x3	 x20:0x80001f1c  x3:0x000000d9  x4=0x00000001
       32825000	      3281	80002098	0084b4b3	sltu	x9,x9,x8	  x9:0x00020000  x8:0x80001f78  x9=0x00000001
       32835000	      3282	8000209c	0086ee63	bltu	x13,x8,800020b8	 x13:0x80001ec4  x8:0x80001f78
       32845000	      3283	00000000	00000013	addi	x0,x0,0	  x0:0x00000000
       32855000	      3284	800020b4	00000013	addi	x0,x0,0	  x0:0x00000000
       32865000	      3285	800020b8	01c18b33	add	x22,x3,x28	  x3:0x000000d9 x28:0x00000000 x22=0x000000d9
       32875000	      3286	800020bc	0126d913	srli	x18,x13,0x12	 x13:0x80001ec4 x18=0x00002000
       32885000	      3287	800020c0	00000013	addi	x0,x0,0	  x0:0x00000000
       32895000	      3288	800020c4	f7737613	andi	x12,x6,-137	  x6:0x80001f64 x12=0x80001f64
       32905000	      3289	800020c8	41af01b3	sub	x3,x30,x26	 x30:0x80001e7c x26:0xfffffb69  x3=0x80002313
       32915000	      3290	800020cc	00e18733	add	x14,x3,x14	  x3:0x80002313 x14:0x80001f0c x14=0x0000421f
       32925000	      3291	800020d0	405051b3	sra	x3,x0,x5	  x0:0x00000000  x5:0x80009fc4  x3=0x00000000
       32935000	      3292	800020d4	00729fb3	sll	x31,x5,x7	  x5:0x80009fc4  x7:0x00000420 x31=0x80009fc4
       32945000	      3293	800020d8	3ea5a713	slti	x14,x11,1002	 x11:0x80009ed4 x14=0x00000001
       32955000	      3294	800020dc	40455533	sra	x10,x10,x4	 x10:0x00000000  x4:0x00000001 x10=0x00000000
       32965000	      3295	800020e0	010b9033	sll	x0,x23,x16	 x23:0x00000000 x16:0x00000001
       32975000	      3296	800020e4	3b584393	xori	x7,x16,949	 x16:0x00000001  x7=0x000003b4
       32985000	      3297	800020e8	9867f613	andi	x12,x15,-1658	 x15:0x00000000 x12=0x00000000
       32995000	      3298	800020ec	014394b3	sll	x9,x7,x20	  x7:0x000003b4 x20:0x80001f1c  x9=0x40000000
       33005000	      3299	800020f0	d94bc793	xori	x15,x23,-620	 x23:0x00000000 x15=0xfffffd94
       33015000	      3300	800020f4	0333da63	bge	x7,x19,80002128	  x7:0x000003b4 x19:0x00000001
       33025000	      3301	00000000	00000013	addi	x0,x0,0	  x0:0x00000000
       33035000	      3302	80002124	00000013	addi	x0,x0,0	  x0:0x00000000
       33045000	      3303	80002128	dca37493	andi	x9,x6,-566	  x6:0x80001f64  x9=0x80001d40
       33055000	      3304	8000212c	00000013	addi	x0,x0,0	  x0:0x00000000
       33065000	      3305	80002130	07c1d063	bge	x3,x28,80002190	  x3:0x00000000 x28:0x00000000
       33075000	      3306	00000000	00000013	addi	x0,x0,0	  x0:0x00000000
       33085000	      3307	8000218c	00000013	addi	x0,x0,0	  x0:0x00000000
       33095000	      3308	80002190	05f01663	bne	x0,x31,800021dc	  x0:0x00000000 x31:0x80009fc4
       33105000	      3309	00000000	00000013	addi	x0,x0,0	  x0:0x00000000
       33115000	      3310	800021d8	00000013	addi	x0,x0,0	  x0:0x00000000
       33125000	      3311	800021dc	7c934637	lui	x12,0x7c934	 x12=0x7c934000
       33135000	      3312	800021e0	003e03b3	add	x7,x28,x3	 x28:0x00000000  x3:0x00000000  x7=0x00000000
       33145000	      3313	800021e4	988a4613	xori	x12,x20,-1656	 x20:0x80001f1c x12=0x7fffe694
       33155000	      3314	800021e8	05045863	bge	x8,x16,80002238	  x8:0x80001f78 x16:0x00000001
       33165000	      3315	800021ec	039e8463	beq	x29,x25,80002214	 x29:0xfffffda9 x25:0x00000000
       33175000	      3316	800021f0	2bcec693	xori	x13,x29,700	 x29:0xfffffda9 x13=0xffffff15
       33185000	      3317	800021f4	a1c25437	lui	x8,0xa1c25	  x8=0xa1c25000
       33195000	      3318	800021f8	008d18b3	sll	x17,x26,x8	 x26:0xfffffb69  x8:0xa1c25000 x17=0xfffffb69
       33205000	      3319	800021fc	01710db3	add	x27,x2,x23	  x2:0x80001f7c x23:0x00000000 x27=0x80001f7c
       33215000	      3320	80002200	ecd23013	sltiu	x0,x4,-307	  x4:0x00000001
       33225000	      3321	80002204	014aed33	or	x26,x21,x20	 x21:0x00000000 x20:0x80001f1c x26=0x80001f1c
       33235000	      3322	80002208	01e71193	slli	x3,x14,0x1e	 x14:0x00000001  x3=0x40000000
       33245000	      3323	8000220c	0157b4b3	sltu	x9,x15,x21	 x15:0xfffffd94 x21:0x00000000  x9=0x00000000
       33255000	      3324	80002210	01b239b3	sltu	x19,x4,x27	  x4:0x00000001 x27:0x80001f7c x19=0x00000001
       33265000	      3325	80002214	00000013	addi	x0,x0,0	  x0:0x00000000
       33275000	      3326	80002218	ba60c913	xori	x18,x1,-1114	  x1:0xb5699088 x18=0x4a966b2e
       33285000	      3327	8000221c	014aec63	bltu	x21,x20,80002234	 x21:0x00000000 x20:0x80001f1c
       33295000	      3328	00000000	00000013	addi	x0,x0,0	  x0:0x00000000
       33305000	      3329	80002230	00000013	addi	x0,x0,0	  x0:0x00000000
       33315000	      3330	80002234	01045c63	bge	x8,x16,8000224c	  x8:0xa1c25000 x16:0x00000001
       33325000	      3331	80002238	09d44913	xori	x18,x8,157	  x8:0xa1c25000 x18=0xa1c2509d
       33335000	      3332	8000223c	01c3b233	sltu	x4,x7,x28	  x7:0x00000000 x28:0x00000000  x4=0x00000000
       33345000	      3333	80002240	016be433	or	x8,x23,x22	 x23:0x00000000 x22:0x000000d9  x8=0x000000d9
       33355000	      3334	80002244	03c26a63	bltu	x4,x28,80002278	  x4:0x00000000 x28:0x00000000
       33365000	      3335	80002248	05fac263	blt	x21,x31,8000228c	 x21:0x00000000 x31:0x80009fc4
       33375000	      3336	8000224c	abdd1d37	lui	x26,0xabdd1	 x26=0xabdd1000
       33385000	      3337	80002250	014018b3	sll	x17,x0,x20	  x0:0x00000000 x20:0x80001f1c x17=0x00000000
       33395000	      3338	80002254	01b07c63	bgeu	x0,x27,8000226c	  x0:0x00000000 x27:0x80001f7c
       33405000	      3339	80002258	41b00f33	sub	x30,x0,x27	  x0:0x00000000 x27:0x80001f7c x30=0x7fffe084
       33415000	      3340	8000225c	01299db3	sll	x27,x19,x18	 x19:0x00000001 x18:0xa1c2509d x27=0x20000000
       33425000	      3341	80002260	00cb9693	slli	x13,x23,0xc	 x23:0x00000000 x13=0x00000000
       33435000	      3342	80002264	41fa80b3	sub	x1,x21,x31	 x21:0x00000000 x31:0x80009fc4  x1=0x7fff603c
       33445000	      3343	80002268	20eb8c93	addi	x25,x23,526	 x23:0x00000000 x25=0x0000020e
       33455000	      3344	8000226c	0db74263	blt	x14,x27,80002330	 x14:0x00000001 x27:0x20000000
       33465000	      3345	00000000	00000013	addi	x0,x0,0	  x0:0x00000000
       33475000	      3346	8000232c	00000013	addi	x0,x0,0	  x0:0x00000000
       33485000	      3347	80002330	018ad713	srli	x14,x21,0x18	 x21:0x00000000 x14=0x00000000
       33495000	      3348	80002334	003777b3	and	x15,x14,x3	 x14:0x00000000  x3:0x40000000 x15=0x00000000
       33505000	      3349	80002338	00afe533	or	x10,x31,x10	 x31:0x80009fc4 x10:0x00000000 x10=0x80009fc4
       33515000	      3350	8000233c	71757093	andi	x1,x10,1815	 x10:0x80009fc4  x1=0x00000704
       33525000	      3351	80002340	41e25633	sra	x12,x4,x30	  x4:0x00000000 x30:0x7fffe084 x12=0x00000000
       33535000	      3352	80002344	4121da93	srai	x21,x3,0x12	  x3:0x40000000 x21=0x00001000
       33545000	      3353	80002348	7e488d37	lui	x26,0x7e488	 x26=0x7e488000
       33555000	      3354	8000234c	f2ec6b13	ori	x22,x24,-210	 x24:0x80001f34 x22=0xffffff3e
       33565000	      3355	80002350	0000db13	srli	x22,x1,0x0	  x1:0x00000704 x22=0x00000704
       33575000	      3356	80002354	413ed0b3	sra	x1,x29,x19	 x29:0xfffffda9 x19:0x00000001  x1=0xfffffed4
       33585000	      3357	80002358	00346c63	bltu	x8,x3,80002370	  x8:0x000000d9  x3:0x40000000
       33595000	      3358	00000000	00000013	addi	x0,x0,0	  x0:0x00000000
       33605000	      3359	8000236c	00000013	addi	x0,x0,0	  x0:0x00000000
       33615000	      3360	80002370	0081c533	xor	x10,x3,x8	  x3:0x40000000  x8:0x000000d9 x10=0x400000d9
       33625000	      3361	80002374	05d30663	beq	x6,x29,800023c0	  x6:0x80001f64 x29:0xfffffda9
       33635000	      3362	80002378	005c6233	or	x4,x24,x5	 x24:0x80001f34  x5:0x80009fc4  x4=0x80009ff4
       33645000	      3363	8000237c	40e6d313	srai	x6,x13,0xe	 x13:0x00000000  x6=0x00000000
       33655000	      3364	80002380	01035a33	srl	x20,x6,x16	  x6:0x00000000 x16:0x00000001 x20=0x00000000
       33665000	      3365	80002384	006eceb3	xor	x29,x29,x6	 x29:0xfffffda9  x6:0x00000000 x29=0xfffffda9
       33675000	      3366	80002388	b81b3b13	sltiu	x22,x22,-1151	 x22:0x00000704 x22=0x00000001
       33685000	      3367	8000238c	5df60893	addi	x17,x12,1503	 x12:0x00000000 x17=0x000005df
       33695000	      3368	80002390	5b4aed93	ori	x27,x21,1460	 x21:0x00001000 x27=0x000015b4
       33705000	      3369	80002394	b43a2137	lui	x2,0xb43a2	  x2=0xb43a2000
       33715000	      3370	80002398	01c94e63	blt	x18,x28,800023b4	 x18:0xa1c2509d x28:0x00000000
       33725000	      3371	00000000	00000013	addi	x0,x0,0	  x0:0x00000000
       33735000	      3372	800023b0	00000013	addi	x0,x0,0	  x0:0x00000000
       33745000	      3373	800023b4	012a5c93	srli	x25,x20,0x12	 x20:0x00000000 x25=0x00000000
       33755000	      3374	800023b8	01005313	srli	x6,x0,0x10	  x0:0x00000000  x6=0x00000000
       33765000	      3375	800023bc	5a377713	andi	x14,x14,1443	 x14:0x00000000 x14=0x00000000
       33775000	      3376	800023c0	403e5113	srai	x2,x28,0x3	 x28:0x00000000  x2=0x00000000
       33785000	      3377	800023c4	40b55d93	srai	x27,x10,0xb	 x10:0x400000d9 x27=0x00080000
       33795000	      3378	800023c8	006fd493	srli	x9,x31,0x6	 x31:0x80009fc4  x9=0x0200027f
       33805000	      3379	800023cc	0030d3b3	srl	x7,x1,x3	  x1:0xfffffed4  x3:0x40000000  x7=0xfffffed4
       33815000	      3380	800023d0	03c15463	bge	x2,x28,800023f8	  x2:0x00000000 x28:0x00000000
       33825000	      3381	00000000	00000013	addi	x0,x0,0	  x0:0x00000000
       33835000	      3382	800023f4	00000013	addi	x0,x0,0	  x0:0x00000000
       33845000	      3383	800023f8	0061d7b3	srl	x15,x3,x6	  x3:0x40000000  x6:0x00000000 x15=0x40000000
       33855000	      3384	800023fc	020f4463	blt	x30,x0,80002424	 x30:0x7fffe084  x0:0x00000000
       33865000	      3385	80002400	01196f33	or	x30,x18,x17	 x18:0xa1c2509d x17:0x000005df x30=0xa1c255df
       33875000	      3386	80002404	19012413	slti	x8,x2,400	  x2:0x00000000  x8=0x00000001
       33885000	      3387	80002408	1813a793	slti	x15,x7,385	  x7:0xfffffed4 x15=0x00000001
       33895000	      3388	8000240c	93613913	sltiu	x18,x2,-1738	  x2:0x00000000 x18=0x00000001
       33905000	      3389	80002410	de3e2b17	auipc	x22,0xde3e2	 x22=0x5e3e440c
       33915000	      3390	80002414	00abc033	xor	x0,x23,x10	 x23:0x00000000 x10:0x400000d9
       33925000	      3391	80002418	1e414017	auipc	x0,0x1e414	
       33935000	      3392	8000241c	416b5bb3	sra	x23,x22,x22	 x22:0x5e3e440c x22:0x5e3e440c x23=0x0005e3e4
       33945000	      3393	80002420	af568613	addi	x12,x13,-1291	 x13:0x00000000 x12=0xfffffaf5
       33955000	      3394	80002424	95ae3393	sltiu	x7,x28,-1702	 x28:0x00000000  x7=0x00000001
       33965000	      3395	80002428	ab758613	addi	x12,x11,-1353	 x11:0x80009ed4 x12=0x8000998b
       33975000	      3396	8000242c	005fdb13	srli	x22,x31,0x5	 x31:0x80009fc4 x22=0x040004fe
       33985000	      3397	80002430	00e099b3	sll	x19,x1,x14	  x1:0xfffffed4 x14:0x00000000 x19=0xfffffed4
       33995000	      3398	80002434	408b8533	sub	x10,x23,x8	 x23:0x0005e3e4  x8:0x00000001 x10=0x0005e3e3
       34005000	      3399	80002438	05fcf863	bgeu	x25,x31,80002488	 x25:0x00000000 x31:0x80009fc4
       34015000	      3400	8000243c	3af83993	sltiu	x19,x16,943	 x16:0x00000001 x19=0x00000001
       34025000	      3401	80002440	003e5e63	bge	x28,x3,8000245c	 x28:0x00000000  x3:0x40000000
       34035000	      3402	80002444	02261663	bne	x12,x2,80002470	 x12:0x8000998b  x2:0x00000000
       34045000	      3403	00000000	00000013	addi	x0,x0,0	  x0:0x00000000
       34055000	      3404	8000246c	00000013	addi	x0,x0,0	  x0:0x00000000
       34065000	      3405	80002470	01cb54b3	srl	x9,x22,x28	 x22:0x040004fe x28:0x00000000  x9=0x040004fe
       34075000	      3406	80002474	349f8693	addi	x13,x31,841	 x31:0x80009fc4 x13=0x8000a30d
       34085000	      3407	80002478	016c9b13	slli	x22,x25,0x16	 x25:0x00000000 x22=0x00000000
       34095000	      3408	8000247c	006ef663	bgeu	x29,x6,80002488	 x29:0xfffffda9  x6:0x00000000
       34105000	      3409	00000000	00000013	addi	x0,x0,0	  x0:0x00000000
       34115000	      3410	80002484	00000013	addi	x0,x0,0	  x0:0x00000000
       34125000	      3411	80002488	0176c733	xor	x14,x13,x23	 x13:0x8000a30d x23:0x0005e3e4 x14=0x800540e9
       34135000	      3412	8000248c	75dcff93	andi	x31,x25,1885	 x25:0x00000000 x31=0x00000000
       34145000	      3413	80002490	01434db3	xor	x27,x6,x20	  x6:0x00000000 x20:0x00000000 x27=0x00000000
       34155000	      3414	80002494	1f166fb7	lui	x31,0x1f166	 x31=0x1f166000
       34165000	      3415	80002498	0463e263	bltu	x7,x6,800024dc	  x7:0x00000001  x6:0x00000000
       34175000	      3416	8000249c	06378693	addi	x13,x15,99	 x15:0x00000001 x13=0x00000064
       34185000	      3417	800024a0	01b15c93	srli	x25,x2,0x1b	  x2:0x00000000 x25=0x00000000
       34195000	      3418	800024a4	41565793	srai	x15,x12,0x15	 x12:0x8000998b x15=0xfffffc00
       34205000	      3419	800024a8	f9b36f13	ori	x30,x6,-101	  x6:0x00000000 x30=0xffffff9b
       34215000	      3420	800024ac	00df4fb3	xor	x31,x30,x13	 x30:0xffffff9b x13:0x00000064 x31=0xffffffff
       34225000	      3421	800024b0	761508b7	lui	x17,0x76150	 x17=0x76150000
       34235000	      3422	800024b4	7bfe6493	ori	x9,x28,1983	 x28:0x00000000  x9=0x000007bf
       34245000	      3423	800024b8	26dbfd93	andi	x27,x23,621	 x23:0x0005e3e4 x27=0x00000264
       34255000	      3424	800024bc	01ddf463	bgeu	x27,x29,800024c4	 x27:0x00000264 x29:0xfffffda9
       34265000	      3425	800024c0	01af5f13	srli	x30,x30,0x1a	 x30:0xffffff9b x30=0x0000003f
       34275000	      3426	800024c4	04691063	bne	x18,x6,80002504	 x18:0x00000001  x6:0x00000000
       34285000	      3427	00000000	00000013	addi	x0,x0,0	  x0:0x00000000
       34295000	      3428	80002500	00000013	addi	x0,x0,0	  x0:0x00000000
       34305000	      3429	80002504	8c68b413	sltiu	x8,x17,-1850	 x17:0x76150000  x8=0x00000001
       34315000	      3430	80002508	01349913	slli	x18,x9,0x13	  x9:0x000007bf x18=0x3df80000
       34325000	      3431	8000250c	c04ccc93	xori	x25,x25,-1020	 x25:0x00000000 x25=0xfffffc04
       34335000	      3432	80002510	26e4e493	ori	x9,x9,622	  x9:0x000007bf  x9=0x000007ff
       34345000	      3433	80002514	6f910093	addi	x1,x2,1785	  x2:0x00000000  x1=0x000006f9
       34355000	      3434	80002518	01d1d693	srli	x13,x3,0x1d	  x3:0x40000000 x13=0x00000002
       34365000	      3435	8000251c	4112d333	sra	x6,x5,x17	  x5:0x80009fc4 x17:0x76150000  x6=0x80009fc4
       34375000	      3436	80002520	672fe737	lui	x14,0x672fe	 x14=0x672fe000
       34385000	      3437	80002524	0352e663	bltu	x5,x21,80002550	  x5:0x80009fc4 x21:0x00001000
       34395000	      3438	80002528	a6c1c693	xori	x13,x3,-1428	  x3:0x40000000 x13=0xbffffa6c
       34405000	      3439	8000252c	407fd193	srai	x3,x31,0x7	 x31:0xffffffff  x3=0xffffffff
       34415000	      3440	80002530	b22c3d37	lui	x26,0xb22c3	 x26=0xb22c3000
       34425000	      3441	80002534	00047db3	and	x27,x8,x0	  x8:0x00000001  x0:0x00000000 x27=0x00000000
       34435000	      3442	80002538	01b73cb3	sltu	x25,x14,x27	 x14:0x672fe000 x27:0x00000000 x25=0x00000000
       34445000	      3443	8000253c	00688db3	add	x27,x17,x6	 x17:0x76150000  x6:0x80009fc4 x27=0xf6159fc4
       34455000	      3444	80002540	000c5993	srli	x19,x24,0x0	 x24:0x80001f34 x19=0x80001f34
       34465000	      3445	80002544	e6134213	xori	x4,x6,-415	  x6:0x80009fc4  x4=0x7fff61a5
       34475000	      3446	80002548	00801933	sll	x18,x0,x8	  x0:0x00000000  x8:0x00000001 x18=0x00000000
       34485000	      3447	8000254c	802c8e93	addi	x29,x25,-2046	 x25:0x00000000 x29=0xfffff802
       34495000	      3448	80002550	64d07393	andi	x7,x0,1613	  x0:0x00000000  x7=0x00000000
       34505000	      3449	80002554	2ce54693	xori	x13,x10,718	 x10:0x0005e3e3 x13=0x0005e12d
       34515000	      3450	80002558	008b1913	slli	x18,x22,0x8	 x22:0x00000000 x18=0x00000000
       34525000	      3451	8000255c	0255f263	bgeu	x11,x5,80002580	 x11:0x80009ed4  x5:0x80009fc4
       34535000	      3452	80002560	005c7c63	bgeu	x24,x5,80002578	 x24:0x80001f34  x5:0x80009fc4
       34545000	      3453	80002564	f54cf913	andi	x18,x25,-172	 x25:0x00000000 x18=0x00000000
       34555000	      3454	80002568	01e75e93	srli	x29,x14,0x1e	 x14:0x672fe000 x29=0x00000001
       34565000	      3455	8000256c	00a9f333	and	x6,x19,x10	 x19:0x80001f34 x10:0x0005e3e3  x6=0x00000320
       34575000	      3456	80002570	40228433	sub	x8,x5,x2	  x5:0x80009fc4  x2:0x00000000  x8=0x80009fc4
       34585000	      3457	80002574	0026a9b3	slt	x19,x13,x2	 x13:0x0005e12d  x2:0x00000000 x19=0x00000000
       34595000	      3458	80002578	01e477b3	and	x15,x8,x30	  x8:0x80009fc4 x30:0x0000003f x15=0x00000004
       34605000	      3459	8000257c	41675993	srai	x19,x14,0x16	 x14:0x672fe000 x19=0x0000019c
       34615000	      3460	80002580	70962493	slti	x9,x12,1801	 x12:0x8000998b  x9=0x00000001
       34625000	      3461	80002584	4f44b413	sltiu	x8,x9,1268	  x9:0x00000001  x8=0x00000001
       34635000	      3462	80002588	01850133	add	x2,x10,x24	 x10:0x0005e3e3 x24:0x80001f34  x2=0x80060317
       34645000	      3463	8000258c	1dbf2713	slti	x14,x30,475	 x30:0x0000003f x14=0x00000001
       34655000	      3464	80002590	3a8e6a93	ori	x21,x28,936	 x28:0x00000000 x21=0x000003a8
       34665000	      3465	80002594	00507663	bgeu	x0,x5,800025a0	  x0:0x00000000  x5:0x80009fc4
       34675000	      3466	80002598	8d7f6e93	ori	x29,x30,-1833	 x30:0x0000003f x29=0xfffff8ff
       34685000	      3467	8000259c	000598b3	sll	x17,x11,x0	 x11:0x80009ed4  x0:0x00000000 x17=0x80009ed4
       34695000	      3468	800025a0	01980533	add	x10,x16,x25	 x16:0x00000001 x25:0x00000000 x10=0x00000001
       34705000	      3469	800025a4	c2744f13	xori	x30,x8,-985	  x8:0x00000001 x30=0xfffffc26
       34715000	      3470	800025a8	00c21eb3	sll	x29,x4,x12	  x4:0x7fff61a5 x12:0x8000998b x29=0xfb0d2800
       34725000	      3471	800025ac	00bcd493	srli	x9,x25,0xb	 x25:0x00000000  x9=0x00000000
       34735000	      3472	800025b0	01211633	sll	x12,x2,x18	  x2:0x80060317 x18:0x00000000 x12=0x80060317
       34745000	      3473	800025b4	d1c09617	auipc	x12,0xd1c09	 x12=0x51c0b5b0
       34755000	      3474	800025b8	8339c393	xori	x7,x19,-1997	 x19:0x0000019c  x7=0xfffff9af
       34765000	      3475	800025bc	00000013	addi	x0,x0,0	  x0:0x00000000
       34775000	      3476	800025c0	009cb1b3	sltu	x3,x25,x9	 x25:0x00000000  x9:0x00000000  x3=0x00000000
       34785000	      3477	800025c4	035ae463	bltu	x21,x21,800025ec	 x21:0x000003a8 x21:0x000003a8
       34795000	      3478	800025c8	011cde93	srli	x29,x25,0x11	 x25:0x00000000 x29=0x00000000
       34805000	      3479	800025cc	01e51c63	bne	x10,x30,800025e4	 x10:0x00000001 x30:0xfffffc26
       34815000	      3480	00000000	00000013	addi	x0,x0,0	  x0:0x00000000
       34825000	      3481	800025e0	00000013	addi	x0,x0,0	  x0:0x00000000
       34835000	      3482	800025e4	02d95663	bge	x18,x13,80002610	 x18:0x00000000 x13:0x0005e12d
       34845000	      3483	800025e8	0bfb0e63	beq	x22,x31,800026a4	 x22:0x00000000 x31:0xffffffff
       34855000	      3484	800025ec	007b3cb3	sltu	x25,x22,x7	 x22:0x00000000  x7:0xfffff9af x25=0x00000001
       34865000	      3485	800025f0	0068ce63	blt	x17,x6,8000260c	 x17:0x80009ed4  x6:0x00000320
       34875000	      3486	00000000	00000013	addi	x0,x0,0	  x0:0x00000000
       34885000	      3487	80002608	00000013	addi	x0,x0,0	  x0:0x00000000
       34895000	      3488	8000260c	41445493	srai	x9,x8,0x14	  x8:0x00000001  x9=0x00000000
       34905000	      3489	80002610	bb327093	andi	x1,x4,-1101	  x4:0x7fff61a5  x1=0x7fff61a1
       34915000	      3490	80002614	0b154863	blt	x10,x17,800026c4	 x10:0x00000001 x17:0x80009ed4
       34925000	      3491	80002618	40ecb013	sltiu	x0,x25,1038	 x25:0x00000001
       34935000	      3492	8000261c	41cf0f33	sub	x30,x30,x28	 x30:0xfffffc26 x28:0x00000000 x30=0xfffffc26
       34945000	      3493	80002620	01e78d33	add	x26,x15,x30	 x15:0x00000004 x30:0xfffffc26 x26=0xfffffc2a
       34955000	      3494	80002624	074f0c63	beq	x30,x20,8000269c	 x30:0xfffffc26 x20:0x00000000
       34965000	      3495	80002628	0040016f	jal	x2,80002628	  x2=0x80002628
       34975000	      3496	00000000	00000013	addi	x0,x0,0	  x0:0x00000000
       34985000	      3497	80002628	00000013	addi	x0,x0,0	  x0:0x00000000
       34995000	      3498	8000262c	04c000ef	jal	x1,8000262c	  x1=0x8000262c
       35005000	      3499	00000000	00000013	addi	x0,x0,0	  x0:0x00000000
       35015000	      3500	80002674	00000013	addi	x0,x0,0	  x0:0x00000000
       35025000	      3501	80002678	fddff76f	jal	x14,80002678	 x14=0x80002678
       35035000	      3502	00000000	00000013	addi	x0,x0,0	  x0:0x00000000
       35045000	      3503	80002650	00000013	addi	x0,x0,0	  x0:0x00000000
       35055000	      3504	80002654	02c0026f	jal	x4,80002654	  x4=0x80002654
       35065000	      3505	00000000	00000013	addi	x0,x0,0	  x0:0x00000000
       35075000	      3506	8000267c	00000013	addi	x0,x0,0	  x0:0x00000000
       35085000	      3507	80002680	fbdffd6f	jal	x26,80002680	 x26=0x80002680
       35095000	      3508	00000000	00000013	addi	x0,x0,0	  x0:0x00000000
       35105000	      3509	80002638	00000013	addi	x0,x0,0	  x0:0x00000000
       35115000	      3510	8000263c	04c0036f	jal	x6,8000263c	  x6=0x8000263c
       35125000	      3511	00000000	00000013	addi	x0,x0,0	  x0:0x00000000
       35135000	      3512	80002684	00000013	addi	x0,x0,0	  x0:0x00000000
       35145000	      3513	80002688	fe9ff36f	jal	x6,80002688	  x6=0x80002688
       35155000	      3514	00000000	00000013	addi	x0,x0,0	  x0:0x00000000
       35165000	      3515	8000266c	00000013	addi	x0,x0,0	  x0:0x00000000
       35175000	      3516	80002670	014000ef	jal	x1,80002670	  x1=0x80002670
       35185000	      3517	00000000	00000013	addi	x0,x0,0	  x0:0x00000000
       35195000	      3518	80002680	00000013	addi	x0,x0,0	  x0:0x00000000
       35205000	      3519	80002684	fe9ff36f	jal	x6,80002684	  x6=0x80002684
       35215000	      3520	00000000	00000013	addi	x0,x0,0	  x0:0x00000000
       35225000	      3521	80002668	00000013	addi	x0,x0,0	  x0:0x00000000
       35235000	      3522	8000266c	ff9ff0ef	jal	x1,8000266c	  x1=0x8000266c
       35245000	      3523	00000000	00000013	addi	x0,x0,0	  x0:0x00000000
       35255000	      3524	80002660	00000013	addi	x0,x0,0	  x0:0x00000000
       35265000	      3525	80002664	fddff0ef	jal	x1,80002664	  x1=0x80002664
       35275000	      3526	00000000	00000013	addi	x0,x0,0	  x0:0x00000000
       35285000	      3527	8000263c	00000013	addi	x0,x0,0	  x0:0x00000000
       35295000	      3528	80002640	00c000ef	jal	x1,80002640	  x1=0x80002640
       35305000	      3529	00000000	00000013	addi	x0,x0,0	  x0:0x00000000
       35315000	      3530	80002648	00000013	addi	x0,x0,0	  x0:0x00000000
       35325000	      3531	8000264c	014000ef	jal	x1,8000264c	  x1=0x8000264c
       35335000	      3532	00000000	00000013	addi	x0,x0,0	  x0:0x00000000
       35345000	      3533	8000265c	00000013	addi	x0,x0,0	  x0:0x00000000
       35355000	      3534	80002660	fd9ff0ef	jal	x1,80002660	  x1=0x80002660
       35365000	      3535	00000000	00000013	addi	x0,x0,0	  x0:0x00000000
       35375000	      3536	80002634	00000013	addi	x0,x0,0	  x0:0x00000000
       35385000	      3537	80002638	03c0086f	jal	x16,80002638	 x16=0x80002638
       35395000	      3538	00000000	00000013	addi	x0,x0,0	  x0:0x00000000
       35405000	      3539	80002670	00000013	addi	x0,x0,0	  x0:0x00000000
       35415000	      3540	80002674	008000ef	jal	x1,80002674	  x1=0x80002674
       35425000	      3541	00000000	00000013	addi	x0,x0,0	  x0:0x00000000
       35435000	      3542	80002678	00000013	addi	x0,x0,0	  x0:0x00000000
       35445000	      3543	8000267c	fc9ff16f	jal	x2,8000267c	  x2=0x8000267c
       35455000	      3544	00000000	00000013	addi	x0,x0,0	  x0:0x00000000
       35465000	      3545	80002640	00000013	addi	x0,x0,0	  x0:0x00000000
       35475000	      3546	80002644	014000ef	jal	x1,80002644	  x1=0x80002644
       35485000	      3547	00000000	00000013	addi	x0,x0,0	  x0:0x00000000
       35495000	      3548	80002654	00000013	addi	x0,x0,0	  x0:0x00000000
       35505000	      3549	80002658	038000ef	jal	x1,80002658	  x1=0x80002658
       35515000	      3550	00000000	00000013	addi	x0,x0,0	  x0:0x00000000
       35525000	      3551	8000268c	00000013	addi	x0,x0,0	  x0:0x00000000
       35535000	      3552	80002690	fc1ff1ef	jal	x3,80002690	  x3=0x80002690
       35545000	      3553	00000000	00000013	addi	x0,x0,0	  x0:0x00000000
       35555000	      3554	8000264c	00000013	addi	x0,x0,0	  x0:0x00000000
       35565000	      3555	80002650	0180036f	jal	x6,80002650	  x6=0x80002650
       35575000	      3556	00000000	00000013	addi	x0,x0,0	  x0:0x00000000
       35585000	      3557	80002664	00000013	addi	x0,x0,0	  x0:0x00000000
       35595000	      3558	80002668	fe1ff0ef	jal	x1,80002668	  x1=0x80002668
       35605000	      3559	00000000	00000013	addi	x0,x0,0	  x0:0x00000000
       35615000	      3560	80002644	00000013	addi	x0,x0,0	  x0:0x00000000
       35625000	      3561	80002648	014000ef	jal	x1,80002648	  x1=0x80002648
       35635000	      3562	00000000	00000013	addi	x0,x0,0	  x0:0x00000000
       35645000	      3563	80002658	00000013	addi	x0,x0,0	  x0:0x00000000
       35655000	      3564	8000265c	03000a6f	jal	x20,8000265c	 x20=0x8000265c
       35665000	      3565	00000000	00000013	addi	x0,x0,0	  x0:0x00000000
       35675000	      3566	80002688	00000013	addi	x0,x0,0	  x0:0x00000000
       35685000	      3567	8000268c	fa5ff0ef	jal	x1,8000268c	  x1=0x8000268c
       35695000	      3568	00000000	00000013	addi	x0,x0,0	  x0:0x00000000
       35705000	      3569	8000262c	00000013	addi	x0,x0,0	  x0:0x00000000
       35715000	      3570	80002630	004000ef	jal	x1,80002630	  x1=0x80002630
       35725000	      3571	00000000	00000013	addi	x0,x0,0	  x0:0x00000000
       35735000	      3572	80002630	00000013	addi	x0,x0,0	  x0:0x00000000
       35745000	      3573	80002634	060000ef	jal	x1,80002634	  x1=0x80002634
       35755000	      3574	00000000	00000013	addi	x0,x0,0	  x0:0x00000000
       35765000	      3575	80002690	00000013	addi	x0,x0,0	  x0:0x00000000
       35775000	      3576	80002694	94897a13	andi	x20,x18,-1720	 x18:0x00000000 x20=0x00000000
       35785000	      3577	80002698	02cfe063	bltu	x31,x12,800026b8	 x31:0xffffffff x12:0x51c0b5b0
       35795000	      3578	8000269c	00941993	slli	x19,x8,0x9	  x8:0x00000001 x19=0x00000200
       35805000	      3579	800026a0	040dd863	bge	x27,x0,800026f0	 x27:0xf6159fc4  x0:0x00000000
       35815000	      3580	800026a4	0ac13a37	lui	x20,0xac13	 x20=0x0ac13000
       35825000	      3581	800026a8	011d98b3	sll	x17,x27,x17	 x27:0xf6159fc4 x17:0x80009ed4 x17=0xfc400000
       35835000	      3582	800026ac	00000013	addi	x0,x0,0	  x0:0x00000000
       35845000	      3583	800026b0	05184263	blt	x16,x17,800026f4	 x16:0x80002638 x17:0xfc400000
       35855000	      3584	00000000	00000013	addi	x0,x0,0	  x0:0x00000000
       35865000	      3585	800026f0	00000013	addi	x0,x0,0	  x0:0x00000000
       35875000	      3586	800026f4	03bb9663	bne	x23,x27,80002720	 x23:0x0005e3e4 x27:0xf6159fc4
       35885000	      3587	00000000	00000013	addi	x0,x0,0	  x0:0x00000000
       35895000	      3588	8000271c	00000013	addi	x0,x0,0	  x0:0x00000000
       35905000	      3589	80002720	006afdb3	and	x27,x21,x6	 x21:0x000003a8  x6:0x80002650 x27=0x00000200
       35915000	      3590	80002724	e9d7e493	ori	x9,x15,-355	 x15:0x00000004  x9=0xfffffe9d
       35925000	      3591	80002728	0045a103	lw	x2,4(x11)	 x11:0x80009ed4  x2=0x80002ac8 PA:0x80009ed8
       35935000	      3592	00000000	00000013	addi	x0,x0,0	  x0:0x00000000
       35945000	      3593	8000272c	c3010313	addi	x6,x2,-976	  x2:0x80002ac8  x6=0x800026f8
       35955000	      3594	80002730	04058593	addi	x11,x11,64	 x11:0x80009ed4 x11=0x80009f14
       35965000	      3595	80002734	17206613	ori	x12,x0,370	  x0:0x00000000 x12=0x00000172
       35975000	      3596	80002738	0085beb3	sltu	x29,x11,x8	 x11:0x80009f14  x8:0x00000001 x29=0x00000000
       35985000	      3597	8000273c	015c9eb3	sll	x29,x25,x21	 x25:0x00000001 x21:0x000003a8 x29=0x00000100
       35995000	      3598	80002740	00110113	addi	x2,x2,1	  x2:0x80002ac8  x2=0x80002ac9
       36005000	      3599	80002744	00010167	jalr	x2,x2,0	  x2:0x80002ac9  x2=0x80002744
       36015000	      3600	00000000	00000013	addi	x0,x0,0	  x0:0x00000000
       36025000	      3601	80002ac8	00000013	addi	x0,x0,0	  x0:0x00000000
       36035000	      3602	80002acc	01491633	sll	x12,x18,x20	 x18:0x00000000 x20:0x0ac13000 x12=0x00000000
       36045000	      3603	80002ad0	ce1e7d13	andi	x26,x28,-799	 x28:0x00000000 x26=0x00000000
       36055000	      3604	80002ad4	41b20cb3	sub	x25,x4,x27	  x4:0x80002654 x27:0x00000200 x25=0x80002454
       36065000	      3605	80002ad8	0165d833	srl	x16,x11,x22	 x11:0x80009f14 x22:0x00000000 x16=0x80009f14
       36075000	      3606	80002adc	40aa5233	sra	x4,x20,x10	 x20:0x0ac13000 x10:0x00000001  x4=0x05609800
       36085000	      3607	80002ae0	a0af7217	auipc	x4,0xa0af7	  x4=0x20af9adc
       36095000	      3608	80002ae4	03169463	bne	x13,x17,80002b0c	 x13:0x0005e12d x17:0xfc400000
       36105000	      3609	00000000	00000013	addi	x0,x0,0	  x0:0x00000000
       36115000	      3610	80002b08	00000013	addi	x0,x0,0	  x0:0x00000000
       36125000	      3611	80002b0c	012a5933	srl	x18,x20,x18	 x20:0x0ac13000 x18:0x00000000 x18=0x0ac13000
       36135000	      3612	80002b10	001dd263	bge	x27,x1,80002b14	 x27:0x00000200  x1:0x80002634
       36145000	      3613	00000000	00000013	addi	x0,x0,0	  x0:0x00000000
       36155000	      3614	80002b10	00000013	addi	x0,x0,0	  x0:0x00000000
       36165000	      3615	80002b14	029f9063	bne	x31,x9,80002b34	 x31:0xffffffff  x9:0xfffffe9d
       36175000	      3616	00000000	00000013	addi	x0,x0,0	  x0:0x00000000
       36185000	      3617	80002b30	00000013	addi	x0,x0,0	  x0:0x00000000
       36195000	      3618	80002b34	04a0f063	bgeu	x1,x10,80002b74	  x1:0x80002634 x10:0x00000001
       36205000	      3619	00000000	00000013	addi	x0,x0,0	  x0:0x00000000
       36215000	      3620	80002b70	00000013	addi	x0,x0,0	  x0:0x00000000
       36225000	      3621	80002b74	04cbee63	bltu	x23,x12,80002bd0	 x23:0x0005e3e4 x12:0x00000000
       36235000	      3622	80002b78	006b6db3	or	x27,x22,x6	 x22:0x00000000  x6:0x800026f8 x27=0x800026f8
       36245000	      3623	80002b7c	fb8c4913	xori	x18,x24,-72	 x24:0x80001f34 x18=0x7fffe08c
       36255000	      3624	80002b80	0158af33	slt	x30,x17,x21	 x17:0xfc400000 x21:0x000003a8 x30=0x00000001
       36265000	      3625	80002b84	01d7c863	blt	x15,x29,80002b94	 x15:0x00000004 x29:0x00000100
       36275000	      3626	00000000	00000013	addi	x0,x0,0	  x0:0x00000000
       36285000	      3627	80002b90	00000013	addi	x0,x0,0	  x0:0x00000000
       36295000	      3628	80002b94	7f10016f	jal	x2,80002b94	  x2=0x80002b94
       36305000	      3629	00000000	00000013	addi	x0,x0,0	  x0:0x00000000
       36315000	      3630	80003b80	00000013	addi	x0,x0,0	  x0:0x00000000
       36325000	      3631	80003b84	f0cca393	slti	x7,x25,-244	 x25:0x80002454  x7=0x00000001
       36335000	      3632	80003b88	40315493	srai	x9,x2,0x3	  x2:0x80002b94  x9=0xf0000572
       36345000	      3633	80003b8c	40a808b3	sub	x17,x16,x10	 x16:0x80009f14 x10:0x00000001 x17=0x80009f13
       36355000	      3634	80003b90	01485263	bge	x16,x20,80003b94	 x16:0x80009f14 x20:0x0ac13000
       36365000	      3635	80003b94	fdc58593	addi	x11,x11,-36	 x11:0x80009f14 x11=0x80009ef0
       36375000	      3636	80003b98	008a63b3	or	x7,x20,x8	 x20:0x0ac13000  x8:0x00000001  x7=0x0ac13001
       36385000	      3637	80003b9c	0025a223	sw	x2,4(x11)	 x11:0x80009ef0  x2:0x80002b94 PA:0x80009ef4
       36395000	      3638	80003ba0	41dad213	srai	x4,x21,0x1d	 x21:0x000003a8  x4=0x00000000
       36405000	      3639	80003ba4	8d896e93	ori	x29,x18,-1832	 x18:0x7fffe08c x29=0xfffff8dc
       36415000	      3640	80003ba8	0240016f	jal	x2,80003ba8	  x2=0x80003ba8
       36425000	      3641	00000000	00000013	addi	x0,x0,0	  x0:0x00000000
       36435000	      3642	80003bc8	00000013	addi	x0,x0,0	  x0:0x00000000
       36445000	      3643	80003bcc	01800aef	jal	x21,80003bcc	 x21=0x80003bcc
       36455000	      3644	00000000	00000013	addi	x0,x0,0	  x0:0x00000000
       36465000	      3645	80003be0	00000013	addi	x0,x0,0	  x0:0x00000000
       36475000	      3646	80003be4	fd1ff76f	jal	x14,80003be4	 x14=0x80003be4
       36485000	      3647	00000000	00000013	addi	x0,x0,0	  x0:0x00000000
       36495000	      3648	80003bb0	00000013	addi	x0,x0,0	  x0:0x00000000
       36505000	      3649	80003bb4	024000ef	jal	x1,80003bb4	  x1=0x80003bb4
       36515000	      3650	00000000	00000013	addi	x0,x0,0	  x0:0x00000000
       36525000	      3651	80003bd4	00000013	addi	x0,x0,0	  x0:0x00000000
       36535000	      3652	80003bd8	ff1fffef	jal	x31,80003bd8	 x31=0x80003bd8
       36545000	      3653	00000000	00000013	addi	x0,x0,0	  x0:0x00000000
       36555000	      3654	80003bc4	00000013	addi	x0,x0,0	  x0:0x00000000
       36565000	      3655	80003bc8	fe5ff0ef	jal	x1,80003bc8	  x1=0x80003bc8
       36575000	      3656	00000000	00000013	addi	x0,x0,0	  x0:0x00000000
       36585000	      3657	80003ba8	00000013	addi	x0,x0,0	  x0:0x00000000
       36595000	      3658	80003bac	0300016f	jal	x2,80003bac	  x2=0x80003bac
       36605000	      3659	00000000	00000013	addi	x0,x0,0	  x0:0x00000000
       36615000	      3660	80003bd8	00000013	addi	x0,x0,0	  x0:0x00000000
       36625000	      3661	80003bdc	fe5ff66f	jal	x12,80003bdc	 x12=0x80003bdc
       36635000	      3662	00000000	00000013	addi	x0,x0,0	  x0:0x00000000
       36645000	      3663	80003bbc	00000013	addi	x0,x0,0	  x0:0x00000000
       36655000	      3664	80003bc0	01400c6f	jal	x24,80003bc0	 x24=0x80003bc0
       36665000	      3665	00000000	00000013	addi	x0,x0,0	  x0:0x00000000
       36675000	      3666	80003bd0	00000013	addi	x0,x0,0	  x0:0x00000000
       36685000	      3667	80003bd4	00c0036f	jal	x6,80003bd4	  x6=0x80003bd4
       36695000	      3668	00000000	00000013	addi	x0,x0,0	  x0:0x00000000
       36705000	      3669	80003bdc	00000013	addi	x0,x0,0	  x0:0x00000000
       36715000	      3670	80003be0	fd1ffbef	jal	x23,80003be0	 x23=0x80003be0
       36725000	      3671	00000000	00000013	addi	x0,x0,0	  x0:0x00000000
       36735000	      3672	80003bac	00000013	addi	x0,x0,0	  x0:0x00000000
       36745000	      3673	80003bb0	008000ef	jal	x1,80003bb0	  x1=0x80003bb0
       36755000	      3674	00000000	00000013	addi	x0,x0,0	  x0:0x00000000
       36765000	      3675	80003bb4	00000013	addi	x0,x0,0	  x0:0x00000000
       36775000	      3676	80003bb8	004000ef	jal	x1,80003bb8	  x1=0x80003bb8
       36785000	      3677	00000000	00000013	addi	x0,x0,0	  x0:0x00000000
       36795000	      3678	80003bb8	00000013	addi	x0,x0,0	  x0:0x00000000
       36805000	      3679	80003bbc	0080036f	jal	x6,80003bbc	  x6=0x80003bbc
       36815000	      3680	00000000	00000013	addi	x0,x0,0	  x0:0x00000000
       36825000	      3681	80003bc0	00000013	addi	x0,x0,0	  x0:0x00000000
       36835000	      3682	80003bc4	00c000ef	jal	x1,80003bc4	  x1=0x80003bc4
       36845000	      3683	00000000	00000013	addi	x0,x0,0	  x0:0x00000000
       36855000	      3684	80003bcc	00000013	addi	x0,x0,0	  x0:0x00000000
       36865000	      3685	80003bd0	018008ef	jal	x17,80003bd0	 x17=0x80003bd0
       36875000	      3686	00000000	00000013	addi	x0,x0,0	  x0:0x00000000
       36885000	      3687	80003be4	00000013	addi	x0,x0,0	  x0:0x00000000
       36895000	      3688	80003be8	01f59a33	sll	x20,x11,x31	 x11:0x80009ef0 x31:0x80003bd8 x20=0xf0000000
       36905000	      3689	80003bec	c648be97	auipc	x29,0xc648b	 x29=0x4648ebe8
       36915000	      3690	80003bf0	0036c4b3	xor	x9,x13,x3	 x13:0x0005e12d  x3:0x80002690  x9=0x8005c7bd
       36925000	      3691	80003bf4	03cc4e63	blt	x24,x28,80003c30	 x24:0x80003bc0 x28:0x00000000
       36935000	      3692	00000000	00000013	addi	x0,x0,0	  x0:0x00000000
       36945000	      3693	80003c2c	00000013	addi	x0,x0,0	  x0:0x00000000
       36955000	      3694	80003c30	40abdc13	srai	x24,x23,0xa	 x23:0x80003be0 x24=0xffe0000e
       36965000	      3695	80003c34	0166dd93	srli	x27,x13,0x16	 x13:0x0005e12d x27=0x00000000
       36975000	      3696	80003c38	05bd6263	bltu	x26,x27,80003c7c	 x26:0x00000000 x27:0x00000000
       36985000	      3697	80003c3c	00a5d613	srli	x12,x11,0xa	 x11:0x80009ef0 x12=0x00200027
       36995000	      3698	80003c40	41a80d33	sub	x26,x16,x26	 x16:0x80009f14 x26:0x00000000 x26=0x80009f14
       37005000	      3699	80003c44	009f1ab3	sll	x21,x30,x9	 x30:0x00000001  x9:0x8005c7bd x21=0x20000000
       37015000	      3700	80003c48	01ff5d33	srl	x26,x30,x31	 x30:0x00000001 x31:0x80003bd8 x26=0x00000000
       37025000	      3701	80003c4c	01fbd893	srli	x17,x23,0x1f	 x23:0x80003be0 x17=0x00000001
       37035000	      3702	80003c50	417e5793	srai	x15,x28,0x17	 x28:0x00000000 x15=0x00000000
       37045000	      3703	80003c54	01031bb3	sll	x23,x6,x16	  x6:0x80003bbc x16:0x80009f14 x23=0xbbc00000
       37055000	      3704	80003c58	00f4ff33	and	x30,x9,x15	  x9:0x8005c7bd x15:0x00000000 x30=0x00000000
       37065000	      3705	80003c5c	b3f84993	xori	x19,x16,-1217	 x16:0x80009f14 x19=0x7fff642b
       37075000	      3706	80003c60	016107b3	add	x15,x2,x22	  x2:0x80003bac x22:0x00000000 x15=0x80003bac
       37085000	      3707	80003c64	00fa8e63	beq	x21,x15,80003c80	 x21:0x20000000 x15:0x80003bac
       37095000	      3708	80003c68	01167b33	and	x22,x12,x17	 x12:0x00200027 x17:0x00000001 x22=0x00000001
       37105000	      3709	80003c6c	01f41f33	sll	x30,x8,x31	  x8:0x00000001 x31:0x80003bd8 x30=0x01000000
       37115000	      3710	80003c70	85870a93	addi	x21,x14,-1960	 x14:0x80003be4 x21=0x8000343c
       37125000	      3711	80003c74	0ce41263	bne	x8,x14,80003d38	  x8:0x00000001 x14:0x80003be4
       37135000	      3712	00000000	00000013	addi	x0,x0,0	  x0:0x00000000
       37145000	      3713	80003d34	00000013	addi	x0,x0,0	  x0:0x00000000
       37155000	      3714	80003d38	036f1c63	bne	x30,x22,80003d70	 x30:0x01000000 x22:0x00000001
       37165000	      3715	00000000	00000013	addi	x0,x0,0	  x0:0x00000000
       37175000	      3716	80003d6c	00000013	addi	x0,x0,0	  x0:0x00000000
       37185000	      3717	80003d70	18238193	addi	x3,x7,386	  x7:0x0ac13001  x3=0x0ac13183
       37195000	      3718	80003d74	4183dab3	sra	x21,x7,x24	  x7:0x0ac13001 x24:0xffe0000e x21=0x00002b04
       37205000	      3719	80003d78	0107d133	srl	x2,x15,x16	 x15:0x80003bac x16:0x80009f14  x2=0x00000800
       37215000	      3720	80003d7c	004e9c93	slli	x25,x29,0x4	 x29:0x4648ebe8 x25=0x648ebe80
       37225000	      3721	80003d80	01820cb3	add	x25,x4,x24	  x4:0x00000000 x24:0xffe0000e x25=0xffe0000e
       37235000	      3722	80003d84	01edca33	xor	x20,x27,x30	 x27:0x00000000 x30:0x01000000 x20=0x01000000
       37245000	      3723	80003d88	0171d463	bge	x3,x23,80003d90	  x3:0x0ac13183 x23:0xbbc00000
       37255000	      3724	00000000	00000013	addi	x0,x0,0	  x0:0x00000000
       37265000	      3725	80003d8c	00000013	addi	x0,x0,0	  x0:0x00000000
       37275000	      3726	80003d90	9fdc5a37	lui	x20,0x9fdc5	 x20=0x9fdc5000
       37285000	      3727	80003d94	01968863	beq	x13,x25,80003da4	 x13:0x0005e12d x25:0xffe0000e
       37295000	      3728	80003d98	404ad093	srai	x1,x21,0x4	 x21:0x00002b04  x1=0x000002b0
       37305000	      3729	80003d9c	4123d493	srai	x9,x7,0x12	  x7:0x0ac13001  x9=0x000002b0
       37315000	      3730	80003da0	01a9c6b3	xor	x13,x19,x26	 x19:0x7fff642b x26:0x00000000 x13=0x7fff642b
       37325000	      3731	80003da4	018a2c33	slt	x24,x20,x24	 x20:0x9fdc5000 x24:0xffe0000e x24=0x00000001
       37335000	      3732	80003da8	01bbd9b3	srl	x19,x23,x27	 x23:0xbbc00000 x27:0x00000000 x19=0xbbc00000
       37345000	      3733	80003dac	00000013	addi	x0,x0,0	  x0:0x00000000
       37355000	      3734	80003db0	0068d833	srl	x16,x17,x6	 x17:0x00000001  x6:0x80003bbc x16=0x00000000
       37365000	      3735	80003db4	016b6a33	or	x20,x22,x22	 x22:0x00000001 x22:0x00000001 x20=0x00000001
       37375000	      3736	80003db8	0144d713	srli	x14,x9,0x14	  x9:0x000002b0 x14=0x00000000
       37385000	      3737	80003dbc	d6afb513	sltiu	x10,x31,-662	 x31:0x80003bd8 x10=0x00000001
       37395000	      3738	80003dc0	002e37b3	sltu	x15,x28,x2	 x28:0x00000000  x2:0x00000800 x15=0x00000001
       37405000	      3739	80003dc4	ee9f4c13	xori	x24,x30,-279	 x30:0x01000000 x24=0xfefffee9
       37415000	      3740	80003dc8	04889263	bne	x17,x8,80003e0c	 x17:0x00000001  x8:0x00000001
       37425000	      3741	80003dcc	4003dd93	srai	x27,x7,0x0	  x7:0x0ac13001 x27=0x0ac13001
       37435000	      3742	80003dd0	013a9613	slli	x12,x21,0x13	 x21:0x00002b04 x12=0x58200000
       37445000	      3743	80003dd4	402b8f33	sub	x30,x23,x2	 x23:0xbbc00000  x2:0x00000800 x30=0xbbbff800
       37455000	      3744	80003dd8	04f05263	bge	x0,x15,80003e1c	  x0:0x00000000 x15:0x00000001
       37465000	      3745	80003ddc	fd9bcd93	xori	x27,x23,-39	 x23:0xbbc00000 x27=0x443fffd9
       37475000	      3746	80003de0	01a00f33	add	x30,x0,x26	  x0:0x00000000 x26:0x00000000 x30=0x00000000
       37485000	      3747	80003de4	00a771b3	and	x3,x14,x10	 x14:0x00000000 x10:0x00000001  x3=0x00000000
       37495000	      3748	80003de8	ecf49a97	auipc	x21,0xecf49	 x21=0x6cf4cde4
       37505000	      3749	80003dec	017a0a33	add	x20,x20,x23	 x20:0x00000001 x23:0xbbc00000 x20=0xbbc00001
       37515000	      3750	80003df0	34102c93	slti	x25,x0,833	  x0:0x00000000 x25=0x00000001
       37525000	      3751	80003df4	00000013	addi	x0,x0,0	  x0:0x00000000
       37535000	      3752	80003df8	0164ec63	bltu	x9,x22,80003e10	  x9:0x000002b0 x22:0x00000001
       37545000	      3753	80003dfc	004ebab3	sltu	x21,x29,x4	 x29:0x4648ebe8  x4:0x00000000 x21=0x00000000
       37555000	      3754	80003e00	40d68933	sub	x18,x13,x13	 x13:0x7fff642b x13:0x7fff642b x18=0x00000000
       37565000	      3755	80003e04	00000013	addi	x0,x0,0	  x0:0x00000000
       37575000	      3756	80003e08	01c8dc33	srl	x24,x17,x28	 x17:0x00000001 x28:0x00000000 x24=0x00000001
       37585000	      3757	80003e0c	0190d813	srli	x16,x1,0x19	  x1:0x000002b0 x16=0x00000000
       37595000	      3758	80003e10	7f62f7b7	lui	x15,0x7f62f	 x15=0x7f62f000
       37605000	      3759	80003e14	024fdc63	bge	x31,x4,80003e4c	 x31:0x80003bd8  x4:0x00000000
       37615000	      3760	80003e18	ada7b093	sltiu	x1,x15,-1318	 x15:0x7f62f000  x1=0x00000001
       37625000	      3761	80003e1c	01d38633	add	x12,x7,x29	  x7:0x0ac13001 x29:0x4648ebe8 x12=0x510a1be9
       37635000	      3762	80003e20	820ba793	slti	x15,x23,-2016	 x23:0xbbc00000 x15=0x00000001
       37645000	      3763	80003e24	01955db3	srl	x27,x10,x25	 x10:0x00000001 x25:0x00000001 x27=0x00000000
       37655000	      3764	80003e28	26bf3613	sltiu	x12,x30,619	 x30:0x00000000 x12=0x00000001
       37665000	      3765	80003e2c	40e48533	sub	x10,x9,x14	  x9:0x000002b0 x14:0x00000000 x10=0x000002b0
       37675000	      3766	80003e30	0169d913	srli	x18,x19,0x16	 x19:0xbbc00000 x18=0x000002ef
       37685000	      3767	80003e34	01265013	srli	x0,x12,0x12	 x12:0x00000001
       37695000	      3768	80003e38	015f5113	srli	x2,x30,0x15	 x30:0x00000000  x2=0x00000000
       37705000	      3769	80003e3c	80866513	ori	x10,x12,-2040	 x12:0x00000001 x10=0xfffff809
       37715000	      3770	80003e40	e747af93	slti	x31,x15,-396	 x15:0x00000001 x31=0x00000000
       37725000	      3771	80003e44	002e6bb3	or	x23,x28,x2	 x28:0x00000000  x2:0x00000000 x23=0x00000000
       37735000	      3772	80003e48	ebe14493	xori	x9,x2,-322	  x2:0x00000000  x9=0xfffffebe
       37745000	      3773	80003e4c	2a3c7f13	andi	x30,x24,675	 x24:0x00000001 x30=0x00000001
       37755000	      3774	80003e50	00c85b93	srli	x23,x16,0xc	 x16:0x00000000 x23=0x00000000
       37765000	      3775	80003e54	017a4cb3	xor	x25,x20,x23	 x20:0xbbc00001 x23:0x00000000 x25=0xbbc00001
       37775000	      3776	80003e58	0054dc33	srl	x24,x9,x5	  x9:0xfffffebe  x5:0x80009fc4 x24=0x0fffffeb
       37785000	      3777	80003e5c	00d431b3	sltu	x3,x8,x13	  x8:0x00000001 x13:0x7fff642b  x3=0x00000001
       37795000	      3778	80003e60	01f7d733	srl	x14,x15,x31	 x15:0x00000001 x31:0x00000000 x14=0x00000001
       37805000	      3779	80003e64	3be6ef13	ori	x30,x13,958	 x13:0x7fff642b x30=0x7fff67bf
       37815000	      3780	80003e68	02808863	beq	x1,x8,80003e98	  x1:0x00000001  x8:0x00000001
       37825000	      3781	00000000	00000013	addi	x0,x0,0	  x0:0x00000000
       37835000	      3782	80003e94	00000013	addi	x0,x0,0	  x0:0x00000000
       37845000	      3783	80003e98	011b5eb3	srl	x29,x22,x17	 x22:0x00000001 x17:0x00000001 x29=0x00000000
       37855000	      3784	80003e9c	a3f73213	sltiu	x4,x14,-1473	 x14:0x00000001  x4=0x00000001
       37865000	      3785	80003ea0	0071bbb3	sltu	x23,x3,x7	  x3:0x00000001  x7:0x0ac13001 x23=0x00000001
       37875000	      3786	80003ea4	5b3fad93	slti	x27,x31,1459	 x31:0x00000000 x27=0x00000001
       37885000	      3787	80003ea8	0045a103	lw	x2,4(x11)	 x11:0x80009ef0  x2=0x80002b94 PA:0x80009ef4
       37895000	      3788	80003eac	00e22a33	slt	x20,x4,x14	  x4:0x00000001 x14:0x00000001 x20=0x00000000
       37905000	      3789	80003eb0	00225093	srli	x1,x4,0x2	  x4:0x00000001  x1=0x00000000
       37915000	      3790	80003eb4	01e7d313	srli	x6,x15,0x1e	 x15:0x00000001  x6=0x00000000
       37925000	      3791	80003eb8	02458593	addi	x11,x11,36	 x11:0x80009ef0 x11=0x80009f14
       37935000	      3792	80003ebc	00000013	addi	x0,x0,0	  x0:0x00000000
       37945000	      3793	80003ec0	00110813	addi	x16,x2,1	  x2:0x80002b94 x16=0x80002b95
       37955000	      3794	80003ec4	00080867	jalr	x16,x16,0	 x16:0x80002b95 x16=0x80003ec4
       37965000	      3795	00000000	00000013	addi	x0,x0,0	  x0:0x00000000
       37975000	      3796	80002b94	00000013	addi	x0,x0,0	  x0:0x00000000
       37985000	      3797	80002b98	8f6f7737	lui	x14,0x8f6f7	 x14=0x8f6f7000
       37995000	      3798	80002b9c	03287463	bgeu	x16,x18,80002bc4	 x16:0x80003ec4 x18:0x000002ef
       38005000	      3799	00000000	00000013	addi	x0,x0,0	  x0:0x00000000
       38015000	      3800	80002bc0	00000013	addi	x0,x0,0	  x0:0x00000000
       38025000	      3801	80002bc4	41b3ddb3	sra	x27,x7,x27	  x7:0x0ac13001 x27:0x00000001 x27=0x05609800
       38035000	      3802	80002bc8	d5103c13	sltiu	x24,x0,-687	  x0:0x00000000 x24=0x00000001
       38045000	      3803	80002bcc	40cb5e93	srai	x29,x22,0xc	 x22:0x00000001 x29=0x00000000
       38055000	      3804	80002bd0	d79eca13	xori	x20,x29,-647	 x29:0x00000000 x20=0xfffffd79
       38065000	      3805	80002bd4	0420f263	bgeu	x1,x2,80002c18	  x1:0x00000000  x2:0x80002b94
       38075000	      3806	80002bd8	f3b091b7	lui	x3,0xf3b09	  x3=0xf3b09000
       38085000	      3807	80002bdc	00f52533	slt	x10,x10,x15	 x10:0xfffff809 x15:0x00000001 x10=0x00000001
       38095000	      3808	80002be0	00000013	addi	x0,x0,0	  x0:0x00000000
       38105000	      3809	80002be4	008e5333	srl	x6,x28,x8	 x28:0x00000000  x8:0x00000001  x6=0x00000000
       38115000	      3810	80002be8	014f31b3	sltu	x3,x30,x20	 x30:0x7fff67bf x20:0xfffffd79  x3=0x00000001
       38125000	      3811	80002bec	3f8c6a17	auipc	x20,0x3f8c6	 x20=0xbf8c8be8
       38135000	      3812	80002bf0	04885863	bge	x16,x8,80002c40	 x16:0x80003ec4  x8:0x00000001
       38145000	      3813	80002bf4	4227fd13	andi	x26,x15,1058	 x15:0x00000001 x26=0x00000000
       38155000	      3814	80002bf8	0181f4b3	and	x9,x3,x24	  x3:0x00000001 x24:0x00000001  x9=0x00000001
       38165000	      3815	80002bfc	41b35b13	srai	x22,x6,0x1b	  x6:0x00000000 x22=0x00000000
       38175000	      3816	80002c00	41a44337	lui	x6,0x41a44	  x6=0x41a44000
       38185000	      3817	80002c04	00ac0263	beq	x24,x10,80002c08	 x24:0x00000001 x10:0x00000001
       38195000	      3818	00000000	00000013	addi	x0,x0,0	  x0:0x00000000
       38205000	      3819	80002c04	00000013	addi	x0,x0,0	  x0:0x00000000
       38215000	      3820	80002c08	00ec0833	add	x16,x24,x14	 x24:0x00000001 x14:0x8f6f7000 x16=0x8f6f7001
       38225000	      3821	80002c0c	01ea53b3	srl	x7,x20,x30	 x20:0xbf8c8be8 x30:0x7fff67bf  x7=0x00000001
       38235000	      3822	80002c10	00cf93b3	sll	x7,x31,x12	 x31:0x00000000 x12:0x00000001  x7=0x00000000
       38245000	      3823	80002c14	01892fb3	slt	x31,x18,x24	 x18:0x000002ef x24:0x00000001 x31=0x00000000
       38255000	      3824	80002c18	00fd1933	sll	x18,x26,x15	 x26:0x00000000 x15:0x00000001 x18=0x00000000
       38265000	      3825	80002c1c	01048eb3	add	x29,x9,x16	  x9:0x00000001 x16:0x8f6f7001 x29=0x8f6f7002
       38275000	      3826	80002c20	018e8633	add	x12,x29,x24	 x29:0x8f6f7002 x24:0x00000001 x12=0x8f6f7003
       38285000	      3827	80002c24	0150f533	and	x10,x1,x21	  x1:0x00000000 x21:0x00000000 x10=0x00000000
       38295000	      3828	80002c28	016afbb3	and	x23,x21,x22	 x21:0x00000000 x22:0x00000000 x23=0x00000000
       38305000	      3829	80002c2c	b2fccc37	lui	x24,0xb2fcc	 x24=0xb2fcc000
       38315000	      3830	80002c30	0039fd33	and	x26,x19,x3	 x19:0xbbc00000  x3:0x00000001 x26=0x00000000
       38325000	      3831	80002c34	01c07c63	bgeu	x0,x28,80002c4c	  x0:0x00000000 x28:0x00000000
       38335000	      3832	00000000	00000013	addi	x0,x0,0	  x0:0x00000000
       38345000	      3833	80002c48	00000013	addi	x0,x0,0	  x0:0x00000000
       38355000	      3834	80002c4c	05fdf863	bgeu	x27,x31,80002c9c	 x27:0x05609800 x31:0x00000000
       38365000	      3835	00000000	00000013	addi	x0,x0,0	  x0:0x00000000
       38375000	      3836	80002c98	00000013	addi	x0,x0,0	  x0:0x00000000
       38385000	      3837	80002c9c	01337bb3	and	x23,x6,x19	  x6:0x41a44000 x19:0xbbc00000 x23=0x01800000
       38395000	      3838	80002ca0	01d82633	slt	x12,x16,x29	 x16:0x8f6f7001 x29:0x8f6f7002 x12=0x00000001
       38405000	      3839	80002ca4	00b71713	slli	x14,x14,0xb	 x14:0x8f6f7000 x14=0x7b800000
       38415000	      3840	80002ca8	01511133	sll	x2,x2,x21	  x2:0x80002b94 x21:0x00000000  x2=0x80002b94
       38425000	      3841	80002cac	01d29833	sll	x16,x5,x29	  x5:0x80009fc4 x29:0x8f6f7002 x16=0x00027f10
       38435000	      3842	80002cb0	007dbd33	sltu	x26,x27,x7	 x27:0x05609800  x7:0x00000000 x26=0x00000000
       38445000	      3843	80002cb4	05b86263	bltu	x16,x27,80002cf8	 x16:0x00027f10 x27:0x05609800
       38455000	      3844	00000000	00000013	addi	x0,x0,0	  x0:0x00000000
       38465000	      3845	80002cf4	00000013	addi	x0,x0,0	  x0:0x00000000
       38475000	      3846	80002cf8	01bd9f93	slli	x31,x27,0x1b	 x27:0x05609800 x31=0x00000000
       38485000	      3847	80002cfc	008bc9b3	xor	x19,x23,x8	 x23:0x01800000  x8:0x00000001 x19=0x01800001
       38495000	      3848	80002d00	e5e60f13	addi	x30,x12,-418	 x12:0x00000001 x30=0xfffffe5f
       38505000	      3849	80002d04	02fd5463	bge	x26,x15,80002d2c	 x26:0x00000000 x15:0x00000001
       38515000	      3850	80002d08	02357663	bgeu	x10,x3,80002d34	 x10:0x00000000  x3:0x00000001
       38525000	      3851	80002d0c	005e3933	sltu	x18,x28,x5	 x28:0x00000000  x5:0x80009fc4 x18=0x00000001
       38535000	      3852	80002d10	014d99b3	sll	x19,x27,x20	 x27:0x05609800 x20:0xbf8c8be8 x19=0x60980000
       38545000	      3853	80002d14	004d7263	bgeu	x26,x4,80002d18	 x26:0x00000000  x4:0x00000001
       38555000	      3854	80002d18	01a61393	slli	x7,x12,0x1a	 x12:0x00000001  x7=0x04000000
       38565000	      3855	80002d1c	00321cb3	sll	x25,x4,x3	  x4:0x00000001  x3:0x00000001 x25=0x00000002
       38575000	      3856	80002d20	9a3db093	sltiu	x1,x27,-1629	 x27:0x05609800  x1=0x00000001
       38585000	      3857	80002d24	32db0213	addi	x4,x22,813	 x22:0x00000000  x4=0x0000032d
       38595000	      3858	80002d28	ba15a813	slti	x16,x11,-1119	 x11:0x80009f14 x16=0x00000001
       38605000	      3859	80002d2c	5dd43397	auipc	x7,0x5dd43	  x7=0xddd45d28
       38615000	      3860	80002d30	a8040017	auipc	x0,0xa8040	
       38625000	      3861	80002d34	014a6b33	or	x22,x20,x20	 x20:0xbf8c8be8 x20:0xbf8c8be8 x22=0xbf8c8be8
       38635000	      3862	80002d38	51763493	sltiu	x9,x12,1303	 x12:0x00000001  x9=0x00000001
       38645000	      3863	80002d3c	008926b3	slt	x13,x18,x8	 x18:0x00000001  x8:0x00000001 x13=0x00000000
       38655000	      3864	80002d40	01afd133	srl	x2,x31,x26	 x31:0x00000000 x26:0x00000000  x2=0x00000000
       38665000	      3865	80002d44	2622aa93	slti	x21,x5,610	  x5:0x80009fc4 x21=0x00000001
       38675000	      3866	80002d48	40228f33	sub	x30,x5,x2	  x5:0x80009fc4  x2:0x00000000 x30=0x80009fc4
       38685000	      3867	80002d4c	02d7f463	bgeu	x15,x13,80002d74	 x15:0x00000001 x13:0x00000000
       38695000	      3868	00000000	00000013	addi	x0,x0,0	  x0:0x00000000
       38705000	      3869	80002d70	00000013	addi	x0,x0,0	  x0:0x00000000
       38715000	      3870	80002d74	f9b44913	xori	x18,x8,-101	  x8:0x00000001 x18=0xffffff9a
       38725000	      3871	80002d78	408c8233	sub	x4,x25,x8	 x25:0x00000002  x8:0x00000001  x4=0x00000001
       38735000	      3872	80002d7c	00a48d33	add	x26,x9,x10	  x9:0x00000001 x10:0x00000000 x26=0x00000001
       38745000	      3873	80002d80	0052e833	or	x16,x5,x5	  x5:0x80009fc4  x5:0x80009fc4 x16=0x80009fc4
       38755000	      3874	80002d84	40875bb3	sra	x23,x14,x8	 x14:0x7b800000  x8:0x00000001 x23=0x3dc00000
       38765000	      3875	80002d88	cef7ee97	auipc	x29,0xcef7e	 x29=0x4ef80d84
       38775000	      3876	80002d8c	008f1ab3	sll	x21,x30,x8	 x30:0x80009fc4  x8:0x00000001 x21=0x00013f88
       38785000	      3877	80002d90	1a07fb93	andi	x23,x15,416	 x15:0x00000001 x23=0x00000000
       38795000	      3878	80002d94	401a58b3	sra	x17,x20,x1	 x20:0xbf8c8be8  x1:0x00000001 x17=0xdfc645f4
       38805000	      3879	80002d98	02808e63	beq	x1,x8,80002dd4	  x1:0x00000001  x8:0x00000001
       38815000	      3880	00000000	00000013	addi	x0,x0,0	  x0:0x00000000
       38825000	      3881	80002dd0	00000013	addi	x0,x0,0	  x0:0x00000000
       38835000	      3882	80002dd4	41205793	srai	x15,x0,0x12	  x0:0x00000000 x15=0x00000000
       38845000	      3883	80002dd8	00373cb3	sltu	x25,x14,x3	 x14:0x7b800000  x3:0x00000001 x25=0x00000000
       38855000	      3884	80002ddc	01059463	bne	x11,x16,80002de4	 x11:0x80009f14 x16:0x80009fc4
       38865000	      3885	00000000	00000013	addi	x0,x0,0	  x0:0x00000000
       38875000	      3886	80002de0	00000013	addi	x0,x0,0	  x0:0x00000000
       38885000	      3887	80002de4	d5ccc1b7	lui	x3,0xd5ccc	  x3=0xd5ccc000
       38895000	      3888	80002de8	00636db3	or	x27,x6,x6	  x6:0x41a44000  x6:0x41a44000 x27=0x41a44000
       38905000	      3889	80002dec	4082d113	srai	x2,x5,0x8	  x5:0x80009fc4  x2=0xff80009f
       38915000	      3890	80002df0	50bf3c93	sltiu	x25,x30,1291	 x30:0x80009fc4 x25=0x00000000
       38925000	      3891	80002df4	005ca533	slt	x10,x25,x5	 x25:0x00000000  x5:0x80009fc4 x10=0x00000000
       38935000	      3892	80002df8	4533a817	auipc	x16,0x4533a	 x16=0xc533cdf4
       38945000	      3893	80002dfc	0105c0b3	xor	x1,x11,x16	 x11:0x80009f14 x16:0xc533cdf4  x1=0x453352e0
       38955000	      3894	80002e00	b5704f93	xori	x31,x0,-1193	  x0:0x00000000 x31=0xfffffb57
       38965000	      3895	80002e04	01a586b3	add	x13,x11,x26	 x11:0x80009f14 x26:0x00000001 x13=0x80009f15
       38975000	      3896	80002e08	be774393	xori	x7,x14,-1049	 x14:0x7b800000  x7=0x847ffbe7
       38985000	      3897	80002e0c	000bd513	srli	x10,x23,0x0	 x23:0x00000000 x10=0x00000000
       38995000	      3898	80002e10	01b08263	beq	x1,x27,80002e14	  x1:0x453352e0 x27:0x41a44000
       39005000	      3899	80002e14	029bc263	blt	x23,x9,80002e38	 x23:0x00000000  x9:0x00000001
       39015000	      3900	00000000	00000013	addi	x0,x0,0	  x0:0x00000000
       39025000	      3901	80002e34	00000013	addi	x0,x0,0	  x0:0x00000000
       39035000	      3902	80002e38	01646eb3	or	x29,x8,x22	  x8:0x00000001 x22:0xbf8c8be8 x29=0xbf8c8be9
       39045000	      3903	80002e3c	037fc863	blt	x31,x23,80002e6c	 x31:0xfffffb57 x23:0x00000000
       39055000	      3904	00000000	00000013	addi	x0,x0,0	  x0:0x00000000
       39065000	      3905	80002e68	00000013	addi	x0,x0,0	  x0:0x00000000
       39075000	      3906	80002e6c	02717e63	bgeu	x2,x7,80002ea8	  x2:0xff80009f  x7:0x847ffbe7
       39085000	      3907	00000000	00000013	addi	x0,x0,0	  x0:0x00000000
       39095000	      3908	80002ea4	00000013	addi	x0,x0,0	  x0:0x00000000
       39105000	      3909	80002ea8	ba8fe993	ori	x19,x31,-1112	 x31:0xfffffb57 x19=0xfffffbff
       39115000	      3910	80002eac	01211993	slli	x19,x2,0x12	  x2:0xff80009f x19=0x027c0000
       39125000	      3911	80002eb0	01d810b3	sll	x1,x16,x29	 x16:0xc533cdf4 x29:0xbf8c8be9  x1=0x679be800
       39135000	      3912	80002eb4	bf61d997	auipc	x19,0xbf61d	 x19=0x3f61feb0
       39145000	      3913	80002eb8	005087b3	add	x15,x1,x5	  x1:0x679be800  x5:0x80009fc4 x15=0xe79c87c4
       39155000	      3914	80002ebc	b91ba713	slti	x14,x23,-1135	 x23:0x00000000 x14=0x00000000
       39165000	      3915	80002ec0	006ddbb3	srl	x23,x27,x6	 x27:0x41a44000  x6:0x41a44000 x23=0x41a44000
       39175000	      3916	80002ec4	05ce5263	bge	x28,x28,80002f08	 x28:0x00000000 x28:0x00000000
       39185000	      3917	00000000	00000013	addi	x0,x0,0	  x0:0x00000000
       39195000	      3918	80002f04	00000013	addi	x0,x0,0	  x0:0x00000000
       39205000	      3919	80002f08	009f7db3	and	x27,x30,x9	 x30:0x80009fc4  x9:0x00000001 x27=0x00000000
       39215000	      3920	80002f0c	020cf263	bgeu	x25,x0,80002f30	 x25:0x00000000  x0:0x00000000
       39225000	      3921	00000000	00000013	addi	x0,x0,0	  x0:0x00000000
       39235000	      3922	80002f2c	00000013	addi	x0,x0,0	  x0:0x00000000
       39245000	      3923	80002f30	01b60c63	beq	x12,x27,80002f48	 x12:0x00000001 x27:0x00000000
       39255000	      3924	80002f34	00737733	and	x14,x6,x7	  x6:0x41a44000  x7:0x847ffbe7 x14=0x00244000
       39265000	      3925	80002f38	f28b2913	slti	x18,x22,-216	 x22:0xbf8c8be8 x18=0x00000001
       39275000	      3926	80002f3c	01b49993	slli	x19,x9,0x1b	  x9:0x00000001 x19=0x08000000
       39285000	      3927	80002f40	418e5333	sra	x6,x28,x24	 x28:0x00000000 x24:0xb2fcc000  x6=0x00000000
       39295000	      3928	80002f44	016d5cb3	srl	x25,x26,x22	 x26:0x00000001 x22:0xbf8c8be8 x25=0x00000000
       39305000	      3929	80002f48	03b60863	beq	x12,x27,80002f78	 x12:0x00000001 x27:0x00000000
       39315000	      3930	80002f4c	40ae8f33	sub	x30,x29,x10	 x29:0xbf8c8be9 x10:0x00000000 x30=0xbf8c8be9
       39325000	      3931	80002f50	00da8b33	add	x22,x21,x13	 x21:0x00013f88 x13:0x80009f15 x22=0x8001de9d
       39335000	      3932	80002f54	016e5b13	srli	x22,x28,0x16	 x28:0x00000000 x22=0x00000000
       39345000	      3933	80002f58	00831b13	slli	x22,x6,0x8	  x6:0x00000000 x22=0x00000000
       39355000	      3934	80002f5c	b468f213	andi	x4,x17,-1210	 x17:0xdfc645f4  x4=0xdfc64144
       39365000	      3935	80002f60	0256f063	bgeu	x13,x5,80002f80	 x13:0x80009f15  x5:0x80009fc4
       39375000	      3936	80002f64	050df863	bgeu	x27,x16,80002fb4	 x27:0x00000000 x16:0xc533cdf4
       39385000	      3937	80002f68	cd658013	addi	x0,x11,-810	 x11:0x80009f14
       39395000	      3938	80002f6c	003d63b3	or	x7,x26,x3	 x26:0x00000001  x3:0xd5ccc000  x7=0xd5ccc001
       39405000	      3939	80002f70	00f25f33	srl	x30,x4,x15	  x4:0xdfc64144 x15:0xe79c87c4 x30=0x0dfc6414
       39415000	      3940	80002f74	40f053b3	sra	x7,x0,x15	  x0:0x00000000 x15:0xe79c87c4  x7=0x00000000
       39425000	      3941	80002f78	811dc193	xori	x3,x27,-2031	 x27:0x00000000  x3=0xfffff811
       39435000	      3942	80002f7c	e7752513	slti	x10,x10,-393	 x10:0x00000000 x10=0x00000000
       39445000	      3943	80002f80	7d1e0397	auipc	x7,0x7d1e0	  x7=0xfd1e2f7c
       39455000	      3944	80002f84	040af863	bgeu	x21,x0,80002fd4	 x21:0x00013f88  x0:0x00000000
       39465000	      3945	00000000	00000013	addi	x0,x0,0	  x0:0x00000000
       39475000	      3946	80002fd0	00000013	addi	x0,x0,0	  x0:0x00000000
       39485000	      3947	80002fd4	26bb6493	ori	x9,x22,619	 x22:0x00000000  x9=0x0000026b
       39495000	      3948	80002fd8	012db3b3	sltu	x7,x27,x18	 x27:0x00000000 x18:0x00000001  x7=0x00000001
       39505000	      3949	80002fdc	030bc463	blt	x23,x16,80003004	 x23:0x41a44000 x16:0xc533cdf4
       39515000	      3950	80002fe0	01c2bcb3	sltu	x25,x5,x28	  x5:0x80009fc4 x28:0x00000000 x25=0x00000000
       39525000	      3951	80002fe4	00566f33	or	x30,x12,x5	 x12:0x00000001  x5:0x80009fc4 x30=0x80009fc5
       39535000	      3952	80002fe8	009bf263	bgeu	x23,x9,80002fec	 x23:0x41a44000  x9:0x0000026b
       39545000	      3953	00000000	00000013	addi	x0,x0,0	  x0:0x00000000
       39555000	      3954	80002fe8	00000013	addi	x0,x0,0	  x0:0x00000000
       39565000	      3955	80002fec	0587d263	bge	x15,x24,80003030	 x15:0xe79c87c4 x24:0xb2fcc000
       39575000	      3956	00000000	00000013	addi	x0,x0,0	  x0:0x00000000
       39585000	      3957	8000302c	00000013	addi	x0,x0,0	  x0:0x00000000
       39595000	      3958	80003030	6ed36f93	ori	x31,x6,1773	  x6:0x00000000 x31=0x000006ed
       39605000	      3959	80003034	4060d7b3	sra	x15,x1,x6	  x1:0x679be800  x6:0x00000000 x15=0x679be800
       39615000	      3960	80003038	3214e993	ori	x19,x9,801	  x9:0x0000026b x19=0x0000036b
       39625000	      3961	8000303c	016e21b3	slt	x3,x28,x22	 x28:0x00000000 x22:0x00000000  x3=0x00000000
       39635000	      3962	80003040	011368b3	or	x17,x6,x17	  x6:0x00000000 x17:0xdfc645f4 x17=0xdfc645f4
       39645000	      3963	80003044	09880e63	beq	x16,x24,800030e0	 x16:0xc533cdf4 x24:0xb2fcc000
       39655000	      3964	80003048	06c0016f	jal	x2,80003048	  x2=0x80003048
       39665000	      3965	00000000	00000013	addi	x0,x0,0	  x0:0x00000000
       39675000	      3966	800030b0	00000013	addi	x0,x0,0	  x0:0x00000000
       39685000	      3967	800030b4	fd9ff0ef	jal	x1,800030b4	  x1=0x800030b4
       39695000	      3968	00000000	00000013	addi	x0,x0,0	  x0:0x00000000
       39705000	      3969	80003088	00000013	addi	x0,x0,0	  x0:0x00000000
       39715000	      3970	8000308c	fd5ffcef	jal	x25,8000308c	 x25=0x8000308c
       39725000	      3971	00000000	00000013	addi	x0,x0,0	  x0:0x00000000
       39735000	      3972	8000305c	00000013	addi	x0,x0,0	  x0:0x00000000
       39745000	      3973	80003060	018000ef	jal	x1,80003060	  x1=0x80003060
       39755000	      3974	00000000	00000013	addi	x0,x0,0	  x0:0x00000000
       39765000	      3975	80003074	00000013	addi	x0,x0,0	  x0:0x00000000
       39775000	      3976	80003078	ff5ff0ef	jal	x1,80003078	  x1=0x80003078
       39785000	      3977	00000000	00000013	addi	x0,x0,0	  x0:0x00000000
       39795000	      3978	80003068	00000013	addi	x0,x0,0	  x0:0x00000000
       39805000	      3979	8000306c	0400016f	jal	x2,8000306c	  x2=0x8000306c
       39815000	      3980	00000000	00000013	addi	x0,x0,0	  x0:0x00000000
       39825000	      3981	800030a8	00000013	addi	x0,x0,0	  x0:0x00000000
       39835000	      3982	800030ac	fedff0ef	jal	x1,800030ac	  x1=0x800030ac
       39845000	      3983	00000000	00000013	addi	x0,x0,0	  x0:0x00000000
       39855000	      3984	80003094	00000013	addi	x0,x0,0	  x0:0x00000000
       39865000	      3985	80003098	0100036f	jal	x6,80003098	  x6=0x80003098
       39875000	      3986	00000000	00000013	addi	x0,x0,0	  x0:0x00000000
       39885000	      3987	800030a4	00000013	addi	x0,x0,0	  x0:0x00000000
       39895000	      3988	800030a8	fcdff0ef	jal	x1,800030a8	  x1=0x800030a8
       39905000	      3989	00000000	00000013	addi	x0,x0,0	  x0:0x00000000
       39915000	      3990	80003070	00000013	addi	x0,x0,0	  x0:0x00000000
       39925000	      3991	80003074	048009ef	jal	x19,80003074	 x19=0x80003074
       39935000	      3992	00000000	00000013	addi	x0,x0,0	  x0:0x00000000
       39945000	      3993	800030b8	00000013	addi	x0,x0,0	  x0:0x00000000
       39955000	      3994	800030bc	f9dff0ef	jal	x1,800030bc	  x1=0x800030bc
       39965000	      3995	00000000	00000013	addi	x0,x0,0	  x0:0x00000000
       39975000	      3996	80003054	00000013	addi	x0,x0,0	  x0:0x00000000
       39985000	      3997	80003058	0680036f	jal	x6,80003058	  x6=0x80003058
       39995000	      3998	00000000	00000013	addi	x0,x0,0	  x0:0x00000000
       40005000	      3999	800030bc	00000013	addi	x0,x0,0	  x0:0x00000000
       40015000	      4000	800030c0	fc1ff0ef	jal	x1,800030c0	  x1=0x800030c0
       40025000	      4001	00000000	00000013	addi	x0,x0,0	  x0:0x00000000
       40035000	      4002	8000307c	00000013	addi	x0,x0,0	  x0:0x00000000
       40045000	      4003	80003080	008000ef	jal	x1,80003080	  x1=0x80003080
       40055000	      4004	00000000	00000013	addi	x0,x0,0	  x0:0x00000000
       40065000	      4005	80003084	00000013	addi	x0,x0,0	  x0:0x00000000
       40075000	      4006	80003088	028000ef	jal	x1,80003088	  x1=0x80003088
       40085000	      4007	00000000	00000013	addi	x0,x0,0	  x0:0x00000000
       40095000	      4008	800030ac	00000013	addi	x0,x0,0	  x0:0x00000000
       40105000	      4009	800030b0	fd5ff36f	jal	x6,800030b0	  x6=0x800030b0
       40115000	      4010	00000000	00000013	addi	x0,x0,0	  x0:0x00000000
       40125000	      4011	80003080	00000013	addi	x0,x0,0	  x0:0x00000000
       40135000	      4012	80003084	fe5ff0ef	jal	x1,80003084	  x1=0x80003084
       40145000	      4013	00000000	00000013	addi	x0,x0,0	  x0:0x00000000
       40155000	      4014	80003064	00000013	addi	x0,x0,0	  x0:0x00000000
       40165000	      4015	80003068	02c0036f	jal	x6,80003068	  x6=0x80003068
       40175000	      4016	00000000	00000013	addi	x0,x0,0	  x0:0x00000000
       40185000	      4017	80003090	00000013	addi	x0,x0,0	  x0:0x00000000
       40195000	      4018	80003094	0100016f	jal	x2,80003094	  x2=0x80003094
       40205000	      4019	00000000	00000013	addi	x0,x0,0	  x0:0x00000000
       40215000	      4020	800030a0	00000013	addi	x0,x0,0	  x0:0x00000000
       40225000	      4021	800030a4	0140036f	jal	x6,800030a4	  x6=0x800030a4
       40235000	      4022	00000000	00000013	addi	x0,x0,0	  x0:0x00000000
       40245000	      4023	800030b4	00000013	addi	x0,x0,0	  x0:0x00000000
       40255000	      4024	800030b8	f9dff1ef	jal	x3,800030b8	  x3=0x800030b8
       40265000	      4025	00000000	00000013	addi	x0,x0,0	  x0:0x00000000
       40275000	      4026	80003050	00000013	addi	x0,x0,0	  x0:0x00000000
       40285000	      4027	80003054	0080046f	jal	x8,80003054	  x8=0x80003054
       40295000	      4028	00000000	00000013	addi	x0,x0,0	  x0:0x00000000
       40305000	      4029	80003058	00000013	addi	x0,x0,0	  x0:0x00000000
       40315000	      4030	8000305c	044000ef	jal	x1,8000305c	  x1=0x8000305c
       40325000	      4031	00000000	00000013	addi	x0,x0,0	  x0:0x00000000
       40335000	      4032	8000309c	00000013	addi	x0,x0,0	  x0:0x00000000
       40345000	      4033	800030a0	fc5ff96f	jal	x18,800030a0	 x18=0x800030a0
       40355000	      4034	00000000	00000013	addi	x0,x0,0	  x0:0x00000000
       40365000	      4035	80003060	00000013	addi	x0,x0,0	  x0:0x00000000
       40375000	      4036	80003064	fe9ff36f	jal	x6,80003064	  x6=0x80003064
       40385000	      4037	00000000	00000013	addi	x0,x0,0	  x0:0x00000000
       40395000	      4038	80003048	00000013	addi	x0,x0,0	  x0:0x00000000
       40405000	      4039	8000304c	050000ef	jal	x1,8000304c	  x1=0x8000304c
       40415000	      4040	00000000	00000013	addi	x0,x0,0	  x0:0x00000000
       40425000	      4041	80003098	00000013	addi	x0,x0,0	  x0:0x00000000
       40435000	      4042	8000309c	fb5ff26f	jal	x4,8000309c	  x4=0x8000309c
       40445000	      4043	00000000	00000013	addi	x0,x0,0	  x0:0x00000000
       40455000	      4044	8000304c	00000013	addi	x0,x0,0	  x0:0x00000000
       40465000	      4045	80003050	0400036f	jal	x6,80003050	  x6=0x80003050
       40475000	      4046	00000000	00000013	addi	x0,x0,0	  x0:0x00000000
       40485000	      4047	8000308c	00000013	addi	x0,x0,0	  x0:0x00000000
       40495000	      4048	80003090	fe1ff0ef	jal	x1,80003090	  x1=0x80003090
       40505000	      4049	00000000	00000013	addi	x0,x0,0	  x0:0x00000000
       40515000	      4050	8000306c	00000013	addi	x0,x0,0	  x0:0x00000000
       40525000	      4051	80003070	00c009ef	jal	x19,80003070	 x19=0x80003070
       40535000	      4052	00000000	00000013	addi	x0,x0,0	  x0:0x00000000
       40545000	      4053	80003078	00000013	addi	x0,x0,0	  x0:0x00000000
       40555000	      4054	8000307c	048000ef	jal	x1,8000307c	  x1=0x8000307c
       40565000	      4055	00000000	00000013	addi	x0,x0,0	  x0:0x00000000
       40575000	      4056	800030c0	00000013	addi	x0,x0,0	  x0:0x00000000
       40585000	      4057	800030c4	cf6eae97	auipc	x29,0xcf6ea	 x29=0x4f6ed0c0
       40595000	      4058	800030c8	00c8ac33	slt	x24,x17,x12	 x17:0xdfc645f4 x12:0x00000001 x24=0x00000001
       40605000	      4059	800030cc	0138f633	and	x12,x17,x19	 x17:0xdfc645f4 x19:0x80003070 x12=0x80000070
       40615000	      4060	800030d0	01ade533	or	x10,x27,x26	 x27:0x00000000 x26:0x00000001 x10=0x00000001
       40625000	      4061	800030d4	019451b3	srl	x3,x8,x25	  x8:0x80003054 x25:0x8000308c  x3=0x00080003
       40635000	      4062	800030d8	00407d97	auipc	x27,0x407	 x27=0x8040a0d4
       40645000	      4063	800030dc	13a380b7	lui	x1,0x13a38	  x1=0x13a38000
       40655000	      4064	800030e0	00aa9793	slli	x15,x21,0xa	 x21:0x00013f88 x15=0x04fe2000
       40665000	      4065	800030e4	b21bc393	xori	x7,x23,-1247	 x23:0x41a44000  x7=0xbe5bbb21
       40675000	      4066	800030e8	0045a103	lw	x2,4(x11)	 x11:0x80009f14  x2=0x8000367c PA:0x80009f18
       40685000	      4067	800030ec	018ebfb3	sltu	x31,x29,x24	 x29:0x4f6ed0c0 x24:0x00000001 x31=0x00000000
       40695000	      4068	800030f0	02c58593	addi	x11,x11,44	 x11:0x80009f14 x11=0x80009f40
       40705000	      4069	800030f4	0013c233	xor	x4,x7,x1	  x7:0xbe5bbb21  x1:0x13a38000  x4=0xadf83b21
       40715000	      4070	800030f8	ca7bbc13	sltiu	x24,x23,-857	 x23:0x41a44000 x24=0x00000001
       40725000	      4071	800030fc	f6ea7d93	andi	x27,x20,-146	 x20:0xbf8c8be8 x27=0xbf8c8b68
       40735000	      4072	80003100	0077ef33	or	x30,x15,x7	 x15:0x04fe2000  x7:0xbe5bbb21 x30=0xbeffbb21
       40745000	      4073	80003104	010ad3b3	srl	x7,x21,x16	 x21:0x00013f88 x16:0xc533cdf4  x7=0x00000000
       40755000	      4074	80003108	00010493	addi	x9,x2,0	  x2:0x8000367c  x9=0x8000367c
       40765000	      4075	8000310c	000484e7	jalr	x9,x9,0	  x9:0x8000367c  x9=0x8000310c
       40775000	      4076	00000000	00000013	addi	x0,x0,0	  x0:0x00000000
       40785000	      4077	8000367c	00000013	addi	x0,x0,0	  x0:0x00000000
       40795000	      4078	80003680	4058da33	sra	x20,x17,x5	 x17:0xdfc645f4  x5:0x80009fc4 x20=0xfdfc645f
       40805000	      4079	80003684	01475233	srl	x4,x14,x20	 x14:0x00244000 x20:0xfdfc645f  x4=0x00000000
       40815000	      4080	80003688	f93f6b13	ori	x22,x30,-109	 x30:0xbeffbb21 x22=0xffffffb3
       40825000	      4081	8000368c	414c8b33	sub	x22,x25,x20	 x25:0x8000308c x20:0xfdfc645f x22=0x8203cc2d
       40835000	      4082	80003690	41608733	sub	x14,x1,x22	  x1:0x13a38000 x22:0x8203cc2d x14=0x919fb3d3
       40845000	      4083	80003694	00f270b3	and	x1,x4,x15	  x4:0x00000000 x15:0x04fe2000  x1=0x00000000
       40855000	      4084	80003698	01296db3	or	x27,x18,x18	 x18:0x800030a0 x18:0x800030a0 x27=0x800030a0
       40865000	      4085	8000369c	01e7b333	sltu	x6,x15,x30	 x15:0x04fe2000 x30:0xbeffbb21  x6=0x00000001
       40875000	      4086	800036a0	00325f13	srli	x30,x4,0x3	  x4:0x00000000 x30=0x00000000
       40885000	      4087	800036a4	010d1c13	slli	x24,x26,0x10	 x26:0x00000001 x24=0x00010000
       40895000	      4088	800036a8	011140b3	xor	x1,x2,x17	  x2:0x8000367c x17:0xdfc645f4  x1=0x5fc67388
       40905000	      4089	800036ac	1b7e6d13	ori	x26,x28,439	 x28:0x00000000 x26=0x000001b7
       40915000	      4090	800036b0	02671a63	bne	x14,x6,800036e4	 x14:0x919fb3d3  x6:0x00000001
       40925000	      4091	00000000	00000013	addi	x0,x0,0	  x0:0x00000000
       40935000	      4092	800036e0	00000013	addi	x0,x0,0	  x0:0x00000000
       40945000	      4093	800036e4	0158eb33	or	x22,x17,x21	 x17:0xdfc645f4 x21:0x00013f88 x22=0xdfc77ffc
       40955000	      4094	800036e8	02827463	bgeu	x4,x8,80003710	  x4:0x00000000  x8:0x80003054
       40965000	      4095	800036ec	40555313	srai	x6,x10,0x5	 x10:0x00000001  x6=0x00000000
       40975000	      4096	800036f0	01991863	bne	x18,x25,80003700	 x18:0x800030a0 x25:0x8000308c
       40985000	      4097	00000000	00000013	addi	x0,x0,0	  x0:0x00000000
       40995000	      4098	800036fc	00000013	addi	x0,x0,0	  x0:0x00000000
       41005000	      4099	80003700	7b147913	andi	x18,x8,1969	  x8:0x80003054 x18=0x00000010
       41015000	      4100	80003704	018dc463	blt	x27,x24,8000370c	 x27:0x800030a0 x24:0x00010000
       41025000	      4101	00000000	00000013	addi	x0,x0,0	  x0:0x00000000
       41035000	      4102	80003708	00000013	addi	x0,x0,0	  x0:0x00000000
       41045000	      4103	8000370c	41805493	srai	x9,x0,0x18	  x0:0x00000000  x9=0x00000000
       41055000	      4104	80003710	40565433	sra	x8,x12,x5	 x12:0x80000070  x5:0x80009fc4  x8=0xf8000007
       41065000	      4105	80003714	017d2533	slt	x10,x26,x23	 x26:0x000001b7 x23:0x41a44000 x10=0x00000001
       41075000	      4106	80003718	0072fe63	bgeu	x5,x7,80003734	  x5:0x80009fc4  x7:0x00000000
       41085000	      4107	00000000	00000013	addi	x0,x0,0	  x0:0x00000000
       41095000	      4108	80003730	00000013	addi	x0,x0,0	  x0:0x00000000
       41105000	      4109	80003734	00000013	addi	x0,x0,0	  x0:0x00000000
       41115000	      4110	80003738	41448733	sub	x14,x9,x20	  x9:0x00000000 x20:0xfdfc645f x14=0x02039ba1
       41125000	      4111	8000373c	2078aa93	slti	x21,x17,519	 x17:0xdfc645f4 x21=0x00000001
       41135000	      4112	80003740	00000013	addi	x0,x0,0	  x0:0x00000000
       41145000	      4113	80003744	01081713	slli	x14,x16,0x10	 x16:0xc533cdf4 x14=0xcdf40000
       41155000	      4114	80003748	6f06c4b7	lui	x9,0x6f06c	  x9=0x6f06c000
       41165000	      4115	8000374c	41badd13	srai	x26,x21,0x1b	 x21:0x00000001 x26=0x00000000
       41175000	      4116	80003750	01420e63	beq	x4,x20,8000376c	  x4:0x00000000 x20:0xfdfc645f
       41185000	      4117	80003754	013ed613	srli	x12,x29,0x13	 x29:0x4f6ed0c0 x12=0x000009ed
       41195000	      4118	80003758	41355313	srai	x6,x10,0x13	 x10:0x00000001  x6=0x00000000
       41205000	      4119	8000375c	026c7a63	bgeu	x24,x6,80003790	 x24:0x00010000  x6:0x00000000
       41215000	      4120	00000000	00000013	addi	x0,x0,0	  x0:0x00000000
       41225000	      4121	8000378c	00000013	addi	x0,x0,0	  x0:0x00000000
       41235000	      4122	80003790	02748663	beq	x9,x7,800037bc	  x9:0x6f06c000  x7:0x00000000
       41245000	      4123	80003794	01f830b3	sltu	x1,x16,x31	 x16:0xc533cdf4 x31:0x00000000  x1=0x00000000
       41255000	      4124	80003798	418bd993	srai	x19,x23,0x18	 x23:0x41a44000 x19=0x00000041
       41265000	      4125	8000379c	41618133	sub	x2,x3,x22	  x3:0x00080003 x22:0xdfc77ffc  x2=0x20408007
       41275000	      4126	800037a0	41c188b3	sub	x17,x3,x28	  x3:0x00080003 x28:0x00000000 x17=0x00080003
       41285000	      4127	800037a4	0114f4b3	and	x9,x9,x17	  x9:0x6f06c000 x17:0x00080003  x9=0x00000000
       41295000	      4128	800037a8	0159bd33	sltu	x26,x19,x21	 x19:0x00000041 x21:0x00000001 x26=0x00000000
       41305000	      4129	800037ac	0d638f13	addi	x30,x7,214	  x7:0x00000000 x30=0x000000d6
       41315000	      4130	800037b0	00654c33	xor	x24,x10,x6	 x10:0x00000001  x6:0x00000000 x24=0x00000001
       41325000	      4131	800037b4	2b726937	lui	x18,0x2b726	 x18=0x2b726000
       41335000	      4132	800037b8	a86b6313	ori	x6,x22,-1402	 x22:0xdfc77ffc  x6=0xfffffffe
       41345000	      4133	800037bc	02b29e63	bne	x5,x11,800037f8	  x5:0x80009fc4 x11:0x80009f40
       41355000	      4134	00000000	00000013	addi	x0,x0,0	  x0:0x00000000
       41365000	      4135	800037f4	00000013	addi	x0,x0,0	  x0:0x00000000
       41375000	      4136	800037f8	00000013	addi	x0,x0,0	  x0:0x00000000
       41385000	      4137	800037fc	0583c063	blt	x7,x24,8000383c	  x7:0x00000000 x24:0x00000001
       41395000	      4138	00000000	00000013	addi	x0,x0,0	  x0:0x00000000
       41405000	      4139	80003838	00000013	addi	x0,x0,0	  x0:0x00000000
       41415000	      4140	8000383c	029d6463	bltu	x26,x9,80003864	 x26:0x00000000  x9:0x00000000
       41425000	      4141	80003840	00f2feb3	and	x29,x5,x15	  x5:0x80009fc4 x15:0x04fe2000 x29=0x00000000
       41435000	      4142	80003844	03095e63	bge	x18,x16,80003880	 x18:0x2b726000 x16:0xc533cdf4
       41445000	      4143	00000000	00000013	addi	x0,x0,0	  x0:0x00000000
       41455000	      4144	8000387c	00000013	addi	x0,x0,0	  x0:0x00000000
       41465000	      4145	80003880	005dcfb3	xor	x31,x27,x5	 x27:0x800030a0  x5:0x80009fc4 x31=0x0000af64
       41475000	      4146	80003884	003f3fb3	sltu	x31,x30,x3	 x30:0x000000d6  x3:0x00080003 x31=0x00000001
       41485000	      4147	80003888	ff8df093	andi	x1,x27,-8	 x27:0x800030a0  x1=0x800030a0
       41495000	      4148	8000388c	4007dab3	sra	x21,x15,x0	 x15:0x04fe2000  x0:0x00000000 x21=0x04fe2000
       41505000	      4149	80003890	00000013	addi	x0,x0,0	  x0:0x00000000
       41515000	      4150	80003894	0525e463	bltu	x11,x18,800038dc	 x11:0x80009f40 x18:0x2b726000
       41525000	      4151	80003898	410cdc93	srai	x25,x25,0x10	 x25:0x8000308c x25=0xffff8000
       41535000	      4152	8000389c	dffd6517	auipc	x10,0xdffd6	 x10=0x5ffd9898
       41545000	      4153	800038a0	8ee9bd93	sltiu	x27,x19,-1810	 x19:0x00000041 x27=0x00000001
       41555000	      4154	800038a4	02a96a63	bltu	x18,x10,800038d8	 x18:0x2b726000 x10:0x5ffd9898
       41565000	      4155	00000000	00000013	addi	x0,x0,0	  x0:0x00000000
       41575000	      4156	800038d4	00000013	addi	x0,x0,0	  x0:0x00000000
       41585000	      4157	800038d8	03ad0e63	beq	x26,x26,80003914	 x26:0x00000000 x26:0x00000000
       41595000	      4158	00000000	00000013	addi	x0,x0,0	  x0:0x00000000
       41605000	      4159	80003910	00000013	addi	x0,x0,0	  x0:0x00000000
       41615000	      4160	80003914	00e1c433	xor	x8,x3,x14	  x3:0x00080003 x14:0xcdf40000  x8=0xcdfc0003
       41625000	      4161	80003918	6dc2c713	xori	x14,x5,1756	  x5:0x80009fc4 x14=0x80009918
       41635000	      4162	8000391c	000e9993	slli	x19,x29,0x0	 x29:0x00000000 x19=0x00000000
       41645000	      4163	80003920	007afeb3	and	x29,x21,x7	 x21:0x04fe2000  x7:0x00000000 x29=0x00000000
       41655000	      4164	80003924	61d4ff13	andi	x30,x9,1565	  x9:0x00000000 x30=0x00000000
       41665000	      4165	80003928	02c0016f	jal	x2,80003928	  x2=0x80003928
       41675000	      4166	00000000	00000013	addi	x0,x0,0	  x0:0x00000000
       41685000	      4167	80003950	00000013	addi	x0,x0,0	  x0:0x00000000
       41695000	      4168	80003954	004000ef	jal	x1,80003954	  x1=0x80003954
       41705000	      4169	00000000	00000013	addi	x0,x0,0	  x0:0x00000000
       41715000	      4170	80003954	00000013	addi	x0,x0,0	  x0:0x00000000
       41725000	      4171	80003958	fd9ff0ef	jal	x1,80003958	  x1=0x80003958
       41735000	      4172	00000000	00000013	addi	x0,x0,0	  x0:0x00000000
       41745000	      4173	8000392c	00000013	addi	x0,x0,0	  x0:0x00000000
       41755000	      4174	80003930	018000ef	jal	x1,80003930	  x1=0x80003930
       41765000	      4175	00000000	00000013	addi	x0,x0,0	  x0:0x00000000
       41775000	      4176	80003944	00000013	addi	x0,x0,0	  x0:0x00000000
       41785000	      4177	80003948	fedff46f	jal	x8,80003948	  x8=0x80003948
       41795000	      4178	00000000	00000013	addi	x0,x0,0	  x0:0x00000000
       41805000	      4179	80003930	00000013	addi	x0,x0,0	  x0:0x00000000
       41815000	      4180	80003934	01c001ef	jal	x3,80003934	  x3=0x80003934
       41825000	      4181	00000000	00000013	addi	x0,x0,0	  x0:0x00000000
       41835000	      4182	8000394c	00000013	addi	x0,x0,0	  x0:0x00000000
       41845000	      4183	80003950	0180036f	jal	x6,80003950	  x6=0x80003950
       41855000	      4184	00000000	00000013	addi	x0,x0,0	  x0:0x00000000
       41865000	      4185	80003964	00000013	addi	x0,x0,0	  x0:0x00000000
       41875000	      4186	80003968	ff5ff0ef	jal	x1,80003968	  x1=0x80003968
       41885000	      4187	00000000	00000013	addi	x0,x0,0	  x0:0x00000000
       41895000	      4188	80003958	00000013	addi	x0,x0,0	  x0:0x00000000
       41905000	      4189	8000395c	fe9fff6f	jal	x30,8000395c	 x30=0x8000395c
       41915000	      4190	00000000	00000013	addi	x0,x0,0	  x0:0x00000000
       41925000	      4191	80003940	00000013	addi	x0,x0,0	  x0:0x00000000
       41935000	      4192	80003944	00800bef	jal	x23,80003944	 x23=0x80003944
       41945000	      4193	00000000	00000013	addi	x0,x0,0	  x0:0x00000000
       41955000	      4194	80003948	00000013	addi	x0,x0,0	  x0:0x00000000
       41965000	      4195	8000394c	ff5ffa6f	jal	x20,8000394c	 x20=0x8000394c
       41975000	      4196	00000000	00000013	addi	x0,x0,0	  x0:0x00000000
       41985000	      4197	8000393c	00000013	addi	x0,x0,0	  x0:0x00000000
       41995000	      4198	80003940	fedff0ef	jal	x1,80003940	  x1=0x80003940
       42005000	      4199	00000000	00000013	addi	x0,x0,0	  x0:0x00000000
       42015000	      4200	80003928	00000013	addi	x0,x0,0	  x0:0x00000000
       42025000	      4201	8000392c	034000ef	jal	x1,8000392c	  x1=0x8000392c
       42035000	      4202	00000000	00000013	addi	x0,x0,0	  x0:0x00000000
       42045000	      4203	8000395c	00000013	addi	x0,x0,0	  x0:0x00000000
       42055000	      4204	80003960	fd9fffef	jal	x31,80003960	 x31=0x80003960
       42065000	      4205	00000000	00000013	addi	x0,x0,0	  x0:0x00000000
       42075000	      4206	80003934	00000013	addi	x0,x0,0	  x0:0x00000000
       42085000	      4207	80003938	004000ef	jal	x1,80003938	  x1=0x80003938
       42095000	      4208	00000000	00000013	addi	x0,x0,0	  x0:0x00000000
       42105000	      4209	80003938	00000013	addi	x0,x0,0	  x0:0x00000000
       42115000	      4210	8000393c	0280036f	jal	x6,8000393c	  x6=0x8000393c
       42125000	      4211	00000000	00000013	addi	x0,x0,0	  x0:0x00000000
       42135000	      4212	80003960	00000013	addi	x0,x0,0	  x0:0x00000000
       42145000	      4213	80003964	00800def	jal	x27,80003964	 x27=0x80003964
       42155000	      4214	00000000	00000013	addi	x0,x0,0	  x0:0x00000000
       42165000	      4215	80003968	00000013	addi	x0,x0,0	  x0:0x00000000
       42175000	      4216	8000396c	c649a793	slti	x15,x19,-924	 x19:0x00000000 x15=0x00000000
       42185000	      4217	80003970	003ae463	bltu	x21,x3,80003978	 x21:0x04fe2000  x3:0x80003934
       42195000	      4218	00000000	00000013	addi	x0,x0,0	  x0:0x00000000
       42205000	      4219	80003974	00000013	addi	x0,x0,0	  x0:0x00000000
       42215000	      4220	80003978	1740f813	andi	x16,x1,372	  x1:0x80003938 x16=0x00000130
       42225000	      4221	8000397c	659ac093	xori	x1,x21,1625	 x21:0x04fe2000  x1=0x04fe2659
       42235000	      4222	80003980	018f2b33	slt	x22,x30,x24	 x30:0x8000395c x24:0x00000001 x22=0x00000001
       42245000	      4223	80003984	4fc02a13	slti	x20,x0,1276	  x0:0x00000000 x20=0x00000001
       42255000	      4224	80003988	d1b8e713	ori	x14,x17,-741	 x17:0x00080003 x14=0xfffffd1b
       42265000	      4225	8000398c	0511f863	bgeu	x3,x17,800039dc	  x3:0x80003934 x17:0x00080003
       42275000	      4226	00000000	00000013	addi	x0,x0,0	  x0:0x00000000
       42285000	      4227	800039d8	00000013	addi	x0,x0,0	  x0:0x00000000
       42295000	      4228	800039dc	0190b733	sltu	x14,x1,x25	  x1:0x04fe2659 x25:0xffff8000 x14=0x00000001
       42305000	      4229	800039e0	011b5313	srli	x6,x22,0x11	 x22:0x00000001  x6=0x00000000
       42315000	      4230	800039e4	6b643313	sltiu	x6,x8,1718	  x8:0x80003948  x6=0x00000000
       42325000	      4231	800039e8	01d8ec33	or	x24,x17,x29	 x17:0x00080003 x29:0x00000000 x24=0x00080003
       42335000	      4232	800039ec	2a602d93	slti	x27,x0,678	  x0:0x00000000 x27=0x00000001
       42345000	      4233	800039f0	0177b8b3	sltu	x17,x15,x23	 x15:0x00000000 x23:0x80003944 x17=0x00000001
       42355000	      4234	800039f4	00cb1ab3	sll	x21,x22,x12	 x22:0x00000001 x12:0x000009ed x21=0x00002000
       42365000	      4235	800039f8	003809b3	add	x19,x16,x3	 x16:0x00000130  x3:0x80003934 x19=0x80003a64
       42375000	      4236	800039fc	01300db3	add	x27,x0,x19	  x0:0x00000000 x19:0x80003a64 x27=0x80003a64
       42385000	      4237	80003a00	1879f793	andi	x15,x19,391	 x19:0x80003a64 x15=0x00000004
       42395000	      4238	80003a04	00d190b3	sll	x1,x3,x13	  x3:0x80003934 x13:0x80009f15  x1=0x26800000
       42405000	      4239	80003a08	00c85633	srl	x12,x16,x12	 x16:0x00000130 x12:0x000009ed x12=0x00000000
       42415000	      4240	80003a0c	019376b3	and	x13,x6,x25	  x6:0x00000000 x25:0xffff8000 x13=0x00000000
       42425000	      4241	80003a10	e1d57213	andi	x4,x10,-483	 x10:0x5ffd9898  x4=0x5ffd9818
       42435000	      4242	80003a14	01d71513	slli	x10,x14,0x1d	 x14:0x00000001 x10=0x20000000
       42445000	      4243	80003a18	40a10133	sub	x2,x2,x10	  x2:0x80003928 x10:0x20000000  x2=0x60003928
       42455000	      4244	80003a1c	411c50b3	sra	x1,x24,x17	 x24:0x00080003 x17:0x00000001  x1=0x00040001
       42465000	      4245	80003a20	40c28033	sub	x0,x5,x12	  x5:0x80009fc4 x12:0x00000000
       42475000	      4246	80003a24	00000013	addi	x0,x0,0	  x0:0x00000000
       42485000	      4247	80003a28	01c7b533	sltu	x10,x15,x28	 x15:0x00000004 x28:0x00000000 x10=0x00000000
       42495000	      4248	80003a2c	10f64817	auipc	x16,0x10f64	 x16=0x90f67a28
       42505000	      4249	80003a30	05018063	beq	x3,x16,80003a70	  x3:0x80003934 x16:0x90f67a28
       42515000	      4250	80003a34	002764b3	or	x9,x14,x2	 x14:0x00000001  x2:0x60003928  x9=0x60003929
       42525000	      4251	80003a38	7f063a93	sltiu	x21,x12,2032	 x12:0x00000000 x21=0x00000001
       42535000	      4252	80003a3c	00f50f33	add	x30,x10,x15	 x10:0x00000000 x15:0x00000004 x30=0x00000004
       42545000	      4253	80003a40	0062aa33	slt	x20,x5,x6	  x5:0x80009fc4  x6:0x00000000 x20=0x00000001
       42555000	      4254	80003a44	402fdab3	sra	x21,x31,x2	 x31:0x80003960  x2:0x60003928 x21=0xff800039
       42565000	      4255	80003a48	fe0bc313	xori	x6,x23,-32	 x23:0x80003944  x6=0x7fffc6a4
       42575000	      4256	80003a4c	00cc9463	bne	x25,x12,80003a54	 x25:0xffff8000 x12:0x00000000
       42585000	      4257	00000000	00000013	addi	x0,x0,0	  x0:0x00000000
       42595000	      4258	80003a50	00000013	addi	x0,x0,0	  x0:0x00000000
       42605000	      4259	80003a54	408e8a33	sub	x20,x29,x8	 x29:0x00000000  x8:0x80003948 x20=0x7fffc6b8
       42615000	      4260	80003a58	41b854b3	sra	x9,x16,x27	 x16:0x90f67a28 x27:0x80003a64  x9=0xf90f67a2
       42625000	      4261	80003a5c	3c622793	slti	x15,x4,966	  x4:0x5ffd9818 x15=0x00000000
       42635000	      4262	80003a60	00000013	addi	x0,x0,0	  x0:0x00000000
       42645000	      4263	80003a64	01179133	sll	x2,x15,x17	 x15:0x00000000 x17:0x00000001  x2=0x00000000
       42655000	      4264	80003a68	015c86b3	add	x13,x25,x21	 x25:0xffff8000 x21:0xff800039 x13=0xff7f8039
       42665000	      4265	80003a6c	01ed5333	srl	x6,x26,x30	 x26:0x00000000 x30:0x00000004  x6=0x00000000
       42675000	      4266	80003a70	008971b3	and	x3,x18,x8	 x18:0x2b726000  x8:0x80003948  x3=0x00002000
       42685000	      4267	80003a74	00000013	addi	x0,x0,0	  x0:0x00000000
       42695000	      4268	80003a78	00061bb3	sll	x23,x12,x0	 x12:0x00000000  x0:0x00000000 x23=0x00000000
       42705000	      4269	80003a7c	134de313	ori	x6,x27,308	 x27:0x80003a64  x6=0x80003b74
       42715000	      4270	80003a80	00d083b3	add	x7,x1,x13	  x1:0x00040001 x13:0xff7f8039  x7=0xff83803a
       42725000	      4271	80003a84	4f0a4c93	xori	x25,x20,1264	 x20:0x7fffc6b8 x25=0x7fffc248
       42735000	      4272	80003a88	04c6e063	bltu	x13,x12,80003ac8	 x13:0xff7f8039 x12:0x00000000
       42745000	      4273	80003a8c	02410063	beq	x2,x4,80003aac	  x2:0x00000000  x4:0x5ffd9818
       42755000	      4274	80003a90	0338f463	bgeu	x17,x19,80003ab8	 x17:0x00000001 x19:0x80003a64
       42765000	      4275	80003a94	97e64193	xori	x3,x12,-1666	 x12:0x00000000  x3=0xfffff97e
       42775000	      4276	80003a98	2b9fbd93	sltiu	x27,x31,697	 x31:0x80003960 x27=0x00000000
       42785000	      4277	80003a9c	fb9d8513	addi	x10,x27,-71	 x27:0x00000000 x10=0xffffffb9
       42795000	      4278	80003aa0	41578133	sub	x2,x15,x21	 x15:0x00000000 x21:0xff800039  x2=0x007fffc7
       42805000	      4279	80003aa4	01a85233	srl	x4,x16,x26	 x16:0x90f67a28 x26:0x00000000  x4=0x90f67a28
       42815000	      4280	80003aa8	02539e63	bne	x7,x5,80003ae4	  x7:0xff83803a  x5:0x80009fc4
       42825000	      4281	00000000	00000013	addi	x0,x0,0	  x0:0x00000000
       42835000	      4282	80003ae0	00000013	addi	x0,x0,0	  x0:0x00000000
       42845000	      4283	80003ae4	40acd793	srai	x15,x25,0xa	 x25:0x7fffc248 x15=0x001ffff0
       42855000	      4284	80003ae8	03dbd463	bge	x23,x29,80003b10	 x23:0x00000000 x29:0x00000000
       42865000	      4285	00000000	00000013	addi	x0,x0,0	  x0:0x00000000
       42875000	      4286	80003b0c	00000013	addi	x0,x0,0	  x0:0x00000000
       42885000	      4287	80003b10	1b05cf93	xori	x31,x11,432	 x11:0x80009f40 x31=0x80009ef0
       42895000	      4288	80003b14	4127d413	srai	x8,x15,0x12	 x15:0x001ffff0  x8=0x00000007
       42905000	      4289	80003b18	035f1463	bne	x30,x21,80003b40	 x30:0x00000004 x21:0xff800039
       42915000	      4290	00000000	00000013	addi	x0,x0,0	  x0:0x00000000
       42925000	      4291	80003b3c	00000013	addi	x0,x0,0	  x0:0x00000000
       42935000	      4292	80003b40	010d8233	add	x4,x27,x16	 x27:0x00000000 x16:0x90f67a28  x4=0x90f67a28
       42945000	      4293	80003b44	01f05863	bge	x0,x31,80003b54	  x0:0x00000000 x31:0x80009ef0
       42955000	      4294	00000000	00000013	addi	x0,x0,0	  x0:0x00000000
       42965000	      4295	80003b50	00000013	addi	x0,x0,0	  x0:0x00000000
       42975000	      4296	80003b54	012ddd93	srli	x27,x27,0x12	 x27:0x00000000 x27=0x00000000
       42985000	      4297	80003b58	0045a103	lw	x2,4(x11)	 x11:0x80009f40  x2=0x80003f18 PA:0x80009f44
       42995000	      4298	80003b5c	00432cb3	slt	x25,x6,x4	  x6:0x80003b74  x4:0x90f67a28 x25=0x00000001
       43005000	      4299	80003b60	20563c93	sltiu	x25,x12,517	 x12:0x00000000 x25=0x00000001
       43015000	      4300	80003b64	00000013	addi	x0,x0,0	  x0:0x00000000
       43025000	      4301	80003b68	01b1f633	and	x12,x3,x27	  x3:0xfffff97e x27:0x00000000 x12=0x00000000
       43035000	      4302	80003b6c	018d7bb3	and	x23,x26,x24	 x26:0x00000000 x24:0x00080003 x23=0x00000000
       43045000	      4303	80003b70	02c58593	addi	x11,x11,44	 x11:0x80009f40 x11=0x80009f6c
       43055000	      4304	80003b74	69668913	addi	x18,x13,1686	 x13:0xff7f8039 x18=0xff7f86cf
       43065000	      4305	80003b78	01cd9993	slli	x19,x27,0x1c	 x27:0x00000000 x19=0x00000000
       43075000	      4306	80003b7c	00110113	addi	x2,x2,1	  x2:0x80003f18  x2=0x80003f19
       43085000	      4307	80003b80	00010167	jalr	x2,x2,0	  x2:0x80003f19  x2=0x80003b80
       43095000	      4308	00000000	00000013	addi	x0,x0,0	  x0:0x00000000
       43105000	      4309	80003f18	00000013	addi	x0,x0,0	  x0:0x00000000
       43115000	      4310	80003f1c	fffffc17	auipc	x24,0xfffff	 x24=0x80002f18
       43125000	      4311	80003f20	1f4c0c13	addi	x24,x24,500	 x24:0x80002f18 x24=0x8000310c
       43135000	      4312	80003f24	01348b33	add	x22,x9,x19	  x9:0xf90f67a2 x19:0x00000000 x22=0xf90f67a2
       43145000	      4313	80003f28	01ee1d93	slli	x27,x28,0x1e	 x28:0x00000000 x27=0x00000000
       43155000	      4314	80003f2c	e9cc0c13	addi	x24,x24,-356	 x24:0x8000310c x24=0x80002fa8
       43165000	      4315	80003f30	404e5993	srai	x19,x28,0x4	 x28:0x00000000 x19=0x00000000
       43175000	      4316	80003f34	00000013	addi	x0,x0,0	  x0:0x00000000
       43185000	      4317	80003f38	01751813	slli	x16,x10,0x17	 x10:0xffffffb9 x16=0xdc800000
       43195000	      4318	80003f3c	0093d1b3	srl	x3,x7,x9	  x7:0xff83803a  x9:0xf90f67a2  x3=0x3fe0e00e
       43205000	      4319	80003f40	412add33	sra	x26,x21,x18	 x21:0xff800039 x18:0xff7f86cf x26=0xffffff00
       43215000	      4320	80003f44	0115f133	and	x2,x11,x17	 x11:0x80009f6c x17:0x00000001  x2=0x00000000
       43225000	      4321	80003f48	01747663	bgeu	x8,x23,80003f54	  x8:0x00000007 x23:0x00000000
       43235000	      4322	00000000	00000013	addi	x0,x0,0	  x0:0x00000000
       43245000	      4323	80003f50	00000013	addi	x0,x0,0	  x0:0x00000000
       43255000	      4324	80003f54	165c0167	jalr	x2,x24,357	 x24:0x80002fa8  x2=0x80003f54
       43265000	      4325	00000000	00000013	addi	x0,x0,0	  x0:0x00000000
       43275000	      4326	8000310c	00000013	addi	x0,x0,0	  x0:0x00000000
       43285000	      4327	80003110	013f43b3	xor	x7,x30,x19	 x30:0x00000004 x19:0x00000000  x7=0x00000004
       43295000	      4328	80003114	016ab6b3	sltu	x13,x21,x22	 x21:0xff800039 x22:0xf90f67a2 x13=0x00000000
       43305000	      4329	80003118	00e7c463	blt	x15,x14,80003120	 x15:0x001ffff0 x14:0x00000001
       43315000	      4330	8000311c	004f2433	slt	x8,x30,x4	 x30:0x00000004  x4:0x90f67a28  x8=0x00000000
       43325000	      4331	80003120	fd458593	addi	x11,x11,-44	 x11:0x80009f6c x11=0x80009f40
       43335000	      4332	80003124	015c00b3	add	x1,x24,x21	 x24:0x80002fa8 x21:0xff800039  x1=0x7f802fe1
       43345000	      4333	80003128	cb8a7213	andi	x4,x20,-840	 x20:0x7fffc6b8  x4=0x7fffc4b8
       43355000	      4334	8000312c	01abd013	srli	x0,x23,0x1a	 x23:0x00000000
       43365000	      4335	80003130	0025a223	sw	x2,4(x11)	 x11:0x80009f40  x2:0x80003f54 PA:0x80009f44
       43375000	      4336	80003134	009ed3b3	srl	x7,x29,x9	 x29:0x00000000  x9:0xf90f67a2  x7=0x00000000
       43385000	      4337	80003138	06c0016f	jal	x2,80003138	  x2=0x80003138
       43395000	      4338	00000000	00000013	addi	x0,x0,0	  x0:0x00000000
       43405000	      4339	800031a0	00000013	addi	x0,x0,0	  x0:0x00000000
       43415000	      4340	800031a4	fd5ff0ef	jal	x1,800031a4	  x1=0x800031a4
       43425000	      4341	00000000	00000013	addi	x0,x0,0	  x0:0x00000000
       43435000	      4342	80003174	00000013	addi	x0,x0,0	  x0:0x00000000
       43445000	      4343	80003178	ff1ff0ef	jal	x1,80003178	  x1=0x80003178
       43455000	      4344	00000000	00000013	addi	x0,x0,0	  x0:0x00000000
       43465000	      4345	80003164	00000013	addi	x0,x0,0	  x0:0x00000000
       43475000	      4346	80003168	04000a6f	jal	x20,80003168	 x20=0x80003168
       43485000	      4347	00000000	00000013	addi	x0,x0,0	  x0:0x00000000
       43495000	      4348	800031a4	00000013	addi	x0,x0,0	  x0:0x00000000
       43505000	      4349	800031a8	fbdff36f	jal	x6,800031a8	  x6=0x800031a8
       43515000	      4350	00000000	00000013	addi	x0,x0,0	  x0:0x00000000
       43525000	      4351	80003160	00000013	addi	x0,x0,0	  x0:0x00000000
       43535000	      4352	80003164	ff5ff7ef	jal	x15,80003164	 x15=0x80003164
       43545000	      4353	00000000	00000013	addi	x0,x0,0	  x0:0x00000000
       43555000	      4354	80003154	00000013	addi	x0,x0,0	  x0:0x00000000
       43565000	      4355	80003158	fe9ff8ef	jal	x17,80003158	 x17=0x80003158
       43575000	      4356	00000000	00000013	addi	x0,x0,0	  x0:0x00000000
       43585000	      4357	8000313c	00000013	addi	x0,x0,0	  x0:0x00000000
       43595000	      4358	80003140	048000ef	jal	x1,80003140	  x1=0x80003140
       43605000	      4359	00000000	00000013	addi	x0,x0,0	  x0:0x00000000
       43615000	      4360	80003184	00000013	addi	x0,x0,0	  x0:0x00000000
       43625000	      4361	80003188	ffdff36f	jal	x6,80003188	  x6=0x80003188
       43635000	      4362	00000000	00000013	addi	x0,x0,0	  x0:0x00000000
       43645000	      4363	80003180	00000013	addi	x0,x0,0	  x0:0x00000000
       43655000	      4364	80003184	0180036f	jal	x6,80003184	  x6=0x80003184
       43665000	      4365	00000000	00000013	addi	x0,x0,0	  x0:0x00000000
       43675000	      4366	80003198	00000013	addi	x0,x0,0	  x0:0x00000000
       43685000	      4367	8000319c	ff5ff36f	jal	x6,8000319c	  x6=0x8000319c
       43695000	      4368	00000000	00000013	addi	x0,x0,0	  x0:0x00000000
       43705000	      4369	8000318c	00000013	addi	x0,x0,0	  x0:0x00000000
       43715000	      4370	80003190	fcdff0ef	jal	x1,80003190	  x1=0x80003190
       43725000	      4371	00000000	00000013	addi	x0,x0,0	  x0:0x00000000
       43735000	      4372	80003158	00000013	addi	x0,x0,0	  x0:0x00000000
       43745000	      4373	8000315c	05000def	jal	x27,8000315c	 x27=0x8000315c
       43755000	      4374	00000000	00000013	addi	x0,x0,0	  x0:0x00000000
       43765000	      4375	800031a8	00000013	addi	x0,x0,0	  x0:0x00000000
       43775000	      4376	800031ac	f9dff0ef	jal	x1,800031ac	  x1=0x800031ac
       43785000	      4377	00000000	00000013	addi	x0,x0,0	  x0:0x00000000
       43795000	      4378	80003144	00000013	addi	x0,x0,0	  x0:0x00000000
       43805000	      4379	80003148	028000ef	jal	x1,80003148	  x1=0x80003148
       43815000	      4380	00000000	00000013	addi	x0,x0,0	  x0:0x00000000
       43825000	      4381	8000316c	00000013	addi	x0,x0,0	  x0:0x00000000
       43835000	      4382	80003170	ffdff36f	jal	x6,80003170	  x6=0x80003170
       43845000	      4383	00000000	00000013	addi	x0,x0,0	  x0:0x00000000
       43855000	      4384	80003168	00000013	addi	x0,x0,0	  x0:0x00000000
       43865000	      4385	8000316c	008000ef	jal	x1,8000316c	  x1=0x8000316c
       43875000	      4386	00000000	00000013	addi	x0,x0,0	  x0:0x00000000
       43885000	      4387	80003170	00000013	addi	x0,x0,0	  x0:0x00000000
       43895000	      4388	80003174	008000ef	jal	x1,80003174	  x1=0x80003174
       43905000	      4389	00000000	00000013	addi	x0,x0,0	  x0:0x00000000
       43915000	      4390	80003178	00000013	addi	x0,x0,0	  x0:0x00000000
       43925000	      4391	8000317c	fe5ffb6f	jal	x22,8000317c	 x22=0x8000317c
       43935000	      4392	00000000	00000013	addi	x0,x0,0	  x0:0x00000000
       43945000	      4393	8000315c	00000013	addi	x0,x0,0	  x0:0x00000000
       43955000	      4394	80003160	038000ef	jal	x1,80003160	  x1=0x80003160
       43965000	      4395	00000000	00000013	addi	x0,x0,0	  x0:0x00000000
       43975000	      4396	80003194	00000013	addi	x0,x0,0	  x0:0x00000000
       43985000	      4397	80003198	ff5ff36f	jal	x6,80003198	  x6=0x80003198
       43995000	      4398	00000000	00000013	addi	x0,x0,0	  x0:0x00000000
       44005000	      4399	80003188	00000013	addi	x0,x0,0	  x0:0x00000000
       44015000	      4400	8000318c	0140036f	jal	x6,8000318c	  x6=0x8000318c
       44025000	      4401	00000000	00000013	addi	x0,x0,0	  x0:0x00000000
       44035000	      4402	8000319c	00000013	addi	x0,x0,0	  x0:0x00000000
       44045000	      4403	800031a0	ff5ff0ef	jal	x1,800031a0	  x1=0x800031a0
       44055000	      4404	00000000	00000013	addi	x0,x0,0	  x0:0x00000000
       44065000	      4405	80003190	00000013	addi	x0,x0,0	  x0:0x00000000
       44075000	      4406	80003194	fb1ff0ef	jal	x1,80003194	  x1=0x80003194
       44085000	      4407	00000000	00000013	addi	x0,x0,0	  x0:0x00000000
       44095000	      4408	80003140	00000013	addi	x0,x0,0	  x0:0x00000000
       44105000	      4409	80003144	010000ef	jal	x1,80003144	  x1=0x80003144
       44115000	      4410	00000000	00000013	addi	x0,x0,0	  x0:0x00000000
       44125000	      4411	80003150	00000013	addi	x0,x0,0	  x0:0x00000000
       44135000	      4412	80003154	02c000ef	jal	x1,80003154	  x1=0x80003154
       44145000	      4413	00000000	00000013	addi	x0,x0,0	  x0:0x00000000
       44155000	      4414	8000317c	00000013	addi	x0,x0,0	  x0:0x00000000
       44165000	      4415	80003180	fd1ff46f	jal	x8,80003180	  x8=0x80003180
       44175000	      4416	00000000	00000013	addi	x0,x0,0	  x0:0x00000000
       44185000	      4417	8000314c	00000013	addi	x0,x0,0	  x0:0x00000000
       44195000	      4418	80003150	ffdff0ef	jal	x1,80003150	  x1=0x80003150
       44205000	      4419	00000000	00000013	addi	x0,x0,0	  x0:0x00000000
       44215000	      4420	80003148	00000013	addi	x0,x0,0	  x0:0x00000000
       44225000	      4421	8000314c	ff1ff0ef	jal	x1,8000314c	  x1=0x8000314c
       44235000	      4422	00000000	00000013	addi	x0,x0,0	  x0:0x00000000
       44245000	      4423	80003138	00000013	addi	x0,x0,0	  x0:0x00000000
       44255000	      4424	8000313c	074000ef	jal	x1,8000313c	  x1=0x8000313c
       44265000	      4425	00000000	00000013	addi	x0,x0,0	  x0:0x00000000
       44275000	      4426	800031ac	00000013	addi	x0,x0,0	  x0:0x00000000
       44285000	      4427	800031b0	00459c93	slli	x25,x11,0x4	 x11:0x80009f40 x25=0x0009f400
       44295000	      4428	800031b4	0300016f	jal	x2,800031b4	  x2=0x800031b4
       44305000	      4429	00000000	00000013	addi	x0,x0,0	  x0:0x00000000
       44315000	      4430	800031e0	00000013	addi	x0,x0,0	  x0:0x00000000
       44325000	      4431	800031e4	008000ef	jal	x1,800031e4	  x1=0x800031e4
       44335000	      4432	00000000	00000013	addi	x0,x0,0	  x0:0x00000000
       44345000	      4433	800031e8	00000013	addi	x0,x0,0	  x0:0x00000000
       44355000	      4434	800031ec	ffdff36f	jal	x6,800031ec	  x6=0x800031ec
       44365000	      4435	00000000	00000013	addi	x0,x0,0	  x0:0x00000000
       44375000	      4436	800031e4	00000013	addi	x0,x0,0	  x0:0x00000000
       44385000	      4437	800031e8	fe1ff26f	jal	x4,800031e8	  x4=0x800031e8
       44395000	      4438	00000000	00000013	addi	x0,x0,0	  x0:0x00000000
       44405000	      4439	800031c4	00000013	addi	x0,x0,0	  x0:0x00000000
       44415000	      4440	800031c8	008009ef	jal	x19,800031c8	 x19=0x800031c8
       44425000	      4441	00000000	00000013	addi	x0,x0,0	  x0:0x00000000
       44435000	      4442	800031cc	00000013	addi	x0,x0,0	  x0:0x00000000
       44445000	      4443	800031d0	ff1ffbef	jal	x23,800031d0	 x23=0x800031d0
       44455000	      4444	00000000	00000013	addi	x0,x0,0	  x0:0x00000000
       44465000	      4445	800031bc	00000013	addi	x0,x0,0	  x0:0x00000000
       44475000	      4446	800031c0	04c000ef	jal	x1,800031c0	  x1=0x800031c0
       44485000	      4447	00000000	00000013	addi	x0,x0,0	  x0:0x00000000
       44495000	      4448	80003208	00000013	addi	x0,x0,0	  x0:0x00000000
       44505000	      4449	8000320c	ff5ff0ef	jal	x1,8000320c	  x1=0x8000320c
       44515000	      4450	00000000	00000013	addi	x0,x0,0	  x0:0x00000000
       44525000	      4451	800031fc	00000013	addi	x0,x0,0	  x0:0x00000000
       44535000	      4452	80003200	fb9ff0ef	jal	x1,80003200	  x1=0x80003200
       44545000	      4453	00000000	00000013	addi	x0,x0,0	  x0:0x00000000
       44555000	      4454	800031b4	00000013	addi	x0,x0,0	  x0:0x00000000
       44565000	      4455	800031b8	044000ef	jal	x1,800031b8	  x1=0x800031b8
       44575000	      4456	00000000	00000013	addi	x0,x0,0	  x0:0x00000000
       44585000	      4457	800031f8	00000013	addi	x0,x0,0	  x0:0x00000000
       44595000	      4458	800031fc	fc1ff26f	jal	x4,800031fc	  x4=0x800031fc
       44605000	      4459	00000000	00000013	addi	x0,x0,0	  x0:0x00000000
       44615000	      4460	800031b8	00000013	addi	x0,x0,0	  x0:0x00000000
       44625000	      4461	800031bc	010000ef	jal	x1,800031bc	  x1=0x800031bc
       44635000	      4462	00000000	00000013	addi	x0,x0,0	  x0:0x00000000
       44645000	      4463	800031c8	00000013	addi	x0,x0,0	  x0:0x00000000
       44655000	      4464	800031cc	024000ef	jal	x1,800031cc	  x1=0x800031cc
       44665000	      4465	00000000	00000013	addi	x0,x0,0	  x0:0x00000000
       44675000	      4466	800031ec	00000013	addi	x0,x0,0	  x0:0x00000000
       44685000	      4467	800031f0	0200036f	jal	x6,800031f0	  x6=0x800031f0
       44695000	      4468	00000000	00000013	addi	x0,x0,0	  x0:0x00000000
       44705000	      4469	8000320c	00000013	addi	x0,x0,0	  x0:0x00000000
       44715000	      4470	80003210	fc5ff46f	jal	x8,80003210	  x8=0x80003210
       44725000	      4471	00000000	00000013	addi	x0,x0,0	  x0:0x00000000
       44735000	      4472	800031d0	00000013	addi	x0,x0,0	  x0:0x00000000
       44745000	      4473	800031d4	034004ef	jal	x9,800031d4	  x9=0x800031d4
       44755000	      4474	00000000	00000013	addi	x0,x0,0	  x0:0x00000000
       44765000	      4475	80003204	00000013	addi	x0,x0,0	  x0:0x00000000
       44775000	      4476	80003208	01c0036f	jal	x6,80003208	  x6=0x80003208
       44785000	      4477	00000000	00000013	addi	x0,x0,0	  x0:0x00000000
       44795000	      4478	80003220	00000013	addi	x0,x0,0	  x0:0x00000000
       44805000	      4479	80003224	fd1ff0ef	jal	x1,80003224	  x1=0x80003224
       44815000	      4480	00000000	00000013	addi	x0,x0,0	  x0:0x00000000
       44825000	      4481	800031f0	00000013	addi	x0,x0,0	  x0:0x00000000
       44835000	      4482	800031f4	02c0026f	jal	x4,800031f4	  x4=0x800031f4
       44845000	      4483	00000000	00000013	addi	x0,x0,0	  x0:0x00000000
       44855000	      4484	8000321c	00000013	addi	x0,x0,0	  x0:0x00000000
       44865000	      4485	80003220	ff9ff36f	jal	x6,80003220	  x6=0x80003220
       44875000	      4486	00000000	00000013	addi	x0,x0,0	  x0:0x00000000
       44885000	      4487	80003214	00000013	addi	x0,x0,0	  x0:0x00000000
       44895000	      4488	80003218	ffdff36f	jal	x6,80003218	  x6=0x80003218
       44905000	      4489	00000000	00000013	addi	x0,x0,0	  x0:0x00000000
       44915000	      4490	80003210	00000013	addi	x0,x0,0	  x0:0x00000000
       44925000	      4491	80003214	ff1ff0ef	jal	x1,80003214	  x1=0x80003214
       44935000	      4492	00000000	00000013	addi	x0,x0,0	  x0:0x00000000
       44945000	      4493	80003200	00000013	addi	x0,x0,0	  x0:0x00000000
       44955000	      4494	80003204	024000ef	jal	x1,80003204	  x1=0x80003204
       44965000	      4495	00000000	00000013	addi	x0,x0,0	  x0:0x00000000
       44975000	      4496	80003224	00000013	addi	x0,x0,0	  x0:0x00000000
       44985000	      4497	80003228	fb9ff26f	jal	x4,80003228	  x4=0x80003228
       44995000	      4498	00000000	00000013	addi	x0,x0,0	  x0:0x00000000
       45005000	      4499	800031dc	00000013	addi	x0,x0,0	  x0:0x00000000
       45015000	      4500	800031e0	03c0026f	jal	x4,800031e0	  x4=0x800031e0
       45025000	      4501	00000000	00000013	addi	x0,x0,0	  x0:0x00000000
       45035000	      4502	80003218	00000013	addi	x0,x0,0	  x0:0x00000000
       45045000	      4503	8000321c	fbdff36f	jal	x6,8000321c	  x6=0x8000321c
       45055000	      4504	00000000	00000013	addi	x0,x0,0	  x0:0x00000000
       45065000	      4505	800031d4	00000013	addi	x0,x0,0	  x0:0x00000000
       45075000	      4506	800031d8	0040036f	jal	x6,800031d8	  x6=0x800031d8
       45085000	      4507	00000000	00000013	addi	x0,x0,0	  x0:0x00000000
       45095000	      4508	800031d8	00000013	addi	x0,x0,0	  x0:0x00000000
       45105000	      4509	800031dc	fe9ff36f	jal	x6,800031dc	  x6=0x800031dc
       45115000	      4510	00000000	00000013	addi	x0,x0,0	  x0:0x00000000
       45125000	      4511	800031c0	00000013	addi	x0,x0,0	  x0:0x00000000
       45135000	      4512	800031c4	0340026f	jal	x4,800031c4	  x4=0x800031c4
       45145000	      4513	00000000	00000013	addi	x0,x0,0	  x0:0x00000000
       45155000	      4514	800031f4	00000013	addi	x0,x0,0	  x0:0x00000000
       45165000	      4515	800031f8	0340026f	jal	x4,800031f8	  x4=0x800031f8
       45175000	      4516	00000000	00000013	addi	x0,x0,0	  x0:0x00000000
       45185000	      4517	80003228	00000013	addi	x0,x0,0	  x0:0x00000000
       45195000	      4518	8000322c	00331133	sll	x2,x6,x3	  x6:0x800031dc  x3:0x3fe0e00e  x2=0x0c770000
       45205000	      4519	80003230	02c0016f	jal	x2,80003230	  x2=0x80003230
       45215000	      4520	00000000	00000013	addi	x0,x0,0	  x0:0x00000000
       45225000	      4521	80003258	00000013	addi	x0,x0,0	  x0:0x00000000
       45235000	      4522	8000325c	fd9ff0ef	jal	x1,8000325c	  x1=0x8000325c
       45245000	      4523	00000000	00000013	addi	x0,x0,0	  x0:0x00000000
       45255000	      4524	80003230	00000013	addi	x0,x0,0	  x0:0x00000000
       45265000	      4525	80003234	024000ef	jal	x1,80003234	  x1=0x80003234
       45275000	      4526	00000000	00000013	addi	x0,x0,0	  x0:0x00000000
       45285000	      4527	80003254	00000013	addi	x0,x0,0	  x0:0x00000000
       45295000	      4528	80003258	fe1ff0ef	jal	x1,80003258	  x1=0x80003258
       45305000	      4529	00000000	00000013	addi	x0,x0,0	  x0:0x00000000
       45315000	      4530	80003234	00000013	addi	x0,x0,0	  x0:0x00000000
       45325000	      4531	80003238	0100036f	jal	x6,80003238	  x6=0x80003238
       45335000	      4532	00000000	00000013	addi	x0,x0,0	  x0:0x00000000
       45345000	      4533	80003244	00000013	addi	x0,x0,0	  x0:0x00000000
       45355000	      4534	80003248	ff9ff1ef	jal	x3,80003248	  x3=0x80003248
       45365000	      4535	00000000	00000013	addi	x0,x0,0	  x0:0x00000000
       45375000	      4536	8000323c	00000013	addi	x0,x0,0	  x0:0x00000000
       45385000	      4537	80003240	010000ef	jal	x1,80003240	  x1=0x80003240
       45395000	      4538	00000000	00000013	addi	x0,x0,0	  x0:0x00000000
       45405000	      4539	8000324c	00000013	addi	x0,x0,0	  x0:0x00000000
       45415000	      4540	80003250	ffdffc6f	jal	x24,80003250	 x24=0x80003250
       45425000	      4541	00000000	00000013	addi	x0,x0,0	  x0:0x00000000
       45435000	      4542	80003248	00000013	addi	x0,x0,0	  x0:0x00000000
       45445000	      4543	8000324c	014004ef	jal	x9,8000324c	  x9=0x8000324c
       45455000	      4544	00000000	00000013	addi	x0,x0,0	  x0:0x00000000
       45465000	      4545	8000325c	00000013	addi	x0,x0,0	  x0:0x00000000
       45475000	      4546	80003260	fddff0ef	jal	x1,80003260	  x1=0x80003260
       45485000	      4547	00000000	00000013	addi	x0,x0,0	  x0:0x00000000
       45495000	      4548	80003238	00000013	addi	x0,x0,0	  x0:0x00000000
       45505000	      4549	8000323c	008000ef	jal	x1,8000323c	  x1=0x8000323c
       45515000	      4550	00000000	00000013	addi	x0,x0,0	  x0:0x00000000
       45525000	      4551	80003240	00000013	addi	x0,x0,0	  x0:0x00000000
       45535000	      4552	80003244	010000ef	jal	x1,80003244	  x1=0x80003244
       45545000	      4553	00000000	00000013	addi	x0,x0,0	  x0:0x00000000
       45555000	      4554	80003250	00000013	addi	x0,x0,0	  x0:0x00000000
       45565000	      4555	80003254	0100036f	jal	x6,80003254	  x6=0x80003254
       45575000	      4556	00000000	00000013	addi	x0,x0,0	  x0:0x00000000
       45585000	      4557	80003260	00000013	addi	x0,x0,0	  x0:0x00000000
       45595000	      4558	80003264	a4142013	slti	x0,x8,-1471	  x8:0x80003210
       45605000	      4559	80003268	02c0016f	jal	x2,80003268	  x2=0x80003268
       45615000	      4560	00000000	00000013	addi	x0,x0,0	  x0:0x00000000
       45625000	      4561	80003290	00000013	addi	x0,x0,0	  x0:0x00000000
       45635000	      4562	80003294	fddff4ef	jal	x9,80003294	  x9=0x80003294
       45645000	      4563	00000000	00000013	addi	x0,x0,0	  x0:0x00000000
       45655000	      4564	8000326c	00000013	addi	x0,x0,0	  x0:0x00000000
       45665000	      4565	80003270	020000ef	jal	x1,80003270	  x1=0x80003270
       45675000	      4566	00000000	00000013	addi	x0,x0,0	  x0:0x00000000
       45685000	      4567	8000328c	00000013	addi	x0,x0,0	  x0:0x00000000
       45695000	      4568	80003290	fddff0ef	jal	x1,80003290	  x1=0x80003290
       45705000	      4569	00000000	00000013	addi	x0,x0,0	  x0:0x00000000
       45715000	      4570	80003268	00000013	addi	x0,x0,0	  x0:0x00000000
       45725000	      4571	8000326c	02c0046f	jal	x8,8000326c	  x8=0x8000326c
       45735000	      4572	00000000	00000013	addi	x0,x0,0	  x0:0x00000000
       45745000	      4573	80003294	00000013	addi	x0,x0,0	  x0:0x00000000
       45755000	      4574	80003298	004000ef	jal	x1,80003298	  x1=0x80003298
       45765000	      4575	00000000	00000013	addi	x0,x0,0	  x0:0x00000000
       45775000	      4576	80003298	00000013	addi	x0,x0,0	  x0:0x00000000
       45785000	      4577	8000329c	fddff6ef	jal	x13,8000329c	 x13=0x8000329c
       45795000	      4578	00000000	00000013	addi	x0,x0,0	  x0:0x00000000
       45805000	      4579	80003274	00000013	addi	x0,x0,0	  x0:0x00000000
       45815000	      4580	80003278	00c0036f	jal	x6,80003278	  x6=0x80003278
       45825000	      4581	00000000	00000013	addi	x0,x0,0	  x0:0x00000000
       45835000	      4582	80003280	00000013	addi	x0,x0,0	  x0:0x00000000
       45845000	      4583	80003284	ff9ff0ef	jal	x1,80003284	  x1=0x80003284
       45855000	      4584	00000000	00000013	addi	x0,x0,0	  x0:0x00000000
       45865000	      4585	80003278	00000013	addi	x0,x0,0	  x0:0x00000000
       45875000	      4586	8000327c	ff9ff0ef	jal	x1,8000327c	  x1=0x8000327c
       45885000	      4587	00000000	00000013	addi	x0,x0,0	  x0:0x00000000
       45895000	      4588	80003270	00000013	addi	x0,x0,0	  x0:0x00000000
       45905000	      4589	80003274	018006ef	jal	x13,80003274	 x13=0x80003274
       45915000	      4590	00000000	00000013	addi	x0,x0,0	  x0:0x00000000
       45925000	      4591	80003288	00000013	addi	x0,x0,0	  x0:0x00000000
       45935000	      4592	8000328c	ff5ff36f	jal	x6,8000328c	  x6=0x8000328c
       45945000	      4593	00000000	00000013	addi	x0,x0,0	  x0:0x00000000
       45955000	      4594	8000327c	00000013	addi	x0,x0,0	  x0:0x00000000
       45965000	      4595	80003280	008003ef	jal	x7,80003280	  x7=0x80003280
       45975000	      4596	00000000	00000013	addi	x0,x0,0	  x0:0x00000000
       45985000	      4597	80003284	00000013	addi	x0,x0,0	  x0:0x00000000
       45995000	      4598	80003288	018000ef	jal	x1,80003288	  x1=0x80003288
       46005000	      4599	00000000	00000013	addi	x0,x0,0	  x0:0x00000000
       46015000	      4600	8000329c	00000013	addi	x0,x0,0	  x0:0x00000000
       46025000	      4601	800032a0	006c9d33	sll	x26,x25,x6	 x25:0x0009f400  x6:0x8000328c x26=0x9f400000
       46035000	      4602	800032a4	02c0016f	jal	x2,800032a4	  x2=0x800032a4
       46045000	      4603	00000000	00000013	addi	x0,x0,0	  x0:0x00000000
       46055000	      4604	800032cc	00000013	addi	x0,x0,0	  x0:0x00000000
       46065000	      4605	800032d0	ff9ff0ef	jal	x1,800032d0	  x1=0x800032d0
       46075000	      4606	00000000	00000013	addi	x0,x0,0	  x0:0x00000000
       46085000	      4607	800032c4	00000013	addi	x0,x0,0	  x0:0x00000000
       46095000	      4608	800032c8	00c000ef	jal	x1,800032c8	  x1=0x800032c8
       46105000	      4609	00000000	00000013	addi	x0,x0,0	  x0:0x00000000
       46115000	      4610	800032d0	00000013	addi	x0,x0,0	  x0:0x00000000
       46125000	      4611	800032d4	fe5ff0ef	jal	x1,800032d4	  x1=0x800032d4
       46135000	      4612	00000000	00000013	addi	x0,x0,0	  x0:0x00000000
       46145000	      4613	800032b4	00000013	addi	x0,x0,0	  x0:0x00000000
       46155000	      4614	800032b8	024000ef	jal	x1,800032b8	  x1=0x800032b8
       46165000	      4615	00000000	00000013	addi	x0,x0,0	  x0:0x00000000
       46175000	      4616	800032d8	00000013	addi	x0,x0,0	  x0:0x00000000
       46185000	      4617	800032dc	fd9ff0ef	jal	x1,800032dc	  x1=0x800032dc
       46195000	      4618	00000000	00000013	addi	x0,x0,0	  x0:0x00000000
       46205000	      4619	800032b0	00000013	addi	x0,x0,0	  x0:0x00000000
       46215000	      4620	800032b4	00c000ef	jal	x1,800032b4	  x1=0x800032b4
       46225000	      4621	00000000	00000013	addi	x0,x0,0	  x0:0x00000000
       46235000	      4622	800032bc	00000013	addi	x0,x0,0	  x0:0x00000000
       46245000	      4623	800032c0	04400b6f	jal	x22,800032c0	 x22=0x800032c0
       46255000	      4624	00000000	00000013	addi	x0,x0,0	  x0:0x00000000
       46265000	      4625	80003300	00000013	addi	x0,x0,0	  x0:0x00000000
       46275000	      4626	80003304	ff1ffd6f	jal	x26,80003304	 x26=0x80003304
       46285000	      4627	00000000	00000013	addi	x0,x0,0	  x0:0x00000000
       46295000	      4628	800032f0	00000013	addi	x0,x0,0	  x0:0x00000000
       46305000	      4629	800032f4	fbdff36f	jal	x6,800032f4	  x6=0x800032f4
       46315000	      4630	00000000	00000013	addi	x0,x0,0	  x0:0x00000000
       46325000	      4631	800032ac	00000013	addi	x0,x0,0	  x0:0x00000000
       46335000	      4632	800032b0	ffdff0ef	jal	x1,800032b0	  x1=0x800032b0
       46345000	      4633	00000000	00000013	addi	x0,x0,0	  x0:0x00000000
       46355000	      4634	800032a8	00000013	addi	x0,x0,0	  x0:0x00000000
       46365000	      4635	800032ac	0440036f	jal	x6,800032ac	  x6=0x800032ac
       46375000	      4636	00000000	00000013	addi	x0,x0,0	  x0:0x00000000
       46385000	      4637	800032ec	00000013	addi	x0,x0,0	  x0:0x00000000
       46395000	      4638	800032f0	ff9ff36f	jal	x6,800032f0	  x6=0x800032f0
       46405000	      4639	00000000	00000013	addi	x0,x0,0	  x0:0x00000000
       46415000	      4640	800032e4	00000013	addi	x0,x0,0	  x0:0x00000000
       46425000	      4641	800032e8	ffdff36f	jal	x6,800032e8	  x6=0x800032e8
       46435000	      4642	00000000	00000013	addi	x0,x0,0	  x0:0x00000000
       46445000	      4643	800032e0	00000013	addi	x0,x0,0	  x0:0x00000000
       46455000	      4644	800032e4	fd9ff0ef	jal	x1,800032e4	  x1=0x800032e4
       46465000	      4645	00000000	00000013	addi	x0,x0,0	  x0:0x00000000
       46475000	      4646	800032b8	00000013	addi	x0,x0,0	  x0:0x00000000
       46485000	      4647	800032bc	008000ef	jal	x1,800032bc	  x1=0x800032bc
       46495000	      4648	00000000	00000013	addi	x0,x0,0	  x0:0x00000000
       46505000	      4649	800032c0	00000013	addi	x0,x0,0	  x0:0x00000000
       46515000	      4650	800032c4	028000ef	jal	x1,800032c4	  x1=0x800032c4
       46525000	      4651	00000000	00000013	addi	x0,x0,0	  x0:0x00000000
       46535000	      4652	800032e8	00000013	addi	x0,x0,0	  x0:0x00000000
       46545000	      4653	800032ec	00c0086f	jal	x16,800032ec	 x16=0x800032ec
       46555000	      4654	00000000	00000013	addi	x0,x0,0	  x0:0x00000000
       46565000	      4655	800032f4	00000013	addi	x0,x0,0	  x0:0x00000000
       46575000	      4656	800032f8	fb1ff0ef	jal	x1,800032f8	  x1=0x800032f8
       46585000	      4657	00000000	00000013	addi	x0,x0,0	  x0:0x00000000
       46595000	      4658	800032a4	00000013	addi	x0,x0,0	  x0:0x00000000
       46605000	      4659	800032a8	024000ef	jal	x1,800032a8	  x1=0x800032a8
       46615000	      4660	00000000	00000013	addi	x0,x0,0	  x0:0x00000000
       46625000	      4661	800032c8	00000013	addi	x0,x0,0	  x0:0x00000000
       46635000	      4662	800032cc	014003ef	jal	x7,800032cc	  x7=0x800032cc
       46645000	      4663	00000000	00000013	addi	x0,x0,0	  x0:0x00000000
       46655000	      4664	800032dc	00000013	addi	x0,x0,0	  x0:0x00000000
       46665000	      4665	800032e0	020000ef	jal	x1,800032e0	  x1=0x800032e0
       46675000	      4666	00000000	00000013	addi	x0,x0,0	  x0:0x00000000
       46685000	      4667	800032fc	00000013	addi	x0,x0,0	  x0:0x00000000
       46695000	      4668	80003300	fd9ff0ef	jal	x1,80003300	  x1=0x80003300
       46705000	      4669	00000000	00000013	addi	x0,x0,0	  x0:0x00000000
       46715000	      4670	800032d4	00000013	addi	x0,x0,0	  x0:0x00000000
       46725000	      4671	800032d8	0240016f	jal	x2,800032d8	  x2=0x800032d8
       46735000	      4672	00000000	00000013	addi	x0,x0,0	  x0:0x00000000
       46745000	      4673	800032f8	00000013	addi	x0,x0,0	  x0:0x00000000
       46755000	      4674	800032fc	00c000ef	jal	x1,800032fc	  x1=0x800032fc
       46765000	      4675	00000000	00000013	addi	x0,x0,0	  x0:0x00000000
       46775000	      4676	80003304	00000013	addi	x0,x0,0	  x0:0x00000000
       46785000	      4677	80003308	e7b36313	ori	x6,x6,-389	  x6:0x800032e8  x6=0xfffffefb
       46795000	      4678	8000330c	0280016f	jal	x2,8000330c	  x2=0x8000330c
       46805000	      4679	00000000	00000013	addi	x0,x0,0	  x0:0x00000000
       46815000	      4680	80003330	00000013	addi	x0,x0,0	  x0:0x00000000
       46825000	      4681	80003334	fe9ff26f	jal	x4,80003334	  x4=0x80003334
       46835000	      4682	00000000	00000013	addi	x0,x0,0	  x0:0x00000000
       46845000	      4683	80003318	00000013	addi	x0,x0,0	  x0:0x00000000
       46855000	      4684	8000331c	01c000ef	jal	x1,8000331c	  x1=0x8000331c
       46865000	      4685	00000000	00000013	addi	x0,x0,0	  x0:0x00000000
       46875000	      4686	80003334	00000013	addi	x0,x0,0	  x0:0x00000000
       46885000	      4687	80003338	fddff36f	jal	x6,80003338	  x6=0x80003338
       46895000	      4688	00000000	00000013	addi	x0,x0,0	  x0:0x00000000
       46905000	      4689	80003310	00000013	addi	x0,x0,0	  x0:0x00000000
       46915000	      4690	80003314	05000f6f	jal	x30,80003314	 x30=0x80003314
       46925000	      4691	00000000	00000013	addi	x0,x0,0	  x0:0x00000000
       46935000	      4692	80003360	00000013	addi	x0,x0,0	  x0:0x00000000
       46945000	      4693	80003364	fb5ff36f	jal	x6,80003364	  x6=0x80003364
       46955000	      4694	00000000	00000013	addi	x0,x0,0	  x0:0x00000000
       46965000	      4695	80003314	00000013	addi	x0,x0,0	  x0:0x00000000
       46975000	      4696	80003318	018000ef	jal	x1,80003318	  x1=0x80003318
       46985000	      4697	00000000	00000013	addi	x0,x0,0	  x0:0x00000000
       46995000	      4698	8000332c	00000013	addi	x0,x0,0	  x0:0x00000000
       47005000	      4699	80003330	020000ef	jal	x1,80003330	  x1=0x80003330
       47015000	      4700	00000000	00000013	addi	x0,x0,0	  x0:0x00000000
       47025000	      4701	8000334c	00000013	addi	x0,x0,0	  x0:0x00000000
       47035000	      4702	80003350	ffdff0ef	jal	x1,80003350	  x1=0x80003350
       47045000	      4703	00000000	00000013	addi	x0,x0,0	  x0:0x00000000
       47055000	      4704	80003348	00000013	addi	x0,x0,0	  x0:0x00000000
       47065000	      4705	8000334c	ff9ff3ef	jal	x7,8000334c	  x7=0x8000334c
       47075000	      4706	00000000	00000013	addi	x0,x0,0	  x0:0x00000000
       47085000	      4707	80003340	00000013	addi	x0,x0,0	  x0:0x00000000
       47095000	      4708	80003344	fe9ff0ef	jal	x1,80003344	  x1=0x80003344
       47105000	      4709	00000000	00000013	addi	x0,x0,0	  x0:0x00000000
       47115000	      4710	80003328	00000013	addi	x0,x0,0	  x0:0x00000000
       47125000	      4711	8000332c	02800a6f	jal	x20,8000332c	 x20=0x8000332c
       47135000	      4712	00000000	00000013	addi	x0,x0,0	  x0:0x00000000
       47145000	      4713	80003350	00000013	addi	x0,x0,0	  x0:0x00000000
       47155000	      4714	80003354	fedff1ef	jal	x3,80003354	  x3=0x80003354
       47165000	      4715	00000000	00000013	addi	x0,x0,0	  x0:0x00000000
       47175000	      4716	8000333c	00000013	addi	x0,x0,0	  x0:0x00000000
       47185000	      4717	80003340	fe5ff0ef	jal	x1,80003340	  x1=0x80003340
       47195000	      4718	00000000	00000013	addi	x0,x0,0	  x0:0x00000000
       47205000	      4719	80003320	00000013	addi	x0,x0,0	  x0:0x00000000
       47215000	      4720	80003324	fedff0ef	jal	x1,80003324	  x1=0x80003324
       47225000	      4721	00000000	00000013	addi	x0,x0,0	  x0:0x00000000
       47235000	      4722	8000330c	00000013	addi	x0,x0,0	  x0:0x00000000
       47245000	      4723	80003310	048000ef	jal	x1,80003310	  x1=0x80003310
       47255000	      4724	00000000	00000013	addi	x0,x0,0	  x0:0x00000000
       47265000	      4725	80003354	00000013	addi	x0,x0,0	  x0:0x00000000
       47275000	      4726	80003358	ff1ff0ef	jal	x1,80003358	  x1=0x80003358
       47285000	      4727	00000000	00000013	addi	x0,x0,0	  x0:0x00000000
       47295000	      4728	80003344	00000013	addi	x0,x0,0	  x0:0x00000000
       47305000	      4729	80003348	ff5ff0ef	jal	x1,80003348	  x1=0x80003348
       47315000	      4730	00000000	00000013	addi	x0,x0,0	  x0:0x00000000
       47325000	      4731	80003338	00000013	addi	x0,x0,0	  x0:0x00000000
       47335000	      4732	8000333c	02c000ef	jal	x1,8000333c	  x1=0x8000333c
       47345000	      4733	00000000	00000013	addi	x0,x0,0	  x0:0x00000000
       47355000	      4734	80003364	00000013	addi	x0,x0,0	  x0:0x00000000
       47365000	      4735	80003368	ff9fffef	jal	x31,80003368	 x31=0x80003368
       47375000	      4736	00000000	00000013	addi	x0,x0,0	  x0:0x00000000
       47385000	      4737	8000335c	00000013	addi	x0,x0,0	  x0:0x00000000
       47395000	      4738	80003360	fc9ff36f	jal	x6,80003360	  x6=0x80003360
       47405000	      4739	00000000	00000013	addi	x0,x0,0	  x0:0x00000000
       47415000	      4740	80003324	00000013	addi	x0,x0,0	  x0:0x00000000
       47425000	      4741	80003328	ff9ffd6f	jal	x26,80003328	 x26=0x80003328
       47435000	      4742	00000000	00000013	addi	x0,x0,0	  x0:0x00000000
       47445000	      4743	8000331c	00000013	addi	x0,x0,0	  x0:0x00000000
       47455000	      4744	80003320	03c000ef	jal	x1,80003320	  x1=0x80003320
       47465000	      4745	00000000	00000013	addi	x0,x0,0	  x0:0x00000000
       47475000	      4746	80003358	00000013	addi	x0,x0,0	  x0:0x00000000
       47485000	      4747	8000335c	010000ef	jal	x1,8000335c	  x1=0x8000335c
       47495000	      4748	00000000	00000013	addi	x0,x0,0	  x0:0x00000000
       47505000	      4749	80003368	00000013	addi	x0,x0,0	  x0:0x00000000
       47515000	      4750	8000336c	00000013	addi	x0,x0,0	  x0:0x00000000
       47525000	      4751	80003370	000b4533	xor	x10,x22,x0	 x22:0x800032c0  x0:0x00000000 x10=0x800032c0
       47535000	      4752	80003374	01c99f33	sll	x30,x19,x28	 x19:0x800031c8 x28:0x00000000 x30=0x800031c8
       47545000	      4753	80003378	d6446c93	ori	x25,x8,-668	  x8:0x8000326c x25=0xffffff6c
       47555000	      4754	8000337c	523b3637	lui	x12,0x523b3	 x12=0x523b3000
       47565000	      4755	80003380	01119033	sll	x0,x3,x17	  x3:0x80003354 x17:0x80003158
       47575000	      4756	80003384	019e6e63	bltu	x28,x25,800033a0	 x28:0x00000000 x25:0xffffff6c
       47585000	      4757	00000000	00000013	addi	x0,x0,0	  x0:0x00000000
       47595000	      4758	8000339c	00000013	addi	x0,x0,0	  x0:0x00000000
       47605000	      4759	800033a0	00eafc63	bgeu	x21,x14,800033b8	 x21:0xff800039 x14:0x00000001
       47615000	      4760	00000000	00000013	addi	x0,x0,0	  x0:0x00000000
       47625000	      4761	800033b4	00000013	addi	x0,x0,0	  x0:0x00000000
       47635000	      4762	800033b8	0ccff063	bgeu	x31,x12,80003478	 x31:0x80003368 x12:0x523b3000
       47645000	      4763	00000000	00000013	addi	x0,x0,0	  x0:0x00000000
       47655000	      4764	80003474	00000013	addi	x0,x0,0	  x0:0x00000000
       47665000	      4765	80003478	01ecd613	srli	x12,x25,0x1e	 x25:0xffffff6c x12=0x00000003
       47675000	      4766	8000347c	18903193	sltiu	x3,x0,393	  x0:0x00000000  x3=0x00000001
       47685000	      4767	80003480	01021693	slli	x13,x4,0x10	  x4:0x80003334 x13=0x33340000
       47695000	      4768	80003484	40235213	srai	x4,x6,0x2	  x6:0x80003360  x4=0xe0000cd8
       47705000	      4769	80003488	3c8aff13	andi	x30,x21,968	 x21:0xff800039 x30=0x00000008
       47715000	      4770	8000348c	01475813	srli	x16,x14,0x14	 x14:0x00000001 x16=0x00000000
       47725000	      4771	80003490	00213633	sltu	x12,x2,x2	  x2:0x8000330c  x2:0x8000330c x12=0x00000000
       47735000	      4772	80003494	aaee7737	lui	x14,0xaaee7	 x14=0xaaee7000
       47745000	      4773	80003498	01316463	bltu	x2,x19,800034a0	  x2:0x8000330c x19:0x800031c8
       47755000	      4774	8000349c	00de5f33	srl	x30,x28,x13	 x28:0x00000000 x13:0x33340000 x30=0x00000000
       47765000	      4775	800034a0	51a7ff93	andi	x31,x15,1306	 x15:0x80003164 x31=0x00000100
       47775000	      4776	800034a4	0179ac33	slt	x24,x19,x23	 x19:0x800031c8 x23:0x800031d0 x24=0x00000001
       47785000	      4777	800034a8	02119a63	bne	x3,x1,800034dc	  x3:0x00000001  x1:0x8000335c
       47795000	      4778	00000000	00000013	addi	x0,x0,0	  x0:0x00000000
       47805000	      4779	800034d8	00000013	addi	x0,x0,0	  x0:0x00000000
       47815000	      4780	800034dc	01536233	or	x4,x6,x21	  x6:0x80003360 x21:0xff800039  x4=0xff803379
       47825000	      4781	800034e0	01d4f9b3	and	x19,x9,x29	  x9:0x80003294 x29:0x00000000 x19=0x00000000
       47835000	      4782	800034e4	bf17b813	sltiu	x16,x15,-1039	 x15:0x80003164 x16=0x00000001
       47845000	      4783	800034e8	073da893	slti	x17,x27,115	 x27:0x8000315c x17=0x00000001
       47855000	      4784	800034ec	3332b093	sltiu	x1,x5,819	  x5:0x80009fc4  x1=0x00000000
       47865000	      4785	800034f0	419adbb3	sra	x23,x21,x25	 x21:0xff800039 x25:0xffffff6c x23=0xfffff800
       47875000	      4786	800034f4	00d1d033	srl	x0,x3,x13	  x3:0x00000001 x13:0x33340000
       47885000	      4787	800034f8	a787ca17	auipc	x20,0xa787c	 x20=0x2787f4f4
       47895000	      4788	800034fc	005cdb13	srli	x22,x25,0x5	 x25:0xffffff6c x22=0x07fffffb
       47905000	      4789	80003500	00cbffb3	and	x31,x23,x12	 x23:0xfffff800 x12:0x00000000 x31=0x00000000
       47915000	      4790	80003504	edbe6993	ori	x19,x28,-293	 x28:0x00000000 x19=0xfffffedb
       47925000	      4791	80003508	00d5bdb3	sltu	x27,x11,x13	 x11:0x80009f40 x13:0x33340000 x27=0x00000000
       47935000	      4792	8000350c	01af6863	bltu	x30,x26,8000351c	 x30:0x00000000 x26:0x80003328
       47945000	      4793	00000000	00000013	addi	x0,x0,0	  x0:0x00000000
       47955000	      4794	80003518	00000013	addi	x0,x0,0	  x0:0x00000000
       47965000	      4795	8000351c	413cd193	srai	x3,x25,0x13	 x25:0xffffff6c  x3=0xffffffff
       47975000	      4796	80003520	95612b93	slti	x23,x2,-1706	  x2:0x8000330c x23=0x00000001
       47985000	      4797	80003524	4a714313	xori	x6,x2,1191	  x2:0x8000330c  x6=0x800037ab
       47995000	      4798	80003528	019afe63	bgeu	x21,x25,80003544	 x21:0xff800039 x25:0xffffff6c
       48005000	      4799	8000352c	bb814e97	auipc	x29,0xbb814	 x29=0x3b817528
       48015000	      4800	80003530	01a46ab3	or	x21,x8,x26	  x8:0x8000326c x26:0x80003328 x21=0x8000336c
       48025000	      4801	80003534	00ff9a63	bne	x31,x15,80003548	 x31:0x00000000 x15:0x80003164
       48035000	      4802	00000000	00000013	addi	x0,x0,0	  x0:0x00000000
       48045000	      4803	80003544	00000013	addi	x0,x0,0	  x0:0x00000000
       48055000	      4804	80003548	00000013	addi	x0,x0,0	  x0:0x00000000
       48065000	      4805	8000354c	1f04fd17	auipc	x26,0x1f04f	 x26=0x9f052548
       48075000	      4806	80003550	017cb533	sltu	x10,x25,x23	 x25:0xffffff6c x23:0x00000001 x10=0x00000000
       48085000	      4807	80003554	0acff917	auipc	x18,0xacff	 x18=0x8ad02550
       48095000	      4808	80003558	00000013	addi	x0,x0,0	  x0:0x00000000
       48105000	      4809	8000355c	02481e63	bne	x16,x4,80003598	 x16:0x00000001  x4:0xff803379
       48115000	      4810	00000000	00000013	addi	x0,x0,0	  x0:0x00000000
       48125000	      4811	80003594	00000013	addi	x0,x0,0	  x0:0x00000000
       48135000	      4812	80003598	00c4b433	sltu	x8,x9,x12	  x9:0x80003294 x12:0x00000000  x8=0x00000000
       48145000	      4813	8000359c	0402c463	blt	x5,x0,800035e4	  x5:0x80009fc4  x0:0x00000000
       48155000	      4814	00000000	00000013	addi	x0,x0,0	  x0:0x00000000
       48165000	      4815	800035e0	00000013	addi	x0,x0,0	  x0:0x00000000
       48175000	      4816	800035e4	00f97233	and	x4,x18,x15	 x18:0x8ad02550 x15:0x80003164  x4=0x80002140
       48185000	      4817	800035e8	0124d833	srl	x16,x9,x18	  x9:0x80003294 x18:0x8ad02550 x16=0x00008000
       48195000	      4818	800035ec	0133d193	srli	x3,x7,0x13	  x7:0x8000334c  x3=0x00001000
       48205000	      4819	800035f0	03804a63	blt	x0,x24,80003624	  x0:0x00000000 x24:0x00000001
       48215000	      4820	00000000	00000013	addi	x0,x0,0	  x0:0x00000000
       48225000	      4821	80003620	00000013	addi	x0,x0,0	  x0:0x00000000
       48235000	      4822	80003624	012fa9b3	slt	x19,x31,x18	 x31:0x00000000 x18:0x8ad02550 x19=0x00000000
       48245000	      4823	80003628	1bb8b893	sltiu	x17,x17,443	 x17:0x00000001 x17=0x00000001
       48255000	      4824	8000362c	00fa5933	srl	x18,x20,x15	 x20:0x2787f4f4 x15:0x80003164 x18=0x02787f4f
       48265000	      4825	80003630	5f862697	auipc	x13,0x5f862	 x13=0xdf86562c
       48275000	      4826	80003634	40a05b13	srai	x22,x0,0xa	  x0:0x00000000 x22=0x00000000
       48285000	      4827	80003638	0144dd93	srli	x27,x9,0x14	  x9:0x80003294 x27=0x00000800
       48295000	      4828	8000363c	010d79b3	and	x19,x26,x16	 x26:0x9f052548 x16:0x00008000 x19=0x00000000
       48305000	      4829	80003640	0070b1b3	sltu	x3,x1,x7	  x1:0x00000000  x7:0x8000334c  x3=0x00000001
       48315000	      4830	80003644	001ed113	srli	x2,x29,0x1	 x29:0x3b817528  x2=0x1dc0ba94
       48325000	      4831	80003648	40f8d0b3	sra	x1,x17,x15	 x17:0x00000001 x15:0x80003164  x1=0x00000000
       48335000	      4832	8000364c	fffffc97	auipc	x25,0xfffff	 x25=0x80002648
       48345000	      4833	80003650	0fcc8c93	addi	x25,x25,252	 x25:0x80002648 x25=0x80002744
       48355000	      4834	80003654	004e1b33	sll	x22,x28,x4	 x28:0x00000000  x4:0x80002140 x22=0x00000000
       48365000	      4835	80003658	dad0e313	ori	x6,x1,-595	  x1:0x00000000  x6=0xfffffdad
       48375000	      4836	8000365c	00da43b3	xor	x7,x20,x13	 x20:0x2787f4f4 x13:0xdf86562c  x7=0xf801a2d8
       48385000	      4837	80003660	00b25193	srli	x3,x4,0xb	  x4:0x80002140  x3=0x00100004
       48395000	      4838	80003664	31ec8c93	addi	x25,x25,798	 x25:0x80002744 x25=0x80002a62
       48405000	      4839	80003668	ebf7da17	auipc	x20,0xebf7d	 x20=0x6bf80664
       48415000	      4840	8000366c	00db6863	bltu	x22,x13,8000367c	 x22:0x00000000 x13:0xdf86562c
       48425000	      4841	00000000	00000013	addi	x0,x0,0	  x0:0x00000000
       48435000	      4842	80003678	00000013	addi	x0,x0,0	  x0:0x00000000
       48445000	      4843	8000367c	ce2c8167	jalr	x2,x25,-798	 x25:0x80002a62  x2=0x8000367c
       48455000	      4844	00000000	00000013	addi	x0,x0,0	  x0:0x00000000
       48465000	      4845	80002744	00000013	addi	x0,x0,0	  x0:0x00000000
       48475000	      4846	80002748	fd458593	addi	x11,x11,-44	 x11:0x80009f40 x11=0x80009f14
       48485000	      4847	8000274c	f673f837	lui	x16,0xf673f	 x16=0xf673f000
       48495000	      4848	80002750	0025a223	sw	x2,4(x11)	 x11:0x80009f14  x2:0x8000367c PA:0x80009f18
       48505000	      4849	80002754	01df69b3	or	x19,x30,x29	 x30:0x00000000 x29:0x3b817528 x19=0x3b817528
       48515000	      4850	80002758	fe8e3e93	sltiu	x29,x28,-24	 x28:0x00000000 x29=0x00000001
       48525000	      4851	8000275c	530f5f17	auipc	x30,0x530f5	 x30=0xd30f7758
       48535000	      4852	80002760	5b13be93	sltiu	x29,x7,1457	  x7:0xf801a2d8 x29=0x00000000
       48545000	      4853	80002764	00c119b3	sll	x19,x2,x12	  x2:0x8000367c x12:0x00000000 x19=0x8000367c
       48555000	      4854	80002768	00d59533	sll	x10,x11,x13	 x11:0x80009f14 x13:0xdf86562c x10=0x09f14000
       48565000	      4855	8000276c	0112a9b3	slt	x19,x5,x17	  x5:0x80009fc4 x17:0x00000001 x19=0x00000001
       48575000	      4856	80002770	fffff097	auipc	x1,0xfffff	  x1=0x8000176c
       48585000	      4857	80002774	5d008093	addi	x1,x1,1488	  x1:0x8000176c  x1=0x80001d3c
       48595000	      4858	80002778	868b3a93	sltiu	x21,x22,-1944	 x22:0x00000000 x21=0x00000001
       48605000	      4859	8000277c	01c1bdb3	sltu	x27,x3,x28	  x3:0x00100004 x28:0x00000000 x27=0x00000000
       48615000	      4860	80002780	2750ca93	xori	x21,x1,629	  x1:0x80001d3c x21=0x80001f49
       48625000	      4861	80002784	40037c93	andi	x25,x6,1024	  x6:0xfffffdad x25=0x00000400
       48635000	      4862	80002788	30008093	addi	x1,x1,768	  x1:0x80001d3c  x1=0x8000203c
       48645000	      4863	8000278c	419cdfb3	sra	x31,x25,x25	 x25:0x00000400 x25:0x00000400 x31=0x00000400
       48655000	      4864	80002790	01a70463	beq	x14,x26,80002798	 x14:0xaaee7000 x26:0x9f052548
       48665000	      4865	80002794	40f68fb3	sub	x31,x13,x15	 x13:0xdf86562c x15:0x80003164 x31=0x5f8624c8
       48675000	      4866	80002798	d0108167	jalr	x2,x1,-767	  x1:0x8000203c  x2=0x80002798
       48685000	      4867	00000000	00000013	addi	x0,x0,0	  x0:0x00000000
       48695000	      4868	80001d3c	00000013	addi	x0,x0,0	  x0:0x00000000
       48705000	      4869	80001d40	21786f17	auipc	x30,0x21786	 x30=0xa1787d3c
       48715000	      4870	80001d44	00415c33	srl	x24,x2,x4	  x2:0x80002798  x4:0x80002140 x24=0x80002798
       48725000	      4871	80001d48	fe484a13	xori	x20,x16,-28	 x16:0xf673f000 x20=0x098c0fe4
       48735000	      4872	80001d4c	c01cfc13	andi	x24,x25,-1023	 x25:0x00000400 x24=0x00000400
       48745000	      4873	80001d50	41855693	srai	x13,x10,0x18	 x10:0x09f14000 x13=0x00000009
       48755000	      4874	80001d54	0174dd13	srli	x26,x9,0x17	  x9:0x80003294 x26=0x00000100
       48765000	      4875	80001d58	dc054b93	xori	x23,x10,-576	 x10:0x09f14000 x23=0xf60ebdc0
       48775000	      4876	80001d5c	405e56b3	sra	x13,x28,x5	 x28:0x00000000  x5:0x80009fc4 x13=0x00000000
       48785000	      4877	80001d60	fc058593	addi	x11,x11,-64	 x11:0x80009f14 x11=0x80009ed4
       48795000	      4878	80001d64	0025a223	sw	x2,4(x11)	 x11:0x80009ed4  x2:0x80002798 PA:0x80009ed8
       48805000	      4879	80001d68	417dd833	sra	x16,x27,x23	 x27:0x00000000 x23:0xf60ebdc0 x16=0x00000000
       48815000	      4880	80001d6c	0340016f	jal	x2,80001d6c	  x2=0x80001d6c
       48825000	      4881	00000000	00000013	addi	x0,x0,0	  x0:0x00000000
       48835000	      4882	80001d9c	00000013	addi	x0,x0,0	  x0:0x00000000
       48845000	      4883	80001da0	fd1ff0ef	jal	x1,80001da0	  x1=0x80001da0
       48855000	      4884	00000000	00000013	addi	x0,x0,0	  x0:0x00000000
       48865000	      4885	80001d6c	00000013	addi	x0,x0,0	  x0:0x00000000
       48875000	      4886	80001d70	040000ef	jal	x1,80001d70	  x1=0x80001d70
       48885000	      4887	00000000	00000013	addi	x0,x0,0	  x0:0x00000000
       48895000	      4888	80001dac	00000013	addi	x0,x0,0	  x0:0x00000000
       48905000	      4889	80001db0	fd1ff0ef	jal	x1,80001db0	  x1=0x80001db0
       48915000	      4890	00000000	00000013	addi	x0,x0,0	  x0:0x00000000
       48925000	      4891	80001d7c	00000013	addi	x0,x0,0	  x0:0x00000000
       48935000	      4892	80001d80	ffdff0ef	jal	x1,80001d80	  x1=0x80001d80
       48945000	      4893	00000000	00000013	addi	x0,x0,0	  x0:0x00000000
       48955000	      4894	80001d78	00000013	addi	x0,x0,0	  x0:0x00000000
       48965000	      4895	80001d7c	0300036f	jal	x6,80001d7c	  x6=0x80001d7c
       48975000	      4896	00000000	00000013	addi	x0,x0,0	  x0:0x00000000
       48985000	      4897	80001da8	00000013	addi	x0,x0,0	  x0:0x00000000
       48995000	      4898	80001dac	00c004ef	jal	x9,80001dac	  x9=0x80001dac
       49005000	      4899	00000000	00000013	addi	x0,x0,0	  x0:0x00000000
       49015000	      4900	80001db4	00000013	addi	x0,x0,0	  x0:0x00000000
       49025000	      4901	80001db8	fbdff6ef	jal	x13,80001db8	 x13=0x80001db8
       49035000	      4902	00000000	00000013	addi	x0,x0,0	  x0:0x00000000
       49045000	      4903	80001d70	00000013	addi	x0,x0,0	  x0:0x00000000
       49055000	      4904	80001d74	014000ef	jal	x1,80001d74	  x1=0x80001d74
       49065000	      4905	00000000	00000013	addi	x0,x0,0	  x0:0x00000000
       49075000	      4906	80001d84	00000013	addi	x0,x0,0	  x0:0x00000000
       49085000	      4907	80001d88	0400026f	jal	x4,80001d88	  x4=0x80001d88
       49095000	      4908	00000000	00000013	addi	x0,x0,0	  x0:0x00000000
       49105000	      4909	80001dc4	00000013	addi	x0,x0,0	  x0:0x00000000
       49115000	      4910	80001dc8	ffdff0ef	jal	x1,80001dc8	  x1=0x80001dc8
       49125000	      4911	00000000	00000013	addi	x0,x0,0	  x0:0x00000000
       49135000	      4912	80001dc0	00000013	addi	x0,x0,0	  x0:0x00000000
       49145000	      4913	80001dc4	fd1ffb6f	jal	x22,80001dc4	 x22=0x80001dc4
       49155000	      4914	00000000	00000013	addi	x0,x0,0	  x0:0x00000000
       49165000	      4915	80001d90	00000013	addi	x0,x0,0	  x0:0x00000000
       49175000	      4916	80001d94	03c000ef	jal	x1,80001d94	  x1=0x80001d94
       49185000	      4917	00000000	00000013	addi	x0,x0,0	  x0:0x00000000
       49195000	      4918	80001dcc	00000013	addi	x0,x0,0	  x0:0x00000000
       49205000	      4919	80001dd0	fbdff0ef	jal	x1,80001dd0	  x1=0x80001dd0
       49215000	      4920	00000000	00000013	addi	x0,x0,0	  x0:0x00000000
       49225000	      4921	80001d88	00000013	addi	x0,x0,0	  x0:0x00000000
       49235000	      4922	80001d8c	010000ef	jal	x1,80001d8c	  x1=0x80001d8c
       49245000	      4923	00000000	00000013	addi	x0,x0,0	  x0:0x00000000
       49255000	      4924	80001d98	00000013	addi	x0,x0,0	  x0:0x00000000
       49265000	      4925	80001d9c	020000ef	jal	x1,80001d9c	  x1=0x80001d9c
       49275000	      4926	00000000	00000013	addi	x0,x0,0	  x0:0x00000000
       49285000	      4927	80001db8	00000013	addi	x0,x0,0	  x0:0x00000000
       49295000	      4928	80001dbc	fedff0ef	jal	x1,80001dbc	  x1=0x80001dbc
       49305000	      4929	00000000	00000013	addi	x0,x0,0	  x0:0x00000000
       49315000	      4930	80001da4	00000013	addi	x0,x0,0	  x0:0x00000000
       49325000	      4931	80001da8	ffdff0ef	jal	x1,80001da8	  x1=0x80001da8
       49335000	      4932	00000000	00000013	addi	x0,x0,0	  x0:0x00000000
       49345000	      4933	80001da0	00000013	addi	x0,x0,0	  x0:0x00000000
       49355000	      4934	80001da4	fedff0ef	jal	x1,80001da4	  x1=0x80001da4
       49365000	      4935	00000000	00000013	addi	x0,x0,0	  x0:0x00000000
       49375000	      4936	80001d8c	00000013	addi	x0,x0,0	  x0:0x00000000
       49385000	      4937	80001d90	030000ef	jal	x1,80001d90	  x1=0x80001d90
       49395000	      4938	00000000	00000013	addi	x0,x0,0	  x0:0x00000000
       49405000	      4939	80001dbc	00000013	addi	x0,x0,0	  x0:0x00000000
       49415000	      4940	80001dc0	00c0026f	jal	x4,80001dc0	  x4=0x80001dc0
       49425000	      4941	00000000	00000013	addi	x0,x0,0	  x0:0x00000000
       49435000	      4942	80001dc8	00000013	addi	x0,x0,0	  x0:0x00000000
       49445000	      4943	80001dcc	fe9ff36f	jal	x6,80001dcc	  x6=0x80001dcc
       49455000	      4944	00000000	00000013	addi	x0,x0,0	  x0:0x00000000
       49465000	      4945	80001db0	00000013	addi	x0,x0,0	  x0:0x00000000
       49475000	      4946	80001db4	fe5ff0ef	jal	x1,80001db4	  x1=0x80001db4
       49485000	      4947	00000000	00000013	addi	x0,x0,0	  x0:0x00000000
       49495000	      4948	80001d94	00000013	addi	x0,x0,0	  x0:0x00000000
       49505000	      4949	80001d98	fe1ff0ef	jal	x1,80001d98	  x1=0x80001d98
       49515000	      4950	00000000	00000013	addi	x0,x0,0	  x0:0x00000000
       49525000	      4951	80001d74	00000013	addi	x0,x0,0	  x0:0x00000000
       49535000	      4952	80001d78	00c0016f	jal	x2,80001d78	  x2=0x80001d78
       49545000	      4953	00000000	00000013	addi	x0,x0,0	  x0:0x00000000
       49555000	      4954	80001d80	00000013	addi	x0,x0,0	  x0:0x00000000
       49565000	      4955	80001d84	050001ef	jal	x3,80001d84	  x3=0x80001d84
       49575000	      4956	00000000	00000013	addi	x0,x0,0	  x0:0x00000000
       49585000	      4957	80001dd0	00000013	addi	x0,x0,0	  x0:0x00000000
       49595000	      4958	80001dd4	01feb833	sltu	x16,x29,x31	 x29:0x00000000 x31:0x5f8624c8 x16=0x00000001
       49605000	      4959	80001dd8	04c0016f	jal	x2,80001dd8	  x2=0x80001dd8
       49615000	      4960	00000000	00000013	addi	x0,x0,0	  x0:0x00000000
       49625000	      4961	80001e20	00000013	addi	x0,x0,0	  x0:0x00000000
       49635000	      4962	80001e24	ff1ff0ef	jal	x1,80001e24	  x1=0x80001e24
       49645000	      4963	00000000	00000013	addi	x0,x0,0	  x0:0x00000000
       49655000	      4964	80001e10	00000013	addi	x0,x0,0	  x0:0x00000000
       49665000	      4965	80001e14	01c000ef	jal	x1,80001e14	  x1=0x80001e14
       49675000	      4966	00000000	00000013	addi	x0,x0,0	  x0:0x00000000
       49685000	      4967	80001e2c	00000013	addi	x0,x0,0	  x0:0x00000000
       49695000	      4968	80001e30	fc5ff0ef	jal	x1,80001e30	  x1=0x80001e30
       49705000	      4969	00000000	00000013	addi	x0,x0,0	  x0:0x00000000
       49715000	      4970	80001df0	00000013	addi	x0,x0,0	  x0:0x00000000
       49725000	      4971	80001df4	038000ef	jal	x1,80001df4	  x1=0x80001df4
       49735000	      4972	00000000	00000013	addi	x0,x0,0	  x0:0x00000000
       49745000	      4973	80001e28	00000013	addi	x0,x0,0	  x0:0x00000000
       49755000	      4974	80001e2c	fc1ff0ef	jal	x1,80001e2c	  x1=0x80001e2c
       49765000	      4975	00000000	00000013	addi	x0,x0,0	  x0:0x00000000
       49775000	      4976	80001de8	00000013	addi	x0,x0,0	  x0:0x00000000
       49785000	      4977	80001dec	010000ef	jal	x1,80001dec	  x1=0x80001dec
       49795000	      4978	00000000	00000013	addi	x0,x0,0	  x0:0x00000000
       49805000	      4979	80001df8	00000013	addi	x0,x0,0	  x0:0x00000000
       49815000	      4980	80001dfc	0500036f	jal	x6,80001dfc	  x6=0x80001dfc
       49825000	      4981	00000000	00000013	addi	x0,x0,0	  x0:0x00000000
       49835000	      4982	80001e48	00000013	addi	x0,x0,0	  x0:0x00000000
       49845000	      4983	80001e4c	fd1ff0ef	jal	x1,80001e4c	  x1=0x80001e4c
       49855000	      4984	00000000	00000013	addi	x0,x0,0	  x0:0x00000000
       49865000	      4985	80001e18	00000013	addi	x0,x0,0	  x0:0x00000000
       49875000	      4986	80001e1c	0280026f	jal	x4,80001e1c	  x4=0x80001e1c
       49885000	      4987	00000000	00000013	addi	x0,x0,0	  x0:0x00000000
       49895000	      4988	80001e40	00000013	addi	x0,x0,0	  x0:0x00000000
       49905000	      4989	80001e44	fa1ff0ef	jal	x1,80001e44	  x1=0x80001e44
       49915000	      4990	00000000	00000013	addi	x0,x0,0	  x0:0x00000000
       49925000	      4991	80001de0	00000013	addi	x0,x0,0	  x0:0x00000000
       49935000	      4992	80001de4	ffdff0ef	jal	x1,80001de4	  x1=0x80001de4
       49945000	      4993	00000000	00000013	addi	x0,x0,0	  x0:0x00000000
       49955000	      4994	80001ddc	00000013	addi	x0,x0,0	  x0:0x00000000
       49965000	      4995	80001de0	0580016f	jal	x2,80001de0	  x2=0x80001de0
       49975000	      4996	00000000	00000013	addi	x0,x0,0	  x0:0x00000000
       49985000	      4997	80001e34	00000013	addi	x0,x0,0	  x0:0x00000000
       49995000	      4998	80001e38	008000ef	jal	x1,80001e38	  x1=0x80001e38
       50005000	      4999	00000000	00000013	addi	x0,x0,0	  x0:0x00000000
       50015000	      5000	80001e3c	00000013	addi	x0,x0,0	  x0:0x00000000
       50025000	      5001	80001e40	ffdff9ef	jal	x19,80001e40	 x19=0x80001e40
       50035000	      5002	00000000	00000013	addi	x0,x0,0	  x0:0x00000000
       50045000	      5003	80001e38	00000013	addi	x0,x0,0	  x0:0x00000000
       50055000	      5004	80001e3c	00c00c6f	jal	x24,80001e3c	 x24=0x80001e3c
       50065000	      5005	00000000	00000013	addi	x0,x0,0	  x0:0x00000000
       50075000	      5006	80001e44	00000013	addi	x0,x0,0	  x0:0x00000000
       50085000	      5007	80001e48	fbdffbef	jal	x23,80001e48	 x23=0x80001e48
       50095000	      5008	00000000	00000013	addi	x0,x0,0	  x0:0x00000000
       50105000	      5009	80001e00	00000013	addi	x0,x0,0	  x0:0x00000000
       50115000	      5010	80001e04	0300036f	jal	x6,80001e04	  x6=0x80001e04
       50125000	      5011	00000000	00000013	addi	x0,x0,0	  x0:0x00000000
       50135000	      5012	80001e30	00000013	addi	x0,x0,0	  x0:0x00000000
       50145000	      5013	80001e34	fc5ff0ef	jal	x1,80001e34	  x1=0x80001e34
       50155000	      5014	00000000	00000013	addi	x0,x0,0	  x0:0x00000000
       50165000	      5015	80001df4	00000013	addi	x0,x0,0	  x0:0x00000000
       50175000	      5016	80001df8	018000ef	jal	x1,80001df8	  x1=0x80001df8
       50185000	      5017	00000000	00000013	addi	x0,x0,0	  x0:0x00000000
       50195000	      5018	80001e0c	00000013	addi	x0,x0,0	  x0:0x00000000
       50205000	      5019	80001e10	ff1ff36f	jal	x6,80001e10	  x6=0x80001e10
       50215000	      5020	00000000	00000013	addi	x0,x0,0	  x0:0x00000000
       50225000	      5021	80001dfc	00000013	addi	x0,x0,0	  x0:0x00000000
       50235000	      5022	80001e00	fe9ff0ef	jal	x1,80001e00	  x1=0x80001e00
       50245000	      5023	00000000	00000013	addi	x0,x0,0	  x0:0x00000000
       50255000	      5024	80001de4	00000013	addi	x0,x0,0	  x0:0x00000000
       50265000	      5025	80001de8	0200036f	jal	x6,80001de8	  x6=0x80001de8
       50275000	      5026	00000000	00000013	addi	x0,x0,0	  x0:0x00000000
       50285000	      5027	80001e04	00000013	addi	x0,x0,0	  x0:0x00000000
       50295000	      5028	80001e08	0200036f	jal	x6,80001e08	  x6=0x80001e08
       50305000	      5029	00000000	00000013	addi	x0,x0,0	  x0:0x00000000
       50315000	      5030	80001e24	00000013	addi	x0,x0,0	  x0:0x00000000
       50325000	      5031	80001e28	fb5ff0ef	jal	x1,80001e28	  x1=0x80001e28
       50335000	      5032	00000000	00000013	addi	x0,x0,0	  x0:0x00000000
       50345000	      5033	80001dd8	00000013	addi	x0,x0,0	  x0:0x00000000
       50355000	      5034	80001ddc	044000ef	jal	x1,80001ddc	  x1=0x80001ddc
       50365000	      5035	00000000	00000013	addi	x0,x0,0	  x0:0x00000000
       50375000	      5036	80001e1c	00000013	addi	x0,x0,0	  x0:0x00000000
       50385000	      5037	80001e20	fd1ff1ef	jal	x3,80001e20	  x3=0x80001e20
       50395000	      5038	00000000	00000013	addi	x0,x0,0	  x0:0x00000000
       50405000	      5039	80001dec	00000013	addi	x0,x0,0	  x0:0x00000000
       50415000	      5040	80001df0	01c00b6f	jal	x22,80001df0	 x22=0x80001df0
       50425000	      5041	00000000	00000013	addi	x0,x0,0	  x0:0x00000000
       50435000	      5042	80001e08	00000013	addi	x0,x0,0	  x0:0x00000000
       50445000	      5043	80001e0c	00c000ef	jal	x1,80001e0c	  x1=0x80001e0c
       50455000	      5044	00000000	00000013	addi	x0,x0,0	  x0:0x00000000
       50465000	      5045	80001e14	00000013	addi	x0,x0,0	  x0:0x00000000
       50475000	      5046	80001e18	038000ef	jal	x1,80001e18	  x1=0x80001e18
       50485000	      5047	00000000	00000013	addi	x0,x0,0	  x0:0x00000000
       50495000	      5048	80001e4c	00000013	addi	x0,x0,0	  x0:0x00000000
       50505000	      5049	80001e50	41e75913	srai	x18,x14,0x1e	 x14:0xaaee7000 x18=0xfffffffe
       50515000	      5050	80001e54	00c0016f	jal	x2,80001e54	  x2=0x80001e54
       50525000	      5051	00000000	00000013	addi	x0,x0,0	  x0:0x00000000
       50535000	      5052	80001e5c	00000013	addi	x0,x0,0	  x0:0x00000000
       50545000	      5053	80001e60	ff9ff0ef	jal	x1,80001e60	  x1=0x80001e60
       50555000	      5054	00000000	00000013	addi	x0,x0,0	  x0:0x00000000
       50565000	      5055	80001e54	00000013	addi	x0,x0,0	  x0:0x00000000
       50575000	      5056	80001e58	0340056f	jal	x10,80001e58	 x10=0x80001e58
       50585000	      5057	00000000	00000013	addi	x0,x0,0	  x0:0x00000000
       50595000	      5058	80001e88	00000013	addi	x0,x0,0	  x0:0x00000000
       50605000	      5059	80001e8c	fedff0ef	jal	x1,80001e8c	  x1=0x80001e8c
       50615000	      5060	00000000	00000013	addi	x0,x0,0	  x0:0x00000000
       50625000	      5061	80001e74	00000013	addi	x0,x0,0	  x0:0x00000000
       50635000	      5062	80001e78	fedff0ef	jal	x1,80001e78	  x1=0x80001e78
       50645000	      5063	00000000	00000013	addi	x0,x0,0	  x0:0x00000000
       50655000	      5064	80001e60	00000013	addi	x0,x0,0	  x0:0x00000000
       50665000	      5065	80001e64	020000ef	jal	x1,80001e64	  x1=0x80001e64
       50675000	      5066	00000000	00000013	addi	x0,x0,0	  x0:0x00000000
       50685000	      5067	80001e80	00000013	addi	x0,x0,0	  x0:0x00000000
       50695000	      5068	80001e84	fe9ff0ef	jal	x1,80001e84	  x1=0x80001e84
       50705000	      5069	00000000	00000013	addi	x0,x0,0	  x0:0x00000000
       50715000	      5070	80001e68	00000013	addi	x0,x0,0	  x0:0x00000000
       50725000	      5071	80001e6c	0100036f	jal	x6,80001e6c	  x6=0x80001e6c
       50735000	      5072	00000000	00000013	addi	x0,x0,0	  x0:0x00000000
       50745000	      5073	80001e78	00000013	addi	x0,x0,0	  x0:0x00000000
       50755000	      5074	80001e7c	00400f6f	jal	x30,80001e7c	 x30=0x80001e7c
       50765000	      5075	00000000	00000013	addi	x0,x0,0	  x0:0x00000000
       50775000	      5076	80001e7c	00000013	addi	x0,x0,0	  x0:0x00000000
       50785000	      5077	80001e80	01000def	jal	x27,80001e80	 x27=0x80001e80
       50795000	      5078	00000000	00000013	addi	x0,x0,0	  x0:0x00000000
       50805000	      5079	80001e8c	00000013	addi	x0,x0,0	  x0:0x00000000
       50815000	      5080	80001e90	ff9ff0ef	jal	x1,80001e90	  x1=0x80001e90
       50825000	      5081	00000000	00000013	addi	x0,x0,0	  x0:0x00000000
       50835000	      5082	80001e84	00000013	addi	x0,x0,0	  x0:0x00000000
       50845000	      5083	80001e88	00c0066f	jal	x12,80001e88	 x12=0x80001e88
       50855000	      5084	00000000	00000013	addi	x0,x0,0	  x0:0x00000000
       50865000	      5085	80001e90	00000013	addi	x0,x0,0	  x0:0x00000000
       50875000	      5086	80001e94	004000ef	jal	x1,80001e94	  x1=0x80001e94
       50885000	      5087	00000000	00000013	addi	x0,x0,0	  x0:0x00000000
       50895000	      5088	80001e94	00000013	addi	x0,x0,0	  x0:0x00000000
       50905000	      5089	80001e98	fddff36f	jal	x6,80001e98	  x6=0x80001e98
       50915000	      5090	00000000	00000013	addi	x0,x0,0	  x0:0x00000000
       50925000	      5091	80001e70	00000013	addi	x0,x0,0	  x0:0x00000000
       50935000	      5092	80001e74	ff5ff0ef	jal	x1,80001e74	  x1=0x80001e74
       50945000	      5093	00000000	00000013	addi	x0,x0,0	  x0:0x00000000
       50955000	      5094	80001e64	00000013	addi	x0,x0,0	  x0:0x00000000
       50965000	      5095	80001e68	034000ef	jal	x1,80001e68	  x1=0x80001e68
       50975000	      5096	00000000	00000013	addi	x0,x0,0	  x0:0x00000000
       50985000	      5097	80001e98	00000013	addi	x0,x0,0	  x0:0x00000000
       50995000	      5098	80001e9c	fd5ff0ef	jal	x1,80001e9c	  x1=0x80001e9c
       51005000	      5099	00000000	00000013	addi	x0,x0,0	  x0:0x00000000
       51015000	      5100	80001e6c	00000013	addi	x0,x0,0	  x0:0x00000000
       51025000	      5101	80001e70	0300036f	jal	x6,80001e70	  x6=0x80001e70
       51035000	      5102	00000000	00000013	addi	x0,x0,0	  x0:0x00000000
       51045000	      5103	80001e9c	00000013	addi	x0,x0,0	  x0:0x00000000
       51055000	      5104	80001ea0	fbdff46f	jal	x8,80001ea0	  x8=0x80001ea0
       51065000	      5105	00000000	00000013	addi	x0,x0,0	  x0:0x00000000
       51075000	      5106	80001e58	00000013	addi	x0,x0,0	  x0:0x00000000
       51085000	      5107	80001e5c	04800bef	jal	x23,80001e5c	 x23=0x80001e5c
       51095000	      5108	00000000	00000013	addi	x0,x0,0	  x0:0x00000000
       51105000	      5109	80001ea0	00000013	addi	x0,x0,0	  x0:0x00000000
       51115000	      5110	80001ea4	0137e0b3	or	x1,x15,x19	 x15:0x80003164 x19:0x80001e40  x1=0x80003f64
       51125000	      5111	80001ea8	0040016f	jal	x2,80001ea8	  x2=0x80001ea8
       51135000	      5112	00000000	00000013	addi	x0,x0,0	  x0:0x00000000
       51145000	      5113	80001ea8	00000013	addi	x0,x0,0	  x0:0x00000000
       51155000	      5114	80001eac	0440096f	jal	x18,80001eac	 x18=0x80001eac
       51165000	      5115	00000000	00000013	addi	x0,x0,0	  x0:0x00000000
       51175000	      5116	80001eec	00000013	addi	x0,x0,0	  x0:0x00000000
       51185000	      5117	80001ef0	010000ef	jal	x1,80001ef0	  x1=0x80001ef0
       51195000	      5118	00000000	00000013	addi	x0,x0,0	  x0:0x00000000
       51205000	      5119	80001efc	00000013	addi	x0,x0,0	  x0:0x00000000
       51215000	      5120	80001f00	010000ef	jal	x1,80001f00	  x1=0x80001f00
       51225000	      5121	00000000	00000013	addi	x0,x0,0	  x0:0x00000000
       51235000	      5122	80001f0c	00000013	addi	x0,x0,0	  x0:0x00000000
       51245000	      5123	80001f10	fa1ff0ef	jal	x1,80001f10	  x1=0x80001f10
       51255000	      5124	00000000	00000013	addi	x0,x0,0	  x0:0x00000000
       51265000	      5125	80001eac	00000013	addi	x0,x0,0	  x0:0x00000000
       51275000	      5126	80001eb0	018009ef	jal	x19,80001eb0	 x19=0x80001eb0
       51285000	      5127	00000000	00000013	addi	x0,x0,0	  x0:0x00000000
       51295000	      5128	80001ec4	00000013	addi	x0,x0,0	  x0:0x00000000
       51305000	      5129	80001ec8	014007ef	jal	x15,80001ec8	 x15=0x80001ec8
       51315000	      5130	00000000	00000013	addi	x0,x0,0	  x0:0x00000000
       51325000	      5131	80001ed8	00000013	addi	x0,x0,0	  x0:0x00000000
       51335000	      5132	80001edc	004000ef	jal	x1,80001edc	  x1=0x80001edc
       51345000	      5133	00000000	00000013	addi	x0,x0,0	  x0:0x00000000
       51355000	      5134	80001edc	00000013	addi	x0,x0,0	  x0:0x00000000
       51365000	      5135	80001ee0	0140016f	jal	x2,80001ee0	  x2=0x80001ee0
       51375000	      5136	00000000	00000013	addi	x0,x0,0	  x0:0x00000000
       51385000	      5137	80001ef0	00000013	addi	x0,x0,0	  x0:0x00000000
       51395000	      5138	80001ef4	fe5ff0ef	jal	x1,80001ef4	  x1=0x80001ef4
       51405000	      5139	00000000	00000013	addi	x0,x0,0	  x0:0x00000000
       51415000	      5140	80001ed4	00000013	addi	x0,x0,0	  x0:0x00000000
       51425000	      5141	80001ed8	0140036f	jal	x6,80001ed8	  x6=0x80001ed8
       51435000	      5142	00000000	00000013	addi	x0,x0,0	  x0:0x00000000
       51445000	      5143	80001ee8	00000013	addi	x0,x0,0	  x0:0x00000000
       51455000	      5144	80001eec	fd9ff0ef	jal	x1,80001eec	  x1=0x80001eec
       51465000	      5145	00000000	00000013	addi	x0,x0,0	  x0:0x00000000
       51475000	      5146	80001ec0	00000013	addi	x0,x0,0	  x0:0x00000000
       51485000	      5147	80001ec4	034006ef	jal	x13,80001ec4	 x13=0x80001ec4
       51495000	      5148	00000000	00000013	addi	x0,x0,0	  x0:0x00000000
       51505000	      5149	80001ef4	00000013	addi	x0,x0,0	  x0:0x00000000
       51515000	      5150	80001ef8	fd9ff0ef	jal	x1,80001ef8	  x1=0x80001ef8
       51525000	      5151	00000000	00000013	addi	x0,x0,0	  x0:0x00000000
       51535000	      5152	80001ecc	00000013	addi	x0,x0,0	  x0:0x00000000
       51545000	      5153	80001ed0	fe9ff36f	jal	x6,80001ed0	  x6=0x80001ed0
       51555000	      5154	00000000	00000013	addi	x0,x0,0	  x0:0x00000000
       51565000	      5155	80001eb4	00000013	addi	x0,x0,0	  x0:0x00000000
       51575000	      5156	80001eb8	0140036f	jal	x6,80001eb8	  x6=0x80001eb8
       51585000	      5157	00000000	00000013	addi	x0,x0,0	  x0:0x00000000
       51595000	      5158	80001ec8	00000013	addi	x0,x0,0	  x0:0x00000000
       51605000	      5159	80001ecc	040000ef	jal	x1,80001ecc	  x1=0x80001ecc
       51615000	      5160	00000000	00000013	addi	x0,x0,0	  x0:0x00000000
       51625000	      5161	80001f08	00000013	addi	x0,x0,0	  x0:0x00000000
       51635000	      5162	80001f0c	ff9ff76f	jal	x14,80001f0c	 x14=0x80001f0c
       51645000	      5163	00000000	00000013	addi	x0,x0,0	  x0:0x00000000
       51655000	      5164	80001f00	00000013	addi	x0,x0,0	  x0:0x00000000
       51665000	      5165	80001f04	004009ef	jal	x19,80001f04	 x19=0x80001f04
       51675000	      5166	00000000	00000013	addi	x0,x0,0	  x0:0x00000000
       51685000	      5167	80001f04	00000013	addi	x0,x0,0	  x0:0x00000000
       51695000	      5168	80001f08	ff5ff0ef	jal	x1,80001f08	  x1=0x80001f08
       51705000	      5169	00000000	00000013	addi	x0,x0,0	  x0:0x00000000
       51715000	      5170	80001ef8	00000013	addi	x0,x0,0	  x0:0x00000000
       51725000	      5171	80001efc	fd9ff16f	jal	x2,80001efc	  x2=0x80001efc
       51735000	      5172	00000000	00000013	addi	x0,x0,0	  x0:0x00000000
       51745000	      5173	80001ed0	00000013	addi	x0,x0,0	  x0:0x00000000
       51755000	      5174	80001ed4	fedff0ef	jal	x1,80001ed4	  x1=0x80001ed4
       51765000	      5175	00000000	00000013	addi	x0,x0,0	  x0:0x00000000
       51775000	      5176	80001ebc	00000013	addi	x0,x0,0	  x0:0x00000000
       51785000	      5177	80001ec0	0280016f	jal	x2,80001ec0	  x2=0x80001ec0
       51795000	      5178	00000000	00000013	addi	x0,x0,0	  x0:0x00000000
       51805000	      5179	80001ee4	00000013	addi	x0,x0,0	  x0:0x00000000
       51815000	      5180	80001ee8	fd5ff0ef	jal	x1,80001ee8	  x1=0x80001ee8
       51825000	      5181	00000000	00000013	addi	x0,x0,0	  x0:0x00000000
       51835000	      5182	80001eb8	00000013	addi	x0,x0,0	  x0:0x00000000
       51845000	      5183	80001ebc	ff9ff0ef	jal	x1,80001ebc	  x1=0x80001ebc
       51855000	      5184	00000000	00000013	addi	x0,x0,0	  x0:0x00000000
       51865000	      5185	80001eb0	00000013	addi	x0,x0,0	  x0:0x00000000
       51875000	      5186	80001eb4	030000ef	jal	x1,80001eb4	  x1=0x80001eb4
       51885000	      5187	00000000	00000013	addi	x0,x0,0	  x0:0x00000000
       51895000	      5188	80001ee0	00000013	addi	x0,x0,0	  x0:0x00000000
       51905000	      5189	80001ee4	03000b6f	jal	x22,80001ee4	 x22=0x80001ee4
       51915000	      5190	00000000	00000013	addi	x0,x0,0	  x0:0x00000000
       51925000	      5191	80001f10	00000013	addi	x0,x0,0	  x0:0x00000000
       51935000	      5192	80001f14	05efff93	andi	x31,x31,94	 x31:0x5f8624c8 x31=0x00000048
       51945000	      5193	80001f18	0500016f	jal	x2,80001f18	  x2=0x80001f18
       51955000	      5194	00000000	00000013	addi	x0,x0,0	  x0:0x00000000
       51965000	      5195	80001f64	00000013	addi	x0,x0,0	  x0:0x00000000
       51975000	      5196	80001f68	01c000ef	jal	x1,80001f68	  x1=0x80001f68
       51985000	      5197	00000000	00000013	addi	x0,x0,0	  x0:0x00000000
       51995000	      5198	80001f80	00000013	addi	x0,x0,0	  x0:0x00000000
       52005000	      5199	80001f84	fd5ff0ef	jal	x1,80001f84	  x1=0x80001f84
       52015000	      5200	00000000	00000013	addi	x0,x0,0	  x0:0x00000000
       52025000	      5201	80001f54	00000013	addi	x0,x0,0	  x0:0x00000000
       52035000	      5202	80001f58	fd5ff36f	jal	x6,80001f58	  x6=0x80001f58
       52045000	      5203	00000000	00000013	addi	x0,x0,0	  x0:0x00000000
       52055000	      5204	80001f28	00000013	addi	x0,x0,0	  x0:0x00000000
       52065000	      5205	80001f2c	00c0036f	jal	x6,80001f2c	  x6=0x80001f2c
       52075000	      5206	00000000	00000013	addi	x0,x0,0	  x0:0x00000000
       52085000	      5207	80001f34	00000013	addi	x0,x0,0	  x0:0x00000000
       52095000	      5208	80001f38	ffdff16f	jal	x2,80001f38	  x2=0x80001f38
       52105000	      5209	00000000	00000013	addi	x0,x0,0	  x0:0x00000000
       52115000	      5210	80001f30	00000013	addi	x0,x0,0	  x0:0x00000000
       52125000	      5211	80001f34	ff1ffc6f	jal	x24,80001f34	 x24=0x80001f34
       52135000	      5212	00000000	00000013	addi	x0,x0,0	  x0:0x00000000
       52145000	      5213	80001f20	00000013	addi	x0,x0,0	  x0:0x00000000
       52155000	      5214	80001f24	0500036f	jal	x6,80001f24	  x6=0x80001f24
       52165000	      5215	00000000	00000013	addi	x0,x0,0	  x0:0x00000000
       52175000	      5216	80001f70	00000013	addi	x0,x0,0	  x0:0x00000000
       52185000	      5217	80001f74	fcdff0ef	jal	x1,80001f74	  x1=0x80001f74
       52195000	      5218	00000000	00000013	addi	x0,x0,0	  x0:0x00000000
       52205000	      5219	80001f3c	00000013	addi	x0,x0,0	  x0:0x00000000
       52215000	      5220	80001f40	030000ef	jal	x1,80001f40	  x1=0x80001f40
       52225000	      5221	00000000	00000013	addi	x0,x0,0	  x0:0x00000000
       52235000	      5222	80001f6c	00000013	addi	x0,x0,0	  x0:0x00000000
       52245000	      5223	80001f70	fd5ff0ef	jal	x1,80001f70	  x1=0x80001f70
       52255000	      5224	00000000	00000013	addi	x0,x0,0	  x0:0x00000000
       52265000	      5225	80001f40	00000013	addi	x0,x0,0	  x0:0x00000000
       52275000	      5226	80001f44	010000ef	jal	x1,80001f44	  x1=0x80001f44
       52285000	      5227	00000000	00000013	addi	x0,x0,0	  x0:0x00000000
       52295000	      5228	80001f50	00000013	addi	x0,x0,0	  x0:0x00000000
       52305000	      5229	80001f54	fcdff36f	jal	x6,80001f54	  x6=0x80001f54
       52315000	      5230	00000000	00000013	addi	x0,x0,0	  x0:0x00000000
       52325000	      5231	80001f1c	00000013	addi	x0,x0,0	  x0:0x00000000
       52335000	      5232	80001f20	01c000ef	jal	x1,80001f20	  x1=0x80001f20
       52345000	      5233	00000000	00000013	addi	x0,x0,0	  x0:0x00000000
       52355000	      5234	80001f38	00000013	addi	x0,x0,0	  x0:0x00000000
       52365000	      5235	80001f3c	040000ef	jal	x1,80001f3c	  x1=0x80001f3c
       52375000	      5236	00000000	00000013	addi	x0,x0,0	  x0:0x00000000
       52385000	      5237	80001f78	00000013	addi	x0,x0,0	  x0:0x00000000
       52395000	      5238	80001f7c	fe5ff16f	jal	x2,80001f7c	  x2=0x80001f7c
       52405000	      5239	00000000	00000013	addi	x0,x0,0	  x0:0x00000000
       52415000	      5240	80001f5c	00000013	addi	x0,x0,0	  x0:0x00000000
       52425000	      5241	80001f60	fc9ff0ef	jal	x1,80001f60	  x1=0x80001f60
       52435000	      5242	00000000	00000013	addi	x0,x0,0	  x0:0x00000000
       52445000	      5243	80001f24	00000013	addi	x0,x0,0	  x0:0x00000000
       52455000	      5244	80001f28	0580026f	jal	x4,80001f28	  x4=0x80001f28
       52465000	      5245	00000000	00000013	addi	x0,x0,0	  x0:0x00000000
       52475000	      5246	80001f7c	00000013	addi	x0,x0,0	  x0:0x00000000
       52485000	      5247	80001f80	ff9ff0ef	jal	x1,80001f80	  x1=0x80001f80
       52495000	      5248	00000000	00000013	addi	x0,x0,0	  x0:0x00000000
       52505000	      5249	80001f74	00000013	addi	x0,x0,0	  x0:0x00000000
       52515000	      5250	80001f78	fd1ff46f	jal	x8,80001f78	  x8=0x80001f78
       52525000	      5251	00000000	00000013	addi	x0,x0,0	  x0:0x00000000
       52535000	      5252	80001f44	00000013	addi	x0,x0,0	  x0:0x00000000
       52545000	      5253	80001f48	0240026f	jal	x4,80001f48	  x4=0x80001f48
       52555000	      5254	00000000	00000013	addi	x0,x0,0	  x0:0x00000000
       52565000	      5255	80001f68	00000013	addi	x0,x0,0	  x0:0x00000000
       52575000	      5256	80001f6c	01c0036f	jal	x6,80001f6c	  x6=0x80001f6c
       52585000	      5257	00000000	00000013	addi	x0,x0,0	  x0:0x00000000
       52595000	      5258	80001f84	00000013	addi	x0,x0,0	  x0:0x00000000
       52605000	      5259	80001f88	fd5ff0ef	jal	x1,80001f88	  x1=0x80001f88
       52615000	      5260	00000000	00000013	addi	x0,x0,0	  x0:0x00000000
       52625000	      5261	80001f58	00000013	addi	x0,x0,0	  x0:0x00000000
       52635000	      5262	80001f5c	ff1ff9ef	jal	x19,80001f5c	 x19=0x80001f5c
       52645000	      5263	00000000	00000013	addi	x0,x0,0	  x0:0x00000000
       52655000	      5264	80001f48	00000013	addi	x0,x0,0	  x0:0x00000000
       52665000	      5265	80001f4c	018000ef	jal	x1,80001f4c	  x1=0x80001f4c
       52675000	      5266	00000000	00000013	addi	x0,x0,0	  x0:0x00000000
       52685000	      5267	80001f60	00000013	addi	x0,x0,0	  x0:0x00000000
       52695000	      5268	80001f64	fedff36f	jal	x6,80001f64	  x6=0x80001f64
       52705000	      5269	00000000	00000013	addi	x0,x0,0	  x0:0x00000000
       52715000	      5270	80001f4c	00000013	addi	x0,x0,0	  x0:0x00000000
       52725000	      5271	80001f50	fe1ff0ef	jal	x1,80001f50	  x1=0x80001f50
       52735000	      5272	00000000	00000013	addi	x0,x0,0	  x0:0x00000000
       52745000	      5273	80001f2c	00000013	addi	x0,x0,0	  x0:0x00000000
       52755000	      5274	80001f30	fedff0ef	jal	x1,80001f30	  x1=0x80001f30
       52765000	      5275	00000000	00000013	addi	x0,x0,0	  x0:0x00000000
       52775000	      5276	80001f18	00000013	addi	x0,x0,0	  x0:0x00000000
       52785000	      5277	80001f1c	07000a6f	jal	x20,80001f1c	 x20=0x80001f1c
       52795000	      5278	00000000	00000013	addi	x0,x0,0	  x0:0x00000000
       52805000	      5279	80001f88	00000013	addi	x0,x0,0	  x0:0x00000000
       52815000	      5280	80001f8c	01f49193	slli	x3,x9,0x1f	  x9:0x80001dac  x3=0x00000000
       52825000	      5281	80001f90	99d8a993	slti	x19,x17,-1635	 x17:0x00000001 x19=0x00000000
       52835000	      5282	80001f94	00811493	slli	x9,x2,0x8	  x2:0x80001f7c  x9=0x001f7c00
       52845000	      5283	80001f98	015cb233	sltu	x4,x25,x21	 x25:0x00000400 x21:0x80001f49  x4=0x00000001
       52855000	      5284	80001f9c	573fb493	sltiu	x9,x31,1395	 x31:0x00000048  x9=0x00000001
       52865000	      5285	80001fa0	01297233	and	x4,x18,x18	 x18:0x80001eac x18:0x80001eac  x4=0x80001eac
       52875000	      5286	80001fa4	0103bb33	sltu	x22,x7,x16	  x7:0xf801a2d8 x16:0x00000001 x22=0x00000000
       52885000	      5287	80001fa8	41f05ab3	sra	x21,x0,x31	  x0:0x00000000 x31:0x00000048 x21=0x00000000
       52895000	      5288	80001fac	a6fcc793	xori	x15,x25,-1425	 x25:0x00000400 x15=0xfffffe6f
       52905000	      5289	80001fb0	18777c93	andi	x25,x14,391	 x14:0x80001f0c x25=0x00000104
       52915000	      5290	80001fb4	01c3dbb3	srl	x23,x7,x28	  x7:0xf801a2d8 x28:0x00000000 x23=0xf801a2d8
       52925000	      5291	80001fb8	63cacb93	xori	x23,x21,1596	 x21:0x00000000 x23=0x0000063c
       52935000	      5292	80001fbc	00630eb3	add	x29,x6,x6	  x6:0x80001f64  x6:0x80001f64 x29=0x00003ec8
       52945000	      5293	80001fc0	04664263	blt	x12,x6,80002004	 x12:0x80001e88  x6:0x80001f64
       52955000	      5294	00000000	00000013	addi	x0,x0,0	  x0:0x00000000
       52965000	      5295	80002000	00000013	addi	x0,x0,0	  x0:0x00000000
       52975000	      5296	80002004	007e0533	add	x10,x28,x7	 x28:0x00000000  x7:0xf801a2d8 x10=0xf801a2d8
       52985000	      5297	80002008	03265463	bge	x12,x18,80002030	 x12:0x80001e88 x18:0x80001eac
       52995000	      5298	8000200c	01885393	srli	x7,x16,0x18	 x16:0x00000001  x7=0x00000000
       53005000	      5299	80002010	01c5db13	srli	x22,x11,0x1c	 x11:0x80009ed4 x22=0x00000008
       53015000	      5300	80002014	57127393	andi	x7,x4,1393	  x4:0x80001eac  x7=0x00000420
       53025000	      5301	80002018	b691cd13	xori	x26,x3,-1175	  x3:0x00000000 x26=0xfffffb69
       53035000	      5302	8000201c	013411b3	sll	x3,x8,x19	  x8:0x80001f78 x19:0x00000000  x3=0x80001f78
       53045000	      5303	80002020	0052bbb3	sltu	x23,x5,x5	  x5:0x80009fc4  x5:0x80009fc4 x23=0x00000000
       53055000	      5304	80002024	018868b3	or	x17,x16,x24	 x16:0x00000001 x24:0x80001f34 x17=0x80001f35
       53065000	      5305	80002028	001c0663	beq	x24,x1,80002034	 x24:0x80001f34  x1:0x80001f30
       53075000	      5306	8000202c	40578cb3	sub	x25,x15,x5	 x15:0xfffffe6f  x5:0x80009fc4 x25=0x7fff5eab
       53085000	      5307	80002030	6af33793	sltiu	x15,x6,1711	  x6:0x80001f64 x15=0x00000000
       53095000	      5308	80002034	01016b33	or	x22,x2,x16	  x2:0x80001f7c x16:0x00000001 x22=0x80001f7d
       53105000	      5309	80002038	00941e63	bne	x8,x9,80002054	  x8:0x80001f78  x9:0x00000001
       53115000	      5310	00000000	00000013	addi	x0,x0,0	  x0:0x00000000
       53125000	      5311	80002050	00000013	addi	x0,x0,0	  x0:0x00000000
       53135000	      5312	80002054	00e75493	srli	x9,x14,0xe	 x14:0x80001f0c  x9=0x00020000
       53145000	      5313	80002058	00000013	addi	x0,x0,0	  x0:0x00000000
       53155000	      5314	8000205c	01c74463	blt	x14,x28,80002064	 x14:0x80001f0c x28:0x00000000
       53165000	      5315	00000000	00000013	addi	x0,x0,0	  x0:0x00000000
       53175000	      5316	80002060	00000013	addi	x0,x0,0	  x0:0x00000000
       53185000	      5317	80002064	01441c63	bne	x8,x20,8000207c	  x8:0x80001f78 x20:0x80001f1c
       53195000	      5318	00000000	00000013	addi	x0,x0,0	  x0:0x00000000
       53205000	      5319	80002078	00000013	addi	x0,x0,0	  x0:0x00000000
       53215000	      5320	8000207c	01097cb3	and	x25,x18,x16	 x18:0x80001eac x16:0x00000001 x25=0x00000000
       53225000	      5321	80002080	df5e7193	andi	x3,x28,-523	 x28:0x00000000  x3=0x00000000
       53235000	      5322	80002084	da99ee93	ori	x29,x19,-599	 x19:0x00000000 x29=0xfffffda9
       53245000	      5323	80002088	00215093	srli	x1,x2,0x2	  x2:0x80001f7c  x1=0x200007df
       53255000	      5324	8000208c	35697097	auipc	x1,0x35697	  x1=0xb5699088
       53265000	      5325	80002090	0d97c193	xori	x3,x15,217	 x15:0x00000000  x3=0x000000d9
       53275000	      5326	80002094	003a2233	slt	x4,x20,x3	 x20:0x80001f1c  x3:0x000000d9  x4=0x00000001
       53285000	      5327	80002098	0084b4b3	sltu	x9,x9,x8	  x9:0x00020000  x8:0x80001f78  x9=0x00000001
       53295000	      5328	8000209c	0086ee63	bltu	x13,x8,800020b8	 x13:0x80001ec4  x8:0x80001f78
       53305000	      5329	00000000	00000013	addi	x0,x0,0	  x0:0x00000000
       53315000	      5330	800020b4	00000013	addi	x0,x0,0	  x0:0x00000000
       53325000	      5331	800020b8	01c18b33	add	x22,x3,x28	  x3:0x000000d9 x28:0x00000000 x22=0x000000d9
       53335000	      5332	800020bc	0126d913	srli	x18,x13,0x12	 x13:0x80001ec4 x18=0x00002000
       53345000	      5333	800020c0	00000013	addi	x0,x0,0	  x0:0x00000000
       53355000	      5334	800020c4	f7737613	andi	x12,x6,-137	  x6:0x80001f64 x12=0x80001f64
       53365000	      5335	800020c8	41af01b3	sub	x3,x30,x26	 x30:0x80001e7c x26:0xfffffb69  x3=0x80002313
       53375000	      5336	800020cc	00e18733	add	x14,x3,x14	  x3:0x80002313 x14:0x80001f0c x14=0x0000421f
       53385000	      5337	800020d0	405051b3	sra	x3,x0,x5	  x0:0x00000000  x5:0x80009fc4  x3=0x00000000
       53395000	      5338	800020d4	00729fb3	sll	x31,x5,x7	  x5:0x80009fc4  x7:0x00000420 x31=0x80009fc4
       53405000	      5339	800020d8	3ea5a713	slti	x14,x11,1002	 x11:0x80009ed4 x14=0x00000001
       53415000	      5340	800020dc	40455533	sra	x10,x10,x4	 x10:0xf801a2d8  x4:0x00000001 x10=0xfc00d16c
       53425000	      5341	800020e0	010b9033	sll	x0,x23,x16	 x23:0x00000000 x16:0x00000001
       53435000	      5342	800020e4	3b584393	xori	x7,x16,949	 x16:0x00000001  x7=0x000003b4
       53445000	      5343	800020e8	9867f613	andi	x12,x15,-1658	 x15:0x00000000 x12=0x00000000
       53455000	      5344	800020ec	014394b3	sll	x9,x7,x20	  x7:0x000003b4 x20:0x80001f1c  x9=0x40000000
       53465000	      5345	800020f0	d94bc793	xori	x15,x23,-620	 x23:0x00000000 x15=0xfffffd94
       53475000	      5346	800020f4	0333da63	bge	x7,x19,80002128	  x7:0x000003b4 x19:0x00000000
       53485000	      5347	00000000	00000013	addi	x0,x0,0	  x0:0x00000000
       53495000	      5348	80002124	00000013	addi	x0,x0,0	  x0:0x00000000
       53505000	      5349	80002128	dca37493	andi	x9,x6,-566	  x6:0x80001f64  x9=0x80001d40
       53515000	      5350	8000212c	00000013	addi	x0,x0,0	  x0:0x00000000
       53525000	      5351	80002130	07c1d063	bge	x3,x28,80002190	  x3:0x00000000 x28:0x00000000
       53535000	      5352	00000000	00000013	addi	x0,x0,0	  x0:0x00000000
       53545000	      5353	8000218c	00000013	addi	x0,x0,0	  x0:0x00000000
       53555000	      5354	80002190	05f01663	bne	x0,x31,800021dc	  x0:0x00000000 x31:0x80009fc4
       53565000	      5355	00000000	00000013	addi	x0,x0,0	  x0:0x00000000
       53575000	      5356	800021d8	00000013	addi	x0,x0,0	  x0:0x00000000
       53585000	      5357	800021dc	7c934637	lui	x12,0x7c934	 x12=0x7c934000
       53595000	      5358	800021e0	003e03b3	add	x7,x28,x3	 x28:0x00000000  x3:0x00000000  x7=0x00000000
       53605000	      5359	800021e4	988a4613	xori	x12,x20,-1656	 x20:0x80001f1c x12=0x7fffe694
       53615000	      5360	800021e8	05045863	bge	x8,x16,80002238	  x8:0x80001f78 x16:0x00000001
       53625000	      5361	800021ec	039e8463	beq	x29,x25,80002214	 x29:0xfffffda9 x25:0x00000000
       53635000	      5362	800021f0	2bcec693	xori	x13,x29,700	 x29:0xfffffda9 x13=0xffffff15
       53645000	      5363	800021f4	a1c25437	lui	x8,0xa1c25	  x8=0xa1c25000
       53655000	      5364	800021f8	008d18b3	sll	x17,x26,x8	 x26:0xfffffb69  x8:0xa1c25000 x17=0xfffffb69
       53665000	      5365	800021fc	01710db3	add	x27,x2,x23	  x2:0x80001f7c x23:0x00000000 x27=0x80001f7c
       53675000	      5366	80002200	ecd23013	sltiu	x0,x4,-307	  x4:0x00000001
       53685000	      5367	80002204	014aed33	or	x26,x21,x20	 x21:0x00000000 x20:0x80001f1c x26=0x80001f1c
       53695000	      5368	80002208	01e71193	slli	x3,x14,0x1e	 x14:0x00000001  x3=0x40000000
       53705000	      5369	8000220c	0157b4b3	sltu	x9,x15,x21	 x15:0xfffffd94 x21:0x00000000  x9=0x00000000
       53715000	      5370	80002210	01b239b3	sltu	x19,x4,x27	  x4:0x00000001 x27:0x80001f7c x19=0x00000001
       53725000	      5371	80002214	00000013	addi	x0,x0,0	  x0:0x00000000
       53735000	      5372	80002218	ba60c913	xori	x18,x1,-1114	  x1:0xb5699088 x18=0x4a966b2e
       53745000	      5373	8000221c	014aec63	bltu	x21,x20,80002234	 x21:0x00000000 x20:0x80001f1c
       53755000	      5374	00000000	00000013	addi	x0,x0,0	  x0:0x00000000
       53765000	      5375	80002230	00000013	addi	x0,x0,0	  x0:0x00000000
       53775000	      5376	80002234	01045c63	bge	x8,x16,8000224c	  x8:0xa1c25000 x16:0x00000001
       53785000	      5377	80002238	09d44913	xori	x18,x8,157	  x8:0xa1c25000 x18=0xa1c2509d
       53795000	      5378	8000223c	01c3b233	sltu	x4,x7,x28	  x7:0x00000000 x28:0x00000000  x4=0x00000000
       53805000	      5379	80002240	016be433	or	x8,x23,x22	 x23:0x00000000 x22:0x000000d9  x8=0x000000d9
       53815000	      5380	80002244	03c26a63	bltu	x4,x28,80002278	  x4:0x00000000 x28:0x00000000
       53825000	      5381	80002248	05fac263	blt	x21,x31,8000228c	 x21:0x00000000 x31:0x80009fc4
       53835000	      5382	8000224c	abdd1d37	lui	x26,0xabdd1	 x26=0xabdd1000
       53845000	      5383	80002250	014018b3	sll	x17,x0,x20	  x0:0x00000000 x20:0x80001f1c x17=0x00000000
       53855000	      5384	80002254	01b07c63	bgeu	x0,x27,8000226c	  x0:0x00000000 x27:0x80001f7c
       53865000	      5385	80002258	41b00f33	sub	x30,x0,x27	  x0:0x00000000 x27:0x80001f7c x30=0x7fffe084
       53875000	      5386	8000225c	01299db3	sll	x27,x19,x18	 x19:0x00000001 x18:0xa1c2509d x27=0x20000000
       53885000	      5387	80002260	00cb9693	slli	x13,x23,0xc	 x23:0x00000000 x13=0x00000000
       53895000	      5388	80002264	41fa80b3	sub	x1,x21,x31	 x21:0x00000000 x31:0x80009fc4  x1=0x7fff603c
       53905000	      5389	80002268	20eb8c93	addi	x25,x23,526	 x23:0x00000000 x25=0x0000020e
       53915000	      5390	8000226c	0db74263	blt	x14,x27,80002330	 x14:0x00000001 x27:0x20000000
       53925000	      5391	00000000	00000013	addi	x0,x0,0	  x0:0x00000000
       53935000	      5392	8000232c	00000013	addi	x0,x0,0	  x0:0x00000000
       53945000	      5393	80002330	018ad713	srli	x14,x21,0x18	 x21:0x00000000 x14=0x00000000
       53955000	      5394	80002334	003777b3	and	x15,x14,x3	 x14:0x00000000  x3:0x40000000 x15=0x00000000
       53965000	      5395	80002338	00afe533	or	x10,x31,x10	 x31:0x80009fc4 x10:0xfc00d16c x10=0xfc00dfec
       53975000	      5396	8000233c	71757093	andi	x1,x10,1815	 x10:0xfc00dfec  x1=0x00000704
       53985000	      5397	80002340	41e25633	sra	x12,x4,x30	  x4:0x00000000 x30:0x7fffe084 x12=0x00000000
       53995000	      5398	80002344	4121da93	srai	x21,x3,0x12	  x3:0x40000000 x21=0x00001000
       54005000	      5399	80002348	7e488d37	lui	x26,0x7e488	 x26=0x7e488000
       54015000	      5400	8000234c	f2ec6b13	ori	x22,x24,-210	 x24:0x80001f34 x22=0xffffff3e
       54025000	      5401	80002350	0000db13	srli	x22,x1,0x0	  x1:0x00000704 x22=0x00000704
       54035000	      5402	80002354	413ed0b3	sra	x1,x29,x19	 x29:0xfffffda9 x19:0x00000001  x1=0xfffffed4
       54045000	      5403	80002358	00346c63	bltu	x8,x3,80002370	  x8:0x000000d9  x3:0x40000000
       54055000	      5404	00000000	00000013	addi	x0,x0,0	  x0:0x00000000
       54065000	      5405	8000236c	00000013	addi	x0,x0,0	  x0:0x00000000
       54075000	      5406	80002370	0081c533	xor	x10,x3,x8	  x3:0x40000000  x8:0x000000d9 x10=0x400000d9
       54085000	      5407	80002374	05d30663	beq	x6,x29,800023c0	  x6:0x80001f64 x29:0xfffffda9
       54095000	      5408	80002378	005c6233	or	x4,x24,x5	 x24:0x80001f34  x5:0x80009fc4  x4=0x80009ff4
       54105000	      5409	8000237c	40e6d313	srai	x6,x13,0xe	 x13:0x00000000  x6=0x00000000
       54115000	      5410	80002380	01035a33	srl	x20,x6,x16	  x6:0x00000000 x16:0x00000001 x20=0x00000000
       54125000	      5411	80002384	006eceb3	xor	x29,x29,x6	 x29:0xfffffda9  x6:0x00000000 x29=0xfffffda9
       54135000	      5412	80002388	b81b3b13	sltiu	x22,x22,-1151	 x22:0x00000704 x22=0x00000001
       54145000	      5413	8000238c	5df60893	addi	x17,x12,1503	 x12:0x00000000 x17=0x000005df
       54155000	      5414	80002390	5b4aed93	ori	x27,x21,1460	 x21:0x00001000 x27=0x000015b4
       54165000	      5415	80002394	b43a2137	lui	x2,0xb43a2	  x2=0xb43a2000
       54175000	      5416	80002398	01c94e63	blt	x18,x28,800023b4	 x18:0xa1c2509d x28:0x00000000
       54185000	      5417	00000000	00000013	addi	x0,x0,0	  x0:0x00000000
       54195000	      5418	800023b0	00000013	addi	x0,x0,0	  x0:0x00000000
       54205000	      5419	800023b4	012a5c93	srli	x25,x20,0x12	 x20:0x00000000 x25=0x00000000
       54215000	      5420	800023b8	01005313	srli	x6,x0,0x10	  x0:0x00000000  x6=0x00000000
       54225000	      5421	800023bc	5a377713	andi	x14,x14,1443	 x14:0x00000000 x14=0x00000000
       54235000	      5422	800023c0	403e5113	srai	x2,x28,0x3	 x28:0x00000000  x2=0x00000000
       54245000	      5423	800023c4	40b55d93	srai	x27,x10,0xb	 x10:0x400000d9 x27=0x00080000
       54255000	      5424	800023c8	006fd493	srli	x9,x31,0x6	 x31:0x80009fc4  x9=0x0200027f
       54265000	      5425	800023cc	0030d3b3	srl	x7,x1,x3	  x1:0xfffffed4  x3:0x40000000  x7=0xfffffed4
       54275000	      5426	800023d0	03c15463	bge	x2,x28,800023f8	  x2:0x00000000 x28:0x00000000
       54285000	      5427	00000000	00000013	addi	x0,x0,0	  x0:0x00000000
       54295000	      5428	800023f4	00000013	addi	x0,x0,0	  x0:0x00000000
       54305000	      5429	800023f8	0061d7b3	srl	x15,x3,x6	  x3:0x40000000  x6:0x00000000 x15=0x40000000
       54315000	      5430	800023fc	020f4463	blt	x30,x0,80002424	 x30:0x7fffe084  x0:0x00000000
       54325000	      5431	80002400	01196f33	or	x30,x18,x17	 x18:0xa1c2509d x17:0x000005df x30=0xa1c255df
       54335000	      5432	80002404	19012413	slti	x8,x2,400	  x2:0x00000000  x8=0x00000001
       54345000	      5433	80002408	1813a793	slti	x15,x7,385	  x7:0xfffffed4 x15=0x00000001
       54355000	      5434	8000240c	93613913	sltiu	x18,x2,-1738	  x2:0x00000000 x18=0x00000001
       54365000	      5435	80002410	de3e2b17	auipc	x22,0xde3e2	 x22=0x5e3e440c
       54375000	      5436	80002414	00abc033	xor	x0,x23,x10	 x23:0x00000000 x10:0x400000d9
       54385000	      5437	80002418	1e414017	auipc	x0,0x1e414	
       54395000	      5438	8000241c	416b5bb3	sra	x23,x22,x22	 x22:0x5e3e440c x22:0x5e3e440c x23=0x0005e3e4
       54405000	      5439	80002420	af568613	addi	x12,x13,-1291	 x13:0x00000000 x12=0xfffffaf5
       54415000	      5440	80002424	95ae3393	sltiu	x7,x28,-1702	 x28:0x00000000  x7=0x00000001
       54425000	      5441	80002428	ab758613	addi	x12,x11,-1353	 x11:0x80009ed4 x12=0x8000998b
       54435000	      5442	8000242c	005fdb13	srli	x22,x31,0x5	 x31:0x80009fc4 x22=0x040004fe
       54445000	      5443	80002430	00e099b3	sll	x19,x1,x14	  x1:0xfffffed4 x14:0x00000000 x19=0xfffffed4
       54455000	      5444	80002434	408b8533	sub	x10,x23,x8	 x23:0x0005e3e4  x8:0x00000001 x10=0x0005e3e3
       54465000	      5445	80002438	05fcf863	bgeu	x25,x31,80002488	 x25:0x00000000 x31:0x80009fc4
       54475000	      5446	8000243c	3af83993	sltiu	x19,x16,943	 x16:0x00000001 x19=0x00000001
       54485000	      5447	80002440	003e5e63	bge	x28,x3,8000245c	 x28:0x00000000  x3:0x40000000
       54495000	      5448	80002444	02261663	bne	x12,x2,80002470	 x12:0x8000998b  x2:0x00000000
       54505000	      5449	00000000	00000013	addi	x0,x0,0	  x0:0x00000000
       54515000	      5450	8000246c	00000013	addi	x0,x0,0	  x0:0x00000000
       54525000	      5451	80002470	01cb54b3	srl	x9,x22,x28	 x22:0x040004fe x28:0x00000000  x9=0x040004fe
       54535000	      5452	80002474	349f8693	addi	x13,x31,841	 x31:0x80009fc4 x13=0x8000a30d
       54545000	      5453	80002478	016c9b13	slli	x22,x25,0x16	 x25:0x00000000 x22=0x00000000
       54555000	      5454	8000247c	006ef663	bgeu	x29,x6,80002488	 x29:0xfffffda9  x6:0x00000000
       54565000	      5455	00000000	00000013	addi	x0,x0,0	  x0:0x00000000
       54575000	      5456	80002484	00000013	addi	x0,x0,0	  x0:0x00000000
       54585000	      5457	80002488	0176c733	xor	x14,x13,x23	 x13:0x8000a30d x23:0x0005e3e4 x14=0x800540e9
       54595000	      5458	8000248c	75dcff93	andi	x31,x25,1885	 x25:0x00000000 x31=0x00000000
       54605000	      5459	80002490	01434db3	xor	x27,x6,x20	  x6:0x00000000 x20:0x00000000 x27=0x00000000
       54615000	      5460	80002494	1f166fb7	lui	x31,0x1f166	 x31=0x1f166000
       54625000	      5461	80002498	0463e263	bltu	x7,x6,800024dc	  x7:0x00000001  x6:0x00000000
       54635000	      5462	8000249c	06378693	addi	x13,x15,99	 x15:0x00000001 x13=0x00000064
       54645000	      5463	800024a0	01b15c93	srli	x25,x2,0x1b	  x2:0x00000000 x25=0x00000000
       54655000	      5464	800024a4	41565793	srai	x15,x12,0x15	 x12:0x8000998b x15=0xfffffc00
       54665000	      5465	800024a8	f9b36f13	ori	x30,x6,-101	  x6:0x00000000 x30=0xffffff9b
       54675000	      5466	800024ac	00df4fb3	xor	x31,x30,x13	 x30:0xffffff9b x13:0x00000064 x31=0xffffffff
       54685000	      5467	800024b0	761508b7	lui	x17,0x76150	 x17=0x76150000
       54695000	      5468	800024b4	7bfe6493	ori	x9,x28,1983	 x28:0x00000000  x9=0x000007bf
       54705000	      5469	800024b8	26dbfd93	andi	x27,x23,621	 x23:0x0005e3e4 x27=0x00000264
       54715000	      5470	800024bc	01ddf463	bgeu	x27,x29,800024c4	 x27:0x00000264 x29:0xfffffda9
       54725000	      5471	800024c0	01af5f13	srli	x30,x30,0x1a	 x30:0xffffff9b x30=0x0000003f
       54735000	      5472	800024c4	04691063	bne	x18,x6,80002504	 x18:0x00000001  x6:0x00000000
       54745000	      5473	00000000	00000013	addi	x0,x0,0	  x0:0x00000000
       54755000	      5474	80002500	00000013	addi	x0,x0,0	  x0:0x00000000
       54765000	      5475	80002504	8c68b413	sltiu	x8,x17,-1850	 x17:0x76150000  x8=0x00000001
       54775000	      5476	80002508	01349913	slli	x18,x9,0x13	  x9:0x000007bf x18=0x3df80000
       54785000	      5477	8000250c	c04ccc93	xori	x25,x25,-1020	 x25:0x00000000 x25=0xfffffc04
       54795000	      5478	80002510	26e4e493	ori	x9,x9,622	  x9:0x000007bf  x9=0x000007ff
       54805000	      5479	80002514	6f910093	addi	x1,x2,1785	  x2:0x00000000  x1=0x000006f9
       54815000	      5480	80002518	01d1d693	srli	x13,x3,0x1d	  x3:0x40000000 x13=0x00000002
       54825000	      5481	8000251c	4112d333	sra	x6,x5,x17	  x5:0x80009fc4 x17:0x76150000  x6=0x80009fc4
       54835000	      5482	80002520	672fe737	lui	x14,0x672fe	 x14=0x672fe000
       54845000	      5483	80002524	0352e663	bltu	x5,x21,80002550	  x5:0x80009fc4 x21:0x00001000
       54855000	      5484	80002528	a6c1c693	xori	x13,x3,-1428	  x3:0x40000000 x13=0xbffffa6c
       54865000	      5485	8000252c	407fd193	srai	x3,x31,0x7	 x31:0xffffffff  x3=0xffffffff
       54875000	      5486	80002530	b22c3d37	lui	x26,0xb22c3	 x26=0xb22c3000
       54885000	      5487	80002534	00047db3	and	x27,x8,x0	  x8:0x00000001  x0:0x00000000 x27=0x00000000
       54895000	      5488	80002538	01b73cb3	sltu	x25,x14,x27	 x14:0x672fe000 x27:0x00000000 x25=0x00000000
       54905000	      5489	8000253c	00688db3	add	x27,x17,x6	 x17:0x76150000  x6:0x80009fc4 x27=0xf6159fc4
       54915000	      5490	80002540	000c5993	srli	x19,x24,0x0	 x24:0x80001f34 x19=0x80001f34
       54925000	      5491	80002544	e6134213	xori	x4,x6,-415	  x6:0x80009fc4  x4=0x7fff61a5
       54935000	      5492	80002548	00801933	sll	x18,x0,x8	  x0:0x00000000  x8:0x00000001 x18=0x00000000
       54945000	      5493	8000254c	802c8e93	addi	x29,x25,-2046	 x25:0x00000000 x29=0xfffff802
       54955000	      5494	80002550	64d07393	andi	x7,x0,1613	  x0:0x00000000  x7=0x00000000
       54965000	      5495	80002554	2ce54693	xori	x13,x10,718	 x10:0x0005e3e3 x13=0x0005e12d
       54975000	      5496	80002558	008b1913	slli	x18,x22,0x8	 x22:0x00000000 x18=0x00000000
       54985000	      5497	8000255c	0255f263	bgeu	x11,x5,80002580	 x11:0x80009ed4  x5:0x80009fc4
       54995000	      5498	80002560	005c7c63	bgeu	x24,x5,80002578	 x24:0x80001f34  x5:0x80009fc4
       55005000	      5499	80002564	f54cf913	andi	x18,x25,-172	 x25:0x00000000 x18=0x00000000
       55015000	      5500	80002568	01e75e93	srli	x29,x14,0x1e	 x14:0x672fe000 x29=0x00000001
       55025000	      5501	8000256c	00a9f333	and	x6,x19,x10	 x19:0x80001f34 x10:0x0005e3e3  x6=0x00000320
       55035000	      5502	80002570	40228433	sub	x8,x5,x2	  x5:0x80009fc4  x2:0x00000000  x8=0x80009fc4
       55045000	      5503	80002574	0026a9b3	slt	x19,x13,x2	 x13:0x0005e12d  x2:0x00000000 x19=0x00000000
       55055000	      5504	80002578	01e477b3	and	x15,x8,x30	  x8:0x80009fc4 x30:0x0000003f x15=0x00000004
       55065000	      5505	8000257c	41675993	srai	x19,x14,0x16	 x14:0x672fe000 x19=0x0000019c
       55075000	      5506	80002580	70962493	slti	x9,x12,1801	 x12:0x8000998b  x9=0x00000001
       55085000	      5507	80002584	4f44b413	sltiu	x8,x9,1268	  x9:0x00000001  x8=0x00000001
       55095000	      5508	80002588	01850133	add	x2,x10,x24	 x10:0x0005e3e3 x24:0x80001f34  x2=0x80060317
       55105000	      5509	8000258c	1dbf2713	slti	x14,x30,475	 x30:0x0000003f x14=0x00000001
       55115000	      5510	80002590	3a8e6a93	ori	x21,x28,936	 x28:0x00000000 x21=0x000003a8
       55125000	      5511	80002594	00507663	bgeu	x0,x5,800025a0	  x0:0x00000000  x5:0x80009fc4
       55135000	      5512	80002598	8d7f6e93	ori	x29,x30,-1833	 x30:0x0000003f x29=0xfffff8ff
       55145000	      5513	8000259c	000598b3	sll	x17,x11,x0	 x11:0x80009ed4  x0:0x00000000 x17=0x80009ed4
       55155000	      5514	800025a0	01980533	add	x10,x16,x25	 x16:0x00000001 x25:0x00000000 x10=0x00000001
       55165000	      5515	800025a4	c2744f13	xori	x30,x8,-985	  x8:0x00000001 x30=0xfffffc26
       55175000	      5516	800025a8	00c21eb3	sll	x29,x4,x12	  x4:0x7fff61a5 x12:0x8000998b x29=0xfb0d2800
       55185000	      5517	800025ac	00bcd493	srli	x9,x25,0xb	 x25:0x00000000  x9=0x00000000
       55195000	      5518	800025b0	01211633	sll	x12,x2,x18	  x2:0x80060317 x18:0x00000000 x12=0x80060317
       55205000	      5519	800025b4	d1c09617	auipc	x12,0xd1c09	 x12=0x51c0b5b0
       55215000	      5520	800025b8	8339c393	xori	x7,x19,-1997	 x19:0x0000019c  x7=0xfffff9af
       55225000	      5521	800025bc	00000013	addi	x0,x0,0	  x0:0x00000000
       55235000	      5522	800025c0	009cb1b3	sltu	x3,x25,x9	 x25:0x00000000  x9:0x00000000  x3=0x00000000
       55245000	      5523	800025c4	035ae463	bltu	x21,x21,800025ec	 x21:0x000003a8 x21:0x000003a8
       55255000	      5524	800025c8	011cde93	srli	x29,x25,0x11	 x25:0x00000000 x29=0x00000000
       55265000	      5525	800025cc	01e51c63	bne	x10,x30,800025e4	 x10:0x00000001 x30:0xfffffc26
       55275000	      5526	00000000	00000013	addi	x0,x0,0	  x0:0x00000000
       55285000	      5527	800025e0	00000013	addi	x0,x0,0	  x0:0x00000000
       55295000	      5528	800025e4	02d95663	bge	x18,x13,80002610	 x18:0x00000000 x13:0x0005e12d
       55305000	      5529	800025e8	0bfb0e63	beq	x22,x31,800026a4	 x22:0x00000000 x31:0xffffffff
       55315000	      5530	800025ec	007b3cb3	sltu	x25,x22,x7	 x22:0x00000000  x7:0xfffff9af x25=0x00000001
       55325000	      5531	800025f0	0068ce63	blt	x17,x6,8000260c	 x17:0x80009ed4  x6:0x00000320
       55335000	      5532	00000000	00000013	addi	x0,x0,0	  x0:0x00000000
       55345000	      5533	80002608	00000013	addi	x0,x0,0	  x0:0x00000000
       55355000	      5534	8000260c	41445493	srai	x9,x8,0x14	  x8:0x00000001  x9=0x00000000
       55365000	      5535	80002610	bb327093	andi	x1,x4,-1101	  x4:0x7fff61a5  x1=0x7fff61a1
       55375000	      5536	80002614	0b154863	blt	x10,x17,800026c4	 x10:0x00000001 x17:0x80009ed4
       55385000	      5537	80002618	40ecb013	sltiu	x0,x25,1038	 x25:0x00000001
       55395000	      5538	8000261c	41cf0f33	sub	x30,x30,x28	 x30:0xfffffc26 x28:0x00000000 x30=0xfffffc26
       55405000	      5539	80002620	01e78d33	add	x26,x15,x30	 x15:0x00000004 x30:0xfffffc26 x26=0xfffffc2a
       55415000	      5540	80002624	074f0c63	beq	x30,x20,8000269c	 x30:0xfffffc26 x20:0x00000000
       55425000	      5541	80002628	0040016f	jal	x2,80002628	  x2=0x80002628
       55435000	      5542	00000000	00000013	addi	x0,x0,0	  x0:0x00000000
       55445000	      5543	80002628	00000013	addi	x0,x0,0	  x0:0x00000000
       55455000	      5544	8000262c	04c000ef	jal	x1,8000262c	  x1=0x8000262c
       55465000	      5545	00000000	00000013	addi	x0,x0,0	  x0:0x00000000
       55475000	      5546	80002674	00000013	addi	x0,x0,0	  x0:0x00000000
       55485000	      5547	80002678	fddff76f	jal	x14,80002678	 x14=0x80002678
       55495000	      5548	00000000	00000013	addi	x0,x0,0	  x0:0x00000000
       55505000	      5549	80002650	00000013	addi	x0,x0,0	  x0:0x00000000
       55515000	      5550	80002654	02c0026f	jal	x4,80002654	  x4=0x80002654
       55525000	      5551	00000000	00000013	addi	x0,x0,0	  x0:0x00000000
       55535000	      5552	8000267c	00000013	addi	x0,x0,0	  x0:0x00000000
       55545000	      5553	80002680	fbdffd6f	jal	x26,80002680	 x26=0x80002680
       55555000	      5554	00000000	00000013	addi	x0,x0,0	  x0:0x00000000
       55565000	      5555	80002638	00000013	addi	x0,x0,0	  x0:0x00000000
       55575000	      5556	8000263c	04c0036f	jal	x6,8000263c	  x6=0x8000263c
       55585000	      5557	00000000	00000013	addi	x0,x0,0	  x0:0x00000000
       55595000	      5558	80002684	00000013	addi	x0,x0,0	  x0:0x00000000
       55605000	      5559	80002688	fe9ff36f	jal	x6,80002688	  x6=0x80002688
       55615000	      5560	00000000	00000013	addi	x0,x0,0	  x0:0x00000000
       55625000	      5561	8000266c	00000013	addi	x0,x0,0	  x0:0x00000000
       55635000	      5562	80002670	014000ef	jal	x1,80002670	  x1=0x80002670
       55645000	      5563	00000000	00000013	addi	x0,x0,0	  x0:0x00000000
       55655000	      5564	80002680	00000013	addi	x0,x0,0	  x0:0x00000000
       55665000	      5565	80002684	fe9ff36f	jal	x6,80002684	  x6=0x80002684
       55675000	      5566	00000000	00000013	addi	x0,x0,0	  x0:0x00000000
       55685000	      5567	80002668	00000013	addi	x0,x0,0	  x0:0x00000000
       55695000	      5568	8000266c	ff9ff0ef	jal	x1,8000266c	  x1=0x8000266c
       55705000	      5569	00000000	00000013	addi	x0,x0,0	  x0:0x00000000
       55715000	      5570	80002660	00000013	addi	x0,x0,0	  x0:0x00000000
       55725000	      5571	80002664	fddff0ef	jal	x1,80002664	  x1=0x80002664
       55735000	      5572	00000000	00000013	addi	x0,x0,0	  x0:0x00000000
       55745000	      5573	8000263c	00000013	addi	x0,x0,0	  x0:0x00000000
       55755000	      5574	80002640	00c000ef	jal	x1,80002640	  x1=0x80002640
       55765000	      5575	00000000	00000013	addi	x0,x0,0	  x0:0x00000000
       55775000	      5576	80002648	00000013	addi	x0,x0,0	  x0:0x00000000
       55785000	      5577	8000264c	014000ef	jal	x1,8000264c	  x1=0x8000264c
       55795000	      5578	00000000	00000013	addi	x0,x0,0	  x0:0x00000000
       55805000	      5579	8000265c	00000013	addi	x0,x0,0	  x0:0x00000000
       55815000	      5580	80002660	fd9ff0ef	jal	x1,80002660	  x1=0x80002660
       55825000	      5581	00000000	00000013	addi	x0,x0,0	  x0:0x00000000
       55835000	      5582	80002634	00000013	addi	x0,x0,0	  x0:0x00000000
       55845000	      5583	80002638	03c0086f	jal	x16,80002638	 x16=0x80002638
       55855000	      5584	00000000	00000013	addi	x0,x0,0	  x0:0x00000000
       55865000	      5585	80002670	00000013	addi	x0,x0,0	  x0:0x00000000
       55875000	      5586	80002674	008000ef	jal	x1,80002674	  x1=0x80002674
       55885000	      5587	00000000	00000013	addi	x0,x0,0	  x0:0x00000000
       55895000	      5588	80002678	00000013	addi	x0,x0,0	  x0:0x00000000
       55905000	      5589	8000267c	fc9ff16f	jal	x2,8000267c	  x2=0x8000267c
       55915000	      5590	00000000	00000013	addi	x0,x0,0	  x0:0x00000000
       55925000	      5591	80002640	00000013	addi	x0,x0,0	  x0:0x00000000
       55935000	      5592	80002644	014000ef	jal	x1,80002644	  x1=0x80002644
       55945000	      5593	00000000	00000013	addi	x0,x0,0	  x0:0x00000000
       55955000	      5594	80002654	00000013	addi	x0,x0,0	  x0:0x00000000
       55965000	      5595	80002658	038000ef	jal	x1,80002658	  x1=0x80002658
       55975000	      5596	00000000	00000013	addi	x0,x0,0	  x0:0x00000000
       55985000	      5597	8000268c	00000013	addi	x0,x0,0	  x0:0x00000000
       55995000	      5598	80002690	fc1ff1ef	jal	x3,80002690	  x3=0x80002690
       56005000	      5599	00000000	00000013	addi	x0,x0,0	  x0:0x00000000
       56015000	      5600	8000264c	00000013	addi	x0,x0,0	  x0:0x00000000
       56025000	      5601	80002650	0180036f	jal	x6,80002650	  x6=0x80002650
       56035000	      5602	00000000	00000013	addi	x0,x0,0	  x0:0x00000000
       56045000	      5603	80002664	00000013	addi	x0,x0,0	  x0:0x00000000
       56055000	      5604	80002668	fe1ff0ef	jal	x1,80002668	  x1=0x80002668
       56065000	      5605	00000000	00000013	addi	x0,x0,0	  x0:0x00000000
       56075000	      5606	80002644	00000013	addi	x0,x0,0	  x0:0x00000000
       56085000	      5607	80002648	014000ef	jal	x1,80002648	  x1=0x80002648
       56095000	      5608	00000000	00000013	addi	x0,x0,0	  x0:0x00000000
       56105000	      5609	80002658	00000013	addi	x0,x0,0	  x0:0x00000000
       56115000	      5610	8000265c	03000a6f	jal	x20,8000265c	 x20=0x8000265c
       56125000	      5611	00000000	00000013	addi	x0,x0,0	  x0:0x00000000
       56135000	      5612	80002688	00000013	addi	x0,x0,0	  x0:0x00000000
       56145000	      5613	8000268c	fa5ff0ef	jal	x1,8000268c	  x1=0x8000268c
       56155000	      5614	00000000	00000013	addi	x0,x0,0	  x0:0x00000000
       56165000	      5615	8000262c	00000013	addi	x0,x0,0	  x0:0x00000000
       56175000	      5616	80002630	004000ef	jal	x1,80002630	  x1=0x80002630
       56185000	      5617	00000000	00000013	addi	x0,x0,0	  x0:0x00000000
       56195000	      5618	80002630	00000013	addi	x0,x0,0	  x0:0x00000000
       56205000	      5619	80002634	060000ef	jal	x1,80002634	  x1=0x80002634
       56215000	      5620	00000000	00000013	addi	x0,x0,0	  x0:0x00000000
       56225000	      5621	80002690	00000013	addi	x0,x0,0	  x0:0x00000000
       56235000	      5622	80002694	94897a13	andi	x20,x18,-1720	 x18:0x00000000 x20=0x00000000
       56245000	      5623	80002698	02cfe063	bltu	x31,x12,800026b8	 x31:0xffffffff x12:0x51c0b5b0
       56255000	      5624	8000269c	00941993	slli	x19,x8,0x9	  x8:0x00000001 x19=0x00000200
       56265000	      5625	800026a0	040dd863	bge	x27,x0,800026f0	 x27:0xf6159fc4  x0:0x00000000
       56275000	      5626	800026a4	0ac13a37	lui	x20,0xac13	 x20=0x0ac13000
       56285000	      5627	800026a8	011d98b3	sll	x17,x27,x17	 x27:0xf6159fc4 x17:0x80009ed4 x17=0xfc400000
       56295000	      5628	800026ac	00000013	addi	x0,x0,0	  x0:0x00000000
       56305000	      5629	800026b0	05184263	blt	x16,x17,800026f4	 x16:0x80002638 x17:0xfc400000
       56315000	      5630	00000000	00000013	addi	x0,x0,0	  x0:0x00000000
       56325000	      5631	800026f0	00000013	addi	x0,x0,0	  x0:0x00000000
       56335000	      5632	800026f4	03bb9663	bne	x23,x27,80002720	 x23:0x0005e3e4 x27:0xf6159fc4
       56345000	      5633	00000000	00000013	addi	x0,x0,0	  x0:0x00000000
       56355000	      5634	8000271c	00000013	addi	x0,x0,0	  x0:0x00000000
       56365000	      5635	80002720	006afdb3	and	x27,x21,x6	 x21:0x000003a8  x6:0x80002650 x27=0x00000200
       56375000	      5636	80002724	e9d7e493	ori	x9,x15,-355	 x15:0x00000004  x9=0xfffffe9d
       56385000	      5637	80002728	0045a103	lw	x2,4(x11)	 x11:0x80009ed4  x2=0x80002798 PA:0x80009ed8
       56395000	      5638	00000000	00000013	addi	x0,x0,0	  x0:0x00000000
       56405000	      5639	8000272c	c3010313	addi	x6,x2,-976	  x2:0x80002798  x6=0x800023c8
       56415000	      5640	80002730	04058593	addi	x11,x11,64	 x11:0x80009ed4 x11=0x80009f14
       56425000	      5641	80002734	17206613	ori	x12,x0,370	  x0:0x00000000 x12=0x00000172
       56435000	      5642	80002738	0085beb3	sltu	x29,x11,x8	 x11:0x80009f14  x8:0x00000001 x29=0x00000000
       56445000	      5643	8000273c	015c9eb3	sll	x29,x25,x21	 x25:0x00000001 x21:0x000003a8 x29=0x00000100
       56455000	      5644	80002740	00110113	addi	x2,x2,1	  x2:0x80002798  x2=0x80002799
       56465000	      5645	80002744	00010167	jalr	x2,x2,0	  x2:0x80002799  x2=0x80002744
       56475000	      5646	00000000	00000013	addi	x0,x0,0	  x0:0x00000000
       56485000	      5647	80002798	00000013	addi	x0,x0,0	  x0:0x00000000
       56495000	      5648	8000279c	03c0016f	jal	x2,8000279c	  x2=0x8000279c
       56505000	      5649	00000000	00000013	addi	x0,x0,0	  x0:0x00000000
       56515000	      5650	800027d4	00000013	addi	x0,x0,0	  x0:0x00000000
       56525000	      5651	800027d8	fd1ffdef	jal	x27,800027d8	 x27=0x800027d8
       56535000	      5652	00000000	00000013	addi	x0,x0,0	  x0:0x00000000
       56545000	      5653	800027a4	00000013	addi	x0,x0,0	  x0:0x00000000
       56555000	      5654	800027a8	05c0036f	jal	x6,800027a8	  x6=0x800027a8
       56565000	      5655	00000000	00000013	addi	x0,x0,0	  x0:0x00000000
       56575000	      5656	80002800	00000013	addi	x0,x0,0	  x0:0x00000000
       56585000	      5657	80002804	fc5ff36f	jal	x6,80002804	  x6=0x80002804
       56595000	      5658	00000000	00000013	addi	x0,x0,0	  x0:0x00000000
       56605000	      5659	800027c4	00000013	addi	x0,x0,0	  x0:0x00000000
       56615000	      5660	800027c8	fedffa6f	jal	x20,800027c8	 x20=0x800027c8
       56625000	      5661	00000000	00000013	addi	x0,x0,0	  x0:0x00000000
       56635000	      5662	800027b0	00000013	addi	x0,x0,0	  x0:0x00000000
       56645000	      5663	800027b4	04c0036f	jal	x6,800027b4	  x6=0x800027b4
       56655000	      5664	00000000	00000013	addi	x0,x0,0	  x0:0x00000000
       56665000	      5665	800027fc	00000013	addi	x0,x0,0	  x0:0x00000000
       56675000	      5666	80002800	fd1ff0ef	jal	x1,80002800	  x1=0x80002800
       56685000	      5667	00000000	00000013	addi	x0,x0,0	  x0:0x00000000
       56695000	      5668	800027cc	00000013	addi	x0,x0,0	  x0:0x00000000
       56705000	      5669	800027d0	01c000ef	jal	x1,800027d0	  x1=0x800027d0
       56715000	      5670	00000000	00000013	addi	x0,x0,0	  x0:0x00000000
       56725000	      5671	800027e8	00000013	addi	x0,x0,0	  x0:0x00000000
       56735000	      5672	800027ec	ff9ff36f	jal	x6,800027ec	  x6=0x800027ec
       56745000	      5673	00000000	00000013	addi	x0,x0,0	  x0:0x00000000
       56755000	      5674	800027e0	00000013	addi	x0,x0,0	  x0:0x00000000
       56765000	      5675	800027e4	004000ef	jal	x1,800027e4	  x1=0x800027e4
       56775000	      5676	00000000	00000013	addi	x0,x0,0	  x0:0x00000000
       56785000	      5677	800027e4	00000013	addi	x0,x0,0	  x0:0x00000000
       56795000	      5678	800027e8	fd5ff0ef	jal	x1,800027e8	  x1=0x800027e8
       56805000	      5679	00000000	00000013	addi	x0,x0,0	  x0:0x00000000
       56815000	      5680	800027b8	00000013	addi	x0,x0,0	  x0:0x00000000
       56825000	      5681	800027bc	034001ef	jal	x3,800027bc	  x3=0x800027bc
       56835000	      5682	00000000	00000013	addi	x0,x0,0	  x0:0x00000000
       56845000	      5683	800027ec	00000013	addi	x0,x0,0	  x0:0x00000000
       56855000	      5684	800027f0	0180016f	jal	x2,800027f0	  x2=0x800027f0
       56865000	      5685	00000000	00000013	addi	x0,x0,0	  x0:0x00000000
       56875000	      5686	80002804	00000013	addi	x0,x0,0	  x0:0x00000000
       56885000	      5687	80002808	fa5ff7ef	jal	x15,80002808	 x15=0x80002808
       56895000	      5688	00000000	00000013	addi	x0,x0,0	  x0:0x00000000
       56905000	      5689	800027a8	00000013	addi	x0,x0,0	  x0:0x00000000
       56915000	      5690	800027ac	004000ef	jal	x1,800027ac	  x1=0x800027ac
       56925000	      5691	00000000	00000013	addi	x0,x0,0	  x0:0x00000000
       56935000	      5692	800027ac	00000013	addi	x0,x0,0	  x0:0x00000000
       56945000	      5693	800027b0	0080046f	jal	x8,800027b0	  x8=0x800027b0
       56955000	      5694	00000000	00000013	addi	x0,x0,0	  x0:0x00000000
       56965000	      5695	800027b4	00000013	addi	x0,x0,0	  x0:0x00000000
       56975000	      5696	800027b8	028001ef	jal	x3,800027b8	  x3=0x800027b8
       56985000	      5697	00000000	00000013	addi	x0,x0,0	  x0:0x00000000
       56995000	      5698	800027dc	00000013	addi	x0,x0,0	  x0:0x00000000
       57005000	      5699	800027e0	014001ef	jal	x3,800027e0	  x3=0x800027e0
       57015000	      5700	00000000	00000013	addi	x0,x0,0	  x0:0x00000000
       57025000	      5701	800027f0	00000013	addi	x0,x0,0	  x0:0x00000000
       57035000	      5702	800027f4	fcdff1ef	jal	x3,800027f4	  x3=0x800027f4
       57045000	      5703	00000000	00000013	addi	x0,x0,0	  x0:0x00000000
       57055000	      5704	800027bc	00000013	addi	x0,x0,0	  x0:0x00000000
       57065000	      5705	800027c0	00c000ef	jal	x1,800027c0	  x1=0x800027c0
       57075000	      5706	00000000	00000013	addi	x0,x0,0	  x0:0x00000000
       57085000	      5707	800027c8	00000013	addi	x0,x0,0	  x0:0x00000000
       57095000	      5708	800027cc	ff9ff76f	jal	x14,800027cc	 x14=0x800027cc
       57105000	      5709	00000000	00000013	addi	x0,x0,0	  x0:0x00000000
       57115000	      5710	800027c0	00000013	addi	x0,x0,0	  x0:0x00000000
       57125000	      5711	800027c4	010000ef	jal	x1,800027c4	  x1=0x800027c4
       57135000	      5712	00000000	00000013	addi	x0,x0,0	  x0:0x00000000
       57145000	      5713	800027d0	00000013	addi	x0,x0,0	  x0:0x00000000
       57155000	      5714	800027d4	fcdff36f	jal	x6,800027d4	  x6=0x800027d4
       57165000	      5715	00000000	00000013	addi	x0,x0,0	  x0:0x00000000
       57175000	      5716	8000279c	00000013	addi	x0,x0,0	  x0:0x00000000
       57185000	      5717	800027a0	05c00c6f	jal	x24,800027a0	 x24=0x800027a0
       57195000	      5718	00000000	00000013	addi	x0,x0,0	  x0:0x00000000
       57205000	      5719	800027f8	00000013	addi	x0,x0,0	  x0:0x00000000
       57215000	      5720	800027fc	ffdff36f	jal	x6,800027fc	  x6=0x800027fc
       57225000	      5721	00000000	00000013	addi	x0,x0,0	  x0:0x00000000
       57235000	      5722	800027f4	00000013	addi	x0,x0,0	  x0:0x00000000
       57245000	      5723	800027f8	fe5ff0ef	jal	x1,800027f8	  x1=0x800027f8
       57255000	      5724	00000000	00000013	addi	x0,x0,0	  x0:0x00000000
       57265000	      5725	800027d8	00000013	addi	x0,x0,0	  x0:0x00000000
       57275000	      5726	800027dc	fc9ff26f	jal	x4,800027dc	  x4=0x800027dc
       57285000	      5727	00000000	00000013	addi	x0,x0,0	  x0:0x00000000
       57295000	      5728	800027a0	00000013	addi	x0,x0,0	  x0:0x00000000
       57305000	      5729	800027a4	068000ef	jal	x1,800027a4	  x1=0x800027a4
       57315000	      5730	00000000	00000013	addi	x0,x0,0	  x0:0x00000000
       57325000	      5731	80002808	00000013	addi	x0,x0,0	  x0:0x00000000
       57335000	      5732	8000280c	01654f33	xor	x30,x10,x22	 x10:0x00000001 x22:0x00000000 x30=0x00000001
       57345000	      5733	80002810	0340016f	jal	x2,80002810	  x2=0x80002810
       57355000	      5734	00000000	00000013	addi	x0,x0,0	  x0:0x00000000
       57365000	      5735	80002840	00000013	addi	x0,x0,0	  x0:0x00000000
       57375000	      5736	80002844	0280026f	jal	x4,80002844	  x4=0x80002844
       57385000	      5737	00000000	00000013	addi	x0,x0,0	  x0:0x00000000
       57395000	      5738	80002868	00000013	addi	x0,x0,0	  x0:0x00000000
       57405000	      5739	8000286c	fb1ff36f	jal	x6,8000286c	  x6=0x8000286c
       57415000	      5740	00000000	00000013	addi	x0,x0,0	  x0:0x00000000
       57425000	      5741	80002818	00000013	addi	x0,x0,0	  x0:0x00000000
       57435000	      5742	8000281c	01c000ef	jal	x1,8000281c	  x1=0x8000281c
       57445000	      5743	00000000	00000013	addi	x0,x0,0	  x0:0x00000000
       57455000	      5744	80002834	00000013	addi	x0,x0,0	  x0:0x00000000
       57465000	      5745	80002838	010000ef	jal	x1,80002838	  x1=0x80002838
       57475000	      5746	00000000	00000013	addi	x0,x0,0	  x0:0x00000000
       57485000	      5747	80002844	00000013	addi	x0,x0,0	  x0:0x00000000
       57495000	      5748	80002848	fedff36f	jal	x6,80002848	  x6=0x80002848
       57505000	      5749	00000000	00000013	addi	x0,x0,0	  x0:0x00000000
       57515000	      5750	80002830	00000013	addi	x0,x0,0	  x0:0x00000000
       57525000	      5751	80002834	0200036f	jal	x6,80002834	  x6=0x80002834
       57535000	      5752	00000000	00000013	addi	x0,x0,0	  x0:0x00000000
       57545000	      5753	80002850	00000013	addi	x0,x0,0	  x0:0x00000000
       57555000	      5754	80002854	008006ef	jal	x13,80002854	 x13=0x80002854
       57565000	      5755	00000000	00000013	addi	x0,x0,0	  x0:0x00000000
       57575000	      5756	80002858	00000013	addi	x0,x0,0	  x0:0x00000000
       57585000	      5757	8000285c	fd5ff0ef	jal	x1,8000285c	  x1=0x8000285c
       57595000	      5758	00000000	00000013	addi	x0,x0,0	  x0:0x00000000
       57605000	      5759	8000282c	00000013	addi	x0,x0,0	  x0:0x00000000
       57615000	      5760	80002830	ffdff0ef	jal	x1,80002830	  x1=0x80002830
       57625000	      5761	00000000	00000013	addi	x0,x0,0	  x0:0x00000000
       57635000	      5762	80002828	00000013	addi	x0,x0,0	  x0:0x00000000
       57645000	      5763	8000282c	ffdff56f	jal	x10,8000282c	 x10=0x8000282c
       57655000	      5764	00000000	00000013	addi	x0,x0,0	  x0:0x00000000
       57665000	      5765	80002824	00000013	addi	x0,x0,0	  x0:0x00000000
       57675000	      5766	80002828	024000ef	jal	x1,80002828	  x1=0x80002828
       57685000	      5767	00000000	00000013	addi	x0,x0,0	  x0:0x00000000
       57695000	      5768	80002848	00000013	addi	x0,x0,0	  x0:0x00000000
       57705000	      5769	8000284c	00c000ef	jal	x1,8000284c	  x1=0x8000284c
       57715000	      5770	00000000	00000013	addi	x0,x0,0	  x0:0x00000000
       57725000	      5771	80002854	00000013	addi	x0,x0,0	  x0:0x00000000
       57735000	      5772	80002858	01c000ef	jal	x1,80002858	  x1=0x80002858
       57745000	      5773	00000000	00000013	addi	x0,x0,0	  x0:0x00000000
       57755000	      5774	80002870	00000013	addi	x0,x0,0	  x0:0x00000000
       57765000	      5775	80002874	ff5ff0ef	jal	x1,80002874	  x1=0x80002874
       57775000	      5776	00000000	00000013	addi	x0,x0,0	  x0:0x00000000
       57785000	      5777	80002864	00000013	addi	x0,x0,0	  x0:0x00000000
       57795000	      5778	80002868	0080026f	jal	x4,80002868	  x4=0x80002868
       57805000	      5779	00000000	00000013	addi	x0,x0,0	  x0:0x00000000
       57815000	      5780	8000286c	00000013	addi	x0,x0,0	  x0:0x00000000
       57825000	      5781	80002870	fa5ff7ef	jal	x15,80002870	 x15=0x80002870
       57835000	      5782	00000000	00000013	addi	x0,x0,0	  x0:0x00000000
       57845000	      5783	80002810	00000013	addi	x0,x0,0	  x0:0x00000000
       57855000	      5784	80002814	02c00def	jal	x27,80002814	 x27=0x80002814
       57865000	      5785	00000000	00000013	addi	x0,x0,0	  x0:0x00000000
       57875000	      5786	8000283c	00000013	addi	x0,x0,0	  x0:0x00000000
       57885000	      5787	80002840	020000ef	jal	x1,80002840	  x1=0x80002840
       57895000	      5788	00000000	00000013	addi	x0,x0,0	  x0:0x00000000
       57905000	      5789	8000285c	00000013	addi	x0,x0,0	  x0:0x00000000
       57915000	      5790	80002860	fc5ff1ef	jal	x3,80002860	  x3=0x80002860
       57925000	      5791	00000000	00000013	addi	x0,x0,0	  x0:0x00000000
       57935000	      5792	80002820	00000013	addi	x0,x0,0	  x0:0x00000000
       57945000	      5793	80002824	02c0016f	jal	x2,80002824	  x2=0x80002824
       57955000	      5794	00000000	00000013	addi	x0,x0,0	  x0:0x00000000
       57965000	      5795	8000284c	00000013	addi	x0,x0,0	  x0:0x00000000
       57975000	      5796	80002850	fd1ff26f	jal	x4,80002850	  x4=0x80002850
       57985000	      5797	00000000	00000013	addi	x0,x0,0	  x0:0x00000000
       57995000	      5798	8000281c	00000013	addi	x0,x0,0	  x0:0x00000000
       58005000	      5799	80002820	044000ef	jal	x1,80002820	  x1=0x80002820
       58015000	      5800	00000000	00000013	addi	x0,x0,0	  x0:0x00000000
       58025000	      5801	80002860	00000013	addi	x0,x0,0	  x0:0x00000000
       58035000	      5802	80002864	fb5ff16f	jal	x2,80002864	  x2=0x80002864
       58045000	      5803	00000000	00000013	addi	x0,x0,0	  x0:0x00000000
       58055000	      5804	80002814	00000013	addi	x0,x0,0	  x0:0x00000000
       58065000	      5805	80002818	024000ef	jal	x1,80002818	  x1=0x80002818
       58075000	      5806	00000000	00000013	addi	x0,x0,0	  x0:0x00000000
       58085000	      5807	80002838	00000013	addi	x0,x0,0	  x0:0x00000000
       58095000	      5808	8000283c	03c0036f	jal	x6,8000283c	  x6=0x8000283c
       58105000	      5809	00000000	00000013	addi	x0,x0,0	  x0:0x00000000
       58115000	      5810	80002874	00000013	addi	x0,x0,0	  x0:0x00000000
       58125000	      5811	80002878	01e43fb3	sltu	x31,x8,x30	  x8:0x800027b0 x30:0x00000001 x31=0x00000000
       58135000	      5812	8000287c	0300016f	jal	x2,8000287c	  x2=0x8000287c
       58145000	      5813	00000000	00000013	addi	x0,x0,0	  x0:0x00000000
       58155000	      5814	800028a8	00000013	addi	x0,x0,0	  x0:0x00000000
       58165000	      5815	800028ac	fd5ff36f	jal	x6,800028ac	  x6=0x800028ac
       58175000	      5816	00000000	00000013	addi	x0,x0,0	  x0:0x00000000
       58185000	      5817	8000287c	00000013	addi	x0,x0,0	  x0:0x00000000
       58195000	      5818	80002880	0140036f	jal	x6,80002880	  x6=0x80002880
       58205000	      5819	00000000	00000013	addi	x0,x0,0	  x0:0x00000000
       58215000	      5820	80002890	00000013	addi	x0,x0,0	  x0:0x00000000
       58225000	      5821	80002894	010000ef	jal	x1,80002894	  x1=0x80002894
       58235000	      5822	00000000	00000013	addi	x0,x0,0	  x0:0x00000000
       58245000	      5823	800028a0	00000013	addi	x0,x0,0	  x0:0x00000000
       58255000	      5824	800028a4	ff5ff0ef	jal	x1,800028a4	  x1=0x800028a4
       58265000	      5825	00000000	00000013	addi	x0,x0,0	  x0:0x00000000
       58275000	      5826	80002894	00000013	addi	x0,x0,0	  x0:0x00000000
       58285000	      5827	80002898	010000ef	jal	x1,80002898	  x1=0x80002898
       58295000	      5828	00000000	00000013	addi	x0,x0,0	  x0:0x00000000
       58305000	      5829	800028a4	00000013	addi	x0,x0,0	  x0:0x00000000
       58315000	      5830	800028a8	ff5ff0ef	jal	x1,800028a8	  x1=0x800028a8
       58325000	      5831	00000000	00000013	addi	x0,x0,0	  x0:0x00000000
       58335000	      5832	80002898	00000013	addi	x0,x0,0	  x0:0x00000000
       58345000	      5833	8000289c	fe9ff0ef	jal	x1,8000289c	  x1=0x8000289c
       58355000	      5834	00000000	00000013	addi	x0,x0,0	  x0:0x00000000
       58365000	      5835	80002880	00000013	addi	x0,x0,0	  x0:0x00000000
       58375000	      5836	80002884	01c008ef	jal	x17,80002884	 x17=0x80002884
       58385000	      5837	00000000	00000013	addi	x0,x0,0	  x0:0x00000000
       58395000	      5838	8000289c	00000013	addi	x0,x0,0	  x0:0x00000000
       58405000	      5839	800028a0	ff1ff7ef	jal	x15,800028a0	 x15=0x800028a0
       58415000	      5840	00000000	00000013	addi	x0,x0,0	  x0:0x00000000
       58425000	      5841	8000288c	00000013	addi	x0,x0,0	  x0:0x00000000
       58435000	      5842	80002890	ff9ff0ef	jal	x1,80002890	  x1=0x80002890
       58445000	      5843	00000000	00000013	addi	x0,x0,0	  x0:0x00000000
       58455000	      5844	80002884	00000013	addi	x0,x0,0	  x0:0x00000000
       58465000	      5845	80002888	028000ef	jal	x1,80002888	  x1=0x80002888
       58475000	      5846	00000000	00000013	addi	x0,x0,0	  x0:0x00000000
       58485000	      5847	800028ac	00000013	addi	x0,x0,0	  x0:0x00000000
       58495000	      5848	800028b0	fddff26f	jal	x4,800028b0	  x4=0x800028b0
       58505000	      5849	00000000	00000013	addi	x0,x0,0	  x0:0x00000000
       58515000	      5850	80002888	00000013	addi	x0,x0,0	  x0:0x00000000
       58525000	      5851	8000288c	028000ef	jal	x1,8000288c	  x1=0x8000288c
       58535000	      5852	00000000	00000013	addi	x0,x0,0	  x0:0x00000000
       58545000	      5853	800028b0	00000013	addi	x0,x0,0	  x0:0x00000000
       58555000	      5854	800028b4	015dd733	srl	x14,x27,x21	 x27:0x80002814 x21:0x000003a8 x14=0x00800028
       58565000	      5855	800028b8	0540016f	jal	x2,800028b8	  x2=0x800028b8
       58575000	      5856	00000000	00000013	addi	x0,x0,0	  x0:0x00000000
       58585000	      5857	80002908	00000013	addi	x0,x0,0	  x0:0x00000000
       58595000	      5858	8000290c	fe1ff1ef	jal	x3,8000290c	  x3=0x8000290c
       58605000	      5859	00000000	00000013	addi	x0,x0,0	  x0:0x00000000
       58615000	      5860	800028e8	00000013	addi	x0,x0,0	  x0:0x00000000
       58625000	      5861	800028ec	034008ef	jal	x17,800028ec	 x17=0x800028ec
       58635000	      5862	00000000	00000013	addi	x0,x0,0	  x0:0x00000000
       58645000	      5863	8000291c	00000013	addi	x0,x0,0	  x0:0x00000000
       58655000	      5864	80002920	fe1ff36f	jal	x6,80002920	  x6=0x80002920
       58665000	      5865	00000000	00000013	addi	x0,x0,0	  x0:0x00000000
       58675000	      5866	800028fc	00000013	addi	x0,x0,0	  x0:0x00000000
       58685000	      5867	80002900	ff9ff36f	jal	x6,80002900	  x6=0x80002900
       58695000	      5868	00000000	00000013	addi	x0,x0,0	  x0:0x00000000
       58705000	      5869	800028f4	00000013	addi	x0,x0,0	  x0:0x00000000
       58715000	      5870	800028f8	ffdff36f	jal	x6,800028f8	  x6=0x800028f8
       58725000	      5871	00000000	00000013	addi	x0,x0,0	  x0:0x00000000
       58735000	      5872	800028f0	00000013	addi	x0,x0,0	  x0:0x00000000
       58745000	      5873	800028f4	020000ef	jal	x1,800028f4	  x1=0x800028f4
       58755000	      5874	00000000	00000013	addi	x0,x0,0	  x0:0x00000000
       58765000	      5875	80002910	00000013	addi	x0,x0,0	  x0:0x00000000
       58775000	      5876	80002914	00400c6f	jal	x24,80002914	 x24=0x80002914
       58785000	      5877	00000000	00000013	addi	x0,x0,0	  x0:0x00000000
       58795000	      5878	80002914	00000013	addi	x0,x0,0	  x0:0x00000000
       58805000	      5879	80002918	fe5ff36f	jal	x6,80002918	  x6=0x80002918
       58815000	      5880	00000000	00000013	addi	x0,x0,0	  x0:0x00000000
       58825000	      5881	800028f8	00000013	addi	x0,x0,0	  x0:0x00000000
       58835000	      5882	800028fc	fd1ff0ef	jal	x1,800028fc	  x1=0x800028fc
       58845000	      5883	00000000	00000013	addi	x0,x0,0	  x0:0x00000000
       58855000	      5884	800028c8	00000013	addi	x0,x0,0	  x0:0x00000000
       58865000	      5885	800028cc	ff1ff0ef	jal	x1,800028cc	  x1=0x800028cc
       58875000	      5886	00000000	00000013	addi	x0,x0,0	  x0:0x00000000
       58885000	      5887	800028b8	00000013	addi	x0,x0,0	  x0:0x00000000
       58895000	      5888	800028bc	02c0016f	jal	x2,800028bc	  x2=0x800028bc
       58905000	      5889	00000000	00000013	addi	x0,x0,0	  x0:0x00000000
       58915000	      5890	800028e4	00000013	addi	x0,x0,0	  x0:0x00000000
       58925000	      5891	800028e8	fe1ff0ef	jal	x1,800028e8	  x1=0x800028e8
       58935000	      5892	00000000	00000013	addi	x0,x0,0	  x0:0x00000000
       58945000	      5893	800028c4	00000013	addi	x0,x0,0	  x0:0x00000000
       58955000	      5894	800028c8	00c000ef	jal	x1,800028c8	  x1=0x800028c8
       58965000	      5895	00000000	00000013	addi	x0,x0,0	  x0:0x00000000
       58975000	      5896	800028d0	00000013	addi	x0,x0,0	  x0:0x00000000
       58985000	      5897	800028d4	ff1ffeef	jal	x29,800028d4	 x29=0x800028d4
       58995000	      5898	00000000	00000013	addi	x0,x0,0	  x0:0x00000000
       59005000	      5899	800028c0	00000013	addi	x0,x0,0	  x0:0x00000000
       59015000	      5900	800028c4	0580026f	jal	x4,800028c4	  x4=0x800028c4
       59025000	      5901	00000000	00000013	addi	x0,x0,0	  x0:0x00000000
       59035000	      5902	80002918	00000013	addi	x0,x0,0	  x0:0x00000000
       59045000	      5903	8000291c	fd5ff36f	jal	x6,8000291c	  x6=0x8000291c
       59055000	      5904	00000000	00000013	addi	x0,x0,0	  x0:0x00000000
       59065000	      5905	800028ec	00000013	addi	x0,x0,0	  x0:0x00000000
       59075000	      5906	800028f0	018000ef	jal	x1,800028f0	  x1=0x800028f0
       59085000	      5907	00000000	00000013	addi	x0,x0,0	  x0:0x00000000
       59095000	      5908	80002904	00000013	addi	x0,x0,0	  x0:0x00000000
       59105000	      5909	80002908	fc9ff0ef	jal	x1,80002908	  x1=0x80002908
       59115000	      5910	00000000	00000013	addi	x0,x0,0	  x0:0x00000000
       59125000	      5911	800028cc	00000013	addi	x0,x0,0	  x0:0x00000000
       59135000	      5912	800028d0	ff1ff0ef	jal	x1,800028d0	  x1=0x800028d0
       59145000	      5913	00000000	00000013	addi	x0,x0,0	  x0:0x00000000
       59155000	      5914	800028bc	00000013	addi	x0,x0,0	  x0:0x00000000
       59165000	      5915	800028c0	024000ef	jal	x1,800028c0	  x1=0x800028c0
       59175000	      5916	00000000	00000013	addi	x0,x0,0	  x0:0x00000000
       59185000	      5917	800028e0	00000013	addi	x0,x0,0	  x0:0x00000000
       59195000	      5918	800028e4	ff9ff0ef	jal	x1,800028e4	  x1=0x800028e4
       59205000	      5919	00000000	00000013	addi	x0,x0,0	  x0:0x00000000
       59215000	      5920	800028d8	00000013	addi	x0,x0,0	  x0:0x00000000
       59225000	      5921	800028dc	004000ef	jal	x1,800028dc	  x1=0x800028dc
       59235000	      5922	00000000	00000013	addi	x0,x0,0	  x0:0x00000000
       59245000	      5923	800028dc	00000013	addi	x0,x0,0	  x0:0x00000000
       59255000	      5924	800028e0	ff9ff0ef	jal	x1,800028e0	  x1=0x800028e0
       59265000	      5925	00000000	00000013	addi	x0,x0,0	  x0:0x00000000
       59275000	      5926	800028d4	00000013	addi	x0,x0,0	  x0:0x00000000
       59285000	      5927	800028d8	038000ef	jal	x1,800028d8	  x1=0x800028d8
       59295000	      5928	00000000	00000013	addi	x0,x0,0	  x0:0x00000000
       59305000	      5929	8000290c	00000013	addi	x0,x0,0	  x0:0x00000000
       59315000	      5930	80002910	ff5ffdef	jal	x27,80002910	 x27=0x80002910
       59325000	      5931	00000000	00000013	addi	x0,x0,0	  x0:0x00000000
       59335000	      5932	80002900	00000013	addi	x0,x0,0	  x0:0x00000000
       59345000	      5933	80002904	02000fef	jal	x31,80002904	 x31=0x80002904
       59355000	      5934	00000000	00000013	addi	x0,x0,0	  x0:0x00000000
       59365000	      5935	80002920	00000013	addi	x0,x0,0	  x0:0x00000000
       59375000	      5936	80002924	0007d1b3	srl	x3,x15,x0	 x15:0x800028a0  x0:0x00000000  x3=0x800028a0
       59385000	      5937	80002928	0040016f	jal	x2,80002928	  x2=0x80002928
       59395000	      5938	00000000	00000013	addi	x0,x0,0	  x0:0x00000000
       59405000	      5939	80002928	00000013	addi	x0,x0,0	  x0:0x00000000
       59415000	      5940	8000292c	01c0026f	jal	x4,8000292c	  x4=0x8000292c
       59425000	      5941	00000000	00000013	addi	x0,x0,0	  x0:0x00000000
       59435000	      5942	80002944	00000013	addi	x0,x0,0	  x0:0x00000000
       59445000	      5943	80002948	024000ef	jal	x1,80002948	  x1=0x80002948
       59455000	      5944	00000000	00000013	addi	x0,x0,0	  x0:0x00000000
       59465000	      5945	80002968	00000013	addi	x0,x0,0	  x0:0x00000000
       59475000	      5946	8000296c	ff5ff0ef	jal	x1,8000296c	  x1=0x8000296c
       59485000	      5947	00000000	00000013	addi	x0,x0,0	  x0:0x00000000
       59495000	      5948	8000295c	00000013	addi	x0,x0,0	  x0:0x00000000
       59505000	      5949	80002960	ffdff36f	jal	x6,80002960	  x6=0x80002960
       59515000	      5950	00000000	00000013	addi	x0,x0,0	  x0:0x00000000
       59525000	      5951	80002958	00000013	addi	x0,x0,0	  x0:0x00000000
       59535000	      5952	8000295c	fd9ff36f	jal	x6,8000295c	  x6=0x8000295c
       59545000	      5953	00000000	00000013	addi	x0,x0,0	  x0:0x00000000
       59555000	      5954	80002930	00000013	addi	x0,x0,0	  x0:0x00000000
       59565000	      5955	80002934	034004ef	jal	x9,80002934	  x9=0x80002934
       59575000	      5956	00000000	00000013	addi	x0,x0,0	  x0:0x00000000
       59585000	      5957	80002964	00000013	addi	x0,x0,0	  x0:0x00000000
       59595000	      5958	80002968	fddff0ef	jal	x1,80002968	  x1=0x80002968
       59605000	      5959	00000000	00000013	addi	x0,x0,0	  x0:0x00000000
       59615000	      5960	80002940	00000013	addi	x0,x0,0	  x0:0x00000000
       59625000	      5961	80002944	ff5ff0ef	jal	x1,80002944	  x1=0x80002944
       59635000	      5962	00000000	00000013	addi	x0,x0,0	  x0:0x00000000
       59645000	      5963	80002934	00000013	addi	x0,x0,0	  x0:0x00000000
       59655000	      5964	80002938	0200036f	jal	x6,80002938	  x6=0x80002938
       59665000	      5965	00000000	00000013	addi	x0,x0,0	  x0:0x00000000
       59675000	      5966	80002954	00000013	addi	x0,x0,0	  x0:0x00000000
       59685000	      5967	80002958	00c000ef	jal	x1,80002958	  x1=0x80002958
       59695000	      5968	00000000	00000013	addi	x0,x0,0	  x0:0x00000000
       59705000	      5969	80002960	00000013	addi	x0,x0,0	  x0:0x00000000
       59715000	      5970	80002964	fe9ff0ef	jal	x1,80002964	  x1=0x80002964
       59725000	      5971	00000000	00000013	addi	x0,x0,0	  x0:0x00000000
       59735000	      5972	80002948	00000013	addi	x0,x0,0	  x0:0x00000000
       59745000	      5973	8000294c	004001ef	jal	x3,8000294c	  x3=0x8000294c
       59755000	      5974	00000000	00000013	addi	x0,x0,0	  x0:0x00000000
       59765000	      5975	8000294c	00000013	addi	x0,x0,0	  x0:0x00000000
       59775000	      5976	80002950	ff1ff0ef	jal	x1,80002950	  x1=0x80002950
       59785000	      5977	00000000	00000013	addi	x0,x0,0	  x0:0x00000000
       59795000	      5978	8000293c	00000013	addi	x0,x0,0	  x0:0x00000000
       59805000	      5979	80002940	0140036f	jal	x6,80002940	  x6=0x80002940
       59815000	      5980	00000000	00000013	addi	x0,x0,0	  x0:0x00000000
       59825000	      5981	80002950	00000013	addi	x0,x0,0	  x0:0x00000000
       59835000	      5982	80002954	02400b6f	jal	x22,80002954	 x22=0x80002954
       59845000	      5983	00000000	00000013	addi	x0,x0,0	  x0:0x00000000
       59855000	      5984	80002974	00000013	addi	x0,x0,0	  x0:0x00000000
       59865000	      5985	80002978	ffdff36f	jal	x6,80002978	  x6=0x80002978
       59875000	      5986	00000000	00000013	addi	x0,x0,0	  x0:0x00000000
       59885000	      5987	80002970	00000013	addi	x0,x0,0	  x0:0x00000000
       59895000	      5988	80002974	ffdff0ef	jal	x1,80002974	  x1=0x80002974
       59905000	      5989	00000000	00000013	addi	x0,x0,0	  x0:0x00000000
       59915000	      5990	8000296c	00000013	addi	x0,x0,0	  x0:0x00000000
       59925000	      5991	80002970	fcdff0ef	jal	x1,80002970	  x1=0x80002970
       59935000	      5992	00000000	00000013	addi	x0,x0,0	  x0:0x00000000
       59945000	      5993	80002938	00000013	addi	x0,x0,0	  x0:0x00000000
       59955000	      5994	8000293c	ff5ff3ef	jal	x7,8000293c	  x7=0x8000293c
       59965000	      5995	00000000	00000013	addi	x0,x0,0	  x0:0x00000000
       59975000	      5996	8000292c	00000013	addi	x0,x0,0	  x0:0x00000000
       59985000	      5997	80002930	04c0036f	jal	x6,80002930	  x6=0x80002930
       59995000	      5998	00000000	00000013	addi	x0,x0,0	  x0:0x00000000
       60005000	      5999	80002978	00000013	addi	x0,x0,0	  x0:0x00000000
       60015000	      6000	8000297c	010b1493	slli	x9,x22,0x10	 x22:0x80002954  x9=0x29540000
       60025000	      6001	80002980	0180016f	jal	x2,80002980	  x2=0x80002980
       60035000	      6002	00000000	00000013	addi	x0,x0,0	  x0:0x00000000
       60045000	      6003	80002994	00000013	addi	x0,x0,0	  x0:0x00000000
       60055000	      6004	80002998	044000ef	jal	x1,80002998	  x1=0x80002998
       60065000	      6005	00000000	00000013	addi	x0,x0,0	  x0:0x00000000
       60075000	      6006	800029d8	00000013	addi	x0,x0,0	  x0:0x00000000
       60085000	      6007	800029dc	fb5fffef	jal	x31,800029dc	 x31=0x800029dc
       60095000	      6008	00000000	00000013	addi	x0,x0,0	  x0:0x00000000
       60105000	      6009	8000298c	00000013	addi	x0,x0,0	  x0:0x00000000
       60115000	      6010	80002990	040000ef	jal	x1,80002990	  x1=0x80002990
       60125000	      6011	00000000	00000013	addi	x0,x0,0	  x0:0x00000000
       60135000	      6012	800029cc	00000013	addi	x0,x0,0	  x0:0x00000000
       60145000	      6013	800029d0	01c001ef	jal	x3,800029d0	  x3=0x800029d0
       60155000	      6014	00000000	00000013	addi	x0,x0,0	  x0:0x00000000
       60165000	      6015	800029e8	00000013	addi	x0,x0,0	  x0:0x00000000
       60175000	      6016	800029ec	ff5ffeef	jal	x29,800029ec	 x29=0x800029ec
       60185000	      6017	00000000	00000013	addi	x0,x0,0	  x0:0x00000000
       60195000	      6018	800029dc	00000013	addi	x0,x0,0	  x0:0x00000000
       60205000	      6019	800029e0	fcdff0ef	jal	x1,800029e0	  x1=0x800029e0
       60215000	      6020	00000000	00000013	addi	x0,x0,0	  x0:0x00000000
       60225000	      6021	800029a8	00000013	addi	x0,x0,0	  x0:0x00000000
       60235000	      6022	800029ac	fddfff6f	jal	x30,800029ac	 x30=0x800029ac
       60245000	      6023	00000000	00000013	addi	x0,x0,0	  x0:0x00000000
       60255000	      6024	80002984	00000013	addi	x0,x0,0	  x0:0x00000000
       60265000	      6025	80002988	018000ef	jal	x1,80002988	  x1=0x80002988
       60275000	      6026	00000000	00000013	addi	x0,x0,0	  x0:0x00000000
       60285000	      6027	8000299c	00000013	addi	x0,x0,0	  x0:0x00000000
       60295000	      6028	800029a0	02800a6f	jal	x20,800029a0	 x20=0x800029a0
       60305000	      6029	00000000	00000013	addi	x0,x0,0	  x0:0x00000000
       60315000	      6030	800029c4	00000013	addi	x0,x0,0	  x0:0x00000000
       60325000	      6031	800029c8	fd5ff0ef	jal	x1,800029c8	  x1=0x800029c8
       60335000	      6032	00000000	00000013	addi	x0,x0,0	  x0:0x00000000
       60345000	      6033	80002998	00000013	addi	x0,x0,0	  x0:0x00000000
       60355000	      6034	8000299c	0180036f	jal	x6,8000299c	  x6=0x8000299c
       60365000	      6035	00000000	00000013	addi	x0,x0,0	  x0:0x00000000
       60375000	      6036	800029b0	00000013	addi	x0,x0,0	  x0:0x00000000
       60385000	      6037	800029b4	ff5ff16f	jal	x2,800029b4	  x2=0x800029b4
       60395000	      6038	00000000	00000013	addi	x0,x0,0	  x0:0x00000000
       60405000	      6039	800029a4	00000013	addi	x0,x0,0	  x0:0x00000000
       60415000	      6040	800029a8	fddff36f	jal	x6,800029a8	  x6=0x800029a8
       60425000	      6041	00000000	00000013	addi	x0,x0,0	  x0:0x00000000
       60435000	      6042	80002980	00000013	addi	x0,x0,0	  x0:0x00000000
       60445000	      6043	80002984	02c000ef	jal	x1,80002984	  x1=0x80002984
       60455000	      6044	00000000	00000013	addi	x0,x0,0	  x0:0x00000000
       60465000	      6045	800029ac	00000013	addi	x0,x0,0	  x0:0x00000000
       60475000	      6046	800029b0	ff5ff1ef	jal	x3,800029b0	  x3=0x800029b0
       60485000	      6047	00000000	00000013	addi	x0,x0,0	  x0:0x00000000
       60495000	      6048	800029a0	00000013	addi	x0,x0,0	  x0:0x00000000
       60505000	      6049	800029a4	018007ef	jal	x15,800029a4	 x15=0x800029a4
       60515000	      6050	00000000	00000013	addi	x0,x0,0	  x0:0x00000000
       60525000	      6051	800029b8	00000013	addi	x0,x0,0	  x0:0x00000000
       60535000	      6052	800029bc	01c0036f	jal	x6,800029bc	  x6=0x800029bc
       60545000	      6053	00000000	00000013	addi	x0,x0,0	  x0:0x00000000
       60555000	      6054	800029d4	00000013	addi	x0,x0,0	  x0:0x00000000
       60565000	      6055	800029d8	fe9ff26f	jal	x4,800029d8	  x4=0x800029d8
       60575000	      6056	00000000	00000013	addi	x0,x0,0	  x0:0x00000000
       60585000	      6057	800029bc	00000013	addi	x0,x0,0	  x0:0x00000000
       60595000	      6058	800029c0	fcdff86f	jal	x16,800029c0	 x16=0x800029c0
       60605000	      6059	00000000	00000013	addi	x0,x0,0	  x0:0x00000000
       60615000	      6060	80002988	00000013	addi	x0,x0,0	  x0:0x00000000
       60625000	      6061	8000298c	0080036f	jal	x6,8000298c	  x6=0x8000298c
       60635000	      6062	00000000	00000013	addi	x0,x0,0	  x0:0x00000000
       60645000	      6063	80002990	00000013	addi	x0,x0,0	  x0:0x00000000
       60655000	      6064	80002994	030000ef	jal	x1,80002994	  x1=0x80002994
       60665000	      6065	00000000	00000013	addi	x0,x0,0	  x0:0x00000000
       60675000	      6066	800029c0	00000013	addi	x0,x0,0	  x0:0x00000000
       60685000	      6067	800029c4	008000ef	jal	x1,800029c4	  x1=0x800029c4
       60695000	      6068	00000000	00000013	addi	x0,x0,0	  x0:0x00000000
       60705000	      6069	800029c8	00000013	addi	x0,x0,0	  x0:0x00000000
       60715000	      6070	800029cc	01c000ef	jal	x1,800029cc	  x1=0x800029cc
       60725000	      6071	00000000	00000013	addi	x0,x0,0	  x0:0x00000000
       60735000	      6072	800029e4	00000013	addi	x0,x0,0	  x0:0x00000000
       60745000	      6073	800029e8	fd1ff0ef	jal	x1,800029e8	  x1=0x800029e8
       60755000	      6074	00000000	00000013	addi	x0,x0,0	  x0:0x00000000
       60765000	      6075	800029b4	00000013	addi	x0,x0,0	  x0:0x00000000
       60775000	      6076	800029b8	01c00bef	jal	x23,800029b8	 x23=0x800029b8
       60785000	      6077	00000000	00000013	addi	x0,x0,0	  x0:0x00000000
       60795000	      6078	800029d0	00000013	addi	x0,x0,0	  x0:0x00000000
       60805000	      6079	800029d4	0100036f	jal	x6,800029d4	  x6=0x800029d4
       60815000	      6080	00000000	00000013	addi	x0,x0,0	  x0:0x00000000
       60825000	      6081	800029e0	00000013	addi	x0,x0,0	  x0:0x00000000
       60835000	      6082	800029e4	00c000ef	jal	x1,800029e4	  x1=0x800029e4
       60845000	      6083	00000000	00000013	addi	x0,x0,0	  x0:0x00000000
       60855000	      6084	800029ec	00000013	addi	x0,x0,0	  x0:0x00000000
       60865000	      6085	800029f0	29817a13	andi	x20,x2,664	  x2:0x800029b4 x20=0x00000090
       60875000	      6086	800029f4	01658233	add	x4,x11,x22	 x11:0x80009f14 x22:0x80002954  x4=0x0000c868
       60885000	      6087	800029f8	00000013	addi	x0,x0,0	  x0:0x00000000
       60895000	      6088	800029fc	3ed34d13	xori	x26,x6,1005	  x6:0x800029d4 x26=0x80002a39
       60905000	      6089	80002a00	00c25463	bge	x4,x12,80002a08	  x4:0x0000c868 x12:0x00000172
       60915000	      6090	00000000	00000013	addi	x0,x0,0	  x0:0x00000000
       60925000	      6091	80002a04	00000013	addi	x0,x0,0	  x0:0x00000000
       60935000	      6092	80002a08	51da7b93	andi	x23,x20,1309	 x20:0x00000090 x23=0x00000010
       60945000	      6093	80002a0c	8c180813	addi	x16,x16,-1855	 x16:0x800029c0 x16=0x80002281
       60955000	      6094	80002a10	03484863	blt	x16,x20,80002a40	 x16:0x80002281 x20:0x00000090
       60965000	      6095	00000000	00000013	addi	x0,x0,0	  x0:0x00000000
       60975000	      6096	80002a3c	00000013	addi	x0,x0,0	  x0:0x00000000
       60985000	      6097	80002a40	01480eb3	add	x29,x16,x20	 x16:0x80002281 x20:0x00000090 x29=0x80002311
       60995000	      6098	80002a44	0187ef33	or	x30,x15,x24	 x15:0x800029a4 x24:0x80002914 x30=0x800029b4
       61005000	      6099	80002a48	426cfd93	andi	x27,x25,1062	 x25:0x00000001 x27=0x00000000
       61015000	      6100	80002a4c	03c34c63	blt	x6,x28,80002a84	  x6:0x800029d4 x28:0x00000000
       61025000	      6101	00000000	00000013	addi	x0,x0,0	  x0:0x00000000
       61035000	      6102	80002a80	00000013	addi	x0,x0,0	  x0:0x00000000
       61045000	      6103	80002a84	00cc33b3	sltu	x7,x24,x12	 x24:0x80002914 x12:0x00000172  x7=0x00000000
       61055000	      6104	80002a88	7c884113	xori	x2,x16,1992	 x16:0x80002281  x2=0x80002549
       61065000	      6105	80002a8c	7aa0ab93	slti	x23,x1,1962	  x1:0x800029e4 x23=0x00000001
       61075000	      6106	80002a90	0197c1b3	xor	x3,x15,x25	 x15:0x800029a4 x25:0x00000001  x3=0x800029a5
       61085000	      6107	80002a94	000c79b3	and	x19,x24,x0	 x24:0x80002914  x0:0x00000000 x19=0x00000000
       61095000	      6108	80002a98	2d17c893	xori	x17,x15,721	 x15:0x800029a4 x17=0x80002b75
       61105000	      6109	80002a9c	00000013	addi	x0,x0,0	  x0:0x00000000
       61115000	      6110	80002aa0	015f1493	slli	x9,x30,0x15	 x30:0x800029b4  x9=0x36800000
       61125000	      6111	80002aa4	011b1693	slli	x13,x22,0x11	 x22:0x80002954 x13=0x52a80000
       61135000	      6112	80002aa8	c44f7513	andi	x10,x30,-956	 x30:0x800029b4 x10=0x80002804
       61145000	      6113	80002aac	c0d71f17	auipc	x30,0xc0d71	 x30=0x40d73aa8
       61155000	      6114	80002ab0	0172ca33	xor	x20,x5,x23	  x5:0x80009fc4 x23:0x00000001 x20=0x80009fc5
       61165000	      6115	80002ab4	41a25a33	sra	x20,x4,x26	  x4:0x0000c868 x26:0x80002a39 x20=0x00000000
       61175000	      6116	80002ab8	c4308813	addi	x16,x1,-957	  x1:0x800029e4 x16=0x80002627
       61185000	      6117	80002abc	7a8a9837	lui	x16,0x7a8a9	 x16=0x7a8a9000
       61195000	      6118	80002ac0	00000013	addi	x0,x0,0	  x0:0x00000000
       61205000	      6119	80002ac4	00000013	addi	x0,x0,0	  x0:0x00000000
       61215000	      6120	80002ac8	a78ff16f	jal	x2,80002ac8	  x2=0x80002ac8
       61225000	      6121	00000000	00000013	addi	x0,x0,0	  x0:0x00000000
       61235000	      6122	80001d3c	00000013	addi	x0,x0,0	  x0:0x00000000
       61245000	      6123	80001d40	21786f17	auipc	x30,0x21786	 x30=0xa1787d3c
       61255000	      6124	80001d44	00415c33	srl	x24,x2,x4	  x2:0x80002ac8  x4:0x0000c868 x24=0x0080002a
       61265000	      6125	80001d48	fe484a13	xori	x20,x16,-28	 x16:0x7a8a9000 x20=0x85756fe4
       61275000	      6126	80001d4c	c01cfc13	andi	x24,x25,-1023	 x25:0x00000001 x24=0x00000001
       61285000	      6127	80001d50	41855693	srai	x13,x10,0x18	 x10:0x80002804 x13=0xffffff80
       61295000	      6128	80001d54	0174dd13	srli	x26,x9,0x17	  x9:0x36800000 x26=0x0000006d
       61305000	      6129	80001d58	dc054b93	xori	x23,x10,-576	 x10:0x80002804 x23=0x7fffd5c4
       61315000	      6130	80001d5c	405e56b3	sra	x13,x28,x5	 x28:0x00000000  x5:0x80009fc4 x13=0x00000000
       61325000	      6131	80001d60	fc058593	addi	x11,x11,-64	 x11:0x80009f14 x11=0x80009ed4
       61335000	      6132	80001d64	0025a223	sw	x2,4(x11)	 x11:0x80009ed4  x2:0x80002ac8 PA:0x80009ed8
       61345000	      6133	80001d68	417dd833	sra	x16,x27,x23	 x27:0x00000000 x23:0x7fffd5c4 x16=0x00000000
       61355000	      6134	80001d6c	0340016f	jal	x2,80001d6c	  x2=0x80001d6c
       61365000	      6135	00000000	00000013	addi	x0,x0,0	  x0:0x00000000
       61375000	      6136	80001d9c	00000013	addi	x0,x0,0	  x0:0x00000000
       61385000	      6137	80001da0	fd1ff0ef	jal	x1,80001da0	  x1=0x80001da0
       61395000	      6138	00000000	00000013	addi	x0,x0,0	  x0:0x00000000
       61405000	      6139	80001d6c	00000013	addi	x0,x0,0	  x0:0x00000000
       61415000	      6140	80001d70	040000ef	jal	x1,80001d70	  x1=0x80001d70
       61425000	      6141	00000000	00000013	addi	x0,x0,0	  x0:0x00000000
       61435000	      6142	80001dac	00000013	addi	x0,x0,0	  x0:0x00000000
       61445000	      6143	80001db0	fd1ff0ef	jal	x1,80001db0	  x1=0x80001db0
       61455000	      6144	00000000	00000013	addi	x0,x0,0	  x0:0x00000000
       61465000	      6145	80001d7c	00000013	addi	x0,x0,0	  x0:0x00000000
       61475000	      6146	80001d80	ffdff0ef	jal	x1,80001d80	  x1=0x80001d80
       61485000	      6147	00000000	00000013	addi	x0,x0,0	  x0:0x00000000
       61495000	      6148	80001d78	00000013	addi	x0,x0,0	  x0:0x00000000
       61505000	      6149	80001d7c	0300036f	jal	x6,80001d7c	  x6=0x80001d7c
       61515000	      6150	00000000	00000013	addi	x0,x0,0	  x0:0x00000000
       61525000	      6151	80001da8	00000013	addi	x0,x0,0	  x0:0x00000000
       61535000	      6152	80001dac	00c004ef	jal	x9,80001dac	  x9=0x80001dac
       61545000	      6153	00000000	00000013	addi	x0,x0,0	  x0:0x00000000
       61555000	      6154	80001db4	00000013	addi	x0,x0,0	  x0:0x00000000
       61565000	      6155	80001db8	fbdff6ef	jal	x13,80001db8	 x13=0x80001db8
       61575000	      6156	00000000	00000013	addi	x0,x0,0	  x0:0x00000000
       61585000	      6157	80001d70	00000013	addi	x0,x0,0	  x0:0x00000000
       61595000	      6158	80001d74	014000ef	jal	x1,80001d74	  x1=0x80001d74
       61605000	      6159	00000000	00000013	addi	x0,x0,0	  x0:0x00000000
       61615000	      6160	80001d84	00000013	addi	x0,x0,0	  x0:0x00000000
       61625000	      6161	80001d88	0400026f	jal	x4,80001d88	  x4=0x80001d88
       61635000	      6162	00000000	00000013	addi	x0,x0,0	  x0:0x00000000
       61645000	      6163	80001dc4	00000013	addi	x0,x0,0	  x0:0x00000000
       61655000	      6164	80001dc8	ffdff0ef	jal	x1,80001dc8	  x1=0x80001dc8
       61665000	      6165	00000000	00000013	addi	x0,x0,0	  x0:0x00000000
       61675000	      6166	80001dc0	00000013	addi	x0,x0,0	  x0:0x00000000
       61685000	      6167	80001dc4	fd1ffb6f	jal	x22,80001dc4	 x22=0x80001dc4
       61695000	      6168	00000000	00000013	addi	x0,x0,0	  x0:0x00000000
       61705000	      6169	80001d90	00000013	addi	x0,x0,0	  x0:0x00000000
       61715000	      6170	80001d94	03c000ef	jal	x1,80001d94	  x1=0x80001d94
       61725000	      6171	00000000	00000013	addi	x0,x0,0	  x0:0x00000000
       61735000	      6172	80001dcc	00000013	addi	x0,x0,0	  x0:0x00000000
       61745000	      6173	80001dd0	fbdff0ef	jal	x1,80001dd0	  x1=0x80001dd0
       61755000	      6174	00000000	00000013	addi	x0,x0,0	  x0:0x00000000
       61765000	      6175	80001d88	00000013	addi	x0,x0,0	  x0:0x00000000
       61775000	      6176	80001d8c	010000ef	jal	x1,80001d8c	  x1=0x80001d8c
       61785000	      6177	00000000	00000013	addi	x0,x0,0	  x0:0x00000000
       61795000	      6178	80001d98	00000013	addi	x0,x0,0	  x0:0x00000000
       61805000	      6179	80001d9c	020000ef	jal	x1,80001d9c	  x1=0x80001d9c
       61815000	      6180	00000000	00000013	addi	x0,x0,0	  x0:0x00000000
       61825000	      6181	80001db8	00000013	addi	x0,x0,0	  x0:0x00000000
       61835000	      6182	80001dbc	fedff0ef	jal	x1,80001dbc	  x1=0x80001dbc
       61845000	      6183	00000000	00000013	addi	x0,x0,0	  x0:0x00000000
       61855000	      6184	80001da4	00000013	addi	x0,x0,0	  x0:0x00000000
       61865000	      6185	80001da8	ffdff0ef	jal	x1,80001da8	  x1=0x80001da8
       61875000	      6186	00000000	00000013	addi	x0,x0,0	  x0:0x00000000
       61885000	      6187	80001da0	00000013	addi	x0,x0,0	  x0:0x00000000
       61895000	      6188	80001da4	fedff0ef	jal	x1,80001da4	  x1=0x80001da4
       61905000	      6189	00000000	00000013	addi	x0,x0,0	  x0:0x00000000
       61915000	      6190	80001d8c	00000013	addi	x0,x0,0	  x0:0x00000000
       61925000	      6191	80001d90	030000ef	jal	x1,80001d90	  x1=0x80001d90
       61935000	      6192	00000000	00000013	addi	x0,x0,0	  x0:0x00000000
       61945000	      6193	80001dbc	00000013	addi	x0,x0,0	  x0:0x00000000
       61955000	      6194	80001dc0	00c0026f	jal	x4,80001dc0	  x4=0x80001dc0
       61965000	      6195	00000000	00000013	addi	x0,x0,0	  x0:0x00000000
       61975000	      6196	80001dc8	00000013	addi	x0,x0,0	  x0:0x00000000
       61985000	      6197	80001dcc	fe9ff36f	jal	x6,80001dcc	  x6=0x80001dcc
       61995000	      6198	00000000	00000013	addi	x0,x0,0	  x0:0x00000000
       62005000	      6199	80001db0	00000013	addi	x0,x0,0	  x0:0x00000000
       62015000	      6200	80001db4	fe5ff0ef	jal	x1,80001db4	  x1=0x80001db4
       62025000	      6201	00000000	00000013	addi	x0,x0,0	  x0:0x00000000
       62035000	      6202	80001d94	00000013	addi	x0,x0,0	  x0:0x00000000
       62045000	      6203	80001d98	fe1ff0ef	jal	x1,80001d98	  x1=0x80001d98
       62055000	      6204	00000000	00000013	addi	x0,x0,0	  x0:0x00000000
       62065000	      6205	80001d74	00000013	addi	x0,x0,0	  x0:0x00000000
       62075000	      6206	80001d78	00c0016f	jal	x2,80001d78	  x2=0x80001d78
       62085000	      6207	00000000	00000013	addi	x0,x0,0	  x0:0x00000000
       62095000	      6208	80001d80	00000013	addi	x0,x0,0	  x0:0x00000000
       62105000	      6209	80001d84	050001ef	jal	x3,80001d84	  x3=0x80001d84
       62115000	      6210	00000000	00000013	addi	x0,x0,0	  x0:0x00000000
       62125000	      6211	80001dd0	00000013	addi	x0,x0,0	  x0:0x00000000
       62135000	      6212	80001dd4	01feb833	sltu	x16,x29,x31	 x29:0x80002311 x31:0x800029dc x16=0x00000001
       62145000	      6213	80001dd8	04c0016f	jal	x2,80001dd8	  x2=0x80001dd8
       62155000	      6214	00000000	00000013	addi	x0,x0,0	  x0:0x00000000
       62165000	      6215	80001e20	00000013	addi	x0,x0,0	  x0:0x00000000
       62175000	      6216	80001e24	ff1ff0ef	jal	x1,80001e24	  x1=0x80001e24
       62185000	      6217	00000000	00000013	addi	x0,x0,0	  x0:0x00000000
       62195000	      6218	80001e10	00000013	addi	x0,x0,0	  x0:0x00000000
       62205000	      6219	80001e14	01c000ef	jal	x1,80001e14	  x1=0x80001e14
       62215000	      6220	00000000	00000013	addi	x0,x0,0	  x0:0x00000000
       62225000	      6221	80001e2c	00000013	addi	x0,x0,0	  x0:0x00000000
       62235000	      6222	80001e30	fc5ff0ef	jal	x1,80001e30	  x1=0x80001e30
       62245000	      6223	00000000	00000013	addi	x0,x0,0	  x0:0x00000000
       62255000	      6224	80001df0	00000013	addi	x0,x0,0	  x0:0x00000000
       62265000	      6225	80001df4	038000ef	jal	x1,80001df4	  x1=0x80001df4
       62275000	      6226	00000000	00000013	addi	x0,x0,0	  x0:0x00000000
       62285000	      6227	80001e28	00000013	addi	x0,x0,0	  x0:0x00000000
       62295000	      6228	80001e2c	fc1ff0ef	jal	x1,80001e2c	  x1=0x80001e2c
       62305000	      6229	00000000	00000013	addi	x0,x0,0	  x0:0x00000000
       62315000	      6230	80001de8	00000013	addi	x0,x0,0	  x0:0x00000000
       62325000	      6231	80001dec	010000ef	jal	x1,80001dec	  x1=0x80001dec
       62335000	      6232	00000000	00000013	addi	x0,x0,0	  x0:0x00000000
       62345000	      6233	80001df8	00000013	addi	x0,x0,0	  x0:0x00000000
       62355000	      6234	80001dfc	0500036f	jal	x6,80001dfc	  x6=0x80001dfc
       62365000	      6235	00000000	00000013	addi	x0,x0,0	  x0:0x00000000
       62375000	      6236	80001e48	00000013	addi	x0,x0,0	  x0:0x00000000
       62385000	      6237	80001e4c	fd1ff0ef	jal	x1,80001e4c	  x1=0x80001e4c
       62395000	      6238	00000000	00000013	addi	x0,x0,0	  x0:0x00000000
       62405000	      6239	80001e18	00000013	addi	x0,x0,0	  x0:0x00000000
       62415000	      6240	80001e1c	0280026f	jal	x4,80001e1c	  x4=0x80001e1c
       62425000	      6241	00000000	00000013	addi	x0,x0,0	  x0:0x00000000
       62435000	      6242	80001e40	00000013	addi	x0,x0,0	  x0:0x00000000
       62445000	      6243	80001e44	fa1ff0ef	jal	x1,80001e44	  x1=0x80001e44
       62455000	      6244	00000000	00000013	addi	x0,x0,0	  x0:0x00000000
       62465000	      6245	80001de0	00000013	addi	x0,x0,0	  x0:0x00000000
       62475000	      6246	80001de4	ffdff0ef	jal	x1,80001de4	  x1=0x80001de4
       62485000	      6247	00000000	00000013	addi	x0,x0,0	  x0:0x00000000
       62495000	      6248	80001ddc	00000013	addi	x0,x0,0	  x0:0x00000000
       62505000	      6249	80001de0	0580016f	jal	x2,80001de0	  x2=0x80001de0
       62515000	      6250	00000000	00000013	addi	x0,x0,0	  x0:0x00000000
       62525000	      6251	80001e34	00000013	addi	x0,x0,0	  x0:0x00000000
       62535000	      6252	80001e38	008000ef	jal	x1,80001e38	  x1=0x80001e38
       62545000	      6253	00000000	00000013	addi	x0,x0,0	  x0:0x00000000
       62555000	      6254	80001e3c	00000013	addi	x0,x0,0	  x0:0x00000000
       62565000	      6255	80001e40	ffdff9ef	jal	x19,80001e40	 x19=0x80001e40
       62575000	      6256	00000000	00000013	addi	x0,x0,0	  x0:0x00000000
       62585000	      6257	80001e38	00000013	addi	x0,x0,0	  x0:0x00000000
       62595000	      6258	80001e3c	00c00c6f	jal	x24,80001e3c	 x24=0x80001e3c
       62605000	      6259	00000000	00000013	addi	x0,x0,0	  x0:0x00000000
       62615000	      6260	80001e44	00000013	addi	x0,x0,0	  x0:0x00000000
       62625000	      6261	80001e48	fbdffbef	jal	x23,80001e48	 x23=0x80001e48
       62635000	      6262	00000000	00000013	addi	x0,x0,0	  x0:0x00000000
       62645000	      6263	80001e00	00000013	addi	x0,x0,0	  x0:0x00000000
       62655000	      6264	80001e04	0300036f	jal	x6,80001e04	  x6=0x80001e04
       62665000	      6265	00000000	00000013	addi	x0,x0,0	  x0:0x00000000
       62675000	      6266	80001e30	00000013	addi	x0,x0,0	  x0:0x00000000
       62685000	      6267	80001e34	fc5ff0ef	jal	x1,80001e34	  x1=0x80001e34
       62695000	      6268	00000000	00000013	addi	x0,x0,0	  x0:0x00000000
       62705000	      6269	80001df4	00000013	addi	x0,x0,0	  x0:0x00000000
       62715000	      6270	80001df8	018000ef	jal	x1,80001df8	  x1=0x80001df8
       62725000	      6271	00000000	00000013	addi	x0,x0,0	  x0:0x00000000
       62735000	      6272	80001e0c	00000013	addi	x0,x0,0	  x0:0x00000000
       62745000	      6273	80001e10	ff1ff36f	jal	x6,80001e10	  x6=0x80001e10
       62755000	      6274	00000000	00000013	addi	x0,x0,0	  x0:0x00000000
       62765000	      6275	80001dfc	00000013	addi	x0,x0,0	  x0:0x00000000
       62775000	      6276	80001e00	fe9ff0ef	jal	x1,80001e00	  x1=0x80001e00
       62785000	      6277	00000000	00000013	addi	x0,x0,0	  x0:0x00000000
       62795000	      6278	80001de4	00000013	addi	x0,x0,0	  x0:0x00000000
       62805000	      6279	80001de8	0200036f	jal	x6,80001de8	  x6=0x80001de8
       62815000	      6280	00000000	00000013	addi	x0,x0,0	  x0:0x00000000
       62825000	      6281	80001e04	00000013	addi	x0,x0,0	  x0:0x00000000
       62835000	      6282	80001e08	0200036f	jal	x6,80001e08	  x6=0x80001e08
       62845000	      6283	00000000	00000013	addi	x0,x0,0	  x0:0x00000000
       62855000	      6284	80001e24	00000013	addi	x0,x0,0	  x0:0x00000000
       62865000	      6285	80001e28	fb5ff0ef	jal	x1,80001e28	  x1=0x80001e28
       62875000	      6286	00000000	00000013	addi	x0,x0,0	  x0:0x00000000
       62885000	      6287	80001dd8	00000013	addi	x0,x0,0	  x0:0x00000000
       62895000	      6288	80001ddc	044000ef	jal	x1,80001ddc	  x1=0x80001ddc
       62905000	      6289	00000000	00000013	addi	x0,x0,0	  x0:0x00000000
       62915000	      6290	80001e1c	00000013	addi	x0,x0,0	  x0:0x00000000
       62925000	      6291	80001e20	fd1ff1ef	jal	x3,80001e20	  x3=0x80001e20
       62935000	      6292	00000000	00000013	addi	x0,x0,0	  x0:0x00000000
       62945000	      6293	80001dec	00000013	addi	x0,x0,0	  x0:0x00000000
       62955000	      6294	80001df0	01c00b6f	jal	x22,80001df0	 x22=0x80001df0
       62965000	      6295	00000000	00000013	addi	x0,x0,0	  x0:0x00000000
       62975000	      6296	80001e08	00000013	addi	x0,x0,0	  x0:0x00000000
       62985000	      6297	80001e0c	00c000ef	jal	x1,80001e0c	  x1=0x80001e0c
       62995000	      6298	00000000	00000013	addi	x0,x0,0	  x0:0x00000000
       63005000	      6299	80001e14	00000013	addi	x0,x0,0	  x0:0x00000000
       63015000	      6300	80001e18	038000ef	jal	x1,80001e18	  x1=0x80001e18
       63025000	      6301	00000000	00000013	addi	x0,x0,0	  x0:0x00000000
       63035000	      6302	80001e4c	00000013	addi	x0,x0,0	  x0:0x00000000
       63045000	      6303	80001e50	41e75913	srai	x18,x14,0x1e	 x14:0x00800028 x18=0x00000000
       63055000	      6304	80001e54	00c0016f	jal	x2,80001e54	  x2=0x80001e54
       63065000	      6305	00000000	00000013	addi	x0,x0,0	  x0:0x00000000
       63075000	      6306	80001e5c	00000013	addi	x0,x0,0	  x0:0x00000000
       63085000	      6307	80001e60	ff9ff0ef	jal	x1,80001e60	  x1=0x80001e60
       63095000	      6308	00000000	00000013	addi	x0,x0,0	  x0:0x00000000
       63105000	      6309	80001e54	00000013	addi	x0,x0,0	  x0:0x00000000
       63115000	      6310	80001e58	0340056f	jal	x10,80001e58	 x10=0x80001e58
       63125000	      6311	00000000	00000013	addi	x0,x0,0	  x0:0x00000000
       63135000	      6312	80001e88	00000013	addi	x0,x0,0	  x0:0x00000000
       63145000	      6313	80001e8c	fedff0ef	jal	x1,80001e8c	  x1=0x80001e8c
       63155000	      6314	00000000	00000013	addi	x0,x0,0	  x0:0x00000000
       63165000	      6315	80001e74	00000013	addi	x0,x0,0	  x0:0x00000000
       63175000	      6316	80001e78	fedff0ef	jal	x1,80001e78	  x1=0x80001e78
       63185000	      6317	00000000	00000013	addi	x0,x0,0	  x0:0x00000000
       63195000	      6318	80001e60	00000013	addi	x0,x0,0	  x0:0x00000000
       63205000	      6319	80001e64	020000ef	jal	x1,80001e64	  x1=0x80001e64
       63215000	      6320	00000000	00000013	addi	x0,x0,0	  x0:0x00000000
       63225000	      6321	80001e80	00000013	addi	x0,x0,0	  x0:0x00000000
       63235000	      6322	80001e84	fe9ff0ef	jal	x1,80001e84	  x1=0x80001e84
       63245000	      6323	00000000	00000013	addi	x0,x0,0	  x0:0x00000000
       63255000	      6324	80001e68	00000013	addi	x0,x0,0	  x0:0x00000000
       63265000	      6325	80001e6c	0100036f	jal	x6,80001e6c	  x6=0x80001e6c
       63275000	      6326	00000000	00000013	addi	x0,x0,0	  x0:0x00000000
       63285000	      6327	80001e78	00000013	addi	x0,x0,0	  x0:0x00000000
       63295000	      6328	80001e7c	00400f6f	jal	x30,80001e7c	 x30=0x80001e7c
       63305000	      6329	00000000	00000013	addi	x0,x0,0	  x0:0x00000000
       63315000	      6330	80001e7c	00000013	addi	x0,x0,0	  x0:0x00000000
       63325000	      6331	80001e80	01000def	jal	x27,80001e80	 x27=0x80001e80
       63335000	      6332	00000000	00000013	addi	x0,x0,0	  x0:0x00000000
       63345000	      6333	80001e8c	00000013	addi	x0,x0,0	  x0:0x00000000
       63355000	      6334	80001e90	ff9ff0ef	jal	x1,80001e90	  x1=0x80001e90
       63365000	      6335	00000000	00000013	addi	x0,x0,0	  x0:0x00000000
       63375000	      6336	80001e84	00000013	addi	x0,x0,0	  x0:0x00000000
       63385000	      6337	80001e88	00c0066f	jal	x12,80001e88	 x12=0x80001e88
       63395000	      6338	00000000	00000013	addi	x0,x0,0	  x0:0x00000000
       63405000	      6339	80001e90	00000013	addi	x0,x0,0	  x0:0x00000000
       63415000	      6340	80001e94	004000ef	jal	x1,80001e94	  x1=0x80001e94
       63425000	      6341	00000000	00000013	addi	x0,x0,0	  x0:0x00000000
       63435000	      6342	80001e94	00000013	addi	x0,x0,0	  x0:0x00000000
       63445000	      6343	80001e98	fddff36f	jal	x6,80001e98	  x6=0x80001e98
       63455000	      6344	00000000	00000013	addi	x0,x0,0	  x0:0x00000000
       63465000	      6345	80001e70	00000013	addi	x0,x0,0	  x0:0x00000000
       63475000	      6346	80001e74	ff5ff0ef	jal	x1,80001e74	  x1=0x80001e74
       63485000	      6347	00000000	00000013	addi	x0,x0,0	  x0:0x00000000
       63495000	      6348	80001e64	00000013	addi	x0,x0,0	  x0:0x00000000
       63505000	      6349	80001e68	034000ef	jal	x1,80001e68	  x1=0x80001e68
       63515000	      6350	00000000	00000013	addi	x0,x0,0	  x0:0x00000000
       63525000	      6351	80001e98	00000013	addi	x0,x0,0	  x0:0x00000000
       63535000	      6352	80001e9c	fd5ff0ef	jal	x1,80001e9c	  x1=0x80001e9c
       63545000	      6353	00000000	00000013	addi	x0,x0,0	  x0:0x00000000
       63555000	      6354	80001e6c	00000013	addi	x0,x0,0	  x0:0x00000000
       63565000	      6355	80001e70	0300036f	jal	x6,80001e70	  x6=0x80001e70
       63575000	      6356	00000000	00000013	addi	x0,x0,0	  x0:0x00000000
       63585000	      6357	80001e9c	00000013	addi	x0,x0,0	  x0:0x00000000
       63595000	      6358	80001ea0	fbdff46f	jal	x8,80001ea0	  x8=0x80001ea0
       63605000	      6359	00000000	00000013	addi	x0,x0,0	  x0:0x00000000
       63615000	      6360	80001e58	00000013	addi	x0,x0,0	  x0:0x00000000
       63625000	      6361	80001e5c	04800bef	jal	x23,80001e5c	 x23=0x80001e5c
       63635000	      6362	00000000	00000013	addi	x0,x0,0	  x0:0x00000000
       63645000	      6363	80001ea0	00000013	addi	x0,x0,0	  x0:0x00000000
       63655000	      6364	80001ea4	0137e0b3	or	x1,x15,x19	 x15:0x800029a4 x19:0x80001e40  x1=0x80003fe4
       63665000	      6365	80001ea8	0040016f	jal	x2,80001ea8	  x2=0x80001ea8
       63675000	      6366	00000000	00000013	addi	x0,x0,0	  x0:0x00000000
       63685000	      6367	80001ea8	00000013	addi	x0,x0,0	  x0:0x00000000
       63695000	      6368	80001eac	0440096f	jal	x18,80001eac	 x18=0x80001eac
       63705000	      6369	00000000	00000013	addi	x0,x0,0	  x0:0x00000000
       63715000	      6370	80001eec	00000013	addi	x0,x0,0	  x0:0x00000000
       63725000	      6371	80001ef0	010000ef	jal	x1,80001ef0	  x1=0x80001ef0
       63735000	      6372	00000000	00000013	addi	x0,x0,0	  x0:0x00000000
       63745000	      6373	80001efc	00000013	addi	x0,x0,0	  x0:0x00000000
       63755000	      6374	80001f00	010000ef	jal	x1,80001f00	  x1=0x80001f00
       63765000	      6375	00000000	00000013	addi	x0,x0,0	  x0:0x00000000
       63775000	      6376	80001f0c	00000013	addi	x0,x0,0	  x0:0x00000000
       63785000	      6377	80001f10	fa1ff0ef	jal	x1,80001f10	  x1=0x80001f10
       63795000	      6378	00000000	00000013	addi	x0,x0,0	  x0:0x00000000
       63805000	      6379	80001eac	00000013	addi	x0,x0,0	  x0:0x00000000
       63815000	      6380	80001eb0	018009ef	jal	x19,80001eb0	 x19=0x80001eb0
       63825000	      6381	00000000	00000013	addi	x0,x0,0	  x0:0x00000000
       63835000	      6382	80001ec4	00000013	addi	x0,x0,0	  x0:0x00000000
       63845000	      6383	80001ec8	014007ef	jal	x15,80001ec8	 x15=0x80001ec8
       63855000	      6384	00000000	00000013	addi	x0,x0,0	  x0:0x00000000
       63865000	      6385	80001ed8	00000013	addi	x0,x0,0	  x0:0x00000000
       63875000	      6386	80001edc	004000ef	jal	x1,80001edc	  x1=0x80001edc
       63885000	      6387	00000000	00000013	addi	x0,x0,0	  x0:0x00000000
       63895000	      6388	80001edc	00000013	addi	x0,x0,0	  x0:0x00000000
       63905000	      6389	80001ee0	0140016f	jal	x2,80001ee0	  x2=0x80001ee0
       63915000	      6390	00000000	00000013	addi	x0,x0,0	  x0:0x00000000
       63925000	      6391	80001ef0	00000013	addi	x0,x0,0	  x0:0x00000000
       63935000	      6392	80001ef4	fe5ff0ef	jal	x1,80001ef4	  x1=0x80001ef4
       63945000	      6393	00000000	00000013	addi	x0,x0,0	  x0:0x00000000
       63955000	      6394	80001ed4	00000013	addi	x0,x0,0	  x0:0x00000000
       63965000	      6395	80001ed8	0140036f	jal	x6,80001ed8	  x6=0x80001ed8
       63975000	      6396	00000000	00000013	addi	x0,x0,0	  x0:0x00000000
       63985000	      6397	80001ee8	00000013	addi	x0,x0,0	  x0:0x00000000
       63995000	      6398	80001eec	fd9ff0ef	jal	x1,80001eec	  x1=0x80001eec
       64005000	      6399	00000000	00000013	addi	x0,x0,0	  x0:0x00000000
       64015000	      6400	80001ec0	00000013	addi	x0,x0,0	  x0:0x00000000
       64025000	      6401	80001ec4	034006ef	jal	x13,80001ec4	 x13=0x80001ec4
       64035000	      6402	00000000	00000013	addi	x0,x0,0	  x0:0x00000000
       64045000	      6403	80001ef4	00000013	addi	x0,x0,0	  x0:0x00000000
       64055000	      6404	80001ef8	fd9ff0ef	jal	x1,80001ef8	  x1=0x80001ef8
       64065000	      6405	00000000	00000013	addi	x0,x0,0	  x0:0x00000000
       64075000	      6406	80001ecc	00000013	addi	x0,x0,0	  x0:0x00000000
       64085000	      6407	80001ed0	fe9ff36f	jal	x6,80001ed0	  x6=0x80001ed0
       64095000	      6408	00000000	00000013	addi	x0,x0,0	  x0:0x00000000
       64105000	      6409	80001eb4	00000013	addi	x0,x0,0	  x0:0x00000000
       64115000	      6410	80001eb8	0140036f	jal	x6,80001eb8	  x6=0x80001eb8
       64125000	      6411	00000000	00000013	addi	x0,x0,0	  x0:0x00000000
       64135000	      6412	80001ec8	00000013	addi	x0,x0,0	  x0:0x00000000
       64145000	      6413	80001ecc	040000ef	jal	x1,80001ecc	  x1=0x80001ecc
       64155000	      6414	00000000	00000013	addi	x0,x0,0	  x0:0x00000000
       64165000	      6415	80001f08	00000013	addi	x0,x0,0	  x0:0x00000000
       64175000	      6416	80001f0c	ff9ff76f	jal	x14,80001f0c	 x14=0x80001f0c
       64185000	      6417	00000000	00000013	addi	x0,x0,0	  x0:0x00000000
       64195000	      6418	80001f00	00000013	addi	x0,x0,0	  x0:0x00000000
       64205000	      6419	80001f04	004009ef	jal	x19,80001f04	 x19=0x80001f04
       64215000	      6420	00000000	00000013	addi	x0,x0,0	  x0:0x00000000
       64225000	      6421	80001f04	00000013	addi	x0,x0,0	  x0:0x00000000
       64235000	      6422	80001f08	ff5ff0ef	jal	x1,80001f08	  x1=0x80001f08
       64245000	      6423	00000000	00000013	addi	x0,x0,0	  x0:0x00000000
       64255000	      6424	80001ef8	00000013	addi	x0,x0,0	  x0:0x00000000
       64265000	      6425	80001efc	fd9ff16f	jal	x2,80001efc	  x2=0x80001efc
       64275000	      6426	00000000	00000013	addi	x0,x0,0	  x0:0x00000000
       64285000	      6427	80001ed0	00000013	addi	x0,x0,0	  x0:0x00000000
       64295000	      6428	80001ed4	fedff0ef	jal	x1,80001ed4	  x1=0x80001ed4
       64305000	      6429	00000000	00000013	addi	x0,x0,0	  x0:0x00000000
       64315000	      6430	80001ebc	00000013	addi	x0,x0,0	  x0:0x00000000
       64325000	      6431	80001ec0	0280016f	jal	x2,80001ec0	  x2=0x80001ec0
       64335000	      6432	00000000	00000013	addi	x0,x0,0	  x0:0x00000000
       64345000	      6433	80001ee4	00000013	addi	x0,x0,0	  x0:0x00000000
       64355000	      6434	80001ee8	fd5ff0ef	jal	x1,80001ee8	  x1=0x80001ee8
       64365000	      6435	00000000	00000013	addi	x0,x0,0	  x0:0x00000000
       64375000	      6436	80001eb8	00000013	addi	x0,x0,0	  x0:0x00000000
       64385000	      6437	80001ebc	ff9ff0ef	jal	x1,80001ebc	  x1=0x80001ebc
       64395000	      6438	00000000	00000013	addi	x0,x0,0	  x0:0x00000000
       64405000	      6439	80001eb0	00000013	addi	x0,x0,0	  x0:0x00000000
       64415000	      6440	80001eb4	030000ef	jal	x1,80001eb4	  x1=0x80001eb4
       64425000	      6441	00000000	00000013	addi	x0,x0,0	  x0:0x00000000
       64435000	      6442	80001ee0	00000013	addi	x0,x0,0	  x0:0x00000000
       64445000	      6443	80001ee4	03000b6f	jal	x22,80001ee4	 x22=0x80001ee4
       64455000	      6444	00000000	00000013	addi	x0,x0,0	  x0:0x00000000
       64465000	      6445	80001f10	00000013	addi	x0,x0,0	  x0:0x00000000
       64475000	      6446	80001f14	05efff93	andi	x31,x31,94	 x31:0x800029dc x31=0x0000005c
       64485000	      6447	80001f18	0500016f	jal	x2,80001f18	  x2=0x80001f18
       64495000	      6448	00000000	00000013	addi	x0,x0,0	  x0:0x00000000
       64505000	      6449	80001f64	00000013	addi	x0,x0,0	  x0:0x00000000
       64515000	      6450	80001f68	01c000ef	jal	x1,80001f68	  x1=0x80001f68
       64525000	      6451	00000000	00000013	addi	x0,x0,0	  x0:0x00000000
       64535000	      6452	80001f80	00000013	addi	x0,x0,0	  x0:0x00000000
       64545000	      6453	80001f84	fd5ff0ef	jal	x1,80001f84	  x1=0x80001f84
       64555000	      6454	00000000	00000013	addi	x0,x0,0	  x0:0x00000000
       64565000	      6455	80001f54	00000013	addi	x0,x0,0	  x0:0x00000000
       64575000	      6456	80001f58	fd5ff36f	jal	x6,80001f58	  x6=0x80001f58
       64585000	      6457	00000000	00000013	addi	x0,x0,0	  x0:0x00000000
       64595000	      6458	80001f28	00000013	addi	x0,x0,0	  x0:0x00000000
       64605000	      6459	80001f2c	00c0036f	jal	x6,80001f2c	  x6=0x80001f2c
       64615000	      6460	00000000	00000013	addi	x0,x0,0	  x0:0x00000000
       64625000	      6461	80001f34	00000013	addi	x0,x0,0	  x0:0x00000000
       64635000	      6462	80001f38	ffdff16f	jal	x2,80001f38	  x2=0x80001f38
       64645000	      6463	00000000	00000013	addi	x0,x0,0	  x0:0x00000000
       64655000	      6464	80001f30	00000013	addi	x0,x0,0	  x0:0x00000000
       64665000	      6465	80001f34	ff1ffc6f	jal	x24,80001f34	 x24=0x80001f34
       64675000	      6466	00000000	00000013	addi	x0,x0,0	  x0:0x00000000
       64685000	      6467	80001f20	00000013	addi	x0,x0,0	  x0:0x00000000
       64695000	      6468	80001f24	0500036f	jal	x6,80001f24	  x6=0x80001f24
       64705000	      6469	00000000	00000013	addi	x0,x0,0	  x0:0x00000000
       64715000	      6470	80001f70	00000013	addi	x0,x0,0	  x0:0x00000000
       64725000	      6471	80001f74	fcdff0ef	jal	x1,80001f74	  x1=0x80001f74
       64735000	      6472	00000000	00000013	addi	x0,x0,0	  x0:0x00000000
       64745000	      6473	80001f3c	00000013	addi	x0,x0,0	  x0:0x00000000
       64755000	      6474	80001f40	030000ef	jal	x1,80001f40	  x1=0x80001f40
       64765000	      6475	00000000	00000013	addi	x0,x0,0	  x0:0x00000000
       64775000	      6476	80001f6c	00000013	addi	x0,x0,0	  x0:0x00000000
       64785000	      6477	80001f70	fd5ff0ef	jal	x1,80001f70	  x1=0x80001f70
       64795000	      6478	00000000	00000013	addi	x0,x0,0	  x0:0x00000000
       64805000	      6479	80001f40	00000013	addi	x0,x0,0	  x0:0x00000000
       64815000	      6480	80001f44	010000ef	jal	x1,80001f44	  x1=0x80001f44
       64825000	      6481	00000000	00000013	addi	x0,x0,0	  x0:0x00000000
       64835000	      6482	80001f50	00000013	addi	x0,x0,0	  x0:0x00000000
       64845000	      6483	80001f54	fcdff36f	jal	x6,80001f54	  x6=0x80001f54
       64855000	      6484	00000000	00000013	addi	x0,x0,0	  x0:0x00000000
       64865000	      6485	80001f1c	00000013	addi	x0,x0,0	  x0:0x00000000
       64875000	      6486	80001f20	01c000ef	jal	x1,80001f20	  x1=0x80001f20
       64885000	      6487	00000000	00000013	addi	x0,x0,0	  x0:0x00000000
       64895000	      6488	80001f38	00000013	addi	x0,x0,0	  x0:0x00000000
       64905000	      6489	80001f3c	040000ef	jal	x1,80001f3c	  x1=0x80001f3c
       64915000	      6490	00000000	00000013	addi	x0,x0,0	  x0:0x00000000
       64925000	      6491	80001f78	00000013	addi	x0,x0,0	  x0:0x00000000
       64935000	      6492	80001f7c	fe5ff16f	jal	x2,80001f7c	  x2=0x80001f7c
       64945000	      6493	00000000	00000013	addi	x0,x0,0	  x0:0x00000000
       64955000	      6494	80001f5c	00000013	addi	x0,x0,0	  x0:0x00000000
       64965000	      6495	80001f60	fc9ff0ef	jal	x1,80001f60	  x1=0x80001f60
       64975000	      6496	00000000	00000013	addi	x0,x0,0	  x0:0x00000000
       64985000	      6497	80001f24	00000013	addi	x0,x0,0	  x0:0x00000000
       64995000	      6498	80001f28	0580026f	jal	x4,80001f28	  x4=0x80001f28
       65005000	      6499	00000000	00000013	addi	x0,x0,0	  x0:0x00000000
       65015000	      6500	80001f7c	00000013	addi	x0,x0,0	  x0:0x00000000
       65025000	      6501	80001f80	ff9ff0ef	jal	x1,80001f80	  x1=0x80001f80
       65035000	      6502	00000000	00000013	addi	x0,x0,0	  x0:0x00000000
       65045000	      6503	80001f74	00000013	addi	x0,x0,0	  x0:0x00000000
       65055000	      6504	80001f78	fd1ff46f	jal	x8,80001f78	  x8=0x80001f78
       65065000	      6505	00000000	00000013	addi	x0,x0,0	  x0:0x00000000
       65075000	      6506	80001f44	00000013	addi	x0,x0,0	  x0:0x00000000
       65085000	      6507	80001f48	0240026f	jal	x4,80001f48	  x4=0x80001f48
       65095000	      6508	00000000	00000013	addi	x0,x0,0	  x0:0x00000000
       65105000	      6509	80001f68	00000013	addi	x0,x0,0	  x0:0x00000000
       65115000	      6510	80001f6c	01c0036f	jal	x6,80001f6c	  x6=0x80001f6c
       65125000	      6511	00000000	00000013	addi	x0,x0,0	  x0:0x00000000
       65135000	      6512	80001f84	00000013	addi	x0,x0,0	  x0:0x00000000
       65145000	      6513	80001f88	fd5ff0ef	jal	x1,80001f88	  x1=0x80001f88
       65155000	      6514	00000000	00000013	addi	x0,x0,0	  x0:0x00000000
       65165000	      6515	80001f58	00000013	addi	x0,x0,0	  x0:0x00000000
       65175000	      6516	80001f5c	ff1ff9ef	jal	x19,80001f5c	 x19=0x80001f5c
       65185000	      6517	00000000	00000013	addi	x0,x0,0	  x0:0x00000000
       65195000	      6518	80001f48	00000013	addi	x0,x0,0	  x0:0x00000000
       65205000	      6519	80001f4c	018000ef	jal	x1,80001f4c	  x1=0x80001f4c
       65215000	      6520	00000000	00000013	addi	x0,x0,0	  x0:0x00000000
       65225000	      6521	80001f60	00000013	addi	x0,x0,0	  x0:0x00000000
       65235000	      6522	80001f64	fedff36f	jal	x6,80001f64	  x6=0x80001f64
       65245000	      6523	00000000	00000013	addi	x0,x0,0	  x0:0x00000000
       65255000	      6524	80001f4c	00000013	addi	x0,x0,0	  x0:0x00000000
       65265000	      6525	80001f50	fe1ff0ef	jal	x1,80001f50	  x1=0x80001f50
       65275000	      6526	00000000	00000013	addi	x0,x0,0	  x0:0x00000000
       65285000	      6527	80001f2c	00000013	addi	x0,x0,0	  x0:0x00000000
       65295000	      6528	80001f30	fedff0ef	jal	x1,80001f30	  x1=0x80001f30
       65305000	      6529	00000000	00000013	addi	x0,x0,0	  x0:0x00000000
       65315000	      6530	80001f18	00000013	addi	x0,x0,0	  x0:0x00000000
       65325000	      6531	80001f1c	07000a6f	jal	x20,80001f1c	 x20=0x80001f1c
       65335000	      6532	00000000	00000013	addi	x0,x0,0	  x0:0x00000000
       65345000	      6533	80001f88	00000013	addi	x0,x0,0	  x0:0x00000000
       65355000	      6534	80001f8c	01f49193	slli	x3,x9,0x1f	  x9:0x80001dac  x3=0x00000000
       65365000	      6535	80001f90	99d8a993	slti	x19,x17,-1635	 x17:0x80002b75 x19=0x00000001
       65375000	      6536	80001f94	00811493	slli	x9,x2,0x8	  x2:0x80001f7c  x9=0x001f7c00
       65385000	      6537	80001f98	015cb233	sltu	x4,x25,x21	 x25:0x00000001 x21:0x000003a8  x4=0x00000001
       65395000	      6538	80001f9c	573fb493	sltiu	x9,x31,1395	 x31:0x0000005c  x9=0x00000001
       65405000	      6539	80001fa0	01297233	and	x4,x18,x18	 x18:0x80001eac x18:0x80001eac  x4=0x80001eac
       65415000	      6540	80001fa4	0103bb33	sltu	x22,x7,x16	  x7:0x00000000 x16:0x00000001 x22=0x00000001
       65425000	      6541	80001fa8	41f05ab3	sra	x21,x0,x31	  x0:0x00000000 x31:0x0000005c x21=0x00000000
       65435000	      6542	80001fac	a6fcc793	xori	x15,x25,-1425	 x25:0x00000001 x15=0xfffffa6e
       65445000	      6543	80001fb0	18777c93	andi	x25,x14,391	 x14:0x80001f0c x25=0x00000104
       65455000	      6544	80001fb4	01c3dbb3	srl	x23,x7,x28	  x7:0x00000000 x28:0x00000000 x23=0x00000000
       65465000	      6545	80001fb8	63cacb93	xori	x23,x21,1596	 x21:0x00000000 x23=0x0000063c
       65475000	      6546	80001fbc	00630eb3	add	x29,x6,x6	  x6:0x80001f64  x6:0x80001f64 x29=0x00003ec8
       65485000	      6547	80001fc0	04664263	blt	x12,x6,80002004	 x12:0x80001e88  x6:0x80001f64
       65495000	      6548	00000000	00000013	addi	x0,x0,0	  x0:0x00000000
       65505000	      6549	80002000	00000013	addi	x0,x0,0	  x0:0x00000000
       65515000	      6550	80002004	007e0533	add	x10,x28,x7	 x28:0x00000000  x7:0x00000000 x10=0x00000000
       65525000	      6551	80002008	03265463	bge	x12,x18,80002030	 x12:0x80001e88 x18:0x80001eac
       65535000	      6552	8000200c	01885393	srli	x7,x16,0x18	 x16:0x00000001  x7=0x00000000
       65545000	      6553	80002010	01c5db13	srli	x22,x11,0x1c	 x11:0x80009ed4 x22=0x00000008
       65555000	      6554	80002014	57127393	andi	x7,x4,1393	  x4:0x80001eac  x7=0x00000420
       65565000	      6555	80002018	b691cd13	xori	x26,x3,-1175	  x3:0x00000000 x26=0xfffffb69
       65575000	      6556	8000201c	013411b3	sll	x3,x8,x19	  x8:0x80001f78 x19:0x00000001  x3=0x00003ef0
       65585000	      6557	80002020	0052bbb3	sltu	x23,x5,x5	  x5:0x80009fc4  x5:0x80009fc4 x23=0x00000000
       65595000	      6558	80002024	018868b3	or	x17,x16,x24	 x16:0x00000001 x24:0x80001f34 x17=0x80001f35
       65605000	      6559	80002028	001c0663	beq	x24,x1,80002034	 x24:0x80001f34  x1:0x80001f30
       65615000	      6560	8000202c	40578cb3	sub	x25,x15,x5	 x15:0xfffffa6e  x5:0x80009fc4 x25=0x7fff5aaa
       65625000	      6561	80002030	6af33793	sltiu	x15,x6,1711	  x6:0x80001f64 x15=0x00000000
       65635000	      6562	80002034	01016b33	or	x22,x2,x16	  x2:0x80001f7c x16:0x00000001 x22=0x80001f7d
       65645000	      6563	80002038	00941e63	bne	x8,x9,80002054	  x8:0x80001f78  x9:0x00000001
       65655000	      6564	00000000	00000013	addi	x0,x0,0	  x0:0x00000000
       65665000	      6565	80002050	00000013	addi	x0,x0,0	  x0:0x00000000
       65675000	      6566	80002054	00e75493	srli	x9,x14,0xe	 x14:0x80001f0c  x9=0x00020000
       65685000	      6567	80002058	00000013	addi	x0,x0,0	  x0:0x00000000
       65695000	      6568	8000205c	01c74463	blt	x14,x28,80002064	 x14:0x80001f0c x28:0x00000000
       65705000	      6569	00000000	00000013	addi	x0,x0,0	  x0:0x00000000
       65715000	      6570	80002060	00000013	addi	x0,x0,0	  x0:0x00000000
       65725000	      6571	80002064	01441c63	bne	x8,x20,8000207c	  x8:0x80001f78 x20:0x80001f1c
       65735000	      6572	00000000	00000013	addi	x0,x0,0	  x0:0x00000000
       65745000	      6573	80002078	00000013	addi	x0,x0,0	  x0:0x00000000
       65755000	      6574	8000207c	01097cb3	and	x25,x18,x16	 x18:0x80001eac x16:0x00000001 x25=0x00000000
       65765000	      6575	80002080	df5e7193	andi	x3,x28,-523	 x28:0x00000000  x3=0x00000000
       65775000	      6576	80002084	da99ee93	ori	x29,x19,-599	 x19:0x00000001 x29=0xfffffda9
       65785000	      6577	80002088	00215093	srli	x1,x2,0x2	  x2:0x80001f7c  x1=0x200007df
       65795000	      6578	8000208c	35697097	auipc	x1,0x35697	  x1=0xb5699088
       65805000	      6579	80002090	0d97c193	xori	x3,x15,217	 x15:0x00000000  x3=0x000000d9
       65815000	      6580	80002094	003a2233	slt	x4,x20,x3	 x20:0x80001f1c  x3:0x000000d9  x4=0x00000001
       65825000	      6581	80002098	0084b4b3	sltu	x9,x9,x8	  x9:0x00020000  x8:0x80001f78  x9=0x00000001
       65835000	      6582	8000209c	0086ee63	bltu	x13,x8,800020b8	 x13:0x80001ec4  x8:0x80001f78
       65845000	      6583	00000000	00000013	addi	x0,x0,0	  x0:0x00000000
       65855000	      6584	800020b4	00000013	addi	x0,x0,0	  x0:0x00000000
       65865000	      6585	800020b8	01c18b33	add	x22,x3,x28	  x3:0x000000d9 x28:0x00000000 x22=0x000000d9
       65875000	      6586	800020bc	0126d913	srli	x18,x13,0x12	 x13:0x80001ec4 x18=0x00002000
       65885000	      6587	800020c0	00000013	addi	x0,x0,0	  x0:0x00000000
       65895000	      6588	800020c4	f7737613	andi	x12,x6,-137	  x6:0x80001f64 x12=0x80001f64
       65905000	      6589	800020c8	41af01b3	sub	x3,x30,x26	 x30:0x80001e7c x26:0xfffffb69  x3=0x80002313
       65915000	      6590	800020cc	00e18733	add	x14,x3,x14	  x3:0x80002313 x14:0x80001f0c x14=0x0000421f
       65925000	      6591	800020d0	405051b3	sra	x3,x0,x5	  x0:0x00000000  x5:0x80009fc4  x3=0x00000000
       65935000	      6592	800020d4	00729fb3	sll	x31,x5,x7	  x5:0x80009fc4  x7:0x00000420 x31=0x80009fc4
       65945000	      6593	800020d8	3ea5a713	slti	x14,x11,1002	 x11:0x80009ed4 x14=0x00000001
       65955000	      6594	800020dc	40455533	sra	x10,x10,x4	 x10:0x00000000  x4:0x00000001 x10=0x00000000
       65965000	      6595	800020e0	010b9033	sll	x0,x23,x16	 x23:0x00000000 x16:0x00000001
       65975000	      6596	800020e4	3b584393	xori	x7,x16,949	 x16:0x00000001  x7=0x000003b4
       65985000	      6597	800020e8	9867f613	andi	x12,x15,-1658	 x15:0x00000000 x12=0x00000000
       65995000	      6598	800020ec	014394b3	sll	x9,x7,x20	  x7:0x000003b4 x20:0x80001f1c  x9=0x40000000
       66005000	      6599	800020f0	d94bc793	xori	x15,x23,-620	 x23:0x00000000 x15=0xfffffd94
       66015000	      6600	800020f4	0333da63	bge	x7,x19,80002128	  x7:0x000003b4 x19:0x00000001
       66025000	      6601	00000000	00000013	addi	x0,x0,0	  x0:0x00000000
       66035000	      6602	80002124	00000013	addi	x0,x0,0	  x0:0x00000000
       66045000	      6603	80002128	dca37493	andi	x9,x6,-566	  x6:0x80001f64  x9=0x80001d40
       66055000	      6604	8000212c	00000013	addi	x0,x0,0	  x0:0x00000000
       66065000	      6605	80002130	07c1d063	bge	x3,x28,80002190	  x3:0x00000000 x28:0x00000000
       66075000	      6606	00000000	00000013	addi	x0,x0,0	  x0:0x00000000
       66085000	      6607	8000218c	00000013	addi	x0,x0,0	  x0:0x00000000
       66095000	      6608	80002190	05f01663	bne	x0,x31,800021dc	  x0:0x00000000 x31:0x80009fc4
       66105000	      6609	00000000	00000013	addi	x0,x0,0	  x0:0x00000000
       66115000	      6610	800021d8	00000013	addi	x0,x0,0	  x0:0x00000000
       66125000	      6611	800021dc	7c934637	lui	x12,0x7c934	 x12=0x7c934000
       66135000	      6612	800021e0	003e03b3	add	x7,x28,x3	 x28:0x00000000  x3:0x00000000  x7=0x00000000
       66145000	      6613	800021e4	988a4613	xori	x12,x20,-1656	 x20:0x80001f1c x12=0x7fffe694
       66155000	      6614	800021e8	05045863	bge	x8,x16,80002238	  x8:0x80001f78 x16:0x00000001
       66165000	      6615	800021ec	039e8463	beq	x29,x25,80002214	 x29:0xfffffda9 x25:0x00000000
       66175000	      6616	800021f0	2bcec693	xori	x13,x29,700	 x29:0xfffffda9 x13=0xffffff15
       66185000	      6617	800021f4	a1c25437	lui	x8,0xa1c25	  x8=0xa1c25000
       66195000	      6618	800021f8	008d18b3	sll	x17,x26,x8	 x26:0xfffffb69  x8:0xa1c25000 x17=0xfffffb69
       66205000	      6619	800021fc	01710db3	add	x27,x2,x23	  x2:0x80001f7c x23:0x00000000 x27=0x80001f7c
       66215000	      6620	80002200	ecd23013	sltiu	x0,x4,-307	  x4:0x00000001
       66225000	      6621	80002204	014aed33	or	x26,x21,x20	 x21:0x00000000 x20:0x80001f1c x26=0x80001f1c
       66235000	      6622	80002208	01e71193	slli	x3,x14,0x1e	 x14:0x00000001  x3=0x40000000
       66245000	      6623	8000220c	0157b4b3	sltu	x9,x15,x21	 x15:0xfffffd94 x21:0x00000000  x9=0x00000000
       66255000	      6624	80002210	01b239b3	sltu	x19,x4,x27	  x4:0x00000001 x27:0x80001f7c x19=0x00000001
       66265000	      6625	80002214	00000013	addi	x0,x0,0	  x0:0x00000000
       66275000	      6626	80002218	ba60c913	xori	x18,x1,-1114	  x1:0xb5699088 x18=0x4a966b2e
       66285000	      6627	8000221c	014aec63	bltu	x21,x20,80002234	 x21:0x00000000 x20:0x80001f1c
       66295000	      6628	00000000	00000013	addi	x0,x0,0	  x0:0x00000000
       66305000	      6629	80002230	00000013	addi	x0,x0,0	  x0:0x00000000
       66315000	      6630	80002234	01045c63	bge	x8,x16,8000224c	  x8:0xa1c25000 x16:0x00000001
       66325000	      6631	80002238	09d44913	xori	x18,x8,157	  x8:0xa1c25000 x18=0xa1c2509d
       66335000	      6632	8000223c	01c3b233	sltu	x4,x7,x28	  x7:0x00000000 x28:0x00000000  x4=0x00000000
       66345000	      6633	80002240	016be433	or	x8,x23,x22	 x23:0x00000000 x22:0x000000d9  x8=0x000000d9
       66355000	      6634	80002244	03c26a63	bltu	x4,x28,80002278	  x4:0x00000000 x28:0x00000000
       66365000	      6635	80002248	05fac263	blt	x21,x31,8000228c	 x21:0x00000000 x31:0x80009fc4
       66375000	      6636	8000224c	abdd1d37	lui	x26,0xabdd1	 x26=0xabdd1000
       66385000	      6637	80002250	014018b3	sll	x17,x0,x20	  x0:0x00000000 x20:0x80001f1c x17=0x00000000
       66395000	      6638	80002254	01b07c63	bgeu	x0,x27,8000226c	  x0:0x00000000 x27:0x80001f7c
       66405000	      6639	80002258	41b00f33	sub	x30,x0,x27	  x0:0x00000000 x27:0x80001f7c x30=0x7fffe084
       66415000	      6640	8000225c	01299db3	sll	x27,x19,x18	 x19:0x00000001 x18:0xa1c2509d x27=0x20000000
       66425000	      6641	80002260	00cb9693	slli	x13,x23,0xc	 x23:0x00000000 x13=0x00000000
       66435000	      6642	80002264	41fa80b3	sub	x1,x21,x31	 x21:0x00000000 x31:0x80009fc4  x1=0x7fff603c
       66445000	      6643	80002268	20eb8c93	addi	x25,x23,526	 x23:0x00000000 x25=0x0000020e
       66455000	      6644	8000226c	0db74263	blt	x14,x27,80002330	 x14:0x00000001 x27:0x20000000
       66465000	      6645	00000000	00000013	addi	x0,x0,0	  x0:0x00000000
       66475000	      6646	8000232c	00000013	addi	x0,x0,0	  x0:0x00000000
       66485000	      6647	80002330	018ad713	srli	x14,x21,0x18	 x21:0x00000000 x14=0x00000000
       66495000	      6648	80002334	003777b3	and	x15,x14,x3	 x14:0x00000000  x3:0x40000000 x15=0x00000000
       66505000	      6649	80002338	00afe533	or	x10,x31,x10	 x31:0x80009fc4 x10:0x00000000 x10=0x80009fc4
       66515000	      6650	8000233c	71757093	andi	x1,x10,1815	 x10:0x80009fc4  x1=0x00000704
       66525000	      6651	80002340	41e25633	sra	x12,x4,x30	  x4:0x00000000 x30:0x7fffe084 x12=0x00000000
       66535000	      6652	80002344	4121da93	srai	x21,x3,0x12	  x3:0x40000000 x21=0x00001000
       66545000	      6653	80002348	7e488d37	lui	x26,0x7e488	 x26=0x7e488000
       66555000	      6654	8000234c	f2ec6b13	ori	x22,x24,-210	 x24:0x80001f34 x22=0xffffff3e
       66565000	      6655	80002350	0000db13	srli	x22,x1,0x0	  x1:0x00000704 x22=0x00000704
       66575000	      6656	80002354	413ed0b3	sra	x1,x29,x19	 x29:0xfffffda9 x19:0x00000001  x1=0xfffffed4
       66585000	      6657	80002358	00346c63	bltu	x8,x3,80002370	  x8:0x000000d9  x3:0x40000000
       66595000	      6658	00000000	00000013	addi	x0,x0,0	  x0:0x00000000
       66605000	      6659	8000236c	00000013	addi	x0,x0,0	  x0:0x00000000
       66615000	      6660	80002370	0081c533	xor	x10,x3,x8	  x3:0x40000000  x8:0x000000d9 x10=0x400000d9
       66625000	      6661	80002374	05d30663	beq	x6,x29,800023c0	  x6:0x80001f64 x29:0xfffffda9
       66635000	      6662	80002378	005c6233	or	x4,x24,x5	 x24:0x80001f34  x5:0x80009fc4  x4=0x80009ff4
       66645000	      6663	8000237c	40e6d313	srai	x6,x13,0xe	 x13:0x00000000  x6=0x00000000
       66655000	      6664	80002380	01035a33	srl	x20,x6,x16	  x6:0x00000000 x16:0x00000001 x20=0x00000000
       66665000	      6665	80002384	006eceb3	xor	x29,x29,x6	 x29:0xfffffda9  x6:0x00000000 x29=0xfffffda9
       66675000	      6666	80002388	b81b3b13	sltiu	x22,x22,-1151	 x22:0x00000704 x22=0x00000001
       66685000	      6667	8000238c	5df60893	addi	x17,x12,1503	 x12:0x00000000 x17=0x000005df
       66695000	      6668	80002390	5b4aed93	ori	x27,x21,1460	 x21:0x00001000 x27=0x000015b4
       66705000	      6669	80002394	b43a2137	lui	x2,0xb43a2	  x2=0xb43a2000
       66715000	      6670	80002398	01c94e63	blt	x18,x28,800023b4	 x18:0xa1c2509d x28:0x00000000
       66725000	      6671	00000000	00000013	addi	x0,x0,0	  x0:0x00000000
       66735000	      6672	800023b0	00000013	addi	x0,x0,0	  x0:0x00000000
       66745000	      6673	800023b4	012a5c93	srli	x25,x20,0x12	 x20:0x00000000 x25=0x00000000
       66755000	      6674	800023b8	01005313	srli	x6,x0,0x10	  x0:0x00000000  x6=0x00000000
       66765000	      6675	800023bc	5a377713	andi	x14,x14,1443	 x14:0x00000000 x14=0x00000000
       66775000	      6676	800023c0	403e5113	srai	x2,x28,0x3	 x28:0x00000000  x2=0x00000000
       66785000	      6677	800023c4	40b55d93	srai	x27,x10,0xb	 x10:0x400000d9 x27=0x00080000
       66795000	      6678	800023c8	006fd493	srli	x9,x31,0x6	 x31:0x80009fc4  x9=0x0200027f
       66805000	      6679	800023cc	0030d3b3	srl	x7,x1,x3	  x1:0xfffffed4  x3:0x40000000  x7=0xfffffed4
       66815000	      6680	800023d0	03c15463	bge	x2,x28,800023f8	  x2:0x00000000 x28:0x00000000
       66825000	      6681	00000000	00000013	addi	x0,x0,0	  x0:0x00000000
       66835000	      6682	800023f4	00000013	addi	x0,x0,0	  x0:0x00000000
       66845000	      6683	800023f8	0061d7b3	srl	x15,x3,x6	  x3:0x40000000  x6:0x00000000 x15=0x40000000
       66855000	      6684	800023fc	020f4463	blt	x30,x0,80002424	 x30:0x7fffe084  x0:0x00000000
       66865000	      6685	80002400	01196f33	or	x30,x18,x17	 x18:0xa1c2509d x17:0x000005df x30=0xa1c255df
       66875000	      6686	80002404	19012413	slti	x8,x2,400	  x2:0x00000000  x8=0x00000001
       66885000	      6687	80002408	1813a793	slti	x15,x7,385	  x7:0xfffffed4 x15=0x00000001
       66895000	      6688	8000240c	93613913	sltiu	x18,x2,-1738	  x2:0x00000000 x18=0x00000001
       66905000	      6689	80002410	de3e2b17	auipc	x22,0xde3e2	 x22=0x5e3e440c
       66915000	      6690	80002414	00abc033	xor	x0,x23,x10	 x23:0x00000000 x10:0x400000d9
       66925000	      6691	80002418	1e414017	auipc	x0,0x1e414	
       66935000	      6692	8000241c	416b5bb3	sra	x23,x22,x22	 x22:0x5e3e440c x22:0x5e3e440c x23=0x0005e3e4
       66945000	      6693	80002420	af568613	addi	x12,x13,-1291	 x13:0x00000000 x12=0xfffffaf5
       66955000	      6694	80002424	95ae3393	sltiu	x7,x28,-1702	 x28:0x00000000  x7=0x00000001
       66965000	      6695	80002428	ab758613	addi	x12,x11,-1353	 x11:0x80009ed4 x12=0x8000998b
       66975000	      6696	8000242c	005fdb13	srli	x22,x31,0x5	 x31:0x80009fc4 x22=0x040004fe
       66985000	      6697	80002430	00e099b3	sll	x19,x1,x14	  x1:0xfffffed4 x14:0x00000000 x19=0xfffffed4
       66995000	      6698	80002434	408b8533	sub	x10,x23,x8	 x23:0x0005e3e4  x8:0x00000001 x10=0x0005e3e3
       67005000	      6699	80002438	05fcf863	bgeu	x25,x31,80002488	 x25:0x00000000 x31:0x80009fc4
       67015000	      6700	8000243c	3af83993	sltiu	x19,x16,943	 x16:0x00000001 x19=0x00000001
       67025000	      6701	80002440	003e5e63	bge	x28,x3,8000245c	 x28:0x00000000  x3:0x40000000
       67035000	      6702	80002444	02261663	bne	x12,x2,80002470	 x12:0x8000998b  x2:0x00000000
       67045000	      6703	00000000	00000013	addi	x0,x0,0	  x0:0x00000000
       67055000	      6704	8000246c	00000013	addi	x0,x0,0	  x0:0x00000000
       67065000	      6705	80002470	01cb54b3	srl	x9,x22,x28	 x22:0x040004fe x28:0x00000000  x9=0x040004fe
       67075000	      6706	80002474	349f8693	addi	x13,x31,841	 x31:0x80009fc4 x13=0x8000a30d
       67085000	      6707	80002478	016c9b13	slli	x22,x25,0x16	 x25:0x00000000 x22=0x00000000
       67095000	      6708	8000247c	006ef663	bgeu	x29,x6,80002488	 x29:0xfffffda9  x6:0x00000000
       67105000	      6709	00000000	00000013	addi	x0,x0,0	  x0:0x00000000
       67115000	      6710	80002484	00000013	addi	x0,x0,0	  x0:0x00000000
       67125000	      6711	80002488	0176c733	xor	x14,x13,x23	 x13:0x8000a30d x23:0x0005e3e4 x14=0x800540e9
       67135000	      6712	8000248c	75dcff93	andi	x31,x25,1885	 x25:0x00000000 x31=0x00000000
       67145000	      6713	80002490	01434db3	xor	x27,x6,x20	  x6:0x00000000 x20:0x00000000 x27=0x00000000
       67155000	      6714	80002494	1f166fb7	lui	x31,0x1f166	 x31=0x1f166000
       67165000	      6715	80002498	0463e263	bltu	x7,x6,800024dc	  x7:0x00000001  x6:0x00000000
       67175000	      6716	8000249c	06378693	addi	x13,x15,99	 x15:0x00000001 x13=0x00000064
       67185000	      6717	800024a0	01b15c93	srli	x25,x2,0x1b	  x2:0x00000000 x25=0x00000000
       67195000	      6718	800024a4	41565793	srai	x15,x12,0x15	 x12:0x8000998b x15=0xfffffc00
       67205000	      6719	800024a8	f9b36f13	ori	x30,x6,-101	  x6:0x00000000 x30=0xffffff9b
       67215000	      6720	800024ac	00df4fb3	xor	x31,x30,x13	 x30:0xffffff9b x13:0x00000064 x31=0xffffffff
       67225000	      6721	800024b0	761508b7	lui	x17,0x76150	 x17=0x76150000
       67235000	      6722	800024b4	7bfe6493	ori	x9,x28,1983	 x28:0x00000000  x9=0x000007bf
       67245000	      6723	800024b8	26dbfd93	andi	x27,x23,621	 x23:0x0005e3e4 x27=0x00000264
       67255000	      6724	800024bc	01ddf463	bgeu	x27,x29,800024c4	 x27:0x00000264 x29:0xfffffda9
       67265000	      6725	800024c0	01af5f13	srli	x30,x30,0x1a	 x30:0xffffff9b x30=0x0000003f
       67275000	      6726	800024c4	04691063	bne	x18,x6,80002504	 x18:0x00000001  x6:0x00000000
       67285000	      6727	00000000	00000013	addi	x0,x0,0	  x0:0x00000000
       67295000	      6728	80002500	00000013	addi	x0,x0,0	  x0:0x00000000
       67305000	      6729	80002504	8c68b413	sltiu	x8,x17,-1850	 x17:0x76150000  x8=0x00000001
       67315000	      6730	80002508	01349913	slli	x18,x9,0x13	  x9:0x000007bf x18=0x3df80000
       67325000	      6731	8000250c	c04ccc93	xori	x25,x25,-1020	 x25:0x00000000 x25=0xfffffc04
       67335000	      6732	80002510	26e4e493	ori	x9,x9,622	  x9:0x000007bf  x9=0x000007ff
       67345000	      6733	80002514	6f910093	addi	x1,x2,1785	  x2:0x00000000  x1=0x000006f9
       67355000	      6734	80002518	01d1d693	srli	x13,x3,0x1d	  x3:0x40000000 x13=0x00000002
       67365000	      6735	8000251c	4112d333	sra	x6,x5,x17	  x5:0x80009fc4 x17:0x76150000  x6=0x80009fc4
       67375000	      6736	80002520	672fe737	lui	x14,0x672fe	 x14=0x672fe000
       67385000	      6737	80002524	0352e663	bltu	x5,x21,80002550	  x5:0x80009fc4 x21:0x00001000
       67395000	      6738	80002528	a6c1c693	xori	x13,x3,-1428	  x3:0x40000000 x13=0xbffffa6c
       67405000	      6739	8000252c	407fd193	srai	x3,x31,0x7	 x31:0xffffffff  x3=0xffffffff
       67415000	      6740	80002530	b22c3d37	lui	x26,0xb22c3	 x26=0xb22c3000
       67425000	      6741	80002534	00047db3	and	x27,x8,x0	  x8:0x00000001  x0:0x00000000 x27=0x00000000
       67435000	      6742	80002538	01b73cb3	sltu	x25,x14,x27	 x14:0x672fe000 x27:0x00000000 x25=0x00000000
       67445000	      6743	8000253c	00688db3	add	x27,x17,x6	 x17:0x76150000  x6:0x80009fc4 x27=0xf6159fc4
       67455000	      6744	80002540	000c5993	srli	x19,x24,0x0	 x24:0x80001f34 x19=0x80001f34
       67465000	      6745	80002544	e6134213	xori	x4,x6,-415	  x6:0x80009fc4  x4=0x7fff61a5
       67475000	      6746	80002548	00801933	sll	x18,x0,x8	  x0:0x00000000  x8:0x00000001 x18=0x00000000
       67485000	      6747	8000254c	802c8e93	addi	x29,x25,-2046	 x25:0x00000000 x29=0xfffff802
       67495000	      6748	80002550	64d07393	andi	x7,x0,1613	  x0:0x00000000  x7=0x00000000
       67505000	      6749	80002554	2ce54693	xori	x13,x10,718	 x10:0x0005e3e3 x13=0x0005e12d
       67515000	      6750	80002558	008b1913	slli	x18,x22,0x8	 x22:0x00000000 x18=0x00000000
       67525000	      6751	8000255c	0255f263	bgeu	x11,x5,80002580	 x11:0x80009ed4  x5:0x80009fc4
       67535000	      6752	80002560	005c7c63	bgeu	x24,x5,80002578	 x24:0x80001f34  x5:0x80009fc4
       67545000	      6753	80002564	f54cf913	andi	x18,x25,-172	 x25:0x00000000 x18=0x00000000
       67555000	      6754	80002568	01e75e93	srli	x29,x14,0x1e	 x14:0x672fe000 x29=0x00000001
       67565000	      6755	8000256c	00a9f333	and	x6,x19,x10	 x19:0x80001f34 x10:0x0005e3e3  x6=0x00000320
       67575000	      6756	80002570	40228433	sub	x8,x5,x2	  x5:0x80009fc4  x2:0x00000000  x8=0x80009fc4
       67585000	      6757	80002574	0026a9b3	slt	x19,x13,x2	 x13:0x0005e12d  x2:0x00000000 x19=0x00000000
       67595000	      6758	80002578	01e477b3	and	x15,x8,x30	  x8:0x80009fc4 x30:0x0000003f x15=0x00000004
       67605000	      6759	8000257c	41675993	srai	x19,x14,0x16	 x14:0x672fe000 x19=0x0000019c
       67615000	      6760	80002580	70962493	slti	x9,x12,1801	 x12:0x8000998b  x9=0x00000001
       67625000	      6761	80002584	4f44b413	sltiu	x8,x9,1268	  x9:0x00000001  x8=0x00000001
       67635000	      6762	80002588	01850133	add	x2,x10,x24	 x10:0x0005e3e3 x24:0x80001f34  x2=0x80060317
       67645000	      6763	8000258c	1dbf2713	slti	x14,x30,475	 x30:0x0000003f x14=0x00000001
       67655000	      6764	80002590	3a8e6a93	ori	x21,x28,936	 x28:0x00000000 x21=0x000003a8
       67665000	      6765	80002594	00507663	bgeu	x0,x5,800025a0	  x0:0x00000000  x5:0x80009fc4
       67675000	      6766	80002598	8d7f6e93	ori	x29,x30,-1833	 x30:0x0000003f x29=0xfffff8ff
       67685000	      6767	8000259c	000598b3	sll	x17,x11,x0	 x11:0x80009ed4  x0:0x00000000 x17=0x80009ed4
       67695000	      6768	800025a0	01980533	add	x10,x16,x25	 x16:0x00000001 x25:0x00000000 x10=0x00000001
       67705000	      6769	800025a4	c2744f13	xori	x30,x8,-985	  x8:0x00000001 x30=0xfffffc26
       67715000	      6770	800025a8	00c21eb3	sll	x29,x4,x12	  x4:0x7fff61a5 x12:0x8000998b x29=0xfb0d2800
       67725000	      6771	800025ac	00bcd493	srli	x9,x25,0xb	 x25:0x00000000  x9=0x00000000
       67735000	      6772	800025b0	01211633	sll	x12,x2,x18	  x2:0x80060317 x18:0x00000000 x12=0x80060317
       67745000	      6773	800025b4	d1c09617	auipc	x12,0xd1c09	 x12=0x51c0b5b0
       67755000	      6774	800025b8	8339c393	xori	x7,x19,-1997	 x19:0x0000019c  x7=0xfffff9af
       67765000	      6775	800025bc	00000013	addi	x0,x0,0	  x0:0x00000000
       67775000	      6776	800025c0	009cb1b3	sltu	x3,x25,x9	 x25:0x00000000  x9:0x00000000  x3=0x00000000
       67785000	      6777	800025c4	035ae463	bltu	x21,x21,800025ec	 x21:0x000003a8 x21:0x000003a8
       67795000	      6778	800025c8	011cde93	srli	x29,x25,0x11	 x25:0x00000000 x29=0x00000000
       67805000	      6779	800025cc	01e51c63	bne	x10,x30,800025e4	 x10:0x00000001 x30:0xfffffc26
       67815000	      6780	00000000	00000013	addi	x0,x0,0	  x0:0x00000000
       67825000	      6781	800025e0	00000013	addi	x0,x0,0	  x0:0x00000000
       67835000	      6782	800025e4	02d95663	bge	x18,x13,80002610	 x18:0x00000000 x13:0x0005e12d
       67845000	      6783	800025e8	0bfb0e63	beq	x22,x31,800026a4	 x22:0x00000000 x31:0xffffffff
       67855000	      6784	800025ec	007b3cb3	sltu	x25,x22,x7	 x22:0x00000000  x7:0xfffff9af x25=0x00000001
       67865000	      6785	800025f0	0068ce63	blt	x17,x6,8000260c	 x17:0x80009ed4  x6:0x00000320
       67875000	      6786	00000000	00000013	addi	x0,x0,0	  x0:0x00000000
       67885000	      6787	80002608	00000013	addi	x0,x0,0	  x0:0x00000000
       67895000	      6788	8000260c	41445493	srai	x9,x8,0x14	  x8:0x00000001  x9=0x00000000
       67905000	      6789	80002610	bb327093	andi	x1,x4,-1101	  x4:0x7fff61a5  x1=0x7fff61a1
       67915000	      6790	80002614	0b154863	blt	x10,x17,800026c4	 x10:0x00000001 x17:0x80009ed4
       67925000	      6791	80002618	40ecb013	sltiu	x0,x25,1038	 x25:0x00000001
       67935000	      6792	8000261c	41cf0f33	sub	x30,x30,x28	 x30:0xfffffc26 x28:0x00000000 x30=0xfffffc26
       67945000	      6793	80002620	01e78d33	add	x26,x15,x30	 x15:0x00000004 x30:0xfffffc26 x26=0xfffffc2a
       67955000	      6794	80002624	074f0c63	beq	x30,x20,8000269c	 x30:0xfffffc26 x20:0x00000000
       67965000	      6795	80002628	0040016f	jal	x2,80002628	  x2=0x80002628
       67975000	      6796	00000000	00000013	addi	x0,x0,0	  x0:0x00000000
       67985000	      6797	80002628	00000013	addi	x0,x0,0	  x0:0x00000000
       67995000	      6798	8000262c	04c000ef	jal	x1,8000262c	  x1=0x8000262c
       68005000	      6799	00000000	00000013	addi	x0,x0,0	  x0:0x00000000
       68015000	      6800	80002674	00000013	addi	x0,x0,0	  x0:0x00000000
       68025000	      6801	80002678	fddff76f	jal	x14,80002678	 x14=0x80002678
       68035000	      6802	00000000	00000013	addi	x0,x0,0	  x0:0x00000000
       68045000	      6803	80002650	00000013	addi	x0,x0,0	  x0:0x00000000
       68055000	      6804	80002654	02c0026f	jal	x4,80002654	  x4=0x80002654
       68065000	      6805	00000000	00000013	addi	x0,x0,0	  x0:0x00000000
       68075000	      6806	8000267c	00000013	addi	x0,x0,0	  x0:0x00000000
       68085000	      6807	80002680	fbdffd6f	jal	x26,80002680	 x26=0x80002680
       68095000	      6808	00000000	00000013	addi	x0,x0,0	  x0:0x00000000
       68105000	      6809	80002638	00000013	addi	x0,x0,0	  x0:0x00000000
       68115000	      6810	8000263c	04c0036f	jal	x6,8000263c	  x6=0x8000263c
       68125000	      6811	00000000	00000013	addi	x0,x0,0	  x0:0x00000000
       68135000	      6812	80002684	00000013	addi	x0,x0,0	  x0:0x00000000
       68145000	      6813	80002688	fe9ff36f	jal	x6,80002688	  x6=0x80002688
       68155000	      6814	00000000	00000013	addi	x0,x0,0	  x0:0x00000000
       68165000	      6815	8000266c	00000013	addi	x0,x0,0	  x0:0x00000000
       68175000	      6816	80002670	014000ef	jal	x1,80002670	  x1=0x80002670
       68185000	      6817	00000000	00000013	addi	x0,x0,0	  x0:0x00000000
       68195000	      6818	80002680	00000013	addi	x0,x0,0	  x0:0x00000000
       68205000	      6819	80002684	fe9ff36f	jal	x6,80002684	  x6=0x80002684
       68215000	      6820	00000000	00000013	addi	x0,x0,0	  x0:0x00000000
       68225000	      6821	80002668	00000013	addi	x0,x0,0	  x0:0x00000000
       68235000	      6822	8000266c	ff9ff0ef	jal	x1,8000266c	  x1=0x8000266c
       68245000	      6823	00000000	00000013	addi	x0,x0,0	  x0:0x00000000
       68255000	      6824	80002660	00000013	addi	x0,x0,0	  x0:0x00000000
       68265000	      6825	80002664	fddff0ef	jal	x1,80002664	  x1=0x80002664
       68275000	      6826	00000000	00000013	addi	x0,x0,0	  x0:0x00000000
       68285000	      6827	8000263c	00000013	addi	x0,x0,0	  x0:0x00000000
       68295000	      6828	80002640	00c000ef	jal	x1,80002640	  x1=0x80002640
       68305000	      6829	00000000	00000013	addi	x0,x0,0	  x0:0x00000000
       68315000	      6830	80002648	00000013	addi	x0,x0,0	  x0:0x00000000
       68325000	      6831	8000264c	014000ef	jal	x1,8000264c	  x1=0x8000264c
       68335000	      6832	00000000	00000013	addi	x0,x0,0	  x0:0x00000000
       68345000	      6833	8000265c	00000013	addi	x0,x0,0	  x0:0x00000000
       68355000	      6834	80002660	fd9ff0ef	jal	x1,80002660	  x1=0x80002660
       68365000	      6835	00000000	00000013	addi	x0,x0,0	  x0:0x00000000
       68375000	      6836	80002634	00000013	addi	x0,x0,0	  x0:0x00000000
       68385000	      6837	80002638	03c0086f	jal	x16,80002638	 x16=0x80002638
       68395000	      6838	00000000	00000013	addi	x0,x0,0	  x0:0x00000000
       68405000	      6839	80002670	00000013	addi	x0,x0,0	  x0:0x00000000
       68415000	      6840	80002674	008000ef	jal	x1,80002674	  x1=0x80002674
       68425000	      6841	00000000	00000013	addi	x0,x0,0	  x0:0x00000000
       68435000	      6842	80002678	00000013	addi	x0,x0,0	  x0:0x00000000
       68445000	      6843	8000267c	fc9ff16f	jal	x2,8000267c	  x2=0x8000267c
       68455000	      6844	00000000	00000013	addi	x0,x0,0	  x0:0x00000000
       68465000	      6845	80002640	00000013	addi	x0,x0,0	  x0:0x00000000
       68475000	      6846	80002644	014000ef	jal	x1,80002644	  x1=0x80002644
       68485000	      6847	00000000	00000013	addi	x0,x0,0	  x0:0x00000000
       68495000	      6848	80002654	00000013	addi	x0,x0,0	  x0:0x00000000
       68505000	      6849	80002658	038000ef	jal	x1,80002658	  x1=0x80002658
       68515000	      6850	00000000	00000013	addi	x0,x0,0	  x0:0x00000000
       68525000	      6851	8000268c	00000013	addi	x0,x0,0	  x0:0x00000000
       68535000	      6852	80002690	fc1ff1ef	jal	x3,80002690	  x3=0x80002690
       68545000	      6853	00000000	00000013	addi	x0,x0,0	  x0:0x00000000
       68555000	      6854	8000264c	00000013	addi	x0,x0,0	  x0:0x00000000
       68565000	      6855	80002650	0180036f	jal	x6,80002650	  x6=0x80002650
       68575000	      6856	00000000	00000013	addi	x0,x0,0	  x0:0x00000000
       68585000	      6857	80002664	00000013	addi	x0,x0,0	  x0:0x00000000
       68595000	      6858	80002668	fe1ff0ef	jal	x1,80002668	  x1=0x80002668
       68605000	      6859	00000000	00000013	addi	x0,x0,0	  x0:0x00000000
       68615000	      6860	80002644	00000013	addi	x0,x0,0	  x0:0x00000000
       68625000	      6861	80002648	014000ef	jal	x1,80002648	  x1=0x80002648
       68635000	      6862	00000000	00000013	addi	x0,x0,0	  x0:0x00000000
       68645000	      6863	80002658	00000013	addi	x0,x0,0	  x0:0x00000000
       68655000	      6864	8000265c	03000a6f	jal	x20,8000265c	 x20=0x8000265c
       68665000	      6865	00000000	00000013	addi	x0,x0,0	  x0:0x00000000
       68675000	      6866	80002688	00000013	addi	x0,x0,0	  x0:0x00000000
       68685000	      6867	8000268c	fa5ff0ef	jal	x1,8000268c	  x1=0x8000268c
       68695000	      6868	00000000	00000013	addi	x0,x0,0	  x0:0x00000000
       68705000	      6869	8000262c	00000013	addi	x0,x0,0	  x0:0x00000000
       68715000	      6870	80002630	004000ef	jal	x1,80002630	  x1=0x80002630
       68725000	      6871	00000000	00000013	addi	x0,x0,0	  x0:0x00000000
       68735000	      6872	80002630	00000013	addi	x0,x0,0	  x0:0x00000000
       68745000	      6873	80002634	060000ef	jal	x1,80002634	  x1=0x80002634
       68755000	      6874	00000000	00000013	addi	x0,x0,0	  x0:0x00000000
       68765000	      6875	80002690	00000013	addi	x0,x0,0	  x0:0x00000000
       68775000	      6876	80002694	94897a13	andi	x20,x18,-1720	 x18:0x00000000 x20=0x00000000
       68785000	      6877	80002698	02cfe063	bltu	x31,x12,800026b8	 x31:0xffffffff x12:0x51c0b5b0
       68795000	      6878	8000269c	00941993	slli	x19,x8,0x9	  x8:0x00000001 x19=0x00000200
       68805000	      6879	800026a0	040dd863	bge	x27,x0,800026f0	 x27:0xf6159fc4  x0:0x00000000
       68815000	      6880	800026a4	0ac13a37	lui	x20,0xac13	 x20=0x0ac13000
       68825000	      6881	800026a8	011d98b3	sll	x17,x27,x17	 x27:0xf6159fc4 x17:0x80009ed4 x17=0xfc400000
       68835000	      6882	800026ac	00000013	addi	x0,x0,0	  x0:0x00000000
       68845000	      6883	800026b0	05184263	blt	x16,x17,800026f4	 x16:0x80002638 x17:0xfc400000
       68855000	      6884	00000000	00000013	addi	x0,x0,0	  x0:0x00000000
       68865000	      6885	800026f0	00000013	addi	x0,x0,0	  x0:0x00000000
       68875000	      6886	800026f4	03bb9663	bne	x23,x27,80002720	 x23:0x0005e3e4 x27:0xf6159fc4
       68885000	      6887	00000000	00000013	addi	x0,x0,0	  x0:0x00000000
       68895000	      6888	8000271c	00000013	addi	x0,x0,0	  x0:0x00000000
       68905000	      6889	80002720	006afdb3	and	x27,x21,x6	 x21:0x000003a8  x6:0x80002650 x27=0x00000200
       68915000	      6890	80002724	e9d7e493	ori	x9,x15,-355	 x15:0x00000004  x9=0xfffffe9d
       68925000	      6891	80002728	0045a103	lw	x2,4(x11)	 x11:0x80009ed4  x2=0x80002ac8 PA:0x80009ed8
       68935000	      6892	00000000	00000013	addi	x0,x0,0	  x0:0x00000000
       68945000	      6893	8000272c	c3010313	addi	x6,x2,-976	  x2:0x80002ac8  x6=0x800026f8
       68955000	      6894	80002730	04058593	addi	x11,x11,64	 x11:0x80009ed4 x11=0x80009f14
       68965000	      6895	80002734	17206613	ori	x12,x0,370	  x0:0x00000000 x12=0x00000172
       68975000	      6896	80002738	0085beb3	sltu	x29,x11,x8	 x11:0x80009f14  x8:0x00000001 x29=0x00000000
       68985000	      6897	8000273c	015c9eb3	sll	x29,x25,x21	 x25:0x00000001 x21:0x000003a8 x29=0x00000100
       68995000	      6898	80002740	00110113	addi	x2,x2,1	  x2:0x80002ac8  x2=0x80002ac9
       69005000	      6899	80002744	00010167	jalr	x2,x2,0	  x2:0x80002ac9  x2=0x80002744
       69015000	      6900	00000000	00000013	addi	x0,x0,0	  x0:0x00000000
       69025000	      6901	80002ac8	00000013	addi	x0,x0,0	  x0:0x00000000
       69035000	      6902	80002acc	01491633	sll	x12,x18,x20	 x18:0x00000000 x20:0x0ac13000 x12=0x00000000
       69045000	      6903	80002ad0	ce1e7d13	andi	x26,x28,-799	 x28:0x00000000 x26=0x00000000
       69055000	      6904	80002ad4	41b20cb3	sub	x25,x4,x27	  x4:0x80002654 x27:0x00000200 x25=0x80002454
       69065000	      6905	80002ad8	0165d833	srl	x16,x11,x22	 x11:0x80009f14 x22:0x00000000 x16=0x80009f14
       69075000	      6906	80002adc	40aa5233	sra	x4,x20,x10	 x20:0x0ac13000 x10:0x00000001  x4=0x05609800
       69085000	      6907	80002ae0	a0af7217	auipc	x4,0xa0af7	  x4=0x20af9adc
       69095000	      6908	80002ae4	03169463	bne	x13,x17,80002b0c	 x13:0x0005e12d x17:0xfc400000
       69105000	      6909	00000000	00000013	addi	x0,x0,0	  x0:0x00000000
       69115000	      6910	80002b08	00000013	addi	x0,x0,0	  x0:0x00000000
       69125000	      6911	80002b0c	012a5933	srl	x18,x20,x18	 x20:0x0ac13000 x18:0x00000000 x18=0x0ac13000
       69135000	      6912	80002b10	001dd263	bge	x27,x1,80002b14	 x27:0x00000200  x1:0x80002634
       69145000	      6913	00000000	00000013	addi	x0,x0,0	  x0:0x00000000
       69155000	      6914	80002b10	00000013	addi	x0,x0,0	  x0:0x00000000
       69165000	      6915	80002b14	029f9063	bne	x31,x9,80002b34	 x31:0xffffffff  x9:0xfffffe9d
       69175000	      6916	00000000	00000013	addi	x0,x0,0	  x0:0x00000000
       69185000	      6917	80002b30	00000013	addi	x0,x0,0	  x0:0x00000000
       69195000	      6918	80002b34	04a0f063	bgeu	x1,x10,80002b74	  x1:0x80002634 x10:0x00000001
       69205000	      6919	00000000	00000013	addi	x0,x0,0	  x0:0x00000000
       69215000	      6920	80002b70	00000013	addi	x0,x0,0	  x0:0x00000000
       69225000	      6921	80002b74	04cbee63	bltu	x23,x12,80002bd0	 x23:0x0005e3e4 x12:0x00000000
       69235000	      6922	80002b78	006b6db3	or	x27,x22,x6	 x22:0x00000000  x6:0x800026f8 x27=0x800026f8
       69245000	      6923	80002b7c	fb8c4913	xori	x18,x24,-72	 x24:0x80001f34 x18=0x7fffe08c
       69255000	      6924	80002b80	0158af33	slt	x30,x17,x21	 x17:0xfc400000 x21:0x000003a8 x30=0x00000001
       69265000	      6925	80002b84	01d7c863	blt	x15,x29,80002b94	 x15:0x00000004 x29:0x00000100
       69275000	      6926	00000000	00000013	addi	x0,x0,0	  x0:0x00000000
       69285000	      6927	80002b90	00000013	addi	x0,x0,0	  x0:0x00000000
       69295000	      6928	80002b94	7f10016f	jal	x2,80002b94	  x2=0x80002b94
       69305000	      6929	00000000	00000013	addi	x0,x0,0	  x0:0x00000000
       69315000	      6930	80003b80	00000013	addi	x0,x0,0	  x0:0x00000000
       69325000	      6931	80003b84	f0cca393	slti	x7,x25,-244	 x25:0x80002454  x7=0x00000001
       69335000	      6932	80003b88	40315493	srai	x9,x2,0x3	  x2:0x80002b94  x9=0xf0000572
       69345000	      6933	80003b8c	40a808b3	sub	x17,x16,x10	 x16:0x80009f14 x10:0x00000001 x17=0x80009f13
       69355000	      6934	80003b90	01485263	bge	x16,x20,80003b94	 x16:0x80009f14 x20:0x0ac13000
       69365000	      6935	80003b94	fdc58593	addi	x11,x11,-36	 x11:0x80009f14 x11=0x80009ef0
       69375000	      6936	80003b98	008a63b3	or	x7,x20,x8	 x20:0x0ac13000  x8:0x00000001  x7=0x0ac13001
       69385000	      6937	80003b9c	0025a223	sw	x2,4(x11)	 x11:0x80009ef0  x2:0x80002b94 PA:0x80009ef4
       69395000	      6938	80003ba0	41dad213	srai	x4,x21,0x1d	 x21:0x000003a8  x4=0x00000000
       69405000	      6939	80003ba4	8d896e93	ori	x29,x18,-1832	 x18:0x7fffe08c x29=0xfffff8dc
       69415000	      6940	80003ba8	0240016f	jal	x2,80003ba8	  x2=0x80003ba8
       69425000	      6941	00000000	00000013	addi	x0,x0,0	  x0:0x00000000
       69435000	      6942	80003bc8	00000013	addi	x0,x0,0	  x0:0x00000000
       69445000	      6943	80003bcc	01800aef	jal	x21,80003bcc	 x21=0x80003bcc
       69455000	      6944	00000000	00000013	addi	x0,x0,0	  x0:0x00000000
       69465000	      6945	80003be0	00000013	addi	x0,x0,0	  x0:0x00000000
       69475000	      6946	80003be4	fd1ff76f	jal	x14,80003be4	 x14=0x80003be4
       69485000	      6947	00000000	00000013	addi	x0,x0,0	  x0:0x00000000
       69495000	      6948	80003bb0	00000013	addi	x0,x0,0	  x0:0x00000000
       69505000	      6949	80003bb4	024000ef	jal	x1,80003bb4	  x1=0x80003bb4
       69515000	      6950	00000000	00000013	addi	x0,x0,0	  x0:0x00000000
       69525000	      6951	80003bd4	00000013	addi	x0,x0,0	  x0:0x00000000
       69535000	      6952	80003bd8	ff1fffef	jal	x31,80003bd8	 x31=0x80003bd8
       69545000	      6953	00000000	00000013	addi	x0,x0,0	  x0:0x00000000
       69555000	      6954	80003bc4	00000013	addi	x0,x0,0	  x0:0x00000000
       69565000	      6955	80003bc8	fe5ff0ef	jal	x1,80003bc8	  x1=0x80003bc8
       69575000	      6956	00000000	00000013	addi	x0,x0,0	  x0:0x00000000
       69585000	      6957	80003ba8	00000013	addi	x0,x0,0	  x0:0x00000000
       69595000	      6958	80003bac	0300016f	jal	x2,80003bac	  x2=0x80003bac
       69605000	      6959	00000000	00000013	addi	x0,x0,0	  x0:0x00000000
       69615000	      6960	80003bd8	00000013	addi	x0,x0,0	  x0:0x00000000
       69625000	      6961	80003bdc	fe5ff66f	jal	x12,80003bdc	 x12=0x80003bdc
       69635000	      6962	00000000	00000013	addi	x0,x0,0	  x0:0x00000000
       69645000	      6963	80003bbc	00000013	addi	x0,x0,0	  x0:0x00000000
       69655000	      6964	80003bc0	01400c6f	jal	x24,80003bc0	 x24=0x80003bc0
       69665000	      6965	00000000	00000013	addi	x0,x0,0	  x0:0x00000000
       69675000	      6966	80003bd0	00000013	addi	x0,x0,0	  x0:0x00000000
       69685000	      6967	80003bd4	00c0036f	jal	x6,80003bd4	  x6=0x80003bd4
       69695000	      6968	00000000	00000013	addi	x0,x0,0	  x0:0x00000000
       69705000	      6969	80003bdc	00000013	addi	x0,x0,0	  x0:0x00000000
       69715000	      6970	80003be0	fd1ffbef	jal	x23,80003be0	 x23=0x80003be0
       69725000	      6971	00000000	00000013	addi	x0,x0,0	  x0:0x00000000
       69735000	      6972	80003bac	00000013	addi	x0,x0,0	  x0:0x00000000
       69745000	      6973	80003bb0	008000ef	jal	x1,80003bb0	  x1=0x80003bb0
       69755000	      6974	00000000	00000013	addi	x0,x0,0	  x0:0x00000000
       69765000	      6975	80003bb4	00000013	addi	x0,x0,0	  x0:0x00000000
       69775000	      6976	80003bb8	004000ef	jal	x1,80003bb8	  x1=0x80003bb8
       69785000	      6977	00000000	00000013	addi	x0,x0,0	  x0:0x00000000
       69795000	      6978	80003bb8	00000013	addi	x0,x0,0	  x0:0x00000000
       69805000	      6979	80003bbc	0080036f	jal	x6,80003bbc	  x6=0x80003bbc
       69815000	      6980	00000000	00000013	addi	x0,x0,0	  x0:0x00000000
       69825000	      6981	80003bc0	00000013	addi	x0,x0,0	  x0:0x00000000
       69835000	      6982	80003bc4	00c000ef	jal	x1,80003bc4	  x1=0x80003bc4
       69845000	      6983	00000000	00000013	addi	x0,x0,0	  x0:0x00000000
       69855000	      6984	80003bcc	00000013	addi	x0,x0,0	  x0:0x00000000
       69865000	      6985	80003bd0	018008ef	jal	x17,80003bd0	 x17=0x80003bd0
       69875000	      6986	00000000	00000013	addi	x0,x0,0	  x0:0x00000000
       69885000	      6987	80003be4	00000013	addi	x0,x0,0	  x0:0x00000000
       69895000	      6988	80003be8	01f59a33	sll	x20,x11,x31	 x11:0x80009ef0 x31:0x80003bd8 x20=0xf0000000
       69905000	      6989	80003bec	c648be97	auipc	x29,0xc648b	 x29=0x4648ebe8
       69915000	      6990	80003bf0	0036c4b3	xor	x9,x13,x3	 x13:0x0005e12d  x3:0x80002690  x9=0x8005c7bd
       69925000	      6991	80003bf4	03cc4e63	blt	x24,x28,80003c30	 x24:0x80003bc0 x28:0x00000000
       69935000	      6992	00000000	00000013	addi	x0,x0,0	  x0:0x00000000
       69945000	      6993	80003c2c	00000013	addi	x0,x0,0	  x0:0x00000000
       69955000	      6994	80003c30	40abdc13	srai	x24,x23,0xa	 x23:0x80003be0 x24=0xffe0000e
       69965000	      6995	80003c34	0166dd93	srli	x27,x13,0x16	 x13:0x0005e12d x27=0x00000000
       69975000	      6996	80003c38	05bd6263	bltu	x26,x27,80003c7c	 x26:0x00000000 x27:0x00000000
       69985000	      6997	80003c3c	00a5d613	srli	x12,x11,0xa	 x11:0x80009ef0 x12=0x00200027
       69995000	      6998	80003c40	41a80d33	sub	x26,x16,x26	 x16:0x80009f14 x26:0x00000000 x26=0x80009f14
       70005000	      6999	80003c44	009f1ab3	sll	x21,x30,x9	 x30:0x00000001  x9:0x8005c7bd x21=0x20000000
       70015000	      7000	80003c48	01ff5d33	srl	x26,x30,x31	 x30:0x00000001 x31:0x80003bd8 x26=0x00000000
       70025000	      7001	80003c4c	01fbd893	srli	x17,x23,0x1f	 x23:0x80003be0 x17=0x00000001
       70035000	      7002	80003c50	417e5793	srai	x15,x28,0x17	 x28:0x00000000 x15=0x00000000
       70045000	      7003	80003c54	01031bb3	sll	x23,x6,x16	  x6:0x80003bbc x16:0x80009f14 x23=0xbbc00000
       70055000	      7004	80003c58	00f4ff33	and	x30,x9,x15	  x9:0x8005c7bd x15:0x00000000 x30=0x00000000
       70065000	      7005	80003c5c	b3f84993	xori	x19,x16,-1217	 x16:0x80009f14 x19=0x7fff642b
       70075000	      7006	80003c60	016107b3	add	x15,x2,x22	  x2:0x80003bac x22:0x00000000 x15=0x80003bac
       70085000	      7007	80003c64	00fa8e63	beq	x21,x15,80003c80	 x21:0x20000000 x15:0x80003bac
       70095000	      7008	80003c68	01167b33	and	x22,x12,x17	 x12:0x00200027 x17:0x00000001 x22=0x00000001
       70105000	      7009	80003c6c	01f41f33	sll	x30,x8,x31	  x8:0x00000001 x31:0x80003bd8 x30=0x01000000
       70115000	      7010	80003c70	85870a93	addi	x21,x14,-1960	 x14:0x80003be4 x21=0x8000343c
       70125000	      7011	80003c74	0ce41263	bne	x8,x14,80003d38	  x8:0x00000001 x14:0x80003be4
       70135000	      7012	00000000	00000013	addi	x0,x0,0	  x0:0x00000000
       70145000	      7013	80003d34	00000013	addi	x0,x0,0	  x0:0x00000000
       70155000	      7014	80003d38	036f1c63	bne	x30,x22,80003d70	 x30:0x01000000 x22:0x00000001
       70165000	      7015	00000000	00000013	addi	x0,x0,0	  x0:0x00000000
       70175000	      7016	80003d6c	00000013	addi	x0,x0,0	  x0:0x00000000
       70185000	      7017	80003d70	18238193	addi	x3,x7,386	  x7:0x0ac13001  x3=0x0ac13183
       70195000	      7018	80003d74	4183dab3	sra	x21,x7,x24	  x7:0x0ac13001 x24:0xffe0000e x21=0x00002b04
       70205000	      7019	80003d78	0107d133	srl	x2,x15,x16	 x15:0x80003bac x16:0x80009f14  x2=0x00000800
       70215000	      7020	80003d7c	004e9c93	slli	x25,x29,0x4	 x29:0x4648ebe8 x25=0x648ebe80
       70225000	      7021	80003d80	01820cb3	add	x25,x4,x24	  x4:0x00000000 x24:0xffe0000e x25=0xffe0000e
       70235000	      7022	80003d84	01edca33	xor	x20,x27,x30	 x27:0x00000000 x30:0x01000000 x20=0x01000000
       70245000	      7023	80003d88	0171d463	bge	x3,x23,80003d90	  x3:0x0ac13183 x23:0xbbc00000
       70255000	      7024	00000000	00000013	addi	x0,x0,0	  x0:0x00000000
       70265000	      7025	80003d8c	00000013	addi	x0,x0,0	  x0:0x00000000
       70275000	      7026	80003d90	9fdc5a37	lui	x20,0x9fdc5	 x20=0x9fdc5000
       70285000	      7027	80003d94	01968863	beq	x13,x25,80003da4	 x13:0x0005e12d x25:0xffe0000e
       70295000	      7028	80003d98	404ad093	srai	x1,x21,0x4	 x21:0x00002b04  x1=0x000002b0
       70305000	      7029	80003d9c	4123d493	srai	x9,x7,0x12	  x7:0x0ac13001  x9=0x000002b0
       70315000	      7030	80003da0	01a9c6b3	xor	x13,x19,x26	 x19:0x7fff642b x26:0x00000000 x13=0x7fff642b
       70325000	      7031	80003da4	018a2c33	slt	x24,x20,x24	 x20:0x9fdc5000 x24:0xffe0000e x24=0x00000001
       70335000	      7032	80003da8	01bbd9b3	srl	x19,x23,x27	 x23:0xbbc00000 x27:0x00000000 x19=0xbbc00000
       70345000	      7033	80003dac	00000013	addi	x0,x0,0	  x0:0x00000000
       70355000	      7034	80003db0	0068d833	srl	x16,x17,x6	 x17:0x00000001  x6:0x80003bbc x16=0x00000000
       70365000	      7035	80003db4	016b6a33	or	x20,x22,x22	 x22:0x00000001 x22:0x00000001 x20=0x00000001
       70375000	      7036	80003db8	0144d713	srli	x14,x9,0x14	  x9:0x000002b0 x14=0x00000000
       70385000	      7037	80003dbc	d6afb513	sltiu	x10,x31,-662	 x31:0x80003bd8 x10=0x00000001
       70395000	      7038	80003dc0	002e37b3	sltu	x15,x28,x2	 x28:0x00000000  x2:0x00000800 x15=0x00000001
       70405000	      7039	80003dc4	ee9f4c13	xori	x24,x30,-279	 x30:0x01000000 x24=0xfefffee9
       70415000	      7040	80003dc8	04889263	bne	x17,x8,80003e0c	 x17:0x00000001  x8:0x00000001
       70425000	      7041	80003dcc	4003dd93	srai	x27,x7,0x0	  x7:0x0ac13001 x27=0x0ac13001
       70435000	      7042	80003dd0	013a9613	slli	x12,x21,0x13	 x21:0x00002b04 x12=0x58200000
       70445000	      7043	80003dd4	402b8f33	sub	x30,x23,x2	 x23:0xbbc00000  x2:0x00000800 x30=0xbbbff800
       70455000	      7044	80003dd8	04f05263	bge	x0,x15,80003e1c	  x0:0x00000000 x15:0x00000001
       70465000	      7045	80003ddc	fd9bcd93	xori	x27,x23,-39	 x23:0xbbc00000 x27=0x443fffd9
       70475000	      7046	80003de0	01a00f33	add	x30,x0,x26	  x0:0x00000000 x26:0x00000000 x30=0x00000000
       70485000	      7047	80003de4	00a771b3	and	x3,x14,x10	 x14:0x00000000 x10:0x00000001  x3=0x00000000
       70495000	      7048	80003de8	ecf49a97	auipc	x21,0xecf49	 x21=0x6cf4cde4
       70505000	      7049	80003dec	017a0a33	add	x20,x20,x23	 x20:0x00000001 x23:0xbbc00000 x20=0xbbc00001
       70515000	      7050	80003df0	34102c93	slti	x25,x0,833	  x0:0x00000000 x25=0x00000001
       70525000	      7051	80003df4	00000013	addi	x0,x0,0	  x0:0x00000000
       70535000	      7052	80003df8	0164ec63	bltu	x9,x22,80003e10	  x9:0x000002b0 x22:0x00000001
       70545000	      7053	80003dfc	004ebab3	sltu	x21,x29,x4	 x29:0x4648ebe8  x4:0x00000000 x21=0x00000000
       70555000	      7054	80003e00	40d68933	sub	x18,x13,x13	 x13:0x7fff642b x13:0x7fff642b x18=0x00000000
       70565000	      7055	80003e04	00000013	addi	x0,x0,0	  x0:0x00000000
       70575000	      7056	80003e08	01c8dc33	srl	x24,x17,x28	 x17:0x00000001 x28:0x00000000 x24=0x00000001
       70585000	      7057	80003e0c	0190d813	srli	x16,x1,0x19	  x1:0x000002b0 x16=0x00000000
       70595000	      7058	80003e10	7f62f7b7	lui	x15,0x7f62f	 x15=0x7f62f000
       70605000	      7059	80003e14	024fdc63	bge	x31,x4,80003e4c	 x31:0x80003bd8  x4:0x00000000
       70615000	      7060	80003e18	ada7b093	sltiu	x1,x15,-1318	 x15:0x7f62f000  x1=0x00000001
       70625000	      7061	80003e1c	01d38633	add	x12,x7,x29	  x7:0x0ac13001 x29:0x4648ebe8 x12=0x510a1be9
       70635000	      7062	80003e20	820ba793	slti	x15,x23,-2016	 x23:0xbbc00000 x15=0x00000001
       70645000	      7063	80003e24	01955db3	srl	x27,x10,x25	 x10:0x00000001 x25:0x00000001 x27=0x00000000
       70655000	      7064	80003e28	26bf3613	sltiu	x12,x30,619	 x30:0x00000000 x12=0x00000001
       70665000	      7065	80003e2c	40e48533	sub	x10,x9,x14	  x9:0x000002b0 x14:0x00000000 x10=0x000002b0
       70675000	      7066	80003e30	0169d913	srli	x18,x19,0x16	 x19:0xbbc00000 x18=0x000002ef
       70685000	      7067	80003e34	01265013	srli	x0,x12,0x12	 x12:0x00000001
       70695000	      7068	80003e38	015f5113	srli	x2,x30,0x15	 x30:0x00000000  x2=0x00000000
       70705000	      7069	80003e3c	80866513	ori	x10,x12,-2040	 x12:0x00000001 x10=0xfffff809
       70715000	      7070	80003e40	e747af93	slti	x31,x15,-396	 x15:0x00000001 x31=0x00000000
       70725000	      7071	80003e44	002e6bb3	or	x23,x28,x2	 x28:0x00000000  x2:0x00000000 x23=0x00000000
       70735000	      7072	80003e48	ebe14493	xori	x9,x2,-322	  x2:0x00000000  x9=0xfffffebe
       70745000	      7073	80003e4c	2a3c7f13	andi	x30,x24,675	 x24:0x00000001 x30=0x00000001
       70755000	      7074	80003e50	00c85b93	srli	x23,x16,0xc	 x16:0x00000000 x23=0x00000000
       70765000	      7075	80003e54	017a4cb3	xor	x25,x20,x23	 x20:0xbbc00001 x23:0x00000000 x25=0xbbc00001
       70775000	      7076	80003e58	0054dc33	srl	x24,x9,x5	  x9:0xfffffebe  x5:0x80009fc4 x24=0x0fffffeb
       70785000	      7077	80003e5c	00d431b3	sltu	x3,x8,x13	  x8:0x00000001 x13:0x7fff642b  x3=0x00000001
       70795000	      7078	80003e60	01f7d733	srl	x14,x15,x31	 x15:0x00000001 x31:0x00000000 x14=0x00000001
       70805000	      7079	80003e64	3be6ef13	ori	x30,x13,958	 x13:0x7fff642b x30=0x7fff67bf
       70815000	      7080	80003e68	02808863	beq	x1,x8,80003e98	  x1:0x00000001  x8:0x00000001
       70825000	      7081	00000000	00000013	addi	x0,x0,0	  x0:0x00000000
       70835000	      7082	80003e94	00000013	addi	x0,x0,0	  x0:0x00000000
       70845000	      7083	80003e98	011b5eb3	srl	x29,x22,x17	 x22:0x00000001 x17:0x00000001 x29=0x00000000
       70855000	      7084	80003e9c	a3f73213	sltiu	x4,x14,-1473	 x14:0x00000001  x4=0x00000001
       70865000	      7085	80003ea0	0071bbb3	sltu	x23,x3,x7	  x3:0x00000001  x7:0x0ac13001 x23=0x00000001
       70875000	      7086	80003ea4	5b3fad93	slti	x27,x31,1459	 x31:0x00000000 x27=0x00000001
       70885000	      7087	80003ea8	0045a103	lw	x2,4(x11)	 x11:0x80009ef0  x2=0x80002b94 PA:0x80009ef4
       70895000	      7088	80003eac	00e22a33	slt	x20,x4,x14	  x4:0x00000001 x14:0x00000001 x20=0x00000000
       70905000	      7089	80003eb0	00225093	srli	x1,x4,0x2	  x4:0x00000001  x1=0x00000000
       70915000	      7090	80003eb4	01e7d313	srli	x6,x15,0x1e	 x15:0x00000001  x6=0x00000000
       70925000	      7091	80003eb8	02458593	addi	x11,x11,36	 x11:0x80009ef0 x11=0x80009f14
       70935000	      7092	80003ebc	00000013	addi	x0,x0,0	  x0:0x00000000
       70945000	      7093	80003ec0	00110813	addi	x16,x2,1	  x2:0x80002b94 x16=0x80002b95
       70955000	      7094	80003ec4	00080867	jalr	x16,x16,0	 x16:0x80002b95 x16=0x80003ec4
       70965000	      7095	00000000	00000013	addi	x0,x0,0	  x0:0x00000000
       70975000	      7096	80002b94	00000013	addi	x0,x0,0	  x0:0x00000000
       70985000	      7097	80002b98	8f6f7737	lui	x14,0x8f6f7	 x14=0x8f6f7000
       70995000	      7098	80002b9c	03287463	bgeu	x16,x18,80002bc4	 x16:0x80003ec4 x18:0x000002ef
       71005000	      7099	00000000	00000013	addi	x0,x0,0	  x0:0x00000000
       71015000	      7100	80002bc0	00000013	addi	x0,x0,0	  x0:0x00000000
       71025000	      7101	80002bc4	41b3ddb3	sra	x27,x7,x27	  x7:0x0ac13001 x27:0x00000001 x27=0x05609800
       71035000	      7102	80002bc8	d5103c13	sltiu	x24,x0,-687	  x0:0x00000000 x24=0x00000001
       71045000	      7103	80002bcc	40cb5e93	srai	x29,x22,0xc	 x22:0x00000001 x29=0x00000000
       71055000	      7104	80002bd0	d79eca13	xori	x20,x29,-647	 x29:0x00000000 x20=0xfffffd79
       71065000	      7105	80002bd4	0420f263	bgeu	x1,x2,80002c18	  x1:0x00000000  x2:0x80002b94
       71075000	      7106	80002bd8	f3b091b7	lui	x3,0xf3b09	  x3=0xf3b09000
       71085000	      7107	80002bdc	00f52533	slt	x10,x10,x15	 x10:0xfffff809 x15:0x00000001 x10=0x00000001
       71095000	      7108	80002be0	00000013	addi	x0,x0,0	  x0:0x00000000
       71105000	      7109	80002be4	008e5333	srl	x6,x28,x8	 x28:0x00000000  x8:0x00000001  x6=0x00000000
       71115000	      7110	80002be8	014f31b3	sltu	x3,x30,x20	 x30:0x7fff67bf x20:0xfffffd79  x3=0x00000001
       71125000	      7111	80002bec	3f8c6a17	auipc	x20,0x3f8c6	 x20=0xbf8c8be8
       71135000	      7112	80002bf0	04885863	bge	x16,x8,80002c40	 x16:0x80003ec4  x8:0x00000001
       71145000	      7113	80002bf4	4227fd13	andi	x26,x15,1058	 x15:0x00000001 x26=0x00000000
       71155000	      7114	80002bf8	0181f4b3	and	x9,x3,x24	  x3:0x00000001 x24:0x00000001  x9=0x00000001
       71165000	      7115	80002bfc	41b35b13	srai	x22,x6,0x1b	  x6:0x00000000 x22=0x00000000
       71175000	      7116	80002c00	41a44337	lui	x6,0x41a44	  x6=0x41a44000
       71185000	      7117	80002c04	00ac0263	beq	x24,x10,80002c08	 x24:0x00000001 x10:0x00000001
       71195000	      7118	00000000	00000013	addi	x0,x0,0	  x0:0x00000000
       71205000	      7119	80002c04	00000013	addi	x0,x0,0	  x0:0x00000000
       71215000	      7120	80002c08	00ec0833	add	x16,x24,x14	 x24:0x00000001 x14:0x8f6f7000 x16=0x8f6f7001
       71225000	      7121	80002c0c	01ea53b3	srl	x7,x20,x30	 x20:0xbf8c8be8 x30:0x7fff67bf  x7=0x00000001
       71235000	      7122	80002c10	00cf93b3	sll	x7,x31,x12	 x31:0x00000000 x12:0x00000001  x7=0x00000000
       71245000	      7123	80002c14	01892fb3	slt	x31,x18,x24	 x18:0x000002ef x24:0x00000001 x31=0x00000000
       71255000	      7124	80002c18	00fd1933	sll	x18,x26,x15	 x26:0x00000000 x15:0x00000001 x18=0x00000000
       71265000	      7125	80002c1c	01048eb3	add	x29,x9,x16	  x9:0x00000001 x16:0x8f6f7001 x29=0x8f6f7002
       71275000	      7126	80002c20	018e8633	add	x12,x29,x24	 x29:0x8f6f7002 x24:0x00000001 x12=0x8f6f7003
       71285000	      7127	80002c24	0150f533	and	x10,x1,x21	  x1:0x00000000 x21:0x00000000 x10=0x00000000
       71295000	      7128	80002c28	016afbb3	and	x23,x21,x22	 x21:0x00000000 x22:0x00000000 x23=0x00000000
       71305000	      7129	80002c2c	b2fccc37	lui	x24,0xb2fcc	 x24=0xb2fcc000
       71315000	      7130	80002c30	0039fd33	and	x26,x19,x3	 x19:0xbbc00000  x3:0x00000001 x26=0x00000000
       71325000	      7131	80002c34	01c07c63	bgeu	x0,x28,80002c4c	  x0:0x00000000 x28:0x00000000
       71335000	      7132	00000000	00000013	addi	x0,x0,0	  x0:0x00000000
       71345000	      7133	80002c48	00000013	addi	x0,x0,0	  x0:0x00000000
       71355000	      7134	80002c4c	05fdf863	bgeu	x27,x31,80002c9c	 x27:0x05609800 x31:0x00000000
       71365000	      7135	00000000	00000013	addi	x0,x0,0	  x0:0x00000000
       71375000	      7136	80002c98	00000013	addi	x0,x0,0	  x0:0x00000000
       71385000	      7137	80002c9c	01337bb3	and	x23,x6,x19	  x6:0x41a44000 x19:0xbbc00000 x23=0x01800000
       71395000	      7138	80002ca0	01d82633	slt	x12,x16,x29	 x16:0x8f6f7001 x29:0x8f6f7002 x12=0x00000001
       71405000	      7139	80002ca4	00b71713	slli	x14,x14,0xb	 x14:0x8f6f7000 x14=0x7b800000
       71415000	      7140	80002ca8	01511133	sll	x2,x2,x21	  x2:0x80002b94 x21:0x00000000  x2=0x80002b94
       71425000	      7141	80002cac	01d29833	sll	x16,x5,x29	  x5:0x80009fc4 x29:0x8f6f7002 x16=0x00027f10
       71435000	      7142	80002cb0	007dbd33	sltu	x26,x27,x7	 x27:0x05609800  x7:0x00000000 x26=0x00000000
       71445000	      7143	80002cb4	05b86263	bltu	x16,x27,80002cf8	 x16:0x00027f10 x27:0x05609800
       71455000	      7144	00000000	00000013	addi	x0,x0,0	  x0:0x00000000
       71465000	      7145	80002cf4	00000013	addi	x0,x0,0	  x0:0x00000000
       71475000	      7146	80002cf8	01bd9f93	slli	x31,x27,0x1b	 x27:0x05609800 x31=0x00000000
       71485000	      7147	80002cfc	008bc9b3	xor	x19,x23,x8	 x23:0x01800000  x8:0x00000001 x19=0x01800001
       71495000	      7148	80002d00	e5e60f13	addi	x30,x12,-418	 x12:0x00000001 x30=0xfffffe5f
       71505000	      7149	80002d04	02fd5463	bge	x26,x15,80002d2c	 x26:0x00000000 x15:0x00000001
       71515000	      7150	80002d08	02357663	bgeu	x10,x3,80002d34	 x10:0x00000000  x3:0x00000001
       71525000	      7151	80002d0c	005e3933	sltu	x18,x28,x5	 x28:0x00000000  x5:0x80009fc4 x18=0x00000001
       71535000	      7152	80002d10	014d99b3	sll	x19,x27,x20	 x27:0x05609800 x20:0xbf8c8be8 x19=0x60980000
       71545000	      7153	80002d14	004d7263	bgeu	x26,x4,80002d18	 x26:0x00000000  x4:0x00000001
       71555000	      7154	80002d18	01a61393	slli	x7,x12,0x1a	 x12:0x00000001  x7=0x04000000
       71565000	      7155	80002d1c	00321cb3	sll	x25,x4,x3	  x4:0x00000001  x3:0x00000001 x25=0x00000002
       71575000	      7156	80002d20	9a3db093	sltiu	x1,x27,-1629	 x27:0x05609800  x1=0x00000001
       71585000	      7157	80002d24	32db0213	addi	x4,x22,813	 x22:0x00000000  x4=0x0000032d
       71595000	      7158	80002d28	ba15a813	slti	x16,x11,-1119	 x11:0x80009f14 x16=0x00000001
       71605000	      7159	80002d2c	5dd43397	auipc	x7,0x5dd43	  x7=0xddd45d28
       71615000	      7160	80002d30	a8040017	auipc	x0,0xa8040	
       71625000	      7161	80002d34	014a6b33	or	x22,x20,x20	 x20:0xbf8c8be8 x20:0xbf8c8be8 x22=0xbf8c8be8
       71635000	      7162	80002d38	51763493	sltiu	x9,x12,1303	 x12:0x00000001  x9=0x00000001
       71645000	      7163	80002d3c	008926b3	slt	x13,x18,x8	 x18:0x00000001  x8:0x00000001 x13=0x00000000
       71655000	      7164	80002d40	01afd133	srl	x2,x31,x26	 x31:0x00000000 x26:0x00000000  x2=0x00000000
       71665000	      7165	80002d44	2622aa93	slti	x21,x5,610	  x5:0x80009fc4 x21=0x00000001
       71675000	      7166	80002d48	40228f33	sub	x30,x5,x2	  x5:0x80009fc4  x2:0x00000000 x30=0x80009fc4
       71685000	      7167	80002d4c	02d7f463	bgeu	x15,x13,80002d74	 x15:0x00000001 x13:0x00000000
       71695000	      7168	00000000	00000013	addi	x0,x0,0	  x0:0x00000000
       71705000	      7169	80002d70	00000013	addi	x0,x0,0	  x0:0x00000000
       71715000	      7170	80002d74	f9b44913	xori	x18,x8,-101	  x8:0x00000001 x18=0xffffff9a
       71725000	      7171	80002d78	408c8233	sub	x4,x25,x8	 x25:0x00000002  x8:0x00000001  x4=0x00000001
       71735000	      7172	80002d7c	00a48d33	add	x26,x9,x10	  x9:0x00000001 x10:0x00000000 x26=0x00000001
       71745000	      7173	80002d80	0052e833	or	x16,x5,x5	  x5:0x80009fc4  x5:0x80009fc4 x16=0x80009fc4
       71755000	      7174	80002d84	40875bb3	sra	x23,x14,x8	 x14:0x7b800000  x8:0x00000001 x23=0x3dc00000
       71765000	      7175	80002d88	cef7ee97	auipc	x29,0xcef7e	 x29=0x4ef80d84
       71775000	      7176	80002d8c	008f1ab3	sll	x21,x30,x8	 x30:0x80009fc4  x8:0x00000001 x21=0x00013f88
       71785000	      7177	80002d90	1a07fb93	andi	x23,x15,416	 x15:0x00000001 x23=0x00000000
       71795000	      7178	80002d94	401a58b3	sra	x17,x20,x1	 x20:0xbf8c8be8  x1:0x00000001 x17=0xdfc645f4
       71805000	      7179	80002d98	02808e63	beq	x1,x8,80002dd4	  x1:0x00000001  x8:0x00000001
       71815000	      7180	00000000	00000013	addi	x0,x0,0	  x0:0x00000000
       71825000	      7181	80002dd0	00000013	addi	x0,x0,0	  x0:0x00000000
       71835000	      7182	80002dd4	41205793	srai	x15,x0,0x12	  x0:0x00000000 x15=0x00000000
       71845000	      7183	80002dd8	00373cb3	sltu	x25,x14,x3	 x14:0x7b800000  x3:0x00000001 x25=0x00000000
       71855000	      7184	80002ddc	01059463	bne	x11,x16,80002de4	 x11:0x80009f14 x16:0x80009fc4
       71865000	      7185	00000000	00000013	addi	x0,x0,0	  x0:0x00000000
       71875000	      7186	80002de0	00000013	addi	x0,x0,0	  x0:0x00000000
       71885000	      7187	80002de4	d5ccc1b7	lui	x3,0xd5ccc	  x3=0xd5ccc000
       71895000	      7188	80002de8	00636db3	or	x27,x6,x6	  x6:0x41a44000  x6:0x41a44000 x27=0x41a44000
       71905000	      7189	80002dec	4082d113	srai	x2,x5,0x8	  x5:0x80009fc4  x2=0xff80009f
       71915000	      7190	80002df0	50bf3c93	sltiu	x25,x30,1291	 x30:0x80009fc4 x25=0x00000000
       71925000	      7191	80002df4	005ca533	slt	x10,x25,x5	 x25:0x00000000  x5:0x80009fc4 x10=0x00000000
       71935000	      7192	80002df8	4533a817	auipc	x16,0x4533a	 x16=0xc533cdf4
       71945000	      7193	80002dfc	0105c0b3	xor	x1,x11,x16	 x11:0x80009f14 x16:0xc533cdf4  x1=0x453352e0
       71955000	      7194	80002e00	b5704f93	xori	x31,x0,-1193	  x0:0x00000000 x31=0xfffffb57
       71965000	      7195	80002e04	01a586b3	add	x13,x11,x26	 x11:0x80009f14 x26:0x00000001 x13=0x80009f15
       71975000	      7196	80002e08	be774393	xori	x7,x14,-1049	 x14:0x7b800000  x7=0x847ffbe7
       71985000	      7197	80002e0c	000bd513	srli	x10,x23,0x0	 x23:0x00000000 x10=0x00000000
       71995000	      7198	80002e10	01b08263	beq	x1,x27,80002e14	  x1:0x453352e0 x27:0x41a44000
       72005000	      7199	80002e14	029bc263	blt	x23,x9,80002e38	 x23:0x00000000  x9:0x00000001
       72015000	      7200	00000000	00000013	addi	x0,x0,0	  x0:0x00000000
       72025000	      7201	80002e34	00000013	addi	x0,x0,0	  x0:0x00000000
       72035000	      7202	80002e38	01646eb3	or	x29,x8,x22	  x8:0x00000001 x22:0xbf8c8be8 x29=0xbf8c8be9
       72045000	      7203	80002e3c	037fc863	blt	x31,x23,80002e6c	 x31:0xfffffb57 x23:0x00000000
       72055000	      7204	00000000	00000013	addi	x0,x0,0	  x0:0x00000000
       72065000	      7205	80002e68	00000013	addi	x0,x0,0	  x0:0x00000000
       72075000	      7206	80002e6c	02717e63	bgeu	x2,x7,80002ea8	  x2:0xff80009f  x7:0x847ffbe7
       72085000	      7207	00000000	00000013	addi	x0,x0,0	  x0:0x00000000
       72095000	      7208	80002ea4	00000013	addi	x0,x0,0	  x0:0x00000000
       72105000	      7209	80002ea8	ba8fe993	ori	x19,x31,-1112	 x31:0xfffffb57 x19=0xfffffbff
       72115000	      7210	80002eac	01211993	slli	x19,x2,0x12	  x2:0xff80009f x19=0x027c0000
       72125000	      7211	80002eb0	01d810b3	sll	x1,x16,x29	 x16:0xc533cdf4 x29:0xbf8c8be9  x1=0x679be800
       72135000	      7212	80002eb4	bf61d997	auipc	x19,0xbf61d	 x19=0x3f61feb0
       72145000	      7213	80002eb8	005087b3	add	x15,x1,x5	  x1:0x679be800  x5:0x80009fc4 x15=0xe79c87c4
       72155000	      7214	80002ebc	b91ba713	slti	x14,x23,-1135	 x23:0x00000000 x14=0x00000000
       72165000	      7215	80002ec0	006ddbb3	srl	x23,x27,x6	 x27:0x41a44000  x6:0x41a44000 x23=0x41a44000
       72175000	      7216	80002ec4	05ce5263	bge	x28,x28,80002f08	 x28:0x00000000 x28:0x00000000
       72185000	      7217	00000000	00000013	addi	x0,x0,0	  x0:0x00000000
       72195000	      7218	80002f04	00000013	addi	x0,x0,0	  x0:0x00000000
       72205000	      7219	80002f08	009f7db3	and	x27,x30,x9	 x30:0x80009fc4  x9:0x00000001 x27=0x00000000
       72215000	      7220	80002f0c	020cf263	bgeu	x25,x0,80002f30	 x25:0x00000000  x0:0x00000000
       72225000	      7221	00000000	00000013	addi	x0,x0,0	  x0:0x00000000
       72235000	      7222	80002f2c	00000013	addi	x0,x0,0	  x0:0x00000000
       72245000	      7223	80002f30	01b60c63	beq	x12,x27,80002f48	 x12:0x00000001 x27:0x00000000
       72255000	      7224	80002f34	00737733	and	x14,x6,x7	  x6:0x41a44000  x7:0x847ffbe7 x14=0x00244000
       72265000	      7225	80002f38	f28b2913	slti	x18,x22,-216	 x22:0xbf8c8be8 x18=0x00000001
       72275000	      7226	80002f3c	01b49993	slli	x19,x9,0x1b	  x9:0x00000001 x19=0x08000000
       72285000	      7227	80002f40	418e5333	sra	x6,x28,x24	 x28:0x00000000 x24:0xb2fcc000  x6=0x00000000
       72295000	      7228	80002f44	016d5cb3	srl	x25,x26,x22	 x26:0x00000001 x22:0xbf8c8be8 x25=0x00000000
       72305000	      7229	80002f48	03b60863	beq	x12,x27,80002f78	 x12:0x00000001 x27:0x00000000
       72315000	      7230	80002f4c	40ae8f33	sub	x30,x29,x10	 x29:0xbf8c8be9 x10:0x00000000 x30=0xbf8c8be9
       72325000	      7231	80002f50	00da8b33	add	x22,x21,x13	 x21:0x00013f88 x13:0x80009f15 x22=0x8001de9d
       72335000	      7232	80002f54	016e5b13	srli	x22,x28,0x16	 x28:0x00000000 x22=0x00000000
       72345000	      7233	80002f58	00831b13	slli	x22,x6,0x8	  x6:0x00000000 x22=0x00000000
       72355000	      7234	80002f5c	b468f213	andi	x4,x17,-1210	 x17:0xdfc645f4  x4=0xdfc64144
       72365000	      7235	80002f60	0256f063	bgeu	x13,x5,80002f80	 x13:0x80009f15  x5:0x80009fc4
       72375000	      7236	80002f64	050df863	bgeu	x27,x16,80002fb4	 x27:0x00000000 x16:0xc533cdf4
       72385000	      7237	80002f68	cd658013	addi	x0,x11,-810	 x11:0x80009f14
       72395000	      7238	80002f6c	003d63b3	or	x7,x26,x3	 x26:0x00000001  x3:0xd5ccc000  x7=0xd5ccc001
       72405000	      7239	80002f70	00f25f33	srl	x30,x4,x15	  x4:0xdfc64144 x15:0xe79c87c4 x30=0x0dfc6414
       72415000	      7240	80002f74	40f053b3	sra	x7,x0,x15	  x0:0x00000000 x15:0xe79c87c4  x7=0x00000000
       72425000	      7241	80002f78	811dc193	xori	x3,x27,-2031	 x27:0x00000000  x3=0xfffff811
       72435000	      7242	80002f7c	e7752513	slti	x10,x10,-393	 x10:0x00000000 x10=0x00000000
       72445000	      7243	80002f80	7d1e0397	auipc	x7,0x7d1e0	  x7=0xfd1e2f7c
       72455000	      7244	80002f84	040af863	bgeu	x21,x0,80002fd4	 x21:0x00013f88  x0:0x00000000
       72465000	      7245	00000000	00000013	addi	x0,x0,0	  x0:0x00000000
       72475000	      7246	80002fd0	00000013	addi	x0,x0,0	  x0:0x00000000
       72485000	      7247	80002fd4	26bb6493	ori	x9,x22,619	 x22:0x00000000  x9=0x0000026b
       72495000	      7248	80002fd8	012db3b3	sltu	x7,x27,x18	 x27:0x00000000 x18:0x00000001  x7=0x00000001
       72505000	      7249	80002fdc	030bc463	blt	x23,x16,80003004	 x23:0x41a44000 x16:0xc533cdf4
       72515000	      7250	80002fe0	01c2bcb3	sltu	x25,x5,x28	  x5:0x80009fc4 x28:0x00000000 x25=0x00000000
       72525000	      7251	80002fe4	00566f33	or	x30,x12,x5	 x12:0x00000001  x5:0x80009fc4 x30=0x80009fc5
       72535000	      7252	80002fe8	009bf263	bgeu	x23,x9,80002fec	 x23:0x41a44000  x9:0x0000026b
       72545000	      7253	00000000	00000013	addi	x0,x0,0	  x0:0x00000000
       72555000	      7254	80002fe8	00000013	addi	x0,x0,0	  x0:0x00000000
       72565000	      7255	80002fec	0587d263	bge	x15,x24,80003030	 x15:0xe79c87c4 x24:0xb2fcc000
       72575000	      7256	00000000	00000013	addi	x0,x0,0	  x0:0x00000000
       72585000	      7257	8000302c	00000013	addi	x0,x0,0	  x0:0x00000000
       72595000	      7258	80003030	6ed36f93	ori	x31,x6,1773	  x6:0x00000000 x31=0x000006ed
       72605000	      7259	80003034	4060d7b3	sra	x15,x1,x6	  x1:0x679be800  x6:0x00000000 x15=0x679be800
       72615000	      7260	80003038	3214e993	ori	x19,x9,801	  x9:0x0000026b x19=0x0000036b
       72625000	      7261	8000303c	016e21b3	slt	x3,x28,x22	 x28:0x00000000 x22:0x00000000  x3=0x00000000
       72635000	      7262	80003040	011368b3	or	x17,x6,x17	  x6:0x00000000 x17:0xdfc645f4 x17=0xdfc645f4
       72645000	      7263	80003044	09880e63	beq	x16,x24,800030e0	 x16:0xc533cdf4 x24:0xb2fcc000
       72655000	      7264	80003048	06c0016f	jal	x2,80003048	  x2=0x80003048
       72665000	      7265	00000000	00000013	addi	x0,x0,0	  x0:0x00000000
       72675000	      7266	800030b0	00000013	addi	x0,x0,0	  x0:0x00000000
       72685000	      7267	800030b4	fd9ff0ef	jal	x1,800030b4	  x1=0x800030b4
       72695000	      7268	00000000	00000013	addi	x0,x0,0	  x0:0x00000000
       72705000	      7269	80003088	00000013	addi	x0,x0,0	  x0:0x00000000
       72715000	      7270	8000308c	fd5ffcef	jal	x25,8000308c	 x25=0x8000308c
       72725000	      7271	00000000	00000013	addi	x0,x0,0	  x0:0x00000000
       72735000	      7272	8000305c	00000013	addi	x0,x0,0	  x0:0x00000000
       72745000	      7273	80003060	018000ef	jal	x1,80003060	  x1=0x80003060
       72755000	      7274	00000000	00000013	addi	x0,x0,0	  x0:0x00000000
       72765000	      7275	80003074	00000013	addi	x0,x0,0	  x0:0x00000000
       72775000	      7276	80003078	ff5ff0ef	jal	x1,80003078	  x1=0x80003078
       72785000	      7277	00000000	00000013	addi	x0,x0,0	  x0:0x00000000
       72795000	      7278	80003068	00000013	addi	x0,x0,0	  x0:0x00000000
       72805000	      7279	8000306c	0400016f	jal	x2,8000306c	  x2=0x8000306c
       72815000	      7280	00000000	00000013	addi	x0,x0,0	  x0:0x00000000
       72825000	      7281	800030a8	00000013	addi	x0,x0,0	  x0:0x00000000
       72835000	      7282	800030ac	fedff0ef	jal	x1,800030ac	  x1=0x800030ac
       72845000	      7283	00000000	00000013	addi	x0,x0,0	  x0:0x00000000
       72855000	      7284	80003094	00000013	addi	x0,x0,0	  x0:0x00000000
       72865000	      7285	80003098	0100036f	jal	x6,80003098	  x6=0x80003098
       72875000	      7286	00000000	00000013	addi	x0,x0,0	  x0:0x00000000
       72885000	      7287	800030a4	00000013	addi	x0,x0,0	  x0:0x00000000
       72895000	      7288	800030a8	fcdff0ef	jal	x1,800030a8	  x1=0x800030a8
       72905000	      7289	00000000	00000013	addi	x0,x0,0	  x0:0x00000000
       72915000	      7290	80003070	00000013	addi	x0,x0,0	  x0:0x00000000
       72925000	      7291	80003074	048009ef	jal	x19,80003074	 x19=0x80003074
       72935000	      7292	00000000	00000013	addi	x0,x0,0	  x0:0x00000000
       72945000	      7293	800030b8	00000013	addi	x0,x0,0	  x0:0x00000000
       72955000	      7294	800030bc	f9dff0ef	jal	x1,800030bc	  x1=0x800030bc
       72965000	      7295	00000000	00000013	addi	x0,x0,0	  x0:0x00000000
       72975000	      7296	80003054	00000013	addi	x0,x0,0	  x0:0x00000000
       72985000	      7297	80003058	0680036f	jal	x6,80003058	  x6=0x80003058
       72995000	      7298	00000000	00000013	addi	x0,x0,0	  x0:0x00000000
       73005000	      7299	800030bc	00000013	addi	x0,x0,0	  x0:0x00000000
       73015000	      7300	800030c0	fc1ff0ef	jal	x1,800030c0	  x1=0x800030c0
       73025000	      7301	00000000	00000013	addi	x0,x0,0	  x0:0x00000000
       73035000	      7302	8000307c	00000013	addi	x0,x0,0	  x0:0x00000000
       73045000	      7303	80003080	008000ef	jal	x1,80003080	  x1=0x80003080
       73055000	      7304	00000000	00000013	addi	x0,x0,0	  x0:0x00000000
       73065000	      7305	80003084	00000013	addi	x0,x0,0	  x0:0x00000000
       73075000	      7306	80003088	028000ef	jal	x1,80003088	  x1=0x80003088
       73085000	      7307	00000000	00000013	addi	x0,x0,0	  x0:0x00000000
       73095000	      7308	800030ac	00000013	addi	x0,x0,0	  x0:0x00000000
       73105000	      7309	800030b0	fd5ff36f	jal	x6,800030b0	  x6=0x800030b0
       73115000	      7310	00000000	00000013	addi	x0,x0,0	  x0:0x00000000
       73125000	      7311	80003080	00000013	addi	x0,x0,0	  x0:0x00000000
       73135000	      7312	80003084	fe5ff0ef	jal	x1,80003084	  x1=0x80003084
       73145000	      7313	00000000	00000013	addi	x0,x0,0	  x0:0x00000000
       73155000	      7314	80003064	00000013	addi	x0,x0,0	  x0:0x00000000
       73165000	      7315	80003068	02c0036f	jal	x6,80003068	  x6=0x80003068
       73175000	      7316	00000000	00000013	addi	x0,x0,0	  x0:0x00000000
       73185000	      7317	80003090	00000013	addi	x0,x0,0	  x0:0x00000000
       73195000	      7318	80003094	0100016f	jal	x2,80003094	  x2=0x80003094
       73205000	      7319	00000000	00000013	addi	x0,x0,0	  x0:0x00000000
       73215000	      7320	800030a0	00000013	addi	x0,x0,0	  x0:0x00000000
       73225000	      7321	800030a4	0140036f	jal	x6,800030a4	  x6=0x800030a4
       73235000	      7322	00000000	00000013	addi	x0,x0,0	  x0:0x00000000
       73245000	      7323	800030b4	00000013	addi	x0,x0,0	  x0:0x00000000
       73255000	      7324	800030b8	f9dff1ef	jal	x3,800030b8	  x3=0x800030b8
       73265000	      7325	00000000	00000013	addi	x0,x0,0	  x0:0x00000000
       73275000	      7326	80003050	00000013	addi	x0,x0,0	  x0:0x00000000
       73285000	      7327	80003054	0080046f	jal	x8,80003054	  x8=0x80003054
       73295000	      7328	00000000	00000013	addi	x0,x0,0	  x0:0x00000000
       73305000	      7329	80003058	00000013	addi	x0,x0,0	  x0:0x00000000
       73315000	      7330	8000305c	044000ef	jal	x1,8000305c	  x1=0x8000305c
       73325000	      7331	00000000	00000013	addi	x0,x0,0	  x0:0x00000000
       73335000	      7332	8000309c	00000013	addi	x0,x0,0	  x0:0x00000000
       73345000	      7333	800030a0	fc5ff96f	jal	x18,800030a0	 x18=0x800030a0
       73355000	      7334	00000000	00000013	addi	x0,x0,0	  x0:0x00000000
       73365000	      7335	80003060	00000013	addi	x0,x0,0	  x0:0x00000000
       73375000	      7336	80003064	fe9ff36f	jal	x6,80003064	  x6=0x80003064
       73385000	      7337	00000000	00000013	addi	x0,x0,0	  x0:0x00000000
       73395000	      7338	80003048	00000013	addi	x0,x0,0	  x0:0x00000000
       73405000	      7339	8000304c	050000ef	jal	x1,8000304c	  x1=0x8000304c
       73415000	      7340	00000000	00000013	addi	x0,x0,0	  x0:0x00000000
       73425000	      7341	80003098	00000013	addi	x0,x0,0	  x0:0x00000000
       73435000	      7342	8000309c	fb5ff26f	jal	x4,8000309c	  x4=0x8000309c
       73445000	      7343	00000000	00000013	addi	x0,x0,0	  x0:0x00000000
       73455000	      7344	8000304c	00000013	addi	x0,x0,0	  x0:0x00000000
       73465000	      7345	80003050	0400036f	jal	x6,80003050	  x6=0x80003050
       73475000	      7346	00000000	00000013	addi	x0,x0,0	  x0:0x00000000
       73485000	      7347	8000308c	00000013	addi	x0,x0,0	  x0:0x00000000
       73495000	      7348	80003090	fe1ff0ef	jal	x1,80003090	  x1=0x80003090
       73505000	      7349	00000000	00000013	addi	x0,x0,0	  x0:0x00000000
       73515000	      7350	8000306c	00000013	addi	x0,x0,0	  x0:0x00000000
       73525000	      7351	80003070	00c009ef	jal	x19,80003070	 x19=0x80003070
       73535000	      7352	00000000	00000013	addi	x0,x0,0	  x0:0x00000000
       73545000	      7353	80003078	00000013	addi	x0,x0,0	  x0:0x00000000
       73555000	      7354	8000307c	048000ef	jal	x1,8000307c	  x1=0x8000307c
       73565000	      7355	00000000	00000013	addi	x0,x0,0	  x0:0x00000000
       73575000	      7356	800030c0	00000013	addi	x0,x0,0	  x0:0x00000000
       73585000	      7357	800030c4	cf6eae97	auipc	x29,0xcf6ea	 x29=0x4f6ed0c0
       73595000	      7358	800030c8	00c8ac33	slt	x24,x17,x12	 x17:0xdfc645f4 x12:0x00000001 x24=0x00000001
       73605000	      7359	800030cc	0138f633	and	x12,x17,x19	 x17:0xdfc645f4 x19:0x80003070 x12=0x80000070
       73615000	      7360	800030d0	01ade533	or	x10,x27,x26	 x27:0x00000000 x26:0x00000001 x10=0x00000001
       73625000	      7361	800030d4	019451b3	srl	x3,x8,x25	  x8:0x80003054 x25:0x8000308c  x3=0x00080003
       73635000	      7362	800030d8	00407d97	auipc	x27,0x407	 x27=0x8040a0d4
       73645000	      7363	800030dc	13a380b7	lui	x1,0x13a38	  x1=0x13a38000
       73655000	      7364	800030e0	00aa9793	slli	x15,x21,0xa	 x21:0x00013f88 x15=0x04fe2000
       73665000	      7365	800030e4	b21bc393	xori	x7,x23,-1247	 x23:0x41a44000  x7=0xbe5bbb21
       73675000	      7366	800030e8	0045a103	lw	x2,4(x11)	 x11:0x80009f14  x2=0x8000367c PA:0x80009f18
       73685000	      7367	800030ec	018ebfb3	sltu	x31,x29,x24	 x29:0x4f6ed0c0 x24:0x00000001 x31=0x00000000
       73695000	      7368	800030f0	02c58593	addi	x11,x11,44	 x11:0x80009f14 x11=0x80009f40
       73705000	      7369	800030f4	0013c233	xor	x4,x7,x1	  x7:0xbe5bbb21  x1:0x13a38000  x4=0xadf83b21
       73715000	      7370	800030f8	ca7bbc13	sltiu	x24,x23,-857	 x23:0x41a44000 x24=0x00000001
       73725000	      7371	800030fc	f6ea7d93	andi	x27,x20,-146	 x20:0xbf8c8be8 x27=0xbf8c8b68
       73735000	      7372	80003100	0077ef33	or	x30,x15,x7	 x15:0x04fe2000  x7:0xbe5bbb21 x30=0xbeffbb21
       73745000	      7373	80003104	010ad3b3	srl	x7,x21,x16	 x21:0x00013f88 x16:0xc533cdf4  x7=0x00000000
       73755000	      7374	80003108	00010493	addi	x9,x2,0	  x2:0x8000367c  x9=0x8000367c
       73765000	      7375	8000310c	000484e7	jalr	x9,x9,0	  x9:0x8000367c  x9=0x8000310c
       73775000	      7376	00000000	00000013	addi	x0,x0,0	  x0:0x00000000
       73785000	      7377	8000367c	00000013	addi	x0,x0,0	  x0:0x00000000
       73795000	      7378	80003680	4058da33	sra	x20,x17,x5	 x17:0xdfc645f4  x5:0x80009fc4 x20=0xfdfc645f
       73805000	      7379	80003684	01475233	srl	x4,x14,x20	 x14:0x00244000 x20:0xfdfc645f  x4=0x00000000
       73815000	      7380	80003688	f93f6b13	ori	x22,x30,-109	 x30:0xbeffbb21 x22=0xffffffb3
       73825000	      7381	8000368c	414c8b33	sub	x22,x25,x20	 x25:0x8000308c x20:0xfdfc645f x22=0x8203cc2d
       73835000	      7382	80003690	41608733	sub	x14,x1,x22	  x1:0x13a38000 x22:0x8203cc2d x14=0x919fb3d3
       73845000	      7383	80003694	00f270b3	and	x1,x4,x15	  x4:0x00000000 x15:0x04fe2000  x1=0x00000000
       73855000	      7384	80003698	01296db3	or	x27,x18,x18	 x18:0x800030a0 x18:0x800030a0 x27=0x800030a0
       73865000	      7385	8000369c	01e7b333	sltu	x6,x15,x30	 x15:0x04fe2000 x30:0xbeffbb21  x6=0x00000001
       73875000	      7386	800036a0	00325f13	srli	x30,x4,0x3	  x4:0x00000000 x30=0x00000000
       73885000	      7387	800036a4	010d1c13	slli	x24,x26,0x10	 x26:0x00000001 x24=0x00010000
       73895000	      7388	800036a8	011140b3	xor	x1,x2,x17	  x2:0x8000367c x17:0xdfc645f4  x1=0x5fc67388
       73905000	      7389	800036ac	1b7e6d13	ori	x26,x28,439	 x28:0x00000000 x26=0x000001b7
       73915000	      7390	800036b0	02671a63	bne	x14,x6,800036e4	 x14:0x919fb3d3  x6:0x00000001
       73925000	      7391	00000000	00000013	addi	x0,x0,0	  x0:0x00000000
       73935000	      7392	800036e0	00000013	addi	x0,x0,0	  x0:0x00000000
       73945000	      7393	800036e4	0158eb33	or	x22,x17,x21	 x17:0xdfc645f4 x21:0x00013f88 x22=0xdfc77ffc
       73955000	      7394	800036e8	02827463	bgeu	x4,x8,80003710	  x4:0x00000000  x8:0x80003054
       73965000	      7395	800036ec	40555313	srai	x6,x10,0x5	 x10:0x00000001  x6=0x00000000
       73975000	      7396	800036f0	01991863	bne	x18,x25,80003700	 x18:0x800030a0 x25:0x8000308c
       73985000	      7397	00000000	00000013	addi	x0,x0,0	  x0:0x00000000
       73995000	      7398	800036fc	00000013	addi	x0,x0,0	  x0:0x00000000
       74005000	      7399	80003700	7b147913	andi	x18,x8,1969	  x8:0x80003054 x18=0x00000010
       74015000	      7400	80003704	018dc463	blt	x27,x24,8000370c	 x27:0x800030a0 x24:0x00010000
       74025000	      7401	00000000	00000013	addi	x0,x0,0	  x0:0x00000000
       74035000	      7402	80003708	00000013	addi	x0,x0,0	  x0:0x00000000
       74045000	      7403	8000370c	41805493	srai	x9,x0,0x18	  x0:0x00000000  x9=0x00000000
       74055000	      7404	80003710	40565433	sra	x8,x12,x5	 x12:0x80000070  x5:0x80009fc4  x8=0xf8000007
       74065000	      7405	80003714	017d2533	slt	x10,x26,x23	 x26:0x000001b7 x23:0x41a44000 x10=0x00000001
       74075000	      7406	80003718	0072fe63	bgeu	x5,x7,80003734	  x5:0x80009fc4  x7:0x00000000
       74085000	      7407	00000000	00000013	addi	x0,x0,0	  x0:0x00000000
       74095000	      7408	80003730	00000013	addi	x0,x0,0	  x0:0x00000000
       74105000	      7409	80003734	00000013	addi	x0,x0,0	  x0:0x00000000
       74115000	      7410	80003738	41448733	sub	x14,x9,x20	  x9:0x00000000 x20:0xfdfc645f x14=0x02039ba1
       74125000	      7411	8000373c	2078aa93	slti	x21,x17,519	 x17:0xdfc645f4 x21=0x00000001
       74135000	      7412	80003740	00000013	addi	x0,x0,0	  x0:0x00000000
       74145000	      7413	80003744	01081713	slli	x14,x16,0x10	 x16:0xc533cdf4 x14=0xcdf40000
       74155000	      7414	80003748	6f06c4b7	lui	x9,0x6f06c	  x9=0x6f06c000
       74165000	      7415	8000374c	41badd13	srai	x26,x21,0x1b	 x21:0x00000001 x26=0x00000000
       74175000	      7416	80003750	01420e63	beq	x4,x20,8000376c	  x4:0x00000000 x20:0xfdfc645f
       74185000	      7417	80003754	013ed613	srli	x12,x29,0x13	 x29:0x4f6ed0c0 x12=0x000009ed
       74195000	      7418	80003758	41355313	srai	x6,x10,0x13	 x10:0x00000001  x6=0x00000000
       74205000	      7419	8000375c	026c7a63	bgeu	x24,x6,80003790	 x24:0x00010000  x6:0x00000000
       74215000	      7420	00000000	00000013	addi	x0,x0,0	  x0:0x00000000
       74225000	      7421	8000378c	00000013	addi	x0,x0,0	  x0:0x00000000
       74235000	      7422	80003790	02748663	beq	x9,x7,800037bc	  x9:0x6f06c000  x7:0x00000000
       74245000	      7423	80003794	01f830b3	sltu	x1,x16,x31	 x16:0xc533cdf4 x31:0x00000000  x1=0x00000000
       74255000	      7424	80003798	418bd993	srai	x19,x23,0x18	 x23:0x41a44000 x19=0x00000041
       74265000	      7425	8000379c	41618133	sub	x2,x3,x22	  x3:0x00080003 x22:0xdfc77ffc  x2=0x20408007
       74275000	      7426	800037a0	41c188b3	sub	x17,x3,x28	  x3:0x00080003 x28:0x00000000 x17=0x00080003
       74285000	      7427	800037a4	0114f4b3	and	x9,x9,x17	  x9:0x6f06c000 x17:0x00080003  x9=0x00000000
       74295000	      7428	800037a8	0159bd33	sltu	x26,x19,x21	 x19:0x00000041 x21:0x00000001 x26=0x00000000
       74305000	      7429	800037ac	0d638f13	addi	x30,x7,214	  x7:0x00000000 x30=0x000000d6
       74315000	      7430	800037b0	00654c33	xor	x24,x10,x6	 x10:0x00000001  x6:0x00000000 x24=0x00000001
       74325000	      7431	800037b4	2b726937	lui	x18,0x2b726	 x18=0x2b726000
       74335000	      7432	800037b8	a86b6313	ori	x6,x22,-1402	 x22:0xdfc77ffc  x6=0xfffffffe
       74345000	      7433	800037bc	02b29e63	bne	x5,x11,800037f8	  x5:0x80009fc4 x11:0x80009f40
       74355000	      7434	00000000	00000013	addi	x0,x0,0	  x0:0x00000000
       74365000	      7435	800037f4	00000013	addi	x0,x0,0	  x0:0x00000000
       74375000	      7436	800037f8	00000013	addi	x0,x0,0	  x0:0x00000000
       74385000	      7437	800037fc	0583c063	blt	x7,x24,8000383c	  x7:0x00000000 x24:0x00000001
       74395000	      7438	00000000	00000013	addi	x0,x0,0	  x0:0x00000000
       74405000	      7439	80003838	00000013	addi	x0,x0,0	  x0:0x00000000
       74415000	      7440	8000383c	029d6463	bltu	x26,x9,80003864	 x26:0x00000000  x9:0x00000000
       74425000	      7441	80003840	00f2feb3	and	x29,x5,x15	  x5:0x80009fc4 x15:0x04fe2000 x29=0x00000000
       74435000	      7442	80003844	03095e63	bge	x18,x16,80003880	 x18:0x2b726000 x16:0xc533cdf4
       74445000	      7443	00000000	00000013	addi	x0,x0,0	  x0:0x00000000
       74455000	      7444	8000387c	00000013	addi	x0,x0,0	  x0:0x00000000
       74465000	      7445	80003880	005dcfb3	xor	x31,x27,x5	 x27:0x800030a0  x5:0x80009fc4 x31=0x0000af64
       74475000	      7446	80003884	003f3fb3	sltu	x31,x30,x3	 x30:0x000000d6  x3:0x00080003 x31=0x00000001
       74485000	      7447	80003888	ff8df093	andi	x1,x27,-8	 x27:0x800030a0  x1=0x800030a0
       74495000	      7448	8000388c	4007dab3	sra	x21,x15,x0	 x15:0x04fe2000  x0:0x00000000 x21=0x04fe2000
       74505000	      7449	80003890	00000013	addi	x0,x0,0	  x0:0x00000000
       74515000	      7450	80003894	0525e463	bltu	x11,x18,800038dc	 x11:0x80009f40 x18:0x2b726000
       74525000	      7451	80003898	410cdc93	srai	x25,x25,0x10	 x25:0x8000308c x25=0xffff8000
       74535000	      7452	8000389c	dffd6517	auipc	x10,0xdffd6	 x10=0x5ffd9898
       74545000	      7453	800038a0	8ee9bd93	sltiu	x27,x19,-1810	 x19:0x00000041 x27=0x00000001
       74555000	      7454	800038a4	02a96a63	bltu	x18,x10,800038d8	 x18:0x2b726000 x10:0x5ffd9898
       74565000	      7455	00000000	00000013	addi	x0,x0,0	  x0:0x00000000
       74575000	      7456	800038d4	00000013	addi	x0,x0,0	  x0:0x00000000
       74585000	      7457	800038d8	03ad0e63	beq	x26,x26,80003914	 x26:0x00000000 x26:0x00000000
       74595000	      7458	00000000	00000013	addi	x0,x0,0	  x0:0x00000000
       74605000	      7459	80003910	00000013	addi	x0,x0,0	  x0:0x00000000
       74615000	      7460	80003914	00e1c433	xor	x8,x3,x14	  x3:0x00080003 x14:0xcdf40000  x8=0xcdfc0003
       74625000	      7461	80003918	6dc2c713	xori	x14,x5,1756	  x5:0x80009fc4 x14=0x80009918
       74635000	      7462	8000391c	000e9993	slli	x19,x29,0x0	 x29:0x00000000 x19=0x00000000
       74645000	      7463	80003920	007afeb3	and	x29,x21,x7	 x21:0x04fe2000  x7:0x00000000 x29=0x00000000
       74655000	      7464	80003924	61d4ff13	andi	x30,x9,1565	  x9:0x00000000 x30=0x00000000
       74665000	      7465	80003928	02c0016f	jal	x2,80003928	  x2=0x80003928
       74675000	      7466	00000000	00000013	addi	x0,x0,0	  x0:0x00000000
       74685000	      7467	80003950	00000013	addi	x0,x0,0	  x0:0x00000000
       74695000	      7468	80003954	004000ef	jal	x1,80003954	  x1=0x80003954
       74705000	      7469	00000000	00000013	addi	x0,x0,0	  x0:0x00000000
       74715000	      7470	80003954	00000013	addi	x0,x0,0	  x0:0x00000000
       74725000	      7471	80003958	fd9ff0ef	jal	x1,80003958	  x1=0x80003958
       74735000	      7472	00000000	00000013	addi	x0,x0,0	  x0:0x00000000
       74745000	      7473	8000392c	00000013	addi	x0,x0,0	  x0:0x00000000
       74755000	      7474	80003930	018000ef	jal	x1,80003930	  x1=0x80003930
       74765000	      7475	00000000	00000013	addi	x0,x0,0	  x0:0x00000000
       74775000	      7476	80003944	00000013	addi	x0,x0,0	  x0:0x00000000
       74785000	      7477	80003948	fedff46f	jal	x8,80003948	  x8=0x80003948
       74795000	      7478	00000000	00000013	addi	x0,x0,0	  x0:0x00000000
       74805000	      7479	80003930	00000013	addi	x0,x0,0	  x0:0x00000000
       74815000	      7480	80003934	01c001ef	jal	x3,80003934	  x3=0x80003934
       74825000	      7481	00000000	00000013	addi	x0,x0,0	  x0:0x00000000
       74835000	      7482	8000394c	00000013	addi	x0,x0,0	  x0:0x00000000
       74845000	      7483	80003950	0180036f	jal	x6,80003950	  x6=0x80003950
       74855000	      7484	00000000	00000013	addi	x0,x0,0	  x0:0x00000000
       74865000	      7485	80003964	00000013	addi	x0,x0,0	  x0:0x00000000
       74875000	      7486	80003968	ff5ff0ef	jal	x1,80003968	  x1=0x80003968
       74885000	      7487	00000000	00000013	addi	x0,x0,0	  x0:0x00000000
       74895000	      7488	80003958	00000013	addi	x0,x0,0	  x0:0x00000000
       74905000	      7489	8000395c	fe9fff6f	jal	x30,8000395c	 x30=0x8000395c
       74915000	      7490	00000000	00000013	addi	x0,x0,0	  x0:0x00000000
       74925000	      7491	80003940	00000013	addi	x0,x0,0	  x0:0x00000000
       74935000	      7492	80003944	00800bef	jal	x23,80003944	 x23=0x80003944
       74945000	      7493	00000000	00000013	addi	x0,x0,0	  x0:0x00000000
       74955000	      7494	80003948	00000013	addi	x0,x0,0	  x0:0x00000000
       74965000	      7495	8000394c	ff5ffa6f	jal	x20,8000394c	 x20=0x8000394c
       74975000	      7496	00000000	00000013	addi	x0,x0,0	  x0:0x00000000
       74985000	      7497	8000393c	00000013	addi	x0,x0,0	  x0:0x00000000
       74995000	      7498	80003940	fedff0ef	jal	x1,80003940	  x1=0x80003940
       75005000	      7499	00000000	00000013	addi	x0,x0,0	  x0:0x00000000
       75015000	      7500	80003928	00000013	addi	x0,x0,0	  x0:0x00000000
       75025000	      7501	8000392c	034000ef	jal	x1,8000392c	  x1=0x8000392c
       75035000	      7502	00000000	00000013	addi	x0,x0,0	  x0:0x00000000
       75045000	      7503	8000395c	00000013	addi	x0,x0,0	  x0:0x00000000
       75055000	      7504	80003960	fd9fffef	jal	x31,80003960	 x31=0x80003960
       75065000	      7505	00000000	00000013	addi	x0,x0,0	  x0:0x00000000
       75075000	      7506	80003934	00000013	addi	x0,x0,0	  x0:0x00000000
       75085000	      7507	80003938	004000ef	jal	x1,80003938	  x1=0x80003938
       75095000	      7508	00000000	00000013	addi	x0,x0,0	  x0:0x00000000
       75105000	      7509	80003938	00000013	addi	x0,x0,0	  x0:0x00000000
       75115000	      7510	8000393c	0280036f	jal	x6,8000393c	  x6=0x8000393c
       75125000	      7511	00000000	00000013	addi	x0,x0,0	  x0:0x00000000
       75135000	      7512	80003960	00000013	addi	x0,x0,0	  x0:0x00000000
       75145000	      7513	80003964	00800def	jal	x27,80003964	 x27=0x80003964
       75155000	      7514	00000000	00000013	addi	x0,x0,0	  x0:0x00000000
       75165000	      7515	80003968	00000013	addi	x0,x0,0	  x0:0x00000000
       75175000	      7516	8000396c	c649a793	slti	x15,x19,-924	 x19:0x00000000 x15=0x00000000
       75185000	      7517	80003970	003ae463	bltu	x21,x3,80003978	 x21:0x04fe2000  x3:0x80003934
       75195000	      7518	00000000	00000013	addi	x0,x0,0	  x0:0x00000000
       75205000	      7519	80003974	00000013	addi	x0,x0,0	  x0:0x00000000
       75215000	      7520	80003978	1740f813	andi	x16,x1,372	  x1:0x80003938 x16=0x00000130
       75225000	      7521	8000397c	659ac093	xori	x1,x21,1625	 x21:0x04fe2000  x1=0x04fe2659
       75235000	      7522	80003980	018f2b33	slt	x22,x30,x24	 x30:0x8000395c x24:0x00000001 x22=0x00000001
       75245000	      7523	80003984	4fc02a13	slti	x20,x0,1276	  x0:0x00000000 x20=0x00000001
       75255000	      7524	80003988	d1b8e713	ori	x14,x17,-741	 x17:0x00080003 x14=0xfffffd1b
       75265000	      7525	8000398c	0511f863	bgeu	x3,x17,800039dc	  x3:0x80003934 x17:0x00080003
       75275000	      7526	00000000	00000013	addi	x0,x0,0	  x0:0x00000000
       75285000	      7527	800039d8	00000013	addi	x0,x0,0	  x0:0x00000000
       75295000	      7528	800039dc	0190b733	sltu	x14,x1,x25	  x1:0x04fe2659 x25:0xffff8000 x14=0x00000001
       75305000	      7529	800039e0	011b5313	srli	x6,x22,0x11	 x22:0x00000001  x6=0x00000000
       75315000	      7530	800039e4	6b643313	sltiu	x6,x8,1718	  x8:0x80003948  x6=0x00000000
       75325000	      7531	800039e8	01d8ec33	or	x24,x17,x29	 x17:0x00080003 x29:0x00000000 x24=0x00080003
       75335000	      7532	800039ec	2a602d93	slti	x27,x0,678	  x0:0x00000000 x27=0x00000001
       75345000	      7533	800039f0	0177b8b3	sltu	x17,x15,x23	 x15:0x00000000 x23:0x80003944 x17=0x00000001
       75355000	      7534	800039f4	00cb1ab3	sll	x21,x22,x12	 x22:0x00000001 x12:0x000009ed x21=0x00002000
       75365000	      7535	800039f8	003809b3	add	x19,x16,x3	 x16:0x00000130  x3:0x80003934 x19=0x80003a64
       75375000	      7536	800039fc	01300db3	add	x27,x0,x19	  x0:0x00000000 x19:0x80003a64 x27=0x80003a64
       75385000	      7537	80003a00	1879f793	andi	x15,x19,391	 x19:0x80003a64 x15=0x00000004
       75395000	      7538	80003a04	00d190b3	sll	x1,x3,x13	  x3:0x80003934 x13:0x80009f15  x1=0x26800000
       75405000	      7539	80003a08	00c85633	srl	x12,x16,x12	 x16:0x00000130 x12:0x000009ed x12=0x00000000
       75415000	      7540	80003a0c	019376b3	and	x13,x6,x25	  x6:0x00000000 x25:0xffff8000 x13=0x00000000
       75425000	      7541	80003a10	e1d57213	andi	x4,x10,-483	 x10:0x5ffd9898  x4=0x5ffd9818
       75435000	      7542	80003a14	01d71513	slli	x10,x14,0x1d	 x14:0x00000001 x10=0x20000000
       75445000	      7543	80003a18	40a10133	sub	x2,x2,x10	  x2:0x80003928 x10:0x20000000  x2=0x60003928
       75455000	      7544	80003a1c	411c50b3	sra	x1,x24,x17	 x24:0x00080003 x17:0x00000001  x1=0x00040001
       75465000	      7545	80003a20	40c28033	sub	x0,x5,x12	  x5:0x80009fc4 x12:0x00000000
       75475000	      7546	80003a24	00000013	addi	x0,x0,0	  x0:0x00000000
       75485000	      7547	80003a28	01c7b533	sltu	x10,x15,x28	 x15:0x00000004 x28:0x00000000 x10=0x00000000
       75495000	      7548	80003a2c	10f64817	auipc	x16,0x10f64	 x16=0x90f67a28
       75505000	      7549	80003a30	05018063	beq	x3,x16,80003a70	  x3:0x80003934 x16:0x90f67a28
       75515000	      7550	80003a34	002764b3	or	x9,x14,x2	 x14:0x00000001  x2:0x60003928  x9=0x60003929
       75525000	      7551	80003a38	7f063a93	sltiu	x21,x12,2032	 x12:0x00000000 x21=0x00000001
       75535000	      7552	80003a3c	00f50f33	add	x30,x10,x15	 x10:0x00000000 x15:0x00000004 x30=0x00000004
       75545000	      7553	80003a40	0062aa33	slt	x20,x5,x6	  x5:0x80009fc4  x6:0x00000000 x20=0x00000001
       75555000	      7554	80003a44	402fdab3	sra	x21,x31,x2	 x31:0x80003960  x2:0x60003928 x21=0xff800039
       75565000	      7555	80003a48	fe0bc313	xori	x6,x23,-32	 x23:0x80003944  x6=0x7fffc6a4
       75575000	      7556	80003a4c	00cc9463	bne	x25,x12,80003a54	 x25:0xffff8000 x12:0x00000000
       75585000	      7557	00000000	00000013	addi	x0,x0,0	  x0:0x00000000
       75595000	      7558	80003a50	00000013	addi	x0,x0,0	  x0:0x00000000
       75605000	      7559	80003a54	408e8a33	sub	x20,x29,x8	 x29:0x00000000  x8:0x80003948 x20=0x7fffc6b8
       75615000	      7560	80003a58	41b854b3	sra	x9,x16,x27	 x16:0x90f67a28 x27:0x80003a64  x9=0xf90f67a2
       75625000	      7561	80003a5c	3c622793	slti	x15,x4,966	  x4:0x5ffd9818 x15=0x00000000
       75635000	      7562	80003a60	00000013	addi	x0,x0,0	  x0:0x00000000
       75645000	      7563	80003a64	01179133	sll	x2,x15,x17	 x15:0x00000000 x17:0x00000001  x2=0x00000000
       75655000	      7564	80003a68	015c86b3	add	x13,x25,x21	 x25:0xffff8000 x21:0xff800039 x13=0xff7f8039
       75665000	      7565	80003a6c	01ed5333	srl	x6,x26,x30	 x26:0x00000000 x30:0x00000004  x6=0x00000000
       75675000	      7566	80003a70	008971b3	and	x3,x18,x8	 x18:0x2b726000  x8:0x80003948  x3=0x00002000
       75685000	      7567	80003a74	00000013	addi	x0,x0,0	  x0:0x00000000
       75695000	      7568	80003a78	00061bb3	sll	x23,x12,x0	 x12:0x00000000  x0:0x00000000 x23=0x00000000
       75705000	      7569	80003a7c	134de313	ori	x6,x27,308	 x27:0x80003a64  x6=0x80003b74
       75715000	      7570	80003a80	00d083b3	add	x7,x1,x13	  x1:0x00040001 x13:0xff7f8039  x7=0xff83803a
       75725000	      7571	80003a84	4f0a4c93	xori	x25,x20,1264	 x20:0x7fffc6b8 x25=0x7fffc248
       75735000	      7572	80003a88	04c6e063	bltu	x13,x12,80003ac8	 x13:0xff7f8039 x12:0x00000000
       75745000	      7573	80003a8c	02410063	beq	x2,x4,80003aac	  x2:0x00000000  x4:0x5ffd9818
       75755000	      7574	80003a90	0338f463	bgeu	x17,x19,80003ab8	 x17:0x00000001 x19:0x80003a64
       75765000	      7575	80003a94	97e64193	xori	x3,x12,-1666	 x12:0x00000000  x3=0xfffff97e
       75775000	      7576	80003a98	2b9fbd93	sltiu	x27,x31,697	 x31:0x80003960 x27=0x00000000
       75785000	      7577	80003a9c	fb9d8513	addi	x10,x27,-71	 x27:0x00000000 x10=0xffffffb9
       75795000	      7578	80003aa0	41578133	sub	x2,x15,x21	 x15:0x00000000 x21:0xff800039  x2=0x007fffc7
       75805000	      7579	80003aa4	01a85233	srl	x4,x16,x26	 x16:0x90f67a28 x26:0x00000000  x4=0x90f67a28
       75815000	      7580	80003aa8	02539e63	bne	x7,x5,80003ae4	  x7:0xff83803a  x5:0x80009fc4
       75825000	      7581	00000000	00000013	addi	x0,x0,0	  x0:0x00000000
       75835000	      7582	80003ae0	00000013	addi	x0,x0,0	  x0:0x00000000
       75845000	      7583	80003ae4	40acd793	srai	x15,x25,0xa	 x25:0x7fffc248 x15=0x001ffff0
       75855000	      7584	80003ae8	03dbd463	bge	x23,x29,80003b10	 x23:0x00000000 x29:0x00000000
       75865000	      7585	00000000	00000013	addi	x0,x0,0	  x0:0x00000000
       75875000	      7586	80003b0c	00000013	addi	x0,x0,0	  x0:0x00000000
       75885000	      7587	80003b10	1b05cf93	xori	x31,x11,432	 x11:0x80009f40 x31=0x80009ef0
       75895000	      7588	80003b14	4127d413	srai	x8,x15,0x12	 x15:0x001ffff0  x8=0x00000007
       75905000	      7589	80003b18	035f1463	bne	x30,x21,80003b40	 x30:0x00000004 x21:0xff800039
       75915000	      7590	00000000	00000013	addi	x0,x0,0	  x0:0x00000000
       75925000	      7591	80003b3c	00000013	addi	x0,x0,0	  x0:0x00000000
       75935000	      7592	80003b40	010d8233	add	x4,x27,x16	 x27:0x00000000 x16:0x90f67a28  x4=0x90f67a28
       75945000	      7593	80003b44	01f05863	bge	x0,x31,80003b54	  x0:0x00000000 x31:0x80009ef0
       75955000	      7594	00000000	00000013	addi	x0,x0,0	  x0:0x00000000
       75965000	      7595	80003b50	00000013	addi	x0,x0,0	  x0:0x00000000
       75975000	      7596	80003b54	012ddd93	srli	x27,x27,0x12	 x27:0x00000000 x27=0x00000000
       75985000	      7597	80003b58	0045a103	lw	x2,4(x11)	 x11:0x80009f40  x2=0x80003f54 PA:0x80009f44
       75995000	      7598	80003b5c	00432cb3	slt	x25,x6,x4	  x6:0x80003b74  x4:0x90f67a28 x25=0x00000001
       76005000	      7599	80003b60	20563c93	sltiu	x25,x12,517	 x12:0x00000000 x25=0x00000001
       76015000	      7600	80003b64	00000013	addi	x0,x0,0	  x0:0x00000000
       76025000	      7601	80003b68	01b1f633	and	x12,x3,x27	  x3:0xfffff97e x27:0x00000000 x12=0x00000000
       76035000	      7602	80003b6c	018d7bb3	and	x23,x26,x24	 x26:0x00000000 x24:0x00080003 x23=0x00000000
       76045000	      7603	80003b70	02c58593	addi	x11,x11,44	 x11:0x80009f40 x11=0x80009f6c
       76055000	      7604	80003b74	69668913	addi	x18,x13,1686	 x13:0xff7f8039 x18=0xff7f86cf
       76065000	      7605	80003b78	01cd9993	slli	x19,x27,0x1c	 x27:0x00000000 x19=0x00000000
       76075000	      7606	80003b7c	00110113	addi	x2,x2,1	  x2:0x80003f54  x2=0x80003f55
       76085000	      7607	80003b80	00010167	jalr	x2,x2,0	  x2:0x80003f55  x2=0x80003b80
       76095000	      7608	00000000	00000013	addi	x0,x0,0	  x0:0x00000000
       76105000	      7609	80003f54	00000013	addi	x0,x0,0	  x0:0x00000000
       76115000	      7610	80003f58	0280016f	jal	x2,80003f58	  x2=0x80003f58
       76125000	      7611	00000000	00000013	addi	x0,x0,0	  x0:0x00000000
       76135000	      7612	80003f7c	00000013	addi	x0,x0,0	  x0:0x00000000
       76145000	      7613	80003f80	004000ef	jal	x1,80003f80	  x1=0x80003f80
       76155000	      7614	00000000	00000013	addi	x0,x0,0	  x0:0x00000000
       76165000	      7615	80003f80	00000013	addi	x0,x0,0	  x0:0x00000000
       76175000	      7616	80003f84	0080036f	jal	x6,80003f84	  x6=0x80003f84
       76185000	      7617	00000000	00000013	addi	x0,x0,0	  x0:0x00000000
       76195000	      7618	80003f88	00000013	addi	x0,x0,0	  x0:0x00000000
       76205000	      7619	80003f8c	0140036f	jal	x6,80003f8c	  x6=0x80003f8c
       76215000	      7620	00000000	00000013	addi	x0,x0,0	  x0:0x00000000
       76225000	      7621	80003f9c	00000013	addi	x0,x0,0	  x0:0x00000000
       76235000	      7622	80003fa0	fd9ff0ef	jal	x1,80003fa0	  x1=0x80003fa0
       76245000	      7623	00000000	00000013	addi	x0,x0,0	  x0:0x00000000
       76255000	      7624	80003f74	00000013	addi	x0,x0,0	  x0:0x00000000
       76265000	      7625	80003f78	ff9fffef	jal	x31,80003f78	 x31=0x80003f78
       76275000	      7626	00000000	00000013	addi	x0,x0,0	  x0:0x00000000
       76285000	      7627	80003f6c	00000013	addi	x0,x0,0	  x0:0x00000000
       76295000	      7628	80003f70	02c000ef	jal	x1,80003f70	  x1=0x80003f70
       76305000	      7629	00000000	00000013	addi	x0,x0,0	  x0:0x00000000
       76315000	      7630	80003f98	00000013	addi	x0,x0,0	  x0:0x00000000
       76325000	      7631	80003f9c	fedff7ef	jal	x15,80003f9c	 x15=0x80003f9c
       76335000	      7632	00000000	00000013	addi	x0,x0,0	  x0:0x00000000
       76345000	      7633	80003f84	00000013	addi	x0,x0,0	  x0:0x00000000
       76355000	      7634	80003f88	fedffcef	jal	x25,80003f88	 x25=0x80003f88
       76365000	      7635	00000000	00000013	addi	x0,x0,0	  x0:0x00000000
       76375000	      7636	80003f70	00000013	addi	x0,x0,0	  x0:0x00000000
       76385000	      7637	80003f74	0200036f	jal	x6,80003f74	  x6=0x80003f74
       76395000	      7638	00000000	00000013	addi	x0,x0,0	  x0:0x00000000
       76405000	      7639	80003f90	00000013	addi	x0,x0,0	  x0:0x00000000
       76415000	      7640	80003f94	fe9ff36f	jal	x6,80003f94	  x6=0x80003f94
       76425000	      7641	00000000	00000013	addi	x0,x0,0	  x0:0x00000000
       76435000	      7642	80003f78	00000013	addi	x0,x0,0	  x0:0x00000000
       76445000	      7643	80003f7c	01400c6f	jal	x24,80003f7c	 x24=0x80003f7c
       76455000	      7644	00000000	00000013	addi	x0,x0,0	  x0:0x00000000
       76465000	      7645	80003f8c	00000013	addi	x0,x0,0	  x0:0x00000000
       76475000	      7646	80003f90	fd1ffdef	jal	x27,80003f90	 x27=0x80003f90
       76485000	      7647	00000000	00000013	addi	x0,x0,0	  x0:0x00000000
       76495000	      7648	80003f5c	00000013	addi	x0,x0,0	  x0:0x00000000
       76505000	      7649	80003f60	0080016f	jal	x2,80003f60	  x2=0x80003f60
       76515000	      7650	00000000	00000013	addi	x0,x0,0	  x0:0x00000000
       76525000	      7651	80003f64	00000013	addi	x0,x0,0	  x0:0x00000000
       76535000	      7652	80003f68	0300036f	jal	x6,80003f68	  x6=0x80003f68
       76545000	      7653	00000000	00000013	addi	x0,x0,0	  x0:0x00000000
       76555000	      7654	80003f94	00000013	addi	x0,x0,0	  x0:0x00000000
       76565000	      7655	80003f98	00c009ef	jal	x19,80003f98	 x19=0x80003f98
       76575000	      7656	00000000	00000013	addi	x0,x0,0	  x0:0x00000000
       76585000	      7657	80003fa0	00000013	addi	x0,x0,0	  x0:0x00000000
       76595000	      7658	80003fa4	fc1ff16f	jal	x2,80003fa4	  x2=0x80003fa4
       76605000	      7659	00000000	00000013	addi	x0,x0,0	  x0:0x00000000
       76615000	      7660	80003f60	00000013	addi	x0,x0,0	  x0:0x00000000
       76625000	      7661	80003f64	ff9ffc6f	jal	x24,80003f64	 x24=0x80003f64
       76635000	      7662	00000000	00000013	addi	x0,x0,0	  x0:0x00000000
       76645000	      7663	80003f58	00000013	addi	x0,x0,0	  x0:0x00000000
       76655000	      7664	80003f5c	010000ef	jal	x1,80003f5c	  x1=0x80003f5c
       76665000	      7665	00000000	00000013	addi	x0,x0,0	  x0:0x00000000
       76675000	      7666	80003f68	00000013	addi	x0,x0,0	  x0:0x00000000
       76685000	      7667	80003f6c	03c00d6f	jal	x26,80003f6c	 x26=0x80003f6c
       76695000	      7668	00000000	00000013	addi	x0,x0,0	  x0:0x00000000
       76705000	      7669	80003fa4	00000013	addi	x0,x0,0	  x0:0x00000000
       76715000	      7670	80003fa8	417850b3	sra	x1,x16,x23	 x16:0x90f67a28 x23:0x00000000  x1=0x90f67a28
       76725000	      7671	80003fac	01c0016f	jal	x2,80003fac	  x2=0x80003fac
       76735000	      7672	00000000	00000013	addi	x0,x0,0	  x0:0x00000000
       76745000	      7673	80003fc4	00000013	addi	x0,x0,0	  x0:0x00000000
       76755000	      7674	80003fc8	ffdff0ef	jal	x1,80003fc8	  x1=0x80003fc8
       76765000	      7675	00000000	00000013	addi	x0,x0,0	  x0:0x00000000
       76775000	      7676	80003fc0	00000013	addi	x0,x0,0	  x0:0x00000000
       76785000	      7677	80003fc4	01c0036f	jal	x6,80003fc4	  x6=0x80003fc4
       76795000	      7678	00000000	00000013	addi	x0,x0,0	  x0:0x00000000
       76805000	      7679	80003fdc	00000013	addi	x0,x0,0	  x0:0x00000000
       76815000	      7680	80003fe0	004000ef	jal	x1,80003fe0	  x1=0x80003fe0
       76825000	      7681	00000000	00000013	addi	x0,x0,0	  x0:0x00000000
       76835000	      7682	80003fe0	00000013	addi	x0,x0,0	  x0:0x00000000
       76845000	      7683	80003fe4	fd1ff0ef	jal	x1,80003fe4	  x1=0x80003fe4
       76855000	      7684	00000000	00000013	addi	x0,x0,0	  x0:0x00000000
       76865000	      7685	80003fb0	00000013	addi	x0,x0,0	  x0:0x00000000
       76875000	      7686	80003fb4	004000ef	jal	x1,80003fb4	  x1=0x80003fb4
       76885000	      7687	00000000	00000013	addi	x0,x0,0	  x0:0x00000000
       76895000	      7688	80003fb4	00000013	addi	x0,x0,0	  x0:0x00000000
       76905000	      7689	80003fb8	044000ef	jal	x1,80003fb8	  x1=0x80003fb8
       76915000	      7690	00000000	00000013	addi	x0,x0,0	  x0:0x00000000
       76925000	      7691	80003ff8	00000013	addi	x0,x0,0	  x0:0x00000000
       76935000	      7692	80003ffc	fc1ff0ef	jal	x1,80003ffc	  x1=0x80003ffc
       76945000	      7693	00000000	00000013	addi	x0,x0,0	  x0:0x00000000
       76955000	      7694	80003fb8	00000013	addi	x0,x0,0	  x0:0x00000000
       76965000	      7695	80003fbc	01400bef	jal	x23,80003fbc	 x23=0x80003fbc
       76975000	      7696	00000000	00000013	addi	x0,x0,0	  x0:0x00000000
       76985000	      7697	80003fcc	00000013	addi	x0,x0,0	  x0:0x00000000
       76995000	      7698	80003fd0	0340036f	jal	x6,80003fd0	  x6=0x80003fd0
       77005000	      7699	00000000	00000013	addi	x0,x0,0	  x0:0x00000000
       77015000	      7700	80004000	00000013	addi	x0,x0,0	  x0:0x00000000
       77025000	      7701	80004004	fe5ff0ef	jal	x1,80004004	  x1=0x80004004
       77035000	      7702	00000000	00000013	addi	x0,x0,0	  x0:0x00000000
       77045000	      7703	80003fe4	00000013	addi	x0,x0,0	  x0:0x00000000
       77055000	      7704	80003fe8	fe5ff0ef	jal	x1,80003fe8	  x1=0x80003fe8
       77065000	      7705	00000000	00000013	addi	x0,x0,0	  x0:0x00000000
       77075000	      7706	80003fc8	00000013	addi	x0,x0,0	  x0:0x00000000
       77085000	      7707	80003fcc	ff5ff0ef	jal	x1,80003fcc	  x1=0x80003fcc
       77095000	      7708	00000000	00000013	addi	x0,x0,0	  x0:0x00000000
       77105000	      7709	80003fbc	00000013	addi	x0,x0,0	  x0:0x00000000
       77115000	      7710	80003fc0	014000ef	jal	x1,80003fc0	  x1=0x80003fc0
       77125000	      7711	00000000	00000013	addi	x0,x0,0	  x0:0x00000000
       77135000	      7712	80003fd0	00000013	addi	x0,x0,0	  x0:0x00000000
       77145000	      7713	80003fd4	02c000ef	jal	x1,80003fd4	  x1=0x80003fd4
       77155000	      7714	00000000	00000013	addi	x0,x0,0	  x0:0x00000000
       77165000	      7715	80003ffc	00000013	addi	x0,x0,0	  x0:0x00000000
       77175000	      7716	80004000	fddff36f	jal	x6,80004000	  x6=0x80004000
       77185000	      7717	00000000	00000013	addi	x0,x0,0	  x0:0x00000000
       77195000	      7718	80003fd8	00000013	addi	x0,x0,0	  x0:0x00000000
       77205000	      7719	80003fdc	ffdff96f	jal	x18,80003fdc	 x18=0x80003fdc
       77215000	      7720	00000000	00000013	addi	x0,x0,0	  x0:0x00000000
       77225000	      7721	80003fd4	00000013	addi	x0,x0,0	  x0:0x00000000
       77235000	      7722	80003fd8	01c0016f	jal	x2,80003fd8	  x2=0x80003fd8
       77245000	      7723	00000000	00000013	addi	x0,x0,0	  x0:0x00000000
       77255000	      7724	80003ff0	00000013	addi	x0,x0,0	  x0:0x00000000
       77265000	      7725	80003ff4	fbdff0ef	jal	x1,80003ff4	  x1=0x80003ff4
       77275000	      7726	00000000	00000013	addi	x0,x0,0	  x0:0x00000000
       77285000	      7727	80003fac	00000013	addi	x0,x0,0	  x0:0x00000000
       77295000	      7728	80003fb0	04000bef	jal	x23,80003fb0	 x23=0x80003fb0
       77305000	      7729	00000000	00000013	addi	x0,x0,0	  x0:0x00000000
       77315000	      7730	80003fec	00000013	addi	x0,x0,0	  x0:0x00000000
       77325000	      7731	80003ff0	ffdff26f	jal	x4,80003ff0	  x4=0x80003ff0
       77335000	      7732	00000000	00000013	addi	x0,x0,0	  x0:0x00000000
       77345000	      7733	80003fe8	00000013	addi	x0,x0,0	  x0:0x00000000
       77355000	      7734	80003fec	00c0016f	jal	x2,80003fec	  x2=0x80003fec
       77365000	      7735	00000000	00000013	addi	x0,x0,0	  x0:0x00000000
       77375000	      7736	80003ff4	00000013	addi	x0,x0,0	  x0:0x00000000
       77385000	      7737	80003ff8	010008ef	jal	x17,80003ff8	 x17=0x80003ff8
       77395000	      7738	00000000	00000013	addi	x0,x0,0	  x0:0x00000000
       77405000	      7739	80004004	00000013	addi	x0,x0,0	  x0:0x00000000
       77415000	      7740	80004008	fa0a2a93	slti	x21,x20,-96	 x20:0x7fffc6b8 x21=0x00000000
       77425000	      7741	8000400c	0080016f	jal	x2,8000400c	  x2=0x8000400c
       77435000	      7742	00000000	00000013	addi	x0,x0,0	  x0:0x00000000
       77445000	      7743	80004010	00000013	addi	x0,x0,0	  x0:0x00000000
       77455000	      7744	80004014	0100036f	jal	x6,80004014	  x6=0x80004014
       77465000	      7745	00000000	00000013	addi	x0,x0,0	  x0:0x00000000
       77475000	      7746	80004020	00000013	addi	x0,x0,0	  x0:0x00000000
       77485000	      7747	80004024	00c0036f	jal	x6,80004024	  x6=0x80004024
       77495000	      7748	00000000	00000013	addi	x0,x0,0	  x0:0x00000000
       77505000	      7749	8000402c	00000013	addi	x0,x0,0	  x0:0x00000000
       77515000	      7750	80004030	fedff36f	jal	x6,80004030	  x6=0x80004030
       77525000	      7751	00000000	00000013	addi	x0,x0,0	  x0:0x00000000
       77535000	      7752	80004018	00000013	addi	x0,x0,0	  x0:0x00000000
       77545000	      7753	8000401c	024000ef	jal	x1,8000401c	  x1=0x8000401c
       77555000	      7754	00000000	00000013	addi	x0,x0,0	  x0:0x00000000
       77565000	      7755	8000403c	00000013	addi	x0,x0,0	  x0:0x00000000
       77575000	      7756	80004040	ff5ff0ef	jal	x1,80004040	  x1=0x80004040
       77585000	      7757	00000000	00000013	addi	x0,x0,0	  x0:0x00000000
       77595000	      7758	80004030	00000013	addi	x0,x0,0	  x0:0x00000000
       77605000	      7759	80004034	01c0036f	jal	x6,80004034	  x6=0x80004034
       77615000	      7760	00000000	00000013	addi	x0,x0,0	  x0:0x00000000
       77625000	      7761	8000404c	00000013	addi	x0,x0,0	  x0:0x00000000
       77635000	      7762	80004050	ffdff36f	jal	x6,80004050	  x6=0x80004050
       77645000	      7763	00000000	00000013	addi	x0,x0,0	  x0:0x00000000
       77655000	      7764	80004048	00000013	addi	x0,x0,0	  x0:0x00000000
       77665000	      7765	8000404c	00c0036f	jal	x6,8000404c	  x6=0x8000404c
       77675000	      7766	00000000	00000013	addi	x0,x0,0	  x0:0x00000000
       77685000	      7767	80004054	00000013	addi	x0,x0,0	  x0:0x00000000
       77695000	      7768	80004058	fd5ff0ef	jal	x1,80004058	  x1=0x80004058
       77705000	      7769	00000000	00000013	addi	x0,x0,0	  x0:0x00000000
       77715000	      7770	80004028	00000013	addi	x0,x0,0	  x0:0x00000000
       77725000	      7771	8000402c	ff5ff0ef	jal	x1,8000402c	  x1=0x8000402c
       77735000	      7772	00000000	00000013	addi	x0,x0,0	  x0:0x00000000
       77745000	      7773	8000401c	00000013	addi	x0,x0,0	  x0:0x00000000
       77755000	      7774	80004020	034000ef	jal	x1,80004020	  x1=0x80004020
       77765000	      7775	00000000	00000013	addi	x0,x0,0	  x0:0x00000000
       77775000	      7776	80004050	00000013	addi	x0,x0,0	  x0:0x00000000
       77785000	      7777	80004054	fe5ff0ef	jal	x1,80004054	  x1=0x80004054
       77795000	      7778	00000000	00000013	addi	x0,x0,0	  x0:0x00000000
       77805000	      7779	80004034	00000013	addi	x0,x0,0	  x0:0x00000000
       77815000	      7780	80004038	fe1ff0ef	jal	x1,80004038	  x1=0x80004038
       77825000	      7781	00000000	00000013	addi	x0,x0,0	  x0:0x00000000
       77835000	      7782	80004014	00000013	addi	x0,x0,0	  x0:0x00000000
       77845000	      7783	80004018	ff9ff36f	jal	x6,80004018	  x6=0x80004018
       77855000	      7784	00000000	00000013	addi	x0,x0,0	  x0:0x00000000
       77865000	      7785	8000400c	00000013	addi	x0,x0,0	  x0:0x00000000
       77875000	      7786	80004010	034000ef	jal	x1,80004010	  x1=0x80004010
       77885000	      7787	00000000	00000013	addi	x0,x0,0	  x0:0x00000000
       77895000	      7788	80004040	00000013	addi	x0,x0,0	  x0:0x00000000
       77905000	      7789	80004044	ff9ff0ef	jal	x1,80004044	  x1=0x80004044
       77915000	      7790	00000000	00000013	addi	x0,x0,0	  x0:0x00000000
       77925000	      7791	80004038	00000013	addi	x0,x0,0	  x0:0x00000000
       77935000	      7792	8000403c	fedffdef	jal	x27,8000403c	 x27=0x8000403c
       77945000	      7793	00000000	00000013	addi	x0,x0,0	  x0:0x00000000
       77955000	      7794	80004024	00000013	addi	x0,x0,0	  x0:0x00000000
       77965000	      7795	80004028	02000fef	jal	x31,80004028	 x31=0x80004028
       77975000	      7796	00000000	00000013	addi	x0,x0,0	  x0:0x00000000
       77985000	      7797	80004044	00000013	addi	x0,x0,0	  x0:0x00000000
       77995000	      7798	80004048	0140026f	jal	x4,80004048	  x4=0x80004048
       78005000	      7799	00000000	00000013	addi	x0,x0,0	  x0:0x00000000
       78015000	      7800	80004058	00000013	addi	x0,x0,0	  x0:0x00000000
       78025000	      7801	8000405c	be7cb6b7	lui	x13,0xbe7cb	 x13=0xbe7cb000
       78035000	      7802	80004060	0440016f	jal	x2,80004060	  x2=0x80004060
       78045000	      7803	00000000	00000013	addi	x0,x0,0	  x0:0x00000000
       78055000	      7804	800040a0	00000013	addi	x0,x0,0	  x0:0x00000000
       78065000	      7805	800040a4	fedff0ef	jal	x1,800040a4	  x1=0x800040a4
       78075000	      7806	00000000	00000013	addi	x0,x0,0	  x0:0x00000000
       78085000	      7807	8000408c	00000013	addi	x0,x0,0	  x0:0x00000000
       78095000	      7808	80004090	018000ef	jal	x1,80004090	  x1=0x80004090
       78105000	      7809	00000000	00000013	addi	x0,x0,0	  x0:0x00000000
       78115000	      7810	800040a4	00000013	addi	x0,x0,0	  x0:0x00000000
       78125000	      7811	800040a8	fe5ff1ef	jal	x3,800040a8	  x3=0x800040a8
       78135000	      7812	00000000	00000013	addi	x0,x0,0	  x0:0x00000000
       78145000	      7813	80004088	00000013	addi	x0,x0,0	  x0:0x00000000
       78155000	      7814	8000408c	010000ef	jal	x1,8000408c	  x1=0x8000408c
       78165000	      7815	00000000	00000013	addi	x0,x0,0	  x0:0x00000000
       78175000	      7816	80004098	00000013	addi	x0,x0,0	  x0:0x00000000
       78185000	      7817	8000409c	fe1ff46f	jal	x8,8000409c	  x8=0x8000409c
       78195000	      7818	00000000	00000013	addi	x0,x0,0	  x0:0x00000000
       78205000	      7819	80004078	00000013	addi	x0,x0,0	  x0:0x00000000
       78215000	      7820	8000407c	0040066f	jal	x12,8000407c	 x12=0x8000407c
       78225000	      7821	00000000	00000013	addi	x0,x0,0	  x0:0x00000000
       78235000	      7822	8000407c	00000013	addi	x0,x0,0	  x0:0x00000000
       78245000	      7823	80004080	0180036f	jal	x6,80004080	  x6=0x80004080
       78255000	      7824	00000000	00000013	addi	x0,x0,0	  x0:0x00000000
       78265000	      7825	80004094	00000013	addi	x0,x0,0	  x0:0x00000000
       78275000	      7826	80004098	008000ef	jal	x1,80004098	  x1=0x80004098
       78285000	      7827	00000000	00000013	addi	x0,x0,0	  x0:0x00000000
       78295000	      7828	8000409c	00000013	addi	x0,x0,0	  x0:0x00000000
       78305000	      7829	800040a0	ff5ffc6f	jal	x24,800040a0	 x24=0x800040a0
       78315000	      7830	00000000	00000013	addi	x0,x0,0	  x0:0x00000000
       78325000	      7831	80004090	00000013	addi	x0,x0,0	  x0:0x00000000
       78335000	      7832	80004094	ff1ff26f	jal	x4,80004094	  x4=0x80004094
       78345000	      7833	00000000	00000013	addi	x0,x0,0	  x0:0x00000000
       78355000	      7834	80004080	00000013	addi	x0,x0,0	  x0:0x00000000
       78365000	      7835	80004084	fe5ff36f	jal	x6,80004084	  x6=0x80004084
       78375000	      7836	00000000	00000013	addi	x0,x0,0	  x0:0x00000000
       78385000	      7837	80004064	00000013	addi	x0,x0,0	  x0:0x00000000
       78395000	      7838	80004068	0100016f	jal	x2,80004068	  x2=0x80004068
       78405000	      7839	00000000	00000013	addi	x0,x0,0	  x0:0x00000000
       78415000	      7840	80004074	00000013	addi	x0,x0,0	  x0:0x00000000
       78425000	      7841	80004078	ff9ff0ef	jal	x1,80004078	  x1=0x80004078
       78435000	      7842	00000000	00000013	addi	x0,x0,0	  x0:0x00000000
       78445000	      7843	8000406c	00000013	addi	x0,x0,0	  x0:0x00000000
       78455000	      7844	80004070	ffdff26f	jal	x4,80004070	  x4=0x80004070
       78465000	      7845	00000000	00000013	addi	x0,x0,0	  x0:0x00000000
       78475000	      7846	80004068	00000013	addi	x0,x0,0	  x0:0x00000000
       78485000	      7847	8000406c	ff9ff0ef	jal	x1,8000406c	  x1=0x8000406c
       78495000	      7848	00000000	00000013	addi	x0,x0,0	  x0:0x00000000
       78505000	      7849	80004060	00000013	addi	x0,x0,0	  x0:0x00000000
       78515000	      7850	80004064	024000ef	jal	x1,80004064	  x1=0x80004064
       78525000	      7851	00000000	00000013	addi	x0,x0,0	  x0:0x00000000
       78535000	      7852	80004084	00000013	addi	x0,x0,0	  x0:0x00000000
       78545000	      7853	80004088	fedff0ef	jal	x1,80004088	  x1=0x80004088
       78555000	      7854	00000000	00000013	addi	x0,x0,0	  x0:0x00000000
       78565000	      7855	80004070	00000013	addi	x0,x0,0	  x0:0x00000000
       78575000	      7856	80004074	03800bef	jal	x23,80004074	 x23=0x80004074
       78585000	      7857	00000000	00000013	addi	x0,x0,0	  x0:0x00000000
       78595000	      7858	800040a8	00000013	addi	x0,x0,0	  x0:0x00000000
       78605000	      7859	800040ac	9b658813	addi	x16,x11,-1610	 x11:0x80009f6c x16=0x80009922
       78615000	      7860	800040b0	000ac8b3	xor	x17,x21,x0	 x21:0x00000000  x0:0x00000000 x17=0x00000000
       78625000	      7861	800040b4	547afb93	andi	x23,x21,1351	 x21:0x00000000 x23=0x00000000
       78635000	      7862	800040b8	029e1463	bne	x28,x9,800040e0	 x28:0x00000000  x9:0xf90f67a2
       78645000	      7863	00000000	00000013	addi	x0,x0,0	  x0:0x00000000
       78655000	      7864	800040dc	00000013	addi	x0,x0,0	  x0:0x00000000
       78665000	      7865	800040e0	00d69a93	slli	x21,x13,0xd	 x13:0xbe7cb000 x21=0x96000000
       78675000	      7866	800040e4	0125c933	xor	x18,x11,x18	 x11:0x80009f6c x18:0x80003fdc x18=0x0000a0b0
       78685000	      7867	800040e8	00006333	or	x6,x0,x0	  x0:0x00000000  x0:0x00000000  x6=0x00000000
       78695000	      7868	800040ec	f3f9f397	auipc	x7,0xf3f9f	  x7=0x73fa30e8
       78705000	      7869	800040f0	4043df93	srai	x31,x7,0x4	  x7:0x73fa30e8 x31=0x073fa30e
       78715000	      7870	800040f4	05c94463	blt	x18,x28,8000413c	 x18:0x0000a0b0 x28:0x00000000
       78725000	      7871	800040f8	00000013	addi	x0,x0,0	  x0:0x00000000
       78735000	      7872	800040fc	4929fa37	lui	x20,0x4929f	 x20=0x4929f000
       78745000	      7873	80004100	0258ee63	bltu	x17,x5,8000413c	 x17:0x00000000  x5:0x80009fc4
       78755000	      7874	00000000	00000013	addi	x0,x0,0	  x0:0x00000000
       78765000	      7875	80004138	00000013	addi	x0,x0,0	  x0:0x00000000
       78775000	      7876	8000413c	f2fdea13	ori	x20,x27,-209	 x27:0x8000403c x20=0xffffff3f
       78785000	      7877	80004140	01376e63	bltu	x14,x19,8000415c	 x14:0x00000001 x19:0x80003f98
       78795000	      7878	00000000	00000013	addi	x0,x0,0	  x0:0x00000000
       78805000	      7879	80004158	00000013	addi	x0,x0,0	  x0:0x00000000
       78815000	      7880	8000415c	02bd0263	beq	x26,x11,80004180	 x26:0x80003f6c x11:0x80009f6c
       78825000	      7881	80004160	00000013	addi	x0,x0,0	  x0:0x00000000
       78835000	      7882	80004164	4205eb93	ori	x23,x11,1056	 x11:0x80009f6c x23=0x80009f6c
       78845000	      7883	80004168	404e5db3	sra	x27,x28,x4	 x28:0x00000000  x4:0x80004070 x27=0x00000000
       78855000	      7884	8000416c	672be793	ori	x15,x23,1650	 x23:0x80009f6c x15=0x80009f7e
       78865000	      7885	80004170	013f8ab3	add	x21,x31,x19	 x31:0x073fa30e x19:0x80003f98 x21=0x873fe2a6
       78875000	      7886	80004174	68a4f497	auipc	x9,0x68a4f	  x9=0xe8a53170
       78885000	      7887	80004178	01aed693	srli	x13,x29,0x1a	 x29:0x00000000 x13=0x00000000
       78895000	      7888	8000417c	481d6f93	ori	x31,x26,1153	 x26:0x80003f6c x31=0x80003fed
       78905000	      7889	80004180	9de61037	lui	x0,0x9de61	
       78915000	      7890	80004184	0130c233	xor	x4,x1,x19	  x1:0x80004088 x19:0x80003f98  x4=0x00007f10
       78925000	      7891	80004188	00468cb3	add	x25,x13,x4	 x13:0x00000000  x4:0x00007f10 x25=0x00007f10
       78935000	      7892	8000418c	02067663	bgeu	x12,x0,800041b8	 x12:0x8000407c  x0:0x00000000
       78945000	      7893	00000000	00000013	addi	x0,x0,0	  x0:0x00000000
       78955000	      7894	800041b4	00000013	addi	x0,x0,0	  x0:0x00000000
       78965000	      7895	800041b8	00805013	srli	x0,x0,0x8	  x0:0x00000000
       78975000	      7896	800041bc	08ab4613	xori	x12,x22,138	 x22:0x00000001 x12=0x0000008b
       78985000	      7897	800041c0	004ae633	or	x12,x21,x4	 x21:0x873fe2a6  x4:0x00007f10 x12=0x873fffb6
       78995000	      7898	800041c4	65933693	sltiu	x13,x6,1625	  x6:0x00000000 x13=0x00000001
       79005000	      7899	800041c8	023c5063	bge	x24,x3,800041e8	 x24:0x800040a0  x3:0x800040a8
       79015000	      7900	800041cc	94c93213	sltiu	x4,x18,-1716	 x18:0x0000a0b0  x4=0x00000001
       79025000	      7901	800041d0	00fb8c63	beq	x23,x15,800041e8	 x23:0x80009f6c x15:0x80009f7e
       79035000	      7902	800041d4	019afbb3	and	x23,x21,x25	 x21:0x873fe2a6 x25:0x00007f10 x23=0x00006200
       79045000	      7903	800041d8	afda4f17	auipc	x30,0xafda4	 x30=0x2fda81d4
       79055000	      7904	800041dc	0f4a6113	ori	x2,x20,244	 x20:0xffffff3f  x2=0xffffffff
       79065000	      7905	800041e0	0d9ae863	bltu	x21,x25,800042b0	 x21:0x873fe2a6 x25:0x00007f10
       79075000	      7906	800041e4	00000013	addi	x0,x0,0	  x0:0x00000000
       79085000	      7907	800041e8	41e459b3	sra	x19,x8,x30	  x8:0x8000409c x30:0x2fda81d4 x19=0xfffff800
       79095000	      7908	800041ec	01b0f333	and	x6,x1,x27	  x1:0x80004088 x27:0x00000000  x6=0x00000000
       79105000	      7909	800041f0	0b24ee63	bltu	x9,x18,800042ac	  x9:0xe8a53170 x18:0x0000a0b0
       79115000	      7910	800041f4	0c55f463	bgeu	x11,x5,800042bc	 x11:0x80009f6c  x5:0x80009fc4
       79125000	      7911	800041f8	00927663	bgeu	x4,x9,80004204	  x4:0x00000001  x9:0xe8a53170
       79135000	      7912	800041fc	01e06863	bltu	x0,x30,8000420c	  x0:0x00000000 x30:0x2fda81d4
       79145000	      7913	00000000	00000013	addi	x0,x0,0	  x0:0x00000000
       79155000	      7914	80004208	00000013	addi	x0,x0,0	  x0:0x00000000
       79165000	      7915	8000420c	40f2d233	sra	x4,x5,x15	  x5:0x80009fc4 x15:0x80009f7e  x4=0xfffffffe
       79175000	      7916	80004210	0141e6b3	or	x13,x3,x20	  x3:0x800040a8 x20:0xffffff3f x13=0xffffffbf
       79185000	      7917	80004214	2ab20793	addi	x15,x4,683	  x4:0xfffffffe x15=0x000002a9
       79195000	      7918	80004218	b4522c13	slti	x24,x4,-1211	  x4:0xfffffffe x24=0x00000000
       79205000	      7919	8000421c	00cb6533	or	x10,x22,x12	 x22:0x00000001 x12:0x873fffb6 x10=0x873fffb7
       79215000	      7920	80004220	00568b33	add	x22,x13,x5	 x13:0xffffffbf  x5:0x80009fc4 x22=0x80009f83
       79225000	      7921	80004224	0100016f	jal	x2,80004224	  x2=0x80004224
       79235000	      7922	00000000	00000013	addi	x0,x0,0	  x0:0x00000000
       79245000	      7923	80004230	00000013	addi	x0,x0,0	  x0:0x00000000
       79255000	      7924	80004234	0380026f	jal	x4,80004234	  x4=0x80004234
       79265000	      7925	00000000	00000013	addi	x0,x0,0	  x0:0x00000000
       79275000	      7926	80004268	00000013	addi	x0,x0,0	  x0:0x00000000
       79285000	      7927	8000426c	010000ef	jal	x1,8000426c	  x1=0x8000426c
       79295000	      7928	00000000	00000013	addi	x0,x0,0	  x0:0x00000000
       79305000	      7929	80004278	00000013	addi	x0,x0,0	  x0:0x00000000
       79315000	      7930	8000427c	ffdff0ef	jal	x1,8000427c	  x1=0x8000427c
       79325000	      7931	00000000	00000013	addi	x0,x0,0	  x0:0x00000000
       79335000	      7932	80004274	00000013	addi	x0,x0,0	  x0:0x00000000
       79345000	      7933	80004278	0080036f	jal	x6,80004278	  x6=0x80004278
       79355000	      7934	00000000	00000013	addi	x0,x0,0	  x0:0x00000000
       79365000	      7935	8000427c	00000013	addi	x0,x0,0	  x0:0x00000000
       79375000	      7936	80004280	ff1ff0ef	jal	x1,80004280	  x1=0x80004280
       79385000	      7937	00000000	00000013	addi	x0,x0,0	  x0:0x00000000
       79395000	      7938	8000426c	00000013	addi	x0,x0,0	  x0:0x00000000
       79405000	      7939	80004270	fb9ff0ef	jal	x1,80004270	  x1=0x80004270
       79415000	      7940	00000000	00000013	addi	x0,x0,0	  x0:0x00000000
       79425000	      7941	80004224	00000013	addi	x0,x0,0	  x0:0x00000000
       79435000	      7942	80004228	03c000ef	jal	x1,80004228	  x1=0x80004228
       79445000	      7943	00000000	00000013	addi	x0,x0,0	  x0:0x00000000
       79455000	      7944	80004260	00000013	addi	x0,x0,0	  x0:0x00000000
       79465000	      7945	80004264	fedff36f	jal	x6,80004264	  x6=0x80004264
       79475000	      7946	00000000	00000013	addi	x0,x0,0	  x0:0x00000000
       79485000	      7947	8000424c	00000013	addi	x0,x0,0	  x0:0x00000000
       79495000	      7948	80004250	0080036f	jal	x6,80004250	  x6=0x80004250
       79505000	      7949	00000000	00000013	addi	x0,x0,0	  x0:0x00000000
       79515000	      7950	80004254	00000013	addi	x0,x0,0	  x0:0x00000000
       79525000	      7951	80004258	fe1ff0ef	jal	x1,80004258	  x1=0x80004258
       79535000	      7952	00000000	00000013	addi	x0,x0,0	  x0:0x00000000
       79545000	      7953	80004234	00000013	addi	x0,x0,0	  x0:0x00000000
       79555000	      7954	80004238	060000ef	jal	x1,80004238	  x1=0x80004238
       79565000	      7955	00000000	00000013	addi	x0,x0,0	  x0:0x00000000
       79575000	      7956	80004294	00000013	addi	x0,x0,0	  x0:0x00000000
       79585000	      7957	80004298	fb1ff36f	jal	x6,80004298	  x6=0x80004298
       79595000	      7958	00000000	00000013	addi	x0,x0,0	  x0:0x00000000
       79605000	      7959	80004244	00000013	addi	x0,x0,0	  x0:0x00000000
       79615000	      7960	80004248	ff5ff0ef	jal	x1,80004248	  x1=0x80004248
       79625000	      7961	00000000	00000013	addi	x0,x0,0	  x0:0x00000000
       79635000	      7962	80004238	00000013	addi	x0,x0,0	  x0:0x00000000
       79645000	      7963	8000423c	02c000ef	jal	x1,8000423c	  x1=0x8000423c
       79655000	      7964	00000000	00000013	addi	x0,x0,0	  x0:0x00000000
       79665000	      7965	80004264	00000013	addi	x0,x0,0	  x0:0x00000000
       79675000	      7966	80004268	fddff0ef	jal	x1,80004268	  x1=0x80004268
       79685000	      7967	00000000	00000013	addi	x0,x0,0	  x0:0x00000000
       79695000	      7968	80004240	00000013	addi	x0,x0,0	  x0:0x00000000
       79705000	      7969	80004244	0300056f	jal	x10,80004244	 x10=0x80004244
       79715000	      7970	00000000	00000013	addi	x0,x0,0	  x0:0x00000000
       79725000	      7971	80004270	00000013	addi	x0,x0,0	  x0:0x00000000
       79735000	      7972	80004274	fcdff3ef	jal	x7,80004274	  x7=0x80004274
       79745000	      7973	00000000	00000013	addi	x0,x0,0	  x0:0x00000000
       79755000	      7974	8000423c	00000013	addi	x0,x0,0	  x0:0x00000000
       79765000	      7975	80004240	054000ef	jal	x1,80004240	  x1=0x80004240
       79775000	      7976	00000000	00000013	addi	x0,x0,0	  x0:0x00000000
       79785000	      7977	80004290	00000013	addi	x0,x0,0	  x0:0x00000000
       79795000	      7978	80004294	ff1ff0ef	jal	x1,80004294	  x1=0x80004294
       79805000	      7979	00000000	00000013	addi	x0,x0,0	  x0:0x00000000
       79815000	      7980	80004280	00000013	addi	x0,x0,0	  x0:0x00000000
       79825000	      7981	80004284	fddff36f	jal	x6,80004284	  x6=0x80004284
       79835000	      7982	00000000	00000013	addi	x0,x0,0	  x0:0x00000000
       79845000	      7983	8000425c	00000013	addi	x0,x0,0	  x0:0x00000000
       79855000	      7984	80004260	fedff0ef	jal	x1,80004260	  x1=0x80004260
       79865000	      7985	00000000	00000013	addi	x0,x0,0	  x0:0x00000000
       79875000	      7986	80004248	00000013	addi	x0,x0,0	  x0:0x00000000
       79885000	      7987	8000424c	fe1ff0ef	jal	x1,8000424c	  x1=0x8000424c
       79895000	      7988	00000000	00000013	addi	x0,x0,0	  x0:0x00000000
       79905000	      7989	80004228	00000013	addi	x0,x0,0	  x0:0x00000000
       79915000	      7990	8000422c	0280036f	jal	x6,8000422c	  x6=0x8000422c
       79925000	      7991	00000000	00000013	addi	x0,x0,0	  x0:0x00000000
       79935000	      7992	80004250	00000013	addi	x0,x0,0	  x0:0x00000000
       79945000	      7993	80004254	fddff36f	jal	x6,80004254	  x6=0x80004254
       79955000	      7994	00000000	00000013	addi	x0,x0,0	  x0:0x00000000
       79965000	      7995	8000422c	00000013	addi	x0,x0,0	  x0:0x00000000
       79975000	      7996	80004230	06c00f6f	jal	x30,80004230	 x30=0x80004230
       79985000	      7997	00000000	00000013	addi	x0,x0,0	  x0:0x00000000
       79995000	      7998	80004298	00000013	addi	x0,x0,0	  x0:0x00000000
       80005000	      7999	8000429c	ff5ff36f	jal	x6,8000429c	  x6=0x8000429c
       80015000	      8000	00000000	00000013	addi	x0,x0,0	  x0:0x00000000
       80025000	      8001	8000428c	00000013	addi	x0,x0,0	  x0:0x00000000
       80035000	      8002	80004290	ff9ff0ef	jal	x1,80004290	  x1=0x80004290
       80045000	      8003	00000000	00000013	addi	x0,x0,0	  x0:0x00000000
       80055000	      8004	80004284	00000013	addi	x0,x0,0	  x0:0x00000000
       80065000	      8005	80004288	fd5ffa6f	jal	x20,80004288	 x20=0x80004288
       80075000	      8006	00000000	00000013	addi	x0,x0,0	  x0:0x00000000
       80085000	      8007	80004258	00000013	addi	x0,x0,0	  x0:0x00000000
       80095000	      8008	8000425c	0300036f	jal	x6,8000425c	  x6=0x8000425c
       80105000	      8009	00000000	00000013	addi	x0,x0,0	  x0:0x00000000
       80115000	      8010	80004288	00000013	addi	x0,x0,0	  x0:0x00000000
       80125000	      8011	8000428c	014000ef	jal	x1,8000428c	  x1=0x8000428c
       80135000	      8012	00000000	00000013	addi	x0,x0,0	  x0:0x00000000
       80145000	      8013	8000429c	00000013	addi	x0,x0,0	  x0:0x00000000
       80155000	      8014	800042a0	41320133	sub	x2,x4,x19	  x4:0x80004234 x19:0xfffff800  x2=0x80004a34
       80165000	      8015	800042a4	0019d3b3	srl	x7,x19,x1	 x19:0xfffff800  x1:0x8000428c  x7=0x000fffff
       80175000	      8016	800042a8	002ed993	srli	x19,x29,0x2	 x29:0x00000000 x19=0x00000000
       80185000	      8017	800042ac	010539b3	sltu	x19,x10,x16	 x10:0x80004244 x16:0x80009922 x19=0x00000001
       80195000	      8018	800042b0	40930d33	sub	x26,x6,x9	  x6:0x8000425c  x9:0xe8a53170 x26=0x975b10ec
       80205000	      8019	800042b4	a03dac13	slti	x24,x27,-1533	 x27:0x00000000 x24=0x00000000
       80215000	      8020	800042b8	5dca7d13	andi	x26,x20,1500	 x20:0x80004288 x26=0x00000088
       80225000	      8021	800042bc	c17cfb97	auipc	x23,0xc17cf	 x23=0x417d32b8
       80235000	      8022	800042c0	00000013	addi	x0,x0,0	  x0:0x00000000
       80245000	      8023	800042c4	00ead4b3	srl	x9,x21,x14	 x21:0x873fe2a6 x14:0x00000001  x9=0x439ff153
       80255000	      8024	800042c8	20be6113	ori	x2,x28,523	 x28:0x00000000  x2=0x0000020b
       80265000	      8025	800042cc	8df40b93	addi	x23,x8,-1825	  x8:0x8000409c x23=0x8000397b
       80275000	      8026	800042d0	83ab4413	xori	x8,x22,-1990	 x22:0x80009f83  x8=0x7fff67b9
       80285000	      8027	800042d4	0554d263	bge	x9,x21,80004318	  x9:0x439ff153 x21:0x873fe2a6
       80295000	      8028	00000000	00000013	addi	x0,x0,0	  x0:0x00000000
       80305000	      8029	80004314	00000013	addi	x0,x0,0	  x0:0x00000000
       80315000	      8030	80004318	01bdd793	srli	x15,x27,0x1b	 x27:0x00000000 x15=0x00000000
       80325000	      8031	8000431c	e6609337	lui	x6,0xe6609	  x6=0xe6609000
       80335000	      8032	80004320	00cb60b3	or	x1,x22,x12	 x22:0x80009f83 x12:0x873fffb6  x1=0x873fffb7
       80345000	      8033	80004324	f2e8fd13	andi	x26,x17,-210	 x17:0x00000000 x26=0x00000000
       80355000	      8034	80004328	40c65113	srai	x2,x12,0xc	 x12:0x873fffb6  x2=0xfff873ff
       80365000	      8035	8000432c	410c8233	sub	x4,x25,x16	 x25:0x00007f10 x16:0x80009922  x4=0x7fffe5ee
       80375000	      8036	80004330	0befbb93	sltiu	x23,x31,190	 x31:0x80003fed x23=0x00000000
       80385000	      8037	80004334	41c00f33	sub	x30,x0,x28	  x0:0x00000000 x28:0x00000000 x30=0x00000000
       80395000	      8038	80004338	00606733	or	x14,x0,x6	  x0:0x00000000  x6:0xe6609000 x14=0xe6609000
       80405000	      8039	8000433c	410b81b3	sub	x3,x23,x16	 x23:0x00000000 x16:0x80009922  x3=0x7fff66de
       80415000	      8040	80004340	007c4a33	xor	x20,x24,x7	 x24:0x00000000  x7:0x000fffff x20=0x000fffff
       80425000	      8041	80004344	00ba3933	sltu	x18,x20,x11	 x20:0x000fffff x11:0x80009f6c x18=0x00000001
       80435000	      8042	80004348	00000013	addi	x0,x0,0	  x0:0x00000000
       80445000	      8043	8000434c	40fe5ab3	sra	x21,x28,x15	 x28:0x00000000 x15:0x00000000 x21=0x00000000
       80455000	      8044	80004350	01889b13	slli	x22,x17,0x18	 x17:0x00000000 x22=0x00000000
       80465000	      8045	80004354	6d16c493	xori	x9,x13,1745	 x13:0xffffffbf  x9=0xfffff96e
       80475000	      8046	80004358	5e2b4d13	xori	x26,x22,1506	 x22:0x00000000 x26=0x000005e2
       80485000	      8047	8000435c	04d18863	beq	x3,x13,800043ac	  x3:0x7fff66de x13:0xffffffbf
       80495000	      8048	80004360	00826233	or	x4,x4,x8	  x4:0x7fffe5ee  x8:0x7fff67b9  x4=0x7fffe7ff
       80505000	      8049	80004364	407851b3	sra	x3,x16,x7	 x16:0x80009922  x7:0x000fffff  x3=0xffffffff
       80515000	      8050	80004368	04704263	blt	x0,x7,800043ac	  x0:0x00000000  x7:0x000fffff
       80525000	      8051	00000000	00000013	addi	x0,x0,0	  x0:0x00000000
       80535000	      8052	800043a8	00000013	addi	x0,x0,0	  x0:0x00000000
       80545000	      8053	800043ac	012e5793	srli	x15,x28,0x12	 x28:0x00000000 x15=0x00000000
       80555000	      8054	800043b0	79ab2313	slti	x6,x22,1946	 x22:0x00000000  x6=0x00000001
       80565000	      8055	800043b4	01d52d33	slt	x26,x10,x29	 x10:0x80004244 x29:0x00000000 x26=0x00000001
       80575000	      8056	800043b8	970acc93	xori	x25,x21,-1680	 x21:0x00000000 x25=0xfffff970
       80585000	      8057	800043bc	00e50b33	add	x22,x10,x14	 x10:0x80004244 x14:0xe6609000 x22=0x6660d244
       80595000	      8058	800043c0	41505793	srai	x15,x0,0x15	  x0:0x00000000 x15=0x00000000
       80605000	      8059	800043c4	001dd4b3	srl	x9,x27,x1	 x27:0x00000000  x1:0x873fffb7  x9=0x00000000
       80615000	      8060	800043c8	009f9113	slli	x2,x31,0x9	 x31:0x80003fed  x2=0x007fda00
       80625000	      8061	800043cc	c4f061b7	lui	x3,0xc4f06	  x3=0xc4f06000
       80635000	      8062	800043d0	64638913	addi	x18,x7,1606	  x7:0x000fffff x18=0x00100645
       80645000	      8063	800043d4	0133b3b3	sltu	x7,x7,x19	  x7:0x000fffff x19:0x00000001  x7=0x00000000
       80655000	      8064	800043d8	002d1d33	sll	x26,x26,x2	 x26:0x00000001  x2:0x007fda00 x26=0x00000001
       80665000	      8065	800043dc	000d8db3	add	x27,x27,x0	 x27:0x00000000  x0:0x00000000 x27=0x00000000
       80675000	      8066	800043e0	41350033	sub	x0,x10,x19	 x10:0x80004244 x19:0x00000001
       80685000	      8067	800043e4	02965e63	bge	x12,x9,80004420	 x12:0x873fffb6  x9:0x00000000
       80695000	      8068	800043e8	01e8dfb3	srl	x31,x17,x30	 x17:0x00000000 x30:0x00000000 x31=0x00000000
       80705000	      8069	800043ec	0001e433	or	x8,x3,x0	  x3:0xc4f06000  x0:0x00000000  x8=0xc4f06000
       80715000	      8070	800043f0	41145813	srai	x16,x8,0x11	  x8:0xc4f06000 x16=0xffffe278
       80725000	      8071	800043f4	01d96f33	or	x30,x18,x29	 x18:0x00100645 x29:0x00000000 x30=0x00100645
       80735000	      8072	800043f8	009a3d33	sltu	x26,x20,x9	 x20:0x000fffff  x9:0x00000000 x26=0x00000000
       80745000	      8073	800043fc	00617e63	bgeu	x2,x6,80004418	  x2:0x007fda00  x6:0x00000001
       80755000	      8074	00000000	00000013	addi	x0,x0,0	  x0:0x00000000
       80765000	      8075	80004414	00000013	addi	x0,x0,0	  x0:0x00000000
       80775000	      8076	80004418	026d0063	beq	x26,x6,80004438	 x26:0x00000000  x6:0x00000001
       80785000	      8077	8000441c	020b4263	blt	x22,x0,80004440	 x22:0x6660d244  x0:0x00000000
       80795000	      8078	80004420	41778fb3	sub	x31,x15,x23	 x15:0x00000000 x23:0x00000000 x31=0x00000000
       80805000	      8079	80004424	0118acb3	slt	x25,x17,x17	 x17:0x00000000 x17:0x00000000 x25=0x00000000
       80815000	      8080	80004428	00bfd463	bge	x31,x11,80004430	 x31:0x00000000 x11:0x80009f6c
       80825000	      8081	00000000	00000013	addi	x0,x0,0	  x0:0x00000000
       80835000	      8082	8000442c	00000013	addi	x0,x0,0	  x0:0x00000000
       80845000	      8083	80004430	401dd093	srai	x1,x27,0x1	 x27:0x00000000  x1=0x00000000
       80855000	      8084	80004434	0128f663	bgeu	x17,x18,80004440	 x17:0x00000000 x18:0x00100645
       80865000	      8085	80004438	0073e263	bltu	x7,x7,8000443c	  x7:0x00000000  x7:0x00000000
       80875000	      8086	8000443c	01d1e863	bltu	x3,x29,8000444c	  x3:0xc4f06000 x29:0x00000000
       80885000	      8087	80004440	01d0cfb3	xor	x31,x1,x29	  x1:0x00000000 x29:0x00000000 x31=0x00000000
       80895000	      8088	80004444	00000013	addi	x0,x0,0	  x0:0x00000000
       80905000	      8089	80004448	01bf6263	bltu	x30,x27,8000444c	 x30:0x00100645 x27:0x00000000
       80915000	      8090	8000444c	00d19eb3	sll	x29,x3,x13	  x3:0xc4f06000 x13:0xffffffbf x29=0x00000000
       80925000	      8091	80004450	01dc5cb3	srl	x25,x24,x29	 x24:0x00000000 x29:0x00000000 x25=0x00000000
       80935000	      8092	80004454	6fa90413	addi	x8,x18,1786	 x18:0x00100645  x8=0x00100d3f
       80945000	      8093	80004458	00000013	addi	x0,x0,0	  x0:0x00000000
       80955000	      8094	8000445c	016c2ab3	slt	x21,x24,x22	 x24:0x00000000 x22:0x6660d244 x21=0x00000001
       80965000	      8095	80004460	028dc063	blt	x27,x8,80004480	 x27:0x00000000  x8:0x00100d3f
       80975000	      8096	00000000	00000013	addi	x0,x0,0	  x0:0x00000000
       80985000	      8097	8000447c	00000013	addi	x0,x0,0	  x0:0x00000000
       80995000	      8098	80004480	406ed693	srai	x13,x29,0x6	 x29:0x00000000 x13=0x00000000
       81005000	      8099	80004484	01d19393	slli	x7,x3,0x1d	  x3:0xc4f06000  x7=0x00000000
       81015000	      8100	80004488	af30ef13	ori	x30,x1,-1293	  x1:0x00000000 x30=0xfffffaf3
       81025000	      8101	8000448c	005bd393	srli	x7,x23,0x5	 x23:0x00000000  x7=0x00000000
       81035000	      8102	80004490	0194ab33	slt	x22,x9,x25	  x9:0x00000000 x25:0x00000000 x22=0x00000000
       81045000	      8103	80004494	a61e6513	ori	x10,x28,-1439	 x28:0x00000000 x10=0xfffffa61
       81055000	      8104	80004498	146a3d93	sltiu	x27,x20,326	 x20:0x000fffff x27=0x00000000
       81065000	      8105	8000449c	92c007b7	lui	x15,0x92c00	 x15=0x92c00000
       81075000	      8106	800044a0	40ccddb3	sra	x27,x25,x12	 x25:0x00000000 x12:0x873fffb6 x27=0x00000000
       81085000	      8107	800044a4	00f41913	slli	x18,x8,0xf	  x8:0x00100d3f x18=0x069f8000
       81095000	      8108	800044a8	018bdfb3	srl	x31,x23,x24	 x23:0x00000000 x24:0x00000000 x31=0x00000000
       81105000	      8109	800044ac	01c28233	add	x4,x5,x28	  x5:0x80009fc4 x28:0x00000000  x4=0x80009fc4
       81115000	      8110	800044b0	0153ebb3	or	x23,x7,x21	  x7:0x00000000 x21:0x00000001 x23=0x00000001
       81125000	      8111	800044b4	01b2fcb3	and	x25,x5,x27	  x5:0x80009fc4 x27:0x00000000 x25=0x00000000
       81135000	      8112	800044b8	07d8f013	andi	x0,x17,125	 x17:0x00000000
       81145000	      8113	800044bc	00f7e533	or	x10,x15,x15	 x15:0x92c00000 x15:0x92c00000 x10=0x92c00000
       81155000	      8114	800044c0	05427463	bgeu	x4,x20,80004508	  x4:0x80009fc4 x20:0x000fffff
       81165000	      8115	00000000	00000013	addi	x0,x0,0	  x0:0x00000000
       81175000	      8116	80004504	00000013	addi	x0,x0,0	  x0:0x00000000
       81185000	      8117	80004508	00000013	addi	x0,x0,0	  x0:0x00000000
       81195000	      8118	8000450c	0098f833	and	x16,x17,x9	 x17:0x00000000  x9:0x00000000 x16=0x00000000
       81205000	      8119	80004510	006c0933	add	x18,x24,x6	 x24:0x00000000  x6:0x00000001 x18=0x00000001
       81215000	      8120	80004514	0110d033	srl	x0,x1,x17	  x1:0x00000000 x17:0x00000000
       81225000	      8121	80004518	593d2f93	slti	x31,x26,1427	 x26:0x00000000 x31=0x00000001
       81235000	      8122	8000451c	00b8de93	srli	x29,x17,0xb	 x17:0x00000000 x29=0x00000000
       81245000	      8123	80004520	0cab7463	bgeu	x22,x10,800045e8	 x22:0x00000000 x10:0x92c00000
       81255000	      8124	80004524	00000013	addi	x0,x0,0	  x0:0x00000000
       81265000	      8125	80004528	0d0de863	bltu	x27,x16,800045f8	 x27:0x00000000 x16:0x00000000
       81275000	      8126	8000452c	0ba25663	bge	x4,x26,800045d8	  x4:0x80009fc4 x26:0x00000000
       81285000	      8127	80004530	01f43eb3	sltu	x29,x8,x31	  x8:0x00100d3f x31:0x00000001 x29=0x00000000
       81295000	      8128	80004534	4005d4b3	sra	x9,x11,x0	 x11:0x80009f6c  x0:0x00000000  x9=0x80009f6c
       81305000	      8129	80004538	018c6c33	or	x24,x24,x24	 x24:0x00000000 x24:0x00000000 x24=0x00000000
       81315000	      8130	8000453c	d8bef313	andi	x6,x29,-629	 x29:0x00000000  x6=0x00000000
       81325000	      8131	80004540	46a8cc17	auipc	x24,0x46a8c	 x24=0xc6a9053c
       81335000	      8132	80004544	0a89f063	bgeu	x19,x8,800045e4	 x19:0x00000001  x8:0x00100d3f
       81345000	      8133	80004548	cf604493	xori	x9,x0,-778	  x0:0x00000000  x9=0xfffffcf6
       81355000	      8134	8000454c	41120433	sub	x8,x4,x17	  x4:0x80009fc4 x17:0x00000000  x8=0x80009fc4
       81365000	      8135	80004550	012a2933	slt	x18,x20,x18	 x20:0x000fffff x18:0x00000001 x18=0x00000000
       81375000	      8136	80004554	01ddd333	srl	x6,x27,x29	 x27:0x00000000 x29:0x00000000  x6=0x00000000
       81385000	      8137	80004558	0580016f	jal	x2,80004558	  x2=0x80004558
       81395000	      8138	00000000	00000013	addi	x0,x0,0	  x0:0x00000000
       81405000	      8139	800045ac	00000013	addi	x0,x0,0	  x0:0x00000000
       81415000	      8140	800045b0	fc9ff36f	jal	x6,800045b0	  x6=0x800045b0
       81425000	      8141	00000000	00000013	addi	x0,x0,0	  x0:0x00000000
       81435000	      8142	80004574	00000013	addi	x0,x0,0	  x0:0x00000000
       81445000	      8143	80004578	03c007ef	jal	x15,80004578	 x15=0x80004578
       81455000	      8144	00000000	00000013	addi	x0,x0,0	  x0:0x00000000
       81465000	      8145	800045b0	00000013	addi	x0,x0,0	  x0:0x00000000
       81475000	      8146	800045b4	0100036f	jal	x6,800045b4	  x6=0x800045b4
       81485000	      8147	00000000	00000013	addi	x0,x0,0	  x0:0x00000000
       81495000	      8148	800045c0	00000013	addi	x0,x0,0	  x0:0x00000000
       81505000	      8149	800045c4	004000ef	jal	x1,800045c4	  x1=0x800045c4
       81515000	      8150	00000000	00000013	addi	x0,x0,0	  x0:0x00000000
       81525000	      8151	800045c4	00000013	addi	x0,x0,0	  x0:0x00000000
       81535000	      8152	800045c8	fb9ff1ef	jal	x3,800045c8	  x3=0x800045c8
       81545000	      8153	00000000	00000013	addi	x0,x0,0	  x0:0x00000000
       81555000	      8154	8000457c	00000013	addi	x0,x0,0	  x0:0x00000000
       81565000	      8155	80004580	ff5ff0ef	jal	x1,80004580	  x1=0x80004580
       81575000	      8156	00000000	00000013	addi	x0,x0,0	  x0:0x00000000
       81585000	      8157	80004570	00000013	addi	x0,x0,0	  x0:0x00000000
       81595000	      8158	80004574	0100026f	jal	x4,80004574	  x4=0x80004574
       81605000	      8159	00000000	00000013	addi	x0,x0,0	  x0:0x00000000
       81615000	      8160	80004580	00000013	addi	x0,x0,0	  x0:0x00000000
       81625000	      8161	80004584	ff9ffb6f	jal	x22,80004584	 x22=0x80004584
       81635000	      8162	00000000	00000013	addi	x0,x0,0	  x0:0x00000000
       81645000	      8163	80004578	00000013	addi	x0,x0,0	  x0:0x00000000
       81655000	      8164	8000457c	ff1ff36f	jal	x6,8000457c	  x6=0x8000457c
       81665000	      8165	00000000	00000013	addi	x0,x0,0	  x0:0x00000000
       81675000	      8166	80004568	00000013	addi	x0,x0,0	  x0:0x00000000
       81685000	      8167	8000456c	02c0066f	jal	x12,8000456c	 x12=0x8000456c
       81695000	      8168	00000000	00000013	addi	x0,x0,0	  x0:0x00000000
       81705000	      8169	80004594	00000013	addi	x0,x0,0	  x0:0x00000000
       81715000	      8170	80004598	010008ef	jal	x17,80004598	 x17=0x80004598
       81725000	      8171	00000000	00000013	addi	x0,x0,0	  x0:0x00000000
       81735000	      8172	800045a4	00000013	addi	x0,x0,0	  x0:0x00000000
       81745000	      8173	800045a8	ff9ff0ef	jal	x1,800045a8	  x1=0x800045a8
       81755000	      8174	00000000	00000013	addi	x0,x0,0	  x0:0x00000000
       81765000	      8175	8000459c	00000013	addi	x0,x0,0	  x0:0x00000000
       81775000	      8176	800045a0	0180046f	jal	x8,800045a0	  x8=0x800045a0
       81785000	      8177	00000000	00000013	addi	x0,x0,0	  x0:0x00000000
       81795000	      8178	800045b4	00000013	addi	x0,x0,0	  x0:0x00000000
       81805000	      8179	800045b8	fe5ff16f	jal	x2,800045b8	  x2=0x800045b8
       81815000	      8180	00000000	00000013	addi	x0,x0,0	  x0:0x00000000
       81825000	      8181	80004598	00000013	addi	x0,x0,0	  x0:0x00000000
       81835000	      8182	8000459c	024000ef	jal	x1,8000459c	  x1=0x8000459c
       81845000	      8183	00000000	00000013	addi	x0,x0,0	  x0:0x00000000
       81855000	      8184	800045bc	00000013	addi	x0,x0,0	  x0:0x00000000
       81865000	      8185	800045c0	00c000ef	jal	x1,800045c0	  x1=0x800045c0
       81875000	      8186	00000000	00000013	addi	x0,x0,0	  x0:0x00000000
       81885000	      8187	800045c8	00000013	addi	x0,x0,0	  x0:0x00000000
       81895000	      8188	800045cc	f99ff0ef	jal	x1,800045cc	  x1=0x800045cc
       81905000	      8189	00000000	00000013	addi	x0,x0,0	  x0:0x00000000
       81915000	      8190	80004560	00000013	addi	x0,x0,0	  x0:0x00000000
       81925000	      8191	80004564	02c0026f	jal	x4,80004564	  x4=0x80004564
       81935000	      8192	00000000	00000013	addi	x0,x0,0	  x0:0x00000000
       81945000	      8193	8000458c	00000013	addi	x0,x0,0	  x0:0x00000000
       81955000	      8194	80004590	ff9ff9ef	jal	x19,80004590	 x19=0x80004590
       81965000	      8195	00000000	00000013	addi	x0,x0,0	  x0:0x00000000
       81975000	      8196	80004584	00000013	addi	x0,x0,0	  x0:0x00000000
       81985000	      8197	80004588	034000ef	jal	x1,80004588	  x1=0x80004588
       81995000	      8198	00000000	00000013	addi	x0,x0,0	  x0:0x00000000
       82005000	      8199	800045b8	00000013	addi	x0,x0,0	  x0:0x00000000
       82015000	      8200	800045bc	fa5ff0ef	jal	x1,800045bc	  x1=0x800045bc
       82025000	      8201	00000000	00000013	addi	x0,x0,0	  x0:0x00000000
       82035000	      8202	8000455c	00000013	addi	x0,x0,0	  x0:0x00000000
       82045000	      8203	80004560	070000ef	jal	x1,80004560	  x1=0x80004560
       82055000	      8204	00000000	00000013	addi	x0,x0,0	  x0:0x00000000
       82065000	      8205	800045cc	00000013	addi	x0,x0,0	  x0:0x00000000
       82075000	      8206	800045d0	fd5ff36f	jal	x6,800045d0	  x6=0x800045d0
       82085000	      8207	00000000	00000013	addi	x0,x0,0	  x0:0x00000000
       82095000	      8208	800045a0	00000013	addi	x0,x0,0	  x0:0x00000000
       82105000	      8209	800045a4	008000ef	jal	x1,800045a4	  x1=0x800045a4
       82115000	      8210	00000000	00000013	addi	x0,x0,0	  x0:0x00000000
       82125000	      8211	800045a8	00000013	addi	x0,x0,0	  x0:0x00000000
       82135000	      8212	800045ac	fe9ff36f	jal	x6,800045ac	  x6=0x800045ac
       82145000	      8213	00000000	00000013	addi	x0,x0,0	  x0:0x00000000
       82155000	      8214	80004590	00000013	addi	x0,x0,0	  x0:0x00000000
       82165000	      8215	80004594	ff9ff0ef	jal	x1,80004594	  x1=0x80004594
       82175000	      8216	00000000	00000013	addi	x0,x0,0	  x0:0x00000000
       82185000	      8217	80004588	00000013	addi	x0,x0,0	  x0:0x00000000
       82195000	      8218	8000458c	fd1ff0ef	jal	x1,8000458c	  x1=0x8000458c
       82205000	      8219	00000000	00000013	addi	x0,x0,0	  x0:0x00000000
       82215000	      8220	80004558	00000013	addi	x0,x0,0	  x0:0x00000000
       82225000	      8221	8000455c	00c000ef	jal	x1,8000455c	  x1=0x8000455c
       82235000	      8222	00000000	00000013	addi	x0,x0,0	  x0:0x00000000
       82245000	      8223	80004564	00000013	addi	x0,x0,0	  x0:0x00000000
       82255000	      8224	80004568	0080036f	jal	x6,80004568	  x6=0x80004568
       82265000	      8225	00000000	00000013	addi	x0,x0,0	  x0:0x00000000
       82275000	      8226	8000456c	00000013	addi	x0,x0,0	  x0:0x00000000
       82285000	      8227	80004570	064004ef	jal	x9,80004570	  x9=0x80004570
       82295000	      8228	00000000	00000013	addi	x0,x0,0	  x0:0x00000000
       82305000	      8229	800045d0	00000013	addi	x0,x0,0	  x0:0x00000000
       82315000	      8230	800045d4	00000013	addi	x0,x0,0	  x0:0x00000000
       82325000	      8231	800045d8	04b3c463	blt	x7,x11,80004620	  x7:0x00000000 x11:0x80009f6c
       82335000	      8232	800045dc	00dd14b3	sll	x9,x26,x13	 x26:0x00000000 x13:0x00000000  x9=0x00000000
       82345000	      8233	800045e0	00073233	sltu	x4,x14,x0	 x14:0xe6609000  x0:0x00000000  x4=0x00000000
       82355000	      8234	800045e4	01905093	srli	x1,x0,0x19	  x0:0x00000000  x1=0x00000000
       82365000	      8235	800045e8	2a2c4413	xori	x8,x24,674	 x24:0xc6a9053c  x8=0xc6a9079e
       82375000	      8236	800045ec	43a92093	slti	x1,x18,1082	 x18:0x00000000  x1=0x00000001
       82385000	      8237	800045f0	0045cab3	xor	x21,x11,x4	 x11:0x80009f6c  x4:0x00000000 x21=0x80009f6c
       82395000	      8238	800045f4	01b539b3	sltu	x19,x10,x27	 x10:0x92c00000 x27:0x00000000 x19=0x00000000
       82405000	      8239	800045f8	3cedb793	sltiu	x15,x27,974	 x27:0x00000000 x15=0x00000001
       82415000	      8240	800045fc	01bde4b3	or	x9,x27,x27	 x27:0x00000000 x27:0x00000000  x9=0x00000000
       82425000	      8241	80004600	d43e7313	andi	x6,x28,-701	 x28:0x00000000  x6=0x00000000
       82435000	      8242	80004604	019841b3	xor	x3,x16,x25	 x16:0x00000000 x25:0x00000000  x3=0x00000000
       82445000	      8243	80004608	004cd693	srli	x13,x25,0x4	 x25:0x00000000 x13=0x00000000
       82455000	      8244	8000460c	00145993	srli	x19,x8,0x1	  x8:0xc6a9079e x19=0x635483cf
       82465000	      8245	80004610	036ffa63	bgeu	x31,x22,80004644	 x31:0x00000001 x22:0x80004584
       82475000	      8246	80004614	037a5e63	bge	x20,x23,80004650	 x20:0x000fffff x23:0x00000001
       82485000	      8247	00000000	00000013	addi	x0,x0,0	  x0:0x00000000
       82495000	      8248	8000464c	00000013	addi	x0,x0,0	  x0:0x00000000
       82505000	      8249	80004650	f68ac613	xori	x12,x21,-152	 x21:0x80009f6c x12=0x7fff6004
       82515000	      8250	80004654	054ae463	bltu	x21,x20,8000469c	 x21:0x80009f6c x20:0x000fffff
       82525000	      8251	80004658	1e4b2413	slti	x8,x22,484	 x22:0x80004584  x8=0x00000001
       82535000	      8252	8000465c	a17a0893	addi	x17,x20,-1513	 x20:0x000fffff x17=0x000ffa16
       82545000	      8253	80004660	01cafbb3	and	x23,x21,x28	 x21:0x80009f6c x28:0x00000000 x23=0x00000000
       82555000	      8254	80004664	0331d263	bge	x3,x19,80004688	  x3:0x00000000 x19:0x635483cf
       82565000	      8255	80004668	03c5fe63	bgeu	x11,x28,800046a4	 x11:0x80009f6c x28:0x00000000
       82575000	      8256	00000000	00000013	addi	x0,x0,0	  x0:0x00000000
       82585000	      8257	800046a0	00000013	addi	x0,x0,0	  x0:0x00000000
       82595000	      8258	800046a4	032dd863	bge	x27,x18,800046d4	 x27:0x00000000 x18:0x00000000
       82605000	      8259	00000000	00000013	addi	x0,x0,0	  x0:0x00000000
       82615000	      8260	800046d0	00000013	addi	x0,x0,0	  x0:0x00000000
       82625000	      8261	800046d4	6eeccf17	auipc	x30,0x6eecc	 x30=0xeeed06d0
       82635000	      8262	800046d8	700d3a13	sltiu	x20,x26,1792	 x26:0x00000000 x20=0x00000001
       82645000	      8263	800046dc	0045a103	lw	x2,4(x11)	 x11:0x80009f6c  x2=0x80000668 PA:0x80009f70
       82655000	      8264	800046e0	01858593	addi	x11,x11,24	 x11:0x80009f6c x11=0x80009f84
       82665000	      8265	800046e4	89944d13	xori	x26,x8,-1895	  x8:0x00000001 x26=0xfffff898
       82675000	      8266	800046e8	f40b6213	ori	x4,x22,-192	 x22:0x80004584  x4=0xffffffc4
       82685000	      8267	800046ec	00c07fb3	and	x31,x0,x12	  x0:0x00000000 x12:0x7fff6004 x31=0x00000000
       82695000	      8268	800046f0	00010d13	addi	x26,x2,0	  x2:0x80000668 x26=0x80000668
       82705000	      8269	800046f4	000d0d67	jalr	x26,x26,0	 x26:0x80000668 x26=0x800046f4
       82715000	      8270	00000000	00000013	addi	x0,x0,0	  x0:0x00000000
       82725000	      8271	80000668	00000013	addi	x0,x0,0	  x0:0x00000000
       82735000	      8272	8000066c	010db7b3	sltu	x15,x27,x16	 x27:0x00000000 x16:0x00000000 x15=0x00000000
       82745000	      8273	80000670	0580016f	jal	x2,80000670	  x2=0x80000670
       82755000	      8274	00000000	00000013	addi	x0,x0,0	  x0:0x00000000
       82765000	      8275	800006c4	00000013	addi	x0,x0,0	  x0:0x00000000
       82775000	      8276	800006c8	020000ef	jal	x1,800006c8	  x1=0x800006c8
       82785000	      8277	00000000	00000013	addi	x0,x0,0	  x0:0x00000000
       82795000	      8278	800006e4	00000013	addi	x0,x0,0	  x0:0x00000000
       82805000	      8279	800006e8	ff9ff0ef	jal	x1,800006e8	  x1=0x800006e8
       82815000	      8280	00000000	00000013	addi	x0,x0,0	  x0:0x00000000
       82825000	      8281	800006dc	00000013	addi	x0,x0,0	  x0:0x00000000
       82835000	      8282	800006e0	fa9ff36f	jal	x6,800006e0	  x6=0x800006e0
       82845000	      8283	00000000	00000013	addi	x0,x0,0	  x0:0x00000000
       82855000	      8284	80000684	00000013	addi	x0,x0,0	  x0:0x00000000
       82865000	      8285	80000688	02c0036f	jal	x6,80000688	  x6=0x80000688
       82875000	      8286	00000000	00000013	addi	x0,x0,0	  x0:0x00000000
       82885000	      8287	800006b0	00000013	addi	x0,x0,0	  x0:0x00000000
       82895000	      8288	800006b4	fe1ff0ef	jal	x1,800006b4	  x1=0x800006b4
       82905000	      8289	00000000	00000013	addi	x0,x0,0	  x0:0x00000000
       82915000	      8290	80000690	00000013	addi	x0,x0,0	  x0:0x00000000
       82925000	      8291	80000694	044000ef	jal	x1,80000694	  x1=0x80000694
       82935000	      8292	00000000	00000013	addi	x0,x0,0	  x0:0x00000000
       82945000	      8293	800006d4	00000013	addi	x0,x0,0	  x0:0x00000000
       82955000	      8294	800006d8	004000ef	jal	x1,800006d8	  x1=0x800006d8
       82965000	      8295	00000000	00000013	addi	x0,x0,0	  x0:0x00000000
       82975000	      8296	800006d8	00000013	addi	x0,x0,0	  x0:0x00000000
       82985000	      8297	800006dc	fd5ff0ef	jal	x1,800006dc	  x1=0x800006dc
       82995000	      8298	00000000	00000013	addi	x0,x0,0	  x0:0x00000000
       83005000	      8299	800006ac	00000013	addi	x0,x0,0	  x0:0x00000000
       83015000	      8300	800006b0	fedff36f	jal	x6,800006b0	  x6=0x800006b0
       83025000	      8301	00000000	00000013	addi	x0,x0,0	  x0:0x00000000
       83035000	      8302	80000698	00000013	addi	x0,x0,0	  x0:0x00000000
       83045000	      8303	8000069c	fe1ff0ef	jal	x1,8000069c	  x1=0x8000069c
       83055000	      8304	00000000	00000013	addi	x0,x0,0	  x0:0x00000000
       83065000	      8305	80000678	00000013	addi	x0,x0,0	  x0:0x00000000
       83075000	      8306	8000067c	03c004ef	jal	x9,8000067c	  x9=0x8000067c
       83085000	      8307	00000000	00000013	addi	x0,x0,0	  x0:0x00000000
       83095000	      8308	800006b4	00000013	addi	x0,x0,0	  x0:0x00000000
       83105000	      8309	800006b8	01c0036f	jal	x6,800006b8	  x6=0x800006b8
       83115000	      8310	00000000	00000013	addi	x0,x0,0	  x0:0x00000000
       83125000	      8311	800006d0	00000013	addi	x0,x0,0	  x0:0x00000000
       83135000	      8312	800006d4	fd5ff0ef	jal	x1,800006d4	  x1=0x800006d4
       83145000	      8313	00000000	00000013	addi	x0,x0,0	  x0:0x00000000
       83155000	      8314	800006a4	00000013	addi	x0,x0,0	  x0:0x00000000
       83165000	      8315	800006a8	ffdff36f	jal	x6,800006a8	  x6=0x800006a8
       83175000	      8316	00000000	00000013	addi	x0,x0,0	  x0:0x00000000
       83185000	      8317	800006a0	00000013	addi	x0,x0,0	  x0:0x00000000
       83195000	      8318	800006a4	0180036f	jal	x6,800006a4	  x6=0x800006a4
       83205000	      8319	00000000	00000013	addi	x0,x0,0	  x0:0x00000000
       83215000	      8320	800006b8	00000013	addi	x0,x0,0	  x0:0x00000000
       83225000	      8321	800006bc	fddff16f	jal	x2,800006bc	  x2=0x800006bc
       83235000	      8322	00000000	00000013	addi	x0,x0,0	  x0:0x00000000
       83245000	      8323	80000694	00000013	addi	x0,x0,0	  x0:0x00000000
       83255000	      8324	80000698	02c001ef	jal	x3,80000698	  x3=0x80000698
       83265000	      8325	00000000	00000013	addi	x0,x0,0	  x0:0x00000000
       83275000	      8326	800006c0	00000013	addi	x0,x0,0	  x0:0x00000000
       83285000	      8327	800006c4	fc9ff36f	jal	x6,800006c4	  x6=0x800006c4
       83295000	      8328	00000000	00000013	addi	x0,x0,0	  x0:0x00000000
       83305000	      8329	80000688	00000013	addi	x0,x0,0	  x0:0x00000000
       83315000	      8330	8000068c	040000ef	jal	x1,8000068c	  x1=0x8000068c
       83325000	      8331	00000000	00000013	addi	x0,x0,0	  x0:0x00000000
       83335000	      8332	800006c8	00000013	addi	x0,x0,0	  x0:0x00000000
       83345000	      8333	800006cc	fe1ff36f	jal	x6,800006cc	  x6=0x800006cc
       83355000	      8334	00000000	00000013	addi	x0,x0,0	  x0:0x00000000
       83365000	      8335	800006a8	00000013	addi	x0,x0,0	  x0:0x00000000
       83375000	      8336	800006ac	ff5ffc6f	jal	x24,800006ac	 x24=0x800006ac
       83385000	      8337	00000000	00000013	addi	x0,x0,0	  x0:0x00000000
       83395000	      8338	8000069c	00000013	addi	x0,x0,0	  x0:0x00000000
       83405000	      8339	800006a0	044000ef	jal	x1,800006a0	  x1=0x800006a0
       83415000	      8340	00000000	00000013	addi	x0,x0,0	  x0:0x00000000
       83425000	      8341	800006e0	00000013	addi	x0,x0,0	  x0:0x00000000
       83435000	      8342	800006e4	f95ff0ef	jal	x1,800006e4	  x1=0x800006e4
       83445000	      8343	00000000	00000013	addi	x0,x0,0	  x0:0x00000000
       83455000	      8344	80000674	00000013	addi	x0,x0,0	  x0:0x00000000
       83465000	      8345	80000678	00c000ef	jal	x1,80000678	  x1=0x80000678
       83475000	      8346	00000000	00000013	addi	x0,x0,0	  x0:0x00000000
       83485000	      8347	80000680	00000013	addi	x0,x0,0	  x0:0x00000000
       83495000	      8348	80000684	ff1ff0ef	jal	x1,80000684	  x1=0x80000684
       83505000	      8349	00000000	00000013	addi	x0,x0,0	  x0:0x00000000
       83515000	      8350	80000670	00000013	addi	x0,x0,0	  x0:0x00000000
       83525000	      8351	80000674	05c000ef	jal	x1,80000674	  x1=0x80000674
       83535000	      8352	00000000	00000013	addi	x0,x0,0	  x0:0x00000000
       83545000	      8353	800006cc	00000013	addi	x0,x0,0	  x0:0x00000000
       83555000	      8354	800006d0	fb1ff4ef	jal	x9,800006d0	  x9=0x800006d0
       83565000	      8355	00000000	00000013	addi	x0,x0,0	  x0:0x00000000
       83575000	      8356	8000067c	00000013	addi	x0,x0,0	  x0:0x00000000
       83585000	      8357	80000680	040004ef	jal	x9,80000680	  x9=0x80000680
       83595000	      8358	00000000	00000013	addi	x0,x0,0	  x0:0x00000000
       83605000	      8359	800006bc	00000013	addi	x0,x0,0	  x0:0x00000000
       83615000	      8360	800006c0	fd1ff0ef	jal	x1,800006c0	  x1=0x800006c0
       83625000	      8361	00000000	00000013	addi	x0,x0,0	  x0:0x00000000
       83635000	      8362	8000068c	00000013	addi	x0,x0,0	  x0:0x00000000
       83645000	      8363	80000690	05c0036f	jal	x6,80000690	  x6=0x80000690
       83655000	      8364	00000000	00000013	addi	x0,x0,0	  x0:0x00000000
       83665000	      8365	800006e8	00000013	addi	x0,x0,0	  x0:0x00000000
       83675000	      8366	800006ec	31626893	ori	x17,x4,790	  x4:0xffffffc4 x17=0xffffffd6
       83685000	      8367	800006f0	0340f063	bgeu	x1,x20,80000710	  x1:0x800006c0 x20:0x00000001
       83695000	      8368	00000000	00000013	addi	x0,x0,0	  x0:0x00000000
       83705000	      8369	8000070c	00000013	addi	x0,x0,0	  x0:0x00000000
       83715000	      8370	80000710	b45e0f13	addi	x30,x28,-1211	 x28:0x00000000 x30=0xfffffb45
       83725000	      8371	80000714	01ea47b3	xor	x15,x20,x30	 x20:0x00000001 x30:0xfffffb45 x15=0xfffffb44
       83735000	      8372	80000718	4034d933	sra	x18,x9,x3	  x9:0x80000680  x3:0x80000698 x18=0xffffff80
       83745000	      8373	8000071c	01139f13	slli	x30,x7,0x11	  x7:0x00000000 x30=0x00000000
       83755000	      8374	80000720	01857633	and	x12,x10,x24	 x10:0x92c00000 x24:0x800006ac x12=0x80000000
       83765000	      8375	80000724	418f04b3	sub	x9,x30,x24	 x30:0x00000000 x24:0x800006ac  x9=0x7ffff954
       83775000	      8376	80000728	0218ec63	bltu	x17,x1,80000760	 x17:0xffffffd6  x1:0x800006c0
       83785000	      8377	8000072c	7bd7ad13	slti	x26,x15,1981	 x15:0xfffffb44 x26=0x00000001
       83795000	      8378	80000730	01f940b3	xor	x1,x18,x31	 x18:0xffffff80 x31:0x00000000  x1=0xffffff80
       83805000	      8379	80000734	41c25813	srai	x16,x4,0x1c	  x4:0xffffffc4 x16=0xffffffff
       83815000	      8380	80000738	03cdf063	bgeu	x27,x28,80000758	 x27:0x00000000 x28:0x00000000
       83825000	      8381	00000000	00000013	addi	x0,x0,0	  x0:0x00000000
       83835000	      8382	80000754	00000013	addi	x0,x0,0	  x0:0x00000000
       83845000	      8383	80000758	022ac263	blt	x21,x2,8000077c	 x21:0x80009f6c  x2:0x800006bc
       83855000	      8384	8000075c	4120df33	sra	x30,x1,x18	  x1:0xffffff80 x18:0xffffff80 x30=0xffffff80
       83865000	      8385	80000760	00cfb0b3	sltu	x1,x31,x12	 x31:0x00000000 x12:0x80000000  x1=0x00000001
       83875000	      8386	80000764	3c7bbc13	sltiu	x24,x23,967	 x23:0x00000000 x24=0x00000001
       83885000	      8387	80000768	0236cc93	xori	x25,x13,35	 x13:0x00000000 x25=0x00000023
       83895000	      8388	8000076c	41475413	srai	x8,x14,0x14	 x14:0xe6609000  x8=0xfffffe66
       83905000	      8389	80000770	6f023b97	auipc	x23,0x6f023	 x23=0xef02376c
       83915000	      8390	80000774	053b7863	bgeu	x22,x19,800007c4	 x22:0x80004584 x19:0x635483cf
       83925000	      8391	00000000	00000013	addi	x0,x0,0	  x0:0x00000000
       83935000	      8392	800007c0	00000013	addi	x0,x0,0	  x0:0x00000000
       83945000	      8393	800007c4	016f11b3	sll	x3,x30,x22	 x30:0xffffff80 x22:0x80004584  x3=0xfffff800
       83955000	      8394	800007c8	6e8db913	sltiu	x18,x27,1768	 x27:0x00000000 x18=0x00000001
       83965000	      8395	800007cc	00ec3cb3	sltu	x25,x24,x14	 x24:0x00000001 x14:0xe6609000 x25=0x00000001
       83975000	      8396	800007d0	01b2d733	srl	x14,x5,x27	  x5:0x80009fc4 x27:0x00000000 x14=0x80009fc4
       83985000	      8397	800007d4	0138d993	srli	x19,x17,0x13	 x17:0xffffffd6 x19=0x00001fff
       83995000	      8398	800007d8	df1c4037	lui	x0,0xdf1c4	
       84005000	      8399	800007dc	b8cb7f93	andi	x31,x22,-1140	 x22:0x80004584 x31=0x80004184
       84015000	      8400	800007e0	02f21c63	bne	x4,x15,80000818	  x4:0xffffffc4 x15:0xfffffb44
       84025000	      8401	00000000	00000013	addi	x0,x0,0	  x0:0x00000000
       84035000	      8402	80000814	00000013	addi	x0,x0,0	  x0:0x00000000
       84045000	      8403	80000818	00d21213	slli	x4,x4,0xd	  x4:0xffffffc4  x4=0xfff88000
       84055000	      8404	8000081c	00545463	bge	x8,x5,80000824	  x8:0xfffffe66  x5:0x80009fc4
       84065000	      8405	00000000	00000013	addi	x0,x0,0	  x0:0x00000000
       84075000	      8406	80000820	00000013	addi	x0,x0,0	  x0:0x00000000
       84085000	      8407	80000824	0041dc93	srli	x25,x3,0x4	  x3:0xfffff800 x25=0x0fffff80
       84095000	      8408	80000828	7082acb7	lui	x25,0x7082a	 x25=0x7082a000
       84105000	      8409	8000082c	051a4263	blt	x20,x17,80000870	 x20:0x00000001 x17:0xffffffd6
       84115000	      8410	80000830	02b21a63	bne	x4,x11,80000864	  x4:0xfff88000 x11:0x80009f84
       84125000	      8411	00000000	00000013	addi	x0,x0,0	  x0:0x00000000
       84135000	      8412	80000860	00000013	addi	x0,x0,0	  x0:0x00000000
       84145000	      8413	80000864	04c45463	bge	x8,x12,800008ac	  x8:0xfffffe66 x12:0x80000000
       84155000	      8414	00000000	00000013	addi	x0,x0,0	  x0:0x00000000
       84165000	      8415	800008a8	00000013	addi	x0,x0,0	  x0:0x00000000
       84175000	      8416	800008ac	e9c5c913	xori	x18,x11,-356	 x11:0x80009f84 x18=0x7fff6118
       84185000	      8417	800008b0	05c45063	bge	x8,x28,800008f0	  x8:0xfffffe66 x28:0x00000000
       84195000	      8418	800008b4	00fcc533	xor	x10,x25,x15	 x25:0x7082a000 x15:0xfffffb44 x10=0x8f7d5b44
       84205000	      8419	800008b8	029ac063	blt	x21,x9,800008d8	 x21:0x80009f6c  x9:0x7ffff954
       84215000	      8420	00000000	00000013	addi	x0,x0,0	  x0:0x00000000
       84225000	      8421	800008d4	00000013	addi	x0,x0,0	  x0:0x00000000
       84235000	      8422	800008d8	bf4eb793	sltiu	x15,x29,-1036	 x29:0x00000000 x15=0x00000001
       84245000	      8423	800008dc	002e4a63	blt	x28,x2,800008f0	 x28:0x00000000  x2:0x800006bc
       84255000	      8424	800008e0	41a186b3	sub	x13,x3,x26	  x3:0xfffff800 x26:0x00000001 x13=0xfffff7ff
       84265000	      8425	800008e4	411bdd33	sra	x26,x23,x17	 x23:0xef02376c x17:0xffffffd6 x26=0xffffffbc
       84275000	      8426	800008e8	26937f37	lui	x30,0x26937	 x30=0x26937000
       84285000	      8427	800008ec	001ad393	srli	x7,x21,0x1	 x21:0x80009f6c  x7=0x40004fb6
       84295000	      8428	800008f0	d7f83413	sltiu	x8,x16,-641	 x16:0xffffffff  x8=0x00000000
       84305000	      8429	800008f4	00068a33	add	x20,x13,x0	 x13:0xfffff7ff  x0:0x00000000 x20=0xfffff7ff
       84315000	      8430	800008f8	03788a63	beq	x17,x23,8000092c	 x17:0xffffffd6 x23:0xef02376c
       84325000	      8431	800008fc	f14f8393	addi	x7,x31,-236	 x31:0x80004184  x7=0x80004098
       84335000	      8432	80000900	01b20133	add	x2,x4,x27	  x4:0xfff88000 x27:0x00000000  x2=0xfff88000
       84345000	      8433	80000904	00f6b733	sltu	x14,x13,x15	 x13:0xfffff7ff x15:0x00000001 x14=0x00000000
       84355000	      8434	80000908	01ed6433	or	x8,x26,x30	 x26:0xffffffbc x30:0x26937000  x8=0xffffffbc
       84365000	      8435	8000090c	0117b433	sltu	x8,x15,x17	 x15:0x00000001 x17:0xffffffd6  x8=0x00000001
       84375000	      8436	80000910	2d4a7693	andi	x13,x20,724	 x20:0xfffff7ff x13=0x000002d4
       84385000	      8437	80000914	eb362817	auipc	x16,0xeb362	 x16=0x6b362910
       84395000	      8438	80000918	00111ab3	sll	x21,x2,x1	  x2:0xfff88000  x1:0x00000001 x21=0xfff10000
       84405000	      8439	8000091c	0537e663	bltu	x15,x19,80000968	 x15:0x00000001 x19:0x00001fff
       84415000	      8440	00000000	00000013	addi	x0,x0,0	  x0:0x00000000
       84425000	      8441	80000964	00000013	addi	x0,x0,0	  x0:0x00000000
       84435000	      8442	80000968	0157e1b3	or	x3,x15,x21	 x15:0x00000001 x21:0xfff10000  x3=0xfff10001
       84445000	      8443	8000096c	00b0d313	srli	x6,x1,0xb	  x1:0x00000001  x6=0x00000000
       84455000	      8444	80000970	45c5b993	sltiu	x19,x11,1116	 x11:0x80009f84 x19=0x00000000
       84465000	      8445	80000974	03106c63	bltu	x0,x17,800009ac	  x0:0x00000000 x17:0xffffffd6
       84475000	      8446	00000000	00000013	addi	x0,x0,0	  x0:0x00000000
       84485000	      8447	800009a8	00000013	addi	x0,x0,0	  x0:0x00000000
       84495000	      8448	800009ac	01c90333	add	x6,x18,x28	 x18:0x7fff6118 x28:0x00000000  x6=0x7fff6118
       84505000	      8449	800009b0	011d36b3	sltu	x13,x26,x17	 x26:0xffffffbc x17:0xffffffd6 x13=0x00000001
       84515000	      8450	800009b4	178f3393	sltiu	x7,x30,376	 x30:0x26937000  x7=0x00000000
       84525000	      8451	800009b8	0199f133	and	x2,x19,x25	 x19:0x00000000 x25:0x7082a000  x2=0x00000000
       84535000	      8452	800009bc	e18e6993	ori	x19,x28,-488	 x28:0x00000000 x19=0xfffffe18
       84545000	      8453	800009c0	e2ebac93	slti	x25,x23,-466	 x23:0xef02376c x25=0x00000001
       84555000	      8454	800009c4	41ba5393	srai	x7,x20,0x1b	 x20:0xfffff7ff  x7=0xffffffff
       84565000	      8455	800009c8	0487e463	bltu	x15,x8,80000a10	 x15:0x00000001  x8:0x00000001
       84575000	      8456	800009cc	01452333	slt	x6,x10,x20	 x10:0x8f7d5b44 x20:0xfffff7ff  x6=0x00000001
       84585000	      8457	800009d0	a18e6613	ori	x12,x28,-1512	 x28:0x00000000 x12=0xfffffa18
       84595000	      8458	800009d4	0028f8b3	and	x17,x17,x2	 x17:0xffffffd6  x2:0x00000000 x17=0x00000000
       84605000	      8459	800009d8	1be30493	addi	x9,x6,446	  x6:0x00000001  x9=0x000001bf
       84615000	      8460	800009dc	02d8c663	blt	x17,x13,80000a08	 x17:0x00000000 x13:0x00000001
       84625000	      8461	00000000	00000013	addi	x0,x0,0	  x0:0x00000000
       84635000	      8462	80000a04	00000013	addi	x0,x0,0	  x0:0x00000000
       84645000	      8463	80000a08	01a230b3	sltu	x1,x4,x26	  x4:0xfff88000 x26:0xffffffbc  x1=0x00000001
       84655000	      8464	80000a0c	0014d813	srli	x16,x9,0x1	  x9:0x000001bf x16=0x000000df
       84665000	      8465	80000a10	0422e863	bltu	x5,x2,80000a60	  x5:0x80009fc4  x2:0x00000000
       84675000	      8466	80000a14	c02ce517	auipc	x10,0xc02ce	 x10=0x402cea10
       84685000	      8467	80000a18	01c55113	srli	x2,x10,0x1c	 x10:0x402cea10  x2=0x00000004
       84695000	      8468	80000a1c	40230a33	sub	x20,x6,x2	  x6:0x00000001  x2:0x00000004 x20=0xfffffffd
       84705000	      8469	80000a20	045f0863	beq	x30,x5,80000a70	 x30:0x26937000  x5:0x80009fc4
       84715000	      8470	80000a24	008fed33	or	x26,x31,x8	 x31:0x80004184  x8:0x00000001 x26=0x80004185
       84725000	      8471	80000a28	029e4c63	blt	x28,x9,80000a60	 x28:0x00000000  x9:0x000001bf
       84735000	      8472	00000000	00000013	addi	x0,x0,0	  x0:0x00000000
       84745000	      8473	80000a5c	00000013	addi	x0,x0,0	  x0:0x00000000
       84755000	      8474	80000a60	056ed463	bge	x29,x22,80000aa8	 x29:0x00000000 x22:0x80004584
       84765000	      8475	00000000	00000013	addi	x0,x0,0	  x0:0x00000000
       84775000	      8476	80000aa4	00000013	addi	x0,x0,0	  x0:0x00000000
       84785000	      8477	80000aa8	024dca63	blt	x27,x4,80000adc	 x27:0x00000000  x4:0xfff88000
       84795000	      8478	80000aac	41820233	sub	x4,x4,x24	  x4:0xfff88000 x24:0x00000001  x4=0xfff87fff
       84805000	      8479	80000ab0	0073bbb3	sltu	x23,x7,x7	  x7:0xffffffff  x7:0xffffffff x23=0x00000000
       84815000	      8480	80000ab4	00000013	addi	x0,x0,0	  x0:0x00000000
       84825000	      8481	80000ab8	005a77b3	and	x15,x20,x5	 x20:0xfffffffd  x5:0x80009fc4 x15=0x80009fc4
       84835000	      8482	80000abc	040f7263	bgeu	x30,x0,80000b00	 x30:0x26937000  x0:0x00000000
       84845000	      8483	00000000	00000013	addi	x0,x0,0	  x0:0x00000000
       84855000	      8484	80000afc	00000013	addi	x0,x0,0	  x0:0x00000000
       84865000	      8485	80000b00	0111d213	srli	x4,x3,0x11	  x3:0xfff10001  x4=0x00007ff8
       84875000	      8486	80000b04	41335a33	sra	x20,x6,x19	  x6:0x00000001 x19:0xfffffe18 x20=0x00000000
       84885000	      8487	80000b08	012ebf33	sltu	x30,x29,x18	 x29:0x00000000 x18:0x7fff6118 x30=0x00000001
       84895000	      8488	80000b0c	4ab5a893	slti	x17,x11,1195	 x11:0x80009f84 x17=0x00000001
       84905000	      8489	80000b10	40725b13	srai	x22,x4,0x7	  x4:0x00007ff8 x22=0x000000ff
       84915000	      8490	80000b14	00da5d93	srli	x27,x20,0xd	 x20:0x00000000 x27=0x00000000
       84925000	      8491	80000b18	003110b3	sll	x1,x2,x3	  x2:0x00000004  x3:0xfff10001  x1=0x00000008
       84935000	      8492	80000b1c	010fd213	srli	x4,x31,0x10	 x31:0x80004184  x4=0x00008000
       84945000	      8493	80000b20	028c7663	bgeu	x24,x8,80000b4c	 x24:0x00000001  x8:0x00000001
       84955000	      8494	00000000	00000013	addi	x0,x0,0	  x0:0x00000000
       84965000	      8495	80000b48	00000013	addi	x0,x0,0	  x0:0x00000000
       84975000	      8496	80000b4c	6e470193	addi	x3,x14,1764	 x14:0x00000000  x3=0x000006e4
       84985000	      8497	80000b50	012b66b3	or	x13,x22,x18	 x22:0x000000ff x18:0x7fff6118 x13=0x7fff61ff
       84995000	      8498	80000b54	00a3e863	bltu	x7,x10,80000b64	  x7:0xffffffff x10:0x402cea10
       85005000	      8499	80000b58	018b1013	slli	x0,x22,0x18	 x22:0x000000ff
       85015000	      8500	80000b5c	037e6063	bltu	x28,x23,80000b7c	 x28:0x00000000 x23:0x00000000
       85025000	      8501	80000b60	01eee6b3	or	x13,x29,x30	 x29:0x00000000 x30:0x00000001 x13=0x00000001
       85035000	      8502	80000b64	00000013	addi	x0,x0,0	  x0:0x00000000
       85045000	      8503	80000b68	7175d317	auipc	x6,0x7175d	  x6=0xf175db64
       85055000	      8504	80000b6c	01b07033	and	x0,x0,x27	  x0:0x00000000 x27:0x00000000
       85065000	      8505	80000b70	0a950863	beq	x10,x9,80000c20	 x10:0x402cea10  x9:0x000001bf
       85075000	      8506	80000b74	01ff9533	sll	x10,x31,x31	 x31:0x80004184 x31:0x80004184 x10=0x00041840
       85085000	      8507	80000b78	00000013	addi	x0,x0,0	  x0:0x00000000
       85095000	      8508	80000b7c	0132fc33	and	x24,x5,x19	  x5:0x80009fc4 x19:0xfffffe18 x24=0x80009e00
       85105000	      8509	80000b80	2ebbea13	ori	x20,x23,747	 x23:0x00000000 x20=0x000002eb
       85115000	      8510	80000b84	00bba933	slt	x18,x23,x11	 x23:0x00000000 x11:0x80009f84 x18=0x00000000
       85125000	      8511	80000b88	00fddb33	srl	x22,x27,x15	 x27:0x00000000 x15:0x80009fc4 x22=0x00000000
       85135000	      8512	80000b8c	09f05a63	bge	x0,x31,80000c20	  x0:0x00000000 x31:0x80004184
       85145000	      8513	00000000	00000013	addi	x0,x0,0	  x0:0x00000000
       85155000	      8514	80000c1c	00000013	addi	x0,x0,0	  x0:0x00000000
       85165000	      8515	80000c20	019a9433	sll	x8,x21,x25	 x21:0xfff10000 x25:0x00000001  x8=0xffe20000
       85175000	      8516	80000c24	09b76863	bltu	x14,x27,80000cb4	 x14:0x00000000 x27:0x00000000
       85185000	      8517	80000c28	07b17e63	bgeu	x2,x27,80000ca4	  x2:0x00000004 x27:0x00000000
       85195000	      8518	00000000	00000013	addi	x0,x0,0	  x0:0x00000000
       85205000	      8519	80000ca0	00000013	addi	x0,x0,0	  x0:0x00000000
       85215000	      8520	80000ca4	ec7ddeb7	lui	x29,0xec7dd	 x29=0xec7dd000
       85225000	      8521	80000ca8	01ce8033	add	x0,x29,x28	 x29:0xec7dd000 x28:0x00000000
       85235000	      8522	80000cac	05be0863	beq	x28,x27,80000cfc	 x28:0x00000000 x27:0x00000000
       85245000	      8523	00000000	00000013	addi	x0,x0,0	  x0:0x00000000
       85255000	      8524	80000cf8	00000013	addi	x0,x0,0	  x0:0x00000000
       85265000	      8525	80000cfc	01e78cb3	add	x25,x15,x30	 x15:0x80009fc4 x30:0x00000001 x25=0x80009fc5
       85275000	      8526	80000d00	073d2613	slti	x12,x26,115	 x26:0x80004185 x12=0x00000001
       85285000	      8527	80000d04	0546c063	blt	x13,x20,80000d44	 x13:0x00000001 x20:0x000002eb
       85295000	      8528	00000000	00000013	addi	x0,x0,0	  x0:0x00000000
       85305000	      8529	80000d40	00000013	addi	x0,x0,0	  x0:0x00000000
       85315000	      8530	80000d44	05245263	bge	x8,x18,80000d88	  x8:0xffe20000 x18:0x00000000
       85325000	      8531	80000d48	00848433	add	x8,x9,x8	  x9:0x000001bf  x8:0xffe20000  x8=0xffe201bf
       85335000	      8532	80000d4c	007b56b3	srl	x13,x22,x7	 x22:0x00000000  x7:0xffffffff x13=0x00000000
       85345000	      8533	80000d50	41a653b3	sra	x7,x12,x26	 x12:0x00000001 x26:0x80004185  x7=0x00000000
       85355000	      8534	80000d54	ce516f13	ori	x30,x2,-795	  x2:0x00000004 x30=0xfffffce5
       85365000	      8535	80000d58	401f5093	srai	x1,x30,0x1	 x30:0xfffffce5  x1=0xfffffe72
       85375000	      8536	80000d5c	019653b3	srl	x7,x12,x25	 x12:0x00000001 x25:0x80009fc5  x7=0x00000000
       85385000	      8537	80000d60	005d16b3	sll	x13,x26,x5	 x26:0x80004185  x5:0x80009fc4 x13=0x00041850
       85395000	      8538	80000d64	41ec83b3	sub	x7,x25,x30	 x25:0x80009fc5 x30:0xfffffce5  x7=0x8000a2e0
       85405000	      8539	80000d68	41d25713	srai	x14,x4,0x1d	  x4:0x00008000 x14=0x00000000
       85415000	      8540	80000d6c	00000013	addi	x0,x0,0	  x0:0x00000000
       85425000	      8541	80000d70	888f0c93	addi	x25,x30,-1912	 x30:0xfffffce5 x25=0xfffff56d
       85435000	      8542	80000d74	046c0463	beq	x24,x6,80000dbc	 x24:0x80009e00  x6:0xf175db64
       85445000	      8543	80000d78	009280b3	add	x1,x5,x9	  x5:0x80009fc4  x9:0x000001bf  x1=0x8000a183
       85455000	      8544	80000d7c	00fc7b33	and	x22,x24,x15	 x24:0x80009e00 x15:0x80009fc4 x22=0x80009e00
       85465000	      8545	80000d80	b683ac93	slti	x25,x7,-1176	  x7:0x8000a2e0 x25=0x00000001
       85475000	      8546	80000d84	40a1d413	srai	x8,x3,0xa	  x3:0x000006e4  x8=0x00000001
       85485000	      8547	80000d88	40a55233	sra	x4,x10,x10	 x10:0x00041840 x10:0x00041840  x4=0x00041840
       85495000	      8548	80000d8c	01a59bb3	sll	x23,x11,x26	 x11:0x80009f84 x26:0x80004185 x23=0x0013f080
       85505000	      8549	80000d90	01541213	slli	x4,x8,0x15	  x8:0x00000001  x4=0x00200000
       85515000	      8550	80000d94	01601cb3	sll	x25,x0,x22	  x0:0x00000000 x22:0x80009e00 x25=0x00000000
       85525000	      8551	80000d98	00000013	addi	x0,x0,0	  x0:0x00000000
       85535000	      8552	80000d9c	016f68b3	or	x17,x30,x22	 x30:0xfffffce5 x22:0x80009e00 x17=0xfffffee5
       85545000	      8553	80000da0	003fd933	srl	x18,x31,x3	 x31:0x80004184  x3:0x000006e4 x18=0x08000418
       85555000	      8554	80000da4	00c00e63	beq	x0,x12,80000dc0	  x0:0x00000000 x12:0x00000001
       85565000	      8555	80000da8	01f62533	slt	x10,x12,x31	 x12:0x00000001 x31:0x80004184 x10=0x00000000
       85575000	      8556	80000dac	003583b3	add	x7,x11,x3	 x11:0x80009f84  x3:0x000006e4  x7=0x8000a668
       85585000	      8557	80000db0	f1067937	lui	x18,0xf1067	 x18=0xf1067000
       85595000	      8558	80000db4	01511133	sll	x2,x2,x21	  x2:0x00000004 x21:0xfff10000  x2=0x00000004
       85605000	      8559	80000db8	02586c63	bltu	x16,x5,80000df0	 x16:0x000000df  x5:0x80009fc4
       85615000	      8560	00000000	00000013	addi	x0,x0,0	  x0:0x00000000
       85625000	      8561	80000dec	00000013	addi	x0,x0,0	  x0:0x00000000
       85635000	      8562	80000df0	08306a63	bltu	x0,x3,80000e84	  x0:0x00000000  x3:0x000006e4
       85645000	      8563	00000000	00000013	addi	x0,x0,0	  x0:0x00000000
       85655000	      8564	80000e80	00000013	addi	x0,x0,0	  x0:0x00000000
       85665000	      8565	80000e84	00000013	addi	x0,x0,0	  x0:0x00000000
       85675000	      8566	80000e88	0122a1b3	slt	x3,x5,x18	  x5:0x80009fc4 x18:0xf1067000  x3=0x00000001
       85685000	      8567	80000e8c	a2dfe997	auipc	x19,0xa2dfe	 x19=0x22dfee88
       85695000	      8568	80000e90	02137c63	bgeu	x6,x1,80000ec8	  x6:0xf175db64  x1:0x8000a183
       85705000	      8569	00000000	00000013	addi	x0,x0,0	  x0:0x00000000
       85715000	      8570	80000ec4	00000013	addi	x0,x0,0	  x0:0x00000000
       85725000	      8571	80000ec8	05c9c863	blt	x19,x28,80000f18	 x19:0x22dfee88 x28:0x00000000
       85735000	      8572	80000ecc	03700c63	beq	x0,x23,80000f04	  x0:0x00000000 x23:0x0013f080
       85745000	      8573	80000ed0	414b5a13	srai	x20,x22,0x14	 x22:0x80009e00 x20=0xfffff800
       85755000	      8574	80000ed4	01da5513	srli	x10,x20,0x1d	 x20:0xfffff800 x10=0x00000007
       85765000	      8575	80000ed8	41175d13	srai	x26,x14,0x11	 x14:0x00000000 x26=0x00000000
       85775000	      8576	80000edc	019c96b3	sll	x13,x25,x25	 x25:0x00000000 x25:0x00000000 x13=0x00000000
       85785000	      8577	80000ee0	8eca5237	lui	x4,0x8eca5	  x4=0x8eca5000
       85795000	      8578	80000ee4	40e28233	sub	x4,x5,x14	  x5:0x80009fc4 x14:0x00000000  x4=0x80009fc4
       85805000	      8579	80000ee8	38273893	sltiu	x17,x14,898	 x14:0x00000000 x17=0x00000001
       85815000	      8580	80000eec	eaed3713	sltiu	x14,x26,-338	 x26:0x00000000 x14=0x00000001
       85825000	      8581	80000ef0	41f0dbb3	sra	x23,x1,x31	  x1:0x8000a183 x31:0x80004184 x23=0xf8000a18
       85835000	      8582	80000ef4	02de1063	bne	x28,x13,80000f14	 x28:0x00000000 x13:0x00000000
       85845000	      8583	80000ef8	01c97333	and	x6,x18,x28	 x18:0xf1067000 x28:0x00000000  x6=0x00000000
       85855000	      8584	80000efc	4183d3b3	sra	x7,x7,x24	  x7:0x8000a668 x24:0x80009e00  x7=0x8000a668
       85865000	      8585	80000f00	412159b3	sra	x19,x2,x18	  x2:0x00000004 x18:0xf1067000 x19=0x00000004
       85875000	      8586	80000f04	0185ceb3	xor	x29,x11,x24	 x11:0x80009f84 x24:0x80009e00 x29=0x00000184
       85885000	      8587	80000f08	5a1aea93	ori	x21,x21,1441	 x21:0xfff10000 x21=0xfff105a1
       85895000	      8588	80000f0c	20477513	andi	x10,x14,516	 x14:0x00000001 x10=0x00000000
       85905000	      8589	80000f10	02ea8663	beq	x21,x14,80000f3c	 x21:0xfff105a1 x14:0x00000001
       85915000	      8590	80000f14	7e9cb497	auipc	x9,0x7e9cb	  x9=0xfe9cbf10
       85925000	      8591	80000f18	009368b3	or	x17,x6,x9	  x6:0x00000000  x9:0xfe9cbf10 x17=0xfe9cbf10
       85935000	      8592	80000f1c	01050c33	add	x24,x10,x16	 x10:0x00000000 x16:0x000000df x24=0x000000df
       85945000	      8593	80000f20	a5eb4993	xori	x19,x22,-1442	 x22:0x80009e00 x19=0x7fff645e
       85955000	      8594	80000f24	32cfc393	xori	x7,x31,812	 x31:0x80004184  x7=0x800042a8
       85965000	      8595	80000f28	01d3d193	srli	x3,x7,0x1d	  x7:0x800042a8  x3=0x00000004
       85975000	      8596	80000f2c	41e40233	sub	x4,x8,x30	  x8:0x00000001 x30:0xfffffce5  x4=0x0000031c
       85985000	      8597	80000f30	01a35c33	srl	x24,x6,x26	  x6:0x00000000 x26:0x00000000 x24=0x00000000
       85995000	      8598	80000f34	03a05663	bge	x0,x26,80000f60	  x0:0x00000000 x26:0x00000000
       86005000	      8599	00000000	00000013	addi	x0,x0,0	  x0:0x00000000
       86015000	      8600	80000f5c	00000013	addi	x0,x0,0	  x0:0x00000000
       86025000	      8601	80000f60	6b005497	auipc	x9,0x6b005	  x9=0xeb005f5c
       86035000	      8602	80000f64	0954c663	blt	x9,x21,80000ff0	  x9:0xeb005f5c x21:0xfff105a1
       86045000	      8603	00000000	00000013	addi	x0,x0,0	  x0:0x00000000
       86055000	      8604	80000fec	00000013	addi	x0,x0,0	  x0:0x00000000
       86065000	      8605	80000ff0	0051ab33	slt	x22,x3,x5	  x3:0x00000004  x5:0x80009fc4 x22=0x00000000
       86075000	      8606	80000ff4	01651493	slli	x9,x10,0x16	 x10:0x00000000  x9=0x00000000
       86085000	      8607	80000ff8	c7af6313	ori	x6,x30,-902	 x30:0xfffffce5  x6=0xfffffcff
       86095000	      8608	80000ffc	d723a713	slti	x14,x7,-654	  x7:0x800042a8 x14=0x00000001
       86105000	      8609	80001000	0053ba33	sltu	x20,x7,x5	  x7:0x800042a8  x5:0x80009fc4 x20=0x00000001
       86115000	      8610	80001004	0207ea63	bltu	x15,x0,80001038	 x15:0x80009fc4  x0:0x00000000
       86125000	      8611	80001008	c2127613	andi	x12,x4,-991	  x4:0x0000031c x12=0x00000000
       86135000	      8612	8000100c	9154c913	xori	x18,x9,-1771	  x9:0x00000000 x18=0xfffff915
       86145000	      8613	80001010	04a3c863	blt	x7,x10,80001060	  x7:0x800042a8 x10:0x00000000
       86155000	      8614	00000000	00000013	addi	x0,x0,0	  x0:0x00000000
       86165000	      8615	8000105c	00000013	addi	x0,x0,0	  x0:0x00000000
       86175000	      8616	80001060	418e5433	sra	x8,x28,x24	 x28:0x00000000 x24:0x00000000  x8=0x00000000
       86185000	      8617	80001064	00000013	addi	x0,x0,0	  x0:0x00000000
       86195000	      8618	80001068	02156693	ori	x13,x10,33	 x10:0x00000000 x13=0x00000021
       86205000	      8619	8000106c	0084fc33	and	x24,x9,x8	  x9:0x00000000  x8:0x00000000 x24=0x00000000
       86215000	      8620	80001070	9a4c0d93	addi	x27,x24,-1628	 x24:0x00000000 x27=0xfffff9a4
       86225000	      8621	80001074	005cc1b3	xor	x3,x25,x5	 x25:0x00000000  x5:0x80009fc4  x3=0x80009fc4
       86235000	      8622	80001078	01b027b3	slt	x15,x0,x27	  x0:0x00000000 x27:0xfffff9a4 x15=0x00000000
       86245000	      8623	8000107c	a2869fb7	lui	x31,0xa2869	 x31=0xa2869000
       86255000	      8624	80001080	01950bb3	add	x23,x10,x25	 x10:0x00000000 x25:0x00000000 x23=0x00000000
       86265000	      8625	80001084	019da3b3	slt	x7,x27,x25	 x27:0xfffff9a4 x25:0x00000000  x7=0x00000001
       86275000	      8626	80001088	03529c63	bne	x5,x21,800010c0	  x5:0x80009fc4 x21:0xfff105a1
       86285000	      8627	00000000	00000013	addi	x0,x0,0	  x0:0x00000000
       86295000	      8628	800010bc	00000013	addi	x0,x0,0	  x0:0x00000000
       86305000	      8629	800010c0	86203ab7	lui	x21,0x86203	 x21=0x86203000
       86315000	      8630	800010c4	41698733	sub	x14,x19,x22	 x19:0x7fff645e x22:0x00000000 x14=0x7fff645e
       86325000	      8631	800010c8	636c3513	sltiu	x10,x24,1590	 x24:0x00000000 x10=0x00000001
       86335000	      8632	800010cc	40ca8133	sub	x2,x21,x12	 x21:0x86203000 x12:0x00000000  x2=0x86203000
       86345000	      8633	800010d0	0e1b2613	slti	x12,x22,225	 x22:0x00000000 x12=0x00000001
       86355000	      8634	800010d4	01e19113	slli	x2,x3,0x1e	  x3:0x80009fc4  x2=0x00000000
       86365000	      8635	800010d8	0300c063	blt	x1,x16,800010f8	  x1:0x8000a183 x16:0x000000df
       86375000	      8636	00000000	00000013	addi	x0,x0,0	  x0:0x00000000
       86385000	      8637	800010f4	00000013	addi	x0,x0,0	  x0:0x00000000
       86395000	      8638	800010f8	03397663	bgeu	x18,x19,80001124	 x18:0xfffff915 x19:0x7fff645e
       86405000	      8639	00000000	00000013	addi	x0,x0,0	  x0:0x00000000
       86415000	      8640	80001120	00000013	addi	x0,x0,0	  x0:0x00000000
       86425000	      8641	80001124	40e75433	sra	x8,x14,x14	 x14:0x7fff645e x14:0x7fff645e  x8=0x00000001
       86435000	      8642	80001128	018c6eb3	or	x29,x24,x24	 x24:0x00000000 x24:0x00000000 x29=0x00000000
       86445000	      8643	8000112c	4f883937	lui	x18,0x4f883	 x18=0x4f883000
       86455000	      8644	80001130	87b80193	addi	x3,x16,-1925	 x16:0x000000df  x3=0xfffff95a
       86465000	      8645	80001134	dba5f637	lui	x12,0xdba5f	 x12=0xdba5f000
       86475000	      8646	80001138	0192e233	or	x4,x5,x25	  x5:0x80009fc4 x25:0x00000000  x4=0x80009fc4
       86485000	      8647	8000113c	877cbe93	sltiu	x29,x25,-1929	 x25:0x00000000 x29=0x00000001
       86495000	      8648	80001140	01b15913	srli	x18,x2,0x1b	  x2:0x00000000 x18=0x00000000
       86505000	      8649	80001144	057c6063	bltu	x24,x23,80001184	 x24:0x00000000 x23:0x00000000
       86515000	      8650	80001148	01c996b3	sll	x13,x19,x28	 x19:0x7fff645e x28:0x00000000 x13=0x7fff645e
       86525000	      8651	8000114c	41c45d93	srai	x27,x8,0x1c	  x8:0x00000001 x27=0x00000000
       86535000	      8652	80001150	009f4733	xor	x14,x30,x9	 x30:0xfffffce5  x9:0x00000000 x14=0xfffffce5
       86545000	      8653	80001154	05280f93	addi	x31,x16,82	 x16:0x000000df x31=0x00000131
       86555000	      8654	80001158	0271c463	blt	x3,x7,80001180	  x3:0xfffff95a  x7:0x00000001
       86565000	      8655	00000000	00000013	addi	x0,x0,0	  x0:0x00000000
       86575000	      8656	8000117c	00000013	addi	x0,x0,0	  x0:0x00000000
       86585000	      8657	80001180	018aea63	bltu	x21,x24,80001194	 x21:0x86203000 x24:0x00000000
       86595000	      8658	80001184	41338233	sub	x4,x7,x19	  x7:0x00000001 x19:0x7fff645e  x4=0x80009ba3
       86605000	      8659	80001188	40e85993	srai	x19,x16,0xe	 x16:0x000000df x19=0x00000000
       86615000	      8660	8000118c	036e1663	bne	x28,x22,800011b8	 x28:0x00000000 x22:0x00000000
       86625000	      8661	80001190	037d0063	beq	x26,x23,800011b0	 x26:0x00000000 x23:0x00000000
       86635000	      8662	00000000	00000013	addi	x0,x0,0	  x0:0x00000000
       86645000	      8663	800011ac	00000013	addi	x0,x0,0	  x0:0x00000000
       86655000	      8664	800011b0	405c5f33	sra	x30,x24,x5	 x24:0x00000000  x5:0x80009fc4 x30=0x00000000
       86665000	      8665	800011b4	03ae1063	bne	x28,x26,800011d4	 x28:0x00000000 x26:0x00000000
       86675000	      8666	800011b8	956f0093	addi	x1,x30,-1706	 x30:0x00000000  x1=0xfffff956
       86685000	      8667	800011bc	00c338b3	sltu	x17,x6,x12	  x6:0xfffffcff x12:0xdba5f000 x17=0x00000000
       86695000	      8668	800011c0	28c5c493	xori	x9,x11,652	 x11:0x80009f84  x9=0x80009d08
       86705000	      8669	800011c4	00fe1b93	slli	x23,x28,0xf	 x28:0x00000000 x23=0x00000000
       86715000	      8670	800011c8	fe9cad93	slti	x27,x25,-23	 x25:0x00000000 x27=0x00000000
       86725000	      8671	800011cc	00f1d013	srli	x0,x3,0xf	  x3:0xfffff95a
       86735000	      8672	800011d0	04649663	bne	x9,x6,8000121c	  x9:0x80009d08  x6:0xfffffcff
       86745000	      8673	00000000	00000013	addi	x0,x0,0	  x0:0x00000000
       86755000	      8674	80001218	00000013	addi	x0,x0,0	  x0:0x00000000
       86765000	      8675	8000121c	007daab3	slt	x21,x27,x7	 x27:0x00000000  x7:0x00000001 x21=0x00000001
       86775000	      8676	80001220	00000013	addi	x0,x0,0	  x0:0x00000000
       86785000	      8677	80001224	00e13c33	sltu	x24,x2,x14	  x2:0x00000000 x14:0xfffffce5 x24=0x00000001
       86795000	      8678	80001228	20353093	sltiu	x1,x10,515	 x10:0x00000001  x1=0x00000001
       86805000	      8679	8000122c	0030e333	or	x6,x1,x3	  x1:0x00000001  x3:0xfffff95a  x6=0xfffff95b
       86815000	      8680	80001230	04ac8663	beq	x25,x10,8000127c	 x25:0x00000000 x10:0x00000001
       86825000	      8681	80001234	3133c613	xori	x12,x7,787	  x7:0x00000001 x12=0x00000312
       86835000	      8682	80001238	41e0dfb3	sra	x31,x1,x30	  x1:0x00000001 x30:0x00000000 x31=0x00000001
       86845000	      8683	8000123c	407a0db3	sub	x27,x20,x7	 x20:0x00000001  x7:0x00000001 x27=0x00000000
       86855000	      8684	80001240	04f49463	bne	x9,x15,80001288	  x9:0x80009d08 x15:0x00000000
       86865000	      8685	00000000	00000013	addi	x0,x0,0	  x0:0x00000000
       86875000	      8686	80001284	00000013	addi	x0,x0,0	  x0:0x00000000
       86885000	      8687	80001288	0158c433	xor	x8,x17,x21	 x17:0x00000000 x21:0x00000001  x8=0x00000001
       86895000	      8688	8000128c	216efc93	andi	x25,x29,534	 x29:0x00000001 x25=0x00000000
       86905000	      8689	80001290	004670b3	and	x1,x12,x4	 x12:0x00000312  x4:0x80009ba3  x1=0x00000302
       86915000	      8690	80001294	0a081863	bne	x16,x0,80001344	 x16:0x000000df  x0:0x00000000
       86925000	      8691	00000000	00000013	addi	x0,x0,0	  x0:0x00000000
       86935000	      8692	80001340	00000013	addi	x0,x0,0	  x0:0x00000000
       86945000	      8693	80001344	024e4063	blt	x28,x4,80001364	 x28:0x00000000  x4:0x80009ba3
       86955000	      8694	80001348	03916263	bltu	x2,x25,8000136c	  x2:0x00000000 x25:0x00000000
       86965000	      8695	8000134c	0018c433	xor	x8,x17,x1	 x17:0x00000000  x1:0x00000302  x8=0x00000302
       86975000	      8696	80001350	18470d93	addi	x27,x14,388	 x14:0xfffffce5 x27=0xfffffe69
       86985000	      8697	80001354	1552e193	ori	x3,x5,341	  x5:0x80009fc4  x3=0x80009fd5
       86995000	      8698	80001358	bb71c013	xori	x0,x3,-1097	  x3:0x80009fd5
       87005000	      8699	8000135c	03294463	blt	x18,x18,80001384	 x18:0x00000000 x18:0x00000000
       87015000	      8700	80001360	007b5793	srli	x15,x22,0x7	 x22:0x00000000 x15=0x00000000
       87025000	      8701	80001364	409c5693	srai	x13,x24,0x9	 x24:0x00000001 x13=0x00000000
       87035000	      8702	80001368	2b187313	andi	x6,x16,689	 x16:0x000000df  x6=0x00000091
       87045000	      8703	8000136c	019c7e63	bgeu	x24,x25,80001388	 x24:0x00000001 x25:0x00000000
       87055000	      8704	00000000	00000013	addi	x0,x0,0	  x0:0x00000000
       87065000	      8705	80001384	00000013	addi	x0,x0,0	  x0:0x00000000
       87075000	      8706	80001388	d5388393	addi	x7,x17,-685	 x17:0x00000000  x7=0xfffffd53
       87085000	      8707	8000138c	00e2afb3	slt	x31,x5,x14	  x5:0x80009fc4 x14:0xfffffce5 x31=0x00000001
       87095000	      8708	80001390	01f21413	slli	x8,x4,0x1f	  x4:0x80009ba3  x8=0x80000000
       87105000	      8709	80001394	000226b3	slt	x13,x4,x0	  x4:0x80009ba3  x0:0x00000000 x13=0x00000001
       87115000	      8710	80001398	401b5b33	sra	x22,x22,x1	 x22:0x00000000  x1:0x00000302 x22=0x00000000
       87125000	      8711	8000139c	040af863	bgeu	x21,x0,800013ec	 x21:0x00000001  x0:0x00000000
       87135000	      8712	00000000	00000013	addi	x0,x0,0	  x0:0x00000000
       87145000	      8713	800013e8	00000013	addi	x0,x0,0	  x0:0x00000000
       87155000	      8714	800013ec	0290da63	bge	x1,x9,80001420	  x1:0x00000302  x9:0x80009d08
       87165000	      8715	00000000	00000013	addi	x0,x0,0	  x0:0x00000000
       87175000	      8716	8000141c	00000013	addi	x0,x0,0	  x0:0x00000000
       87185000	      8717	80001420	03ea5a63	bge	x20,x30,80001454	 x20:0x00000001 x30:0x00000000
       87195000	      8718	00000000	00000013	addi	x0,x0,0	  x0:0x00000000
       87205000	      8719	80001450	00000013	addi	x0,x0,0	  x0:0x00000000
       87215000	      8720	80001454	008a1533	sll	x10,x20,x8	 x20:0x00000001  x8:0x80000000 x10=0x00000001
       87225000	      8721	80001458	01126333	or	x6,x4,x17	  x4:0x80009ba3 x17:0x00000000  x6=0x80009ba3
       87235000	      8722	8000145c	05afa193	slti	x3,x31,90	 x31:0x00000001  x3=0x00000001
       87245000	      8723	80001460	3f570d93	addi	x27,x14,1013	 x14:0xfffffce5 x27=0x000000da
       87255000	      8724	80001464	88a20713	addi	x14,x4,-1910	  x4:0x80009ba3 x14=0x8000942d
       87265000	      8725	80001468	02579c63	bne	x15,x5,800014a0	 x15:0x00000000  x5:0x80009fc4
       87275000	      8726	00000000	00000013	addi	x0,x0,0	  x0:0x00000000
       87285000	      8727	8000149c	00000013	addi	x0,x0,0	  x0:0x00000000
       87295000	      8728	800014a0	03b67663	bgeu	x12,x27,800014cc	 x12:0x00000312 x27:0x000000da
       87305000	      8729	00000000	00000013	addi	x0,x0,0	  x0:0x00000000
       87315000	      8730	800014c8	00000013	addi	x0,x0,0	  x0:0x00000000
       87325000	      8731	800014cc	00f05833	srl	x16,x0,x15	  x0:0x00000000 x15:0x00000000 x16=0x00000000
       87335000	      8732	800014d0	49311317	auipc	x6,0x49311	  x6=0xc93124cc
       87345000	      8733	800014d4	00146e63	bltu	x8,x1,800014f0	  x8:0x80000000  x1:0x00000302
       87355000	      8734	800014d8	40afd7b3	sra	x15,x31,x10	 x31:0x00000001 x10:0x00000001 x15=0x00000000
       87365000	      8735	800014dc	00000013	addi	x0,x0,0	  x0:0x00000000
       87375000	      8736	800014e0	2ed6b093	sltiu	x1,x13,749	 x13:0x00000001  x1=0x00000001
       87385000	      8737	800014e4	00374bb3	xor	x23,x14,x3	 x14:0x8000942d  x3:0x00000001 x23=0x8000942c
       87395000	      8738	800014e8	00cd24b3	slt	x9,x26,x12	 x26:0x00000000 x12:0x00000312  x9=0x00000001
       87405000	      8739	800014ec	017fd633	srl	x12,x31,x23	 x31:0x00000001 x23:0x8000942c x12=0x00000000
       87415000	      8740	800014f0	40d3d0b3	sra	x1,x7,x13	  x7:0xfffffd53 x13:0x00000001  x1=0xfffffea9
       87425000	      8741	800014f4	02d20663	beq	x4,x13,80001520	  x4:0x80009ba3 x13:0x00000001
       87435000	      8742	800014f8	01d4ebb3	or	x23,x9,x29	  x9:0x00000001 x29:0x00000001 x23=0x00000001
       87445000	      8743	800014fc	084e4913	xori	x18,x28,132	 x28:0x00000000 x18=0x00000084
       87455000	      8744	80001500	05c8d663	bge	x17,x28,8000154c	 x17:0x00000000 x28:0x00000000
       87465000	      8745	00000000	00000013	addi	x0,x0,0	  x0:0x00000000
       87475000	      8746	80001548	00000013	addi	x0,x0,0	  x0:0x00000000
       87485000	      8747	8000154c	013107b3	add	x15,x2,x19	  x2:0x00000000 x19:0x00000000 x15=0x00000000
       87495000	      8748	80001550	00286233	or	x4,x16,x2	 x16:0x00000000  x2:0x00000000  x4=0x00000000
       87505000	      8749	80001554	ffc3ae93	slti	x29,x7,-4	  x7:0xfffffd53 x29=0x00000001
       87515000	      8750	80001558	5e9ca813	slti	x16,x25,1513	 x25:0x00000000 x16=0x00000001
       87525000	      8751	8000155c	cb1b4213	xori	x4,x22,-847	 x22:0x00000000  x4=0xfffffcb1
       87535000	      8752	80001560	39486793	ori	x15,x16,916	 x16:0x00000001 x15=0x00000395
       87545000	      8753	80001564	416d8c33	sub	x24,x27,x22	 x27:0x000000da x22:0x00000000 x24=0x000000da
       87555000	      8754	80001568	401ed4b3	sra	x9,x29,x1	 x29:0x00000001  x1:0xfffffea9  x9=0x00000000
       87565000	      8755	8000156c	01427133	and	x2,x4,x20	  x4:0xfffffcb1 x20:0x00000001  x2=0x00000001
       87575000	      8756	80001570	01771db3	sll	x27,x14,x23	 x14:0x8000942d x23:0x00000001 x27=0x0001285a
       87585000	      8757	80001574	403e0eb3	sub	x29,x28,x3	 x28:0x00000000  x3:0x00000001 x29=0xffffffff
       87595000	      8758	80001578	cd490137	lui	x2,0xcd490	  x2=0xcd490000
       87605000	      8759	8000157c	a6d42c93	slti	x25,x8,-1427	  x8:0x80000000 x25=0x00000001
       87615000	      8760	80001580	00fc7c33	and	x24,x24,x15	 x24:0x000000da x15:0x00000395 x24=0x00000090
       87625000	      8761	80001584	40d8db13	srai	x22,x17,0xd	 x17:0x00000000 x22=0x00000000
       87635000	      8762	80001588	c8906e93	ori	x29,x0,-887	  x0:0x00000000 x29=0xfffffc89
       87645000	      8763	8000158c	00cd9463	bne	x27,x12,80001594	 x27:0x0001285a x12:0x00000000
       87655000	      8764	00000000	00000013	addi	x0,x0,0	  x0:0x00000000
       87665000	      8765	80001590	00000013	addi	x0,x0,0	  x0:0x00000000
       87675000	      8766	80001594	098ad863	bge	x21,x24,80001624	 x21:0x00000001 x24:0x00000090
       87685000	      8767	80001598	03c0016f	jal	x2,80001598	  x2=0x80001598
       87695000	      8768	00000000	00000013	addi	x0,x0,0	  x0:0x00000000
       87705000	      8769	800015d0	00000013	addi	x0,x0,0	  x0:0x00000000
       87715000	      8770	800015d4	fd1ff46f	jal	x8,800015d4	  x8=0x800015d4
       87725000	      8771	00000000	00000013	addi	x0,x0,0	  x0:0x00000000
       87735000	      8772	800015a0	00000013	addi	x0,x0,0	  x0:0x00000000
       87745000	      8773	800015a4	0240036f	jal	x6,800015a4	  x6=0x800015a4
       87755000	      8774	00000000	00000013	addi	x0,x0,0	  x0:0x00000000
       87765000	      8775	800015c4	00000013	addi	x0,x0,0	  x0:0x00000000
       87775000	      8776	800015c8	ff1ff0ef	jal	x1,800015c8	  x1=0x800015c8
       87785000	      8777	00000000	00000013	addi	x0,x0,0	  x0:0x00000000
       87795000	      8778	800015b4	00000013	addi	x0,x0,0	  x0:0x00000000
       87805000	      8779	800015b8	ffdff36f	jal	x6,800015b8	  x6=0x800015b8
       87815000	      8780	00000000	00000013	addi	x0,x0,0	  x0:0x00000000
       87825000	      8781	800015b0	00000013	addi	x0,x0,0	  x0:0x00000000
       87835000	      8782	800015b4	ffdff0ef	jal	x1,800015b4	  x1=0x800015b4
       87845000	      8783	00000000	00000013	addi	x0,x0,0	  x0:0x00000000
       87855000	      8784	800015ac	00000013	addi	x0,x0,0	  x0:0x00000000
       87865000	      8785	800015b0	00c000ef	jal	x1,800015b0	  x1=0x800015b0
       87875000	      8786	00000000	00000013	addi	x0,x0,0	  x0:0x00000000
       87885000	      8787	800015b8	00000013	addi	x0,x0,0	  x0:0x00000000
       87895000	      8788	800015bc	ff1ff0ef	jal	x1,800015bc	  x1=0x800015bc
       87905000	      8789	00000000	00000013	addi	x0,x0,0	  x0:0x00000000
       87915000	      8790	800015a8	00000013	addi	x0,x0,0	  x0:0x00000000
       87925000	      8791	800015ac	0340036f	jal	x6,800015ac	  x6=0x800015ac
       87935000	      8792	00000000	00000013	addi	x0,x0,0	  x0:0x00000000
       87945000	      8793	800015dc	00000013	addi	x0,x0,0	  x0:0x00000000
       87955000	      8794	800015e0	fedff0ef	jal	x1,800015e0	  x1=0x800015e0
       87965000	      8795	00000000	00000013	addi	x0,x0,0	  x0:0x00000000
       87975000	      8796	800015c8	00000013	addi	x0,x0,0	  x0:0x00000000
       87985000	      8797	800015cc	ff5ff0ef	jal	x1,800015cc	  x1=0x800015cc
       87995000	      8798	00000000	00000013	addi	x0,x0,0	  x0:0x00000000
       88005000	      8799	800015bc	00000013	addi	x0,x0,0	  x0:0x00000000
       88015000	      8800	800015c0	004000ef	jal	x1,800015c0	  x1=0x800015c0
       88025000	      8801	00000000	00000013	addi	x0,x0,0	  x0:0x00000000
       88035000	      8802	800015c0	00000013	addi	x0,x0,0	  x0:0x00000000
       88045000	      8803	800015c4	02400def	jal	x27,800015c4	 x27=0x800015c4
       88055000	      8804	00000000	00000013	addi	x0,x0,0	  x0:0x00000000
       88065000	      8805	800015e4	00000013	addi	x0,x0,0	  x0:0x00000000
       88075000	      8806	800015e8	ff5ff0ef	jal	x1,800015e8	  x1=0x800015e8
       88085000	      8807	00000000	00000013	addi	x0,x0,0	  x0:0x00000000
       88095000	      8808	800015d8	00000013	addi	x0,x0,0	  x0:0x00000000
       88105000	      8809	800015dc	ffdff0ef	jal	x1,800015dc	  x1=0x800015dc
       88115000	      8810	00000000	00000013	addi	x0,x0,0	  x0:0x00000000
       88125000	      8811	800015d4	00000013	addi	x0,x0,0	  x0:0x00000000
       88135000	      8812	800015d8	ff9ffeef	jal	x29,800015d8	 x29=0x800015d8
       88145000	      8813	00000000	00000013	addi	x0,x0,0	  x0:0x00000000
       88155000	      8814	800015cc	00000013	addi	x0,x0,0	  x0:0x00000000
       88165000	      8815	800015d0	014000ef	jal	x1,800015d0	  x1=0x800015d0
       88175000	      8816	00000000	00000013	addi	x0,x0,0	  x0:0x00000000
       88185000	      8817	800015e0	00000013	addi	x0,x0,0	  x0:0x00000000
       88195000	      8818	800015e4	fc5ff16f	jal	x2,800015e4	  x2=0x800015e4
       88205000	      8819	00000000	00000013	addi	x0,x0,0	  x0:0x00000000
       88215000	      8820	800015a4	00000013	addi	x0,x0,0	  x0:0x00000000
       88225000	      8821	800015a8	ff9ff0ef	jal	x1,800015a8	  x1=0x800015a8
       88235000	      8822	00000000	00000013	addi	x0,x0,0	  x0:0x00000000
       88245000	      8823	8000159c	00000013	addi	x0,x0,0	  x0:0x00000000
       88255000	      8824	800015a0	ffdff0ef	jal	x1,800015a0	  x1=0x800015a0
       88265000	      8825	00000000	00000013	addi	x0,x0,0	  x0:0x00000000
       88275000	      8826	80001598	00000013	addi	x0,x0,0	  x0:0x00000000
       88285000	      8827	8000159c	050000ef	jal	x1,8000159c	  x1=0x8000159c
       88295000	      8828	00000000	00000013	addi	x0,x0,0	  x0:0x00000000
       88305000	      8829	800015e8	00000013	addi	x0,x0,0	  x0:0x00000000
       88315000	      8830	800015ec	001f9a13	slli	x20,x31,0x1	 x31:0x00000001 x20=0x00000002
       88325000	      8831	800015f0	020adc63	bge	x21,x0,80001628	 x21:0x00000001  x0:0x00000000
       88335000	      8832	00000000	00000013	addi	x0,x0,0	  x0:0x00000000
       88345000	      8833	80001624	00000013	addi	x0,x0,0	  x0:0x00000000
       88355000	      8834	80001628	b94abe93	sltiu	x29,x21,-1132	 x21:0x00000001 x29=0x00000001
       88365000	      8835	8000162c	01755533	srl	x10,x10,x23	 x10:0x00000001 x23:0x00000001 x10=0x00000000
       88375000	      8836	80001630	002ed133	srl	x2,x29,x2	 x29:0x00000001  x2:0x800015e4  x2=0x00000000
       88385000	      8837	80001634	aefd2613	slti	x12,x26,-1297	 x26:0x00000000 x12=0x00000000
       88395000	      8838	80001638	40f98eb3	sub	x29,x19,x15	 x19:0x00000000 x15:0x00000395 x29=0xfffffc6b
       88405000	      8839	8000163c	03869a63	bne	x13,x24,80001670	 x13:0x00000001 x24:0x00000090
       88415000	      8840	00000000	00000013	addi	x0,x0,0	  x0:0x00000000
       88425000	      8841	8000166c	00000013	addi	x0,x0,0	  x0:0x00000000
       88435000	      8842	80001670	018340b3	xor	x1,x6,x24	  x6:0x800015ac x24:0x00000090  x1=0x8000153c
       88445000	      8843	80001674	007b9c33	sll	x24,x23,x7	 x23:0x00000001  x7:0xfffffd53 x24=0x00080000
       88455000	      8844	80001678	40860fb3	sub	x31,x12,x8	 x12:0x00000000  x8:0x800015d4 x31=0x7fffea2c
       88465000	      8845	8000167c	40360533	sub	x10,x12,x3	 x12:0x00000000  x3:0x00000001 x10=0xffffffff
       88475000	      8846	80001680	32afb413	sltiu	x8,x31,810	 x31:0x7fffea2c  x8=0x00000000
       88485000	      8847	80001684	01f64033	xor	x0,x12,x31	 x12:0x00000000 x31:0x7fffea2c
       88495000	      8848	80001688	00b66ab3	or	x21,x12,x11	 x12:0x00000000 x11:0x80009f84 x21=0x80009f84
       88505000	      8849	8000168c	49b94f13	xori	x30,x18,1179	 x18:0x00000084 x30=0x0000041f
       88515000	      8850	80001690	02adc063	blt	x27,x10,800016b0	 x27:0x800015c4 x10:0xffffffff
       88525000	      8851	00000000	00000013	addi	x0,x0,0	  x0:0x00000000
       88535000	      8852	800016ac	00000013	addi	x0,x0,0	  x0:0x00000000
       88545000	      8853	800016b0	00d0dc33	srl	x24,x1,x13	  x1:0x8000153c x13:0x00000001 x24=0x40000a9e
       88555000	      8854	800016b4	5f867f17	auipc	x30,0x5f867	 x30=0xdf8686b0
       88565000	      8855	800016b8	04ba0063	beq	x20,x11,800016f8	 x20:0x00000002 x11:0x80009f84
       88575000	      8856	800016bc	02797213	andi	x4,x18,39	 x18:0x00000084  x4=0x00000004
       88585000	      8857	800016c0	b9b7ec97	auipc	x25,0xb9b7e	 x25=0x39b7f6bc
       88595000	      8858	800016c4	40d9d413	srai	x8,x19,0xd	 x19:0x00000000  x8=0x00000000
       88605000	      8859	800016c8	01e19a93	slli	x21,x3,0x1e	  x3:0x00000001 x21=0x40000000
       88615000	      8860	800016cc	01836133	or	x2,x6,x24	  x6:0x800015ac x24:0x40000a9e  x2=0xc0001fbe
       88625000	      8861	800016d0	4126d333	sra	x6,x13,x18	 x13:0x00000001 x18:0x00000084  x6=0x00000000
       88635000	      8862	800016d4	ceafd517	auipc	x10,0xceafd	 x10=0x4eafe6d0
       88645000	      8863	800016d8	d32cc893	xori	x17,x25,-718	 x25:0x39b7f6bc x17=0xc6480b8e
       88655000	      8864	800016dc	41efd533	sra	x10,x31,x30	 x31:0x7fffea2c x30:0xdf8686b0 x10=0x00007fff
       88665000	      8865	800016e0	9ea46713	ori	x14,x8,-1558	  x8:0x00000000 x14=0xfffff9ea
       88675000	      8866	800016e4	00245c13	srli	x24,x8,0x2	  x8:0x00000000 x24=0x00000000
       88685000	      8867	800016e8	01afdeb3	srl	x29,x31,x26	 x31:0x7fffea2c x26:0x00000000 x29=0x7fffea2c
       88695000	      8868	800016ec	05a30663	beq	x6,x26,80001738	  x6:0x00000000 x26:0x00000000
       88705000	      8869	00000000	00000013	addi	x0,x0,0	  x0:0x00000000
       88715000	      8870	80001734	00000013	addi	x0,x0,0	  x0:0x00000000
       88725000	      8871	80001738	ec05be93	sltiu	x29,x11,-320	 x11:0x80009f84 x29=0x00000001
       88735000	      8872	8000173c	020f5063	bge	x30,x0,8000175c	 x30:0xdf8686b0  x0:0x00000000
       88745000	      8873	80001740	01e94633	xor	x12,x18,x30	 x18:0x00000084 x30:0xdf8686b0 x12=0xdf868634
       88755000	      8874	80001744	00e21733	sll	x14,x4,x14	  x4:0x00000004 x14:0xfffff9ea x14=0x00001000
       88765000	      8875	80001748	01bcfa33	and	x20,x25,x27	 x25:0x39b7f6bc x27:0x800015c4 x20=0x00001484
       88775000	      8876	8000174c	00000013	addi	x0,x0,0	  x0:0x00000000
       88785000	      8877	80001750	0113f833	and	x16,x7,x17	  x7:0xfffffd53 x17:0xc6480b8e x16=0xc6480902
       88795000	      8878	80001754	25050d13	addi	x26,x10,592	 x10:0x00007fff x26=0x0000824f
       88805000	      8879	80001758	41d75c93	srai	x25,x14,0x1d	 x14:0x00001000 x25=0x00000000
       88815000	      8880	8000175c	01bc8a63	beq	x25,x27,80001770	 x25:0x00000000 x27:0x800015c4
       88825000	      8881	80001760	95123093	sltiu	x1,x4,-1711	  x4:0x00000004  x1=0x00000001
       88835000	      8882	80001764	01268033	add	x0,x13,x18	 x13:0x00000001 x18:0x00000084
       88845000	      8883	80001768	40a55113	srai	x2,x10,0xa	 x10:0x00007fff  x2=0x0000001f
       88855000	      8884	8000176c	002d4133	xor	x2,x26,x2	 x26:0x0000824f  x2:0x0000001f  x2=0x00008250
       88865000	      8885	80001770	4121d9b3	sra	x19,x3,x18	  x3:0x00000001 x18:0x00000084 x19=0x00000000
       88875000	      8886	80001774	003899b3	sll	x19,x17,x3	 x17:0xc6480b8e  x3:0x00000001 x19=0x8c90171c
       88885000	      8887	80001778	02685a63	bge	x16,x6,800017ac	 x16:0xc6480902  x6:0x00000000
       88895000	      8888	8000177c	5408c113	xori	x2,x17,1344	 x17:0xc6480b8e  x2=0xc6480ece
       88905000	      8889	80001780	aa17ed37	lui	x26,0xaa17e	 x26=0xaa17e000
       88915000	      8890	80001784	01f6dc13	srli	x24,x13,0x1f	 x13:0x00000001 x24=0x00000000
       88925000	      8891	80001788	00276433	or	x8,x14,x2	 x14:0x00001000  x2:0xc6480ece  x8=0xc6481ece
       88935000	      8892	8000178c	00000013	addi	x0,x0,0	  x0:0x00000000
       88945000	      8893	80001790	eb912a93	slti	x21,x2,-327	  x2:0xc6480ece x21=0x00000001
       88955000	      8894	80001794	f4472693	slti	x13,x14,-188	 x14:0x00001000 x13=0x00000000
       88965000	      8895	80001798	01cba633	slt	x12,x23,x28	 x23:0x00000001 x28:0x00000000 x12=0x00000000
       88975000	      8896	8000179c	00000013	addi	x0,x0,0	  x0:0x00000000
       88985000	      8897	800017a0	00000013	addi	x0,x0,0	  x0:0x00000000
       88995000	      8898	800017a4	05294663	blt	x18,x18,800017f0	 x18:0x00000084 x18:0x00000084
       89005000	      8899	800017a8	02ec8c63	beq	x25,x14,800017e0	 x25:0x00000000 x14:0x00001000
       89015000	      8900	800017ac	e2ce6d13	ori	x26,x28,-468	 x28:0x00000000 x26=0xfffffe2c
       89025000	      8901	800017b0	04df1463	bne	x30,x13,800017f8	 x30:0xdf8686b0 x13:0x00000000
       89035000	      8902	00000000	00000013	addi	x0,x0,0	  x0:0x00000000
       89045000	      8903	800017f4	00000013	addi	x0,x0,0	  x0:0x00000000
       89055000	      8904	800017f8	016c7863	bgeu	x24,x22,80001808	 x24:0x00000000 x22:0x00000000
       89065000	      8905	00000000	00000013	addi	x0,x0,0	  x0:0x00000000
       89075000	      8906	80001804	00000013	addi	x0,x0,0	  x0:0x00000000
       89085000	      8907	80001808	00000013	addi	x0,x0,0	  x0:0x00000000
       89095000	      8908	8000180c	00d51613	slli	x12,x10,0xd	 x10:0x00007fff x12=0x0fffe000
       89105000	      8909	80001810	0081f233	and	x4,x3,x8	  x3:0x00000001  x8:0xc6481ece  x4=0x00000000
       89115000	      8910	80001814	039a7063	bgeu	x20,x25,80001834	 x20:0x00001484 x25:0x00000000
       89125000	      8911	00000000	00000013	addi	x0,x0,0	  x0:0x00000000
       89135000	      8912	80001830	00000013	addi	x0,x0,0	  x0:0x00000000
       89145000	      8913	80001834	00855093	srli	x1,x10,0x8	 x10:0x00007fff  x1=0x0000007f
       89155000	      8914	80001838	00000013	addi	x0,x0,0	  x0:0x00000000
       89165000	      8915	8000183c	00811413	slli	x8,x2,0x8	  x2:0xc6480ece  x8=0x480ece00
       89175000	      8916	80001840	412b0d33	sub	x26,x22,x18	 x22:0x00000000 x18:0x00000084 x26=0xffffff7c
       89185000	      8917	80001844	018c3d33	sltu	x26,x24,x24	 x24:0x00000000 x24:0x00000000 x26=0x00000000
       89195000	      8918	80001848	000c7a33	and	x20,x24,x0	 x24:0x00000000  x0:0x00000000 x20=0x00000000
       89205000	      8919	8000184c	00180533	add	x10,x16,x1	 x16:0xc6480902  x1:0x0000007f x10=0xc6480981
       89215000	      8920	80001850	04f20063	beq	x4,x15,80001890	  x4:0x00000000 x15:0x00000395
       89225000	      8921	80001854	00000013	addi	x0,x0,0	  x0:0x00000000
       89235000	      8922	80001858	000c3433	sltu	x8,x24,x0	 x24:0x00000000  x0:0x00000000  x8=0x00000000
       89245000	      8923	8000185c	019cb833	sltu	x16,x25,x25	 x25:0x00000000 x25:0x00000000 x16=0x00000000
       89255000	      8924	80001860	033b1063	bne	x22,x19,80001880	 x22:0x00000000 x19:0x8c90171c
       89265000	      8925	00000000	00000013	addi	x0,x0,0	  x0:0x00000000
       89275000	      8926	8000187c	00000013	addi	x0,x0,0	  x0:0x00000000
       89285000	      8927	80001880	cb784c13	xori	x24,x16,-841	 x16:0x00000000 x24=0xfffffcb7
       89295000	      8928	80001884	001bac33	slt	x24,x23,x1	 x23:0x00000001  x1:0x0000007f x24=0x00000001
       89305000	      8929	80001888	605ca217	auipc	x4,0x605ca	  x4=0xe05cb884
       89315000	      8930	8000188c	002a1fb3	sll	x31,x20,x2	 x20:0x00000000  x2:0xc6480ece x31=0x00000000
       89325000	      8931	80001890	020d6663	bltu	x26,x0,800018bc	 x26:0x00000000  x0:0x00000000
       89335000	      8932	80001894	01ba18b3	sll	x17,x20,x27	 x20:0x00000000 x27:0x800015c4 x17=0x00000000
       89345000	      8933	80001898	20c92f13	slti	x30,x18,524	 x18:0x00000084 x30=0x00000001
       89355000	      8934	8000189c	01f829b3	slt	x19,x16,x31	 x16:0x00000000 x31:0x00000000 x19=0x00000000
       89365000	      8935	800018a0	a5042a37	lui	x20,0xa5042	 x20=0xa5042000
       89375000	      8936	800018a4	016a1333	sll	x6,x20,x22	 x20:0xa5042000 x22:0x00000000  x6=0xa5042000
       89385000	      8937	800018a8	012aa4b3	slt	x9,x21,x18	 x21:0x00000001 x18:0x00000084  x9=0x00000001
       89395000	      8938	800018ac	022d7663	bgeu	x26,x2,800018d8	 x26:0x00000000  x2:0xc6480ece
       89405000	      8939	800018b0	00edecb3	or	x25,x27,x14	 x27:0x800015c4 x14:0x00001000 x25=0x800015c4
       89415000	      8940	800018b4	0114c133	xor	x2,x9,x17	  x9:0x00000001 x17:0x00000000  x2=0x00000001
       89425000	      8941	800018b8	03c9dc63	bge	x19,x28,800018f0	 x19:0x00000000 x28:0x00000000
       89435000	      8942	00000000	00000013	addi	x0,x0,0	  x0:0x00000000
       89445000	      8943	800018ec	00000013	addi	x0,x0,0	  x0:0x00000000
       89455000	      8944	800018f0	00e25513	srli	x10,x4,0xe	  x4:0xe05cb884 x10=0x00038172
       89465000	      8945	800018f4	03854463	blt	x10,x24,8000191c	 x10:0x00038172 x24:0x00000001
       89475000	      8946	800018f8	b32c6493	ori	x9,x24,-1230	 x24:0x00000001  x9=0xfffffb33
       89485000	      8947	800018fc	0c948463	beq	x9,x9,800019c4	  x9:0xfffffb33  x9:0xfffffb33
       89495000	      8948	00000000	00000013	addi	x0,x0,0	  x0:0x00000000
       89505000	      8949	800019c0	00000013	addi	x0,x0,0	  x0:0x00000000
       89515000	      8950	800019c4	002c91b3	sll	x3,x25,x2	 x25:0x800015c4  x2:0x00000001  x3=0x00002b88
       89525000	      8951	800019c8	0106b3b3	sltu	x7,x13,x16	 x13:0x00000000 x16:0x00000000  x7=0x00000000
       89535000	      8952	800019cc	00193eb3	sltu	x29,x18,x1	 x18:0x00000084  x1:0x0000007f x29=0x00000000
       89545000	      8953	800019d0	00000013	addi	x0,x0,0	  x0:0x00000000
       89555000	      8954	800019d4	01d82633	slt	x12,x16,x29	 x16:0x00000000 x29:0x00000000 x12=0x00000000
       89565000	      8955	800019d8	008f5a33	srl	x20,x30,x8	 x30:0x00000001  x8:0x00000000 x20=0x00000001
       89575000	      8956	800019dc	034e8663	beq	x29,x20,80001a08	 x29:0x00000000 x20:0x00000001
       89585000	      8957	800019e0	006f1463	bne	x30,x6,800019e8	 x30:0x00000001  x6:0xa5042000
       89595000	      8958	00000000	00000013	addi	x0,x0,0	  x0:0x00000000
       89605000	      8959	800019e4	00000013	addi	x0,x0,0	  x0:0x00000000
       89615000	      8960	800019e8	0546c863	blt	x13,x20,80001a38	 x13:0x00000000 x20:0x00000001
       89625000	      8961	00000000	00000013	addi	x0,x0,0	  x0:0x00000000
       89635000	      8962	80001a34	00000013	addi	x0,x0,0	  x0:0x00000000
       89645000	      8963	80001a38	f71cd417	auipc	x8,0xf71cd	  x8=0x771cea34
       89655000	      8964	80001a3c	00d6fe63	bgeu	x13,x13,80001a58	 x13:0x00000000 x13:0x00000000
       89665000	      8965	00000000	00000013	addi	x0,x0,0	  x0:0x00000000
       89675000	      8966	80001a54	00000013	addi	x0,x0,0	  x0:0x00000000
       89685000	      8967	80001a58	05661463	bne	x12,x22,80001aa0	 x12:0x00000000 x22:0x00000000
       89695000	      8968	80001a5c	0169cdb3	xor	x27,x19,x22	 x19:0x00000000 x22:0x00000000 x27=0x00000000
       89705000	      8969	80001a60	f2aa6417	auipc	x8,0xf2aa6	  x8=0x72aa7a5c
       89715000	      8970	80001a64	01647133	and	x2,x8,x22	  x8:0x72aa7a5c x22:0x00000000  x2=0x00000000
       89725000	      8971	80001a68	41bb5ab3	sra	x21,x22,x27	 x22:0x00000000 x27:0x00000000 x21=0x00000000
       89735000	      8972	80001a6c	30d8a897	auipc	x17,0x30d8a	 x17=0xb0d8ba68
       89745000	      8973	80001a70	011f2133	slt	x2,x30,x17	 x30:0x00000001 x17:0xb0d8ba68  x2=0x00000000
       89755000	      8974	80001a74	014f1b33	sll	x22,x30,x20	 x30:0x00000001 x20:0x00000001 x22=0x00000002
       89765000	      8975	80001a78	00000013	addi	x0,x0,0	  x0:0x00000000
       89775000	      8976	80001a7c	014d7233	and	x4,x26,x20	 x26:0x00000000 x20:0x00000001  x4=0x00000000
       89785000	      8977	80001a80	00000013	addi	x0,x0,0	  x0:0x00000000
       89795000	      8978	80001a84	006f4fb3	xor	x31,x30,x6	 x30:0x00000001  x6:0xa5042000 x31=0xa5042001
       89805000	      8979	80001a88	01e6d533	srl	x10,x13,x30	 x13:0x00000000 x30:0x00000001 x10=0x00000000
       89815000	      8980	80001a8c	008970b3	and	x1,x18,x8	 x18:0x00000084  x8:0x72aa7a5c  x1=0x00000004
       89825000	      8981	80001a90	00000013	addi	x0,x0,0	  x0:0x00000000
       89835000	      8982	80001a94	01b46133	or	x2,x8,x27	  x8:0x72aa7a5c x27:0x00000000  x2=0x72aa7a5c
       89845000	      8983	80001a98	05f96663	bltu	x18,x31,80001ae4	 x18:0x00000084 x31:0xa5042001
       89855000	      8984	00000000	00000013	addi	x0,x0,0	  x0:0x00000000
       89865000	      8985	80001ae0	00000013	addi	x0,x0,0	  x0:0x00000000
       89875000	      8986	80001ae4	bd3b6a13	ori	x20,x22,-1069	 x22:0x00000002 x20=0xfffffbd3
       89885000	      8987	80001ae8	4d458013	addi	x0,x11,1236	 x11:0x80009f84
       89895000	      8988	80001aec	010f9833	sll	x16,x31,x16	 x31:0xa5042001 x16:0x00000000 x16=0xa5042001
       89905000	      8989	80001af0	013ab433	sltu	x8,x21,x19	 x21:0x00000000 x19:0x00000000  x8=0x00000000
       89915000	      8990	80001af4	40d75233	sra	x4,x14,x13	 x14:0x00001000 x13:0x00000000  x4=0x00001000
       89925000	      8991	80001af8	40265233	sra	x4,x12,x2	 x12:0x00000000  x2:0x72aa7a5c  x4=0x00000000
       89935000	      8992	80001afc	02574c63	blt	x14,x5,80001b34	 x14:0x00001000  x5:0x80009fc4
       89945000	      8993	80001b00	00695133	srl	x2,x18,x6	 x18:0x00000084  x6:0xa5042000  x2=0x00000084
       89955000	      8994	80001b04	03f47063	bgeu	x8,x31,80001b24	  x8:0x00000000 x31:0xa5042001
       89965000	      8995	80001b08	0113e4b3	or	x9,x7,x17	  x7:0x00000000 x17:0xb0d8ba68  x9=0xb0d8ba68
       89975000	      8996	80001b0c	ec600b13	addi	x22,x0,-314	  x0:0x00000000 x22=0xfffffec6
       89985000	      8997	80001b10	00afdc13	srli	x24,x31,0xa	 x31:0xa5042001 x24=0x00294108
       89995000	      8998	80001b14	01717db3	and	x27,x2,x23	  x2:0x00000084 x23:0x00000001 x27=0x00000000
       90005000	      8999	80001b18	037d6063	bltu	x26,x23,80001b38	 x26:0x00000000 x23:0x00000001
       90015000	      9000	00000000	00000013	addi	x0,x0,0	  x0:0x00000000
       90025000	      9001	80001b34	00000013	addi	x0,x0,0	  x0:0x00000000
       90035000	      9002	80001b38	4121d993	srai	x19,x3,0x12	  x3:0x00002b88 x19=0x00000000
       90045000	      9003	80001b3c	03081c63	bne	x16,x16,80001b74	 x16:0xa5042001 x16:0xa5042001
       90055000	      9004	80001b40	004b5413	srli	x8,x22,0x4	 x22:0xfffffec6  x8=0x0fffffec
       90065000	      9005	80001b44	00d80f33	add	x30,x16,x13	 x16:0xa5042001 x13:0x00000000 x30=0xa5042001
       90075000	      9006	80001b48	4146df93	srai	x31,x13,0x14	 x13:0x00000000 x31=0x00000000
       90085000	      9007	80001b4c	001b5663	bge	x22,x1,80001b58	 x22:0xfffffec6  x1:0x00000004
       90095000	      9008	80001b50	f4c73393	sltiu	x7,x14,-180	 x14:0x00001000  x7=0x00000001
       90105000	      9009	80001b54	03ee9263	bne	x29,x30,80001b78	 x29:0x00000000 x30:0xa5042001
       90115000	      9010	00000000	00000013	addi	x0,x0,0	  x0:0x00000000
       90125000	      9011	80001b74	00000013	addi	x0,x0,0	  x0:0x00000000
       90135000	      9012	80001b78	c7a00a13	addi	x20,x0,-902	  x0:0x00000000 x20=0xfffffc7a
       90145000	      9013	80001b7c	2a5b3d93	sltiu	x27,x22,677	 x22:0xfffffec6 x27=0x00000000
       90155000	      9014	80001b80	00b76233	or	x4,x14,x11	 x14:0x00001000 x11:0x80009f84  x4=0x80009f84
       90165000	      9015	80001b84	09f1ab13	slti	x22,x3,159	  x3:0x00002b88 x22=0x00000000
       90175000	      9016	80001b88	01b398b3	sll	x17,x7,x27	  x7:0x00000001 x27:0x00000000 x17=0x00000001
       90185000	      9017	80001b8c	008f2a33	slt	x20,x30,x8	 x30:0xa5042001  x8:0x0fffffec x20=0x00000001
       90195000	      9018	80001b90	be952393	slti	x7,x10,-1047	 x10:0x00000000  x7=0x00000000
       90205000	      9019	80001b94	005d3eb3	sltu	x29,x26,x5	 x26:0x00000000  x5:0x80009fc4 x29=0x00000001
       90215000	      9020	80001b98	01089193	slli	x3,x17,0x10	 x17:0x00000001  x3=0x00010000
       90225000	      9021	80001b9c	523bf313	andi	x6,x23,1315	 x23:0x00000001  x6=0x00000001
       90235000	      9022	80001ba0	52e80713	addi	x14,x16,1326	 x16:0xa5042001 x14=0xa504252f
       90245000	      9023	80001ba4	007a1b13	slli	x22,x20,0x7	 x20:0x00000001 x22=0x00000080
       90255000	      9024	80001ba8	02335a63	bge	x6,x3,80001bdc	  x6:0x00000001  x3:0x00010000
       90265000	      9025	80001bac	01109e93	slli	x29,x1,0x11	  x1:0x00000004 x29=0x00080000
       90275000	      9026	80001bb0	b3fcfb93	andi	x23,x25,-1217	 x25:0x800015c4 x23=0x80001104
       90285000	      9027	80001bb4	01e85d13	srli	x26,x16,0x1e	 x16:0xa5042001 x26=0x00000002
       90295000	      9028	80001bb8	01bf5833	srl	x16,x30,x27	 x30:0xa5042001 x27:0x00000000 x16=0xa5042001
       90305000	      9029	80001bbc	0108adb3	slt	x27,x17,x16	 x17:0x00000001 x16:0xa5042001 x27=0x00000000
       90315000	      9030	80001bc0	023fe063	bltu	x31,x3,80001be0	 x31:0x00000000  x3:0x00010000
       90325000	      9031	00000000	00000013	addi	x0,x0,0	  x0:0x00000000
       90335000	      9032	80001bdc	00000013	addi	x0,x0,0	  x0:0x00000000
       90345000	      9033	80001be0	2904b013	sltiu	x0,x9,656	  x9:0xb0d8ba68
       90355000	      9034	80001be4	005b7a33	and	x20,x22,x5	 x22:0x00000080  x5:0x80009fc4 x20=0x00000080
       90365000	      9035	80001be8	20290b93	addi	x23,x18,514	 x18:0x00000084 x23=0x00000286
       90375000	      9036	80001bec	003e9613	slli	x12,x29,0x3	 x29:0x00080000 x12=0x00400000
       90385000	      9037	80001bf0	5208e693	ori	x13,x17,1312	 x17:0x00000001 x13=0x00000521
       90395000	      9038	80001bf4	00b7de93	srli	x29,x15,0xb	 x15:0x00000395 x29=0x00000000
       90405000	      9039	80001bf8	00b111b3	sll	x3,x2,x11	  x2:0x00000084 x11:0x80009f84  x3=0x00000840
       90415000	      9040	80001bfc	48408a93	addi	x21,x1,1156	  x1:0x00000004 x21=0x00000488
       90425000	      9041	80001c00	41dc5bb3	sra	x23,x24,x29	 x24:0x00294108 x29:0x00000000 x23=0x00294108
       90435000	      9042	80001c04	0200016f	jal	x2,80001c04	  x2=0x80001c04
       90445000	      9043	00000000	00000013	addi	x0,x0,0	  x0:0x00000000
       90455000	      9044	80001c20	00000013	addi	x0,x0,0	  x0:0x00000000
       90465000	      9045	80001c24	0080036f	jal	x6,80001c24	  x6=0x80001c24
       90475000	      9046	00000000	00000013	addi	x0,x0,0	  x0:0x00000000
       90485000	      9047	80001c28	00000013	addi	x0,x0,0	  x0:0x00000000
       90495000	      9048	80001c2c	ffdff0ef	jal	x1,80001c2c	  x1=0x80001c2c
       90505000	      9049	00000000	00000013	addi	x0,x0,0	  x0:0x00000000
       90515000	      9050	80001c24	00000013	addi	x0,x0,0	  x0:0x00000000
       90525000	      9051	80001c28	ff9ff7ef	jal	x15,80001c28	 x15=0x80001c28
       90535000	      9052	00000000	00000013	addi	x0,x0,0	  x0:0x00000000
       90545000	      9053	80001c1c	00000013	addi	x0,x0,0	  x0:0x00000000
       90555000	      9054	80001c20	ff9ff0ef	jal	x1,80001c20	  x1=0x80001c20
       90565000	      9055	00000000	00000013	addi	x0,x0,0	  x0:0x00000000
       90575000	      9056	80001c14	00000013	addi	x0,x0,0	  x0:0x00000000
       90585000	      9057	80001c18	ffdff0ef	jal	x1,80001c18	  x1=0x80001c18
       90595000	      9058	00000000	00000013	addi	x0,x0,0	  x0:0x00000000
       90605000	      9059	80001c10	00000013	addi	x0,x0,0	  x0:0x00000000
       90615000	      9060	80001c14	01c000ef	jal	x1,80001c14	  x1=0x80001c14
       90625000	      9061	00000000	00000013	addi	x0,x0,0	  x0:0x00000000
       90635000	      9062	80001c2c	00000013	addi	x0,x0,0	  x0:0x00000000
       90645000	      9063	80001c30	fe1ff0ef	jal	x1,80001c30	  x1=0x80001c30
       90655000	      9064	00000000	00000013	addi	x0,x0,0	  x0:0x00000000
       90665000	      9065	80001c0c	00000013	addi	x0,x0,0	  x0:0x00000000
       90675000	      9066	80001c10	00c0036f	jal	x6,80001c10	  x6=0x80001c10
       90685000	      9067	00000000	00000013	addi	x0,x0,0	  x0:0x00000000
       90695000	      9068	80001c18	00000013	addi	x0,x0,0	  x0:0x00000000
       90705000	      9069	80001c1c	fedff0ef	jal	x1,80001c1c	  x1=0x80001c1c
       90715000	      9070	00000000	00000013	addi	x0,x0,0	  x0:0x00000000
       90725000	      9071	80001c04	00000013	addi	x0,x0,0	  x0:0x00000000
       90735000	      9072	80001c08	0040036f	jal	x6,80001c08	  x6=0x80001c08
       90745000	      9073	00000000	00000013	addi	x0,x0,0	  x0:0x00000000
       90755000	      9074	80001c08	00000013	addi	x0,x0,0	  x0:0x00000000
       90765000	      9075	80001c0c	028000ef	jal	x1,80001c0c	  x1=0x80001c0c
       90775000	      9076	00000000	00000013	addi	x0,x0,0	  x0:0x00000000
       90785000	      9077	80001c30	00000013	addi	x0,x0,0	  x0:0x00000000
       90795000	      9078	80001c34	01bd9513	slli	x10,x27,0x1b	 x27:0x00000000 x10=0x00000000
       90805000	      9079	80001c38	00031193	slli	x3,x6,0x0	  x6:0x80001c08  x3=0x80001c08
       90815000	      9080	80001c3c	00926433	or	x8,x4,x9	  x4:0x80009f84  x9:0xb0d8ba68  x8=0xb0d8bfec
       90825000	      9081	80001c40	2ebe3d13	sltiu	x26,x28,747	 x28:0x00000000 x26=0x00000001
       90835000	      9082	80001c44	04e0c063	blt	x1,x14,80001c84	  x1:0x80001c0c x14:0xa504252f
       90845000	      9083	00000000	00000013	addi	x0,x0,0	  x0:0x00000000
       90855000	      9084	80001c80	00000013	addi	x0,x0,0	  x0:0x00000000
       90865000	      9085	80001c84	01022b33	slt	x22,x4,x16	  x4:0x80009f84 x16:0xa5042001 x22=0x00000001
       90875000	      9086	80001c88	f8c970b7	lui	x1,0xf8c97	  x1=0xf8c97000
       90885000	      9087	80001c8c	271f3813	sltiu	x16,x30,625	 x30:0xa5042001 x16=0x00000000
       90895000	      9088	80001c90	01d21c63	bne	x4,x29,80001ca8	  x4:0x80009f84 x29:0x00000000
       90905000	      9089	00000000	00000013	addi	x0,x0,0	  x0:0x00000000
       90915000	      9090	80001ca4	00000013	addi	x0,x0,0	  x0:0x00000000
       90925000	      9091	80001ca8	00946133	or	x2,x8,x9	  x8:0xb0d8bfec  x9:0xb0d8ba68  x2=0xb0d8bfec
       90935000	      9092	80001cac	67342393	slti	x7,x8,1651	  x8:0xb0d8bfec  x7=0x00000001
       90945000	      9093	80001cb0	018753b3	srl	x7,x14,x24	 x14:0xa504252f x24:0x00294108  x7=0x00a50425
       90955000	      9094	80001cb4	018c2133	slt	x2,x24,x24	 x24:0x00294108 x24:0x00294108  x2=0x00000000
       90965000	      9095	80001cb8	38cf8a13	addi	x20,x31,908	 x31:0x00000000 x20=0x0000038c
       90975000	      9096	80001cbc	00b067b3	or	x15,x0,x11	  x0:0x00000000 x11:0x80009f84 x15=0x80009f84
       90985000	      9097	80001cc0	cd4df193	andi	x3,x27,-812	 x27:0x00000000  x3=0x00000000
       90995000	      9098	80001cc4	009b7533	and	x10,x22,x9	 x22:0x00000001  x9:0xb0d8ba68 x10=0x00000000
       91005000	      9099	80001cc8	01b03333	sltu	x6,x0,x27	  x0:0x00000000 x27:0x00000000  x6=0x00000000
       91015000	      9100	80001ccc	038e1063	bne	x28,x24,80001cec	 x28:0x00000000 x24:0x00294108
       91025000	      9101	00000000	00000013	addi	x0,x0,0	  x0:0x00000000
       91035000	      9102	80001ce8	00000013	addi	x0,x0,0	  x0:0x00000000
       91045000	      9103	80001cec	03a3de63	bge	x7,x26,80001d28	  x7:0x00a50425 x26:0x00000001
       91055000	      9104	00000000	00000013	addi	x0,x0,0	  x0:0x00000000
       91065000	      9105	80001d24	00000013	addi	x0,x0,0	  x0:0x00000000
       91075000	      9106	80001d28	01ffd033	srl	x0,x31,x31	 x31:0x00000000 x31:0x00000000
       91085000	      9107	80001d2c	00000e17	auipc	x28,0x0	 x28=0x80001d28
       91095000	      9108	80001d30	00ce0e13	addi	x28,x28,12	 x28:0x80001d28 x28=0x80001d34
       91105000	      9109	80001d34	000e0067	jalr	x0,x28,0	 x28:0x80001d34
       91115000	      9110	00000000	00000013	addi	x0,x0,0	  x0:0x00000000
       91125000	      9111	80001d34	00000013	addi	x0,x0,0	  x0:0x00000000
       91135000	      9112	80001d38	00100193	addi	x3,x0,1	  x0:0x00000000  x3=0x00000001
       91145000	      9113	80001d3c	00000073	ecall	
       91155000	      9114	80001d40	21786f17	auipc	x30,0x21786	 x30=0xa1787d3c
