		Time			Cycle	PC		Insn	Decoded instruction	Register and memory contents
          65000	         5	80000004	00000293	addi	x5,x0,0	  x0:0x00000000  x5=0x00000000
          75000	         6	80000008	00000313	addi	x6,x0,0	  x0:0x00000000  x6=0x00000000
          85000	         7	8000000c	00628263	beq	x5,x6,80000010	  x5:0x00000000  x6:0x00000000
          95000	         8	00000000	00000013	addi	x0,x0,0	  x0:0x00000000
         105000	         9	8000000c	00000013	addi	x0,x0,0	  x0:0x00000000
         115000	        10	80000010	00000f97	auipc	x31,0x0	 x31=0x8000000c
         125000	        11	80000014	00cf8f93	addi	x31,x31,12	 x31:0x8000000c x31=0x80000018
         135000	        12	80000018	000f8067	jalr	x0,x31,0	 x31:0x80000018
         145000	        13	00000000	00000013	addi	x0,x0,0	  x0:0x00000000
         155000	        14	80000018	00000013	addi	x0,x0,0	  x0:0x00000000
         165000	        15	8000001c	40000eb7	lui	x29,0x40000	 x29=0x40000000
         175000	        16	80000020	100e8e93	addi	x29,x29,256	 x29:0x40000000 x29=0x40000100
         185000	        17	80000024	00000013	addi	x0,x0,0	  x0:0x00000000
         195000	        18	80000028	0000ac97	auipc	x25,0xa	 x25=0x8000a024
         205000	        19	8000002c	fa0c8c93	addi	x25,x25,-96	 x25:0x8000a024 x25=0x80009fc4
         215000	        20	80000030	00004e97	auipc	x29,0x4	 x29=0x8000402c
         225000	        21	80000034	5a4e8e93	addi	x29,x29,1444	 x29:0x8000402c x29=0x800045d0
         235000	        22	80000038	000eee93	ori	x29,x29,0	 x29:0x800045d0 x29=0x800045d0
         245000	        23	8000003c	00000013	addi	x0,x0,0	  x0:0x00000000
         255000	        24	80000040	00000e97	auipc	x29,0x0	 x29=0x8000003c
         265000	        25	80000044	020e8e93	addi	x29,x29,32	 x29:0x8000003c x29=0x8000005c
         275000	        26	80000048	00000013	addi	x0,x0,0	  x0:0x00000000
         285000	        27	8000004c	00000013	addi	x0,x0,0	  x0:0x00000000
         295000	        28	80000050	00002eb7	lui	x29,0x2	 x29=0x00002000
         305000	        29	80000054	800e8e93	addi	x29,x29,-2048	 x29:0x00002000 x29=0x00001800
         315000	        30	80000058	00000013	addi	x0,x0,0	  x0:0x00000000
         325000	        31	8000005c	00000013	addi	x0,x0,0	  x0:0x00000000
         335000	        32	80000060	80000037	lui	x0,0x80000	
         345000	        33	80000064	00000013	addi	x0,x0,0	  x0:0x00000000
         355000	        34	80000068	ff6820b7	lui	x1,0xff682	  x1=0xff682000
         365000	        35	8000006c	fa808093	addi	x1,x1,-88	  x1:0xff682000  x1=0xff681fa8
         375000	        36	80000070	14942137	lui	x2,0x14942	  x2=0x14942000
         385000	        37	80000074	b7810113	addi	x2,x2,-1160	  x2:0x14942000  x2=0x14941b78
         395000	        38	80000078	00500193	addi	x3,x0,5	  x0:0x00000000  x3=0x00000005
         405000	        39	8000007c	f2931237	lui	x4,0xf2931	  x4=0xf2931000
         415000	        40	80000080	79620213	addi	x4,x4,1942	  x4:0xf2931000  x4=0xf2931796
         425000	        41	80000084	00200293	addi	x5,x0,2	  x0:0x00000000  x5=0x00000002
         435000	        42	80000088	fe5eb337	lui	x6,0xfe5eb	  x6=0xfe5eb000
         445000	        43	8000008c	c5a30313	addi	x6,x6,-934	  x6:0xfe5eb000  x6=0xfe5eac5a
         455000	        44	80000090	00b00393	addi	x7,x0,11	  x0:0x00000000  x7=0x0000000b
         465000	        45	80000094	80000437	lui	x8,0x80000	  x8=0x80000000
         475000	        46	80000098	00c00493	addi	x9,x0,12	  x0:0x00000000  x9=0x0000000c
         485000	        47	8000009c	00300513	addi	x10,x0,3	  x0:0x00000000 x10=0x00000003
         495000	        48	800000a0	00400593	addi	x11,x0,4	  x0:0x00000000 x11=0x00000004
         505000	        49	800000a4	00b00613	addi	x12,x0,11	  x0:0x00000000 x12=0x0000000b
         515000	        50	800000a8	00800693	addi	x13,x0,8	  x0:0x00000000 x13=0x00000008
         525000	        51	800000ac	d6c03737	lui	x14,0xd6c03	 x14=0xd6c03000
         535000	        52	800000b0	5b570713	addi	x14,x14,1461	 x14:0xd6c03000 x14=0xd6c035b5
         545000	        53	800000b4	00700793	addi	x15,x0,7	  x0:0x00000000 x15=0x00000007
         555000	        54	800000b8	73e768b7	lui	x17,0x73e76	 x17=0x73e76000
         565000	        55	800000bc	1f788893	addi	x17,x17,503	 x17:0x73e76000 x17=0x73e761f7
         575000	        56	800000c0	80000937	lui	x18,0x80000	 x18=0x80000000
         585000	        57	800000c4	00000993	addi	x19,x0,0	  x0:0x00000000 x19=0x00000000
         595000	        58	800000c8	febf9a37	lui	x20,0xfebf9	 x20=0xfebf9000
         605000	        59	800000cc	2eda0a13	addi	x20,x20,749	 x20:0xfebf9000 x20=0xfebf92ed
         615000	        60	800000d0	00f00a93	addi	x21,x0,15	  x0:0x00000000 x21=0x0000000f
         625000	        61	800000d4	80000b37	lui	x22,0x80000	 x22=0x80000000
         635000	        62	800000d8	80000bb7	lui	x23,0x80000	 x23=0x80000000
         645000	        63	800000dc	00d00c13	addi	x24,x0,13	  x0:0x00000000 x24=0x0000000d
         655000	        64	800000e0	e6dffd37	lui	x26,0xe6dff	 x26=0xe6dff000
         665000	        65	800000e4	5e0d0d13	addi	x26,x26,1504	 x26:0xe6dff000 x26=0xe6dff5e0
         675000	        66	800000e8	66a58db7	lui	x27,0x66a58	 x27=0x66a58000
         685000	        67	800000ec	d7cd8d93	addi	x27,x27,-644	 x27:0x66a58000 x27=0x66a57d7c
         695000	        68	800000f0	00200e13	addi	x28,x0,2	  x0:0x00000000 x28=0x00000002
         705000	        69	800000f4	00000e93	addi	x29,x0,0	  x0:0x00000000 x29=0x00000000
         715000	        70	800000f8	fe2ebf37	lui	x30,0xfe2eb	 x30=0xfe2eb000
         725000	        71	800000fc	555f0f13	addi	x30,x30,1365	 x30:0xfe2eb000 x30=0xfe2eb555
         735000	        72	80000100	80000fb7	lui	x31,0x80000	 x31=0x80000000
         745000	        73	80000104	0000a817	auipc	x16,0xa	 x16=0x8000a100
         755000	        74	80000108	e8480813	addi	x16,x16,-380	 x16:0x8000a100 x16=0x80009f84
         765000	        75	8000010c	00000a17	auipc	x20,0x0	 x20=0x80000108
         775000	        76	80000110	3b8a0a13	addi	x20,x20,952	 x20:0x80000108 x20=0x800004c0
         785000	        77	80000114	f75a0a13	addi	x20,x20,-139	 x20:0x800004c0 x20=0x80000435
         795000	        78	80000118	001ce433	or	x8,x25,x1	 x25:0x80009fc4  x1:0xff681fa8  x8=0xff689fec
         805000	        79	8000011c	01290033	add	x0,x18,x18	 x18:0x80000000 x18:0x80000000
         815000	        80	80000120	01c44033	xor	x0,x8,x28	  x8:0xff689fec x28:0x00000002
         825000	        81	80000124	dfec8d93	addi	x27,x25,-514	 x25:0x80009fc4 x27=0x80009dc2
         835000	        82	80000128	00000013	addi	x0,x0,0	  x0:0x00000000
         845000	        83	8000012c	01dc6463	bltu	x24,x29,80000134	 x24:0x0000000d x29:0x00000000
         855000	        84	80000130	407852b3	sra	x5,x16,x7	 x16:0x80009f84  x7:0x0000000b  x5=0xfff00013
         865000	        85	80000134	08ca00e7	jalr	x1,x20,140	 x20:0x80000435  x1=0x80000134
         875000	        86	00000000	00000013	addi	x0,x0,0	  x0:0x00000000
         885000	        87	800004c0	00000013	addi	x0,x0,0	  x0:0x00000000
         895000	        88	800004c4	5d0fbd93	sltiu	x27,x31,1488	 x31:0x80000000 x27=0x00000000
         905000	        89	800004c8	005ef433	and	x8,x29,x5	 x29:0x00000000  x5:0xfff00013  x8=0x00000000
         915000	        90	800004cc	2b723993	sltiu	x19,x4,695	  x4:0xf2931796 x19=0x00000000
         925000	        91	800004d0	c50d0313	addi	x6,x26,-944	 x26:0xe6dff5e0  x6=0xe6dff230
         935000	        92	800004d4	0091f263	bgeu	x3,x9,800004d8	  x3:0x00000005  x9:0x0000000c
         945000	        93	800004d8	fc880813	addi	x16,x16,-56	 x16:0x80009f84 x16=0x80009f4c
         955000	        94	800004dc	da90b193	sltiu	x3,x1,-599	  x1:0x80000134  x3=0x00000001
         965000	        95	800004e0	01b0dbb3	srl	x23,x1,x27	  x1:0x80000134 x27:0x00000000 x23=0x80000134
         975000	        96	800004e4	f7bef213	andi	x4,x29,-133	 x29:0x00000000  x4=0x00000000
         985000	        97	800004e8	00182223	sw	x1,4(x16)	 x16:0x80009f4c  x1:0x80000134 PA:0x80009f50
         995000	        98	800004ec	707a8493	addi	x9,x21,1799	 x21:0x0000000f  x9=0x00000716
        1005000	        99	800004f0	018cc933	xor	x18,x25,x24	 x25:0x80009fc4 x24:0x0000000d x18=0x80009fc9
        1015000	       100	800004f4	0074ceb3	xor	x29,x9,x7	  x9:0x00000716  x7:0x0000000b x29=0x0000071d
        1025000	       101	800004f8	058000ef	jal	x1,800004f8	  x1=0x800004f8
        1035000	       102	00000000	00000013	addi	x0,x0,0	  x0:0x00000000
        1045000	       103	8000054c	00000013	addi	x0,x0,0	  x0:0x00000000
        1055000	       104	80000550	fadff0ef	jal	x1,80000550	  x1=0x80000550
        1065000	       105	00000000	00000013	addi	x0,x0,0	  x0:0x00000000
        1075000	       106	800004f8	00000013	addi	x0,x0,0	  x0:0x00000000
        1085000	       107	800004fc	00c000ef	jal	x1,800004fc	  x1=0x800004fc
        1095000	       108	00000000	00000013	addi	x0,x0,0	  x0:0x00000000
        1105000	       109	80000504	00000013	addi	x0,x0,0	  x0:0x00000000
        1115000	       110	80000508	0080016f	jal	x2,80000508	  x2=0x80000508
        1125000	       111	00000000	00000013	addi	x0,x0,0	  x0:0x00000000
        1135000	       112	8000050c	00000013	addi	x0,x0,0	  x0:0x00000000
        1145000	       113	80000510	058000ef	jal	x1,80000510	  x1=0x80000510
        1155000	       114	00000000	00000013	addi	x0,x0,0	  x0:0x00000000
        1165000	       115	80000564	00000013	addi	x0,x0,0	  x0:0x00000000
        1175000	       116	80000568	ff9ff0ef	jal	x1,80000568	  x1=0x80000568
        1185000	       117	00000000	00000013	addi	x0,x0,0	  x0:0x00000000
        1195000	       118	8000055c	00000013	addi	x0,x0,0	  x0:0x00000000
        1205000	       119	80000560	ff9ff0ef	jal	x1,80000560	  x1=0x80000560
        1215000	       120	00000000	00000013	addi	x0,x0,0	  x0:0x00000000
        1225000	       121	80000554	00000013	addi	x0,x0,0	  x0:0x00000000
        1235000	       122	80000558	00c000ef	jal	x1,80000558	  x1=0x80000558
        1245000	       123	00000000	00000013	addi	x0,x0,0	  x0:0x00000000
        1255000	       124	80000560	00000013	addi	x0,x0,0	  x0:0x00000000
        1265000	       125	80000564	fa1ff36f	jal	x6,80000564	  x6=0x80000564
        1275000	       126	00000000	00000013	addi	x0,x0,0	  x0:0x00000000
        1285000	       127	80000500	00000013	addi	x0,x0,0	  x0:0x00000000
        1295000	       128	80000504	ffdff36f	jal	x6,80000504	  x6=0x80000504
        1305000	       129	00000000	00000013	addi	x0,x0,0	  x0:0x00000000
        1315000	       130	800004fc	00000013	addi	x0,x0,0	  x0:0x00000000
        1325000	       131	80000500	054000ef	jal	x1,80000500	  x1=0x80000500
        1335000	       132	00000000	00000013	addi	x0,x0,0	  x0:0x00000000
        1345000	       133	80000550	00000013	addi	x0,x0,0	  x0:0x00000000
        1355000	       134	80000554	ff5ff0ef	jal	x1,80000554	  x1=0x80000554
        1365000	       135	00000000	00000013	addi	x0,x0,0	  x0:0x00000000
        1375000	       136	80000544	00000013	addi	x0,x0,0	  x0:0x00000000
        1385000	       137	80000548	ff9ff66f	jal	x12,80000548	 x12=0x80000548
        1395000	       138	00000000	00000013	addi	x0,x0,0	  x0:0x00000000
        1405000	       139	8000053c	00000013	addi	x0,x0,0	  x0:0x00000000
        1415000	       140	80000540	fd9ffe6f	jal	x28,80000540	 x28=0x80000540
        1425000	       141	00000000	00000013	addi	x0,x0,0	  x0:0x00000000
        1435000	       142	80000514	00000013	addi	x0,x0,0	  x0:0x00000000
        1445000	       143	80000518	018007ef	jal	x15,80000518	 x15=0x80000518
        1455000	       144	00000000	00000013	addi	x0,x0,0	  x0:0x00000000
        1465000	       145	8000052c	00000013	addi	x0,x0,0	  x0:0x00000000
        1475000	       146	80000530	ff1ff0ef	jal	x1,80000530	  x1=0x80000530
        1485000	       147	00000000	00000013	addi	x0,x0,0	  x0:0x00000000
        1495000	       148	8000051c	00000013	addi	x0,x0,0	  x0:0x00000000
        1505000	       149	80000520	01c0066f	jal	x12,80000520	 x12=0x80000520
        1515000	       150	00000000	00000013	addi	x0,x0,0	  x0:0x00000000
        1525000	       151	80000538	00000013	addi	x0,x0,0	  x0:0x00000000
        1535000	       152	8000053c	ff1ffbef	jal	x23,8000053c	 x23=0x8000053c
        1545000	       153	00000000	00000013	addi	x0,x0,0	  x0:0x00000000
        1555000	       154	80000528	00000013	addi	x0,x0,0	  x0:0x00000000
        1565000	       155	8000052c	fe1ffe6f	jal	x28,8000052c	 x28=0x8000052c
        1575000	       156	00000000	00000013	addi	x0,x0,0	  x0:0x00000000
        1585000	       157	80000508	00000013	addi	x0,x0,0	  x0:0x00000000
        1595000	       158	8000050c	008000ef	jal	x1,8000050c	  x1=0x8000050c
        1605000	       159	00000000	00000013	addi	x0,x0,0	  x0:0x00000000
        1615000	       160	80000510	00000013	addi	x0,x0,0	  x0:0x00000000
        1625000	       161	80000514	038009ef	jal	x19,80000514	 x19=0x80000514
        1635000	       162	00000000	00000013	addi	x0,x0,0	  x0:0x00000000
        1645000	       163	80000548	00000013	addi	x0,x0,0	  x0:0x00000000
        1655000	       164	8000054c	fedff0ef	jal	x1,8000054c	  x1=0x8000054c
        1665000	       165	00000000	00000013	addi	x0,x0,0	  x0:0x00000000
        1675000	       166	80000534	00000013	addi	x0,x0,0	  x0:0x00000000
        1685000	       167	80000538	fe5ff0ef	jal	x1,80000538	  x1=0x80000538
        1695000	       168	00000000	00000013	addi	x0,x0,0	  x0:0x00000000
        1705000	       169	80000518	00000013	addi	x0,x0,0	  x0:0x00000000
        1715000	       170	8000051c	00800f6f	jal	x30,8000051c	 x30=0x8000051c
        1725000	       171	00000000	00000013	addi	x0,x0,0	  x0:0x00000000
        1735000	       172	80000520	00000013	addi	x0,x0,0	  x0:0x00000000
        1745000	       173	80000524	0040036f	jal	x6,80000524	  x6=0x80000524
        1755000	       174	00000000	00000013	addi	x0,x0,0	  x0:0x00000000
        1765000	       175	80000524	00000013	addi	x0,x0,0	  x0:0x00000000
        1775000	       176	80000528	00c0016f	jal	x2,80000528	  x2=0x80000528
        1785000	       177	00000000	00000013	addi	x0,x0,0	  x0:0x00000000
        1795000	       178	80000530	00000013	addi	x0,x0,0	  x0:0x00000000
        1805000	       179	80000534	028000ef	jal	x1,80000534	  x1=0x80000534
        1815000	       180	00000000	00000013	addi	x0,x0,0	  x0:0x00000000
        1825000	       181	80000558	00000013	addi	x0,x0,0	  x0:0x00000000
        1835000	       182	8000055c	fe9ff36f	jal	x6,8000055c	  x6=0x8000055c
        1845000	       183	00000000	00000013	addi	x0,x0,0	  x0:0x00000000
        1855000	       184	80000540	00000013	addi	x0,x0,0	  x0:0x00000000
        1865000	       185	80000544	028000ef	jal	x1,80000544	  x1=0x80000544
        1875000	       186	00000000	00000013	addi	x0,x0,0	  x0:0x00000000
        1885000	       187	80000568	00000013	addi	x0,x0,0	  x0:0x00000000
        1895000	       188	8000056c	eada4617	auipc	x12,0xeada4	 x12=0x6ada4568
        1905000	       189	80000570	038000ef	jal	x1,80000570	  x1=0x80000570
        1915000	       190	00000000	00000013	addi	x0,x0,0	  x0:0x00000000
        1925000	       191	800005a4	00000013	addi	x0,x0,0	  x0:0x00000000
        1935000	       192	800005a8	0080036f	jal	x6,800005a8	  x6=0x800005a8
        1945000	       193	00000000	00000013	addi	x0,x0,0	  x0:0x00000000
        1955000	       194	800005ac	00000013	addi	x0,x0,0	  x0:0x00000000
        1965000	       195	800005b0	008000ef	jal	x1,800005b0	  x1=0x800005b0
        1975000	       196	00000000	00000013	addi	x0,x0,0	  x0:0x00000000
        1985000	       197	800005b4	00000013	addi	x0,x0,0	  x0:0x00000000
        1995000	       198	800005b8	fc9ff36f	jal	x6,800005b8	  x6=0x800005b8
        2005000	       199	00000000	00000013	addi	x0,x0,0	  x0:0x00000000
        2015000	       200	8000057c	00000013	addi	x0,x0,0	  x0:0x00000000
        2025000	       201	80000580	0340036f	jal	x6,80000580	  x6=0x80000580
        2035000	       202	00000000	00000013	addi	x0,x0,0	  x0:0x00000000
        2045000	       203	800005b0	00000013	addi	x0,x0,0	  x0:0x00000000
        2055000	       204	800005b4	fd5ff36f	jal	x6,800005b4	  x6=0x800005b4
        2065000	       205	00000000	00000013	addi	x0,x0,0	  x0:0x00000000
        2075000	       206	80000584	00000013	addi	x0,x0,0	  x0:0x00000000
        2085000	       207	80000588	014000ef	jal	x1,80000588	  x1=0x80000588
        2095000	       208	00000000	00000013	addi	x0,x0,0	  x0:0x00000000
        2105000	       209	80000598	00000013	addi	x0,x0,0	  x0:0x00000000
        2115000	       210	8000059c	fddff1ef	jal	x3,8000059c	  x3=0x8000059c
        2125000	       211	00000000	00000013	addi	x0,x0,0	  x0:0x00000000
        2135000	       212	80000574	00000013	addi	x0,x0,0	  x0:0x00000000
        2145000	       213	80000578	0440016f	jal	x2,80000578	  x2=0x80000578
        2155000	       214	00000000	00000013	addi	x0,x0,0	  x0:0x00000000
        2165000	       215	800005b8	00000013	addi	x0,x0,0	  x0:0x00000000
        2175000	       216	800005bc	fb9ff0ef	jal	x1,800005bc	  x1=0x800005bc
        2185000	       217	00000000	00000013	addi	x0,x0,0	  x0:0x00000000
        2195000	       218	80000570	00000013	addi	x0,x0,0	  x0:0x00000000
        2205000	       219	80000574	038000ef	jal	x1,80000574	  x1=0x80000574
        2215000	       220	00000000	00000013	addi	x0,x0,0	  x0:0x00000000
        2225000	       221	800005a8	00000013	addi	x0,x0,0	  x0:0x00000000
        2235000	       222	800005ac	fe1ff2ef	jal	x5,800005ac	  x5=0x800005ac
        2245000	       223	00000000	00000013	addi	x0,x0,0	  x0:0x00000000
        2255000	       224	80000588	00000013	addi	x0,x0,0	  x0:0x00000000
        2265000	       225	8000058c	008000ef	jal	x1,8000058c	  x1=0x8000058c
        2275000	       226	00000000	00000013	addi	x0,x0,0	  x0:0x00000000
        2285000	       227	80000590	00000013	addi	x0,x0,0	  x0:0x00000000
        2295000	       228	80000594	ff1ff0ef	jal	x1,80000594	  x1=0x80000594
        2305000	       229	00000000	00000013	addi	x0,x0,0	  x0:0x00000000
        2315000	       230	80000580	00000013	addi	x0,x0,0	  x0:0x00000000
        2325000	       231	80000584	01c000ef	jal	x1,80000584	  x1=0x80000584
        2335000	       232	00000000	00000013	addi	x0,x0,0	  x0:0x00000000
        2345000	       233	8000059c	00000013	addi	x0,x0,0	  x0:0x00000000
        2355000	       234	800005a0	ff1ff0ef	jal	x1,800005a0	  x1=0x800005a0
        2365000	       235	00000000	00000013	addi	x0,x0,0	  x0:0x00000000
        2375000	       236	8000058c	00000013	addi	x0,x0,0	  x0:0x00000000
        2385000	       237	80000590	014002ef	jal	x5,80000590	  x5=0x80000590
        2395000	       238	00000000	00000013	addi	x0,x0,0	  x0:0x00000000
        2405000	       239	800005a0	00000013	addi	x0,x0,0	  x0:0x00000000
        2415000	       240	800005a4	fd9ff66f	jal	x12,800005a4	 x12=0x800005a4
        2425000	       241	00000000	00000013	addi	x0,x0,0	  x0:0x00000000
        2435000	       242	80000578	00000013	addi	x0,x0,0	  x0:0x00000000
        2445000	       243	8000057c	01c000ef	jal	x1,8000057c	  x1=0x8000057c
        2455000	       244	00000000	00000013	addi	x0,x0,0	  x0:0x00000000
        2465000	       245	80000594	00000013	addi	x0,x0,0	  x0:0x00000000
        2475000	       246	80000598	028000ef	jal	x1,80000598	  x1=0x80000598
        2485000	       247	00000000	00000013	addi	x0,x0,0	  x0:0x00000000
        2495000	       248	800005bc	00000013	addi	x0,x0,0	  x0:0x00000000
        2505000	       249	800005c0	eb36a693	slti	x13,x13,-333	 x13:0x00000008 x13=0x00000000
        2515000	       250	800005c4	02c000ef	jal	x1,800005c4	  x1=0x800005c4
        2525000	       251	00000000	00000013	addi	x0,x0,0	  x0:0x00000000
        2535000	       252	800005ec	00000013	addi	x0,x0,0	  x0:0x00000000
        2545000	       253	800005f0	fedff8ef	jal	x17,800005f0	 x17=0x800005f0
        2555000	       254	00000000	00000013	addi	x0,x0,0	  x0:0x00000000
        2565000	       255	800005d8	00000013	addi	x0,x0,0	  x0:0x00000000
        2575000	       256	800005dc	0280026f	jal	x4,800005dc	  x4=0x800005dc
        2585000	       257	00000000	00000013	addi	x0,x0,0	  x0:0x00000000
        2595000	       258	80000600	00000013	addi	x0,x0,0	  x0:0x00000000
        2605000	       259	80000604	fc9ff0ef	jal	x1,80000604	  x1=0x80000604
        2615000	       260	00000000	00000013	addi	x0,x0,0	  x0:0x00000000
        2625000	       261	800005c8	00000013	addi	x0,x0,0	  x0:0x00000000
        2635000	       262	800005cc	040000ef	jal	x1,800005cc	  x1=0x800005cc
        2645000	       263	00000000	00000013	addi	x0,x0,0	  x0:0x00000000
        2655000	       264	80000608	00000013	addi	x0,x0,0	  x0:0x00000000
        2665000	       265	8000060c	ff1ff36f	jal	x6,8000060c	  x6=0x8000060c
        2675000	       266	00000000	00000013	addi	x0,x0,0	  x0:0x00000000
        2685000	       267	800005f8	00000013	addi	x0,x0,0	  x0:0x00000000
        2695000	       268	800005fc	02c0036f	jal	x6,800005fc	  x6=0x800005fc
        2705000	       269	00000000	00000013	addi	x0,x0,0	  x0:0x00000000
        2715000	       270	80000624	00000013	addi	x0,x0,0	  x0:0x00000000
        2725000	       271	80000628	fc1ff36f	jal	x6,80000628	  x6=0x80000628
        2735000	       272	00000000	00000013	addi	x0,x0,0	  x0:0x00000000
        2745000	       273	800005e4	00000013	addi	x0,x0,0	  x0:0x00000000
        2755000	       274	800005e8	ff1ff36f	jal	x6,800005e8	  x6=0x800005e8
        2765000	       275	00000000	00000013	addi	x0,x0,0	  x0:0x00000000
        2775000	       276	800005d4	00000013	addi	x0,x0,0	  x0:0x00000000
        2785000	       277	800005d8	04c000ef	jal	x1,800005d8	  x1=0x800005d8
        2795000	       278	00000000	00000013	addi	x0,x0,0	  x0:0x00000000
        2805000	       279	80000620	00000013	addi	x0,x0,0	  x0:0x00000000
        2815000	       280	80000624	fb1ffdef	jal	x27,80000624	 x27=0x80000624
        2825000	       281	00000000	00000013	addi	x0,x0,0	  x0:0x00000000
        2835000	       282	800005d0	00000013	addi	x0,x0,0	  x0:0x00000000
        2845000	       283	800005d4	ffdff0ef	jal	x1,800005d4	  x1=0x800005d4
        2855000	       284	00000000	00000013	addi	x0,x0,0	  x0:0x00000000
        2865000	       285	800005cc	00000013	addi	x0,x0,0	  x0:0x00000000
        2875000	       286	800005d0	01c002ef	jal	x5,800005d0	  x5=0x800005d0
        2885000	       287	00000000	00000013	addi	x0,x0,0	  x0:0x00000000
        2895000	       288	800005e8	00000013	addi	x0,x0,0	  x0:0x00000000
        2905000	       289	800005ec	030000ef	jal	x1,800005ec	  x1=0x800005ec
        2915000	       290	00000000	00000013	addi	x0,x0,0	  x0:0x00000000
        2925000	       291	80000618	00000013	addi	x0,x0,0	  x0:0x00000000
        2935000	       292	8000061c	fedff0ef	jal	x1,8000061c	  x1=0x8000061c
        2945000	       293	00000000	00000013	addi	x0,x0,0	  x0:0x00000000
        2955000	       294	80000604	00000013	addi	x0,x0,0	  x0:0x00000000
        2965000	       295	80000608	010000ef	jal	x1,80000608	  x1=0x80000608
        2975000	       296	00000000	00000013	addi	x0,x0,0	  x0:0x00000000
        2985000	       297	80000614	00000013	addi	x0,x0,0	  x0:0x00000000
        2995000	       298	80000618	ff9ff0ef	jal	x1,80000618	  x1=0x80000618
        3005000	       299	00000000	00000013	addi	x0,x0,0	  x0:0x00000000
        3015000	       300	8000060c	00000013	addi	x0,x0,0	  x0:0x00000000
        3025000	       301	80000610	fd5ff0ef	jal	x1,80000610	  x1=0x80000610
        3035000	       302	00000000	00000013	addi	x0,x0,0	  x0:0x00000000
        3045000	       303	800005e0	00000013	addi	x0,x0,0	  x0:0x00000000
        3055000	       304	800005e4	ffdff0ef	jal	x1,800005e4	  x1=0x800005e4
        3065000	       305	00000000	00000013	addi	x0,x0,0	  x0:0x00000000
        3075000	       306	800005dc	00000013	addi	x0,x0,0	  x0:0x00000000
        3085000	       307	800005e0	fe9ff3ef	jal	x7,800005e0	  x7=0x800005e0
        3095000	       308	00000000	00000013	addi	x0,x0,0	  x0:0x00000000
        3105000	       309	800005c4	00000013	addi	x0,x0,0	  x0:0x00000000
        3115000	       310	800005c8	058000ef	jal	x1,800005c8	  x1=0x800005c8
        3125000	       311	00000000	00000013	addi	x0,x0,0	  x0:0x00000000
        3135000	       312	8000061c	00000013	addi	x0,x0,0	  x0:0x00000000
        3145000	       313	80000620	fd9ffe6f	jal	x28,80000620	 x28=0x80000620
        3155000	       314	00000000	00000013	addi	x0,x0,0	  x0:0x00000000
        3165000	       315	800005f4	00000013	addi	x0,x0,0	  x0:0x00000000
        3175000	       316	800005f8	01c000ef	jal	x1,800005f8	  x1=0x800005f8
        3185000	       317	00000000	00000013	addi	x0,x0,0	  x0:0x00000000
        3195000	       318	80000610	00000013	addi	x0,x0,0	  x0:0x00000000
        3205000	       319	80000614	fedff66f	jal	x12,80000614	 x12=0x80000614
        3215000	       320	00000000	00000013	addi	x0,x0,0	  x0:0x00000000
        3225000	       321	800005fc	00000013	addi	x0,x0,0	  x0:0x00000000
        3235000	       322	80000600	ff5ff0ef	jal	x1,80000600	  x1=0x80000600
        3245000	       323	00000000	00000013	addi	x0,x0,0	  x0:0x00000000
        3255000	       324	800005f0	00000013	addi	x0,x0,0	  x0:0x00000000
        3265000	       325	800005f4	038000ef	jal	x1,800005f4	  x1=0x800005f4
        3275000	       326	00000000	00000013	addi	x0,x0,0	  x0:0x00000000
        3285000	       327	80000628	00000013	addi	x0,x0,0	  x0:0x00000000
        3295000	       328	8000062c	01d963b3	or	x7,x18,x29	 x18:0x80009fc9 x29:0x0000071d  x7=0x80009fdd
        3305000	       329	80000630	044000ef	jal	x1,80000630	  x1=0x80000630
        3315000	       330	00000000	00000013	addi	x0,x0,0	  x0:0x00000000
        3325000	       331	80000670	00000013	addi	x0,x0,0	  x0:0x00000000
        3335000	       332	80000674	ff9ffc6f	jal	x24,80000674	 x24=0x80000674
        3345000	       333	00000000	00000013	addi	x0,x0,0	  x0:0x00000000
        3355000	       334	80000668	00000013	addi	x0,x0,0	  x0:0x00000000
        3365000	       335	8000066c	fcdff36f	jal	x6,8000066c	  x6=0x8000066c
        3375000	       336	00000000	00000013	addi	x0,x0,0	  x0:0x00000000
        3385000	       337	80000634	00000013	addi	x0,x0,0	  x0:0x00000000
        3395000	       338	80000638	030000ef	jal	x1,80000638	  x1=0x80000638
        3405000	       339	00000000	00000013	addi	x0,x0,0	  x0:0x00000000
        3415000	       340	80000664	00000013	addi	x0,x0,0	  x0:0x00000000
        3425000	       341	80000668	008007ef	jal	x15,80000668	 x15=0x80000668
        3435000	       342	00000000	00000013	addi	x0,x0,0	  x0:0x00000000
        3445000	       343	8000066c	00000013	addi	x0,x0,0	  x0:0x00000000
        3455000	       344	80000670	fedff36f	jal	x6,80000670	  x6=0x80000670
        3465000	       345	00000000	00000013	addi	x0,x0,0	  x0:0x00000000
        3475000	       346	80000658	00000013	addi	x0,x0,0	  x0:0x00000000
        3485000	       347	8000065c	0040026f	jal	x4,8000065c	  x4=0x8000065c
        3495000	       348	00000000	00000013	addi	x0,x0,0	  x0:0x00000000
        3505000	       349	8000065c	00000013	addi	x0,x0,0	  x0:0x00000000
        3515000	       350	80000660	fedff0ef	jal	x1,80000660	  x1=0x80000660
        3525000	       351	00000000	00000013	addi	x0,x0,0	  x0:0x00000000
        3535000	       352	80000648	00000013	addi	x0,x0,0	  x0:0x00000000
        3545000	       353	8000064c	008000ef	jal	x1,8000064c	  x1=0x8000064c
        3555000	       354	00000000	00000013	addi	x0,x0,0	  x0:0x00000000
        3565000	       355	80000650	00000013	addi	x0,x0,0	  x0:0x00000000
        3575000	       356	80000654	ff5ff0ef	jal	x1,80000654	  x1=0x80000654
        3585000	       357	00000000	00000013	addi	x0,x0,0	  x0:0x00000000
        3595000	       358	80000644	00000013	addi	x0,x0,0	  x0:0x00000000
        3605000	       359	80000648	ff9ff96f	jal	x18,80000648	 x18=0x80000648
        3615000	       360	00000000	00000013	addi	x0,x0,0	  x0:0x00000000
        3625000	       361	8000063c	00000013	addi	x0,x0,0	  x0:0x00000000
        3635000	       362	80000640	004000ef	jal	x1,80000640	  x1=0x80000640
        3645000	       363	00000000	00000013	addi	x0,x0,0	  x0:0x00000000
        3655000	       364	80000640	00000013	addi	x0,x0,0	  x0:0x00000000
        3665000	       365	80000644	ff1ff36f	jal	x6,80000644	  x6=0x80000644
        3675000	       366	00000000	00000013	addi	x0,x0,0	  x0:0x00000000
        3685000	       367	80000630	00000013	addi	x0,x0,0	  x0:0x00000000
        3695000	       368	80000634	01c000ef	jal	x1,80000634	  x1=0x80000634
        3705000	       369	00000000	00000013	addi	x0,x0,0	  x0:0x00000000
        3715000	       370	8000064c	00000013	addi	x0,x0,0	  x0:0x00000000
        3725000	       371	80000650	014001ef	jal	x3,80000650	  x3=0x80000650
        3735000	       372	00000000	00000013	addi	x0,x0,0	  x0:0x00000000
        3745000	       373	80000660	00000013	addi	x0,x0,0	  x0:0x00000000
        3755000	       374	80000664	fd9ff36f	jal	x6,80000664	  x6=0x80000664
        3765000	       375	00000000	00000013	addi	x0,x0,0	  x0:0x00000000
        3775000	       376	80000638	00000013	addi	x0,x0,0	  x0:0x00000000
        3785000	       377	8000063c	01c000ef	jal	x1,8000063c	  x1=0x8000063c
        3795000	       378	00000000	00000013	addi	x0,x0,0	  x0:0x00000000
        3805000	       379	80000654	00000013	addi	x0,x0,0	  x0:0x00000000
        3815000	       380	80000658	020000ef	jal	x1,80000658	  x1=0x80000658
        3825000	       381	00000000	00000013	addi	x0,x0,0	  x0:0x00000000
        3835000	       382	80000674	00000013	addi	x0,x0,0	  x0:0x00000000
        3845000	       383	80000678	aecb4d13	xori	x26,x22,-1300	 x22:0x80000000 x26=0x7ffffaec
        3855000	       384	8000067c	018000ef	jal	x1,8000067c	  x1=0x8000067c
        3865000	       385	00000000	00000013	addi	x0,x0,0	  x0:0x00000000
        3875000	       386	80000690	00000013	addi	x0,x0,0	  x0:0x00000000
        3885000	       387	80000694	024000ef	jal	x1,80000694	  x1=0x80000694
        3895000	       388	00000000	00000013	addi	x0,x0,0	  x0:0x00000000
        3905000	       389	800006b4	00000013	addi	x0,x0,0	  x0:0x00000000
        3915000	       390	800006b8	ff9ff0ef	jal	x1,800006b8	  x1=0x800006b8
        3925000	       391	00000000	00000013	addi	x0,x0,0	  x0:0x00000000
        3935000	       392	800006ac	00000013	addi	x0,x0,0	  x0:0x00000000
        3945000	       393	800006b0	fd9fff6f	jal	x30,800006b0	 x30=0x800006b0
        3955000	       394	00000000	00000013	addi	x0,x0,0	  x0:0x00000000
        3965000	       395	80000684	00000013	addi	x0,x0,0	  x0:0x00000000
        3975000	       396	80000688	018000ef	jal	x1,80000688	  x1=0x80000688
        3985000	       397	00000000	00000013	addi	x0,x0,0	  x0:0x00000000
        3995000	       398	8000069c	00000013	addi	x0,x0,0	  x0:0x00000000
        4005000	       399	800006a0	fedff36f	jal	x6,800006a0	  x6=0x800006a0
        4015000	       400	00000000	00000013	addi	x0,x0,0	  x0:0x00000000
        4025000	       401	80000688	00000013	addi	x0,x0,0	  x0:0x00000000
        4035000	       402	8000068c	028000ef	jal	x1,8000068c	  x1=0x8000068c
        4045000	       403	00000000	00000013	addi	x0,x0,0	  x0:0x00000000
        4055000	       404	800006b0	00000013	addi	x0,x0,0	  x0:0x00000000
        4065000	       405	800006b4	fe9ff36f	jal	x6,800006b4	  x6=0x800006b4
        4075000	       406	00000000	00000013	addi	x0,x0,0	  x0:0x00000000
        4085000	       407	80000698	00000013	addi	x0,x0,0	  x0:0x00000000
        4095000	       408	8000069c	ff5ff16f	jal	x2,8000069c	  x2=0x8000069c
        4105000	       409	00000000	00000013	addi	x0,x0,0	  x0:0x00000000
        4115000	       410	8000068c	00000013	addi	x0,x0,0	  x0:0x00000000
        4125000	       411	80000690	01800c6f	jal	x24,80000690	 x24=0x80000690
        4135000	       412	00000000	00000013	addi	x0,x0,0	  x0:0x00000000
        4145000	       413	800006a4	00000013	addi	x0,x0,0	  x0:0x00000000
        4155000	       414	800006a8	fddff0ef	jal	x1,800006a8	  x1=0x800006a8
        4165000	       415	00000000	00000013	addi	x0,x0,0	  x0:0x00000000
        4175000	       416	80000680	00000013	addi	x0,x0,0	  x0:0x00000000
        4185000	       417	80000684	014007ef	jal	x15,80000684	 x15=0x80000684
        4195000	       418	00000000	00000013	addi	x0,x0,0	  x0:0x00000000
        4205000	       419	80000694	00000013	addi	x0,x0,0	  x0:0x00000000
        4215000	       420	80000698	0140036f	jal	x6,80000698	  x6=0x80000698
        4225000	       421	00000000	00000013	addi	x0,x0,0	  x0:0x00000000
        4235000	       422	800006a8	00000013	addi	x0,x0,0	  x0:0x00000000
        4245000	       423	800006ac	010000ef	jal	x1,800006ac	  x1=0x800006ac
        4255000	       424	00000000	00000013	addi	x0,x0,0	  x0:0x00000000
        4265000	       425	800006b8	00000013	addi	x0,x0,0	  x0:0x00000000
        4275000	       426	800006bc	fe9ff0ef	jal	x1,800006bc	  x1=0x800006bc
        4285000	       427	00000000	00000013	addi	x0,x0,0	  x0:0x00000000
        4295000	       428	800006a0	00000013	addi	x0,x0,0	  x0:0x00000000
        4305000	       429	800006a4	fddff0ef	jal	x1,800006a4	  x1=0x800006a4
        4315000	       430	00000000	00000013	addi	x0,x0,0	  x0:0x00000000
        4325000	       431	8000067c	00000013	addi	x0,x0,0	  x0:0x00000000
        4335000	       432	80000680	0400036f	jal	x6,80000680	  x6=0x80000680
        4345000	       433	00000000	00000013	addi	x0,x0,0	  x0:0x00000000
        4355000	       434	800006bc	00000013	addi	x0,x0,0	  x0:0x00000000
        4365000	       435	800006c0	00585f33	srl	x30,x16,x5	 x16:0x80009f4c  x5:0x800005d0 x30=0x00008000
        4375000	       436	800006c4	004000ef	jal	x1,800006c4	  x1=0x800006c4
        4385000	       437	00000000	00000013	addi	x0,x0,0	  x0:0x00000000
        4395000	       438	800006c4	00000013	addi	x0,x0,0	  x0:0x00000000
        4405000	       439	800006c8	014000ef	jal	x1,800006c8	  x1=0x800006c8
        4415000	       440	00000000	00000013	addi	x0,x0,0	  x0:0x00000000
        4425000	       441	800006d8	00000013	addi	x0,x0,0	  x0:0x00000000
        4435000	       442	800006dc	ff9ff26f	jal	x4,800006dc	  x4=0x800006dc
        4445000	       443	00000000	00000013	addi	x0,x0,0	  x0:0x00000000
        4455000	       444	800006d0	00000013	addi	x0,x0,0	  x0:0x00000000
        4465000	       445	800006d4	040000ef	jal	x1,800006d4	  x1=0x800006d4
        4475000	       446	00000000	00000013	addi	x0,x0,0	  x0:0x00000000
        4485000	       447	80000710	00000013	addi	x0,x0,0	  x0:0x00000000
        4495000	       448	80000714	fc5ff76f	jal	x14,80000714	 x14=0x80000714
        4505000	       449	00000000	00000013	addi	x0,x0,0	  x0:0x00000000
        4515000	       450	800006d4	00000013	addi	x0,x0,0	  x0:0x00000000
        4525000	       451	800006d8	0500036f	jal	x6,800006d8	  x6=0x800006d8
        4535000	       452	00000000	00000013	addi	x0,x0,0	  x0:0x00000000
        4545000	       453	80000724	00000013	addi	x0,x0,0	  x0:0x00000000
        4555000	       454	80000728	ffdff0ef	jal	x1,80000728	  x1=0x80000728
        4565000	       455	00000000	00000013	addi	x0,x0,0	  x0:0x00000000
        4575000	       456	80000720	00000013	addi	x0,x0,0	  x0:0x00000000
        4585000	       457	80000724	fddff36f	jal	x6,80000724	  x6=0x80000724
        4595000	       458	00000000	00000013	addi	x0,x0,0	  x0:0x00000000
        4605000	       459	800006fc	00000013	addi	x0,x0,0	  x0:0x00000000
        4615000	       460	80000700	ffdff0ef	jal	x1,80000700	  x1=0x80000700
        4625000	       461	00000000	00000013	addi	x0,x0,0	  x0:0x00000000
        4635000	       462	800006f8	00000013	addi	x0,x0,0	  x0:0x00000000
        4645000	       463	800006fc	ff9ff36f	jal	x6,800006fc	  x6=0x800006fc
        4655000	       464	00000000	00000013	addi	x0,x0,0	  x0:0x00000000
        4665000	       465	800006f0	00000013	addi	x0,x0,0	  x0:0x00000000
        4675000	       466	800006f4	fddff0ef	jal	x1,800006f4	  x1=0x800006f4
        4685000	       467	00000000	00000013	addi	x0,x0,0	  x0:0x00000000
        4695000	       468	800006cc	00000013	addi	x0,x0,0	  x0:0x00000000
        4705000	       469	800006d0	ffdff0ef	jal	x1,800006d0	  x1=0x800006d0
        4715000	       470	00000000	00000013	addi	x0,x0,0	  x0:0x00000000
        4725000	       471	800006c8	00000013	addi	x0,x0,0	  x0:0x00000000
        4735000	       472	800006cc	01c0036f	jal	x6,800006cc	  x6=0x800006cc
        4745000	       473	00000000	00000013	addi	x0,x0,0	  x0:0x00000000
        4755000	       474	800006e4	00000013	addi	x0,x0,0	  x0:0x00000000
        4765000	       475	800006e8	01c0036f	jal	x6,800006e8	  x6=0x800006e8
        4775000	       476	00000000	00000013	addi	x0,x0,0	  x0:0x00000000
        4785000	       477	80000700	00000013	addi	x0,x0,0	  x0:0x00000000
        4795000	       478	80000704	01c00b6f	jal	x22,80000704	 x22=0x80000704
        4805000	       479	00000000	00000013	addi	x0,x0,0	  x0:0x00000000
        4815000	       480	8000071c	00000013	addi	x0,x0,0	  x0:0x00000000
        4825000	       481	80000720	fcdffd6f	jal	x26,80000720	 x26=0x80000720
        4835000	       482	00000000	00000013	addi	x0,x0,0	  x0:0x00000000
        4845000	       483	800006e8	00000013	addi	x0,x0,0	  x0:0x00000000
        4855000	       484	800006ec	ff5ff0ef	jal	x1,800006ec	  x1=0x800006ec
        4865000	       485	00000000	00000013	addi	x0,x0,0	  x0:0x00000000
        4875000	       486	800006dc	00000013	addi	x0,x0,0	  x0:0x00000000
        4885000	       487	800006e0	03c000ef	jal	x1,800006e0	  x1=0x800006e0
        4895000	       488	00000000	00000013	addi	x0,x0,0	  x0:0x00000000
        4905000	       489	80000718	00000013	addi	x0,x0,0	  x0:0x00000000
        4915000	       490	8000071c	ff1ff0ef	jal	x1,8000071c	  x1=0x8000071c
        4925000	       491	00000000	00000013	addi	x0,x0,0	  x0:0x00000000
        4935000	       492	80000708	00000013	addi	x0,x0,0	  x0:0x00000000
        4945000	       493	8000070c	fd9ff0ef	jal	x1,8000070c	  x1=0x8000070c
        4955000	       494	00000000	00000013	addi	x0,x0,0	  x0:0x00000000
        4965000	       495	800006e0	00000013	addi	x0,x0,0	  x0:0x00000000
        4975000	       496	800006e4	02c000ef	jal	x1,800006e4	  x1=0x800006e4
        4985000	       497	00000000	00000013	addi	x0,x0,0	  x0:0x00000000
        4995000	       498	8000070c	00000013	addi	x0,x0,0	  x0:0x00000000
        5005000	       499	80000710	fe1ff0ef	jal	x1,80000710	  x1=0x80000710
        5015000	       500	00000000	00000013	addi	x0,x0,0	  x0:0x00000000
        5025000	       501	800006ec	00000013	addi	x0,x0,0	  x0:0x00000000
        5035000	       502	800006f0	018000ef	jal	x1,800006f0	  x1=0x800006f0
        5045000	       503	00000000	00000013	addi	x0,x0,0	  x0:0x00000000
        5055000	       504	80000704	00000013	addi	x0,x0,0	  x0:0x00000000
        5065000	       505	80000708	ff1ff36f	jal	x6,80000708	  x6=0x80000708
        5075000	       506	00000000	00000013	addi	x0,x0,0	  x0:0x00000000
        5085000	       507	800006f4	00000013	addi	x0,x0,0	  x0:0x00000000
        5095000	       508	800006f8	0200036f	jal	x6,800006f8	  x6=0x800006f8
        5105000	       509	00000000	00000013	addi	x0,x0,0	  x0:0x00000000
        5115000	       510	80000714	00000013	addi	x0,x0,0	  x0:0x00000000
        5125000	       511	80000718	0140036f	jal	x6,80000718	  x6=0x80000718
        5135000	       512	00000000	00000013	addi	x0,x0,0	  x0:0x00000000
        5145000	       513	80000728	00000013	addi	x0,x0,0	  x0:0x00000000
        5155000	       514	8000072c	88f9f693	andi	x13,x19,-1905	 x19:0x80000514 x13=0x80000004
        5165000	       515	80000730	010000ef	jal	x1,80000730	  x1=0x80000730
        5175000	       516	00000000	00000013	addi	x0,x0,0	  x0:0x00000000
        5185000	       517	8000073c	00000013	addi	x0,x0,0	  x0:0x00000000
        5195000	       518	80000740	ff9ff0ef	jal	x1,80000740	  x1=0x80000740
        5205000	       519	00000000	00000013	addi	x0,x0,0	  x0:0x00000000
        5215000	       520	80000734	00000013	addi	x0,x0,0	  x0:0x00000000
        5225000	       521	80000738	004000ef	jal	x1,80000738	  x1=0x80000738
        5235000	       522	00000000	00000013	addi	x0,x0,0	  x0:0x00000000
        5245000	       523	80000738	00000013	addi	x0,x0,0	  x0:0x00000000
        5255000	       524	8000073c	00c0036f	jal	x6,8000073c	  x6=0x8000073c
        5265000	       525	00000000	00000013	addi	x0,x0,0	  x0:0x00000000
        5275000	       526	80000744	00000013	addi	x0,x0,0	  x0:0x00000000
        5285000	       527	80000748	01400aef	jal	x21,80000748	 x21=0x80000748
        5295000	       528	00000000	00000013	addi	x0,x0,0	  x0:0x00000000
        5305000	       529	80000758	00000013	addi	x0,x0,0	  x0:0x00000000
        5315000	       530	8000075c	fd9ff0ef	jal	x1,8000075c	  x1=0x8000075c
        5325000	       531	00000000	00000013	addi	x0,x0,0	  x0:0x00000000
        5335000	       532	80000730	00000013	addi	x0,x0,0	  x0:0x00000000
        5345000	       533	80000734	018000ef	jal	x1,80000734	  x1=0x80000734
        5355000	       534	00000000	00000013	addi	x0,x0,0	  x0:0x00000000
        5365000	       535	80000748	00000013	addi	x0,x0,0	  x0:0x00000000
        5375000	       536	8000074c	0040026f	jal	x4,8000074c	  x4=0x8000074c
        5385000	       537	00000000	00000013	addi	x0,x0,0	  x0:0x00000000
        5395000	       538	8000074c	00000013	addi	x0,x0,0	  x0:0x00000000
        5405000	       539	80000750	008000ef	jal	x1,80000750	  x1=0x80000750
        5415000	       540	00000000	00000013	addi	x0,x0,0	  x0:0x00000000
        5425000	       541	80000754	00000013	addi	x0,x0,0	  x0:0x00000000
        5435000	       542	80000758	ffdff0ef	jal	x1,80000758	  x1=0x80000758
        5445000	       543	00000000	00000013	addi	x0,x0,0	  x0:0x00000000
        5455000	       544	80000750	00000013	addi	x0,x0,0	  x0:0x00000000
        5465000	       545	80000754	00c0016f	jal	x2,80000754	  x2=0x80000754
        5475000	       546	00000000	00000013	addi	x0,x0,0	  x0:0x00000000
        5485000	       547	8000075c	00000013	addi	x0,x0,0	  x0:0x00000000
        5495000	       548	80000760	fe5ff36f	jal	x6,80000760	  x6=0x80000760
        5505000	       549	00000000	00000013	addi	x0,x0,0	  x0:0x00000000
        5515000	       550	80000740	00000013	addi	x0,x0,0	  x0:0x00000000
        5525000	       551	80000744	020000ef	jal	x1,80000744	  x1=0x80000744
        5535000	       552	00000000	00000013	addi	x0,x0,0	  x0:0x00000000
        5545000	       553	80000760	00000013	addi	x0,x0,0	  x0:0x00000000
        5555000	       554	80000764	019af9b3	and	x19,x21,x25	 x21:0x80000748 x25:0x80009fc4 x19=0x80000740
        5565000	       555	80000768	048000ef	jal	x1,80000768	  x1=0x80000768
        5575000	       556	00000000	00000013	addi	x0,x0,0	  x0:0x00000000
        5585000	       557	800007ac	00000013	addi	x0,x0,0	  x0:0x00000000
        5595000	       558	800007b0	008000ef	jal	x1,800007b0	  x1=0x800007b0
        5605000	       559	00000000	00000013	addi	x0,x0,0	  x0:0x00000000
        5615000	       560	800007b4	00000013	addi	x0,x0,0	  x0:0x00000000
        5625000	       561	800007b8	fc1ff0ef	jal	x1,800007b8	  x1=0x800007b8
        5635000	       562	00000000	00000013	addi	x0,x0,0	  x0:0x00000000
        5645000	       563	80000774	00000013	addi	x0,x0,0	  x0:0x00000000
        5655000	       564	80000778	02c000ef	jal	x1,80000778	  x1=0x80000778
        5665000	       565	00000000	00000013	addi	x0,x0,0	  x0:0x00000000
        5675000	       566	800007a0	00000013	addi	x0,x0,0	  x0:0x00000000
        5685000	       567	800007a4	fddff0ef	jal	x1,800007a4	  x1=0x800007a4
        5695000	       568	00000000	00000013	addi	x0,x0,0	  x0:0x00000000
        5705000	       569	8000077c	00000013	addi	x0,x0,0	  x0:0x00000000
        5715000	       570	80000780	03400c6f	jal	x24,80000780	 x24=0x80000780
        5725000	       571	00000000	00000013	addi	x0,x0,0	  x0:0x00000000
        5735000	       572	800007b0	00000013	addi	x0,x0,0	  x0:0x00000000
        5745000	       573	800007b4	fd5ff0ef	jal	x1,800007b4	  x1=0x800007b4
        5755000	       574	00000000	00000013	addi	x0,x0,0	  x0:0x00000000
        5765000	       575	80000784	00000013	addi	x0,x0,0	  x0:0x00000000
        5775000	       576	80000788	ff5ff3ef	jal	x7,80000788	  x7=0x80000788
        5785000	       577	00000000	00000013	addi	x0,x0,0	  x0:0x00000000
        5795000	       578	80000778	00000013	addi	x0,x0,0	  x0:0x00000000
        5805000	       579	8000077c	040000ef	jal	x1,8000077c	  x1=0x8000077c
        5815000	       580	00000000	00000013	addi	x0,x0,0	  x0:0x00000000
        5825000	       581	800007b8	00000013	addi	x0,x0,0	  x0:0x00000000
        5835000	       582	800007bc	fb1ff0ef	jal	x1,800007bc	  x1=0x800007bc
        5845000	       583	00000000	00000013	addi	x0,x0,0	  x0:0x00000000
        5855000	       584	80000768	00000013	addi	x0,x0,0	  x0:0x00000000
        5865000	       585	8000076c	0300036f	jal	x6,8000076c	  x6=0x8000076c
        5875000	       586	00000000	00000013	addi	x0,x0,0	  x0:0x00000000
        5885000	       587	80000798	00000013	addi	x0,x0,0	  x0:0x00000000
        5895000	       588	8000079c	ff1ff36f	jal	x6,8000079c	  x6=0x8000079c
        5905000	       589	00000000	00000013	addi	x0,x0,0	  x0:0x00000000
        5915000	       590	80000788	00000013	addi	x0,x0,0	  x0:0x00000000
        5925000	       591	8000078c	014000ef	jal	x1,8000078c	  x1=0x8000078c
        5935000	       592	00000000	00000013	addi	x0,x0,0	  x0:0x00000000
        5945000	       593	8000079c	00000013	addi	x0,x0,0	  x0:0x00000000
        5955000	       594	800007a0	fd1ff0ef	jal	x1,800007a0	  x1=0x800007a0
        5965000	       595	00000000	00000013	addi	x0,x0,0	  x0:0x00000000
        5975000	       596	8000076c	00000013	addi	x0,x0,0	  x0:0x00000000
        5985000	       597	80000770	0500066f	jal	x12,80000770	 x12=0x80000770
        5995000	       598	00000000	00000013	addi	x0,x0,0	  x0:0x00000000
        6005000	       599	800007bc	00000013	addi	x0,x0,0	  x0:0x00000000
        6015000	       600	800007c0	fb5ff36f	jal	x6,800007c0	  x6=0x800007c0
        6025000	       601	00000000	00000013	addi	x0,x0,0	  x0:0x00000000
        6035000	       602	80000770	00000013	addi	x0,x0,0	  x0:0x00000000
        6045000	       603	80000774	034001ef	jal	x3,80000774	  x3=0x80000774
        6055000	       604	00000000	00000013	addi	x0,x0,0	  x0:0x00000000
        6065000	       605	800007a4	00000013	addi	x0,x0,0	  x0:0x00000000
        6075000	       606	800007a8	0040036f	jal	x6,800007a8	  x6=0x800007a8
        6085000	       607	00000000	00000013	addi	x0,x0,0	  x0:0x00000000
        6095000	       608	800007a8	00000013	addi	x0,x0,0	  x0:0x00000000
        6105000	       609	800007ac	fedffaef	jal	x21,800007ac	 x21=0x800007ac
        6115000	       610	00000000	00000013	addi	x0,x0,0	  x0:0x00000000
        6125000	       611	80000794	00000013	addi	x0,x0,0	  x0:0x00000000
        6135000	       612	80000798	ffdff2ef	jal	x5,80000798	  x5=0x80000798
        6145000	       613	00000000	00000013	addi	x0,x0,0	  x0:0x00000000
        6155000	       614	80000790	00000013	addi	x0,x0,0	  x0:0x00000000
        6165000	       615	80000794	ffdff0ef	jal	x1,80000794	  x1=0x80000794
        6175000	       616	00000000	00000013	addi	x0,x0,0	  x0:0x00000000
        6185000	       617	8000078c	00000013	addi	x0,x0,0	  x0:0x00000000
        6195000	       618	80000790	ff5ff26f	jal	x4,80000790	  x4=0x80000790
        6205000	       619	00000000	00000013	addi	x0,x0,0	  x0:0x00000000
        6215000	       620	80000780	00000013	addi	x0,x0,0	  x0:0x00000000
        6225000	       621	80000784	040000ef	jal	x1,80000784	  x1=0x80000784
        6235000	       622	00000000	00000013	addi	x0,x0,0	  x0:0x00000000
        6245000	       623	800007c0	00000013	addi	x0,x0,0	  x0:0x00000000
        6255000	       624	800007c4	004000ef	jal	x1,800007c4	  x1=0x800007c4
        6265000	       625	00000000	00000013	addi	x0,x0,0	  x0:0x00000000
        6275000	       626	800007c4	00000013	addi	x0,x0,0	  x0:0x00000000
        6285000	       627	800007c8	00615213	srli	x4,x2,0x6	  x2:0x80000754  x4=0x0200001d
        6295000	       628	800007cc	01509d33	sll	x26,x1,x21	  x1:0x800007c4 x21:0x800007ac x26=0x007c4000
        6305000	       629	800007d0	00930a33	add	x20,x6,x9	  x6:0x800007a8  x9:0x00000716 x20=0x80000ebe
        6315000	       630	800007d4	03d8ee63	bltu	x17,x29,80000810	 x17:0x800005f0 x29:0x0000071d
        6325000	       631	800007d8	9b18c293	xori	x5,x17,-1615	 x17:0x800005f0  x5=0x7ffffc41
        6335000	       632	800007dc	3e7acf13	xori	x30,x21,999	 x21:0x800007ac x30=0x8000044b
        6345000	       633	800007e0	019b1933	sll	x18,x22,x25	 x22:0x80000704 x25:0x80009fc4 x18=0x00007040
        6355000	       634	800007e4	00000013	addi	x0,x0,0	  x0:0x00000000
        6365000	       635	800007e8	00000013	addi	x0,x0,0	  x0:0x00000000
        6375000	       636	800007ec	ef656093	ori	x1,x10,-266	 x10:0x00000003  x1=0xfffffef7
        6385000	       637	800007f0	0267d063	bge	x15,x6,80000810	 x15:0x80000684  x6:0x800007a8
        6395000	       638	800007f4	0182e663	bltu	x5,x24,80000800	  x5:0x7ffffc41 x24:0x80000780
        6405000	       639	00000000	00000013	addi	x0,x0,0	  x0:0x00000000
        6415000	       640	800007fc	00000013	addi	x0,x0,0	  x0:0x00000000
        6425000	       641	80000800	00b2eab3	or	x21,x5,x11	  x5:0x7ffffc41 x11:0x00000004 x21=0x7ffffc45
        6435000	       642	80000804	41e3da93	srai	x21,x7,0x1e	  x7:0x80000788 x21=0xfffffffe
        6445000	       643	80000808	007bac33	slt	x24,x23,x7	 x23:0x8000053c  x7:0x80000788 x24=0x00000001
        6455000	       644	8000080c	00ea1463	bne	x20,x14,80000814	 x20:0x80000ebe x14:0x80000714
        6465000	       645	00000000	00000013	addi	x0,x0,0	  x0:0x00000000
        6475000	       646	80000810	00000013	addi	x0,x0,0	  x0:0x00000000
        6485000	       647	80000814	0185c263	blt	x11,x24,80000818	 x11:0x00000004 x24:0x00000001
        6495000	       648	80000818	aee8e797	auipc	x15,0xaee8e	 x15=0x2ee8e814
        6505000	       649	8000081c	00df5033	srl	x0,x30,x13	 x30:0x8000044b x13:0x80000004
        6515000	       650	80000820	418f5e93	srai	x29,x30,0x18	 x30:0x8000044b x29=0xffffff80
        6525000	       651	80000824	01051093	slli	x1,x10,0x10	 x10:0x00000003  x1=0x00030000
        6535000	       652	80000828	41cc5c13	srai	x24,x24,0x1c	 x24:0x00000001 x24=0x00000000
        6545000	       653	8000082c	0262da63	bge	x5,x6,80000860	  x5:0x7ffffc41  x6:0x800007a8
        6555000	       654	00000000	00000013	addi	x0,x0,0	  x0:0x00000000
        6565000	       655	8000085c	00000013	addi	x0,x0,0	  x0:0x00000000
        6575000	       656	80000860	01ef2133	slt	x2,x30,x30	 x30:0x8000044b x30:0x8000044b  x2=0x00000000
        6585000	       657	80000864	33d0e997	auipc	x19,0x33d0e	 x19=0xb3d0e860
        6595000	       658	80000868	03160463	beq	x12,x17,80000890	 x12:0x80000770 x17:0x800005f0
        6605000	       659	8000086c	017dfc33	and	x24,x27,x23	 x27:0x80000624 x23:0x8000053c x24=0x80000424
        6615000	       660	80000870	00000013	addi	x0,x0,0	  x0:0x00000000
        6625000	       661	80000874	41d10b33	sub	x22,x2,x29	  x2:0x00000000 x29:0xffffff80 x22=0x00000080
        6635000	       662	80000878	40b25eb3	sra	x29,x4,x11	  x4:0x0200001d x11:0x00000004 x29=0x00200001
        6645000	       663	8000087c	ea219617	auipc	x12,0xea219	 x12=0x6a219878
        6655000	       664	80000880	805eea93	ori	x21,x29,-2043	 x29:0x00200001 x21=0xfffff805
        6665000	       665	80000884	01bd9413	slli	x8,x27,0x1b	 x27:0x80000624  x8=0x20000000
        6675000	       666	80000888	00000013	addi	x0,x0,0	  x0:0x00000000
        6685000	       667	8000088c	00ad97b3	sll	x15,x27,x10	 x27:0x80000624 x10:0x00000003 x15=0x00003120
        6695000	       668	80000890	003396b3	sll	x13,x7,x3	  x7:0x80000788  x3:0x80000774 x13=0x78800000
        6705000	       669	80000894	015a9b13	slli	x22,x21,0x15	 x21:0xfffff805 x22=0x00a00000
        6715000	       670	80000898	03f8ca63	blt	x17,x31,800008cc	 x17:0x800005f0 x31:0x80000000
        6725000	       671	8000089c	41ced5b3	sra	x11,x29,x28	 x29:0x00200001 x28:0x80000620 x11=0x00200001
        6735000	       672	800008a0	00000013	addi	x0,x0,0	  x0:0x00000000
        6745000	       673	800008a4	02474063	blt	x14,x4,800008c4	 x14:0x80000714  x4:0x0200001d
        6755000	       674	00000000	00000013	addi	x0,x0,0	  x0:0x00000000
        6765000	       675	800008c0	00000013	addi	x0,x0,0	  x0:0x00000000
        6775000	       676	800008c4	41e50f33	sub	x30,x10,x30	 x10:0x00000003 x30:0x8000044b x30=0x7ffffbb8
        6785000	       677	800008c8	01d963b3	or	x7,x18,x29	 x18:0x00007040 x29:0x00200001  x7=0x00207041
        6795000	       678	800008cc	4133de33	sra	x28,x7,x19	  x7:0x00207041 x19:0xb3d0e860 x28=0x00207041
        6805000	       679	800008d0	11bc4893	xori	x17,x24,283	 x24:0x80000424 x17=0x8000053f
        6815000	       680	800008d4	00000013	addi	x0,x0,0	  x0:0x00000000
        6825000	       681	800008d8	00000013	addi	x0,x0,0	  x0:0x00000000
        6835000	       682	800008dc	18e20613	addi	x12,x4,398	  x4:0x0200001d x12=0x020001ab
        6845000	       683	800008e0	40cb2013	slti	x0,x22,1036	 x22:0x00a00000
        6855000	       684	800008e4	40ad0eb3	sub	x29,x26,x10	 x26:0x007c4000 x10:0x00000003 x29=0x007c3ffd
        6865000	       685	800008e8	40888db3	sub	x27,x17,x8	 x17:0x8000053f  x8:0x20000000 x27=0x6000053f
        6875000	       686	800008ec	415c5893	srai	x17,x24,0x15	 x24:0x80000424 x17=0xfffffc00
        6885000	       687	800008f0	01b7c193	xori	x3,x15,27	 x15:0x00003120  x3=0x0000313b
        6895000	       688	800008f4	40675293	srai	x5,x14,0x6	 x14:0x80000714  x5=0xfe00001c
        6905000	       689	800008f8	059ff663	bgeu	x31,x25,80000944	 x31:0x80000000 x25:0x80009fc4
        6915000	       690	800008fc	01ee2a33	slt	x20,x28,x30	 x28:0x00207041 x30:0x7ffffbb8 x20=0x00000001
        6925000	       691	80000900	02a0fc63	bgeu	x1,x10,80000938	  x1:0x00030000 x10:0x00000003
        6935000	       692	00000000	00000013	addi	x0,x0,0	  x0:0x00000000
        6945000	       693	80000934	00000013	addi	x0,x0,0	  x0:0x00000000
        6955000	       694	80000938	00624a63	blt	x4,x6,8000094c	  x4:0x0200001d  x6:0x800007a8
        6965000	       695	8000093c	4d412013	slti	x0,x2,1236	  x2:0x00000000
        6975000	       696	80000940	eaf1ce93	xori	x29,x3,-337	  x3:0x0000313b x29=0xffffcf94
        6985000	       697	80000944	59cfe737	lui	x14,0x59cfe	 x14=0x59cfe000
        6995000	       698	80000948	ae337d13	andi	x26,x6,-1309	  x6:0x800007a8 x26=0x800002a0
        7005000	       699	8000094c	1ac1fc37	lui	x24,0x1ac1f	 x24=0x1ac1f000
        7015000	       700	80000950	32c54193	xori	x3,x10,812	 x10:0x00000003  x3=0x0000032f
        7025000	       701	80000954	004239b3	sltu	x19,x4,x4	  x4:0x0200001d  x4:0x0200001d x19=0x00000000
        7035000	       702	80000958	3636f513	andi	x10,x13,867	 x13:0x78800000 x10=0x00000000
        7045000	       703	8000095c	63a3cb13	xori	x22,x7,1594	  x7:0x00207041 x22=0x0020767b
        7055000	       704	80000960	cebfb393	sltiu	x7,x31,-789	 x31:0x80000000  x7=0x00000001
        7065000	       705	80000964	00995013	srli	x0,x18,0x9	 x18:0x00007040
        7075000	       706	80000968	31007f13	andi	x30,x0,784	  x0:0x00000000 x30=0x00000000
        7085000	       707	8000096c	dbd4fa93	andi	x21,x9,-579	  x9:0x00000716 x21=0x00000514
        7095000	       708	80000970	00000013	addi	x0,x0,0	  x0:0x00000000
        7105000	       709	80000974	011896b3	sll	x13,x17,x17	 x17:0xfffffc00 x17:0xfffffc00 x13=0xfffffc00
        7115000	       710	80000978	41e4db93	srai	x23,x9,0x1e	  x9:0x00000716 x23=0x00000000
        7125000	       711	8000097c	407b5a13	srai	x20,x22,0x7	 x22:0x0020767b x20=0x000040ec
        7135000	       712	80000980	31463ab7	lui	x21,0x31463	 x21=0x31463000
        7145000	       713	80000984	00798263	beq	x19,x7,80000988	 x19:0x00000000  x7:0x00000001
        7155000	       714	80000988	0071fe33	and	x28,x3,x7	  x3:0x0000032f  x7:0x00000001 x28=0x00000001
        7165000	       715	8000098c	01435733	srl	x14,x6,x20	  x6:0x800007a8 x20:0x000040ec x14=0x00080000
        7175000	       716	80000990	010cd193	srli	x3,x25,0x10	 x25:0x80009fc4  x3=0x00008000
        7185000	       717	80000994	01dbf433	and	x8,x23,x29	 x23:0x00000000 x29:0xffffcf94  x8=0x00000000
        7195000	       718	80000998	00c8f933	and	x18,x17,x12	 x17:0xfffffc00 x12:0x020001ab x18=0x02000000
        7205000	       719	8000099c	83220793	addi	x15,x4,-1998	  x4:0x0200001d x15=0x01fff84f
        7215000	       720	800009a0	a123a493	slti	x9,x7,-1518	  x7:0x00000001  x9=0x00000000
        7225000	       721	800009a4	01173533	sltu	x10,x14,x17	 x14:0x00080000 x17:0xfffffc00 x10=0x00000001
        7235000	       722	800009a8	4134da93	srai	x21,x9,0x13	  x9:0x00000000 x21=0x00000000
        7245000	       723	800009ac	00000013	addi	x0,x0,0	  x0:0x00000000
        7255000	       724	800009b0	655d7e93	andi	x29,x26,1621	 x26:0x800002a0 x29=0x00000200
        7265000	       725	800009b4	0e9c6897	auipc	x17,0xe9c6	 x17=0x8e9c69b0
        7275000	       726	800009b8	0119a5b3	slt	x11,x19,x17	 x19:0x00000000 x17:0x8e9c69b0 x11=0x00000000
        7285000	       727	800009bc	014000ef	jal	x1,800009bc	  x1=0x800009bc
        7295000	       728	00000000	00000013	addi	x0,x0,0	  x0:0x00000000
        7305000	       729	800009cc	00000013	addi	x0,x0,0	  x0:0x00000000
        7315000	       730	800009d0	010000ef	jal	x1,800009d0	  x1=0x800009d0
        7325000	       731	00000000	00000013	addi	x0,x0,0	  x0:0x00000000
        7335000	       732	800009dc	00000013	addi	x0,x0,0	  x0:0x00000000
        7345000	       733	800009e0	fe1ff0ef	jal	x1,800009e0	  x1=0x800009e0
        7355000	       734	00000000	00000013	addi	x0,x0,0	  x0:0x00000000
        7365000	       735	800009bc	00000013	addi	x0,x0,0	  x0:0x00000000
        7375000	       736	800009c0	008000ef	jal	x1,800009c0	  x1=0x800009c0
        7385000	       737	00000000	00000013	addi	x0,x0,0	  x0:0x00000000
        7395000	       738	800009c4	00000013	addi	x0,x0,0	  x0:0x00000000
        7405000	       739	800009c8	004000ef	jal	x1,800009c8	  x1=0x800009c8
        7415000	       740	00000000	00000013	addi	x0,x0,0	  x0:0x00000000
        7425000	       741	800009c8	00000013	addi	x0,x0,0	  x0:0x00000000
        7435000	       742	800009cc	034000ef	jal	x1,800009cc	  x1=0x800009cc
        7445000	       743	00000000	00000013	addi	x0,x0,0	  x0:0x00000000
        7455000	       744	800009fc	00000013	addi	x0,x0,0	  x0:0x00000000
        7465000	       745	80000a00	ff1ff0ef	jal	x1,80000a00	  x1=0x80000a00
        7475000	       746	00000000	00000013	addi	x0,x0,0	  x0:0x00000000
        7485000	       747	800009ec	00000013	addi	x0,x0,0	  x0:0x00000000
        7495000	       748	800009f0	008002ef	jal	x5,800009f0	  x5=0x800009f0
        7505000	       749	00000000	00000013	addi	x0,x0,0	  x0:0x00000000
        7515000	       750	800009f4	00000013	addi	x0,x0,0	  x0:0x00000000
        7525000	       751	800009f8	0040036f	jal	x6,800009f8	  x6=0x800009f8
        7535000	       752	00000000	00000013	addi	x0,x0,0	  x0:0x00000000
        7545000	       753	800009f8	00000013	addi	x0,x0,0	  x0:0x00000000
        7555000	       754	800009fc	fddff0ef	jal	x1,800009fc	  x1=0x800009fc
        7565000	       755	00000000	00000013	addi	x0,x0,0	  x0:0x00000000
        7575000	       756	800009d4	00000013	addi	x0,x0,0	  x0:0x00000000
        7585000	       757	800009d8	fedff0ef	jal	x1,800009d8	  x1=0x800009d8
        7595000	       758	00000000	00000013	addi	x0,x0,0	  x0:0x00000000
        7605000	       759	800009c0	00000013	addi	x0,x0,0	  x0:0x00000000
        7615000	       760	800009c4	0300036f	jal	x6,800009c4	  x6=0x800009c4
        7625000	       761	00000000	00000013	addi	x0,x0,0	  x0:0x00000000
        7635000	       762	800009f0	00000013	addi	x0,x0,0	  x0:0x00000000
        7645000	       763	800009f4	ff1ff0ef	jal	x1,800009f4	  x1=0x800009f4
        7655000	       764	00000000	00000013	addi	x0,x0,0	  x0:0x00000000
        7665000	       765	800009e0	00000013	addi	x0,x0,0	  x0:0x00000000
        7675000	       766	800009e4	ff1fff6f	jal	x30,800009e4	 x30=0x800009e4
        7685000	       767	00000000	00000013	addi	x0,x0,0	  x0:0x00000000
        7695000	       768	800009d0	00000013	addi	x0,x0,0	  x0:0x00000000
        7705000	       769	800009d4	008000ef	jal	x1,800009d4	  x1=0x800009d4
        7715000	       770	00000000	00000013	addi	x0,x0,0	  x0:0x00000000
        7725000	       771	800009d8	00000013	addi	x0,x0,0	  x0:0x00000000
        7735000	       772	800009dc	0100026f	jal	x4,800009dc	  x4=0x800009dc
        7745000	       773	00000000	00000013	addi	x0,x0,0	  x0:0x00000000
        7755000	       774	800009e8	00000013	addi	x0,x0,0	  x0:0x00000000
        7765000	       775	800009ec	ffdff36f	jal	x6,800009ec	  x6=0x800009ec
        7775000	       776	00000000	00000013	addi	x0,x0,0	  x0:0x00000000
        7785000	       777	800009e4	00000013	addi	x0,x0,0	  x0:0x00000000
        7795000	       778	800009e8	01c000ef	jal	x1,800009e8	  x1=0x800009e8
        7805000	       779	00000000	00000013	addi	x0,x0,0	  x0:0x00000000
        7815000	       780	80000a00	00000013	addi	x0,x0,0	  x0:0x00000000
        7825000	       781	80000a04	01b3ebb3	or	x23,x7,x27	  x7:0x00000001 x27:0x6000053f x23=0x6000053f
        7835000	       782	80000a08	001de5b3	or	x11,x27,x1	 x27:0x6000053f  x1:0x800009e8 x11=0xe0000dff
        7845000	       783	80000a0c	0305f663	bgeu	x11,x16,80000a38	 x11:0xe0000dff x16:0x80009f4c
        7855000	       784	00000000	00000013	addi	x0,x0,0	  x0:0x00000000
        7865000	       785	80000a34	00000013	addi	x0,x0,0	  x0:0x00000000
        7875000	       786	80000a38	001d1113	slli	x2,x26,0x1	 x26:0x800002a0  x2=0x00000540
        7885000	       787	80000a3c	358beb93	ori	x23,x23,856	 x23:0x6000053f x23=0x6000077f
        7895000	       788	80000a40	989be413	ori	x8,x23,-1655	 x23:0x6000077f  x8=0xffffffff
        7905000	       789	80000a44	01db1a13	slli	x20,x22,0x1d	 x22:0x0020767b x20=0x60000000
        7915000	       790	80000a48	61b3a093	slti	x1,x7,1563	  x7:0x00000001  x1=0x00000001
        7925000	       791	80000a4c	00085263	bge	x16,x0,80000a50	 x16:0x80009f4c  x0:0x00000000
        7935000	       792	80000a50	5cce5317	auipc	x6,0x5cce5	  x6=0xdcce5a4c
        7945000	       793	80000a54	25dc4293	xori	x5,x24,605	 x24:0x1ac1f000  x5=0x1ac1f25d
        7955000	       794	80000a58	0121c8b3	xor	x17,x3,x18	  x3:0x00008000 x18:0x02000000 x17=0x02008000
        7965000	       795	80000a5c	05e04863	blt	x0,x30,80000aac	  x0:0x00000000 x30:0x800009e4
        7975000	       796	80000a60	01558a63	beq	x11,x21,80000a74	 x11:0xe0000dff x21:0x00000000
        7985000	       797	80000a64	001430b3	sltu	x1,x8,x1	  x8:0xffffffff  x1:0x00000001  x1=0x00000000
        7995000	       798	80000a68	41245c33	sra	x24,x8,x18	  x8:0xffffffff x18:0x02000000 x24=0xffffffff
        8005000	       799	80000a6c	0461e263	bltu	x3,x6,80000ab0	  x3:0x00008000  x6:0xdcce5a4c
        8015000	       800	00000000	00000013	addi	x0,x0,0	  x0:0x00000000
        8025000	       801	80000aac	00000013	addi	x0,x0,0	  x0:0x00000000
        8035000	       802	80000ab0	00000013	addi	x0,x0,0	  x0:0x00000000
        8045000	       803	80000ab4	01c3cc63	blt	x7,x28,80000acc	  x7:0x00000001 x28:0x00000001
        8055000	       804	80000ab8	40cfda13	srai	x20,x31,0xc	 x31:0x80000000 x20=0xfff80000
        8065000	       805	80000abc	40b5d013	srai	x0,x11,0xb	 x11:0xe0000dff
        8075000	       806	80000ac0	01ba9933	sll	x18,x21,x27	 x21:0x00000000 x27:0x6000053f x18=0x00000000
        8085000	       807	80000ac4	004b9333	sll	x6,x23,x4	 x23:0x6000077f  x4:0x800009dc  x6=0xf0000000
        8095000	       808	80000ac8	02c06463	bltu	x0,x12,80000af0	  x0:0x00000000 x12:0x020001ab
        8105000	       809	00000000	00000013	addi	x0,x0,0	  x0:0x00000000
        8115000	       810	80000aec	00000013	addi	x0,x0,0	  x0:0x00000000
        8125000	       811	80000af0	00000013	addi	x0,x0,0	  x0:0x00000000
        8135000	       812	80000af4	40095993	srai	x19,x18,0x0	 x18:0x00000000 x19=0x00000000
        8145000	       813	80000af8	0139cb33	xor	x22,x19,x19	 x19:0x00000000 x19:0x00000000 x22=0x00000000
        8155000	       814	80000afc	a8645637	lui	x12,0xa8645	 x12=0xa8645000
        8165000	       815	80000b00	01bbef33	or	x30,x23,x27	 x23:0x6000077f x27:0x6000053f x30=0x6000077f
        8175000	       816	80000b04	df2ea213	slti	x4,x29,-526	 x29:0x00000200  x4=0x00000000
        8185000	       817	80000b08	00e97d33	and	x26,x18,x14	 x18:0x00000000 x14:0x00080000 x26=0x00000000
        8195000	       818	80000b0c	014000ef	jal	x1,80000b0c	  x1=0x80000b0c
        8205000	       819	00000000	00000013	addi	x0,x0,0	  x0:0x00000000
        8215000	       820	80000b1c	00000013	addi	x0,x0,0	  x0:0x00000000
        8225000	       821	80000b20	0380036f	jal	x6,80000b20	  x6=0x80000b20
        8235000	       822	00000000	00000013	addi	x0,x0,0	  x0:0x00000000
        8245000	       823	80000b54	00000013	addi	x0,x0,0	  x0:0x00000000
        8255000	       824	80000b58	ff9ff0ef	jal	x1,80000b58	  x1=0x80000b58
        8265000	       825	00000000	00000013	addi	x0,x0,0	  x0:0x00000000
        8275000	       826	80000b4c	00000013	addi	x0,x0,0	  x0:0x00000000
        8285000	       827	80000b50	fedff0ef	jal	x1,80000b50	  x1=0x80000b50
        8295000	       828	00000000	00000013	addi	x0,x0,0	  x0:0x00000000
        8305000	       829	80000b38	00000013	addi	x0,x0,0	  x0:0x00000000
        8315000	       830	80000b3c	024000ef	jal	x1,80000b3c	  x1=0x80000b3c
        8325000	       831	00000000	00000013	addi	x0,x0,0	  x0:0x00000000
        8335000	       832	80000b5c	00000013	addi	x0,x0,0	  x0:0x00000000
        8345000	       833	80000b60	ff5ffe6f	jal	x28,80000b60	 x28=0x80000b60
        8355000	       834	00000000	00000013	addi	x0,x0,0	  x0:0x00000000
        8365000	       835	80000b50	00000013	addi	x0,x0,0	  x0:0x00000000
        8375000	       836	80000b54	ff1ff0ef	jal	x1,80000b54	  x1=0x80000b54
        8385000	       837	00000000	00000013	addi	x0,x0,0	  x0:0x00000000
        8395000	       838	80000b40	00000013	addi	x0,x0,0	  x0:0x00000000
        8405000	       839	80000b44	0080036f	jal	x6,80000b44	  x6=0x80000b44
        8415000	       840	00000000	00000013	addi	x0,x0,0	  x0:0x00000000
        8425000	       841	80000b48	00000013	addi	x0,x0,0	  x0:0x00000000
        8435000	       842	80000b4c	fcdff36f	jal	x6,80000b4c	  x6=0x80000b4c
        8445000	       843	00000000	00000013	addi	x0,x0,0	  x0:0x00000000
        8455000	       844	80000b14	00000013	addi	x0,x0,0	  x0:0x00000000
        8465000	       845	80000b18	018000ef	jal	x1,80000b18	  x1=0x80000b18
        8475000	       846	00000000	00000013	addi	x0,x0,0	  x0:0x00000000
        8485000	       847	80000b2c	00000013	addi	x0,x0,0	  x0:0x00000000
        8495000	       848	80000b30	ff9ffa6f	jal	x20,80000b30	 x20=0x80000b30
        8505000	       849	00000000	00000013	addi	x0,x0,0	  x0:0x00000000
        8515000	       850	80000b24	00000013	addi	x0,x0,0	  x0:0x00000000
        8525000	       851	80000b28	fedff36f	jal	x6,80000b28	  x6=0x80000b28
        8535000	       852	00000000	00000013	addi	x0,x0,0	  x0:0x00000000
        8545000	       853	80000b10	00000013	addi	x0,x0,0	  x0:0x00000000
        8555000	       854	80000b14	ffdff0ef	jal	x1,80000b14	  x1=0x80000b14
        8565000	       855	00000000	00000013	addi	x0,x0,0	  x0:0x00000000
        8575000	       856	80000b0c	00000013	addi	x0,x0,0	  x0:0x00000000
        8585000	       857	80000b10	01400aef	jal	x21,80000b10	 x21=0x80000b10
        8595000	       858	00000000	00000013	addi	x0,x0,0	  x0:0x00000000
        8605000	       859	80000b20	00000013	addi	x0,x0,0	  x0:0x00000000
        8615000	       860	80000b24	ff9ffeef	jal	x29,80000b24	 x29=0x80000b24
        8625000	       861	00000000	00000013	addi	x0,x0,0	  x0:0x00000000
        8635000	       862	80000b18	00000013	addi	x0,x0,0	  x0:0x00000000
        8645000	       863	80000b1c	02c002ef	jal	x5,80000b1c	  x5=0x80000b1c
        8655000	       864	00000000	00000013	addi	x0,x0,0	  x0:0x00000000
        8665000	       865	80000b44	00000013	addi	x0,x0,0	  x0:0x00000000
        8675000	       866	80000b48	ff1ff0ef	jal	x1,80000b48	  x1=0x80000b48
        8685000	       867	00000000	00000013	addi	x0,x0,0	  x0:0x00000000
        8695000	       868	80000b34	00000013	addi	x0,x0,0	  x0:0x00000000
        8705000	       869	80000b38	ffdff96f	jal	x18,80000b38	 x18=0x80000b38
        8715000	       870	00000000	00000013	addi	x0,x0,0	  x0:0x00000000
        8725000	       871	80000b30	00000013	addi	x0,x0,0	  x0:0x00000000
        8735000	       872	80000b34	00c000ef	jal	x1,80000b34	  x1=0x80000b34
        8745000	       873	00000000	00000013	addi	x0,x0,0	  x0:0x00000000
        8755000	       874	80000b3c	00000013	addi	x0,x0,0	  x0:0x00000000
        8765000	       875	80000b40	01c000ef	jal	x1,80000b40	  x1=0x80000b40
        8775000	       876	00000000	00000013	addi	x0,x0,0	  x0:0x00000000
        8785000	       877	80000b58	00000013	addi	x0,x0,0	  x0:0x00000000
        8795000	       878	80000b5c	fd1ff0ef	jal	x1,80000b5c	  x1=0x80000b5c
        8805000	       879	00000000	00000013	addi	x0,x0,0	  x0:0x00000000
        8815000	       880	80000b28	00000013	addi	x0,x0,0	  x0:0x00000000
        8825000	       881	80000b2c	0380036f	jal	x6,80000b2c	  x6=0x80000b2c
        8835000	       882	00000000	00000013	addi	x0,x0,0	  x0:0x00000000
        8845000	       883	80000b60	00000013	addi	x0,x0,0	  x0:0x00000000
        8855000	       884	80000b64	00bc4bb3	xor	x23,x24,x11	 x24:0xffffffff x11:0xe0000dff x23=0x1ffff200
        8865000	       885	80000b68	01771c13	slli	x24,x14,0x17	 x14:0x00080000 x24=0x00000000
        8875000	       886	80000b6c	4e0e2d37	lui	x26,0x4e0e2	 x26=0x4e0e2000
        8885000	       887	80000b70	9acfa1b7	lui	x3,0x9acfa	  x3=0x9acfa000
        8895000	       888	80000b74	002dbf33	sltu	x30,x27,x2	 x27:0x6000053f  x2:0x00000540 x30=0x00000000
        8905000	       889	80000b78	279c4013	xori	x0,x24,633	 x24:0x00000000
        8915000	       890	80000b7c	0146f1b3	and	x3,x13,x20	 x13:0xfffffc00 x20:0x80000b30  x3=0x80000800
        8925000	       891	80000b80	412f8eb3	sub	x29,x31,x18	 x31:0x80000000 x18:0x80000b38 x29=0xfffff4c8
        8935000	       892	80000b84	0119a1b3	slt	x3,x19,x17	 x19:0x00000000 x17:0x02008000  x3=0x00000001
        8945000	       893	80000b88	03fdfc63	bgeu	x27,x31,80000bc0	 x27:0x6000053f x31:0x80000000
        8955000	       894	80000b8c	012f1213	slli	x4,x30,0x12	 x30:0x00000000  x4=0x00000000
        8965000	       895	80000b90	66cd2593	slti	x11,x26,1644	 x26:0x4e0e2000 x11=0x00000000
        8975000	       896	80000b94	00721913	slli	x18,x4,0x7	  x4:0x00000000 x18=0x00000000
        8985000	       897	80000b98	00fdae33	slt	x28,x27,x15	 x27:0x6000053f x15:0x01fff84f x28=0x00000000
        8995000	       898	80000b9c	01dbf9b3	and	x19,x23,x29	 x23:0x1ffff200 x29:0xfffff4c8 x19=0x1ffff000
        9005000	       899	80000ba0	01a77f33	and	x30,x14,x26	 x14:0x00080000 x26:0x4e0e2000 x30=0x00080000
        9015000	       900	80000ba4	0020ee33	or	x28,x1,x2	  x1:0x80000b5c  x2:0x00000540 x28=0x80000f5c
        9025000	       901	80000ba8	01cfea63	bltu	x31,x28,80000bbc	 x31:0x80000000 x28:0x80000f5c
        9035000	       902	00000000	00000013	addi	x0,x0,0	  x0:0x00000000
        9045000	       903	80000bb8	00000013	addi	x0,x0,0	  x0:0x00000000
        9055000	       904	80000bbc	03cf5a63	bge	x30,x28,80000bf0	 x30:0x00080000 x28:0x80000f5c
        9065000	       905	00000000	00000013	addi	x0,x0,0	  x0:0x00000000
        9075000	       906	80000bec	00000013	addi	x0,x0,0	  x0:0x00000000
        9085000	       907	80000bf0	4185db33	sra	x22,x11,x24	 x11:0x00000000 x24:0x00000000 x22=0x00000000
        9095000	       908	80000bf4	2ccf2c13	slti	x24,x30,716	 x30:0x00080000 x24=0x00000000
        9105000	       909	80000bf8	61ef2a93	slti	x21,x30,1566	 x30:0x00080000 x21=0x00000000
        9115000	       910	80000bfc	00000013	addi	x0,x0,0	  x0:0x00000000
        9125000	       911	80000c00	02a84a63	blt	x16,x10,80000c34	 x16:0x80009f4c x10:0x00000001
        9135000	       912	00000000	00000013	addi	x0,x0,0	  x0:0x00000000
        9145000	       913	80000c30	00000013	addi	x0,x0,0	  x0:0x00000000
        9155000	       914	80000c34	013f8133	add	x2,x31,x19	 x31:0x80000000 x19:0x1ffff000  x2=0x9ffff000
        9165000	       915	80000c38	00636d33	or	x26,x6,x6	  x6:0x80000b2c  x6:0x80000b2c x26=0x80000b2c
        9175000	       916	80000c3c	41f6dc13	srai	x24,x13,0x1f	 x13:0xfffffc00 x24=0xffffffff
        9185000	       917	80000c40	00479e33	sll	x28,x15,x4	 x15:0x01fff84f  x4:0x00000000 x28=0x01fff84f
        9195000	       918	80000c44	044c8663	beq	x25,x4,80000c90	 x25:0x80009fc4  x4:0x00000000
        9205000	       919	80000c48	00075893	srli	x17,x14,0x0	 x14:0x00080000 x17=0x00080000
        9215000	       920	80000c4c	96fa8293	addi	x5,x21,-1681	 x21:0x00000000  x5=0xfffff96f
        9225000	       921	80000c50	01c7d313	srli	x6,x15,0x1c	 x15:0x01fff84f  x6=0x00000000
        9235000	       922	80000c54	03ceca63	blt	x29,x28,80000c88	 x29:0xfffff4c8 x28:0x01fff84f
        9245000	       923	00000000	00000013	addi	x0,x0,0	  x0:0x00000000
        9255000	       924	80000c84	00000013	addi	x0,x0,0	  x0:0x00000000
        9265000	       925	80000c88	01ade0b3	or	x1,x27,x26	 x27:0x6000053f x26:0x80000b2c  x1=0xe0000f3f
        9275000	       926	80000c8c	0150dbb3	srl	x23,x1,x21	  x1:0xe0000f3f x21:0x00000000 x23=0xe0000f3f
        9285000	       927	80000c90	000e4a63	blt	x28,x0,80000ca4	 x28:0x01fff84f  x0:0x00000000
        9295000	       928	80000c94	01d64263	blt	x12,x29,80000c98	 x12:0xa8645000 x29:0xfffff4c8
        9305000	       929	00000000	00000013	addi	x0,x0,0	  x0:0x00000000
        9315000	       930	80000c94	00000013	addi	x0,x0,0	  x0:0x00000000
        9325000	       931	80000c98	0139e4b3	or	x9,x19,x19	 x19:0x1ffff000 x19:0x1ffff000  x9=0x1ffff000
        9335000	       932	80000c9c	0003dc13	srli	x24,x7,0x0	  x7:0x00000001 x24=0x00000001
        9345000	       933	80000ca0	0145f863	bgeu	x11,x20,80000cb0	 x11:0x00000000 x20:0x80000b30
        9355000	       934	80000ca4	00466ab3	or	x21,x12,x4	 x12:0xa8645000  x4:0x00000000 x21=0xa8645000
        9365000	       935	80000ca8	00000013	addi	x0,x0,0	  x0:0x00000000
        9375000	       936	80000cac	02a58063	beq	x11,x10,80000ccc	 x11:0x00000000 x10:0x00000001
        9385000	       937	80000cb0	01ad5db3	srl	x27,x26,x26	 x26:0x80000b2c x26:0x80000b2c x27=0x00080000
        9395000	       938	80000cb4	c961ac13	slti	x24,x3,-874	  x3:0x00000001 x24=0x00000000
        9405000	       939	80000cb8	00319e13	slli	x28,x3,0x3	  x3:0x00000001 x28=0x00000008
        9415000	       940	80000cbc	cd057d13	andi	x26,x10,-816	 x10:0x00000001 x26=0x00000000
        9425000	       941	80000cc0	daf87a37	lui	x20,0xdaf87	 x20=0xdaf87000
        9435000	       942	80000cc4	007a5333	srl	x6,x20,x7	 x20:0xdaf87000  x7:0x00000001  x6=0x6d7c3800
        9445000	       943	80000cc8	f87d4913	xori	x18,x26,-121	 x26:0x00000000 x18=0xffffff87
        9455000	       944	80000ccc	00a9f4b3	and	x9,x19,x10	 x19:0x1ffff000 x10:0x00000001  x9=0x00000000
        9465000	       945	80000cd0	02ddd263	bge	x27,x13,80000cf4	 x27:0x00080000 x13:0xfffffc00
        9475000	       946	00000000	00000013	addi	x0,x0,0	  x0:0x00000000
        9485000	       947	80000cf0	00000013	addi	x0,x0,0	  x0:0x00000000
        9495000	       948	80000cf4	e15a2e13	slti	x28,x20,-491	 x20:0xdaf87000 x28=0x00000001
        9505000	       949	80000cf8	39706d93	ori	x27,x0,919	  x0:0x00000000 x27=0x00000397
        9515000	       950	80000cfc	03ab6063	bltu	x22,x26,80000d1c	 x22:0x00000000 x26:0x00000000
        9525000	       951	80000d00	00fd1c33	sll	x24,x26,x15	 x26:0x00000000 x15:0x01fff84f x24=0x00000000
        9535000	       952	80000d04	0158e133	or	x2,x17,x21	 x17:0x00080000 x21:0xa8645000  x2=0xa86c5000
        9545000	       953	80000d08	40375393	srai	x7,x14,0x3	 x14:0x00080000  x7=0x00010000
        9555000	       954	80000d0c	03489263	bne	x17,x20,80000d30	 x17:0x00080000 x20:0xdaf87000
        9565000	       955	00000000	00000013	addi	x0,x0,0	  x0:0x00000000
        9575000	       956	80000d2c	00000013	addi	x0,x0,0	  x0:0x00000000
        9585000	       957	80000d30	0139d933	srl	x18,x19,x19	 x19:0x1ffff000 x19:0x1ffff000 x18=0x1ffff000
        9595000	       958	80000d34	00709933	sll	x18,x1,x7	  x1:0xe0000f3f  x7:0x00010000 x18=0xe0000f3f
        9605000	       959	80000d38	00c48f33	add	x30,x9,x12	  x9:0x00000000 x12:0xa8645000 x30=0xa8645000
        9615000	       960	80000d3c	dfc13493	sltiu	x9,x2,-516	  x2:0xa86c5000  x9=0x00000001
        9625000	       961	80000d40	41dace13	xori	x28,x21,1053	 x21:0xa8645000 x28=0xa864541d
        9635000	       962	80000d44	9a607793	andi	x15,x0,-1626	  x0:0x00000000 x15=0x00000000
        9645000	       963	80000d48	be5a7e97	auipc	x29,0xbe5a7	 x29=0x3e5a7d44
        9655000	       964	80000d4c	00fd1f13	slli	x30,x26,0xf	 x26:0x00000000 x30=0x00000000
        9665000	       965	80000d50	402e8b33	sub	x22,x29,x2	 x29:0x3e5a7d44  x2:0xa86c5000 x22=0x95ee2d44
        9675000	       966	80000d54	05db5663	bge	x22,x29,80000da0	 x22:0x95ee2d44 x29:0x3e5a7d44
        9685000	       967	80000d58	03748a63	beq	x9,x23,80000d8c	  x9:0x00000001 x23:0xe0000f3f
        9695000	       968	80000d5c	000ecc33	xor	x24,x29,x0	 x29:0x3e5a7d44  x0:0x00000000 x24=0x3e5a7d44
        9705000	       969	80000d60	01555e93	srli	x29,x10,0x15	 x10:0x00000001 x29=0x00000000
        9715000	       970	80000d64	01a0d193	srli	x3,x1,0x1a	  x1:0xe0000f3f  x3=0x00000038
        9725000	       971	80000d68	007b7e33	and	x28,x22,x7	 x22:0x95ee2d44  x7:0x00010000 x28=0x00000000
        9735000	       972	80000d6c	00f2ddb3	srl	x27,x5,x15	  x5:0xfffff96f x15:0x00000000 x27=0xfffff96f
        9745000	       973	80000d70	00d71993	slli	x19,x14,0xd	 x14:0x00080000 x19=0x00000000
        9755000	       974	80000d74	01c3f863	bgeu	x7,x28,80000d84	  x7:0x00010000 x28:0x00000000
        9765000	       975	00000000	00000013	addi	x0,x0,0	  x0:0x00000000
        9775000	       976	80000d80	00000013	addi	x0,x0,0	  x0:0x00000000
        9785000	       977	80000d84	00000013	addi	x0,x0,0	  x0:0x00000000
        9795000	       978	80000d88	006cc333	xor	x6,x25,x6	 x25:0x80009fc4  x6:0x6d7c3800  x6=0xed7ca7c4
        9805000	       979	80000d8c	49070d93	addi	x27,x14,1168	 x14:0x00080000 x27=0x00080490
        9815000	       980	80000d90	002f1c33	sll	x24,x30,x2	 x30:0x00000000  x2:0xa86c5000 x24=0x00000000
        9825000	       981	80000d94	2646b393	sltiu	x7,x13,612	 x13:0xfffffc00  x7=0x00000000
        9835000	       982	80000d98	40e5d313	srai	x6,x11,0xe	 x11:0x00000000  x6=0x00000000
        9845000	       983	80000d9c	40a9dc33	sra	x24,x19,x10	 x19:0x00000000 x10:0x00000001 x24=0x00000000
        9855000	       984	80000da0	0159d933	srl	x18,x19,x21	 x19:0x00000000 x21:0xa8645000 x18=0x00000000
        9865000	       985	80000da4	40acd733	sra	x14,x25,x10	 x25:0x80009fc4 x10:0x00000001 x14=0xc0004fe2
        9875000	       986	80000da8	00c08263	beq	x1,x12,80000dac	  x1:0xe0000f3f x12:0xa8645000
        9885000	       987	80000dac	20f8f093	andi	x1,x17,527	 x17:0x00080000  x1=0x00000000
        9895000	       988	80000db0	ac5f2d13	slti	x26,x30,-1339	 x30:0x00000000 x26=0x00000000
        9905000	       989	80000db4	649de893	ori	x17,x27,1609	 x27:0x00080490 x17=0x000806d9
        9915000	       990	80000db8	01588f33	add	x30,x17,x21	 x17:0x000806d9 x21:0xa8645000 x30=0xa86c56d9
        9925000	       991	80000dbc	d266ad13	slti	x26,x13,-730	 x13:0xfffffc00 x26=0x00000001
        9935000	       992	80000dc0	003702b3	add	x5,x14,x3	 x14:0xc0004fe2  x3:0x00000038  x5=0xc000501a
        9945000	       993	80000dc4	01269933	sll	x18,x13,x18	 x13:0xfffffc00 x18:0x00000000 x18=0xfffffc00
        9955000	       994	80000dc8	01a02f33	slt	x30,x0,x26	  x0:0x00000000 x26:0x00000001 x30=0x00000001
        9965000	       995	80000dcc	00cdb033	sltu	x0,x27,x12	 x27:0x00080490 x12:0xa8645000
        9975000	       996	80000dd0	02fe8a63	beq	x29,x15,80000e04	 x29:0x00000000 x15:0x00000000
        9985000	       997	00000000	00000013	addi	x0,x0,0	  x0:0x00000000
        9995000	       998	80000e00	00000013	addi	x0,x0,0	  x0:0x00000000
       10005000	       999	80000e04	603db797	auipc	x15,0x603db	 x15=0xe03dbe00
       10015000	      1000	80000e08	fdff0a93	addi	x21,x30,-33	 x30:0x00000001 x21=0xffffffe0
       10025000	      1001	80000e0c	00275e33	srl	x28,x14,x2	 x14:0xc0004fe2  x2:0xa86c5000 x28=0xc0004fe2
       10035000	      1002	80000e10	3dbcbe93	sltiu	x29,x25,987	 x25:0x80009fc4 x29=0x00000000
       10045000	      1003	80000e14	40bf5893	srai	x17,x30,0xb	 x30:0x00000001 x17=0x00000000
       10055000	      1004	80000e18	a5476793	ori	x15,x14,-1452	 x14:0xc0004fe2 x15=0xfffffff6
       10065000	      1005	80000e1c	0538e863	bltu	x17,x19,80000e6c	 x17:0x00000000 x19:0x00000000
       10075000	      1006	80000e20	012d1213	slli	x4,x26,0x12	 x26:0x00000001  x4=0x00040000
       10085000	      1007	80000e24	00390433	add	x8,x18,x3	 x18:0xfffffc00  x3:0x00000038  x8=0xfffffc38
       10095000	      1008	80000e28	02ecf663	bgeu	x25,x14,80000e54	 x25:0x80009fc4 x14:0xc0004fe2
       10105000	      1009	80000e2c	0db06597	auipc	x11,0xdb06	 x11=0x8db06e28
       10115000	      1010	80000e30	00090633	add	x12,x18,x0	 x18:0xfffffc00  x0:0x00000000 x12=0xfffffc00
       10125000	      1011	80000e34	40f6dab3	sra	x21,x13,x15	 x13:0xfffffc00 x15:0xfffffff6 x21=0xffffffff
       10135000	      1012	80000e38	931e8113	addi	x2,x29,-1743	 x29:0x00000000  x2=0xfffff931
       10145000	      1013	80000e3c	41b5d7b3	sra	x15,x11,x27	 x11:0x8db06e28 x27:0x00080490 x15=0xffff8db0
       10155000	      1014	80000e40	c53c6737	lui	x14,0xc53c6	 x14=0xc53c6000
       10165000	      1015	80000e44	00000013	addi	x0,x0,0	  x0:0x00000000
       10175000	      1016	80000e48	5b8fe713	ori	x14,x31,1464	 x31:0x80000000 x14=0x800005b8
       10185000	      1017	80000e4c	01593eb3	sltu	x29,x18,x21	 x18:0xfffffc00 x21:0xffffffff x29=0x00000001
       10195000	      1018	80000e50	002b90b3	sll	x1,x23,x2	 x23:0xe0000f3f  x2:0xfffff931  x1=0x1e7e0000
       10205000	      1019	80000e54	f9218313	addi	x6,x3,-110	  x3:0x00000038  x6=0xffffffca
       10215000	      1020	80000e58	021be463	bltu	x23,x1,80000e80	 x23:0xe0000f3f  x1:0x1e7e0000
       10225000	      1021	80000e5c	c6aea713	slti	x14,x29,-918	 x29:0x00000001 x14=0x00000000
       10235000	      1022	80000e60	41e8d593	srai	x11,x17,0x1e	 x17:0x00000000 x11=0x00000000
       10245000	      1023	80000e64	36e44593	xori	x11,x8,878	  x8:0xfffffc38 x11=0xffffff56
       10255000	      1024	80000e68	6c28be13	sltiu	x28,x17,1730	 x17:0x00000000 x28=0x00000001
       10265000	      1025	80000e6c	0126da63	bge	x13,x18,80000e80	 x13:0xfffffc00 x18:0xfffffc00
       10275000	      1026	00000000	00000013	addi	x0,x0,0	  x0:0x00000000
       10285000	      1027	80000e7c	00000013	addi	x0,x0,0	  x0:0x00000000
       10295000	      1028	80000e80	198a7093	andi	x1,x20,408	 x20:0xdaf87000  x1=0x00000000
       10305000	      1029	80000e84	0023c5b3	xor	x11,x7,x2	  x7:0x00000000  x2:0xfffff931 x11=0xfffff931
       10315000	      1030	80000e88	543b1537	lui	x10,0x543b1	 x10=0x543b1000
       10325000	      1031	80000e8c	7b782593	slti	x11,x16,1975	 x16:0x80009f4c x11=0x00000001
       10335000	      1032	80000e90	027f1c63	bne	x30,x7,80000ec8	 x30:0x00000001  x7:0x00000000
       10345000	      1033	00000000	00000013	addi	x0,x0,0	  x0:0x00000000
       10355000	      1034	80000ec4	00000013	addi	x0,x0,0	  x0:0x00000000
       10365000	      1035	80000ec8	018ff1b3	and	x3,x31,x24	 x31:0x80000000 x24:0x00000000  x3=0x00000000
       10375000	      1036	80000ecc	0023f5b3	and	x11,x7,x2	  x7:0x00000000  x2:0xfffff931 x11=0x00000000
       10385000	      1037	80000ed0	0003a4b3	slt	x9,x7,x0	  x7:0x00000000  x0:0x00000000  x9=0x00000000
       10395000	      1038	80000ed4	00f78ab3	add	x21,x15,x15	 x15:0xffff8db0 x15:0xffff8db0 x21=0xffff1b60
       10405000	      1039	80000ed8	05819663	bne	x3,x24,80000f24	  x3:0x00000000 x24:0x00000000
       10415000	      1040	80000edc	e32af593	andi	x11,x21,-462	 x21:0xffff1b60 x11=0xffff1a20
       10425000	      1041	80000ee0	00000013	addi	x0,x0,0	  x0:0x00000000
       10435000	      1042	80000ee4	57636393	ori	x7,x6,1398	  x6:0xffffffca  x7=0xfffffffe
       10445000	      1043	80000ee8	01e895b3	sll	x11,x17,x30	 x17:0x00000000 x30:0x00000001 x11=0x00000000
       10455000	      1044	80000eec	0093bb33	sltu	x22,x7,x9	  x7:0xfffffffe  x9:0x00000000 x22=0x00000000
       10465000	      1045	80000ef0	1980e613	ori	x12,x1,408	  x1:0x00000000 x12=0x00000198
       10475000	      1046	80000ef4	fdfb3c13	sltiu	x24,x22,-33	 x22:0x00000000 x24=0x00000001
       10485000	      1047	80000ef8	ab4ab113	sltiu	x2,x21,-1356	 x21:0xffff1b60  x2=0x00000001
       10495000	      1048	80000efc	05504463	blt	x0,x21,80000f44	  x0:0x00000000 x21:0xffff1b60
       10505000	      1049	80000f00	00a3b8b3	sltu	x17,x7,x10	  x7:0xfffffffe x10:0x543b1000 x17=0x00000000
       10515000	      1050	80000f04	1b97e113	ori	x2,x15,441	 x15:0xffff8db0  x2=0xffff8db9
       10525000	      1051	80000f08	07274513	xori	x10,x14,114	 x14:0x00000000 x10=0x00000072
       10535000	      1052	80000f0c	01716233	or	x4,x2,x23	  x2:0xffff8db9 x23:0xe0000f3f  x4=0xffff8fbf
       10545000	      1053	80000f10	03254863	blt	x10,x18,80000f40	 x10:0x00000072 x18:0xfffffc00
       10555000	      1054	80000f14	0035e663	bltu	x11,x3,80000f20	 x11:0x00000000  x3:0x00000000
       10565000	      1055	80000f18	41cad913	srai	x18,x21,0x1c	 x21:0xffff1b60 x18=0xffffffff
       10575000	      1056	80000f1c	59064e93	xori	x29,x12,1424	 x12:0x00000198 x29=0x00000408
       10585000	      1057	80000f20	0093a3b3	slt	x7,x7,x9	  x7:0xfffffffe  x9:0x00000000  x7=0x00000001
       10595000	      1058	80000f24	00b81313	slli	x6,x16,0xb	 x16:0x80009f4c  x6=0x04fa6000
       10605000	      1059	80000f28	05bf4863	blt	x30,x27,80000f78	 x30:0x00000001 x27:0x00080490
       10615000	      1060	00000000	00000013	addi	x0,x0,0	  x0:0x00000000
       10625000	      1061	80000f74	00000013	addi	x0,x0,0	  x0:0x00000000
       10635000	      1062	80000f78	014c1f33	sll	x30,x24,x20	 x24:0x00000001 x20:0xdaf87000 x30=0x00000001
       10645000	      1063	80000f7c	010d5263	bge	x26,x16,80000f80	 x26:0x00000001 x16:0x80009f4c
       10655000	      1064	00000000	00000013	addi	x0,x0,0	  x0:0x00000000
       10665000	      1065	80000f7c	00000013	addi	x0,x0,0	  x0:0x00000000
       10675000	      1066	80000f80	00000013	addi	x0,x0,0	  x0:0x00000000
       10685000	      1067	80000f84	407c5bb3	sra	x23,x24,x7	 x24:0x00000001  x7:0x00000001 x23=0x00000000
       10695000	      1068	80000f88	0561d863	bge	x3,x22,80000fd8	  x3:0x00000000 x22:0x00000000
       10705000	      1069	00000000	00000013	addi	x0,x0,0	  x0:0x00000000
       10715000	      1070	80000fd4	00000013	addi	x0,x0,0	  x0:0x00000000
       10725000	      1071	80000fd8	7f6b0393	addi	x7,x22,2038	 x22:0x00000000  x7=0x000007f6
       10735000	      1072	80000fdc	00ca5e93	srli	x29,x20,0xc	 x20:0xdaf87000 x29=0x000daf87
       10745000	      1073	80000fe0	01b64f33	xor	x30,x12,x27	 x12:0x00000198 x27:0x00080490 x30=0x00080508
       10755000	      1074	80000fe4	d9888313	addi	x6,x17,-616	 x17:0x00000000  x6=0xfffffd98
       10765000	      1075	80000fe8	35e59237	lui	x4,0x35e59	  x4=0x35e59000
       10775000	      1076	80000fec	01f594b3	sll	x9,x11,x31	 x11:0x00000000 x31:0x80000000  x9=0x00000000
       10785000	      1077	80000ff0	9e0f2713	slti	x14,x30,-1568	 x30:0x00080508 x14=0x00000000
       10795000	      1078	80000ff4	018ea1b3	slt	x3,x29,x24	 x29:0x000daf87 x24:0x00000001  x3=0x00000000
       10805000	      1079	80000ff8	013a1933	sll	x18,x20,x19	 x20:0xdaf87000 x19:0x00000000 x18=0xdaf87000
       10815000	      1080	80000ffc	417055b3	sra	x11,x0,x23	  x0:0x00000000 x23:0x00000000 x11=0x00000000
       10825000	      1081	80001000	01c44db3	xor	x27,x8,x28	  x8:0xfffffc38 x28:0x00000001 x27=0xfffffc39
       10835000	      1082	80001004	01919a63	bne	x3,x25,80001018	  x3:0x00000000 x25:0x80009fc4
       10845000	      1083	00000000	00000013	addi	x0,x0,0	  x0:0x00000000
       10855000	      1084	80001014	00000013	addi	x0,x0,0	  x0:0x00000000
       10865000	      1085	80001018	00b5b433	sltu	x8,x11,x11	 x11:0x00000000 x11:0x00000000  x8=0x00000000
       10875000	      1086	8000101c	01315263	bge	x2,x19,80001020	  x2:0xffff8db9 x19:0x00000000
       10885000	      1087	80001020	00000013	addi	x0,x0,0	  x0:0x00000000
       10895000	      1088	80001024	0171ca63	blt	x3,x23,80001038	  x3:0x00000000 x23:0x00000000
       10905000	      1089	80001028	cc546493	ori	x9,x8,-827	  x8:0x00000000  x9=0xfffffcc5
       10915000	      1090	8000102c	415f5513	srai	x10,x30,0x15	 x30:0x00080508 x10=0x00000000
       10925000	      1091	80001030	01da29b3	slt	x19,x20,x29	 x20:0xdaf87000 x29:0x000daf87 x19=0x00000001
       10935000	      1092	80001034	0003f333	and	x6,x7,x0	  x7:0x000007f6  x0:0x00000000  x6=0x00000000
       10945000	      1093	80001038	0001a233	slt	x4,x3,x0	  x3:0x00000000  x0:0x00000000  x4=0x00000000
       10955000	      1094	8000103c	afd8a093	slti	x1,x17,-1283	 x17:0x00000000  x1=0x00000000
       10965000	      1095	80001040	c735f037	lui	x0,0xc735f	
       10975000	      1096	80001044	01f5ce33	xor	x28,x11,x31	 x11:0x00000000 x31:0x80000000 x28=0x80000000
       10985000	      1097	80001048	0123f5b3	and	x11,x7,x18	  x7:0x000007f6 x18:0xdaf87000 x11=0x00000000
       10995000	      1098	8000104c	00881513	slli	x10,x16,0x8	 x16:0x80009f4c x10=0x009f4c00
       11005000	      1099	80001050	0793cc63	blt	x7,x25,800010c8	  x7:0x000007f6 x25:0x80009fc4
       11015000	      1100	80001054	0eb14293	xori	x5,x2,235	  x2:0xffff8db9  x5=0xffff8d52
       11025000	      1101	80001058	08968e63	beq	x13,x9,800010f4	 x13:0xfffffc00  x9:0xfffffcc5
       11035000	      1102	8000105c	4055de93	srai	x29,x11,0x5	 x11:0x00000000 x29=0x00000000
       11045000	      1103	80001060	006df863	bgeu	x27,x6,80001070	 x27:0xfffffc39  x6:0x00000000
       11055000	      1104	00000000	00000013	addi	x0,x0,0	  x0:0x00000000
       11065000	      1105	8000106c	00000013	addi	x0,x0,0	  x0:0x00000000
       11075000	      1106	80001070	12a50b13	addi	x22,x10,298	 x10:0x009f4c00 x22=0x009f4d2a
       11085000	      1107	80001074	0cf8d1b7	lui	x3,0xcf8d	  x3=0x0cf8d000
       11095000	      1108	80001078	00c000ef	jal	x1,80001078	  x1=0x80001078
       11105000	      1109	00000000	00000013	addi	x0,x0,0	  x0:0x00000000
       11115000	      1110	80001080	00000013	addi	x0,x0,0	  x0:0x00000000
       11125000	      1111	80001084	008000ef	jal	x1,80001084	  x1=0x80001084
       11135000	      1112	00000000	00000013	addi	x0,x0,0	  x0:0x00000000
       11145000	      1113	80001088	00000013	addi	x0,x0,0	  x0:0x00000000
       11155000	      1114	8000108c	0040036f	jal	x6,8000108c	  x6=0x8000108c
       11165000	      1115	00000000	00000013	addi	x0,x0,0	  x0:0x00000000
       11175000	      1116	8000108c	00000013	addi	x0,x0,0	  x0:0x00000000
       11185000	      1117	80001090	00c00e6f	jal	x28,80001090	 x28=0x80001090
       11195000	      1118	00000000	00000013	addi	x0,x0,0	  x0:0x00000000
       11205000	      1119	80001098	00000013	addi	x0,x0,0	  x0:0x00000000
       11215000	      1120	8000109c	018000ef	jal	x1,8000109c	  x1=0x8000109c
       11225000	      1121	00000000	00000013	addi	x0,x0,0	  x0:0x00000000
       11235000	      1122	800010b0	00000013	addi	x0,x0,0	  x0:0x00000000
       11245000	      1123	800010b4	fe5ff36f	jal	x6,800010b4	  x6=0x800010b4
       11255000	      1124	00000000	00000013	addi	x0,x0,0	  x0:0x00000000
       11265000	      1125	80001094	00000013	addi	x0,x0,0	  x0:0x00000000
       11275000	      1126	80001098	0240076f	jal	x14,80001098	 x14=0x80001098
       11285000	      1127	00000000	00000013	addi	x0,x0,0	  x0:0x00000000
       11295000	      1128	800010b8	00000013	addi	x0,x0,0	  x0:0x00000000
       11305000	      1129	800010bc	fedff56f	jal	x10,800010bc	 x10=0x800010bc
       11315000	      1130	00000000	00000013	addi	x0,x0,0	  x0:0x00000000
       11325000	      1131	800010a4	00000013	addi	x0,x0,0	  x0:0x00000000
       11335000	      1132	800010a8	fe1ff8ef	jal	x17,800010a8	 x17=0x800010a8
       11345000	      1133	00000000	00000013	addi	x0,x0,0	  x0:0x00000000
       11355000	      1134	80001084	00000013	addi	x0,x0,0	  x0:0x00000000
       11365000	      1135	80001088	028000ef	jal	x1,80001088	  x1=0x80001088
       11375000	      1136	00000000	00000013	addi	x0,x0,0	  x0:0x00000000
       11385000	      1137	800010ac	00000013	addi	x0,x0,0	  x0:0x00000000
       11395000	      1138	800010b0	ffdff0ef	jal	x1,800010b0	  x1=0x800010b0
       11405000	      1139	00000000	00000013	addi	x0,x0,0	  x0:0x00000000
       11415000	      1140	800010a8	00000013	addi	x0,x0,0	  x0:0x00000000
       11425000	      1141	800010ac	ff9ff76f	jal	x14,800010ac	 x14=0x800010ac
       11435000	      1142	00000000	00000013	addi	x0,x0,0	  x0:0x00000000
       11445000	      1143	800010a0	00000013	addi	x0,x0,0	  x0:0x00000000
       11455000	      1144	800010a4	014000ef	jal	x1,800010a4	  x1=0x800010a4
       11465000	      1145	00000000	00000013	addi	x0,x0,0	  x0:0x00000000
       11475000	      1146	800010b4	00000013	addi	x0,x0,0	  x0:0x00000000
       11485000	      1147	800010b8	008000ef	jal	x1,800010b8	  x1=0x800010b8
       11495000	      1148	00000000	00000013	addi	x0,x0,0	  x0:0x00000000
       11505000	      1149	800010bc	00000013	addi	x0,x0,0	  x0:0x00000000
       11515000	      1150	800010c0	fe1ff36f	jal	x6,800010c0	  x6=0x800010c0
       11525000	      1151	00000000	00000013	addi	x0,x0,0	  x0:0x00000000
       11535000	      1152	8000109c	00000013	addi	x0,x0,0	  x0:0x00000000
       11545000	      1153	800010a0	fe1ff36f	jal	x6,800010a0	  x6=0x800010a0
       11555000	      1154	00000000	00000013	addi	x0,x0,0	  x0:0x00000000
       11565000	      1155	8000107c	00000013	addi	x0,x0,0	  x0:0x00000000
       11575000	      1156	80001080	ffdffe6f	jal	x28,80001080	 x28=0x80001080
       11585000	      1157	00000000	00000013	addi	x0,x0,0	  x0:0x00000000
       11595000	      1158	80001078	00000013	addi	x0,x0,0	  x0:0x00000000
       11605000	      1159	8000107c	0180036f	jal	x6,8000107c	  x6=0x8000107c
       11615000	      1160	00000000	00000013	addi	x0,x0,0	  x0:0x00000000
       11625000	      1161	80001090	00000013	addi	x0,x0,0	  x0:0x00000000
       11635000	      1162	80001094	030000ef	jal	x1,80001094	  x1=0x80001094
       11645000	      1163	00000000	00000013	addi	x0,x0,0	  x0:0x00000000
       11655000	      1164	800010c0	00000013	addi	x0,x0,0	  x0:0x00000000
       11665000	      1165	800010c4	00cd93b3	sll	x7,x27,x12	 x27:0xfffffc39 x12:0x00000198  x7=0x39000000
       11675000	      1166	800010c8	16d83d93	sltiu	x27,x16,365	 x16:0x80009f4c x27=0x00000000
       11685000	      1167	800010cc	01b14ab3	xor	x21,x2,x27	  x2:0xffff8db9 x27:0x00000000 x21=0xffff8db9
       11695000	      1168	800010d0	40de0db3	sub	x27,x28,x13	 x28:0x80001080 x13:0xfffffc00 x27=0x80001480
       11705000	      1169	800010d4	01669433	sll	x8,x13,x22	 x13:0xfffffc00 x22:0x009f4d2a  x8=0xfff00000
       11715000	      1170	800010d8	7ada8993	addi	x19,x21,1965	 x21:0xffff8db9 x19=0xffff9566
       11725000	      1171	800010dc	40540233	sub	x4,x8,x5	  x8:0xfff00000  x5:0xffff8d52  x4=0xfff072ae
       11735000	      1172	800010e0	4b8aa593	slti	x11,x21,1208	 x21:0xffff8db9 x11=0x00000001
       11745000	      1173	800010e4	04e68663	beq	x13,x14,80001130	 x13:0xfffffc00 x14:0x800010ac
       11755000	      1174	800010e8	97642993	slti	x19,x8,-1674	  x8:0xfff00000 x19=0x00000001
       11765000	      1175	800010ec	00a0ceb3	xor	x29,x1,x10	  x1:0x80001094 x10:0x800010bc x29=0x00000028
       11775000	      1176	800010f0	016fd593	srli	x11,x31,0x16	 x31:0x80000000 x11=0x00000200
       11785000	      1177	800010f4	25e14513	xori	x10,x2,606	  x2:0xffff8db9 x10=0xffff8fe7
       11795000	      1178	800010f8	649403b7	lui	x7,0x64940	  x7=0x64940000
       11805000	      1179	800010fc	41ba5533	sra	x10,x20,x27	 x20:0xdaf87000 x27:0x80001480 x10=0xdaf87000
       11815000	      1180	80001100	8ecf6213	ori	x4,x30,-1812	 x30:0x00080508  x4=0xfffffdec
       11825000	      1181	80001104	bfd54a13	xori	x20,x10,-1027	 x10:0xdaf87000 x20=0x25078bfd
       11835000	      1182	80001108	00bc5633	srl	x12,x24,x11	 x24:0x00000001 x11:0x00000200 x12=0x00000001
       11845000	      1183	8000110c	f39ef113	andi	x2,x29,-199	 x29:0x00000028  x2=0x00000028
       11855000	      1184	80001110	0192bd33	sltu	x26,x5,x25	  x5:0xffff8d52 x25:0x80009fc4 x26=0x00000000
       11865000	      1185	80001114	02377863	bgeu	x14,x3,80001144	 x14:0x800010ac  x3:0x0cf8d000
       11875000	      1186	00000000	00000013	addi	x0,x0,0	  x0:0x00000000
       11885000	      1187	80001140	00000013	addi	x0,x0,0	  x0:0x00000000
       11895000	      1188	80001144	150c0293	addi	x5,x24,336	 x24:0x00000001  x5=0x00000151
       11905000	      1189	80001148	017aa533	slt	x10,x21,x23	 x21:0xffff8db9 x23:0x00000000 x10=0x00000001
       11915000	      1190	8000114c	006ded33	or	x26,x27,x6	 x27:0x80001480  x6:0x8000107c x26=0x800014fc
       11925000	      1191	80001150	df144397	auipc	x7,0xdf144	  x7=0x5f14514c
       11935000	      1192	80001154	a4032537	lui	x10,0xa4032	 x10=0xa4032000
       11945000	      1193	80001158	00de87b3	add	x15,x29,x13	 x29:0x00000028 x13:0xfffffc00 x15=0xfffffc28
       11955000	      1194	8000115c	fe396b13	ori	x22,x18,-29	 x18:0xdaf87000 x22=0xffffffe3
       11965000	      1195	80001160	01118c63	beq	x3,x17,80001178	  x3:0x0cf8d000 x17:0x800010a8
       11975000	      1196	80001164	01040533	add	x10,x8,x16	  x8:0xfff00000 x16:0x80009f4c x10=0x7ff09f4c
       11985000	      1197	80001168	017f5593	srli	x11,x30,0x17	 x30:0x00080508 x11=0x00000000
       11995000	      1198	8000116c	03a1d663	bge	x3,x26,80001198	  x3:0x0cf8d000 x26:0x800014fc
       12005000	      1199	00000000	00000013	addi	x0,x0,0	  x0:0x00000000
       12015000	      1200	80001194	00000013	addi	x0,x0,0	  x0:0x00000000
       12025000	      1201	80001198	00ad0663	beq	x26,x10,800011a4	 x26:0x800014fc x10:0x7ff09f4c
       12035000	      1202	8000119c	a2a57917	auipc	x18,0xa2a57	 x18=0x22a58198
       12045000	      1203	800011a0	00c15113	srli	x2,x2,0xc	  x2:0x00000028  x2=0x00000000
       12055000	      1204	800011a4	0063aa33	slt	x20,x7,x6	  x7:0x5f14514c  x6:0x8000107c x20=0x00000000
       12065000	      1205	800011a8	03b71263	bne	x14,x27,800011cc	 x14:0x800010ac x27:0x80001480
       12075000	      1206	00000000	00000013	addi	x0,x0,0	  x0:0x00000000
       12085000	      1207	800011c8	00000013	addi	x0,x0,0	  x0:0x00000000
       12095000	      1208	800011cc	6f215637	lui	x12,0x6f215	 x12=0x6f215000
       12105000	      1209	800011d0	00f96533	or	x10,x18,x15	 x18:0x22a58198 x15:0xfffffc28 x10=0xfffffdb8
       12115000	      1210	800011d4	029df663	bgeu	x27,x9,80001200	 x27:0x80001480  x9:0xfffffcc5
       12125000	      1211	800011d8	0056f463	bgeu	x13,x5,800011e0	 x13:0xfffffc00  x5:0x00000151
       12135000	      1212	00000000	00000013	addi	x0,x0,0	  x0:0x00000000
       12145000	      1213	800011dc	00000013	addi	x0,x0,0	  x0:0x00000000
       12155000	      1214	800011e0	41ea5613	srai	x12,x20,0x1e	 x20:0x00000000 x12=0x00000000
       12165000	      1215	800011e4	01fb4a63	blt	x22,x31,800011f8	 x22:0xffffffe3 x31:0x80000000
       12175000	      1216	800011e8	00ae21b3	slt	x3,x28,x10	 x28:0x80001080 x10:0xfffffdb8  x3=0x00000001
       12185000	      1217	800011ec	00330e33	add	x28,x6,x3	  x6:0x8000107c  x3:0x00000001 x28=0x8000107d
       12195000	      1218	800011f0	00000013	addi	x0,x0,0	  x0:0x00000000
       12205000	      1219	800011f4	06bf9a63	bne	x31,x11,80001268	 x31:0x80000000 x11:0x00000000
       12215000	      1220	00000000	00000013	addi	x0,x0,0	  x0:0x00000000
       12225000	      1221	80001264	00000013	addi	x0,x0,0	  x0:0x00000000
       12235000	      1222	80001268	01e48e33	add	x28,x9,x30	  x9:0xfffffcc5 x30:0x00080508 x28=0x000801cd
       12245000	      1223	8000126c	05f21463	bne	x4,x31,800012b4	  x4:0xfffffdec x31:0x80000000
       12255000	      1224	00000000	00000013	addi	x0,x0,0	  x0:0x00000000
       12265000	      1225	800012b0	00000013	addi	x0,x0,0	  x0:0x00000000
       12275000	      1226	800012b4	005f1913	slli	x18,x30,0x5	 x30:0x00080508 x18=0x0100a100
       12285000	      1227	800012b8	03faf063	bgeu	x21,x31,800012d8	 x21:0xffff8db9 x31:0x80000000
       12295000	      1228	00000000	00000013	addi	x0,x0,0	  x0:0x00000000
       12305000	      1229	800012d4	00000013	addi	x0,x0,0	  x0:0x00000000
       12315000	      1230	800012d8	01ca0e63	beq	x20,x28,800012f4	 x20:0x00000000 x28:0x000801cd
       12325000	      1231	800012dc	011e9133	sll	x2,x29,x17	 x29:0x00000028 x17:0x800010a8  x2=0x00002800
       12335000	      1232	800012e0	00680eb3	add	x29,x16,x6	 x16:0x80009f4c  x6:0x8000107c x29=0x0000afc8
       12345000	      1233	800012e4	007631b3	sltu	x3,x12,x7	 x12:0x00000000  x7:0x5f14514c  x3=0x00000001
       12355000	      1234	800012e8	00778663	beq	x15,x7,800012f4	 x15:0xfffffc28  x7:0x5f14514c
       12365000	      1235	800012ec	01f59a33	sll	x20,x11,x31	 x11:0x00000000 x31:0x80000000 x20=0x00000000
       12375000	      1236	800012f0	019d10b3	sll	x1,x26,x25	 x26:0x800014fc x25:0x80009fc4  x1=0x00014fc0
       12385000	      1237	800012f4	00c9d1b3	srl	x3,x19,x12	 x19:0x00000001 x12:0x00000000  x3=0x00000001
       12395000	      1238	800012f8	00482083	lw	x1,4(x16)	 x16:0x80009f4c  x1=0x80000134 PA:0x80009f50
       12405000	      1239	800012fc	03880813	addi	x16,x16,56	 x16:0x80009f4c x16=0x80009f84
       12415000	      1240	80001300	106ef393	andi	x7,x29,262	 x29:0x0000afc8  x7=0x00000100
       12425000	      1241	80001304	3fe8be13	sltiu	x28,x17,1022	 x17:0x800010a8 x28=0x00000000
       12435000	      1242	80001308	83154213	xori	x4,x10,-1999	 x10:0xfffffdb8  x4=0x00000589
       12445000	      1243	8000130c	62d28513	addi	x10,x5,1581	  x5:0x00000151 x10=0x0000077e
       12455000	      1244	80001310	00108d93	addi	x27,x1,1	  x1:0x80000134 x27=0x80000135
       12465000	      1245	80001314	000d8de7	jalr	x27,x27,0	 x27:0x80000135 x27=0x80001314
       12475000	      1246	00000000	00000013	addi	x0,x0,0	  x0:0x00000000
       12485000	      1247	80000134	00000013	addi	x0,x0,0	  x0:0x00000000
       12495000	      1248	80000138	070000ef	jal	x1,80000138	  x1=0x80000138
       12505000	      1249	00000000	00000013	addi	x0,x0,0	  x0:0x00000000
       12515000	      1250	800001a4	00000013	addi	x0,x0,0	  x0:0x00000000
       12525000	      1251	800001a8	fa1ff0ef	jal	x1,800001a8	  x1=0x800001a8
       12535000	      1252	00000000	00000013	addi	x0,x0,0	  x0:0x00000000
       12545000	      1253	80000144	00000013	addi	x0,x0,0	  x0:0x00000000
       12555000	      1254	80000148	05c000ef	jal	x1,80000148	  x1=0x80000148
       12565000	      1255	00000000	00000013	addi	x0,x0,0	  x0:0x00000000
       12575000	      1256	800001a0	00000013	addi	x0,x0,0	  x0:0x00000000
       12585000	      1257	800001a4	fb9ffc6f	jal	x24,800001a4	 x24=0x800001a4
       12595000	      1258	00000000	00000013	addi	x0,x0,0	  x0:0x00000000
       12605000	      1259	80000158	00000013	addi	x0,x0,0	  x0:0x00000000
       12615000	      1260	8000015c	00c000ef	jal	x1,8000015c	  x1=0x8000015c
       12625000	      1261	00000000	00000013	addi	x0,x0,0	  x0:0x00000000
       12635000	      1262	80000164	00000013	addi	x0,x0,0	  x0:0x00000000
       12645000	      1263	80000168	008002ef	jal	x5,80000168	  x5=0x80000168
       12655000	      1264	00000000	00000013	addi	x0,x0,0	  x0:0x00000000
       12665000	      1265	8000016c	00000013	addi	x0,x0,0	  x0:0x00000000
       12675000	      1266	80000170	ffdff16f	jal	x2,80000170	  x2=0x80000170
       12685000	      1267	00000000	00000013	addi	x0,x0,0	  x0:0x00000000
       12695000	      1268	80000168	00000013	addi	x0,x0,0	  x0:0x00000000
       12705000	      1269	8000016c	ff9ff0ef	jal	x1,8000016c	  x1=0x8000016c
       12715000	      1270	00000000	00000013	addi	x0,x0,0	  x0:0x00000000
       12725000	      1271	80000160	00000013	addi	x0,x0,0	  x0:0x00000000
       12735000	      1272	80000164	fddff0ef	jal	x1,80000164	  x1=0x80000164
       12745000	      1273	00000000	00000013	addi	x0,x0,0	  x0:0x00000000
       12755000	      1274	8000013c	00000013	addi	x0,x0,0	  x0:0x00000000
       12765000	      1275	80000140	03400d6f	jal	x26,80000140	 x26=0x80000140
       12775000	      1276	00000000	00000013	addi	x0,x0,0	  x0:0x00000000
       12785000	      1277	80000170	00000013	addi	x0,x0,0	  x0:0x00000000
       12795000	      1278	80000174	0200036f	jal	x6,80000174	  x6=0x80000174
       12805000	      1279	00000000	00000013	addi	x0,x0,0	  x0:0x00000000
       12815000	      1280	80000190	00000013	addi	x0,x0,0	  x0:0x00000000
       12825000	      1281	80000194	fc5ff66f	jal	x12,80000194	 x12=0x80000194
       12835000	      1282	00000000	00000013	addi	x0,x0,0	  x0:0x00000000
       12845000	      1283	80000154	00000013	addi	x0,x0,0	  x0:0x00000000
       12855000	      1284	80000158	048000ef	jal	x1,80000158	  x1=0x80000158
       12865000	      1285	00000000	00000013	addi	x0,x0,0	  x0:0x00000000
       12875000	      1286	8000019c	00000013	addi	x0,x0,0	  x0:0x00000000
       12885000	      1287	800001a0	fe1ff0ef	jal	x1,800001a0	  x1=0x800001a0
       12895000	      1288	00000000	00000013	addi	x0,x0,0	  x0:0x00000000
       12905000	      1289	8000017c	00000013	addi	x0,x0,0	  x0:0x00000000
       12915000	      1290	80000180	ffdffc6f	jal	x24,80000180	 x24=0x80000180
       12925000	      1291	00000000	00000013	addi	x0,x0,0	  x0:0x00000000
       12935000	      1292	80000178	00000013	addi	x0,x0,0	  x0:0x00000000
       12945000	      1293	8000017c	0200026f	jal	x4,8000017c	  x4=0x8000017c
       12955000	      1294	00000000	00000013	addi	x0,x0,0	  x0:0x00000000
       12965000	      1295	80000198	00000013	addi	x0,x0,0	  x0:0x00000000
       12975000	      1296	8000019c	fddff0ef	jal	x1,8000019c	  x1=0x8000019c
       12985000	      1297	00000000	00000013	addi	x0,x0,0	  x0:0x00000000
       12995000	      1298	80000174	00000013	addi	x0,x0,0	  x0:0x00000000
       13005000	      1299	80000178	018000ef	jal	x1,80000178	  x1=0x80000178
       13015000	      1300	00000000	00000013	addi	x0,x0,0	  x0:0x00000000
       13025000	      1301	8000018c	00000013	addi	x0,x0,0	  x0:0x00000000
       13035000	      1302	80000190	ff9ff0ef	jal	x1,80000190	  x1=0x80000190
       13045000	      1303	00000000	00000013	addi	x0,x0,0	  x0:0x00000000
       13055000	      1304	80000184	00000013	addi	x0,x0,0	  x0:0x00000000
       13065000	      1305	80000188	ffdff36f	jal	x6,80000188	  x6=0x80000188
       13075000	      1306	00000000	00000013	addi	x0,x0,0	  x0:0x00000000
       13085000	      1307	80000180	00000013	addi	x0,x0,0	  x0:0x00000000
       13095000	      1308	80000184	014000ef	jal	x1,80000184	  x1=0x80000184
       13105000	      1309	00000000	00000013	addi	x0,x0,0	  x0:0x00000000
       13115000	      1310	80000194	00000013	addi	x0,x0,0	  x0:0x00000000
       13125000	      1311	80000198	fc9ff36f	jal	x6,80000198	  x6=0x80000198
       13135000	      1312	00000000	00000013	addi	x0,x0,0	  x0:0x00000000
       13145000	      1313	8000015c	00000013	addi	x0,x0,0	  x0:0x00000000
       13155000	      1314	80000160	ff1ff0ef	jal	x1,80000160	  x1=0x80000160
       13165000	      1315	00000000	00000013	addi	x0,x0,0	  x0:0x00000000
       13175000	      1316	8000014c	00000013	addi	x0,x0,0	  x0:0x00000000
       13185000	      1317	80000150	ff5ff5ef	jal	x11,80000150	 x11=0x80000150
       13195000	      1318	00000000	00000013	addi	x0,x0,0	  x0:0x00000000
       13205000	      1319	80000140	00000013	addi	x0,x0,0	  x0:0x00000000
       13215000	      1320	80000144	008000ef	jal	x1,80000144	  x1=0x80000144
       13225000	      1321	00000000	00000013	addi	x0,x0,0	  x0:0x00000000
       13235000	      1322	80000148	00000013	addi	x0,x0,0	  x0:0x00000000
       13245000	      1323	8000014c	040002ef	jal	x5,8000014c	  x5=0x8000014c
       13255000	      1324	00000000	00000013	addi	x0,x0,0	  x0:0x00000000
       13265000	      1325	80000188	00000013	addi	x0,x0,0	  x0:0x00000000
       13275000	      1326	8000018c	fb1ff0ef	jal	x1,8000018c	  x1=0x8000018c
       13285000	      1327	00000000	00000013	addi	x0,x0,0	  x0:0x00000000
       13295000	      1328	80000138	00000013	addi	x0,x0,0	  x0:0x00000000
       13305000	      1329	8000013c	018000ef	jal	x1,8000013c	  x1=0x8000013c
       13315000	      1330	00000000	00000013	addi	x0,x0,0	  x0:0x00000000
       13325000	      1331	80000150	00000013	addi	x0,x0,0	  x0:0x00000000
       13335000	      1332	80000154	058000ef	jal	x1,80000154	  x1=0x80000154
       13345000	      1333	00000000	00000013	addi	x0,x0,0	  x0:0x00000000
       13355000	      1334	800001a8	00000013	addi	x0,x0,0	  x0:0x00000000
       13365000	      1335	800001ac	02307e93	andi	x29,x0,35	  x0:0x00000000 x29=0x00000000
       13375000	      1336	800001b0	034000ef	jal	x1,800001b0	  x1=0x800001b0
       13385000	      1337	00000000	00000013	addi	x0,x0,0	  x0:0x00000000
       13395000	      1338	800001e0	00000013	addi	x0,x0,0	  x0:0x00000000
       13405000	      1339	800001e4	ff5ff0ef	jal	x1,800001e4	  x1=0x800001e4
       13415000	      1340	00000000	00000013	addi	x0,x0,0	  x0:0x00000000
       13425000	      1341	800001d4	00000013	addi	x0,x0,0	  x0:0x00000000
       13435000	      1342	800001d8	ff5ff16f	jal	x2,800001d8	  x2=0x800001d8
       13445000	      1343	00000000	00000013	addi	x0,x0,0	  x0:0x00000000
       13455000	      1344	800001c8	00000013	addi	x0,x0,0	  x0:0x00000000
       13465000	      1345	800001cc	0340016f	jal	x2,800001cc	  x2=0x800001cc
       13475000	      1346	00000000	00000013	addi	x0,x0,0	  x0:0x00000000
       13485000	      1347	800001fc	00000013	addi	x0,x0,0	  x0:0x00000000
       13495000	      1348	80000200	ff5ff0ef	jal	x1,80000200	  x1=0x80000200
       13505000	      1349	00000000	00000013	addi	x0,x0,0	  x0:0x00000000
       13515000	      1350	800001f0	00000013	addi	x0,x0,0	  x0:0x00000000
       13525000	      1351	800001f4	fd5ffa6f	jal	x20,800001f4	 x20=0x800001f4
       13535000	      1352	00000000	00000013	addi	x0,x0,0	  x0:0x00000000
       13545000	      1353	800001c4	00000013	addi	x0,x0,0	  x0:0x00000000
       13555000	      1354	800001c8	03c000ef	jal	x1,800001c8	  x1=0x800001c8
       13565000	      1355	00000000	00000013	addi	x0,x0,0	  x0:0x00000000
       13575000	      1356	80000200	00000013	addi	x0,x0,0	  x0:0x00000000
       13585000	      1357	80000204	fddff0ef	jal	x1,80000204	  x1=0x80000204
       13595000	      1358	00000000	00000013	addi	x0,x0,0	  x0:0x00000000
       13605000	      1359	800001dc	00000013	addi	x0,x0,0	  x0:0x00000000
       13615000	      1360	800001e0	ffdff36f	jal	x6,800001e0	  x6=0x800001e0
       13625000	      1361	00000000	00000013	addi	x0,x0,0	  x0:0x00000000
       13635000	      1362	800001d8	00000013	addi	x0,x0,0	  x0:0x00000000
       13645000	      1363	800001dc	ff5ff0ef	jal	x1,800001dc	  x1=0x800001dc
       13655000	      1364	00000000	00000013	addi	x0,x0,0	  x0:0x00000000
       13665000	      1365	800001cc	00000013	addi	x0,x0,0	  x0:0x00000000
       13675000	      1366	800001d0	004000ef	jal	x1,800001d0	  x1=0x800001d0
       13685000	      1367	00000000	00000013	addi	x0,x0,0	  x0:0x00000000
       13695000	      1368	800001d0	00000013	addi	x0,x0,0	  x0:0x00000000
       13705000	      1369	800001d4	fe9ff26f	jal	x4,800001d4	  x4=0x800001d4
       13715000	      1370	00000000	00000013	addi	x0,x0,0	  x0:0x00000000
       13725000	      1371	800001b8	00000013	addi	x0,x0,0	  x0:0x00000000
       13735000	      1372	800001bc	03000def	jal	x27,800001bc	 x27=0x800001bc
       13745000	      1373	00000000	00000013	addi	x0,x0,0	  x0:0x00000000
       13755000	      1374	800001e8	00000013	addi	x0,x0,0	  x0:0x00000000
       13765000	      1375	800001ec	00c004ef	jal	x9,800001ec	  x9=0x800001ec
       13775000	      1376	00000000	00000013	addi	x0,x0,0	  x0:0x00000000
       13785000	      1377	800001f4	00000013	addi	x0,x0,0	  x0:0x00000000
       13795000	      1378	800001f8	fc1ff36f	jal	x6,800001f8	  x6=0x800001f8
       13805000	      1379	00000000	00000013	addi	x0,x0,0	  x0:0x00000000
       13815000	      1380	800001b4	00000013	addi	x0,x0,0	  x0:0x00000000
       13825000	      1381	800001b8	00c000ef	jal	x1,800001b8	  x1=0x800001b8
       13835000	      1382	00000000	00000013	addi	x0,x0,0	  x0:0x00000000
       13845000	      1383	800001c0	00000013	addi	x0,x0,0	  x0:0x00000000
       13855000	      1384	800001c4	038000ef	jal	x1,800001c4	  x1=0x800001c4
       13865000	      1385	00000000	00000013	addi	x0,x0,0	  x0:0x00000000
       13875000	      1386	800001f8	00000013	addi	x0,x0,0	  x0:0x00000000
       13885000	      1387	800001fc	fb9ff0ef	jal	x1,800001fc	  x1=0x800001fc
       13895000	      1388	00000000	00000013	addi	x0,x0,0	  x0:0x00000000
       13905000	      1389	800001b0	00000013	addi	x0,x0,0	  x0:0x00000000
       13915000	      1390	800001b4	03c00def	jal	x27,800001b4	 x27=0x800001b4
       13925000	      1391	00000000	00000013	addi	x0,x0,0	  x0:0x00000000
       13935000	      1392	800001ec	00000013	addi	x0,x0,0	  x0:0x00000000
       13945000	      1393	800001f0	ff9ff0ef	jal	x1,800001f0	  x1=0x800001f0
       13955000	      1394	00000000	00000013	addi	x0,x0,0	  x0:0x00000000
       13965000	      1395	800001e4	00000013	addi	x0,x0,0	  x0:0x00000000
       13975000	      1396	800001e8	fd9ff36f	jal	x6,800001e8	  x6=0x800001e8
       13985000	      1397	00000000	00000013	addi	x0,x0,0	  x0:0x00000000
       13995000	      1398	800001bc	00000013	addi	x0,x0,0	  x0:0x00000000
       14005000	      1399	800001c0	0480016f	jal	x2,800001c0	  x2=0x800001c0
       14015000	      1400	00000000	00000013	addi	x0,x0,0	  x0:0x00000000
       14025000	      1401	80000204	00000013	addi	x0,x0,0	  x0:0x00000000
       14035000	      1402	80000208	fe27d537	lui	x10,0xfe27d	 x10=0xfe27d000
       14045000	      1403	8000020c	000f9c33	sll	x24,x31,x0	 x31:0x80000000  x0:0x00000000 x24=0x80000000
       14055000	      1404	80000210	26183113	sltiu	x2,x16,609	 x16:0x80009f84  x2=0x00000000
       14065000	      1405	80000214	5efb7d13	andi	x26,x22,1519	 x22:0xffffffe3 x26=0x000005e3
       14075000	      1406	80000218	54e8f793	andi	x15,x17,1358	 x17:0x800010a8 x15=0x00000008
       14085000	      1407	8000021c	3fe688b7	lui	x17,0x3fe68	 x17=0x3fe68000
       14095000	      1408	80000220	03e06063	bltu	x0,x30,80000240	  x0:0x00000000 x30:0x00080508
       14105000	      1409	00000000	00000013	addi	x0,x0,0	  x0:0x00000000
       14115000	      1410	8000023c	00000013	addi	x0,x0,0	  x0:0x00000000
       14125000	      1411	80000240	01cc2d33	slt	x26,x24,x28	 x24:0x80000000 x28:0x00000000 x26=0x00000001
       14135000	      1412	80000244	02258a63	beq	x11,x2,80000278	 x11:0x80000150  x2:0x00000000
       14145000	      1413	80000248	00699393	slli	x7,x19,0x6	 x19:0x00000001  x7=0x00000040
       14155000	      1414	8000024c	01238d33	add	x26,x7,x18	  x7:0x00000040 x18:0x0100a100 x26=0x0100a140
       14165000	      1415	80000250	97dfb737	lui	x14,0x97dfb	 x14=0x97dfb000
       14175000	      1416	80000254	011d7863	bgeu	x26,x17,80000264	 x26:0x0100a140 x17:0x3fe68000
       14185000	      1417	80000258	cf064e13	xori	x28,x12,-784	 x12:0x80000194 x28=0x7ffffd64
       14195000	      1418	8000025c	66ea5397	auipc	x7,0x66ea5	  x7=0xe6ea5258
       14205000	      1419	80000260	9c2fa613	slti	x12,x31,-1598	 x31:0x80000000 x12=0x00000001
       14215000	      1420	80000264	013d6c63	bltu	x26,x19,8000027c	 x26:0x0100a140 x19:0x00000001
       14225000	      1421	80000268	163d2613	slti	x12,x26,355	 x26:0x0100a140 x12=0x00000000
       14235000	      1422	8000026c	24ed31b7	lui	x3,0x24ed3	  x3=0x24ed3000
       14245000	      1423	80000270	baf58913	addi	x18,x11,-1105	 x11:0x80000150 x18=0x7ffffcff
       14255000	      1424	80000274	01ac5913	srli	x18,x24,0x1a	 x24:0x80000000 x18=0x00000020
       14265000	      1425	80000278	013df733	and	x14,x27,x19	 x27:0x800001b4 x19:0x00000001 x14=0x00000000
       14275000	      1426	8000027c	4d3d0493	addi	x9,x26,1235	 x26:0x0100a140  x9=0x0100a613
       14285000	      1427	80000280	ebbae293	ori	x5,x21,-325	 x21:0xffff8db9  x5=0xffffffbb
       14295000	      1428	80000284	d5cb4693	xori	x13,x22,-676	 x22:0xffffffe3 x13=0x000002bf
       14305000	      1429	80000288	002380b3	add	x1,x7,x2	  x7:0xe6ea5258  x2:0x00000000  x1=0xe6ea5258
       14315000	      1430	8000028c	07c7da63	bge	x15,x28,80000300	 x15:0x00000008 x28:0x7ffffd64
       14325000	      1431	80000290	4045d613	srai	x12,x11,0x4	 x11:0x80000150 x12=0xf8000015
       14335000	      1432	80000294	40245233	sra	x4,x8,x2	  x8:0xfff00000  x2:0x00000000  x4=0xfff00000
       14345000	      1433	80000298	005a7f33	and	x30,x20,x5	 x20:0x800001f4  x5:0xffffffbb x30=0x800001b0
       14355000	      1434	8000029c	c86a3d13	sltiu	x26,x20,-890	 x20:0x800001f4 x26=0x00000001
       14365000	      1435	800002a0	00001597	auipc	x11,0x1	 x11=0x8000129c
       14375000	      1436	800002a4	07858593	addi	x11,x11,120	 x11:0x8000129c x11=0x80001314
       14385000	      1437	800002a8	40df5933	sra	x18,x30,x13	 x30:0x800001b0 x13:0x000002bf x18=0xffffffff
       14395000	      1438	800002ac	31a0b013	sltiu	x0,x1,794	  x1:0xe6ea5258
       14405000	      1439	800002b0	0084e933	or	x18,x9,x8	  x9:0x0100a613  x8:0xfff00000 x18=0xfff0a613
       14415000	      1440	800002b4	7aa26d13	ori	x26,x4,1962	  x4:0xfff00000 x26=0xfff007aa
       14425000	      1441	800002b8	08858593	addi	x11,x11,136	 x11:0x80001314 x11=0x8000139c
       14435000	      1442	800002bc	007d0f33	add	x30,x26,x7	 x26:0xfff007aa  x7:0xe6ea5258 x30=0xe6da5a02
       14445000	      1443	800002c0	006cf463	bgeu	x25,x6,800002c8	 x25:0x80009fc4  x6:0x800001e8
       14455000	      1444	00000000	00000013	addi	x0,x0,0	  x0:0x00000000
       14465000	      1445	800002c4	00000013	addi	x0,x0,0	  x0:0x00000000
       14475000	      1446	800002c8	f79580e7	jalr	x1,x11,-135	 x11:0x8000139c  x1=0x800002c8
       14485000	      1447	00000000	00000013	addi	x0,x0,0	  x0:0x00000000
       14495000	      1448	80001314	00000013	addi	x0,x0,0	  x0:0x00000000
       14505000	      1449	80001318	00c8f263	bgeu	x17,x12,8000131c	 x17:0x3fe68000 x12:0xf8000015
       14515000	      1450	8000131c	fec80813	addi	x16,x16,-20	 x16:0x80009f84 x16=0x80009f70
       14525000	      1451	80001320	415fdf13	srai	x30,x31,0x15	 x31:0x80000000 x30=0xfffffc00
       14535000	      1452	80001324	00001433	sll	x8,x0,x0	  x0:0x00000000  x0:0x00000000  x8=0x00000000
       14545000	      1453	80001328	00182223	sw	x1,4(x16)	 x16:0x80009f70  x1:0x800002c8 PA:0x80009f74
       14555000	      1454	8000132c	6bcf6a97	auipc	x21,0x6bcf6	 x21=0xebcf7328
       14565000	      1455	80001330	00002617	auipc	x12,0x2	 x12=0x8000332c
       14575000	      1456	80001334	08060613	addi	x12,x12,128	 x12:0x8000332c x12=0x800033ac
       14585000	      1457	80001338	bb71f313	andi	x6,x3,-1097	  x3:0x24ed3000  x6=0x24ed3000
       14595000	      1458	8000133c	24d46493	ori	x9,x8,589	  x8:0x00000000  x9=0x0000024d
       14605000	      1459	80001340	00d33ab3	sltu	x21,x6,x13	  x6:0x24ed3000 x13:0x000002bf x21=0x00000000
       14615000	      1460	80001344	4010da93	srai	x21,x1,0x1	  x1:0x800002c8 x21=0xc0000164
       14625000	      1461	80001348	4a04eb93	ori	x23,x9,1184	  x9:0x0000024d x23=0x000006ed
       14635000	      1462	8000134c	c1f60613	addi	x12,x12,-993	 x12:0x800033ac x12=0x80002fcb
       14645000	      1463	80001350	00ec9213	slli	x4,x25,0xe	 x25:0x80009fc4  x4=0x27f10000
       14655000	      1464	80001354	00c34933	xor	x18,x6,x12	  x6:0x24ed3000 x12:0x80002fcb x18=0xa4ed1fcb
       14665000	      1465	80001358	01033513	sltiu	x10,x6,16	  x6:0x24ed3000 x10=0x00000000
       14675000	      1466	8000135c	3e1600e7	jalr	x1,x12,993	 x12:0x80002fcb  x1=0x8000135c
       14685000	      1467	00000000	00000013	addi	x0,x0,0	  x0:0x00000000
       14695000	      1468	800033ac	00000013	addi	x0,x0,0	  x0:0x00000000
       14705000	      1469	800033b0	00725263	bge	x4,x7,800033b4	  x4:0x27f10000  x7:0xe6ea5258
       14715000	      1470	00000000	00000013	addi	x0,x0,0	  x0:0x00000000
       14725000	      1471	800033b0	00000013	addi	x0,x0,0	  x0:0x00000000
       14735000	      1472	800033b4	fd480813	addi	x16,x16,-44	 x16:0x80009f70 x16=0x80009f44
       14745000	      1473	800033b8	00680933	add	x18,x16,x6	 x16:0x80009f44  x6:0x24ed3000 x18=0xa4edcf44
       14755000	      1474	800033bc	01b99793	slli	x15,x19,0x1b	 x19:0x00000001 x15=0x08000000
       14765000	      1475	800033c0	00182223	sw	x1,4(x16)	 x16:0x80009f44  x1:0x8000135c PA:0x80009f48
       14775000	      1476	800033c4	006597b3	sll	x15,x11,x6	 x11:0x8000139c  x6:0x24ed3000 x15=0x8000139c
       14785000	      1477	800033c8	034000ef	jal	x1,800033c8	  x1=0x800033c8
       14795000	      1478	00000000	00000013	addi	x0,x0,0	  x0:0x00000000
       14805000	      1479	800033f8	00000013	addi	x0,x0,0	  x0:0x00000000
       14815000	      1480	800033fc	ffdff36f	jal	x6,800033fc	  x6=0x800033fc
       14825000	      1481	00000000	00000013	addi	x0,x0,0	  x0:0x00000000
       14835000	      1482	800033f4	00000013	addi	x0,x0,0	  x0:0x00000000
       14845000	      1483	800033f8	008000ef	jal	x1,800033f8	  x1=0x800033f8
       14855000	      1484	00000000	00000013	addi	x0,x0,0	  x0:0x00000000
       14865000	      1485	800033fc	00000013	addi	x0,x0,0	  x0:0x00000000
       14875000	      1486	80003400	fe9ff0ef	jal	x1,80003400	  x1=0x80003400
       14885000	      1487	00000000	00000013	addi	x0,x0,0	  x0:0x00000000
       14895000	      1488	800033e4	00000013	addi	x0,x0,0	  x0:0x00000000
       14905000	      1489	800033e8	fe5ff36f	jal	x6,800033e8	  x6=0x800033e8
       14915000	      1490	00000000	00000013	addi	x0,x0,0	  x0:0x00000000
       14925000	      1491	800033c8	00000013	addi	x0,x0,0	  x0:0x00000000
       14935000	      1492	800033cc	014000ef	jal	x1,800033cc	  x1=0x800033cc
       14945000	      1493	00000000	00000013	addi	x0,x0,0	  x0:0x00000000
       14955000	      1494	800033dc	00000013	addi	x0,x0,0	  x0:0x00000000
       14965000	      1495	800033e0	0480046f	jal	x8,800033e0	  x8=0x800033e0
       14975000	      1496	00000000	00000013	addi	x0,x0,0	  x0:0x00000000
       14985000	      1497	80003424	00000013	addi	x0,x0,0	  x0:0x00000000
       14995000	      1498	80003428	fc5ff0ef	jal	x1,80003428	  x1=0x80003428
       15005000	      1499	00000000	00000013	addi	x0,x0,0	  x0:0x00000000
       15015000	      1500	800033e8	00000013	addi	x0,x0,0	  x0:0x00000000
       15025000	      1501	800033ec	008000ef	jal	x1,800033ec	  x1=0x800033ec
       15035000	      1502	00000000	00000013	addi	x0,x0,0	  x0:0x00000000
       15045000	      1503	800033f0	00000013	addi	x0,x0,0	  x0:0x00000000
       15055000	      1504	800033f4	030000ef	jal	x1,800033f4	  x1=0x800033f4
       15065000	      1505	00000000	00000013	addi	x0,x0,0	  x0:0x00000000
       15075000	      1506	80003420	00000013	addi	x0,x0,0	  x0:0x00000000
       15085000	      1507	80003424	fc1ff2ef	jal	x5,80003424	  x5=0x80003424
       15095000	      1508	00000000	00000013	addi	x0,x0,0	  x0:0x00000000
       15105000	      1509	800033e0	00000013	addi	x0,x0,0	  x0:0x00000000
       15115000	      1510	800033e4	ff9ff0ef	jal	x1,800033e4	  x1=0x800033e4
       15125000	      1511	00000000	00000013	addi	x0,x0,0	  x0:0x00000000
       15135000	      1512	800033d8	00000013	addi	x0,x0,0	  x0:0x00000000
       15145000	      1513	800033dc	030000ef	jal	x1,800033dc	  x1=0x800033dc
       15155000	      1514	00000000	00000013	addi	x0,x0,0	  x0:0x00000000
       15165000	      1515	80003408	00000013	addi	x0,x0,0	  x0:0x00000000
       15175000	      1516	8000340c	008000ef	jal	x1,8000340c	  x1=0x8000340c
       15185000	      1517	00000000	00000013	addi	x0,x0,0	  x0:0x00000000
       15195000	      1518	80003410	00000013	addi	x0,x0,0	  x0:0x00000000
       15205000	      1519	80003414	ff1ff36f	jal	x6,80003414	  x6=0x80003414
       15215000	      1520	00000000	00000013	addi	x0,x0,0	  x0:0x00000000
       15225000	      1521	80003400	00000013	addi	x0,x0,0	  x0:0x00000000
       15235000	      1522	80003404	0040076f	jal	x14,80003404	 x14=0x80003404
       15245000	      1523	00000000	00000013	addi	x0,x0,0	  x0:0x00000000
       15255000	      1524	80003404	00000013	addi	x0,x0,0	  x0:0x00000000
       15265000	      1525	80003408	fe9ff0ef	jal	x1,80003408	  x1=0x80003408
       15275000	      1526	00000000	00000013	addi	x0,x0,0	  x0:0x00000000
       15285000	      1527	800033ec	00000013	addi	x0,x0,0	  x0:0x00000000
       15295000	      1528	800033f0	fe1ff0ef	jal	x1,800033f0	  x1=0x800033f0
       15305000	      1529	00000000	00000013	addi	x0,x0,0	  x0:0x00000000
       15315000	      1530	800033cc	00000013	addi	x0,x0,0	  x0:0x00000000
       15325000	      1531	800033d0	040000ef	jal	x1,800033d0	  x1=0x800033d0
       15335000	      1532	00000000	00000013	addi	x0,x0,0	  x0:0x00000000
       15345000	      1533	8000340c	00000013	addi	x0,x0,0	  x0:0x00000000
       15355000	      1534	80003410	00c000ef	jal	x1,80003410	  x1=0x80003410
       15365000	      1535	00000000	00000013	addi	x0,x0,0	  x0:0x00000000
       15375000	      1536	80003418	00000013	addi	x0,x0,0	  x0:0x00000000
       15385000	      1537	8000341c	004006ef	jal	x13,8000341c	 x13=0x8000341c
       15395000	      1538	00000000	00000013	addi	x0,x0,0	  x0:0x00000000
       15405000	      1539	8000341c	00000013	addi	x0,x0,0	  x0:0x00000000
       15415000	      1540	80003420	fb5ff0ef	jal	x1,80003420	  x1=0x80003420
       15425000	      1541	00000000	00000013	addi	x0,x0,0	  x0:0x00000000
       15435000	      1542	800033d0	00000013	addi	x0,x0,0	  x0:0x00000000
       15445000	      1543	800033d4	0040056f	jal	x10,800033d4	 x10=0x800033d4
       15455000	      1544	00000000	00000013	addi	x0,x0,0	  x0:0x00000000
       15465000	      1545	800033d4	00000013	addi	x0,x0,0	  x0:0x00000000
       15475000	      1546	800033d8	040000ef	jal	x1,800033d8	  x1=0x800033d8
       15485000	      1547	00000000	00000013	addi	x0,x0,0	  x0:0x00000000
       15495000	      1548	80003414	00000013	addi	x0,x0,0	  x0:0x00000000
       15505000	      1549	80003418	014008ef	jal	x17,80003418	 x17=0x80003418
       15515000	      1550	00000000	00000013	addi	x0,x0,0	  x0:0x00000000
       15525000	      1551	80003428	00000013	addi	x0,x0,0	  x0:0x00000000
       15535000	      1552	8000342c	503f2c17	auipc	x24,0x503f2	 x24=0xd03f5428
       15545000	      1553	80003430	004000ef	jal	x1,80003430	  x1=0x80003430
       15555000	      1554	00000000	00000013	addi	x0,x0,0	  x0:0x00000000
       15565000	      1555	80003430	00000013	addi	x0,x0,0	  x0:0x00000000
       15575000	      1556	80003434	040000ef	jal	x1,80003434	  x1=0x80003434
       15585000	      1557	00000000	00000013	addi	x0,x0,0	  x0:0x00000000
       15595000	      1558	80003470	00000013	addi	x0,x0,0	  x0:0x00000000
       15605000	      1559	80003474	004000ef	jal	x1,80003474	  x1=0x80003474
       15615000	      1560	00000000	00000013	addi	x0,x0,0	  x0:0x00000000
       15625000	      1561	80003474	00000013	addi	x0,x0,0	  x0:0x00000000
       15635000	      1562	80003478	fd1ff0ef	jal	x1,80003478	  x1=0x80003478
       15645000	      1563	00000000	00000013	addi	x0,x0,0	  x0:0x00000000
       15655000	      1564	80003444	00000013	addi	x0,x0,0	  x0:0x00000000
       15665000	      1565	80003448	ff9ff0ef	jal	x1,80003448	  x1=0x80003448
       15675000	      1566	00000000	00000013	addi	x0,x0,0	  x0:0x00000000
       15685000	      1567	8000343c	00000013	addi	x0,x0,0	  x0:0x00000000
       15695000	      1568	80003440	ffdffdef	jal	x27,80003440	 x27=0x80003440
       15705000	      1569	00000000	00000013	addi	x0,x0,0	  x0:0x00000000
       15715000	      1570	80003438	00000013	addi	x0,x0,0	  x0:0x00000000
       15725000	      1571	8000343c	0180036f	jal	x6,8000343c	  x6=0x8000343c
       15735000	      1572	00000000	00000013	addi	x0,x0,0	  x0:0x00000000
       15745000	      1573	80003450	00000013	addi	x0,x0,0	  x0:0x00000000
       15755000	      1574	80003454	004000ef	jal	x1,80003454	  x1=0x80003454
       15765000	      1575	00000000	00000013	addi	x0,x0,0	  x0:0x00000000
       15775000	      1576	80003454	00000013	addi	x0,x0,0	  x0:0x00000000
       15785000	      1577	80003458	ff9ff3ef	jal	x7,80003458	  x7=0x80003458
       15795000	      1578	00000000	00000013	addi	x0,x0,0	  x0:0x00000000
       15805000	      1579	8000344c	00000013	addi	x0,x0,0	  x0:0x00000000
       15815000	      1580	80003450	01c000ef	jal	x1,80003450	  x1=0x80003450
       15825000	      1581	00000000	00000013	addi	x0,x0,0	  x0:0x00000000
       15835000	      1582	80003468	00000013	addi	x0,x0,0	  x0:0x00000000
       15845000	      1583	8000346c	00400b6f	jal	x22,8000346c	 x22=0x8000346c
       15855000	      1584	00000000	00000013	addi	x0,x0,0	  x0:0x00000000
       15865000	      1585	8000346c	00000013	addi	x0,x0,0	  x0:0x00000000
       15875000	      1586	80003470	ff1ff26f	jal	x4,80003470	  x4=0x80003470
       15885000	      1587	00000000	00000013	addi	x0,x0,0	  x0:0x00000000
       15895000	      1588	8000345c	00000013	addi	x0,x0,0	  x0:0x00000000
       15905000	      1589	80003460	fe5ff0ef	jal	x1,80003460	  x1=0x80003460
       15915000	      1590	00000000	00000013	addi	x0,x0,0	  x0:0x00000000
       15925000	      1591	80003440	00000013	addi	x0,x0,0	  x0:0x00000000
       15935000	      1592	80003444	024000ef	jal	x1,80003444	  x1=0x80003444
       15945000	      1593	00000000	00000013	addi	x0,x0,0	  x0:0x00000000
       15955000	      1594	80003464	00000013	addi	x0,x0,0	  x0:0x00000000
       15965000	      1595	80003468	fd1ff0ef	jal	x1,80003468	  x1=0x80003468
       15975000	      1596	00000000	00000013	addi	x0,x0,0	  x0:0x00000000
       15985000	      1597	80003434	00000013	addi	x0,x0,0	  x0:0x00000000
       15995000	      1598	80003438	024000ef	jal	x1,80003438	  x1=0x80003438
       16005000	      1599	00000000	00000013	addi	x0,x0,0	  x0:0x00000000
       16015000	      1600	80003458	00000013	addi	x0,x0,0	  x0:0x00000000
       16025000	      1601	8000345c	008002ef	jal	x5,8000345c	  x5=0x8000345c
       16035000	      1602	00000000	00000013	addi	x0,x0,0	  x0:0x00000000
       16045000	      1603	80003460	00000013	addi	x0,x0,0	  x0:0x00000000
       16055000	      1604	80003464	fe9ff36f	jal	x6,80003464	  x6=0x80003464
       16065000	      1605	00000000	00000013	addi	x0,x0,0	  x0:0x00000000
       16075000	      1606	80003448	00000013	addi	x0,x0,0	  x0:0x00000000
       16085000	      1607	8000344c	030003ef	jal	x7,8000344c	  x7=0x8000344c
       16095000	      1608	00000000	00000013	addi	x0,x0,0	  x0:0x00000000
       16105000	      1609	80003478	00000013	addi	x0,x0,0	  x0:0x00000000
       16115000	      1610	8000347c	00ffd9b3	srl	x19,x31,x15	 x31:0x80000000 x15:0x8000139c x19=0x00000008
       16125000	      1611	80003480	064000ef	jal	x1,80003480	  x1=0x80003480
       16135000	      1612	00000000	00000013	addi	x0,x0,0	  x0:0x00000000
       16145000	      1613	800034e0	00000013	addi	x0,x0,0	  x0:0x00000000
       16155000	      1614	800034e4	fd1ffd6f	jal	x26,800034e4	 x26=0x800034e4
       16165000	      1615	00000000	00000013	addi	x0,x0,0	  x0:0x00000000
       16175000	      1616	800034b0	00000013	addi	x0,x0,0	  x0:0x00000000
       16185000	      1617	800034b4	fe9ff36f	jal	x6,800034b4	  x6=0x800034b4
       16195000	      1618	00000000	00000013	addi	x0,x0,0	  x0:0x00000000
       16205000	      1619	80003498	00000013	addi	x0,x0,0	  x0:0x00000000
       16215000	      1620	8000349c	004006ef	jal	x13,8000349c	 x13=0x8000349c
       16225000	      1621	00000000	00000013	addi	x0,x0,0	  x0:0x00000000
       16235000	      1622	8000349c	00000013	addi	x0,x0,0	  x0:0x00000000
       16245000	      1623	800034a0	0100016f	jal	x2,800034a0	  x2=0x800034a0
       16255000	      1624	00000000	00000013	addi	x0,x0,0	  x0:0x00000000
       16265000	      1625	800034ac	00000013	addi	x0,x0,0	  x0:0x00000000
       16275000	      1626	800034b0	ff5ff36f	jal	x6,800034b0	  x6=0x800034b0
       16285000	      1627	00000000	00000013	addi	x0,x0,0	  x0:0x00000000
       16295000	      1628	800034a0	00000013	addi	x0,x0,0	  x0:0x00000000
       16305000	      1629	800034a4	ff1ff36f	jal	x6,800034a4	  x6=0x800034a4
       16315000	      1630	00000000	00000013	addi	x0,x0,0	  x0:0x00000000
       16325000	      1631	80003490	00000013	addi	x0,x0,0	  x0:0x00000000
       16335000	      1632	80003494	044004ef	jal	x9,80003494	  x9=0x80003494
       16345000	      1633	00000000	00000013	addi	x0,x0,0	  x0:0x00000000
       16355000	      1634	800034d4	00000013	addi	x0,x0,0	  x0:0x00000000
       16365000	      1635	800034d8	fe9ff0ef	jal	x1,800034d8	  x1=0x800034d8
       16375000	      1636	00000000	00000013	addi	x0,x0,0	  x0:0x00000000
       16385000	      1637	800034bc	00000013	addi	x0,x0,0	  x0:0x00000000
       16395000	      1638	800034c0	010000ef	jal	x1,800034c0	  x1=0x800034c0
       16405000	      1639	00000000	00000013	addi	x0,x0,0	  x0:0x00000000
       16415000	      1640	800034cc	00000013	addi	x0,x0,0	  x0:0x00000000
       16425000	      1641	800034d0	fb9ff0ef	jal	x1,800034d0	  x1=0x800034d0
       16435000	      1642	00000000	00000013	addi	x0,x0,0	  x0:0x00000000
       16445000	      1643	80003484	00000013	addi	x0,x0,0	  x0:0x00000000
       16455000	      1644	80003488	044000ef	jal	x1,80003488	  x1=0x80003488
       16465000	      1645	00000000	00000013	addi	x0,x0,0	  x0:0x00000000
       16475000	      1646	800034c8	00000013	addi	x0,x0,0	  x0:0x00000000
       16485000	      1647	800034cc	fcdff0ef	jal	x1,800034cc	  x1=0x800034cc
       16495000	      1648	00000000	00000013	addi	x0,x0,0	  x0:0x00000000
       16505000	      1649	80003494	00000013	addi	x0,x0,0	  x0:0x00000000
       16515000	      1650	80003498	050000ef	jal	x1,80003498	  x1=0x80003498
       16525000	      1651	00000000	00000013	addi	x0,x0,0	  x0:0x00000000
       16535000	      1652	800034e4	00000013	addi	x0,x0,0	  x0:0x00000000
       16545000	      1653	800034e8	fe1ff56f	jal	x10,800034e8	 x10=0x800034e8
       16555000	      1654	00000000	00000013	addi	x0,x0,0	  x0:0x00000000
       16565000	      1655	800034c4	00000013	addi	x0,x0,0	  x0:0x00000000
       16575000	      1656	800034c8	fc9ffb6f	jal	x22,800034c8	 x22=0x800034c8
       16585000	      1657	00000000	00000013	addi	x0,x0,0	  x0:0x00000000
       16595000	      1658	8000348c	00000013	addi	x0,x0,0	  x0:0x00000000
       16605000	      1659	80003490	02c001ef	jal	x3,80003490	  x3=0x80003490
       16615000	      1660	00000000	00000013	addi	x0,x0,0	  x0:0x00000000
       16625000	      1661	800034b8	00000013	addi	x0,x0,0	  x0:0x00000000
       16635000	      1662	800034bc	0240036f	jal	x6,800034bc	  x6=0x800034bc
       16645000	      1663	00000000	00000013	addi	x0,x0,0	  x0:0x00000000
       16655000	      1664	800034dc	00000013	addi	x0,x0,0	  x0:0x00000000
       16665000	      1665	800034e0	fd9ff0ef	jal	x1,800034e0	  x1=0x800034e0
       16675000	      1666	00000000	00000013	addi	x0,x0,0	  x0:0x00000000
       16685000	      1667	800034b4	00000013	addi	x0,x0,0	  x0:0x00000000
       16695000	      1668	800034b8	024000ef	jal	x1,800034b8	  x1=0x800034b8
       16705000	      1669	00000000	00000013	addi	x0,x0,0	  x0:0x00000000
       16715000	      1670	800034d8	00000013	addi	x0,x0,0	  x0:0x00000000
       16725000	      1671	800034dc	fa9ff2ef	jal	x5,800034dc	  x5=0x800034dc
       16735000	      1672	00000000	00000013	addi	x0,x0,0	  x0:0x00000000
       16745000	      1673	80003480	00000013	addi	x0,x0,0	  x0:0x00000000
       16755000	      1674	80003484	0280036f	jal	x6,80003484	  x6=0x80003484
       16765000	      1675	00000000	00000013	addi	x0,x0,0	  x0:0x00000000
       16775000	      1676	800034a8	00000013	addi	x0,x0,0	  x0:0x00000000
       16785000	      1677	800034ac	040007ef	jal	x15,800034ac	 x15=0x800034ac
       16795000	      1678	00000000	00000013	addi	x0,x0,0	  x0:0x00000000
       16805000	      1679	800034e8	00000013	addi	x0,x0,0	  x0:0x00000000
       16815000	      1680	800034ec	fe9ffdef	jal	x27,800034ec	 x27=0x800034ec
       16825000	      1681	00000000	00000013	addi	x0,x0,0	  x0:0x00000000
       16835000	      1682	800034d0	00000013	addi	x0,x0,0	  x0:0x00000000
       16845000	      1683	800034d4	ff1ff0ef	jal	x1,800034d4	  x1=0x800034d4
       16855000	      1684	00000000	00000013	addi	x0,x0,0	  x0:0x00000000
       16865000	      1685	800034c0	00000013	addi	x0,x0,0	  x0:0x00000000
       16875000	      1686	800034c4	fe5ff36f	jal	x6,800034c4	  x6=0x800034c4
       16885000	      1687	00000000	00000013	addi	x0,x0,0	  x0:0x00000000
       16895000	      1688	800034a4	00000013	addi	x0,x0,0	  x0:0x00000000
       16905000	      1689	800034a8	fe5ff96f	jal	x18,800034a8	 x18=0x800034a8
       16915000	      1690	00000000	00000013	addi	x0,x0,0	  x0:0x00000000
       16925000	      1691	80003488	00000013	addi	x0,x0,0	  x0:0x00000000
       16935000	      1692	8000348c	064000ef	jal	x1,8000348c	  x1=0x8000348c
       16945000	      1693	00000000	00000013	addi	x0,x0,0	  x0:0x00000000
       16955000	      1694	800034ec	00000013	addi	x0,x0,0	  x0:0x00000000
       16965000	      1695	800034f0	01d616b3	sll	x13,x12,x29	 x12:0x80002fcb x29:0x00000000 x13=0x80002fcb
       16975000	      1696	800034f4	010000ef	jal	x1,800034f4	  x1=0x800034f4
       16985000	      1697	00000000	00000013	addi	x0,x0,0	  x0:0x00000000
       16995000	      1698	80003500	00000013	addi	x0,x0,0	  x0:0x00000000
       17005000	      1699	80003504	ff9ff36f	jal	x6,80003504	  x6=0x80003504
       17015000	      1700	00000000	00000013	addi	x0,x0,0	  x0:0x00000000
       17025000	      1701	800034f8	00000013	addi	x0,x0,0	  x0:0x00000000
       17035000	      1702	800034fc	014000ef	jal	x1,800034fc	  x1=0x800034fc
       17045000	      1703	00000000	00000013	addi	x0,x0,0	  x0:0x00000000
       17055000	      1704	8000350c	00000013	addi	x0,x0,0	  x0:0x00000000
       17065000	      1705	80003510	fe9ff0ef	jal	x1,80003510	  x1=0x80003510
       17075000	      1706	00000000	00000013	addi	x0,x0,0	  x0:0x00000000
       17085000	      1707	800034f4	00000013	addi	x0,x0,0	  x0:0x00000000
       17095000	      1708	800034f8	008000ef	jal	x1,800034f8	  x1=0x800034f8
       17105000	      1709	00000000	00000013	addi	x0,x0,0	  x0:0x00000000
       17115000	      1710	800034fc	00000013	addi	x0,x0,0	  x0:0x00000000
       17125000	      1711	80003500	028000ef	jal	x1,80003500	  x1=0x80003500
       17135000	      1712	00000000	00000013	addi	x0,x0,0	  x0:0x00000000
       17145000	      1713	80003524	00000013	addi	x0,x0,0	  x0:0x00000000
       17155000	      1714	80003528	fedff36f	jal	x6,80003528	  x6=0x80003528
       17165000	      1715	00000000	00000013	addi	x0,x0,0	  x0:0x00000000
       17175000	      1716	80003510	00000013	addi	x0,x0,0	  x0:0x00000000
       17185000	      1717	80003514	ff5ff0ef	jal	x1,80003514	  x1=0x80003514
       17195000	      1718	00000000	00000013	addi	x0,x0,0	  x0:0x00000000
       17205000	      1719	80003504	00000013	addi	x0,x0,0	  x0:0x00000000
       17215000	      1720	80003508	0100036f	jal	x6,80003508	  x6=0x80003508
       17225000	      1721	00000000	00000013	addi	x0,x0,0	  x0:0x00000000
       17235000	      1722	80003514	00000013	addi	x0,x0,0	  x0:0x00000000
       17245000	      1723	80003518	008000ef	jal	x1,80003518	  x1=0x80003518
       17255000	      1724	00000000	00000013	addi	x0,x0,0	  x0:0x00000000
       17265000	      1725	8000351c	00000013	addi	x0,x0,0	  x0:0x00000000
       17275000	      1726	80003520	fedff0ef	jal	x1,80003520	  x1=0x80003520
       17285000	      1727	00000000	00000013	addi	x0,x0,0	  x0:0x00000000
       17295000	      1728	80003508	00000013	addi	x0,x0,0	  x0:0x00000000
       17305000	      1729	8000350c	018000ef	jal	x1,8000350c	  x1=0x8000350c
       17315000	      1730	00000000	00000013	addi	x0,x0,0	  x0:0x00000000
       17325000	      1731	80003520	00000013	addi	x0,x0,0	  x0:0x00000000
       17335000	      1732	80003524	ff9ff36f	jal	x6,80003524	  x6=0x80003524
       17345000	      1733	00000000	00000013	addi	x0,x0,0	  x0:0x00000000
       17355000	      1734	80003518	00000013	addi	x0,x0,0	  x0:0x00000000
       17365000	      1735	8000351c	0100036f	jal	x6,8000351c	  x6=0x8000351c
       17375000	      1736	00000000	00000013	addi	x0,x0,0	  x0:0x00000000
       17385000	      1737	80003528	00000013	addi	x0,x0,0	  x0:0x00000000
       17395000	      1738	8000352c	0103a7b3	slt	x15,x7,x16	  x7:0x8000344c x16:0x80009f44 x15=0x00000001
       17405000	      1739	80003530	050000ef	jal	x1,80003530	  x1=0x80003530
       17415000	      1740	00000000	00000013	addi	x0,x0,0	  x0:0x00000000
       17425000	      1741	8000357c	00000013	addi	x0,x0,0	  x0:0x00000000
       17435000	      1742	80003580	00c000ef	jal	x1,80003580	  x1=0x80003580
       17445000	      1743	00000000	00000013	addi	x0,x0,0	  x0:0x00000000
       17455000	      1744	80003588	00000013	addi	x0,x0,0	  x0:0x00000000
       17465000	      1745	8000358c	fedff0ef	jal	x1,8000358c	  x1=0x8000358c
       17475000	      1746	00000000	00000013	addi	x0,x0,0	  x0:0x00000000
       17485000	      1747	80003574	00000013	addi	x0,x0,0	  x0:0x00000000
       17495000	      1748	80003578	004000ef	jal	x1,80003578	  x1=0x80003578
       17505000	      1749	00000000	00000013	addi	x0,x0,0	  x0:0x00000000
       17515000	      1750	80003578	00000013	addi	x0,x0,0	  x0:0x00000000
       17525000	      1751	8000357c	fedff36f	jal	x6,8000357c	  x6=0x8000357c
       17535000	      1752	00000000	00000013	addi	x0,x0,0	  x0:0x00000000
       17545000	      1753	80003564	00000013	addi	x0,x0,0	  x0:0x00000000
       17555000	      1754	80003568	fe9ff0ef	jal	x1,80003568	  x1=0x80003568
       17565000	      1755	00000000	00000013	addi	x0,x0,0	  x0:0x00000000
       17575000	      1756	8000354c	00000013	addi	x0,x0,0	  x0:0x00000000
       17585000	      1757	80003550	034000ef	jal	x1,80003550	  x1=0x80003550
       17595000	      1758	00000000	00000013	addi	x0,x0,0	  x0:0x00000000
       17605000	      1759	80003580	00000013	addi	x0,x0,0	  x0:0x00000000
       17615000	      1760	80003584	fc5ff0ef	jal	x1,80003584	  x1=0x80003584
       17625000	      1761	00000000	00000013	addi	x0,x0,0	  x0:0x00000000
       17635000	      1762	80003544	00000013	addi	x0,x0,0	  x0:0x00000000
       17645000	      1763	80003548	0040036f	jal	x6,80003548	  x6=0x80003548
       17655000	      1764	00000000	00000013	addi	x0,x0,0	  x0:0x00000000
       17665000	      1765	80003548	00000013	addi	x0,x0,0	  x0:0x00000000
       17675000	      1766	8000354c	018000ef	jal	x1,8000354c	  x1=0x8000354c
       17685000	      1767	00000000	00000013	addi	x0,x0,0	  x0:0x00000000
       17695000	      1768	80003560	00000013	addi	x0,x0,0	  x0:0x00000000
       17705000	      1769	80003564	030000ef	jal	x1,80003564	  x1=0x80003564
       17715000	      1770	00000000	00000013	addi	x0,x0,0	  x0:0x00000000
       17725000	      1771	80003590	00000013	addi	x0,x0,0	  x0:0x00000000
       17735000	      1772	80003594	ffdff0ef	jal	x1,80003594	  x1=0x80003594
       17745000	      1773	00000000	00000013	addi	x0,x0,0	  x0:0x00000000
       17755000	      1774	8000358c	00000013	addi	x0,x0,0	  x0:0x00000000
       17765000	      1775	80003590	fc9ff0ef	jal	x1,80003590	  x1=0x80003590
       17775000	      1776	00000000	00000013	addi	x0,x0,0	  x0:0x00000000
       17785000	      1777	80003554	00000013	addi	x0,x0,0	  x0:0x00000000
       17795000	      1778	80003558	0400016f	jal	x2,80003558	  x2=0x80003558
       17805000	      1779	00000000	00000013	addi	x0,x0,0	  x0:0x00000000
       17815000	      1780	80003594	00000013	addi	x0,x0,0	  x0:0x00000000
       17825000	      1781	80003598	fd9fff6f	jal	x30,80003598	 x30=0x80003598
       17835000	      1782	00000000	00000013	addi	x0,x0,0	  x0:0x00000000
       17845000	      1783	8000356c	00000013	addi	x0,x0,0	  x0:0x00000000
       17855000	      1784	80003570	004001ef	jal	x3,80003570	  x3=0x80003570
       17865000	      1785	00000000	00000013	addi	x0,x0,0	  x0:0x00000000
       17875000	      1786	80003570	00000013	addi	x0,x0,0	  x0:0x00000000
       17885000	      1787	80003574	fedff0ef	jal	x1,80003574	  x1=0x80003574
       17895000	      1788	00000000	00000013	addi	x0,x0,0	  x0:0x00000000
       17905000	      1789	8000355c	00000013	addi	x0,x0,0	  x0:0x00000000
       17915000	      1790	80003560	fd9ffc6f	jal	x24,80003560	 x24=0x80003560
       17925000	      1791	00000000	00000013	addi	x0,x0,0	  x0:0x00000000
       17935000	      1792	80003534	00000013	addi	x0,x0,0	  x0:0x00000000
       17945000	      1793	80003538	0080016f	jal	x2,80003538	  x2=0x80003538
       17955000	      1794	00000000	00000013	addi	x0,x0,0	  x0:0x00000000
       17965000	      1795	8000353c	00000013	addi	x0,x0,0	  x0:0x00000000
       17975000	      1796	80003540	ff5ff0ef	jal	x1,80003540	  x1=0x80003540
       17985000	      1797	00000000	00000013	addi	x0,x0,0	  x0:0x00000000
       17995000	      1798	80003530	00000013	addi	x0,x0,0	  x0:0x00000000
       18005000	      1799	80003534	010000ef	jal	x1,80003534	  x1=0x80003534
       18015000	      1800	00000000	00000013	addi	x0,x0,0	  x0:0x00000000
       18025000	      1801	80003540	00000013	addi	x0,x0,0	  x0:0x00000000
       18035000	      1802	80003544	ff9ff36f	jal	x6,80003544	  x6=0x80003544
       18045000	      1803	00000000	00000013	addi	x0,x0,0	  x0:0x00000000
       18055000	      1804	80003538	00000013	addi	x0,x0,0	  x0:0x00000000
       18065000	      1805	8000353c	020000ef	jal	x1,8000353c	  x1=0x8000353c
       18075000	      1806	00000000	00000013	addi	x0,x0,0	  x0:0x00000000
       18085000	      1807	80003558	00000013	addi	x0,x0,0	  x0:0x00000000
       18095000	      1808	8000355c	010007ef	jal	x15,8000355c	 x15=0x8000355c
       18105000	      1809	00000000	00000013	addi	x0,x0,0	  x0:0x00000000
       18115000	      1810	80003568	00000013	addi	x0,x0,0	  x0:0x00000000
       18125000	      1811	8000356c	030000ef	jal	x1,8000356c	  x1=0x8000356c
       18135000	      1812	00000000	00000013	addi	x0,x0,0	  x0:0x00000000
       18145000	      1813	80003598	00000013	addi	x0,x0,0	  x0:0x00000000
       18155000	      1814	8000359c	fb9ff76f	jal	x14,8000359c	 x14=0x8000359c
       18165000	      1815	00000000	00000013	addi	x0,x0,0	  x0:0x00000000
       18175000	      1816	80003550	00000013	addi	x0,x0,0	  x0:0x00000000
       18185000	      1817	80003554	034000ef	jal	x1,80003554	  x1=0x80003554
       18195000	      1818	00000000	00000013	addi	x0,x0,0	  x0:0x00000000
       18205000	      1819	80003584	00000013	addi	x0,x0,0	  x0:0x00000000
       18215000	      1820	80003588	0180036f	jal	x6,80003588	  x6=0x80003588
       18225000	      1821	00000000	00000013	addi	x0,x0,0	  x0:0x00000000
       18235000	      1822	8000359c	00000013	addi	x0,x0,0	  x0:0x00000000
       18245000	      1823	800035a0	414b9397	auipc	x7,0x414b9	  x7=0xc14bc59c
       18255000	      1824	800035a4	038000ef	jal	x1,800035a4	  x1=0x800035a4
       18265000	      1825	00000000	00000013	addi	x0,x0,0	  x0:0x00000000
       18275000	      1826	800035d8	00000013	addi	x0,x0,0	  x0:0x00000000
       18285000	      1827	800035dc	fe9ffb6f	jal	x22,800035dc	 x22=0x800035dc
       18295000	      1828	00000000	00000013	addi	x0,x0,0	  x0:0x00000000
       18305000	      1829	800035c0	00000013	addi	x0,x0,0	  x0:0x00000000
       18315000	      1830	800035c4	ff9ff36f	jal	x6,800035c4	  x6=0x800035c4
       18325000	      1831	00000000	00000013	addi	x0,x0,0	  x0:0x00000000
       18335000	      1832	800035b8	00000013	addi	x0,x0,0	  x0:0x00000000
       18345000	      1833	800035bc	fedff0ef	jal	x1,800035bc	  x1=0x800035bc
       18355000	      1834	00000000	00000013	addi	x0,x0,0	  x0:0x00000000
       18365000	      1835	800035a4	00000013	addi	x0,x0,0	  x0:0x00000000
       18375000	      1836	800035a8	0180016f	jal	x2,800035a8	  x2=0x800035a8
       18385000	      1837	00000000	00000013	addi	x0,x0,0	  x0:0x00000000
       18395000	      1838	800035bc	00000013	addi	x0,x0,0	  x0:0x00000000
       18405000	      1839	800035c0	00c000ef	jal	x1,800035c0	  x1=0x800035c0
       18415000	      1840	00000000	00000013	addi	x0,x0,0	  x0:0x00000000
       18425000	      1841	800035c8	00000013	addi	x0,x0,0	  x0:0x00000000
       18435000	      1842	800035cc	fedff16f	jal	x2,800035cc	  x2=0x800035cc
       18445000	      1843	00000000	00000013	addi	x0,x0,0	  x0:0x00000000
       18455000	      1844	800035b4	00000013	addi	x0,x0,0	  x0:0x00000000
       18465000	      1845	800035b8	028000ef	jal	x1,800035b8	  x1=0x800035b8
       18475000	      1846	00000000	00000013	addi	x0,x0,0	  x0:0x00000000
       18485000	      1847	800035dc	00000013	addi	x0,x0,0	  x0:0x00000000
       18495000	      1848	800035e0	fe9ff1ef	jal	x3,800035e0	  x3=0x800035e0
       18505000	      1849	00000000	00000013	addi	x0,x0,0	  x0:0x00000000
       18515000	      1850	800035c4	00000013	addi	x0,x0,0	  x0:0x00000000
       18525000	      1851	800035c8	01c000ef	jal	x1,800035c8	  x1=0x800035c8
       18535000	      1852	00000000	00000013	addi	x0,x0,0	  x0:0x00000000
       18545000	      1853	800035e0	00000013	addi	x0,x0,0	  x0:0x00000000
       18555000	      1854	800035e4	fcdff0ef	jal	x1,800035e4	  x1=0x800035e4
       18565000	      1855	00000000	00000013	addi	x0,x0,0	  x0:0x00000000
       18575000	      1856	800035ac	00000013	addi	x0,x0,0	  x0:0x00000000
       18585000	      1857	800035b0	ffdff0ef	jal	x1,800035b0	  x1=0x800035b0
       18595000	      1858	00000000	00000013	addi	x0,x0,0	  x0:0x00000000
       18605000	      1859	800035a8	00000013	addi	x0,x0,0	  x0:0x00000000
       18615000	      1860	800035ac	024000ef	jal	x1,800035ac	  x1=0x800035ac
       18625000	      1861	00000000	00000013	addi	x0,x0,0	  x0:0x00000000
       18635000	      1862	800035cc	00000013	addi	x0,x0,0	  x0:0x00000000
       18645000	      1863	800035d0	0080036f	jal	x6,800035d0	  x6=0x800035d0
       18655000	      1864	00000000	00000013	addi	x0,x0,0	  x0:0x00000000
       18665000	      1865	800035d4	00000013	addi	x0,x0,0	  x0:0x00000000
       18675000	      1866	800035d8	ffdff0ef	jal	x1,800035d8	  x1=0x800035d8
       18685000	      1867	00000000	00000013	addi	x0,x0,0	  x0:0x00000000
       18695000	      1868	800035d0	00000013	addi	x0,x0,0	  x0:0x00000000
       18705000	      1869	800035d4	fe1ff36f	jal	x6,800035d4	  x6=0x800035d4
       18715000	      1870	00000000	00000013	addi	x0,x0,0	  x0:0x00000000
       18725000	      1871	800035b0	00000013	addi	x0,x0,0	  x0:0x00000000
       18735000	      1872	800035b4	034000ef	jal	x1,800035b4	  x1=0x800035b4
       18745000	      1873	00000000	00000013	addi	x0,x0,0	  x0:0x00000000
       18755000	      1874	800035e4	00000013	addi	x0,x0,0	  x0:0x00000000
       18765000	      1875	800035e8	d77aec13	ori	x24,x21,-649	 x21:0xc0000164 x24=0xfffffd77
       18775000	      1876	800035ec	024000ef	jal	x1,800035ec	  x1=0x800035ec
       18785000	      1877	00000000	00000013	addi	x0,x0,0	  x0:0x00000000
       18795000	      1878	8000360c	00000013	addi	x0,x0,0	  x0:0x00000000
       18805000	      1879	80003610	014000ef	jal	x1,80003610	  x1=0x80003610
       18815000	      1880	00000000	00000013	addi	x0,x0,0	  x0:0x00000000
       18825000	      1881	80003620	00000013	addi	x0,x0,0	  x0:0x00000000
       18835000	      1882	80003624	fe1ff36f	jal	x6,80003624	  x6=0x80003624
       18845000	      1883	00000000	00000013	addi	x0,x0,0	  x0:0x00000000
       18855000	      1884	80003600	00000013	addi	x0,x0,0	  x0:0x00000000
       18865000	      1885	80003604	fedff36f	jal	x6,80003604	  x6=0x80003604
       18875000	      1886	00000000	00000013	addi	x0,x0,0	  x0:0x00000000
       18885000	      1887	800035ec	00000013	addi	x0,x0,0	  x0:0x00000000
       18895000	      1888	800035f0	00800e6f	jal	x28,800035f0	 x28=0x800035f0
       18905000	      1889	00000000	00000013	addi	x0,x0,0	  x0:0x00000000
       18915000	      1890	800035f4	00000013	addi	x0,x0,0	  x0:0x00000000
       18925000	      1891	800035f8	038004ef	jal	x9,800035f8	  x9=0x800035f8
       18935000	      1892	00000000	00000013	addi	x0,x0,0	  x0:0x00000000
       18945000	      1893	8000362c	00000013	addi	x0,x0,0	  x0:0x00000000
       18955000	      1894	80003630	fedff0ef	jal	x1,80003630	  x1=0x80003630
       18965000	      1895	00000000	00000013	addi	x0,x0,0	  x0:0x00000000
       18975000	      1896	80003618	00000013	addi	x0,x0,0	  x0:0x00000000
       18985000	      1897	8000361c	fedff36f	jal	x6,8000361c	  x6=0x8000361c
       18995000	      1898	00000000	00000013	addi	x0,x0,0	  x0:0x00000000
       19005000	      1899	80003604	00000013	addi	x0,x0,0	  x0:0x00000000
       19015000	      1900	80003608	024000ef	jal	x1,80003608	  x1=0x80003608
       19025000	      1901	00000000	00000013	addi	x0,x0,0	  x0:0x00000000
       19035000	      1902	80003628	00000013	addi	x0,x0,0	  x0:0x00000000
       19045000	      1903	8000362c	fe1ff36f	jal	x6,8000362c	  x6=0x8000362c
       19055000	      1904	00000000	00000013	addi	x0,x0,0	  x0:0x00000000
       19065000	      1905	80003608	00000013	addi	x0,x0,0	  x0:0x00000000
       19075000	      1906	8000360c	ff1ff26f	jal	x4,8000360c	  x4=0x8000360c
       19085000	      1907	00000000	00000013	addi	x0,x0,0	  x0:0x00000000
       19095000	      1908	800035f8	00000013	addi	x0,x0,0	  x0:0x00000000
       19105000	      1909	800035fc	01c000ef	jal	x1,800035fc	  x1=0x800035fc
       19115000	      1910	00000000	00000013	addi	x0,x0,0	  x0:0x00000000
       19125000	      1911	80003614	00000013	addi	x0,x0,0	  x0:0x00000000
       19135000	      1912	80003618	00800a6f	jal	x20,80003618	 x20=0x80003618
       19145000	      1913	00000000	00000013	addi	x0,x0,0	  x0:0x00000000
       19155000	      1914	8000361c	00000013	addi	x0,x0,0	  x0:0x00000000
       19165000	      1915	80003620	ff5ff36f	jal	x6,80003620	  x6=0x80003620
       19175000	      1916	00000000	00000013	addi	x0,x0,0	  x0:0x00000000
       19185000	      1917	80003610	00000013	addi	x0,x0,0	  x0:0x00000000
       19195000	      1918	80003614	fedff3ef	jal	x7,80003614	  x7=0x80003614
       19205000	      1919	00000000	00000013	addi	x0,x0,0	  x0:0x00000000
       19215000	      1920	800035fc	00000013	addi	x0,x0,0	  x0:0x00000000
       19225000	      1921	80003600	028008ef	jal	x17,80003600	 x17=0x80003600
       19235000	      1922	00000000	00000013	addi	x0,x0,0	  x0:0x00000000
       19245000	      1923	80003624	00000013	addi	x0,x0,0	  x0:0x00000000
       19255000	      1924	80003628	fcdff0ef	jal	x1,80003628	  x1=0x80003628
       19265000	      1925	00000000	00000013	addi	x0,x0,0	  x0:0x00000000
       19275000	      1926	800035f0	00000013	addi	x0,x0,0	  x0:0x00000000
       19285000	      1927	800035f4	0400016f	jal	x2,800035f4	  x2=0x800035f4
       19295000	      1928	00000000	00000013	addi	x0,x0,0	  x0:0x00000000
       19305000	      1929	80003630	00000013	addi	x0,x0,0	  x0:0x00000000
       19315000	      1930	80003634	d468bb13	sltiu	x22,x17,-698	 x17:0x80003600 x22=0x00000001
       19325000	      1931	80003638	024000ef	jal	x1,80003638	  x1=0x80003638
       19335000	      1932	00000000	00000013	addi	x0,x0,0	  x0:0x00000000
       19345000	      1933	80003658	00000013	addi	x0,x0,0	  x0:0x00000000
       19355000	      1934	8000365c	fe9ffaef	jal	x21,8000365c	 x21=0x8000365c
       19365000	      1935	00000000	00000013	addi	x0,x0,0	  x0:0x00000000
       19375000	      1936	80003640	00000013	addi	x0,x0,0	  x0:0x00000000
       19385000	      1937	80003644	040007ef	jal	x15,80003644	 x15=0x80003644
       19395000	      1938	00000000	00000013	addi	x0,x0,0	  x0:0x00000000
       19405000	      1939	80003680	00000013	addi	x0,x0,0	  x0:0x00000000
       19415000	      1940	80003684	fb9ff36f	jal	x6,80003684	  x6=0x80003684
       19425000	      1941	00000000	00000013	addi	x0,x0,0	  x0:0x00000000
       19435000	      1942	80003638	00000013	addi	x0,x0,0	  x0:0x00000000
       19445000	      1943	8000363c	024000ef	jal	x1,8000363c	  x1=0x8000363c
       19455000	      1944	00000000	00000013	addi	x0,x0,0	  x0:0x00000000
       19465000	      1945	8000365c	00000013	addi	x0,x0,0	  x0:0x00000000
       19475000	      1946	80003660	ff1ff0ef	jal	x1,80003660	  x1=0x80003660
       19485000	      1947	00000000	00000013	addi	x0,x0,0	  x0:0x00000000
       19495000	      1948	8000364c	00000013	addi	x0,x0,0	  x0:0x00000000
       19505000	      1949	80003650	028000ef	jal	x1,80003650	  x1=0x80003650
       19515000	      1950	00000000	00000013	addi	x0,x0,0	  x0:0x00000000
       19525000	      1951	80003674	00000013	addi	x0,x0,0	  x0:0x00000000
       19535000	      1952	80003678	fe1ff8ef	jal	x17,80003678	 x17=0x80003678
       19545000	      1953	00000000	00000013	addi	x0,x0,0	  x0:0x00000000
       19555000	      1954	80003654	00000013	addi	x0,x0,0	  x0:0x00000000
       19565000	      1955	80003658	00c00aef	jal	x21,80003658	 x21=0x80003658
       19575000	      1956	00000000	00000013	addi	x0,x0,0	  x0:0x00000000
       19585000	      1957	80003660	00000013	addi	x0,x0,0	  x0:0x00000000
       19595000	      1958	80003664	024000ef	jal	x1,80003664	  x1=0x80003664
       19605000	      1959	00000000	00000013	addi	x0,x0,0	  x0:0x00000000
       19615000	      1960	80003684	00000013	addi	x0,x0,0	  x0:0x00000000
       19625000	      1961	80003688	fcdff76f	jal	x14,80003688	 x14=0x80003688
       19635000	      1962	00000000	00000013	addi	x0,x0,0	  x0:0x00000000
       19645000	      1963	80003650	00000013	addi	x0,x0,0	  x0:0x00000000
       19655000	      1964	80003654	0180046f	jal	x8,80003654	  x8=0x80003654
       19665000	      1965	00000000	00000013	addi	x0,x0,0	  x0:0x00000000
       19675000	      1966	80003668	00000013	addi	x0,x0,0	  x0:0x00000000
       19685000	      1967	8000366c	008000ef	jal	x1,8000366c	  x1=0x8000366c
       19695000	      1968	00000000	00000013	addi	x0,x0,0	  x0:0x00000000
       19705000	      1969	80003670	00000013	addi	x0,x0,0	  x0:0x00000000
       19715000	      1970	80003674	fd9ff0ef	jal	x1,80003674	  x1=0x80003674
       19725000	      1971	00000000	00000013	addi	x0,x0,0	  x0:0x00000000
       19735000	      1972	80003648	00000013	addi	x0,x0,0	  x0:0x00000000
       19745000	      1973	8000364c	ffdff0ef	jal	x1,8000364c	  x1=0x8000364c
       19755000	      1974	00000000	00000013	addi	x0,x0,0	  x0:0x00000000
       19765000	      1975	80003644	00000013	addi	x0,x0,0	  x0:0x00000000
       19775000	      1976	80003648	038000ef	jal	x1,80003648	  x1=0x80003648
       19785000	      1977	00000000	00000013	addi	x0,x0,0	  x0:0x00000000
       19795000	      1978	8000367c	00000013	addi	x0,x0,0	  x0:0x00000000
       19805000	      1979	80003680	fc1ff0ef	jal	x1,80003680	  x1=0x80003680
       19815000	      1980	00000000	00000013	addi	x0,x0,0	  x0:0x00000000
       19825000	      1981	8000363c	00000013	addi	x0,x0,0	  x0:0x00000000
       19835000	      1982	80003640	04c000ef	jal	x1,80003640	  x1=0x80003640
       19845000	      1983	00000000	00000013	addi	x0,x0,0	  x0:0x00000000
       19855000	      1984	80003688	00000013	addi	x0,x0,0	  x0:0x00000000
       19865000	      1985	8000368c	ff1ff0ef	jal	x1,8000368c	  x1=0x8000368c
       19875000	      1986	00000000	00000013	addi	x0,x0,0	  x0:0x00000000
       19885000	      1987	80003678	00000013	addi	x0,x0,0	  x0:0x00000000
       19895000	      1988	8000367c	ff5ff46f	jal	x8,8000367c	  x8=0x8000367c
       19905000	      1989	00000000	00000013	addi	x0,x0,0	  x0:0x00000000
       19915000	      1990	8000366c	00000013	addi	x0,x0,0	  x0:0x00000000
       19925000	      1991	80003670	ff9ff6ef	jal	x13,80003670	 x13=0x80003670
       19935000	      1992	00000000	00000013	addi	x0,x0,0	  x0:0x00000000
       19945000	      1993	80003664	00000013	addi	x0,x0,0	  x0:0x00000000
       19955000	      1994	80003668	02800c6f	jal	x24,80003668	 x24=0x80003668
       19965000	      1995	00000000	00000013	addi	x0,x0,0	  x0:0x00000000
       19975000	      1996	8000368c	00000013	addi	x0,x0,0	  x0:0x00000000
       19985000	      1997	80003690	bef5a713	slti	x14,x11,-1041	 x11:0x8000139c x14=0x00000001
       19995000	      1998	80003694	008000ef	jal	x1,80003694	  x1=0x80003694
       20005000	      1999	00000000	00000013	addi	x0,x0,0	  x0:0x00000000
       20015000	      2000	80003698	00000013	addi	x0,x0,0	  x0:0x00000000
       20025000	      2001	8000369c	014000ef	jal	x1,8000369c	  x1=0x8000369c
       20035000	      2002	00000000	00000013	addi	x0,x0,0	  x0:0x00000000
       20045000	      2003	800036ac	00000013	addi	x0,x0,0	  x0:0x00000000
       20055000	      2004	800036b0	0180036f	jal	x6,800036b0	  x6=0x800036b0
       20065000	      2005	00000000	00000013	addi	x0,x0,0	  x0:0x00000000
       20075000	      2006	800036c4	00000013	addi	x0,x0,0	  x0:0x00000000
       20085000	      2007	800036c8	ffdff0ef	jal	x1,800036c8	  x1=0x800036c8
       20095000	      2008	00000000	00000013	addi	x0,x0,0	  x0:0x00000000
       20105000	      2009	800036c0	00000013	addi	x0,x0,0	  x0:0x00000000
       20115000	      2010	800036c4	ff5ff0ef	jal	x1,800036c4	  x1=0x800036c4
       20125000	      2011	00000000	00000013	addi	x0,x0,0	  x0:0x00000000
       20135000	      2012	800036b4	00000013	addi	x0,x0,0	  x0:0x00000000
       20145000	      2013	800036b8	ff1ff0ef	jal	x1,800036b8	  x1=0x800036b8
       20155000	      2014	00000000	00000013	addi	x0,x0,0	  x0:0x00000000
       20165000	      2015	800036a4	00000013	addi	x0,x0,0	  x0:0x00000000
       20175000	      2016	800036a8	ffdff0ef	jal	x1,800036a8	  x1=0x800036a8
       20185000	      2017	00000000	00000013	addi	x0,x0,0	  x0:0x00000000
       20195000	      2018	800036a0	00000013	addi	x0,x0,0	  x0:0x00000000
       20205000	      2019	800036a4	01c000ef	jal	x1,800036a4	  x1=0x800036a4
       20215000	      2020	00000000	00000013	addi	x0,x0,0	  x0:0x00000000
       20225000	      2021	800036bc	00000013	addi	x0,x0,0	  x0:0x00000000
       20235000	      2022	800036c0	ff5ff4ef	jal	x9,800036c0	  x9=0x800036c0
       20245000	      2023	00000000	00000013	addi	x0,x0,0	  x0:0x00000000
       20255000	      2024	800036b0	00000013	addi	x0,x0,0	  x0:0x00000000
       20265000	      2025	800036b4	008000ef	jal	x1,800036b4	  x1=0x800036b4
       20275000	      2026	00000000	00000013	addi	x0,x0,0	  x0:0x00000000
       20285000	      2027	800036b8	00000013	addi	x0,x0,0	  x0:0x00000000
       20295000	      2028	800036bc	fe5ff6ef	jal	x13,800036bc	 x13=0x800036bc
       20305000	      2029	00000000	00000013	addi	x0,x0,0	  x0:0x00000000
       20315000	      2030	8000369c	00000013	addi	x0,x0,0	  x0:0x00000000
       20325000	      2031	800036a0	00c0036f	jal	x6,800036a0	  x6=0x800036a0
       20335000	      2032	00000000	00000013	addi	x0,x0,0	  x0:0x00000000
       20345000	      2033	800036a8	00000013	addi	x0,x0,0	  x0:0x00000000
       20355000	      2034	800036ac	fedff0ef	jal	x1,800036ac	  x1=0x800036ac
       20365000	      2035	00000000	00000013	addi	x0,x0,0	  x0:0x00000000
       20375000	      2036	80003694	00000013	addi	x0,x0,0	  x0:0x00000000
       20385000	      2037	80003698	034000ef	jal	x1,80003698	  x1=0x80003698
       20395000	      2038	00000000	00000013	addi	x0,x0,0	  x0:0x00000000
       20405000	      2039	800036c8	00000013	addi	x0,x0,0	  x0:0x00000000
       20415000	      2040	800036cc	00000013	addi	x0,x0,0	  x0:0x00000000
       20425000	      2041	800036d0	05c000ef	jal	x1,800036d0	  x1=0x800036d0
       20435000	      2042	00000000	00000013	addi	x0,x0,0	  x0:0x00000000
       20445000	      2043	80003728	00000013	addi	x0,x0,0	  x0:0x00000000
       20455000	      2044	8000372c	fadff0ef	jal	x1,8000372c	  x1=0x8000372c
       20465000	      2045	00000000	00000013	addi	x0,x0,0	  x0:0x00000000
       20475000	      2046	800036d4	00000013	addi	x0,x0,0	  x0:0x00000000
       20485000	      2047	800036d8	02c000ef	jal	x1,800036d8	  x1=0x800036d8
       20495000	      2048	00000000	00000013	addi	x0,x0,0	  x0:0x00000000
       20505000	      2049	80003700	00000013	addi	x0,x0,0	  x0:0x00000000
       20515000	      2050	80003704	fddff0ef	jal	x1,80003704	  x1=0x80003704
       20525000	      2051	00000000	00000013	addi	x0,x0,0	  x0:0x00000000
       20535000	      2052	800036dc	00000013	addi	x0,x0,0	  x0:0x00000000
       20545000	      2053	800036e0	0200026f	jal	x4,800036e0	  x4=0x800036e0
       20555000	      2054	00000000	00000013	addi	x0,x0,0	  x0:0x00000000
       20565000	      2055	800036fc	00000013	addi	x0,x0,0	  x0:0x00000000
       20575000	      2056	80003700	00c00eef	jal	x29,80003700	 x29=0x80003700
       20585000	      2057	00000000	00000013	addi	x0,x0,0	  x0:0x00000000
       20595000	      2058	80003708	00000013	addi	x0,x0,0	  x0:0x00000000
       20605000	      2059	8000370c	fd1ff0ef	jal	x1,8000370c	  x1=0x8000370c
       20615000	      2060	00000000	00000013	addi	x0,x0,0	  x0:0x00000000
       20625000	      2061	800036d8	00000013	addi	x0,x0,0	  x0:0x00000000
       20635000	      2062	800036dc	034000ef	jal	x1,800036dc	  x1=0x800036dc
       20645000	      2063	00000000	00000013	addi	x0,x0,0	  x0:0x00000000
       20655000	      2064	8000370c	00000013	addi	x0,x0,0	  x0:0x00000000
       20665000	      2065	80003710	008000ef	jal	x1,80003710	  x1=0x80003710
       20675000	      2066	00000000	00000013	addi	x0,x0,0	  x0:0x00000000
       20685000	      2067	80003714	00000013	addi	x0,x0,0	  x0:0x00000000
       20695000	      2068	80003718	fe5ff0ef	jal	x1,80003718	  x1=0x80003718
       20705000	      2069	00000000	00000013	addi	x0,x0,0	  x0:0x00000000
       20715000	      2070	800036f8	00000013	addi	x0,x0,0	  x0:0x00000000
       20725000	      2071	800036fc	024000ef	jal	x1,800036fc	  x1=0x800036fc
       20735000	      2072	00000000	00000013	addi	x0,x0,0	  x0:0x00000000
       20745000	      2073	8000371c	00000013	addi	x0,x0,0	  x0:0x00000000
       20755000	      2074	80003720	fd9ff0ef	jal	x1,80003720	  x1=0x80003720
       20765000	      2075	00000000	00000013	addi	x0,x0,0	  x0:0x00000000
       20775000	      2076	800036f4	00000013	addi	x0,x0,0	  x0:0x00000000
       20785000	      2077	800036f8	0240036f	jal	x6,800036f8	  x6=0x800036f8
       20795000	      2078	00000000	00000013	addi	x0,x0,0	  x0:0x00000000
       20805000	      2079	80003718	00000013	addi	x0,x0,0	  x0:0x00000000
       20815000	      2080	8000371c	fcdff0ef	jal	x1,8000371c	  x1=0x8000371c
       20825000	      2081	00000000	00000013	addi	x0,x0,0	  x0:0x00000000
       20835000	      2082	800036e4	00000013	addi	x0,x0,0	  x0:0x00000000
       20845000	      2083	800036e8	0080046f	jal	x8,800036e8	  x8=0x800036e8
       20855000	      2084	00000000	00000013	addi	x0,x0,0	  x0:0x00000000
       20865000	      2085	800036ec	00000013	addi	x0,x0,0	  x0:0x00000000
       20875000	      2086	800036f0	ffdff36f	jal	x6,800036f0	  x6=0x800036f0
       20885000	      2087	00000000	00000013	addi	x0,x0,0	  x0:0x00000000
       20895000	      2088	800036e8	00000013	addi	x0,x0,0	  x0:0x00000000
       20905000	      2089	800036ec	0380036f	jal	x6,800036ec	  x6=0x800036ec
       20915000	      2090	00000000	00000013	addi	x0,x0,0	  x0:0x00000000
       20925000	      2091	80003720	00000013	addi	x0,x0,0	  x0:0x00000000
       20935000	      2092	80003724	fe5ff36f	jal	x6,80003724	  x6=0x80003724
       20945000	      2093	00000000	00000013	addi	x0,x0,0	  x0:0x00000000
       20955000	      2094	80003704	00000013	addi	x0,x0,0	  x0:0x00000000
       20965000	      2095	80003708	fcdff0ef	jal	x1,80003708	  x1=0x80003708
       20975000	      2096	00000000	00000013	addi	x0,x0,0	  x0:0x00000000
       20985000	      2097	800036d0	00000013	addi	x0,x0,0	  x0:0x00000000
       20995000	      2098	800036d4	054000ef	jal	x1,800036d4	  x1=0x800036d4
       21005000	      2099	00000000	00000013	addi	x0,x0,0	  x0:0x00000000
       21015000	      2100	80003724	00000013	addi	x0,x0,0	  x0:0x00000000
       21025000	      2101	80003728	0100026f	jal	x4,80003728	  x4=0x80003728
       21035000	      2102	00000000	00000013	addi	x0,x0,0	  x0:0x00000000
       21045000	      2103	80003734	00000013	addi	x0,x0,0	  x0:0x00000000
       21055000	      2104	80003738	ffdff0ef	jal	x1,80003738	  x1=0x80003738
       21065000	      2105	00000000	00000013	addi	x0,x0,0	  x0:0x00000000
       21075000	      2106	80003730	00000013	addi	x0,x0,0	  x0:0x00000000
       21085000	      2107	80003734	fb1ff16f	jal	x2,80003734	  x2=0x80003734
       21095000	      2108	00000000	00000013	addi	x0,x0,0	  x0:0x00000000
       21105000	      2109	800036e0	00000013	addi	x0,x0,0	  x0:0x00000000
       21115000	      2110	800036e4	0300036f	jal	x6,800036e4	  x6=0x800036e4
       21125000	      2111	00000000	00000013	addi	x0,x0,0	  x0:0x00000000
       21135000	      2112	80003710	00000013	addi	x0,x0,0	  x0:0x00000000
       21145000	      2113	80003714	01c000ef	jal	x1,80003714	  x1=0x80003714
       21155000	      2114	00000000	00000013	addi	x0,x0,0	  x0:0x00000000
       21165000	      2115	8000372c	00000013	addi	x0,x0,0	  x0:0x00000000
       21175000	      2116	80003730	fc5ff0ef	jal	x1,80003730	  x1=0x80003730
       21185000	      2117	00000000	00000013	addi	x0,x0,0	  x0:0x00000000
       21195000	      2118	800036f0	00000013	addi	x0,x0,0	  x0:0x00000000
       21205000	      2119	800036f4	0480036f	jal	x6,800036f4	  x6=0x800036f4
       21215000	      2120	00000000	00000013	addi	x0,x0,0	  x0:0x00000000
       21225000	      2121	80003738	00000013	addi	x0,x0,0	  x0:0x00000000
       21235000	      2122	8000373c	ae7df693	andi	x13,x27,-1305	 x27:0x800034ec x13=0x800030e4
       21245000	      2123	80003740	0185c4b3	xor	x9,x11,x24	 x11:0x8000139c x24:0x80003668  x9=0x000025f4
       21255000	      2124	80003744	01650e63	beq	x10,x22,80003760	 x10:0x800034e8 x22:0x00000001
       21265000	      2125	80003748	414d5c33	sra	x24,x26,x20	 x26:0x800034e4 x20:0x80003618 x24=0xffffff80
       21275000	      2126	8000374c	01948f33	add	x30,x9,x25	  x9:0x000025f4 x25:0x80009fc4 x30=0x8000c5b8
       21285000	      2127	80003750	03f01463	bne	x0,x31,80003778	  x0:0x00000000 x31:0x80000000
       21295000	      2128	00000000	00000013	addi	x0,x0,0	  x0:0x00000000
       21305000	      2129	80003774	00000013	addi	x0,x0,0	  x0:0x00000000
       21315000	      2130	80003778	4040dd13	srai	x26,x1,0x4	  x1:0x80003730 x26=0xf8000373
       21325000	      2131	8000377c	02fb1063	bne	x22,x15,8000379c	 x22:0x00000001 x15:0x80003644
       21335000	      2132	00000000	00000013	addi	x0,x0,0	  x0:0x00000000
       21345000	      2133	80003798	00000013	addi	x0,x0,0	  x0:0x00000000
       21355000	      2134	8000379c	010ae5b3	or	x11,x21,x16	 x21:0x80003658 x16:0x80009f44 x11=0x8000bf5c
       21365000	      2135	800037a0	a80bc193	xori	x3,x23,-1408	 x23:0x000006ed  x3=0xfffffc6d
       21375000	      2136	800037a4	4128df33	sra	x30,x17,x18	 x17:0x80003678 x18:0x800034a8 x30=0xff800036
       21385000	      2137	800037a8	5b66ed93	ori	x27,x13,1462	 x13:0x800030e4 x27=0x800035f6
       21395000	      2138	800037ac	0b915863	bge	x2,x25,8000385c	  x2:0x80003734 x25:0x80009fc4
       21405000	      2139	800037b0	dd500593	addi	x11,x0,-555	  x0:0x00000000 x11=0xfffffdd5
       21415000	      2140	800037b4	010de133	or	x2,x27,x16	 x27:0x800035f6 x16:0x80009f44  x2=0x8000bff6
       21425000	      2141	800037b8	011d9463	bne	x27,x17,800037c0	 x27:0x800035f6 x17:0x80003678
       21435000	      2142	00000000	00000013	addi	x0,x0,0	  x0:0x00000000
       21445000	      2143	800037bc	00000013	addi	x0,x0,0	  x0:0x00000000
       21455000	      2144	800037c0	3ab3d0b7	lui	x1,0x3ab3d	  x1=0x3ab3d000
       21465000	      2145	800037c4	5841ba13	sltiu	x20,x3,1412	  x3:0xfffffc6d x20=0x00000000
       21475000	      2146	800037c8	85f32213	slti	x4,x6,-1953	  x6:0x800036f4  x4=0x00000001
       21485000	      2147	800037cc	03c000ef	jal	x1,800037cc	  x1=0x800037cc
       21495000	      2148	00000000	00000013	addi	x0,x0,0	  x0:0x00000000
       21505000	      2149	80003804	00000013	addi	x0,x0,0	  x0:0x00000000
       21515000	      2150	80003808	018006ef	jal	x13,80003808	 x13=0x80003808
       21525000	      2151	00000000	00000013	addi	x0,x0,0	  x0:0x00000000
       21535000	      2152	8000381c	00000013	addi	x0,x0,0	  x0:0x00000000
       21545000	      2153	80003820	fd5ffaef	jal	x21,80003820	 x21=0x80003820
       21555000	      2154	00000000	00000013	addi	x0,x0,0	  x0:0x00000000
       21565000	      2155	800037f0	00000013	addi	x0,x0,0	  x0:0x00000000
       21575000	      2156	800037f4	fe1ff0ef	jal	x1,800037f4	  x1=0x800037f4
       21585000	      2157	00000000	00000013	addi	x0,x0,0	  x0:0x00000000
       21595000	      2158	800037d0	00000013	addi	x0,x0,0	  x0:0x00000000
       21605000	      2159	800037d4	048000ef	jal	x1,800037d4	  x1=0x800037d4
       21615000	      2160	00000000	00000013	addi	x0,x0,0	  x0:0x00000000
       21625000	      2161	80003818	00000013	addi	x0,x0,0	  x0:0x00000000
       21635000	      2162	8000381c	018000ef	jal	x1,8000381c	  x1=0x8000381c
       21645000	      2163	00000000	00000013	addi	x0,x0,0	  x0:0x00000000
       21655000	      2164	80003830	00000013	addi	x0,x0,0	  x0:0x00000000
       21665000	      2165	80003834	ff1ff0ef	jal	x1,80003834	  x1=0x80003834
       21675000	      2166	00000000	00000013	addi	x0,x0,0	  x0:0x00000000
       21685000	      2167	80003820	00000013	addi	x0,x0,0	  x0:0x00000000
       21695000	      2168	80003824	fb5ff0ef	jal	x1,80003824	  x1=0x80003824
       21705000	      2169	00000000	00000013	addi	x0,x0,0	  x0:0x00000000
       21715000	      2170	800037d4	00000013	addi	x0,x0,0	  x0:0x00000000
       21725000	      2171	800037d8	068000ef	jal	x1,800037d8	  x1=0x800037d8
       21735000	      2172	00000000	00000013	addi	x0,x0,0	  x0:0x00000000
       21745000	      2173	8000383c	00000013	addi	x0,x0,0	  x0:0x00000000
       21755000	      2174	80003840	fc1ff9ef	jal	x19,80003840	 x19=0x80003840
       21765000	      2175	00000000	00000013	addi	x0,x0,0	  x0:0x00000000
       21775000	      2176	800037fc	00000013	addi	x0,x0,0	  x0:0x00000000
       21785000	      2177	80003800	fe9ff0ef	jal	x1,80003800	  x1=0x80003800
       21795000	      2178	00000000	00000013	addi	x0,x0,0	  x0:0x00000000
       21805000	      2179	800037e4	00000013	addi	x0,x0,0	  x0:0x00000000
       21815000	      2180	800037e8	ff5ff36f	jal	x6,800037e8	  x6=0x800037e8
       21825000	      2181	00000000	00000013	addi	x0,x0,0	  x0:0x00000000
       21835000	      2182	800037d8	00000013	addi	x0,x0,0	  x0:0x00000000
       21845000	      2183	800037dc	0500036f	jal	x6,800037dc	  x6=0x800037dc
       21855000	      2184	00000000	00000013	addi	x0,x0,0	  x0:0x00000000
       21865000	      2185	80003828	00000013	addi	x0,x0,0	  x0:0x00000000
       21875000	      2186	8000382c	fb5ff0ef	jal	x1,8000382c	  x1=0x8000382c
       21885000	      2187	00000000	00000013	addi	x0,x0,0	  x0:0x00000000
       21895000	      2188	800037dc	00000013	addi	x0,x0,0	  x0:0x00000000
       21905000	      2189	800037e0	01c000ef	jal	x1,800037e0	  x1=0x800037e0
       21915000	      2190	00000000	00000013	addi	x0,x0,0	  x0:0x00000000
       21925000	      2191	800037f8	00000013	addi	x0,x0,0	  x0:0x00000000
       21935000	      2192	800037fc	01800bef	jal	x23,800037fc	 x23=0x800037fc
       21945000	      2193	00000000	00000013	addi	x0,x0,0	  x0:0x00000000
       21955000	      2194	80003810	00000013	addi	x0,x0,0	  x0:0x00000000
       21965000	      2195	80003814	028000ef	jal	x1,80003814	  x1=0x80003814
       21975000	      2196	00000000	00000013	addi	x0,x0,0	  x0:0x00000000
       21985000	      2197	80003838	00000013	addi	x0,x0,0	  x0:0x00000000
       21995000	      2198	8000383c	fa9ff1ef	jal	x3,8000383c	  x3=0x8000383c
       22005000	      2199	00000000	00000013	addi	x0,x0,0	  x0:0x00000000
       22015000	      2200	800037e0	00000013	addi	x0,x0,0	  x0:0x00000000
       22025000	      2201	800037e4	04c000ef	jal	x1,800037e4	  x1=0x800037e4
       22035000	      2202	00000000	00000013	addi	x0,x0,0	  x0:0x00000000
       22045000	      2203	8000382c	00000013	addi	x0,x0,0	  x0:0x00000000
       22055000	      2204	80003830	fa1ff0ef	jal	x1,80003830	  x1=0x80003830
       22065000	      2205	00000000	00000013	addi	x0,x0,0	  x0:0x00000000
       22075000	      2206	800037cc	00000013	addi	x0,x0,0	  x0:0x00000000
       22085000	      2207	800037d0	058002ef	jal	x5,800037d0	  x5=0x800037d0
       22095000	      2208	00000000	00000013	addi	x0,x0,0	  x0:0x00000000
       22105000	      2209	80003824	00000013	addi	x0,x0,0	  x0:0x00000000
       22115000	      2210	80003828	fe9ff16f	jal	x2,80003828	  x2=0x80003828
       22125000	      2211	00000000	00000013	addi	x0,x0,0	  x0:0x00000000
       22135000	      2212	8000380c	00000013	addi	x0,x0,0	  x0:0x00000000
       22145000	      2213	80003810	028000ef	jal	x1,80003810	  x1=0x80003810
       22155000	      2214	00000000	00000013	addi	x0,x0,0	  x0:0x00000000
       22165000	      2215	80003834	00000013	addi	x0,x0,0	  x0:0x00000000
       22175000	      2216	80003838	fd5ff0ef	jal	x1,80003838	  x1=0x80003838
       22185000	      2217	00000000	00000013	addi	x0,x0,0	  x0:0x00000000
       22195000	      2218	80003808	00000013	addi	x0,x0,0	  x0:0x00000000
       22205000	      2219	8000380c	ff9ff0ef	jal	x1,8000380c	  x1=0x8000380c
       22215000	      2220	00000000	00000013	addi	x0,x0,0	  x0:0x00000000
       22225000	      2221	80003800	00000013	addi	x0,x0,0	  x0:0x00000000
       22235000	      2222	80003804	fedff0ef	jal	x1,80003804	  x1=0x80003804
       22245000	      2223	00000000	00000013	addi	x0,x0,0	  x0:0x00000000
       22255000	      2224	800037ec	00000013	addi	x0,x0,0	  x0:0x00000000
       22265000	      2225	800037f0	ffdff0ef	jal	x1,800037f0	  x1=0x800037f0
       22275000	      2226	00000000	00000013	addi	x0,x0,0	  x0:0x00000000
       22285000	      2227	800037e8	00000013	addi	x0,x0,0	  x0:0x00000000
       22295000	      2228	800037ec	00c000ef	jal	x1,800037ec	  x1=0x800037ec
       22305000	      2229	00000000	00000013	addi	x0,x0,0	  x0:0x00000000
       22315000	      2230	800037f4	00000013	addi	x0,x0,0	  x0:0x00000000
       22325000	      2231	800037f8	020000ef	jal	x1,800037f8	  x1=0x800037f8
       22335000	      2232	00000000	00000013	addi	x0,x0,0	  x0:0x00000000
       22345000	      2233	80003814	00000013	addi	x0,x0,0	  x0:0x00000000
       22355000	      2234	80003818	02c000ef	jal	x1,80003818	  x1=0x80003818
       22365000	      2235	00000000	00000013	addi	x0,x0,0	  x0:0x00000000
       22375000	      2236	80003840	00000013	addi	x0,x0,0	  x0:0x00000000
       22385000	      2237	80003844	9d16f413	andi	x8,x13,-1583	 x13:0x80003808  x8=0x80003800
       22395000	      2238	80003848	00debbb3	sltu	x23,x29,x13	 x29:0x80003700 x13:0x80003808 x23=0x00000001
       22405000	      2239	8000384c	0199c263	blt	x19,x25,80003850	 x19:0x80003840 x25:0x80009fc4
       22415000	      2240	00000000	00000013	addi	x0,x0,0	  x0:0x00000000
       22425000	      2241	8000384c	00000013	addi	x0,x0,0	  x0:0x00000000
       22435000	      2242	80003850	089bf263	bgeu	x23,x9,800038d4	 x23:0x00000001  x9:0x000025f4
       22445000	      2243	80003854	0759ea63	bltu	x19,x21,800038c8	 x19:0x80003840 x21:0x80003820
       22455000	      2244	80003858	01a431b3	sltu	x3,x8,x26	  x8:0x80003800 x26:0xf8000373  x3=0x00000001
       22465000	      2245	8000385c	0048c633	xor	x12,x17,x4	 x17:0x80003678  x4:0x00000001 x12=0x80003679
       22475000	      2246	80003860	09294663	blt	x18,x18,800038ec	 x18:0x800034a8 x18:0x800034a8
       22485000	      2247	80003864	013ad333	srl	x6,x21,x19	 x21:0x80003820 x19:0x80003840  x6=0x80003820
       22495000	      2248	80003868	01a2ca33	xor	x20,x5,x26	  x5:0x800037d0 x26:0xf8000373 x20=0x780034a3
       22505000	      2249	8000386c	00c000ef	jal	x1,8000386c	  x1=0x8000386c
       22515000	      2250	00000000	00000013	addi	x0,x0,0	  x0:0x00000000
       22525000	      2251	80003874	00000013	addi	x0,x0,0	  x0:0x00000000
       22535000	      2252	80003878	0280056f	jal	x10,80003878	 x10=0x80003878
       22545000	      2253	00000000	00000013	addi	x0,x0,0	  x0:0x00000000
       22555000	      2254	8000389c	00000013	addi	x0,x0,0	  x0:0x00000000
       22565000	      2255	800038a0	ff9ff0ef	jal	x1,800038a0	  x1=0x800038a0
       22575000	      2256	00000000	00000013	addi	x0,x0,0	  x0:0x00000000
       22585000	      2257	80003894	00000013	addi	x0,x0,0	  x0:0x00000000
       22595000	      2258	80003898	fedff0ef	jal	x1,80003898	  x1=0x80003898
       22605000	      2259	00000000	00000013	addi	x0,x0,0	  x0:0x00000000
       22615000	      2260	80003880	00000013	addi	x0,x0,0	  x0:0x00000000
       22625000	      2261	80003884	008000ef	jal	x1,80003884	  x1=0x80003884
       22635000	      2262	00000000	00000013	addi	x0,x0,0	  x0:0x00000000
       22645000	      2263	80003888	00000013	addi	x0,x0,0	  x0:0x00000000
       22655000	      2264	8000388c	ff1ff36f	jal	x6,8000388c	  x6=0x8000388c
       22665000	      2265	00000000	00000013	addi	x0,x0,0	  x0:0x00000000
       22675000	      2266	80003878	00000013	addi	x0,x0,0	  x0:0x00000000
       22685000	      2267	8000387c	ff9ff0ef	jal	x1,8000387c	  x1=0x8000387c
       22695000	      2268	00000000	00000013	addi	x0,x0,0	  x0:0x00000000
       22705000	      2269	80003870	00000013	addi	x0,x0,0	  x0:0x00000000
       22715000	      2270	80003874	0140036f	jal	x6,80003874	  x6=0x80003874
       22725000	      2271	00000000	00000013	addi	x0,x0,0	  x0:0x00000000
       22735000	      2272	80003884	00000013	addi	x0,x0,0	  x0:0x00000000
       22745000	      2273	80003888	ff9ffb6f	jal	x22,80003888	 x22=0x80003888
       22755000	      2274	00000000	00000013	addi	x0,x0,0	  x0:0x00000000
       22765000	      2275	8000387c	00000013	addi	x0,x0,0	  x0:0x00000000
       22775000	      2276	80003880	0280036f	jal	x6,80003880	  x6=0x80003880
       22785000	      2277	00000000	00000013	addi	x0,x0,0	  x0:0x00000000
       22795000	      2278	800038a4	00000013	addi	x0,x0,0	  x0:0x00000000
       22805000	      2279	800038a8	fe9ff36f	jal	x6,800038a8	  x6=0x800038a8
       22815000	      2280	00000000	00000013	addi	x0,x0,0	  x0:0x00000000
       22825000	      2281	8000388c	00000013	addi	x0,x0,0	  x0:0x00000000
       22835000	      2282	80003890	00c000ef	jal	x1,80003890	  x1=0x80003890
       22845000	      2283	00000000	00000013	addi	x0,x0,0	  x0:0x00000000
       22855000	      2284	80003898	00000013	addi	x0,x0,0	  x0:0x00000000
       22865000	      2285	8000389c	0080056f	jal	x10,8000389c	 x10=0x8000389c
       22875000	      2286	00000000	00000013	addi	x0,x0,0	  x0:0x00000000
       22885000	      2287	800038a0	00000013	addi	x0,x0,0	  x0:0x00000000
       22895000	      2288	800038a4	ff1ff0ef	jal	x1,800038a4	  x1=0x800038a4
       22905000	      2289	00000000	00000013	addi	x0,x0,0	  x0:0x00000000
       22915000	      2290	80003890	00000013	addi	x0,x0,0	  x0:0x00000000
       22925000	      2291	80003894	fddff0ef	jal	x1,80003894	  x1=0x80003894
       22935000	      2292	00000000	00000013	addi	x0,x0,0	  x0:0x00000000
       22945000	      2293	8000386c	00000013	addi	x0,x0,0	  x0:0x00000000
       22955000	      2294	80003870	03c000ef	jal	x1,80003870	  x1=0x80003870
       22965000	      2295	00000000	00000013	addi	x0,x0,0	  x0:0x00000000
       22975000	      2296	800038a8	00000013	addi	x0,x0,0	  x0:0x00000000
       22985000	      2297	800038ac	0041b4b3	sltu	x9,x3,x4	  x3:0x00000001  x4:0x00000001  x9=0x00000000
       22995000	      2298	800038b0	013d21b3	slt	x3,x26,x19	 x26:0xf8000373 x19:0x80003840  x3=0x00000000
       23005000	      2299	800038b4	01471413	slli	x8,x14,0x14	 x14:0x00000001  x8=0x00100000
       23015000	      2300	800038b8	01169333	sll	x6,x13,x17	 x13:0x80003808 x17:0x80003678  x6=0x08000000
       23025000	      2301	800038bc	00c24db3	xor	x27,x4,x12	  x4:0x00000001 x12:0x80003679 x27=0x80003678
       23035000	      2302	800038c0	12a59597	auipc	x11,0x12a59	 x11=0x92a5c8bc
       23045000	      2303	800038c4	985cf913	andi	x18,x25,-1659	 x25:0x80009fc4 x18=0x80009984
       23055000	      2304	800038c8	bcde6793	ori	x15,x28,-1075	 x28:0x800035f0 x15=0xfffffffd
       23065000	      2305	800038cc	01ecc463	blt	x25,x30,800038d4	 x25:0x80009fc4 x30:0xff800036
       23075000	      2306	00000000	00000013	addi	x0,x0,0	  x0:0x00000000
       23085000	      2307	800038d0	00000013	addi	x0,x0,0	  x0:0x00000000
       23095000	      2308	800038d4	004b9393	slli	x7,x23,0x4	 x23:0x00000001  x7=0x00000010
       23105000	      2309	800038d8	017ef9b3	and	x19,x29,x23	 x29:0x80003700 x23:0x00000001 x19=0x00000000
       23115000	      2310	800038dc	00306ab3	or	x21,x0,x3	  x0:0x00000000  x3:0x00000000 x21=0x00000000
       23125000	      2311	800038e0	4002db33	sra	x22,x5,x0	  x5:0x800037d0  x0:0x00000000 x22=0x800037d0
       23135000	      2312	800038e4	01515393	srli	x7,x2,0x15	  x2:0x80003828  x7=0x00000400
       23145000	      2313	800038e8	56244f13	xori	x30,x8,1378	  x8:0x00100000 x30=0x00100562
       23155000	      2314	800038ec	04b88463	beq	x17,x11,80003934	 x17:0x80003678 x11:0x92a5c8bc
       23165000	      2315	800038f0	0089ee33	or	x28,x19,x8	 x19:0x00000000  x8:0x00100000 x28=0x00100000
       23175000	      2316	800038f4	1f773417	auipc	x8,0x1f773	  x8=0x9f7768f0
       23185000	      2317	800038f8	0034af33	slt	x30,x9,x3	  x9:0x00000000  x3:0x00000000 x30=0x00000000
       23195000	      2318	800038fc	0022ec33	or	x24,x5,x2	  x5:0x800037d0  x2:0x80003828 x24=0x80003ff8
       23205000	      2319	80003900	4a33e3b7	lui	x7,0x4a33e	  x7=0x4a33e000
       23215000	      2320	80003904	01e76233	or	x4,x14,x30	 x14:0x00000001 x30:0x00000000  x4=0x00000001
       23225000	      2321	80003908	02cf7863	bgeu	x30,x12,80003938	 x30:0x00000000 x12:0x80003679
       23235000	      2322	8000390c	01e03633	sltu	x12,x0,x30	  x0:0x00000000 x30:0x00000000 x12=0x00000000
       23245000	      2323	80003910	02b4cc63	blt	x9,x11,80003948	  x9:0x00000000 x11:0x92a5c8bc
       23255000	      2324	80003914	00f3e0b3	or	x1,x7,x15	  x7:0x4a33e000 x15:0xfffffffd  x1=0xfffffffd
       23265000	      2325	80003918	416fd193	srai	x3,x31,0x16	 x31:0x80000000  x3=0xfffffe00
       23275000	      2326	8000391c	40bc0ab3	sub	x21,x24,x11	 x24:0x80003ff8 x11:0x92a5c8bc x21=0xed5a773c
       23285000	      2327	80003920	7a3da893	slti	x17,x27,1955	 x27:0x80003678 x17=0x00000001
       23295000	      2328	80003924	02819463	bne	x3,x8,8000394c	  x3:0xfffffe00  x8:0x9f7768f0
       23305000	      2329	00000000	00000013	addi	x0,x0,0	  x0:0x00000000
       23315000	      2330	80003948	00000013	addi	x0,x0,0	  x0:0x00000000
       23325000	      2331	8000394c	f8a76713	ori	x14,x14,-118	 x14:0x00000001 x14=0xffffff8b
       23335000	      2332	80003950	01294ab3	xor	x21,x18,x18	 x18:0x80009984 x18:0x80009984 x21=0x00000000
       23345000	      2333	80003954	01a45c63	bge	x8,x26,8000396c	  x8:0x9f7768f0 x26:0xf8000373
       23355000	      2334	80003958	00606033	or	x0,x0,x6	  x0:0x00000000  x6:0x08000000
       23365000	      2335	8000395c	deb8bd93	sltiu	x27,x17,-533	 x17:0x00000001 x27=0x00000001
       23375000	      2336	80003960	009e19b3	sll	x19,x28,x9	 x28:0x00100000  x9:0x00000000 x19=0x00100000
       23385000	      2337	80003964	cfe6c393	xori	x7,x13,-770	 x13:0x80003808  x7=0x7fffc4f6
       23395000	      2338	80003968	00429393	slli	x7,x5,0x4	  x5:0x800037d0  x7=0x00037d00
       23405000	      2339	8000396c	47aaaa93	slti	x21,x21,1146	 x21:0x00000000 x21=0x00000001
       23415000	      2340	80003970	01e9d3b3	srl	x7,x19,x30	 x19:0x00100000 x30:0x00000000  x7=0x00100000
       23425000	      2341	80003974	414f0c33	sub	x24,x30,x20	 x30:0x00000000 x20:0x780034a3 x24=0x87ffcb5d
       23435000	      2342	80003978	02fd6e63	bltu	x26,x15,800039b4	 x26:0xf8000373 x15:0xfffffffd
       23445000	      2343	00000000	00000013	addi	x0,x0,0	  x0:0x00000000
       23455000	      2344	800039b0	00000013	addi	x0,x0,0	  x0:0x00000000
       23465000	      2345	800039b4	008b68b3	or	x17,x22,x8	 x22:0x800037d0  x8:0x9f7768f0 x17=0x9f777ff0
       23475000	      2346	800039b8	004d5a63	bge	x26,x4,800039cc	 x26:0xf8000373  x4:0x00000001
       23485000	      2347	800039bc	41495313	srai	x6,x18,0x14	 x18:0x80009984  x6=0xfffff800
       23495000	      2348	800039c0	00c01993	slli	x19,x0,0xc	  x0:0x00000000 x19=0x00000000
       23505000	      2349	800039c4	011f8eb3	add	x29,x31,x17	 x31:0x80000000 x17:0x9f777ff0 x29=0x1f777ff0
       23515000	      2350	800039c8	01a260b3	or	x1,x4,x26	  x4:0x00000001 x26:0xf8000373  x1=0xf8000373
       23525000	      2351	800039cc	01527bb3	and	x23,x4,x21	  x4:0x00000001 x21:0x00000001 x23=0x00000001
       23535000	      2352	800039d0	aa5c5337	lui	x6,0xaa5c5	  x6=0xaa5c5000
       23545000	      2353	800039d4	007141b3	xor	x3,x2,x7	  x2:0x80003828  x7:0x00100000  x3=0x80103828
       23555000	      2354	800039d8	01ac4263	blt	x24,x26,800039dc	 x24:0x87ffcb5d x26:0xf8000373
       23565000	      2355	00000000	00000013	addi	x0,x0,0	  x0:0x00000000
       23575000	      2356	800039d8	00000013	addi	x0,x0,0	  x0:0x00000000
       23585000	      2357	800039dc	0bc57463	bgeu	x10,x28,80003a84	 x10:0x8000389c x28:0x00100000
       23595000	      2358	00000000	00000013	addi	x0,x0,0	  x0:0x00000000
       23605000	      2359	80003a80	00000013	addi	x0,x0,0	  x0:0x00000000
       23615000	      2360	80003a84	004a9263	bne	x21,x4,80003a88	 x21:0x00000001  x4:0x00000001
       23625000	      2361	80003a88	0089f0b3	and	x1,x19,x8	 x19:0x00000000  x8:0x9f7768f0  x1=0x00000000
       23635000	      2362	80003a8c	7d286d13	ori	x26,x16,2002	 x16:0x80009f44 x26=0x80009fd6
       23645000	      2363	80003a90	00000013	addi	x0,x0,0	  x0:0x00000000
       23655000	      2364	80003a94	030dc863	blt	x27,x16,80003ac4	 x27:0x00000001 x16:0x80009f44
       23665000	      2365	80003a98	00c79913	slli	x18,x15,0xc	 x15:0xfffffffd x18=0xffffd000
       23675000	      2366	80003a9c	363d3513	sltiu	x10,x26,867	 x26:0x80009fd6 x10=0x00000000
       23685000	      2367	80003aa0	40b0d213	srai	x4,x1,0xb	  x1:0x00000000  x4=0x00000000
       23695000	      2368	80003aa4	001e51b3	srl	x3,x28,x1	 x28:0x00100000  x1:0x00000000  x3=0x00100000
       23705000	      2369	80003aa8	40c8d013	srai	x0,x17,0xc	 x17:0x9f777ff0
       23715000	      2370	80003aac	12d32497	auipc	x9,0x12d32	  x9=0x92d35aa8
       23725000	      2371	80003ab0	0583f063	bgeu	x7,x24,80003af0	  x7:0x00100000 x24:0x87ffcb5d
       23735000	      2372	80003ab4	00000013	addi	x0,x0,0	  x0:0x00000000
       23745000	      2373	80003ab8	005d8263	beq	x27,x5,80003abc	 x27:0x00000001  x5:0x800037d0
       23755000	      2374	80003abc	82d16913	ori	x18,x2,-2003	  x2:0x80003828 x18=0xfffff82d
       23765000	      2375	80003ac0	015e99b3	sll	x19,x29,x21	 x29:0x1f777ff0 x21:0x00000001 x19=0x3eeeffe0
       23775000	      2376	80003ac4	40088bb3	sub	x23,x17,x0	 x17:0x9f777ff0  x0:0x00000000 x23=0x9f777ff0
       23785000	      2377	80003ac8	7df4be93	sltiu	x29,x9,2015	  x9:0x92d35aa8 x29=0x00000000
       23795000	      2378	80003acc	00000013	addi	x0,x0,0	  x0:0x00000000
       23805000	      2379	80003ad0	002bfc33	and	x24,x23,x2	 x23:0x9f777ff0  x2:0x80003828 x24=0x80003820
       23815000	      2380	80003ad4	41125313	srai	x6,x4,0x11	  x4:0x00000000  x6=0x00000000
       23825000	      2381	80003ad8	ddf98393	addi	x7,x19,-545	 x19:0x3eeeffe0  x7=0x3eeefdbf
       23835000	      2382	80003adc	00a1a633	slt	x12,x3,x10	  x3:0x00100000 x10:0x00000000 x12=0x00000000
       23845000	      2383	80003ae0	00f3f6b3	and	x13,x7,x15	  x7:0x3eeefdbf x15:0xfffffffd x13=0x3eeefdbd
       23855000	      2384	80003ae4	016dfa63	bgeu	x27,x22,80003af8	 x27:0x00000001 x22:0x800037d0
       23865000	      2385	80003ae8	da442e93	slti	x29,x8,-604	  x8:0x9f7768f0 x29=0x00000001
       23875000	      2386	80003aec	2a42a893	slti	x17,x5,676	  x5:0x800037d0 x17=0x00000001
       23885000	      2387	80003af0	00f21333	sll	x6,x4,x15	  x4:0x00000000 x15:0xfffffffd  x6=0x00000000
       23895000	      2388	80003af4	03836863	bltu	x6,x24,80003b24	  x6:0x00000000 x24:0x80003820
       23905000	      2389	00000000	00000013	addi	x0,x0,0	  x0:0x00000000
       23915000	      2390	80003b20	00000013	addi	x0,x0,0	  x0:0x00000000
       23925000	      2391	80003b24	01e50133	add	x2,x10,x30	 x10:0x00000000 x30:0x00000000  x2=0x00000000
       23935000	      2392	80003b28	405c82b3	sub	x5,x25,x5	 x25:0x80009fc4  x5:0x800037d0  x5=0x000067f4
       23945000	      2393	80003b2c	d093d1b7	lui	x3,0xd093d	  x3=0xd093d000
       23955000	      2394	80003b30	01b77633	and	x12,x14,x27	 x14:0xffffff8b x27:0x00000001 x12=0x00000001
       23965000	      2395	80003b34	f710a593	slti	x11,x1,-143	  x1:0x00000000 x11=0x00000000
       23975000	      2396	80003b38	05e05063	bge	x0,x30,80003b78	  x0:0x00000000 x30:0x00000000
       23985000	      2397	00000000	00000013	addi	x0,x0,0	  x0:0x00000000
       23995000	      2398	80003b74	00000013	addi	x0,x0,0	  x0:0x00000000
       24005000	      2399	80003b78	3ce50513	addi	x10,x10,974	 x10:0x00000000 x10=0x000003ce
       24015000	      2400	80003b7c	64d22a13	slti	x20,x4,1613	  x4:0x00000000 x20=0x00000001
       24025000	      2401	80003b80	00ad1713	slli	x14,x26,0xa	 x26:0x80009fd6 x14=0x027f5800
       24035000	      2402	80003b84	5011e313	ori	x6,x3,1281	  x3:0xd093d000  x6=0xd093d501
       24045000	      2403	80003b88	00000013	addi	x0,x0,0	  x0:0x00000000
       24055000	      2404	80003b8c	011a2433	slt	x8,x20,x17	 x20:0x00000001 x17:0x00000001  x8=0x00000000
       24065000	      2405	80003b90	00de9733	sll	x14,x29,x13	 x29:0x00000001 x13:0x3eeefdbd x14=0x20000000
       24075000	      2406	80003b94	016de4b3	or	x9,x27,x22	 x27:0x00000001 x22:0x800037d0  x9=0x800037d1
       24085000	      2407	80003b98	414bdb13	srai	x22,x23,0x14	 x23:0x9f777ff0 x22=0xfffff9f7
       24095000	      2408	80003b9c	0065abb3	slt	x23,x11,x6	 x11:0x00000000  x6:0xd093d501 x23=0x00000000
       24105000	      2409	80003ba0	021a0063	beq	x20,x1,80003bc0	 x20:0x00000001  x1:0x00000000
       24115000	      2410	80003ba4	ea0cca13	xori	x20,x25,-352	 x25:0x80009fc4 x20=0x7fff6164
       24125000	      2411	80003ba8	45f7b513	sltiu	x10,x15,1119	 x15:0xfffffffd x10=0x00000000
       24135000	      2412	80003bac	016a6263	bltu	x20,x22,80003bb0	 x20:0x7fff6164 x22:0xfffff9f7
       24145000	      2413	00000000	00000013	addi	x0,x0,0	  x0:0x00000000
       24155000	      2414	80003bac	00000013	addi	x0,x0,0	  x0:0x00000000
       24165000	      2415	80003bb0	4feaeb13	ori	x22,x21,1278	 x21:0x00000001 x22=0x000004ff
       24175000	      2416	80003bb4	0583e863	bltu	x7,x24,80003c04	  x7:0x3eeefdbf x24:0x80003820
       24185000	      2417	00000000	00000013	addi	x0,x0,0	  x0:0x00000000
       24195000	      2418	80003c00	00000013	addi	x0,x0,0	  x0:0x00000000
       24205000	      2419	80003c04	00689213	slli	x4,x17,0x6	 x17:0x00000001  x4=0x00000040
       24215000	      2420	80003c08	0040d293	srli	x5,x1,0x4	  x1:0x00000000  x5=0x00000000
       24225000	      2421	80003c0c	00fcd533	srl	x10,x25,x15	 x25:0x80009fc4 x15:0xfffffffd x10=0x00000004
       24235000	      2422	80003c10	019ff5b3	and	x11,x31,x25	 x31:0x80000000 x25:0x80009fc4 x11=0x80000000
       24245000	      2423	80003c14	01605513	srli	x10,x0,0x16	  x0:0x00000000 x10=0x00000000
       24255000	      2424	80003c18	003c0eb3	add	x29,x24,x3	 x24:0x80003820  x3:0xd093d000 x29=0x50940820
       24265000	      2425	80003c1c	000b0bb3	add	x23,x22,x0	 x22:0x000004ff  x0:0x00000000 x23=0x000004ff
       24275000	      2426	80003c20	b3219d97	auipc	x27,0xb3219	 x27=0x3321cc1c
       24285000	      2427	80003c24	009ce433	or	x8,x25,x9	 x25:0x80009fc4  x9:0x800037d1  x8=0x8000bfd5
       24295000	      2428	80003c28	01a39493	slli	x9,x7,0x1a	  x7:0x3eeefdbf  x9=0xfc000000
       24305000	      2429	80003c2c	01a20263	beq	x4,x26,80003c30	  x4:0x00000040 x26:0x80009fd6
       24315000	      2430	80003c30	2056b537	lui	x10,0x2056b	 x10=0x2056b000
       24325000	      2431	80003c34	49724a37	lui	x20,0x49724	 x20=0x49724000
       24335000	      2432	80003c38	34627737	lui	x14,0x34627	 x14=0x34627000
       24345000	      2433	80003c3c	525f6d93	ori	x27,x30,1317	 x30:0x00000000 x27=0x00000525
       24355000	      2434	80003c40	01975013	srli	x0,x14,0x19	 x14:0x34627000
       24365000	      2435	80003c44	012ff463	bgeu	x31,x18,80003c4c	 x31:0x80000000 x18:0xfffff82d
       24375000	      2436	80003c48	01f437b3	sltu	x15,x8,x31	  x8:0x8000bfd5 x31:0x80000000 x15=0x00000000
       24385000	      2437	80003c4c	00713233	sltu	x4,x2,x7	  x2:0x00000000  x7:0x3eeefdbf  x4=0x00000001
       24395000	      2438	80003c50	000819b3	sll	x19,x16,x0	 x16:0x80009f44  x0:0x00000000 x19=0x80009f44
       24405000	      2439	80003c54	c3470b13	addi	x22,x14,-972	 x14:0x34627000 x22=0x34626c34
       24415000	      2440	80003c58	cdfccb13	xori	x22,x25,-801	 x25:0x80009fc4 x22=0x7fff631b
       24425000	      2441	80003c5c	05989663	bne	x17,x25,80003ca8	 x17:0x00000001 x25:0x80009fc4
       24435000	      2442	00000000	00000013	addi	x0,x0,0	  x0:0x00000000
       24445000	      2443	80003ca4	00000013	addi	x0,x0,0	  x0:0x00000000
       24455000	      2444	80003ca8	4b034093	xori	x1,x6,1200	  x6:0xd093d501  x1=0xd093d1b1
       24465000	      2445	80003cac	8d920913	addi	x18,x4,-1831	  x4:0x00000001 x18=0xfffff8da
       24475000	      2446	80003cb0	00ccc033	xor	x0,x25,x12	 x25:0x80009fc4 x12:0x00000001
       24485000	      2447	80003cb4	008d54b3	srl	x9,x26,x8	 x26:0x80009fd6  x8:0x8000bfd5  x9=0x00000400
       24495000	      2448	80003cb8	41a35e93	srai	x29,x6,0x1a	  x6:0xd093d501 x29=0xfffffff4
       24505000	      2449	80003cbc	002eef33	or	x30,x29,x2	 x29:0xfffffff4  x2:0x00000000 x30=0xfffffff4
       24515000	      2450	80003cc0	01608133	add	x2,x1,x22	  x1:0xd093d1b1 x22:0x7fff631b  x2=0x509334cc
       24525000	      2451	80003cc4	006a4f33	xor	x30,x20,x6	 x20:0x49724000  x6:0xd093d501 x30=0x99e19501
       24535000	      2452	80003cc8	b06da093	slti	x1,x27,-1274	 x27:0x00000525  x1=0x00000000
       24545000	      2453	80003ccc	016e1e13	slli	x28,x28,0x16	 x28:0x00100000 x28=0x00000000
       24555000	      2454	80003cd0	e7f36e13	ori	x28,x6,-385	  x6:0xd093d501 x28=0xffffff7f
       24565000	      2455	80003cd4	40e6d733	sra	x14,x13,x14	 x13:0x3eeefdbd x14:0x34627000 x14=0x3eeefdbd
       24575000	      2456	80003cd8	014bf633	and	x12,x23,x20	 x23:0x000004ff x20:0x49724000 x12=0x00000000
       24585000	      2457	80003cdc	ab66f913	andi	x18,x13,-1354	 x13:0x3eeefdbd x18=0x3eeef8b4
       24595000	      2458	80003ce0	00000013	addi	x0,x0,0	  x0:0x00000000
       24605000	      2459	80003ce4	03c18e63	beq	x3,x28,80003d20	  x3:0xd093d000 x28:0xffffff7f
       24615000	      2460	80003ce8	027e5463	bge	x28,x7,80003d10	 x28:0xffffff7f  x7:0x3eeefdbf
       24625000	      2461	80003cec	41f45013	srai	x0,x8,0x1f	  x8:0x8000bfd5
       24635000	      2462	80003cf0	03d84063	blt	x16,x29,80003d10	 x16:0x80009f44 x29:0xfffffff4
       24645000	      2463	00000000	00000013	addi	x0,x0,0	  x0:0x00000000
       24655000	      2464	80003d0c	00000013	addi	x0,x0,0	  x0:0x00000000
       24665000	      2465	80003d10	37feed93	ori	x27,x29,895	 x29:0xfffffff4 x27=0xffffffff
       24675000	      2466	80003d14	01310d33	add	x26,x2,x19	  x2:0x509334cc x19:0x80009f44 x26=0xd093d410
       24685000	      2467	80003d18	f823ce37	lui	x28,0xf823c	 x28=0xf823c000
       24695000	      2468	80003d1c	01892733	slt	x14,x18,x24	 x18:0x3eeef8b4 x24:0x80003820 x14=0x00000000
       24705000	      2469	80003d20	001e4f33	xor	x30,x28,x1	 x28:0xf823c000  x1:0x00000000 x30=0xf823c000
       24715000	      2470	80003d24	bee9bf13	sltiu	x30,x19,-1042	 x19:0x80009f44 x30=0x00000001
       24725000	      2471	80003d28	4f51e213	ori	x4,x3,1269	  x3:0xd093d000  x4=0xd093d4f5
       24735000	      2472	80003d2c	001086b3	add	x13,x1,x1	  x1:0x00000000  x1:0x00000000 x13=0x00000000
       24745000	      2473	80003d30	00b71d33	sll	x26,x14,x11	 x14:0x00000000 x11:0x80000000 x26=0x00000000
       24755000	      2474	80003d34	01498bb3	add	x23,x19,x20	 x19:0x80009f44 x20:0x49724000 x23=0xc972df44
       24765000	      2475	80003d38	5a797d13	andi	x26,x18,1447	 x18:0x3eeef8b4 x26=0x000000a4
       24775000	      2476	80003d3c	b6ef7313	andi	x6,x30,-1170	 x30:0x00000001  x6=0x00000000
       24785000	      2477	80003d40	00b619b3	sll	x19,x12,x11	 x12:0x00000000 x11:0x80000000 x19=0x00000000
       24795000	      2478	80003d44	38e2e513	ori	x10,x5,910	  x5:0x00000000 x10=0x0000038e
       24805000	      2479	80003d48	006fcbb3	xor	x23,x31,x6	 x31:0x80000000  x6:0x00000000 x23=0x80000000
       24815000	      2480	80003d4c	00000013	addi	x0,x0,0	  x0:0x00000000
       24825000	      2481	80003d50	03a0d063	bge	x1,x26,80003d70	  x1:0x00000000 x26:0x000000a4
       24835000	      2482	80003d54	004deab3	or	x21,x27,x4	 x27:0xffffffff  x4:0xd093d4f5 x21=0xffffffff
       24845000	      2483	80003d58	551a2e93	slti	x29,x20,1361	 x20:0x49724000 x29=0x00000000
       24855000	      2484	80003d5c	03521863	bne	x4,x21,80003d8c	  x4:0xd093d4f5 x21:0xffffffff
       24865000	      2485	00000000	00000013	addi	x0,x0,0	  x0:0x00000000
       24875000	      2486	80003d88	00000013	addi	x0,x0,0	  x0:0x00000000
       24885000	      2487	80003d8c	04766063	bltu	x12,x7,80003dcc	 x12:0x00000000  x7:0x3eeefdbf
       24895000	      2488	00000000	00000013	addi	x0,x0,0	  x0:0x00000000
       24905000	      2489	80003dc8	00000013	addi	x0,x0,0	  x0:0x00000000
       24915000	      2490	80003dcc	7be1ea37	lui	x20,0x7be1e	 x20=0x7be1e000
       24925000	      2491	80003dd0	00000013	addi	x0,x0,0	  x0:0x00000000
       24935000	      2492	80003dd4	00d78533	add	x10,x15,x13	 x15:0x00000000 x13:0x00000000 x10=0x00000000
       24945000	      2493	80003dd8	958d2497	auipc	x9,0x958d2	  x9=0x158d5dd4
       24955000	      2494	80003ddc	00888c63	beq	x17,x8,80003df4	 x17:0x00000001  x8:0x8000bfd5
       24965000	      2495	80003de0	40ce5933	sra	x18,x28,x12	 x28:0xf823c000 x12:0x00000000 x18=0xf823c000
       24975000	      2496	80003de4	02357863	bgeu	x10,x3,80003e14	 x10:0x00000000  x3:0xd093d000
       24985000	      2497	80003de8	03f87063	bgeu	x16,x31,80003e08	 x16:0x80009f44 x31:0x80000000
       24995000	      2498	00000000	00000013	addi	x0,x0,0	  x0:0x00000000
       25005000	      2499	80003e04	00000013	addi	x0,x0,0	  x0:0x00000000
       25015000	      2500	80003e08	00d0c263	blt	x1,x13,80003e0c	  x1:0x00000000 x13:0x00000000
       25025000	      2501	80003e0c	0066b233	sltu	x4,x13,x6	 x13:0x00000000  x6:0x00000000  x4=0x00000000
       25035000	      2502	80003e10	00dc6eb3	or	x29,x24,x13	 x24:0x80003820 x13:0x00000000 x29=0x80003820
       25045000	      2503	80003e14	009bb533	sltu	x10,x23,x9	 x23:0x80000000  x9:0x158d5dd4 x10=0x00000000
       25055000	      2504	80003e18	eea5e517	auipc	x10,0xeea5e	 x10=0x6ea61e14
       25065000	      2505	80003e1c	00499c13	slli	x24,x19,0x4	 x19:0x00000000 x24=0x00000000
       25075000	      2506	80003e20	00644e63	blt	x8,x6,80003e3c	  x8:0x8000bfd5  x6:0x00000000
       25085000	      2507	00000000	00000013	addi	x0,x0,0	  x0:0x00000000
       25095000	      2508	80003e38	00000013	addi	x0,x0,0	  x0:0x00000000
       25105000	      2509	80003e3c	05ea6913	ori	x18,x20,94	 x20:0x7be1e000 x18=0x7be1e05e
       25115000	      2510	80003e40	d9623e13	sltiu	x28,x4,-618	  x4:0x00000000 x28=0x00000001
       25125000	      2511	80003e44	04c06463	bltu	x0,x12,80003e8c	  x0:0x00000000 x12:0x00000000
       25135000	      2512	80003e48	0137f0b3	and	x1,x15,x19	 x15:0x00000000 x19:0x00000000  x1=0x00000000
       25145000	      2513	80003e4c	574c7113	andi	x2,x24,1396	 x24:0x00000000  x2=0x00000000
       25155000	      2514	80003e50	047be063	bltu	x23,x7,80003e90	 x23:0x80000000  x7:0x3eeefdbf
       25165000	      2515	80003e54	404f5793	srai	x15,x30,0x4	 x30:0x00000001 x15=0x00000000
       25175000	      2516	80003e58	7f477493	andi	x9,x14,2036	 x14:0x00000000  x9=0x00000000
       25185000	      2517	80003e5c	ef23f793	andi	x15,x7,-270	  x7:0x3eeefdbf x15=0x3eeefcb2
       25195000	      2518	80003e60	00000013	addi	x0,x0,0	  x0:0x00000000
       25205000	      2519	80003e64	3f990893	addi	x17,x18,1017	 x18:0x7be1e05e x17=0x7be1e457
       25215000	      2520	80003e68	01321b33	sll	x22,x4,x19	  x4:0x00000000 x19:0x00000000 x22=0x00000000
       25225000	      2521	80003e6c	01e93533	sltu	x10,x18,x30	 x18:0x7be1e05e x30:0x00000001 x10=0x00000000
       25235000	      2522	80003e70	23bf3697	auipc	x13,0x23bf3	 x13=0xa3bf6e6c
       25245000	      2523	80003e74	e2bf2193	slti	x3,x30,-469	 x30:0x00000001  x3=0x00000000
       25255000	      2524	80003e78	00dc2bb3	slt	x23,x24,x13	 x24:0x00000000 x13:0xa3bf6e6c x23=0x00000000
       25265000	      2525	80003e7c	01d48eb3	add	x29,x9,x29	  x9:0x00000000 x29:0x80003820 x29=0x80003820
       25275000	      2526	80003e80	0172d5b3	srl	x11,x5,x23	  x5:0x00000000 x23:0x00000000 x11=0x00000000
       25285000	      2527	80003e84	40290c33	sub	x24,x18,x2	 x18:0x7be1e05e  x2:0x00000000 x24=0x7be1e05e
       25295000	      2528	80003e88	003a42b3	xor	x5,x20,x3	 x20:0x7be1e000  x3:0x00000000  x5=0x7be1e000
       25305000	      2529	80003e8c	00b8a2b3	slt	x5,x17,x11	 x17:0x7be1e457 x11:0x00000000  x5=0x00000000
       25315000	      2530	80003e90	eb7d3517	auipc	x10,0xeb7d3	 x10=0x6b7d6e8c
       25325000	      2531	80003e94	34017a13	andi	x20,x2,832	  x2:0x00000000 x20=0x00000000
       25335000	      2532	80003e98	01460b33	add	x22,x12,x20	 x12:0x00000000 x20:0x00000000 x22=0x00000000
       25345000	      2533	80003e9c	0053db13	srli	x22,x7,0x5	  x7:0x3eeefdbf x22=0x01f777ed
       25355000	      2534	80003ea0	02626863	bltu	x4,x6,80003ed0	  x4:0x00000000  x6:0x00000000
       25365000	      2535	80003ea4	05b65063	bge	x12,x27,80003ee4	 x12:0x00000000 x27:0xffffffff
       25375000	      2536	00000000	00000013	addi	x0,x0,0	  x0:0x00000000
       25385000	      2537	80003ee0	00000013	addi	x0,x0,0	  x0:0x00000000
       25395000	      2538	80003ee4	012b5e63	bge	x22,x18,80003f00	 x22:0x01f777ed x18:0x7be1e05e
       25405000	      2539	80003ee8	41aa5c13	srai	x24,x20,0x1a	 x20:0x00000000 x24=0x00000000
       25415000	      2540	80003eec	418a53b3	sra	x7,x20,x24	 x20:0x00000000 x24:0x00000000  x7=0x00000000
       25425000	      2541	80003ef0	aaa37d13	andi	x26,x6,-1366	  x6:0x00000000 x26=0x00000000
       25435000	      2542	80003ef4	04665463	bge	x12,x6,80003f3c	 x12:0x00000000  x6:0x00000000
       25445000	      2543	00000000	00000013	addi	x0,x0,0	  x0:0x00000000
       25455000	      2544	80003f38	00000013	addi	x0,x0,0	  x0:0x00000000
       25465000	      2545	80003f3c	404a5013	srai	x0,x20,0x4	 x20:0x00000000
       25475000	      2546	80003f40	014a4c33	xor	x24,x20,x20	 x20:0x00000000 x20:0x00000000 x24=0x00000000
       25485000	      2547	80003f44	01faf233	and	x4,x21,x31	 x21:0xffffffff x31:0x80000000  x4=0x80000000
       25495000	      2548	80003f48	025d4463	blt	x26,x5,80003f70	 x26:0x00000000  x5:0x00000000
       25505000	      2549	80003f4c	0389da63	bge	x19,x24,80003f80	 x19:0x00000000 x24:0x00000000
       25515000	      2550	00000000	00000013	addi	x0,x0,0	  x0:0x00000000
       25525000	      2551	80003f7c	00000013	addi	x0,x0,0	  x0:0x00000000
       25535000	      2552	80003f80	5b732f17	auipc	x30,0x5b732	 x30=0xdb735f7c
       25545000	      2553	80003f84	900b4f13	xori	x30,x22,-1792	 x22:0x01f777ed x30=0xfe088eed
       25555000	      2554	80003f88	c1966513	ori	x10,x12,-999	 x12:0x00000000 x10=0xfffffc19
       25565000	      2555	80003f8c	f6b6c493	xori	x9,x13,-149	 x13:0xa3bf6e6c  x9=0x5c409107
       25575000	      2556	80003f90	545b6193	ori	x3,x22,1349	 x22:0x01f777ed  x3=0x01f777ed
       25585000	      2557	80003f94	00f7cb33	xor	x22,x15,x15	 x15:0x3eeefcb2 x15:0x3eeefcb2 x22=0x00000000
       25595000	      2558	80003f98	643dc413	xori	x8,x27,1603	 x27:0xffffffff  x8=0xfffff9bc
       25605000	      2559	80003f9c	00e43133	sltu	x2,x8,x14	  x8:0xfffff9bc x14:0x00000000  x2=0x00000000
       25615000	      2560	80003fa0	0112d093	srli	x1,x5,0x11	  x5:0x00000000  x1=0x00000000
       25625000	      2561	80003fa4	0261f063	bgeu	x3,x6,80003fc4	  x3:0x01f777ed  x6:0x00000000
       25635000	      2562	00000000	00000013	addi	x0,x0,0	  x0:0x00000000
       25645000	      2563	80003fc0	00000013	addi	x0,x0,0	  x0:0x00000000
       25655000	      2564	80003fc4	01a31413	slli	x8,x6,0x1a	  x6:0x00000000  x8=0x00000000
       25665000	      2565	80003fc8	41945d33	sra	x26,x8,x25	  x8:0x00000000 x25:0x80009fc4 x26=0x00000000
       25675000	      2566	80003fcc	71d366b7	lui	x13,0x71d36	 x13=0x71d36000
       25685000	      2567	80003fd0	00a33433	sltu	x8,x6,x10	  x6:0x00000000 x10:0xfffffc19  x8=0x00000001
       25695000	      2568	80003fd4	00000013	addi	x0,x0,0	  x0:0x00000000
       25705000	      2569	80003fd8	01379413	slli	x8,x15,0x13	 x15:0x3eeefcb2  x8=0xe5900000
       25715000	      2570	80003fdc	6e3ae497	auipc	x9,0x6e3ae	  x9=0xee3b1fd8
       25725000	      2571	80003fe0	00019e63	bne	x3,x0,80003ffc	  x3:0x01f777ed  x0:0x00000000
       25735000	      2572	00000000	00000013	addi	x0,x0,0	  x0:0x00000000
       25745000	      2573	80003ff8	00000013	addi	x0,x0,0	  x0:0x00000000
       25755000	      2574	80003ffc	2291a393	slti	x7,x3,553	  x3:0x01f777ed  x7=0x00000000
       25765000	      2575	80004000	2c34ae93	slti	x29,x9,707	  x9:0xee3b1fd8 x29=0x00000001
       25775000	      2576	80004004	0120fbb3	and	x23,x1,x18	  x1:0x00000000 x18:0x7be1e05e x23=0x00000000
       25785000	      2577	80004008	034f4a63	blt	x30,x20,8000403c	 x30:0xfe088eed x20:0x00000000
       25795000	      2578	00000000	00000013	addi	x0,x0,0	  x0:0x00000000
       25805000	      2579	80004038	00000013	addi	x0,x0,0	  x0:0x00000000
       25815000	      2580	8000403c	03e45e63	bge	x8,x30,80004078	  x8:0xe5900000 x30:0xfe088eed
       25825000	      2581	80004040	ff24f5b7	lui	x11,0xff24f	 x11=0xff24f000
       25835000	      2582	80004044	0070d263	bge	x1,x7,80004048	  x1:0x00000000  x7:0x00000000
       25845000	      2583	00000000	00000013	addi	x0,x0,0	  x0:0x00000000
       25855000	      2584	80004044	00000013	addi	x0,x0,0	  x0:0x00000000
       25865000	      2585	80004048	84be1537	lui	x10,0x84be1	 x10=0x84be1000
       25875000	      2586	8000404c	73973593	sltiu	x11,x14,1849	 x14:0x00000000 x11=0x00000001
       25885000	      2587	80004050	02791463	bne	x18,x7,80004078	 x18:0x7be1e05e  x7:0x00000000
       25895000	      2588	00000000	00000013	addi	x0,x0,0	  x0:0x00000000
       25905000	      2589	80004074	00000013	addi	x0,x0,0	  x0:0x00000000
       25915000	      2590	80004078	847306b7	lui	x13,0x84730	 x13=0x84730000
       25925000	      2591	8000407c	033b7863	bgeu	x22,x19,800040ac	 x22:0x00000000 x19:0x00000000
       25935000	      2592	00000000	00000013	addi	x0,x0,0	  x0:0x00000000
       25945000	      2593	800040a8	00000013	addi	x0,x0,0	  x0:0x00000000
       25955000	      2594	800040ac	ea7c8697	auipc	x13,0xea7c8	 x13=0x6a7cc0a8
       25965000	      2595	800040b0	01c57a63	bgeu	x10,x28,800040c4	 x10:0x84be1000 x28:0x00000001
       25975000	      2596	00000000	00000013	addi	x0,x0,0	  x0:0x00000000
       25985000	      2597	800040c0	00000013	addi	x0,x0,0	  x0:0x00000000
       25995000	      2598	800040c4	0396d863	bge	x13,x25,800040f4	 x13:0x6a7cc0a8 x25:0x80009fc4
       26005000	      2599	00000000	00000013	addi	x0,x0,0	  x0:0x00000000
       26015000	      2600	800040f0	00000013	addi	x0,x0,0	  x0:0x00000000
       26025000	      2601	800040f4	01e5dd13	srli	x26,x11,0x1e	 x11:0x00000001 x26=0x00000000
       26035000	      2602	800040f8	00da5263	bge	x20,x13,800040fc	 x20:0x00000000 x13:0x6a7cc0a8
       26045000	      2603	800040fc	40542b93	slti	x23,x8,1029	  x8:0xe5900000 x23=0x00000001
       26055000	      2604	80004100	002314b3	sll	x9,x6,x2	  x6:0x00000000  x2:0x00000000  x9=0x00000000
       26065000	      2605	80004104	019c1533	sll	x10,x24,x25	 x24:0x00000000 x25:0x80009fc4 x10=0x00000000
       26075000	      2606	80004108	04f50063	beq	x10,x15,80004148	 x10:0x00000000 x15:0x3eeefcb2
       26085000	      2607	8000410c	0188fe63	bgeu	x17,x24,80004128	 x17:0x7be1e457 x24:0x00000000
       26095000	      2608	00000000	00000013	addi	x0,x0,0	  x0:0x00000000
       26105000	      2609	80004124	00000013	addi	x0,x0,0	  x0:0x00000000
       26115000	      2610	80004128	005b3433	sltu	x8,x22,x5	 x22:0x00000000  x5:0x00000000  x8=0x00000000
       26125000	      2611	8000412c	7ae36593	ori	x11,x6,1966	  x6:0x00000000 x11=0x000007ae
       26135000	      2612	80004130	001f4db3	xor	x27,x30,x1	 x30:0xfe088eed  x1:0x00000000 x27=0xfe088eed
       26145000	      2613	80004134	c21b6013	ori	x0,x22,-991	 x22:0x00000000
       26155000	      2614	80004138	416a8eb3	sub	x29,x21,x22	 x21:0xffffffff x22:0x00000000 x29=0xffffffff
       26165000	      2615	8000413c	011536b3	sltu	x13,x10,x17	 x10:0x00000000 x17:0x7be1e457 x13=0x00000001
       26175000	      2616	80004140	056b7463	bgeu	x22,x22,80004188	 x22:0x00000000 x22:0x00000000
       26185000	      2617	00000000	00000013	addi	x0,x0,0	  x0:0x00000000
       26195000	      2618	80004184	00000013	addi	x0,x0,0	  x0:0x00000000
       26205000	      2619	80004188	014c0133	add	x2,x24,x20	 x24:0x00000000 x20:0x00000000  x2=0x00000000
       26215000	      2620	8000418c	00be8db3	add	x27,x29,x11	 x29:0xffffffff x11:0x000007ae x27=0x000007ad
       26225000	      2621	80004190	00bddc63	bge	x27,x11,800041a8	 x27:0x000007ad x11:0x000007ae
       26235000	      2622	80004194	010a8133	add	x2,x21,x16	 x21:0xffffffff x16:0x80009f44  x2=0x80009f43
       26245000	      2623	80004198	03d90c63	beq	x18,x29,800041d0	 x18:0x7be1e05e x29:0xffffffff
       26255000	      2624	8000419c	de0dfe13	andi	x28,x27,-544	 x27:0x000007ad x28=0x000005a0
       26265000	      2625	800041a0	2efced97	auipc	x27,0x2efce	 x27=0xaefd219c
       26275000	      2626	800041a4	01d8c5b3	xor	x11,x17,x29	 x17:0x7be1e457 x29:0xffffffff x11=0x841e1ba8
       26285000	      2627	800041a8	007f6e63	bltu	x30,x7,800041c4	 x30:0xfe088eed  x7:0x00000000
       26295000	      2628	800041ac	0424f063	bgeu	x9,x2,800041ec	  x9:0x00000000  x2:0x80009f43
       26305000	      2629	800041b0	408f5a93	srai	x21,x30,0x8	 x30:0xfe088eed x21=0xfffe088e
       26315000	      2630	800041b4	004a5c63	bge	x20,x4,800041cc	 x20:0x00000000  x4:0x80000000
       26325000	      2631	00000000	00000013	addi	x0,x0,0	  x0:0x00000000
       26335000	      2632	800041c8	00000013	addi	x0,x0,0	  x0:0x00000000
       26345000	      2633	800041cc	80bea493	slti	x9,x29,-2037	 x29:0xffffffff  x9=0x00000000
       26355000	      2634	800041d0	04f26463	bltu	x4,x15,80004218	  x4:0x80000000 x15:0x3eeefcb2
       26365000	      2635	800041d4	04a2d063	bge	x5,x10,80004214	  x5:0x00000000 x10:0x00000000
       26375000	      2636	00000000	00000013	addi	x0,x0,0	  x0:0x00000000
       26385000	      2637	80004210	00000013	addi	x0,x0,0	  x0:0x00000000
       26395000	      2638	80004214	00af1263	bne	x30,x10,80004218	 x30:0xfe088eed x10:0x00000000
       26405000	      2639	00000000	00000013	addi	x0,x0,0	  x0:0x00000000
       26415000	      2640	80004214	00000013	addi	x0,x0,0	  x0:0x00000000
       26425000	      2641	80004218	0047a7b3	slt	x15,x15,x4	 x15:0x3eeefcb2  x4:0x80000000 x15=0x00000000
       26435000	      2642	8000421c	01a41e93	slli	x29,x8,0x1a	  x8:0x00000000 x29=0x00000000
       26445000	      2643	80004220	0119ca63	blt	x19,x17,80004234	 x19:0x00000000 x17:0x7be1e457
       26455000	      2644	00000000	00000013	addi	x0,x0,0	  x0:0x00000000
       26465000	      2645	80004230	00000013	addi	x0,x0,0	  x0:0x00000000
       26475000	      2646	80004234	01a96d33	or	x26,x18,x26	 x18:0x7be1e05e x26:0x00000000 x26=0x7be1e05e
       26485000	      2647	80004238	000d0d93	addi	x27,x26,0	 x26:0x7be1e05e x27=0x7be1e05e
       26495000	      2648	8000423c	014528b3	slt	x17,x10,x20	 x10:0x00000000 x20:0x00000000 x17=0x00000000
       26505000	      2649	80004240	2fa04a97	auipc	x21,0x2fa04	 x21=0xafa0823c
       26515000	      2650	80004244	01523433	sltu	x8,x4,x21	  x4:0x80000000 x21:0xafa0823c  x8=0x00000001
       26525000	      2651	80004248	0049d6b3	srl	x13,x19,x4	 x19:0x00000000  x4:0x80000000 x13=0x00000000
       26535000	      2652	8000424c	00692233	slt	x4,x18,x6	 x18:0x7be1e05e  x6:0x00000000  x4=0x00000000
       26545000	      2653	80004250	006ad913	srli	x18,x21,0x6	 x21:0xafa0823c x18=0x02be8208
       26555000	      2654	80004254	0189c3b3	xor	x7,x19,x24	 x19:0x00000000 x24:0x00000000  x7=0x00000000
       26565000	      2655	80004258	012135b3	sltu	x11,x2,x18	  x2:0x80009f43 x18:0x02be8208 x11=0x00000000
       26575000	      2656	8000425c	011470b3	and	x1,x8,x17	  x8:0x00000001 x17:0x00000000  x1=0x00000000
       26585000	      2657	80004260	00000013	addi	x0,x0,0	  x0:0x00000000
       26595000	      2658	80004264	00a56eb3	or	x29,x10,x10	 x10:0x00000000 x10:0x00000000 x29=0x00000000
       26605000	      2659	80004268	404e59b3	sra	x19,x28,x4	 x28:0x000005a0  x4:0x00000000 x19=0x000005a0
       26615000	      2660	8000426c	40ef5933	sra	x18,x30,x14	 x30:0xfe088eed x14:0x00000000 x18=0xfe088eed
       26625000	      2661	80004270	00620bb3	add	x23,x4,x6	  x4:0x00000000  x6:0x00000000 x23=0x00000000
       26635000	      2662	80004274	e3bce593	ori	x11,x25,-453	 x25:0x80009fc4 x11=0xffffffff
       26645000	      2663	80004278	00a0a8b3	slt	x17,x1,x10	  x1:0x00000000 x10:0x00000000 x17=0x00000000
       26655000	      2664	8000427c	4180d3b3	sra	x7,x1,x24	  x1:0x00000000 x24:0x00000000  x7=0x00000000
       26665000	      2665	80004280	0947f513	andi	x10,x15,148	 x15:0x00000000 x10=0x00000000
       26675000	      2666	80004284	02394063	blt	x18,x3,800042a4	 x18:0xfe088eed  x3:0x01f777ed
       26685000	      2667	00000000	00000013	addi	x0,x0,0	  x0:0x00000000
       26695000	      2668	800042a0	00000013	addi	x0,x0,0	  x0:0x00000000
       26705000	      2669	800042a4	2370b413	sltiu	x8,x1,567	  x1:0x00000000  x8=0x00000001
       26715000	      2670	800042a8	002d6a33	or	x20,x26,x2	 x26:0x7be1e05e  x2:0x80009f43 x20=0xfbe1ff5f
       26725000	      2671	800042ac	9a2b4a13	xori	x20,x22,-1630	 x22:0x00000000 x20=0xfffff9a2
       26735000	      2672	800042b0	0012a433	slt	x8,x5,x1	  x5:0x00000000  x1:0x00000000  x8=0x00000000
       26745000	      2673	800042b4	00c74263	blt	x14,x12,800042b8	 x14:0x00000000 x12:0x00000000
       26755000	      2674	800042b8	00f49733	sll	x14,x9,x15	  x9:0x00000000 x15:0x00000000 x14=0x00000000
       26765000	      2675	800042bc	00c180b3	add	x1,x3,x12	  x3:0x01f777ed x12:0x00000000  x1=0x01f777ed
       26775000	      2676	800042c0	40f0d4b3	sra	x9,x1,x15	  x1:0x01f777ed x15:0x00000000  x9=0x01f777ed
       26785000	      2677	800042c4	41f98ab3	sub	x21,x19,x31	 x19:0x000005a0 x31:0x80000000 x21=0x800005a0
       26795000	      2678	800042c8	00000013	addi	x0,x0,0	  x0:0x00000000
       26805000	      2679	800042cc	01a11463	bne	x2,x26,800042d4	  x2:0x80009f43 x26:0x7be1e05e
       26815000	      2680	00000000	00000013	addi	x0,x0,0	  x0:0x00000000
       26825000	      2681	800042d0	00000013	addi	x0,x0,0	  x0:0x00000000
       26835000	      2682	800042d4	007f9633	sll	x12,x31,x7	 x31:0x80000000  x7:0x00000000 x12=0x80000000
       26845000	      2683	800042d8	01ab9093	slli	x1,x23,0x1a	 x23:0x00000000  x1=0x00000000
       26855000	      2684	800042dc	3bd22c13	slti	x24,x4,957	  x4:0x00000000 x24=0x00000001
       26865000	      2685	800042e0	00776333	or	x6,x14,x7	 x14:0x00000000  x7:0x00000000  x6=0x00000000
       26875000	      2686	800042e4	4155d1b3	sra	x3,x11,x21	 x11:0xffffffff x21:0x800005a0  x3=0xffffffff
       26885000	      2687	800042e8	413e8b33	sub	x22,x29,x19	 x29:0x00000000 x19:0x000005a0 x22=0xfffffa60
       26895000	      2688	800042ec	0057db33	srl	x22,x15,x5	 x15:0x00000000  x5:0x00000000 x22=0x00000000
       26905000	      2689	800042f0	6e7fb313	sltiu	x6,x31,1767	 x31:0x80000000  x6=0x00000000
       26915000	      2690	800042f4	00482083	lw	x1,4(x16)	 x16:0x80009f44  x1=0x8000135c PA:0x80009f48
       26925000	      2691	800042f8	40ac8633	sub	x12,x25,x10	 x25:0x80009fc4 x10:0x00000000 x12=0x80009fc4
       26935000	      2692	800042fc	c8e04393	xori	x7,x0,-882	  x0:0x00000000  x7=0xfffffc8e
       26945000	      2693	80004300	454ec413	xori	x8,x29,1108	 x29:0x00000000  x8=0x00000454
       26955000	      2694	80004304	41d4d693	srai	x13,x9,0x1d	  x9:0x01f777ed x13=0x00000000
       26965000	      2695	80004308	77aef293	andi	x5,x29,1914	 x29:0x00000000  x5=0x00000000
       26975000	      2696	8000430c	00761133	sll	x2,x12,x7	 x12:0x80009fc4  x7:0xfffffc8e  x2=0x27f10000
       26985000	      2697	80004310	02c80813	addi	x16,x16,44	 x16:0x80009f44 x16=0x80009f70
       26995000	      2698	80004314	0053d893	srli	x17,x7,0x5	  x7:0xfffffc8e x17=0x07ffffe4
       27005000	      2699	80004318	00108093	addi	x1,x1,1	  x1:0x8000135c  x1=0x8000135d
       27015000	      2700	8000431c	000080e7	jalr	x1,x1,0	  x1:0x8000135d  x1=0x8000431c
       27025000	      2701	00000000	00000013	addi	x0,x0,0	  x0:0x00000000
       27035000	      2702	8000135c	00000013	addi	x0,x0,0	  x0:0x00000000
       27045000	      2703	80001360	008000ef	jal	x1,80001360	  x1=0x80001360
       27055000	      2704	00000000	00000013	addi	x0,x0,0	  x0:0x00000000
       27065000	      2705	80001364	00000013	addi	x0,x0,0	  x0:0x00000000
       27075000	      2706	80001368	03c000ef	jal	x1,80001368	  x1=0x80001368
       27085000	      2707	00000000	00000013	addi	x0,x0,0	  x0:0x00000000
       27095000	      2708	800013a0	00000013	addi	x0,x0,0	  x0:0x00000000
       27105000	      2709	800013a4	fd5ff0ef	jal	x1,800013a4	  x1=0x800013a4
       27115000	      2710	00000000	00000013	addi	x0,x0,0	  x0:0x00000000
       27125000	      2711	80001374	00000013	addi	x0,x0,0	  x0:0x00000000
       27135000	      2712	80001378	024000ef	jal	x1,80001378	  x1=0x80001378
       27145000	      2713	00000000	00000013	addi	x0,x0,0	  x0:0x00000000
       27155000	      2714	80001398	00000013	addi	x0,x0,0	  x0:0x00000000
       27165000	      2715	8000139c	ff5ff36f	jal	x6,8000139c	  x6=0x8000139c
       27175000	      2716	00000000	00000013	addi	x0,x0,0	  x0:0x00000000
       27185000	      2717	8000138c	00000013	addi	x0,x0,0	  x0:0x00000000
       27195000	      2718	80001390	01c000ef	jal	x1,80001390	  x1=0x80001390
       27205000	      2719	00000000	00000013	addi	x0,x0,0	  x0:0x00000000
       27215000	      2720	800013a8	00000013	addi	x0,x0,0	  x0:0x00000000
       27225000	      2721	800013ac	fe1ff36f	jal	x6,800013ac	  x6=0x800013ac
       27235000	      2722	00000000	00000013	addi	x0,x0,0	  x0:0x00000000
       27245000	      2723	80001388	00000013	addi	x0,x0,0	  x0:0x00000000
       27255000	      2724	8000138c	00c000ef	jal	x1,8000138c	  x1=0x8000138c
       27265000	      2725	00000000	00000013	addi	x0,x0,0	  x0:0x00000000
       27275000	      2726	80001394	00000013	addi	x0,x0,0	  x0:0x00000000
       27285000	      2727	80001398	fe9ff0ef	jal	x1,80001398	  x1=0x80001398
       27295000	      2728	00000000	00000013	addi	x0,x0,0	  x0:0x00000000
       27305000	      2729	8000137c	00000013	addi	x0,x0,0	  x0:0x00000000
       27315000	      2730	80001380	0400036f	jal	x6,80001380	  x6=0x80001380
       27325000	      2731	00000000	00000013	addi	x0,x0,0	  x0:0x00000000
       27335000	      2732	800013bc	00000013	addi	x0,x0,0	  x0:0x00000000
       27345000	      2733	800013c0	ffdff0ef	jal	x1,800013c0	  x1=0x800013c0
       27355000	      2734	00000000	00000013	addi	x0,x0,0	  x0:0x00000000
       27365000	      2735	800013b8	00000013	addi	x0,x0,0	  x0:0x00000000
       27375000	      2736	800013bc	ff5ff36f	jal	x6,800013bc	  x6=0x800013bc
       27385000	      2737	00000000	00000013	addi	x0,x0,0	  x0:0x00000000
       27395000	      2738	800013ac	00000013	addi	x0,x0,0	  x0:0x00000000
       27405000	      2739	800013b0	fcdff0ef	jal	x1,800013b0	  x1=0x800013b0
       27415000	      2740	00000000	00000013	addi	x0,x0,0	  x0:0x00000000
       27425000	      2741	80001378	00000013	addi	x0,x0,0	  x0:0x00000000
       27435000	      2742	8000137c	024000ef	jal	x1,8000137c	  x1=0x8000137c
       27445000	      2743	00000000	00000013	addi	x0,x0,0	  x0:0x00000000
       27455000	      2744	8000139c	00000013	addi	x0,x0,0	  x0:0x00000000
       27465000	      2745	800013a0	fd1ff0ef	jal	x1,800013a0	  x1=0x800013a0
       27475000	      2746	00000000	00000013	addi	x0,x0,0	  x0:0x00000000
       27485000	      2747	8000136c	00000013	addi	x0,x0,0	  x0:0x00000000
       27495000	      2748	80001370	ffdff0ef	jal	x1,80001370	  x1=0x80001370
       27505000	      2749	00000000	00000013	addi	x0,x0,0	  x0:0x00000000
       27515000	      2750	80001368	00000013	addi	x0,x0,0	  x0:0x00000000
       27525000	      2751	8000136c	018000ef	jal	x1,8000136c	  x1=0x8000136c
       27535000	      2752	00000000	00000013	addi	x0,x0,0	  x0:0x00000000
       27545000	      2753	80001380	00000013	addi	x0,x0,0	  x0:0x00000000
       27555000	      2754	80001384	040000ef	jal	x1,80001384	  x1=0x80001384
       27565000	      2755	00000000	00000013	addi	x0,x0,0	  x0:0x00000000
       27575000	      2756	800013c0	00000013	addi	x0,x0,0	  x0:0x00000000
       27585000	      2757	800013c4	fa1ff66f	jal	x12,800013c4	 x12=0x800013c4
       27595000	      2758	00000000	00000013	addi	x0,x0,0	  x0:0x00000000
       27605000	      2759	80001360	00000013	addi	x0,x0,0	  x0:0x00000000
       27615000	      2760	80001364	0540036f	jal	x6,80001364	  x6=0x80001364
       27625000	      2761	00000000	00000013	addi	x0,x0,0	  x0:0x00000000
       27635000	      2762	800013b4	00000013	addi	x0,x0,0	  x0:0x00000000
       27645000	      2763	800013b8	ff1ff56f	jal	x10,800013b8	 x10=0x800013b8
       27655000	      2764	00000000	00000013	addi	x0,x0,0	  x0:0x00000000
       27665000	      2765	800013a4	00000013	addi	x0,x0,0	  x0:0x00000000
       27675000	      2766	800013a8	fe1ff0ef	jal	x1,800013a8	  x1=0x800013a8
       27685000	      2767	00000000	00000013	addi	x0,x0,0	  x0:0x00000000
       27695000	      2768	80001384	00000013	addi	x0,x0,0	  x0:0x00000000
       27705000	      2769	80001388	040000ef	jal	x1,80001388	  x1=0x80001388
       27715000	      2770	00000000	00000013	addi	x0,x0,0	  x0:0x00000000
       27725000	      2771	800013c4	00000013	addi	x0,x0,0	  x0:0x00000000
       27735000	      2772	800013c8	fedff36f	jal	x6,800013c8	  x6=0x800013c8
       27745000	      2773	00000000	00000013	addi	x0,x0,0	  x0:0x00000000
       27755000	      2774	800013b0	00000013	addi	x0,x0,0	  x0:0x00000000
       27765000	      2775	800013b4	fc1ffaef	jal	x21,800013b4	 x21=0x800013b4
       27775000	      2776	00000000	00000013	addi	x0,x0,0	  x0:0x00000000
       27785000	      2777	80001370	00000013	addi	x0,x0,0	  x0:0x00000000
       27795000	      2778	80001374	0200036f	jal	x6,80001374	  x6=0x80001374
       27805000	      2779	00000000	00000013	addi	x0,x0,0	  x0:0x00000000
       27815000	      2780	80001390	00000013	addi	x0,x0,0	  x0:0x00000000
       27825000	      2781	80001394	038000ef	jal	x1,80001394	  x1=0x80001394
       27835000	      2782	00000000	00000013	addi	x0,x0,0	  x0:0x00000000
       27845000	      2783	800013c8	00000013	addi	x0,x0,0	  x0:0x00000000
       27855000	      2784	800013cc	008a25b3	slt	x11,x20,x8	 x20:0xfffff9a2  x8:0x00000454 x11=0x00000001
       27865000	      2785	800013d0	034000ef	jal	x1,800013d0	  x1=0x800013d0
       27875000	      2786	00000000	00000013	addi	x0,x0,0	  x0:0x00000000
       27885000	      2787	80001400	00000013	addi	x0,x0,0	  x0:0x00000000
       27895000	      2788	80001404	fe1ff1ef	jal	x3,80001404	  x3=0x80001404
       27905000	      2789	00000000	00000013	addi	x0,x0,0	  x0:0x00000000
       27915000	      2790	800013e0	00000013	addi	x0,x0,0	  x0:0x00000000
       27925000	      2791	800013e4	ff9ff1ef	jal	x3,800013e4	  x3=0x800013e4
       27935000	      2792	00000000	00000013	addi	x0,x0,0	  x0:0x00000000
       27945000	      2793	800013d8	00000013	addi	x0,x0,0	  x0:0x00000000
       27955000	      2794	800013dc	0240026f	jal	x4,800013dc	  x4=0x800013dc
       27965000	      2795	00000000	00000013	addi	x0,x0,0	  x0:0x00000000
       27975000	      2796	800013fc	00000013	addi	x0,x0,0	  x0:0x00000000
       27985000	      2797	80001400	018000ef	jal	x1,80001400	  x1=0x80001400
       27995000	      2798	00000000	00000013	addi	x0,x0,0	  x0:0x00000000
       28005000	      2799	80001414	00000013	addi	x0,x0,0	  x0:0x00000000
       28015000	      2800	80001418	fd9ff0ef	jal	x1,80001418	  x1=0x80001418
       28025000	      2801	00000000	00000013	addi	x0,x0,0	  x0:0x00000000
       28035000	      2802	800013ec	00000013	addi	x0,x0,0	  x0:0x00000000
       28045000	      2803	800013f0	030000ef	jal	x1,800013f0	  x1=0x800013f0
       28055000	      2804	00000000	00000013	addi	x0,x0,0	  x0:0x00000000
       28065000	      2805	8000141c	00000013	addi	x0,x0,0	  x0:0x00000000
       28075000	      2806	80001420	fd5ff16f	jal	x2,80001420	  x2=0x80001420
       28085000	      2807	00000000	00000013	addi	x0,x0,0	  x0:0x00000000
       28095000	      2808	800013f0	00000013	addi	x0,x0,0	  x0:0x00000000
       28105000	      2809	800013f4	fe5ff36f	jal	x6,800013f4	  x6=0x800013f4
       28115000	      2810	00000000	00000013	addi	x0,x0,0	  x0:0x00000000
       28125000	      2811	800013d4	00000013	addi	x0,x0,0	  x0:0x00000000
       28135000	      2812	800013d8	0300036f	jal	x6,800013d8	  x6=0x800013d8
       28145000	      2813	00000000	00000013	addi	x0,x0,0	  x0:0x00000000
       28155000	      2814	80001404	00000013	addi	x0,x0,0	  x0:0x00000000
       28165000	      2815	80001408	008000ef	jal	x1,80001408	  x1=0x80001408
       28175000	      2816	00000000	00000013	addi	x0,x0,0	  x0:0x00000000
       28185000	      2817	8000140c	00000013	addi	x0,x0,0	  x0:0x00000000
       28195000	      2818	80001410	fe9ff0ef	jal	x1,80001410	  x1=0x80001410
       28205000	      2819	00000000	00000013	addi	x0,x0,0	  x0:0x00000000
       28215000	      2820	800013f4	00000013	addi	x0,x0,0	  x0:0x00000000
       28225000	      2821	800013f8	01c0036f	jal	x6,800013f8	  x6=0x800013f8
       28235000	      2822	00000000	00000013	addi	x0,x0,0	  x0:0x00000000
       28245000	      2823	80001410	00000013	addi	x0,x0,0	  x0:0x00000000
       28255000	      2824	80001414	fd5ff0ef	jal	x1,80001414	  x1=0x80001414
       28265000	      2825	00000000	00000013	addi	x0,x0,0	  x0:0x00000000
       28275000	      2826	800013e4	00000013	addi	x0,x0,0	  x0:0x00000000
       28285000	      2827	800013e8	014000ef	jal	x1,800013e8	  x1=0x800013e8
       28295000	      2828	00000000	00000013	addi	x0,x0,0	  x0:0x00000000
       28305000	      2829	800013f8	00000013	addi	x0,x0,0	  x0:0x00000000
       28315000	      2830	800013fc	fe5ffeef	jal	x29,800013fc	 x29=0x800013fc
       28325000	      2831	00000000	00000013	addi	x0,x0,0	  x0:0x00000000
       28335000	      2832	800013dc	00000013	addi	x0,x0,0	  x0:0x00000000
       28345000	      2833	800013e0	00c000ef	jal	x1,800013e0	  x1=0x800013e0
       28355000	      2834	00000000	00000013	addi	x0,x0,0	  x0:0x00000000
       28365000	      2835	800013e8	00000013	addi	x0,x0,0	  x0:0x00000000
       28375000	      2836	800013ec	fe9ff0ef	jal	x1,800013ec	  x1=0x800013ec
       28385000	      2837	00000000	00000013	addi	x0,x0,0	  x0:0x00000000
       28395000	      2838	800013d0	00000013	addi	x0,x0,0	  x0:0x00000000
       28405000	      2839	800013d4	03800bef	jal	x23,800013d4	 x23=0x800013d4
       28415000	      2840	00000000	00000013	addi	x0,x0,0	  x0:0x00000000
       28425000	      2841	80001408	00000013	addi	x0,x0,0	  x0:0x00000000
       28435000	      2842	8000140c	010000ef	jal	x1,8000140c	  x1=0x8000140c
       28445000	      2843	00000000	00000013	addi	x0,x0,0	  x0:0x00000000
       28455000	      2844	80001418	00000013	addi	x0,x0,0	  x0:0x00000000
       28465000	      2845	8000141c	008004ef	jal	x9,8000141c	  x9=0x8000141c
       28475000	      2846	00000000	00000013	addi	x0,x0,0	  x0:0x00000000
       28485000	      2847	80001420	00000013	addi	x0,x0,0	  x0:0x00000000
       28495000	      2848	80001424	01d23633	sltu	x12,x4,x29	  x4:0x800013dc x29:0x800013fc x12=0x00000001
       28505000	      2849	80001428	02c000ef	jal	x1,80001428	  x1=0x80001428
       28515000	      2850	00000000	00000013	addi	x0,x0,0	  x0:0x00000000
       28525000	      2851	80001450	00000013	addi	x0,x0,0	  x0:0x00000000
       28535000	      2852	80001454	00c000ef	jal	x1,80001454	  x1=0x80001454
       28545000	      2853	00000000	00000013	addi	x0,x0,0	  x0:0x00000000
       28555000	      2854	8000145c	00000013	addi	x0,x0,0	  x0:0x00000000
       28565000	      2855	80001460	fe9ff36f	jal	x6,80001460	  x6=0x80001460
       28575000	      2856	00000000	00000013	addi	x0,x0,0	  x0:0x00000000
       28585000	      2857	80001444	00000013	addi	x0,x0,0	  x0:0x00000000
       28595000	      2858	80001448	0080036f	jal	x6,80001448	  x6=0x80001448
       28605000	      2859	00000000	00000013	addi	x0,x0,0	  x0:0x00000000
       28615000	      2860	8000144c	00000013	addi	x0,x0,0	  x0:0x00000000
       28625000	      2861	80001450	008000ef	jal	x1,80001450	  x1=0x80001450
       28635000	      2862	00000000	00000013	addi	x0,x0,0	  x0:0x00000000
       28645000	      2863	80001454	00000013	addi	x0,x0,0	  x0:0x00000000
       28655000	      2864	80001458	fedff16f	jal	x2,80001458	  x2=0x80001458
       28665000	      2865	00000000	00000013	addi	x0,x0,0	  x0:0x00000000
       28675000	      2866	80001440	00000013	addi	x0,x0,0	  x0:0x00000000
       28685000	      2867	80001444	fedff1ef	jal	x3,80001444	  x3=0x80001444
       28695000	      2868	00000000	00000013	addi	x0,x0,0	  x0:0x00000000
       28705000	      2869	8000142c	00000013	addi	x0,x0,0	  x0:0x00000000
       28715000	      2870	80001430	004000ef	jal	x1,80001430	  x1=0x80001430
       28725000	      2871	00000000	00000013	addi	x0,x0,0	  x0:0x00000000
       28735000	      2872	80001430	00000013	addi	x0,x0,0	  x0:0x00000000
       28745000	      2873	80001434	ff9ff36f	jal	x6,80001434	  x6=0x80001434
       28755000	      2874	00000000	00000013	addi	x0,x0,0	  x0:0x00000000
       28765000	      2875	80001428	00000013	addi	x0,x0,0	  x0:0x00000000
       28775000	      2876	8000142c	020000ef	jal	x1,8000142c	  x1=0x8000142c
       28785000	      2877	00000000	00000013	addi	x0,x0,0	  x0:0x00000000
       28795000	      2878	80001448	00000013	addi	x0,x0,0	  x0:0x00000000
       28805000	      2879	8000144c	0180036f	jal	x6,8000144c	  x6=0x8000144c
       28815000	      2880	00000000	00000013	addi	x0,x0,0	  x0:0x00000000
       28825000	      2881	80001460	00000013	addi	x0,x0,0	  x0:0x00000000
       28835000	      2882	80001464	fd9ff36f	jal	x6,80001464	  x6=0x80001464
       28845000	      2883	00000000	00000013	addi	x0,x0,0	  x0:0x00000000
       28855000	      2884	80001438	00000013	addi	x0,x0,0	  x0:0x00000000
       28865000	      2885	8000143c	020000ef	jal	x1,8000143c	  x1=0x8000143c
       28875000	      2886	00000000	00000013	addi	x0,x0,0	  x0:0x00000000
       28885000	      2887	80001458	00000013	addi	x0,x0,0	  x0:0x00000000
       28895000	      2888	8000145c	fe5ff0ef	jal	x1,8000145c	  x1=0x8000145c
       28905000	      2889	00000000	00000013	addi	x0,x0,0	  x0:0x00000000
       28915000	      2890	8000143c	00000013	addi	x0,x0,0	  x0:0x00000000
       28925000	      2891	80001440	ff9ff0ef	jal	x1,80001440	  x1=0x80001440
       28935000	      2892	00000000	00000013	addi	x0,x0,0	  x0:0x00000000
       28945000	      2893	80001434	00000013	addi	x0,x0,0	  x0:0x00000000
       28955000	      2894	80001438	030000ef	jal	x1,80001438	  x1=0x80001438
       28965000	      2895	00000000	00000013	addi	x0,x0,0	  x0:0x00000000
       28975000	      2896	80001464	00000013	addi	x0,x0,0	  x0:0x00000000
       28985000	      2897	80001468	2f82b693	sltiu	x13,x5,760	  x5:0x00000000 x13=0x00000001
       28995000	      2898	8000146c	034000ef	jal	x1,8000146c	  x1=0x8000146c
       29005000	      2899	00000000	00000013	addi	x0,x0,0	  x0:0x00000000
       29015000	      2900	8000149c	00000013	addi	x0,x0,0	  x0:0x00000000
       29025000	      2901	800014a0	ff5ff16f	jal	x2,800014a0	  x2=0x800014a0
       29035000	      2902	00000000	00000013	addi	x0,x0,0	  x0:0x00000000
       29045000	      2903	80001490	00000013	addi	x0,x0,0	  x0:0x00000000
       29055000	      2904	80001494	008000ef	jal	x1,80001494	  x1=0x80001494
       29065000	      2905	00000000	00000013	addi	x0,x0,0	  x0:0x00000000
       29075000	      2906	80001498	00000013	addi	x0,x0,0	  x0:0x00000000
       29085000	      2907	8000149c	01400b6f	jal	x22,8000149c	 x22=0x8000149c
       29095000	      2908	00000000	00000013	addi	x0,x0,0	  x0:0x00000000
       29105000	      2909	800014ac	00000013	addi	x0,x0,0	  x0:0x00000000
       29115000	      2910	800014b0	fc9ffc6f	jal	x24,800014b0	 x24=0x800014b0
       29125000	      2911	00000000	00000013	addi	x0,x0,0	  x0:0x00000000
       29135000	      2912	80001474	00000013	addi	x0,x0,0	  x0:0x00000000
       29145000	      2913	80001478	04c000ef	jal	x1,80001478	  x1=0x80001478
       29155000	      2914	00000000	00000013	addi	x0,x0,0	  x0:0x00000000
       29165000	      2915	800014c0	00000013	addi	x0,x0,0	  x0:0x00000000
       29175000	      2916	800014c4	fc5ff0ef	jal	x1,800014c4	  x1=0x800014c4
       29185000	      2917	00000000	00000013	addi	x0,x0,0	  x0:0x00000000
       29195000	      2918	80001484	00000013	addi	x0,x0,0	  x0:0x00000000
       29205000	      2919	80001488	024000ef	jal	x1,80001488	  x1=0x80001488
       29215000	      2920	00000000	00000013	addi	x0,x0,0	  x0:0x00000000
       29225000	      2921	800014a8	00000013	addi	x0,x0,0	  x0:0x00000000
       29235000	      2922	800014ac	0100036f	jal	x6,800014ac	  x6=0x800014ac
       29245000	      2923	00000000	00000013	addi	x0,x0,0	  x0:0x00000000
       29255000	      2924	800014b8	00000013	addi	x0,x0,0	  x0:0x00000000
       29265000	      2925	800014bc	fc9ff4ef	jal	x9,800014bc	  x9=0x800014bc
       29275000	      2926	00000000	00000013	addi	x0,x0,0	  x0:0x00000000
       29285000	      2927	80001480	00000013	addi	x0,x0,0	  x0:0x00000000
       29295000	      2928	80001484	030000ef	jal	x1,80001484	  x1=0x80001484
       29305000	      2929	00000000	00000013	addi	x0,x0,0	  x0:0x00000000
       29315000	      2930	800014b0	00000013	addi	x0,x0,0	  x0:0x00000000
       29325000	      2931	800014b4	fd9ff36f	jal	x6,800014b4	  x6=0x800014b4
       29335000	      2932	00000000	00000013	addi	x0,x0,0	  x0:0x00000000
       29345000	      2933	80001488	00000013	addi	x0,x0,0	  x0:0x00000000
       29355000	      2934	8000148c	fe5ff16f	jal	x2,8000148c	  x2=0x8000148c
       29365000	      2935	00000000	00000013	addi	x0,x0,0	  x0:0x00000000
       29375000	      2936	8000146c	00000013	addi	x0,x0,0	  x0:0x00000000
       29385000	      2937	80001470	034005ef	jal	x11,80001470	 x11=0x80001470
       29395000	      2938	00000000	00000013	addi	x0,x0,0	  x0:0x00000000
       29405000	      2939	800014a0	00000013	addi	x0,x0,0	  x0:0x00000000
       29415000	      2940	800014a4	fddff0ef	jal	x1,800014a4	  x1=0x800014a4
       29425000	      2941	00000000	00000013	addi	x0,x0,0	  x0:0x00000000
       29435000	      2942	8000147c	00000013	addi	x0,x0,0	  x0:0x00000000
       29445000	      2943	80001480	028000ef	jal	x1,80001480	  x1=0x80001480
       29455000	      2944	00000000	00000013	addi	x0,x0,0	  x0:0x00000000
       29465000	      2945	800014a4	00000013	addi	x0,x0,0	  x0:0x00000000
       29475000	      2946	800014a8	0100026f	jal	x4,800014a8	  x4=0x800014a8
       29485000	      2947	00000000	00000013	addi	x0,x0,0	  x0:0x00000000
       29495000	      2948	800014b4	00000013	addi	x0,x0,0	  x0:0x00000000
       29505000	      2949	800014b8	0080036f	jal	x6,800014b8	  x6=0x800014b8
       29515000	      2950	00000000	00000013	addi	x0,x0,0	  x0:0x00000000
       29525000	      2951	800014bc	00000013	addi	x0,x0,0	  x0:0x00000000
       29535000	      2952	800014c0	fbdff0ef	jal	x1,800014c0	  x1=0x800014c0
       29545000	      2953	00000000	00000013	addi	x0,x0,0	  x0:0x00000000
       29555000	      2954	80001478	00000013	addi	x0,x0,0	  x0:0x00000000
       29565000	      2955	8000147c	01c00c6f	jal	x24,8000147c	 x24=0x8000147c
       29575000	      2956	00000000	00000013	addi	x0,x0,0	  x0:0x00000000
       29585000	      2957	80001494	00000013	addi	x0,x0,0	  x0:0x00000000
       29595000	      2958	80001498	fddff0ef	jal	x1,80001498	  x1=0x80001498
       29605000	      2959	00000000	00000013	addi	x0,x0,0	  x0:0x00000000
       29615000	      2960	80001470	00000013	addi	x0,x0,0	  x0:0x00000000
       29625000	      2961	80001474	01c001ef	jal	x3,80001474	  x3=0x80001474
       29635000	      2962	00000000	00000013	addi	x0,x0,0	  x0:0x00000000
       29645000	      2963	8000148c	00000013	addi	x0,x0,0	  x0:0x00000000
       29655000	      2964	80001490	038000ef	jal	x1,80001490	  x1=0x80001490
       29665000	      2965	00000000	00000013	addi	x0,x0,0	  x0:0x00000000
       29675000	      2966	800014c4	00000013	addi	x0,x0,0	  x0:0x00000000
       29685000	      2967	800014c8	00738333	add	x6,x7,x7	  x7:0xfffffc8e  x7:0xfffffc8e  x6=0xfffff91c
       29695000	      2968	800014cc	00c000ef	jal	x1,800014cc	  x1=0x800014cc
       29705000	      2969	00000000	00000013	addi	x0,x0,0	  x0:0x00000000
       29715000	      2970	800014d4	00000013	addi	x0,x0,0	  x0:0x00000000
       29725000	      2971	800014d8	008000ef	jal	x1,800014d8	  x1=0x800014d8
       29735000	      2972	00000000	00000013	addi	x0,x0,0	  x0:0x00000000
       29745000	      2973	800014dc	00000013	addi	x0,x0,0	  x0:0x00000000
       29755000	      2974	800014e0	010000ef	jal	x1,800014e0	  x1=0x800014e0
       29765000	      2975	00000000	00000013	addi	x0,x0,0	  x0:0x00000000
       29775000	      2976	800014ec	00000013	addi	x0,x0,0	  x0:0x00000000
       29785000	      2977	800014f0	030000ef	jal	x1,800014f0	  x1=0x800014f0
       29795000	      2978	00000000	00000013	addi	x0,x0,0	  x0:0x00000000
       29805000	      2979	8000151c	00000013	addi	x0,x0,0	  x0:0x00000000
       29815000	      2980	80001520	fcdff0ef	jal	x1,80001520	  x1=0x80001520
       29825000	      2981	00000000	00000013	addi	x0,x0,0	  x0:0x00000000
       29835000	      2982	800014e8	00000013	addi	x0,x0,0	  x0:0x00000000
       29845000	      2983	800014ec	02c000ef	jal	x1,800014ec	  x1=0x800014ec
       29855000	      2984	00000000	00000013	addi	x0,x0,0	  x0:0x00000000
       29865000	      2985	80001514	00000013	addi	x0,x0,0	  x0:0x00000000
       29875000	      2986	80001518	004000ef	jal	x1,80001518	  x1=0x80001518
       29885000	      2987	00000000	00000013	addi	x0,x0,0	  x0:0x00000000
       29895000	      2988	80001518	00000013	addi	x0,x0,0	  x0:0x00000000
       29905000	      2989	8000151c	00c001ef	jal	x3,8000151c	  x3=0x8000151c
       29915000	      2990	00000000	00000013	addi	x0,x0,0	  x0:0x00000000
       29925000	      2991	80001524	00000013	addi	x0,x0,0	  x0:0x00000000
       29935000	      2992	80001528	fe5ff0ef	jal	x1,80001528	  x1=0x80001528
       29945000	      2993	00000000	00000013	addi	x0,x0,0	  x0:0x00000000
       29955000	      2994	80001508	00000013	addi	x0,x0,0	  x0:0x00000000
       29965000	      2995	8000150c	ff9ff0ef	jal	x1,8000150c	  x1=0x8000150c
       29975000	      2996	00000000	00000013	addi	x0,x0,0	  x0:0x00000000
       29985000	      2997	80001500	00000013	addi	x0,x0,0	  x0:0x00000000
       29995000	      2998	80001504	ff5ff0ef	jal	x1,80001504	  x1=0x80001504
       30005000	      2999	00000000	00000013	addi	x0,x0,0	  x0:0x00000000
       30015000	      3000	800014f4	00000013	addi	x0,x0,0	  x0:0x00000000
       30025000	      3001	800014f8	01c000ef	jal	x1,800014f8	  x1=0x800014f8
       30035000	      3002	00000000	00000013	addi	x0,x0,0	  x0:0x00000000
       30045000	      3003	80001510	00000013	addi	x0,x0,0	  x0:0x00000000
       30055000	      3004	80001514	ffdff0ef	jal	x1,80001514	  x1=0x80001514
       30065000	      3005	00000000	00000013	addi	x0,x0,0	  x0:0x00000000
       30075000	      3006	8000150c	00000013	addi	x0,x0,0	  x0:0x00000000
       30085000	      3007	80001510	01c005ef	jal	x11,80001510	 x11=0x80001510
       30095000	      3008	00000000	00000013	addi	x0,x0,0	  x0:0x00000000
       30105000	      3009	80001528	00000013	addi	x0,x0,0	  x0:0x00000000
       30115000	      3010	8000152c	fc9ff0ef	jal	x1,8000152c	  x1=0x8000152c
       30125000	      3011	00000000	00000013	addi	x0,x0,0	  x0:0x00000000
       30135000	      3012	800014f0	00000013	addi	x0,x0,0	  x0:0x00000000
       30145000	      3013	800014f4	008005ef	jal	x11,800014f4	 x11=0x800014f4
       30155000	      3014	00000000	00000013	addi	x0,x0,0	  x0:0x00000000
       30165000	      3015	800014f8	00000013	addi	x0,x0,0	  x0:0x00000000
       30175000	      3016	800014fc	00c000ef	jal	x1,800014fc	  x1=0x800014fc
       30185000	      3017	00000000	00000013	addi	x0,x0,0	  x0:0x00000000
       30195000	      3018	80001504	00000013	addi	x0,x0,0	  x0:0x00000000
       30205000	      3019	80001508	fd5ff0ef	jal	x1,80001508	  x1=0x80001508
       30215000	      3020	00000000	00000013	addi	x0,x0,0	  x0:0x00000000
       30225000	      3021	800014d8	00000013	addi	x0,x0,0	  x0:0x00000000
       30235000	      3022	800014dc	ff5ff1ef	jal	x3,800014dc	  x3=0x800014dc
       30245000	      3023	00000000	00000013	addi	x0,x0,0	  x0:0x00000000
       30255000	      3024	800014cc	00000013	addi	x0,x0,0	  x0:0x00000000
       30265000	      3025	800014d0	030000ef	jal	x1,800014d0	  x1=0x800014d0
       30275000	      3026	00000000	00000013	addi	x0,x0,0	  x0:0x00000000
       30285000	      3027	800014fc	00000013	addi	x0,x0,0	  x0:0x00000000
       30295000	      3028	80001500	fe9ff36f	jal	x6,80001500	  x6=0x80001500
       30305000	      3029	00000000	00000013	addi	x0,x0,0	  x0:0x00000000
       30315000	      3030	800014e4	00000013	addi	x0,x0,0	  x0:0x00000000
       30325000	      3031	800014e8	fedff2ef	jal	x5,800014e8	  x5=0x800014e8
       30335000	      3032	00000000	00000013	addi	x0,x0,0	  x0:0x00000000
       30345000	      3033	800014d0	00000013	addi	x0,x0,0	  x0:0x00000000
       30355000	      3034	800014d4	01000e6f	jal	x28,800014d4	 x28=0x800014d4
       30365000	      3035	00000000	00000013	addi	x0,x0,0	  x0:0x00000000
       30375000	      3036	800014e0	00000013	addi	x0,x0,0	  x0:0x00000000
       30385000	      3037	800014e4	0400036f	jal	x6,800014e4	  x6=0x800014e4
       30395000	      3038	00000000	00000013	addi	x0,x0,0	  x0:0x00000000
       30405000	      3039	80001520	00000013	addi	x0,x0,0	  x0:0x00000000
       30415000	      3040	80001524	00c000ef	jal	x1,80001524	  x1=0x80001524
       30425000	      3041	00000000	00000013	addi	x0,x0,0	  x0:0x00000000
       30435000	      3042	8000152c	00000013	addi	x0,x0,0	  x0:0x00000000
       30445000	      3043	80001530	01bb5113	srli	x2,x22,0x1b	 x22:0x8000149c  x2=0x00000010
       30455000	      3044	80001534	05c000ef	jal	x1,80001534	  x1=0x80001534
       30465000	      3045	00000000	00000013	addi	x0,x0,0	  x0:0x00000000
       30475000	      3046	8000158c	00000013	addi	x0,x0,0	  x0:0x00000000
       30485000	      3047	80001590	ff5ffeef	jal	x29,80001590	 x29=0x80001590
       30495000	      3048	00000000	00000013	addi	x0,x0,0	  x0:0x00000000
       30505000	      3049	80001580	00000013	addi	x0,x0,0	  x0:0x00000000
       30515000	      3050	80001584	fddff36f	jal	x6,80001584	  x6=0x80001584
       30525000	      3051	00000000	00000013	addi	x0,x0,0	  x0:0x00000000
       30535000	      3052	8000155c	00000013	addi	x0,x0,0	  x0:0x00000000
       30545000	      3053	80001560	ff1ff0ef	jal	x1,80001560	  x1=0x80001560
       30555000	      3054	00000000	00000013	addi	x0,x0,0	  x0:0x00000000
       30565000	      3055	8000154c	00000013	addi	x0,x0,0	  x0:0x00000000
       30575000	      3056	80001550	024000ef	jal	x1,80001550	  x1=0x80001550
       30585000	      3057	00000000	00000013	addi	x0,x0,0	  x0:0x00000000
       30595000	      3058	80001570	00000013	addi	x0,x0,0	  x0:0x00000000
       30605000	      3059	80001574	014000ef	jal	x1,80001574	  x1=0x80001574
       30615000	      3060	00000000	00000013	addi	x0,x0,0	  x0:0x00000000
       30625000	      3061	80001584	00000013	addi	x0,x0,0	  x0:0x00000000
       30635000	      3062	80001588	fc1ff0ef	jal	x1,80001588	  x1=0x80001588
       30645000	      3063	00000000	00000013	addi	x0,x0,0	  x0:0x00000000
       30655000	      3064	80001544	00000013	addi	x0,x0,0	  x0:0x00000000
       30665000	      3065	80001548	00400a6f	jal	x20,80001548	 x20=0x80001548
       30675000	      3066	00000000	00000013	addi	x0,x0,0	  x0:0x00000000
       30685000	      3067	80001548	00000013	addi	x0,x0,0	  x0:0x00000000
       30695000	      3068	8000154c	024006ef	jal	x13,8000154c	 x13=0x8000154c
       30705000	      3069	00000000	00000013	addi	x0,x0,0	  x0:0x00000000
       30715000	      3070	8000156c	00000013	addi	x0,x0,0	  x0:0x00000000
       30725000	      3071	80001570	fd1ff0ef	jal	x1,80001570	  x1=0x80001570
       30735000	      3072	00000000	00000013	addi	x0,x0,0	  x0:0x00000000
       30745000	      3073	8000153c	00000013	addi	x0,x0,0	  x0:0x00000000
       30755000	      3074	80001540	028004ef	jal	x9,80001540	  x9=0x80001540
       30765000	      3075	00000000	00000013	addi	x0,x0,0	  x0:0x00000000
       30775000	      3076	80001564	00000013	addi	x0,x0,0	  x0:0x00000000
       30785000	      3077	80001568	fd1ffc6f	jal	x24,80001568	 x24=0x80001568
       30795000	      3078	00000000	00000013	addi	x0,x0,0	  x0:0x00000000
       30805000	      3079	80001534	00000013	addi	x0,x0,0	  x0:0x00000000
       30815000	      3080	80001538	0440036f	jal	x6,80001538	  x6=0x80001538
       30825000	      3081	00000000	00000013	addi	x0,x0,0	  x0:0x00000000
       30835000	      3082	80001578	00000013	addi	x0,x0,0	  x0:0x00000000
       30845000	      3083	8000157c	fd9ff0ef	jal	x1,8000157c	  x1=0x8000157c
       30855000	      3084	00000000	00000013	addi	x0,x0,0	  x0:0x00000000
       30865000	      3085	80001550	00000013	addi	x0,x0,0	  x0:0x00000000
       30875000	      3086	80001554	02c000ef	jal	x1,80001554	  x1=0x80001554
       30885000	      3087	00000000	00000013	addi	x0,x0,0	  x0:0x00000000
       30895000	      3088	8000157c	00000013	addi	x0,x0,0	  x0:0x00000000
       30905000	      3089	80001580	fddff9ef	jal	x19,80001580	 x19=0x80001580
       30915000	      3090	00000000	00000013	addi	x0,x0,0	  x0:0x00000000
       30925000	      3091	80001558	00000013	addi	x0,x0,0	  x0:0x00000000
       30935000	      3092	8000155c	008000ef	jal	x1,8000155c	  x1=0x8000155c
       30945000	      3093	00000000	00000013	addi	x0,x0,0	  x0:0x00000000
       30955000	      3094	80001560	00000013	addi	x0,x0,0	  x0:0x00000000
       30965000	      3095	80001564	028000ef	jal	x1,80001564	  x1=0x80001564
       30975000	      3096	00000000	00000013	addi	x0,x0,0	  x0:0x00000000
       30985000	      3097	80001588	00000013	addi	x0,x0,0	  x0:0x00000000
       30995000	      3098	8000158c	fcdff2ef	jal	x5,8000158c	  x5=0x8000158c
       31005000	      3099	00000000	00000013	addi	x0,x0,0	  x0:0x00000000
       31015000	      3100	80001554	00000013	addi	x0,x0,0	  x0:0x00000000
       31025000	      3101	80001558	fedff0ef	jal	x1,80001558	  x1=0x80001558
       31035000	      3102	00000000	00000013	addi	x0,x0,0	  x0:0x00000000
       31045000	      3103	80001540	00000013	addi	x0,x0,0	  x0:0x00000000
       31055000	      3104	80001544	028000ef	jal	x1,80001544	  x1=0x80001544
       31065000	      3105	00000000	00000013	addi	x0,x0,0	  x0:0x00000000
       31075000	      3106	80001568	00000013	addi	x0,x0,0	  x0:0x00000000
       31085000	      3107	8000156c	00c000ef	jal	x1,8000156c	  x1=0x8000156c
       31095000	      3108	00000000	00000013	addi	x0,x0,0	  x0:0x00000000
       31105000	      3109	80001574	00000013	addi	x0,x0,0	  x0:0x00000000
       31115000	      3110	80001578	fc5ffd6f	jal	x26,80001578	 x26=0x80001578
       31125000	      3111	00000000	00000013	addi	x0,x0,0	  x0:0x00000000
       31135000	      3112	80001538	00000013	addi	x0,x0,0	  x0:0x00000000
       31145000	      3113	8000153c	058009ef	jal	x19,8000153c	 x19=0x8000153c
       31155000	      3114	00000000	00000013	addi	x0,x0,0	  x0:0x00000000
       31165000	      3115	80001590	00000013	addi	x0,x0,0	  x0:0x00000000
       31175000	      3116	80001594	01e16f33	or	x30,x2,x30	  x2:0x00000010 x30:0xfe088eed x30=0xfe088efd
       31185000	      3117	80001598	024000ef	jal	x1,80001598	  x1=0x80001598
       31195000	      3118	00000000	00000013	addi	x0,x0,0	  x0:0x00000000
       31205000	      3119	800015b8	00000013	addi	x0,x0,0	  x0:0x00000000
       31215000	      3120	800015bc	fe1ff0ef	jal	x1,800015bc	  x1=0x800015bc
       31225000	      3121	00000000	00000013	addi	x0,x0,0	  x0:0x00000000
       31235000	      3122	80001598	00000013	addi	x0,x0,0	  x0:0x00000000
       31245000	      3123	8000159c	02c000ef	jal	x1,8000159c	  x1=0x8000159c
       31255000	      3124	00000000	00000013	addi	x0,x0,0	  x0:0x00000000
       31265000	      3125	800015c4	00000013	addi	x0,x0,0	  x0:0x00000000
       31275000	      3126	800015c8	ff9ff0ef	jal	x1,800015c8	  x1=0x800015c8
       31285000	      3127	00000000	00000013	addi	x0,x0,0	  x0:0x00000000
       31295000	      3128	800015bc	00000013	addi	x0,x0,0	  x0:0x00000000
       31305000	      3129	800015c0	fe1ffb6f	jal	x22,800015c0	 x22=0x800015c0
       31315000	      3130	00000000	00000013	addi	x0,x0,0	  x0:0x00000000
       31325000	      3131	8000159c	00000013	addi	x0,x0,0	  x0:0x00000000
       31335000	      3132	800015a0	0180036f	jal	x6,800015a0	  x6=0x800015a0
       31345000	      3133	00000000	00000013	addi	x0,x0,0	  x0:0x00000000
       31355000	      3134	800015b4	00000013	addi	x0,x0,0	  x0:0x00000000
       31365000	      3135	800015b8	ffdff36f	jal	x6,800015b8	  x6=0x800015b8
       31375000	      3136	00000000	00000013	addi	x0,x0,0	  x0:0x00000000
       31385000	      3137	800015b0	00000013	addi	x0,x0,0	  x0:0x00000000
       31395000	      3138	800015b4	0100036f	jal	x6,800015b4	  x6=0x800015b4
       31405000	      3139	00000000	00000013	addi	x0,x0,0	  x0:0x00000000
       31415000	      3140	800015c0	00000013	addi	x0,x0,0	  x0:0x00000000
       31425000	      3141	800015c4	fedff36f	jal	x6,800015c4	  x6=0x800015c4
       31435000	      3142	00000000	00000013	addi	x0,x0,0	  x0:0x00000000
       31445000	      3143	800015ac	00000013	addi	x0,x0,0	  x0:0x00000000
       31455000	      3144	800015b0	ffdff0ef	jal	x1,800015b0	  x1=0x800015b0
       31465000	      3145	00000000	00000013	addi	x0,x0,0	  x0:0x00000000
       31475000	      3146	800015a8	00000013	addi	x0,x0,0	  x0:0x00000000
       31485000	      3147	800015ac	ffdff0ef	jal	x1,800015ac	  x1=0x800015ac
       31495000	      3148	00000000	00000013	addi	x0,x0,0	  x0:0x00000000
       31505000	      3149	800015a4	00000013	addi	x0,x0,0	  x0:0x00000000
       31515000	      3150	800015a8	ffdff0ef	jal	x1,800015a8	  x1=0x800015a8
       31525000	      3151	00000000	00000013	addi	x0,x0,0	  x0:0x00000000
       31535000	      3152	800015a0	00000013	addi	x0,x0,0	  x0:0x00000000
       31545000	      3153	800015a4	028000ef	jal	x1,800015a4	  x1=0x800015a4
       31555000	      3154	00000000	00000013	addi	x0,x0,0	  x0:0x00000000
       31565000	      3155	800015c8	00000013	addi	x0,x0,0	  x0:0x00000000
       31575000	      3156	800015cc	008a7613	andi	x12,x20,8	 x20:0x80001548 x12=0x00000008
       31585000	      3157	800015d0	048000ef	jal	x1,800015d0	  x1=0x800015d0
       31595000	      3158	00000000	00000013	addi	x0,x0,0	  x0:0x00000000
       31605000	      3159	80001614	00000013	addi	x0,x0,0	  x0:0x00000000
       31615000	      3160	80001618	fe1ff36f	jal	x6,80001618	  x6=0x80001618
       31625000	      3161	00000000	00000013	addi	x0,x0,0	  x0:0x00000000
       31635000	      3162	800015f4	00000013	addi	x0,x0,0	  x0:0x00000000
       31645000	      3163	800015f8	fe9ffc6f	jal	x24,800015f8	 x24=0x800015f8
       31655000	      3164	00000000	00000013	addi	x0,x0,0	  x0:0x00000000
       31665000	      3165	800015dc	00000013	addi	x0,x0,0	  x0:0x00000000
       31675000	      3166	800015e0	0340046f	jal	x8,800015e0	  x8=0x800015e0
       31685000	      3167	00000000	00000013	addi	x0,x0,0	  x0:0x00000000
       31695000	      3168	80001610	00000013	addi	x0,x0,0	  x0:0x00000000
       31705000	      3169	80001614	fddff36f	jal	x6,80001614	  x6=0x80001614
       31715000	      3170	00000000	00000013	addi	x0,x0,0	  x0:0x00000000
       31725000	      3171	800015ec	00000013	addi	x0,x0,0	  x0:0x00000000
       31735000	      3172	800015f0	01c000ef	jal	x1,800015f0	  x1=0x800015f0
       31745000	      3173	00000000	00000013	addi	x0,x0,0	  x0:0x00000000
       31755000	      3174	80001608	00000013	addi	x0,x0,0	  x0:0x00000000
       31765000	      3175	8000160c	fd1ff26f	jal	x4,8000160c	  x4=0x8000160c
       31775000	      3176	00000000	00000013	addi	x0,x0,0	  x0:0x00000000
       31785000	      3177	800015d8	00000013	addi	x0,x0,0	  x0:0x00000000
       31795000	      3178	800015dc	010000ef	jal	x1,800015dc	  x1=0x800015dc
       31805000	      3179	00000000	00000013	addi	x0,x0,0	  x0:0x00000000
       31815000	      3180	800015e8	00000013	addi	x0,x0,0	  x0:0x00000000
       31825000	      3181	800015ec	034000ef	jal	x1,800015ec	  x1=0x800015ec
       31835000	      3182	00000000	00000013	addi	x0,x0,0	  x0:0x00000000
       31845000	      3183	8000161c	00000013	addi	x0,x0,0	  x0:0x00000000
       31855000	      3184	80001620	ff1ff0ef	jal	x1,80001620	  x1=0x80001620
       31865000	      3185	00000000	00000013	addi	x0,x0,0	  x0:0x00000000
       31875000	      3186	8000160c	00000013	addi	x0,x0,0	  x0:0x00000000
       31885000	      3187	80001610	fd5ff0ef	jal	x1,80001610	  x1=0x80001610
       31895000	      3188	00000000	00000013	addi	x0,x0,0	  x0:0x00000000
       31905000	      3189	800015e0	00000013	addi	x0,x0,0	  x0:0x00000000
       31915000	      3190	800015e4	01c000ef	jal	x1,800015e4	  x1=0x800015e4
       31925000	      3191	00000000	00000013	addi	x0,x0,0	  x0:0x00000000
       31935000	      3192	800015fc	00000013	addi	x0,x0,0	  x0:0x00000000
       31945000	      3193	80001600	00400a6f	jal	x20,80001600	 x20=0x80001600
       31955000	      3194	00000000	00000013	addi	x0,x0,0	  x0:0x00000000
       31965000	      3195	80001600	00000013	addi	x0,x0,0	  x0:0x00000000
       31975000	      3196	80001604	0180036f	jal	x6,80001604	  x6=0x80001604
       31985000	      3197	00000000	00000013	addi	x0,x0,0	  x0:0x00000000
       31995000	      3198	80001618	00000013	addi	x0,x0,0	  x0:0x00000000
       32005000	      3199	8000161c	fedff0ef	jal	x1,8000161c	  x1=0x8000161c
       32015000	      3200	00000000	00000013	addi	x0,x0,0	  x0:0x00000000
       32025000	      3201	80001604	00000013	addi	x0,x0,0	  x0:0x00000000
       32035000	      3202	80001608	fedff0ef	jal	x1,80001608	  x1=0x80001608
       32045000	      3203	00000000	00000013	addi	x0,x0,0	  x0:0x00000000
       32055000	      3204	800015f0	00000013	addi	x0,x0,0	  x0:0x00000000
       32065000	      3205	800015f4	ff5ff36f	jal	x6,800015f4	  x6=0x800015f4
       32075000	      3206	00000000	00000013	addi	x0,x0,0	  x0:0x00000000
       32085000	      3207	800015e4	00000013	addi	x0,x0,0	  x0:0x00000000
       32095000	      3208	800015e8	ff1ff26f	jal	x4,800015e8	  x4=0x800015e8
       32105000	      3209	00000000	00000013	addi	x0,x0,0	  x0:0x00000000
       32115000	      3210	800015d4	00000013	addi	x0,x0,0	  x0:0x00000000
       32125000	      3211	800015d8	ffdff0ef	jal	x1,800015d8	  x1=0x800015d8
       32135000	      3212	00000000	00000013	addi	x0,x0,0	  x0:0x00000000
       32145000	      3213	800015d0	00000013	addi	x0,x0,0	  x0:0x00000000
       32155000	      3214	800015d4	028000ef	jal	x1,800015d4	  x1=0x800015d4
       32165000	      3215	00000000	00000013	addi	x0,x0,0	  x0:0x00000000
       32175000	      3216	800015f8	00000013	addi	x0,x0,0	  x0:0x00000000
       32185000	      3217	800015fc	028000ef	jal	x1,800015fc	  x1=0x800015fc
       32195000	      3218	00000000	00000013	addi	x0,x0,0	  x0:0x00000000
       32205000	      3219	80001620	00000013	addi	x0,x0,0	  x0:0x00000000
       32215000	      3220	80001624	9cdfc113	xori	x2,x31,-1587	 x31:0x80000000  x2=0x7ffff9cd
       32225000	      3221	80001628	038000ef	jal	x1,80001628	  x1=0x80001628
       32235000	      3222	00000000	00000013	addi	x0,x0,0	  x0:0x00000000
       32245000	      3223	8000165c	00000013	addi	x0,x0,0	  x0:0x00000000
       32255000	      3224	80001660	fddff8ef	jal	x17,80001660	 x17=0x80001660
       32265000	      3225	00000000	00000013	addi	x0,x0,0	  x0:0x00000000
       32275000	      3226	80001638	00000013	addi	x0,x0,0	  x0:0x00000000
       32285000	      3227	8000163c	0180036f	jal	x6,8000163c	  x6=0x8000163c
       32295000	      3228	00000000	00000013	addi	x0,x0,0	  x0:0x00000000
       32305000	      3229	80001650	00000013	addi	x0,x0,0	  x0:0x00000000
       32315000	      3230	80001654	028000ef	jal	x1,80001654	  x1=0x80001654
       32325000	      3231	00000000	00000013	addi	x0,x0,0	  x0:0x00000000
       32335000	      3232	80001678	00000013	addi	x0,x0,0	  x0:0x00000000
       32345000	      3233	8000167c	ffdff26f	jal	x4,8000167c	  x4=0x8000167c
       32355000	      3234	00000000	00000013	addi	x0,x0,0	  x0:0x00000000
       32365000	      3235	80001674	00000013	addi	x0,x0,0	  x0:0x00000000
       32375000	      3236	80001678	ff5fff6f	jal	x30,80001678	 x30=0x80001678
       32385000	      3237	00000000	00000013	addi	x0,x0,0	  x0:0x00000000
       32395000	      3238	80001668	00000013	addi	x0,x0,0	  x0:0x00000000
       32405000	      3239	8000166c	fe1ff0ef	jal	x1,8000166c	  x1=0x8000166c
       32415000	      3240	00000000	00000013	addi	x0,x0,0	  x0:0x00000000
       32425000	      3241	80001648	00000013	addi	x0,x0,0	  x0:0x00000000
       32435000	      3242	8000164c	fe1ffbef	jal	x23,8000164c	 x23=0x8000164c
       32445000	      3243	00000000	00000013	addi	x0,x0,0	  x0:0x00000000
       32455000	      3244	80001628	00000013	addi	x0,x0,0	  x0:0x00000000
       32465000	      3245	8000162c	03c0036f	jal	x6,8000162c	  x6=0x8000162c
       32475000	      3246	00000000	00000013	addi	x0,x0,0	  x0:0x00000000
       32485000	      3247	80001664	00000013	addi	x0,x0,0	  x0:0x00000000
       32495000	      3248	80001668	00c008ef	jal	x17,80001668	 x17=0x80001668
       32505000	      3249	00000000	00000013	addi	x0,x0,0	  x0:0x00000000
       32515000	      3250	80001670	00000013	addi	x0,x0,0	  x0:0x00000000
       32525000	      3251	80001674	fbdff0ef	jal	x1,80001674	  x1=0x80001674
       32535000	      3252	00000000	00000013	addi	x0,x0,0	  x0:0x00000000
       32545000	      3253	8000162c	00000013	addi	x0,x0,0	  x0:0x00000000
       32555000	      3254	80001630	008000ef	jal	x1,80001630	  x1=0x80001630
       32565000	      3255	00000000	00000013	addi	x0,x0,0	  x0:0x00000000
       32575000	      3256	80001634	00000013	addi	x0,x0,0	  x0:0x00000000
       32585000	      3257	80001638	0180096f	jal	x18,80001638	 x18=0x80001638
       32595000	      3258	00000000	00000013	addi	x0,x0,0	  x0:0x00000000
       32605000	      3259	8000164c	00000013	addi	x0,x0,0	  x0:0x00000000
       32615000	      3260	80001650	0340036f	jal	x6,80001650	  x6=0x80001650
       32625000	      3261	00000000	00000013	addi	x0,x0,0	  x0:0x00000000
       32635000	      3262	80001680	00000013	addi	x0,x0,0	  x0:0x00000000
       32645000	      3263	80001684	ffdff0ef	jal	x1,80001684	  x1=0x80001684
       32655000	      3264	00000000	00000013	addi	x0,x0,0	  x0:0x00000000
       32665000	      3265	8000167c	00000013	addi	x0,x0,0	  x0:0x00000000
       32675000	      3266	80001680	fb5ff46f	jal	x8,80001680	  x8=0x80001680
       32685000	      3267	00000000	00000013	addi	x0,x0,0	  x0:0x00000000
       32695000	      3268	80001630	00000013	addi	x0,x0,0	  x0:0x00000000
       32705000	      3269	80001634	0300046f	jal	x8,80001634	  x8=0x80001634
       32715000	      3270	00000000	00000013	addi	x0,x0,0	  x0:0x00000000
       32725000	      3271	80001660	00000013	addi	x0,x0,0	  x0:0x00000000
       32735000	      3272	80001664	ff5ff0ef	jal	x1,80001664	  x1=0x80001664
       32745000	      3273	00000000	00000013	addi	x0,x0,0	  x0:0x00000000
       32755000	      3274	80001654	00000013	addi	x0,x0,0	  x0:0x00000000
       32765000	      3275	80001658	004000ef	jal	x1,80001658	  x1=0x80001658
       32775000	      3276	00000000	00000013	addi	x0,x0,0	  x0:0x00000000
       32785000	      3277	80001658	00000013	addi	x0,x0,0	  x0:0x00000000
       32795000	      3278	8000165c	fe5ff0ef	jal	x1,8000165c	  x1=0x8000165c
       32805000	      3279	00000000	00000013	addi	x0,x0,0	  x0:0x00000000
       32815000	      3280	8000163c	00000013	addi	x0,x0,0	  x0:0x00000000
       32825000	      3281	80001640	0300036f	jal	x6,80001640	  x6=0x80001640
       32835000	      3282	00000000	00000013	addi	x0,x0,0	  x0:0x00000000
       32845000	      3283	8000166c	00000013	addi	x0,x0,0	  x0:0x00000000
       32855000	      3284	80001670	fd5ff16f	jal	x2,80001670	  x2=0x80001670
       32865000	      3285	00000000	00000013	addi	x0,x0,0	  x0:0x00000000
       32875000	      3286	80001640	00000013	addi	x0,x0,0	  x0:0x00000000
       32885000	      3287	80001644	004000ef	jal	x1,80001644	  x1=0x80001644
       32895000	      3288	00000000	00000013	addi	x0,x0,0	  x0:0x00000000
       32905000	      3289	80001644	00000013	addi	x0,x0,0	  x0:0x00000000
       32915000	      3290	80001648	040004ef	jal	x9,80001648	  x9=0x80001648
       32925000	      3291	00000000	00000013	addi	x0,x0,0	  x0:0x00000000
       32935000	      3292	80001684	00000013	addi	x0,x0,0	  x0:0x00000000
       32945000	      3293	80001688	4082de13	srai	x28,x5,0x8	  x5:0x8000158c x28=0xff800015
       32955000	      3294	8000168c	028000ef	jal	x1,8000168c	  x1=0x8000168c
       32965000	      3295	00000000	00000013	addi	x0,x0,0	  x0:0x00000000
       32975000	      3296	800016b0	00000013	addi	x0,x0,0	  x0:0x00000000
       32985000	      3297	800016b4	fe1ff36f	jal	x6,800016b4	  x6=0x800016b4
       32995000	      3298	00000000	00000013	addi	x0,x0,0	  x0:0x00000000
       33005000	      3299	80001690	00000013	addi	x0,x0,0	  x0:0x00000000
       33015000	      3300	80001694	018006ef	jal	x13,80001694	 x13=0x80001694
       33025000	      3301	00000000	00000013	addi	x0,x0,0	  x0:0x00000000
       33035000	      3302	800016a8	00000013	addi	x0,x0,0	  x0:0x00000000
       33045000	      3303	800016ac	fe5ff0ef	jal	x1,800016ac	  x1=0x800016ac
       33055000	      3304	00000000	00000013	addi	x0,x0,0	  x0:0x00000000
       33065000	      3305	8000168c	00000013	addi	x0,x0,0	  x0:0x00000000
       33075000	      3306	80001690	0140026f	jal	x4,80001690	  x4=0x80001690
       33085000	      3307	00000000	00000013	addi	x0,x0,0	  x0:0x00000000
       33095000	      3308	800016a0	00000013	addi	x0,x0,0	  x0:0x00000000
       33105000	      3309	800016a4	0040036f	jal	x6,800016a4	  x6=0x800016a4
       33115000	      3310	00000000	00000013	addi	x0,x0,0	  x0:0x00000000
       33125000	      3311	800016a4	00000013	addi	x0,x0,0	  x0:0x00000000
       33135000	      3312	800016a8	01c000ef	jal	x1,800016a8	  x1=0x800016a8
       33145000	      3313	00000000	00000013	addi	x0,x0,0	  x0:0x00000000
       33155000	      3314	800016c0	00000013	addi	x0,x0,0	  x0:0x00000000
       33165000	      3315	800016c4	fd9ff2ef	jal	x5,800016c4	  x5=0x800016c4
       33175000	      3316	00000000	00000013	addi	x0,x0,0	  x0:0x00000000
       33185000	      3317	80001698	00000013	addi	x0,x0,0	  x0:0x00000000
       33195000	      3318	8000169c	02c0046f	jal	x8,8000169c	  x8=0x8000169c
       33205000	      3319	00000000	00000013	addi	x0,x0,0	  x0:0x00000000
       33215000	      3320	800016c4	00000013	addi	x0,x0,0	  x0:0x00000000
       33225000	      3321	800016c8	ff1ff36f	jal	x6,800016c8	  x6=0x800016c8
       33235000	      3322	00000000	00000013	addi	x0,x0,0	  x0:0x00000000
       33245000	      3323	800016b4	00000013	addi	x0,x0,0	  x0:0x00000000
       33255000	      3324	800016b8	004000ef	jal	x1,800016b8	  x1=0x800016b8
       33265000	      3325	00000000	00000013	addi	x0,x0,0	  x0:0x00000000
       33275000	      3326	800016b8	00000013	addi	x0,x0,0	  x0:0x00000000
       33285000	      3327	800016bc	fe5ff96f	jal	x18,800016bc	 x18=0x800016bc
       33295000	      3328	00000000	00000013	addi	x0,x0,0	  x0:0x00000000
       33305000	      3329	8000169c	00000013	addi	x0,x0,0	  x0:0x00000000
       33315000	      3330	800016a0	0200016f	jal	x2,800016a0	  x2=0x800016a0
       33325000	      3331	00000000	00000013	addi	x0,x0,0	  x0:0x00000000
       33335000	      3332	800016bc	00000013	addi	x0,x0,0	  x0:0x00000000
       33345000	      3333	800016c0	fd9ff6ef	jal	x13,800016c0	 x13=0x800016c0
       33355000	      3334	00000000	00000013	addi	x0,x0,0	  x0:0x00000000
       33365000	      3335	80001694	00000013	addi	x0,x0,0	  x0:0x00000000
       33375000	      3336	80001698	01800bef	jal	x23,80001698	 x23=0x80001698
       33385000	      3337	00000000	00000013	addi	x0,x0,0	  x0:0x00000000
       33395000	      3338	800016ac	00000013	addi	x0,x0,0	  x0:0x00000000
       33405000	      3339	800016b0	01c0036f	jal	x6,800016b0	  x6=0x800016b0
       33415000	      3340	00000000	00000013	addi	x0,x0,0	  x0:0x00000000
       33425000	      3341	800016c8	00000013	addi	x0,x0,0	  x0:0x00000000
       33435000	      3342	800016cc	00000013	addi	x0,x0,0	  x0:0x00000000
       33445000	      3343	800016d0	008000ef	jal	x1,800016d0	  x1=0x800016d0
       33455000	      3344	00000000	00000013	addi	x0,x0,0	  x0:0x00000000
       33465000	      3345	800016d4	00000013	addi	x0,x0,0	  x0:0x00000000
       33475000	      3346	800016d8	044000ef	jal	x1,800016d8	  x1=0x800016d8
       33485000	      3347	00000000	00000013	addi	x0,x0,0	  x0:0x00000000
       33495000	      3348	80001718	00000013	addi	x0,x0,0	  x0:0x00000000
       33505000	      3349	8000171c	fe1ff66f	jal	x12,8000171c	 x12=0x8000171c
       33515000	      3350	00000000	00000013	addi	x0,x0,0	  x0:0x00000000
       33525000	      3351	800016f8	00000013	addi	x0,x0,0	  x0:0x00000000
       33535000	      3352	800016fc	ffdff0ef	jal	x1,800016fc	  x1=0x800016fc
       33545000	      3353	00000000	00000013	addi	x0,x0,0	  x0:0x00000000
       33555000	      3354	800016f4	00000013	addi	x0,x0,0	  x0:0x00000000
       33565000	      3355	800016f8	00c007ef	jal	x15,800016f8	 x15=0x800016f8
       33575000	      3356	00000000	00000013	addi	x0,x0,0	  x0:0x00000000
       33585000	      3357	80001700	00000013	addi	x0,x0,0	  x0:0x00000000
       33595000	      3358	80001704	014000ef	jal	x1,80001704	  x1=0x80001704
       33605000	      3359	00000000	00000013	addi	x0,x0,0	  x0:0x00000000
       33615000	      3360	80001714	00000013	addi	x0,x0,0	  x0:0x00000000
       33625000	      3361	80001718	fcdffaef	jal	x21,80001718	 x21=0x80001718
       33635000	      3362	00000000	00000013	addi	x0,x0,0	  x0:0x00000000
       33645000	      3363	800016e0	00000013	addi	x0,x0,0	  x0:0x00000000
       33655000	      3364	800016e4	0100026f	jal	x4,800016e4	  x4=0x800016e4
       33665000	      3365	00000000	00000013	addi	x0,x0,0	  x0:0x00000000
       33675000	      3366	800016f0	00000013	addi	x0,x0,0	  x0:0x00000000
       33685000	      3367	800016f4	ffdff3ef	jal	x7,800016f4	  x7=0x800016f4
       33695000	      3368	00000000	00000013	addi	x0,x0,0	  x0:0x00000000
       33705000	      3369	800016ec	00000013	addi	x0,x0,0	  x0:0x00000000
       33715000	      3370	800016f0	fedff5ef	jal	x11,800016f0	 x11=0x800016f0
       33725000	      3371	00000000	00000013	addi	x0,x0,0	  x0:0x00000000
       33735000	      3372	800016d8	00000013	addi	x0,x0,0	  x0:0x00000000
       33745000	      3373	800016dc	ff9ff0ef	jal	x1,800016dc	  x1=0x800016dc
       33755000	      3374	00000000	00000013	addi	x0,x0,0	  x0:0x00000000
       33765000	      3375	800016d0	00000013	addi	x0,x0,0	  x0:0x00000000
       33775000	      3376	800016d4	038000ef	jal	x1,800016d4	  x1=0x800016d4
       33785000	      3377	00000000	00000013	addi	x0,x0,0	  x0:0x00000000
       33795000	      3378	80001708	00000013	addi	x0,x0,0	  x0:0x00000000
       33805000	      3379	8000170c	ffdff0ef	jal	x1,8000170c	  x1=0x8000170c
       33815000	      3380	00000000	00000013	addi	x0,x0,0	  x0:0x00000000
       33825000	      3381	80001704	00000013	addi	x0,x0,0	  x0:0x00000000
       33835000	      3382	80001708	00c0036f	jal	x6,80001708	  x6=0x80001708
       33845000	      3383	00000000	00000013	addi	x0,x0,0	  x0:0x00000000
       33855000	      3384	80001710	00000013	addi	x0,x0,0	  x0:0x00000000
       33865000	      3385	80001714	fcdff36f	jal	x6,80001714	  x6=0x80001714
       33875000	      3386	00000000	00000013	addi	x0,x0,0	  x0:0x00000000
       33885000	      3387	800016dc	00000013	addi	x0,x0,0	  x0:0x00000000
       33895000	      3388	800016e0	030000ef	jal	x1,800016e0	  x1=0x800016e0
       33905000	      3389	00000000	00000013	addi	x0,x0,0	  x0:0x00000000
       33915000	      3390	8000170c	00000013	addi	x0,x0,0	  x0:0x00000000
       33925000	      3391	80001710	ff1ff36f	jal	x6,80001710	  x6=0x80001710
       33935000	      3392	00000000	00000013	addi	x0,x0,0	  x0:0x00000000
       33945000	      3393	800016fc	00000013	addi	x0,x0,0	  x0:0x00000000
       33955000	      3394	80001700	fedff7ef	jal	x15,80001700	 x15=0x80001700
       33965000	      3395	00000000	00000013	addi	x0,x0,0	  x0:0x00000000
       33975000	      3396	800016e8	00000013	addi	x0,x0,0	  x0:0x00000000
       33985000	      3397	800016ec	ffdff0ef	jal	x1,800016ec	  x1=0x800016ec
       33995000	      3398	00000000	00000013	addi	x0,x0,0	  x0:0x00000000
       34005000	      3399	800016e4	00000013	addi	x0,x0,0	  x0:0x00000000
       34015000	      3400	800016e8	038000ef	jal	x1,800016e8	  x1=0x800016e8
       34025000	      3401	00000000	00000013	addi	x0,x0,0	  x0:0x00000000
       34035000	      3402	8000171c	00000013	addi	x0,x0,0	  x0:0x00000000
       34045000	      3403	80001720	53e07f13	andi	x30,x0,1342	  x0:0x00000000 x30=0x00000000
       34055000	      3404	80001724	004000ef	jal	x1,80001724	  x1=0x80001724
       34065000	      3405	00000000	00000013	addi	x0,x0,0	  x0:0x00000000
       34075000	      3406	80001724	00000013	addi	x0,x0,0	  x0:0x00000000
       34085000	      3407	80001728	0300036f	jal	x6,80001728	  x6=0x80001728
       34095000	      3408	00000000	00000013	addi	x0,x0,0	  x0:0x00000000
       34105000	      3409	80001754	00000013	addi	x0,x0,0	  x0:0x00000000
       34115000	      3410	80001758	008000ef	jal	x1,80001758	  x1=0x80001758
       34125000	      3411	00000000	00000013	addi	x0,x0,0	  x0:0x00000000
       34135000	      3412	8000175c	00000013	addi	x0,x0,0	  x0:0x00000000
       34145000	      3413	80001760	fcdffdef	jal	x27,80001760	 x27=0x80001760
       34155000	      3414	00000000	00000013	addi	x0,x0,0	  x0:0x00000000
       34165000	      3415	80001728	00000013	addi	x0,x0,0	  x0:0x00000000
       34175000	      3416	8000172c	038009ef	jal	x19,8000172c	 x19=0x8000172c
       34185000	      3417	00000000	00000013	addi	x0,x0,0	  x0:0x00000000
       34195000	      3418	80001760	00000013	addi	x0,x0,0	  x0:0x00000000
       34205000	      3419	80001764	fcdff36f	jal	x6,80001764	  x6=0x80001764
       34215000	      3420	00000000	00000013	addi	x0,x0,0	  x0:0x00000000
       34225000	      3421	8000172c	00000013	addi	x0,x0,0	  x0:0x00000000
       34235000	      3422	80001730	03c006ef	jal	x13,80001730	 x13=0x80001730
       34245000	      3423	00000000	00000013	addi	x0,x0,0	  x0:0x00000000
       34255000	      3424	80001768	00000013	addi	x0,x0,0	  x0:0x00000000
       34265000	      3425	8000176c	fe5ff0ef	jal	x1,8000176c	  x1=0x8000176c
       34275000	      3426	00000000	00000013	addi	x0,x0,0	  x0:0x00000000
       34285000	      3427	8000174c	00000013	addi	x0,x0,0	  x0:0x00000000
       34295000	      3428	80001750	00c00eef	jal	x29,80001750	 x29=0x80001750
       34305000	      3429	00000000	00000013	addi	x0,x0,0	  x0:0x00000000
       34315000	      3430	80001758	00000013	addi	x0,x0,0	  x0:0x00000000
       34325000	      3431	8000175c	fddff26f	jal	x4,8000175c	  x4=0x8000175c
       34335000	      3432	00000000	00000013	addi	x0,x0,0	  x0:0x00000000
       34345000	      3433	80001734	00000013	addi	x0,x0,0	  x0:0x00000000
       34355000	      3434	80001738	048002ef	jal	x5,80001738	  x5=0x80001738
       34365000	      3435	00000000	00000013	addi	x0,x0,0	  x0:0x00000000
       34375000	      3436	8000177c	00000013	addi	x0,x0,0	  x0:0x00000000
       34385000	      3437	80001780	ffdff0ef	jal	x1,80001780	  x1=0x80001780
       34395000	      3438	00000000	00000013	addi	x0,x0,0	  x0:0x00000000
       34405000	      3439	80001778	00000013	addi	x0,x0,0	  x0:0x00000000
       34415000	      3440	8000177c	fcdff0ef	jal	x1,8000177c	  x1=0x8000177c
       34425000	      3441	00000000	00000013	addi	x0,x0,0	  x0:0x00000000
       34435000	      3442	80001744	00000013	addi	x0,x0,0	  x0:0x00000000
       34445000	      3443	80001748	ff5ff4ef	jal	x9,80001748	  x9=0x80001748
       34455000	      3444	00000000	00000013	addi	x0,x0,0	  x0:0x00000000
       34465000	      3445	80001738	00000013	addi	x0,x0,0	  x0:0x00000000
       34475000	      3446	8000173c	02c000ef	jal	x1,8000173c	  x1=0x8000173c
       34485000	      3447	00000000	00000013	addi	x0,x0,0	  x0:0x00000000
       34495000	      3448	80001764	00000013	addi	x0,x0,0	  x0:0x00000000
       34505000	      3449	80001768	fe5ff36f	jal	x6,80001768	  x6=0x80001768
       34515000	      3450	00000000	00000013	addi	x0,x0,0	  x0:0x00000000
       34525000	      3451	80001748	00000013	addi	x0,x0,0	  x0:0x00000000
       34535000	      3452	8000174c	ff5ff0ef	jal	x1,8000174c	  x1=0x8000174c
       34545000	      3453	00000000	00000013	addi	x0,x0,0	  x0:0x00000000
       34555000	      3454	8000173c	00000013	addi	x0,x0,0	  x0:0x00000000
       34565000	      3455	80001740	ff5ff2ef	jal	x5,80001740	  x5=0x80001740
       34575000	      3456	00000000	00000013	addi	x0,x0,0	  x0:0x00000000
       34585000	      3457	80001730	00000013	addi	x0,x0,0	  x0:0x00000000
       34595000	      3458	80001734	03c000ef	jal	x1,80001734	  x1=0x80001734
       34605000	      3459	00000000	00000013	addi	x0,x0,0	  x0:0x00000000
       34615000	      3460	8000176c	00000013	addi	x0,x0,0	  x0:0x00000000
       34625000	      3461	80001770	fe5ff0ef	jal	x1,80001770	  x1=0x80001770
       34635000	      3462	00000000	00000013	addi	x0,x0,0	  x0:0x00000000
       34645000	      3463	80001750	00000013	addi	x0,x0,0	  x0:0x00000000
       34655000	      3464	80001754	02000bef	jal	x23,80001754	 x23=0x80001754
       34665000	      3465	00000000	00000013	addi	x0,x0,0	  x0:0x00000000
       34675000	      3466	80001770	00000013	addi	x0,x0,0	  x0:0x00000000
       34685000	      3467	80001774	004000ef	jal	x1,80001774	  x1=0x80001774
       34695000	      3468	00000000	00000013	addi	x0,x0,0	  x0:0x00000000
       34705000	      3469	80001774	00000013	addi	x0,x0,0	  x0:0x00000000
       34715000	      3470	80001778	fcdff0ef	jal	x1,80001778	  x1=0x80001778
       34725000	      3471	00000000	00000013	addi	x0,x0,0	  x0:0x00000000
       34735000	      3472	80001740	00000013	addi	x0,x0,0	  x0:0x00000000
       34745000	      3473	80001744	040000ef	jal	x1,80001744	  x1=0x80001744
       34755000	      3474	00000000	00000013	addi	x0,x0,0	  x0:0x00000000
       34765000	      3475	80001780	00000013	addi	x0,x0,0	  x0:0x00000000
       34775000	      3476	80001784	0057a4b3	slt	x9,x15,x5	 x15:0x80001700  x5:0x80001740  x9=0x00000001
       34785000	      3477	80001788	010000ef	jal	x1,80001788	  x1=0x80001788
       34795000	      3478	00000000	00000013	addi	x0,x0,0	  x0:0x00000000
       34805000	      3479	80001794	00000013	addi	x0,x0,0	  x0:0x00000000
       34815000	      3480	80001798	ffdfff6f	jal	x30,80001798	 x30=0x80001798
       34825000	      3481	00000000	00000013	addi	x0,x0,0	  x0:0x00000000
       34835000	      3482	80001790	00000013	addi	x0,x0,0	  x0:0x00000000
       34845000	      3483	80001794	ffdff4ef	jal	x9,80001794	  x9=0x80001794
       34855000	      3484	00000000	00000013	addi	x0,x0,0	  x0:0x00000000
       34865000	      3485	8000178c	00000013	addi	x0,x0,0	  x0:0x00000000
       34875000	      3486	80001790	01c0036f	jal	x6,80001790	  x6=0x80001790
       34885000	      3487	00000000	00000013	addi	x0,x0,0	  x0:0x00000000
       34895000	      3488	800017a8	00000013	addi	x0,x0,0	  x0:0x00000000
       34905000	      3489	800017ac	fe1ff0ef	jal	x1,800017ac	  x1=0x800017ac
       34915000	      3490	00000000	00000013	addi	x0,x0,0	  x0:0x00000000
       34925000	      3491	80001788	00000013	addi	x0,x0,0	  x0:0x00000000
       34935000	      3492	8000178c	010000ef	jal	x1,8000178c	  x1=0x8000178c
       34945000	      3493	00000000	00000013	addi	x0,x0,0	  x0:0x00000000
       34955000	      3494	80001798	00000013	addi	x0,x0,0	  x0:0x00000000
       34965000	      3495	8000179c	0040036f	jal	x6,8000179c	  x6=0x8000179c
       34975000	      3496	00000000	00000013	addi	x0,x0,0	  x0:0x00000000
       34985000	      3497	8000179c	00000013	addi	x0,x0,0	  x0:0x00000000
       34995000	      3498	800017a0	0100026f	jal	x4,800017a0	  x4=0x800017a0
       35005000	      3499	00000000	00000013	addi	x0,x0,0	  x0:0x00000000
       35015000	      3500	800017ac	00000013	addi	x0,x0,0	  x0:0x00000000
       35025000	      3501	800017b0	ff9ff0ef	jal	x1,800017b0	  x1=0x800017b0
       35035000	      3502	00000000	00000013	addi	x0,x0,0	  x0:0x00000000
       35045000	      3503	800017a4	00000013	addi	x0,x0,0	  x0:0x00000000
       35055000	      3504	800017a8	ffdff0ef	jal	x1,800017a8	  x1=0x800017a8
       35065000	      3505	00000000	00000013	addi	x0,x0,0	  x0:0x00000000
       35075000	      3506	800017a0	00000013	addi	x0,x0,0	  x0:0x00000000
       35085000	      3507	800017a4	0100036f	jal	x6,800017a4	  x6=0x800017a4
       35095000	      3508	00000000	00000013	addi	x0,x0,0	  x0:0x00000000
       35105000	      3509	800017b0	00000013	addi	x0,x0,0	  x0:0x00000000
       35115000	      3510	800017b4	698def13	ori	x30,x27,1688	 x27:0x80001760 x30=0x800017f8
       35125000	      3511	800017b8	050000ef	jal	x1,800017b8	  x1=0x800017b8
       35135000	      3512	00000000	00000013	addi	x0,x0,0	  x0:0x00000000
       35145000	      3513	80001804	00000013	addi	x0,x0,0	  x0:0x00000000
       35155000	      3514	80001808	fcdffd6f	jal	x26,80001808	 x26=0x80001808
       35165000	      3515	00000000	00000013	addi	x0,x0,0	  x0:0x00000000
       35175000	      3516	800017d0	00000013	addi	x0,x0,0	  x0:0x00000000
       35185000	      3517	800017d4	01c0036f	jal	x6,800017d4	  x6=0x800017d4
       35195000	      3518	00000000	00000013	addi	x0,x0,0	  x0:0x00000000
       35205000	      3519	800017ec	00000013	addi	x0,x0,0	  x0:0x00000000
       35215000	      3520	800017f0	ff5ff36f	jal	x6,800017f0	  x6=0x800017f0
       35225000	      3521	00000000	00000013	addi	x0,x0,0	  x0:0x00000000
       35235000	      3522	800017e0	00000013	addi	x0,x0,0	  x0:0x00000000
       35245000	      3523	800017e4	03c0026f	jal	x4,800017e4	  x4=0x800017e4
       35255000	      3524	00000000	00000013	addi	x0,x0,0	  x0:0x00000000
       35265000	      3525	8000181c	00000013	addi	x0,x0,0	  x0:0x00000000
       35275000	      3526	80001820	fcdff16f	jal	x2,80001820	  x2=0x80001820
       35285000	      3527	00000000	00000013	addi	x0,x0,0	  x0:0x00000000
       35295000	      3528	800017e8	00000013	addi	x0,x0,0	  x0:0x00000000
       35305000	      3529	800017ec	0380036f	jal	x6,800017ec	  x6=0x800017ec
       35315000	      3530	00000000	00000013	addi	x0,x0,0	  x0:0x00000000
       35325000	      3531	80001820	00000013	addi	x0,x0,0	  x0:0x00000000
       35335000	      3532	80001824	f9dff0ef	jal	x1,80001824	  x1=0x80001824
       35345000	      3533	00000000	00000013	addi	x0,x0,0	  x0:0x00000000
       35355000	      3534	800017bc	00000013	addi	x0,x0,0	  x0:0x00000000
       35365000	      3535	800017c0	0580036f	jal	x6,800017c0	  x6=0x800017c0
       35375000	      3536	00000000	00000013	addi	x0,x0,0	  x0:0x00000000
       35385000	      3537	80001814	00000013	addi	x0,x0,0	  x0:0x00000000
       35395000	      3538	80001818	fddff0ef	jal	x1,80001818	  x1=0x80001818
       35405000	      3539	00000000	00000013	addi	x0,x0,0	  x0:0x00000000
       35415000	      3540	800017f0	00000013	addi	x0,x0,0	  x0:0x00000000
       35425000	      3541	800017f4	fd5ffdef	jal	x27,800017f4	 x27=0x800017f4
       35435000	      3542	00000000	00000013	addi	x0,x0,0	  x0:0x00000000
       35445000	      3543	800017c4	00000013	addi	x0,x0,0	  x0:0x00000000
       35455000	      3544	800017c8	0540056f	jal	x10,800017c8	 x10=0x800017c8
       35465000	      3545	00000000	00000013	addi	x0,x0,0	  x0:0x00000000
       35475000	      3546	80001818	00000013	addi	x0,x0,0	  x0:0x00000000
       35485000	      3547	8000181c	fb5ff0ef	jal	x1,8000181c	  x1=0x8000181c
       35495000	      3548	00000000	00000013	addi	x0,x0,0	  x0:0x00000000
       35505000	      3549	800017cc	00000013	addi	x0,x0,0	  x0:0x00000000
       35515000	      3550	800017d0	040000ef	jal	x1,800017d0	  x1=0x800017d0
       35525000	      3551	00000000	00000013	addi	x0,x0,0	  x0:0x00000000
       35535000	      3552	8000180c	00000013	addi	x0,x0,0	  x0:0x00000000
       35545000	      3553	80001810	fedff36f	jal	x6,80001810	  x6=0x80001810
       35555000	      3554	00000000	00000013	addi	x0,x0,0	  x0:0x00000000
       35565000	      3555	800017f8	00000013	addi	x0,x0,0	  x0:0x00000000
       35575000	      3556	800017fc	fc1ff36f	jal	x6,800017fc	  x6=0x800017fc
       35585000	      3557	00000000	00000013	addi	x0,x0,0	  x0:0x00000000
       35595000	      3558	800017b8	00000013	addi	x0,x0,0	  x0:0x00000000
       35605000	      3559	800017bc	02c000ef	jal	x1,800017bc	  x1=0x800017bc
       35615000	      3560	00000000	00000013	addi	x0,x0,0	  x0:0x00000000
       35625000	      3561	800017e4	00000013	addi	x0,x0,0	  x0:0x00000000
       35635000	      3562	800017e8	02c000ef	jal	x1,800017e8	  x1=0x800017e8
       35645000	      3563	00000000	00000013	addi	x0,x0,0	  x0:0x00000000
       35655000	      3564	80001810	00000013	addi	x0,x0,0	  x0:0x00000000
       35665000	      3565	80001814	fedff36f	jal	x6,80001814	  x6=0x80001814
       35675000	      3566	00000000	00000013	addi	x0,x0,0	  x0:0x00000000
       35685000	      3567	800017fc	00000013	addi	x0,x0,0	  x0:0x00000000
       35695000	      3568	80001800	fcdff0ef	jal	x1,80001800	  x1=0x80001800
       35705000	      3569	00000000	00000013	addi	x0,x0,0	  x0:0x00000000
       35715000	      3570	800017c8	00000013	addi	x0,x0,0	  x0:0x00000000
       35725000	      3571	800017cc	0400036f	jal	x6,800017cc	  x6=0x800017cc
       35735000	      3572	00000000	00000013	addi	x0,x0,0	  x0:0x00000000
       35745000	      3573	80001808	00000013	addi	x0,x0,0	  x0:0x00000000
       35755000	      3574	8000180c	fedff36f	jal	x6,8000180c	  x6=0x8000180c
       35765000	      3575	00000000	00000013	addi	x0,x0,0	  x0:0x00000000
       35775000	      3576	800017f4	00000013	addi	x0,x0,0	  x0:0x00000000
       35785000	      3577	800017f8	fe5ff0ef	jal	x1,800017f8	  x1=0x800017f8
       35795000	      3578	00000000	00000013	addi	x0,x0,0	  x0:0x00000000
       35805000	      3579	800017d8	00000013	addi	x0,x0,0	  x0:0x00000000
       35815000	      3580	800017dc	ffdff36f	jal	x6,800017dc	  x6=0x800017dc
       35825000	      3581	00000000	00000013	addi	x0,x0,0	  x0:0x00000000
       35835000	      3582	800017d4	00000013	addi	x0,x0,0	  x0:0x00000000
       35845000	      3583	800017d8	0080016f	jal	x2,800017d8	  x2=0x800017d8
       35855000	      3584	00000000	00000013	addi	x0,x0,0	  x0:0x00000000
       35865000	      3585	800017dc	00000013	addi	x0,x0,0	  x0:0x00000000
       35875000	      3586	800017e0	fe5ff0ef	jal	x1,800017e0	  x1=0x800017e0
       35885000	      3587	00000000	00000013	addi	x0,x0,0	  x0:0x00000000
       35895000	      3588	800017c0	00000013	addi	x0,x0,0	  x0:0x00000000
       35905000	      3589	800017c4	040000ef	jal	x1,800017c4	  x1=0x800017c4
       35915000	      3590	00000000	00000013	addi	x0,x0,0	  x0:0x00000000
       35925000	      3591	80001800	00000013	addi	x0,x0,0	  x0:0x00000000
       35935000	      3592	80001804	024009ef	jal	x19,80001804	 x19=0x80001804
       35945000	      3593	00000000	00000013	addi	x0,x0,0	  x0:0x00000000
       35955000	      3594	80001824	00000013	addi	x0,x0,0	  x0:0x00000000
       35965000	      3595	80001828	9d3d0913	addi	x18,x26,-1581	 x26:0x80001808 x18=0x800011db
       35975000	      3596	8000182c	030000ef	jal	x1,8000182c	  x1=0x8000182c
       35985000	      3597	00000000	00000013	addi	x0,x0,0	  x0:0x00000000
       35995000	      3598	80001858	00000013	addi	x0,x0,0	  x0:0x00000000
       36005000	      3599	8000185c	ff9ff0ef	jal	x1,8000185c	  x1=0x8000185c
       36015000	      3600	00000000	00000013	addi	x0,x0,0	  x0:0x00000000
       36025000	      3601	80001850	00000013	addi	x0,x0,0	  x0:0x00000000
       36035000	      3602	80001854	fe1ff0ef	jal	x1,80001854	  x1=0x80001854
       36045000	      3603	00000000	00000013	addi	x0,x0,0	  x0:0x00000000
       36055000	      3604	80001830	00000013	addi	x0,x0,0	  x0:0x00000000
       36065000	      3605	80001834	01c001ef	jal	x3,80001834	  x3=0x80001834
       36075000	      3606	00000000	00000013	addi	x0,x0,0	  x0:0x00000000
       36085000	      3607	8000184c	00000013	addi	x0,x0,0	  x0:0x00000000
       36095000	      3608	80001850	ffdff36f	jal	x6,80001850	  x6=0x80001850
       36105000	      3609	00000000	00000013	addi	x0,x0,0	  x0:0x00000000
       36115000	      3610	80001848	00000013	addi	x0,x0,0	  x0:0x00000000
       36125000	      3611	8000184c	00c000ef	jal	x1,8000184c	  x1=0x8000184c
       36135000	      3612	00000000	00000013	addi	x0,x0,0	  x0:0x00000000
       36145000	      3613	80001854	00000013	addi	x0,x0,0	  x0:0x00000000
       36155000	      3614	80001858	0080036f	jal	x6,80001858	  x6=0x80001858
       36165000	      3615	00000000	00000013	addi	x0,x0,0	  x0:0x00000000
       36175000	      3616	8000185c	00000013	addi	x0,x0,0	  x0:0x00000000
       36185000	      3617	80001860	fe1ff0ef	jal	x1,80001860	  x1=0x80001860
       36195000	      3618	00000000	00000013	addi	x0,x0,0	  x0:0x00000000
       36205000	      3619	8000183c	00000013	addi	x0,x0,0	  x0:0x00000000
       36215000	      3620	80001840	0240036f	jal	x6,80001840	  x6=0x80001840
       36225000	      3621	00000000	00000013	addi	x0,x0,0	  x0:0x00000000
       36235000	      3622	80001860	00000013	addi	x0,x0,0	  x0:0x00000000
       36245000	      3623	80001864	fd5ff0ef	jal	x1,80001864	  x1=0x80001864
       36255000	      3624	00000000	00000013	addi	x0,x0,0	  x0:0x00000000
       36265000	      3625	80001834	00000013	addi	x0,x0,0	  x0:0x00000000
       36275000	      3626	80001838	ff9ff9ef	jal	x19,80001838	 x19=0x80001838
       36285000	      3627	00000000	00000013	addi	x0,x0,0	  x0:0x00000000
       36295000	      3628	8000182c	00000013	addi	x0,x0,0	  x0:0x00000000
       36305000	      3629	80001830	018002ef	jal	x5,80001830	  x5=0x80001830
       36315000	      3630	00000000	00000013	addi	x0,x0,0	  x0:0x00000000
       36325000	      3631	80001844	00000013	addi	x0,x0,0	  x0:0x00000000
       36335000	      3632	80001848	0200056f	jal	x10,80001848	 x10=0x80001848
       36345000	      3633	00000000	00000013	addi	x0,x0,0	  x0:0x00000000
       36355000	      3634	80001864	00000013	addi	x0,x0,0	  x0:0x00000000
       36365000	      3635	80001868	fd5ff0ef	jal	x1,80001868	  x1=0x80001868
       36375000	      3636	00000000	00000013	addi	x0,x0,0	  x0:0x00000000
       36385000	      3637	80001838	00000013	addi	x0,x0,0	  x0:0x00000000
       36395000	      3638	8000183c	008000ef	jal	x1,8000183c	  x1=0x8000183c
       36405000	      3639	00000000	00000013	addi	x0,x0,0	  x0:0x00000000
       36415000	      3640	80001840	00000013	addi	x0,x0,0	  x0:0x00000000
       36425000	      3641	80001844	028000ef	jal	x1,80001844	  x1=0x80001844
       36435000	      3642	00000000	00000013	addi	x0,x0,0	  x0:0x00000000
       36445000	      3643	80001868	00000013	addi	x0,x0,0	  x0:0x00000000
       36455000	      3644	8000186c	40d75393	srai	x7,x14,0xd	 x14:0x00000000  x7=0x00000000
       36465000	      3645	80001870	01c000ef	jal	x1,80001870	  x1=0x80001870
       36475000	      3646	00000000	00000013	addi	x0,x0,0	  x0:0x00000000
       36485000	      3647	80001888	00000013	addi	x0,x0,0	  x0:0x00000000
       36495000	      3648	8000188c	ff5ff0ef	jal	x1,8000188c	  x1=0x8000188c
       36505000	      3649	00000000	00000013	addi	x0,x0,0	  x0:0x00000000
       36515000	      3650	8000187c	00000013	addi	x0,x0,0	  x0:0x00000000
       36525000	      3651	80001880	01c004ef	jal	x9,80001880	  x9=0x80001880
       36535000	      3652	00000000	00000013	addi	x0,x0,0	  x0:0x00000000
       36545000	      3653	80001898	00000013	addi	x0,x0,0	  x0:0x00000000
       36555000	      3654	8000189c	fddff0ef	jal	x1,8000189c	  x1=0x8000189c
       36565000	      3655	00000000	00000013	addi	x0,x0,0	  x0:0x00000000
       36575000	      3656	80001874	00000013	addi	x0,x0,0	  x0:0x00000000
       36585000	      3657	80001878	018009ef	jal	x19,80001878	 x19=0x80001878
       36595000	      3658	00000000	00000013	addi	x0,x0,0	  x0:0x00000000
       36605000	      3659	8000188c	00000013	addi	x0,x0,0	  x0:0x00000000
       36615000	      3660	80001890	ff9ff0ef	jal	x1,80001890	  x1=0x80001890
       36625000	      3661	00000000	00000013	addi	x0,x0,0	  x0:0x00000000
       36635000	      3662	80001884	00000013	addi	x0,x0,0	  x0:0x00000000
       36645000	      3663	80001888	010000ef	jal	x1,80001888	  x1=0x80001888
       36655000	      3664	00000000	00000013	addi	x0,x0,0	  x0:0x00000000
       36665000	      3665	80001894	00000013	addi	x0,x0,0	  x0:0x00000000
       36675000	      3666	80001898	ffdffdef	jal	x27,80001898	 x27=0x80001898
       36685000	      3667	00000000	00000013	addi	x0,x0,0	  x0:0x00000000
       36695000	      3668	80001890	00000013	addi	x0,x0,0	  x0:0x00000000
       36705000	      3669	80001894	ff1ff0ef	jal	x1,80001894	  x1=0x80001894
       36715000	      3670	00000000	00000013	addi	x0,x0,0	  x0:0x00000000
       36725000	      3671	80001880	00000013	addi	x0,x0,0	  x0:0x00000000
       36735000	      3672	80001884	ff9ff16f	jal	x2,80001884	  x2=0x80001884
       36745000	      3673	00000000	00000013	addi	x0,x0,0	  x0:0x00000000
       36755000	      3674	80001878	00000013	addi	x0,x0,0	  x0:0x00000000
       36765000	      3675	8000187c	ff9ff1ef	jal	x3,8000187c	  x3=0x8000187c
       36775000	      3676	00000000	00000013	addi	x0,x0,0	  x0:0x00000000
       36785000	      3677	80001870	00000013	addi	x0,x0,0	  x0:0x00000000
       36795000	      3678	80001874	02c00e6f	jal	x28,80001874	 x28=0x80001874
       36805000	      3679	00000000	00000013	addi	x0,x0,0	  x0:0x00000000
       36815000	      3680	8000189c	00000013	addi	x0,x0,0	  x0:0x00000000
       36825000	      3681	800018a0	40c4d0b3	sra	x1,x9,x12	  x9:0x80001880 x12:0x8000171c  x1=0xfffffff8
       36835000	      3682	800018a4	020000ef	jal	x1,800018a4	  x1=0x800018a4
       36845000	      3683	00000000	00000013	addi	x0,x0,0	  x0:0x00000000
       36855000	      3684	800018c0	00000013	addi	x0,x0,0	  x0:0x00000000
       36865000	      3685	800018c4	01c000ef	jal	x1,800018c4	  x1=0x800018c4
       36875000	      3686	00000000	00000013	addi	x0,x0,0	  x0:0x00000000
       36885000	      3687	800018dc	00000013	addi	x0,x0,0	  x0:0x00000000
       36895000	      3688	800018e0	fedffc6f	jal	x24,800018e0	 x24=0x800018e0
       36905000	      3689	00000000	00000013	addi	x0,x0,0	  x0:0x00000000
       36915000	      3690	800018c8	00000013	addi	x0,x0,0	  x0:0x00000000
       36925000	      3691	800018cc	02800aef	jal	x21,800018cc	 x21=0x800018cc
       36935000	      3692	00000000	00000013	addi	x0,x0,0	  x0:0x00000000
       36945000	      3693	800018f0	00000013	addi	x0,x0,0	  x0:0x00000000
       36955000	      3694	800018f4	fd5ff0ef	jal	x1,800018f4	  x1=0x800018f4
       36965000	      3695	00000000	00000013	addi	x0,x0,0	  x0:0x00000000
       36975000	      3696	800018c4	00000013	addi	x0,x0,0	  x0:0x00000000
       36985000	      3697	800018c8	0300036f	jal	x6,800018c8	  x6=0x800018c8
       36995000	      3698	00000000	00000013	addi	x0,x0,0	  x0:0x00000000
       37005000	      3699	800018f4	00000013	addi	x0,x0,0	  x0:0x00000000
       37015000	      3700	800018f8	fe1ff0ef	jal	x1,800018f8	  x1=0x800018f8
       37025000	      3701	00000000	00000013	addi	x0,x0,0	  x0:0x00000000
       37035000	      3702	800018d4	00000013	addi	x0,x0,0	  x0:0x00000000
       37045000	      3703	800018d8	fe5ff4ef	jal	x9,800018d8	  x9=0x800018d8
       37055000	      3704	00000000	00000013	addi	x0,x0,0	  x0:0x00000000
       37065000	      3705	800018b8	00000013	addi	x0,x0,0	  x0:0x00000000
       37075000	      3706	800018bc	ffdff36f	jal	x6,800018bc	  x6=0x800018bc
       37085000	      3707	00000000	00000013	addi	x0,x0,0	  x0:0x00000000
       37095000	      3708	800018b4	00000013	addi	x0,x0,0	  x0:0x00000000
       37105000	      3709	800018b8	0080036f	jal	x6,800018b8	  x6=0x800018b8
       37115000	      3710	00000000	00000013	addi	x0,x0,0	  x0:0x00000000
       37125000	      3711	800018bc	00000013	addi	x0,x0,0	  x0:0x00000000
       37135000	      3712	800018c0	028000ef	jal	x1,800018c0	  x1=0x800018c0
       37145000	      3713	00000000	00000013	addi	x0,x0,0	  x0:0x00000000
       37155000	      3714	800018e4	00000013	addi	x0,x0,0	  x0:0x00000000
       37165000	      3715	800018e8	fc1ff36f	jal	x6,800018e8	  x6=0x800018e8
       37175000	      3716	00000000	00000013	addi	x0,x0,0	  x0:0x00000000
       37185000	      3717	800018a4	00000013	addi	x0,x0,0	  x0:0x00000000
       37195000	      3718	800018a8	008000ef	jal	x1,800018a8	  x1=0x800018a8
       37205000	      3719	00000000	00000013	addi	x0,x0,0	  x0:0x00000000
       37215000	      3720	800018ac	00000013	addi	x0,x0,0	  x0:0x00000000
       37225000	      3721	800018b0	0200026f	jal	x4,800018b0	  x4=0x800018b0
       37235000	      3722	00000000	00000013	addi	x0,x0,0	  x0:0x00000000
       37245000	      3723	800018cc	00000013	addi	x0,x0,0	  x0:0x00000000
       37255000	      3724	800018d0	020000ef	jal	x1,800018d0	  x1=0x800018d0
       37265000	      3725	00000000	00000013	addi	x0,x0,0	  x0:0x00000000
       37275000	      3726	800018ec	00000013	addi	x0,x0,0	  x0:0x00000000
       37285000	      3727	800018f0	ffdff0ef	jal	x1,800018f0	  x1=0x800018f0
       37295000	      3728	00000000	00000013	addi	x0,x0,0	  x0:0x00000000
       37305000	      3729	800018e8	00000013	addi	x0,x0,0	  x0:0x00000000
       37315000	      3730	800018ec	fc9ff0ef	jal	x1,800018ec	  x1=0x800018ec
       37325000	      3731	00000000	00000013	addi	x0,x0,0	  x0:0x00000000
       37335000	      3732	800018b0	00000013	addi	x0,x0,0	  x0:0x00000000
       37345000	      3733	800018b4	ff9ff36f	jal	x6,800018b4	  x6=0x800018b4
       37355000	      3734	00000000	00000013	addi	x0,x0,0	  x0:0x00000000
       37365000	      3735	800018a8	00000013	addi	x0,x0,0	  x0:0x00000000
       37375000	      3736	800018ac	038000ef	jal	x1,800018ac	  x1=0x800018ac
       37385000	      3737	00000000	00000013	addi	x0,x0,0	  x0:0x00000000
       37395000	      3738	800018e0	00000013	addi	x0,x0,0	  x0:0x00000000
       37405000	      3739	800018e4	ff9ff0ef	jal	x1,800018e4	  x1=0x800018e4
       37415000	      3740	00000000	00000013	addi	x0,x0,0	  x0:0x00000000
       37425000	      3741	800018d8	00000013	addi	x0,x0,0	  x0:0x00000000
       37435000	      3742	800018dc	ff9ff0ef	jal	x1,800018dc	  x1=0x800018dc
       37445000	      3743	00000000	00000013	addi	x0,x0,0	  x0:0x00000000
       37455000	      3744	800018d0	00000013	addi	x0,x0,0	  x0:0x00000000
       37465000	      3745	800018d4	0280056f	jal	x10,800018d4	 x10=0x800018d4
       37475000	      3746	00000000	00000013	addi	x0,x0,0	  x0:0x00000000
       37485000	      3747	800018f8	00000013	addi	x0,x0,0	  x0:0x00000000
       37495000	      3748	800018fc	0020df13	srli	x30,x1,0x2	  x1:0x800018dc x30=0x20000637
       37505000	      3749	80001900	010000ef	jal	x1,80001900	  x1=0x80001900
       37515000	      3750	00000000	00000013	addi	x0,x0,0	  x0:0x00000000
       37525000	      3751	8000190c	00000013	addi	x0,x0,0	  x0:0x00000000
       37535000	      3752	80001910	ffdff36f	jal	x6,80001910	  x6=0x80001910
       37545000	      3753	00000000	00000013	addi	x0,x0,0	  x0:0x00000000
       37555000	      3754	80001908	00000013	addi	x0,x0,0	  x0:0x00000000
       37565000	      3755	8000190c	0080026f	jal	x4,8000190c	  x4=0x8000190c
       37575000	      3756	00000000	00000013	addi	x0,x0,0	  x0:0x00000000
       37585000	      3757	80001910	00000013	addi	x0,x0,0	  x0:0x00000000
       37595000	      3758	80001914	ff5ff0ef	jal	x1,80001914	  x1=0x80001914
       37605000	      3759	00000000	00000013	addi	x0,x0,0	  x0:0x00000000
       37615000	      3760	80001904	00000013	addi	x0,x0,0	  x0:0x00000000
       37625000	      3761	80001908	01c00b6f	jal	x22,80001908	 x22=0x80001908
       37635000	      3762	00000000	00000013	addi	x0,x0,0	  x0:0x00000000
       37645000	      3763	80001920	00000013	addi	x0,x0,0	  x0:0x00000000
       37655000	      3764	80001924	ff5ff46f	jal	x8,80001924	  x8=0x80001924
       37665000	      3765	00000000	00000013	addi	x0,x0,0	  x0:0x00000000
       37675000	      3766	80001914	00000013	addi	x0,x0,0	  x0:0x00000000
       37685000	      3767	80001918	0040036f	jal	x6,80001918	  x6=0x80001918
       37695000	      3768	00000000	00000013	addi	x0,x0,0	  x0:0x00000000
       37705000	      3769	80001918	00000013	addi	x0,x0,0	  x0:0x00000000
       37715000	      3770	8000191c	00c000ef	jal	x1,8000191c	  x1=0x8000191c
       37725000	      3771	00000000	00000013	addi	x0,x0,0	  x0:0x00000000
       37735000	      3772	80001924	00000013	addi	x0,x0,0	  x0:0x00000000
       37745000	      3773	80001928	fddff0ef	jal	x1,80001928	  x1=0x80001928
       37755000	      3774	00000000	00000013	addi	x0,x0,0	  x0:0x00000000
       37765000	      3775	80001900	00000013	addi	x0,x0,0	  x0:0x00000000
       37775000	      3776	80001904	01c00f6f	jal	x30,80001904	 x30=0x80001904
       37785000	      3777	00000000	00000013	addi	x0,x0,0	  x0:0x00000000
       37795000	      3778	8000191c	00000013	addi	x0,x0,0	  x0:0x00000000
       37805000	      3779	80001920	00c005ef	jal	x11,80001920	 x11=0x80001920
       37815000	      3780	00000000	00000013	addi	x0,x0,0	  x0:0x00000000
       37825000	      3781	80001928	00000013	addi	x0,x0,0	  x0:0x00000000
       37835000	      3782	8000192c	0165e6b3	or	x13,x11,x22	 x11:0x80001920 x22:0x80001908 x13=0x80001928
       37845000	      3783	80001930	004000ef	jal	x1,80001930	  x1=0x80001930
       37855000	      3784	00000000	00000013	addi	x0,x0,0	  x0:0x00000000
       37865000	      3785	80001930	00000013	addi	x0,x0,0	  x0:0x00000000
       37875000	      3786	80001934	01c000ef	jal	x1,80001934	  x1=0x80001934
       37885000	      3787	00000000	00000013	addi	x0,x0,0	  x0:0x00000000
       37895000	      3788	8000194c	00000013	addi	x0,x0,0	  x0:0x00000000
       37905000	      3789	80001950	ff1ff0ef	jal	x1,80001950	  x1=0x80001950
       37915000	      3790	00000000	00000013	addi	x0,x0,0	  x0:0x00000000
       37925000	      3791	8000193c	00000013	addi	x0,x0,0	  x0:0x00000000
       37935000	      3792	80001940	00c000ef	jal	x1,80001940	  x1=0x80001940
       37945000	      3793	00000000	00000013	addi	x0,x0,0	  x0:0x00000000
       37955000	      3794	80001948	00000013	addi	x0,x0,0	  x0:0x00000000
       37965000	      3795	8000194c	010000ef	jal	x1,8000194c	  x1=0x8000194c
       37975000	      3796	00000000	00000013	addi	x0,x0,0	  x0:0x00000000
       37985000	      3797	80001958	00000013	addi	x0,x0,0	  x0:0x00000000
       37995000	      3798	8000195c	fddff0ef	jal	x1,8000195c	  x1=0x8000195c
       38005000	      3799	00000000	00000013	addi	x0,x0,0	  x0:0x00000000
       38015000	      3800	80001934	00000013	addi	x0,x0,0	  x0:0x00000000
       38025000	      3801	80001938	020000ef	jal	x1,80001938	  x1=0x80001938
       38035000	      3802	00000000	00000013	addi	x0,x0,0	  x0:0x00000000
       38045000	      3803	80001954	00000013	addi	x0,x0,0	  x0:0x00000000
       38055000	      3804	80001958	ff1ff1ef	jal	x3,80001958	  x3=0x80001958
       38065000	      3805	00000000	00000013	addi	x0,x0,0	  x0:0x00000000
       38075000	      3806	80001944	00000013	addi	x0,x0,0	  x0:0x00000000
       38085000	      3807	80001948	00c00f6f	jal	x30,80001948	 x30=0x80001948
       38095000	      3808	00000000	00000013	addi	x0,x0,0	  x0:0x00000000
       38105000	      3809	80001950	00000013	addi	x0,x0,0	  x0:0x00000000
       38115000	      3810	80001954	ff1ff36f	jal	x6,80001954	  x6=0x80001954
       38125000	      3811	00000000	00000013	addi	x0,x0,0	  x0:0x00000000
       38135000	      3812	80001940	00000013	addi	x0,x0,0	  x0:0x00000000
       38145000	      3813	80001944	ff9ff9ef	jal	x19,80001944	 x19=0x80001944
       38155000	      3814	00000000	00000013	addi	x0,x0,0	  x0:0x00000000
       38165000	      3815	80001938	00000013	addi	x0,x0,0	  x0:0x00000000
       38175000	      3816	8000193c	0240036f	jal	x6,8000193c	  x6=0x8000193c
       38185000	      3817	00000000	00000013	addi	x0,x0,0	  x0:0x00000000
       38195000	      3818	8000195c	00000013	addi	x0,x0,0	  x0:0x00000000
       38205000	      3819	80001960	01ae9593	slli	x11,x29,0x1a	 x29:0x80001750 x11=0x40000000
       38215000	      3820	80001964	044000ef	jal	x1,80001964	  x1=0x80001964
       38225000	      3821	00000000	00000013	addi	x0,x0,0	  x0:0x00000000
       38235000	      3822	800019a4	00000013	addi	x0,x0,0	  x0:0x00000000
       38245000	      3823	800019a8	fd5ff0ef	jal	x1,800019a8	  x1=0x800019a8
       38255000	      3824	00000000	00000013	addi	x0,x0,0	  x0:0x00000000
       38265000	      3825	80001978	00000013	addi	x0,x0,0	  x0:0x00000000
       38275000	      3826	8000197c	ffdff36f	jal	x6,8000197c	  x6=0x8000197c
       38285000	      3827	00000000	00000013	addi	x0,x0,0	  x0:0x00000000
       38295000	      3828	80001974	00000013	addi	x0,x0,0	  x0:0x00000000
       38305000	      3829	80001978	0380036f	jal	x6,80001978	  x6=0x80001978
       38315000	      3830	00000000	00000013	addi	x0,x0,0	  x0:0x00000000
       38325000	      3831	800019ac	00000013	addi	x0,x0,0	  x0:0x00000000
       38335000	      3832	800019b0	fbdff0ef	jal	x1,800019b0	  x1=0x800019b0
       38345000	      3833	00000000	00000013	addi	x0,x0,0	  x0:0x00000000
       38355000	      3834	80001968	00000013	addi	x0,x0,0	  x0:0x00000000
       38365000	      3835	8000196c	058000ef	jal	x1,8000196c	  x1=0x8000196c
       38375000	      3836	00000000	00000013	addi	x0,x0,0	  x0:0x00000000
       38385000	      3837	800019c0	00000013	addi	x0,x0,0	  x0:0x00000000
       38395000	      3838	800019c4	ffdffc6f	jal	x24,800019c4	 x24=0x800019c4
       38405000	      3839	00000000	00000013	addi	x0,x0,0	  x0:0x00000000
       38415000	      3840	800019bc	00000013	addi	x0,x0,0	  x0:0x00000000
       38425000	      3841	800019c0	ff5ff36f	jal	x6,800019c0	  x6=0x800019c0
       38435000	      3842	00000000	00000013	addi	x0,x0,0	  x0:0x00000000
       38445000	      3843	800019b0	00000013	addi	x0,x0,0	  x0:0x00000000
       38455000	      3844	800019b4	fc1ff0ef	jal	x1,800019b4	  x1=0x800019b4
       38465000	      3845	00000000	00000013	addi	x0,x0,0	  x0:0x00000000
       38475000	      3846	80001970	00000013	addi	x0,x0,0	  x0:0x00000000
       38485000	      3847	80001974	0300036f	jal	x6,80001974	  x6=0x80001974
       38495000	      3848	00000000	00000013	addi	x0,x0,0	  x0:0x00000000
       38505000	      3849	800019a0	00000013	addi	x0,x0,0	  x0:0x00000000
       38515000	      3850	800019a4	014005ef	jal	x11,800019a4	 x11=0x800019a4
       38525000	      3851	00000000	00000013	addi	x0,x0,0	  x0:0x00000000
       38535000	      3852	800019b4	00000013	addi	x0,x0,0	  x0:0x00000000
       38545000	      3853	800019b8	fcdff0ef	jal	x1,800019b8	  x1=0x800019b8
       38555000	      3854	00000000	00000013	addi	x0,x0,0	  x0:0x00000000
       38565000	      3855	80001980	00000013	addi	x0,x0,0	  x0:0x00000000
       38575000	      3856	80001984	ffdff0ef	jal	x1,80001984	  x1=0x80001984
       38585000	      3857	00000000	00000013	addi	x0,x0,0	  x0:0x00000000
       38595000	      3858	8000197c	00000013	addi	x0,x0,0	  x0:0x00000000
       38605000	      3859	80001980	00800bef	jal	x23,80001980	 x23=0x80001980
       38615000	      3860	00000000	00000013	addi	x0,x0,0	  x0:0x00000000
       38625000	      3861	80001984	00000013	addi	x0,x0,0	  x0:0x00000000
       38635000	      3862	80001988	004000ef	jal	x1,80001988	  x1=0x80001988
       38645000	      3863	00000000	00000013	addi	x0,x0,0	  x0:0x00000000
       38655000	      3864	80001988	00000013	addi	x0,x0,0	  x0:0x00000000
       38665000	      3865	8000198c	014000ef	jal	x1,8000198c	  x1=0x8000198c
       38675000	      3866	00000000	00000013	addi	x0,x0,0	  x0:0x00000000
       38685000	      3867	8000199c	00000013	addi	x0,x0,0	  x0:0x00000000
       38695000	      3868	800019a0	ff5ff16f	jal	x2,800019a0	  x2=0x800019a0
       38705000	      3869	00000000	00000013	addi	x0,x0,0	  x0:0x00000000
       38715000	      3870	80001990	00000013	addi	x0,x0,0	  x0:0x00000000
       38725000	      3871	80001994	ffdff2ef	jal	x5,80001994	  x5=0x80001994
       38735000	      3872	00000000	00000013	addi	x0,x0,0	  x0:0x00000000
       38745000	      3873	8000198c	00000013	addi	x0,x0,0	  x0:0x00000000
       38755000	      3874	80001990	01c000ef	jal	x1,80001990	  x1=0x80001990
       38765000	      3875	00000000	00000013	addi	x0,x0,0	  x0:0x00000000
       38775000	      3876	800019a8	00000013	addi	x0,x0,0	  x0:0x00000000
       38785000	      3877	800019ac	fc5ff0ef	jal	x1,800019ac	  x1=0x800019ac
       38795000	      3878	00000000	00000013	addi	x0,x0,0	  x0:0x00000000
       38805000	      3879	8000196c	00000013	addi	x0,x0,0	  x0:0x00000000
       38815000	      3880	80001970	ff9ff36f	jal	x6,80001970	  x6=0x80001970
       38825000	      3881	00000000	00000013	addi	x0,x0,0	  x0:0x00000000
       38835000	      3882	80001964	00000013	addi	x0,x0,0	  x0:0x00000000
       38845000	      3883	80001968	054000ef	jal	x1,80001968	  x1=0x80001968
       38855000	      3884	00000000	00000013	addi	x0,x0,0	  x0:0x00000000
       38865000	      3885	800019b8	00000013	addi	x0,x0,0	  x0:0x00000000
       38875000	      3886	800019bc	fe1ff0ef	jal	x1,800019bc	  x1=0x800019bc
       38885000	      3887	00000000	00000013	addi	x0,x0,0	  x0:0x00000000
       38895000	      3888	80001998	00000013	addi	x0,x0,0	  x0:0x00000000
       38905000	      3889	8000199c	ffdff0ef	jal	x1,8000199c	  x1=0x8000199c
       38915000	      3890	00000000	00000013	addi	x0,x0,0	  x0:0x00000000
       38925000	      3891	80001994	00000013	addi	x0,x0,0	  x0:0x00000000
       38935000	      3892	80001998	030000ef	jal	x1,80001998	  x1=0x80001998
       38945000	      3893	00000000	00000013	addi	x0,x0,0	  x0:0x00000000
       38955000	      3894	800019c4	00000013	addi	x0,x0,0	  x0:0x00000000
       38965000	      3895	800019c8	008a0eb3	add	x29,x20,x8	 x20:0x80001600  x8:0x80001924 x29=0x00002f24
       38975000	      3896	800019cc	034000ef	jal	x1,800019cc	  x1=0x800019cc
       38985000	      3897	00000000	00000013	addi	x0,x0,0	  x0:0x00000000
       38995000	      3898	800019fc	00000013	addi	x0,x0,0	  x0:0x00000000
       39005000	      3899	80001a00	fddff0ef	jal	x1,80001a00	  x1=0x80001a00
       39015000	      3900	00000000	00000013	addi	x0,x0,0	  x0:0x00000000
       39025000	      3901	800019d8	00000013	addi	x0,x0,0	  x0:0x00000000
       39035000	      3902	800019dc	004000ef	jal	x1,800019dc	  x1=0x800019dc
       39045000	      3903	00000000	00000013	addi	x0,x0,0	  x0:0x00000000
       39055000	      3904	800019dc	00000013	addi	x0,x0,0	  x0:0x00000000
       39065000	      3905	800019e0	0240036f	jal	x6,800019e0	  x6=0x800019e0
       39075000	      3906	00000000	00000013	addi	x0,x0,0	  x0:0x00000000
       39085000	      3907	80001a00	00000013	addi	x0,x0,0	  x0:0x00000000
       39095000	      3908	80001a04	fd1ff0ef	jal	x1,80001a04	  x1=0x80001a04
       39105000	      3909	00000000	00000013	addi	x0,x0,0	  x0:0x00000000
       39115000	      3910	800019d0	00000013	addi	x0,x0,0	  x0:0x00000000
       39125000	      3911	800019d4	02000f6f	jal	x30,800019d4	 x30=0x800019d4
       39135000	      3912	00000000	00000013	addi	x0,x0,0	  x0:0x00000000
       39145000	      3913	800019f0	00000013	addi	x0,x0,0	  x0:0x00000000
       39155000	      3914	800019f4	008000ef	jal	x1,800019f4	  x1=0x800019f4
       39165000	      3915	00000000	00000013	addi	x0,x0,0	  x0:0x00000000
       39175000	      3916	800019f8	00000013	addi	x0,x0,0	  x0:0x00000000
       39185000	      3917	800019fc	fd5ff36f	jal	x6,800019fc	  x6=0x800019fc
       39195000	      3918	00000000	00000013	addi	x0,x0,0	  x0:0x00000000
       39205000	      3919	800019cc	00000013	addi	x0,x0,0	  x0:0x00000000
       39215000	      3920	800019d0	01c000ef	jal	x1,800019d0	  x1=0x800019d0
       39225000	      3921	00000000	00000013	addi	x0,x0,0	  x0:0x00000000
       39235000	      3922	800019e8	00000013	addi	x0,x0,0	  x0:0x00000000
       39245000	      3923	800019ec	0040036f	jal	x6,800019ec	  x6=0x800019ec
       39255000	      3924	00000000	00000013	addi	x0,x0,0	  x0:0x00000000
       39265000	      3925	800019ec	00000013	addi	x0,x0,0	  x0:0x00000000
       39275000	      3926	800019f0	fe9ff66f	jal	x12,800019f0	 x12=0x800019f0
       39285000	      3927	00000000	00000013	addi	x0,x0,0	  x0:0x00000000
       39295000	      3928	800019d4	00000013	addi	x0,x0,0	  x0:0x00000000
       39305000	      3929	800019d8	02000b6f	jal	x22,800019d8	 x22=0x800019d8
       39315000	      3930	00000000	00000013	addi	x0,x0,0	  x0:0x00000000
       39325000	      3931	800019f4	00000013	addi	x0,x0,0	  x0:0x00000000
       39335000	      3932	800019f8	fedff56f	jal	x10,800019f8	 x10=0x800019f8
       39345000	      3933	00000000	00000013	addi	x0,x0,0	  x0:0x00000000
       39355000	      3934	800019e0	00000013	addi	x0,x0,0	  x0:0x00000000
       39365000	      3935	800019e4	0040076f	jal	x14,800019e4	 x14=0x800019e4
       39375000	      3936	00000000	00000013	addi	x0,x0,0	  x0:0x00000000
       39385000	      3937	800019e4	00000013	addi	x0,x0,0	  x0:0x00000000
       39395000	      3938	800019e8	020000ef	jal	x1,800019e8	  x1=0x800019e8
       39405000	      3939	00000000	00000013	addi	x0,x0,0	  x0:0x00000000
       39415000	      3940	80001a04	00000013	addi	x0,x0,0	  x0:0x00000000
       39425000	      3941	80001a08	d5838693	addi	x13,x7,-680	  x7:0x00000000 x13=0xfffffd58
       39435000	      3942	80001a0c	0013ea63	bltu	x7,x1,80001a20	  x7:0x00000000  x1:0x800019e8
       39445000	      3943	00000000	00000013	addi	x0,x0,0	  x0:0x00000000
       39455000	      3944	80001a1c	00000013	addi	x0,x0,0	  x0:0x00000000
       39465000	      3945	80001a20	c6b0c0b7	lui	x1,0xc6b0c	  x1=0xc6b0c000
       39475000	      3946	80001a24	31d34493	xori	x9,x6,797	  x6:0x800019ec  x9=0x80001af1
       39485000	      3947	80001a28	0089f5b3	and	x11,x19,x8	 x19:0x80001944  x8:0x80001924 x11=0x80001904
       39495000	      3948	80001a2c	f8673093	sltiu	x1,x14,-122	 x14:0x800019e4  x1=0x00000001
       39505000	      3949	80001a30	a778ed13	ori	x26,x17,-1417	 x17:0x80001668 x26=0xfffffe7f
       39515000	      3950	80001a34	3f6e2637	lui	x12,0x3f6e2	 x12=0x3f6e2000
       39525000	      3951	80001a38	052e5463	bge	x28,x18,80001a80	 x28:0x80001874 x18:0x800011db
       39535000	      3952	00000000	00000013	addi	x0,x0,0	  x0:0x00000000
       39545000	      3953	80001a7c	00000013	addi	x0,x0,0	  x0:0x00000000
       39555000	      3954	80001a80	bc60a693	slti	x13,x1,-1082	  x1:0x00000001 x13=0x00000000
       39565000	      3955	80001a84	9af5fb93	andi	x23,x11,-1617	 x11:0x80001904 x23=0x80001904
       39575000	      3956	80001a88	00000013	addi	x0,x0,0	  x0:0x00000000
       39585000	      3957	80001a8c	013ed313	srli	x6,x29,0x13	 x29:0x00002f24  x6=0x00000000
       39595000	      3958	80001a90	00000013	addi	x0,x0,0	  x0:0x00000000
       39605000	      3959	80001a94	009cd0b3	srl	x1,x25,x9	 x25:0x80009fc4  x9:0x80001af1  x1=0x00004000
       39615000	      3960	80001a98	4096d333	sra	x6,x13,x9	 x13:0x00000000  x9:0x80001af1  x6=0x00000000
       39625000	      3961	80001a9c	008f9633	sll	x12,x31,x8	 x31:0x80000000  x8:0x80001924 x12=0x00000000
       39635000	      3962	80001aa0	041e8863	beq	x29,x1,80001af0	 x29:0x00002f24  x1:0x00004000
       39645000	      3963	80001aa4	40e75593	srai	x11,x14,0xe	 x14:0x800019e4 x11=0xfffe0000
       39655000	      3964	80001aa8	019732b3	sltu	x5,x14,x25	 x14:0x800019e4 x25:0x80009fc4  x5=0x00000001
       39665000	      3965	80001aac	016a9f33	sll	x30,x21,x22	 x21:0x800018cc x22:0x800019d8 x30=0xcc000000
       39675000	      3966	80001ab0	01f40863	beq	x8,x31,80001ac0	  x8:0x80001924 x31:0x80000000
       39685000	      3967	80001ab4	01741d93	slli	x27,x8,0x17	  x8:0x80001924 x27=0x92000000
       39695000	      3968	80001ab8	c8586d93	ori	x27,x16,-891	 x16:0x80009f70 x27=0xfffffff5
       39705000	      3969	80001abc	41180f33	sub	x30,x16,x17	 x16:0x80009f70 x17:0x80001668 x30=0x00008908
       39715000	      3970	80001ac0	01b79933	sll	x18,x15,x27	 x15:0x80001700 x27:0xfffffff5 x18=0xe0000000
       39725000	      3971	80001ac4	00000013	addi	x0,x0,0	  x0:0x00000000
       39735000	      3972	80001ac8	021bc463	blt	x23,x1,80001af0	 x23:0x80001904  x1:0x00004000
       39745000	      3973	00000000	00000013	addi	x0,x0,0	  x0:0x00000000
       39755000	      3974	80001aec	00000013	addi	x0,x0,0	  x0:0x00000000
       39765000	      3975	80001af0	03a78c63	beq	x15,x26,80001b28	 x15:0x80001700 x26:0xfffffe7f
       39775000	      3976	80001af4	4131d333	sra	x6,x3,x19	  x3:0x80001958 x19:0x80001944  x6=0xf8000195
       39785000	      3977	80001af8	07f92913	slti	x18,x18,127	 x18:0xe0000000 x18=0x00000001
       39795000	      3978	80001afc	4298fb93	andi	x23,x17,1065	 x17:0x80001668 x23=0x00000428
       39805000	      3979	80001b00	03d51a63	bne	x10,x29,80001b34	 x10:0x800019f8 x29:0x00002f24
       39815000	      3980	00000000	00000013	addi	x0,x0,0	  x0:0x00000000
       39825000	      3981	80001b30	00000013	addi	x0,x0,0	  x0:0x00000000
       39835000	      3982	80001b34	0027b3b3	sltu	x7,x15,x2	 x15:0x80001700  x2:0x800019a0  x7=0x00000001
       39845000	      3983	80001b38	41ef5a13	srai	x20,x30,0x1e	 x30:0x00008908 x20=0x00000000
       39855000	      3984	80001b3c	00c8ce63	blt	x17,x12,80001b58	 x17:0x80001668 x12:0x00000000
       39865000	      3985	00000000	00000013	addi	x0,x0,0	  x0:0x00000000
       39875000	      3986	80001b54	00000013	addi	x0,x0,0	  x0:0x00000000
       39885000	      3987	80001b58	018d1533	sll	x10,x26,x24	 x26:0xfffffe7f x24:0x800019c4 x10=0xffffe7f0
       39895000	      3988	80001b5c	00cf0f33	add	x30,x30,x12	 x30:0x00008908 x12:0x00000000 x30=0x00008908
       39905000	      3989	80001b60	02008c63	beq	x1,x0,80001b98	  x1:0x00004000  x0:0x00000000
       39915000	      3990	80001b64	00ac8db3	add	x27,x25,x10	 x25:0x80009fc4 x10:0xffffe7f0 x27=0x800087b4
       39925000	      3991	80001b68	01420663	beq	x4,x20,80001b74	  x4:0x8000190c x20:0x00000000
       39935000	      3992	80001b6c	e309fc13	andi	x24,x19,-464	 x19:0x80001944 x24=0x80001800
       39945000	      3993	80001b70	01bd9193	slli	x3,x27,0x1b	 x27:0x800087b4  x3=0xa0000000
       39955000	      3994	80001b74	42c8bb13	sltiu	x22,x17,1068	 x17:0x80001668 x22=0x00000000
       39965000	      3995	80001b78	419a89b3	sub	x19,x21,x25	 x21:0x800018cc x25:0x80009fc4 x19=0xffff7908
       39975000	      3996	80001b7c	01088233	add	x4,x17,x16	 x17:0x80001668 x16:0x80009f70  x4=0x0000b5d8
       39985000	      3997	80001b80	00297a33	and	x20,x18,x2	 x18:0x00000001  x2:0x800019a0 x20=0x00000000
       39995000	      3998	80001b84	ebd1f013	andi	x0,x3,-323	  x3:0xa0000000
       40005000	      3999	80001b88	01040a63	beq	x8,x16,80001b9c	  x8:0x80001924 x16:0x80009f70
       40015000	      4000	80001b8c	00ecc133	xor	x2,x25,x14	 x25:0x80009fc4 x14:0x800019e4  x2=0x00008620
       40025000	      4001	80001b90	01e80c33	add	x24,x16,x30	 x16:0x80009f70 x30:0x00008908 x24=0x80012878
       40035000	      4002	80001b94	0817f663	bgeu	x15,x1,80001c20	 x15:0x80001700  x1:0x00004000
       40045000	      4003	00000000	00000013	addi	x0,x0,0	  x0:0x00000000
       40055000	      4004	80001c1c	00000013	addi	x0,x0,0	  x0:0x00000000
       40065000	      4005	80001c20	00b81463	bne	x16,x11,80001c28	 x16:0x80009f70 x11:0xfffe0000
       40075000	      4006	00000000	00000013	addi	x0,x0,0	  x0:0x00000000
       40085000	      4007	80001c24	00000013	addi	x0,x0,0	  x0:0x00000000
       40095000	      4008	80001c28	0117c463	blt	x15,x17,80001c30	 x15:0x80001700 x17:0x80001668
       40105000	      4009	80001c2c	40b90ab3	sub	x21,x18,x11	 x18:0x00000001 x11:0xfffe0000 x21=0x00020001
       40115000	      4010	80001c30	47ece713	ori	x14,x25,1150	 x25:0x80009fc4 x14=0x80009ffe
       40125000	      4011	80001c34	00681333	sll	x6,x16,x6	 x16:0x80009f70  x6:0xf8000195  x6=0xee000000
       40135000	      4012	80001c38	00323733	sltu	x14,x4,x3	  x4:0x0000b5d8  x3:0xa0000000 x14=0x00000001
       40145000	      4013	80001c3c	25532093	slti	x1,x6,597	  x6:0xee000000  x1=0x00000001
       40155000	      4014	80001c40	00931b13	slli	x22,x6,0x9	  x6:0xee000000 x22=0x00000000
       40165000	      4015	80001c44	e652bc13	sltiu	x24,x5,-411	  x5:0x00000001 x24=0x00000001
       40175000	      4016	80001c48	02bd1863	bne	x26,x11,80001c78	 x26:0xfffffe7f x11:0xfffe0000
       40185000	      4017	00000000	00000013	addi	x0,x0,0	  x0:0x00000000
       40195000	      4018	80001c74	00000013	addi	x0,x0,0	  x0:0x00000000
       40205000	      4019	80001c78	40a5d7b3	sra	x15,x11,x10	 x11:0xfffe0000 x10:0xffffe7f0 x15=0xfffffffe
       40215000	      4020	80001c7c	03b85e63	bge	x16,x27,80001cb8	 x16:0x80009f70 x27:0x800087b4
       40225000	      4021	00000000	00000013	addi	x0,x0,0	  x0:0x00000000
       40235000	      4022	80001cb4	00000013	addi	x0,x0,0	  x0:0x00000000
       40245000	      4023	80001cb8	4081d933	sra	x18,x3,x8	  x3:0xa0000000  x8:0x80001924 x18=0xfa000000
       40255000	      4024	80001cbc	00000013	addi	x0,x0,0	  x0:0x00000000
       40265000	      4025	80001cc0	004ccc63	blt	x25,x4,80001cd8	 x25:0x80009fc4  x4:0x0000b5d8
       40275000	      4026	00000000	00000013	addi	x0,x0,0	  x0:0x00000000
       40285000	      4027	80001cd4	00000013	addi	x0,x0,0	  x0:0x00000000
       40295000	      4028	80001cd8	03640463	beq	x8,x22,80001d00	  x8:0x80001924 x22:0x00000000
       40305000	      4029	80001cdc	5131f513	andi	x10,x3,1299	  x3:0xa0000000 x10=0x00000000
       40315000	      4030	80001ce0	0134cab3	xor	x21,x9,x19	  x9:0x80001af1 x19:0xffff7908 x21=0x7fff63f9
       40325000	      4031	80001ce4	a30c6593	ori	x11,x24,-1488	 x24:0x00000001 x11=0xfffffa31
       40335000	      4032	80001ce8	4c1dc893	xori	x17,x27,1217	 x27:0x800087b4 x17=0x80008375
       40345000	      4033	80001cec	01b99d13	slli	x26,x19,0x1b	 x19:0xffff7908 x26=0x40000000
       40355000	      4034	80001cf0	0101fe63	bgeu	x3,x16,80001d0c	  x3:0xa0000000 x16:0x80009f70
       40365000	      4035	00000000	00000013	addi	x0,x0,0	  x0:0x00000000
       40375000	      4036	80001d08	00000013	addi	x0,x0,0	  x0:0x00000000
       40385000	      4037	80001d0c	01629433	sll	x8,x5,x22	  x5:0x00000001 x22:0x00000000  x8=0x00000001
       40395000	      4038	80001d10	05d81463	bne	x16,x29,80001d58	 x16:0x80009f70 x29:0x00002f24
       40405000	      4039	00000000	00000013	addi	x0,x0,0	  x0:0x00000000
       40415000	      4040	80001d54	00000013	addi	x0,x0,0	  x0:0x00000000
       40425000	      4041	80001d58	008fc6b3	xor	x13,x31,x8	 x31:0x80000000  x8:0x00000001 x13=0x80000001
       40435000	      4042	80001d5c	0177d3b3	srl	x7,x15,x23	 x15:0xfffffffe x23:0x00000428  x7=0x00ffffff
       40445000	      4043	80001d60	0075a5b3	slt	x11,x11,x7	 x11:0xfffffa31  x7:0x00ffffff x11=0x00000001
       40455000	      4044	80001d64	40458a33	sub	x20,x11,x4	 x11:0x00000001  x4:0x0000b5d8 x20=0xffff4a29
       40465000	      4045	80001d68	40c15133	sra	x2,x2,x12	  x2:0x00008620 x12:0x00000000  x2=0x00008620
       40475000	      4046	80001d6c	0118bf33	sltu	x30,x17,x17	 x17:0x80008375 x17:0x80008375 x30=0x00000000
       40485000	      4047	80001d70	012f7c33	and	x24,x30,x18	 x30:0x00000000 x18:0xfa000000 x24=0x00000000
       40495000	      4048	80001d74	8f222e13	slti	x28,x4,-1806	  x4:0x0000b5d8 x28=0x00000000
       40505000	      4049	80001d78	0a8d3613	sltiu	x12,x26,168	 x26:0x40000000 x12=0x00000000
       40515000	      4050	80001d7c	caad0a93	addi	x21,x26,-854	 x26:0x40000000 x21=0x3ffffcaa
       40525000	      4051	80001d80	0040aa33	slt	x20,x1,x4	  x1:0x00000001  x4:0x0000b5d8 x20=0x00000001
       40535000	      4052	80001d84	01220eb3	add	x29,x4,x18	  x4:0x0000b5d8 x18:0xfa000000 x29=0xfa00b5d8
       40545000	      4053	80001d88	e8ec2b93	slti	x23,x24,-370	 x24:0x00000000 x23=0x00000000
       40555000	      4054	80001d8c	01d05593	srli	x11,x0,0x1d	  x0:0x00000000 x11=0x00000000
       40565000	      4055	80001d90	050fc537	lui	x10,0x50fc	 x10=0x050fc000
       40575000	      4056	80001d94	00924bb3	xor	x23,x4,x9	  x4:0x0000b5d8  x9:0x80001af1 x23=0x8000af29
       40585000	      4057	80001d98	84c40393	addi	x7,x8,-1972	  x8:0x00000001  x7=0xfffff84d
       40595000	      4058	80001d9c	e4620e93	addi	x29,x4,-442	  x4:0x0000b5d8 x29=0x0000b41e
       40605000	      4059	80001da0	010bfab3	and	x21,x23,x16	 x23:0x8000af29 x16:0x80009f70 x21=0x80008f20
       40615000	      4060	80001da4	03477e63	bgeu	x14,x20,80001de0	 x14:0x00000001 x20:0x00000001
       40625000	      4061	00000000	00000013	addi	x0,x0,0	  x0:0x00000000
       40635000	      4062	80001ddc	00000013	addi	x0,x0,0	  x0:0x00000000
       40645000	      4063	80001de0	0140f3b3	and	x7,x1,x20	  x1:0x00000001 x20:0x00000001  x7=0x00000001
       40655000	      4064	80001de4	0239e863	bltu	x19,x3,80001e14	 x19:0xffff7908  x3:0xa0000000
       40665000	      4065	80001de8	05cd9463	bne	x27,x28,80001e30	 x27:0x800087b4 x28:0x00000000
       40675000	      4066	00000000	00000013	addi	x0,x0,0	  x0:0x00000000
       40685000	      4067	80001e2c	00000013	addi	x0,x0,0	  x0:0x00000000
       40695000	      4068	80001e30	fd5d2913	slti	x18,x26,-43	 x26:0x40000000 x18=0x00000000
       40705000	      4069	80001e34	4f048913	addi	x18,x9,1264	  x9:0x80001af1 x18=0x80001fe1
       40715000	      4070	80001e38	013150b3	srl	x1,x2,x19	  x2:0x00008620 x19:0xffff7908  x1=0x00000086
       40725000	      4071	80001e3c	006c13b3	sll	x7,x24,x6	 x24:0x00000000  x6:0xee000000  x7=0x00000000
       40735000	      4072	80001e40	45154613	xori	x12,x10,1105	 x10:0x050fc000 x12=0x050fc451
       40745000	      4073	80001e44	01574433	xor	x8,x14,x21	 x14:0x00000001 x21:0x80008f20  x8=0x80008f21
       40755000	      4074	80001e48	013366b3	or	x13,x6,x19	  x6:0xee000000 x19:0xffff7908 x13=0xffff7908
       40765000	      4075	80001e4c	00002497	auipc	x9,0x2	  x9=0x80003e48
       40775000	      4076	80001e50	4d448493	addi	x9,x9,1236	  x9:0x80003e48  x9=0x8000431c
       40785000	      4077	80001e54	89c37a93	andi	x21,x6,-1892	  x6:0xee000000 x21=0xee000000
       40795000	      4078	80001e58	6afa0a93	addi	x21,x20,1711	 x20:0x00000001 x21=0x000006b0
       40805000	      4079	80001e5c	eaf48493	addi	x9,x9,-337	  x9:0x8000431c  x9=0x800041cb
       40815000	      4080	80001e60	40edd793	srai	x15,x27,0xe	 x27:0x800087b4 x15=0xfffe0002
       40825000	      4081	80001e64	01a99713	slli	x14,x19,0x1a	 x19:0xffff7908 x14=0x20000000
       40835000	      4082	80001e68	004ec3b3	xor	x7,x29,x4	 x29:0x0000b41e  x4:0x0000b5d8  x7=0x000001c6
       40845000	      4083	80001e6c	7fe66793	ori	x15,x12,2046	 x12:0x050fc451 x15=0x050fc7ff
       40855000	      4084	80001e70	00ff1993	slli	x19,x30,0xf	 x30:0x00000000 x19=0x00000000
       40865000	      4085	80001e74	151480e7	jalr	x1,x9,337	  x9:0x800041cb  x1=0x80001e74
       40875000	      4086	00000000	00000013	addi	x0,x0,0	  x0:0x00000000
       40885000	      4087	8000431c	00000013	addi	x0,x0,0	  x0:0x00000000
       40895000	      4088	80004320	b1623137	lui	x2,0xb1623	  x2=0xb1623000
       40905000	      4089	80004324	00bc2433	slt	x8,x24,x11	 x24:0x00000000 x11:0x00000000  x8=0x00000000
       40915000	      4090	80004328	00ef2f33	slt	x30,x30,x14	 x30:0x00000000 x14:0x20000000 x30=0x00000001
       40925000	      4091	8000432c	0100df13	srli	x30,x1,0x10	  x1:0x80001e74 x30=0x00008000
       40935000	      4092	80004330	4b503d13	sltiu	x26,x0,1205	  x0:0x00000000 x26=0x00000001
       40945000	      4093	80004334	fd880813	addi	x16,x16,-40	 x16:0x80009f70 x16=0x80009f48
       40955000	      4094	80004338	00182223	sw	x1,4(x16)	 x16:0x80009f48  x1:0x80001e74 PA:0x80009f4c
       40965000	      4095	8000433c	3c617913	andi	x18,x2,966	  x2:0xb1623000 x18=0x00000000
       40975000	      4096	80004340	b22d8113	addi	x2,x27,-1246	 x27:0x800087b4  x2=0x800082d6
       40985000	      4097	80004344	41eb5533	sra	x10,x22,x30	 x22:0x00000000 x30:0x00008000 x10=0x00000000
       40995000	      4098	80004348	d07ecb93	xori	x23,x29,-761	 x29:0x0000b41e x23=0xffff4919
       41005000	      4099	8000434c	00000013	addi	x0,x0,0	  x0:0x00000000
       41015000	      4100	80004350	704cd397	auipc	x7,0x704cd	  x7=0xf04d134c
       41025000	      4101	80004354	0186d933	srl	x18,x13,x24	 x13:0xffff7908 x24:0x00000000 x18=0xffff7908
       41035000	      4102	80004358	40888e33	sub	x28,x17,x8	 x17:0x80008375  x8:0x00000000 x28=0x80008375
       41045000	      4103	8000435c	005b9513	slli	x10,x23,0x5	 x23:0xffff4919 x10=0xffe92320
       41055000	      4104	80004360	02241a63	bne	x8,x2,80004394	  x8:0x00000000  x2:0x800082d6
       41065000	      4105	00000000	00000013	addi	x0,x0,0	  x0:0x00000000
       41075000	      4106	80004390	00000013	addi	x0,x0,0	  x0:0x00000000
       41085000	      4107	80004394	0294ee63	bltu	x9,x9,800043d0	  x9:0x800041cb  x9:0x800041cb
       41095000	      4108	80004398	733e2093	slti	x1,x28,1843	 x28:0x80008375  x1=0x00000001
       41105000	      4109	8000439c	02eada63	bge	x21,x14,800043d0	 x21:0x000006b0 x14:0x20000000
       41115000	      4110	800043a0	41740733	sub	x14,x8,x23	  x8:0x00000000 x23:0xffff4919 x14=0x0000b6e7
       41125000	      4111	800043a4	00d764b3	or	x9,x14,x13	 x14:0x0000b6e7 x13:0xffff7908  x9=0xffffffef
       41135000	      4112	800043a8	403fdb13	srai	x22,x31,0x3	 x31:0x80000000 x22=0xf0000000
       41145000	      4113	800043ac	00a5de93	srli	x29,x11,0xa	 x11:0x00000000 x29=0x00000000
       41155000	      4114	800043b0	9f1f8d93	addi	x27,x31,-1551	 x31:0x80000000 x27=0x7ffff9f1
       41165000	      4115	800043b4	00a332b3	sltu	x5,x6,x10	  x6:0xee000000 x10:0xffe92320  x5=0x00000001
       41175000	      4116	800043b8	01704c63	blt	x0,x23,800043d0	  x0:0x00000000 x23:0xffff4919
       41185000	      4117	800043bc	00ad8a63	beq	x27,x10,800043d0	 x27:0x7ffff9f1 x10:0xffe92320
       41195000	      4118	800043c0	3e0a4413	xori	x8,x20,992	 x20:0x00000001  x8=0x000003e1
       41205000	      4119	800043c4	01fad3b3	srl	x7,x21,x31	 x21:0x000006b0 x31:0x80000000  x7=0x000006b0
       41215000	      4120	800043c8	00ef1463	bne	x30,x14,800043d0	 x30:0x00008000 x14:0x0000b6e7
       41225000	      4121	00000000	00000013	addi	x0,x0,0	  x0:0x00000000
       41235000	      4122	800043cc	00000013	addi	x0,x0,0	  x0:0x00000000
       41245000	      4123	800043d0	01916c33	or	x24,x2,x25	  x2:0x800082d6 x25:0x80009fc4 x24=0x80009fd6
       41255000	      4124	800043d4	4142d913	srai	x18,x5,0x14	  x5:0x00000001 x18=0x00000000
       41265000	      4125	800043d8	00482083	lw	x1,4(x16)	 x16:0x80009f48  x1=0x80001e74 PA:0x80009f4c
       41275000	      4126	800043dc	0024a9b3	slt	x19,x9,x2	  x9:0xffffffef  x2:0x800082d6 x19=0x00000000
       41285000	      4127	800043e0	004e5693	srli	x13,x28,0x4	 x28:0x80008375 x13=0x08000837
       41295000	      4128	800043e4	0190d413	srli	x8,x1,0x19	  x1:0x80001e74  x8=0x00000040
       41305000	      4129	800043e8	00b8ebb3	or	x23,x17,x11	 x17:0x80008375 x11:0x00000000 x23=0x80008375
       41315000	      4130	800043ec	02880813	addi	x16,x16,40	 x16:0x80009f48 x16=0x80009f70
       41325000	      4131	800043f0	76c58193	addi	x3,x11,1900	 x11:0x00000000  x3=0x0000076c
       41335000	      4132	800043f4	00108593	addi	x11,x1,1	  x1:0x80001e74 x11=0x80001e75
       41345000	      4133	800043f8	000585e7	jalr	x11,x11,0	 x11:0x80001e75 x11=0x800043f8
       41355000	      4134	00000000	00000013	addi	x0,x0,0	  x0:0x00000000
       41365000	      4135	80001e74	00000013	addi	x0,x0,0	  x0:0x00000000
       41375000	      4136	80001e78	010aa2b3	slt	x5,x21,x16	 x21:0x000006b0 x16:0x80009f70  x5=0x00000000
       41385000	      4137	80001e7c	04f29663	bne	x5,x15,80001ec8	  x5:0x00000000 x15:0x050fc7ff
       41395000	      4138	00000000	00000013	addi	x0,x0,0	  x0:0x00000000
       41405000	      4139	80001ec4	00000013	addi	x0,x0,0	  x0:0x00000000
       41415000	      4140	80001ec8	415581b3	sub	x3,x11,x21	 x11:0x800043f8 x21:0x000006b0  x3=0x80003d48
       41425000	      4141	80001ecc	b0842497	auipc	x9,0xb0842	  x9=0x30843ec8
       41435000	      4142	80001ed0	ebb15637	lui	x12,0xebb15	 x12=0xebb15000
       41445000	      4143	80001ed4	40dfd993	srai	x19,x31,0xd	 x31:0x80000000 x19=0xfffc0000
       41455000	      4144	80001ed8	01444d33	xor	x26,x8,x20	  x8:0x00000040 x20:0x00000001 x26=0x00000041
       41465000	      4145	80001edc	0163b433	sltu	x8,x7,x22	  x7:0x000006b0 x22:0xf0000000  x8=0x00000001
       41475000	      4146	80001ee0	00b3c3b3	xor	x7,x7,x11	  x7:0x000006b0 x11:0x800043f8  x7=0x80004548
       41485000	      4147	80001ee4	01440033	add	x0,x8,x20	  x8:0x00000001 x20:0x00000001
       41495000	      4148	80001ee8	00573f33	sltu	x30,x14,x5	 x14:0x0000b6e7  x5:0x00000000 x30=0x00000000
       41505000	      4149	80001eec	f4df8013	addi	x0,x31,-179	 x31:0x80000000
       41515000	      4150	80001ef0	00fdc863	blt	x27,x15,80001f00	 x27:0x7ffff9f1 x15:0x050fc7ff
       41525000	      4151	80001ef4	0071c933	xor	x18,x3,x7	  x3:0x80003d48  x7:0x80004548 x18=0x00007800
       41535000	      4152	80001ef8	01dcf4b3	and	x9,x25,x29	 x25:0x80009fc4 x29:0x00000000  x9=0x00000000
       41545000	      4153	80001efc	417ed013	srai	x0,x29,0x17	 x29:0x00000000
       41555000	      4154	80001f00	6a30bb93	sltiu	x23,x1,1699	  x1:0x80001e74 x23=0x00000000
       41565000	      4155	80001f04	447fc293	xori	x5,x31,1095	 x31:0x80000000  x5=0x80000447
       41575000	      4156	80001f08	02f16463	bltu	x2,x15,80001f30	  x2:0x800082d6 x15:0x050fc7ff
       41585000	      4157	80001f0c	01035513	srli	x10,x6,0x10	  x6:0xee000000 x10=0x0000ee00
       41595000	      4158	80001f10	a11ec6b7	lui	x13,0xa11ec	 x13=0xa11ec000
       41605000	      4159	80001f14	008383b3	add	x7,x7,x8	  x7:0x80004548  x8:0x00000001  x7=0x80004549
       41615000	      4160	80001f18	00d9eab3	or	x21,x19,x13	 x19:0xfffc0000 x13:0xa11ec000 x21=0xfffec000
       41625000	      4161	80001f1c	40a1d913	srai	x18,x3,0xa	  x3:0x80003d48 x18=0xffe0000f
       41635000	      4162	80001f20	01692133	slt	x2,x18,x22	 x18:0xffe0000f x22:0xf0000000  x2=0x00000000
       41645000	      4163	80001f24	03c85c63	bge	x16,x28,80001f5c	 x16:0x80009f70 x28:0x80008375
       41655000	      4164	00000000	00000013	addi	x0,x0,0	  x0:0x00000000
       41665000	      4165	80001f58	00000013	addi	x0,x0,0	  x0:0x00000000
       41675000	      4166	80001f5c	00c830b3	sltu	x1,x16,x12	 x16:0x80009f70 x12:0xebb15000  x1=0x00000001
       41685000	      4167	80001f60	6eed7793	andi	x15,x26,1774	 x26:0x00000041 x15=0x00000040
       41695000	      4168	80001f64	00ac5663	bge	x24,x10,80001f70	 x24:0x80009fd6 x10:0x0000ee00
       41705000	      4169	80001f68	02609e63	bne	x1,x6,80001fa4	  x1:0x00000001  x6:0xee000000
       41715000	      4170	00000000	00000013	addi	x0,x0,0	  x0:0x00000000
       41725000	      4171	80001fa0	00000013	addi	x0,x0,0	  x0:0x00000000
       41735000	      4172	80001fa4	28ff0493	addi	x9,x30,655	 x30:0x00000000  x9=0x0000028f
       41745000	      4173	80001fa8	40bd0333	sub	x6,x26,x11	 x26:0x00000041 x11:0x800043f8  x6=0x7fffbc49
       41755000	      4174	80001fac	01f0dab3	srl	x21,x1,x31	  x1:0x00000001 x31:0x80000000 x21=0x00000001
       41765000	      4175	80001fb0	02250e63	beq	x10,x2,80001fec	 x10:0x0000ee00  x2:0x00000000
       41775000	      4176	80001fb4	00b8de33	srl	x28,x17,x11	 x17:0x80008375 x11:0x800043f8 x28=0x00000080
       41785000	      4177	80001fb8	2b908193	addi	x3,x1,697	  x1:0x00000001  x3=0x000002ba
       41795000	      4178	80001fbc	00d59d33	sll	x26,x11,x13	 x11:0x800043f8 x13:0xa11ec000 x26=0x800043f8
       41805000	      4179	80001fc0	00dd1db3	sll	x27,x26,x13	 x26:0x800043f8 x13:0xa11ec000 x27=0x800043f8
       41815000	      4180	80001fc4	02f4f863	bgeu	x9,x15,80001ff4	  x9:0x0000028f x15:0x00000040
       41825000	      4181	00000000	00000013	addi	x0,x0,0	  x0:0x00000000
       41835000	      4182	80001ff0	00000013	addi	x0,x0,0	  x0:0x00000000
       41845000	      4183	80001ff4	40425b13	srai	x22,x4,0x4	  x4:0x0000b5d8 x22=0x00000b5d
       41855000	      4184	80001ff8	252ff893	andi	x17,x31,594	 x31:0x80000000 x17=0x00000000
       41865000	      4185	80001ffc	00562f33	slt	x30,x12,x5	 x12:0xebb15000  x5:0x80000447 x30=0x00000000
       41875000	      4186	80002000	010000ef	jal	x1,80002000	  x1=0x80002000
       41885000	      4187	00000000	00000013	addi	x0,x0,0	  x0:0x00000000
       41895000	      4188	8000200c	00000013	addi	x0,x0,0	  x0:0x00000000
       41905000	      4189	80002010	03c0036f	jal	x6,80002010	  x6=0x80002010
       41915000	      4190	00000000	00000013	addi	x0,x0,0	  x0:0x00000000
       41925000	      4191	80002048	00000013	addi	x0,x0,0	  x0:0x00000000
       41935000	      4192	8000204c	fd1ff0ef	jal	x1,8000204c	  x1=0x8000204c
       41945000	      4193	00000000	00000013	addi	x0,x0,0	  x0:0x00000000
       41955000	      4194	80002018	00000013	addi	x0,x0,0	  x0:0x00000000
       41965000	      4195	8000201c	0240036f	jal	x6,8000201c	  x6=0x8000201c
       41975000	      4196	00000000	00000013	addi	x0,x0,0	  x0:0x00000000
       41985000	      4197	8000203c	00000013	addi	x0,x0,0	  x0:0x00000000
       41995000	      4198	80002040	fedff0ef	jal	x1,80002040	  x1=0x80002040
       42005000	      4199	00000000	00000013	addi	x0,x0,0	  x0:0x00000000
       42015000	      4200	80002028	00000013	addi	x0,x0,0	  x0:0x00000000
       42025000	      4201	8000202c	0240096f	jal	x18,8000202c	 x18=0x8000202c
       42035000	      4202	00000000	00000013	addi	x0,x0,0	  x0:0x00000000
       42045000	      4203	8000204c	00000013	addi	x0,x0,0	  x0:0x00000000
       42055000	      4204	80002050	fd9ff0ef	jal	x1,80002050	  x1=0x80002050
       42065000	      4205	00000000	00000013	addi	x0,x0,0	  x0:0x00000000
       42075000	      4206	80002024	00000013	addi	x0,x0,0	  x0:0x00000000
       42085000	      4207	80002028	00c000ef	jal	x1,80002028	  x1=0x80002028
       42095000	      4208	00000000	00000013	addi	x0,x0,0	  x0:0x00000000
       42105000	      4209	80002030	00000013	addi	x0,x0,0	  x0:0x00000000
       42115000	      4210	80002034	ffdff0ef	jal	x1,80002034	  x1=0x80002034
       42125000	      4211	00000000	00000013	addi	x0,x0,0	  x0:0x00000000
       42135000	      4212	8000202c	00000013	addi	x0,x0,0	  x0:0x00000000
       42145000	      4213	80002030	fd9ff0ef	jal	x1,80002030	  x1=0x80002030
       42155000	      4214	00000000	00000013	addi	x0,x0,0	  x0:0x00000000
       42165000	      4215	80002004	00000013	addi	x0,x0,0	  x0:0x00000000
       42175000	      4216	80002008	01c0036f	jal	x6,80002008	  x6=0x80002008
       42185000	      4217	00000000	00000013	addi	x0,x0,0	  x0:0x00000000
       42195000	      4218	80002020	00000013	addi	x0,x0,0	  x0:0x00000000
       42205000	      4219	80002024	ffdff1ef	jal	x3,80002024	  x3=0x80002024
       42215000	      4220	00000000	00000013	addi	x0,x0,0	  x0:0x00000000
       42225000	      4221	8000201c	00000013	addi	x0,x0,0	  x0:0x00000000
       42235000	      4222	80002020	fedff0ef	jal	x1,80002020	  x1=0x80002020
       42245000	      4223	00000000	00000013	addi	x0,x0,0	  x0:0x00000000
       42255000	      4224	80002008	00000013	addi	x0,x0,0	  x0:0x00000000
       42265000	      4225	8000200c	00c0016f	jal	x2,8000200c	  x2=0x8000200c
       42275000	      4226	00000000	00000013	addi	x0,x0,0	  x0:0x00000000
       42285000	      4227	80002014	00000013	addi	x0,x0,0	  x0:0x00000000
       42295000	      4228	80002018	02c002ef	jal	x5,80002018	  x5=0x80002018
       42305000	      4229	00000000	00000013	addi	x0,x0,0	  x0:0x00000000
       42315000	      4230	80002040	00000013	addi	x0,x0,0	  x0:0x00000000
       42325000	      4231	80002044	0040096f	jal	x18,80002044	 x18=0x80002044
       42335000	      4232	00000000	00000013	addi	x0,x0,0	  x0:0x00000000
       42345000	      4233	80002044	00000013	addi	x0,x0,0	  x0:0x00000000
       42355000	      4234	80002048	ff1ff36f	jal	x6,80002048	  x6=0x80002048
       42365000	      4235	00000000	00000013	addi	x0,x0,0	  x0:0x00000000
       42375000	      4236	80002034	00000013	addi	x0,x0,0	  x0:0x00000000
       42385000	      4237	80002038	fddff0ef	jal	x1,80002038	  x1=0x80002038
       42395000	      4238	00000000	00000013	addi	x0,x0,0	  x0:0x00000000
       42405000	      4239	80002010	00000013	addi	x0,x0,0	  x0:0x00000000
       42415000	      4240	80002014	028000ef	jal	x1,80002014	  x1=0x80002014
       42425000	      4241	00000000	00000013	addi	x0,x0,0	  x0:0x00000000
       42435000	      4242	80002038	00000013	addi	x0,x0,0	  x0:0x00000000
       42445000	      4243	8000203c	fc9ff0ef	jal	x1,8000203c	  x1=0x8000203c
       42455000	      4244	00000000	00000013	addi	x0,x0,0	  x0:0x00000000
       42465000	      4245	80002000	00000013	addi	x0,x0,0	  x0:0x00000000
       42475000	      4246	80002004	05000a6f	jal	x20,80002004	 x20=0x80002004
       42485000	      4247	00000000	00000013	addi	x0,x0,0	  x0:0x00000000
       42495000	      4248	80002050	00000013	addi	x0,x0,0	  x0:0x00000000
       42505000	      4249	80002054	86d1fa17	auipc	x20,0x86d1f	 x20=0x06d21050
       42515000	      4250	80002058	02c48a63	beq	x9,x12,8000208c	  x9:0x0000028f x12:0xebb15000
       42525000	      4251	8000205c	8323b337	lui	x6,0x8323b	  x6=0x8323b000
       42535000	      4252	80002060	010f7a63	bgeu	x30,x16,80002074	 x30:0x00000000 x16:0x80009f70
       42545000	      4253	80002064	da3a4b13	xori	x22,x20,-605	 x20:0x06d21050 x22=0xf92dedf3
       42555000	      4254	80002068	04c55463	bge	x10,x12,800020b0	 x10:0x0000ee00 x12:0xebb15000
       42565000	      4255	00000000	00000013	addi	x0,x0,0	  x0:0x00000000
       42575000	      4256	800020ac	00000013	addi	x0,x0,0	  x0:0x00000000
       42585000	      4257	800020b0	b9a8bc13	sltiu	x24,x17,-1126	 x17:0x00000000 x24=0x00000001
       42595000	      4258	800020b4	01e11f33	sll	x30,x2,x30	  x2:0x8000200c x30:0x00000000 x30=0x8000200c
       42605000	      4259	800020b8	40f00533	sub	x10,x0,x15	  x0:0x00000000 x15:0x00000040 x10=0xffffffc0
       42615000	      4260	800020bc	416e8233	sub	x4,x29,x22	 x29:0x00000000 x22:0xf92dedf3  x4=0x06d2120d
       42625000	      4261	800020c0	00b5ee63	bltu	x11,x11,800020dc	 x11:0x800043f8 x11:0x800043f8
       42635000	      4262	800020c4	05cb1463	bne	x22,x28,8000210c	 x22:0xf92dedf3 x28:0x00000080
       42645000	      4263	00000000	00000013	addi	x0,x0,0	  x0:0x00000000
       42655000	      4264	80002108	00000013	addi	x0,x0,0	  x0:0x00000000
       42665000	      4265	8000210c	f6aafd13	andi	x26,x21,-150	 x21:0x00000001 x26=0x00000000
       42675000	      4266	80002110	00cd85b3	add	x11,x27,x12	 x27:0x800043f8 x12:0xebb15000 x11=0x6bb193f8
       42685000	      4267	80002114	40a70bb3	sub	x23,x14,x10	 x14:0x0000b6e7 x10:0xffffffc0 x23=0x0000b727
       42695000	      4268	80002118	0080d033	srl	x0,x1,x8	  x1:0x8000203c  x8:0x00000001
       42705000	      4269	8000211c	00865133	srl	x2,x12,x8	 x12:0xebb15000  x8:0x00000001  x2=0x75d8a800
       42715000	      4270	80002120	0135a033	slt	x0,x11,x19	 x11:0x6bb193f8 x19:0xfffc0000
       42725000	      4271	80002124	a7287b13	andi	x22,x16,-1422	 x16:0x80009f70 x22=0x80009a70
       42735000	      4272	80002128	416c0333	sub	x6,x24,x22	 x24:0x00000001 x22:0x80009a70  x6=0x7fff6591
       42745000	      4273	8000212c	01951863	bne	x10,x25,8000213c	 x10:0xffffffc0 x25:0x80009fc4
       42755000	      4274	00000000	00000013	addi	x0,x0,0	  x0:0x00000000
       42765000	      4275	80002138	00000013	addi	x0,x0,0	  x0:0x00000000
       42775000	      4276	8000213c	05d51863	bne	x10,x29,8000218c	 x10:0xffffffc0 x29:0x00000000
       42785000	      4277	00000000	00000013	addi	x0,x0,0	  x0:0x00000000
       42795000	      4278	80002188	00000013	addi	x0,x0,0	  x0:0x00000000
       42805000	      4279	8000218c	015fdd33	srl	x26,x31,x21	 x31:0x80000000 x21:0x00000001 x26=0x40000000
       42815000	      4280	80002190	01b0b933	sltu	x18,x1,x27	  x1:0x8000203c x27:0x800043f8 x18=0x00000001
       42825000	      4281	80002194	4a5e3993	sltiu	x19,x28,1189	 x28:0x00000080 x19=0x00000001
       42835000	      4282	80002198	730bf713	andi	x14,x23,1840	 x23:0x0000b727 x14=0x00000720
       42845000	      4283	8000219c	03857c63	bgeu	x10,x24,800021d4	 x10:0xffffffc0 x24:0x00000001
       42855000	      4284	00000000	00000013	addi	x0,x0,0	  x0:0x00000000
       42865000	      4285	800021d0	00000013	addi	x0,x0,0	  x0:0x00000000
       42875000	      4286	800021d4	009e56b3	srl	x13,x28,x9	 x28:0x00000080  x9:0x0000028f x13=0x00000000
       42885000	      4287	800021d8	06c19e63	bne	x3,x12,80002254	  x3:0x80002024 x12:0xebb15000
       42895000	      4288	00000000	00000013	addi	x0,x0,0	  x0:0x00000000
       42905000	      4289	80002250	00000013	addi	x0,x0,0	  x0:0x00000000
       42915000	      4290	80002254	40660133	sub	x2,x12,x6	 x12:0xebb15000  x6:0x7fff6591  x2=0x6bb1ea6f
       42925000	      4291	80002258	0191f533	and	x10,x3,x25	  x3:0x80002024 x25:0x80009fc4 x10=0x80000004
       42935000	      4292	8000225c	01e60e33	add	x28,x12,x30	 x12:0xebb15000 x30:0x8000200c x28=0x6bb1700c
       42945000	      4293	80002260	01d3f733	and	x14,x7,x29	  x7:0x80004549 x29:0x00000000 x14=0x00000000
       42955000	      4294	80002264	01ff72b3	and	x5,x30,x31	 x30:0x8000200c x31:0x80000000  x5=0x80000000
       42965000	      4295	80002268	96b93e93	sltiu	x29,x18,-1685	 x18:0x00000001 x29=0x00000001
       42975000	      4296	8000226c	01656a63	bltu	x10,x22,80002280	 x10:0x80000004 x22:0x80009a70
       42985000	      4297	00000000	00000013	addi	x0,x0,0	  x0:0x00000000
       42995000	      4298	8000227c	00000013	addi	x0,x0,0	  x0:0x00000000
       43005000	      4299	80002280	8de59437	lui	x8,0x8de59	  x8=0x8de59000
       43015000	      4300	80002284	03608c63	beq	x1,x22,800022bc	  x1:0x8000203c x22:0x80009a70
       43025000	      4301	80002288	1d6b6313	ori	x6,x22,470	 x22:0x80009a70  x6=0x80009bf6
       43035000	      4302	8000228c	403c5d33	sra	x26,x24,x3	 x24:0x00000001  x3:0x80002024 x26=0x00000000
       43045000	      4303	80002290	0099d913	srli	x18,x19,0x9	 x19:0x00000001 x18=0x00000000
       43055000	      4304	80002294	01f3fdb3	and	x27,x7,x31	  x7:0x80004549 x31:0x80000000 x27=0x80000000
       43065000	      4305	80002298	00ccf5b3	and	x11,x25,x12	 x25:0x80009fc4 x12:0xebb15000 x11=0x80001000
       43075000	      4306	8000229c	0133ebb3	or	x23,x7,x19	  x7:0x80004549 x19:0x00000001 x23=0x80004549
       43085000	      4307	800022a0	c1380713	addi	x14,x16,-1005	 x16:0x80009f70 x14=0x80009b83
       43095000	      4308	800022a4	01d89a13	slli	x20,x17,0x1d	 x17:0x00000000 x20=0x00000000
       43105000	      4309	800022a8	0101b733	sltu	x14,x3,x16	  x3:0x80002024 x16:0x80009f70 x14=0x00000001
       43115000	      4310	800022ac	006e9e93	slli	x29,x29,0x6	 x29:0x00000001 x29=0x00000040
       43125000	      4311	800022b0	01b89713	slli	x14,x17,0x1b	 x17:0x00000000 x14=0x00000000
       43135000	      4312	800022b4	40c9d633	sra	x12,x19,x12	 x19:0x00000001 x12:0xebb15000 x12=0x00000001
       43145000	      4313	800022b8	00e5e4b3	or	x9,x11,x14	 x11:0x80001000 x14:0x00000000  x9=0x80001000
       43155000	      4314	800022bc	014292b3	sll	x5,x5,x20	  x5:0x80000000 x20:0x00000000  x5=0x80000000
       43165000	      4315	800022c0	43830593	addi	x11,x6,1080	  x6:0x80009bf6 x11=0x8000a02e
       43175000	      4316	800022c4	f25aed93	ori	x27,x21,-219	 x21:0x00000001 x27=0xffffff25
       43185000	      4317	800022c8	00444663	blt	x8,x4,800022d4	  x8:0x8de59000  x4:0x06d2120d
       43195000	      4318	00000000	00000013	addi	x0,x0,0	  x0:0x00000000
       43205000	      4319	800022d0	00000013	addi	x0,x0,0	  x0:0x00000000
       43215000	      4320	800022d4	00a40a63	beq	x8,x10,800022e8	  x8:0x8de59000 x10:0x80000004
       43225000	      4321	800022d8	00c25f33	srl	x30,x4,x12	  x4:0x06d2120d x12:0x00000001 x30=0x03690906
       43235000	      4322	800022dc	a658bd13	sltiu	x26,x17,-1435	 x17:0x00000000 x26=0x00000001
       43245000	      4323	800022e0	00ef1593	slli	x11,x30,0xe	 x30:0x03690906 x11=0x42418000
       43255000	      4324	800022e4	02c3f863	bgeu	x7,x12,80002314	  x7:0x80004549 x12:0x00000001
       43265000	      4325	00000000	00000013	addi	x0,x0,0	  x0:0x00000000
       43275000	      4326	80002310	00000013	addi	x0,x0,0	  x0:0x00000000
       43285000	      4327	80002314	010abeb3	sltu	x29,x21,x16	 x21:0x00000001 x16:0x80009f70 x29=0x00000001
       43295000	      4328	80002318	010000ef	jal	x1,80002318	  x1=0x80002318
       43305000	      4329	00000000	00000013	addi	x0,x0,0	  x0:0x00000000
       43315000	      4330	80002324	00000013	addi	x0,x0,0	  x0:0x00000000
       43325000	      4331	80002328	00c0056f	jal	x10,80002328	 x10=0x80002328
       43335000	      4332	00000000	00000013	addi	x0,x0,0	  x0:0x00000000
       43345000	      4333	80002330	00000013	addi	x0,x0,0	  x0:0x00000000
       43355000	      4334	80002334	00c0036f	jal	x6,80002334	  x6=0x80002334
       43365000	      4335	00000000	00000013	addi	x0,x0,0	  x0:0x00000000
       43375000	      4336	8000233c	00000013	addi	x0,x0,0	  x0:0x00000000
       43385000	      4337	80002340	ff9ff36f	jal	x6,80002340	  x6=0x80002340
       43395000	      4338	00000000	00000013	addi	x0,x0,0	  x0:0x00000000
       43405000	      4339	80002334	00000013	addi	x0,x0,0	  x0:0x00000000
       43415000	      4340	80002338	fe5ff0ef	jal	x1,80002338	  x1=0x80002338
       43425000	      4341	00000000	00000013	addi	x0,x0,0	  x0:0x00000000
       43435000	      4342	80002318	00000013	addi	x0,x0,0	  x0:0x00000000
       43445000	      4343	8000231c	0100046f	jal	x8,8000231c	  x8=0x8000231c
       43455000	      4344	00000000	00000013	addi	x0,x0,0	  x0:0x00000000
       43465000	      4345	80002328	00000013	addi	x0,x0,0	  x0:0x00000000
       43475000	      4346	8000232c	ff5ff0ef	jal	x1,8000232c	  x1=0x8000232c
       43485000	      4347	00000000	00000013	addi	x0,x0,0	  x0:0x00000000
       43495000	      4348	8000231c	00000013	addi	x0,x0,0	  x0:0x00000000
       43505000	      4349	80002320	010000ef	jal	x1,80002320	  x1=0x80002320
       43515000	      4350	00000000	00000013	addi	x0,x0,0	  x0:0x00000000
       43525000	      4351	8000232c	00000013	addi	x0,x0,0	  x0:0x00000000
       43535000	      4352	80002330	00c000ef	jal	x1,80002330	  x1=0x80002330
       43545000	      4353	00000000	00000013	addi	x0,x0,0	  x0:0x00000000
       43555000	      4354	80002338	00000013	addi	x0,x0,0	  x0:0x00000000
       43565000	      4355	8000233c	008000ef	jal	x1,8000233c	  x1=0x8000233c
       43575000	      4356	00000000	00000013	addi	x0,x0,0	  x0:0x00000000
       43585000	      4357	80002340	00000013	addi	x0,x0,0	  x0:0x00000000
       43595000	      4358	80002344	fe1ff0ef	jal	x1,80002344	  x1=0x80002344
       43605000	      4359	00000000	00000013	addi	x0,x0,0	  x0:0x00000000
       43615000	      4360	80002320	00000013	addi	x0,x0,0	  x0:0x00000000
       43625000	      4361	80002324	0240026f	jal	x4,80002324	  x4=0x80002324
       43635000	      4362	00000000	00000013	addi	x0,x0,0	  x0:0x00000000
       43645000	      4363	80002344	00000013	addi	x0,x0,0	  x0:0x00000000
       43655000	      4364	80002348	00768233	add	x4,x13,x7	 x13:0x00000000  x7:0x80004549  x4=0x80004549
       43665000	      4365	8000234c	017f3333	sltu	x6,x30,x23	 x30:0x03690906 x23:0x80004549  x6=0x00000001
       43675000	      4366	80002350	00cc9ab3	sll	x21,x25,x12	 x25:0x80009fc4 x12:0x00000001 x21=0x00013f88
       43685000	      4367	80002354	00000013	addi	x0,x0,0	  x0:0x00000000
       43695000	      4368	80002358	4146d433	sra	x8,x13,x20	 x13:0x00000000 x20:0x00000000  x8=0x00000000
       43705000	      4369	8000235c	c5412313	slti	x6,x2,-940	  x2:0x6bb1ea6f  x6=0x00000000
       43715000	      4370	80002360	060000ef	jal	x1,80002360	  x1=0x80002360
       43725000	      4371	00000000	00000013	addi	x0,x0,0	  x0:0x00000000
       43735000	      4372	800023bc	00000013	addi	x0,x0,0	  x0:0x00000000
       43745000	      4373	800023c0	ff9ff36f	jal	x6,800023c0	  x6=0x800023c0
       43755000	      4374	00000000	00000013	addi	x0,x0,0	  x0:0x00000000
       43765000	      4375	800023b4	00000013	addi	x0,x0,0	  x0:0x00000000
       43775000	      4376	800023b8	fb9ff0ef	jal	x1,800023b8	  x1=0x800023b8
       43785000	      4377	00000000	00000013	addi	x0,x0,0	  x0:0x00000000
       43795000	      4378	8000236c	00000013	addi	x0,x0,0	  x0:0x00000000
       43805000	      4379	80002370	04c000ef	jal	x1,80002370	  x1=0x80002370
       43815000	      4380	00000000	00000013	addi	x0,x0,0	  x0:0x00000000
       43825000	      4381	800023b8	00000013	addi	x0,x0,0	  x0:0x00000000
       43835000	      4382	800023bc	fadff0ef	jal	x1,800023bc	  x1=0x800023bc
       43845000	      4383	00000000	00000013	addi	x0,x0,0	  x0:0x00000000
       43855000	      4384	80002364	00000013	addi	x0,x0,0	  x0:0x00000000
       43865000	      4385	80002368	0380036f	jal	x6,80002368	  x6=0x80002368
       43875000	      4386	00000000	00000013	addi	x0,x0,0	  x0:0x00000000
       43885000	      4387	8000239c	00000013	addi	x0,x0,0	  x0:0x00000000
       43895000	      4388	800023a0	fe9ff36f	jal	x6,800023a0	  x6=0x800023a0
       43905000	      4389	00000000	00000013	addi	x0,x0,0	  x0:0x00000000
       43915000	      4390	80002384	00000013	addi	x0,x0,0	  x0:0x00000000
       43925000	      4391	80002388	ffdff1ef	jal	x3,80002388	  x3=0x80002388
       43935000	      4392	00000000	00000013	addi	x0,x0,0	  x0:0x00000000
       43945000	      4393	80002380	00000013	addi	x0,x0,0	  x0:0x00000000
       43955000	      4394	80002384	0200036f	jal	x6,80002384	  x6=0x80002384
       43965000	      4395	00000000	00000013	addi	x0,x0,0	  x0:0x00000000
       43975000	      4396	800023a0	00000013	addi	x0,x0,0	  x0:0x00000000
       43985000	      4397	800023a4	fc9ff0ef	jal	x1,800023a4	  x1=0x800023a4
       43995000	      4398	00000000	00000013	addi	x0,x0,0	  x0:0x00000000
       44005000	      4399	80002368	00000013	addi	x0,x0,0	  x0:0x00000000
       44015000	      4400	8000236c	03c000ef	jal	x1,8000236c	  x1=0x8000236c
       44025000	      4401	00000000	00000013	addi	x0,x0,0	  x0:0x00000000
       44035000	      4402	800023a4	00000013	addi	x0,x0,0	  x0:0x00000000
       44045000	      4403	800023a8	ff5ff0ef	jal	x1,800023a8	  x1=0x800023a8
       44055000	      4404	00000000	00000013	addi	x0,x0,0	  x0:0x00000000
       44065000	      4405	80002398	00000013	addi	x0,x0,0	  x0:0x00000000
       44075000	      4406	8000239c	010000ef	jal	x1,8000239c	  x1=0x8000239c
       44085000	      4407	00000000	00000013	addi	x0,x0,0	  x0:0x00000000
       44095000	      4408	800023a8	00000013	addi	x0,x0,0	  x0:0x00000000
       44105000	      4409	800023ac	fcdff0ef	jal	x1,800023ac	  x1=0x800023ac
       44115000	      4410	00000000	00000013	addi	x0,x0,0	  x0:0x00000000
       44125000	      4411	80002374	00000013	addi	x0,x0,0	  x0:0x00000000
       44135000	      4412	80002378	fedff9ef	jal	x19,80002378	 x19=0x80002378
       44145000	      4413	00000000	00000013	addi	x0,x0,0	  x0:0x00000000
       44155000	      4414	80002360	00000013	addi	x0,x0,0	  x0:0x00000000
       44165000	      4415	80002364	034000ef	jal	x1,80002364	  x1=0x80002364
       44175000	      4416	00000000	00000013	addi	x0,x0,0	  x0:0x00000000
       44185000	      4417	80002394	00000013	addi	x0,x0,0	  x0:0x00000000
       44195000	      4418	80002398	ff9ff36f	jal	x6,80002398	  x6=0x80002398
       44205000	      4419	00000000	00000013	addi	x0,x0,0	  x0:0x00000000
       44215000	      4420	8000238c	00000013	addi	x0,x0,0	  x0:0x00000000
       44225000	      4421	80002390	ffdff26f	jal	x4,80002390	  x4=0x80002390
       44235000	      4422	00000000	00000013	addi	x0,x0,0	  x0:0x00000000
       44245000	      4423	80002388	00000013	addi	x0,x0,0	  x0:0x00000000
       44255000	      4424	8000238c	03c000ef	jal	x1,8000238c	  x1=0x8000238c
       44265000	      4425	00000000	00000013	addi	x0,x0,0	  x0:0x00000000
       44275000	      4426	800023c4	00000013	addi	x0,x0,0	  x0:0x00000000
       44285000	      4427	800023c8	fb9ffe6f	jal	x28,800023c8	 x28=0x800023c8
       44295000	      4428	00000000	00000013	addi	x0,x0,0	  x0:0x00000000
       44305000	      4429	8000237c	00000013	addi	x0,x0,0	  x0:0x00000000
       44315000	      4430	80002380	ff5ffbef	jal	x23,80002380	 x23=0x80002380
       44325000	      4431	00000000	00000013	addi	x0,x0,0	  x0:0x00000000
       44335000	      4432	80002370	00000013	addi	x0,x0,0	  x0:0x00000000
       44345000	      4433	80002374	020000ef	jal	x1,80002374	  x1=0x80002374
       44355000	      4434	00000000	00000013	addi	x0,x0,0	  x0:0x00000000
       44365000	      4435	80002390	00000013	addi	x0,x0,0	  x0:0x00000000
       44375000	      4436	80002394	030000ef	jal	x1,80002394	  x1=0x80002394
       44385000	      4437	00000000	00000013	addi	x0,x0,0	  x0:0x00000000
       44395000	      4438	800023c0	00000013	addi	x0,x0,0	  x0:0x00000000
       44405000	      4439	800023c4	fb9ff36f	jal	x6,800023c4	  x6=0x800023c4
       44415000	      4440	00000000	00000013	addi	x0,x0,0	  x0:0x00000000
       44425000	      4441	80002378	00000013	addi	x0,x0,0	  x0:0x00000000
       44435000	      4442	8000237c	034000ef	jal	x1,8000237c	  x1=0x8000237c
       44445000	      4443	00000000	00000013	addi	x0,x0,0	  x0:0x00000000
       44455000	      4444	800023ac	00000013	addi	x0,x0,0	  x0:0x00000000
       44465000	      4445	800023b0	004000ef	jal	x1,800023b0	  x1=0x800023b0
       44475000	      4446	00000000	00000013	addi	x0,x0,0	  x0:0x00000000
       44485000	      4447	800023b0	00000013	addi	x0,x0,0	  x0:0x00000000
       44495000	      4448	800023b4	0180026f	jal	x4,800023b4	  x4=0x800023b4
       44505000	      4449	00000000	00000013	addi	x0,x0,0	  x0:0x00000000
       44515000	      4450	800023c8	00000013	addi	x0,x0,0	  x0:0x00000000
       44525000	      4451	800023cc	0150c433	xor	x8,x1,x21	  x1:0x800023b0 x21:0x00013f88  x8=0x80011c38
       44535000	      4452	800023d0	1d23d0b7	lui	x1,0x1d23d	  x1=0x1d23d000
       44545000	      4453	800023d4	00c11663	bne	x2,x12,800023e0	  x2:0x6bb1ea6f x12:0x00000001
       44555000	      4454	00000000	00000013	addi	x0,x0,0	  x0:0x00000000
       44565000	      4455	800023dc	00000013	addi	x0,x0,0	  x0:0x00000000
       44575000	      4456	800023e0	01e4f233	and	x4,x9,x30	  x9:0x80001000 x30:0x03690906  x4=0x00000000
       44585000	      4457	800023e4	c2d00513	addi	x10,x0,-979	  x0:0x00000000 x10=0xfffffc2d
       44595000	      4458	800023e8	4152d7b3	sra	x15,x5,x21	  x5:0x80000000 x21:0x00013f88 x15=0xff800000
       44605000	      4459	800023ec	4455fd93	andi	x27,x11,1093	 x11:0x42418000 x27=0x00000000
       44615000	      4460	800023f0	05839463	bne	x7,x24,80002438	  x7:0x80004549 x24:0x00000001
       44625000	      4461	00000000	00000013	addi	x0,x0,0	  x0:0x00000000
       44635000	      4462	80002434	00000013	addi	x0,x0,0	  x0:0x00000000
       44645000	      4463	80002438	0087feb3	and	x29,x15,x8	 x15:0xff800000  x8:0x80011c38 x29=0x80000000
       44655000	      4464	8000243c	40c65013	srai	x0,x12,0xc	 x12:0x00000001
       44665000	      4465	80002440	0003fb33	and	x22,x7,x0	  x7:0x80004549  x0:0x00000000 x22=0x00000000
       44675000	      4466	80002444	032a0263	beq	x20,x18,80002468	 x20:0x00000000 x18:0x00000000
       44685000	      4467	00000000	00000013	addi	x0,x0,0	  x0:0x00000000
       44695000	      4468	80002464	00000013	addi	x0,x0,0	  x0:0x00000000
       44705000	      4469	80002468	00ddfd33	and	x26,x27,x13	 x27:0x00000000 x13:0x00000000 x26=0x00000000
       44715000	      4470	8000246c	0264ce63	blt	x9,x6,800024a8	  x9:0x80001000  x6:0x800023c4
       44725000	      4471	00000000	00000013	addi	x0,x0,0	  x0:0x00000000
       44735000	      4472	800024a4	00000013	addi	x0,x0,0	  x0:0x00000000
       44745000	      4473	800024a8	ef958a13	addi	x20,x11,-263	 x11:0x42418000 x20=0x42417ef9
       44755000	      4474	800024ac	04fcc463	blt	x25,x15,800024f4	 x25:0x80009fc4 x15:0xff800000
       44765000	      4475	00000000	00000013	addi	x0,x0,0	  x0:0x00000000
       44775000	      4476	800024f0	00000013	addi	x0,x0,0	  x0:0x00000000
       44785000	      4477	800024f4	41745013	srai	x0,x8,0x17	  x8:0x80011c38
       44795000	      4478	800024f8	288f3317	auipc	x6,0x288f3	  x6=0xa88f54f4
       44805000	      4479	800024fc	736aac13	slti	x24,x21,1846	 x21:0x00013f88 x24=0x00000000
       44815000	      4480	80002500	0090dbb3	srl	x23,x1,x9	  x1:0x1d23d000  x9:0x80001000 x23=0x1d23d000
       44825000	      4481	80002504	01d47d33	and	x26,x8,x29	  x8:0x80011c38 x29:0x80000000 x26=0x80000000
       44835000	      4482	80002508	0131e1b3	or	x3,x3,x19	  x3:0x80002388 x19:0x80002378  x3=0x800023f8
       44845000	      4483	8000250c	01b257b3	srl	x15,x4,x27	  x4:0x00000000 x27:0x00000000 x15=0x00000000
       44855000	      4484	80002510	00f30463	beq	x6,x15,80002518	  x6:0xa88f54f4 x15:0x00000000
       44865000	      4485	80002514	00dd1c63	bne	x26,x13,8000252c	 x26:0x80000000 x13:0x00000000
       44875000	      4486	00000000	00000013	addi	x0,x0,0	  x0:0x00000000
       44885000	      4487	80002528	00000013	addi	x0,x0,0	  x0:0x00000000
       44895000	      4488	8000252c	0125ce33	xor	x28,x11,x18	 x11:0x42418000 x18:0x00000000 x28=0x42418000
       44905000	      4489	80002530	4140d5b3	sra	x11,x1,x20	  x1:0x1d23d000 x20:0x42417ef9 x11=0x0000000e
       44915000	      4490	80002534	40bede93	srai	x29,x29,0xb	 x29:0x80000000 x29=0xfff00000
       44925000	      4491	80002538	028f0e63	beq	x30,x8,80002574	 x30:0x03690906  x8:0x80011c38
       44935000	      4492	8000253c	1b38f393	andi	x7,x17,435	 x17:0x00000000  x7=0x00000000
       44945000	      4493	80002540	00431c63	bne	x6,x4,80002558	  x6:0xa88f54f4  x4:0x00000000
       44955000	      4494	00000000	00000013	addi	x0,x0,0	  x0:0x00000000
       44965000	      4495	80002554	00000013	addi	x0,x0,0	  x0:0x00000000
       44975000	      4496	80002558	f3b66a93	ori	x21,x12,-197	 x12:0x00000001 x21=0xffffff3b
       44985000	      4497	8000255c	8d4f4e13	xori	x28,x30,-1836	 x30:0x03690906 x28=0xfc96f1d2
       44995000	      4498	80002560	00fe9bb3	sll	x23,x29,x15	 x29:0xfff00000 x15:0x00000000 x23=0xfff00000
       45005000	      4499	80002564	20ef4897	auipc	x17,0x20ef4	 x17=0xa0ef6560
       45015000	      4500	80002568	00261f33	sll	x30,x12,x2	 x12:0x00000001  x2:0x6bb1ea6f x30=0x00008000
       45025000	      4501	8000256c	00bdc3b3	xor	x7,x27,x11	 x27:0x00000000 x11:0x0000000e  x7=0x0000000e
       45035000	      4502	80002570	022c9863	bne	x25,x2,800025a0	 x25:0x80009fc4  x2:0x6bb1ea6f
       45045000	      4503	00000000	00000013	addi	x0,x0,0	  x0:0x00000000
       45055000	      4504	8000259c	00000013	addi	x0,x0,0	  x0:0x00000000
       45065000	      4505	800025a0	01021d33	sll	x26,x4,x16	  x4:0x00000000 x16:0x80009f70 x26=0x00000000
       45075000	      4506	800025a4	003138b3	sltu	x17,x2,x3	  x2:0x6bb1ea6f  x3:0x800023f8 x17=0x00000001
       45085000	      4507	800025a8	01581e33	sll	x28,x16,x21	 x16:0x80009f70 x21:0xffffff3b x28=0x80000000
       45095000	      4508	800025ac	05bc6463	bltu	x24,x27,800025f4	 x24:0x00000000 x27:0x00000000
       45105000	      4509	800025b0	032a7e63	bgeu	x20,x18,800025ec	 x20:0x42417ef9 x18:0x00000000
       45115000	      4510	00000000	00000013	addi	x0,x0,0	  x0:0x00000000
       45125000	      4511	800025e8	00000013	addi	x0,x0,0	  x0:0x00000000
       45135000	      4512	800025ec	00000013	addi	x0,x0,0	  x0:0x00000000
       45145000	      4513	800025f0	fadfb917	auipc	x18,0xfadfb	 x18=0x7adfd5ec
       45155000	      4514	800025f4	011197b3	sll	x15,x3,x17	  x3:0x800023f8 x17:0x00000001 x15=0x000047f0
       45165000	      4515	800025f8	01b517b3	sll	x15,x10,x27	 x10:0xfffffc2d x27:0x00000000 x15=0xfffffc2d
       45175000	      4516	800025fc	0364fa63	bgeu	x9,x22,80002630	  x9:0x80001000 x22:0x00000000
       45185000	      4517	00000000	00000013	addi	x0,x0,0	  x0:0x00000000
       45195000	      4518	8000262c	00000013	addi	x0,x0,0	  x0:0x00000000
       45205000	      4519	80002630	4093d733	sra	x14,x7,x9	  x7:0x0000000e  x9:0x80001000 x14=0x0000000e
       45215000	      4520	80002634	be114113	xori	x2,x2,-1055	  x2:0x6bb1ea6f  x2=0x944e118e
       45225000	      4521	80002638	004e8f33	add	x30,x29,x4	 x29:0xfff00000  x4:0x00000000 x30=0xfff00000
       45235000	      4522	8000263c	04ae5463	bge	x28,x10,80002684	 x28:0x80000000 x10:0xfffffc2d
       45245000	      4523	80002640	00496c63	bltu	x18,x4,80002658	 x18:0x7adfd5ec  x4:0x00000000
       45255000	      4524	80002644	016ede33	srl	x28,x29,x22	 x29:0xfff00000 x22:0x00000000 x28=0xfff00000
       45265000	      4525	80002648	05c3c463	blt	x7,x28,80002690	  x7:0x0000000e x28:0xfff00000
       45275000	      4526	8000264c	5fd34893	xori	x17,x6,1533	  x6:0xa88f54f4 x17=0xa88f5109
       45285000	      4527	80002650	019cda63	bge	x25,x25,80002664	 x25:0x80009fc4 x25:0x80009fc4
       45295000	      4528	00000000	00000013	addi	x0,x0,0	  x0:0x00000000
       45305000	      4529	80002660	00000013	addi	x0,x0,0	  x0:0x00000000
       45315000	      4530	80002664	00b1c663	blt	x3,x11,80002670	  x3:0x800023f8 x11:0x0000000e
       45325000	      4531	00000000	00000013	addi	x0,x0,0	  x0:0x00000000
       45335000	      4532	8000266c	00000013	addi	x0,x0,0	  x0:0x00000000
       45345000	      4533	80002670	00b9a433	slt	x8,x19,x11	 x19:0x80002378 x11:0x0000000e  x8=0x00000001
       45355000	      4534	80002674	01289c33	sll	x24,x17,x18	 x17:0xa88f5109 x18:0x7adfd5ec x24=0xf5109000
       45365000	      4535	80002678	40575393	srai	x7,x14,0x5	 x14:0x0000000e  x7=0x00000000
       45375000	      4536	8000267c	e80f6593	ori	x11,x30,-384	 x30:0xfff00000 x11=0xfffffe80
       45385000	      4537	80002680	05931863	bne	x6,x25,800026d0	  x6:0xa88f54f4 x25:0x80009fc4
       45395000	      4538	00000000	00000013	addi	x0,x0,0	  x0:0x00000000
       45405000	      4539	800026cc	00000013	addi	x0,x0,0	  x0:0x00000000
       45415000	      4540	800026d0	0088d933	srl	x18,x17,x8	 x17:0xa88f5109  x8:0x00000001 x18=0x5447a884
       45425000	      4541	800026d4	4440b517	auipc	x10,0x4440b	 x10=0xc440d6d0
       45435000	      4542	800026d8	dbb2f217	auipc	x4,0xdbb2f	  x4=0x5bb316d4
       45445000	      4543	800026dc	02959037	lui	x0,0x2959	
       45455000	      4544	800026e0	00000013	addi	x0,x0,0	  x0:0x00000000
       45465000	      4545	800026e4	dcdc4713	xori	x14,x24,-563	 x24:0xf5109000 x14=0x0aef6dcd
       45475000	      4546	800026e8	068c8893	addi	x17,x25,104	 x25:0x80009fc4 x17=0x8000a02c
       45485000	      4547	800026ec	00000013	addi	x0,x0,0	  x0:0x00000000
       45495000	      4548	800026f0	010da993	slti	x19,x27,16	 x27:0x00000000 x19=0x00000001
       45505000	      4549	800026f4	013e2333	slt	x6,x28,x19	 x28:0xfff00000 x19:0x00000001  x6=0x00000001
       45515000	      4550	800026f8	0094ea63	bltu	x9,x9,8000270c	  x9:0x80001000  x9:0x80001000
       45525000	      4551	800026fc	00e54db3	xor	x27,x10,x14	 x10:0xc440d6d0 x14:0x0aef6dcd x27=0xceafbb1d
       45535000	      4552	80002700	04e50463	beq	x10,x14,80002748	 x10:0xc440d6d0 x14:0x0aef6dcd
       45545000	      4553	80002704	025fdc63	bge	x31,x5,8000273c	 x31:0x80000000  x5:0x80000000
       45555000	      4554	00000000	00000013	addi	x0,x0,0	  x0:0x00000000
       45565000	      4555	80002738	00000013	addi	x0,x0,0	  x0:0x00000000
       45575000	      4556	8000273c	01c886b3	add	x13,x17,x28	 x17:0x8000a02c x28:0xfff00000 x13=0x7ff0a02c
       45585000	      4557	80002740	01b79313	slli	x6,x15,0x1b	 x15:0xfffffc2d  x6=0x68000000
       45595000	      4558	80002744	bffdc913	xori	x18,x27,-1025	 x27:0xceafbb1d x18=0x315040e2
       45605000	      4559	80002748	030a6a63	bltu	x20,x16,8000277c	 x20:0x42417ef9 x16:0x80009f70
       45615000	      4560	00000000	00000013	addi	x0,x0,0	  x0:0x00000000
       45625000	      4561	80002778	00000013	addi	x0,x0,0	  x0:0x00000000
       45635000	      4562	8000277c	03ee6e63	bltu	x28,x30,800027b8	 x28:0xfff00000 x30:0xfff00000
       45645000	      4563	80002780	00232333	slt	x6,x6,x2	  x6:0x68000000  x2:0x944e118e  x6=0x00000000
       45655000	      4564	80002784	195ce293	ori	x5,x25,405	 x25:0x80009fc4  x5=0x80009fd5
       45665000	      4565	80002788	04e90863	beq	x18,x14,800027d8	 x18:0x315040e2 x14:0x0aef6dcd
       45675000	      4566	8000278c	d5706993	ori	x19,x0,-681	  x0:0x00000000 x19=0xfffffd57
       45685000	      4567	80002790	faeb8213	addi	x4,x23,-82	 x23:0xfff00000  x4=0xffefffae
       45695000	      4568	80002794	a280c793	xori	x15,x1,-1496	  x1:0x1d23d000 x15=0xe2dc2a28
       45705000	      4569	80002798	96621217	auipc	x4,0x96621	  x4=0x16623794
       45715000	      4570	8000279c	01910633	add	x12,x2,x25	  x2:0x944e118e x25:0x80009fc4 x12=0x144eb152
       45725000	      4571	800027a0	41d989b3	sub	x19,x19,x29	 x19:0xfffffd57 x29:0xfff00000 x19=0x000ffd57
       45735000	      4572	800027a4	94ca4413	xori	x8,x20,-1716	 x20:0x42417ef9  x8=0xbdbe87b5
       45745000	      4573	800027a8	02d47c63	bgeu	x8,x13,800027e0	  x8:0xbdbe87b5 x13:0x7ff0a02c
       45755000	      4574	00000000	00000013	addi	x0,x0,0	  x0:0x00000000
       45765000	      4575	800027dc	00000013	addi	x0,x0,0	  x0:0x00000000
       45775000	      4576	800027e0	01b8e733	or	x14,x17,x27	 x17:0x8000a02c x27:0xceafbb1d x14=0xceafbb3d
       45785000	      4577	800027e4	d99a4013	xori	x0,x20,-615	 x20:0x42417ef9
       45795000	      4578	800027e8	084fd263	bge	x31,x4,8000286c	 x31:0x80000000  x4:0x16623794
       45805000	      4579	800027ec	412009b3	sub	x19,x0,x18	  x0:0x00000000 x18:0x315040e2 x19=0xceafbf1e
       45815000	      4580	800027f0	413f80b3	sub	x1,x31,x19	 x31:0x80000000 x19:0xceafbf1e  x1=0xb15040e2
       45825000	      4581	800027f4	2805e693	ori	x13,x11,640	 x11:0xfffffe80 x13=0xfffffe80
       45835000	      4582	800027f8	01e6dd93	srli	x27,x13,0x1e	 x13:0xfffffe80 x27=0x00000003
       45845000	      4583	800027fc	e13e3613	sltiu	x12,x28,-493	 x28:0xfff00000 x12=0x00000001
       45855000	      4584	80002800	00e598b3	sll	x17,x11,x14	 x11:0xfffffe80 x14:0xceafbb3d x17=0x00000000
       45865000	      4585	80002804	054000ef	jal	x1,80002804	  x1=0x80002804
       45875000	      4586	00000000	00000013	addi	x0,x0,0	  x0:0x00000000
       45885000	      4587	80002854	00000013	addi	x0,x0,0	  x0:0x00000000
       45895000	      4588	80002858	fe1ff16f	jal	x2,80002858	  x2=0x80002858
       45905000	      4589	00000000	00000013	addi	x0,x0,0	  x0:0x00000000
       45915000	      4590	80002834	00000013	addi	x0,x0,0	  x0:0x00000000
       45925000	      4591	80002838	00c000ef	jal	x1,80002838	  x1=0x80002838
       45935000	      4592	00000000	00000013	addi	x0,x0,0	  x0:0x00000000
       45945000	      4593	80002840	00000013	addi	x0,x0,0	  x0:0x00000000
       45955000	      4594	80002844	fe9ff5ef	jal	x11,80002844	 x11=0x80002844
       45965000	      4595	00000000	00000013	addi	x0,x0,0	  x0:0x00000000
       45975000	      4596	80002828	00000013	addi	x0,x0,0	  x0:0x00000000
       45985000	      4597	8000282c	fe9ff0ef	jal	x1,8000282c	  x1=0x8000282c
       45995000	      4598	00000000	00000013	addi	x0,x0,0	  x0:0x00000000
       46005000	      4599	80002810	00000013	addi	x0,x0,0	  x0:0x00000000
       46015000	      4600	80002814	02c0036f	jal	x6,80002814	  x6=0x80002814
       46025000	      4601	00000000	00000013	addi	x0,x0,0	  x0:0x00000000
       46035000	      4602	8000283c	00000013	addi	x0,x0,0	  x0:0x00000000
       46045000	      4603	80002840	0080056f	jal	x10,80002840	 x10=0x80002840
       46055000	      4604	00000000	00000013	addi	x0,x0,0	  x0:0x00000000
       46065000	      4605	80002844	00000013	addi	x0,x0,0	  x0:0x00000000
       46075000	      4606	80002848	fedff16f	jal	x2,80002848	  x2=0x80002848
       46085000	      4607	00000000	00000013	addi	x0,x0,0	  x0:0x00000000
       46095000	      4608	80002830	00000013	addi	x0,x0,0	  x0:0x00000000
       46105000	      4609	80002834	fddff0ef	jal	x1,80002834	  x1=0x80002834
       46115000	      4610	00000000	00000013	addi	x0,x0,0	  x0:0x00000000
       46125000	      4611	8000280c	00000013	addi	x0,x0,0	  x0:0x00000000
       46135000	      4612	80002810	0200036f	jal	x6,80002810	  x6=0x80002810
       46145000	      4613	00000000	00000013	addi	x0,x0,0	  x0:0x00000000
       46155000	      4614	8000282c	00000013	addi	x0,x0,0	  x0:0x00000000
       46165000	      4615	80002830	fddff0ef	jal	x1,80002830	  x1=0x80002830
       46175000	      4616	00000000	00000013	addi	x0,x0,0	  x0:0x00000000
       46185000	      4617	80002808	00000013	addi	x0,x0,0	  x0:0x00000000
       46195000	      4618	8000280c	040001ef	jal	x3,8000280c	  x3=0x8000280c
       46205000	      4619	00000000	00000013	addi	x0,x0,0	  x0:0x00000000
       46215000	      4620	80002848	00000013	addi	x0,x0,0	  x0:0x00000000
       46225000	      4621	8000284c	008000ef	jal	x1,8000284c	  x1=0x8000284c
       46235000	      4622	00000000	00000013	addi	x0,x0,0	  x0:0x00000000
       46245000	      4623	80002850	00000013	addi	x0,x0,0	  x0:0x00000000
       46255000	      4624	80002854	fb5ffa6f	jal	x20,80002854	 x20=0x80002854
       46265000	      4625	00000000	00000013	addi	x0,x0,0	  x0:0x00000000
       46275000	      4626	80002804	00000013	addi	x0,x0,0	  x0:0x00000000
       46285000	      4627	80002808	048000ef	jal	x1,80002808	  x1=0x80002808
       46295000	      4628	00000000	00000013	addi	x0,x0,0	  x0:0x00000000
       46305000	      4629	8000284c	00000013	addi	x0,x0,0	  x0:0x00000000
       46315000	      4630	80002850	fcdff1ef	jal	x3,80002850	  x3=0x80002850
       46325000	      4631	00000000	00000013	addi	x0,x0,0	  x0:0x00000000
       46335000	      4632	80002818	00000013	addi	x0,x0,0	  x0:0x00000000
       46345000	      4633	8000281c	00c0036f	jal	x6,8000281c	  x6=0x8000281c
       46355000	      4634	00000000	00000013	addi	x0,x0,0	  x0:0x00000000
       46365000	      4635	80002824	00000013	addi	x0,x0,0	  x0:0x00000000
       46375000	      4636	80002828	ff9ff0ef	jal	x1,80002828	  x1=0x80002828
       46385000	      4637	00000000	00000013	addi	x0,x0,0	  x0:0x00000000
       46395000	      4638	8000281c	00000013	addi	x0,x0,0	  x0:0x00000000
       46405000	      4639	80002820	01c000ef	jal	x1,80002820	  x1=0x80002820
       46415000	      4640	00000000	00000013	addi	x0,x0,0	  x0:0x00000000
       46425000	      4641	80002838	00000013	addi	x0,x0,0	  x0:0x00000000
       46435000	      4642	8000283c	fe9ff0ef	jal	x1,8000283c	  x1=0x8000283c
       46445000	      4643	00000000	00000013	addi	x0,x0,0	  x0:0x00000000
       46455000	      4644	80002820	00000013	addi	x0,x0,0	  x0:0x00000000
       46465000	      4645	80002824	ff5ff66f	jal	x12,80002824	 x12=0x80002824
       46475000	      4646	00000000	00000013	addi	x0,x0,0	  x0:0x00000000
       46485000	      4647	80002814	00000013	addi	x0,x0,0	  x0:0x00000000
       46495000	      4648	80002818	044008ef	jal	x17,80002818	 x17=0x80002818
       46505000	      4649	00000000	00000013	addi	x0,x0,0	  x0:0x00000000
       46515000	      4650	80002858	00000013	addi	x0,x0,0	  x0:0x00000000
       46525000	      4651	8000285c	b7d02793	slti	x15,x0,-1155	  x0:0x00000000 x15=0x00000000
       46535000	      4652	80002860	00ebb433	sltu	x8,x23,x14	 x23:0xfff00000 x14:0xceafbb3d  x8=0x00000000
       46545000	      4653	80002864	00fde5b3	or	x11,x27,x15	 x27:0x00000003 x15:0x00000000 x11=0x00000003
       46555000	      4654	80002868	00000013	addi	x0,x0,0	  x0:0x00000000
       46565000	      4655	8000286c	0034d8b3	srl	x17,x9,x3	  x9:0x80001000  x3:0x80002850 x17=0x00008000
       46575000	      4656	80002870	01093733	sltu	x14,x18,x16	 x18:0x315040e2 x16:0x80009f70 x14=0x00000001
       46585000	      4657	80002874	c2f1fb93	andi	x23,x3,-977	  x3:0x80002850 x23=0x80002800
       46595000	      4658	80002878	01f6e033	or	x0,x13,x31	 x13:0xfffffe80 x31:0x80000000
       46605000	      4659	8000287c	00966533	or	x10,x12,x9	 x12:0x80002824  x9:0x80001000 x10=0x80003824
       46615000	      4660	80002880	75b66e13	ori	x28,x12,1883	 x12:0x80002824 x28=0x80002f7f
       46625000	      4661	80002884	d3f3c013	xori	x0,x7,-705	  x7:0x00000000
       46635000	      4662	80002888	00eb4a63	blt	x22,x14,8000289c	 x22:0x00000000 x14:0x00000001
       46645000	      4663	00000000	00000013	addi	x0,x0,0	  x0:0x00000000
       46655000	      4664	80002898	00000013	addi	x0,x0,0	  x0:0x00000000
       46665000	      4665	8000289c	c9ee8093	addi	x1,x29,-866	 x29:0xfff00000  x1=0xffeffc9e
       46675000	      4666	800028a0	00b430b3	sltu	x1,x8,x11	  x8:0x00000000 x11:0x00000003  x1=0x00000001
       46685000	      4667	800028a4	00149493	slli	x9,x9,0x1	  x9:0x80001000  x9=0x00002000
       46695000	      4668	800028a8	bb928693	addi	x13,x5,-1095	  x5:0x80009fd5 x13=0x80009b8e
       46705000	      4669	800028ac	00000013	addi	x0,x0,0	  x0:0x00000000
       46715000	      4670	800028b0	01d61b93	slli	x23,x12,0x1d	 x12:0x80002824 x23=0x80000000
       46725000	      4671	800028b4	00861393	slli	x7,x12,0x8	 x12:0x80002824  x7=0x00282400
       46735000	      4672	800028b8	02310263	beq	x2,x3,800028dc	  x2:0x80002848  x3:0x80002850
       46745000	      4673	800028bc	41790933	sub	x18,x18,x23	 x18:0x315040e2 x23:0x80000000 x18=0xb15040e2
       46755000	      4674	800028c0	40215193	srai	x3,x2,0x2	  x2:0x80002848  x3=0xe0000a12
       46765000	      4675	800028c4	03789863	bne	x17,x23,800028f4	 x17:0x00008000 x23:0x80000000
       46775000	      4676	00000000	00000013	addi	x0,x0,0	  x0:0x00000000
       46785000	      4677	800028f0	00000013	addi	x0,x0,0	  x0:0x00000000
       46795000	      4678	800028f4	006a9013	slli	x0,x21,0x6	 x21:0xffffff3b
       46805000	      4679	800028f8	84e38013	addi	x0,x7,-1970	  x7:0x00282400
       46815000	      4680	800028fc	01d6c463	blt	x13,x29,80002904	 x13:0x80009b8e x29:0xfff00000
       46825000	      4681	00000000	00000013	addi	x0,x0,0	  x0:0x00000000
       46835000	      4682	80002900	00000013	addi	x0,x0,0	  x0:0x00000000
       46845000	      4683	80002904	003f4a33	xor	x20,x30,x3	 x30:0xfff00000  x3:0xe0000a12 x20=0x1ff00a12
       46855000	      4684	80002908	007e9a63	bne	x29,x7,8000291c	 x29:0xfff00000  x7:0x00282400
       46865000	      4685	00000000	00000013	addi	x0,x0,0	  x0:0x00000000
       46875000	      4686	80002918	00000013	addi	x0,x0,0	  x0:0x00000000
       46885000	      4687	8000291c	01e15693	srli	x13,x2,0x1e	  x2:0x80002848 x13=0x00000002
       46895000	      4688	80002920	002756b3	srl	x13,x14,x2	 x14:0x00000001  x2:0x80002848 x13=0x00000000
       46905000	      4689	80002924	b3547d13	andi	x26,x8,-1227	  x8:0x00000000 x26=0x00000000
       46915000	      4690	80002928	00b62333	slt	x6,x12,x11	 x12:0x80002824 x11:0x00000003  x6=0x00000001
       46925000	      4691	8000292c	41beda33	sra	x20,x29,x27	 x29:0xfff00000 x27:0x00000003 x20=0xfffe0000
       46935000	      4692	80002930	e6efca13	xori	x20,x31,-402	 x31:0x80000000 x20=0x7ffffe6e
       46945000	      4693	80002934	00ea8033	add	x0,x21,x14	 x21:0xffffff3b x14:0x00000001
       46955000	      4694	80002938	c79deb93	ori	x23,x27,-903	 x27:0x00000003 x23=0xfffffc7b
       46965000	      4695	8000293c	01370bb3	add	x23,x14,x19	 x14:0x00000001 x19:0xceafbf1e x23=0xceafbf1f
       46975000	      4696	80002940	00000013	addi	x0,x0,0	  x0:0x00000000
       46985000	      4697	80002944	03b54c63	blt	x10,x27,8000297c	 x10:0x80003824 x27:0x00000003
       46995000	      4698	00000000	00000013	addi	x0,x0,0	  x0:0x00000000
       47005000	      4699	80002978	00000013	addi	x0,x0,0	  x0:0x00000000
       47015000	      4700	8000297c	347ac693	xori	x13,x21,839	 x21:0xffffff3b x13=0xfffffc7c
       47025000	      4701	80002980	29e5e293	ori	x5,x11,670	 x11:0x00000003  x5=0x0000029f
       47035000	      4702	80002984	04146463	bltu	x8,x1,800029cc	  x8:0x00000000  x1:0x00000001
       47045000	      4703	00000000	00000013	addi	x0,x0,0	  x0:0x00000000
       47055000	      4704	800029c8	00000013	addi	x0,x0,0	  x0:0x00000000
       47065000	      4705	800029cc	003ff863	bgeu	x31,x3,800029dc	 x31:0x80000000  x3:0xe0000a12
       47075000	      4706	800029d0	401a0e33	sub	x28,x20,x1	 x20:0x7ffffe6e  x1:0x00000001 x28=0x7ffffe6d
       47085000	      4707	800029d4	002733b3	sltu	x7,x14,x2	 x14:0x00000001  x2:0x80002848  x7=0x00000001
       47095000	      4708	800029d8	0031d013	srli	x0,x3,0x3	  x3:0xe0000a12
       47105000	      4709	800029dc	41dedd33	sra	x26,x29,x29	 x29:0xfff00000 x29:0xfff00000 x26=0xfff00000
       47115000	      4710	800029e0	ad766493	ori	x9,x12,-1321	 x12:0x80002824  x9=0xfffffaf7
       47125000	      4711	800029e4	050d7463	bgeu	x26,x16,80002a2c	 x26:0xfff00000 x16:0x80009f70
       47135000	      4712	00000000	00000013	addi	x0,x0,0	  x0:0x00000000
       47145000	      4713	80002a28	00000013	addi	x0,x0,0	  x0:0x00000000
       47155000	      4714	80002a2c	c3e54013	xori	x0,x10,-962	 x10:0x80003824
       47165000	      4715	80002a30	010ecbb3	xor	x23,x29,x16	 x29:0xfff00000 x16:0x80009f70 x23=0x7ff09f70
       47175000	      4716	80002a34	ef7bef13	ori	x30,x23,-265	 x23:0x7ff09f70 x30=0xfffffff7
       47185000	      4717	80002a38	09066d97	auipc	x27,0x9066	 x27=0x89068a34
       47195000	      4718	80002a3c	40275433	sra	x8,x14,x2	 x14:0x00000001  x2:0x80002848  x8=0x00000000
       47205000	      4719	80002a40	008a6863	bltu	x20,x8,80002a50	 x20:0x7ffffe6e  x8:0x00000000
       47215000	      4720	80002a44	01e35633	srl	x12,x6,x30	  x6:0x00000001 x30:0xfffffff7 x12=0x00000000
       47225000	      4721	80002a48	c4f4e593	ori	x11,x9,-945	  x9:0xfffffaf7 x11=0xfffffeff
       47235000	      4722	80002a4c	03176c63	bltu	x14,x17,80002a84	 x14:0x00000001 x17:0x00008000
       47245000	      4723	00000000	00000013	addi	x0,x0,0	  x0:0x00000000
       47255000	      4724	80002a80	00000013	addi	x0,x0,0	  x0:0x00000000
       47265000	      4725	80002a84	41f8d213	srai	x4,x17,0x1f	 x17:0x00008000  x4=0x00000000
       47275000	      4726	80002a88	e68aca13	xori	x20,x21,-408	 x21:0xffffff3b x20=0x00000153
       47285000	      4727	80002a8c	54b9f693	andi	x13,x19,1355	 x19:0xceafbf1e x13=0x0000050a
       47295000	      4728	80002a90	413a5e13	srai	x28,x20,0x13	 x20:0x00000153 x28=0x00000000
       47305000	      4729	80002a94	05bd0d93	addi	x27,x26,91	 x26:0xfff00000 x27=0xfff0005b
       47315000	      4730	80002a98	00b51d33	sll	x26,x10,x11	 x10:0x80003824 x11:0xfffffeff x26=0x00000000
       47325000	      4731	80002a9c	0115bab3	sltu	x21,x11,x17	 x11:0xfffffeff x17:0x00008000 x21=0x00000000
       47335000	      4732	80002aa0	00bf5433	srl	x8,x30,x11	 x30:0xfffffff7 x11:0xfffffeff  x8=0x00000001
       47345000	      4733	80002aa4	03270a63	beq	x14,x18,80002ad8	 x14:0x00000001 x18:0xb15040e2
       47355000	      4734	80002aa8	973ebe93	sltiu	x29,x29,-1677	 x29:0xfff00000 x29=0x00000001
       47365000	      4735	80002aac	79abef13	ori	x30,x23,1946	 x23:0x7ff09f70 x30=0x7ff09ffa
       47375000	      4736	80002ab0	0247f463	bgeu	x15,x4,80002ad8	 x15:0x00000000  x4:0x00000000
       47385000	      4737	00000000	00000013	addi	x0,x0,0	  x0:0x00000000
       47395000	      4738	80002ad4	00000013	addi	x0,x0,0	  x0:0x00000000
       47405000	      4739	80002ad8	0102ea63	bltu	x5,x16,80002aec	  x5:0x0000029f x16:0x80009f70
       47415000	      4740	00000000	00000013	addi	x0,x0,0	  x0:0x00000000
       47425000	      4741	80002ae8	00000013	addi	x0,x0,0	  x0:0x00000000
       47435000	      4742	80002aec	01159f13	slli	x30,x11,0x11	 x11:0xfffffeff x30=0xfdfe0000
       47445000	      4743	80002af0	41605393	srai	x7,x0,0x16	  x0:0x00000000  x7=0x00000000
       47455000	      4744	80002af4	02e6c863	blt	x13,x14,80002b24	 x13:0x0000050a x14:0x00000001
       47465000	      4745	80002af8	d1144093	xori	x1,x8,-751	  x8:0x00000001  x1=0xfffffd10
       47475000	      4746	80002afc	00000013	addi	x0,x0,0	  x0:0x00000000
       47485000	      4747	80002b00	00719993	slli	x19,x3,0x7	  x3:0xe0000a12 x19=0x00050900
       47495000	      4748	80002b04	41205713	srai	x14,x0,0x12	  x0:0x00000000 x14=0x00000000
       47505000	      4749	80002b08	010e9a63	bne	x29,x16,80002b1c	 x29:0x00000001 x16:0x80009f70
       47515000	      4750	00000000	00000013	addi	x0,x0,0	  x0:0x00000000
       47525000	      4751	80002b18	00000013	addi	x0,x0,0	  x0:0x00000000
       47535000	      4752	80002b1c	03d95263	bge	x18,x29,80002b40	 x18:0xb15040e2 x29:0x00000001
       47545000	      4753	80002b20	01c6fc33	and	x24,x13,x28	 x13:0x0000050a x28:0x00000000 x24=0x00000000
       47555000	      4754	80002b24	2cea7737	lui	x14,0x2cea7	 x14=0x2cea7000
       47565000	      4755	80002b28	0039d333	srl	x6,x19,x3	 x19:0x00050900  x3:0xe0000a12  x6=0x00000001
       47575000	      4756	80002b2c	3a95e513	ori	x10,x11,937	 x11:0xfffffeff x10=0xffffffff
       47585000	      4757	80002b30	0032b8b3	sltu	x17,x5,x3	  x5:0x0000029f  x3:0xe0000a12 x17=0x00000001
       47595000	      4758	80002b34	0191a133	slt	x2,x3,x25	  x3:0xe0000a12 x25:0x80009fc4  x2=0x00000000
       47605000	      4759	80002b38	000e5133	srl	x2,x28,x0	 x28:0x00000000  x0:0x00000000  x2=0x00000000
       47615000	      4760	80002b3c	001cd993	srli	x19,x25,0x1	 x25:0x80009fc4 x19=0x40004fe2
       47625000	      4761	80002b40	7b23ee93	ori	x29,x7,1970	  x7:0x00000000 x29=0x000007b2
       47635000	      4762	80002b44	006e3133	sltu	x2,x28,x6	 x28:0x00000000  x6:0x00000001  x2=0x00000001
       47645000	      4763	80002b48	a28d0593	addi	x11,x26,-1496	 x26:0x00000000 x11=0xfffffa28
       47655000	      4764	80002b4c	050a7463	bgeu	x20,x16,80002b94	 x20:0x00000153 x16:0x80009f70
       47665000	      4765	80002b50	0265de63	bge	x11,x6,80002b8c	 x11:0xfffffa28  x6:0x00000001
       47675000	      4766	80002b54	047e0463	beq	x28,x7,80002b9c	 x28:0x00000000  x7:0x00000000
       47685000	      4767	00000000	00000013	addi	x0,x0,0	  x0:0x00000000
       47695000	      4768	80002b98	00000013	addi	x0,x0,0	  x0:0x00000000
       47705000	      4769	80002b9c	0050c733	xor	x14,x1,x5	  x1:0xfffffd10  x5:0x0000029f x14=0xffffff8f
       47715000	      4770	80002ba0	00041bb3	sll	x23,x8,x0	  x8:0x00000001  x0:0x00000000 x23=0x00000001
       47725000	      4771	80002ba4	01cfce63	blt	x31,x28,80002bc0	 x31:0x80000000 x28:0x00000000
       47735000	      4772	00000000	00000013	addi	x0,x0,0	  x0:0x00000000
       47745000	      4773	80002bbc	00000013	addi	x0,x0,0	  x0:0x00000000
       47755000	      4774	80002bc0	4a59f8b7	lui	x17,0x4a59f	 x17=0x4a59f000
       47765000	      4775	80002bc4	b08bca13	xori	x20,x23,-1272	 x23:0x00000001 x20=0xfffffb09
       47775000	      4776	80002bc8	017e43b3	xor	x7,x28,x23	 x28:0x00000000 x23:0x00000001  x7=0x00000001
       47785000	      4777	80002bcc	01e0d633	srl	x12,x1,x30	  x1:0xfffffd10 x30:0xfdfe0000 x12=0xfffffd10
       47795000	      4778	80002bd0	0e794493	xori	x9,x18,231	 x18:0xb15040e2  x9=0xb1504005
       47805000	      4779	80002bd4	414851b3	sra	x3,x16,x20	 x16:0x80009f70 x20:0xfffffb09  x3=0xffc0004f
       47815000	      4780	80002bd8	8bf02093	slti	x1,x0,-1857	  x0:0x00000000  x1=0x00000000
       47825000	      4781	80002bdc	00bc5e33	srl	x28,x24,x11	 x24:0x00000000 x11:0xfffffa28 x28=0x00000000
       47835000	      4782	80002be0	410c0db3	sub	x27,x24,x16	 x24:0x00000000 x16:0x80009f70 x27=0x7fff6090
       47845000	      4783	80002be4	0021e9b3	or	x19,x3,x2	  x3:0xffc0004f  x2:0x00000001 x19=0xffc0004f
       47855000	      4784	80002be8	00fe9663	bne	x29,x15,80002bf4	 x29:0x000007b2 x15:0x00000000
       47865000	      4785	00000000	00000013	addi	x0,x0,0	  x0:0x00000000
       47875000	      4786	80002bf0	00000013	addi	x0,x0,0	  x0:0x00000000
       47885000	      4787	80002bf4	41190233	sub	x4,x18,x17	 x18:0xb15040e2 x17:0x4a59f000  x4=0x66f650e2
       47895000	      4788	80002bf8	63ab2993	slti	x19,x22,1594	 x22:0x00000000 x19=0x00000001
       47905000	      4789	80002bfc	09856893	ori	x17,x10,152	 x10:0xffffffff x17=0xffffffff
       47915000	      4790	80002c00	00000013	addi	x0,x0,0	  x0:0x00000000
       47925000	      4791	80002c04	00337db3	and	x27,x6,x3	  x6:0x00000001  x3:0xffc0004f x27=0x00000001
       47935000	      4792	80002c08	00000013	addi	x0,x0,0	  x0:0x00000000
       47945000	      4793	80002c0c	41eed213	srai	x4,x29,0x1e	 x29:0x000007b2  x4=0x00000000
       47955000	      4794	80002c10	00000013	addi	x0,x0,0	  x0:0x00000000
       47965000	      4795	80002c14	070bff13	andi	x30,x23,112	 x23:0x00000001 x30=0x00000000
       47975000	      4796	80002c18	01d2ec33	or	x24,x5,x29	  x5:0x0000029f x29:0x000007b2 x24=0x000007bf
       47985000	      4797	80002c1c	00c41d13	slli	x26,x8,0xc	  x8:0x00000001 x26=0x00001000
       47995000	      4798	80002c20	2d007593	andi	x11,x0,720	  x0:0x00000000 x11=0x00000000
       48005000	      4799	80002c24	8a713213	sltiu	x4,x2,-1881	  x2:0x00000001  x4=0x00000001
       48015000	      4800	80002c28	0634ab13	slti	x22,x9,99	  x9:0xb1504005 x22=0x00000001
       48025000	      4801	80002c2c	5eb7a193	slti	x3,x15,1515	 x15:0x00000000  x3=0x00000001
       48035000	      4802	80002c30	01d5a433	slt	x8,x11,x29	 x11:0x00000000 x29:0x000007b2  x8=0x00000001
       48045000	      4803	80002c34	00c1c7b3	xor	x15,x3,x12	  x3:0x00000001 x12:0xfffffd10 x15=0xfffffd11
       48055000	      4804	80002c38	01d7db93	srli	x23,x15,0x1d	 x15:0xfffffd11 x23=0x00000007
       48065000	      4805	80002c3c	00000013	addi	x0,x0,0	  x0:0x00000000
       48075000	      4806	80002c40	00000013	addi	x0,x0,0	  x0:0x00000000
       48085000	      4807	80002c44	01a96ab3	or	x21,x18,x26	 x18:0xb15040e2 x26:0x00001000 x21=0xb15050e2
       48095000	      4808	80002c48	009ca433	slt	x8,x25,x9	 x25:0x80009fc4  x9:0xb1504005  x8=0x00000001
       48105000	      4809	80002c4c	405d5433	sra	x8,x26,x5	 x26:0x00001000  x5:0x0000029f  x8=0x00000000
       48115000	      4810	80002c50	05da7463	bgeu	x20,x29,80002c98	 x20:0xfffffb09 x29:0x000007b2
       48125000	      4811	00000000	00000013	addi	x0,x0,0	  x0:0x00000000
       48135000	      4812	80002c94	00000013	addi	x0,x0,0	  x0:0x00000000
       48145000	      4813	80002c98	00a9c3b3	xor	x7,x19,x10	 x19:0x00000001 x10:0xffffffff  x7=0xfffffffe
       48155000	      4814	80002c9c	01e2ea63	bltu	x5,x30,80002cb0	  x5:0x0000029f x30:0x00000000
       48165000	      4815	80002ca0	001a2733	slt	x14,x20,x1	 x20:0xfffffb09  x1:0x00000000 x14=0x00000001
       48175000	      4816	80002ca4	7c384513	xori	x10,x16,1987	 x16:0x80009f70 x10=0x800098b3
       48185000	      4817	80002ca8	01d1e933	or	x18,x3,x29	  x3:0x00000001 x29:0x000007b2 x18=0x000007b3
       48195000	      4818	80002cac	0196f0b3	and	x1,x13,x25	 x13:0x0000050a x25:0x80009fc4  x1=0x00000500
       48205000	      4819	80002cb0	00e7e533	or	x10,x15,x14	 x15:0xfffffd11 x14:0x00000001 x10=0xfffffd11
       48215000	      4820	80002cb4	0033fab3	and	x21,x7,x3	  x7:0xfffffffe  x3:0x00000001 x21=0x00000000
       48225000	      4821	80002cb8	56062193	slti	x3,x12,1376	 x12:0xfffffd10  x3=0x00000001
       48235000	      4822	80002cbc	0d054213	xori	x4,x10,208	 x10:0xfffffd11  x4=0xfffffdc1
       48245000	      4823	80002cc0	00145d13	srli	x26,x8,0x1	  x8:0x00000000 x26=0x00000000
       48255000	      4824	80002cc4	00dd1193	slli	x3,x26,0xd	 x26:0x00000000  x3=0x00000000
       48265000	      4825	80002cc8	0092ca33	xor	x20,x5,x9	  x5:0x0000029f  x9:0xb1504005 x20=0xb150429a
       48275000	      4826	80002ccc	00a4a433	slt	x8,x9,x10	  x9:0xb1504005 x10:0xfffffd11  x8=0x00000001
       48285000	      4827	80002cd0	001e03b3	add	x7,x28,x1	 x28:0x00000000  x1:0x00000500  x7=0x00000500
       48295000	      4828	80002cd4	01e87a33	and	x20,x16,x30	 x16:0x80009f70 x30:0x00000000 x20=0x00000000
       48305000	      4829	80002cd8	78f1b413	sltiu	x8,x3,1935	  x3:0x00000000  x8=0x00000001
       48315000	      4830	80002cdc	00961c63	bne	x12,x9,80002cf4	 x12:0xfffffd10  x9:0xb1504005
       48325000	      4831	00000000	00000013	addi	x0,x0,0	  x0:0x00000000
       48335000	      4832	80002cf0	00000013	addi	x0,x0,0	  x0:0x00000000
       48345000	      4833	80002cf4	003a85b3	add	x11,x21,x3	 x21:0x00000000  x3:0x00000000 x11=0x00000000
       48355000	      4834	80002cf8	00251733	sll	x14,x10,x2	 x10:0xfffffd11  x2:0x00000001 x14=0xfffffa22
       48365000	      4835	80002cfc	00ca28b3	slt	x17,x20,x12	 x20:0x00000000 x12:0xfffffd10 x17=0x00000000
       48375000	      4836	80002d00	03fb8e63	beq	x23,x31,80002d3c	 x23:0x00000007 x31:0x80000000
       48385000	      4837	80002d04	01b7f333	and	x6,x15,x27	 x15:0xfffffd11 x27:0x00000001  x6=0x00000001
       48395000	      4838	80002d08	00a8dd93	srli	x27,x17,0xa	 x17:0x00000000 x27=0x00000000
       48405000	      4839	80002d0c	000bf8b3	and	x17,x23,x0	 x23:0x00000007  x0:0x00000000 x17=0x00000000
       48415000	      4840	80002d10	e4f74613	xori	x12,x14,-433	 x14:0xfffffa22 x12=0x0000046d
       48425000	      4841	80002d14	02185e63	bge	x16,x1,80002d50	 x16:0x80009f70  x1:0x00000500
       48435000	      4842	80002d18	020c4e63	blt	x24,x0,80002d54	 x24:0x000007bf  x0:0x00000000
       48445000	      4843	80002d1c	020d6263	bltu	x26,x0,80002d40	 x26:0x00000000  x0:0x00000000
       48455000	      4844	80002d20	40d35913	srai	x18,x6,0xd	  x6:0x00000001 x18=0x00000000
       48465000	      4845	80002d24	08a84893	xori	x17,x16,138	 x16:0x80009f70 x17=0x80009ffa
       48475000	      4846	80002d28	011c5413	srli	x8,x24,0x11	 x24:0x000007bf  x8=0x00000000
       48485000	      4847	80002d2c	004ea633	slt	x12,x29,x4	 x29:0x000007b2  x4:0xfffffdc1 x12=0x00000000
       48495000	      4848	80002d30	00000013	addi	x0,x0,0	  x0:0x00000000
       48505000	      4849	80002d34	e6d40a93	addi	x21,x8,-403	  x8:0x00000000 x21=0xfffffe6d
       48515000	      4850	80002d38	015e2733	slt	x14,x28,x21	 x28:0x00000000 x21:0xfffffe6d x14=0x00000000
       48525000	      4851	80002d3c	41650b33	sub	x22,x10,x22	 x10:0xfffffd11 x22:0x00000001 x22=0xfffffd10
       48535000	      4852	80002d40	40ba0933	sub	x18,x20,x11	 x20:0x00000000 x11:0x00000000 x18=0x00000000
       48545000	      4853	80002d44	525da693	slti	x13,x27,1317	 x27:0x00000000 x13=0x00000001
       48555000	      4854	80002d48	40105493	srai	x9,x0,0x1	  x0:0x00000000  x9=0x00000000
       48565000	      4855	80002d4c	c1225bb7	lui	x23,0xc1225	 x23=0xc1225000
       48575000	      4856	80002d50	00885013	srli	x0,x16,0x8	 x16:0x80009f70
       48585000	      4857	80002d54	474fa413	slti	x8,x31,1140	 x31:0x80000000  x8=0x00000001
       48595000	      4858	80002d58	dcdb7037	lui	x0,0xdcdb7	
       48605000	      4859	80002d5c	00000013	addi	x0,x0,0	  x0:0x00000000
       48615000	      4860	80002d60	00083f33	sltu	x30,x16,x0	 x16:0x80009f70  x0:0x00000000 x30=0x00000000
       48625000	      4861	80002d64	01684c63	blt	x16,x22,80002d7c	 x16:0x80009f70 x22:0xfffffd10
       48635000	      4862	00000000	00000013	addi	x0,x0,0	  x0:0x00000000
       48645000	      4863	80002d78	00000013	addi	x0,x0,0	  x0:0x00000000
       48655000	      4864	80002d7c	0449d863	bge	x19,x4,80002dcc	 x19:0x00000001  x4:0xfffffdc1
       48665000	      4865	00000000	00000013	addi	x0,x0,0	  x0:0x00000000
       48675000	      4866	80002dc8	00000013	addi	x0,x0,0	  x0:0x00000000
       48685000	      4867	80002dcc	01ee1093	slli	x1,x28,0x1e	 x28:0x00000000  x1=0x00000000
       48695000	      4868	80002dd0	defec493	xori	x9,x29,-529	 x29:0x000007b2  x9=0xfffffa5d
       48705000	      4869	80002dd4	00000013	addi	x0,x0,0	  x0:0x00000000
       48715000	      4870	80002dd8	022c0263	beq	x24,x2,80002dfc	 x24:0x000007bf  x2:0x00000001
       48725000	      4871	80002ddc	00000013	addi	x0,x0,0	  x0:0x00000000
       48735000	      4872	80002de0	05dbc463	blt	x23,x29,80002e28	 x23:0xc1225000 x29:0x000007b2
       48745000	      4873	00000000	00000013	addi	x0,x0,0	  x0:0x00000000
       48755000	      4874	80002e24	00000013	addi	x0,x0,0	  x0:0x00000000
       48765000	      4875	80002e28	00466d33	or	x26,x12,x4	 x12:0x00000000  x4:0xfffffdc1 x26=0xfffffdc1
       48775000	      4876	80002e2c	00543bb3	sltu	x23,x8,x5	  x8:0x00000001  x5:0x0000029f x23=0x00000001
       48785000	      4877	80002e30	01153eb3	sltu	x29,x10,x17	 x10:0xfffffd11 x17:0x80009ffa x29=0x00000000
       48795000	      4878	80002e34	8afd9bb7	lui	x23,0x8afd9	 x23=0x8afd9000
       48805000	      4879	80002e38	264b7313	andi	x6,x22,612	 x22:0xfffffd10  x6=0x00000000
       48815000	      4880	80002e3c	00000013	addi	x0,x0,0	  x0:0x00000000
       48825000	      4881	80002e40	93f73793	sltiu	x15,x14,-1729	 x14:0x00000000 x15=0x00000001
       48835000	      4882	80002e44	482cf393	andi	x7,x25,1154	 x25:0x80009fc4  x7=0x00000480
       48845000	      4883	80002e48	016754b3	srl	x9,x14,x22	 x14:0x00000000 x22:0xfffffd10  x9=0x00000000
       48855000	      4884	80002e4c	0247c863	blt	x15,x4,80002e7c	 x15:0x00000001  x4:0xfffffdc1
       48865000	      4885	80002e50	b1493eb7	lui	x29,0xb1493	 x29=0xb1493000
       48875000	      4886	80002e54	01d48863	beq	x9,x29,80002e64	  x9:0x00000000 x29:0xb1493000
       48885000	      4887	80002e58	5d593093	sltiu	x1,x18,1493	 x18:0x00000000  x1=0x00000001
       48895000	      4888	80002e5c	00da9113	slli	x2,x21,0xd	 x21:0xfffffe6d  x2=0xffcda000
       48905000	      4889	80002e60	011287b3	add	x15,x5,x17	  x5:0x0000029f x17:0x80009ffa x15=0x8000a299
       48915000	      4890	80002e64	01c3ea33	or	x20,x7,x28	  x7:0x00000480 x28:0x00000000 x20=0x00000480
       48925000	      4891	80002e68	00c94a63	blt	x18,x12,80002e7c	 x18:0x00000000 x12:0x00000000
       48935000	      4892	80002e6c	01f75b93	srli	x23,x14,0x1f	 x14:0x00000000 x23=0x00000000
       48945000	      4893	80002e70	03950e13	addi	x28,x10,57	 x10:0xfffffd11 x28=0xfffffd4a
       48955000	      4894	80002e74	00ac4463	blt	x24,x10,80002e7c	 x24:0x000007bf x10:0xfffffd11
       48965000	      4895	80002e78	0023a133	slt	x2,x7,x2	  x7:0x00000480  x2:0xffcda000  x2=0x00000000
       48975000	      4896	80002e7c	054cd463	bge	x25,x20,80002ec4	 x25:0x80009fc4 x20:0x00000480
       48985000	      4897	80002e80	00a29d13	slli	x26,x5,0xa	  x5:0x0000029f x26=0x000a7c00
       48995000	      4898	80002e84	00bda433	slt	x8,x27,x11	 x27:0x00000000 x11:0x00000000  x8=0x00000000
       49005000	      4899	80002e88	012b1593	slli	x11,x22,0x12	 x22:0xfffffd10 x11=0xf4400000
       49015000	      4900	80002e8c	014474b3	and	x9,x8,x20	  x8:0x00000000 x20:0x00000480  x9=0x00000000
       49025000	      4901	80002e90	00f08933	add	x18,x1,x15	  x1:0x00000001 x15:0x8000a299 x18=0x8000a29a
       49035000	      4902	80002e94	736efb93	andi	x23,x29,1846	 x29:0xb1493000 x23=0x00000000
       49045000	      4903	80002e98	012ec463	blt	x29,x18,80002ea0	 x29:0xb1493000 x18:0x8000a29a
       49055000	      4904	80002e9c	00a6a4b3	slt	x9,x13,x10	 x13:0x00000001 x10:0xfffffd11  x9=0x00000000
       49065000	      4905	80002ea0	057f0463	beq	x30,x23,80002ee8	 x30:0x00000000 x23:0x00000000
       49075000	      4906	00000000	00000013	addi	x0,x0,0	  x0:0x00000000
       49085000	      4907	80002ee4	00000013	addi	x0,x0,0	  x0:0x00000000
       49095000	      4908	80002ee8	04984863	blt	x16,x9,80002f38	 x16:0x80009f70  x9:0x00000000
       49105000	      4909	00000000	00000013	addi	x0,x0,0	  x0:0x00000000
       49115000	      4910	80002f34	00000013	addi	x0,x0,0	  x0:0x00000000
       49125000	      4911	80002f38	332e3f13	sltiu	x30,x28,818	 x28:0xfffffd4a x30=0x00000000
       49135000	      4912	80002f3c	0014cdb3	xor	x27,x9,x1	  x9:0x00000000  x1:0x00000001 x27=0x00000001
       49145000	      4913	80002f40	00379413	slli	x8,x15,0x3	 x15:0x8000a299  x8=0x000514c8
       49155000	      4914	80002f44	017dc8b3	xor	x17,x27,x23	 x27:0x00000001 x23:0x00000000 x17=0x00000001
       49165000	      4915	80002f48	015ada13	srli	x20,x21,0x15	 x21:0xfffffe6d x20=0x000007ff
       49175000	      4916	80002f4c	0074c663	blt	x9,x7,80002f58	  x9:0x00000000  x7:0x00000480
       49185000	      4917	00000000	00000013	addi	x0,x0,0	  x0:0x00000000
       49195000	      4918	80002f54	00000013	addi	x0,x0,0	  x0:0x00000000
       49205000	      4919	80002f58	032c3093	sltiu	x1,x24,50	 x24:0x000007bf  x1=0x00000000
       49215000	      4920	80002f5c	00797633	and	x12,x18,x7	 x18:0x8000a29a  x7:0x00000480 x12=0x00000080
       49225000	      4921	80002f60	01277db3	and	x27,x14,x18	 x14:0x00000000 x18:0x8000a29a x27=0x00000000
       49235000	      4922	80002f64	004aa3b3	slt	x7,x21,x4	 x21:0xfffffe6d  x4:0xfffffdc1  x7=0x00000000
       49245000	      4923	80002f68	00a16a63	bltu	x2,x10,80002f7c	  x2:0x00000000 x10:0xfffffd11
       49255000	      4924	00000000	00000013	addi	x0,x0,0	  x0:0x00000000
       49265000	      4925	80002f78	00000013	addi	x0,x0,0	  x0:0x00000000
       49275000	      4926	80002f7c	01bcc933	xor	x18,x25,x27	 x25:0x80009fc4 x27:0x00000000 x18=0x80009fc4
       49285000	      4927	80002f80	02720e63	beq	x4,x7,80002fbc	  x4:0xfffffdc1  x7:0x00000000
       49295000	      4928	80002f84	01ad8c33	add	x24,x27,x26	 x27:0x00000000 x26:0x000a7c00 x24=0x000a7c00
       49305000	      4929	80002f88	00d89463	bne	x17,x13,80002f90	 x17:0x00000001 x13:0x00000001
       49315000	      4930	80002f8c	01b21993	slli	x19,x4,0x1b	  x4:0xfffffdc1 x19=0x08000000
       49325000	      4931	80002f90	7eef3893	sltiu	x17,x30,2030	 x30:0x00000000 x17=0x00000001
       49335000	      4932	80002f94	006e3033	sltu	x0,x28,x6	 x28:0xfffffd4a  x6:0x00000000
       49345000	      4933	80002f98	00000013	addi	x0,x0,0	  x0:0x00000000
       49355000	      4934	80002f9c	00360663	beq	x12,x3,80002fa8	 x12:0x00000080  x3:0x00000000
       49365000	      4935	80002fa0	00bdc5b3	xor	x11,x27,x11	 x27:0x00000000 x11:0xf4400000 x11=0xf4400000
       49375000	      4936	80002fa4	00000013	addi	x0,x0,0	  x0:0x00000000
       49385000	      4937	80002fa8	01eca233	slt	x4,x25,x30	 x25:0x80009fc4 x30:0x00000000  x4=0x00000001
       49395000	      4938	80002fac	01219633	sll	x12,x3,x18	  x3:0x00000000 x18:0x80009fc4 x12=0x00000000
       49405000	      4939	80002fb0	018c66b3	or	x13,x24,x24	 x24:0x000a7c00 x24:0x000a7c00 x13=0x000a7c00
       49415000	      4940	80002fb4	015535b3	sltu	x11,x10,x21	 x10:0xfffffd11 x21:0xfffffe6d x11=0x00000001
       49425000	      4941	80002fb8	66b2f693	andi	x13,x5,1643	  x5:0x0000029f x13=0x0000020b
       49435000	      4942	80002fbc	036b8c63	beq	x23,x22,80002ff4	 x23:0x00000000 x22:0xfffffd10
       49445000	      4943	80002fc0	01b8dc63	bge	x17,x27,80002fd8	 x17:0x00000001 x27:0x00000000
       49455000	      4944	00000000	00000013	addi	x0,x0,0	  x0:0x00000000
       49465000	      4945	80002fd4	00000013	addi	x0,x0,0	  x0:0x00000000
       49475000	      4946	80002fd8	010117b3	sll	x15,x2,x16	  x2:0x00000000 x16:0x80009f70 x15=0x00000000
       49485000	      4947	80002fdc	4c5f6793	ori	x15,x30,1221	 x30:0x00000000 x15=0x000004c5
       49495000	      4948	80002fe0	febe0493	addi	x9,x28,-21	 x28:0xfffffd4a  x9=0xfffffd35
       49505000	      4949	80002fe4	000802b3	add	x5,x16,x0	 x16:0x80009f70  x0:0x00000000  x5=0x80009f70
       49515000	      4950	80002fe8	10714913	xori	x18,x2,263	  x2:0x00000000 x18=0x00000107
       49525000	      4951	80002fec	40b158b3	sra	x17,x2,x11	  x2:0x00000000 x11:0x00000001 x17=0x00000000
       49535000	      4952	80002ff0	01365b93	srli	x23,x12,0x13	 x12:0x00000000 x23=0x00000000
       49545000	      4953	80002ff4	014b72b3	and	x5,x22,x20	 x22:0xfffffd10 x20:0x000007ff  x5=0x00000510
       49555000	      4954	80002ff8	012d62b3	or	x5,x26,x18	 x26:0x000a7c00 x18:0x00000107  x5=0x000a7d07
       49565000	      4955	80002ffc	0156e633	or	x12,x13,x21	 x13:0x0000020b x21:0xfffffe6d x12=0xfffffe6f
       49575000	      4956	80003000	41aa85b3	sub	x11,x21,x26	 x21:0xfffffe6d x26:0x000a7c00 x11=0xfff5826d
       49585000	      4957	80003004	f95d3993	sltiu	x19,x26,-107	 x26:0x000a7c00 x19=0x00000001
       49595000	      4958	80003008	41425693	srai	x13,x4,0x14	  x4:0x00000001 x13=0x00000000
       49605000	      4959	8000300c	00355033	srl	x0,x10,x3	 x10:0xfffffd11  x3:0x00000000
       49615000	      4960	80003010	00641613	slli	x12,x8,0x6	  x8:0x000514c8 x12=0x01453200
       49625000	      4961	80003014	000a0e63	beq	x20,x0,80003030	 x20:0x000007ff  x0:0x00000000
       49635000	      4962	80003018	0383dc63	bge	x7,x24,80003050	  x7:0x00000000 x24:0x000a7c00
       49645000	      4963	8000301c	02280263	beq	x16,x2,80003040	 x16:0x80009f70  x2:0x00000000
       49655000	      4964	80003020	4acd3d93	sltiu	x27,x26,1196	 x26:0x000a7c00 x27=0x00000000
       49665000	      4965	80003024	411958b3	sra	x17,x18,x17	 x18:0x00000107 x17:0x00000000 x17=0x00000107
       49675000	      4966	80003028	41ae5913	srai	x18,x28,0x1a	 x28:0xfffffd4a x18=0xffffffff
       49685000	      4967	8000302c	001cc0b3	xor	x1,x25,x1	 x25:0x80009fc4  x1:0x00000000  x1=0x80009fc4
       49695000	      4968	80003030	40a650b3	sra	x1,x12,x10	 x12:0x01453200 x10:0xfffffd11  x1=0x000000a2
       49705000	      4969	80003034	01e40733	add	x14,x8,x30	  x8:0x000514c8 x30:0x00000000 x14=0x000514c8
       49715000	      4970	80003038	ca58c093	xori	x1,x17,-859	 x17:0x00000107  x1=0xfffffda2
       49725000	      4971	8000303c	00ef5593	srli	x11,x30,0xe	 x30:0x00000000 x11=0x00000000
       49735000	      4972	80003040	01655f13	srli	x30,x10,0x16	 x10:0xfffffd11 x30=0x000003ff
       49745000	      4973	80003044	000794b3	sll	x9,x15,x0	 x15:0x000004c5  x0:0x00000000  x9=0x000004c5
       49755000	      4974	80003048	00bba633	slt	x12,x23,x11	 x23:0x00000000 x11:0x00000000 x12=0x00000000
       49765000	      4975	8000304c	a2188e17	auipc	x28,0xa2188	 x28=0x2218b048
       49775000	      4976	80003050	00a15593	srli	x11,x2,0xa	  x2:0x00000000 x11=0x00000000
       49785000	      4977	80003054	008dfc63	bgeu	x27,x8,8000306c	 x27:0x00000000  x8:0x000514c8
       49795000	      4978	80003058	5e233617	auipc	x12,0x5e233	 x12=0xde236054
       49805000	      4979	8000305c	00ea2bb3	slt	x23,x20,x14	 x20:0x000007ff x14:0x000514c8 x23=0x00000001
       49815000	      4980	80003060	0080eb33	or	x22,x1,x8	  x1:0xfffffda2  x8:0x000514c8 x22=0xfffffdea
       49825000	      4981	80003064	b96fc713	xori	x14,x31,-1130	 x31:0x80000000 x14=0x7ffffb96
       49835000	      4982	80003068	41485013	srai	x0,x16,0x14	 x16:0x80009f70
       49845000	      4983	8000306c	0be81663	bne	x16,x30,80003118	 x16:0x80009f70 x30:0x000003ff
       49855000	      4984	00000000	00000013	addi	x0,x0,0	  x0:0x00000000
       49865000	      4985	80003114	00000013	addi	x0,x0,0	  x0:0x00000000
       49875000	      4986	80003118	00e52c33	slt	x24,x10,x14	 x10:0xfffffd11 x14:0x7ffffb96 x24=0x00000001
       49885000	      4987	8000311c	05bf4863	blt	x30,x27,8000316c	 x30:0x000003ff x27:0x00000000
       49895000	      4988	80003120	001d1713	slli	x14,x26,0x1	 x26:0x000a7c00 x14=0x0014f800
       49905000	      4989	80003124	039ede63	bge	x29,x25,80003160	 x29:0xb1493000 x25:0x80009fc4
       49915000	      4990	00000000	00000013	addi	x0,x0,0	  x0:0x00000000
       49925000	      4991	8000315c	00000013	addi	x0,x0,0	  x0:0x00000000
       49935000	      4992	80003160	019c45b3	xor	x11,x24,x25	 x24:0x00000001 x25:0x80009fc4 x11=0x80009fc5
       49945000	      4993	80003164	1ce8c693	xori	x13,x17,462	 x17:0x00000107 x13=0x000000c9
       49955000	      4994	80003168	00f842b3	xor	x5,x16,x15	 x16:0x80009f70 x15:0x000004c5  x5=0x80009bb5
       49965000	      4995	8000316c	01061413	slli	x8,x12,0x10	 x12:0xde236054  x8=0x60540000
       49975000	      4996	80003170	01fd1bb3	sll	x23,x26,x31	 x26:0x000a7c00 x31:0x80000000 x23=0x000a7c00
       49985000	      4997	80003174	21447593	andi	x11,x8,532	  x8:0x60540000 x11=0x00000000
       49995000	      4998	80003178	00ecbf33	sltu	x30,x25,x14	 x25:0x80009fc4 x14:0x0014f800 x30=0x00000000
       50005000	      4999	8000317c	011c1d17	auipc	x26,0x11c1	 x26=0x811c4178
       50015000	      5000	80003180	03397463	bgeu	x18,x19,800031a8	 x18:0xffffffff x19:0x00000001
       50025000	      5001	00000000	00000013	addi	x0,x0,0	  x0:0x00000000
       50035000	      5002	800031a4	00000013	addi	x0,x0,0	  x0:0x00000000
       50045000	      5003	800031a8	b9f5c013	xori	x0,x11,-1121	 x11:0x00000000
       50055000	      5004	800031ac	ff79ad37	lui	x26,0xff79a	 x26=0xff79a000
       50065000	      5005	800031b0	40fbda33	sra	x20,x23,x15	 x23:0x000a7c00 x15:0x000004c5 x20=0x000053e0
       50075000	      5006	800031b4	00b9c863	blt	x19,x11,800031c4	 x19:0x00000001 x11:0x00000000
       50085000	      5007	800031b8	006c9933	sll	x18,x25,x6	 x25:0x80009fc4  x6:0x00000000 x18=0x80009fc4
       50095000	      5008	800031bc	400b0b33	sub	x22,x22,x0	 x22:0xfffffdea  x0:0x00000000 x22=0xfffffdea
       50105000	      5009	800031c0	4180dd33	sra	x26,x1,x24	  x1:0xfffffda2 x24:0x00000001 x26=0xfffffed1
       50115000	      5010	800031c4	45b54193	xori	x3,x10,1115	 x10:0xfffffd11  x3=0xfffff94a
       50125000	      5011	800031c8	004142b3	xor	x5,x2,x4	  x2:0x00000000  x4:0x00000001  x5=0x00000001
       50135000	      5012	800031cc	42f53e93	sltiu	x29,x10,1071	 x10:0xfffffd11 x29=0x00000000
       50145000	      5013	800031d0	1e088493	addi	x9,x17,480	 x17:0x00000107  x9=0x000002e7
       50155000	      5014	800031d4	016cb5b3	sltu	x11,x25,x22	 x25:0x80009fc4 x22:0xfffffdea x11=0x00000001
       50165000	      5015	800031d8	0189bdb3	sltu	x27,x19,x24	 x19:0x00000001 x24:0x00000001 x27=0x00000000
       50175000	      5016	800031dc	412dd193	srai	x3,x27,0x12	 x27:0x00000000  x3=0x00000000
       50185000	      5017	800031e0	41925033	sra	x0,x4,x25	  x4:0x00000001 x25:0x80009fc4
       50195000	      5018	800031e4	40ba0db3	sub	x27,x20,x11	 x20:0x000053e0 x11:0x00000001 x27=0x000053df
       50205000	      5019	800031e8	41ab5913	srai	x18,x22,0x1a	 x22:0xfffffdea x18=0xffffffff
       50215000	      5020	800031ec	d0b3fd93	andi	x27,x7,-757	  x7:0x00000000 x27=0x00000000
       50225000	      5021	800031f0	dc30a893	slti	x17,x1,-573	  x1:0xfffffda2 x17=0x00000001
       50235000	      5022	800031f4	00853633	sltu	x12,x10,x8	 x10:0xfffffd11  x8:0x60540000 x12=0x00000000
       50245000	      5023	800031f8	00000013	addi	x0,x0,0	  x0:0x00000000
       50255000	      5024	800031fc	029a9463	bne	x21,x9,80003224	 x21:0xfffffe6d  x9:0x000002e7
       50265000	      5025	00000000	00000013	addi	x0,x0,0	  x0:0x00000000
       50275000	      5026	80003220	00000013	addi	x0,x0,0	  x0:0x00000000
       50285000	      5027	80003224	04f68463	beq	x13,x15,8000326c	 x13:0x000000c9 x15:0x000004c5
       50295000	      5028	80003228	000ee2b3	or	x5,x29,x0	 x29:0x00000000  x0:0x00000000  x5=0x00000000
       50305000	      5029	8000322c	01d4be33	sltu	x28,x9,x29	  x9:0x000002e7 x29:0x00000000 x28=0x00000000
       50315000	      5030	80003230	0501e463	bltu	x3,x16,80003278	  x3:0x00000000 x16:0x80009f70
       50325000	      5031	00000000	00000013	addi	x0,x0,0	  x0:0x00000000
       50335000	      5032	80003274	00000013	addi	x0,x0,0	  x0:0x00000000
       50345000	      5033	80003278	01b36133	or	x2,x6,x27	  x6:0x00000000 x27:0x00000000  x2=0x00000000
       50355000	      5034	8000327c	01611d93	slli	x27,x2,0x16	  x2:0x00000000 x27=0x00000000
       50365000	      5035	80003280	8c602093	slti	x1,x0,-1850	  x0:0x00000000  x1=0x00000000
       50375000	      5036	80003284	00000013	addi	x0,x0,0	  x0:0x00000000
       50385000	      5037	80003288	2c993093	sltiu	x1,x18,713	 x18:0xffffffff  x1=0x00000000
       50395000	      5038	8000328c	017a7093	andi	x1,x20,23	 x20:0x000053e0  x1=0x00000000
       50405000	      5039	80003290	d9cca1b7	lui	x3,0xd9cca	  x3=0xd9cca000
       50415000	      5040	80003294	02f27e63	bgeu	x4,x15,800032d0	  x4:0x00000001 x15:0x000004c5
       50425000	      5041	80003298	0463f463	bgeu	x7,x6,800032e0	  x7:0x00000000  x6:0x00000000
       50435000	      5042	00000000	00000013	addi	x0,x0,0	  x0:0x00000000
       50445000	      5043	800032dc	00000013	addi	x0,x0,0	  x0:0x00000000
       50455000	      5044	800032e0	00e0f1b3	and	x3,x1,x14	  x1:0x00000000 x14:0x0014f800  x3=0x00000000
       50465000	      5045	800032e4	4018de93	srai	x29,x17,0x1	 x17:0x00000001 x29=0x00000000
       50475000	      5046	800032e8	0188a033	slt	x0,x17,x24	 x17:0x00000001 x24:0x00000001
       50485000	      5047	800032ec	01ca32b3	sltu	x5,x20,x28	 x20:0x000053e0 x28:0x00000000  x5=0x00000000
       50495000	      5048	800032f0	0173bdb3	sltu	x27,x7,x23	  x7:0x00000000 x23:0x000a7c00 x27=0x00000001
       50505000	      5049	800032f4	eabd2917	auipc	x18,0xeabd2	 x18=0x6abd52f0
       50515000	      5050	800032f8	00000013	addi	x0,x0,0	  x0:0x00000000
       50525000	      5051	800032fc	00000013	addi	x0,x0,0	  x0:0x00000000
       50535000	      5052	80003300	4f30e313	ori	x6,x1,1267	  x1:0x00000000  x6=0x000004f3
       50545000	      5053	80003304	0082a1b3	slt	x3,x5,x8	  x5:0x00000000  x8:0x60540000  x3=0x00000001
       50555000	      5054	80003308	83e03e13	sltiu	x28,x0,-1986	  x0:0x00000000 x28=0x00000001
       50565000	      5055	8000330c	1435aa17	auipc	x20,0x1435a	 x20=0x9435d308
       50575000	      5056	80003310	00e24c63	blt	x4,x14,80003328	  x4:0x00000001 x14:0x0014f800
       50585000	      5057	00000000	00000013	addi	x0,x0,0	  x0:0x00000000
       50595000	      5058	80003324	00000013	addi	x0,x0,0	  x0:0x00000000
       50605000	      5059	80003328	02ab5263	bge	x22,x10,8000334c	 x22:0xfffffdea x10:0xfffffd11
       50615000	      5060	00000000	00000013	addi	x0,x0,0	  x0:0x00000000
       50625000	      5061	80003348	00000013	addi	x0,x0,0	  x0:0x00000000
       50635000	      5062	8000334c	015ddf33	srl	x30,x27,x21	 x27:0x00000001 x21:0xfffffe6d x30=0x00000000
       50645000	      5063	80003350	1cc9e997	auipc	x19,0x1cc9e	 x19=0x9cca134c
       50655000	      5064	80003354	a8ff2917	auipc	x18,0xa8ff2	 x18=0x28ff5350
       50665000	      5065	80003358	01f16333	or	x6,x2,x31	  x2:0x00000000 x31:0x80000000  x6=0x80000000
       50675000	      5066	8000335c	01c92ab3	slt	x21,x18,x28	 x18:0x28ff5350 x28:0x00000001 x21=0x00000000
       50685000	      5067	80003360	01616733	or	x14,x2,x22	  x2:0x00000000 x22:0xfffffdea x14=0xfffffdea
       50695000	      5068	80003364	d4b2e613	ori	x12,x5,-693	  x5:0x00000000 x12=0xfffffd4b
       50705000	      5069	80003368	01ed1913	slli	x18,x26,0x1e	 x26:0xfffffed1 x18=0x40000000
       50715000	      5070	8000336c	015ec663	blt	x29,x21,80003378	 x29:0x00000000 x21:0x00000000
       50725000	      5071	80003370	011edf33	srl	x30,x29,x17	 x29:0x00000000 x17:0x00000001 x30=0x00000000
       50735000	      5072	80003374	00f70263	beq	x14,x15,80003378	 x14:0xfffffdea x15:0x000004c5
       50745000	      5073	80003378	00000013	addi	x0,x0,0	  x0:0x00000000
       50755000	      5074	8000337c	01903ab3	sltu	x21,x0,x25	  x0:0x00000000 x25:0x80009fc4 x21=0x00000001
       50765000	      5075	80003380	009a5233	srl	x4,x20,x9	 x20:0x9435d308  x9:0x000002e7  x4=0x01286ba6
       50775000	      5076	80003384	7661ae17	auipc	x28,0x7661a	 x28=0xf661d380
       50785000	      5077	80003388	00ca9d33	sll	x26,x21,x12	 x21:0x00000001 x12:0xfffffd4b x26=0x00000800
       50795000	      5078	8000338c	41b6dd93	srai	x27,x13,0x1b	 x13:0x000000c9 x27=0x00000000
       50805000	      5079	80003390	00482083	lw	x1,4(x16)	 x16:0x80009f70  x1=0x800002c8 PA:0x80009f74
       50815000	      5080	80003394	754ee213	ori	x4,x29,1876	 x29:0x00000000  x4=0x00000754
       50825000	      5081	80003398	42c67a93	andi	x21,x12,1068	 x12:0xfffffd4b x21=0x00000408
       50835000	      5082	8000339c	01480813	addi	x16,x16,20	 x16:0x80009f70 x16=0x80009f84
       50845000	      5083	800033a0	c8ad6693	ori	x13,x26,-886	 x26:0x00000800 x13=0xfffffc8a
       50855000	      5084	800033a4	005472b3	and	x5,x8,x5	  x8:0x60540000  x5:0x00000000  x5=0x00000000
       50865000	      5085	800033a8	00108913	addi	x18,x1,1	  x1:0x800002c8 x18=0x800002c9
       50875000	      5086	800033ac	00090967	jalr	x18,x18,0	 x18:0x800002c9 x18=0x800033ac
       50885000	      5087	00000000	00000013	addi	x0,x0,0	  x0:0x00000000
       50895000	      5088	800002c8	00000013	addi	x0,x0,0	  x0:0x00000000
       50905000	      5089	800002cc	01302433	slt	x8,x0,x19	  x0:0x00000000 x19:0x9cca134c  x8=0x00000000
       50915000	      5090	800002d0	4092d733	sra	x14,x5,x9	  x5:0x00000000  x9:0x000002e7 x14=0x00000000
       50925000	      5091	800002d4	003c8bb3	add	x23,x25,x3	 x25:0x80009fc4  x3:0x00000001 x23=0x80009fc5
       50935000	      5092	800002d8	0209d263	bge	x19,x0,800002fc	 x19:0x9cca134c  x0:0x00000000
       50945000	      5093	800002dc	01ed8863	beq	x27,x30,800002ec	 x27:0x00000000 x30:0x00000000
       50955000	      5094	00000000	00000013	addi	x0,x0,0	  x0:0x00000000
       50965000	      5095	800002e8	00000013	addi	x0,x0,0	  x0:0x00000000
       50975000	      5096	800002ec	011c6333	or	x6,x24,x17	 x24:0x00000001 x17:0x00000001  x6=0x00000001
       50985000	      5097	800002f0	40e35113	srai	x2,x6,0xe	  x6:0x00000001  x2=0x00000000
       50995000	      5098	800002f4	012d3c33	sltu	x24,x26,x18	 x26:0x00000800 x18:0x800033ac x24=0x00000001
       51005000	      5099	800002f8	41aa09b3	sub	x19,x20,x26	 x20:0x9435d308 x26:0x00000800 x19=0x9435cb08
       51015000	      5100	800002fc	00e7f933	and	x18,x15,x14	 x15:0x000004c5 x14:0x00000000 x18=0x00000000
       51025000	      5101	80000300	01265233	srl	x4,x12,x18	 x12:0xfffffd4b x18:0x00000000  x4=0xfffffd4b
       51035000	      5102	80000304	00000013	addi	x0,x0,0	  x0:0x00000000
       51045000	      5103	80000308	03a6fe63	bgeu	x13,x26,80000344	 x13:0xfffffc8a x26:0x00000800
       51055000	      5104	00000000	00000013	addi	x0,x0,0	  x0:0x00000000
       51065000	      5105	80000340	00000013	addi	x0,x0,0	  x0:0x00000000
       51075000	      5106	80000344	02761663	bne	x12,x7,80000370	 x12:0xfffffd4b  x7:0x00000000
       51085000	      5107	00000000	00000013	addi	x0,x0,0	  x0:0x00000000
       51095000	      5108	8000036c	00000013	addi	x0,x0,0	  x0:0x00000000
       51105000	      5109	80000370	41da08b3	sub	x17,x20,x29	 x20:0x9435d308 x29:0x00000000 x17=0x9435d308
       51115000	      5110	80000374	00000013	addi	x0,x0,0	  x0:0x00000000
       51125000	      5111	80000378	409d82b3	sub	x5,x27,x9	 x27:0x00000000  x9:0x000002e7  x5=0xfffffd19
       51135000	      5112	8000037c	0358e263	bltu	x17,x21,800003a0	 x17:0x9435d308 x21:0x00000408
       51145000	      5113	80000380	00684d33	xor	x26,x16,x6	 x16:0x80009f84  x6:0x00000001 x26=0x80009f85
       51155000	      5114	80000384	05d07e63	bgeu	x0,x29,800003e0	  x0:0x00000000 x29:0x00000000
       51165000	      5115	00000000	00000013	addi	x0,x0,0	  x0:0x00000000
       51175000	      5116	800003dc	00000013	addi	x0,x0,0	  x0:0x00000000
       51185000	      5117	800003e0	c1f48b93	addi	x23,x9,-993	  x9:0x000002e7 x23=0xffffff06
       51195000	      5118	800003e4	012d7463	bgeu	x26,x18,800003ec	 x26:0x80009f85 x18:0x00000000
       51205000	      5119	00000000	00000013	addi	x0,x0,0	  x0:0x00000000
       51215000	      5120	800003e8	00000013	addi	x0,x0,0	  x0:0x00000000
       51225000	      5121	800003ec	012db4b3	sltu	x9,x27,x18	 x27:0x00000000 x18:0x00000000  x9=0x00000000
       51235000	      5122	800003f0	a99e7893	andi	x17,x28,-1383	 x28:0xf661d380 x17=0xf661d280
       51245000	      5123	800003f4	418f5033	sra	x0,x30,x24	 x30:0x00000000 x24:0x00000001
       51255000	      5124	800003f8	a6bda237	lui	x4,0xa6bda	  x4=0xa6bda000
       51265000	      5125	800003fc	017af8b3	and	x17,x21,x23	 x21:0x00000408 x23:0xffffff06 x17=0x00000400
       51275000	      5126	80000400	00481433	sll	x8,x16,x4	 x16:0x80009f84  x4:0xa6bda000  x8=0x80009f84
       51285000	      5127	80000404	a54ee913	ori	x18,x29,-1452	 x29:0x00000000 x18=0xfffffa54
       51295000	      5128	80000408	40cdd7b3	sra	x15,x27,x12	 x27:0x00000000 x12:0xfffffd4b x15=0x00000000
       51305000	      5129	8000040c	b3d43393	sltiu	x7,x8,-1219	  x8:0x80009f84  x7=0x00000001
       51315000	      5130	80000410	003b8633	add	x12,x23,x3	 x23:0xffffff06  x3:0x00000001 x12=0xffffff07
       51325000	      5131	80000414	001085b3	add	x11,x1,x1	  x1:0x800002c8  x1:0x800002c8 x11=0x00000590
       51335000	      5132	80000418	04801463	bne	x0,x8,80000460	  x0:0x00000000  x8:0x80009f84
       51345000	      5133	00000000	00000013	addi	x0,x0,0	  x0:0x00000000
       51355000	      5134	8000045c	00000013	addi	x0,x0,0	  x0:0x00000000
       51365000	      5135	80000460	3064f913	andi	x18,x9,774	  x9:0x00000000 x18=0x00000000
       51375000	      5136	80000464	01979d33	sll	x26,x15,x25	 x15:0x00000000 x25:0x80009fc4 x26=0x00000000
       51385000	      5137	80000468	00000013	addi	x0,x0,0	  x0:0x00000000
       51395000	      5138	8000046c	00200263	beq	x0,x2,80000470	  x0:0x00000000  x2:0x00000000
       51405000	      5139	00000000	00000013	addi	x0,x0,0	  x0:0x00000000
       51415000	      5140	8000046c	00000013	addi	x0,x0,0	  x0:0x00000000
       51425000	      5141	80000470	0153c6b3	xor	x13,x7,x21	  x7:0x00000001 x21:0x00000408 x13=0x00000409
       51435000	      5142	80000474	01d9d913	srli	x18,x19,0x1d	 x19:0x9435cb08 x18=0x00000004
       51445000	      5143	80000478	00f749b3	xor	x19,x14,x15	 x14:0x00000000 x15:0x00000000 x19=0x00000000
       51455000	      5144	8000047c	01ff8ab3	add	x21,x31,x31	 x31:0x80000000 x31:0x80000000 x21=0x00000000
       51465000	      5145	80000480	00f7ebb3	or	x23,x15,x15	 x15:0x00000000 x15:0x00000000 x23=0x00000000
       51475000	      5146	80000484	cddb0c13	addi	x24,x22,-803	 x22:0xfffffdea x24=0xfffffac7
       51485000	      5147	80000488	02951263	bne	x10,x9,800004ac	 x10:0xfffffd11  x9:0x00000000
       51495000	      5148	00000000	00000013	addi	x0,x0,0	  x0:0x00000000
       51505000	      5149	800004a8	00000013	addi	x0,x0,0	  x0:0x00000000
       51515000	      5150	800004ac	0039d213	srli	x4,x19,0x3	 x19:0x00000000  x4=0x00000000
       51525000	      5151	800004b0	00000f97	auipc	x31,0x0	 x31=0x800004ac
       51535000	      5152	800004b4	00cf8f93	addi	x31,x31,12	 x31:0x800004ac x31=0x800004b8
       51545000	      5153	800004b8	000f8067	jalr	x0,x31,0	 x31:0x800004b8
       51555000	      5154	00000000	00000013	addi	x0,x0,0	  x0:0x00000000
       51565000	      5155	800004b8	00000013	addi	x0,x0,0	  x0:0x00000000
       51575000	      5156	800004bc	00100193	addi	x3,x0,1	  x0:0x00000000  x3=0x00000001
       51585000	      5157	800004c0	00000073	ecall	
       51595000	      5158	800004c4	5d0fbd93	sltiu	x27,x31,1488	 x31:0x800004b8 x27=0x00000000
