		Time			Cycle	PC		Insn	Decoded instruction	Register and memory contents
          65000	         5	80000004	00000293	addi	x5,x0,0	  x0:0x00000000  x5=0x00000000
          75000	         6	80000008	00000313	addi	x6,x0,0	  x0:0x00000000  x6=0x00000000
          85000	         7	8000000c	00628263	beq	x5,x6,80000010	  x5:0x00000000  x6:0x00000000
          95000	         8	00000000	00000013	addi	x0,x0,0	  x0:0x00000000
         105000	         9	8000000c	00000013	addi	x0,x0,0	  x0:0x00000000
         115000	        10	80000010	00000e17	auipc	x28,0x0	 x28=0x8000000c
         125000	        11	80000014	00ce0e13	addi	x28,x28,12	 x28:0x8000000c x28=0x80000018
         135000	        12	80000018	000e0067	jalr	x0,x28,0	 x28:0x80000018
         145000	        13	00000000	00000013	addi	x0,x0,0	  x0:0x00000000
         155000	        14	80000018	00000013	addi	x0,x0,0	  x0:0x00000000
         165000	        15	8000001c	40000bb7	lui	x23,0x40000	 x23=0x40000000
         175000	        16	80000020	100b8b93	addi	x23,x23,256	 x23:0x40000000 x23=0x40000100
         185000	        17	80000024	00000013	addi	x0,x0,0	  x0:0x00000000
         195000	        18	80000028	0000a697	auipc	x13,0xa	 x13=0x8000a024
         205000	        19	8000002c	fa068693	addi	x13,x13,-96	 x13:0x8000a024 x13=0x80009fc4
         215000	        20	80000030	00005b97	auipc	x23,0x5	 x23=0x8000502c
         225000	        21	80000034	ea4b8b93	addi	x23,x23,-348	 x23:0x8000502c x23=0x80004ed0
         235000	        22	80000038	001beb93	ori	x23,x23,1	 x23:0x80004ed0 x23=0x80004ed1
         245000	        23	8000003c	00000013	addi	x0,x0,0	  x0:0x00000000
         255000	        24	80000040	00000b97	auipc	x23,0x0	 x23=0x8000003c
         265000	        25	80000044	020b8b93	addi	x23,x23,32	 x23:0x8000003c x23=0x8000005c
         275000	        26	80000048	00000013	addi	x0,x0,0	  x0:0x00000000
         285000	        27	8000004c	00000013	addi	x0,x0,0	  x0:0x00000000
         295000	        28	80000050	00002bb7	lui	x23,0x2	 x23=0x00002000
         305000	        29	80000054	800b8b93	addi	x23,x23,-2048	 x23:0x00002000 x23=0x00001800
         315000	        30	80000058	00000013	addi	x0,x0,0	  x0:0x00000000
         325000	        31	8000005c	00000013	addi	x0,x0,0	  x0:0x00000000
         335000	        32	80000060	00400013	addi	x0,x0,4	  x0:0x00000000
         345000	        33	80000064	800000b7	lui	x1,0x80000	  x1=0x80000000
         355000	        34	80000068	94cf7137	lui	x2,0x94cf7	  x2=0x94cf7000
         365000	        35	8000006c	aea10113	addi	x2,x2,-1302	  x2:0x94cf7000  x2=0x94cf6aea
         375000	        36	80000070	f81731b7	lui	x3,0xf8173	  x3=0xf8173000
         385000	        37	80000074	f0b18193	addi	x3,x3,-245	  x3:0xf8173000  x3=0xf8172f0b
         395000	        38	80000078	054ed237	lui	x4,0x54ed	  x4=0x054ed000
         405000	        39	8000007c	37d20213	addi	x4,x4,893	  x4:0x054ed000  x4=0x054ed37d
         415000	        40	80000080	00000313	addi	x6,x0,0	  x0:0x00000000  x6=0x00000000
         425000	        41	80000084	00000393	addi	x7,x0,0	  x0:0x00000000  x7=0x00000000
         435000	        42	80000088	00000413	addi	x8,x0,0	  x0:0x00000000  x8=0x00000000
         445000	        43	8000008c	70e7a4b7	lui	x9,0x70e7a	  x9=0x70e7a000
         455000	        44	80000090	96348493	addi	x9,x9,-1693	  x9:0x70e7a000  x9=0x70e79963
         465000	        45	80000094	00800513	addi	x10,x0,8	  x0:0x00000000 x10=0x00000008
         475000	        46	80000098	27fc65b7	lui	x11,0x27fc6	 x11=0x27fc6000
         485000	        47	8000009c	bdb58593	addi	x11,x11,-1061	 x11:0x27fc6000 x11=0x27fc5bdb
         495000	        48	800000a0	80000637	lui	x12,0x80000	 x12=0x80000000
         505000	        49	800000a4	00700713	addi	x14,x0,7	  x0:0x00000000 x14=0x00000007
         515000	        50	800000a8	faa137b7	lui	x15,0xfaa13	 x15=0xfaa13000
         525000	        51	800000ac	6bd78793	addi	x15,x15,1725	 x15:0xfaa13000 x15=0xfaa136bd
         535000	        52	800000b0	1968c837	lui	x16,0x1968c	 x16=0x1968c000
         545000	        53	800000b4	19280813	addi	x16,x16,402	 x16:0x1968c000 x16=0x1968c192
         555000	        54	800000b8	800008b7	lui	x17,0x80000	 x17=0x80000000
         565000	        55	800000bc	633f4937	lui	x18,0x633f4	 x18=0x633f4000
         575000	        56	800000c0	5ca90913	addi	x18,x18,1482	 x18:0x633f4000 x18=0x633f45ca
         585000	        57	800000c4	0b7a29b7	lui	x19,0xb7a2	 x19=0x0b7a2000
         595000	        58	800000c8	11598993	addi	x19,x19,277	 x19:0x0b7a2000 x19=0x0b7a2115
         605000	        59	800000cc	00000a13	addi	x20,x0,0	  x0:0x00000000 x20=0x00000000
         615000	        60	800000d0	80000ab7	lui	x21,0x80000	 x21=0x80000000
         625000	        61	800000d4	00d00b13	addi	x22,x0,13	  x0:0x00000000 x22=0x0000000d
         635000	        62	800000d8	00000b93	addi	x23,x0,0	  x0:0x00000000 x23=0x00000000
         645000	        63	800000dc	80000c37	lui	x24,0x80000	 x24=0x80000000
         655000	        64	800000e0	00c00c93	addi	x25,x0,12	  x0:0x00000000 x25=0x0000000c
         665000	        65	800000e4	ee806d37	lui	x26,0xee806	 x26=0xee806000
         675000	        66	800000e8	957d0d13	addi	x26,x26,-1705	 x26:0xee806000 x26=0xee805957
         685000	        67	800000ec	00000d93	addi	x27,x0,0	  x0:0x00000000 x27=0x00000000
         695000	        68	800000f0	00100e13	addi	x28,x0,1	  x0:0x00000000 x28=0x00000001
         705000	        69	800000f4	80000eb7	lui	x29,0x80000	 x29=0x80000000
         715000	        70	800000f8	00000f13	addi	x30,x0,0	  x0:0x00000000 x30=0x00000000
         725000	        71	800000fc	2f97bfb7	lui	x31,0x2f97b	 x31=0x2f97b000
         735000	        72	80000100	790f8f93	addi	x31,x31,1936	 x31:0x2f97b000 x31=0x2f97b790
         745000	        73	80000104	0000a297	auipc	x5,0xa	  x5=0x8000a100
         755000	        74	80000108	e8428293	addi	x5,x5,-380	  x5:0x8000a100  x5=0x80009f84
         765000	        75	8000010c	ac976213	ori	x4,x14,-1335	 x14:0x00000007  x4=0xfffffacf
         775000	        76	80000110	00f1e4b3	or	x9,x3,x15	  x3:0xf8172f0b x15:0xfaa136bd  x9=0xfab73fbf
         785000	        77	80000114	409bd9b3	sra	x19,x23,x9	 x23:0x00000000  x9:0xfab73fbf x19=0x00000000
         795000	        78	80000118	f53c3613	sltiu	x12,x24,-173	 x24:0x80000000 x12=0x00000001
         805000	        79	8000011c	00003597	auipc	x11,0x3	 x11=0x80003118
         815000	        80	80000120	a3058593	addi	x11,x11,-1488	 x11:0x80003118 x11=0x80002b48
         825000	        81	80000124	000134b3	sltu	x9,x2,x0	  x2:0x94cf6aea  x0:0x00000000  x9=0x00000000
         835000	        82	80000128	0091fa33	and	x20,x3,x9	  x3:0xf8172f0b  x9:0x00000000 x20=0x00000000
         845000	        83	8000012c	f59e4793	xori	x15,x28,-167	 x28:0x00000001 x15=0xffffff58
         855000	        84	80000130	27a58593	addi	x11,x11,634	 x11:0x80002b48 x11=0x80002dc2
         865000	        85	80000134	019af633	and	x12,x21,x25	 x21:0x80000000 x25:0x0000000c x12=0x00000000
         875000	        86	80000138	401c0933	sub	x18,x24,x1	 x24:0x80000000  x1:0x80000000 x18=0x00000000
         885000	        87	8000013c	8fac98b7	lui	x17,0x8fac9	 x17=0x8fac9000
         895000	        88	80000140	d8658a67	jalr	x20,x11,-634	 x11:0x80002dc2 x20=0x80000140
         905000	        89	00000000	00000013	addi	x0,x0,0	  x0:0x00000000
         915000	        90	80002b48	00000013	addi	x0,x0,0	  x0:0x00000000
         925000	        91	80002b4c	eb3ab893	sltiu	x17,x21,-333	 x21:0x80000000 x17=0x00000001
         935000	        92	80002b50	0069c463	blt	x19,x6,80002b58	 x19:0x00000000  x6:0x00000000
         945000	        93	80002b54	5d421bb7	lui	x23,0x5d421	 x23=0x5d421000
         955000	        94	80002b58	fd428293	addi	x5,x5,-44	  x5:0x80009f84  x5=0x80009f58
         965000	        95	80002b5c	0142a223	sw	x20,4(x5)	  x5:0x80009f58 x20:0x80000140 PA:0x80009f5c
         975000	        96	80002b60	4afb7c13	andi	x24,x22,1199	 x22:0x0000000d x24=0x0000000d
         985000	        97	80002b64	01f434b3	sltu	x9,x8,x31	  x8:0x00000000 x31:0x2f97b790  x9=0x00000001
         995000	        98	80002b68	01a64db3	xor	x27,x12,x26	 x12:0x00000000 x26:0xee805957 x27=0xee805957
        1005000	        99	80002b6c	01ac8813	addi	x16,x25,26	 x25:0x0000000c x16=0x00000026
        1015000	       100	80002b70	441ea413	slti	x8,x29,1089	 x29:0x80000000  x8=0x00000001
        1025000	       101	80002b74	05400a6f	jal	x20,80002b74	 x20=0x80002b74
        1035000	       102	00000000	00000013	addi	x0,x0,0	  x0:0x00000000
        1045000	       103	80002bc4	00000013	addi	x0,x0,0	  x0:0x00000000
        1055000	       104	80002bc8	ffdff0ef	jal	x1,80002bc8	  x1=0x80002bc8
        1065000	       105	00000000	00000013	addi	x0,x0,0	  x0:0x00000000
        1075000	       106	80002bc0	00000013	addi	x0,x0,0	  x0:0x00000000
        1085000	       107	80002bc4	fe5ff0ef	jal	x1,80002bc4	  x1=0x80002bc4
        1095000	       108	00000000	00000013	addi	x0,x0,0	  x0:0x00000000
        1105000	       109	80002ba4	00000013	addi	x0,x0,0	  x0:0x00000000
        1115000	       110	80002ba8	008000ef	jal	x1,80002ba8	  x1=0x80002ba8
        1125000	       111	00000000	00000013	addi	x0,x0,0	  x0:0x00000000
        1135000	       112	80002bac	00000013	addi	x0,x0,0	  x0:0x00000000
        1145000	       113	80002bb0	0040016f	jal	x2,80002bb0	  x2=0x80002bb0
        1155000	       114	00000000	00000013	addi	x0,x0,0	  x0:0x00000000
        1165000	       115	80002bb0	00000013	addi	x0,x0,0	  x0:0x00000000
        1175000	       116	80002bb4	01c000ef	jal	x1,80002bb4	  x1=0x80002bb4
        1185000	       117	00000000	00000013	addi	x0,x0,0	  x0:0x00000000
        1195000	       118	80002bcc	00000013	addi	x0,x0,0	  x0:0x00000000
        1205000	       119	80002bd0	fd1ff0ef	jal	x1,80002bd0	  x1=0x80002bd0
        1215000	       120	00000000	00000013	addi	x0,x0,0	  x0:0x00000000
        1225000	       121	80002b9c	00000013	addi	x0,x0,0	  x0:0x00000000
        1235000	       122	80002ba0	0200066f	jal	x12,80002ba0	 x12=0x80002ba0
        1245000	       123	00000000	00000013	addi	x0,x0,0	  x0:0x00000000
        1255000	       124	80002bbc	00000013	addi	x0,x0,0	  x0:0x00000000
        1265000	       125	80002bc0	fc5ffcef	jal	x25,80002bc0	 x25=0x80002bc0
        1275000	       126	00000000	00000013	addi	x0,x0,0	  x0:0x00000000
        1285000	       127	80002b80	00000013	addi	x0,x0,0	  x0:0x00000000
        1295000	       128	80002b84	034000ef	jal	x1,80002b84	  x1=0x80002b84
        1305000	       129	00000000	00000013	addi	x0,x0,0	  x0:0x00000000
        1315000	       130	80002bb4	00000013	addi	x0,x0,0	  x0:0x00000000
        1325000	       131	80002bb8	01c00d6f	jal	x26,80002bb8	 x26=0x80002bb8
        1335000	       132	00000000	00000013	addi	x0,x0,0	  x0:0x00000000
        1345000	       133	80002bd0	00000013	addi	x0,x0,0	  x0:0x00000000
        1355000	       134	80002bd4	fc1ff0ef	jal	x1,80002bd4	  x1=0x80002bd4
        1365000	       135	00000000	00000013	addi	x0,x0,0	  x0:0x00000000
        1375000	       136	80002b90	00000013	addi	x0,x0,0	  x0:0x00000000
        1385000	       137	80002b94	fedff4ef	jal	x9,80002b94	  x9=0x80002b94
        1395000	       138	00000000	00000013	addi	x0,x0,0	  x0:0x00000000
        1405000	       139	80002b7c	00000013	addi	x0,x0,0	  x0:0x00000000
        1415000	       140	80002b80	01c000ef	jal	x1,80002b80	  x1=0x80002b80
        1425000	       141	00000000	00000013	addi	x0,x0,0	  x0:0x00000000
        1435000	       142	80002b98	00000013	addi	x0,x0,0	  x0:0x00000000
        1445000	       143	80002b9c	fedffb6f	jal	x22,80002b9c	 x22=0x80002b9c
        1455000	       144	00000000	00000013	addi	x0,x0,0	  x0:0x00000000
        1465000	       145	80002b84	00000013	addi	x0,x0,0	  x0:0x00000000
        1475000	       146	80002b88	0040036f	jal	x6,80002b88	  x6=0x80002b88
        1485000	       147	00000000	00000013	addi	x0,x0,0	  x0:0x00000000
        1495000	       148	80002b88	00000013	addi	x0,x0,0	  x0:0x00000000
        1505000	       149	80002b8c	fedff4ef	jal	x9,80002b8c	  x9=0x80002b8c
        1515000	       150	00000000	00000013	addi	x0,x0,0	  x0:0x00000000
        1525000	       151	80002b74	00000013	addi	x0,x0,0	  x0:0x00000000
        1535000	       152	80002b78	020000ef	jal	x1,80002b78	  x1=0x80002b78
        1545000	       153	00000000	00000013	addi	x0,x0,0	  x0:0x00000000
        1555000	       154	80002b94	00000013	addi	x0,x0,0	  x0:0x00000000
        1565000	       155	80002b98	00c0036f	jal	x6,80002b98	  x6=0x80002b98
        1575000	       156	00000000	00000013	addi	x0,x0,0	  x0:0x00000000
        1585000	       157	80002ba0	00000013	addi	x0,x0,0	  x0:0x00000000
        1595000	       158	80002ba4	008000ef	jal	x1,80002ba4	  x1=0x80002ba4
        1605000	       159	00000000	00000013	addi	x0,x0,0	  x0:0x00000000
        1615000	       160	80002ba8	00000013	addi	x0,x0,0	  x0:0x00000000
        1625000	       161	80002bac	fd1ff36f	jal	x6,80002bac	  x6=0x80002bac
        1635000	       162	00000000	00000013	addi	x0,x0,0	  x0:0x00000000
        1645000	       163	80002b78	00000013	addi	x0,x0,0	  x0:0x00000000
        1655000	       164	80002b7c	014000ef	jal	x1,80002b7c	  x1=0x80002b7c
        1665000	       165	00000000	00000013	addi	x0,x0,0	  x0:0x00000000
        1675000	       166	80002b8c	00000013	addi	x0,x0,0	  x0:0x00000000
        1685000	       167	80002b90	03c000ef	jal	x1,80002b90	  x1=0x80002b90
        1695000	       168	00000000	00000013	addi	x0,x0,0	  x0:0x00000000
        1705000	       169	80002bc8	00000013	addi	x0,x0,0	  x0:0x00000000
        1715000	       170	80002bcc	ff1ff96f	jal	x18,80002bcc	 x18=0x80002bcc
        1725000	       171	00000000	00000013	addi	x0,x0,0	  x0:0x00000000
        1735000	       172	80002bb8	00000013	addi	x0,x0,0	  x0:0x00000000
        1745000	       173	80002bbc	01c000ef	jal	x1,80002bbc	  x1=0x80002bbc
        1755000	       174	00000000	00000013	addi	x0,x0,0	  x0:0x00000000
        1765000	       175	80002bd4	00000013	addi	x0,x0,0	  x0:0x00000000
        1775000	       176	80002bd8	41d4dc93	srai	x25,x9,0x1d	  x9:0x80002b8c x25=0xfffffffc
        1785000	       177	80002bdc	03800a6f	jal	x20,80002bdc	 x20=0x80002bdc
        1795000	       178	00000000	00000013	addi	x0,x0,0	  x0:0x00000000
        1805000	       179	80002c10	00000013	addi	x0,x0,0	  x0:0x00000000
        1815000	       180	80002c14	014000ef	jal	x1,80002c14	  x1=0x80002c14
        1825000	       181	00000000	00000013	addi	x0,x0,0	  x0:0x00000000
        1835000	       182	80002c24	00000013	addi	x0,x0,0	  x0:0x00000000
        1845000	       183	80002c28	fe5ff0ef	jal	x1,80002c28	  x1=0x80002c28
        1855000	       184	00000000	00000013	addi	x0,x0,0	  x0:0x00000000
        1865000	       185	80002c08	00000013	addi	x0,x0,0	  x0:0x00000000
        1875000	       186	80002c0c	0040036f	jal	x6,80002c0c	  x6=0x80002c0c
        1885000	       187	00000000	00000013	addi	x0,x0,0	  x0:0x00000000
        1895000	       188	80002c0c	00000013	addi	x0,x0,0	  x0:0x00000000
        1905000	       189	80002c10	0300036f	jal	x6,80002c10	  x6=0x80002c10
        1915000	       190	00000000	00000013	addi	x0,x0,0	  x0:0x00000000
        1925000	       191	80002c3c	00000013	addi	x0,x0,0	  x0:0x00000000
        1935000	       192	80002c40	fc1ff0ef	jal	x1,80002c40	  x1=0x80002c40
        1945000	       193	00000000	00000013	addi	x0,x0,0	  x0:0x00000000
        1955000	       194	80002bfc	00000013	addi	x0,x0,0	  x0:0x00000000
        1965000	       195	80002c00	008000ef	jal	x1,80002c00	  x1=0x80002c00
        1975000	       196	00000000	00000013	addi	x0,x0,0	  x0:0x00000000
        1985000	       197	80002c04	00000013	addi	x0,x0,0	  x0:0x00000000
        1995000	       198	80002c08	02c0036f	jal	x6,80002c08	  x6=0x80002c08
        2005000	       199	00000000	00000013	addi	x0,x0,0	  x0:0x00000000
        2015000	       200	80002c30	00000013	addi	x0,x0,0	  x0:0x00000000
        2025000	       201	80002c34	008009ef	jal	x19,80002c34	 x19=0x80002c34
        2035000	       202	00000000	00000013	addi	x0,x0,0	  x0:0x00000000
        2045000	       203	80002c38	00000013	addi	x0,x0,0	  x0:0x00000000
        2055000	       204	80002c3c	fa9ff0ef	jal	x1,80002c3c	  x1=0x80002c3c
        2065000	       205	00000000	00000013	addi	x0,x0,0	  x0:0x00000000
        2075000	       206	80002be0	00000013	addi	x0,x0,0	  x0:0x00000000
        2085000	       207	80002be4	008000ef	jal	x1,80002be4	  x1=0x80002be4
        2095000	       208	00000000	00000013	addi	x0,x0,0	  x0:0x00000000
        2105000	       209	80002be8	00000013	addi	x0,x0,0	  x0:0x00000000
        2115000	       210	80002bec	038000ef	jal	x1,80002bec	  x1=0x80002bec
        2125000	       211	00000000	00000013	addi	x0,x0,0	  x0:0x00000000
        2135000	       212	80002c20	00000013	addi	x0,x0,0	  x0:0x00000000
        2145000	       213	80002c24	ff5ff0ef	jal	x1,80002c24	  x1=0x80002c24
        2155000	       214	00000000	00000013	addi	x0,x0,0	  x0:0x00000000
        2165000	       215	80002c14	00000013	addi	x0,x0,0	  x0:0x00000000
        2175000	       216	80002c18	004000ef	jal	x1,80002c18	  x1=0x80002c18
        2185000	       217	00000000	00000013	addi	x0,x0,0	  x0:0x00000000
        2195000	       218	80002c18	00000013	addi	x0,x0,0	  x0:0x00000000
        2205000	       219	80002c1c	014000ef	jal	x1,80002c1c	  x1=0x80002c1c
        2215000	       220	00000000	00000013	addi	x0,x0,0	  x0:0x00000000
        2225000	       221	80002c2c	00000013	addi	x0,x0,0	  x0:0x00000000
        2235000	       222	80002c30	0080066f	jal	x12,80002c30	 x12=0x80002c30
        2245000	       223	00000000	00000013	addi	x0,x0,0	  x0:0x00000000
        2255000	       224	80002c34	00000013	addi	x0,x0,0	  x0:0x00000000
        2265000	       225	80002c38	00c00c6f	jal	x24,80002c38	 x24=0x80002c38
        2275000	       226	00000000	00000013	addi	x0,x0,0	  x0:0x00000000
        2285000	       227	80002c40	00000013	addi	x0,x0,0	  x0:0x00000000
        2295000	       228	80002c44	fb5ff26f	jal	x4,80002c44	  x4=0x80002c44
        2305000	       229	00000000	00000013	addi	x0,x0,0	  x0:0x00000000
        2315000	       230	80002bf4	00000013	addi	x0,x0,0	  x0:0x00000000
        2325000	       231	80002bf8	0040026f	jal	x4,80002bf8	  x4=0x80002bf8
        2335000	       232	00000000	00000013	addi	x0,x0,0	  x0:0x00000000
        2345000	       233	80002bf8	00000013	addi	x0,x0,0	  x0:0x00000000
        2355000	       234	80002bfc	024000ef	jal	x1,80002bfc	  x1=0x80002bfc
        2365000	       235	00000000	00000013	addi	x0,x0,0	  x0:0x00000000
        2375000	       236	80002c1c	00000013	addi	x0,x0,0	  x0:0x00000000
        2385000	       237	80002c20	fc9ff0ef	jal	x1,80002c20	  x1=0x80002c20
        2395000	       238	00000000	00000013	addi	x0,x0,0	  x0:0x00000000
        2405000	       239	80002be4	00000013	addi	x0,x0,0	  x0:0x00000000
        2415000	       240	80002be8	044000ef	jal	x1,80002be8	  x1=0x80002be8
        2425000	       241	00000000	00000013	addi	x0,x0,0	  x0:0x00000000
        2435000	       242	80002c28	00000013	addi	x0,x0,0	  x0:0x00000000
        2445000	       243	80002c2c	fc5ff0ef	jal	x1,80002c2c	  x1=0x80002c2c
        2455000	       244	00000000	00000013	addi	x0,x0,0	  x0:0x00000000
        2465000	       245	80002bec	00000013	addi	x0,x0,0	  x0:0x00000000
        2475000	       246	80002bf0	0040056f	jal	x10,80002bf0	 x10=0x80002bf0
        2485000	       247	00000000	00000013	addi	x0,x0,0	  x0:0x00000000
        2495000	       248	80002bf0	00000013	addi	x0,x0,0	  x0:0x00000000
        2505000	       249	80002bf4	0100036f	jal	x6,80002bf4	  x6=0x80002bf4
        2515000	       250	00000000	00000013	addi	x0,x0,0	  x0:0x00000000
        2525000	       251	80002c00	00000013	addi	x0,x0,0	  x0:0x00000000
        2535000	       252	80002c04	fddff0ef	jal	x1,80002c04	  x1=0x80002c04
        2545000	       253	00000000	00000013	addi	x0,x0,0	  x0:0x00000000
        2555000	       254	80002bdc	00000013	addi	x0,x0,0	  x0:0x00000000
        2565000	       255	80002be0	068000ef	jal	x1,80002be0	  x1=0x80002be0
        2575000	       256	00000000	00000013	addi	x0,x0,0	  x0:0x00000000
        2585000	       257	80002c44	00000013	addi	x0,x0,0	  x0:0x00000000
        2595000	       258	80002c48	40b6db33	sra	x22,x13,x11	 x13:0x80009fc4 x11:0x80002dc2 x22=0xe00027f1
        2605000	       259	80002c4c	05000a6f	jal	x20,80002c4c	 x20=0x80002c4c
        2615000	       260	00000000	00000013	addi	x0,x0,0	  x0:0x00000000
        2625000	       261	80002c98	00000013	addi	x0,x0,0	  x0:0x00000000
        2635000	       262	80002c9c	fb9ff0ef	jal	x1,80002c9c	  x1=0x80002c9c
        2645000	       263	00000000	00000013	addi	x0,x0,0	  x0:0x00000000
        2655000	       264	80002c50	00000013	addi	x0,x0,0	  x0:0x00000000
        2665000	       265	80002c54	00c004ef	jal	x9,80002c54	  x9=0x80002c54
        2675000	       266	00000000	00000013	addi	x0,x0,0	  x0:0x00000000
        2685000	       267	80002c5c	00000013	addi	x0,x0,0	  x0:0x00000000
        2695000	       268	80002c60	00c000ef	jal	x1,80002c60	  x1=0x80002c60
        2705000	       269	00000000	00000013	addi	x0,x0,0	  x0:0x00000000
        2715000	       270	80002c68	00000013	addi	x0,x0,0	  x0:0x00000000
        2725000	       271	80002c6c	0280036f	jal	x6,80002c6c	  x6=0x80002c6c
        2735000	       272	00000000	00000013	addi	x0,x0,0	  x0:0x00000000
        2745000	       273	80002c90	00000013	addi	x0,x0,0	  x0:0x00000000
        2755000	       274	80002c94	0040086f	jal	x16,80002c94	 x16=0x80002c94
        2765000	       275	00000000	00000013	addi	x0,x0,0	  x0:0x00000000
        2775000	       276	80002c94	00000013	addi	x0,x0,0	  x0:0x00000000
        2785000	       277	80002c98	fedff0ef	jal	x1,80002c98	  x1=0x80002c98
        2795000	       278	00000000	00000013	addi	x0,x0,0	  x0:0x00000000
        2805000	       279	80002c80	00000013	addi	x0,x0,0	  x0:0x00000000
        2815000	       280	80002c84	ff5ff0ef	jal	x1,80002c84	  x1=0x80002c84
        2825000	       281	00000000	00000013	addi	x0,x0,0	  x0:0x00000000
        2835000	       282	80002c74	00000013	addi	x0,x0,0	  x0:0x00000000
        2845000	       283	80002c78	fedffcef	jal	x25,80002c78	 x25=0x80002c78
        2855000	       284	00000000	00000013	addi	x0,x0,0	  x0:0x00000000
        2865000	       285	80002c60	00000013	addi	x0,x0,0	  x0:0x00000000
        2875000	       286	80002c64	01c000ef	jal	x1,80002c64	  x1=0x80002c64
        2885000	       287	00000000	00000013	addi	x0,x0,0	  x0:0x00000000
        2895000	       288	80002c7c	00000013	addi	x0,x0,0	  x0:0x00000000
        2905000	       289	80002c80	00c003ef	jal	x7,80002c80	  x7=0x80002c80
        2915000	       290	00000000	00000013	addi	x0,x0,0	  x0:0x00000000
        2925000	       291	80002c88	00000013	addi	x0,x0,0	  x0:0x00000000
        2935000	       292	80002c8c	fddff96f	jal	x18,80002c8c	 x18=0x80002c8c
        2945000	       293	00000000	00000013	addi	x0,x0,0	  x0:0x00000000
        2955000	       294	80002c64	00000013	addi	x0,x0,0	  x0:0x00000000
        2965000	       295	80002c68	014000ef	jal	x1,80002c68	  x1=0x80002c68
        2975000	       296	00000000	00000013	addi	x0,x0,0	  x0:0x00000000
        2985000	       297	80002c78	00000013	addi	x0,x0,0	  x0:0x00000000
        2995000	       298	80002c7c	ff9ff36f	jal	x6,80002c7c	  x6=0x80002c7c
        3005000	       299	00000000	00000013	addi	x0,x0,0	  x0:0x00000000
        3015000	       300	80002c70	00000013	addi	x0,x0,0	  x0:0x00000000
        3025000	       301	80002c74	fe5ff0ef	jal	x1,80002c74	  x1=0x80002c74
        3035000	       302	00000000	00000013	addi	x0,x0,0	  x0:0x00000000
        3045000	       303	80002c54	00000013	addi	x0,x0,0	  x0:0x00000000
        3055000	       304	80002c58	004000ef	jal	x1,80002c58	  x1=0x80002c58
        3065000	       305	00000000	00000013	addi	x0,x0,0	  x0:0x00000000
        3075000	       306	80002c58	00000013	addi	x0,x0,0	  x0:0x00000000
        3085000	       307	80002c5c	014000ef	jal	x1,80002c5c	  x1=0x80002c5c
        3095000	       308	00000000	00000013	addi	x0,x0,0	  x0:0x00000000
        3105000	       309	80002c6c	00000013	addi	x0,x0,0	  x0:0x00000000
        3115000	       310	80002c70	fe1ff0ef	jal	x1,80002c70	  x1=0x80002c70
        3125000	       311	00000000	00000013	addi	x0,x0,0	  x0:0x00000000
        3135000	       312	80002c4c	00000013	addi	x0,x0,0	  x0:0x00000000
        3145000	       313	80002c50	0380026f	jal	x4,80002c50	  x4=0x80002c50
        3155000	       314	00000000	00000013	addi	x0,x0,0	  x0:0x00000000
        3165000	       315	80002c84	00000013	addi	x0,x0,0	  x0:0x00000000
        3175000	       316	80002c88	008000ef	jal	x1,80002c88	  x1=0x80002c88
        3185000	       317	00000000	00000013	addi	x0,x0,0	  x0:0x00000000
        3195000	       318	80002c8c	00000013	addi	x0,x0,0	  x0:0x00000000
        3205000	       319	80002c90	010005ef	jal	x11,80002c90	 x11=0x80002c90
        3215000	       320	00000000	00000013	addi	x0,x0,0	  x0:0x00000000
        3225000	       321	80002c9c	00000013	addi	x0,x0,0	  x0:0x00000000
        3235000	       322	80002ca0	41015a33	sra	x20,x2,x16	  x2:0x80002bb0 x16:0x80002c94 x20=0xfffff800
        3245000	       323	80002ca4	417a50b3	sra	x1,x20,x23	 x20:0xfffff800 x23:0x5d421000  x1=0xfffff800
        3255000	       324	80002ca8	01d96e63	bltu	x18,x29,80002cc4	 x18:0x80002c8c x29:0x80000000
        3265000	       325	80002cac	00169c63	bne	x13,x1,80002cc4	 x13:0x80009fc4  x1:0xfffff800
        3275000	       326	00000000	00000013	addi	x0,x0,0	  x0:0x00000000
        3285000	       327	80002cc0	00000013	addi	x0,x0,0	  x0:0x00000000
        3295000	       328	80002cc4	02a16a63	bltu	x2,x10,80002cf8	  x2:0x80002bb0 x10:0x80002bf0
        3305000	       329	00000000	00000013	addi	x0,x0,0	  x0:0x00000000
        3315000	       330	80002cf4	00000013	addi	x0,x0,0	  x0:0x00000000
        3325000	       331	80002cf8	05e66263	bltu	x12,x30,80002d3c	 x12:0x80002c30 x30:0x00000000
        3335000	       332	80002cfc	b88d0093	addi	x1,x26,-1144	 x26:0x80002bb8  x1=0x80002740
        3345000	       333	80002d00	005c6e63	bltu	x24,x5,80002d1c	 x24:0x80002c38  x5:0x80009f58
        3355000	       334	00000000	00000013	addi	x0,x0,0	  x0:0x00000000
        3365000	       335	80002d18	00000013	addi	x0,x0,0	  x0:0x00000000
        3375000	       336	80002d1c	0124eb33	or	x22,x9,x18	  x9:0x80002c54 x18:0x80002c8c x22=0x80002cdc
        3385000	       337	80002d20	01c61c63	bne	x12,x28,80002d38	 x12:0x80002c30 x28:0x00000001
        3395000	       338	00000000	00000013	addi	x0,x0,0	  x0:0x00000000
        3405000	       339	80002d34	00000013	addi	x0,x0,0	  x0:0x00000000
        3415000	       340	80002d38	010bf4b3	and	x9,x23,x16	 x23:0x5d421000 x16:0x80002c94  x9=0x00000000
        3425000	       341	80002d3c	008ad033	srl	x0,x21,x8	 x21:0x80000000  x8:0x00000001
        3435000	       342	80002d40	40080833	sub	x16,x16,x0	 x16:0x80002c94  x0:0x00000000 x16=0x80002c94
        3445000	       343	80002d44	cb070c13	addi	x24,x14,-848	 x14:0x00000007 x24=0xfffffcb7
        3455000	       344	80002d48	03365c63	bge	x12,x19,80002d80	 x12:0x80002c30 x19:0x80002c34
        3465000	       345	80002d4c	31755097	auipc	x1,0x31755	  x1=0xb1757d48
        3475000	       346	80002d50	41dadb33	sra	x22,x21,x29	 x21:0x80000000 x29:0x80000000 x22=0x80000000
        3485000	       347	80002d54	05c2e463	bltu	x5,x28,80002d9c	  x5:0x80009f58 x28:0x00000001
        3495000	       348	80002d58	036c7c63	bgeu	x24,x22,80002d90	 x24:0xfffffcb7 x22:0x80000000
        3505000	       349	00000000	00000013	addi	x0,x0,0	  x0:0x00000000
        3515000	       350	80002d8c	00000013	addi	x0,x0,0	  x0:0x00000000
        3525000	       351	80002d90	00879b13	slli	x22,x15,0x8	 x15:0xffffff58 x22=0xffff5800
        3535000	       352	80002d94	28073317	auipc	x6,0x28073	  x6=0xa8075d90
        3545000	       353	80002d98	00000013	addi	x0,x0,0	  x0:0x00000000
        3555000	       354	80002d9c	014ed013	srli	x0,x29,0x14	 x29:0x80000000
        3565000	       355	80002da0	95ac1bb7	lui	x23,0x95ac1	 x23=0x95ac1000
        3575000	       356	80002da4	470df613	andi	x12,x27,1136	 x27:0xee805957 x12=0x00000050
        3585000	       357	80002da8	09d07863	bgeu	x0,x29,80002e38	  x0:0x00000000 x29:0x80000000
        3595000	       358	80002dac	06176063	bltu	x14,x1,80002e0c	 x14:0x00000007  x1:0xb1757d48
        3605000	       359	00000000	00000013	addi	x0,x0,0	  x0:0x00000000
        3615000	       360	80002e08	00000013	addi	x0,x0,0	  x0:0x00000000
        3625000	       361	80002e0c	407251b3	sra	x3,x4,x7	  x4:0x80002c50  x7:0x80002c80  x3=0x80002c50
        3635000	       362	80002e10	d2e34c13	xori	x24,x6,-722	  x6:0xa8075d90 x24=0x57f8a0be
        3645000	       363	80002e14	00000013	addi	x0,x0,0	  x0:0x00000000
        3655000	       364	80002e18	01b71eb3	sll	x29,x14,x27	 x14:0x00000007 x27:0xee805957 x29=0x03800000
        3665000	       365	80002e1c	00e99433	sll	x8,x19,x14	 x19:0x80002c34 x14:0x00000007  x8=0x00161a00
        3675000	       366	80002e20	00137133	and	x2,x6,x1	  x6:0xa8075d90  x1:0xb1757d48  x2=0xa0055d00
        3685000	       367	80002e24	d4e88613	addi	x12,x17,-690	 x17:0x00000001 x12=0xfffffd4f
        3695000	       368	80002e28	00d86db3	or	x27,x16,x13	 x16:0x80002c94 x13:0x80009fc4 x27=0x8000bfd4
        3705000	       369	80002e2c	01117d33	and	x26,x2,x17	  x2:0xa0055d00 x17:0x00000001 x26=0x00000000
        3715000	       370	80002e30	001d75b3	and	x11,x26,x1	 x26:0x00000000  x1:0xb1757d48 x11=0x00000000
        3725000	       371	80002e34	01c71b13	slli	x22,x14,0x1c	 x14:0x00000007 x22=0x70000000
        3735000	       372	80002e38	00b604b3	add	x9,x12,x11	 x12:0xfffffd4f x11:0x00000000  x9=0xfffffd4f
        3745000	       373	80002e3c	3dc20597	auipc	x11,0x3dc20	 x11=0xbdc22e38
        3755000	       374	80002e40	4f94fd93	andi	x27,x9,1273	  x9:0xfffffd4f x27=0x00000449
        3765000	       375	80002e44	01bb5cb3	srl	x25,x22,x27	 x22:0x70000000 x27:0x00000449 x25=0x00380000
        3775000	       376	80002e48	60a34517	auipc	x10,0x60a34	 x10=0xe0a36e44
        3785000	       377	80002e4c	2602b793	sltiu	x15,x5,608	  x5:0x80009f58 x15=0x00000000
        3795000	       378	80002e50	01e7eab3	or	x21,x15,x30	 x15:0x00000000 x30:0x00000000 x21=0x00000000
        3805000	       379	80002e54	00836e63	bltu	x6,x8,80002e70	  x6:0xa8075d90  x8:0x00161a00
        3815000	       380	80002e58	01fb5c63	bge	x22,x31,80002e70	 x22:0x70000000 x31:0x2f97b790
        3825000	       381	00000000	00000013	addi	x0,x0,0	  x0:0x00000000
        3835000	       382	80002e6c	00000013	addi	x0,x0,0	  x0:0x00000000
        3845000	       383	80002e70	0328cc63	blt	x17,x18,80002ea8	 x17:0x00000001 x18:0x80002c8c
        3855000	       384	80002e74	9b78cb97	auipc	x23,0x9b78c	 x23=0x1b78ee70
        3865000	       385	80002e78	0080e263	bltu	x1,x8,80002e7c	  x1:0xb1757d48  x8:0x00161a00
        3875000	       386	80002e7c	0044a733	slt	x14,x9,x4	  x9:0xfffffd4f  x4:0x80002c50 x14=0x00000000
        3885000	       387	80002e80	228f7717	auipc	x14,0x228f7	 x14=0xa28f9e7c
        3895000	       388	80002e84	24396d13	ori	x26,x18,579	 x18:0x80002c8c x26=0x80002ecf
        3905000	       389	80002e88	010a1333	sll	x6,x20,x16	 x20:0xfffff800 x16:0x80002c94  x6=0x80000000
        3915000	       390	80002e8c	02fa4663	blt	x20,x15,80002eb8	 x20:0xfffff800 x15:0x00000000
        3925000	       391	00000000	00000013	addi	x0,x0,0	  x0:0x00000000
        3935000	       392	80002eb4	00000013	addi	x0,x0,0	  x0:0x00000000
        3945000	       393	80002eb8	e959bc93	sltiu	x25,x19,-363	 x19:0x80002c34 x25=0x00000001
        3955000	       394	80002ebc	0162e333	or	x6,x5,x22	  x5:0x80009f58 x22:0x70000000  x6=0xf0009f58
        3965000	       395	80002ec0	00b11733	sll	x14,x2,x11	  x2:0xa0055d00 x11:0xbdc22e38 x14=0x00000000
        3975000	       396	80002ec4	a8a67513	andi	x10,x12,-1398	 x12:0xfffffd4f x10=0xfffff80a
        3985000	       397	80002ec8	016ef263	bgeu	x29,x22,80002ecc	 x29:0x03800000 x22:0x70000000
        3995000	       398	80002ecc	00ca2ab3	slt	x21,x20,x12	 x20:0xfffff800 x12:0xfffffd4f x21=0x00000001
        4005000	       399	80002ed0	00000013	addi	x0,x0,0	  x0:0x00000000
        4015000	       400	80002ed4	0c5faf13	slti	x30,x31,197	 x31:0x2f97b790 x30=0x00000000
        4025000	       401	80002ed8	05b68463	beq	x13,x27,80002f20	 x13:0x80009fc4 x27:0x00000449
        4035000	       402	80002edc	410b8333	sub	x6,x23,x16	 x23:0x1b78ee70 x16:0x80002c94  x6=0x9b78c1dc
        4045000	       403	80002ee0	40880933	sub	x18,x16,x8	 x16:0x80002c94  x8:0x00161a00 x18=0x7fea1294
        4055000	       404	80002ee4	b6266db7	lui	x27,0xb6266	 x27=0xb6266000
        4065000	       405	80002ee8	4ca84e93	xori	x29,x16,1226	 x16:0x80002c94 x29=0x8000285e
        4075000	       406	80002eec	4178d793	srai	x15,x17,0x17	 x17:0x00000001 x15=0x00000000
        4085000	       407	80002ef0	01c8a033	slt	x0,x17,x28	 x17:0x00000001 x28:0x00000001
        4095000	       408	80002ef4	41d15c93	srai	x25,x2,0x1d	  x2:0xa0055d00 x25=0xfffffffd
        4105000	       409	80002ef8	49654b93	xori	x23,x10,1174	 x10:0xfffff80a x23=0xfffffc9c
        4115000	       410	80002efc	01e00f33	add	x30,x0,x30	  x0:0x00000000 x30:0x00000000 x30=0x00000000
        4125000	       411	80002f00	00000013	addi	x0,x0,0	  x0:0x00000000
        4135000	       412	80002f04	30ab0a93	addi	x21,x22,778	 x22:0x70000000 x21=0x7000030a
        4145000	       413	80002f08	0360d263	bge	x1,x22,80002f2c	  x1:0xb1757d48 x22:0x70000000
        4155000	       414	80002f0c	4167d193	srai	x3,x15,0x16	 x15:0x00000000  x3=0x00000000
        4165000	       415	80002f10	00000013	addi	x0,x0,0	  x0:0x00000000
        4175000	       416	80002f14	6f794313	xori	x6,x18,1783	 x18:0x7fea1294  x6=0x7fea1463
        4185000	       417	80002f18	007f5a63	bge	x30,x7,80002f2c	 x30:0x00000000  x7:0x80002c80
        4195000	       418	00000000	00000013	addi	x0,x0,0	  x0:0x00000000
        4205000	       419	80002f28	00000013	addi	x0,x0,0	  x0:0x00000000
        4215000	       420	80002f2c	00091c93	slli	x25,x18,0x0	 x18:0x7fea1294 x25=0x7fea1294
        4225000	       421	80002f30	4a5b5937	lui	x18,0x4a5b5	 x18=0x4a5b5000
        4235000	       422	80002f34	01be0463	beq	x28,x27,80002f3c	 x28:0x00000001 x27:0xb6266000
        4245000	       423	80002f38	0191bbb3	sltu	x23,x3,x25	  x3:0x00000000 x25:0x7fea1294 x23=0x00000001
        4255000	       424	80002f3c	016e1733	sll	x14,x28,x22	 x28:0x00000001 x22:0x70000000 x14=0x00000001
        4265000	       425	80002f40	cfc60137	lui	x2,0xcfc60	  x2=0xcfc60000
        4275000	       426	80002f44	00688263	beq	x17,x6,80002f48	 x17:0x00000001  x6:0x7fea1463
        4285000	       427	80002f48	05b69863	bne	x13,x27,80002f98	 x13:0x80009fc4 x27:0xb6266000
        4295000	       428	00000000	00000013	addi	x0,x0,0	  x0:0x00000000
        4305000	       429	80002f94	00000013	addi	x0,x0,0	  x0:0x00000000
        4315000	       430	80002f98	01b16bb3	or	x23,x2,x27	  x2:0xcfc60000 x27:0xb6266000 x23=0xffe66000
        4325000	       431	80002f9c	79eab3b7	lui	x7,0x79eab	  x7=0x79eab000
        4335000	       432	80002fa0	01d7d3b3	srl	x7,x15,x29	 x15:0x00000000 x29:0x8000285e  x7=0x00000000
        4345000	       433	80002fa4	05fa4463	blt	x20,x31,80002fec	 x20:0xfffff800 x31:0x2f97b790
        4355000	       434	00000000	00000013	addi	x0,x0,0	  x0:0x00000000
        4365000	       435	80002fe8	00000013	addi	x0,x0,0	  x0:0x00000000
        4375000	       436	80002fec	013128b3	slt	x17,x2,x19	  x2:0xcfc60000 x19:0x80002c34 x17=0x00000000
        4385000	       437	80002ff0	0012e7b3	or	x15,x5,x1	  x5:0x80009f58  x1:0xb1757d48 x15=0xb175ff58
        4395000	       438	80002ff4	028f0c63	beq	x30,x8,8000302c	 x30:0x00000000  x8:0x00161a00
        4405000	       439	80002ff8	b0d97393	andi	x7,x18,-1267	 x18:0x4a5b5000  x7=0x4a5b5000
        4415000	       440	80002ffc	03a9ce63	blt	x19,x26,80003038	 x19:0x80002c34 x26:0x80002ecf
        4425000	       441	00000000	00000013	addi	x0,x0,0	  x0:0x00000000
        4435000	       442	80003034	00000013	addi	x0,x0,0	  x0:0x00000000
        4445000	       443	80003038	02a00263	beq	x0,x10,8000305c	  x0:0x00000000 x10:0xfffff80a
        4455000	       444	8000303c	0056ffb3	and	x31,x13,x5	 x13:0x80009fc4  x5:0x80009f58 x31=0x80009f40
        4465000	       445	80003040	00eede63	bge	x29,x14,8000305c	 x29:0x8000285e x14:0x00000001
        4475000	       446	80003044	4026d5b3	sra	x11,x13,x2	 x13:0x80009fc4  x2:0xcfc60000 x11=0x80009fc4
        4485000	       447	80003048	7c14c593	xori	x11,x9,1985	  x9:0xfffffd4f x11=0xfffffa8e
        4495000	       448	8000304c	412f5a33	sra	x20,x30,x18	 x30:0x00000000 x18:0x4a5b5000 x20=0x00000000
        4505000	       449	80003050	01ba9663	bne	x21,x27,8000305c	 x21:0x7000030a x27:0xb6266000
        4515000	       450	00000000	00000013	addi	x0,x0,0	  x0:0x00000000
        4525000	       451	80003058	00000013	addi	x0,x0,0	  x0:0x00000000
        4535000	       452	8000305c	2c2ceb13	ori	x22,x25,706	 x25:0x7fea1294 x22=0x7fea12d6
        4545000	       453	80003060	0055bb33	sltu	x22,x11,x5	 x11:0xfffffa8e  x5:0x80009f58 x22=0x00000000
        4555000	       454	80003064	41095113	srai	x2,x18,0x10	 x18:0x4a5b5000  x2=0x00004a5b
        4565000	       455	80003068	0042aa03	lw	x20,4(x5)	  x5:0x80009f58 x20=0x80000140 PA:0x80009f5c
        4575000	       456	8000306c	7971f617	auipc	x12,0x7971f	 x12=0xf9722068
        4585000	       457	80003070	02c28293	addi	x5,x5,44	  x5:0x80009f58  x5=0x80009f84
        4595000	       458	80003074	963bf7b7	lui	x15,0x963bf	 x15=0x963bf000
        4605000	       459	80003078	00ff5a93	srli	x21,x30,0xf	 x30:0x00000000 x21=0x00000000
        4615000	       460	8000307c	008d44b3	xor	x9,x26,x8	 x26:0x80002ecf  x8:0x00161a00  x9=0x801634cf
        4625000	       461	80003080	006de433	or	x8,x27,x6	 x27:0xb6266000  x6:0x7fea1463  x8=0xffee7463
        4635000	       462	80003084	2677c113	xori	x2,x15,615	 x15:0x963bf000  x2=0x963bf267
        4645000	       463	80003088	000a0413	addi	x8,x20,0	 x20:0x80000140  x8=0x80000140
        4655000	       464	8000308c	00040467	jalr	x8,x8,0	  x8:0x80000140  x8=0x8000308c
        4665000	       465	00000000	00000013	addi	x0,x0,0	  x0:0x00000000
        4675000	       466	80000140	00000013	addi	x0,x0,0	  x0:0x00000000
        4685000	       467	80000144	01399933	sll	x18,x19,x19	 x19:0x80002c34 x19:0x80002c34 x18=0xc3400000
        4695000	       468	80000148	00003797	auipc	x15,0x3	 x15=0x80003144
        4705000	       469	8000014c	6a478793	addi	x15,x15,1700	 x15:0x80003144 x15=0x800037e8
        4715000	       470	80000150	ddf78793	addi	x15,x15,-545	 x15:0x800037e8 x15=0x800035c7
        4725000	       471	80000154	014cda63	bge	x25,x20,80000168	 x25:0x7fea1294 x20:0x80000140
        4735000	       472	00000000	00000013	addi	x0,x0,0	  x0:0x00000000
        4745000	       473	80000164	00000013	addi	x0,x0,0	  x0:0x00000000
        4755000	       474	80000168	22278a67	jalr	x20,x15,546	 x15:0x800035c7 x20=0x80000168
        4765000	       475	00000000	00000013	addi	x0,x0,0	  x0:0x00000000
        4775000	       476	800037e8	00000013	addi	x0,x0,0	  x0:0x00000000
        4785000	       477	800037ec	00bd14b3	sll	x9,x26,x11	 x26:0x80002ecf x11:0xfffffa8e  x9=0x0bb3c000
        4795000	       478	800037f0	00aa1633	sll	x12,x20,x10	 x20:0x80000168 x10:0xfffff80a x12=0x0005a000
        4805000	       479	800037f4	404c8933	sub	x18,x25,x4	 x25:0x7fea1294  x4:0x80002c50 x18=0xffe9e644
        4815000	       480	800037f8	00641633	sll	x12,x8,x6	  x8:0x8000308c  x6:0x7fea1463 x12=0x00018460
        4825000	       481	800037fc	fc028293	addi	x5,x5,-64	  x5:0x80009f84  x5=0x80009f44
        4835000	       482	80003800	9995e613	ori	x12,x11,-1639	 x11:0xfffffa8e x12=0xfffffb9f
        4845000	       483	80003804	0142a223	sw	x20,4(x5)	  x5:0x80009f44 x20:0x80000168 PA:0x80009f48
        4855000	       484	80003808	40ef8f33	sub	x30,x31,x14	 x31:0x80009f40 x14:0x00000001 x30=0x80009f3f
        4865000	       485	8000380c	003dd713	srli	x14,x27,0x3	 x27:0xb6266000 x14=0x16c4cc00
        4875000	       486	80003810	9eca6993	ori	x19,x20,-1556	 x20:0x80000168 x19=0xfffff9ec
        4885000	       487	80003814	01400a6f	jal	x20,80003814	 x20=0x80003814
        4895000	       488	00000000	00000013	addi	x0,x0,0	  x0:0x00000000
        4905000	       489	80003824	00000013	addi	x0,x0,0	  x0:0x00000000
        4915000	       490	80003828	020000ef	jal	x1,80003828	  x1=0x80003828
        4925000	       491	00000000	00000013	addi	x0,x0,0	  x0:0x00000000
        4935000	       492	80003844	00000013	addi	x0,x0,0	  x0:0x00000000
        4945000	       493	80003848	fd9ff66f	jal	x12,80003848	 x12=0x80003848
        4955000	       494	00000000	00000013	addi	x0,x0,0	  x0:0x00000000
        4965000	       495	8000381c	00000013	addi	x0,x0,0	  x0:0x00000000
        4975000	       496	80003820	024000ef	jal	x1,80003820	  x1=0x80003820
        4985000	       497	00000000	00000013	addi	x0,x0,0	  x0:0x00000000
        4995000	       498	80003840	00000013	addi	x0,x0,0	  x0:0x00000000
        5005000	       499	80003844	ff5ff36f	jal	x6,80003844	  x6=0x80003844
        5015000	       500	00000000	00000013	addi	x0,x0,0	  x0:0x00000000
        5025000	       501	80003834	00000013	addi	x0,x0,0	  x0:0x00000000
        5035000	       502	80003838	ff5ff0ef	jal	x1,80003838	  x1=0x80003838
        5045000	       503	00000000	00000013	addi	x0,x0,0	  x0:0x00000000
        5055000	       504	80003828	00000013	addi	x0,x0,0	  x0:0x00000000
        5065000	       505	8000382c	004000ef	jal	x1,8000382c	  x1=0x8000382c
        5075000	       506	00000000	00000013	addi	x0,x0,0	  x0:0x00000000
        5085000	       507	8000382c	00000013	addi	x0,x0,0	  x0:0x00000000
        5095000	       508	80003830	004000ef	jal	x1,80003830	  x1=0x80003830
        5105000	       509	00000000	00000013	addi	x0,x0,0	  x0:0x00000000
        5115000	       510	80003830	00000013	addi	x0,x0,0	  x0:0x00000000
        5125000	       511	80003834	ff1ffaef	jal	x21,80003834	 x21=0x80003834
        5135000	       512	00000000	00000013	addi	x0,x0,0	  x0:0x00000000
        5145000	       513	80003820	00000013	addi	x0,x0,0	  x0:0x00000000
        5155000	       514	80003824	ff5ff0ef	jal	x1,80003824	  x1=0x80003824
        5165000	       515	00000000	00000013	addi	x0,x0,0	  x0:0x00000000
        5175000	       516	80003814	00000013	addi	x0,x0,0	  x0:0x00000000
        5185000	       517	80003818	00400eef	jal	x29,80003818	 x29=0x80003818
        5195000	       518	00000000	00000013	addi	x0,x0,0	  x0:0x00000000
        5205000	       519	80003818	00000013	addi	x0,x0,0	  x0:0x00000000
        5215000	       520	8000381c	024000ef	jal	x1,8000381c	  x1=0x8000381c
        5225000	       521	00000000	00000013	addi	x0,x0,0	  x0:0x00000000
        5235000	       522	8000383c	00000013	addi	x0,x0,0	  x0:0x00000000
        5245000	       523	80003840	ffdffaef	jal	x21,80003840	 x21=0x80003840
        5255000	       524	00000000	00000013	addi	x0,x0,0	  x0:0x00000000
        5265000	       525	80003838	00000013	addi	x0,x0,0	  x0:0x00000000
        5275000	       526	8000383c	010000ef	jal	x1,8000383c	  x1=0x8000383c
        5285000	       527	00000000	00000013	addi	x0,x0,0	  x0:0x00000000
        5295000	       528	80003848	00000013	addi	x0,x0,0	  x0:0x00000000
        5305000	       529	8000384c	01764533	xor	x10,x12,x23	 x12:0x80003848 x23:0xffe66000 x10=0x7fe65848
        5315000	       530	80003850	02400a6f	jal	x20,80003850	 x20=0x80003850
        5325000	       531	00000000	00000013	addi	x0,x0,0	  x0:0x00000000
        5335000	       532	80003870	00000013	addi	x0,x0,0	  x0:0x00000000
        5345000	       533	80003874	0180026f	jal	x4,80003874	  x4=0x80003874
        5355000	       534	00000000	00000013	addi	x0,x0,0	  x0:0x00000000
        5365000	       535	80003888	00000013	addi	x0,x0,0	  x0:0x00000000
        5375000	       536	8000388c	fd9ff0ef	jal	x1,8000388c	  x1=0x8000388c
        5385000	       537	00000000	00000013	addi	x0,x0,0	  x0:0x00000000
        5395000	       538	80003860	00000013	addi	x0,x0,0	  x0:0x00000000
        5405000	       539	80003864	02c0096f	jal	x18,80003864	 x18=0x80003864
        5415000	       540	00000000	00000013	addi	x0,x0,0	  x0:0x00000000
        5425000	       541	8000388c	00000013	addi	x0,x0,0	  x0:0x00000000
        5435000	       542	80003890	ff1ff0ef	jal	x1,80003890	  x1=0x80003890
        5445000	       543	00000000	00000013	addi	x0,x0,0	  x0:0x00000000
        5455000	       544	8000387c	00000013	addi	x0,x0,0	  x0:0x00000000
        5465000	       545	80003880	01c0036f	jal	x6,80003880	  x6=0x80003880
        5475000	       546	00000000	00000013	addi	x0,x0,0	  x0:0x00000000
        5485000	       547	80003898	00000013	addi	x0,x0,0	  x0:0x00000000
        5495000	       548	8000389c	008000ef	jal	x1,8000389c	  x1=0x8000389c
        5505000	       549	00000000	00000013	addi	x0,x0,0	  x0:0x00000000
        5515000	       550	800038a0	00000013	addi	x0,x0,0	  x0:0x00000000
        5525000	       551	800038a4	fe1ff36f	jal	x6,800038a4	  x6=0x800038a4
        5535000	       552	00000000	00000013	addi	x0,x0,0	  x0:0x00000000
        5545000	       553	80003880	00000013	addi	x0,x0,0	  x0:0x00000000
        5555000	       554	80003884	0140016f	jal	x2,80003884	  x2=0x80003884
        5565000	       555	00000000	00000013	addi	x0,x0,0	  x0:0x00000000
        5575000	       556	80003894	00000013	addi	x0,x0,0	  x0:0x00000000
        5585000	       557	80003898	fe1ff9ef	jal	x19,80003898	 x19=0x80003898
        5595000	       558	00000000	00000013	addi	x0,x0,0	  x0:0x00000000
        5605000	       559	80003874	00000013	addi	x0,x0,0	  x0:0x00000000
        5615000	       560	80003878	0280066f	jal	x12,80003878	 x12=0x80003878
        5625000	       561	00000000	00000013	addi	x0,x0,0	  x0:0x00000000
        5635000	       562	8000389c	00000013	addi	x0,x0,0	  x0:0x00000000
        5645000	       563	800038a0	fb9ff1ef	jal	x3,800038a0	  x3=0x800038a0
        5655000	       564	00000000	00000013	addi	x0,x0,0	  x0:0x00000000
        5665000	       565	80003854	00000013	addi	x0,x0,0	  x0:0x00000000
        5675000	       566	80003858	03c0026f	jal	x4,80003858	  x4=0x80003858
        5685000	       567	00000000	00000013	addi	x0,x0,0	  x0:0x00000000
        5695000	       568	80003890	00000013	addi	x0,x0,0	  x0:0x00000000
        5705000	       569	80003894	0140036f	jal	x6,80003894	  x6=0x80003894
        5715000	       570	00000000	00000013	addi	x0,x0,0	  x0:0x00000000
        5725000	       571	800038a4	00000013	addi	x0,x0,0	  x0:0x00000000
        5735000	       572	800038a8	fb9ff36f	jal	x6,800038a8	  x6=0x800038a8
        5745000	       573	00000000	00000013	addi	x0,x0,0	  x0:0x00000000
        5755000	       574	8000385c	00000013	addi	x0,x0,0	  x0:0x00000000
        5765000	       575	80003860	0100036f	jal	x6,80003860	  x6=0x80003860
        5775000	       576	00000000	00000013	addi	x0,x0,0	  x0:0x00000000
        5785000	       577	8000386c	00000013	addi	x0,x0,0	  x0:0x00000000
        5795000	       578	80003870	fedff16f	jal	x2,80003870	  x2=0x80003870
        5805000	       579	00000000	00000013	addi	x0,x0,0	  x0:0x00000000
        5815000	       580	80003858	00000013	addi	x0,x0,0	  x0:0x00000000
        5825000	       581	8000385c	01000def	jal	x27,8000385c	 x27=0x8000385c
        5835000	       582	00000000	00000013	addi	x0,x0,0	  x0:0x00000000
        5845000	       583	80003868	00000013	addi	x0,x0,0	  x0:0x00000000
        5855000	       584	8000386c	fe9ff0ef	jal	x1,8000386c	  x1=0x8000386c
        5865000	       585	00000000	00000013	addi	x0,x0,0	  x0:0x00000000
        5875000	       586	80003850	00000013	addi	x0,x0,0	  x0:0x00000000
        5885000	       587	80003854	028000ef	jal	x1,80003854	  x1=0x80003854
        5895000	       588	00000000	00000013	addi	x0,x0,0	  x0:0x00000000
        5905000	       589	80003878	00000013	addi	x0,x0,0	  x0:0x00000000
        5915000	       590	8000387c	fedff0ef	jal	x1,8000387c	  x1=0x8000387c
        5925000	       591	00000000	00000013	addi	x0,x0,0	  x0:0x00000000
        5935000	       592	80003864	00000013	addi	x0,x0,0	  x0:0x00000000
        5945000	       593	80003868	0200046f	jal	x8,80003868	  x8=0x80003868
        5955000	       594	00000000	00000013	addi	x0,x0,0	  x0:0x00000000
        5965000	       595	80003884	00000013	addi	x0,x0,0	  x0:0x00000000
        5975000	       596	80003888	024001ef	jal	x3,80003888	  x3=0x80003888
        5985000	       597	00000000	00000013	addi	x0,x0,0	  x0:0x00000000
        5995000	       598	800038a8	00000013	addi	x0,x0,0	  x0:0x00000000
        6005000	       599	800038ac	01075c93	srli	x25,x14,0x10	 x14:0x16c4cc00 x25=0x000016c4
        6015000	       600	800038b0	03800a6f	jal	x20,800038b0	 x20=0x800038b0
        6025000	       601	00000000	00000013	addi	x0,x0,0	  x0:0x00000000
        6035000	       602	800038e4	00000013	addi	x0,x0,0	  x0:0x00000000
        6045000	       603	800038e8	fd1ff0ef	jal	x1,800038e8	  x1=0x800038e8
        6055000	       604	00000000	00000013	addi	x0,x0,0	  x0:0x00000000
        6065000	       605	800038b4	00000013	addi	x0,x0,0	  x0:0x00000000
        6075000	       606	800038b8	020000ef	jal	x1,800038b8	  x1=0x800038b8
        6085000	       607	00000000	00000013	addi	x0,x0,0	  x0:0x00000000
        6095000	       608	800038d4	00000013	addi	x0,x0,0	  x0:0x00000000
        6105000	       609	800038d8	00c0016f	jal	x2,800038d8	  x2=0x800038d8
        6115000	       610	00000000	00000013	addi	x0,x0,0	  x0:0x00000000
        6125000	       611	800038e0	00000013	addi	x0,x0,0	  x0:0x00000000
        6135000	       612	800038e4	fedff0ef	jal	x1,800038e4	  x1=0x800038e4
        6145000	       613	00000000	00000013	addi	x0,x0,0	  x0:0x00000000
        6155000	       614	800038cc	00000013	addi	x0,x0,0	  x0:0x00000000
        6165000	       615	800038d0	00c005ef	jal	x11,800038d0	 x11=0x800038d0
        6175000	       616	00000000	00000013	addi	x0,x0,0	  x0:0x00000000
        6185000	       617	800038d8	00000013	addi	x0,x0,0	  x0:0x00000000
        6195000	       618	800038dc	fe9ff0ef	jal	x1,800038dc	  x1=0x800038dc
        6205000	       619	00000000	00000013	addi	x0,x0,0	  x0:0x00000000
        6215000	       620	800038c0	00000013	addi	x0,x0,0	  x0:0x00000000
        6225000	       621	800038c4	0100036f	jal	x6,800038c4	  x6=0x800038c4
        6235000	       622	00000000	00000013	addi	x0,x0,0	  x0:0x00000000
        6245000	       623	800038d0	00000013	addi	x0,x0,0	  x0:0x00000000
        6255000	       624	800038d4	ff9ff36f	jal	x6,800038d4	  x6=0x800038d4
        6265000	       625	00000000	00000013	addi	x0,x0,0	  x0:0x00000000
        6275000	       626	800038c8	00000013	addi	x0,x0,0	  x0:0x00000000
        6285000	       627	800038cc	ffdff0ef	jal	x1,800038cc	  x1=0x800038cc
        6295000	       628	00000000	00000013	addi	x0,x0,0	  x0:0x00000000
        6305000	       629	800038c4	00000013	addi	x0,x0,0	  x0:0x00000000
        6315000	       630	800038c8	018000ef	jal	x1,800038c8	  x1=0x800038c8
        6325000	       631	00000000	00000013	addi	x0,x0,0	  x0:0x00000000
        6335000	       632	800038dc	00000013	addi	x0,x0,0	  x0:0x00000000
        6345000	       633	800038e0	fddfffef	jal	x31,800038e0	 x31=0x800038e0
        6355000	       634	00000000	00000013	addi	x0,x0,0	  x0:0x00000000
        6365000	       635	800038b8	00000013	addi	x0,x0,0	  x0:0x00000000
        6375000	       636	800038bc	ff9ff16f	jal	x2,800038bc	  x2=0x800038bc
        6385000	       637	00000000	00000013	addi	x0,x0,0	  x0:0x00000000
        6395000	       638	800038b0	00000013	addi	x0,x0,0	  x0:0x00000000
        6405000	       639	800038b4	00c0036f	jal	x6,800038b4	  x6=0x800038b4
        6415000	       640	00000000	00000013	addi	x0,x0,0	  x0:0x00000000
        6425000	       641	800038bc	00000013	addi	x0,x0,0	  x0:0x00000000
        6435000	       642	800038c0	02c0016f	jal	x2,800038c0	  x2=0x800038c0
        6445000	       643	00000000	00000013	addi	x0,x0,0	  x0:0x00000000
        6455000	       644	800038e8	00000013	addi	x0,x0,0	  x0:0x00000000
        6465000	       645	800038ec	017b5a13	srli	x20,x22,0x17	 x22:0x00000000 x20=0x00000000
        6475000	       646	800038f0	05400a6f	jal	x20,800038f0	 x20=0x800038f0
        6485000	       647	00000000	00000013	addi	x0,x0,0	  x0:0x00000000
        6495000	       648	80003940	00000013	addi	x0,x0,0	  x0:0x00000000
        6505000	       649	80003944	fedff66f	jal	x12,80003944	 x12=0x80003944
        6515000	       650	00000000	00000013	addi	x0,x0,0	  x0:0x00000000
        6525000	       651	8000392c	00000013	addi	x0,x0,0	  x0:0x00000000
        6535000	       652	80003930	fe5ff36f	jal	x6,80003930	  x6=0x80003930
        6545000	       653	00000000	00000013	addi	x0,x0,0	  x0:0x00000000
        6555000	       654	80003910	00000013	addi	x0,x0,0	  x0:0x00000000
        6565000	       655	80003914	00c0036f	jal	x6,80003914	  x6=0x80003914
        6575000	       656	00000000	00000013	addi	x0,x0,0	  x0:0x00000000
        6585000	       657	8000391c	00000013	addi	x0,x0,0	  x0:0x00000000
        6595000	       658	80003920	01c000ef	jal	x1,80003920	  x1=0x80003920
        6605000	       659	00000000	00000013	addi	x0,x0,0	  x0:0x00000000
        6615000	       660	80003938	00000013	addi	x0,x0,0	  x0:0x00000000
        6625000	       661	8000393c	fbdff16f	jal	x2,8000393c	  x2=0x8000393c
        6635000	       662	00000000	00000013	addi	x0,x0,0	  x0:0x00000000
        6645000	       663	800038f4	00000013	addi	x0,x0,0	  x0:0x00000000
        6655000	       664	800038f8	0100036f	jal	x6,800038f8	  x6=0x800038f8
        6665000	       665	00000000	00000013	addi	x0,x0,0	  x0:0x00000000
        6675000	       666	80003904	00000013	addi	x0,x0,0	  x0:0x00000000
        6685000	       667	80003908	02c000ef	jal	x1,80003908	  x1=0x80003908
        6695000	       668	00000000	00000013	addi	x0,x0,0	  x0:0x00000000
        6705000	       669	80003930	00000013	addi	x0,x0,0	  x0:0x00000000
        6715000	       670	80003934	fe9ff26f	jal	x4,80003934	  x4=0x80003934
        6725000	       671	00000000	00000013	addi	x0,x0,0	  x0:0x00000000
        6735000	       672	80003918	00000013	addi	x0,x0,0	  x0:0x00000000
        6745000	       673	8000391c	ff5ff0ef	jal	x1,8000391c	  x1=0x8000391c
        6755000	       674	00000000	00000013	addi	x0,x0,0	  x0:0x00000000
        6765000	       675	8000390c	00000013	addi	x0,x0,0	  x0:0x00000000
        6775000	       676	80003910	ffdff26f	jal	x4,80003910	  x4=0x80003910
        6785000	       677	00000000	00000013	addi	x0,x0,0	  x0:0x00000000
        6795000	       678	80003908	00000013	addi	x0,x0,0	  x0:0x00000000
        6805000	       679	8000390c	03c000ef	jal	x1,8000390c	  x1=0x8000390c
        6815000	       680	00000000	00000013	addi	x0,x0,0	  x0:0x00000000
        6825000	       681	80003944	00000013	addi	x0,x0,0	  x0:0x00000000
        6835000	       682	80003948	fadff0ef	jal	x1,80003948	  x1=0x80003948
        6845000	       683	00000000	00000013	addi	x0,x0,0	  x0:0x00000000
        6855000	       684	800038f0	00000013	addi	x0,x0,0	  x0:0x00000000
        6865000	       685	800038f4	05800b6f	jal	x22,800038f4	 x22=0x800038f4
        6875000	       686	00000000	00000013	addi	x0,x0,0	  x0:0x00000000
        6885000	       687	80003948	00000013	addi	x0,x0,0	  x0:0x00000000
        6895000	       688	8000394c	fd9ff0ef	jal	x1,8000394c	  x1=0x8000394c
        6905000	       689	00000000	00000013	addi	x0,x0,0	  x0:0x00000000
        6915000	       690	80003920	00000013	addi	x0,x0,0	  x0:0x00000000
        6925000	       691	80003924	01c001ef	jal	x3,80003924	  x3=0x80003924
        6935000	       692	00000000	00000013	addi	x0,x0,0	  x0:0x00000000
        6945000	       693	8000393c	00000013	addi	x0,x0,0	  x0:0x00000000
        6955000	       694	80003940	fbdff0ef	jal	x1,80003940	  x1=0x80003940
        6965000	       695	00000000	00000013	addi	x0,x0,0	  x0:0x00000000
        6975000	       696	800038f8	00000013	addi	x0,x0,0	  x0:0x00000000
        6985000	       697	800038fc	03c000ef	jal	x1,800038fc	  x1=0x800038fc
        6995000	       698	00000000	00000013	addi	x0,x0,0	  x0:0x00000000
        7005000	       699	80003934	00000013	addi	x0,x0,0	  x0:0x00000000
        7015000	       700	80003938	fcdff0ef	jal	x1,80003938	  x1=0x80003938
        7025000	       701	00000000	00000013	addi	x0,x0,0	  x0:0x00000000
        7035000	       702	80003900	00000013	addi	x0,x0,0	  x0:0x00000000
        7045000	       703	80003904	0280026f	jal	x4,80003904	  x4=0x80003904
        7055000	       704	00000000	00000013	addi	x0,x0,0	  x0:0x00000000
        7065000	       705	80003928	00000013	addi	x0,x0,0	  x0:0x00000000
        7075000	       706	8000392c	fedff36f	jal	x6,8000392c	  x6=0x8000392c
        7085000	       707	00000000	00000013	addi	x0,x0,0	  x0:0x00000000
        7095000	       708	80003914	00000013	addi	x0,x0,0	  x0:0x00000000
        7105000	       709	80003918	fe9ff0ef	jal	x1,80003918	  x1=0x80003918
        7115000	       710	00000000	00000013	addi	x0,x0,0	  x0:0x00000000
        7125000	       711	800038fc	00000013	addi	x0,x0,0	  x0:0x00000000
        7135000	       712	80003900	0280056f	jal	x10,80003900	 x10=0x80003900
        7145000	       713	00000000	00000013	addi	x0,x0,0	  x0:0x00000000
        7155000	       714	80003924	00000013	addi	x0,x0,0	  x0:0x00000000
        7165000	       715	80003928	0280066f	jal	x12,80003928	 x12=0x80003928
        7175000	       716	00000000	00000013	addi	x0,x0,0	  x0:0x00000000
        7185000	       717	8000394c	00000013	addi	x0,x0,0	  x0:0x00000000
        7195000	       718	80003950	01034cb3	xor	x25,x6,x16	  x6:0x8000392c x16:0x80002c94 x25=0x000015b8
        7205000	       719	80003954	02800a6f	jal	x20,80003954	 x20=0x80003954
        7215000	       720	00000000	00000013	addi	x0,x0,0	  x0:0x00000000
        7225000	       721	80003978	00000013	addi	x0,x0,0	  x0:0x00000000
        7235000	       722	8000397c	fe9ff36f	jal	x6,8000397c	  x6=0x8000397c
        7245000	       723	00000000	00000013	addi	x0,x0,0	  x0:0x00000000
        7255000	       724	80003960	00000013	addi	x0,x0,0	  x0:0x00000000
        7265000	       725	80003964	ff5ff0ef	jal	x1,80003964	  x1=0x80003964
        7275000	       726	00000000	00000013	addi	x0,x0,0	  x0:0x00000000
        7285000	       727	80003954	00000013	addi	x0,x0,0	  x0:0x00000000
        7295000	       728	80003958	0040036f	jal	x6,80003958	  x6=0x80003958
        7305000	       729	00000000	00000013	addi	x0,x0,0	  x0:0x00000000
        7315000	       730	80003958	00000013	addi	x0,x0,0	  x0:0x00000000
        7325000	       731	8000395c	004000ef	jal	x1,8000395c	  x1=0x8000395c
        7335000	       732	00000000	00000013	addi	x0,x0,0	  x0:0x00000000
        7345000	       733	8000395c	00000013	addi	x0,x0,0	  x0:0x00000000
        7355000	       734	80003960	00800d6f	jal	x26,80003960	 x26=0x80003960
        7365000	       735	00000000	00000013	addi	x0,x0,0	  x0:0x00000000
        7375000	       736	80003964	00000013	addi	x0,x0,0	  x0:0x00000000
        7385000	       737	80003968	00c007ef	jal	x15,80003968	 x15=0x80003968
        7395000	       738	00000000	00000013	addi	x0,x0,0	  x0:0x00000000
        7405000	       739	80003970	00000013	addi	x0,x0,0	  x0:0x00000000
        7415000	       740	80003974	0040036f	jal	x6,80003974	  x6=0x80003974
        7425000	       741	00000000	00000013	addi	x0,x0,0	  x0:0x00000000
        7435000	       742	80003974	00000013	addi	x0,x0,0	  x0:0x00000000
        7445000	       743	80003978	ff9ff16f	jal	x2,80003978	  x2=0x80003978
        7455000	       744	00000000	00000013	addi	x0,x0,0	  x0:0x00000000
        7465000	       745	8000396c	00000013	addi	x0,x0,0	  x0:0x00000000
        7475000	       746	80003970	ffdff36f	jal	x6,80003970	  x6=0x80003970
        7485000	       747	00000000	00000013	addi	x0,x0,0	  x0:0x00000000
        7495000	       748	80003968	00000013	addi	x0,x0,0	  x0:0x00000000
        7505000	       749	8000396c	014000ef	jal	x1,8000396c	  x1=0x8000396c
        7515000	       750	00000000	00000013	addi	x0,x0,0	  x0:0x00000000
        7525000	       751	8000397c	00000013	addi	x0,x0,0	  x0:0x00000000
        7535000	       752	80003980	b12f2393	slti	x7,x30,-1262	 x30:0x80009f3f  x7=0x00000001
        7545000	       753	80003984	3c307913	andi	x18,x0,963	  x0:0x00000000 x18=0x00000000
        7555000	       754	80003988	23c46993	ori	x19,x8,572	  x8:0x80003868 x19=0x80003a7c
        7565000	       755	8000398c	9dcbbd93	sltiu	x27,x23,-1572	 x23:0xffe66000 x27=0x00000001
        7575000	       756	80003990	00672eb3	slt	x29,x14,x6	 x14:0x16c4cc00  x6:0x80003970 x29=0x00000000
        7585000	       757	80003994	01239663	bne	x7,x18,800039a0	  x7:0x00000001 x18:0x00000000
        7595000	       758	00000000	00000013	addi	x0,x0,0	  x0:0x00000000
        7605000	       759	8000399c	00000013	addi	x0,x0,0	  x0:0x00000000
        7615000	       760	800039a0	00e1d9b3	srl	x19,x3,x14	  x3:0x80003924 x14:0x16c4cc00 x19=0x80003924
        7625000	       761	800039a4	02c00a6f	jal	x20,800039a4	 x20=0x800039a4
        7635000	       762	00000000	00000013	addi	x0,x0,0	  x0:0x00000000
        7645000	       763	800039cc	00000013	addi	x0,x0,0	  x0:0x00000000
        7655000	       764	800039d0	fddff0ef	jal	x1,800039d0	  x1=0x800039d0
        7665000	       765	00000000	00000013	addi	x0,x0,0	  x0:0x00000000
        7675000	       766	800039a8	00000013	addi	x0,x0,0	  x0:0x00000000
        7685000	       767	800039ac	01c0026f	jal	x4,800039ac	  x4=0x800039ac
        7695000	       768	00000000	00000013	addi	x0,x0,0	  x0:0x00000000
        7705000	       769	800039c4	00000013	addi	x0,x0,0	  x0:0x00000000
        7715000	       770	800039c8	010000ef	jal	x1,800039c8	  x1=0x800039c8
        7725000	       771	00000000	00000013	addi	x0,x0,0	  x0:0x00000000
        7735000	       772	800039d4	00000013	addi	x0,x0,0	  x0:0x00000000
        7745000	       773	800039d8	fd9ff0ef	jal	x1,800039d8	  x1=0x800039d8
        7755000	       774	00000000	00000013	addi	x0,x0,0	  x0:0x00000000
        7765000	       775	800039ac	00000013	addi	x0,x0,0	  x0:0x00000000
        7775000	       776	800039b0	02c0096f	jal	x18,800039b0	 x18=0x800039b0
        7785000	       777	00000000	00000013	addi	x0,x0,0	  x0:0x00000000
        7795000	       778	800039d8	00000013	addi	x0,x0,0	  x0:0x00000000
        7805000	       779	800039dc	ff9ffa6f	jal	x20,800039dc	 x20=0x800039dc
        7815000	       780	00000000	00000013	addi	x0,x0,0	  x0:0x00000000
        7825000	       781	800039d0	00000013	addi	x0,x0,0	  x0:0x00000000
        7835000	       782	800039d4	fe5ff36f	jal	x6,800039d4	  x6=0x800039d4
        7845000	       783	00000000	00000013	addi	x0,x0,0	  x0:0x00000000
        7855000	       784	800039b4	00000013	addi	x0,x0,0	  x0:0x00000000
        7865000	       785	800039b8	008004ef	jal	x9,800039b8	  x9=0x800039b8
        7875000	       786	00000000	00000013	addi	x0,x0,0	  x0:0x00000000
        7885000	       787	800039bc	00000013	addi	x0,x0,0	  x0:0x00000000
        7895000	       788	800039c0	004000ef	jal	x1,800039c0	  x1=0x800039c0
        7905000	       789	00000000	00000013	addi	x0,x0,0	  x0:0x00000000
        7915000	       790	800039c0	00000013	addi	x0,x0,0	  x0:0x00000000
        7925000	       791	800039c4	fe5ff0ef	jal	x1,800039c4	  x1=0x800039c4
        7935000	       792	00000000	00000013	addi	x0,x0,0	  x0:0x00000000
        7945000	       793	800039a4	00000013	addi	x0,x0,0	  x0:0x00000000
        7955000	       794	800039a8	014000ef	jal	x1,800039a8	  x1=0x800039a8
        7965000	       795	00000000	00000013	addi	x0,x0,0	  x0:0x00000000
        7975000	       796	800039b8	00000013	addi	x0,x0,0	  x0:0x00000000
        7985000	       797	800039bc	ff9ffa6f	jal	x20,800039bc	 x20=0x800039bc
        7995000	       798	00000000	00000013	addi	x0,x0,0	  x0:0x00000000
        8005000	       799	800039b0	00000013	addi	x0,x0,0	  x0:0x00000000
        8015000	       800	800039b4	0180096f	jal	x18,800039b4	 x18=0x800039b4
        8025000	       801	00000000	00000013	addi	x0,x0,0	  x0:0x00000000
        8035000	       802	800039c8	00000013	addi	x0,x0,0	  x0:0x00000000
        8045000	       803	800039cc	014000ef	jal	x1,800039cc	  x1=0x800039cc
        8055000	       804	00000000	00000013	addi	x0,x0,0	  x0:0x00000000
        8065000	       805	800039dc	00000013	addi	x0,x0,0	  x0:0x00000000
        8075000	       806	800039e0	2bc6bd93	sltiu	x27,x13,700	 x13:0x80009fc4 x27=0x00000000
        8085000	       807	800039e4	05c98863	beq	x19,x28,80003a34	 x19:0x80003924 x28:0x00000001
        8095000	       808	800039e8	00ec0663	beq	x24,x14,800039f4	 x24:0x57f8a0be x14:0x16c4cc00
        8105000	       809	800039ec	04e5d863	bge	x11,x14,80003a3c	 x11:0x800038d0 x14:0x16c4cc00
        8115000	       810	800039f0	00b3e663	bltu	x7,x11,800039fc	  x7:0x00000001 x11:0x800038d0
        8125000	       811	00000000	00000013	addi	x0,x0,0	  x0:0x00000000
        8135000	       812	800039f8	00000013	addi	x0,x0,0	  x0:0x00000000
        8145000	       813	800039fc	03386663	bltu	x16,x19,80003a28	 x16:0x80002c94 x19:0x80003924
        8155000	       814	00000000	00000013	addi	x0,x0,0	  x0:0x00000000
        8165000	       815	80003a24	00000013	addi	x0,x0,0	  x0:0x00000000
        8175000	       816	80003a28	04756863	bltu	x10,x7,80003a78	 x10:0x80003900  x7:0x00000001
        8185000	       817	80003a2c	01484a63	blt	x16,x20,80003a40	 x16:0x80002c94 x20:0x800039bc
        8195000	       818	00000000	00000013	addi	x0,x0,0	  x0:0x00000000
        8205000	       819	80003a3c	00000013	addi	x0,x0,0	  x0:0x00000000
        8215000	       820	80003a40	bb7a6837	lui	x16,0xbb7a6	 x16=0xbb7a6000
        8225000	       821	80003a44	00499c63	bne	x19,x4,80003a5c	 x19:0x80003924  x4:0x800039ac
        8235000	       822	00000000	00000013	addi	x0,x0,0	  x0:0x00000000
        8245000	       823	80003a58	00000013	addi	x0,x0,0	  x0:0x00000000
        8255000	       824	80003a5c	046ef263	bgeu	x29,x6,80003aa0	 x29:0x00000000  x6:0x800039d4
        8265000	       825	80003a60	000c9513	slli	x10,x25,0x0	 x25:0x000015b8 x10=0x000015b8
        8275000	       826	80003a64	0021d133	srl	x2,x3,x2	  x3:0x80003924  x2:0x80003978  x2=0x00000080
        8285000	       827	80003a68	03199e63	bne	x19,x17,80003aa4	 x19:0x80003924 x17:0x00000000
        8295000	       828	00000000	00000013	addi	x0,x0,0	  x0:0x00000000
        8305000	       829	80003aa0	00000013	addi	x0,x0,0	  x0:0x00000000
        8315000	       830	80003aa4	fe74fd93	andi	x27,x9,-25	  x9:0x800039b8 x27=0x800039a0
        8325000	       831	80003aa8	01077733	and	x14,x14,x16	 x14:0x16c4cc00 x16:0xbb7a6000 x14=0x12404000
        8335000	       832	80003aac	007ff0b3	and	x1,x31,x7	 x31:0x800038e0  x7:0x00000001  x1=0x00000000
        8345000	       833	80003ab0	00187793	andi	x15,x16,1	 x16:0xbb7a6000 x15=0x00000000
        8355000	       834	80003ab4	02b01663	bne	x0,x11,80003ae0	  x0:0x00000000 x11:0x800038d0
        8365000	       835	00000000	00000013	addi	x0,x0,0	  x0:0x00000000
        8375000	       836	80003adc	00000013	addi	x0,x0,0	  x0:0x00000000
        8385000	       837	80003ae0	c3394513	xori	x10,x18,-973	 x18:0x800039b4 x10=0x7fffc587
        8395000	       838	80003ae4	b4234b93	xori	x23,x6,-1214	  x6:0x800039d4 x23=0x7fffc296
        8405000	       839	80003ae8	010f9663	bne	x31,x16,80003af4	 x31:0x800038e0 x16:0xbb7a6000
        8415000	       840	00000000	00000013	addi	x0,x0,0	  x0:0x00000000
        8425000	       841	80003af0	00000013	addi	x0,x0,0	  x0:0x00000000
        8435000	       842	80003af4	00a6c333	xor	x6,x13,x10	 x13:0x80009fc4 x10:0x7fffc587  x6=0xffff5a43
        8445000	       843	80003af8	00919013	slli	x0,x3,0x9	  x3:0x80003924
        8455000	       844	80003afc	006ca833	slt	x16,x25,x6	 x25:0x000015b8  x6:0xffff5a43 x16=0x00000000
        8465000	       845	80003b00	226bfa13	andi	x20,x23,550	 x23:0x7fffc296 x20=0x00000206
        8475000	       846	80003b04	d6e42613	slti	x12,x8,-658	  x8:0x80003868 x12=0x00000001
        8485000	       847	80003b08	00cf38b3	sltu	x17,x30,x12	 x30:0x80009f3f x12:0x00000001 x17=0x00000000
        8495000	       848	80003b0c	019b94b3	sll	x9,x23,x25	 x23:0x7fffc296 x25:0x000015b8  x9=0x96000000
        8505000	       849	80003b10	012184b3	add	x9,x3,x18	  x3:0x80003924 x18:0x800039b4  x9=0x000072d8
        8515000	       850	80003b14	4032d993	srai	x19,x5,0x3	  x5:0x80009f44 x19=0xf00013e8
        8525000	       851	80003b18	455cf813	andi	x16,x25,1109	 x25:0x000015b8 x16=0x00000410
        8535000	       852	80003b1c	4132ddb3	sra	x27,x5,x19	  x5:0x80009f44 x19:0xf00013e8 x27=0xff80009f
        8545000	       853	80003b20	41d8d7b3	sra	x15,x17,x29	 x17:0x00000000 x29:0x00000000 x15=0x00000000
        8555000	       854	80003b24	014dcf33	xor	x30,x27,x20	 x27:0xff80009f x20:0x00000206 x30=0xff800299
        8565000	       855	80003b28	019e85b3	add	x11,x29,x25	 x29:0x00000000 x25:0x000015b8 x11=0x000015b8
        8575000	       856	80003b2c	00083633	sltu	x12,x16,x0	 x16:0x00000410  x0:0x00000000 x12=0x00000000
        8585000	       857	80003b30	05fec663	blt	x29,x31,80003b7c	 x29:0x00000000 x31:0x800038e0
        8595000	       858	80003b34	01295863	bge	x18,x18,80003b44	 x18:0x800039b4 x18:0x800039b4
        8605000	       859	00000000	00000013	addi	x0,x0,0	  x0:0x00000000
        8615000	       860	80003b40	00000013	addi	x0,x0,0	  x0:0x00000000
        8625000	       861	80003b44	01d3d213	srli	x4,x7,0x1d	  x7:0x00000001  x4=0x00000000
        8635000	       862	80003b48	01e7e133	or	x2,x15,x30	 x15:0x00000000 x30:0xff800299  x2=0xff800299
        8645000	       863	80003b4c	003d3bb3	sltu	x23,x26,x3	 x26:0x80003960  x3:0x80003924 x23=0x00000000
        8655000	       864	80003b50	0184ec63	bltu	x9,x24,80003b68	  x9:0x000072d8 x24:0x57f8a0be
        8665000	       865	00000000	00000013	addi	x0,x0,0	  x0:0x00000000
        8675000	       866	80003b64	00000013	addi	x0,x0,0	  x0:0x00000000
        8685000	       867	80003b68	0685ca63	blt	x11,x8,80003bdc	 x11:0x000015b8  x8:0x80003868
        8695000	       868	80003b6c	640cae93	slti	x29,x25,1600	 x25:0x000015b8 x29=0x00000000
        8705000	       869	80003b70	c4e64013	xori	x0,x12,-946	 x12:0x00000000
        8715000	       870	80003b74	000500b3	add	x1,x10,x0	 x10:0x7fffc587  x0:0x00000000  x1=0x7fffc587
        8725000	       871	80003b78	19ff6a97	auipc	x21,0x19ff6	 x21=0x99ff9b74
        8735000	       872	80003b7c	4a564497	auipc	x9,0x4a564	  x9=0xca567b78
        8745000	       873	80003b80	0171ab33	slt	x22,x3,x23	  x3:0x80003924 x23:0x00000000 x22=0x00000001
        8755000	       874	80003b84	01ffdeb3	srl	x29,x31,x31	 x31:0x800038e0 x31:0x800038e0 x29=0x800038e0
        8765000	       875	80003b88	009a28b3	slt	x17,x20,x9	 x20:0x00000206  x9:0xca567b78 x17=0x00000000
        8775000	       876	80003b8c	02800a6f	jal	x20,80003b8c	 x20=0x80003b8c
        8785000	       877	00000000	00000013	addi	x0,x0,0	  x0:0x00000000
        8795000	       878	80003bb0	00000013	addi	x0,x0,0	  x0:0x00000000
        8805000	       879	80003bb4	0140036f	jal	x6,80003bb4	  x6=0x80003bb4
        8815000	       880	00000000	00000013	addi	x0,x0,0	  x0:0x00000000
        8825000	       881	80003bc4	00000013	addi	x0,x0,0	  x0:0x00000000
        8835000	       882	80003bc8	fd9ff36f	jal	x6,80003bc8	  x6=0x80003bc8
        8845000	       883	00000000	00000013	addi	x0,x0,0	  x0:0x00000000
        8855000	       884	80003b9c	00000013	addi	x0,x0,0	  x0:0x00000000
        8865000	       885	80003ba0	020007ef	jal	x15,80003ba0	 x15=0x80003ba0
        8875000	       886	00000000	00000013	addi	x0,x0,0	  x0:0x00000000
        8885000	       887	80003bbc	00000013	addi	x0,x0,0	  x0:0x00000000
        8895000	       888	80003bc0	fedff0ef	jal	x1,80003bc0	  x1=0x80003bc0
        8905000	       889	00000000	00000013	addi	x0,x0,0	  x0:0x00000000
        8915000	       890	80003ba8	00000013	addi	x0,x0,0	  x0:0x00000000
        8925000	       891	80003bac	02000eef	jal	x29,80003bac	 x29=0x80003bac
        8935000	       892	00000000	00000013	addi	x0,x0,0	  x0:0x00000000
        8945000	       893	80003bc8	00000013	addi	x0,x0,0	  x0:0x00000000
        8955000	       894	80003bcc	ff9ff36f	jal	x6,80003bcc	  x6=0x80003bcc
        8965000	       895	00000000	00000013	addi	x0,x0,0	  x0:0x00000000
        8975000	       896	80003bc0	00000013	addi	x0,x0,0	  x0:0x00000000
        8985000	       897	80003bc4	ff9ff0ef	jal	x1,80003bc4	  x1=0x80003bc4
        8995000	       898	00000000	00000013	addi	x0,x0,0	  x0:0x00000000
        9005000	       899	80003bb8	00000013	addi	x0,x0,0	  x0:0x00000000
        9015000	       900	80003bbc	fd9ff0ef	jal	x1,80003bbc	  x1=0x80003bbc
        9025000	       901	00000000	00000013	addi	x0,x0,0	  x0:0x00000000
        9035000	       902	80003b90	00000013	addi	x0,x0,0	  x0:0x00000000
        9045000	       903	80003b94	ffdffeef	jal	x29,80003b94	 x29=0x80003b94
        9055000	       904	00000000	00000013	addi	x0,x0,0	  x0:0x00000000
        9065000	       905	80003b8c	00000013	addi	x0,x0,0	  x0:0x00000000
        9075000	       906	80003b90	00c0036f	jal	x6,80003b90	  x6=0x80003b90
        9085000	       907	00000000	00000013	addi	x0,x0,0	  x0:0x00000000
        9095000	       908	80003b98	00000013	addi	x0,x0,0	  x0:0x00000000
        9105000	       909	80003b9c	01c0056f	jal	x10,80003b9c	 x10=0x80003b9c
        9115000	       910	00000000	00000013	addi	x0,x0,0	  x0:0x00000000
        9125000	       911	80003bb4	00000013	addi	x0,x0,0	  x0:0x00000000
        9135000	       912	80003bb8	ff9ff36f	jal	x6,80003bb8	  x6=0x80003bb8
        9145000	       913	00000000	00000013	addi	x0,x0,0	  x0:0x00000000
        9155000	       914	80003bac	00000013	addi	x0,x0,0	  x0:0x00000000
        9165000	       915	80003bb0	fe9ff26f	jal	x4,80003bb0	  x4=0x80003bb0
        9175000	       916	00000000	00000013	addi	x0,x0,0	  x0:0x00000000
        9185000	       917	80003b94	00000013	addi	x0,x0,0	  x0:0x00000000
        9195000	       918	80003b98	00c00a6f	jal	x20,80003b98	 x20=0x80003b98
        9205000	       919	00000000	00000013	addi	x0,x0,0	  x0:0x00000000
        9215000	       920	80003ba0	00000013	addi	x0,x0,0	  x0:0x00000000
        9225000	       921	80003ba4	004000ef	jal	x1,80003ba4	  x1=0x80003ba4
        9235000	       922	00000000	00000013	addi	x0,x0,0	  x0:0x00000000
        9245000	       923	80003ba4	00000013	addi	x0,x0,0	  x0:0x00000000
        9255000	       924	80003ba8	028000ef	jal	x1,80003ba8	  x1=0x80003ba8
        9265000	       925	00000000	00000013	addi	x0,x0,0	  x0:0x00000000
        9275000	       926	80003bcc	00000013	addi	x0,x0,0	  x0:0x00000000
        9285000	       927	80003bd0	00fb5493	srli	x9,x22,0xf	 x22:0x00000001  x9=0x00000000
        9295000	       928	80003bd4	00b78633	add	x12,x15,x11	 x15:0x80003ba0 x11:0x000015b8 x12=0x80005158
        9305000	       929	80003bd8	00925993	srli	x19,x4,0x9	  x4:0x80003bb0 x19=0x0040001d
        9315000	       930	80003bdc	01df9b93	slli	x23,x31,0x1d	 x31:0x800038e0 x23=0x00000000
        9325000	       931	80003be0	004c8333	add	x6,x25,x4	 x25:0x000015b8  x4:0x80003bb0  x6=0x80005168
        9335000	       932	80003be4	40bfd413	srai	x8,x31,0xb	 x31:0x800038e0  x8=0xfff00007
        9345000	       933	80003be8	0140f733	and	x14,x1,x20	  x1:0x80003ba8 x20:0x80003b98 x14=0x80003b88
        9355000	       934	80003bec	000bdb13	srli	x22,x23,0x0	 x23:0x00000000 x22=0x00000000
        9365000	       935	80003bf0	05091863	bne	x18,x16,80003c40	 x18:0x800039b4 x16:0x00000410
        9375000	       936	00000000	00000013	addi	x0,x0,0	  x0:0x00000000
        9385000	       937	80003c3c	00000013	addi	x0,x0,0	  x0:0x00000000
        9395000	       938	80003c40	41b3d4b3	sra	x9,x7,x27	  x7:0x00000001 x27:0xff80009f  x9=0x00000000
        9405000	       939	80003c44	00337d33	and	x26,x6,x3	  x6:0x80005168  x3:0x80003924 x26=0x80001120
        9415000	       940	80003c48	94d0f193	andi	x3,x1,-1715	  x1:0x80003ba8  x3=0x80003908
        9425000	       941	80003c4c	0189d863	bge	x19,x24,80003c5c	 x19:0x0040001d x24:0x57f8a0be
        9435000	       942	80003c50	019e5463	bge	x28,x25,80003c58	 x28:0x00000001 x25:0x000015b8
        9445000	       943	80003c54	41b58cb3	sub	x25,x11,x27	 x11:0x000015b8 x27:0xff80009f x25=0x00801519
        9455000	       944	80003c58	974cec13	ori	x24,x25,-1676	 x25:0x00801519 x24=0xfffffd7d
        9465000	       945	80003c5c	00f34633	xor	x12,x6,x15	  x6:0x80005168 x15:0x80003ba0 x12=0x00006ac8
        9475000	       946	80003c60	011b9f93	slli	x31,x23,0x11	 x23:0x00000000 x31=0x00000000
        9485000	       947	80003c64	010c5733	srl	x14,x24,x16	 x24:0xfffffd7d x16:0x00000410 x14=0x0000ffff
        9495000	       948	80003c68	01e3ca33	xor	x20,x7,x30	  x7:0x00000001 x30:0xff800299 x20=0xff800298
        9505000	       949	80003c6c	014b3f33	sltu	x30,x22,x20	 x22:0x00000000 x20:0xff800298 x30=0x00000001
        9515000	       950	80003c70	464ae093	ori	x1,x21,1124	 x21:0x99ff9b74  x1=0x99ff9f74
        9525000	       951	80003c74	00c02233	slt	x4,x0,x12	  x0:0x00000000 x12:0x00006ac8  x4=0x00000001
        9535000	       952	80003c78	048d4863	blt	x26,x8,80003cc8	 x26:0x80001120  x8:0xfff00007
        9545000	       953	00000000	00000013	addi	x0,x0,0	  x0:0x00000000
        9555000	       954	80003cc4	00000013	addi	x0,x0,0	  x0:0x00000000
        9565000	       955	80003cc8	4056d1b3	sra	x3,x13,x5	 x13:0x80009fc4  x5:0x80009f44  x3=0xf80009fc
        9575000	       956	80003ccc	00000013	addi	x0,x0,0	  x0:0x00000000
        9585000	       957	80003cd0	00000013	addi	x0,x0,0	  x0:0x00000000
        9595000	       958	80003cd4	0350e463	bltu	x1,x21,80003cfc	  x1:0x99ff9f74 x21:0x99ff9b74
        9605000	       959	80003cd8	407d0933	sub	x18,x26,x7	 x26:0x80001120  x7:0x00000001 x18=0x8000111f
        9615000	       960	80003cdc	ae368a93	addi	x21,x13,-1309	 x13:0x80009fc4 x21=0x80009aa7
        9625000	       961	80003ce0	00000013	addi	x0,x0,0	  x0:0x00000000
        9635000	       962	80003ce4	1a2fcd13	xori	x26,x31,418	 x31:0x00000000 x26=0x000001a2
        9645000	       963	80003ce8	005e59b3	srl	x19,x28,x5	 x28:0x00000001  x5:0x80009f44 x19=0x00000000
        9655000	       964	80003cec	1e7b7fb7	lui	x31,0x1e7b7	 x31=0x1e7b7000
        9665000	       965	80003cf0	0151b9b3	sltu	x19,x3,x21	  x3:0xf80009fc x21:0x80009aa7 x19=0x00000000
        9675000	       966	80003cf4	0093e133	or	x2,x7,x9	  x7:0x00000001  x9:0x00000000  x2=0x00000001
        9685000	       967	80003cf8	bf08e593	ori	x11,x17,-1040	 x17:0x00000000 x11=0xfffffbf0
        9695000	       968	80003cfc	01799b93	slli	x23,x19,0x17	 x19:0x00000000 x23=0x00000000
        9705000	       969	80003d00	00465d33	srl	x26,x12,x4	 x12:0x00006ac8  x4:0x00000001 x26=0x00003564
        9715000	       970	80003d04	8753d237	lui	x4,0x8753d	  x4=0x8753d000
        9725000	       971	80003d08	01608863	beq	x1,x22,80003d18	  x1:0x99ff9f74 x22:0x00000000
        9735000	       972	80003d0c	05f06663	bltu	x0,x31,80003d58	  x0:0x00000000 x31:0x1e7b7000
        9745000	       973	00000000	00000013	addi	x0,x0,0	  x0:0x00000000
        9755000	       974	80003d54	00000013	addi	x0,x0,0	  x0:0x00000000
        9765000	       975	80003d58	2d9d8c13	addi	x24,x27,729	 x27:0xff80009f x24=0xff800378
        9775000	       976	80003d5c	01942eb3	slt	x29,x8,x25	  x8:0xfff00007 x25:0x00801519 x29=0x00000001
        9785000	       977	80003d60	04458863	beq	x11,x4,80003db0	 x11:0xfffffbf0  x4:0x8753d000
        9795000	       978	80003d64	01c090b3	sll	x1,x1,x28	  x1:0x99ff9f74 x28:0x00000001  x1=0x33ff3ee8
        9805000	       979	80003d68	04e29263	bne	x5,x14,80003dac	  x5:0x80009f44 x14:0x0000ffff
        9815000	       980	00000000	00000013	addi	x0,x0,0	  x0:0x00000000
        9825000	       981	80003da8	00000013	addi	x0,x0,0	  x0:0x00000000
        9835000	       982	80003dac	00c87533	and	x10,x16,x12	 x16:0x00000410 x12:0x00006ac8 x10=0x00000000
        9845000	       983	80003db0	cf12ff93	andi	x31,x5,-783	  x5:0x80009f44 x31=0x80009c40
        9855000	       984	80003db4	01ace463	bltu	x25,x26,80003dbc	 x25:0x00801519 x26:0x00003564
        9865000	       985	80003db8	407edeb3	sra	x29,x29,x7	 x29:0x00000001  x7:0x00000001 x29=0x00000000
        9875000	       986	80003dbc	418f8c33	sub	x24,x31,x24	 x31:0x80009c40 x24:0xff800378 x24=0x808098c8
        9885000	       987	80003dc0	f200ef93	ori	x31,x1,-224	  x1:0x33ff3ee8 x31=0xffffffe8
        9895000	       988	80003dc4	00389a63	bne	x17,x3,80003dd8	 x17:0x00000000  x3:0xf80009fc
        9905000	       989	00000000	00000013	addi	x0,x0,0	  x0:0x00000000
        9915000	       990	80003dd4	00000013	addi	x0,x0,0	  x0:0x00000000
        9925000	       991	80003dd8	879fbd93	sltiu	x27,x31,-1927	 x31:0xffffffe8 x27=0x00000000
        9935000	       992	80003ddc	408d5913	srai	x18,x26,0x8	 x26:0x00003564 x18=0x00000035
        9945000	       993	80003de0	02a44e63	blt	x8,x10,80003e1c	  x8:0xfff00007 x10:0x00000000
        9955000	       994	00000000	00000013	addi	x0,x0,0	  x0:0x00000000
        9965000	       995	80003e18	00000013	addi	x0,x0,0	  x0:0x00000000
        9975000	       996	80003e1c	052e0663	beq	x28,x18,80003e68	 x28:0x00000001 x18:0x00000035
        9985000	       997	80003e20	04ce4863	blt	x28,x12,80003e70	 x28:0x00000001 x12:0x00006ac8
        9995000	       998	00000000	00000013	addi	x0,x0,0	  x0:0x00000000
       10005000	       999	80003e6c	00000013	addi	x0,x0,0	  x0:0x00000000
       10015000	      1000	80003e70	018a77b3	and	x15,x20,x24	 x20:0xff800298 x24:0x808098c8 x15=0x80800088
       10025000	      1001	80003e74	0177dcb3	srl	x25,x15,x23	 x15:0x80800088 x23:0x00000000 x25=0x80800088
       10035000	      1002	80003e78	5c42a597	auipc	x11,0x5c42a	 x11=0xdc42de74
       10045000	      1003	80003e7c	00b6fc33	and	x24,x13,x11	 x13:0x80009fc4 x11:0xdc42de74 x24=0x80009e44
       10055000	      1004	80003e80	1d70c713	xori	x14,x1,471	  x1:0x33ff3ee8 x14=0x33ff3f3f
       10065000	      1005	80003e84	01506fb3	or	x31,x0,x21	  x0:0x00000000 x21:0x80009aa7 x31=0x80009aa7
       10075000	      1006	80003e88	4038d493	srai	x9,x17,0x3	 x17:0x00000000  x9=0x00000000
       10085000	      1007	80003e8c	01125093	srli	x1,x4,0x11	  x4:0x8753d000  x1=0x000043a9
       10095000	      1008	80003e90	0149fc63	bgeu	x19,x20,80003ea8	 x19:0x00000000 x20:0xff800298
       10105000	      1009	80003e94	01312fb3	slt	x31,x2,x19	  x2:0x00000001 x19:0x00000000 x31=0x00000000
       10115000	      1010	80003e98	9ac66113	ori	x2,x12,-1620	 x12:0x00006ac8  x2=0xfffffbec
       10125000	      1011	80003e9c	6982ff93	andi	x31,x5,1688	  x5:0x80009f44 x31=0x00000600
       10135000	      1012	80003ea0	41c7d093	srai	x1,x15,0x1c	 x15:0x80800088  x1=0xfffffff8
       10145000	      1013	80003ea4	d208a137	lui	x2,0xd208a	  x2=0xd208a000
       10155000	      1014	80003ea8	6f28f513	andi	x10,x17,1778	 x17:0x00000000 x10=0x00000000
       10165000	      1015	80003eac	0085dab3	srl	x21,x11,x8	 x11:0xdc42de74  x8:0xfff00007 x21=0x01b885bc
       10175000	      1016	80003eb0	7defe413	ori	x8,x31,2014	 x31:0x00000600  x8=0x000007de
       10185000	      1017	80003eb4	40fd0bb3	sub	x23,x26,x15	 x26:0x00003564 x15:0x80800088 x23=0x7f8034dc
       10195000	      1018	80003eb8	410e0c33	sub	x24,x28,x16	 x28:0x00000001 x16:0x00000410 x24=0xfffffbf1
       10205000	      1019	80003ebc	04307863	bgeu	x0,x3,80003f0c	  x0:0x00000000  x3:0xf80009fc
       10215000	      1020	80003ec0	056dc863	blt	x27,x22,80003f10	 x27:0x00000000 x22:0x00000000
       10225000	      1021	80003ec4	02766e63	bltu	x12,x7,80003f00	 x12:0x00006ac8  x7:0x00000001
       10235000	      1022	80003ec8	0343e663	bltu	x7,x20,80003ef4	  x7:0x00000001 x20:0xff800298
       10245000	      1023	00000000	00000013	addi	x0,x0,0	  x0:0x00000000
       10255000	      1024	80003ef0	00000013	addi	x0,x0,0	  x0:0x00000000
       10265000	      1025	80003ef4	9c3a5fb7	lui	x31,0x9c3a5	 x31=0x9c3a5000
       10275000	      1026	80003ef8	01b0bfb3	sltu	x31,x1,x27	  x1:0xfffffff8 x27:0x00000000 x31=0x00000000
       10285000	      1027	80003efc	5476d597	auipc	x11,0x5476d	 x11=0xd4770ef8
       10295000	      1028	80003f00	b1833593	sltiu	x11,x6,-1256	  x6:0x80005168 x11=0x00000001
       10305000	      1029	80003f04	00d0e933	or	x18,x1,x13	  x1:0xfffffff8 x13:0x80009fc4 x18=0xfffffffc
       10315000	      1030	80003f08	018cdc63	bge	x25,x24,80003f20	 x25:0x80800088 x24:0xfffffbf1
       10325000	      1031	80003f0c	41fa8433	sub	x8,x21,x31	 x21:0x01b885bc x31:0x00000000  x8=0x01b885bc
       10335000	      1032	80003f10	00000013	addi	x0,x0,0	  x0:0x00000000
       10345000	      1033	80003f14	018f6a63	bltu	x30,x24,80003f28	 x30:0x00000001 x24:0xfffffbf1
       10355000	      1034	00000000	00000013	addi	x0,x0,0	  x0:0x00000000
       10365000	      1035	80003f24	00000013	addi	x0,x0,0	  x0:0x00000000
       10375000	      1036	80003f28	04a34863	blt	x6,x10,80003f78	  x6:0x80005168 x10:0x00000000
       10385000	      1037	00000000	00000013	addi	x0,x0,0	  x0:0x00000000
       10395000	      1038	80003f74	00000013	addi	x0,x0,0	  x0:0x00000000
       10405000	      1039	80003f78	005e25b3	slt	x11,x28,x5	 x28:0x00000001  x5:0x80009f44 x11=0x00000000
       10415000	      1040	80003f7c	00285933	srl	x18,x16,x2	 x16:0x00000410  x2:0xd208a000 x18=0x00000410
       10425000	      1041	80003f80	00961d13	slli	x26,x12,0x9	 x12:0x00006ac8 x26=0x00d59000
       10435000	      1042	80003f84	3fc28093	addi	x1,x5,1020	  x5:0x80009f44  x1=0x8000a340
       10445000	      1043	80003f88	129a0997	auipc	x19,0x129a0	 x19=0x929a3f84
       10455000	      1044	80003f8c	01955d13	srli	x26,x10,0x19	 x10:0x00000000 x26=0x00000000
       10465000	      1045	80003f90	c44a4d93	xori	x27,x20,-956	 x20:0xff800298 x27=0x007ffedc
       10475000	      1046	80003f94	03769463	bne	x13,x23,80003fbc	 x13:0x80009fc4 x23:0x7f8034dc
       10485000	      1047	00000000	00000013	addi	x0,x0,0	  x0:0x00000000
       10495000	      1048	80003fb8	00000013	addi	x0,x0,0	  x0:0x00000000
       10505000	      1049	80003fbc	4c28e313	ori	x6,x17,1218	 x17:0x00000000  x6=0x000004c2
       10515000	      1050	80003fc0	0059f633	and	x12,x19,x5	 x19:0x929a3f84  x5:0x80009f44 x12=0x80001f04
       10525000	      1051	80003fc4	200a1a17	auipc	x20,0x200a1	 x20=0xa00a4fc0
       10535000	      1052	80003fc8	0074f663	bgeu	x9,x7,80003fd4	  x9:0x00000000  x7:0x00000001
       10545000	      1053	80003fcc	012b7463	bgeu	x22,x18,80003fd4	 x22:0x00000000 x18:0x00000410
       10555000	      1054	80003fd0	40de5613	srai	x12,x28,0xd	 x28:0x00000001 x12=0x00000000
       10565000	      1055	80003fd4	46bd3497	auipc	x9,0x46bd3	  x9=0xc6bd6fd0
       10575000	      1056	80003fd8	01c29393	slli	x7,x5,0x1c	  x5:0x80009f44  x7=0x40000000
       10585000	      1057	80003fdc	0042aa03	lw	x20,4(x5)	  x5:0x80009f44 x20=0x80000168 PA:0x80009f48
       10595000	      1058	80003fe0	00000013	addi	x0,x0,0	  x0:0x00000000
       10605000	      1059	80003fe4	01e44433	xor	x8,x8,x30	  x8:0x01b885bc x30:0x00000001  x8=0x01b885bd
       10615000	      1060	80003fe8	29dc7d93	andi	x27,x24,669	 x24:0xfffffbf1 x27=0x00000291
       10625000	      1061	80003fec	04028293	addi	x5,x5,64	  x5:0x80009f44  x5=0x80009f84
       10635000	      1062	80003ff0	00a6b8b3	sltu	x17,x13,x10	 x13:0x80009fc4 x10:0x00000000 x17=0x00000000
       10645000	      1063	80003ff4	7708a713	slti	x14,x17,1904	 x17:0x00000000 x14=0x00000001
       10655000	      1064	80003ff8	00d85593	srli	x11,x16,0xd	 x16:0x00000410 x11=0x00000000
       10665000	      1065	80003ffc	001a0f93	addi	x31,x20,1	 x20:0x80000168 x31=0x80000169
       10675000	      1066	80004000	000f8fe7	jalr	x31,x31,0	 x31:0x80000169 x31=0x80004000
       10685000	      1067	00000000	00000013	addi	x0,x0,0	  x0:0x00000000
       10695000	      1068	80000168	00000013	addi	x0,x0,0	  x0:0x00000000
       10705000	      1069	8000016c	52ab4193	xori	x3,x22,1322	 x22:0x00000000  x3=0x0000052a
       10715000	      1070	80000170	01877133	and	x2,x14,x24	 x14:0x00000001 x24:0xfffffbf1  x2=0x00000001
       10725000	      1071	80000174	00004317	auipc	x6,0x4	  x6=0x80004170
       10735000	      1072	80000178	e9030313	addi	x6,x6,-368	  x6:0x80004170  x6=0x80004000
       10745000	      1073	8000017c	404f5cb3	sra	x25,x30,x4	 x30:0x00000001  x4:0x8753d000 x25=0x00000001
       10755000	      1074	80000180	9a5dba17	auipc	x20,0x9a5db	 x20=0x1a5db17c
       10765000	      1075	80000184	e8e30313	addi	x6,x6,-370	  x6:0x80004000  x6=0x80003e8e
       10775000	      1076	80000188	2aa38897	auipc	x17,0x2aa38	 x17=0xaaa38184
       10785000	      1077	8000018c	0108f663	bgeu	x17,x16,80000198	 x17:0xaaa38184 x16:0x00000410
       10795000	      1078	00000000	00000013	addi	x0,x0,0	  x0:0x00000000
       10805000	      1079	80000194	00000013	addi	x0,x0,0	  x0:0x00000000
       10815000	      1080	80000198	17330a67	jalr	x20,x6,371	  x6:0x80003e8e x20=0x80000198
       10825000	      1081	00000000	00000013	addi	x0,x0,0	  x0:0x00000000
       10835000	      1082	80004000	00000013	addi	x0,x0,0	  x0:0x00000000
       10845000	      1083	80004004	41255c93	srai	x25,x10,0x12	 x10:0x00000000 x25=0x00000000
       10855000	      1084	80004008	376c0613	addi	x12,x24,886	 x24:0xfffffbf1 x12=0xffffff67
       10865000	      1085	8000400c	01de4663	blt	x28,x29,80004018	 x28:0x00000001 x29:0x00000000
       10875000	      1086	80004010	858cf993	andi	x19,x25,-1960	 x25:0x00000000 x19=0x00000000
       10885000	      1087	80004014	00610633	add	x12,x2,x6	  x2:0x00000001  x6:0x80003e8e x12=0x80003e8f
       10895000	      1088	80004018	ff428293	addi	x5,x5,-12	  x5:0x80009f84  x5=0x80009f78
       10905000	      1089	8000401c	0142a223	sw	x20,4(x5)	  x5:0x80009f78 x20:0x80000198 PA:0x80009f7c
       10915000	      1090	80004020	0deec013	xori	x0,x29,222	 x29:0x00000000
       10925000	      1091	80004024	02000a6f	jal	x20,80004024	 x20=0x80004024
       10935000	      1092	00000000	00000013	addi	x0,x0,0	  x0:0x00000000
       10945000	      1093	80004040	00000013	addi	x0,x0,0	  x0:0x00000000
       10955000	      1094	80004044	0300016f	jal	x2,80004044	  x2=0x80004044
       10965000	      1095	00000000	00000013	addi	x0,x0,0	  x0:0x00000000
       10975000	      1096	80004070	00000013	addi	x0,x0,0	  x0:0x00000000
       10985000	      1097	80004074	004000ef	jal	x1,80004074	  x1=0x80004074
       10995000	      1098	00000000	00000013	addi	x0,x0,0	  x0:0x00000000
       11005000	      1099	80004074	00000013	addi	x0,x0,0	  x0:0x00000000
       11015000	      1100	80004078	fddff0ef	jal	x1,80004078	  x1=0x80004078
       11025000	      1101	00000000	00000013	addi	x0,x0,0	  x0:0x00000000
       11035000	      1102	80004050	00000013	addi	x0,x0,0	  x0:0x00000000
       11045000	      1103	80004054	00c00aef	jal	x21,80004054	 x21=0x80004054
       11055000	      1104	00000000	00000013	addi	x0,x0,0	  x0:0x00000000
       11065000	      1105	8000405c	00000013	addi	x0,x0,0	  x0:0x00000000
       11075000	      1106	80004060	004000ef	jal	x1,80004060	  x1=0x80004060
       11085000	      1107	00000000	00000013	addi	x0,x0,0	  x0:0x00000000
       11095000	      1108	80004060	00000013	addi	x0,x0,0	  x0:0x00000000
       11105000	      1109	80004064	fedff0ef	jal	x1,80004064	  x1=0x80004064
       11115000	      1110	00000000	00000013	addi	x0,x0,0	  x0:0x00000000
       11125000	      1111	8000404c	00000013	addi	x0,x0,0	  x0:0x00000000
       11135000	      1112	80004050	fddff0ef	jal	x1,80004050	  x1=0x80004050
       11145000	      1113	00000000	00000013	addi	x0,x0,0	  x0:0x00000000
       11155000	      1114	80004028	00000013	addi	x0,x0,0	  x0:0x00000000
       11165000	      1115	8000402c	030007ef	jal	x15,8000402c	 x15=0x8000402c
       11175000	      1116	00000000	00000013	addi	x0,x0,0	  x0:0x00000000
       11185000	      1117	80004058	00000013	addi	x0,x0,0	  x0:0x00000000
       11195000	      1118	8000405c	02c000ef	jal	x1,8000405c	  x1=0x8000405c
       11205000	      1119	00000000	00000013	addi	x0,x0,0	  x0:0x00000000
       11215000	      1120	80004084	00000013	addi	x0,x0,0	  x0:0x00000000
       11225000	      1121	80004088	ff9ff0ef	jal	x1,80004088	  x1=0x80004088
       11235000	      1122	00000000	00000013	addi	x0,x0,0	  x0:0x00000000
       11245000	      1123	8000407c	00000013	addi	x0,x0,0	  x0:0x00000000
       11255000	      1124	80004080	fd9ff0ef	jal	x1,80004080	  x1=0x80004080
       11265000	      1125	00000000	00000013	addi	x0,x0,0	  x0:0x00000000
       11275000	      1126	80004054	00000013	addi	x0,x0,0	  x0:0x00000000
       11285000	      1127	80004058	018001ef	jal	x3,80004058	  x3=0x80004058
       11295000	      1128	00000000	00000013	addi	x0,x0,0	  x0:0x00000000
       11305000	      1129	8000406c	00000013	addi	x0,x0,0	  x0:0x00000000
       11315000	      1130	80004070	fd9ff36f	jal	x6,80004070	  x6=0x80004070
       11325000	      1131	00000000	00000013	addi	x0,x0,0	  x0:0x00000000
       11335000	      1132	80004044	00000013	addi	x0,x0,0	  x0:0x00000000
       11345000	      1133	80004048	fe1ff0ef	jal	x1,80004048	  x1=0x80004048
       11355000	      1134	00000000	00000013	addi	x0,x0,0	  x0:0x00000000
       11365000	      1135	80004024	00000013	addi	x0,x0,0	  x0:0x00000000
       11375000	      1136	80004028	0400046f	jal	x8,80004028	  x8=0x80004028
       11385000	      1137	00000000	00000013	addi	x0,x0,0	  x0:0x00000000
       11395000	      1138	80004064	00000013	addi	x0,x0,0	  x0:0x00000000
       11405000	      1139	80004068	fe5ff0ef	jal	x1,80004068	  x1=0x80004068
       11415000	      1140	00000000	00000013	addi	x0,x0,0	  x0:0x00000000
       11425000	      1141	80004048	00000013	addi	x0,x0,0	  x0:0x00000000
       11435000	      1142	8000404c	ff1ff36f	jal	x6,8000404c	  x6=0x8000404c
       11445000	      1143	00000000	00000013	addi	x0,x0,0	  x0:0x00000000
       11455000	      1144	80004038	00000013	addi	x0,x0,0	  x0:0x00000000
       11465000	      1145	8000403c	030000ef	jal	x1,8000403c	  x1=0x8000403c
       11475000	      1146	00000000	00000013	addi	x0,x0,0	  x0:0x00000000
       11485000	      1147	80004068	00000013	addi	x0,x0,0	  x0:0x00000000
       11495000	      1148	8000406c	fcdff0ef	jal	x1,8000406c	  x1=0x8000406c
       11505000	      1149	00000000	00000013	addi	x0,x0,0	  x0:0x00000000
       11515000	      1150	80004034	00000013	addi	x0,x0,0	  x0:0x00000000
       11525000	      1151	80004038	ffdff36f	jal	x6,80004038	  x6=0x80004038
       11535000	      1152	00000000	00000013	addi	x0,x0,0	  x0:0x00000000
       11545000	      1153	80004030	00000013	addi	x0,x0,0	  x0:0x00000000
       11555000	      1154	80004034	048001ef	jal	x3,80004034	  x3=0x80004034
       11565000	      1155	00000000	00000013	addi	x0,x0,0	  x0:0x00000000
       11575000	      1156	80004078	00000013	addi	x0,x0,0	  x0:0x00000000
       11585000	      1157	8000407c	008000ef	jal	x1,8000407c	  x1=0x8000407c
       11595000	      1158	00000000	00000013	addi	x0,x0,0	  x0:0x00000000
       11605000	      1159	80004080	00000013	addi	x0,x0,0	  x0:0x00000000
       11615000	      1160	80004084	fadfff6f	jal	x30,80004084	 x30=0x80004084
       11625000	      1161	00000000	00000013	addi	x0,x0,0	  x0:0x00000000
       11635000	      1162	8000402c	00000013	addi	x0,x0,0	  x0:0x00000000
       11645000	      1163	80004030	0100036f	jal	x6,80004030	  x6=0x80004030
       11655000	      1164	00000000	00000013	addi	x0,x0,0	  x0:0x00000000
       11665000	      1165	8000403c	00000013	addi	x0,x0,0	  x0:0x00000000
       11675000	      1166	80004040	04c000ef	jal	x1,80004040	  x1=0x80004040
       11685000	      1167	00000000	00000013	addi	x0,x0,0	  x0:0x00000000
       11695000	      1168	80004088	00000013	addi	x0,x0,0	  x0:0x00000000
       11705000	      1169	8000408c	015019b3	sll	x19,x0,x21	  x0:0x00000000 x21:0x80004054 x19=0x00000000
       11715000	      1170	80004090	03400a6f	jal	x20,80004090	 x20=0x80004090
       11725000	      1171	00000000	00000013	addi	x0,x0,0	  x0:0x00000000
       11735000	      1172	800040c0	00000013	addi	x0,x0,0	  x0:0x00000000
       11745000	      1173	800040c4	fe5ff0ef	jal	x1,800040c4	  x1=0x800040c4
       11755000	      1174	00000000	00000013	addi	x0,x0,0	  x0:0x00000000
       11765000	      1175	800040a4	00000013	addi	x0,x0,0	  x0:0x00000000
       11775000	      1176	800040a8	018000ef	jal	x1,800040a8	  x1=0x800040a8
       11785000	      1177	00000000	00000013	addi	x0,x0,0	  x0:0x00000000
       11795000	      1178	800040bc	00000013	addi	x0,x0,0	  x0:0x00000000
       11805000	      1179	800040c0	010005ef	jal	x11,800040c0	 x11=0x800040c0
       11815000	      1180	00000000	00000013	addi	x0,x0,0	  x0:0x00000000
       11825000	      1181	800040cc	00000013	addi	x0,x0,0	  x0:0x00000000
       11835000	      1182	800040d0	fe9ff0ef	jal	x1,800040d0	  x1=0x800040d0
       11845000	      1183	00000000	00000013	addi	x0,x0,0	  x0:0x00000000
       11855000	      1184	800040b4	00000013	addi	x0,x0,0	  x0:0x00000000
       11865000	      1185	800040b8	ff5ff86f	jal	x16,800040b8	 x16=0x800040b8
       11875000	      1186	00000000	00000013	addi	x0,x0,0	  x0:0x00000000
       11885000	      1187	800040a8	00000013	addi	x0,x0,0	  x0:0x00000000
       11895000	      1188	800040ac	ff9ff0ef	jal	x1,800040ac	  x1=0x800040ac
       11905000	      1189	00000000	00000013	addi	x0,x0,0	  x0:0x00000000
       11915000	      1190	800040a0	00000013	addi	x0,x0,0	  x0:0x00000000
       11925000	      1191	800040a4	024000ef	jal	x1,800040a4	  x1=0x800040a4
       11935000	      1192	00000000	00000013	addi	x0,x0,0	  x0:0x00000000
       11945000	      1193	800040c4	00000013	addi	x0,x0,0	  x0:0x00000000
       11955000	      1194	800040c8	0040036f	jal	x6,800040c8	  x6=0x800040c8
       11965000	      1195	00000000	00000013	addi	x0,x0,0	  x0:0x00000000
       11975000	      1196	800040c8	00000013	addi	x0,x0,0	  x0:0x00000000
       11985000	      1197	800040cc	fd5ff1ef	jal	x3,800040cc	  x3=0x800040cc
       11995000	      1198	00000000	00000013	addi	x0,x0,0	  x0:0x00000000
       12005000	      1199	8000409c	00000013	addi	x0,x0,0	  x0:0x00000000
       12015000	      1200	800040a0	ff9ff0ef	jal	x1,800040a0	  x1=0x800040a0
       12025000	      1201	00000000	00000013	addi	x0,x0,0	  x0:0x00000000
       12035000	      1202	80004094	00000013	addi	x0,x0,0	  x0:0x00000000
       12045000	      1203	80004098	018000ef	jal	x1,80004098	  x1=0x80004098
       12055000	      1204	00000000	00000013	addi	x0,x0,0	  x0:0x00000000
       12065000	      1205	800040ac	00000013	addi	x0,x0,0	  x0:0x00000000
       12075000	      1206	800040b0	fedff0ef	jal	x1,800040b0	  x1=0x800040b0
       12085000	      1207	00000000	00000013	addi	x0,x0,0	  x0:0x00000000
       12095000	      1208	80004098	00000013	addi	x0,x0,0	  x0:0x00000000
       12105000	      1209	8000409c	020000ef	jal	x1,8000409c	  x1=0x8000409c
       12115000	      1210	00000000	00000013	addi	x0,x0,0	  x0:0x00000000
       12125000	      1211	800040b8	00000013	addi	x0,x0,0	  x0:0x00000000
       12135000	      1212	800040bc	fd9ff0ef	jal	x1,800040bc	  x1=0x800040bc
       12145000	      1213	00000000	00000013	addi	x0,x0,0	  x0:0x00000000
       12155000	      1214	80004090	00000013	addi	x0,x0,0	  x0:0x00000000
       12165000	      1215	80004094	0200036f	jal	x6,80004094	  x6=0x80004094
       12175000	      1216	00000000	00000013	addi	x0,x0,0	  x0:0x00000000
       12185000	      1217	800040b0	00000013	addi	x0,x0,0	  x0:0x00000000
       12195000	      1218	800040b4	0200076f	jal	x14,800040b4	 x14=0x800040b4
       12205000	      1219	00000000	00000013	addi	x0,x0,0	  x0:0x00000000
       12215000	      1220	800040d0	00000013	addi	x0,x0,0	  x0:0x00000000
       12225000	      1221	800040d4	6e7adeb7	lui	x29,0x6e7ad	 x29=0x6e7ad000
       12235000	      1222	800040d8	00e31893	slli	x17,x6,0xe	  x6:0x80004094 x17=0x10250000
       12245000	      1223	800040dc	41870bb3	sub	x23,x14,x24	 x14:0x800040b4 x24:0xfffffbf1 x23=0x800044c3
       12255000	      1224	800040e0	047bf863	bgeu	x23,x7,80004130	 x23:0x800044c3  x7:0x40000000
       12265000	      1225	00000000	00000013	addi	x0,x0,0	  x0:0x00000000
       12275000	      1226	8000412c	00000013	addi	x0,x0,0	  x0:0x00000000
       12285000	      1227	80004130	01484a63	blt	x16,x20,80004144	 x16:0x800040b8 x20:0x80004090
       12295000	      1228	80004134	29a43a93	sltiu	x21,x8,666	  x8:0x80004028 x21=0x00000000
       12305000	      1229	80004138	000a4c63	blt	x20,x0,80004150	 x20:0x80004090  x0:0x00000000
       12315000	      1230	00000000	00000013	addi	x0,x0,0	  x0:0x00000000
       12325000	      1231	8000414c	00000013	addi	x0,x0,0	  x0:0x00000000
       12335000	      1232	80004150	0d6b5263	bge	x22,x22,80004214	 x22:0x00000000 x22:0x00000000
       12345000	      1233	00000000	00000013	addi	x0,x0,0	  x0:0x00000000
       12355000	      1234	80004210	00000013	addi	x0,x0,0	  x0:0x00000000
       12365000	      1235	80004214	0123ddb3	srl	x27,x7,x18	  x7:0x40000000 x18:0x00000410 x27=0x00004000
       12375000	      1236	80004218	05cc6463	bltu	x24,x28,80004260	 x24:0xfffffbf1 x28:0x00000001
       12385000	      1237	8000421c	01a52cb3	slt	x25,x10,x26	 x10:0x00000000 x26:0x00000000 x25=0x00000000
       12395000	      1238	80004220	00c31913	slli	x18,x6,0xc	  x6:0x80004094 x18=0x04094000
       12405000	      1239	80004224	01bc4663	blt	x24,x27,80004230	 x24:0xfffffbf1 x27:0x00004000
       12415000	      1240	00000000	00000013	addi	x0,x0,0	  x0:0x00000000
       12425000	      1241	8000422c	00000013	addi	x0,x0,0	  x0:0x00000000
       12435000	      1242	80004230	409bd5b3	sra	x11,x23,x9	 x23:0x800044c3  x9:0xc6bd6fd0 x11=0xffff8000
       12445000	      1243	80004234	1d05e993	ori	x19,x11,464	 x11:0xffff8000 x19=0xffff81d0
       12455000	      1244	80004238	0bfbf463	bgeu	x23,x31,800042e0	 x23:0x800044c3 x31:0x80004000
       12465000	      1245	00000000	00000013	addi	x0,x0,0	  x0:0x00000000
       12475000	      1246	800042dc	00000013	addi	x0,x0,0	  x0:0x00000000
       12485000	      1247	800042e0	012327b3	slt	x15,x6,x18	  x6:0x80004094 x18:0x04094000 x15=0x00000001
       12495000	      1248	800042e4	0182c333	xor	x6,x5,x24	  x5:0x80009f78 x24:0xfffffbf1  x6=0x7fff6489
       12505000	      1249	800042e8	e5706c93	ori	x25,x0,-425	  x0:0x00000000 x25=0xfffffe57
       12515000	      1250	800042ec	98dc4513	xori	x10,x24,-1651	 x24:0xfffffbf1 x10=0x0000027c
       12525000	      1251	800042f0	01150c33	add	x24,x10,x17	 x10:0x0000027c x17:0x10250000 x24=0x1025027c
       12535000	      1252	800042f4	41875613	srai	x12,x14,0x18	 x14:0x800040b4 x12=0xffffff80
       12545000	      1253	800042f8	bcf73713	sltiu	x14,x14,-1073	 x14:0x800040b4 x14=0x00000001
       12555000	      1254	800042fc	015a98b3	sll	x17,x21,x21	 x21:0x00000000 x21:0x00000000 x17=0x00000000
       12565000	      1255	80004300	00000013	addi	x0,x0,0	  x0:0x00000000
       12575000	      1256	80004304	57d4ae93	slti	x29,x9,1405	  x9:0xc6bd6fd0 x29=0x00000001
       12585000	      1257	80004308	03a6dc63	bge	x13,x26,80004340	 x13:0x80009fc4 x26:0x00000000
       12595000	      1258	8000430c	04dc4063	blt	x24,x13,8000434c	 x24:0x1025027c x13:0x80009fc4
       12605000	      1259	80004310	007b21b3	slt	x3,x22,x7	 x22:0x00000000  x7:0x40000000  x3=0x00000001
       12615000	      1260	80004314	00000013	addi	x0,x0,0	  x0:0x00000000
       12625000	      1261	80004318	01e0f033	and	x0,x1,x30	  x1:0x800040bc x30:0x80004084
       12635000	      1262	8000431c	00218eb3	add	x29,x3,x2	  x3:0x00000001  x2:0x80004044 x29=0x80004045
       12645000	      1263	80004320	03447463	bgeu	x8,x20,80004348	  x8:0x80004028 x20:0x80004090
       12655000	      1264	80004324	01efb1b3	sltu	x3,x31,x30	 x31:0x80004000 x30:0x80004084  x3=0x00000001
       12665000	      1265	80004328	00640bb3	add	x23,x8,x6	  x8:0x80004028  x6:0x7fff6489 x23=0xffffa4b1
       12675000	      1266	8000432c	14cdca93	xori	x21,x27,332	 x27:0x00004000 x21=0x0000414c
       12685000	      1267	80004330	01b57f33	and	x30,x10,x27	 x10:0x0000027c x27:0x00004000 x30=0x00000000
       12695000	      1268	80004334	00744a63	blt	x8,x7,80004348	  x8:0x80004028  x7:0x40000000
       12705000	      1269	00000000	00000013	addi	x0,x0,0	  x0:0x00000000
       12715000	      1270	80004344	00000013	addi	x0,x0,0	  x0:0x00000000
       12725000	      1271	80004348	0bffc193	xori	x3,x31,191	 x31:0x80004000  x3=0x800040bf
       12735000	      1272	8000434c	00000013	addi	x0,x0,0	  x0:0x00000000
       12745000	      1273	80004350	b90e5397	auipc	x7,0xb90e5	  x7=0x390e934c
       12755000	      1274	80004354	90bc3997	auipc	x19,0x90bc3	 x19=0x10bc7350
       12765000	      1275	80004358	00000013	addi	x0,x0,0	  x0:0x00000000
       12775000	      1276	8000435c	008df593	andi	x11,x27,8	 x27:0x00004000 x11=0x00000000
       12785000	      1277	80004360	40ae84b3	sub	x9,x29,x10	 x29:0x80004045 x10:0x0000027c  x9=0x80003dc9
       12795000	      1278	80004364	43e7e413	ori	x8,x15,1086	 x15:0x00000001  x8=0x0000043f
       12805000	      1279	80004368	95a7b093	sltiu	x1,x15,-1702	 x15:0x00000001  x1=0x00000001
       12815000	      1280	8000436c	66d70c13	addi	x24,x14,1645	 x14:0x00000001 x24=0x0000066e
       12825000	      1281	80004370	413904b3	sub	x9,x18,x19	 x18:0x04094000 x19:0x10bc7350  x9=0xf34cccb0
       12835000	      1282	80004374	4d77a797	auipc	x15,0x4d77a	 x15=0xcd77e370
       12845000	      1283	80004378	0de6c513	xori	x10,x13,222	 x13:0x80009fc4 x10=0x80009f1a
       12855000	      1284	8000437c	007653b3	srl	x7,x12,x7	 x12:0xffffff80  x7:0x390e934c  x7=0x000fffff
       12865000	      1285	80004380	015dbeb3	sltu	x29,x27,x21	 x27:0x00004000 x21:0x0000414c x29=0x00000001
       12875000	      1286	80004384	05bc9463	bne	x25,x27,800043cc	 x25:0xfffffe57 x27:0x00004000
       12885000	      1287	00000000	00000013	addi	x0,x0,0	  x0:0x00000000
       12895000	      1288	800043c8	00000013	addi	x0,x0,0	  x0:0x00000000
       12905000	      1289	800043cc	a8252213	slti	x4,x10,-1406	 x10:0x80009f1a  x4=0x00000001
       12915000	      1290	800043d0	014efc33	and	x24,x29,x20	 x29:0x00000001 x20:0x80004090 x24=0x00000000
       12925000	      1291	800043d4	41690833	sub	x16,x18,x22	 x18:0x04094000 x22:0x00000000 x16=0x04094000
       12935000	      1292	800043d8	00140733	add	x14,x8,x1	  x8:0x0000043f  x1:0x00000001 x14=0x00000440
       12945000	      1293	800043dc	4151d4b3	sra	x9,x3,x21	  x3:0x800040bf x21:0x0000414c  x9=0xfff80004
       12955000	      1294	800043e0	0426c463	blt	x13,x2,80004428	 x13:0x80009fc4  x2:0x80004044
       12965000	      1295	800043e4	01f52c33	slt	x24,x10,x31	 x10:0x80009f1a x31:0x80004000 x24=0x00000000
       12975000	      1296	800043e8	01d7e133	or	x2,x15,x29	 x15:0xcd77e370 x29:0x00000001  x2=0xcd77e371
       12985000	      1297	800043ec	0017ca63	blt	x15,x1,80004400	 x15:0xcd77e370  x1:0x00000001
       12995000	      1298	00000000	00000013	addi	x0,x0,0	  x0:0x00000000
       13005000	      1299	800043fc	00000013	addi	x0,x0,0	  x0:0x00000000
       13015000	      1300	80004400	00065733	srl	x14,x12,x0	 x12:0xffffff80  x0:0x00000000 x14=0xffffff80
       13025000	      1301	80004404	00594a33	xor	x20,x18,x5	 x18:0x04094000  x5:0x80009f78 x20=0x8409df78
       13035000	      1302	80004408	02811463	bne	x2,x8,80004430	  x2:0xcd77e371  x8:0x0000043f
       13045000	      1303	00000000	00000013	addi	x0,x0,0	  x0:0x00000000
       13055000	      1304	8000442c	00000013	addi	x0,x0,0	  x0:0x00000000
       13065000	      1305	80004430	41460433	sub	x8,x12,x20	 x12:0xffffff80 x20:0x8409df78  x8=0x7bf62008
       13075000	      1306	80004434	0043d833	srl	x16,x7,x4	  x7:0x000fffff  x4:0x00000001 x16=0x0007ffff
       13085000	      1307	80004438	00404733	xor	x14,x0,x4	  x0:0x00000000  x4:0x00000001 x14=0x00000001
       13095000	      1308	8000443c	10dbcd13	xori	x26,x23,269	 x23:0xffffa4b1 x26=0xffffa5bc
       13105000	      1309	80004440	00ceacb3	slt	x25,x29,x12	 x29:0x00000001 x12:0xffffff80 x25=0x00000000
       13115000	      1310	80004444	daa3ca13	xori	x20,x7,-598	  x7:0x000fffff x20=0xfff00255
       13125000	      1311	80004448	003a3cb3	sltu	x25,x20,x3	 x20:0xfff00255  x3:0x800040bf x25=0x00000000
       13135000	      1312	8000444c	018e1393	slli	x7,x28,0x18	 x28:0x00000001  x7=0x01000000
       13145000	      1313	80004450	016c1993	slli	x19,x24,0x16	 x24:0x00000000 x19=0x00000000
       13155000	      1314	80004454	9e95ed93	ori	x27,x11,-1559	 x11:0x00000000 x27=0xfffff9e9
       13165000	      1315	80004458	f11e0913	addi	x18,x28,-239	 x28:0x00000001 x18=0xffffff12
       13175000	      1316	8000445c	01951993	slli	x19,x10,0x19	 x10:0x80009f1a x19=0x34000000
       13185000	      1317	80004460	0166c463	blt	x13,x22,80004468	 x13:0x80009fc4 x22:0x00000000
       13195000	      1318	00000000	00000013	addi	x0,x0,0	  x0:0x00000000
       13205000	      1319	80004464	00000013	addi	x0,x0,0	  x0:0x00000000
       13215000	      1320	80004468	007e9c63	bne	x29,x7,80004480	 x29:0x00000001  x7:0x01000000
       13225000	      1321	00000000	00000013	addi	x0,x0,0	  x0:0x00000000
       13235000	      1322	8000447c	00000013	addi	x0,x0,0	  x0:0x00000000
       13245000	      1323	80004480	6d33a413	slti	x8,x7,1747	  x7:0x01000000  x8=0x00000000
       13255000	      1324	80004484	f5b83993	sltiu	x19,x16,-165	 x16:0x0007ffff x19=0x00000001
       13265000	      1325	80004488	93678093	addi	x1,x15,-1738	 x15:0xcd77e370  x1=0xcd77dca6
       13275000	      1326	8000448c	40825c93	srai	x25,x4,0x8	  x4:0x00000001 x25=0x00000000
       13285000	      1327	80004490	5e300e93	addi	x29,x0,1507	  x0:0x00000000 x29=0x000005e3
       13295000	      1328	80004494	00000013	addi	x0,x0,0	  x0:0x00000000
       13305000	      1329	80004498	01f1d7b3	srl	x15,x3,x31	  x3:0x800040bf x31:0x80004000 x15=0x800040bf
       13315000	      1330	8000449c	40090f33	sub	x30,x18,x0	 x18:0xffffff12  x0:0x00000000 x30=0xffffff12
       13325000	      1331	800044a0	845f6f13	ori	x30,x30,-1979	 x30:0xffffff12 x30=0xffffff57
       13335000	      1332	800044a4	00f108b3	add	x17,x2,x15	  x2:0xcd77e371 x15:0x800040bf x17=0x4d782430
       13345000	      1333	800044a8	041d9663	bne	x27,x1,800044f4	 x27:0xfffff9e9  x1:0xcd77dca6
       13355000	      1334	00000000	00000013	addi	x0,x0,0	  x0:0x00000000
       13365000	      1335	800044f0	00000013	addi	x0,x0,0	  x0:0x00000000
       13375000	      1336	800044f4	01b77263	bgeu	x14,x27,800044f8	 x14:0x00000001 x27:0xfffff9e9
       13385000	      1337	800044f8	b9b88493	addi	x9,x17,-1125	 x17:0x4d782430  x9=0x4d781fcb
       13395000	      1338	800044fc	01052133	slt	x2,x10,x16	 x10:0x80009f1a x16:0x0007ffff  x2=0x00000001
       13405000	      1339	80004500	410355b3	sra	x11,x6,x16	  x6:0x7fff6489 x16:0x0007ffff x11=0x00000000
       13415000	      1340	80004504	402651b3	sra	x3,x12,x2	 x12:0xffffff80  x2:0x00000001  x3=0xffffffc0
       13425000	      1341	80004508	4b60d217	auipc	x4,0x4b60d	  x4=0xcb611504
       13435000	      1342	8000450c	0126bfb3	sltu	x31,x13,x18	 x13:0x80009fc4 x18:0xffffff12 x31=0x00000001
       13445000	      1343	80004510	014b64b3	or	x9,x22,x20	 x22:0x00000000 x20:0xfff00255  x9=0xfff00255
       13455000	      1344	80004514	00aeeab3	or	x21,x29,x10	 x29:0x000005e3 x10:0x80009f1a x21=0x80009ffb
       13465000	      1345	80004518	00000013	addi	x0,x0,0	  x0:0x00000000
       13475000	      1346	8000451c	00625663	bge	x4,x6,80004528	  x4:0xcb611504  x6:0x7fff6489
       13485000	      1347	80004520	00ba7463	bgeu	x20,x11,80004528	 x20:0xfff00255 x11:0x00000000
       13495000	      1348	00000000	00000013	addi	x0,x0,0	  x0:0x00000000
       13505000	      1349	80004524	00000013	addi	x0,x0,0	  x0:0x00000000
       13515000	      1350	80004528	414dd833	sra	x16,x27,x20	 x27:0xfffff9e9 x20:0xfff00255 x16=0xffffffff
       13525000	      1351	8000452c	00000013	addi	x0,x0,0	  x0:0x00000000
       13535000	      1352	80004530	9df4d837	lui	x16,0x9df4d	 x16=0x9df4d000
       13545000	      1353	80004534	418d5f93	srai	x31,x26,0x18	 x26:0xffffa5bc x31=0xffffffff
       13555000	      1354	80004538	003fd193	srli	x3,x31,0x3	 x31:0xffffffff  x3=0x1fffffff
       13565000	      1355	8000453c	00675733	srl	x14,x14,x6	 x14:0x00000001  x6:0x7fff6489 x14=0x00000000
       13575000	      1356	80004540	0042aa03	lw	x20,4(x5)	  x5:0x80009f78 x20=0x80000198 PA:0x80009f7c
       13585000	      1357	00000000	00000013	addi	x0,x0,0	  x0:0x00000000
       13595000	      1358	80004544	005a4eb3	xor	x29,x20,x5	 x20:0x80000198  x5:0x80009f78 x29=0x00009ee0
       13605000	      1359	80004548	eb6011b7	lui	x3,0xeb601	  x3=0xeb601000
       13615000	      1360	8000454c	e3da6893	ori	x17,x20,-451	 x20:0x80000198 x17=0xffffffbd
       13625000	      1361	80004550	00c28293	addi	x5,x5,12	  x5:0x80009f78  x5=0x80009f84
       13635000	      1362	80004554	fdf14c93	xori	x25,x2,-33	  x2:0x00000001 x25=0xffffffde
       13645000	      1363	80004558	001a0613	addi	x12,x20,1	 x20:0x80000198 x12=0x80000199
       13655000	      1364	8000455c	00060667	jalr	x12,x12,0	 x12:0x80000199 x12=0x8000455c
       13665000	      1365	00000000	00000013	addi	x0,x0,0	  x0:0x00000000
       13675000	      1366	80000198	00000013	addi	x0,x0,0	  x0:0x00000000
       13685000	      1367	8000019c	01800a6f	jal	x20,8000019c	 x20=0x8000019c
       13695000	      1368	00000000	00000013	addi	x0,x0,0	  x0:0x00000000
       13705000	      1369	800001b0	00000013	addi	x0,x0,0	  x0:0x00000000
       13715000	      1370	800001b4	fedff0ef	jal	x1,800001b4	  x1=0x800001b4
       13725000	      1371	00000000	00000013	addi	x0,x0,0	  x0:0x00000000
       13735000	      1372	8000019c	00000013	addi	x0,x0,0	  x0:0x00000000
       13745000	      1373	800001a0	04c000ef	jal	x1,800001a0	  x1=0x800001a0
       13755000	      1374	00000000	00000013	addi	x0,x0,0	  x0:0x00000000
       13765000	      1375	800001e8	00000013	addi	x0,x0,0	  x0:0x00000000
       13775000	      1376	800001ec	fedff0ef	jal	x1,800001ec	  x1=0x800001ec
       13785000	      1377	00000000	00000013	addi	x0,x0,0	  x0:0x00000000
       13795000	      1378	800001d4	00000013	addi	x0,x0,0	  x0:0x00000000
       13805000	      1379	800001d8	fd1ffb6f	jal	x22,800001d8	 x22=0x800001d8
       13815000	      1380	00000000	00000013	addi	x0,x0,0	  x0:0x00000000
       13825000	      1381	800001a4	00000013	addi	x0,x0,0	  x0:0x00000000
       13835000	      1382	800001a8	0500036f	jal	x6,800001a8	  x6=0x800001a8
       13845000	      1383	00000000	00000013	addi	x0,x0,0	  x0:0x00000000
       13855000	      1384	800001f4	00000013	addi	x0,x0,0	  x0:0x00000000
       13865000	      1385	800001f8	004000ef	jal	x1,800001f8	  x1=0x800001f8
       13875000	      1386	00000000	00000013	addi	x0,x0,0	  x0:0x00000000
       13885000	      1387	800001f8	00000013	addi	x0,x0,0	  x0:0x00000000
       13895000	      1388	800001fc	fe1ffdef	jal	x27,800001fc	 x27=0x800001fc
       13905000	      1389	00000000	00000013	addi	x0,x0,0	  x0:0x00000000
       13915000	      1390	800001d8	00000013	addi	x0,x0,0	  x0:0x00000000
       13925000	      1391	800001dc	02400bef	jal	x23,800001dc	 x23=0x800001dc
       13935000	      1392	00000000	00000013	addi	x0,x0,0	  x0:0x00000000
       13945000	      1393	800001fc	00000013	addi	x0,x0,0	  x0:0x00000000
       13955000	      1394	80000200	0080076f	jal	x14,80000200	 x14=0x80000200
       13965000	      1395	00000000	00000013	addi	x0,x0,0	  x0:0x00000000
       13975000	      1396	80000204	00000013	addi	x0,x0,0	  x0:0x00000000
       13985000	      1397	80000208	fb1ff0ef	jal	x1,80000208	  x1=0x80000208
       13995000	      1398	00000000	00000013	addi	x0,x0,0	  x0:0x00000000
       14005000	      1399	800001b4	00000013	addi	x0,x0,0	  x0:0x00000000
       14015000	      1400	800001b8	fedff0ef	jal	x1,800001b8	  x1=0x800001b8
       14025000	      1401	00000000	00000013	addi	x0,x0,0	  x0:0x00000000
       14035000	      1402	800001a0	00000013	addi	x0,x0,0	  x0:0x00000000
       14045000	      1403	800001a4	0300046f	jal	x8,800001a4	  x8=0x800001a4
       14055000	      1404	00000000	00000013	addi	x0,x0,0	  x0:0x00000000
       14065000	      1405	800001d0	00000013	addi	x0,x0,0	  x0:0x00000000
       14075000	      1406	800001d4	01400bef	jal	x23,800001d4	 x23=0x800001d4
       14085000	      1407	00000000	00000013	addi	x0,x0,0	  x0:0x00000000
       14095000	      1408	800001e4	00000013	addi	x0,x0,0	  x0:0x00000000
       14105000	      1409	800001e8	024000ef	jal	x1,800001e8	  x1=0x800001e8
       14115000	      1410	00000000	00000013	addi	x0,x0,0	  x0:0x00000000
       14125000	      1411	80000208	00000013	addi	x0,x0,0	  x0:0x00000000
       14135000	      1412	8000020c	fb9ff0ef	jal	x1,8000020c	  x1=0x8000020c
       14145000	      1413	00000000	00000013	addi	x0,x0,0	  x0:0x00000000
       14155000	      1414	800001c0	00000013	addi	x0,x0,0	  x0:0x00000000
       14165000	      1415	800001c4	fe9ff3ef	jal	x7,800001c4	  x7=0x800001c4
       14175000	      1416	00000000	00000013	addi	x0,x0,0	  x0:0x00000000
       14185000	      1417	800001a8	00000013	addi	x0,x0,0	  x0:0x00000000
       14195000	      1418	800001ac	04400c6f	jal	x24,800001ac	 x24=0x800001ac
       14205000	      1419	00000000	00000013	addi	x0,x0,0	  x0:0x00000000
       14215000	      1420	800001ec	00000013	addi	x0,x0,0	  x0:0x00000000
       14225000	      1421	800001f0	ff5ff0ef	jal	x1,800001f0	  x1=0x800001f0
       14235000	      1422	00000000	00000013	addi	x0,x0,0	  x0:0x00000000
       14245000	      1423	800001e0	00000013	addi	x0,x0,0	  x0:0x00000000
       14255000	      1424	800001e4	020001ef	jal	x3,800001e4	  x3=0x800001e4
       14265000	      1425	00000000	00000013	addi	x0,x0,0	  x0:0x00000000
       14275000	      1426	80000200	00000013	addi	x0,x0,0	  x0:0x00000000
       14285000	      1427	80000204	fc5ff46f	jal	x8,80000204	  x8=0x80000204
       14295000	      1428	00000000	00000013	addi	x0,x0,0	  x0:0x00000000
       14305000	      1429	800001c4	00000013	addi	x0,x0,0	  x0:0x00000000
       14315000	      1430	800001c8	ff5ff0ef	jal	x1,800001c8	  x1=0x800001c8
       14325000	      1431	00000000	00000013	addi	x0,x0,0	  x0:0x00000000
       14335000	      1432	800001b8	00000013	addi	x0,x0,0	  x0:0x00000000
       14345000	      1433	800001bc	0540036f	jal	x6,800001bc	  x6=0x800001bc
       14355000	      1434	00000000	00000013	addi	x0,x0,0	  x0:0x00000000
       14365000	      1435	8000020c	00000013	addi	x0,x0,0	  x0:0x00000000
       14375000	      1436	80000210	fe5ff0ef	jal	x1,80000210	  x1=0x80000210
       14385000	      1437	00000000	00000013	addi	x0,x0,0	  x0:0x00000000
       14395000	      1438	800001f0	00000013	addi	x0,x0,0	  x0:0x00000000
       14405000	      1439	800001f4	fd9ff0ef	jal	x1,800001f4	  x1=0x800001f4
       14415000	      1440	00000000	00000013	addi	x0,x0,0	  x0:0x00000000
       14425000	      1441	800001c8	00000013	addi	x0,x0,0	  x0:0x00000000
       14435000	      1442	800001cc	ff5ff0ef	jal	x1,800001cc	  x1=0x800001cc
       14445000	      1443	00000000	00000013	addi	x0,x0,0	  x0:0x00000000
       14455000	      1444	800001bc	00000013	addi	x0,x0,0	  x0:0x00000000
       14465000	      1445	800001c0	02000b6f	jal	x22,800001c0	 x22=0x800001c0
       14475000	      1446	00000000	00000013	addi	x0,x0,0	  x0:0x00000000
       14485000	      1447	800001dc	00000013	addi	x0,x0,0	  x0:0x00000000
       14495000	      1448	800001e0	fd1ff0ef	jal	x1,800001e0	  x1=0x800001e0
       14505000	      1449	00000000	00000013	addi	x0,x0,0	  x0:0x00000000
       14515000	      1450	800001ac	00000013	addi	x0,x0,0	  x0:0x00000000
       14525000	      1451	800001b0	020000ef	jal	x1,800001b0	  x1=0x800001b0
       14535000	      1452	00000000	00000013	addi	x0,x0,0	  x0:0x00000000
       14545000	      1453	800001cc	00000013	addi	x0,x0,0	  x0:0x00000000
       14555000	      1454	800001d0	044000ef	jal	x1,800001d0	  x1=0x800001d0
       14565000	      1455	00000000	00000013	addi	x0,x0,0	  x0:0x00000000
       14575000	      1456	80000210	00000013	addi	x0,x0,0	  x0:0x00000000
       14585000	      1457	80000214	41c75f93	srai	x31,x14,0x1c	 x14:0x80000200 x31=0xfffffff8
       14595000	      1458	80000218	03000a6f	jal	x20,80000218	 x20=0x80000218
       14605000	      1459	00000000	00000013	addi	x0,x0,0	  x0:0x00000000
       14615000	      1460	80000244	00000013	addi	x0,x0,0	  x0:0x00000000
       14625000	      1461	80000248	fd5ff26f	jal	x4,80000248	  x4=0x80000248
       14635000	      1462	00000000	00000013	addi	x0,x0,0	  x0:0x00000000
       14645000	      1463	80000218	00000013	addi	x0,x0,0	  x0:0x00000000
       14655000	      1464	8000021c	0480036f	jal	x6,8000021c	  x6=0x8000021c
       14665000	      1465	00000000	00000013	addi	x0,x0,0	  x0:0x00000000
       14675000	      1466	80000260	00000013	addi	x0,x0,0	  x0:0x00000000
       14685000	      1467	80000264	fd5ff0ef	jal	x1,80000264	  x1=0x80000264
       14695000	      1468	00000000	00000013	addi	x0,x0,0	  x0:0x00000000
       14705000	      1469	80000234	00000013	addi	x0,x0,0	  x0:0x00000000
       14715000	      1470	80000238	ff5ff0ef	jal	x1,80000238	  x1=0x80000238
       14725000	      1471	00000000	00000013	addi	x0,x0,0	  x0:0x00000000
       14735000	      1472	80000228	00000013	addi	x0,x0,0	  x0:0x00000000
       14745000	      1473	8000022c	02c0036f	jal	x6,8000022c	  x6=0x8000022c
       14755000	      1474	00000000	00000013	addi	x0,x0,0	  x0:0x00000000
       14765000	      1475	80000254	00000013	addi	x0,x0,0	  x0:0x00000000
       14775000	      1476	80000258	010000ef	jal	x1,80000258	  x1=0x80000258
       14785000	      1477	00000000	00000013	addi	x0,x0,0	  x0:0x00000000
       14795000	      1478	80000264	00000013	addi	x0,x0,0	  x0:0x00000000
       14805000	      1479	80000268	fd5ff26f	jal	x4,80000268	  x4=0x80000268
       14815000	      1480	00000000	00000013	addi	x0,x0,0	  x0:0x00000000
       14825000	      1481	80000238	00000013	addi	x0,x0,0	  x0:0x00000000
       14835000	      1482	8000023c	008001ef	jal	x3,8000023c	  x3=0x8000023c
       14845000	      1483	00000000	00000013	addi	x0,x0,0	  x0:0x00000000
       14855000	      1484	80000240	00000013	addi	x0,x0,0	  x0:0x00000000
       14865000	      1485	80000244	008000ef	jal	x1,80000244	  x1=0x80000244
       14875000	      1486	00000000	00000013	addi	x0,x0,0	  x0:0x00000000
       14885000	      1487	80000248	00000013	addi	x0,x0,0	  x0:0x00000000
       14895000	      1488	8000024c	0100036f	jal	x6,8000024c	  x6=0x8000024c
       14905000	      1489	00000000	00000013	addi	x0,x0,0	  x0:0x00000000
       14915000	      1490	80000258	00000013	addi	x0,x0,0	  x0:0x00000000
       14925000	      1491	8000025c	ff9ff0ef	jal	x1,8000025c	  x1=0x8000025c
       14935000	      1492	00000000	00000013	addi	x0,x0,0	  x0:0x00000000
       14945000	      1493	80000250	00000013	addi	x0,x0,0	  x0:0x00000000
       14955000	      1494	80000254	fd1ff0ef	jal	x1,80000254	  x1=0x80000254
       14965000	      1495	00000000	00000013	addi	x0,x0,0	  x0:0x00000000
       14975000	      1496	80000220	00000013	addi	x0,x0,0	  x0:0x00000000
       14985000	      1497	80000224	02c0036f	jal	x6,80000224	  x6=0x80000224
       14995000	      1498	00000000	00000013	addi	x0,x0,0	  x0:0x00000000
       15005000	      1499	8000024c	00000013	addi	x0,x0,0	  x0:0x00000000
       15015000	      1500	80000250	fd1ff0ef	jal	x1,80000250	  x1=0x80000250
       15025000	      1501	00000000	00000013	addi	x0,x0,0	  x0:0x00000000
       15035000	      1502	8000021c	00000013	addi	x0,x0,0	  x0:0x00000000
       15045000	      1503	80000220	040001ef	jal	x3,80000220	  x3=0x80000220
       15055000	      1504	00000000	00000013	addi	x0,x0,0	  x0:0x00000000
       15065000	      1505	8000025c	00000013	addi	x0,x0,0	  x0:0x00000000
       15075000	      1506	80000260	00c0036f	jal	x6,80000260	  x6=0x80000260
       15085000	      1507	00000000	00000013	addi	x0,x0,0	  x0:0x00000000
       15095000	      1508	80000268	00000013	addi	x0,x0,0	  x0:0x00000000
       15105000	      1509	8000026c	fc5ff0ef	jal	x1,8000026c	  x1=0x8000026c
       15115000	      1510	00000000	00000013	addi	x0,x0,0	  x0:0x00000000
       15125000	      1511	8000022c	00000013	addi	x0,x0,0	  x0:0x00000000
       15135000	      1512	80000230	004003ef	jal	x7,80000230	  x7=0x80000230
       15145000	      1513	00000000	00000013	addi	x0,x0,0	  x0:0x00000000
       15155000	      1514	80000230	00000013	addi	x0,x0,0	  x0:0x00000000
       15165000	      1515	80000234	ff5ff26f	jal	x4,80000234	  x4=0x80000234
       15175000	      1516	00000000	00000013	addi	x0,x0,0	  x0:0x00000000
       15185000	      1517	80000224	00000013	addi	x0,x0,0	  x0:0x00000000
       15195000	      1518	80000228	018000ef	jal	x1,80000228	  x1=0x80000228
       15205000	      1519	00000000	00000013	addi	x0,x0,0	  x0:0x00000000
       15215000	      1520	8000023c	00000013	addi	x0,x0,0	  x0:0x00000000
       15225000	      1521	80000240	030000ef	jal	x1,80000240	  x1=0x80000240
       15235000	      1522	00000000	00000013	addi	x0,x0,0	  x0:0x00000000
       15245000	      1523	8000026c	00000013	addi	x0,x0,0	  x0:0x00000000
       15255000	      1524	80000270	f27e6d13	ori	x26,x28,-217	 x28:0x00000001 x26=0xffffff27
       15265000	      1525	80000274	01000a6f	jal	x20,80000274	 x20=0x80000274
       15275000	      1526	00000000	00000013	addi	x0,x0,0	  x0:0x00000000
       15285000	      1527	80000280	00000013	addi	x0,x0,0	  x0:0x00000000
       15295000	      1528	80000284	020000ef	jal	x1,80000284	  x1=0x80000284
       15305000	      1529	00000000	00000013	addi	x0,x0,0	  x0:0x00000000
       15315000	      1530	800002a0	00000013	addi	x0,x0,0	  x0:0x00000000
       15325000	      1531	800002a4	fd5ff0ef	jal	x1,800002a4	  x1=0x800002a4
       15335000	      1532	00000000	00000013	addi	x0,x0,0	  x0:0x00000000
       15345000	      1533	80000274	00000013	addi	x0,x0,0	  x0:0x00000000
       15355000	      1534	80000278	03400b6f	jal	x22,80000278	 x22=0x80000278
       15365000	      1535	00000000	00000013	addi	x0,x0,0	  x0:0x00000000
       15375000	      1536	800002a8	00000013	addi	x0,x0,0	  x0:0x00000000
       15385000	      1537	800002ac	ffdfffef	jal	x31,800002ac	 x31=0x800002ac
       15395000	      1538	00000000	00000013	addi	x0,x0,0	  x0:0x00000000
       15405000	      1539	800002a4	00000013	addi	x0,x0,0	  x0:0x00000000
       15415000	      1540	800002a8	ff1ff0ef	jal	x1,800002a8	  x1=0x800002a8
       15425000	      1541	00000000	00000013	addi	x0,x0,0	  x0:0x00000000
       15435000	      1542	80000294	00000013	addi	x0,x0,0	  x0:0x00000000
       15445000	      1543	80000298	fe9ff26f	jal	x4,80000298	  x4=0x80000298
       15455000	      1544	00000000	00000013	addi	x0,x0,0	  x0:0x00000000
       15465000	      1545	8000027c	00000013	addi	x0,x0,0	  x0:0x00000000
       15475000	      1546	80000280	0400036f	jal	x6,80000280	  x6=0x80000280
       15485000	      1547	00000000	00000013	addi	x0,x0,0	  x0:0x00000000
       15495000	      1548	800002bc	00000013	addi	x0,x0,0	  x0:0x00000000
       15505000	      1549	800002c0	fe1ff36f	jal	x6,800002c0	  x6=0x800002c0
       15515000	      1550	00000000	00000013	addi	x0,x0,0	  x0:0x00000000
       15525000	      1551	8000029c	00000013	addi	x0,x0,0	  x0:0x00000000
       15535000	      1552	800002a0	ffdff56f	jal	x10,800002a0	 x10=0x800002a0
       15545000	      1553	00000000	00000013	addi	x0,x0,0	  x0:0x00000000
       15555000	      1554	80000298	00000013	addi	x0,x0,0	  x0:0x00000000
       15565000	      1555	8000029c	ff5ff0ef	jal	x1,8000029c	  x1=0x8000029c
       15575000	      1556	00000000	00000013	addi	x0,x0,0	  x0:0x00000000
       15585000	      1557	8000028c	00000013	addi	x0,x0,0	  x0:0x00000000
       15595000	      1558	80000290	0280016f	jal	x2,80000290	  x2=0x80000290
       15605000	      1559	00000000	00000013	addi	x0,x0,0	  x0:0x00000000
       15615000	      1560	800002b4	00000013	addi	x0,x0,0	  x0:0x00000000
       15625000	      1561	800002b8	fd1ff26f	jal	x4,800002b8	  x4=0x800002b8
       15635000	      1562	00000000	00000013	addi	x0,x0,0	  x0:0x00000000
       15645000	      1563	80000284	00000013	addi	x0,x0,0	  x0:0x00000000
       15655000	      1564	80000288	004008ef	jal	x17,80000288	 x17=0x80000288
       15665000	      1565	00000000	00000013	addi	x0,x0,0	  x0:0x00000000
       15675000	      1566	80000288	00000013	addi	x0,x0,0	  x0:0x00000000
       15685000	      1567	8000028c	028000ef	jal	x1,8000028c	  x1=0x8000028c
       15695000	      1568	00000000	00000013	addi	x0,x0,0	  x0:0x00000000
       15705000	      1569	800002b0	00000013	addi	x0,x0,0	  x0:0x00000000
       15715000	      1570	800002b4	fc9ff5ef	jal	x11,800002b4	 x11=0x800002b4
       15725000	      1571	00000000	00000013	addi	x0,x0,0	  x0:0x00000000
       15735000	      1572	80000278	00000013	addi	x0,x0,0	  x0:0x00000000
       15745000	      1573	8000027c	01800c6f	jal	x24,8000027c	 x24=0x8000027c
       15755000	      1574	00000000	00000013	addi	x0,x0,0	  x0:0x00000000
       15765000	      1575	80000290	00000013	addi	x0,x0,0	  x0:0x00000000
       15775000	      1576	80000294	01c000ef	jal	x1,80000294	  x1=0x80000294
       15785000	      1577	00000000	00000013	addi	x0,x0,0	  x0:0x00000000
       15795000	      1578	800002ac	00000013	addi	x0,x0,0	  x0:0x00000000
       15805000	      1579	800002b0	00c001ef	jal	x3,800002b0	  x3=0x800002b0
       15815000	      1580	00000000	00000013	addi	x0,x0,0	  x0:0x00000000
       15825000	      1581	800002b8	00000013	addi	x0,x0,0	  x0:0x00000000
       15835000	      1582	800002bc	008001ef	jal	x3,800002bc	  x3=0x800002bc
       15845000	      1583	00000000	00000013	addi	x0,x0,0	  x0:0x00000000
       15855000	      1584	800002c0	00000013	addi	x0,x0,0	  x0:0x00000000
       15865000	      1585	800002c4	419b04b3	sub	x9,x22,x25	 x22:0x80000278 x25:0xffffffde  x9=0x8000029a
       15875000	      1586	800002c8	02c00a6f	jal	x20,800002c8	 x20=0x800002c8
       15885000	      1587	00000000	00000013	addi	x0,x0,0	  x0:0x00000000
       15895000	      1588	800002f0	00000013	addi	x0,x0,0	  x0:0x00000000
       15905000	      1589	800002f4	0100036f	jal	x6,800002f4	  x6=0x800002f4
       15915000	      1590	00000000	00000013	addi	x0,x0,0	  x0:0x00000000
       15925000	      1591	80000300	00000013	addi	x0,x0,0	  x0:0x00000000
       15935000	      1592	80000304	fddff0ef	jal	x1,80000304	  x1=0x80000304
       15945000	      1593	00000000	00000013	addi	x0,x0,0	  x0:0x00000000
       15955000	      1594	800002dc	00000013	addi	x0,x0,0	  x0:0x00000000
       15965000	      1595	800002e0	01800b6f	jal	x22,800002e0	 x22=0x800002e0
       15975000	      1596	00000000	00000013	addi	x0,x0,0	  x0:0x00000000
       15985000	      1597	800002f4	00000013	addi	x0,x0,0	  x0:0x00000000
       15995000	      1598	800002f8	ff5ff0ef	jal	x1,800002f8	  x1=0x800002f8
       16005000	      1599	00000000	00000013	addi	x0,x0,0	  x0:0x00000000
       16015000	      1600	800002e8	00000013	addi	x0,x0,0	  x0:0x00000000
       16025000	      1601	800002ec	ffdff0ef	jal	x1,800002ec	  x1=0x800002ec
       16035000	      1602	00000000	00000013	addi	x0,x0,0	  x0:0x00000000
       16045000	      1603	800002e4	00000013	addi	x0,x0,0	  x0:0x00000000
       16055000	      1604	800002e8	ff5ff0ef	jal	x1,800002e8	  x1=0x800002e8
       16065000	      1605	00000000	00000013	addi	x0,x0,0	  x0:0x00000000
       16075000	      1606	800002d8	00000013	addi	x0,x0,0	  x0:0x00000000
       16085000	      1607	800002dc	ff9ff0ef	jal	x1,800002dc	  x1=0x800002dc
       16095000	      1608	00000000	00000013	addi	x0,x0,0	  x0:0x00000000
       16105000	      1609	800002d0	00000013	addi	x0,x0,0	  x0:0x00000000
       16115000	      1610	800002d4	0280076f	jal	x14,800002d4	 x14=0x800002d4
       16125000	      1611	00000000	00000013	addi	x0,x0,0	  x0:0x00000000
       16135000	      1612	800002f8	00000013	addi	x0,x0,0	  x0:0x00000000
       16145000	      1613	800002fc	fddff0ef	jal	x1,800002fc	  x1=0x800002fc
       16155000	      1614	00000000	00000013	addi	x0,x0,0	  x0:0x00000000
       16165000	      1615	800002d4	00000013	addi	x0,x0,0	  x0:0x00000000
       16175000	      1616	800002d8	028000ef	jal	x1,800002d8	  x1=0x800002d8
       16185000	      1617	00000000	00000013	addi	x0,x0,0	  x0:0x00000000
       16195000	      1618	800002fc	00000013	addi	x0,x0,0	  x0:0x00000000
       16205000	      1619	80000300	ff1ff0ef	jal	x1,80000300	  x1=0x80000300
       16215000	      1620	00000000	00000013	addi	x0,x0,0	  x0:0x00000000
       16225000	      1621	800002ec	00000013	addi	x0,x0,0	  x0:0x00000000
       16235000	      1622	800002f0	fe1ff36f	jal	x6,800002f0	  x6=0x800002f0
       16245000	      1623	00000000	00000013	addi	x0,x0,0	  x0:0x00000000
       16255000	      1624	800002cc	00000013	addi	x0,x0,0	  x0:0x00000000
       16265000	      1625	800002d0	ffdffc6f	jal	x24,800002d0	 x24=0x800002d0
       16275000	      1626	00000000	00000013	addi	x0,x0,0	  x0:0x00000000
       16285000	      1627	800002c8	00000013	addi	x0,x0,0	  x0:0x00000000
       16295000	      1628	800002cc	018000ef	jal	x1,800002cc	  x1=0x800002cc
       16305000	      1629	00000000	00000013	addi	x0,x0,0	  x0:0x00000000
       16315000	      1630	800002e0	00000013	addi	x0,x0,0	  x0:0x00000000
       16325000	      1631	800002e4	024009ef	jal	x19,800002e4	 x19=0x800002e4
       16335000	      1632	00000000	00000013	addi	x0,x0,0	  x0:0x00000000
       16345000	      1633	80000304	00000013	addi	x0,x0,0	  x0:0x00000000
       16355000	      1634	80000308	41d70633	sub	x12,x14,x29	 x14:0x800002d4 x29:0x00009ee0 x12=0x7fff63f4
       16365000	      1635	8000030c	01c00a6f	jal	x20,8000030c	 x20=0x8000030c
       16375000	      1636	00000000	00000013	addi	x0,x0,0	  x0:0x00000000
       16385000	      1637	80000324	00000013	addi	x0,x0,0	  x0:0x00000000
       16395000	      1638	80000328	ffdff1ef	jal	x3,80000328	  x3=0x80000328
       16405000	      1639	00000000	00000013	addi	x0,x0,0	  x0:0x00000000
       16415000	      1640	80000320	00000013	addi	x0,x0,0	  x0:0x00000000
       16425000	      1641	80000324	01c000ef	jal	x1,80000324	  x1=0x80000324
       16435000	      1642	00000000	00000013	addi	x0,x0,0	  x0:0x00000000
       16445000	      1643	8000033c	00000013	addi	x0,x0,0	  x0:0x00000000
       16455000	      1644	80000340	fe1ff0ef	jal	x1,80000340	  x1=0x80000340
       16465000	      1645	00000000	00000013	addi	x0,x0,0	  x0:0x00000000
       16475000	      1646	8000031c	00000013	addi	x0,x0,0	  x0:0x00000000
       16485000	      1647	80000320	ffdff0ef	jal	x1,80000320	  x1=0x80000320
       16495000	      1648	00000000	00000013	addi	x0,x0,0	  x0:0x00000000
       16505000	      1649	80000318	00000013	addi	x0,x0,0	  x0:0x00000000
       16515000	      1650	8000031c	010000ef	jal	x1,8000031c	  x1=0x8000031c
       16525000	      1651	00000000	00000013	addi	x0,x0,0	  x0:0x00000000
       16535000	      1652	80000328	00000013	addi	x0,x0,0	  x0:0x00000000
       16545000	      1653	8000032c	00c000ef	jal	x1,8000032c	  x1=0x8000032c
       16555000	      1654	00000000	00000013	addi	x0,x0,0	  x0:0x00000000
       16565000	      1655	80000334	00000013	addi	x0,x0,0	  x0:0x00000000
       16575000	      1656	80000338	fddff0ef	jal	x1,80000338	  x1=0x80000338
       16585000	      1657	00000000	00000013	addi	x0,x0,0	  x0:0x00000000
       16595000	      1658	80000310	00000013	addi	x0,x0,0	  x0:0x00000000
       16605000	      1659	80000314	004000ef	jal	x1,80000314	  x1=0x80000314
       16615000	      1660	00000000	00000013	addi	x0,x0,0	  x0:0x00000000
       16625000	      1661	80000314	00000013	addi	x0,x0,0	  x0:0x00000000
       16635000	      1662	80000318	0240016f	jal	x2,80000318	  x2=0x80000318
       16645000	      1663	00000000	00000013	addi	x0,x0,0	  x0:0x00000000
       16655000	      1664	80000338	00000013	addi	x0,x0,0	  x0:0x00000000
       16665000	      1665	8000033c	ff9ff0ef	jal	x1,8000033c	  x1=0x8000033c
       16675000	      1666	00000000	00000013	addi	x0,x0,0	  x0:0x00000000
       16685000	      1667	80000330	00000013	addi	x0,x0,0	  x0:0x00000000
       16695000	      1668	80000334	ffdff36f	jal	x6,80000334	  x6=0x80000334
       16705000	      1669	00000000	00000013	addi	x0,x0,0	  x0:0x00000000
       16715000	      1670	8000032c	00000013	addi	x0,x0,0	  x0:0x00000000
       16725000	      1671	80000330	fe1ff26f	jal	x4,80000330	  x4=0x80000330
       16735000	      1672	00000000	00000013	addi	x0,x0,0	  x0:0x00000000
       16745000	      1673	8000030c	00000013	addi	x0,x0,0	  x0:0x00000000
       16755000	      1674	80000310	034007ef	jal	x15,80000310	 x15=0x80000310
       16765000	      1675	00000000	00000013	addi	x0,x0,0	  x0:0x00000000
       16775000	      1676	80000340	00000013	addi	x0,x0,0	  x0:0x00000000
       16785000	      1677	80000344	01920233	add	x4,x4,x25	  x4:0x80000330 x25:0xffffffde  x4=0x8000030e
       16795000	      1678	80000348	04000a6f	jal	x20,80000348	 x20=0x80000348
       16805000	      1679	00000000	00000013	addi	x0,x0,0	  x0:0x00000000
       16815000	      1680	80000384	00000013	addi	x0,x0,0	  x0:0x00000000
       16825000	      1681	80000388	fc9ff0ef	jal	x1,80000388	  x1=0x80000388
       16835000	      1682	00000000	00000013	addi	x0,x0,0	  x0:0x00000000
       16845000	      1683	8000034c	00000013	addi	x0,x0,0	  x0:0x00000000
       16855000	      1684	80000350	00c000ef	jal	x1,80000350	  x1=0x80000350
       16865000	      1685	00000000	00000013	addi	x0,x0,0	  x0:0x00000000
       16875000	      1686	80000358	00000013	addi	x0,x0,0	  x0:0x00000000
       16885000	      1687	8000035c	030000ef	jal	x1,8000035c	  x1=0x8000035c
       16895000	      1688	00000000	00000013	addi	x0,x0,0	  x0:0x00000000
       16905000	      1689	80000388	00000013	addi	x0,x0,0	  x0:0x00000000
       16915000	      1690	8000038c	004000ef	jal	x1,8000038c	  x1=0x8000038c
       16925000	      1691	00000000	00000013	addi	x0,x0,0	  x0:0x00000000
       16935000	      1692	8000038c	00000013	addi	x0,x0,0	  x0:0x00000000
       16945000	      1693	80000390	fe9ff36f	jal	x6,80000390	  x6=0x80000390
       16955000	      1694	00000000	00000013	addi	x0,x0,0	  x0:0x00000000
       16965000	      1695	80000374	00000013	addi	x0,x0,0	  x0:0x00000000
       16975000	      1696	80000378	00c00fef	jal	x31,80000378	 x31=0x80000378
       16985000	      1697	00000000	00000013	addi	x0,x0,0	  x0:0x00000000
       16995000	      1698	80000380	00000013	addi	x0,x0,0	  x0:0x00000000
       17005000	      1699	80000384	ff1ff46f	jal	x8,80000384	  x8=0x80000384
       17015000	      1700	00000000	00000013	addi	x0,x0,0	  x0:0x00000000
       17025000	      1701	80000370	00000013	addi	x0,x0,0	  x0:0x00000000
       17035000	      1702	80000374	ff1ff0ef	jal	x1,80000374	  x1=0x80000374
       17045000	      1703	00000000	00000013	addi	x0,x0,0	  x0:0x00000000
       17055000	      1704	80000360	00000013	addi	x0,x0,0	  x0:0x00000000
       17065000	      1705	80000364	030000ef	jal	x1,80000364	  x1=0x80000364
       17075000	      1706	00000000	00000013	addi	x0,x0,0	  x0:0x00000000
       17085000	      1707	80000390	00000013	addi	x0,x0,0	  x0:0x00000000
       17095000	      1708	80000394	fe9ff0ef	jal	x1,80000394	  x1=0x80000394
       17105000	      1709	00000000	00000013	addi	x0,x0,0	  x0:0x00000000
       17115000	      1710	80000378	00000013	addi	x0,x0,0	  x0:0x00000000
       17125000	      1711	8000037c	fe5ff16f	jal	x2,8000037c	  x2=0x8000037c
       17135000	      1712	00000000	00000013	addi	x0,x0,0	  x0:0x00000000
       17145000	      1713	8000035c	00000013	addi	x0,x0,0	  x0:0x00000000
       17155000	      1714	80000360	fedff36f	jal	x6,80000360	  x6=0x80000360
       17165000	      1715	00000000	00000013	addi	x0,x0,0	  x0:0x00000000
       17175000	      1716	80000348	00000013	addi	x0,x0,0	  x0:0x00000000
       17185000	      1717	8000034c	008000ef	jal	x1,8000034c	  x1=0x8000034c
       17195000	      1718	00000000	00000013	addi	x0,x0,0	  x0:0x00000000
       17205000	      1719	80000350	00000013	addi	x0,x0,0	  x0:0x00000000
       17215000	      1720	80000354	004000ef	jal	x1,80000354	  x1=0x80000354
       17225000	      1721	00000000	00000013	addi	x0,x0,0	  x0:0x00000000
       17235000	      1722	80000354	00000013	addi	x0,x0,0	  x0:0x00000000
       17245000	      1723	80000358	0100016f	jal	x2,80000358	  x2=0x80000358
       17255000	      1724	00000000	00000013	addi	x0,x0,0	  x0:0x00000000
       17265000	      1725	80000364	00000013	addi	x0,x0,0	  x0:0x00000000
       17275000	      1726	80000368	01800d6f	jal	x26,80000368	 x26=0x80000368
       17285000	      1727	00000000	00000013	addi	x0,x0,0	  x0:0x00000000
       17295000	      1728	8000037c	00000013	addi	x0,x0,0	  x0:0x00000000
       17305000	      1729	80000380	ff1ff0ef	jal	x1,80000380	  x1=0x80000380
       17315000	      1730	00000000	00000013	addi	x0,x0,0	  x0:0x00000000
       17325000	      1731	8000036c	00000013	addi	x0,x0,0	  x0:0x00000000
       17335000	      1732	80000370	ffdff1ef	jal	x3,80000370	  x3=0x80000370
       17345000	      1733	00000000	00000013	addi	x0,x0,0	  x0:0x00000000
       17355000	      1734	80000368	00000013	addi	x0,x0,0	  x0:0x00000000
       17365000	      1735	8000036c	02c0036f	jal	x6,8000036c	  x6=0x8000036c
       17375000	      1736	00000000	00000013	addi	x0,x0,0	  x0:0x00000000
       17385000	      1737	80000394	00000013	addi	x0,x0,0	  x0:0x00000000
       17395000	      1738	80000398	000c1ab3	sll	x21,x24,x0	 x24:0x800002d0  x0:0x00000000 x21=0x800002d0
       17405000	      1739	8000039c	00800a6f	jal	x20,8000039c	 x20=0x8000039c
       17415000	      1740	00000000	00000013	addi	x0,x0,0	  x0:0x00000000
       17425000	      1741	800003a0	00000013	addi	x0,x0,0	  x0:0x00000000
       17435000	      1742	800003a4	008000ef	jal	x1,800003a4	  x1=0x800003a4
       17445000	      1743	00000000	00000013	addi	x0,x0,0	  x0:0x00000000
       17455000	      1744	800003a8	00000013	addi	x0,x0,0	  x0:0x00000000
       17465000	      1745	800003ac	008000ef	jal	x1,800003ac	  x1=0x800003ac
       17475000	      1746	00000000	00000013	addi	x0,x0,0	  x0:0x00000000
       17485000	      1747	800003b0	00000013	addi	x0,x0,0	  x0:0x00000000
       17495000	      1748	800003b4	01c000ef	jal	x1,800003b4	  x1=0x800003b4
       17505000	      1749	00000000	00000013	addi	x0,x0,0	  x0:0x00000000
       17515000	      1750	800003cc	00000013	addi	x0,x0,0	  x0:0x00000000
       17525000	      1751	800003d0	fd1ff0ef	jal	x1,800003d0	  x1=0x800003d0
       17535000	      1752	00000000	00000013	addi	x0,x0,0	  x0:0x00000000
       17545000	      1753	8000039c	00000013	addi	x0,x0,0	  x0:0x00000000
       17555000	      1754	800003a0	0200016f	jal	x2,800003a0	  x2=0x800003a0
       17565000	      1755	00000000	00000013	addi	x0,x0,0	  x0:0x00000000
       17575000	      1756	800003bc	00000013	addi	x0,x0,0	  x0:0x00000000
       17585000	      1757	800003c0	ff9ff0ef	jal	x1,800003c0	  x1=0x800003c0
       17595000	      1758	00000000	00000013	addi	x0,x0,0	  x0:0x00000000
       17605000	      1759	800003b4	00000013	addi	x0,x0,0	  x0:0x00000000
       17615000	      1760	800003b8	ff1ff0ef	jal	x1,800003b8	  x1=0x800003b8
       17625000	      1761	00000000	00000013	addi	x0,x0,0	  x0:0x00000000
       17635000	      1762	800003a4	00000013	addi	x0,x0,0	  x0:0x00000000
       17645000	      1763	800003a8	00800d6f	jal	x26,800003a8	 x26=0x800003a8
       17655000	      1764	00000000	00000013	addi	x0,x0,0	  x0:0x00000000
       17665000	      1765	800003ac	00000013	addi	x0,x0,0	  x0:0x00000000
       17675000	      1766	800003b0	014000ef	jal	x1,800003b0	  x1=0x800003b0
       17685000	      1767	00000000	00000013	addi	x0,x0,0	  x0:0x00000000
       17695000	      1768	800003c0	00000013	addi	x0,x0,0	  x0:0x00000000
       17705000	      1769	800003c4	0100016f	jal	x2,800003c4	  x2=0x800003c4
       17715000	      1770	00000000	00000013	addi	x0,x0,0	  x0:0x00000000
       17725000	      1771	800003d0	00000013	addi	x0,x0,0	  x0:0x00000000
       17735000	      1772	800003d4	fe9ff0ef	jal	x1,800003d4	  x1=0x800003d4
       17745000	      1773	00000000	00000013	addi	x0,x0,0	  x0:0x00000000
       17755000	      1774	800003b8	00000013	addi	x0,x0,0	  x0:0x00000000
       17765000	      1775	800003bc	0100016f	jal	x2,800003bc	  x2=0x800003bc
       17775000	      1776	00000000	00000013	addi	x0,x0,0	  x0:0x00000000
       17785000	      1777	800003c8	00000013	addi	x0,x0,0	  x0:0x00000000
       17795000	      1778	800003cc	ffdff0ef	jal	x1,800003cc	  x1=0x800003cc
       17805000	      1779	00000000	00000013	addi	x0,x0,0	  x0:0x00000000
       17815000	      1780	800003c4	00000013	addi	x0,x0,0	  x0:0x00000000
       17825000	      1781	800003c8	0100036f	jal	x6,800003c8	  x6=0x800003c8
       17835000	      1782	00000000	00000013	addi	x0,x0,0	  x0:0x00000000
       17845000	      1783	800003d4	00000013	addi	x0,x0,0	  x0:0x00000000
       17855000	      1784	800003d8	77be7f13	andi	x30,x28,1915	 x28:0x00000001 x30=0x00000001
       17865000	      1785	800003dc	00400a6f	jal	x20,800003dc	 x20=0x800003dc
       17875000	      1786	00000000	00000013	addi	x0,x0,0	  x0:0x00000000
       17885000	      1787	800003dc	00000013	addi	x0,x0,0	  x0:0x00000000
       17895000	      1788	800003e0	008000ef	jal	x1,800003e0	  x1=0x800003e0
       17905000	      1789	00000000	00000013	addi	x0,x0,0	  x0:0x00000000
       17915000	      1790	800003e4	00000013	addi	x0,x0,0	  x0:0x00000000
       17925000	      1791	800003e8	ffdff16f	jal	x2,800003e8	  x2=0x800003e8
       17935000	      1792	00000000	00000013	addi	x0,x0,0	  x0:0x00000000
       17945000	      1793	800003e0	00000013	addi	x0,x0,0	  x0:0x00000000
       17955000	      1794	800003e4	014000ef	jal	x1,800003e4	  x1=0x800003e4
       17965000	      1795	00000000	00000013	addi	x0,x0,0	  x0:0x00000000
       17975000	      1796	800003f4	00000013	addi	x0,x0,0	  x0:0x00000000
       17985000	      1797	800003f8	ff9ff0ef	jal	x1,800003f8	  x1=0x800003f8
       17995000	      1798	00000000	00000013	addi	x0,x0,0	  x0:0x00000000
       18005000	      1799	800003ec	00000013	addi	x0,x0,0	  x0:0x00000000
       18015000	      1800	800003f0	01000c6f	jal	x24,800003f0	 x24=0x800003f0
       18025000	      1801	00000000	00000013	addi	x0,x0,0	  x0:0x00000000
       18035000	      1802	800003fc	00000013	addi	x0,x0,0	  x0:0x00000000
       18045000	      1803	80000400	010000ef	jal	x1,80000400	  x1=0x80000400
       18055000	      1804	00000000	00000013	addi	x0,x0,0	  x0:0x00000000
       18065000	      1805	8000040c	00000013	addi	x0,x0,0	  x0:0x00000000
       18075000	      1806	80000410	0040036f	jal	x6,80000410	  x6=0x80000410
       18085000	      1807	00000000	00000013	addi	x0,x0,0	  x0:0x00000000
       18095000	      1808	80000410	00000013	addi	x0,x0,0	  x0:0x00000000
       18105000	      1809	80000414	ff1ffbef	jal	x23,80000414	 x23=0x80000414
       18115000	      1810	00000000	00000013	addi	x0,x0,0	  x0:0x00000000
       18125000	      1811	80000400	00000013	addi	x0,x0,0	  x0:0x00000000
       18135000	      1812	80000404	020005ef	jal	x11,80000404	 x11=0x80000404
       18145000	      1813	00000000	00000013	addi	x0,x0,0	  x0:0x00000000
       18155000	      1814	80000420	00000013	addi	x0,x0,0	  x0:0x00000000
       18165000	      1815	80000424	fe9ff36f	jal	x6,80000424	  x6=0x80000424
       18175000	      1816	00000000	00000013	addi	x0,x0,0	  x0:0x00000000
       18185000	      1817	80000408	00000013	addi	x0,x0,0	  x0:0x00000000
       18195000	      1818	8000040c	014000ef	jal	x1,8000040c	  x1=0x8000040c
       18205000	      1819	00000000	00000013	addi	x0,x0,0	  x0:0x00000000
       18215000	      1820	8000041c	00000013	addi	x0,x0,0	  x0:0x00000000
       18225000	      1821	80000420	ff9ff0ef	jal	x1,80000420	  x1=0x80000420
       18235000	      1822	00000000	00000013	addi	x0,x0,0	  x0:0x00000000
       18245000	      1823	80000414	00000013	addi	x0,x0,0	  x0:0x00000000
       18255000	      1824	80000418	ff1ffdef	jal	x27,80000418	 x27=0x80000418
       18265000	      1825	00000000	00000013	addi	x0,x0,0	  x0:0x00000000
       18275000	      1826	80000404	00000013	addi	x0,x0,0	  x0:0x00000000
       18285000	      1827	80000408	fedff0ef	jal	x1,80000408	  x1=0x80000408
       18295000	      1828	00000000	00000013	addi	x0,x0,0	  x0:0x00000000
       18305000	      1829	800003f0	00000013	addi	x0,x0,0	  x0:0x00000000
       18315000	      1830	800003f4	008000ef	jal	x1,800003f4	  x1=0x800003f4
       18325000	      1831	00000000	00000013	addi	x0,x0,0	  x0:0x00000000
       18335000	      1832	800003f8	00000013	addi	x0,x0,0	  x0:0x00000000
       18345000	      1833	800003fc	030000ef	jal	x1,800003fc	  x1=0x800003fc
       18355000	      1834	00000000	00000013	addi	x0,x0,0	  x0:0x00000000
       18365000	      1835	80000428	00000013	addi	x0,x0,0	  x0:0x00000000
       18375000	      1836	8000042c	ff1ff0ef	jal	x1,8000042c	  x1=0x8000042c
       18385000	      1837	00000000	00000013	addi	x0,x0,0	  x0:0x00000000
       18395000	      1838	80000418	00000013	addi	x0,x0,0	  x0:0x00000000
       18405000	      1839	8000041c	00c000ef	jal	x1,8000041c	  x1=0x8000041c
       18415000	      1840	00000000	00000013	addi	x0,x0,0	  x0:0x00000000
       18425000	      1841	80000424	00000013	addi	x0,x0,0	  x0:0x00000000
       18435000	      1842	80000428	fc5ff36f	jal	x6,80000428	  x6=0x80000428
       18445000	      1843	00000000	00000013	addi	x0,x0,0	  x0:0x00000000
       18455000	      1844	800003e8	00000013	addi	x0,x0,0	  x0:0x00000000
       18465000	      1845	800003ec	044000ef	jal	x1,800003ec	  x1=0x800003ec
       18475000	      1846	00000000	00000013	addi	x0,x0,0	  x0:0x00000000
       18485000	      1847	8000042c	00000013	addi	x0,x0,0	  x0:0x00000000
       18495000	      1848	80000430	2ceb4013	xori	x0,x22,718	 x22:0x800002e0
       18505000	      1849	80000434	02400a6f	jal	x20,80000434	 x20=0x80000434
       18515000	      1850	00000000	00000013	addi	x0,x0,0	  x0:0x00000000
       18525000	      1851	80000454	00000013	addi	x0,x0,0	  x0:0x00000000
       18535000	      1852	80000458	008000ef	jal	x1,80000458	  x1=0x80000458
       18545000	      1853	00000000	00000013	addi	x0,x0,0	  x0:0x00000000
       18555000	      1854	8000045c	00000013	addi	x0,x0,0	  x0:0x00000000
       18565000	      1855	80000460	fd9ff0ef	jal	x1,80000460	  x1=0x80000460
       18575000	      1856	00000000	00000013	addi	x0,x0,0	  x0:0x00000000
       18585000	      1857	80000434	00000013	addi	x0,x0,0	  x0:0x00000000
       18595000	      1858	80000438	0040096f	jal	x18,80000438	 x18=0x80000438
       18605000	      1859	00000000	00000013	addi	x0,x0,0	  x0:0x00000000
       18615000	      1860	80000438	00000013	addi	x0,x0,0	  x0:0x00000000
       18625000	      1861	8000043c	004001ef	jal	x3,8000043c	  x3=0x8000043c
       18635000	      1862	00000000	00000013	addi	x0,x0,0	  x0:0x00000000
       18645000	      1863	8000043c	00000013	addi	x0,x0,0	  x0:0x00000000
       18655000	      1864	80000440	024000ef	jal	x1,80000440	  x1=0x80000440
       18665000	      1865	00000000	00000013	addi	x0,x0,0	  x0:0x00000000
       18675000	      1866	80000460	00000013	addi	x0,x0,0	  x0:0x00000000
       18685000	      1867	80000464	ff1ff0ef	jal	x1,80000464	  x1=0x80000464
       18695000	      1868	00000000	00000013	addi	x0,x0,0	  x0:0x00000000
       18705000	      1869	80000450	00000013	addi	x0,x0,0	  x0:0x00000000
       18715000	      1870	80000454	01c001ef	jal	x3,80000454	  x3=0x80000454
       18725000	      1871	00000000	00000013	addi	x0,x0,0	  x0:0x00000000
       18735000	      1872	8000046c	00000013	addi	x0,x0,0	  x0:0x00000000
       18745000	      1873	80000470	004000ef	jal	x1,80000470	  x1=0x80000470
       18755000	      1874	00000000	00000013	addi	x0,x0,0	  x0:0x00000000
       18765000	      1875	80000470	00000013	addi	x0,x0,0	  x0:0x00000000
       18775000	      1876	80000474	fd5ff0ef	jal	x1,80000474	  x1=0x80000474
       18785000	      1877	00000000	00000013	addi	x0,x0,0	  x0:0x00000000
       18795000	      1878	80000444	00000013	addi	x0,x0,0	  x0:0x00000000
       18805000	      1879	80000448	004000ef	jal	x1,80000448	  x1=0x80000448
       18815000	      1880	00000000	00000013	addi	x0,x0,0	  x0:0x00000000
       18825000	      1881	80000448	00000013	addi	x0,x0,0	  x0:0x00000000
       18835000	      1882	8000044c	004000ef	jal	x1,8000044c	  x1=0x8000044c
       18845000	      1883	00000000	00000013	addi	x0,x0,0	  x0:0x00000000
       18855000	      1884	8000044c	00000013	addi	x0,x0,0	  x0:0x00000000
       18865000	      1885	80000450	01c0016f	jal	x2,80000450	  x2=0x80000450
       18875000	      1886	00000000	00000013	addi	x0,x0,0	  x0:0x00000000
       18885000	      1887	80000468	00000013	addi	x0,x0,0	  x0:0x00000000
       18895000	      1888	8000046c	ff1ff0ef	jal	x1,8000046c	  x1=0x8000046c
       18905000	      1889	00000000	00000013	addi	x0,x0,0	  x0:0x00000000
       18915000	      1890	80000458	00000013	addi	x0,x0,0	  x0:0x00000000
       18925000	      1891	8000045c	fe9ff36f	jal	x6,8000045c	  x6=0x8000045c
       18935000	      1892	00000000	00000013	addi	x0,x0,0	  x0:0x00000000
       18945000	      1893	80000440	00000013	addi	x0,x0,0	  x0:0x00000000
       18955000	      1894	80000444	024000ef	jal	x1,80000444	  x1=0x80000444
       18965000	      1895	00000000	00000013	addi	x0,x0,0	  x0:0x00000000
       18975000	      1896	80000464	00000013	addi	x0,x0,0	  x0:0x00000000
       18985000	      1897	80000468	010009ef	jal	x19,80000468	 x19=0x80000468
       18995000	      1898	00000000	00000013	addi	x0,x0,0	  x0:0x00000000
       19005000	      1899	80000474	00000013	addi	x0,x0,0	  x0:0x00000000
       19015000	      1900	80000478	016a2633	slt	x12,x20,x22	 x20:0x80000434 x22:0x800002e0 x12=0x00000000
       19025000	      1901	8000047c	01c00a6f	jal	x20,8000047c	 x20=0x8000047c
       19035000	      1902	00000000	00000013	addi	x0,x0,0	  x0:0x00000000
       19045000	      1903	80000494	00000013	addi	x0,x0,0	  x0:0x00000000
       19055000	      1904	80000498	010000ef	jal	x1,80000498	  x1=0x80000498
       19065000	      1905	00000000	00000013	addi	x0,x0,0	  x0:0x00000000
       19075000	      1906	800004a4	00000013	addi	x0,x0,0	  x0:0x00000000
       19085000	      1907	800004a8	ffdff0ef	jal	x1,800004a8	  x1=0x800004a8
       19095000	      1908	00000000	00000013	addi	x0,x0,0	  x0:0x00000000
       19105000	      1909	800004a0	00000013	addi	x0,x0,0	  x0:0x00000000
       19115000	      1910	800004a4	04c0036f	jal	x6,800004a4	  x6=0x800004a4
       19125000	      1911	00000000	00000013	addi	x0,x0,0	  x0:0x00000000
       19135000	      1912	800004ec	00000013	addi	x0,x0,0	  x0:0x00000000
       19145000	      1913	800004f0	fd5ff0ef	jal	x1,800004f0	  x1=0x800004f0
       19155000	      1914	00000000	00000013	addi	x0,x0,0	  x0:0x00000000
       19165000	      1915	800004c0	00000013	addi	x0,x0,0	  x0:0x00000000
       19175000	      1916	800004c4	fe9ffa6f	jal	x20,800004c4	 x20=0x800004c4
       19185000	      1917	00000000	00000013	addi	x0,x0,0	  x0:0x00000000
       19195000	      1918	800004a8	00000013	addi	x0,x0,0	  x0:0x00000000
       19205000	      1919	800004ac	008000ef	jal	x1,800004ac	  x1=0x800004ac
       19215000	      1920	00000000	00000013	addi	x0,x0,0	  x0:0x00000000
       19225000	      1921	800004b0	00000013	addi	x0,x0,0	  x0:0x00000000
       19235000	      1922	800004b4	00c000ef	jal	x1,800004b4	  x1=0x800004b4
       19245000	      1923	00000000	00000013	addi	x0,x0,0	  x0:0x00000000
       19255000	      1924	800004bc	00000013	addi	x0,x0,0	  x0:0x00000000
       19265000	      1925	800004c0	010000ef	jal	x1,800004c0	  x1=0x800004c0
       19275000	      1926	00000000	00000013	addi	x0,x0,0	  x0:0x00000000
       19285000	      1927	800004cc	00000013	addi	x0,x0,0	  x0:0x00000000
       19295000	      1928	800004d0	ff9ff0ef	jal	x1,800004d0	  x1=0x800004d0
       19305000	      1929	00000000	00000013	addi	x0,x0,0	  x0:0x00000000
       19315000	      1930	800004c4	00000013	addi	x0,x0,0	  x0:0x00000000
       19325000	      1931	800004c8	020000ef	jal	x1,800004c8	  x1=0x800004c8
       19335000	      1932	00000000	00000013	addi	x0,x0,0	  x0:0x00000000
       19345000	      1933	800004e4	00000013	addi	x0,x0,0	  x0:0x00000000
       19355000	      1934	800004e8	fc9ff0ef	jal	x1,800004e8	  x1=0x800004e8
       19365000	      1935	00000000	00000013	addi	x0,x0,0	  x0:0x00000000
       19375000	      1936	800004ac	00000013	addi	x0,x0,0	  x0:0x00000000
       19385000	      1937	800004b0	03c000ef	jal	x1,800004b0	  x1=0x800004b0
       19395000	      1938	00000000	00000013	addi	x0,x0,0	  x0:0x00000000
       19405000	      1939	800004e8	00000013	addi	x0,x0,0	  x0:0x00000000
       19415000	      1940	800004ec	fe9ff0ef	jal	x1,800004ec	  x1=0x800004ec
       19425000	      1941	00000000	00000013	addi	x0,x0,0	  x0:0x00000000
       19435000	      1942	800004d0	00000013	addi	x0,x0,0	  x0:0x00000000
       19445000	      1943	800004d4	00c000ef	jal	x1,800004d4	  x1=0x800004d4
       19455000	      1944	00000000	00000013	addi	x0,x0,0	  x0:0x00000000
       19465000	      1945	800004dc	00000013	addi	x0,x0,0	  x0:0x00000000
       19475000	      1946	800004e0	fb1ff96f	jal	x18,800004e0	 x18=0x800004e0
       19485000	      1947	00000000	00000013	addi	x0,x0,0	  x0:0x00000000
       19495000	      1948	8000048c	00000013	addi	x0,x0,0	  x0:0x00000000
       19505000	      1949	80000490	ff9ff16f	jal	x2,80000490	  x2=0x80000490
       19515000	      1950	00000000	00000013	addi	x0,x0,0	  x0:0x00000000
       19525000	      1951	80000484	00000013	addi	x0,x0,0	  x0:0x00000000
       19535000	      1952	80000488	034000ef	jal	x1,80000488	  x1=0x80000488
       19545000	      1953	00000000	00000013	addi	x0,x0,0	  x0:0x00000000
       19555000	      1954	800004b8	00000013	addi	x0,x0,0	  x0:0x00000000
       19565000	      1955	800004bc	01c0036f	jal	x6,800004bc	  x6=0x800004bc
       19575000	      1956	00000000	00000013	addi	x0,x0,0	  x0:0x00000000
       19585000	      1957	800004d4	00000013	addi	x0,x0,0	  x0:0x00000000
       19595000	      1958	800004d8	fadff0ef	jal	x1,800004d8	  x1=0x800004d8
       19605000	      1959	00000000	00000013	addi	x0,x0,0	  x0:0x00000000
       19615000	      1960	80000480	00000013	addi	x0,x0,0	  x0:0x00000000
       19625000	      1961	80000484	034000ef	jal	x1,80000484	  x1=0x80000484
       19635000	      1962	00000000	00000013	addi	x0,x0,0	  x0:0x00000000
       19645000	      1963	800004b4	00000013	addi	x0,x0,0	  x0:0x00000000
       19655000	      1964	800004b8	02c00fef	jal	x31,800004b8	 x31=0x800004b8
       19665000	      1965	00000000	00000013	addi	x0,x0,0	  x0:0x00000000
       19675000	      1966	800004e0	00000013	addi	x0,x0,0	  x0:0x00000000
       19685000	      1967	800004e4	fb1ff36f	jal	x6,800004e4	  x6=0x800004e4
       19695000	      1968	00000000	00000013	addi	x0,x0,0	  x0:0x00000000
       19705000	      1969	80000490	00000013	addi	x0,x0,0	  x0:0x00000000
       19715000	      1970	80000494	fedfff6f	jal	x30,80000494	 x30=0x80000494
       19725000	      1971	00000000	00000013	addi	x0,x0,0	  x0:0x00000000
       19735000	      1972	8000047c	00000013	addi	x0,x0,0	  x0:0x00000000
       19745000	      1973	80000480	07400def	jal	x27,80000480	 x27=0x80000480
       19755000	      1974	00000000	00000013	addi	x0,x0,0	  x0:0x00000000
       19765000	      1975	800004f0	00000013	addi	x0,x0,0	  x0:0x00000000
       19775000	      1976	800004f4	fa9ff0ef	jal	x1,800004f4	  x1=0x800004f4
       19785000	      1977	00000000	00000013	addi	x0,x0,0	  x0:0x00000000
       19795000	      1978	80000498	00000013	addi	x0,x0,0	  x0:0x00000000
       19805000	      1979	8000049c	0400036f	jal	x6,8000049c	  x6=0x8000049c
       19815000	      1980	00000000	00000013	addi	x0,x0,0	  x0:0x00000000
       19825000	      1981	800004d8	00000013	addi	x0,x0,0	  x0:0x00000000
       19835000	      1982	800004dc	fb1ff0ef	jal	x1,800004dc	  x1=0x800004dc
       19845000	      1983	00000000	00000013	addi	x0,x0,0	  x0:0x00000000
       19855000	      1984	80000488	00000013	addi	x0,x0,0	  x0:0x00000000
       19865000	      1985	8000048c	0400036f	jal	x6,8000048c	  x6=0x8000048c
       19875000	      1986	00000000	00000013	addi	x0,x0,0	  x0:0x00000000
       19885000	      1987	800004c8	00000013	addi	x0,x0,0	  x0:0x00000000
       19895000	      1988	800004cc	fd5ff0ef	jal	x1,800004cc	  x1=0x800004cc
       19905000	      1989	00000000	00000013	addi	x0,x0,0	  x0:0x00000000
       19915000	      1990	8000049c	00000013	addi	x0,x0,0	  x0:0x00000000
       19925000	      1991	800004a0	0580036f	jal	x6,800004a0	  x6=0x800004a0
       19935000	      1992	00000000	00000013	addi	x0,x0,0	  x0:0x00000000
       19945000	      1993	800004f4	00000013	addi	x0,x0,0	  x0:0x00000000
       19955000	      1994	800004f8	0038fbb3	and	x23,x17,x3	 x17:0x80000288  x3:0x80000454 x23=0x80000000
       19965000	      1995	800004fc	03400a6f	jal	x20,800004fc	 x20=0x800004fc
       19975000	      1996	00000000	00000013	addi	x0,x0,0	  x0:0x00000000
       19985000	      1997	8000052c	00000013	addi	x0,x0,0	  x0:0x00000000
       19995000	      1998	80000530	024000ef	jal	x1,80000530	  x1=0x80000530
       20005000	      1999	00000000	00000013	addi	x0,x0,0	  x0:0x00000000
       20015000	      2000	80000550	00000013	addi	x0,x0,0	  x0:0x00000000
       20025000	      2001	80000554	fedff0ef	jal	x1,80000554	  x1=0x80000554
       20035000	      2002	00000000	00000013	addi	x0,x0,0	  x0:0x00000000
       20045000	      2003	8000053c	00000013	addi	x0,x0,0	  x0:0x00000000
       20055000	      2004	80000540	fd5ff4ef	jal	x9,80000540	  x9=0x80000540
       20065000	      2005	00000000	00000013	addi	x0,x0,0	  x0:0x00000000
       20075000	      2006	80000510	00000013	addi	x0,x0,0	  x0:0x00000000
       20085000	      2007	80000514	00c000ef	jal	x1,80000514	  x1=0x80000514
       20095000	      2008	00000000	00000013	addi	x0,x0,0	  x0:0x00000000
       20105000	      2009	8000051c	00000013	addi	x0,x0,0	  x0:0x00000000
       20115000	      2010	80000520	0380046f	jal	x8,80000520	  x8=0x80000520
       20125000	      2011	00000000	00000013	addi	x0,x0,0	  x0:0x00000000
       20135000	      2012	80000554	00000013	addi	x0,x0,0	  x0:0x00000000
       20145000	      2013	80000558	ff5ff0ef	jal	x1,80000558	  x1=0x80000558
       20155000	      2014	00000000	00000013	addi	x0,x0,0	  x0:0x00000000
       20165000	      2015	80000548	00000013	addi	x0,x0,0	  x0:0x00000000
       20175000	      2016	8000054c	fcdff0ef	jal	x1,8000054c	  x1=0x8000054c
       20185000	      2017	00000000	00000013	addi	x0,x0,0	  x0:0x00000000
       20195000	      2018	80000514	00000013	addi	x0,x0,0	  x0:0x00000000
       20205000	      2019	80000518	00c000ef	jal	x1,80000518	  x1=0x80000518
       20215000	      2020	00000000	00000013	addi	x0,x0,0	  x0:0x00000000
       20225000	      2021	80000520	00000013	addi	x0,x0,0	  x0:0x00000000
       20235000	      2022	80000524	fe5ff0ef	jal	x1,80000524	  x1=0x80000524
       20245000	      2023	00000000	00000013	addi	x0,x0,0	  x0:0x00000000
       20255000	      2024	80000504	00000013	addi	x0,x0,0	  x0:0x00000000
       20265000	      2025	80000508	ffdff0ef	jal	x1,80000508	  x1=0x80000508
       20275000	      2026	00000000	00000013	addi	x0,x0,0	  x0:0x00000000
       20285000	      2027	80000500	00000013	addi	x0,x0,0	  x0:0x00000000
       20295000	      2028	80000504	008000ef	jal	x1,80000504	  x1=0x80000504
       20305000	      2029	00000000	00000013	addi	x0,x0,0	  x0:0x00000000
       20315000	      2030	80000508	00000013	addi	x0,x0,0	  x0:0x00000000
       20325000	      2031	8000050c	0300016f	jal	x2,8000050c	  x2=0x8000050c
       20335000	      2032	00000000	00000013	addi	x0,x0,0	  x0:0x00000000
       20345000	      2033	80000538	00000013	addi	x0,x0,0	  x0:0x00000000
       20355000	      2034	8000053c	ff1ff46f	jal	x8,8000053c	  x8=0x8000053c
       20365000	      2035	00000000	00000013	addi	x0,x0,0	  x0:0x00000000
       20375000	      2036	80000528	00000013	addi	x0,x0,0	  x0:0x00000000
       20385000	      2037	8000052c	ffdff0ef	jal	x1,8000052c	  x1=0x8000052c
       20395000	      2038	00000000	00000013	addi	x0,x0,0	  x0:0x00000000
       20405000	      2039	80000524	00000013	addi	x0,x0,0	  x0:0x00000000
       20415000	      2040	80000528	010008ef	jal	x17,80000528	 x17=0x80000528
       20425000	      2041	00000000	00000013	addi	x0,x0,0	  x0:0x00000000
       20435000	      2042	80000534	00000013	addi	x0,x0,0	  x0:0x00000000
       20445000	      2043	80000538	0100016f	jal	x2,80000538	  x2=0x80000538
       20455000	      2044	00000000	00000013	addi	x0,x0,0	  x0:0x00000000
       20465000	      2045	80000544	00000013	addi	x0,x0,0	  x0:0x00000000
       20475000	      2046	80000548	fb9ff0ef	jal	x1,80000548	  x1=0x80000548
       20485000	      2047	00000000	00000013	addi	x0,x0,0	  x0:0x00000000
       20495000	      2048	800004fc	00000013	addi	x0,x0,0	  x0:0x00000000
       20505000	      2049	80000500	034000ef	jal	x1,80000500	  x1=0x80000500
       20515000	      2050	00000000	00000013	addi	x0,x0,0	  x0:0x00000000
       20525000	      2051	80000530	00000013	addi	x0,x0,0	  x0:0x00000000
       20535000	      2052	80000534	fddff0ef	jal	x1,80000534	  x1=0x80000534
       20545000	      2053	00000000	00000013	addi	x0,x0,0	  x0:0x00000000
       20555000	      2054	8000050c	00000013	addi	x0,x0,0	  x0:0x00000000
       20565000	      2055	80000510	03400eef	jal	x29,80000510	 x29=0x80000510
       20575000	      2056	00000000	00000013	addi	x0,x0,0	  x0:0x00000000
       20585000	      2057	80000540	00000013	addi	x0,x0,0	  x0:0x00000000
       20595000	      2058	80000544	fd9ff0ef	jal	x1,80000544	  x1=0x80000544
       20605000	      2059	00000000	00000013	addi	x0,x0,0	  x0:0x00000000
       20615000	      2060	80000518	00000013	addi	x0,x0,0	  x0:0x00000000
       20625000	      2061	8000051c	034000ef	jal	x1,8000051c	  x1=0x8000051c
       20635000	      2062	00000000	00000013	addi	x0,x0,0	  x0:0x00000000
       20645000	      2063	8000054c	00000013	addi	x0,x0,0	  x0:0x00000000
       20655000	      2064	80000550	00c000ef	jal	x1,80000550	  x1=0x80000550
       20665000	      2065	00000000	00000013	addi	x0,x0,0	  x0:0x00000000
       20675000	      2066	80000558	00000013	addi	x0,x0,0	  x0:0x00000000
       20685000	      2067	8000055c	0084af33	slt	x30,x9,x8	  x9:0x80000540  x8:0x8000053c x30=0x00000000
       20695000	      2068	80000560	02800a6f	jal	x20,80000560	 x20=0x80000560
       20705000	      2069	00000000	00000013	addi	x0,x0,0	  x0:0x00000000
       20715000	      2070	80000584	00000013	addi	x0,x0,0	  x0:0x00000000
       20725000	      2071	80000588	004000ef	jal	x1,80000588	  x1=0x80000588
       20735000	      2072	00000000	00000013	addi	x0,x0,0	  x0:0x00000000
       20745000	      2073	80000588	00000013	addi	x0,x0,0	  x0:0x00000000
       20755000	      2074	8000058c	fe9ff0ef	jal	x1,8000058c	  x1=0x8000058c
       20765000	      2075	00000000	00000013	addi	x0,x0,0	  x0:0x00000000
       20775000	      2076	80000570	00000013	addi	x0,x0,0	  x0:0x00000000
       20785000	      2077	80000574	0200036f	jal	x6,80000574	  x6=0x80000574
       20795000	      2078	00000000	00000013	addi	x0,x0,0	  x0:0x00000000
       20805000	      2079	80000590	00000013	addi	x0,x0,0	  x0:0x00000000
       20815000	      2080	80000594	fddff5ef	jal	x11,80000594	 x11=0x80000594
       20825000	      2081	00000000	00000013	addi	x0,x0,0	  x0:0x00000000
       20835000	      2082	8000056c	00000013	addi	x0,x0,0	  x0:0x00000000
       20845000	      2083	80000570	038001ef	jal	x3,80000570	  x3=0x80000570
       20855000	      2084	00000000	00000013	addi	x0,x0,0	  x0:0x00000000
       20865000	      2085	800005a4	00000013	addi	x0,x0,0	  x0:0x00000000
       20875000	      2086	800005a8	fc5ff0ef	jal	x1,800005a8	  x1=0x800005a8
       20885000	      2087	00000000	00000013	addi	x0,x0,0	  x0:0x00000000
       20895000	      2088	80000568	00000013	addi	x0,x0,0	  x0:0x00000000
       20905000	      2089	8000056c	03800d6f	jal	x26,8000056c	 x26=0x8000056c
       20915000	      2090	00000000	00000013	addi	x0,x0,0	  x0:0x00000000
       20925000	      2091	800005a0	00000013	addi	x0,x0,0	  x0:0x00000000
       20935000	      2092	800005a4	fe1ff0ef	jal	x1,800005a4	  x1=0x800005a4
       20945000	      2093	00000000	00000013	addi	x0,x0,0	  x0:0x00000000
       20955000	      2094	80000580	00000013	addi	x0,x0,0	  x0:0x00000000
       20965000	      2095	80000584	00c0056f	jal	x10,80000584	 x10=0x80000584
       20975000	      2096	00000000	00000013	addi	x0,x0,0	  x0:0x00000000
       20985000	      2097	8000058c	00000013	addi	x0,x0,0	  x0:0x00000000
       20995000	      2098	80000590	fd5ff36f	jal	x6,80000590	  x6=0x80000590
       21005000	      2099	00000000	00000013	addi	x0,x0,0	  x0:0x00000000
       21015000	      2100	80000560	00000013	addi	x0,x0,0	  x0:0x00000000
       21025000	      2101	80000564	03c0036f	jal	x6,80000564	  x6=0x80000564
       21035000	      2102	00000000	00000013	addi	x0,x0,0	  x0:0x00000000
       21045000	      2103	8000059c	00000013	addi	x0,x0,0	  x0:0x00000000
       21055000	      2104	800005a0	ff9ff0ef	jal	x1,800005a0	  x1=0x800005a0
       21065000	      2105	00000000	00000013	addi	x0,x0,0	  x0:0x00000000
       21075000	      2106	80000594	00000013	addi	x0,x0,0	  x0:0x00000000
       21085000	      2107	80000598	fd1ff0ef	jal	x1,80000598	  x1=0x80000598
       21095000	      2108	00000000	00000013	addi	x0,x0,0	  x0:0x00000000
       21105000	      2109	80000564	00000013	addi	x0,x0,0	  x0:0x00000000
       21115000	      2110	80000568	014000ef	jal	x1,80000568	  x1=0x80000568
       21125000	      2111	00000000	00000013	addi	x0,x0,0	  x0:0x00000000
       21135000	      2112	80000578	00000013	addi	x0,x0,0	  x0:0x00000000
       21145000	      2113	8000057c	ffdff0ef	jal	x1,8000057c	  x1=0x8000057c
       21155000	      2114	00000000	00000013	addi	x0,x0,0	  x0:0x00000000
       21165000	      2115	80000574	00000013	addi	x0,x0,0	  x0:0x00000000
       21175000	      2116	80000578	0080026f	jal	x4,80000578	  x4=0x80000578
       21185000	      2117	00000000	00000013	addi	x0,x0,0	  x0:0x00000000
       21195000	      2118	8000057c	00000013	addi	x0,x0,0	  x0:0x00000000
       21205000	      2119	80000580	01c000ef	jal	x1,80000580	  x1=0x80000580
       21215000	      2120	00000000	00000013	addi	x0,x0,0	  x0:0x00000000
       21225000	      2121	80000598	00000013	addi	x0,x0,0	  x0:0x00000000
       21235000	      2122	8000059c	010000ef	jal	x1,8000059c	  x1=0x8000059c
       21245000	      2123	00000000	00000013	addi	x0,x0,0	  x0:0x00000000
       21255000	      2124	800005a8	00000013	addi	x0,x0,0	  x0:0x00000000
       21265000	      2125	800005ac	3a5fc513	xori	x10,x31,933	 x31:0x800004b8 x10=0x8000071d
       21275000	      2126	800005b0	01400a6f	jal	x20,800005b0	 x20=0x800005b0
       21285000	      2127	00000000	00000013	addi	x0,x0,0	  x0:0x00000000
       21295000	      2128	800005c0	00000013	addi	x0,x0,0	  x0:0x00000000
       21305000	      2129	800005c4	03c0036f	jal	x6,800005c4	  x6=0x800005c4
       21315000	      2130	00000000	00000013	addi	x0,x0,0	  x0:0x00000000
       21325000	      2131	800005fc	00000013	addi	x0,x0,0	  x0:0x00000000
       21335000	      2132	80000600	ff5ff0ef	jal	x1,80000600	  x1=0x80000600
       21345000	      2133	00000000	00000013	addi	x0,x0,0	  x0:0x00000000
       21355000	      2134	800005f0	00000013	addi	x0,x0,0	  x0:0x00000000
       21365000	      2135	800005f4	0180036f	jal	x6,800005f4	  x6=0x800005f4
       21375000	      2136	00000000	00000013	addi	x0,x0,0	  x0:0x00000000
       21385000	      2137	80000608	00000013	addi	x0,x0,0	  x0:0x00000000
       21395000	      2138	8000060c	fd5ff0ef	jal	x1,8000060c	  x1=0x8000060c
       21405000	      2139	00000000	00000013	addi	x0,x0,0	  x0:0x00000000
       21415000	      2140	800005dc	00000013	addi	x0,x0,0	  x0:0x00000000
       21425000	      2141	800005e0	044000ef	jal	x1,800005e0	  x1=0x800005e0
       21435000	      2142	00000000	00000013	addi	x0,x0,0	  x0:0x00000000
       21445000	      2143	80000620	00000013	addi	x0,x0,0	  x0:0x00000000
       21455000	      2144	80000624	fedff0ef	jal	x1,80000624	  x1=0x80000624
       21465000	      2145	00000000	00000013	addi	x0,x0,0	  x0:0x00000000
       21475000	      2146	8000060c	00000013	addi	x0,x0,0	  x0:0x00000000
       21485000	      2147	80000610	fc5ff36f	jal	x6,80000610	  x6=0x80000610
       21495000	      2148	00000000	00000013	addi	x0,x0,0	  x0:0x00000000
       21505000	      2149	800005d0	00000013	addi	x0,x0,0	  x0:0x00000000
       21515000	      2150	800005d4	01c0086f	jal	x16,800005d4	 x16=0x800005d4
       21525000	      2151	00000000	00000013	addi	x0,x0,0	  x0:0x00000000
       21535000	      2152	800005ec	00000013	addi	x0,x0,0	  x0:0x00000000
       21545000	      2153	800005f0	fe9fff6f	jal	x30,800005f0	 x30=0x800005f0
       21555000	      2154	00000000	00000013	addi	x0,x0,0	  x0:0x00000000
       21565000	      2155	800005d4	00000013	addi	x0,x0,0	  x0:0x00000000
       21575000	      2156	800005d8	0300026f	jal	x4,800005d8	  x4=0x800005d8
       21585000	      2157	00000000	00000013	addi	x0,x0,0	  x0:0x00000000
       21595000	      2158	80000604	00000013	addi	x0,x0,0	  x0:0x00000000
       21605000	      2159	80000608	020000ef	jal	x1,80000608	  x1=0x80000608
       21615000	      2160	00000000	00000013	addi	x0,x0,0	  x0:0x00000000
       21625000	      2161	80000624	00000013	addi	x0,x0,0	  x0:0x00000000
       21635000	      2162	80000628	f8dff0ef	jal	x1,80000628	  x1=0x80000628
       21645000	      2163	00000000	00000013	addi	x0,x0,0	  x0:0x00000000
       21655000	      2164	800005b0	00000013	addi	x0,x0,0	  x0:0x00000000
       21665000	      2165	800005b4	00c0056f	jal	x10,800005b4	 x10=0x800005b4
       21675000	      2166	00000000	00000013	addi	x0,x0,0	  x0:0x00000000
       21685000	      2167	800005bc	00000013	addi	x0,x0,0	  x0:0x00000000
       21695000	      2168	800005c0	ffdff0ef	jal	x1,800005c0	  x1=0x800005c0
       21705000	      2169	00000000	00000013	addi	x0,x0,0	  x0:0x00000000
       21715000	      2170	800005b8	00000013	addi	x0,x0,0	  x0:0x00000000
       21725000	      2171	800005bc	064000ef	jal	x1,800005bc	  x1=0x800005bc
       21735000	      2172	00000000	00000013	addi	x0,x0,0	  x0:0x00000000
       21745000	      2173	8000061c	00000013	addi	x0,x0,0	  x0:0x00000000
       21755000	      2174	80000620	ff5ff0ef	jal	x1,80000620	  x1=0x80000620
       21765000	      2175	00000000	00000013	addi	x0,x0,0	  x0:0x00000000
       21775000	      2176	80000610	00000013	addi	x0,x0,0	  x0:0x00000000
       21785000	      2177	80000614	ff1ff0ef	jal	x1,80000614	  x1=0x80000614
       21795000	      2178	00000000	00000013	addi	x0,x0,0	  x0:0x00000000
       21805000	      2179	80000600	00000013	addi	x0,x0,0	  x0:0x00000000
       21815000	      2180	80000604	fc5fffef	jal	x31,80000604	 x31=0x80000604
       21825000	      2181	00000000	00000013	addi	x0,x0,0	  x0:0x00000000
       21835000	      2182	800005c4	00000013	addi	x0,x0,0	  x0:0x00000000
       21845000	      2183	800005c8	0340016f	jal	x2,800005c8	  x2=0x800005c8
       21855000	      2184	00000000	00000013	addi	x0,x0,0	  x0:0x00000000
       21865000	      2185	800005f8	00000013	addi	x0,x0,0	  x0:0x00000000
       21875000	      2186	800005fc	fd1ff0ef	jal	x1,800005fc	  x1=0x800005fc
       21885000	      2187	00000000	00000013	addi	x0,x0,0	  x0:0x00000000
       21895000	      2188	800005c8	00000013	addi	x0,x0,0	  x0:0x00000000
       21905000	      2189	800005cc	0180036f	jal	x6,800005cc	  x6=0x800005cc
       21915000	      2190	00000000	00000013	addi	x0,x0,0	  x0:0x00000000
       21925000	      2191	800005e0	00000013	addi	x0,x0,0	  x0:0x00000000
       21935000	      2192	800005e4	fd5ff36f	jal	x6,800005e4	  x6=0x800005e4
       21945000	      2193	00000000	00000013	addi	x0,x0,0	  x0:0x00000000
       21955000	      2194	800005b4	00000013	addi	x0,x0,0	  x0:0x00000000
       21965000	      2195	800005b8	024000ef	jal	x1,800005b8	  x1=0x800005b8
       21975000	      2196	00000000	00000013	addi	x0,x0,0	  x0:0x00000000
       21985000	      2197	800005d8	00000013	addi	x0,x0,0	  x0:0x00000000
       21995000	      2198	800005dc	ff5ff0ef	jal	x1,800005dc	  x1=0x800005dc
       22005000	      2199	00000000	00000013	addi	x0,x0,0	  x0:0x00000000
       22015000	      2200	800005cc	00000013	addi	x0,x0,0	  x0:0x00000000
       22025000	      2201	800005d0	04c000ef	jal	x1,800005d0	  x1=0x800005d0
       22035000	      2202	00000000	00000013	addi	x0,x0,0	  x0:0x00000000
       22045000	      2203	80000618	00000013	addi	x0,x0,0	  x0:0x00000000
       22055000	      2204	8000061c	fddff0ef	jal	x1,8000061c	  x1=0x8000061c
       22065000	      2205	00000000	00000013	addi	x0,x0,0	  x0:0x00000000
       22075000	      2206	800005f4	00000013	addi	x0,x0,0	  x0:0x00000000
       22085000	      2207	800005f8	020000ef	jal	x1,800005f8	  x1=0x800005f8
       22095000	      2208	00000000	00000013	addi	x0,x0,0	  x0:0x00000000
       22105000	      2209	80000614	00000013	addi	x0,x0,0	  x0:0x00000000
       22115000	      2210	80000618	fd1ff36f	jal	x6,80000618	  x6=0x80000618
       22125000	      2211	00000000	00000013	addi	x0,x0,0	  x0:0x00000000
       22135000	      2212	800005e4	00000013	addi	x0,x0,0	  x0:0x00000000
       22145000	      2213	800005e8	0040086f	jal	x16,800005e8	 x16=0x800005e8
       22155000	      2214	00000000	00000013	addi	x0,x0,0	  x0:0x00000000
       22165000	      2215	800005e8	00000013	addi	x0,x0,0	  x0:0x00000000
       22175000	      2216	800005ec	040000ef	jal	x1,800005ec	  x1=0x800005ec
       22185000	      2217	00000000	00000013	addi	x0,x0,0	  x0:0x00000000
       22195000	      2218	80000628	00000013	addi	x0,x0,0	  x0:0x00000000
       22205000	      2219	8000062c	406800b3	sub	x1,x16,x6	 x16:0x800005e8  x6:0x80000618  x1=0xffffffd0
       22215000	      2220	80000630	02400a6f	jal	x20,80000630	 x20=0x80000630
       22225000	      2221	00000000	00000013	addi	x0,x0,0	  x0:0x00000000
       22235000	      2222	80000650	00000013	addi	x0,x0,0	  x0:0x00000000
       22245000	      2223	80000654	fe1ff0ef	jal	x1,80000654	  x1=0x80000654
       22255000	      2224	00000000	00000013	addi	x0,x0,0	  x0:0x00000000
       22265000	      2225	80000630	00000013	addi	x0,x0,0	  x0:0x00000000
       22275000	      2226	80000634	018000ef	jal	x1,80000634	  x1=0x80000634
       22285000	      2227	00000000	00000013	addi	x0,x0,0	  x0:0x00000000
       22295000	      2228	80000648	00000013	addi	x0,x0,0	  x0:0x00000000
       22305000	      2229	8000064c	ff1ff0ef	jal	x1,8000064c	  x1=0x8000064c
       22315000	      2230	00000000	00000013	addi	x0,x0,0	  x0:0x00000000
       22325000	      2231	80000638	00000013	addi	x0,x0,0	  x0:0x00000000
       22335000	      2232	8000063c	008000ef	jal	x1,8000063c	  x1=0x8000063c
       22345000	      2233	00000000	00000013	addi	x0,x0,0	  x0:0x00000000
       22355000	      2234	80000640	00000013	addi	x0,x0,0	  x0:0x00000000
       22365000	      2235	80000644	014000ef	jal	x1,80000644	  x1=0x80000644
       22375000	      2236	00000000	00000013	addi	x0,x0,0	  x0:0x00000000
       22385000	      2237	80000654	00000013	addi	x0,x0,0	  x0:0x00000000
       22395000	      2238	80000658	fe9ff0ef	jal	x1,80000658	  x1=0x80000658
       22405000	      2239	00000000	00000013	addi	x0,x0,0	  x0:0x00000000
       22415000	      2240	8000063c	00000013	addi	x0,x0,0	  x0:0x00000000
       22425000	      2241	80000640	0200036f	jal	x6,80000640	  x6=0x80000640
       22435000	      2242	00000000	00000013	addi	x0,x0,0	  x0:0x00000000
       22445000	      2243	8000065c	00000013	addi	x0,x0,0	  x0:0x00000000
       22455000	      2244	80000660	00800aef	jal	x21,80000660	 x21=0x80000660
       22465000	      2245	00000000	00000013	addi	x0,x0,0	  x0:0x00000000
       22475000	      2246	80000664	00000013	addi	x0,x0,0	  x0:0x00000000
       22485000	      2247	80000668	ff5ff36f	jal	x6,80000668	  x6=0x80000668
       22495000	      2248	00000000	00000013	addi	x0,x0,0	  x0:0x00000000
       22505000	      2249	80000658	00000013	addi	x0,x0,0	  x0:0x00000000
       22515000	      2250	8000065c	ff5ff0ef	jal	x1,8000065c	  x1=0x8000065c
       22525000	      2251	00000000	00000013	addi	x0,x0,0	  x0:0x00000000
       22535000	      2252	8000064c	00000013	addi	x0,x0,0	  x0:0x00000000
       22545000	      2253	80000650	fe9ff0ef	jal	x1,80000650	  x1=0x80000650
       22555000	      2254	00000000	00000013	addi	x0,x0,0	  x0:0x00000000
       22565000	      2255	80000634	00000013	addi	x0,x0,0	  x0:0x00000000
       22575000	      2256	80000638	02c000ef	jal	x1,80000638	  x1=0x80000638
       22585000	      2257	00000000	00000013	addi	x0,x0,0	  x0:0x00000000
       22595000	      2258	80000660	00000013	addi	x0,x0,0	  x0:0x00000000
       22605000	      2259	80000664	fe5ff0ef	jal	x1,80000664	  x1=0x80000664
       22615000	      2260	00000000	00000013	addi	x0,x0,0	  x0:0x00000000
       22625000	      2261	80000644	00000013	addi	x0,x0,0	  x0:0x00000000
       22635000	      2262	80000648	0240036f	jal	x6,80000648	  x6=0x80000648
       22645000	      2263	00000000	00000013	addi	x0,x0,0	  x0:0x00000000
       22655000	      2264	80000668	00000013	addi	x0,x0,0	  x0:0x00000000
       22665000	      2265	8000066c	411b8ab3	sub	x21,x23,x17	 x23:0x80000000 x17:0x80000528 x21=0xfffffad8
       22675000	      2266	80000670	00800a6f	jal	x20,80000670	 x20=0x80000670
       22685000	      2267	00000000	00000013	addi	x0,x0,0	  x0:0x00000000
       22695000	      2268	80000674	00000013	addi	x0,x0,0	  x0:0x00000000
       22705000	      2269	80000678	ffdff46f	jal	x8,80000678	  x8=0x80000678
       22715000	      2270	00000000	00000013	addi	x0,x0,0	  x0:0x00000000
       22725000	      2271	80000670	00000013	addi	x0,x0,0	  x0:0x00000000
       22735000	      2272	80000674	0540036f	jal	x6,80000674	  x6=0x80000674
       22745000	      2273	00000000	00000013	addi	x0,x0,0	  x0:0x00000000
       22755000	      2274	800006c4	00000013	addi	x0,x0,0	  x0:0x00000000
       22765000	      2275	800006c8	fe1ff0ef	jal	x1,800006c8	  x1=0x800006c8
       22775000	      2276	00000000	00000013	addi	x0,x0,0	  x0:0x00000000
       22785000	      2277	800006a4	00000013	addi	x0,x0,0	  x0:0x00000000
       22795000	      2278	800006a8	fe1ff36f	jal	x6,800006a8	  x6=0x800006a8
       22805000	      2279	00000000	00000013	addi	x0,x0,0	  x0:0x00000000
       22815000	      2280	80000684	00000013	addi	x0,x0,0	  x0:0x00000000
       22825000	      2281	80000688	02c000ef	jal	x1,80000688	  x1=0x80000688
       22835000	      2282	00000000	00000013	addi	x0,x0,0	  x0:0x00000000
       22845000	      2283	800006b0	00000013	addi	x0,x0,0	  x0:0x00000000
       22855000	      2284	800006b4	010000ef	jal	x1,800006b4	  x1=0x800006b4
       22865000	      2285	00000000	00000013	addi	x0,x0,0	  x0:0x00000000
       22875000	      2286	800006c0	00000013	addi	x0,x0,0	  x0:0x00000000
       22885000	      2287	800006c4	fd9ff8ef	jal	x17,800006c4	 x17=0x800006c4
       22895000	      2288	00000000	00000013	addi	x0,x0,0	  x0:0x00000000
       22905000	      2289	80000698	00000013	addi	x0,x0,0	  x0:0x00000000
       22915000	      2290	8000069c	01c000ef	jal	x1,8000069c	  x1=0x8000069c
       22925000	      2291	00000000	00000013	addi	x0,x0,0	  x0:0x00000000
       22935000	      2292	800006b4	00000013	addi	x0,x0,0	  x0:0x00000000
       22945000	      2293	800006b8	01c0026f	jal	x4,800006b8	  x4=0x800006b8
       22955000	      2294	00000000	00000013	addi	x0,x0,0	  x0:0x00000000
       22965000	      2295	800006d0	00000013	addi	x0,x0,0	  x0:0x00000000
       22975000	      2296	800006d4	008000ef	jal	x1,800006d4	  x1=0x800006d4
       22985000	      2297	00000000	00000013	addi	x0,x0,0	  x0:0x00000000
       22995000	      2298	800006d8	00000013	addi	x0,x0,0	  x0:0x00000000
       23005000	      2299	800006dc	ff5ff0ef	jal	x1,800006dc	  x1=0x800006dc
       23015000	      2300	00000000	00000013	addi	x0,x0,0	  x0:0x00000000
       23025000	      2301	800006cc	00000013	addi	x0,x0,0	  x0:0x00000000
       23035000	      2302	800006d0	fb5ff0ef	jal	x1,800006d0	  x1=0x800006d0
       23045000	      2303	00000000	00000013	addi	x0,x0,0	  x0:0x00000000
       23055000	      2304	80000680	00000013	addi	x0,x0,0	  x0:0x00000000
       23065000	      2305	80000684	0280016f	jal	x2,80000684	  x2=0x80000684
       23075000	      2306	00000000	00000013	addi	x0,x0,0	  x0:0x00000000
       23085000	      2307	800006a8	00000013	addi	x0,x0,0	  x0:0x00000000
       23095000	      2308	800006ac	fe9ff0ef	jal	x1,800006ac	  x1=0x800006ac
       23105000	      2309	00000000	00000013	addi	x0,x0,0	  x0:0x00000000
       23115000	      2310	80000690	00000013	addi	x0,x0,0	  x0:0x00000000
       23125000	      2311	80000694	fedff0ef	jal	x1,80000694	  x1=0x80000694
       23135000	      2312	00000000	00000013	addi	x0,x0,0	  x0:0x00000000
       23145000	      2313	8000067c	00000013	addi	x0,x0,0	  x0:0x00000000
       23155000	      2314	80000680	01800c6f	jal	x24,80000680	 x24=0x80000680
       23165000	      2315	00000000	00000013	addi	x0,x0,0	  x0:0x00000000
       23175000	      2316	80000694	00000013	addi	x0,x0,0	  x0:0x00000000
       23185000	      2317	80000698	024000ef	jal	x1,80000698	  x1=0x80000698
       23195000	      2318	00000000	00000013	addi	x0,x0,0	  x0:0x00000000
       23205000	      2319	800006b8	00000013	addi	x0,x0,0	  x0:0x00000000
       23215000	      2320	800006bc	01c00d6f	jal	x26,800006bc	 x26=0x800006bc
       23225000	      2321	00000000	00000013	addi	x0,x0,0	  x0:0x00000000
       23235000	      2322	800006d4	00000013	addi	x0,x0,0	  x0:0x00000000
       23245000	      2323	800006d8	fc9ff16f	jal	x2,800006d8	  x2=0x800006d8
       23255000	      2324	00000000	00000013	addi	x0,x0,0	  x0:0x00000000
       23265000	      2325	8000069c	00000013	addi	x0,x0,0	  x0:0x00000000
       23275000	      2326	800006a0	0040036f	jal	x6,800006a0	  x6=0x800006a0
       23285000	      2327	00000000	00000013	addi	x0,x0,0	  x0:0x00000000
       23295000	      2328	800006a0	00000013	addi	x0,x0,0	  x0:0x00000000
       23305000	      2329	800006a4	01c000ef	jal	x1,800006a4	  x1=0x800006a4
       23315000	      2330	00000000	00000013	addi	x0,x0,0	  x0:0x00000000
       23325000	      2331	800006bc	00000013	addi	x0,x0,0	  x0:0x00000000
       23335000	      2332	800006c0	fcdff36f	jal	x6,800006c0	  x6=0x800006c0
       23345000	      2333	00000000	00000013	addi	x0,x0,0	  x0:0x00000000
       23355000	      2334	80000688	00000013	addi	x0,x0,0	  x0:0x00000000
       23365000	      2335	8000068c	ff1ff36f	jal	x6,8000068c	  x6=0x8000068c
       23375000	      2336	00000000	00000013	addi	x0,x0,0	  x0:0x00000000
       23385000	      2337	80000678	00000013	addi	x0,x0,0	  x0:0x00000000
       23395000	      2338	8000067c	06400b6f	jal	x22,8000067c	 x22=0x8000067c
       23405000	      2339	00000000	00000013	addi	x0,x0,0	  x0:0x00000000
       23415000	      2340	800006dc	00000013	addi	x0,x0,0	  x0:0x00000000
       23425000	      2341	800006e0	fb1ff0ef	jal	x1,800006e0	  x1=0x800006e0
       23435000	      2342	00000000	00000013	addi	x0,x0,0	  x0:0x00000000
       23445000	      2343	8000068c	00000013	addi	x0,x0,0	  x0:0x00000000
       23455000	      2344	80000690	020000ef	jal	x1,80000690	  x1=0x80000690
       23465000	      2345	00000000	00000013	addi	x0,x0,0	  x0:0x00000000
       23475000	      2346	800006ac	00000013	addi	x0,x0,0	  x0:0x00000000
       23485000	      2347	800006b0	01c000ef	jal	x1,800006b0	  x1=0x800006b0
       23495000	      2348	00000000	00000013	addi	x0,x0,0	  x0:0x00000000
       23505000	      2349	800006c8	00000013	addi	x0,x0,0	  x0:0x00000000
       23515000	      2350	800006cc	018000ef	jal	x1,800006cc	  x1=0x800006cc
       23525000	      2351	00000000	00000013	addi	x0,x0,0	  x0:0x00000000
       23535000	      2352	800006e0	00000013	addi	x0,x0,0	  x0:0x00000000
       23545000	      2353	800006e4	017fdcb3	srl	x25,x31,x23	 x31:0x80000604 x23:0x80000000 x25=0x80000604
       23555000	      2354	800006e8	03400a6f	jal	x20,800006e8	 x20=0x800006e8
       23565000	      2355	00000000	00000013	addi	x0,x0,0	  x0:0x00000000
       23575000	      2356	80000718	00000013	addi	x0,x0,0	  x0:0x00000000
       23585000	      2357	8000071c	ff9ff0ef	jal	x1,8000071c	  x1=0x8000071c
       23595000	      2358	00000000	00000013	addi	x0,x0,0	  x0:0x00000000
       23605000	      2359	80000710	00000013	addi	x0,x0,0	  x0:0x00000000
       23615000	      2360	80000714	00c00bef	jal	x23,80000714	 x23=0x80000714
       23625000	      2361	00000000	00000013	addi	x0,x0,0	  x0:0x00000000
       23635000	      2362	8000071c	00000013	addi	x0,x0,0	  x0:0x00000000
       23645000	      2363	80000720	fe1ff0ef	jal	x1,80000720	  x1=0x80000720
       23655000	      2364	00000000	00000013	addi	x0,x0,0	  x0:0x00000000
       23665000	      2365	800006fc	00000013	addi	x0,x0,0	  x0:0x00000000
       23675000	      2366	80000700	00c0086f	jal	x16,80000700	 x16=0x80000700
       23685000	      2367	00000000	00000013	addi	x0,x0,0	  x0:0x00000000
       23695000	      2368	80000708	00000013	addi	x0,x0,0	  x0:0x00000000
       23705000	      2369	8000070c	00c0036f	jal	x6,8000070c	  x6=0x8000070c
       23715000	      2370	00000000	00000013	addi	x0,x0,0	  x0:0x00000000
       23725000	      2371	80000714	00000013	addi	x0,x0,0	  x0:0x00000000
       23735000	      2372	80000718	fd9ff76f	jal	x14,80000718	 x14=0x80000718
       23745000	      2373	00000000	00000013	addi	x0,x0,0	  x0:0x00000000
       23755000	      2374	800006ec	00000013	addi	x0,x0,0	  x0:0x00000000
       23765000	      2375	800006f0	0040046f	jal	x8,800006f0	  x8=0x800006f0
       23775000	      2376	00000000	00000013	addi	x0,x0,0	  x0:0x00000000
       23785000	      2377	800006f0	00000013	addi	x0,x0,0	  x0:0x00000000
       23795000	      2378	800006f4	0140016f	jal	x2,800006f4	  x2=0x800006f4
       23805000	      2379	00000000	00000013	addi	x0,x0,0	  x0:0x00000000
       23815000	      2380	80000704	00000013	addi	x0,x0,0	  x0:0x00000000
       23825000	      2381	80000708	01c000ef	jal	x1,80000708	  x1=0x80000708
       23835000	      2382	00000000	00000013	addi	x0,x0,0	  x0:0x00000000
       23845000	      2383	80000720	00000013	addi	x0,x0,0	  x0:0x00000000
       23855000	      2384	80000724	fd9ff26f	jal	x4,80000724	  x4=0x80000724
       23865000	      2385	00000000	00000013	addi	x0,x0,0	  x0:0x00000000
       23875000	      2386	800006f8	00000013	addi	x0,x0,0	  x0:0x00000000
       23885000	      2387	800006fc	ff1ff36f	jal	x6,800006fc	  x6=0x800006fc
       23895000	      2388	00000000	00000013	addi	x0,x0,0	  x0:0x00000000
       23905000	      2389	800006e8	00000013	addi	x0,x0,0	  x0:0x00000000
       23915000	      2390	800006ec	024000ef	jal	x1,800006ec	  x1=0x800006ec
       23925000	      2391	00000000	00000013	addi	x0,x0,0	  x0:0x00000000
       23935000	      2392	8000070c	00000013	addi	x0,x0,0	  x0:0x00000000
       23945000	      2393	80000710	fe9ff0ef	jal	x1,80000710	  x1=0x80000710
       23955000	      2394	00000000	00000013	addi	x0,x0,0	  x0:0x00000000
       23965000	      2395	800006f4	00000013	addi	x0,x0,0	  x0:0x00000000
       23975000	      2396	800006f8	00c000ef	jal	x1,800006f8	  x1=0x800006f8
       23985000	      2397	00000000	00000013	addi	x0,x0,0	  x0:0x00000000
       23995000	      2398	80000700	00000013	addi	x0,x0,0	  x0:0x00000000
       24005000	      2399	80000704	024000ef	jal	x1,80000704	  x1=0x80000704
       24015000	      2400	00000000	00000013	addi	x0,x0,0	  x0:0x00000000
       24025000	      2401	80000724	00000013	addi	x0,x0,0	  x0:0x00000000
       24035000	      2402	80000728	006a7db3	and	x27,x20,x6	 x20:0x800006e8  x6:0x800006fc x27=0x800006e8
       24045000	      2403	8000072c	03c00a6f	jal	x20,8000072c	 x20=0x8000072c
       24055000	      2404	00000000	00000013	addi	x0,x0,0	  x0:0x00000000
       24065000	      2405	80000764	00000013	addi	x0,x0,0	  x0:0x00000000
       24075000	      2406	80000768	fd5ff0ef	jal	x1,80000768	  x1=0x80000768
       24085000	      2407	00000000	00000013	addi	x0,x0,0	  x0:0x00000000
       24095000	      2408	80000738	00000013	addi	x0,x0,0	  x0:0x00000000
       24105000	      2409	8000073c	030005ef	jal	x11,8000073c	 x11=0x8000073c
       24115000	      2410	00000000	00000013	addi	x0,x0,0	  x0:0x00000000
       24125000	      2411	80000768	00000013	addi	x0,x0,0	  x0:0x00000000
       24135000	      2412	8000076c	fd9ff66f	jal	x12,8000076c	 x12=0x8000076c
       24145000	      2413	00000000	00000013	addi	x0,x0,0	  x0:0x00000000
       24155000	      2414	80000740	00000013	addi	x0,x0,0	  x0:0x00000000
       24165000	      2415	80000744	014000ef	jal	x1,80000744	  x1=0x80000744
       24175000	      2416	00000000	00000013	addi	x0,x0,0	  x0:0x00000000
       24185000	      2417	80000754	00000013	addi	x0,x0,0	  x0:0x00000000
       24195000	      2418	80000758	ffdff0ef	jal	x1,80000758	  x1=0x80000758
       24205000	      2419	00000000	00000013	addi	x0,x0,0	  x0:0x00000000
       24215000	      2420	80000750	00000013	addi	x0,x0,0	  x0:0x00000000
       24225000	      2421	80000754	020000ef	jal	x1,80000754	  x1=0x80000754
       24235000	      2422	00000000	00000013	addi	x0,x0,0	  x0:0x00000000
       24245000	      2423	80000770	00000013	addi	x0,x0,0	  x0:0x00000000
       24255000	      2424	80000774	fd9ff0ef	jal	x1,80000774	  x1=0x80000774
       24265000	      2425	00000000	00000013	addi	x0,x0,0	  x0:0x00000000
       24275000	      2426	80000748	00000013	addi	x0,x0,0	  x0:0x00000000
       24285000	      2427	8000074c	010000ef	jal	x1,8000074c	  x1=0x8000074c
       24295000	      2428	00000000	00000013	addi	x0,x0,0	  x0:0x00000000
       24305000	      2429	80000758	00000013	addi	x0,x0,0	  x0:0x00000000
       24315000	      2430	8000075c	ff5ff1ef	jal	x3,8000075c	  x3=0x8000075c
       24325000	      2431	00000000	00000013	addi	x0,x0,0	  x0:0x00000000
       24335000	      2432	8000074c	00000013	addi	x0,x0,0	  x0:0x00000000
       24345000	      2433	80000750	010000ef	jal	x1,80000750	  x1=0x80000750
       24355000	      2434	00000000	00000013	addi	x0,x0,0	  x0:0x00000000
       24365000	      2435	8000075c	00000013	addi	x0,x0,0	  x0:0x00000000
       24375000	      2436	80000760	00400eef	jal	x29,80000760	 x29=0x80000760
       24385000	      2437	00000000	00000013	addi	x0,x0,0	  x0:0x00000000
       24395000	      2438	80000760	00000013	addi	x0,x0,0	  x0:0x00000000
       24405000	      2439	80000764	fe5ff96f	jal	x18,80000764	 x18=0x80000764
       24415000	      2440	00000000	00000013	addi	x0,x0,0	  x0:0x00000000
       24425000	      2441	80000744	00000013	addi	x0,x0,0	  x0:0x00000000
       24435000	      2442	80000748	034000ef	jal	x1,80000748	  x1=0x80000748
       24445000	      2443	00000000	00000013	addi	x0,x0,0	  x0:0x00000000
       24455000	      2444	80000778	00000013	addi	x0,x0,0	  x0:0x00000000
       24465000	      2445	8000077c	ffdff36f	jal	x6,8000077c	  x6=0x8000077c
       24475000	      2446	00000000	00000013	addi	x0,x0,0	  x0:0x00000000
       24485000	      2447	80000774	00000013	addi	x0,x0,0	  x0:0x00000000
       24495000	      2448	80000778	ff9ff16f	jal	x2,80000778	  x2=0x80000778
       24505000	      2449	00000000	00000013	addi	x0,x0,0	  x0:0x00000000
       24515000	      2450	8000076c	00000013	addi	x0,x0,0	  x0:0x00000000
       24525000	      2451	80000770	fc9ff0ef	jal	x1,80000770	  x1=0x80000770
       24535000	      2452	00000000	00000013	addi	x0,x0,0	  x0:0x00000000
       24545000	      2453	80000734	00000013	addi	x0,x0,0	  x0:0x00000000
       24555000	      2454	80000738	048000ef	jal	x1,80000738	  x1=0x80000738
       24565000	      2455	00000000	00000013	addi	x0,x0,0	  x0:0x00000000
       24575000	      2456	8000077c	00000013	addi	x0,x0,0	  x0:0x00000000
       24585000	      2457	80000780	fb5ff16f	jal	x2,80000780	  x2=0x80000780
       24595000	      2458	00000000	00000013	addi	x0,x0,0	  x0:0x00000000
       24605000	      2459	80000730	00000013	addi	x0,x0,0	  x0:0x00000000
       24615000	      2460	80000734	00c0026f	jal	x4,80000734	  x4=0x80000734
       24625000	      2461	00000000	00000013	addi	x0,x0,0	  x0:0x00000000
       24635000	      2462	8000073c	00000013	addi	x0,x0,0	  x0:0x00000000
       24645000	      2463	80000740	ff1ff36f	jal	x6,80000740	  x6=0x80000740
       24655000	      2464	00000000	00000013	addi	x0,x0,0	  x0:0x00000000
       24665000	      2465	8000072c	00000013	addi	x0,x0,0	  x0:0x00000000
       24675000	      2466	80000730	054000ef	jal	x1,80000730	  x1=0x80000730
       24685000	      2467	00000000	00000013	addi	x0,x0,0	  x0:0x00000000
       24695000	      2468	80000780	00000013	addi	x0,x0,0	  x0:0x00000000
       24705000	      2469	80000784	007b2ab3	slt	x21,x22,x7	 x22:0x8000067c  x7:0x80000230 x21=0x00000000
       24715000	      2470	80000788	01c00a6f	jal	x20,80000788	 x20=0x80000788
       24725000	      2471	00000000	00000013	addi	x0,x0,0	  x0:0x00000000
       24735000	      2472	800007a0	00000013	addi	x0,x0,0	  x0:0x00000000
       24745000	      2473	800007a4	014000ef	jal	x1,800007a4	  x1=0x800007a4
       24755000	      2474	00000000	00000013	addi	x0,x0,0	  x0:0x00000000
       24765000	      2475	800007b4	00000013	addi	x0,x0,0	  x0:0x00000000
       24775000	      2476	800007b8	018000ef	jal	x1,800007b8	  x1=0x800007b8
       24785000	      2477	00000000	00000013	addi	x0,x0,0	  x0:0x00000000
       24795000	      2478	800007cc	00000013	addi	x0,x0,0	  x0:0x00000000
       24805000	      2479	800007d0	ff1ffd6f	jal	x26,800007d0	 x26=0x800007d0
       24815000	      2480	00000000	00000013	addi	x0,x0,0	  x0:0x00000000
       24825000	      2481	800007bc	00000013	addi	x0,x0,0	  x0:0x00000000
       24835000	      2482	800007c0	008005ef	jal	x11,800007c0	 x11=0x800007c0
       24845000	      2483	00000000	00000013	addi	x0,x0,0	  x0:0x00000000
       24855000	      2484	800007c4	00000013	addi	x0,x0,0	  x0:0x00000000
       24865000	      2485	800007c8	fc5ffdef	jal	x27,800007c8	 x27=0x800007c8
       24875000	      2486	00000000	00000013	addi	x0,x0,0	  x0:0x00000000
       24885000	      2487	80000788	00000013	addi	x0,x0,0	  x0:0x00000000
       24895000	      2488	8000078c	00800bef	jal	x23,8000078c	 x23=0x8000078c
       24905000	      2489	00000000	00000013	addi	x0,x0,0	  x0:0x00000000
       24915000	      2490	80000790	00000013	addi	x0,x0,0	  x0:0x00000000
       24925000	      2491	80000794	ffdff36f	jal	x6,80000794	  x6=0x80000794
       24935000	      2492	00000000	00000013	addi	x0,x0,0	  x0:0x00000000
       24945000	      2493	8000078c	00000013	addi	x0,x0,0	  x0:0x00000000
       24955000	      2494	80000790	03c00def	jal	x27,80000790	 x27=0x80000790
       24965000	      2495	00000000	00000013	addi	x0,x0,0	  x0:0x00000000
       24975000	      2496	800007c8	00000013	addi	x0,x0,0	  x0:0x00000000
       24985000	      2497	800007cc	ff9ff1ef	jal	x3,800007cc	  x3=0x800007cc
       24995000	      2498	00000000	00000013	addi	x0,x0,0	  x0:0x00000000
       25005000	      2499	800007c0	00000013	addi	x0,x0,0	  x0:0x00000000
       25015000	      2500	800007c4	fddff36f	jal	x6,800007c4	  x6=0x800007c4
       25025000	      2501	00000000	00000013	addi	x0,x0,0	  x0:0x00000000
       25035000	      2502	8000079c	00000013	addi	x0,x0,0	  x0:0x00000000
       25045000	      2503	800007a0	ffdff0ef	jal	x1,800007a0	  x1=0x800007a0
       25055000	      2504	00000000	00000013	addi	x0,x0,0	  x0:0x00000000
       25065000	      2505	80000798	00000013	addi	x0,x0,0	  x0:0x00000000
       25075000	      2506	8000079c	00c001ef	jal	x3,8000079c	  x3=0x8000079c
       25085000	      2507	00000000	00000013	addi	x0,x0,0	  x0:0x00000000
       25095000	      2508	800007a4	00000013	addi	x0,x0,0	  x0:0x00000000
       25105000	      2509	800007a8	008000ef	jal	x1,800007a8	  x1=0x800007a8
       25115000	      2510	00000000	00000013	addi	x0,x0,0	  x0:0x00000000
       25125000	      2511	800007ac	00000013	addi	x0,x0,0	  x0:0x00000000
       25135000	      2512	800007b0	ffdff0ef	jal	x1,800007b0	  x1=0x800007b0
       25145000	      2513	00000000	00000013	addi	x0,x0,0	  x0:0x00000000
       25155000	      2514	800007a8	00000013	addi	x0,x0,0	  x0:0x00000000
       25165000	      2515	800007ac	fedff36f	jal	x6,800007ac	  x6=0x800007ac
       25175000	      2516	00000000	00000013	addi	x0,x0,0	  x0:0x00000000
       25185000	      2517	80000794	00000013	addi	x0,x0,0	  x0:0x00000000
       25195000	      2518	80000798	01c00def	jal	x27,80000798	 x27=0x80000798
       25205000	      2519	00000000	00000013	addi	x0,x0,0	  x0:0x00000000
       25215000	      2520	800007b0	00000013	addi	x0,x0,0	  x0:0x00000000
       25225000	      2521	800007b4	008000ef	jal	x1,800007b4	  x1=0x800007b4
       25235000	      2522	00000000	00000013	addi	x0,x0,0	  x0:0x00000000
       25245000	      2523	800007b8	00000013	addi	x0,x0,0	  x0:0x00000000
       25255000	      2524	800007bc	0180016f	jal	x2,800007bc	  x2=0x800007bc
       25265000	      2525	00000000	00000013	addi	x0,x0,0	  x0:0x00000000
       25275000	      2526	800007d0	00000013	addi	x0,x0,0	  x0:0x00000000
       25285000	      2527	800007d4	ac446113	ori	x2,x8,-1340	  x8:0x800006f0  x2=0xfffffef4
       25295000	      2528	800007d8	01800a6f	jal	x20,800007d8	 x20=0x800007d8
       25305000	      2529	00000000	00000013	addi	x0,x0,0	  x0:0x00000000
       25315000	      2530	800007ec	00000013	addi	x0,x0,0	  x0:0x00000000
       25325000	      2531	800007f0	014000ef	jal	x1,800007f0	  x1=0x800007f0
       25335000	      2532	00000000	00000013	addi	x0,x0,0	  x0:0x00000000
       25345000	      2533	80000800	00000013	addi	x0,x0,0	  x0:0x00000000
       25355000	      2534	80000804	fe1ff0ef	jal	x1,80000804	  x1=0x80000804
       25365000	      2535	00000000	00000013	addi	x0,x0,0	  x0:0x00000000
       25375000	      2536	800007e0	00000013	addi	x0,x0,0	  x0:0x00000000
       25385000	      2537	800007e4	004000ef	jal	x1,800007e4	  x1=0x800007e4
       25395000	      2538	00000000	00000013	addi	x0,x0,0	  x0:0x00000000
       25405000	      2539	800007e4	00000013	addi	x0,x0,0	  x0:0x00000000
       25415000	      2540	800007e8	028005ef	jal	x11,800007e8	 x11=0x800007e8
       25425000	      2541	00000000	00000013	addi	x0,x0,0	  x0:0x00000000
       25435000	      2542	8000080c	00000013	addi	x0,x0,0	  x0:0x00000000
       25445000	      2543	80000810	ff9ff16f	jal	x2,80000810	  x2=0x80000810
       25455000	      2544	00000000	00000013	addi	x0,x0,0	  x0:0x00000000
       25465000	      2545	80000804	00000013	addi	x0,x0,0	  x0:0x00000000
       25475000	      2546	80000808	fe5ff0ef	jal	x1,80000808	  x1=0x80000808
       25485000	      2547	00000000	00000013	addi	x0,x0,0	  x0:0x00000000
       25495000	      2548	800007e8	00000013	addi	x0,x0,0	  x0:0x00000000
       25505000	      2549	800007ec	ff1ff0ef	jal	x1,800007ec	  x1=0x800007ec
       25515000	      2550	00000000	00000013	addi	x0,x0,0	  x0:0x00000000
       25525000	      2551	800007d8	00000013	addi	x0,x0,0	  x0:0x00000000
       25535000	      2552	800007dc	030001ef	jal	x3,800007dc	  x3=0x800007dc
       25545000	      2553	00000000	00000013	addi	x0,x0,0	  x0:0x00000000
       25555000	      2554	80000808	00000013	addi	x0,x0,0	  x0:0x00000000
       25565000	      2555	8000080c	fe9ff0ef	jal	x1,8000080c	  x1=0x8000080c
       25575000	      2556	00000000	00000013	addi	x0,x0,0	  x0:0x00000000
       25585000	      2557	800007f0	00000013	addi	x0,x0,0	  x0:0x00000000
       25595000	      2558	800007f4	008000ef	jal	x1,800007f4	  x1=0x800007f4
       25605000	      2559	00000000	00000013	addi	x0,x0,0	  x0:0x00000000
       25615000	      2560	800007f8	00000013	addi	x0,x0,0	  x0:0x00000000
       25625000	      2561	800007fc	fe5ff0ef	jal	x1,800007fc	  x1=0x800007fc
       25635000	      2562	00000000	00000013	addi	x0,x0,0	  x0:0x00000000
       25645000	      2563	800007dc	00000013	addi	x0,x0,0	  x0:0x00000000
       25655000	      2564	800007e0	0200036f	jal	x6,800007e0	  x6=0x800007e0
       25665000	      2565	00000000	00000013	addi	x0,x0,0	  x0:0x00000000
       25675000	      2566	800007fc	00000013	addi	x0,x0,0	  x0:0x00000000
       25685000	      2567	80000800	ff9ffeef	jal	x29,80000800	 x29=0x80000800
       25695000	      2568	00000000	00000013	addi	x0,x0,0	  x0:0x00000000
       25705000	      2569	800007f4	00000013	addi	x0,x0,0	  x0:0x00000000
       25715000	      2570	800007f8	01c0016f	jal	x2,800007f8	  x2=0x800007f8
       25725000	      2571	00000000	00000013	addi	x0,x0,0	  x0:0x00000000
       25735000	      2572	80000810	00000013	addi	x0,x0,0	  x0:0x00000000
       25745000	      2573	80000814	bfe4e137	lui	x2,0xbfe4e	  x2=0xbfe4e000
       25755000	      2574	80000818	00c00a6f	jal	x20,80000818	 x20=0x80000818
       25765000	      2575	00000000	00000013	addi	x0,x0,0	  x0:0x00000000
       25775000	      2576	80000820	00000013	addi	x0,x0,0	  x0:0x00000000
       25785000	      2577	80000824	02c00bef	jal	x23,80000824	 x23=0x80000824
       25795000	      2578	00000000	00000013	addi	x0,x0,0	  x0:0x00000000
       25805000	      2579	8000084c	00000013	addi	x0,x0,0	  x0:0x00000000
       25815000	      2580	80000850	0180036f	jal	x6,80000850	  x6=0x80000850
       25825000	      2581	00000000	00000013	addi	x0,x0,0	  x0:0x00000000
       25835000	      2582	80000864	00000013	addi	x0,x0,0	  x0:0x00000000
       25845000	      2583	80000868	ff9ffa6f	jal	x20,80000868	 x20=0x80000868
       25855000	      2584	00000000	00000013	addi	x0,x0,0	  x0:0x00000000
       25865000	      2585	8000085c	00000013	addi	x0,x0,0	  x0:0x00000000
       25875000	      2586	80000860	fc9ff86f	jal	x16,80000860	 x16=0x80000860
       25885000	      2587	00000000	00000013	addi	x0,x0,0	  x0:0x00000000
       25895000	      2588	80000824	00000013	addi	x0,x0,0	  x0:0x00000000
       25905000	      2589	80000828	008000ef	jal	x1,80000828	  x1=0x80000828
       25915000	      2590	00000000	00000013	addi	x0,x0,0	  x0:0x00000000
       25925000	      2591	8000082c	00000013	addi	x0,x0,0	  x0:0x00000000
       25935000	      2592	80000830	ff1ff0ef	jal	x1,80000830	  x1=0x80000830
       25945000	      2593	00000000	00000013	addi	x0,x0,0	  x0:0x00000000
       25955000	      2594	8000081c	00000013	addi	x0,x0,0	  x0:0x00000000
       25965000	      2595	80000820	024000ef	jal	x1,80000820	  x1=0x80000820
       25975000	      2596	00000000	00000013	addi	x0,x0,0	  x0:0x00000000
       25985000	      2597	80000840	00000013	addi	x0,x0,0	  x0:0x00000000
       25995000	      2598	80000844	fd9ff0ef	jal	x1,80000844	  x1=0x80000844
       26005000	      2599	00000000	00000013	addi	x0,x0,0	  x0:0x00000000
       26015000	      2600	80000818	00000013	addi	x0,x0,0	  x0:0x00000000
       26025000	      2601	8000081c	040007ef	jal	x15,8000081c	 x15=0x8000081c
       26035000	      2602	00000000	00000013	addi	x0,x0,0	  x0:0x00000000
       26045000	      2603	80000858	00000013	addi	x0,x0,0	  x0:0x00000000
       26055000	      2604	8000085c	fe5fffef	jal	x31,8000085c	 x31=0x8000085c
       26065000	      2605	00000000	00000013	addi	x0,x0,0	  x0:0x00000000
       26075000	      2606	8000083c	00000013	addi	x0,x0,0	  x0:0x00000000
       26085000	      2607	80000840	00c000ef	jal	x1,80000840	  x1=0x80000840
       26095000	      2608	00000000	00000013	addi	x0,x0,0	  x0:0x00000000
       26105000	      2609	80000848	00000013	addi	x0,x0,0	  x0:0x00000000
       26115000	      2610	8000084c	fe9ffb6f	jal	x22,8000084c	 x22=0x8000084c
       26125000	      2611	00000000	00000013	addi	x0,x0,0	  x0:0x00000000
       26135000	      2612	80000830	00000013	addi	x0,x0,0	  x0:0x00000000
       26145000	      2613	80000834	0240036f	jal	x6,80000834	  x6=0x80000834
       26155000	      2614	00000000	00000013	addi	x0,x0,0	  x0:0x00000000
       26165000	      2615	80000854	00000013	addi	x0,x0,0	  x0:0x00000000
       26175000	      2616	80000858	fd5ffcef	jal	x25,80000858	 x25=0x80000858
       26185000	      2617	00000000	00000013	addi	x0,x0,0	  x0:0x00000000
       26195000	      2618	80000828	00000013	addi	x0,x0,0	  x0:0x00000000
       26205000	      2619	8000082c	038000ef	jal	x1,8000082c	  x1=0x8000082c
       26215000	      2620	00000000	00000013	addi	x0,x0,0	  x0:0x00000000
       26225000	      2621	80000860	00000013	addi	x0,x0,0	  x0:0x00000000
       26235000	      2622	80000864	fd5ff36f	jal	x6,80000864	  x6=0x80000864
       26245000	      2623	00000000	00000013	addi	x0,x0,0	  x0:0x00000000
       26255000	      2624	80000834	00000013	addi	x0,x0,0	  x0:0x00000000
       26265000	      2625	80000838	01c000ef	jal	x1,80000838	  x1=0x80000838
       26275000	      2626	00000000	00000013	addi	x0,x0,0	  x0:0x00000000
       26285000	      2627	80000850	00000013	addi	x0,x0,0	  x0:0x00000000
       26295000	      2628	80000854	ff5ffcef	jal	x25,80000854	 x25=0x80000854
       26305000	      2629	00000000	00000013	addi	x0,x0,0	  x0:0x00000000
       26315000	      2630	80000844	00000013	addi	x0,x0,0	  x0:0x00000000
       26325000	      2631	80000848	ff5ffaef	jal	x21,80000848	 x21=0x80000848
       26335000	      2632	00000000	00000013	addi	x0,x0,0	  x0:0x00000000
       26345000	      2633	80000838	00000013	addi	x0,x0,0	  x0:0x00000000
       26355000	      2634	8000083c	0300036f	jal	x6,8000083c	  x6=0x8000083c
       26365000	      2635	00000000	00000013	addi	x0,x0,0	  x0:0x00000000
       26375000	      2636	80000868	00000013	addi	x0,x0,0	  x0:0x00000000
       26385000	      2637	8000086c	004c6bb3	or	x23,x24,x4	 x24:0x80000680  x4:0x80000734 x23=0x800007b4
       26395000	      2638	80000870	03c00a6f	jal	x20,80000870	 x20=0x80000870
       26405000	      2639	00000000	00000013	addi	x0,x0,0	  x0:0x00000000
       26415000	      2640	800008a8	00000013	addi	x0,x0,0	  x0:0x00000000
       26425000	      2641	800008ac	0180036f	jal	x6,800008ac	  x6=0x800008ac
       26435000	      2642	00000000	00000013	addi	x0,x0,0	  x0:0x00000000
       26445000	      2643	800008c0	00000013	addi	x0,x0,0	  x0:0x00000000
       26455000	      2644	800008c4	fc5ff1ef	jal	x3,800008c4	  x3=0x800008c4
       26465000	      2645	00000000	00000013	addi	x0,x0,0	  x0:0x00000000
       26475000	      2646	80000884	00000013	addi	x0,x0,0	  x0:0x00000000
       26485000	      2647	80000888	014000ef	jal	x1,80000888	  x1=0x80000888
       26495000	      2648	00000000	00000013	addi	x0,x0,0	  x0:0x00000000
       26505000	      2649	80000898	00000013	addi	x0,x0,0	  x0:0x00000000
       26515000	      2650	8000089c	0140036f	jal	x6,8000089c	  x6=0x8000089c
       26525000	      2651	00000000	00000013	addi	x0,x0,0	  x0:0x00000000
       26535000	      2652	800008ac	00000013	addi	x0,x0,0	  x0:0x00000000
       26545000	      2653	800008b0	ff9ff0ef	jal	x1,800008b0	  x1=0x800008b0
       26555000	      2654	00000000	00000013	addi	x0,x0,0	  x0:0x00000000
       26565000	      2655	800008a4	00000013	addi	x0,x0,0	  x0:0x00000000
       26575000	      2656	800008a8	fcdff0ef	jal	x1,800008a8	  x1=0x800008a8
       26585000	      2657	00000000	00000013	addi	x0,x0,0	  x0:0x00000000
       26595000	      2658	80000870	00000013	addi	x0,x0,0	  x0:0x00000000
       26605000	      2659	80000874	020000ef	jal	x1,80000874	  x1=0x80000874
       26615000	      2660	00000000	00000013	addi	x0,x0,0	  x0:0x00000000
       26625000	      2661	80000890	00000013	addi	x0,x0,0	  x0:0x00000000
       26635000	      2662	80000894	010000ef	jal	x1,80000894	  x1=0x80000894
       26645000	      2663	00000000	00000013	addi	x0,x0,0	  x0:0x00000000
       26655000	      2664	800008a0	00000013	addi	x0,x0,0	  x0:0x00000000
       26665000	      2665	800008a4	018000ef	jal	x1,800008a4	  x1=0x800008a4
       26675000	      2666	00000000	00000013	addi	x0,x0,0	  x0:0x00000000
       26685000	      2667	800008b8	00000013	addi	x0,x0,0	  x0:0x00000000
       26695000	      2668	800008bc	ff9ff36f	jal	x6,800008bc	  x6=0x800008bc
       26705000	      2669	00000000	00000013	addi	x0,x0,0	  x0:0x00000000
       26715000	      2670	800008b0	00000013	addi	x0,x0,0	  x0:0x00000000
       26725000	      2671	800008b4	fedff0ef	jal	x1,800008b4	  x1=0x800008b4
       26735000	      2672	00000000	00000013	addi	x0,x0,0	  x0:0x00000000
       26745000	      2673	8000089c	00000013	addi	x0,x0,0	  x0:0x00000000
       26755000	      2674	800008a0	fe5ff8ef	jal	x17,800008a0	 x17=0x800008a0
       26765000	      2675	00000000	00000013	addi	x0,x0,0	  x0:0x00000000
       26775000	      2676	80000880	00000013	addi	x0,x0,0	  x0:0x00000000
       26785000	      2677	80000884	0080066f	jal	x12,80000884	 x12=0x80000884
       26795000	      2678	00000000	00000013	addi	x0,x0,0	  x0:0x00000000
       26805000	      2679	80000888	00000013	addi	x0,x0,0	  x0:0x00000000
       26815000	      2680	8000088c	03400aef	jal	x21,8000088c	 x21=0x8000088c
       26825000	      2681	00000000	00000013	addi	x0,x0,0	  x0:0x00000000
       26835000	      2682	800008bc	00000013	addi	x0,x0,0	  x0:0x00000000
       26845000	      2683	800008c0	fc1ff0ef	jal	x1,800008c0	  x1=0x800008c0
       26855000	      2684	00000000	00000013	addi	x0,x0,0	  x0:0x00000000
       26865000	      2685	8000087c	00000013	addi	x0,x0,0	  x0:0x00000000
       26875000	      2686	80000880	0480086f	jal	x16,80000880	 x16=0x80000880
       26885000	      2687	00000000	00000013	addi	x0,x0,0	  x0:0x00000000
       26895000	      2688	800008c4	00000013	addi	x0,x0,0	  x0:0x00000000
       26905000	      2689	800008c8	fd1ff0ef	jal	x1,800008c8	  x1=0x800008c8
       26915000	      2690	00000000	00000013	addi	x0,x0,0	  x0:0x00000000
       26925000	      2691	80000894	00000013	addi	x0,x0,0	  x0:0x00000000
       26935000	      2692	80000898	0380036f	jal	x6,80000898	  x6=0x80000898
       26945000	      2693	00000000	00000013	addi	x0,x0,0	  x0:0x00000000
       26955000	      2694	800008cc	00000013	addi	x0,x0,0	  x0:0x00000000
       26965000	      2695	800008d0	fc1ff0ef	jal	x1,800008d0	  x1=0x800008d0
       26975000	      2696	00000000	00000013	addi	x0,x0,0	  x0:0x00000000
       26985000	      2697	8000088c	00000013	addi	x0,x0,0	  x0:0x00000000
       26995000	      2698	80000890	fedff0ef	jal	x1,80000890	  x1=0x80000890
       27005000	      2699	00000000	00000013	addi	x0,x0,0	  x0:0x00000000
       27015000	      2700	80000878	00000013	addi	x0,x0,0	  x0:0x00000000
       27025000	      2701	8000087c	03c0036f	jal	x6,8000087c	  x6=0x8000087c
       27035000	      2702	00000000	00000013	addi	x0,x0,0	  x0:0x00000000
       27045000	      2703	800008b4	00000013	addi	x0,x0,0	  x0:0x00000000
       27055000	      2704	800008b8	fc1ff0ef	jal	x1,800008b8	  x1=0x800008b8
       27065000	      2705	00000000	00000013	addi	x0,x0,0	  x0:0x00000000
       27075000	      2706	80000874	00000013	addi	x0,x0,0	  x0:0x00000000
       27085000	      2707	80000878	0540036f	jal	x6,80000878	  x6=0x80000878
       27095000	      2708	00000000	00000013	addi	x0,x0,0	  x0:0x00000000
       27105000	      2709	800008c8	00000013	addi	x0,x0,0	  x0:0x00000000
       27115000	      2710	800008cc	0080016f	jal	x2,800008cc	  x2=0x800008cc
       27125000	      2711	00000000	00000013	addi	x0,x0,0	  x0:0x00000000
       27135000	      2712	800008d0	00000013	addi	x0,x0,0	  x0:0x00000000
       27145000	      2713	800008d4	00e86bb3	or	x23,x16,x14	 x16:0x80000880 x14:0x80000718 x23=0x80000f98
       27155000	      2714	800008d8	02400a6f	jal	x20,800008d8	 x20=0x800008d8
       27165000	      2715	00000000	00000013	addi	x0,x0,0	  x0:0x00000000
       27175000	      2716	800008f8	00000013	addi	x0,x0,0	  x0:0x00000000
       27185000	      2717	800008fc	fedff0ef	jal	x1,800008fc	  x1=0x800008fc
       27195000	      2718	00000000	00000013	addi	x0,x0,0	  x0:0x00000000
       27205000	      2719	800008e4	00000013	addi	x0,x0,0	  x0:0x00000000
       27215000	      2720	800008e8	0100036f	jal	x6,800008e8	  x6=0x800008e8
       27225000	      2721	00000000	00000013	addi	x0,x0,0	  x0:0x00000000
       27235000	      2722	800008f4	00000013	addi	x0,x0,0	  x0:0x00000000
       27245000	      2723	800008f8	fe5ff0ef	jal	x1,800008f8	  x1=0x800008f8
       27255000	      2724	00000000	00000013	addi	x0,x0,0	  x0:0x00000000
       27265000	      2725	800008d8	00000013	addi	x0,x0,0	  x0:0x00000000
       27275000	      2726	800008dc	018000ef	jal	x1,800008dc	  x1=0x800008dc
       27285000	      2727	00000000	00000013	addi	x0,x0,0	  x0:0x00000000
       27295000	      2728	800008f0	00000013	addi	x0,x0,0	  x0:0x00000000
       27305000	      2729	800008f4	ffdff0ef	jal	x1,800008f4	  x1=0x800008f4
       27315000	      2730	00000000	00000013	addi	x0,x0,0	  x0:0x00000000
       27325000	      2731	800008ec	00000013	addi	x0,x0,0	  x0:0x00000000
       27335000	      2732	800008f0	ff5ff0ef	jal	x1,800008f0	  x1=0x800008f0
       27345000	      2733	00000000	00000013	addi	x0,x0,0	  x0:0x00000000
       27355000	      2734	800008e0	00000013	addi	x0,x0,0	  x0:0x00000000
       27365000	      2735	800008e4	020001ef	jal	x3,800008e4	  x3=0x800008e4
       27375000	      2736	00000000	00000013	addi	x0,x0,0	  x0:0x00000000
       27385000	      2737	80000900	00000013	addi	x0,x0,0	  x0:0x00000000
       27395000	      2738	80000904	fddff8ef	jal	x17,80000904	 x17=0x80000904
       27405000	      2739	00000000	00000013	addi	x0,x0,0	  x0:0x00000000
       27415000	      2740	800008dc	00000013	addi	x0,x0,0	  x0:0x00000000
       27425000	      2741	800008e0	020000ef	jal	x1,800008e0	  x1=0x800008e0
       27435000	      2742	00000000	00000013	addi	x0,x0,0	  x0:0x00000000
       27445000	      2743	800008fc	00000013	addi	x0,x0,0	  x0:0x00000000
       27455000	      2744	80000900	fedff36f	jal	x6,80000900	  x6=0x80000900
       27465000	      2745	00000000	00000013	addi	x0,x0,0	  x0:0x00000000
       27475000	      2746	800008e8	00000013	addi	x0,x0,0	  x0:0x00000000
       27485000	      2747	800008ec	01c00d6f	jal	x26,800008ec	 x26=0x800008ec
       27495000	      2748	00000000	00000013	addi	x0,x0,0	  x0:0x00000000
       27505000	      2749	80000904	00000013	addi	x0,x0,0	  x0:0x00000000
       27515000	      2750	80000908	2700b593	sltiu	x11,x1,624	  x1:0x800008e0 x11=0x00000000
       27525000	      2751	8000090c	02800a6f	jal	x20,8000090c	 x20=0x8000090c
       27535000	      2752	00000000	00000013	addi	x0,x0,0	  x0:0x00000000
       27545000	      2753	80000930	00000013	addi	x0,x0,0	  x0:0x00000000
       27555000	      2754	80000934	ff1ff0ef	jal	x1,80000934	  x1=0x80000934
       27565000	      2755	00000000	00000013	addi	x0,x0,0	  x0:0x00000000
       27575000	      2756	80000920	00000013	addi	x0,x0,0	  x0:0x00000000
       27585000	      2757	80000924	014000ef	jal	x1,80000924	  x1=0x80000924
       27595000	      2758	00000000	00000013	addi	x0,x0,0	  x0:0x00000000
       27605000	      2759	80000934	00000013	addi	x0,x0,0	  x0:0x00000000
       27615000	      2760	80000938	004000ef	jal	x1,80000938	  x1=0x80000938
       27625000	      2761	00000000	00000013	addi	x0,x0,0	  x0:0x00000000
       27635000	      2762	80000938	00000013	addi	x0,x0,0	  x0:0x00000000
       27645000	      2763	8000093c	fe5ff3ef	jal	x7,8000093c	  x7=0x8000093c
       27655000	      2764	00000000	00000013	addi	x0,x0,0	  x0:0x00000000
       27665000	      2765	8000091c	00000013	addi	x0,x0,0	  x0:0x00000000
       27675000	      2766	80000920	0080036f	jal	x6,80000920	  x6=0x80000920
       27685000	      2767	00000000	00000013	addi	x0,x0,0	  x0:0x00000000
       27695000	      2768	80000924	00000013	addi	x0,x0,0	  x0:0x00000000
       27705000	      2769	80000928	0040036f	jal	x6,80000928	  x6=0x80000928
       27715000	      2770	00000000	00000013	addi	x0,x0,0	  x0:0x00000000
       27725000	      2771	80000928	00000013	addi	x0,x0,0	  x0:0x00000000
       27735000	      2772	8000092c	ff1ff0ef	jal	x1,8000092c	  x1=0x8000092c
       27745000	      2773	00000000	00000013	addi	x0,x0,0	  x0:0x00000000
       27755000	      2774	80000918	00000013	addi	x0,x0,0	  x0:0x00000000
       27765000	      2775	8000091c	0140036f	jal	x6,8000091c	  x6=0x8000091c
       27775000	      2776	00000000	00000013	addi	x0,x0,0	  x0:0x00000000
       27785000	      2777	8000092c	00000013	addi	x0,x0,0	  x0:0x00000000
       27795000	      2778	80000930	fe1ff0ef	jal	x1,80000930	  x1=0x80000930
       27805000	      2779	00000000	00000013	addi	x0,x0,0	  x0:0x00000000
       27815000	      2780	8000090c	00000013	addi	x0,x0,0	  x0:0x00000000
       27825000	      2781	80000910	030000ef	jal	x1,80000910	  x1=0x80000910
       27835000	      2782	00000000	00000013	addi	x0,x0,0	  x0:0x00000000
       27845000	      2783	8000093c	00000013	addi	x0,x0,0	  x0:0x00000000
       27855000	      2784	80000940	fd9ff0ef	jal	x1,80000940	  x1=0x80000940
       27865000	      2785	00000000	00000013	addi	x0,x0,0	  x0:0x00000000
       27875000	      2786	80000914	00000013	addi	x0,x0,0	  x0:0x00000000
       27885000	      2787	80000918	ffdff0ef	jal	x1,80000918	  x1=0x80000918
       27895000	      2788	00000000	00000013	addi	x0,x0,0	  x0:0x00000000
       27905000	      2789	80000910	00000013	addi	x0,x0,0	  x0:0x00000000
       27915000	      2790	80000914	030000ef	jal	x1,80000914	  x1=0x80000914
       27925000	      2791	00000000	00000013	addi	x0,x0,0	  x0:0x00000000
       27935000	      2792	80000940	00000013	addi	x0,x0,0	  x0:0x00000000
       27945000	      2793	80000944	00752db3	slt	x27,x10,x7	 x10:0x800005b4  x7:0x8000093c x27=0x00000001
       27955000	      2794	80000948	03000a6f	jal	x20,80000948	 x20=0x80000948
       27965000	      2795	00000000	00000013	addi	x0,x0,0	  x0:0x00000000
       27975000	      2796	80000974	00000013	addi	x0,x0,0	  x0:0x00000000
       27985000	      2797	80000978	00c0036f	jal	x6,80000978	  x6=0x80000978
       27995000	      2798	00000000	00000013	addi	x0,x0,0	  x0:0x00000000
       28005000	      2799	80000980	00000013	addi	x0,x0,0	  x0:0x00000000
       28015000	      2800	80000984	fc9ff1ef	jal	x3,80000984	  x3=0x80000984
       28025000	      2801	00000000	00000013	addi	x0,x0,0	  x0:0x00000000
       28035000	      2802	80000948	00000013	addi	x0,x0,0	  x0:0x00000000
       28045000	      2803	8000094c	00400a6f	jal	x20,8000094c	 x20=0x8000094c
       28055000	      2804	00000000	00000013	addi	x0,x0,0	  x0:0x00000000
       28065000	      2805	8000094c	00000013	addi	x0,x0,0	  x0:0x00000000
       28075000	      2806	80000950	014000ef	jal	x1,80000950	  x1=0x80000950
       28085000	      2807	00000000	00000013	addi	x0,x0,0	  x0:0x00000000
       28095000	      2808	80000960	00000013	addi	x0,x0,0	  x0:0x00000000
       28105000	      2809	80000964	004000ef	jal	x1,80000964	  x1=0x80000964
       28115000	      2810	00000000	00000013	addi	x0,x0,0	  x0:0x00000000
       28125000	      2811	80000964	00000013	addi	x0,x0,0	  x0:0x00000000
       28135000	      2812	80000968	014000ef	jal	x1,80000968	  x1=0x80000968
       28145000	      2813	00000000	00000013	addi	x0,x0,0	  x0:0x00000000
       28155000	      2814	80000978	00000013	addi	x0,x0,0	  x0:0x00000000
       28165000	      2815	8000097c	00c000ef	jal	x1,8000097c	  x1=0x8000097c
       28175000	      2816	00000000	00000013	addi	x0,x0,0	  x0:0x00000000
       28185000	      2817	80000984	00000013	addi	x0,x0,0	  x0:0x00000000
       28195000	      2818	80000988	fcdff16f	jal	x2,80000988	  x2=0x80000988
       28205000	      2819	00000000	00000013	addi	x0,x0,0	  x0:0x00000000
       28215000	      2820	80000950	00000013	addi	x0,x0,0	  x0:0x00000000
       28225000	      2821	80000954	0040036f	jal	x6,80000954	  x6=0x80000954
       28235000	      2822	00000000	00000013	addi	x0,x0,0	  x0:0x00000000
       28245000	      2823	80000954	00000013	addi	x0,x0,0	  x0:0x00000000
       28255000	      2824	80000958	0080076f	jal	x14,80000958	 x14=0x80000958
       28265000	      2825	00000000	00000013	addi	x0,x0,0	  x0:0x00000000
       28275000	      2826	8000095c	00000013	addi	x0,x0,0	  x0:0x00000000
       28285000	      2827	80000960	ffdff0ef	jal	x1,80000960	  x1=0x80000960
       28295000	      2828	00000000	00000013	addi	x0,x0,0	  x0:0x00000000
       28305000	      2829	80000958	00000013	addi	x0,x0,0	  x0:0x00000000
       28315000	      2830	8000095c	024000ef	jal	x1,8000095c	  x1=0x8000095c
       28325000	      2831	00000000	00000013	addi	x0,x0,0	  x0:0x00000000
       28335000	      2832	8000097c	00000013	addi	x0,x0,0	  x0:0x00000000
       28345000	      2833	80000980	ff5ff1ef	jal	x3,80000980	  x3=0x80000980
       28355000	      2834	00000000	00000013	addi	x0,x0,0	  x0:0x00000000
       28365000	      2835	80000970	00000013	addi	x0,x0,0	  x0:0x00000000
       28375000	      2836	80000974	ffdff0ef	jal	x1,80000974	  x1=0x80000974
       28385000	      2837	00000000	00000013	addi	x0,x0,0	  x0:0x00000000
       28395000	      2838	8000096c	00000013	addi	x0,x0,0	  x0:0x00000000
       28405000	      2839	80000970	ffdff36f	jal	x6,80000970	  x6=0x80000970
       28415000	      2840	00000000	00000013	addi	x0,x0,0	  x0:0x00000000
       28425000	      2841	80000968	00000013	addi	x0,x0,0	  x0:0x00000000
       28435000	      2842	8000096c	020000ef	jal	x1,8000096c	  x1=0x8000096c
       28445000	      2843	00000000	00000013	addi	x0,x0,0	  x0:0x00000000
       28455000	      2844	80000988	00000013	addi	x0,x0,0	  x0:0x00000000
       28465000	      2845	8000098c	0008c633	xor	x12,x17,x0	 x17:0x80000904  x0:0x00000000 x12=0x80000904
       28475000	      2846	80000990	00b1f833	and	x16,x3,x11	  x3:0x80000980 x11:0x00000000 x16=0x00000000
       28485000	      2847	80000994	04a40063	beq	x8,x10,800009d4	  x8:0x800006f0 x10:0x800005b4
       28495000	      2848	80000998	8f6a2913	slti	x18,x20,-1802	 x20:0x8000094c x18=0x00000001
       28505000	      2849	8000099c	0395e063	bltu	x11,x25,800009bc	 x11:0x00000000 x25:0x80000854
       28515000	      2850	00000000	00000013	addi	x0,x0,0	  x0:0x00000000
       28525000	      2851	800009b8	00000013	addi	x0,x0,0	  x0:0x00000000
       28535000	      2852	800009bc	00f5ccb3	xor	x25,x11,x15	 x11:0x00000000 x15:0x8000081c x25=0x8000081c
       28545000	      2853	800009c0	40640233	sub	x4,x8,x6	  x8:0x800006f0  x6:0x80000970  x4=0xfffffd80
       28555000	      2854	800009c4	88e0ee93	ori	x29,x1,-1906	  x1:0x8000096c x29=0xfffff9ee
       28565000	      2855	800009c8	006effb3	and	x31,x29,x6	 x29:0xfffff9ee  x6:0x80000970 x31=0x80000960
       28575000	      2856	800009cc	00000013	addi	x0,x0,0	  x0:0x00000000
       28585000	      2857	800009d0	03061e63	bne	x12,x16,80000a0c	 x12:0x80000904 x16:0x00000000
       28595000	      2858	00000000	00000013	addi	x0,x0,0	  x0:0x00000000
       28605000	      2859	80000a08	00000013	addi	x0,x0,0	  x0:0x00000000
       28615000	      2860	80000a0c	00460c33	add	x24,x12,x4	 x12:0x80000904  x4:0xfffffd80 x24=0x80000684
       28625000	      2861	80000a10	29923d13	sltiu	x26,x4,665	  x4:0xfffffd80 x26=0x00000000
       28635000	      2862	80000a14	01179c63	bne	x15,x17,80000a2c	 x15:0x8000081c x17:0x80000904
       28645000	      2863	00000000	00000013	addi	x0,x0,0	  x0:0x00000000
       28655000	      2864	80000a28	00000013	addi	x0,x0,0	  x0:0x00000000
       28665000	      2865	80000a2c	01182d33	slt	x26,x16,x17	 x16:0x00000000 x17:0x80000904 x26=0x00000000
       28675000	      2866	80000a30	013b8733	add	x14,x23,x19	 x23:0x80000f98 x19:0x80000468 x14=0x00001400
       28685000	      2867	80000a34	01fe18b3	sll	x17,x28,x31	 x28:0x00000001 x31:0x80000960 x17=0x00000001
       28695000	      2868	80000a38	00000013	addi	x0,x0,0	  x0:0x00000000
       28705000	      2869	80000a3c	58b82c13	slti	x24,x16,1419	 x16:0x00000000 x24=0x00000001
       28715000	      2870	80000a40	2402cb93	xori	x23,x5,576	  x5:0x80009f84 x23=0x80009dc4
       28725000	      2871	80000a44	0181fcb3	and	x25,x3,x24	  x3:0x80000980 x24:0x00000001 x25=0x00000000
       28735000	      2872	80000a48	01b53c33	sltu	x24,x10,x27	 x10:0x800005b4 x27:0x00000001 x24=0x00000000
       28745000	      2873	80000a4c	fae46793	ori	x15,x8,-82	  x8:0x800006f0 x15=0xfffffffe
       28755000	      2874	80000a50	f0c08b13	addi	x22,x1,-244	  x1:0x8000096c x22=0x80000878
       28765000	      2875	80000a54	4124db33	sra	x22,x9,x18	  x9:0x80000540 x18:0x00000001 x22=0xc00002a0
       28775000	      2876	80000a58	01f21b13	slli	x22,x4,0x1f	  x4:0xfffffd80 x22=0x00000000
       28785000	      2877	80000a5c	c3e77793	andi	x15,x14,-962	 x14:0x00001400 x15=0x00001400
       28795000	      2878	80000a60	b8ccee93	ori	x29,x25,-1140	 x25:0x00000000 x29=0xfffffb8c
       28805000	      2879	80000a64	0165f7b3	and	x15,x11,x22	 x11:0x00000000 x22:0x00000000 x15=0x00000000
       28815000	      2880	80000a68	01c2e333	or	x6,x5,x28	  x5:0x80009f84 x28:0x00000001  x6=0x80009f85
       28825000	      2881	80000a6c	00000013	addi	x0,x0,0	  x0:0x00000000
       28835000	      2882	80000a70	01a72733	slt	x14,x14,x26	 x14:0x00001400 x26:0x00000000 x14=0x00000000
       28845000	      2883	80000a74	03edda63	bge	x27,x30,80000aa8	 x27:0x00000001 x30:0x800005f0
       28855000	      2884	00000000	00000013	addi	x0,x0,0	  x0:0x00000000
       28865000	      2885	80000aa4	00000013	addi	x0,x0,0	  x0:0x00000000
       28875000	      2886	80000aa8	13a44893	xori	x17,x8,314	  x8:0x800006f0 x17=0x800007ca
       28885000	      2887	80000aac	01977263	bgeu	x14,x25,80000ab0	 x14:0x00000000 x25:0x00000000
       28895000	      2888	00000000	00000013	addi	x0,x0,0	  x0:0x00000000
       28905000	      2889	80000aac	00000013	addi	x0,x0,0	  x0:0x00000000
       28915000	      2890	80000ab0	01ab1a33	sll	x20,x22,x26	 x22:0x00000000 x26:0x00000000 x20=0x00000000
       28925000	      2891	80000ab4	02a48863	beq	x9,x10,80000ae4	  x9:0x80000540 x10:0x800005b4
       28935000	      2892	80000ab8	01f16c33	or	x24,x2,x31	  x2:0x80000988 x31:0x80000960 x24=0x800009e8
       28945000	      2893	80000abc	015fee63	bltu	x31,x21,80000ad8	 x31:0x80000960 x21:0x8000088c
       28955000	      2894	80000ac0	00000013	addi	x0,x0,0	  x0:0x00000000
       28965000	      2895	80000ac4	7613f517	auipc	x10,0x7613f	 x10=0xf613fac0
       28975000	      2896	80000ac8	0066dab3	srl	x21,x13,x6	 x13:0x80009fc4  x6:0x80009f85 x21=0x040004fe
       28985000	      2897	80000acc	00723733	sltu	x14,x4,x7	  x4:0xfffffd80  x7:0x8000093c x14=0x00000000
       28995000	      2898	80000ad0	0075d033	srl	x0,x11,x7	 x11:0x00000000  x7:0x8000093c
       29005000	      2899	80000ad4	492daa13	slti	x20,x27,1170	 x27:0x00000001 x20=0x00000001
       29015000	      2900	80000ad8	71553513	sltiu	x10,x10,1813	 x10:0xf613fac0 x10=0x00000000
       29025000	      2901	80000adc	01f92133	slt	x2,x18,x31	 x18:0x00000001 x31:0x80000960  x2=0x00000000
       29035000	      2902	80000ae0	00210263	beq	x2,x2,80000ae4	  x2:0x00000000  x2:0x00000000
       29045000	      2903	00000000	00000013	addi	x0,x0,0	  x0:0x00000000
       29055000	      2904	80000ae0	00000013	addi	x0,x0,0	  x0:0x00000000
       29065000	      2905	80000ae4	002a6c33	or	x24,x20,x2	 x20:0x00000001  x2:0x00000000 x24=0x00000001
       29075000	      2906	80000ae8	bd23a813	slti	x16,x7,-1070	  x7:0x8000093c x16=0x00000001
       29085000	      2907	80000aec	8a650617	auipc	x12,0x8a650	 x12=0x0a650ae8
       29095000	      2908	80000af0	e16143b7	lui	x7,0xe1614	  x7=0xe1614000
       29105000	      2909	80000af4	4f42fa13	andi	x20,x5,1268	  x5:0x80009f84 x20=0x00000484
       29115000	      2910	80000af8	03688e63	beq	x17,x22,80000b34	 x17:0x800007ca x22:0x00000000
       29125000	      2911	80000afc	65843537	lui	x10,0x65843	 x10=0x65843000
       29135000	      2912	80000b00	f62ee593	ori	x11,x29,-158	 x29:0xfffffb8c x11=0xffffffee
       29145000	      2913	80000b04	00000013	addi	x0,x0,0	  x0:0x00000000
       29155000	      2914	80000b08	0196c8b3	xor	x17,x13,x25	 x13:0x80009fc4 x25:0x00000000 x17=0x80009fc4
       29165000	      2915	80000b0c	41b8c493	xori	x9,x17,1051	 x17:0x80009fc4  x9=0x80009bdf
       29175000	      2916	80000b10	0020a533	slt	x10,x1,x2	  x1:0x8000096c  x2:0x00000000 x10=0x00000001
       29185000	      2917	80000b14	01f7a313	slti	x6,x15,31	 x15:0x00000000  x6=0x00000001
       29195000	      2918	80000b18	012c5413	srli	x8,x24,0x12	 x24:0x00000001  x8=0x00000000
       29205000	      2919	80000b1c	e8eda993	slti	x19,x27,-370	 x27:0x00000001 x19=0x00000000
       29215000	      2920	80000b20	039a0263	beq	x20,x25,80000b44	 x20:0x00000484 x25:0x00000000
       29225000	      2921	80000b24	73d661b7	lui	x3,0x73d66	  x3=0x73d66000
       29235000	      2922	80000b28	0283d863	bge	x7,x8,80000b58	  x7:0xe1614000  x8:0x00000000
       29245000	      2923	80000b2c	001f8233	add	x4,x31,x1	 x31:0x80000960  x1:0x8000096c  x4=0x000012cc
       29255000	      2924	80000b30	00000013	addi	x0,x0,0	  x0:0x00000000
       29265000	      2925	80000b34	00000013	addi	x0,x0,0	  x0:0x00000000
       29275000	      2926	80000b38	aa81c193	xori	x3,x3,-1368	  x3:0x73d66000  x3=0x8c299aa8
       29285000	      2927	80000b3c	31cdea13	ori	x20,x27,796	 x27:0x00000001 x20=0x0000031d
       29295000	      2928	80000b40	02ee5c63	bge	x28,x14,80000b78	 x28:0x00000001 x14:0x00000000
       29305000	      2929	00000000	00000013	addi	x0,x0,0	  x0:0x00000000
       29315000	      2930	80000b74	00000013	addi	x0,x0,0	  x0:0x00000000
       29325000	      2931	80000b78	03078863	beq	x15,x16,80000ba8	 x15:0x00000000 x16:0x00000001
       29335000	      2932	80000b7c	00000013	addi	x0,x0,0	  x0:0x00000000
       29345000	      2933	80000b80	7135c413	xori	x8,x11,1811	 x11:0xffffffee  x8=0xfffff8fd
       29355000	      2934	80000b84	03e10c63	beq	x2,x30,80000bbc	  x2:0x00000000 x30:0x800005f0
       29365000	      2935	80000b88	00000013	addi	x0,x0,0	  x0:0x00000000
       29375000	      2936	80000b8c	04fb0863	beq	x22,x15,80000bdc	 x22:0x00000000 x15:0x00000000
       29385000	      2937	00000000	00000013	addi	x0,x0,0	  x0:0x00000000
       29395000	      2938	80000bd8	00000013	addi	x0,x0,0	  x0:0x00000000
       29405000	      2939	80000bdc	02df6a63	bltu	x30,x13,80000c10	 x30:0x800005f0 x13:0x80009fc4
       29415000	      2940	00000000	00000013	addi	x0,x0,0	  x0:0x00000000
       29425000	      2941	80000c0c	00000013	addi	x0,x0,0	  x0:0x00000000
       29435000	      2942	80000c10	01cfb1b3	sltu	x3,x31,x28	 x31:0x80000960 x28:0x00000001  x3=0x00000000
       29445000	      2943	80000c14	01323a33	sltu	x20,x4,x19	  x4:0x000012cc x19:0x00000000 x20=0x00000000
       29455000	      2944	80000c18	88f03113	sltiu	x2,x0,-1905	  x0:0x00000000  x2=0x00000001
       29465000	      2945	80000c1c	012e70b3	and	x1,x28,x18	 x28:0x00000001 x18:0x00000001  x1=0x00000001
       29475000	      2946	80000c20	0358cc63	blt	x17,x21,80000c58	 x17:0x80009fc4 x21:0x040004fe
       29485000	      2947	00000000	00000013	addi	x0,x0,0	  x0:0x00000000
       29495000	      2948	80000c54	00000013	addi	x0,x0,0	  x0:0x00000000
       29505000	      2949	80000c58	004b0033	add	x0,x22,x4	 x22:0x00000000  x4:0x000012cc
       29515000	      2950	80000c5c	020e4e63	blt	x28,x0,80000c98	 x28:0x00000001  x0:0x00000000
       29525000	      2951	80000c60	009758b3	srl	x17,x14,x9	 x14:0x00000000  x9:0x80009bdf x17=0x00000000
       29535000	      2952	80000c64	01975393	srli	x7,x14,0x19	 x14:0x00000000  x7=0x00000000
       29545000	      2953	80000c68	0155d993	srli	x19,x11,0x15	 x11:0xffffffee x19=0x000007ff
       29555000	      2954	80000c6c	5b286517	auipc	x10,0x5b286	 x10=0xdb286c68
       29565000	      2955	80000c70	48246c13	ori	x24,x8,1154	  x8:0xfffff8fd x24=0xfffffcff
       29575000	      2956	80000c74	03c2d263	bge	x5,x28,80000c98	  x5:0x80009f84 x28:0x00000001
       29585000	      2957	80000c78	529e0217	auipc	x4,0x529e0	  x4=0xd29e0c74
       29595000	      2958	80000c7c	002b2733	slt	x14,x22,x2	 x22:0x00000000  x2:0x00000001 x14=0x00000001
       29605000	      2959	80000c80	01a56e63	bltu	x10,x26,80000c9c	 x10:0xdb286c68 x26:0x00000000
       29615000	      2960	80000c84	00f34a63	blt	x6,x15,80000c98	  x6:0x00000001 x15:0x00000000
       29625000	      2961	80000c88	40d35513	srai	x10,x6,0xd	  x6:0x00000001 x10=0x00000000
       29635000	      2962	80000c8c	004b1e63	bne	x22,x4,80000ca8	 x22:0x00000000  x4:0xd29e0c74
       29645000	      2963	00000000	00000013	addi	x0,x0,0	  x0:0x00000000
       29655000	      2964	80000ca4	00000013	addi	x0,x0,0	  x0:0x00000000
       29665000	      2965	80000ca8	00c049b3	xor	x19,x0,x12	  x0:0x00000000 x12:0x0a650ae8 x19=0x0a650ae8
       29675000	      2966	80000cac	00bd14b3	sll	x9,x26,x11	 x26:0x00000000 x11:0xffffffee  x9=0x00000000
       29685000	      2967	80000cb0	41b45a93	srai	x21,x8,0x1b	  x8:0xfffff8fd x21=0xffffffff
       29695000	      2968	80000cb4	408e5433	sra	x8,x28,x8	 x28:0x00000001  x8:0xfffff8fd  x8=0x00000000
       29705000	      2969	80000cb8	40df0d33	sub	x26,x30,x13	 x30:0x800005f0 x13:0x80009fc4 x26=0xffff662c
       29715000	      2970	80000cbc	01243413	sltiu	x8,x8,18	  x8:0x00000000  x8=0x00000001
       29725000	      2971	80000cc0	01516833	or	x16,x2,x21	  x2:0x00000001 x21:0xffffffff x16=0xffffffff
       29735000	      2972	80000cc4	03808663	beq	x1,x24,80000cf0	  x1:0x00000001 x24:0xfffffcff
       29745000	      2973	80000cc8	4db85a37	lui	x20,0x4db85	 x20=0x4db85000
       29755000	      2974	80000ccc	197b4037	lui	x0,0x197b4	
       29765000	      2975	80000cd0	41018c33	sub	x24,x3,x16	  x3:0x00000000 x16:0xffffffff x24=0x00000001
       29775000	      2976	80000cd4	013edb33	srl	x22,x29,x19	 x29:0xfffffb8c x19:0x0a650ae8 x22=0x00fffffb
       29785000	      2977	80000cd8	8b260b93	addi	x23,x12,-1870	 x12:0x0a650ae8 x23=0x0a65039a
       29795000	      2978	80000cdc	01b77433	and	x8,x14,x27	 x14:0x00000001 x27:0x00000001  x8=0x00000001
       29805000	      2979	80000ce0	011a7263	bgeu	x20,x17,80000ce4	 x20:0x4db85000 x17:0x00000000
       29815000	      2980	00000000	00000013	addi	x0,x0,0	  x0:0x00000000
       29825000	      2981	80000ce0	00000013	addi	x0,x0,0	  x0:0x00000000
       29835000	      2982	80000ce4	c7683613	sltiu	x12,x16,-906	 x16:0xffffffff x12=0x00000000
       29845000	      2983	80000ce8	0052df33	srl	x30,x5,x5	  x5:0x80009f84  x5:0x80009f84 x30=0x080009f8
       29855000	      2984	80000cec	0105d413	srli	x8,x11,0x10	 x11:0xffffffee  x8=0x0000ffff
       29865000	      2985	80000cf0	41cf01b3	sub	x3,x30,x28	 x30:0x080009f8 x28:0x00000001  x3=0x080009f7
       29875000	      2986	80000cf4	30c04eb7	lui	x29,0x30c04	 x29=0x30c04000
       29885000	      2987	80000cf8	85dbf397	auipc	x7,0x85dbf	  x7=0x05dbfcf4
       29895000	      2988	80000cfc	01376933	or	x18,x14,x19	 x14:0x00000001 x19:0x0a650ae8 x18=0x0a650ae9
       29905000	      2989	80000d00	94e6a713	slti	x14,x13,-1714	 x13:0x80009fc4 x14=0x00000001
       29915000	      2990	80000d04	03067063	bgeu	x12,x16,80000d24	 x12:0x00000000 x16:0xffffffff
       29925000	      2991	80000d08	a7f25397	auipc	x7,0xa7f25	  x7=0x27f25d04
       29935000	      2992	80000d0c	00c6efb3	or	x31,x13,x12	 x13:0x80009fc4 x12:0x00000000 x31=0x80009fc4
       29945000	      2993	80000d10	039e7063	bgeu	x28,x25,80000d30	 x28:0x00000001 x25:0x00000000
       29955000	      2994	00000000	00000013	addi	x0,x0,0	  x0:0x00000000
       29965000	      2995	80000d2c	00000013	addi	x0,x0,0	  x0:0x00000000
       29975000	      2996	80000d30	011e9a93	slli	x21,x29,0x11	 x29:0x30c04000 x21=0x80000000
       29985000	      2997	80000d34	01aa1493	slli	x9,x20,0x1a	 x20:0x4db85000  x9=0x00000000
       29995000	      2998	80000d38	00501663	bne	x0,x5,80000d44	  x0:0x00000000  x5:0x80009f84
       30005000	      2999	00000000	00000013	addi	x0,x0,0	  x0:0x00000000
       30015000	      3000	80000d40	00000013	addi	x0,x0,0	  x0:0x00000000
       30025000	      3001	80000d44	0159b933	sltu	x18,x19,x21	 x19:0x0a650ae8 x21:0x80000000 x18=0x00000001
       30035000	      3002	80000d48	014947b3	xor	x15,x18,x20	 x18:0x00000001 x20:0x4db85000 x15=0x4db85001
       30045000	      3003	80000d4c	00415033	srl	x0,x2,x4	  x2:0x00000001  x4:0xd29e0c74
       30055000	      3004	80000d50	ab0cea93	ori	x21,x25,-1360	 x25:0x00000000 x21=0xfffffab0
       30065000	      3005	80000d54	01886ab3	or	x21,x16,x24	 x16:0xffffffff x24:0x00000001 x21=0xffffffff
       30075000	      3006	80000d58	12f03f13	sltiu	x30,x0,303	  x0:0x00000000 x30=0x00000001
       30085000	      3007	80000d5c	00210263	beq	x2,x2,80000d60	  x2:0x00000001  x2:0x00000001
       30095000	      3008	00000000	00000013	addi	x0,x0,0	  x0:0x00000000
       30105000	      3009	80000d5c	00000013	addi	x0,x0,0	  x0:0x00000000
       30115000	      3010	80000d60	04ea0063	beq	x20,x14,80000da0	 x20:0x4db85000 x14:0x00000001
       30125000	      3011	80000d64	03e3cc63	blt	x7,x30,80000d9c	  x7:0x27f25d04 x30:0x00000001
       30135000	      3012	80000d68	4977f937	lui	x18,0x4977f	 x18=0x4977f000
       30145000	      3013	80000d6c	041c5263	bge	x24,x1,80000db0	 x24:0x00000001  x1:0x00000001
       30155000	      3014	00000000	00000013	addi	x0,x0,0	  x0:0x00000000
       30165000	      3015	80000dac	00000013	addi	x0,x0,0	  x0:0x00000000
       30175000	      3016	80000db0	0daee393	ori	x7,x29,218	 x29:0x30c04000  x7=0x30c040da
       30185000	      3017	80000db4	40e45633	sra	x12,x8,x14	  x8:0x0000ffff x14:0x00000001 x12=0x00007fff
       30195000	      3018	80000db8	c80d3813	sltiu	x16,x26,-896	 x26:0xffff662c x16=0x00000001
       30205000	      3019	80000dbc	a3ee6193	ori	x3,x28,-1474	 x28:0x00000001  x3=0xfffffa3f
       30215000	      3020	80000dc0	0113d613	srli	x12,x7,0x11	  x7:0x30c040da x12=0x00001860
       30225000	      3021	80000dc4	00000013	addi	x0,x0,0	  x0:0x00000000
       30235000	      3022	80000dc8	048b5263	bge	x22,x8,80000e0c	 x22:0x00fffffb  x8:0x0000ffff
       30245000	      3023	00000000	00000013	addi	x0,x0,0	  x0:0x00000000
       30255000	      3024	80000e08	00000013	addi	x0,x0,0	  x0:0x00000000
       30265000	      3025	80000e0c	00a8a733	slt	x14,x17,x10	 x17:0x00000000 x10:0x00000000 x14=0x00000000
       30275000	      3026	80000e10	55e93213	sltiu	x4,x18,1374	 x18:0x4977f000  x4=0x00000000
       30285000	      3027	80000e14	00b84b33	xor	x22,x16,x11	 x16:0x00000001 x11:0xffffffee x22=0xffffffef
       30295000	      3028	80000e18	da7d7e93	andi	x29,x26,-601	 x26:0xffff662c x29=0xffff6424
       30305000	      3029	80000e1c	01c6cf33	xor	x30,x13,x28	 x13:0x80009fc4 x28:0x00000001 x30=0x80009fc5
       30315000	      3030	80000e20	00e2dc33	srl	x24,x5,x14	  x5:0x80009f84 x14:0x00000000 x24=0x80009f84
       30325000	      3031	80000e24	015ca7b3	slt	x15,x25,x21	 x25:0x00000000 x21:0xffffffff x15=0x00000000
       30335000	      3032	80000e28	84dcec93	ori	x25,x25,-1971	 x25:0x00000000 x25=0xfffff84d
       30345000	      3033	80000e2c	005a57b3	srl	x15,x20,x5	 x20:0x4db85000  x5:0x80009f84 x15=0x04db8500
       30355000	      3034	80000e30	93d36c93	ori	x25,x6,-1731	  x6:0x00000001 x25=0xfffff93d
       30365000	      3035	80000e34	00529f93	slli	x31,x5,0x5	  x5:0x80009f84 x31=0x0013f080
       30375000	      3036	80000e38	0127a9b3	slt	x19,x15,x18	 x15:0x04db8500 x18:0x4977f000 x19=0x00000001
       30385000	      3037	80000e3c	03099263	bne	x19,x16,80000e60	 x19:0x00000001 x16:0x00000001
       30395000	      3038	80000e40	0522f863	bgeu	x5,x18,80000e90	  x5:0x80009f84 x18:0x4977f000
       30405000	      3039	00000000	00000013	addi	x0,x0,0	  x0:0x00000000
       30415000	      3040	80000e8c	00000013	addi	x0,x0,0	  x0:0x00000000
       30425000	      3041	80000e90	018bf433	and	x8,x23,x24	 x23:0x0a65039a x24:0x80009f84  x8=0x00000380
       30435000	      3042	80000e94	01cd9e63	bne	x27,x28,80000eb0	 x27:0x00000001 x28:0x00000001
       30445000	      3043	80000e98	ef10ff17	auipc	x30,0xef10f	 x30=0x6f10fe94
       30455000	      3044	80000e9c	02488663	beq	x17,x4,80000ec8	 x17:0x00000000  x4:0x00000000
       30465000	      3045	00000000	00000013	addi	x0,x0,0	  x0:0x00000000
       30475000	      3046	80000ec4	00000013	addi	x0,x0,0	  x0:0x00000000
       30485000	      3047	80000ec8	6fddf913	andi	x18,x27,1789	 x27:0x00000001 x18=0x00000001
       30495000	      3048	80000ecc	1f058793	addi	x15,x11,496	 x11:0xffffffee x15=0x000001de
       30505000	      3049	80000ed0	41f053b3	sra	x7,x0,x31	  x0:0x00000000 x31:0x0013f080  x7=0x00000000
       30515000	      3050	80000ed4	00745bb3	srl	x23,x8,x7	  x8:0x00000380  x7:0x00000000 x23=0x00000380
       30525000	      3051	80000ed8	412d8fb3	sub	x31,x27,x18	 x27:0x00000001 x18:0x00000001 x31=0x00000000
       30535000	      3052	80000edc	00001a17	auipc	x20,0x1	 x20=0x80001ed8
       30545000	      3053	80000ee0	284a0a13	addi	x20,x20,644	 x20:0x80001ed8 x20=0x8000215c
       30555000	      3054	80000ee4	de4a0a13	addi	x20,x20,-540	 x20:0x8000215c x20=0x80001f40
       30565000	      3055	80000ee8	00826233	or	x4,x4,x8	  x4:0x00000000  x8:0x00000380  x4=0x00000380
       30575000	      3056	80000eec	4004d013	srai	x0,x9,0x0	  x9:0x00000000
       30585000	      3057	80000ef0	017e9463	bne	x29,x23,80000ef8	 x29:0xffff6424 x23:0x00000380
       30595000	      3058	00000000	00000013	addi	x0,x0,0	  x0:0x00000000
       30605000	      3059	80000ef4	00000013	addi	x0,x0,0	  x0:0x00000000
       30615000	      3060	80000ef8	21ca0a67	jalr	x20,x20,540	 x20:0x80001f40 x20=0x80000ef8
       30625000	      3061	00000000	00000013	addi	x0,x0,0	  x0:0x00000000
       30635000	      3062	8000215c	00000013	addi	x0,x0,0	  x0:0x00000000
       30645000	      3063	80002160	01def863	bgeu	x29,x29,80002170	 x29:0xffff6424 x29:0xffff6424
       30655000	      3064	00000000	00000013	addi	x0,x0,0	  x0:0x00000000
       30665000	      3065	8000216c	00000013	addi	x0,x0,0	  x0:0x00000000
       30675000	      3066	80002170	fec28293	addi	x5,x5,-20	  x5:0x80009f84  x5=0x80009f70
       30685000	      3067	80002174	001b7cb3	and	x25,x22,x1	 x22:0xffffffef  x1:0x00000001 x25=0x00000001
       30695000	      3068	80002178	cb721f37	lui	x30,0xcb721	 x30=0xcb721000
       30705000	      3069	8000217c	0d5bf493	andi	x9,x23,213	 x23:0x00000380  x9=0x00000080
       30715000	      3070	80002180	0142a223	sw	x20,4(x5)	  x5:0x80009f70 x20:0x80000ef8 PA:0x80009f74
       30725000	      3071	80002184	01c10cb3	add	x25,x2,x28	  x2:0x00000001 x28:0x00000001 x25=0x00000002
       30735000	      3072	80002188	ec940613	addi	x12,x8,-311	  x8:0x00000380 x12=0x00000249
       30745000	      3073	8000218c	00800a6f	jal	x20,8000218c	 x20=0x8000218c
       30755000	      3074	00000000	00000013	addi	x0,x0,0	  x0:0x00000000
       30765000	      3075	80002190	00000013	addi	x0,x0,0	  x0:0x00000000
       30775000	      3076	80002194	0280036f	jal	x6,80002194	  x6=0x80002194
       30785000	      3077	00000000	00000013	addi	x0,x0,0	  x0:0x00000000
       30795000	      3078	800021b8	00000013	addi	x0,x0,0	  x0:0x00000000
       30805000	      3079	800021bc	fddff0ef	jal	x1,800021bc	  x1=0x800021bc
       30815000	      3080	00000000	00000013	addi	x0,x0,0	  x0:0x00000000
       30825000	      3081	80002194	00000013	addi	x0,x0,0	  x0:0x00000000
       30835000	      3082	80002198	00c00cef	jal	x25,80002198	 x25=0x80002198
       30845000	      3083	00000000	00000013	addi	x0,x0,0	  x0:0x00000000
       30855000	      3084	800021a0	00000013	addi	x0,x0,0	  x0:0x00000000
       30865000	      3085	800021a4	00c000ef	jal	x1,800021a4	  x1=0x800021a4
       30875000	      3086	00000000	00000013	addi	x0,x0,0	  x0:0x00000000
       30885000	      3087	800021ac	00000013	addi	x0,x0,0	  x0:0x00000000
       30895000	      3088	800021b0	008000ef	jal	x1,800021b0	  x1=0x800021b0
       30905000	      3089	00000000	00000013	addi	x0,x0,0	  x0:0x00000000
       30915000	      3090	800021b4	00000013	addi	x0,x0,0	  x0:0x00000000
       30925000	      3091	800021b8	fd9ff0ef	jal	x1,800021b8	  x1=0x800021b8
       30935000	      3092	00000000	00000013	addi	x0,x0,0	  x0:0x00000000
       30945000	      3093	8000218c	00000013	addi	x0,x0,0	  x0:0x00000000
       30955000	      3094	80002190	034000ef	jal	x1,80002190	  x1=0x80002190
       30965000	      3095	00000000	00000013	addi	x0,x0,0	  x0:0x00000000
       30975000	      3096	800021c0	00000013	addi	x0,x0,0	  x0:0x00000000
       30985000	      3097	800021c4	ffdff0ef	jal	x1,800021c4	  x1=0x800021c4
       30995000	      3098	00000000	00000013	addi	x0,x0,0	  x0:0x00000000
       31005000	      3099	800021bc	00000013	addi	x0,x0,0	  x0:0x00000000
       31015000	      3100	800021c0	ff5ff0ef	jal	x1,800021c0	  x1=0x800021c0
       31025000	      3101	00000000	00000013	addi	x0,x0,0	  x0:0x00000000
       31035000	      3102	800021b0	00000013	addi	x0,x0,0	  x0:0x00000000
       31045000	      3103	800021b4	fedff0ef	jal	x1,800021b4	  x1=0x800021b4
       31055000	      3104	00000000	00000013	addi	x0,x0,0	  x0:0x00000000
       31065000	      3105	8000219c	00000013	addi	x0,x0,0	  x0:0x00000000
       31075000	      3106	800021a0	ffdff36f	jal	x6,800021a0	  x6=0x800021a0
       31085000	      3107	00000000	00000013	addi	x0,x0,0	  x0:0x00000000
       31095000	      3108	80002198	00000013	addi	x0,x0,0	  x0:0x00000000
       31105000	      3109	8000219c	00c000ef	jal	x1,8000219c	  x1=0x8000219c
       31115000	      3110	00000000	00000013	addi	x0,x0,0	  x0:0x00000000
       31125000	      3111	800021a4	00000013	addi	x0,x0,0	  x0:0x00000000
       31135000	      3112	800021a8	0040036f	jal	x6,800021a8	  x6=0x800021a8
       31145000	      3113	00000000	00000013	addi	x0,x0,0	  x0:0x00000000
       31155000	      3114	800021a8	00000013	addi	x0,x0,0	  x0:0x00000000
       31165000	      3115	800021ac	01c0036f	jal	x6,800021ac	  x6=0x800021ac
       31175000	      3116	00000000	00000013	addi	x0,x0,0	  x0:0x00000000
       31185000	      3117	800021c4	00000013	addi	x0,x0,0	  x0:0x00000000
       31195000	      3118	800021c8	00fea733	slt	x14,x29,x15	 x29:0xffff6424 x15:0x000001de x14=0x00000001
       31205000	      3119	800021cc	02c00a6f	jal	x20,800021cc	 x20=0x800021cc
       31215000	      3120	00000000	00000013	addi	x0,x0,0	  x0:0x00000000
       31225000	      3121	800021f4	00000013	addi	x0,x0,0	  x0:0x00000000
       31235000	      3122	800021f8	fe1ff0ef	jal	x1,800021f8	  x1=0x800021f8
       31245000	      3123	00000000	00000013	addi	x0,x0,0	  x0:0x00000000
       31255000	      3124	800021d4	00000013	addi	x0,x0,0	  x0:0x00000000
       31265000	      3125	800021d8	ffdffcef	jal	x25,800021d8	 x25=0x800021d8
       31275000	      3126	00000000	00000013	addi	x0,x0,0	  x0:0x00000000
       31285000	      3127	800021d0	00000013	addi	x0,x0,0	  x0:0x00000000
       31295000	      3128	800021d4	02c000ef	jal	x1,800021d4	  x1=0x800021d4
       31305000	      3129	00000000	00000013	addi	x0,x0,0	  x0:0x00000000
       31315000	      3130	800021fc	00000013	addi	x0,x0,0	  x0:0x00000000
       31325000	      3131	80002200	fe1ff0ef	jal	x1,80002200	  x1=0x80002200
       31335000	      3132	00000000	00000013	addi	x0,x0,0	  x0:0x00000000
       31345000	      3133	800021dc	00000013	addi	x0,x0,0	  x0:0x00000000
       31355000	      3134	800021e0	014000ef	jal	x1,800021e0	  x1=0x800021e0
       31365000	      3135	00000000	00000013	addi	x0,x0,0	  x0:0x00000000
       31375000	      3136	800021f0	00000013	addi	x0,x0,0	  x0:0x00000000
       31385000	      3137	800021f4	ff5ff36f	jal	x6,800021f4	  x6=0x800021f4
       31395000	      3138	00000000	00000013	addi	x0,x0,0	  x0:0x00000000
       31405000	      3139	800021e4	00000013	addi	x0,x0,0	  x0:0x00000000
       31415000	      3140	800021e8	ff5ff86f	jal	x16,800021e8	 x16=0x800021e8
       31425000	      3141	00000000	00000013	addi	x0,x0,0	  x0:0x00000000
       31435000	      3142	800021d8	00000013	addi	x0,x0,0	  x0:0x00000000
       31445000	      3143	800021dc	010000ef	jal	x1,800021dc	  x1=0x800021dc
       31455000	      3144	00000000	00000013	addi	x0,x0,0	  x0:0x00000000
       31465000	      3145	800021e8	00000013	addi	x0,x0,0	  x0:0x00000000
       31475000	      3146	800021ec	ff9ff0ef	jal	x1,800021ec	  x1=0x800021ec
       31485000	      3147	00000000	00000013	addi	x0,x0,0	  x0:0x00000000
       31495000	      3148	800021e0	00000013	addi	x0,x0,0	  x0:0x00000000
       31505000	      3149	800021e4	00c000ef	jal	x1,800021e4	  x1=0x800021e4
       31515000	      3150	00000000	00000013	addi	x0,x0,0	  x0:0x00000000
       31525000	      3151	800021ec	00000013	addi	x0,x0,0	  x0:0x00000000
       31535000	      3152	800021f0	fe1ffc6f	jal	x24,800021f0	 x24=0x800021f0
       31545000	      3153	00000000	00000013	addi	x0,x0,0	  x0:0x00000000
       31555000	      3154	800021cc	00000013	addi	x0,x0,0	  x0:0x00000000
       31565000	      3155	800021d0	02c0096f	jal	x18,800021d0	 x18=0x800021d0
       31575000	      3156	00000000	00000013	addi	x0,x0,0	  x0:0x00000000
       31585000	      3157	800021f8	00000013	addi	x0,x0,0	  x0:0x00000000
       31595000	      3158	800021fc	0080066f	jal	x12,800021fc	 x12=0x800021fc
       31605000	      3159	00000000	00000013	addi	x0,x0,0	  x0:0x00000000
       31615000	      3160	80002200	00000013	addi	x0,x0,0	  x0:0x00000000
       31625000	      3161	80002204	015fb4b3	sltu	x9,x31,x21	 x31:0x00000000 x21:0xffffffff  x9=0x00000001
       31635000	      3162	80002208	01c00a6f	jal	x20,80002208	 x20=0x80002208
       31645000	      3163	00000000	00000013	addi	x0,x0,0	  x0:0x00000000
       31655000	      3164	80002220	00000013	addi	x0,x0,0	  x0:0x00000000
       31665000	      3165	80002224	03c000ef	jal	x1,80002224	  x1=0x80002224
       31675000	      3166	00000000	00000013	addi	x0,x0,0	  x0:0x00000000
       31685000	      3167	8000225c	00000013	addi	x0,x0,0	  x0:0x00000000
       31695000	      3168	80002260	fc1ff36f	jal	x6,80002260	  x6=0x80002260
       31705000	      3169	00000000	00000013	addi	x0,x0,0	  x0:0x00000000
       31715000	      3170	8000221c	00000013	addi	x0,x0,0	  x0:0x00000000
       31725000	      3171	80002220	fedff36f	jal	x6,80002220	  x6=0x80002220
       31735000	      3172	00000000	00000013	addi	x0,x0,0	  x0:0x00000000
       31745000	      3173	80002208	00000013	addi	x0,x0,0	  x0:0x00000000
       31755000	      3174	8000220c	0300036f	jal	x6,8000220c	  x6=0x8000220c
       31765000	      3175	00000000	00000013	addi	x0,x0,0	  x0:0x00000000
       31775000	      3176	80002238	00000013	addi	x0,x0,0	  x0:0x00000000
       31785000	      3177	8000223c	030000ef	jal	x1,8000223c	  x1=0x8000223c
       31795000	      3178	00000000	00000013	addi	x0,x0,0	  x0:0x00000000
       31805000	      3179	80002268	00000013	addi	x0,x0,0	  x0:0x00000000
       31815000	      3180	8000226c	008000ef	jal	x1,8000226c	  x1=0x8000226c
       31825000	      3181	00000000	00000013	addi	x0,x0,0	  x0:0x00000000
       31835000	      3182	80002270	00000013	addi	x0,x0,0	  x0:0x00000000
       31845000	      3183	80002274	ffdff0ef	jal	x1,80002274	  x1=0x80002274
       31855000	      3184	00000000	00000013	addi	x0,x0,0	  x0:0x00000000
       31865000	      3185	8000226c	00000013	addi	x0,x0,0	  x0:0x00000000
       31875000	      3186	80002270	fc1ff0ef	jal	x1,80002270	  x1=0x80002270
       31885000	      3187	00000000	00000013	addi	x0,x0,0	  x0:0x00000000
       31895000	      3188	8000222c	00000013	addi	x0,x0,0	  x0:0x00000000
       31905000	      3189	80002230	038000ef	jal	x1,80002230	  x1=0x80002230
       31915000	      3190	00000000	00000013	addi	x0,x0,0	  x0:0x00000000
       31925000	      3191	80002264	00000013	addi	x0,x0,0	  x0:0x00000000
       31935000	      3192	80002268	fb1ff0ef	jal	x1,80002268	  x1=0x80002268
       31945000	      3193	00000000	00000013	addi	x0,x0,0	  x0:0x00000000
       31955000	      3194	80002214	00000013	addi	x0,x0,0	  x0:0x00000000
       31965000	      3195	80002218	028000ef	jal	x1,80002218	  x1=0x80002218
       31975000	      3196	00000000	00000013	addi	x0,x0,0	  x0:0x00000000
       31985000	      3197	8000223c	00000013	addi	x0,x0,0	  x0:0x00000000
       31995000	      3198	80002240	fddffdef	jal	x27,80002240	 x27=0x80002240
       32005000	      3199	00000000	00000013	addi	x0,x0,0	  x0:0x00000000
       32015000	      3200	80002218	00000013	addi	x0,x0,0	  x0:0x00000000
       32025000	      3201	8000221c	038000ef	jal	x1,8000221c	  x1=0x8000221c
       32035000	      3202	00000000	00000013	addi	x0,x0,0	  x0:0x00000000
       32045000	      3203	80002250	00000013	addi	x0,x0,0	  x0:0x00000000
       32055000	      3204	80002254	fe5ff0ef	jal	x1,80002254	  x1=0x80002254
       32065000	      3205	00000000	00000013	addi	x0,x0,0	  x0:0x00000000
       32075000	      3206	80002234	00000013	addi	x0,x0,0	  x0:0x00000000
       32085000	      3207	80002238	fddff36f	jal	x6,80002238	  x6=0x80002238
       32095000	      3208	00000000	00000013	addi	x0,x0,0	  x0:0x00000000
       32105000	      3209	80002210	00000013	addi	x0,x0,0	  x0:0x00000000
       32115000	      3210	80002214	030000ef	jal	x1,80002214	  x1=0x80002214
       32125000	      3211	00000000	00000013	addi	x0,x0,0	  x0:0x00000000
       32135000	      3212	80002240	00000013	addi	x0,x0,0	  x0:0x00000000
       32145000	      3213	80002244	fcdff0ef	jal	x1,80002244	  x1=0x80002244
       32155000	      3214	00000000	00000013	addi	x0,x0,0	  x0:0x00000000
       32165000	      3215	8000220c	00000013	addi	x0,x0,0	  x0:0x00000000
       32175000	      3216	80002210	048001ef	jal	x3,80002210	  x3=0x80002210
       32185000	      3217	00000000	00000013	addi	x0,x0,0	  x0:0x00000000
       32195000	      3218	80002254	00000013	addi	x0,x0,0	  x0:0x00000000
       32205000	      3219	80002258	00c00aef	jal	x21,80002258	 x21=0x80002258
       32215000	      3220	00000000	00000013	addi	x0,x0,0	  x0:0x00000000
       32225000	      3221	80002260	00000013	addi	x0,x0,0	  x0:0x00000000
       32235000	      3222	80002264	fedff0ef	jal	x1,80002264	  x1=0x80002264
       32245000	      3223	00000000	00000013	addi	x0,x0,0	  x0:0x00000000
       32255000	      3224	8000224c	00000013	addi	x0,x0,0	  x0:0x00000000
       32265000	      3225	80002250	ffdff0ef	jal	x1,80002250	  x1=0x80002250
       32275000	      3226	00000000	00000013	addi	x0,x0,0	  x0:0x00000000
       32285000	      3227	80002248	00000013	addi	x0,x0,0	  x0:0x00000000
       32295000	      3228	8000224c	ffdff96f	jal	x18,8000224c	 x18=0x8000224c
       32305000	      3229	00000000	00000013	addi	x0,x0,0	  x0:0x00000000
       32315000	      3230	80002244	00000013	addi	x0,x0,0	  x0:0x00000000
       32325000	      3231	80002248	fe5ff7ef	jal	x15,80002248	 x15=0x80002248
       32335000	      3232	00000000	00000013	addi	x0,x0,0	  x0:0x00000000
       32345000	      3233	80002228	00000013	addi	x0,x0,0	  x0:0x00000000
       32355000	      3234	8000222c	ffdff16f	jal	x2,8000222c	  x2=0x8000222c
       32365000	      3235	00000000	00000013	addi	x0,x0,0	  x0:0x00000000
       32375000	      3236	80002224	00000013	addi	x0,x0,0	  x0:0x00000000
       32385000	      3237	80002228	034000ef	jal	x1,80002228	  x1=0x80002228
       32395000	      3238	00000000	00000013	addi	x0,x0,0	  x0:0x00000000
       32405000	      3239	80002258	00000013	addi	x0,x0,0	  x0:0x00000000
       32415000	      3240	8000225c	fd9ff96f	jal	x18,8000225c	 x18=0x8000225c
       32425000	      3241	00000000	00000013	addi	x0,x0,0	  x0:0x00000000
       32435000	      3242	80002230	00000013	addi	x0,x0,0	  x0:0x00000000
       32445000	      3243	80002234	044000ef	jal	x1,80002234	  x1=0x80002234
       32455000	      3244	00000000	00000013	addi	x0,x0,0	  x0:0x00000000
       32465000	      3245	80002274	00000013	addi	x0,x0,0	  x0:0x00000000
       32475000	      3246	80002278	01eff533	and	x10,x31,x30	 x31:0x00000000 x30:0xcb721000 x10=0x00000000
       32485000	      3247	8000227c	00800a6f	jal	x20,8000227c	 x20=0x8000227c
       32495000	      3248	00000000	00000013	addi	x0,x0,0	  x0:0x00000000
       32505000	      3249	80002280	00000013	addi	x0,x0,0	  x0:0x00000000
       32515000	      3250	80002284	ffdff36f	jal	x6,80002284	  x6=0x80002284
       32525000	      3251	00000000	00000013	addi	x0,x0,0	  x0:0x00000000
       32535000	      3252	8000227c	00000013	addi	x0,x0,0	  x0:0x00000000
       32545000	      3253	80002280	0240036f	jal	x6,80002280	  x6=0x80002280
       32555000	      3254	00000000	00000013	addi	x0,x0,0	  x0:0x00000000
       32565000	      3255	800022a0	00000013	addi	x0,x0,0	  x0:0x00000000
       32575000	      3256	800022a4	fedff0ef	jal	x1,800022a4	  x1=0x800022a4
       32585000	      3257	00000000	00000013	addi	x0,x0,0	  x0:0x00000000
       32595000	      3258	8000228c	00000013	addi	x0,x0,0	  x0:0x00000000
       32605000	      3259	80002290	ff9ff5ef	jal	x11,80002290	 x11=0x80002290
       32615000	      3260	00000000	00000013	addi	x0,x0,0	  x0:0x00000000
       32625000	      3261	80002284	00000013	addi	x0,x0,0	  x0:0x00000000
       32635000	      3262	80002288	00c000ef	jal	x1,80002288	  x1=0x80002288
       32645000	      3263	00000000	00000013	addi	x0,x0,0	  x0:0x00000000
       32655000	      3264	80002290	00000013	addi	x0,x0,0	  x0:0x00000000
       32665000	      3265	80002294	01400c6f	jal	x24,80002294	 x24=0x80002294
       32675000	      3266	00000000	00000013	addi	x0,x0,0	  x0:0x00000000
       32685000	      3267	800022a4	00000013	addi	x0,x0,0	  x0:0x00000000
       32695000	      3268	800022a8	ff1ff0ef	jal	x1,800022a8	  x1=0x800022a8
       32705000	      3269	00000000	00000013	addi	x0,x0,0	  x0:0x00000000
       32715000	      3270	80002294	00000013	addi	x0,x0,0	  x0:0x00000000
       32725000	      3271	80002298	008000ef	jal	x1,80002298	  x1=0x80002298
       32735000	      3272	00000000	00000013	addi	x0,x0,0	  x0:0x00000000
       32745000	      3273	8000229c	00000013	addi	x0,x0,0	  x0:0x00000000
       32755000	      3274	800022a0	fedff7ef	jal	x15,800022a0	 x15=0x800022a0
       32765000	      3275	00000000	00000013	addi	x0,x0,0	  x0:0x00000000
       32775000	      3276	80002288	00000013	addi	x0,x0,0	  x0:0x00000000
       32785000	      3277	8000228c	010000ef	jal	x1,8000228c	  x1=0x8000228c
       32795000	      3278	00000000	00000013	addi	x0,x0,0	  x0:0x00000000
       32805000	      3279	80002298	00000013	addi	x0,x0,0	  x0:0x00000000
       32815000	      3280	8000229c	0100016f	jal	x2,8000229c	  x2=0x8000229c
       32825000	      3281	00000000	00000013	addi	x0,x0,0	  x0:0x00000000
       32835000	      3282	800022a8	00000013	addi	x0,x0,0	  x0:0x00000000
       32845000	      3283	800022ac	41285713	srai	x14,x16,0x12	 x16:0x800021e8 x14=0xffffe000
       32855000	      3284	800022b0	04400a6f	jal	x20,800022b0	 x20=0x800022b0
       32865000	      3285	00000000	00000013	addi	x0,x0,0	  x0:0x00000000
       32875000	      3286	800022f0	00000013	addi	x0,x0,0	  x0:0x00000000
       32885000	      3287	800022f4	fd1ff46f	jal	x8,800022f4	  x8=0x800022f4
       32895000	      3288	00000000	00000013	addi	x0,x0,0	  x0:0x00000000
       32905000	      3289	800022c0	00000013	addi	x0,x0,0	  x0:0x00000000
       32915000	      3290	800022c4	ff9ff0ef	jal	x1,800022c4	  x1=0x800022c4
       32925000	      3291	00000000	00000013	addi	x0,x0,0	  x0:0x00000000
       32935000	      3292	800022b8	00000013	addi	x0,x0,0	  x0:0x00000000
       32945000	      3293	800022bc	030008ef	jal	x17,800022bc	 x17=0x800022bc
       32955000	      3294	00000000	00000013	addi	x0,x0,0	  x0:0x00000000
       32965000	      3295	800022e8	00000013	addi	x0,x0,0	  x0:0x00000000
       32975000	      3296	800022ec	fc9ff0ef	jal	x1,800022ec	  x1=0x800022ec
       32985000	      3297	00000000	00000013	addi	x0,x0,0	  x0:0x00000000
       32995000	      3298	800022b0	00000013	addi	x0,x0,0	  x0:0x00000000
       33005000	      3299	800022b4	03c00fef	jal	x31,800022b4	 x31=0x800022b4
       33015000	      3300	00000000	00000013	addi	x0,x0,0	  x0:0x00000000
       33025000	      3301	800022ec	00000013	addi	x0,x0,0	  x0:0x00000000
       33035000	      3302	800022f0	00800c6f	jal	x24,800022f0	 x24=0x800022f0
       33045000	      3303	00000000	00000013	addi	x0,x0,0	  x0:0x00000000
       33055000	      3304	800022f4	00000013	addi	x0,x0,0	  x0:0x00000000
       33065000	      3305	800022f8	fd1ff76f	jal	x14,800022f8	 x14=0x800022f8
       33075000	      3306	00000000	00000013	addi	x0,x0,0	  x0:0x00000000
       33085000	      3307	800022c4	00000013	addi	x0,x0,0	  x0:0x00000000
       33095000	      3308	800022c8	0200036f	jal	x6,800022c8	  x6=0x800022c8
       33105000	      3309	00000000	00000013	addi	x0,x0,0	  x0:0x00000000
       33115000	      3310	800022e4	00000013	addi	x0,x0,0	  x0:0x00000000
       33125000	      3311	800022e8	fe9ff26f	jal	x4,800022e8	  x4=0x800022e8
       33135000	      3312	00000000	00000013	addi	x0,x0,0	  x0:0x00000000
       33145000	      3313	800022cc	00000013	addi	x0,x0,0	  x0:0x00000000
       33155000	      3314	800022d0	ff1ff36f	jal	x6,800022d0	  x6=0x800022d0
       33165000	      3315	00000000	00000013	addi	x0,x0,0	  x0:0x00000000
       33175000	      3316	800022bc	00000013	addi	x0,x0,0	  x0:0x00000000
       33185000	      3317	800022c0	ff9ffbef	jal	x23,800022c0	 x23=0x800022c0
       33195000	      3318	00000000	00000013	addi	x0,x0,0	  x0:0x00000000
       33205000	      3319	800022b4	00000013	addi	x0,x0,0	  x0:0x00000000
       33215000	      3320	800022b8	02c0036f	jal	x6,800022b8	  x6=0x800022b8
       33225000	      3321	00000000	00000013	addi	x0,x0,0	  x0:0x00000000
       33235000	      3322	800022e0	00000013	addi	x0,x0,0	  x0:0x00000000
       33245000	      3323	800022e4	fe9ff0ef	jal	x1,800022e4	  x1=0x800022e4
       33255000	      3324	00000000	00000013	addi	x0,x0,0	  x0:0x00000000
       33265000	      3325	800022c8	00000013	addi	x0,x0,0	  x0:0x00000000
       33275000	      3326	800022cc	008000ef	jal	x1,800022cc	  x1=0x800022cc
       33285000	      3327	00000000	00000013	addi	x0,x0,0	  x0:0x00000000
       33295000	      3328	800022d0	00000013	addi	x0,x0,0	  x0:0x00000000
       33305000	      3329	800022d4	004000ef	jal	x1,800022d4	  x1=0x800022d4
       33315000	      3330	00000000	00000013	addi	x0,x0,0	  x0:0x00000000
       33325000	      3331	800022d4	00000013	addi	x0,x0,0	  x0:0x00000000
       33335000	      3332	800022d8	0080016f	jal	x2,800022d8	  x2=0x800022d8
       33345000	      3333	00000000	00000013	addi	x0,x0,0	  x0:0x00000000
       33355000	      3334	800022dc	00000013	addi	x0,x0,0	  x0:0x00000000
       33365000	      3335	800022e0	ffdff0ef	jal	x1,800022e0	  x1=0x800022e0
       33375000	      3336	00000000	00000013	addi	x0,x0,0	  x0:0x00000000
       33385000	      3337	800022d8	00000013	addi	x0,x0,0	  x0:0x00000000
       33395000	      3338	800022dc	020000ef	jal	x1,800022dc	  x1=0x800022dc
       33405000	      3339	00000000	00000013	addi	x0,x0,0	  x0:0x00000000
       33415000	      3340	800022f8	00000013	addi	x0,x0,0	  x0:0x00000000
       33425000	      3341	800022fc	538f1bb7	lui	x23,0x538f1	 x23=0x538f1000
       33435000	      3342	80002300	01264433	xor	x8,x12,x18	 x12:0x800021fc x18:0x8000225c  x8=0x000003a0
       33445000	      3343	80002304	0fb14593	xori	x11,x2,251	  x2:0x800022d8 x11=0x80002223
       33455000	      3344	80002308	ae5b7193	andi	x3,x22,-1307	 x22:0xffffffef  x3=0xfffffae5
       33465000	      3345	8000230c	c86ce813	ori	x16,x25,-890	 x25:0x800021d8 x16=0xfffffdde
       33475000	      3346	80002310	004a2233	slt	x4,x20,x4	 x20:0x800022b0  x4:0x800022e8  x4=0x00000001
       33485000	      3347	80002314	0105e133	or	x2,x11,x16	 x11:0x80002223 x16:0xfffffdde  x2=0xffffffff
       33495000	      3348	80002318	941f0937	lui	x18,0x941f0	 x18=0x941f0000
       33505000	      3349	8000231c	ebc8eb13	ori	x22,x17,-324	 x17:0x800022bc x22=0xfffffebc
       33515000	      3350	80002320	01145eb3	srl	x29,x8,x17	  x8:0x000003a0 x17:0x800022bc x29=0x00000000
       33525000	      3351	80002324	0021d133	srl	x2,x3,x2	  x3:0xfffffae5  x2:0xffffffff  x2=0x00000001
       33535000	      3352	80002328	00000013	addi	x0,x0,0	  x0:0x00000000
       33545000	      3353	8000232c	31c27917	auipc	x18,0x31c27	 x18=0xb1c29328
       33555000	      3354	80002330	02bef193	andi	x3,x29,43	 x29:0x00000000  x3=0x00000000
       33565000	      3355	80002334	00eaedb3	or	x27,x21,x14	 x21:0x80002258 x14:0x800022f8 x27=0x800022f8
       33575000	      3356	80002338	004f5733	srl	x14,x30,x4	 x30:0xcb721000  x4:0x00000001 x14=0x65b90800
       33585000	      3357	8000233c	03064a63	blt	x12,x16,80002370	 x12:0x800021fc x16:0xfffffdde
       33595000	      3358	00000000	00000013	addi	x0,x0,0	  x0:0x00000000
       33605000	      3359	8000236c	00000013	addi	x0,x0,0	  x0:0x00000000
       33615000	      3360	80002370	0140fa33	and	x20,x1,x20	  x1:0x800022dc x20:0x800022b0 x20=0x80002290
       33625000	      3361	80002374	01a6da63	bge	x13,x26,80002388	 x13:0x80009fc4 x26:0xffff662c
       33635000	      3362	80002378	01b77633	and	x12,x14,x27	 x14:0x65b90800 x27:0x800022f8 x12=0x00000000
       33645000	      3363	8000237c	01806e63	bltu	x0,x24,80002398	  x0:0x00000000 x24:0x800022f0
       33655000	      3364	00000000	00000013	addi	x0,x0,0	  x0:0x00000000
       33665000	      3365	80002394	00000013	addi	x0,x0,0	  x0:0x00000000
       33675000	      3366	80002398	002201b3	add	x3,x4,x2	  x4:0x00000001  x2:0x00000001  x3=0x00000002
       33685000	      3367	8000239c	6a295db7	lui	x27,0x6a295	 x27=0x6a295000
       33695000	      3368	800023a0	0042b9b3	sltu	x19,x5,x4	  x5:0x80009f70  x4:0x00000001 x19=0x00000000
       33705000	      3369	800023a4	ac3b3337	lui	x6,0xac3b3	  x6=0xac3b3000
       33715000	      3370	800023a8	021ed663	bge	x29,x1,800023d4	 x29:0x00000000  x1:0x800022dc
       33725000	      3371	00000000	00000013	addi	x0,x0,0	  x0:0x00000000
       33735000	      3372	800023d0	00000013	addi	x0,x0,0	  x0:0x00000000
       33745000	      3373	800023d4	00ecc833	xor	x16,x25,x14	 x25:0x800021d8 x14:0x65b90800 x16=0xe5b929d8
       33755000	      3374	800023d8	f6a8bb13	sltiu	x22,x17,-150	 x17:0x800022bc x22=0x00000001
       33765000	      3375	800023dc	03874a63	blt	x14,x24,80002410	 x14:0x65b90800 x24:0x800022f0
       33775000	      3376	800023e0	0096d013	srli	x0,x13,0x9	 x13:0x80009fc4
       33785000	      3377	800023e4	011f1393	slli	x7,x30,0x11	 x30:0xcb721000  x7=0x20000000
       33795000	      3378	800023e8	00000013	addi	x0,x0,0	  x0:0x00000000
       33805000	      3379	800023ec	01437e63	bgeu	x6,x20,80002408	  x6:0xac3b3000 x20:0x80002290
       33815000	      3380	00000000	00000013	addi	x0,x0,0	  x0:0x00000000
       33825000	      3381	80002404	00000013	addi	x0,x0,0	  x0:0x00000000
       33835000	      3382	80002408	413e89b3	sub	x19,x29,x19	 x29:0x00000000 x19:0x00000000 x19=0x00000000
       33845000	      3383	8000240c	9f757613	andi	x12,x10,-1545	 x10:0x00000000 x12=0x00000000
       33855000	      3384	80002410	b425b213	sltiu	x4,x11,-1214	 x11:0x80002223  x4=0x00000001
       33865000	      3385	80002414	00e6bcb3	sltu	x25,x13,x14	 x13:0x80009fc4 x14:0x65b90800 x25=0x00000000
       33875000	      3386	80002418	d00fcf93	xori	x31,x31,-768	 x31:0x800022b4 x31=0x7fffdfb4
       33885000	      3387	8000241c	0127cdb3	xor	x27,x15,x18	 x15:0x800022a0 x18:0xb1c29328 x27=0x31c2b188
       33895000	      3388	80002420	40ac5793	srai	x15,x24,0xa	 x24:0x800022f0 x15=0xffe00008
       33905000	      3389	80002424	72560913	addi	x18,x12,1829	 x12:0x00000000 x18=0x00000725
       33915000	      3390	80002428	e028b713	sltiu	x14,x17,-510	 x17:0x800022bc x14=0x00000001
       33925000	      3391	8000242c	010df263	bgeu	x27,x16,80002430	 x27:0x31c2b188 x16:0xe5b929d8
       33935000	      3392	80002430	001df633	and	x12,x27,x1	 x27:0x31c2b188  x1:0x800022dc x12=0x00002088
       33945000	      3393	80002434	a56a2093	slti	x1,x20,-1450	 x20:0x80002290  x1=0x00000001
       33955000	      3394	80002438	00a7fd33	and	x26,x15,x10	 x15:0xffe00008 x10:0x00000000 x26=0x00000000
       33965000	      3395	8000243c	0027fc33	and	x24,x15,x2	 x15:0xffe00008  x2:0x00000001 x24=0x00000000
       33975000	      3396	80002440	016a5813	srli	x16,x20,0x16	 x20:0x80002290 x16=0x00000200
       33985000	      3397	80002444	4f480113	addi	x2,x16,1268	 x16:0x00000200  x2=0x000006f4
       33995000	      3398	80002448	021d0a63	beq	x26,x1,8000247c	 x26:0x00000000  x1:0x00000001
       34005000	      3399	8000244c	6f03b317	auipc	x6,0x6f03b	  x6=0xef03d448
       34015000	      3400	80002450	00000013	addi	x0,x0,0	  x0:0x00000000
       34025000	      3401	80002454	01ed1a33	sll	x20,x26,x30	 x26:0x00000000 x30:0xcb721000 x20=0x00000000
       34035000	      3402	80002458	97d4a393	slti	x7,x9,-1667	  x9:0x00000001  x7=0x00000000
       34045000	      3403	8000245c	03f8e463	bltu	x17,x31,80002484	 x17:0x800022bc x31:0x7fffdfb4
       34055000	      3404	80002460	4178d593	srai	x11,x17,0x17	 x17:0x800022bc x11=0xffffff00
       34065000	      3405	80002464	05f27263	bgeu	x4,x31,800024a8	  x4:0x00000001 x31:0x7fffdfb4
       34075000	      3406	80002468	c9db3213	sltiu	x4,x22,-867	 x22:0x00000001  x4=0x00000001
       34085000	      3407	8000246c	00000013	addi	x0,x0,0	  x0:0x00000000
       34095000	      3408	80002470	65037593	andi	x11,x6,1616	  x6:0xef03d448 x11=0x00000440
       34105000	      3409	80002474	4132d613	srai	x12,x5,0x13	  x5:0x80009f70 x12=0xfffff000
       34115000	      3410	80002478	0145d3b7	lui	x7,0x145d	  x7=0x0145d000
       34125000	      3411	8000247c	00ad61b3	or	x3,x26,x10	 x26:0x00000000 x10:0x00000000  x3=0x00000000
       34135000	      3412	80002480	15ea3a93	sltiu	x21,x20,350	 x20:0x00000000 x21=0x00000001
       34145000	      3413	80002484	01929a63	bne	x5,x25,80002498	  x5:0x80009f70 x25:0x00000000
       34155000	      3414	00000000	00000013	addi	x0,x0,0	  x0:0x00000000
       34165000	      3415	80002494	00000013	addi	x0,x0,0	  x0:0x00000000
       34175000	      3416	80002498	40d15c13	srai	x24,x2,0xd	  x2:0x000006f4 x24=0x00000000
       34185000	      3417	8000249c	416e5c33	sra	x24,x28,x22	 x28:0x00000001 x22:0x00000001 x24=0x00000000
       34195000	      3418	800024a0	01700bb3	add	x23,x0,x23	  x0:0x00000000 x23:0x538f1000 x23=0x538f1000
       34205000	      3419	800024a4	01ac4033	xor	x0,x24,x26	 x24:0x00000000 x26:0x00000000
       34215000	      3420	800024a8	413b0233	sub	x4,x22,x19	 x22:0x00000001 x19:0x00000000  x4=0x00000001
       34225000	      3421	800024ac	01bf80b3	add	x1,x31,x27	 x31:0x7fffdfb4 x27:0x31c2b188  x1=0xb1c2913c
       34235000	      3422	800024b0	00df3a33	sltu	x20,x30,x13	 x30:0xcb721000 x13:0x80009fc4 x20=0x00000000
       34245000	      3423	800024b4	00ff0d33	add	x26,x30,x15	 x30:0xcb721000 x15:0xffe00008 x26=0xcb521008
       34255000	      3424	800024b8	00c29a63	bne	x5,x12,800024cc	  x5:0x80009f70 x12:0xfffff000
       34265000	      3425	00000000	00000013	addi	x0,x0,0	  x0:0x00000000
       34275000	      3426	800024c8	00000013	addi	x0,x0,0	  x0:0x00000000
       34285000	      3427	800024cc	00858c33	add	x24,x11,x8	 x11:0x00000440  x8:0x000003a0 x24=0x000007e0
       34295000	      3428	800024d0	035b9463	bne	x23,x21,800024f8	 x23:0x538f1000 x21:0x00000001
       34305000	      3429	00000000	00000013	addi	x0,x0,0	  x0:0x00000000
       34315000	      3430	800024f4	00000013	addi	x0,x0,0	  x0:0x00000000
       34325000	      3431	800024f8	02789063	bne	x17,x7,80002518	 x17:0x800022bc  x7:0x0145d000
       34335000	      3432	00000000	00000013	addi	x0,x0,0	  x0:0x00000000
       34345000	      3433	80002514	00000013	addi	x0,x0,0	  x0:0x00000000
       34355000	      3434	80002518	003a5393	srli	x7,x20,0x3	 x20:0x00000000  x7=0x00000000
       34365000	      3435	8000251c	75c1f517	auipc	x10,0x75c1f	 x10=0xf5c21518
       34375000	      3436	80002520	02a19063	bne	x3,x10,80002540	  x3:0x00000000 x10:0xf5c21518
       34385000	      3437	00000000	00000013	addi	x0,x0,0	  x0:0x00000000
       34395000	      3438	8000253c	00000013	addi	x0,x0,0	  x0:0x00000000
       34405000	      3439	80002540	00000013	addi	x0,x0,0	  x0:0x00000000
       34415000	      3440	80002544	c4502813	slti	x16,x0,-955	  x0:0x00000000 x16=0x00000000
       34425000	      3441	80002548	92232993	slti	x19,x6,-1758	  x6:0xef03d448 x19=0x00000001
       34435000	      3442	8000254c	2895bb13	sltiu	x22,x11,649	 x11:0x00000440 x22=0x00000000
       34445000	      3443	80002550	003c1893	slli	x17,x24,0x3	 x24:0x000007e0 x17=0x00003f00
       34455000	      3444	80002554	0200f463	bgeu	x1,x0,8000257c	  x1:0xb1c2913c  x0:0x00000000
       34465000	      3445	00000000	00000013	addi	x0,x0,0	  x0:0x00000000
       34475000	      3446	80002578	00000013	addi	x0,x0,0	  x0:0x00000000
       34485000	      3447	8000257c	4cc02313	slti	x6,x0,1228	  x0:0x00000000  x6=0x00000001
       34495000	      3448	80002580	05f14463	blt	x2,x31,800025c8	  x2:0x000006f4 x31:0x7fffdfb4
       34505000	      3449	00000000	00000013	addi	x0,x0,0	  x0:0x00000000
       34515000	      3450	800025c4	00000013	addi	x0,x0,0	  x0:0x00000000
       34525000	      3451	800025c8	014ee133	or	x2,x29,x20	 x29:0x00000000 x20:0x00000000  x2=0x00000000
       34535000	      3452	800025cc	e3937393	andi	x7,x6,-455	  x6:0x00000001  x7=0x00000001
       34545000	      3453	800025d0	010e5593	srli	x11,x28,0x10	 x28:0x00000001 x11=0x00000000
       34555000	      3454	800025d4	008e9733	sll	x14,x29,x8	 x29:0x00000000  x8:0x000003a0 x14=0x00000000
       34565000	      3455	800025d8	012a9f33	sll	x30,x21,x18	 x21:0x00000001 x18:0x00000725 x30=0x00000020
       34575000	      3456	800025dc	018c63b3	or	x7,x24,x24	 x24:0x000007e0 x24:0x000007e0  x7=0x000007e0
       34585000	      3457	800025e0	008fa333	slt	x6,x31,x8	 x31:0x7fffdfb4  x8:0x000003a0  x6=0x00000000
       34595000	      3458	800025e4	015f7633	and	x12,x30,x21	 x30:0x00000020 x21:0x00000001 x12=0x00000000
       34605000	      3459	800025e8	4b3dfa13	andi	x20,x27,1203	 x27:0x31c2b188 x20=0x00000080
       34615000	      3460	800025ec	05000a6f	jal	x20,800025ec	 x20=0x800025ec
       34625000	      3461	00000000	00000013	addi	x0,x0,0	  x0:0x00000000
       34635000	      3462	80002638	00000013	addi	x0,x0,0	  x0:0x00000000
       34645000	      3463	8000263c	fc9ff46f	jal	x8,8000263c	  x8=0x8000263c
       34655000	      3464	00000000	00000013	addi	x0,x0,0	  x0:0x00000000
       34665000	      3465	80002600	00000013	addi	x0,x0,0	  x0:0x00000000
       34675000	      3466	80002604	02c000ef	jal	x1,80002604	  x1=0x80002604
       34685000	      3467	00000000	00000013	addi	x0,x0,0	  x0:0x00000000
       34695000	      3468	8000262c	00000013	addi	x0,x0,0	  x0:0x00000000
       34705000	      3469	80002630	fc1ff0ef	jal	x1,80002630	  x1=0x80002630
       34715000	      3470	00000000	00000013	addi	x0,x0,0	  x0:0x00000000
       34725000	      3471	800025ec	00000013	addi	x0,x0,0	  x0:0x00000000
       34735000	      3472	800025f0	04800a6f	jal	x20,800025f0	 x20=0x800025f0
       34745000	      3473	00000000	00000013	addi	x0,x0,0	  x0:0x00000000
       34755000	      3474	80002634	00000013	addi	x0,x0,0	  x0:0x00000000
       34765000	      3475	80002638	ff1ff0ef	jal	x1,80002638	  x1=0x80002638
       34775000	      3476	00000000	00000013	addi	x0,x0,0	  x0:0x00000000
       34785000	      3477	80002624	00000013	addi	x0,x0,0	  x0:0x00000000
       34795000	      3478	80002628	018000ef	jal	x1,80002628	  x1=0x80002628
       34805000	      3479	00000000	00000013	addi	x0,x0,0	  x0:0x00000000
       34815000	      3480	8000263c	00000013	addi	x0,x0,0	  x0:0x00000000
       34825000	      3481	80002640	fcdff0ef	jal	x1,80002640	  x1=0x80002640
       34835000	      3482	00000000	00000013	addi	x0,x0,0	  x0:0x00000000
       34845000	      3483	80002608	00000013	addi	x0,x0,0	  x0:0x00000000
       34855000	      3484	8000260c	fedffcef	jal	x25,8000260c	 x25=0x8000260c
       34865000	      3485	00000000	00000013	addi	x0,x0,0	  x0:0x00000000
       34875000	      3486	800025f4	00000013	addi	x0,x0,0	  x0:0x00000000
       34885000	      3487	800025f8	03400cef	jal	x25,800025f8	 x25=0x800025f8
       34895000	      3488	00000000	00000013	addi	x0,x0,0	  x0:0x00000000
       34905000	      3489	80002628	00000013	addi	x0,x0,0	  x0:0x00000000
       34915000	      3490	8000262c	fd5ff0ef	jal	x1,8000262c	  x1=0x8000262c
       34925000	      3491	00000000	00000013	addi	x0,x0,0	  x0:0x00000000
       34935000	      3492	800025fc	00000013	addi	x0,x0,0	  x0:0x00000000
       34945000	      3493	80002600	0200036f	jal	x6,80002600	  x6=0x80002600
       34955000	      3494	00000000	00000013	addi	x0,x0,0	  x0:0x00000000
       34965000	      3495	8000261c	00000013	addi	x0,x0,0	  x0:0x00000000
       34975000	      3496	80002620	004008ef	jal	x17,80002620	 x17=0x80002620
       34985000	      3497	00000000	00000013	addi	x0,x0,0	  x0:0x00000000
       34995000	      3498	80002620	00000013	addi	x0,x0,0	  x0:0x00000000
       35005000	      3499	80002624	ff5ff36f	jal	x6,80002624	  x6=0x80002624
       35015000	      3500	00000000	00000013	addi	x0,x0,0	  x0:0x00000000
       35025000	      3501	80002614	00000013	addi	x0,x0,0	  x0:0x00000000
       35035000	      3502	80002618	004000ef	jal	x1,80002618	  x1=0x80002618
       35045000	      3503	00000000	00000013	addi	x0,x0,0	  x0:0x00000000
       35055000	      3504	80002618	00000013	addi	x0,x0,0	  x0:0x00000000
       35065000	      3505	8000261c	ff9ff0ef	jal	x1,8000261c	  x1=0x8000261c
       35075000	      3506	00000000	00000013	addi	x0,x0,0	  x0:0x00000000
       35085000	      3507	80002610	00000013	addi	x0,x0,0	  x0:0x00000000
       35095000	      3508	80002614	0200086f	jal	x16,80002614	 x16=0x80002614
       35105000	      3509	00000000	00000013	addi	x0,x0,0	  x0:0x00000000
       35115000	      3510	80002630	00000013	addi	x0,x0,0	  x0:0x00000000
       35125000	      3511	80002634	fc1ff0ef	jal	x1,80002634	  x1=0x80002634
       35135000	      3512	00000000	00000013	addi	x0,x0,0	  x0:0x00000000
       35145000	      3513	800025f0	00000013	addi	x0,x0,0	  x0:0x00000000
       35155000	      3514	800025f4	060000ef	jal	x1,800025f4	  x1=0x800025f4
       35165000	      3515	00000000	00000013	addi	x0,x0,0	  x0:0x00000000
       35175000	      3516	80002650	00000013	addi	x0,x0,0	  x0:0x00000000
       35185000	      3517	80002654	fa9ffd6f	jal	x26,80002654	 x26=0x80002654
       35195000	      3518	00000000	00000013	addi	x0,x0,0	  x0:0x00000000
       35205000	      3519	800025f8	00000013	addi	x0,x0,0	  x0:0x00000000
       35215000	      3520	800025fc	00c000ef	jal	x1,800025fc	  x1=0x800025fc
       35225000	      3521	00000000	00000013	addi	x0,x0,0	  x0:0x00000000
       35235000	      3522	80002604	00000013	addi	x0,x0,0	  x0:0x00000000
       35245000	      3523	80002608	044000ef	jal	x1,80002608	  x1=0x80002608
       35255000	      3524	00000000	00000013	addi	x0,x0,0	  x0:0x00000000
       35265000	      3525	80002648	00000013	addi	x0,x0,0	  x0:0x00000000
       35275000	      3526	8000264c	00c0036f	jal	x6,8000264c	  x6=0x8000264c
       35285000	      3527	00000000	00000013	addi	x0,x0,0	  x0:0x00000000
       35295000	      3528	80002654	00000013	addi	x0,x0,0	  x0:0x00000000
       35305000	      3529	80002658	ff9ff36f	jal	x6,80002658	  x6=0x80002658
       35315000	      3530	00000000	00000013	addi	x0,x0,0	  x0:0x00000000
       35325000	      3531	8000264c	00000013	addi	x0,x0,0	  x0:0x00000000
       35335000	      3532	80002650	ff9ffcef	jal	x25,80002650	 x25=0x80002650
       35345000	      3533	00000000	00000013	addi	x0,x0,0	  x0:0x00000000
       35355000	      3534	80002644	00000013	addi	x0,x0,0	  x0:0x00000000
       35365000	      3535	80002648	ffdff1ef	jal	x3,80002648	  x3=0x80002648
       35375000	      3536	00000000	00000013	addi	x0,x0,0	  x0:0x00000000
       35385000	      3537	80002640	00000013	addi	x0,x0,0	  x0:0x00000000
       35395000	      3538	80002644	fcdff0ef	jal	x1,80002644	  x1=0x80002644
       35405000	      3539	00000000	00000013	addi	x0,x0,0	  x0:0x00000000
       35415000	      3540	8000260c	00000013	addi	x0,x0,0	  x0:0x00000000
       35425000	      3541	80002610	04c0036f	jal	x6,80002610	  x6=0x80002610
       35435000	      3542	00000000	00000013	addi	x0,x0,0	  x0:0x00000000
       35445000	      3543	80002658	00000013	addi	x0,x0,0	  x0:0x00000000
       35455000	      3544	8000265c	00000013	addi	x0,x0,0	  x0:0x00000000
       35465000	      3545	80002660	00000013	addi	x0,x0,0	  x0:0x00000000
       35475000	      3546	80002664	0119c263	blt	x19,x17,80002668	 x19:0x00000001 x17:0x80002620
       35485000	      3547	80002668	54b13213	sltiu	x4,x2,1355	  x2:0x00000000  x4=0x00000001
       35495000	      3548	8000266c	00f55717	auipc	x14,0xf55	 x14=0x80f57668
       35505000	      3549	80002670	ac0fae93	slti	x29,x31,-1344	 x31:0x7fffdfb4 x29=0x00000000
       35515000	      3550	80002674	015cca63	blt	x25,x21,80002688	 x25:0x80002650 x21:0x00000001
       35525000	      3551	00000000	00000013	addi	x0,x0,0	  x0:0x00000000
       35535000	      3552	80002684	00000013	addi	x0,x0,0	  x0:0x00000000
       35545000	      3553	80002688	00809013	slli	x0,x1,0x8	  x1:0x80002644
       35555000	      3554	8000268c	00e75633	srl	x12,x14,x14	 x14:0x80f57668 x14:0x80f57668 x12=0x0080f576
       35565000	      3555	80002690	04291263	bne	x18,x2,800026d4	 x18:0x00000725  x2:0x00000000
       35575000	      3556	00000000	00000013	addi	x0,x0,0	  x0:0x00000000
       35585000	      3557	800026d0	00000013	addi	x0,x0,0	  x0:0x00000000
       35595000	      3558	800026d4	02609d17	auipc	x26,0x2609	 x26=0x8260b6d0
       35605000	      3559	800026d8	012d0c33	add	x24,x26,x18	 x26:0x8260b6d0 x18:0x00000725 x24=0x8260bdf5
       35615000	      3560	800026dc	e1348213	addi	x4,x9,-493	  x9:0x00000001  x4=0xfffffe14
       35625000	      3561	800026e0	0173f263	bgeu	x7,x23,800026e4	  x7:0x000007e0 x23:0x538f1000
       35635000	      3562	800026e4	63b4f093	andi	x1,x9,1595	  x9:0x00000001  x1=0x00000001
       35645000	      3563	800026e8	01125193	srli	x3,x4,0x11	  x4:0xfffffe14  x3=0x00007fff
       35655000	      3564	800026ec	408180b3	sub	x1,x3,x8	  x3:0x00007fff  x8:0x8000263c  x1=0x800059c3
       35665000	      3565	800026f0	01d0ee63	bltu	x1,x29,8000270c	  x1:0x800059c3 x29:0x00000000
       35675000	      3566	800026f4	007f9a13	slli	x20,x31,0x7	 x31:0x7fffdfb4 x20=0xffefda00
       35685000	      3567	800026f8	00000013	addi	x0,x0,0	  x0:0x00000000
       35695000	      3568	800026fc	41c6da93	srai	x21,x13,0x1c	 x13:0x80009fc4 x21=0xfffffff8
       35705000	      3569	80002700	c7428093	addi	x1,x5,-908	  x5:0x80009f70  x1=0x80009be4
       35715000	      3570	80002704	006adb93	srli	x23,x21,0x6	 x21:0xfffffff8 x23=0x03ffffff
       35725000	      3571	80002708	00e4cf33	xor	x30,x9,x14	  x9:0x00000001 x14:0x80f57668 x30=0x80f57669
       35735000	      3572	8000270c	01b92fb3	slt	x31,x18,x27	 x18:0x00000725 x27:0x31c2b188 x31=0x00000001
       35745000	      3573	80002710	412b5a13	srai	x20,x22,0x12	 x22:0x00000000 x20=0x00000000
       35755000	      3574	80002714	00516e63	bltu	x2,x5,80002730	  x2:0x00000000  x5:0x80009f70
       35765000	      3575	00000000	00000013	addi	x0,x0,0	  x0:0x00000000
       35775000	      3576	8000272c	00000013	addi	x0,x0,0	  x0:0x00000000
       35785000	      3577	80002730	00000013	addi	x0,x0,0	  x0:0x00000000
       35795000	      3578	80002734	01d241b3	xor	x3,x4,x29	  x4:0xfffffe14 x29:0x00000000  x3=0xfffffe14
       35805000	      3579	80002738	41465fb3	sra	x31,x12,x20	 x12:0x0080f576 x20:0x00000000 x31=0x0080f576
       35815000	      3580	8000273c	41945f13	srai	x30,x8,0x19	  x8:0x8000263c x30=0xffffffc0
       35825000	      3581	80002740	0009d7b3	srl	x15,x19,x0	 x19:0x00000001  x0:0x00000000 x15=0x00000001
       35835000	      3582	80002744	01d24ab3	xor	x21,x4,x29	  x4:0xfffffe14 x29:0x00000000 x21=0xfffffe14
       35845000	      3583	80002748	00000013	addi	x0,x0,0	  x0:0x00000000
       35855000	      3584	8000274c	00a98033	add	x0,x19,x10	 x19:0x00000001 x10:0xf5c21518
       35865000	      3585	80002750	03401263	bne	x0,x20,80002774	  x0:0x00000000 x20:0x00000000
       35875000	      3586	80002754	00000013	addi	x0,x0,0	  x0:0x00000000
       35885000	      3587	80002758	333e7b93	andi	x23,x28,819	 x28:0x00000001 x23=0x00000001
       35895000	      3588	8000275c	25649717	auipc	x14,0x25649	 x14=0xa564b758
       35905000	      3589	80002760	004fdc13	srli	x24,x31,0x4	 x31:0x0080f576 x24=0x00080f57
       35915000	      3590	80002764	03c67663	bgeu	x12,x28,80002790	 x12:0x0080f576 x28:0x00000001
       35925000	      3591	00000000	00000013	addi	x0,x0,0	  x0:0x00000000
       35935000	      3592	8000278c	00000013	addi	x0,x0,0	  x0:0x00000000
       35945000	      3593	80002790	cad8bb13	sltiu	x22,x17,-851	 x17:0x80002620 x22=0x00000001
       35955000	      3594	80002794	0068b233	sltu	x4,x17,x6	 x17:0x80002620  x6:0x80002610  x4=0x00000000
       35965000	      3595	80002798	bd9c2a17	auipc	x20,0xbd9c2	 x20=0x3d9c4794
       35975000	      3596	8000279c	21f44317	auipc	x6,0x21f44	  x6=0xa1f46798
       35985000	      3597	800027a0	00c00a6f	jal	x20,800027a0	 x20=0x800027a0
       35995000	      3598	00000000	00000013	addi	x0,x0,0	  x0:0x00000000
       36005000	      3599	800027a8	00000013	addi	x0,x0,0	  x0:0x00000000
       36015000	      3600	800027ac	06400a6f	jal	x20,800027ac	 x20=0x800027ac
       36025000	      3601	00000000	00000013	addi	x0,x0,0	  x0:0x00000000
       36035000	      3602	8000280c	00000013	addi	x0,x0,0	  x0:0x00000000
       36045000	      3603	80002810	fd5ff36f	jal	x6,80002810	  x6=0x80002810
       36055000	      3604	00000000	00000013	addi	x0,x0,0	  x0:0x00000000
       36065000	      3605	800027e0	00000013	addi	x0,x0,0	  x0:0x00000000
       36075000	      3606	800027e4	fedff0ef	jal	x1,800027e4	  x1=0x800027e4
       36085000	      3607	00000000	00000013	addi	x0,x0,0	  x0:0x00000000
       36095000	      3608	800027cc	00000013	addi	x0,x0,0	  x0:0x00000000
       36105000	      3609	800027d0	00c009ef	jal	x19,800027d0	 x19=0x800027d0
       36115000	      3610	00000000	00000013	addi	x0,x0,0	  x0:0x00000000
       36125000	      3611	800027d8	00000013	addi	x0,x0,0	  x0:0x00000000
       36135000	      3612	800027dc	fe9ff36f	jal	x6,800027dc	  x6=0x800027dc
       36145000	      3613	00000000	00000013	addi	x0,x0,0	  x0:0x00000000
       36155000	      3614	800027c0	00000013	addi	x0,x0,0	  x0:0x00000000
       36165000	      3615	800027c4	ff1ff0ef	jal	x1,800027c4	  x1=0x800027c4
       36175000	      3616	00000000	00000013	addi	x0,x0,0	  x0:0x00000000
       36185000	      3617	800027b0	00000013	addi	x0,x0,0	  x0:0x00000000
       36195000	      3618	800027b4	008000ef	jal	x1,800027b4	  x1=0x800027b4
       36205000	      3619	00000000	00000013	addi	x0,x0,0	  x0:0x00000000
       36215000	      3620	800027b8	00000013	addi	x0,x0,0	  x0:0x00000000
       36225000	      3621	800027bc	fe9ff26f	jal	x4,800027bc	  x4=0x800027bc
       36235000	      3622	00000000	00000013	addi	x0,x0,0	  x0:0x00000000
       36245000	      3623	800027a0	00000013	addi	x0,x0,0	  x0:0x00000000
       36255000	      3624	800027a4	0140086f	jal	x16,800027a4	 x16=0x800027a4
       36265000	      3625	00000000	00000013	addi	x0,x0,0	  x0:0x00000000
       36275000	      3626	800027b4	00000013	addi	x0,x0,0	  x0:0x00000000
       36285000	      3627	800027b8	0200036f	jal	x6,800027b8	  x6=0x800027b8
       36295000	      3628	00000000	00000013	addi	x0,x0,0	  x0:0x00000000
       36305000	      3629	800027d4	00000013	addi	x0,x0,0	  x0:0x00000000
       36315000	      3630	800027d8	0180036f	jal	x6,800027d8	  x6=0x800027d8
       36325000	      3631	00000000	00000013	addi	x0,x0,0	  x0:0x00000000
       36335000	      3632	800027ec	00000013	addi	x0,x0,0	  x0:0x00000000
       36345000	      3633	800027f0	ff1ff26f	jal	x4,800027f0	  x4=0x800027f0
       36355000	      3634	00000000	00000013	addi	x0,x0,0	  x0:0x00000000
       36365000	      3635	800027dc	00000013	addi	x0,x0,0	  x0:0x00000000
       36375000	      3636	800027e0	018000ef	jal	x1,800027e0	  x1=0x800027e0
       36385000	      3637	00000000	00000013	addi	x0,x0,0	  x0:0x00000000
       36395000	      3638	800027f4	00000013	addi	x0,x0,0	  x0:0x00000000
       36405000	      3639	800027f8	014000ef	jal	x1,800027f8	  x1=0x800027f8
       36415000	      3640	00000000	00000013	addi	x0,x0,0	  x0:0x00000000
       36425000	      3641	80002808	00000013	addi	x0,x0,0	  x0:0x00000000
       36435000	      3642	8000280c	fb5ff16f	jal	x2,8000280c	  x2=0x8000280c
       36445000	      3643	00000000	00000013	addi	x0,x0,0	  x0:0x00000000
       36455000	      3644	800027bc	00000013	addi	x0,x0,0	  x0:0x00000000
       36465000	      3645	800027c0	034000ef	jal	x1,800027c0	  x1=0x800027c0
       36475000	      3646	00000000	00000013	addi	x0,x0,0	  x0:0x00000000
       36485000	      3647	800027f0	00000013	addi	x0,x0,0	  x0:0x00000000
       36495000	      3648	800027f4	fe1ff36f	jal	x6,800027f4	  x6=0x800027f4
       36505000	      3649	00000000	00000013	addi	x0,x0,0	  x0:0x00000000
       36515000	      3650	800027d0	00000013	addi	x0,x0,0	  x0:0x00000000
       36525000	      3651	800027d4	02c000ef	jal	x1,800027d4	  x1=0x800027d4
       36535000	      3652	00000000	00000013	addi	x0,x0,0	  x0:0x00000000
       36545000	      3653	800027fc	00000013	addi	x0,x0,0	  x0:0x00000000
       36555000	      3654	80002800	fcdff16f	jal	x2,80002800	  x2=0x80002800
       36565000	      3655	00000000	00000013	addi	x0,x0,0	  x0:0x00000000
       36575000	      3656	800027c8	00000013	addi	x0,x0,0	  x0:0x00000000
       36585000	      3657	800027cc	038000ef	jal	x1,800027cc	  x1=0x800027cc
       36595000	      3658	00000000	00000013	addi	x0,x0,0	  x0:0x00000000
       36605000	      3659	80002800	00000013	addi	x0,x0,0	  x0:0x00000000
       36615000	      3660	80002804	fe9ff0ef	jal	x1,80002804	  x1=0x80002804
       36625000	      3661	00000000	00000013	addi	x0,x0,0	  x0:0x00000000
       36635000	      3662	800027e8	00000013	addi	x0,x0,0	  x0:0x00000000
       36645000	      3663	800027ec	fddff0ef	jal	x1,800027ec	  x1=0x800027ec
       36655000	      3664	00000000	00000013	addi	x0,x0,0	  x0:0x00000000
       36665000	      3665	800027c4	00000013	addi	x0,x0,0	  x0:0x00000000
       36675000	      3666	800027c8	fe9ffb6f	jal	x22,800027c8	 x22=0x800027c8
       36685000	      3667	00000000	00000013	addi	x0,x0,0	  x0:0x00000000
       36695000	      3668	800027ac	00000013	addi	x0,x0,0	  x0:0x00000000
       36705000	      3669	800027b0	038000ef	jal	x1,800027b0	  x1=0x800027b0
       36715000	      3670	00000000	00000013	addi	x0,x0,0	  x0:0x00000000
       36725000	      3671	800027e4	00000013	addi	x0,x0,0	  x0:0x00000000
       36735000	      3672	800027e8	fc1ff26f	jal	x4,800027e8	  x4=0x800027e8
       36745000	      3673	00000000	00000013	addi	x0,x0,0	  x0:0x00000000
       36755000	      3674	800027a4	00000013	addi	x0,x0,0	  x0:0x00000000
       36765000	      3675	800027a8	0540036f	jal	x6,800027a8	  x6=0x800027a8
       36775000	      3676	00000000	00000013	addi	x0,x0,0	  x0:0x00000000
       36785000	      3677	800027f8	00000013	addi	x0,x0,0	  x0:0x00000000
       36795000	      3678	800027fc	00c0036f	jal	x6,800027fc	  x6=0x800027fc
       36805000	      3679	00000000	00000013	addi	x0,x0,0	  x0:0x00000000
       36815000	      3680	80002804	00000013	addi	x0,x0,0	  x0:0x00000000
       36825000	      3681	80002808	00c000ef	jal	x1,80002808	  x1=0x80002808
       36835000	      3682	00000000	00000013	addi	x0,x0,0	  x0:0x00000000
       36845000	      3683	80002810	00000013	addi	x0,x0,0	  x0:0x00000000
       36855000	      3684	80002814	6e4ba493	slti	x9,x23,1764	 x23:0x00000001  x9=0x00000001
       36865000	      3685	80002818	41cf5413	srai	x8,x30,0x1c	 x30:0xffffffc0  x8=0xffffffff
       36875000	      3686	8000281c	02611463	bne	x2,x6,80002844	  x2:0x80002800  x6:0x800027fc
       36885000	      3687	00000000	00000013	addi	x0,x0,0	  x0:0x00000000
       36895000	      3688	80002840	00000013	addi	x0,x0,0	  x0:0x00000000
       36905000	      3689	80002844	f7c4ad13	slti	x26,x9,-132	  x9:0x00000001 x26=0x00000000
       36915000	      3690	80002848	3a8d2193	slti	x3,x26,936	 x26:0x00000000  x3=0x00000001
       36925000	      3691	8000284c	7a188597	auipc	x11,0x7a188	 x11=0xfa18a848
       36935000	      3692	80002850	400a5993	srai	x19,x20,0x0	 x20:0x800027ac x19=0x800027ac
       36945000	      3693	80002854	41ef5513	srai	x10,x30,0x1e	 x30:0xffffffc0 x10=0xffffffff
       36955000	      3694	80002858	01b65993	srli	x19,x12,0x1b	 x12:0x0080f576 x19=0x00000000
       36965000	      3695	8000285c	02950463	beq	x10,x9,80002884	 x10:0xffffffff  x9:0x00000001
       36975000	      3696	80002860	034b6c63	bltu	x22,x20,80002898	 x22:0x800027c8 x20:0x800027ac
       36985000	      3697	80002864	41de5193	srai	x3,x28,0x1d	 x28:0x00000001  x3=0x00000000
       36995000	      3698	80002868	00321393	slli	x7,x4,0x3	  x4:0x800027e8  x7=0x00013f40
       37005000	      3699	8000286c	01754a63	blt	x10,x23,80002880	 x10:0xffffffff x23:0x00000001
       37015000	      3700	00000000	00000013	addi	x0,x0,0	  x0:0x00000000
       37025000	      3701	8000287c	00000013	addi	x0,x0,0	  x0:0x00000000
       37035000	      3702	80002880	00ac9a13	slli	x20,x25,0xa	 x25:0x80002650 x20=0x00994000
       37045000	      3703	80002884	01a27463	bgeu	x4,x26,8000288c	  x4:0x800027e8 x26:0x00000000
       37055000	      3704	00000000	00000013	addi	x0,x0,0	  x0:0x00000000
       37065000	      3705	80002888	00000013	addi	x0,x0,0	  x0:0x00000000
       37075000	      3706	8000288c	ff4cb493	sltiu	x9,x25,-12	 x25:0x80002650  x9=0x00000001
       37085000	      3707	80002890	b7cc7813	andi	x16,x24,-1156	 x24:0x00080f57 x16=0x00080b54
       37095000	      3708	80002894	b9a4b093	sltiu	x1,x9,-1126	  x9:0x00000001  x1=0x00000001
       37105000	      3709	80002898	04ad0263	beq	x26,x10,800028dc	 x26:0x00000000 x10:0xffffffff
       37115000	      3710	8000289c	b8c2cf37	lui	x30,0xb8c2c	 x30=0xb8c2c000
       37125000	      3711	800028a0	01ff1093	slli	x1,x30,0x1f	 x30:0xb8c2c000  x1=0x00000000
       37135000	      3712	800028a4	f1417093	andi	x1,x2,-236	  x2:0x80002800  x1=0x80002800
       37145000	      3713	800028a8	fd4a4c97	auipc	x25,0xfd4a4	 x25=0x7d4a68a4
       37155000	      3714	800028ac	20aef813	andi	x16,x29,522	 x29:0x00000000 x16=0x00000000
       37165000	      3715	800028b0	01459f13	slli	x30,x11,0x14	 x11:0xfa18a848 x30=0x84800000
       37175000	      3716	800028b4	bfcaae93	slti	x29,x21,-1028	 x21:0xfffffe14 x29=0x00000000
       37185000	      3717	800028b8	a2af7db7	lui	x27,0xa2af7	 x27=0xa2af7000
       37195000	      3718	800028bc	00801213	slli	x4,x0,0x8	  x0:0x00000000  x4=0x00000000
       37205000	      3719	800028c0	6ac06e93	ori	x29,x0,1708	  x0:0x00000000 x29=0x000006ac
       37215000	      3720	800028c4	9db88113	addi	x2,x17,-1573	 x17:0x80002620  x2=0x80001ffb
       37225000	      3721	800028c8	12912f93	slti	x31,x2,297	  x2:0x80001ffb x31=0x00000001
       37235000	      3722	800028cc	000710b3	sll	x1,x14,x0	 x14:0xa564b758  x0:0x00000000  x1=0xa564b758
       37245000	      3723	800028d0	01345e63	bge	x8,x19,800028ec	  x8:0xffffffff x19:0x00000000
       37255000	      3724	800028d4	a485fb13	andi	x22,x11,-1464	 x11:0xfa18a848 x22=0xfa18a848
       37265000	      3725	800028d8	904ab793	sltiu	x15,x21,-1788	 x21:0xfffffe14 x15=0x00000000
       37275000	      3726	800028dc	338f4593	xori	x11,x30,824	 x30:0x84800000 x11=0x84800338
       37285000	      3727	800028e0	54ba3a13	sltiu	x20,x20,1355	 x20:0x00994000 x20=0x00000000
       37295000	      3728	800028e4	39a1b113	sltiu	x2,x3,922	  x3:0x00000000  x2=0x00000001
       37305000	      3729	800028e8	00b39493	slli	x9,x7,0xb	  x7:0x00013f40  x9=0x09fa0000
       37315000	      3730	800028ec	82f13493	sltiu	x9,x2,-2001	  x2:0x00000001  x9=0x00000001
       37325000	      3731	800028f0	01992bb3	slt	x23,x18,x25	 x18:0x00000725 x25:0x7d4a68a4 x23=0x00000001
       37335000	      3732	800028f4	01eaa833	slt	x16,x21,x30	 x21:0xfffffe14 x30:0x84800000 x16=0x00000000
       37345000	      3733	800028f8	4052ddb3	sra	x27,x5,x5	  x5:0x80009f70  x5:0x80009f70 x27=0xffff8000
       37355000	      3734	800028fc	01c46033	or	x0,x8,x28	  x8:0xffffffff x28:0x00000001
       37365000	      3735	80002900	00c20a63	beq	x4,x12,80002914	  x4:0x00000000 x12:0x0080f576
       37375000	      3736	80002904	000c57b3	srl	x15,x24,x0	 x24:0x00080f57  x0:0x00000000 x15=0x00080f57
       37385000	      3737	80002908	00d130b3	sltu	x1,x2,x13	  x2:0x00000001 x13:0x80009fc4  x1=0x00000001
       37395000	      3738	8000290c	002811b3	sll	x3,x16,x2	 x16:0x00000000  x2:0x00000001  x3=0x00000000
       37405000	      3739	80002910	4022d513	srai	x10,x5,0x2	  x5:0x80009f70 x10=0xe00027dc
       37415000	      3740	80002914	05dc6463	bltu	x24,x29,8000295c	 x24:0x00080f57 x29:0x000006ac
       37425000	      3741	80002918	03ffde63	bge	x31,x31,80002954	 x31:0x00000001 x31:0x00000001
       37435000	      3742	00000000	00000013	addi	x0,x0,0	  x0:0x00000000
       37445000	      3743	80002950	00000013	addi	x0,x0,0	  x0:0x00000000
       37455000	      3744	80002954	ac055bb7	lui	x23,0xac055	 x23=0xac055000
       37465000	      3745	80002958	0152cab3	xor	x21,x5,x21	  x5:0x80009f70 x21:0xfffffe14 x21=0x7fff6164
       37475000	      3746	8000295c	01d3abb3	slt	x23,x7,x29	  x7:0x00013f40 x29:0x000006ac x23=0x00000000
       37485000	      3747	80002960	03748863	beq	x9,x23,80002990	  x9:0x00000001 x23:0x00000000
       37495000	      3748	80002964	414c5c33	sra	x24,x24,x20	 x24:0x00080f57 x20:0x00000000 x24=0x00080f57
       37505000	      3749	80002968	017d8233	add	x4,x27,x23	 x27:0xffff8000 x23:0x00000000  x4=0xffff8000
       37515000	      3750	8000296c	00aeb0b3	sltu	x1,x29,x10	 x29:0x000006ac x10:0xe00027dc  x1=0x00000001
       37525000	      3751	80002970	a0548993	addi	x19,x9,-1531	  x9:0x00000001 x19=0xfffffa06
       37535000	      3752	80002974	74d45897	auipc	x17,0x74d45	 x17=0xf4d47970
       37545000	      3753	80002978	8098a393	slti	x7,x17,-2039	 x17:0xf4d47970  x7=0x00000001
       37555000	      3754	8000297c	04785863	bge	x16,x7,800029cc	 x16:0x00000000  x7:0x00000001
       37565000	      3755	80002980	1323c817	auipc	x16,0x1323c	 x16=0x9323e97c
       37575000	      3756	80002984	00393833	sltu	x16,x18,x3	 x18:0x00000725  x3:0x00000000 x16=0x00000000
       37585000	      3757	80002988	014f38b3	sltu	x17,x30,x20	 x30:0x84800000 x20:0x00000000 x17=0x00000000
       37595000	      3758	8000298c	003a7933	and	x18,x20,x3	 x20:0x00000000  x3:0x00000000 x18=0x00000000
       37605000	      3759	80002990	04244863	blt	x8,x2,800029e0	  x8:0xffffffff  x2:0x00000001
       37615000	      3760	00000000	00000013	addi	x0,x0,0	  x0:0x00000000
       37625000	      3761	800029dc	00000013	addi	x0,x0,0	  x0:0x00000000
       37635000	      3762	800029e0	0388da63	bge	x17,x24,80002a14	 x17:0x00000000 x24:0x00080f57
       37645000	      3763	800029e4	01519e63	bne	x3,x21,80002a00	  x3:0x00000000 x21:0x7fff6164
       37655000	      3764	00000000	00000013	addi	x0,x0,0	  x0:0x00000000
       37665000	      3765	800029fc	00000013	addi	x0,x0,0	  x0:0x00000000
       37675000	      3766	80002a00	03ae5263	bge	x28,x26,80002a24	 x28:0x00000001 x26:0x00000000
       37685000	      3767	00000000	00000013	addi	x0,x0,0	  x0:0x00000000
       37695000	      3768	80002a20	00000013	addi	x0,x0,0	  x0:0x00000000
       37705000	      3769	80002a24	00000013	addi	x0,x0,0	  x0:0x00000000
       37715000	      3770	80002a28	41fbd133	sra	x2,x23,x31	 x23:0x00000000 x31:0x00000001  x2=0x00000000
       37725000	      3771	80002a2c	008e9c63	bne	x29,x8,80002a44	 x29:0x000006ac  x8:0xffffffff
       37735000	      3772	00000000	00000013	addi	x0,x0,0	  x0:0x00000000
       37745000	      3773	80002a40	00000013	addi	x0,x0,0	  x0:0x00000000
       37755000	      3774	80002a44	5fb19937	lui	x18,0x5fb19	 x18=0x5fb19000
       37765000	      3775	80002a48	0a74ea63	bltu	x9,x7,80002afc	  x9:0x00000001  x7:0x00000001
       37775000	      3776	80002a4c	1bd4cd13	xori	x26,x9,445	  x9:0x00000001 x26=0x000001bc
       37785000	      3777	80002a50	08a3c663	blt	x7,x10,80002adc	  x7:0x00000001 x10:0xe00027dc
       37795000	      3778	80002a54	40595d93	srai	x27,x18,0x5	 x18:0x5fb19000 x27=0x02fd8c80
       37805000	      3779	80002a58	092c7c63	bgeu	x24,x18,80002af0	 x24:0x00080f57 x18:0x5fb19000
       37815000	      3780	80002a5c	2e0ad117	auipc	x2,0x2e0ad	  x2=0xae0afa58
       37825000	      3781	80002a60	0905e263	bltu	x11,x16,80002ae4	 x11:0x84800338 x16:0x00000000
       37835000	      3782	80002a64	0181efb3	or	x31,x3,x24	  x3:0x00000000 x24:0x00080f57 x31=0x00080f57
       37845000	      3783	80002a68	40235db3	sra	x27,x6,x2	  x6:0x800027fc  x2:0xae0afa58 x27=0xffffff80
       37855000	      3784	80002a6c	04c00a6f	jal	x20,80002a6c	 x20=0x80002a6c
       37865000	      3785	00000000	00000013	addi	x0,x0,0	  x0:0x00000000
       37875000	      3786	80002ab4	00000013	addi	x0,x0,0	  x0:0x00000000
       37885000	      3787	80002ab8	fe5ff0ef	jal	x1,80002ab8	  x1=0x80002ab8
       37895000	      3788	00000000	00000013	addi	x0,x0,0	  x0:0x00000000
       37905000	      3789	80002a98	00000013	addi	x0,x0,0	  x0:0x00000000
       37915000	      3790	80002a9c	0080036f	jal	x6,80002a9c	  x6=0x80002a9c
       37925000	      3791	00000000	00000013	addi	x0,x0,0	  x0:0x00000000
       37935000	      3792	80002aa0	00000013	addi	x0,x0,0	  x0:0x00000000
       37945000	      3793	80002aa4	fe9fffef	jal	x31,80002aa4	 x31=0x80002aa4
       37955000	      3794	00000000	00000013	addi	x0,x0,0	  x0:0x00000000
       37965000	      3795	80002a88	00000013	addi	x0,x0,0	  x0:0x00000000
       37975000	      3796	80002a8c	00c000ef	jal	x1,80002a8c	  x1=0x80002a8c
       37985000	      3797	00000000	00000013	addi	x0,x0,0	  x0:0x00000000
       37995000	      3798	80002a94	00000013	addi	x0,x0,0	  x0:0x00000000
       38005000	      3799	80002a98	03000b6f	jal	x22,80002a98	 x22=0x80002a98
       38015000	      3800	00000000	00000013	addi	x0,x0,0	  x0:0x00000000
       38025000	      3801	80002ac4	00000013	addi	x0,x0,0	  x0:0x00000000
       38035000	      3802	80002ac8	fe1ff26f	jal	x4,80002ac8	  x4=0x80002ac8
       38045000	      3803	00000000	00000013	addi	x0,x0,0	  x0:0x00000000
       38055000	      3804	80002aa4	00000013	addi	x0,x0,0	  x0:0x00000000
       38065000	      3805	80002aa8	fd9ff0ef	jal	x1,80002aa8	  x1=0x80002aa8
       38075000	      3806	00000000	00000013	addi	x0,x0,0	  x0:0x00000000
       38085000	      3807	80002a7c	00000013	addi	x0,x0,0	  x0:0x00000000
       38095000	      3808	80002a80	050000ef	jal	x1,80002a80	  x1=0x80002a80
       38105000	      3809	00000000	00000013	addi	x0,x0,0	  x0:0x00000000
       38115000	      3810	80002acc	00000013	addi	x0,x0,0	  x0:0x00000000
       38125000	      3811	80002ad0	fa9ff0ef	jal	x1,80002ad0	  x1=0x80002ad0
       38135000	      3812	00000000	00000013	addi	x0,x0,0	  x0:0x00000000
       38145000	      3813	80002a74	00000013	addi	x0,x0,0	  x0:0x00000000
       38155000	      3814	80002a78	03c000ef	jal	x1,80002a78	  x1=0x80002a78
       38165000	      3815	00000000	00000013	addi	x0,x0,0	  x0:0x00000000
       38175000	      3816	80002ab0	00000013	addi	x0,x0,0	  x0:0x00000000
       38185000	      3817	80002ab4	fc1ff0ef	jal	x1,80002ab4	  x1=0x80002ab4
       38195000	      3818	00000000	00000013	addi	x0,x0,0	  x0:0x00000000
       38205000	      3819	80002a70	00000013	addi	x0,x0,0	  x0:0x00000000
       38215000	      3820	80002a74	01c00f6f	jal	x30,80002a74	 x30=0x80002a74
       38225000	      3821	00000000	00000013	addi	x0,x0,0	  x0:0x00000000
       38235000	      3822	80002a8c	00000013	addi	x0,x0,0	  x0:0x00000000
       38245000	      3823	80002a90	010000ef	jal	x1,80002a90	  x1=0x80002a90
       38255000	      3824	00000000	00000013	addi	x0,x0,0	  x0:0x00000000
       38265000	      3825	80002a9c	00000013	addi	x0,x0,0	  x0:0x00000000
       38275000	      3826	80002aa0	02c000ef	jal	x1,80002aa0	  x1=0x80002aa0
       38285000	      3827	00000000	00000013	addi	x0,x0,0	  x0:0x00000000
       38295000	      3828	80002ac8	00000013	addi	x0,x0,0	  x0:0x00000000
       38305000	      3829	80002acc	ff9ff0ef	jal	x1,80002acc	  x1=0x80002acc
       38315000	      3830	00000000	00000013	addi	x0,x0,0	  x0:0x00000000
       38325000	      3831	80002ac0	00000013	addi	x0,x0,0	  x0:0x00000000
       38335000	      3832	80002ac4	ff9ff26f	jal	x4,80002ac4	  x4=0x80002ac4
       38345000	      3833	00000000	00000013	addi	x0,x0,0	  x0:0x00000000
       38355000	      3834	80002ab8	00000013	addi	x0,x0,0	  x0:0x00000000
       38365000	      3835	80002abc	fc9ff0ef	jal	x1,80002abc	  x1=0x80002abc
       38375000	      3836	00000000	00000013	addi	x0,x0,0	  x0:0x00000000
       38385000	      3837	80002a80	00000013	addi	x0,x0,0	  x0:0x00000000
       38395000	      3838	80002a84	03c000ef	jal	x1,80002a84	  x1=0x80002a84
       38405000	      3839	00000000	00000013	addi	x0,x0,0	  x0:0x00000000
       38415000	      3840	80002abc	00000013	addi	x0,x0,0	  x0:0x00000000
       38425000	      3841	80002ac0	fb1ff0ef	jal	x1,80002ac0	  x1=0x80002ac0
       38435000	      3842	00000000	00000013	addi	x0,x0,0	  x0:0x00000000
       38445000	      3843	80002a6c	00000013	addi	x0,x0,0	  x0:0x00000000
       38455000	      3844	80002a70	03c000ef	jal	x1,80002a70	  x1=0x80002a70
       38465000	      3845	00000000	00000013	addi	x0,x0,0	  x0:0x00000000
       38475000	      3846	80002aa8	00000013	addi	x0,x0,0	  x0:0x00000000
       38485000	      3847	80002aac	fe9ff0ef	jal	x1,80002aac	  x1=0x80002aac
       38495000	      3848	00000000	00000013	addi	x0,x0,0	  x0:0x00000000
       38505000	      3849	80002a90	00000013	addi	x0,x0,0	  x0:0x00000000
       38515000	      3850	80002a94	01c000ef	jal	x1,80002a94	  x1=0x80002a94
       38525000	      3851	00000000	00000013	addi	x0,x0,0	  x0:0x00000000
       38535000	      3852	80002aac	00000013	addi	x0,x0,0	  x0:0x00000000
       38545000	      3853	80002ab0	fcdff0ef	jal	x1,80002ab0	  x1=0x80002ab0
       38555000	      3854	00000000	00000013	addi	x0,x0,0	  x0:0x00000000
       38565000	      3855	80002a78	00000013	addi	x0,x0,0	  x0:0x00000000
       38575000	      3856	80002a7c	058000ef	jal	x1,80002a7c	  x1=0x80002a7c
       38585000	      3857	00000000	00000013	addi	x0,x0,0	  x0:0x00000000
       38595000	      3858	80002ad0	00000013	addi	x0,x0,0	  x0:0x00000000
       38605000	      3859	80002ad4	fb5ff86f	jal	x16,80002ad4	 x16=0x80002ad4
       38615000	      3860	00000000	00000013	addi	x0,x0,0	  x0:0x00000000
       38625000	      3861	80002a84	00000013	addi	x0,x0,0	  x0:0x00000000
       38635000	      3862	80002a88	050000ef	jal	x1,80002a88	  x1=0x80002a88
       38645000	      3863	00000000	00000013	addi	x0,x0,0	  x0:0x00000000
       38655000	      3864	80002ad4	00000013	addi	x0,x0,0	  x0:0x00000000
       38665000	      3865	80002ad8	01bc1713	slli	x14,x24,0x1b	 x24:0x00080f57 x14=0xb8000000
       38675000	      3866	80002adc	3e65e713	ori	x14,x11,998	 x11:0x84800338 x14=0x848003fe
       38685000	      3867	80002ae0	009ca3b3	slt	x7,x25,x9	 x25:0x7d4a68a4  x9:0x00000001  x7=0x00000000
       38695000	      3868	80002ae4	03b9f063	bgeu	x19,x27,80002b04	 x19:0xfffffa06 x27:0xffffff80
       38705000	      3869	80002ae8	00df35b3	sltu	x11,x30,x13	 x30:0x80002a74 x13:0x80009fc4 x11=0x00000001
       38715000	      3870	80002aec	01bab7b3	sltu	x15,x21,x27	 x21:0x7fff6164 x27:0xffffff80 x15=0x00000001
       38725000	      3871	80002af0	000a8893	addi	x17,x21,0	 x21:0x7fff6164 x17=0x7fff6164
       38735000	      3872	80002af4	e7e9f813	andi	x16,x19,-386	 x19:0xfffffa06 x16=0xfffffa06
       38745000	      3873	80002af8	8e76b893	sltiu	x17,x13,-1817	 x13:0x80009fc4 x17=0x00000001
       38755000	      3874	80002afc	85827913	andi	x18,x4,-1960	  x4:0x80002ac4 x18=0x80002840
       38765000	      3875	80002b00	6eb52c93	slti	x25,x10,1771	 x10:0xe00027dc x25=0x00000001
       38775000	      3876	80002b04	01fdd493	srli	x9,x27,0x1f	 x27:0xffffff80  x9=0x00000001
       38785000	      3877	80002b08	5a237b13	andi	x22,x6,1442	  x6:0x80002a9c x22=0x00000080
       38795000	      3878	80002b0c	f2e6fc13	andi	x24,x13,-210	 x13:0x80009fc4 x24=0x80009f04
       38805000	      3879	80002b10	01dfe663	bltu	x31,x29,80002b1c	 x31:0x80002aa4 x29:0x000006ac
       38815000	      3880	80002b14	00be1f33	sll	x30,x28,x11	 x28:0x00000001 x11:0x00000001 x30=0x00000002
       38825000	      3881	80002b18	94a93893	sltiu	x17,x18,-1718	 x18:0x80002840 x17=0x00000001
       38835000	      3882	80002b1c	00e99433	sll	x8,x19,x14	 x19:0xfffffa06 x14:0x848003fe  x8=0x80000000
       38845000	      3883	80002b20	aa0c3b17	auipc	x22,0xaa0c3	 x22=0x2a0c5b1c
       38855000	      3884	80002b24	01bc8eb3	add	x29,x25,x27	 x25:0x00000001 x27:0xffffff80 x29=0xffffff81
       38865000	      3885	80002b28	01935d93	srli	x27,x6,0x19	  x6:0x80002a9c x27=0x00000040
       38875000	      3886	80002b2c	5fcc37b7	lui	x15,0x5fcc3	 x15=0x5fcc3000
       38885000	      3887	80002b30	0070f633	and	x12,x1,x7	  x1:0x80002a88  x7:0x00000000 x12=0x00000000
       38895000	      3888	80002b34	010a43b3	xor	x7,x20,x16	 x20:0x80002a6c x16:0xfffffa06  x7=0x7fffd06a
       38905000	      3889	80002b38	0042aa03	lw	x20,4(x5)	  x5:0x80009f70 x20=0x80000ef8 PA:0x80009f74
       38915000	      3890	00000000	00000013	addi	x0,x0,0	  x0:0x00000000
       38925000	      3891	80002b3c	01428293	addi	x5,x5,20	  x5:0x80009f70  x5=0x80009f84
       38935000	      3892	80002b40	00eddd13	srli	x26,x27,0xe	 x27:0x00000040 x26=0x00000000
       38945000	      3893	80002b44	001a0f13	addi	x30,x20,1	 x20:0x80000ef8 x30=0x80000ef9
       38955000	      3894	80002b48	000f0f67	jalr	x30,x30,0	 x30:0x80000ef9 x30=0x80002b48
       38965000	      3895	00000000	00000013	addi	x0,x0,0	  x0:0x00000000
       38975000	      3896	80000ef8	00000013	addi	x0,x0,0	  x0:0x00000000
       38985000	      3897	80000efc	413f8db3	sub	x27,x31,x19	 x31:0x80002aa4 x19:0xfffffa06 x27=0x8000309e
       38995000	      3898	80000f00	004415b3	sll	x11,x8,x4	  x8:0x80000000  x4:0x80002ac4 x11=0x00000000
       39005000	      3899	80000f04	041c4a63	blt	x24,x1,80000f58	 x24:0x80009f04  x1:0x80002a88
       39015000	      3900	80000f08	01ac25b3	slt	x11,x24,x26	 x24:0x80009f04 x26:0x00000000 x11=0x00000001
       39025000	      3901	80000f0c	40a153b3	sra	x7,x2,x10	  x2:0xae0afa58 x10:0xe00027dc  x7=0xfffffffa
       39035000	      3902	80000f10	01000a6f	jal	x20,80000f10	 x20=0x80000f10
       39045000	      3903	00000000	00000013	addi	x0,x0,0	  x0:0x00000000
       39055000	      3904	80000f1c	00000013	addi	x0,x0,0	  x0:0x00000000
       39065000	      3905	80000f20	018000ef	jal	x1,80000f20	  x1=0x80000f20
       39075000	      3906	00000000	00000013	addi	x0,x0,0	  x0:0x00000000
       39085000	      3907	80000f34	00000013	addi	x0,x0,0	  x0:0x00000000
       39095000	      3908	80000f38	fe1ff0ef	jal	x1,80000f38	  x1=0x80000f38
       39105000	      3909	00000000	00000013	addi	x0,x0,0	  x0:0x00000000
       39115000	      3910	80000f14	00000013	addi	x0,x0,0	  x0:0x00000000
       39125000	      3911	80000f18	ffdff1ef	jal	x3,80000f18	  x3=0x80000f18
       39135000	      3912	00000000	00000013	addi	x0,x0,0	  x0:0x00000000
       39145000	      3913	80000f10	00000013	addi	x0,x0,0	  x0:0x00000000
       39155000	      3914	80000f14	0180026f	jal	x4,80000f14	  x4=0x80000f14
       39165000	      3915	00000000	00000013	addi	x0,x0,0	  x0:0x00000000
       39175000	      3916	80000f28	00000013	addi	x0,x0,0	  x0:0x00000000
       39185000	      3917	80000f2c	0100016f	jal	x2,80000f2c	  x2=0x80000f2c
       39195000	      3918	00000000	00000013	addi	x0,x0,0	  x0:0x00000000
       39205000	      3919	80000f38	00000013	addi	x0,x0,0	  x0:0x00000000
       39215000	      3920	80000f3c	004000ef	jal	x1,80000f3c	  x1=0x80000f3c
       39225000	      3921	00000000	00000013	addi	x0,x0,0	  x0:0x00000000
       39235000	      3922	80000f3c	00000013	addi	x0,x0,0	  x0:0x00000000
       39245000	      3923	80000f40	ff5ff16f	jal	x2,80000f40	  x2=0x80000f40
       39255000	      3924	00000000	00000013	addi	x0,x0,0	  x0:0x00000000
       39265000	      3925	80000f30	00000013	addi	x0,x0,0	  x0:0x00000000
       39275000	      3926	80000f34	ff5ff0ef	jal	x1,80000f34	  x1=0x80000f34
       39285000	      3927	00000000	00000013	addi	x0,x0,0	  x0:0x00000000
       39295000	      3928	80000f24	00000013	addi	x0,x0,0	  x0:0x00000000
       39305000	      3929	80000f28	ffdff0ef	jal	x1,80000f28	  x1=0x80000f28
       39315000	      3930	00000000	00000013	addi	x0,x0,0	  x0:0x00000000
       39325000	      3931	80000f20	00000013	addi	x0,x0,0	  x0:0x00000000
       39335000	      3932	80000f24	02000a6f	jal	x20,80000f24	 x20=0x80000f24
       39345000	      3933	00000000	00000013	addi	x0,x0,0	  x0:0x00000000
       39355000	      3934	80000f40	00000013	addi	x0,x0,0	  x0:0x00000000
       39365000	      3935	80000f44	fd9ff0ef	jal	x1,80000f44	  x1=0x80000f44
       39375000	      3936	00000000	00000013	addi	x0,x0,0	  x0:0x00000000
       39385000	      3937	80000f18	00000013	addi	x0,x0,0	  x0:0x00000000
       39395000	      3938	80000f1c	014000ef	jal	x1,80000f1c	  x1=0x80000f1c
       39405000	      3939	00000000	00000013	addi	x0,x0,0	  x0:0x00000000
       39415000	      3940	80000f2c	00000013	addi	x0,x0,0	  x0:0x00000000
       39425000	      3941	80000f30	018000ef	jal	x1,80000f30	  x1=0x80000f30
       39435000	      3942	00000000	00000013	addi	x0,x0,0	  x0:0x00000000
       39445000	      3943	80000f44	00000013	addi	x0,x0,0	  x0:0x00000000
       39455000	      3944	80000f48	011afa33	and	x20,x21,x17	 x21:0x7fff6164 x17:0x00000001 x20=0x00000000
       39465000	      3945	80000f4c	01418e63	beq	x3,x20,80000f68	  x3:0x80000f18 x20:0x00000000
       39475000	      3946	80000f50	0193dc93	srli	x25,x7,0x19	  x7:0xfffffffa x25=0x0000007f
       39485000	      3947	80000f54	400485b3	sub	x11,x9,x0	  x9:0x00000001  x0:0x00000000 x11=0x00000001
       39495000	      3948	80000f58	4060d033	sra	x0,x1,x6	  x1:0x80000f30  x6:0x80002a9c
       39505000	      3949	80000f5c	01da8a63	beq	x21,x29,80000f70	 x21:0x7fff6164 x29:0xffffff81
       39515000	      3950	80000f60	5585ec97	auipc	x25,0x5585e	 x25=0xd585ef5c
       39525000	      3951	80000f64	04255c63	bge	x10,x2,80000fbc	 x10:0xe00027dc  x2:0x80000f40
       39535000	      3952	00000000	00000013	addi	x0,x0,0	  x0:0x00000000
       39545000	      3953	80000fb8	00000013	addi	x0,x0,0	  x0:0x00000000
       39555000	      3954	80000fbc	014d0033	add	x0,x26,x20	 x26:0x00000000 x20:0x00000000
       39565000	      3955	80000fc0	0521e063	bltu	x3,x18,80001000	  x3:0x80000f18 x18:0x80002840
       39575000	      3956	00000000	00000013	addi	x0,x0,0	  x0:0x00000000
       39585000	      3957	80000ffc	00000013	addi	x0,x0,0	  x0:0x00000000
       39595000	      3958	80001000	41205c93	srai	x25,x0,0x12	  x0:0x00000000 x25=0x00000000
       39605000	      3959	80001004	406dd113	srai	x2,x27,0x6	 x27:0x8000309e  x2=0xfe0000c2
       39615000	      3960	80001008	02895063	bge	x18,x8,80001028	 x18:0x80002840  x8:0x80000000
       39625000	      3961	00000000	00000013	addi	x0,x0,0	  x0:0x00000000
       39635000	      3962	80001024	00000013	addi	x0,x0,0	  x0:0x00000000
       39645000	      3963	80001028	001be8b3	or	x17,x23,x1	 x23:0x00000000  x1:0x80000f30 x17=0x80000f30
       39655000	      3964	8000102c	00bc7533	and	x10,x24,x11	 x24:0x80009f04 x11:0x00000001 x10=0x00000000
       39665000	      3965	80001030	ce4da913	slti	x18,x27,-796	 x27:0x8000309e x18=0x00000001
       39675000	      3966	80001034	16fbc913	xori	x18,x23,367	 x23:0x00000000 x18=0x0000016f
       39685000	      3967	80001038	023d8a63	beq	x27,x3,8000106c	 x27:0x8000309e  x3:0x80000f18
       39695000	      3968	8000103c	4080d133	sra	x2,x1,x8	  x1:0x80000f30  x8:0x80000000  x2=0x80000f30
       39705000	      3969	80001040	408050b3	sra	x1,x0,x8	  x0:0x00000000  x8:0x80000000  x1=0x00000000
       39715000	      3970	80001044	00000013	addi	x0,x0,0	  x0:0x00000000
       39725000	      3971	80001048	f5a67d13	andi	x26,x12,-166	 x12:0x00000000 x26=0x00000000
       39735000	      3972	8000104c	016e5a13	srli	x20,x28,0x16	 x28:0x00000001 x20=0x00000000
       39745000	      3973	80001050	f0b92213	slti	x4,x18,-245	 x18:0x0000016f  x4=0x00000000
       39755000	      3974	80001054	eb65ab93	slti	x23,x11,-330	 x11:0x00000001 x23=0x00000000
       39765000	      3975	80001058	00083db3	sltu	x27,x16,x0	 x16:0xfffffa06  x0:0x00000000 x27=0x00000000
       39775000	      3976	8000105c	41fa5913	srai	x18,x20,0x1f	 x20:0x00000000 x18=0x00000000
       39785000	      3977	80001060	00638463	beq	x7,x6,80001068	  x7:0xfffffffa  x6:0x80002a9c
       39795000	      3978	80001064	309a7413	andi	x8,x20,777	 x20:0x00000000  x8=0x00000000
       39805000	      3979	80001068	02b5ee63	bltu	x11,x11,800010a4	 x11:0x00000001 x11:0x00000001
       39815000	      3980	8000106c	478eb593	sltiu	x11,x29,1144	 x29:0xffffff81 x11=0x00000000
       39825000	      3981	80001070	41a58b33	sub	x22,x11,x26	 x11:0x00000000 x26:0x00000000 x22=0x00000000
       39835000	      3982	80001074	030e5e63	bge	x28,x16,800010b0	 x28:0x00000001 x16:0xfffffa06
       39845000	      3983	00000000	00000013	addi	x0,x0,0	  x0:0x00000000
       39855000	      3984	800010ac	00000013	addi	x0,x0,0	  x0:0x00000000
       39865000	      3985	800010b0	054e6863	bltu	x28,x20,80001100	 x28:0x00000001 x20:0x00000000
       39875000	      3986	800010b4	01191c63	bne	x18,x17,800010cc	 x18:0x00000000 x17:0x80000f30
       39885000	      3987	00000000	00000013	addi	x0,x0,0	  x0:0x00000000
       39895000	      3988	800010c8	00000013	addi	x0,x0,0	  x0:0x00000000
       39905000	      3989	800010cc	40285fb3	sra	x31,x16,x2	 x16:0xfffffa06  x2:0x80000f30 x31=0xffffffff
       39915000	      3990	800010d0	4061dbb3	sra	x23,x3,x6	  x3:0x80000f18  x6:0x80002a9c x23=0xfffffff8
       39925000	      3991	800010d4	3647bd13	sltiu	x26,x15,868	 x15:0x5fcc3000 x26=0x00000000
       39935000	      3992	800010d8	01841333	sll	x6,x8,x24	  x8:0x00000000 x24:0x80009f04  x6=0x00000000
       39945000	      3993	800010dc	008da5b3	slt	x11,x27,x8	 x27:0x00000000  x8:0x00000000 x11=0x00000000
       39955000	      3994	800010e0	40c15193	srai	x3,x2,0xc	  x2:0x80000f30  x3=0xfff80000
       39965000	      3995	800010e4	00424663	blt	x4,x4,800010f0	  x4:0x00000000  x4:0x00000000
       39975000	      3996	800010e8	00add233	srl	x4,x27,x10	 x27:0x00000000 x10:0x00000000  x4=0x00000000
       39985000	      3997	800010ec	05288063	beq	x17,x18,8000112c	 x17:0x80000f30 x18:0x00000000
       39995000	      3998	800010f0	03c56263	bltu	x10,x28,80001114	 x10:0x00000000 x28:0x00000001
       40005000	      3999	00000000	00000013	addi	x0,x0,0	  x0:0x00000000
       40015000	      4000	80001110	00000013	addi	x0,x0,0	  x0:0x00000000
       40025000	      4001	80001114	010cfe63	bgeu	x25,x16,80001130	 x25:0x00000000 x16:0xfffffa06
       40035000	      4002	80001118	01d15d13	srli	x26,x2,0x1d	  x2:0x80000f30 x26=0x00000004
       40045000	      4003	8000111c	d8180b93	addi	x23,x16,-639	 x16:0xfffffa06 x23=0xfffff787
       40055000	      4004	80001120	019c7733	and	x14,x24,x25	 x24:0x80009f04 x25:0x00000000 x14=0x00000000
       40065000	      4005	80001124	001c8263	beq	x25,x1,80001128	 x25:0x00000000  x1:0x00000000
       40075000	      4006	00000000	00000013	addi	x0,x0,0	  x0:0x00000000
       40085000	      4007	80001124	00000013	addi	x0,x0,0	  x0:0x00000000
       40095000	      4008	80001128	001fe8b3	or	x17,x31,x1	 x31:0xffffffff  x1:0x00000000 x17=0xffffffff
       40105000	      4009	8000112c	b5af3893	sltiu	x17,x30,-1190	 x30:0x80002b48 x17=0x00000001
       40115000	      4010	80001130	41d35a13	srai	x20,x6,0x1d	  x6:0x00000000 x20=0x00000000
       40125000	      4011	80001134	1f327e93	andi	x29,x4,499	  x4:0x00000000 x29=0x00000000
       40135000	      4012	80001138	01d5da93	srli	x21,x11,0x1d	 x11:0x00000000 x21=0x00000000
       40145000	      4013	8000113c	82ba2b13	slti	x22,x20,-2005	 x20:0x00000000 x22=0x00000000
       40155000	      4014	80001140	015e7463	bgeu	x28,x21,80001148	 x28:0x00000001 x21:0x00000000
       40165000	      4015	00000000	00000013	addi	x0,x0,0	  x0:0x00000000
       40175000	      4016	80001144	00000013	addi	x0,x0,0	  x0:0x00000000
       40185000	      4017	80001148	007bcab3	xor	x21,x23,x7	 x23:0xfffff787  x7:0xfffffffa x21=0x0000087d
       40195000	      4018	8000114c	fa213893	sltiu	x17,x2,-94	  x2:0x80000f30 x17=0x00000001
       40205000	      4019	80001150	019ad633	srl	x12,x21,x25	 x21:0x0000087d x25:0x00000000 x12=0x0000087d
       40215000	      4020	80001154	fab47f93	andi	x31,x8,-85	  x8:0x00000000 x31=0x00000000
       40225000	      4021	80001158	a4ef3893	sltiu	x17,x30,-1458	 x30:0x80002b48 x17=0x00000001
       40235000	      4022	8000115c	00849e93	slli	x29,x9,0x8	  x9:0x00000001 x29=0x00000100
       40245000	      4023	80001160	00c87263	bgeu	x16,x12,80001164	 x16:0xfffffa06 x12:0x0000087d
       40255000	      4024	00000000	00000013	addi	x0,x0,0	  x0:0x00000000
       40265000	      4025	80001160	00000013	addi	x0,x0,0	  x0:0x00000000
       40275000	      4026	80001164	00ce8f33	add	x30,x29,x12	 x29:0x00000100 x12:0x0000087d x30=0x0000097d
       40285000	      4027	80001168	bda33513	sltiu	x10,x6,-1062	  x6:0x00000000 x10=0x00000001
       40295000	      4028	8000116c	e7897e93	andi	x29,x18,-392	 x18:0x00000000 x29=0x00000000
       40305000	      4029	80001170	010ead33	slt	x26,x29,x16	 x29:0x00000000 x16:0xfffffa06 x26=0x00000000
       40315000	      4030	80001174	01a9f1b3	and	x3,x19,x26	 x19:0xfffffa06 x26:0x00000000  x3=0x00000000
       40325000	      4031	80001178	0304d263	bge	x9,x16,8000119c	  x9:0x00000001 x16:0xfffffa06
       40335000	      4032	00000000	00000013	addi	x0,x0,0	  x0:0x00000000
       40345000	      4033	80001198	00000013	addi	x0,x0,0	  x0:0x00000000
       40355000	      4034	8000119c	fce77313	andi	x6,x14,-50	 x14:0x00000000  x6=0x00000000
       40365000	      4035	800011a0	024c0c63	beq	x24,x4,800011d8	 x24:0x80009f04  x4:0x00000000
       40375000	      4036	800011a4	004257b3	srl	x15,x4,x4	  x4:0x00000000  x4:0x00000000 x15=0x00000000
       40385000	      4037	800011a8	01897133	and	x2,x18,x24	 x18:0x00000000 x24:0x80009f04  x2=0x00000000
       40395000	      4038	800011ac	03c0fc63	bgeu	x1,x28,800011e4	  x1:0x00000000 x28:0x00000001
       40405000	      4039	800011b0	01e5c7b3	xor	x15,x11,x30	 x11:0x00000000 x30:0x0000097d x15=0x0000097d
       40415000	      4040	800011b4	01f5eeb3	or	x29,x11,x31	 x11:0x00000000 x31:0x00000000 x29=0x00000000
       40425000	      4041	800011b8	6bd73713	sltiu	x14,x14,1725	 x14:0x00000000 x14=0x00000001
       40435000	      4042	800011bc	00675bb3	srl	x23,x14,x6	 x14:0x00000001  x6:0x00000000 x23=0x00000001
       40445000	      4043	800011c0	011d5e63	bge	x26,x17,800011dc	 x26:0x00000000 x17:0x00000001
       40455000	      4044	800011c4	ee077f93	andi	x31,x14,-288	 x14:0x00000001 x31=0x00000000
       40465000	      4045	800011c8	02b25e63	bge	x4,x11,80001204	  x4:0x00000000 x11:0x00000000
       40475000	      4046	00000000	00000013	addi	x0,x0,0	  x0:0x00000000
       40485000	      4047	80001200	00000013	addi	x0,x0,0	  x0:0x00000000
       40495000	      4048	80001204	ca188a13	addi	x20,x17,-863	 x17:0x00000001 x20=0xfffffca2
       40505000	      4049	80001208	010f4033	xor	x0,x30,x16	 x30:0x0000097d x16:0xfffffa06
       40515000	      4050	8000120c	03a2d063	bge	x5,x26,8000122c	  x5:0x80009f84 x26:0x00000000
       40525000	      4051	80001210	af803c93	sltiu	x25,x0,-1288	  x0:0x00000000 x25=0x00000001
       40535000	      4052	80001214	85870493	addi	x9,x14,-1960	 x14:0x00000001  x9=0xfffff859
       40545000	      4053	80001218	0145e4b3	or	x9,x11,x20	 x11:0x00000000 x20:0xfffffca2  x9=0xfffffca2
       40555000	      4054	8000121c	03c66863	bltu	x12,x28,8000124c	 x12:0x0000087d x28:0x00000001
       40565000	      4055	80001220	fddf7b93	andi	x23,x30,-35	 x30:0x0000097d x23=0x0000095d
       40575000	      4056	80001224	01045013	srli	x0,x8,0x10	  x8:0x00000000
       40585000	      4057	80001228	016a6e63	bltu	x20,x22,80001244	 x20:0xfffffca2 x22:0x00000000
       40595000	      4058	8000122c	006f0933	add	x18,x30,x6	 x30:0x0000097d  x6:0x00000000 x18=0x0000097d
       40605000	      4059	80001230	0042d3b3	srl	x7,x5,x4	  x5:0x80009f84  x4:0x00000000  x7=0x80009f84
       40615000	      4060	80001234	413d8733	sub	x14,x27,x19	 x27:0x00000000 x19:0xfffffa06 x14=0x000005fa
       40625000	      4061	80001238	00c20a63	beq	x4,x12,8000124c	  x4:0x00000000 x12:0x0000087d
       40635000	      4062	8000123c	58e57413	andi	x8,x10,1422	 x10:0x00000001  x8=0x00000000
       40645000	      4063	80001240	01432db3	slt	x27,x6,x20	  x6:0x00000000 x20:0xfffffca2 x27=0x00000000
       40655000	      4064	80001244	80b22093	slti	x1,x4,-2037	  x4:0x00000000  x1=0x00000000
       40665000	      4065	80001248	fb96af93	slti	x31,x13,-71	 x13:0x80009fc4 x31=0x00000001
       40675000	      4066	8000124c	26397eb7	lui	x29,0x26397	 x29=0x26397000
       40685000	      4067	80001250	00d3b0b3	sltu	x1,x7,x13	  x7:0x80009f84 x13:0x80009fc4  x1=0x00000001
       40695000	      4068	80001254	05147063	bgeu	x8,x17,80001294	  x8:0x00000000 x17:0x00000001
       40705000	      4069	80001258	406583b3	sub	x7,x11,x6	 x11:0x00000000  x6:0x00000000  x7=0x00000000
       40715000	      4070	8000125c	00ce4133	xor	x2,x28,x12	 x28:0x00000001 x12:0x0000087d  x2=0x0000087c
       40725000	      4071	80001260	4ddf6a93	ori	x21,x30,1245	 x30:0x0000097d x21=0x00000dfd
       40735000	      4072	80001264	01ca9413	slli	x8,x21,0x1c	 x21:0x00000dfd  x8=0xd0000000
       40745000	      4073	80001268	001750b3	srl	x1,x14,x1	 x14:0x000005fa  x1:0x00000001  x1=0x000002fd
       40755000	      4074	8000126c	fe41c913	xori	x18,x3,-28	  x3:0x00000000 x18=0xffffffe4
       40765000	      4075	80001270	03585c63	bge	x16,x21,800012a8	 x16:0xfffffa06 x21:0x00000dfd
       40775000	      4076	80001274	00b08d33	add	x26,x1,x11	  x1:0x000002fd x11:0x00000000 x26=0x000002fd
       40785000	      4077	80001278	b5178037	lui	x0,0xb5178	
       40795000	      4078	8000127c	013ce1b3	or	x3,x25,x19	 x25:0x00000001 x19:0xfffffa06  x3=0xfffffa07
       40805000	      4079	80001280	00ed45b3	xor	x11,x26,x14	 x26:0x000002fd x14:0x000005fa x11=0x00000707
       40815000	      4080	80001284	71c13393	sltiu	x7,x2,1820	  x2:0x0000087c  x7=0x00000000
       40825000	      4081	80001288	03680063	beq	x16,x22,800012a8	 x16:0xfffffa06 x22:0x00000000
       40835000	      4082	8000128c	9e44e113	ori	x2,x9,-1564	  x9:0xfffffca2  x2=0xfffffde6
       40845000	      4083	80001290	01922713	slti	x14,x4,25	  x4:0x00000000 x14=0x00000001
       40855000	      4084	80001294	02017863	bgeu	x2,x0,800012c4	  x2:0xfffffde6  x0:0x00000000
       40865000	      4085	00000000	00000013	addi	x0,x0,0	  x0:0x00000000
       40875000	      4086	800012c0	00000013	addi	x0,x0,0	  x0:0x00000000
       40885000	      4087	800012c4	00c39cb3	sll	x25,x7,x12	  x7:0x00000000 x12:0x0000087d x25=0x00000000
       40895000	      4088	800012c8	768f1bb7	lui	x23,0x768f1	 x23=0x768f1000
       40905000	      4089	800012cc	006868b3	or	x17,x16,x6	 x16:0xfffffa06  x6:0x00000000 x17=0xfffffa06
       40915000	      4090	800012d0	01885d13	srli	x26,x16,0x18	 x16:0xfffffa06 x26=0x000000ff
       40925000	      4091	800012d4	00595093	srli	x1,x18,0x5	 x18:0xffffffe4  x1=0x07ffffff
       40935000	      4092	800012d8	00549533	sll	x10,x9,x5	  x9:0xfffffca2  x5:0x80009f84 x10=0xffffca20
       40945000	      4093	800012dc	01764a63	blt	x12,x23,800012f0	 x12:0x0000087d x23:0x768f1000
       40955000	      4094	00000000	00000013	addi	x0,x0,0	  x0:0x00000000
       40965000	      4095	800012ec	00000013	addi	x0,x0,0	  x0:0x00000000
       40975000	      4096	800012f0	6a13f593	andi	x11,x7,1697	  x7:0x00000000 x11=0x00000000
       40985000	      4097	800012f4	0178e633	or	x12,x17,x23	 x17:0xfffffa06 x23:0x768f1000 x12=0xfffffa06
       40995000	      4098	800012f8	93fe1937	lui	x18,0x93fe1	 x18=0x93fe1000
       41005000	      4099	800012fc	05aef063	bgeu	x29,x26,8000133c	 x29:0x26397000 x26:0x000000ff
       41015000	      4100	00000000	00000013	addi	x0,x0,0	  x0:0x00000000
       41025000	      4101	80001338	00000013	addi	x0,x0,0	  x0:0x00000000
       41035000	      4102	8000133c	019f1093	slli	x1,x30,0x19	 x30:0x0000097d  x1=0xfa000000
       41045000	      4103	80001340	3d1a8e93	addi	x29,x21,977	 x21:0x00000dfd x29=0x000011ce
       41055000	      4104	80001344	078b5263	bge	x22,x24,800013a8	 x22:0x00000000 x24:0x80009f04
       41065000	      4105	00000000	00000013	addi	x0,x0,0	  x0:0x00000000
       41075000	      4106	800013a4	00000013	addi	x0,x0,0	  x0:0x00000000
       41085000	      4107	800013a8	01418533	add	x10,x3,x20	  x3:0xfffffa07 x20:0xfffffca2 x10=0xfffff6a9
       41095000	      4108	800013ac	0024d533	srl	x10,x9,x2	  x9:0xfffffca2  x2:0xfffffde6 x10=0x03fffff2
       41105000	      4109	800013b0	014f9913	slli	x18,x31,0x14	 x31:0x00000001 x18=0x00100000
       41115000	      4110	800013b4	02ea5263	bge	x20,x14,800013d8	 x20:0xfffffca2 x14:0x00000001
       41125000	      4111	800013b8	fcdc7c13	andi	x24,x24,-51	 x24:0x80009f04 x24=0x80009f04
       41135000	      4112	800013bc	27d34913	xori	x18,x6,637	  x6:0x00000000 x18=0x0000027d
       41145000	      4113	800013c0	3ea03493	sltiu	x9,x0,1002	  x0:0x00000000  x9=0x00000001
       41155000	      4114	800013c4	000f6663	bltu	x30,x0,800013d0	 x30:0x0000097d  x0:0x00000000
       41165000	      4115	800013c8	18076397	auipc	x7,0x18076	  x7=0x980773c4
       41175000	      4116	800013cc	00000013	addi	x0,x0,0	  x0:0x00000000
       41185000	      4117	800013d0	04281063	bne	x16,x2,80001410	 x16:0xfffffa06  x2:0xfffffde6
       41195000	      4118	00000000	00000013	addi	x0,x0,0	  x0:0x00000000
       41205000	      4119	8000140c	00000013	addi	x0,x0,0	  x0:0x00000000
       41215000	      4120	80001410	002e1c13	slli	x24,x28,0x2	 x28:0x00000001 x24=0x00000004
       41225000	      4121	80001414	0105e263	bltu	x11,x16,80001418	 x11:0x00000000 x16:0xfffffa06
       41235000	      4122	00000000	00000013	addi	x0,x0,0	  x0:0x00000000
       41245000	      4123	80001414	00000013	addi	x0,x0,0	  x0:0x00000000
       41255000	      4124	80001418	02fa6863	bltu	x20,x15,80001448	 x20:0xfffffca2 x15:0x0000097d
       41265000	      4125	8000141c	416ed793	srai	x15,x29,0x16	 x29:0x000011ce x15=0x00000000
       41275000	      4126	80001420	f46de013	ori	x0,x27,-186	 x27:0x00000000
       41285000	      4127	80001424	416ddd13	srai	x26,x27,0x16	 x27:0x00000000 x26=0x00000000
       41295000	      4128	80001428	018bfeb3	and	x29,x23,x24	 x23:0x768f1000 x24:0x00000004 x29=0x00000000
       41305000	      4129	8000142c	2f09f993	andi	x19,x19,752	 x19:0xfffffa06 x19=0x00000200
       41315000	      4130	80001430	02a0f863	bgeu	x1,x10,80001460	  x1:0xfa000000 x10:0x03fffff2
       41325000	      4131	00000000	00000013	addi	x0,x0,0	  x0:0x00000000
       41335000	      4132	8000145c	00000013	addi	x0,x0,0	  x0:0x00000000
       41345000	      4133	80001460	03ea9663	bne	x21,x30,8000148c	 x21:0x00000dfd x30:0x0000097d
       41355000	      4134	00000000	00000013	addi	x0,x0,0	  x0:0x00000000
       41365000	      4135	80001488	00000013	addi	x0,x0,0	  x0:0x00000000
       41375000	      4136	8000148c	00e110b3	sll	x1,x2,x14	  x2:0xfffffde6 x14:0x00000001  x1=0xfffffbcc
       41385000	      4137	80001490	e60f3f13	sltiu	x30,x30,-416	 x30:0x0000097d x30=0x00000001
       41395000	      4138	80001494	00982133	slt	x2,x16,x9	 x16:0xfffffa06  x9:0x00000001  x2=0x00000001
       41405000	      4139	80001498	02f25c63	bge	x4,x15,800014d0	  x4:0x00000000 x15:0x00000000
       41415000	      4140	00000000	00000013	addi	x0,x0,0	  x0:0x00000000
       41425000	      4141	800014cc	00000013	addi	x0,x0,0	  x0:0x00000000
       41435000	      4142	800014d0	417fdab3	sra	x21,x31,x23	 x31:0x00000001 x23:0x768f1000 x21=0x00000001
       41445000	      4143	800014d4	00557a63	bgeu	x10,x5,800014e8	 x10:0x03fffff2  x5:0x80009f84
       41455000	      4144	800014d8	450fe637	lui	x12,0x450fe	 x12=0x450fe000
       41465000	      4145	800014dc	017a5333	srl	x6,x20,x23	 x20:0xfffffca2 x23:0x768f1000  x6=0xfffffca2
       41475000	      4146	800014e0	014d6133	or	x2,x26,x20	 x26:0x00000000 x20:0xfffffca2  x2=0xfffffca2
       41485000	      4147	800014e4	18bc7913	andi	x18,x24,395	 x24:0x00000004 x18=0x00000000
       41495000	      4148	800014e8	00c657b3	srl	x15,x12,x12	 x12:0x450fe000 x12:0x450fe000 x15=0x450fe000
       41505000	      4149	800014ec	03c26c63	bltu	x4,x28,80001524	  x4:0x00000000 x28:0x00000001
       41515000	      4150	00000000	00000013	addi	x0,x0,0	  x0:0x00000000
       41525000	      4151	80001520	00000013	addi	x0,x0,0	  x0:0x00000000
       41535000	      4152	80001524	02bff263	bgeu	x31,x11,80001548	 x31:0x00000001 x11:0x00000000
       41545000	      4153	00000000	00000013	addi	x0,x0,0	  x0:0x00000000
       41555000	      4154	80001544	00000013	addi	x0,x0,0	  x0:0x00000000
       41565000	      4155	80001548	ae0bbb13	sltiu	x22,x23,-1312	 x23:0x768f1000 x22=0x00000001
       41575000	      4156	8000154c	07dbd063	bge	x23,x29,800015ac	 x23:0x768f1000 x29:0x00000000
       41585000	      4157	00000000	00000013	addi	x0,x0,0	  x0:0x00000000
       41595000	      4158	800015a8	00000013	addi	x0,x0,0	  x0:0x00000000
       41605000	      4159	800015ac	00a329b3	slt	x19,x6,x10	  x6:0xfffffca2 x10:0x03fffff2 x19=0x00000001
       41615000	      4160	800015b0	004eb9b3	sltu	x19,x29,x4	 x29:0x00000000  x4:0x00000000 x19=0x00000000
       41625000	      4161	800015b4	95c84bb7	lui	x23,0x95c84	 x23=0x95c84000
       41635000	      4162	800015b8	41a70f33	sub	x30,x14,x26	 x14:0x00000001 x26:0x00000000 x30=0x00000001
       41645000	      4163	800015bc	41038733	sub	x14,x7,x16	  x7:0x980773c4 x16:0xfffffa06 x14=0x980779be
       41655000	      4164	800015c0	01604133	xor	x2,x0,x22	  x0:0x00000000 x22:0x00000001  x2=0x00000001
       41665000	      4165	800015c4	018744b3	xor	x9,x14,x24	 x14:0x980779be x24:0x00000004  x9=0x980779ba
       41675000	      4166	800015c8	02b47063	bgeu	x8,x11,800015e8	  x8:0xd0000000 x11:0x00000000
       41685000	      4167	00000000	00000013	addi	x0,x0,0	  x0:0x00000000
       41695000	      4168	800015e4	00000013	addi	x0,x0,0	  x0:0x00000000
       41705000	      4169	800015e8	01fe4a33	xor	x20,x28,x31	 x28:0x00000001 x31:0x00000001 x20=0x00000000
       41715000	      4170	800015ec	47bfe113	ori	x2,x31,1147	 x31:0x00000001  x2=0x0000047b
       41725000	      4171	800015f0	c6343813	sltiu	x16,x8,-925	  x8:0xd0000000 x16=0x00000001
       41735000	      4172	800015f4	810d0513	addi	x10,x26,-2032	 x26:0x00000000 x10=0xfffff810
       41745000	      4173	800015f8	0473d063	bge	x7,x7,80001638	  x7:0x980773c4  x7:0x980773c4
       41755000	      4174	00000000	00000013	addi	x0,x0,0	  x0:0x00000000
       41765000	      4175	80001634	00000013	addi	x0,x0,0	  x0:0x00000000
       41775000	      4176	80001638	018793b3	sll	x7,x15,x24	 x15:0x450fe000 x24:0x00000004  x7=0x50fe0000
       41785000	      4177	8000163c	00331933	sll	x18,x6,x3	  x6:0xfffffca2  x3:0xfffffa07 x18=0xfffe5100
       41795000	      4178	80001640	0098b033	sltu	x0,x17,x9	 x17:0xfffffa06  x9:0x980779ba
       41805000	      4179	80001644	015495b3	sll	x11,x9,x21	  x9:0x980779ba x21:0x00000001 x11=0x300ef374
       41815000	      4180	80001648	033d5e63	bge	x26,x19,80001684	 x26:0x00000000 x19:0x00000000
       41825000	      4181	00000000	00000013	addi	x0,x0,0	  x0:0x00000000
       41835000	      4182	80001680	00000013	addi	x0,x0,0	  x0:0x00000000
       41845000	      4183	80001684	01c7cc33	xor	x24,x15,x28	 x15:0x450fe000 x28:0x00000001 x24=0x450fe001
       41855000	      4184	80001688	1b2b7893	andi	x17,x22,434	 x22:0x00000001 x17=0x00000000
       41865000	      4185	8000168c	40138f33	sub	x30,x7,x1	  x7:0x50fe0000  x1:0xfffffbcc x30=0x50fe0434
       41875000	      4186	80001690	4076db33	sra	x22,x13,x7	 x13:0x80009fc4  x7:0x50fe0000 x22=0x80009fc4
       41885000	      4187	80001694	566e21b7	lui	x3,0x566e2	  x3=0x566e2000
       41895000	      4188	80001698	07d28863	beq	x5,x29,80001708	  x5:0x80009f84 x29:0x00000000
       41905000	      4189	8000169c	74e95097	auipc	x1,0x74e95	  x1=0xf4e96698
       41915000	      4190	800016a0	baf5b093	sltiu	x1,x11,-1105	 x11:0x300ef374  x1=0x00000001
       41925000	      4191	800016a4	00c84db3	xor	x27,x16,x12	 x16:0x00000001 x12:0x450fe000 x27=0x450fe001
       41935000	      4192	800016a8	060ad663	bge	x21,x0,80001714	 x21:0x00000001  x0:0x00000000
       41945000	      4193	00000000	00000013	addi	x0,x0,0	  x0:0x00000000
       41955000	      4194	80001710	00000013	addi	x0,x0,0	  x0:0x00000000
       41965000	      4195	80001714	8b172313	slti	x6,x14,-1871	 x14:0x980779be  x6=0x00000001
       41975000	      4196	80001718	b5a04493	xori	x9,x0,-1190	  x0:0x00000000  x9=0xfffffb5a
       41985000	      4197	8000171c	402a88b3	sub	x17,x21,x2	 x21:0x00000001  x2:0x0000047b x17=0xfffffb86
       41995000	      4198	80001720	0130c933	xor	x18,x1,x19	  x1:0x00000001 x19:0x00000000 x18=0x00000001
       42005000	      4199	80001724	03b98c63	beq	x19,x27,8000175c	 x19:0x00000000 x27:0x450fe001
       42015000	      4200	80001728	0cbbb637	lui	x12,0xcbbb	 x12=0x0cbbb000
       42025000	      4201	8000172c	d3fcfe93	andi	x29,x25,-705	 x25:0x00000000 x29=0x00000000
       42035000	      4202	80001730	8bccaf13	slti	x30,x25,-1860	 x25:0x00000000 x30=0x00000000
       42045000	      4203	80001734	01767663	bgeu	x12,x23,80001740	 x12:0x0cbbb000 x23:0x95c84000
       42055000	      4204	80001738	a4ee3f13	sltiu	x30,x28,-1458	 x28:0x00000001 x30=0x00000001
       42065000	      4205	8000173c	417c8f33	sub	x30,x25,x23	 x25:0x00000000 x23:0x95c84000 x30=0x6a37c000
       42075000	      4206	80001740	df034f13	xori	x30,x6,-528	  x6:0x00000001 x30=0xfffffdf1
       42085000	      4207	80001744	01b6e0b3	or	x1,x13,x27	 x13:0x80009fc4 x27:0x450fe001  x1=0xc50fffc5
       42095000	      4208	80001748	008da4b3	slt	x9,x27,x8	 x27:0x450fe001  x8:0xd0000000  x9=0x00000000
       42105000	      4209	8000174c	012b29b3	slt	x19,x22,x18	 x22:0x80009fc4 x18:0x00000001 x19=0x00000001
       42115000	      4210	80001750	01475b33	srl	x22,x14,x20	 x14:0x980779be x20:0x00000000 x22=0x980779be
       42125000	      4211	80001754	035fcc63	blt	x31,x21,8000178c	 x31:0x00000001 x21:0x00000001
       42135000	      4212	80001758	2fd3a913	slti	x18,x7,765	  x7:0x50fe0000 x18=0x00000000
       42145000	      4213	8000175c	0104d813	srli	x16,x9,0x10	  x9:0x00000000 x16=0x00000000
       42155000	      4214	80001760	01cc9513	slli	x10,x25,0x1c	 x25:0x00000000 x10=0x00000000
       42165000	      4215	80001764	01ebab33	slt	x22,x23,x30	 x23:0x95c84000 x30:0xfffffdf1 x22=0x00000001
       42175000	      4216	80001768	5b8a0f93	addi	x31,x20,1464	 x20:0x00000000 x31=0x000005b8
       42185000	      4217	8000176c	417bd113	srai	x2,x23,0x17	 x23:0x95c84000  x2=0xffffff2b
       42195000	      4218	80001770	01c05c63	bge	x0,x28,80001788	  x0:0x00000000 x28:0x00000001
       42205000	      4219	80001774	001f9e93	slli	x29,x31,0x1	 x31:0x000005b8 x29=0x00000b70
       42215000	      4220	80001778	03021863	bne	x4,x16,800017a8	  x4:0x00000000 x16:0x00000000
       42225000	      4221	8000177c	cb5c0b93	addi	x23,x24,-843	 x24:0x450fe001 x23=0x450fdcb6
       42235000	      4222	80001780	00d12033	slt	x0,x2,x13	  x2:0xffffff2b x13:0x80009fc4
       42245000	      4223	80001784	002e81b3	add	x3,x29,x2	 x29:0x00000b70  x2:0xffffff2b  x3=0x00000a9b
       42255000	      4224	80001788	010f5313	srli	x6,x30,0x10	 x30:0xfffffdf1  x6=0x0000ffff
       42265000	      4225	8000178c	41d7d613	srai	x12,x15,0x1d	 x15:0x450fe000 x12=0x00000002
       42275000	      4226	80001790	01c18733	add	x14,x3,x28	  x3:0x00000a9b x28:0x00000001 x14=0x00000a9c
       42285000	      4227	80001794	6557f613	andi	x12,x15,1621	 x15:0x450fe000 x12=0x00000000
       42295000	      4228	80001798	bde94f13	xori	x30,x18,-1058	 x18:0x00000000 x30=0xfffffbde
       42305000	      4229	8000179c	92a39417	auipc	x8,0x92a39	  x8=0x12a3a798
       42315000	      4230	800017a0	40245133	sra	x2,x8,x2	  x8:0x12a3a798  x2:0xffffff2b  x2=0x00025474
       42325000	      4231	800017a4	008b5d13	srli	x26,x22,0x8	 x22:0x00000001 x26=0x00000000
       42335000	      4232	800017a8	1e667717	auipc	x14,0x1e667	 x14=0x9e6687a4
       42345000	      4233	800017ac	003dd993	srli	x19,x27,0x3	 x27:0x450fe001 x19=0x08a1fc00
       42355000	      4234	800017b0	01ffcb33	xor	x22,x31,x31	 x31:0x000005b8 x31:0x000005b8 x22=0x00000000
       42365000	      4235	800017b4	60933a13	sltiu	x20,x6,1545	  x6:0x0000ffff x20=0x00000000
       42375000	      4236	800017b8	030bca63	blt	x23,x16,800017ec	 x23:0x450fdcb6 x16:0x00000000
       42385000	      4237	800017bc	412d5a93	srai	x21,x26,0x12	 x26:0x00000000 x21=0x00000000
       42395000	      4238	800017c0	00775e63	bge	x14,x7,800017dc	 x14:0x9e6687a4  x7:0x50fe0000
       42405000	      4239	800017c4	04638063	beq	x7,x6,80001804	  x7:0x50fe0000  x6:0x0000ffff
       42415000	      4240	800017c8	857f2bb7	lui	x23,0x857f2	 x23=0x857f2000
       42425000	      4241	800017cc	01029b13	slli	x22,x5,0x10	  x5:0x80009f84 x22=0x9f840000
       42435000	      4242	800017d0	2d293093	sltiu	x1,x18,722	 x18:0x00000000  x1=0x00000001
       42445000	      4243	800017d4	007a4633	xor	x12,x20,x7	 x20:0x00000000  x7:0x50fe0000 x12=0x50fe0000
       42455000	      4244	800017d8	015adeb3	srl	x29,x21,x21	 x21:0x00000000 x21:0x00000000 x29=0x00000000
       42465000	      4245	800017dc	4197d393	srai	x7,x15,0x19	 x15:0x450fe000  x7=0x00000022
       42475000	      4246	800017e0	00000013	addi	x0,x0,0	  x0:0x00000000
       42485000	      4247	800017e4	014b1ab3	sll	x21,x22,x20	 x22:0x9f840000 x20:0x00000000 x21=0x9f840000
       42495000	      4248	800017e8	070fbb13	sltiu	x22,x31,112	 x31:0x000005b8 x22=0x00000000
       42505000	      4249	800017ec	7e9a2213	slti	x4,x20,2025	 x20:0x00000000  x4=0x00000001
       42515000	      4250	800017f0	03fd1263	bne	x26,x31,80001814	 x26:0x00000000 x31:0x000005b8
       42525000	      4251	00000000	00000013	addi	x0,x0,0	  x0:0x00000000
       42535000	      4252	80001810	00000013	addi	x0,x0,0	  x0:0x00000000
       42545000	      4253	80001814	008e0333	add	x6,x28,x8	 x28:0x00000001  x8:0x12a3a798  x6=0x12a3a799
       42555000	      4254	80001818	496cb913	sltiu	x18,x25,1174	 x25:0x00000000 x18=0x00000001
       42565000	      4255	8000181c	01b7e1b3	or	x3,x15,x27	 x15:0x450fe000 x27:0x450fe001  x3=0x450fe001
       42575000	      4256	80001820	05345863	bge	x8,x19,80001870	  x8:0x12a3a798 x19:0x08a1fc00
       42585000	      4257	00000000	00000013	addi	x0,x0,0	  x0:0x00000000
       42595000	      4258	8000186c	00000013	addi	x0,x0,0	  x0:0x00000000
       42605000	      4259	80001870	54f42713	slti	x14,x8,1359	  x8:0x12a3a798 x14=0x00000000
       42615000	      4260	80001874	41975c33	sra	x24,x14,x25	 x14:0x00000000 x25:0x00000000 x24=0x00000000
       42625000	      4261	80001878	8943e613	ori	x12,x7,-1900	  x7:0x00000022 x12=0xfffff8b6
       42635000	      4262	8000187c	402b07b3	sub	x15,x22,x2	 x22:0x00000000  x2:0x00025474 x15=0xfffdab8c
       42645000	      4263	80001880	00af7e63	bgeu	x30,x10,8000189c	 x30:0xfffffbde x10:0x00000000
       42655000	      4264	00000000	00000013	addi	x0,x0,0	  x0:0x00000000
       42665000	      4265	80001898	00000013	addi	x0,x0,0	  x0:0x00000000
       42675000	      4266	8000189c	41aad7b3	sra	x15,x21,x26	 x21:0x9f840000 x26:0x00000000 x15=0x9f840000
       42685000	      4267	800018a0	016cfab3	and	x21,x25,x22	 x25:0x00000000 x22:0x00000000 x21=0x00000000
       42695000	      4268	800018a4	00db8263	beq	x23,x13,800018a8	 x23:0x857f2000 x13:0x80009fc4
       42705000	      4269	800018a8	55866093	ori	x1,x12,1368	 x12:0xfffff8b6  x1=0xfffffdfe
       42715000	      4270	800018ac	31e33597	auipc	x11,0x31e33	 x11=0xb1e348a8
       42725000	      4271	800018b0	a0fb9197	auipc	x3,0xa0fb9	  x3=0x20fba8ac
       42735000	      4272	800018b4	b8b10f93	addi	x31,x2,-1141	  x2:0x00025474 x31=0x00024fff
       42745000	      4273	800018b8	03cb5e63	bge	x22,x28,800018f4	 x22:0x00000000 x28:0x00000001
       42755000	      4274	800018bc	41bf01b3	sub	x3,x30,x27	 x30:0xfffffbde x27:0x450fe001  x3=0xbaf01bdd
       42765000	      4275	800018c0	eec2cc17	auipc	x24,0xeec2c	 x24=0x6ec2d8bc
       42775000	      4276	800018c4	6388ab93	slti	x23,x17,1592	 x17:0xfffffb86 x23=0x00000001
       42785000	      4277	800018c8	01d697b3	sll	x15,x13,x29	 x13:0x80009fc4 x29:0x00000000 x15=0x80009fc4
       42795000	      4278	800018cc	40f55013	srai	x0,x10,0xf	 x10:0x00000000
       42805000	      4279	800018d0	a34b6eb7	lui	x29,0xa34b6	 x29=0xa34b6000
       42815000	      4280	800018d4	40888b33	sub	x22,x17,x8	 x17:0xfffffb86  x8:0x12a3a798 x22=0xed5c53ee
       42825000	      4281	800018d8	013d9a33	sll	x20,x27,x19	 x27:0x450fe001 x19:0x08a1fc00 x20=0x450fe001
       42835000	      4282	800018dc	017564b3	or	x9,x10,x23	 x10:0x00000000 x23:0x00000001  x9=0x00000001
       42845000	      4283	800018e0	3e32ce93	xori	x29,x5,995	  x5:0x80009f84 x29=0x80009c67
       42855000	      4284	800018e4	024bc063	blt	x23,x4,80001904	 x23:0x00000001  x4:0x00000001
       42865000	      4285	800018e8	40d6d5b3	sra	x11,x13,x13	 x13:0x80009fc4 x13:0x80009fc4 x11=0xf80009fc
       42875000	      4286	800018ec	01f31b33	sll	x22,x6,x31	  x6:0x12a3a799 x31:0x00024fff x22=0x80000000
       42885000	      4287	800018f0	00f443b3	xor	x7,x8,x15	  x8:0x12a3a798 x15:0x80009fc4  x7=0x92a3385c
       42895000	      4288	800018f4	c18d3413	sltiu	x8,x26,-1000	 x26:0x00000000  x8=0x00000001
       42905000	      4289	800018f8	005a3633	sltu	x12,x20,x5	 x20:0x450fe001  x5:0x80009f84 x12=0x00000001
       42915000	      4290	800018fc	27733b93	sltiu	x23,x6,631	  x6:0x12a3a799 x23=0x00000000
       42925000	      4291	80001900	018b3b33	sltu	x22,x22,x24	 x22:0x80000000 x24:0x6ec2d8bc x22=0x00000000
       42935000	      4292	80001904	01310433	add	x8,x2,x19	  x2:0x00025474 x19:0x08a1fc00  x8=0x08a45074
       42945000	      4293	80001908	00be5e63	bge	x28,x11,80001924	 x28:0x00000001 x11:0xf80009fc
       42955000	      4294	00000000	00000013	addi	x0,x0,0	  x0:0x00000000
       42965000	      4295	80001920	00000013	addi	x0,x0,0	  x0:0x00000000
       42975000	      4296	80001924	00138cb3	add	x25,x7,x1	  x7:0x92a3385c  x1:0xfffffdfe x25=0x92a3365a
       42985000	      4297	80001928	032b1263	bne	x22,x18,8000194c	 x22:0x00000000 x18:0x00000001
       42995000	      4298	00000000	00000013	addi	x0,x0,0	  x0:0x00000000
       43005000	      4299	80001948	00000013	addi	x0,x0,0	  x0:0x00000000
       43015000	      4300	8000194c	0030fab3	and	x21,x1,x3	  x1:0xfffffdfe  x3:0xbaf01bdd x21=0xbaf019dc
       43025000	      4301	80001950	73657f93	andi	x31,x10,1846	 x10:0x00000000 x31=0x00000000
       43035000	      4302	80001954	40b8dab3	sra	x21,x17,x11	 x17:0xfffffb86 x11:0xf80009fc x21=0xffffffff
       43045000	      4303	80001958	01367933	and	x18,x12,x19	 x12:0x00000001 x19:0x08a1fc00 x18=0x00000000
       43055000	      4304	8000195c	02151863	bne	x10,x1,8000198c	 x10:0x00000000  x1:0xfffffdfe
       43065000	      4305	00000000	00000013	addi	x0,x0,0	  x0:0x00000000
       43075000	      4306	80001988	00000013	addi	x0,x0,0	  x0:0x00000000
       43085000	      4307	8000198c	00325393	srli	x7,x4,0x3	  x4:0x00000001  x7=0x00000000
       43095000	      4308	80001990	016527b3	slt	x15,x10,x22	 x10:0x00000000 x22:0x00000000 x15=0x00000000
       43105000	      4309	80001994	00000013	addi	x0,x0,0	  x0:0x00000000
       43115000	      4310	80001998	00000013	addi	x0,x0,0	  x0:0x00000000
       43125000	      4311	8000199c	012c0a93	addi	x21,x24,18	 x24:0x6ec2d8bc x21=0x6ec2d8ce
       43135000	      4312	800019a0	0091d993	srli	x19,x3,0x9	  x3:0xbaf01bdd x19=0x005d780d
       43145000	      4313	800019a4	01224233	xor	x4,x4,x18	  x4:0x00000001 x18:0x00000000  x4=0x00000001
       43155000	      4314	800019a8	00699f33	sll	x30,x19,x6	 x19:0x005d780d  x6:0x12a3a799 x30=0x1a000000
       43165000	      4315	800019ac	12483f37	lui	x30,0x12483	 x30=0x12483000
       43175000	      4316	800019b0	01fb3a33	sltu	x20,x22,x31	 x22:0x00000000 x31:0x00000000 x20=0x00000000
       43185000	      4317	800019b4	b9120db7	lui	x27,0xb9120	 x27=0xb9120000
       43195000	      4318	800019b8	41b2d813	srai	x16,x5,0x1b	  x5:0x80009f84 x16=0xfffffff0
       43205000	      4319	800019bc	0322d863	bge	x5,x18,800019ec	  x5:0x80009f84 x18:0x00000000
       43215000	      4320	800019c0	396e2a13	slti	x20,x28,918	 x28:0x00000001 x20=0x00000001
       43225000	      4321	800019c4	01cac333	xor	x6,x21,x28	 x21:0x6ec2d8ce x28:0x00000001  x6=0x6ec2d8cf
       43235000	      4322	800019c8	00e31263	bne	x6,x14,800019cc	  x6:0x6ec2d8cf x14:0x00000000
       43245000	      4323	00000000	00000013	addi	x0,x0,0	  x0:0x00000000
       43255000	      4324	800019c8	00000013	addi	x0,x0,0	  x0:0x00000000
       43265000	      4325	800019cc	04819063	bne	x3,x8,80001a0c	  x3:0xbaf01bdd  x8:0x08a45074
       43275000	      4326	00000000	00000013	addi	x0,x0,0	  x0:0x00000000
       43285000	      4327	80001a08	00000013	addi	x0,x0,0	  x0:0x00000000
       43295000	      4328	80001a0c	9e227313	andi	x6,x4,-1566	  x4:0x00000001  x6=0x00000000
       43305000	      4329	80001a10	020e8e63	beq	x29,x0,80001a4c	 x29:0x80009c67  x0:0x00000000
       43315000	      4330	80001a14	01672333	slt	x6,x14,x22	 x14:0x00000000 x22:0x00000000  x6=0x00000000
       43325000	      4331	80001a18	04a56063	bltu	x10,x10,80001a58	 x10:0x00000000 x10:0x00000000
       43335000	      4332	80001a1c	00aed533	srl	x10,x29,x10	 x29:0x80009c67 x10:0x00000000 x10=0x80009c67
       43345000	      4333	80001a20	00079033	sll	x0,x15,x0	 x15:0x00000000  x0:0x00000000
       43355000	      4334	80001a24	01e51133	sll	x2,x10,x30	 x10:0x80009c67 x30:0x12483000  x2=0x80009c67
       43365000	      4335	80001a28	024f7063	bgeu	x30,x4,80001a48	 x30:0x12483000  x4:0x00000001
       43375000	      4336	00000000	00000013	addi	x0,x0,0	  x0:0x00000000
       43385000	      4337	80001a44	00000013	addi	x0,x0,0	  x0:0x00000000
       43395000	      4338	80001a48	028f1263	bne	x30,x8,80001a6c	 x30:0x12483000  x8:0x08a45074
       43405000	      4339	00000000	00000013	addi	x0,x0,0	  x0:0x00000000
       43415000	      4340	80001a68	00000013	addi	x0,x0,0	  x0:0x00000000
       43425000	      4341	80001a6c	00843833	sltu	x16,x8,x8	  x8:0x08a45074  x8:0x08a45074 x16=0x00000000
       43435000	      4342	80001a70	b07eb317	auipc	x6,0xb07eb	  x6=0x307eca6c
       43445000	      4343	80001a74	00695c33	srl	x24,x18,x6	 x18:0x00000000  x6:0x307eca6c x24=0x00000000
       43455000	      4344	80001a78	c2466993	ori	x19,x12,-988	 x12:0x00000001 x19=0xfffffc25
       43465000	      4345	80001a7c	034e8c63	beq	x29,x20,80001ab4	 x29:0x80009c67 x20:0x00000001
       43475000	      4346	80001a80	0119d593	srli	x11,x19,0x11	 x19:0xfffffc25 x11=0x00007fff
       43485000	      4347	80001a84	4076d133	sra	x2,x13,x7	 x13:0x80009fc4  x7:0x00000000  x2=0x80009fc4
       43495000	      4348	80001a88	0176a733	slt	x14,x13,x23	 x13:0x80009fc4 x23:0x00000000 x14=0x00000001
       43505000	      4349	80001a8c	406d5433	sra	x8,x26,x6	 x26:0x00000000  x6:0x307eca6c  x8=0x00000000
       43515000	      4350	80001a90	c903ff93	andi	x31,x7,-880	  x7:0x00000000 x31=0x00000000
       43525000	      4351	80001a94	00000013	addi	x0,x0,0	  x0:0x00000000
       43535000	      4352	80001a98	5577af13	slti	x30,x15,1367	 x15:0x00000000 x30=0x00000001
       43545000	      4353	80001a9c	024e5863	bge	x28,x4,80001acc	 x28:0x00000001  x4:0x00000001
       43555000	      4354	00000000	00000013	addi	x0,x0,0	  x0:0x00000000
       43565000	      4355	80001ac8	00000013	addi	x0,x0,0	  x0:0x00000000
       43575000	      4356	80001acc	41015413	srai	x8,x2,0x10	  x2:0x80009fc4  x8=0xffff8000
       43585000	      4357	80001ad0	02bd6263	bltu	x26,x11,80001af4	 x26:0x00000000 x11:0x00007fff
       43595000	      4358	00000000	00000013	addi	x0,x0,0	  x0:0x00000000
       43605000	      4359	80001af0	00000013	addi	x0,x0,0	  x0:0x00000000
       43615000	      4360	80001af4	008b5463	bge	x22,x8,80001afc	 x22:0x00000000  x8:0xffff8000
       43625000	      4361	00000000	00000013	addi	x0,x0,0	  x0:0x00000000
       43635000	      4362	80001af8	00000013	addi	x0,x0,0	  x0:0x00000000
       43645000	      4363	80001afc	01d4f633	and	x12,x9,x29	  x9:0x00000001 x29:0x80009c67 x12=0x00000001
       43655000	      4364	80001b00	01f91e63	bne	x18,x31,80001b1c	 x18:0x00000000 x31:0x00000000
       43665000	      4365	80001b04	413fdb13	srai	x22,x31,0x13	 x31:0x00000000 x22=0x00000000
       43675000	      4366	80001b08	035dec63	bltu	x27,x21,80001b40	 x27:0xb9120000 x21:0x6ec2d8ce
       43685000	      4367	80001b0c	00000013	addi	x0,x0,0	  x0:0x00000000
       43695000	      4368	80001b10	f169b993	sltiu	x19,x19,-234	 x19:0xfffffc25 x19=0x00000001
       43705000	      4369	80001b14	000f98b3	sll	x17,x31,x0	 x31:0x00000000  x0:0x00000000 x17=0x00000000
       43715000	      4370	80001b18	02456863	bltu	x10,x4,80001b48	 x10:0x80009c67  x4:0x00000001
       43725000	      4371	80001b1c	001e00b3	add	x1,x28,x1	 x28:0x00000001  x1:0xfffffdfe  x1=0xfffffdff
       43735000	      4372	80001b20	009d5113	srli	x2,x26,0x9	 x26:0x00000000  x2=0x00000000
       43745000	      4373	80001b24	00000013	addi	x0,x0,0	  x0:0x00000000
       43755000	      4374	80001b28	01385213	srli	x4,x16,0x13	 x16:0x00000000  x4=0x00000000
       43765000	      4375	80001b2c	9771ea13	ori	x20,x3,-1673	  x3:0xbaf01bdd x20=0xfffffbff
       43775000	      4376	80001b30	0191de63	bge	x3,x25,80001b4c	  x3:0xbaf01bdd x25:0x92a3365a
       43785000	      4377	00000000	00000013	addi	x0,x0,0	  x0:0x00000000
       43795000	      4378	80001b48	00000013	addi	x0,x0,0	  x0:0x00000000
       43805000	      4379	80001b4c	01b98733	add	x14,x19,x27	 x19:0x00000001 x27:0xb9120000 x14=0xb9120001
       43815000	      4380	80001b50	a0694a13	xori	x20,x18,-1530	 x18:0x00000000 x20=0xfffffa06
       43825000	      4381	80001b54	4100d613	srai	x12,x1,0x10	  x1:0xfffffdff x12=0xffffffff
       43835000	      4382	80001b58	394fcb93	xori	x23,x31,916	 x31:0x00000000 x23=0x00000394
       43845000	      4383	80001b5c	33b10a93	addi	x21,x2,827	  x2:0x00000000 x21=0x0000033b
       43855000	      4384	80001b60	01b86263	bltu	x16,x27,80001b64	 x16:0x00000000 x27:0xb9120000
       43865000	      4385	00000000	00000013	addi	x0,x0,0	  x0:0x00000000
       43875000	      4386	80001b60	00000013	addi	x0,x0,0	  x0:0x00000000
       43885000	      4387	80001b64	333cf393	andi	x7,x25,819	 x25:0x92a3365a  x7=0x00000212
       43895000	      4388	80001b68	e4437813	andi	x16,x6,-444	  x6:0x307eca6c x16=0x307eca44
       43905000	      4389	80001b6c	025af063	bgeu	x21,x5,80001b8c	 x21:0x0000033b  x5:0x80009f84
       43915000	      4390	80001b70	00c2b233	sltu	x4,x5,x12	  x5:0x80009f84 x12:0xffffffff  x4=0x00000001
       43925000	      4391	80001b74	003425b3	slt	x11,x8,x3	  x8:0xffff8000  x3:0xbaf01bdd x11=0x00000000
       43935000	      4392	80001b78	01d60c63	beq	x12,x29,80001b90	 x12:0xffffffff x29:0x80009c67
       43945000	      4393	80001b7c	0137f263	bgeu	x15,x19,80001b80	 x15:0x00000000 x19:0x00000001
       43955000	      4394	80001b80	00b25f13	srli	x30,x4,0xb	  x4:0x00000001 x30=0x00000000
       43965000	      4395	80001b84	014f4233	xor	x4,x30,x20	 x30:0x00000000 x20:0xfffffa06  x4=0xfffffa06
       43975000	      4396	80001b88	8212e313	ori	x6,x5,-2015	  x5:0x80009f84  x6=0xffffffa5
       43985000	      4397	80001b8c	32a3b097	auipc	x1,0x32a3b	  x1=0xb2a3cb88
       43995000	      4398	80001b90	00ba28b3	slt	x17,x20,x11	 x20:0xfffffa06 x11:0x00000000 x17=0x00000001
       44005000	      4399	80001b94	00868f33	add	x30,x13,x8	 x13:0x80009fc4  x8:0xffff8000 x30=0x80001fc4
       44015000	      4400	80001b98	01d9b233	sltu	x4,x19,x29	 x19:0x00000001 x29:0x80009c67  x4=0x00000001
       44025000	      4401	80001b9c	054b4863	blt	x22,x20,80001bec	 x22:0x00000000 x20:0xfffffa06
       44035000	      4402	80001ba0	64991317	auipc	x6,0x64991	  x6=0xe4992b9c
       44045000	      4403	80001ba4	0088f833	and	x16,x17,x8	 x17:0x00000001  x8:0xffff8000 x16=0x00000000
       44055000	      4404	80001ba8	407b8333	sub	x6,x23,x7	 x23:0x00000394  x7:0x00000212  x6=0x00000182
       44065000	      4405	80001bac	02210a63	beq	x2,x2,80001be0	  x2:0x00000000  x2:0x00000000
       44075000	      4406	00000000	00000013	addi	x0,x0,0	  x0:0x00000000
       44085000	      4407	80001bdc	00000013	addi	x0,x0,0	  x0:0x00000000
       44095000	      4408	80001be0	73b13913	sltiu	x18,x2,1851	  x2:0x00000000 x18=0x00000001
       44105000	      4409	80001be4	41a3d193	srai	x3,x7,0x1a	  x7:0x00000212  x3=0x00000000
       44115000	      4410	80001be8	41c7da93	srai	x21,x15,0x1c	 x15:0x00000000 x21=0x00000000
       44125000	      4411	80001bec	010e1333	sll	x6,x28,x16	 x28:0x00000001 x16:0x00000000  x6=0x00000001
       44135000	      4412	80001bf0	01603c33	sltu	x24,x0,x22	  x0:0x00000000 x22:0x00000000 x24=0x00000000
       44145000	      4413	80001bf4	a1ea8793	addi	x15,x21,-1506	 x21:0x00000000 x15=0xfffffa1e
       44155000	      4414	80001bf8	00dc99b3	sll	x19,x25,x13	 x25:0x92a3365a x13:0x80009fc4 x19=0x2a3365a0
       44165000	      4415	80001bfc	005a1eb3	sll	x29,x20,x5	 x20:0xfffffa06  x5:0x80009f84 x29=0xffffa060
       44175000	      4416	80001c00	00000013	addi	x0,x0,0	  x0:0x00000000
       44185000	      4417	80001c04	00000013	addi	x0,x0,0	  x0:0x00000000
       44195000	      4418	80001c08	fd324d37	lui	x26,0xfd324	 x26=0xfd324000
       44205000	      4419	80001c0c	04ea7063	bgeu	x20,x14,80001c4c	 x20:0xfffffa06 x14:0xb9120001
       44215000	      4420	00000000	00000013	addi	x0,x0,0	  x0:0x00000000
       44225000	      4421	80001c48	00000013	addi	x0,x0,0	  x0:0x00000000
       44235000	      4422	80001c4c	01637263	bgeu	x6,x22,80001c50	  x6:0x00000001 x22:0x00000000
       44245000	      4423	00000000	00000013	addi	x0,x0,0	  x0:0x00000000
       44255000	      4424	80001c4c	00000013	addi	x0,x0,0	  x0:0x00000000
       44265000	      4425	80001c50	04cd8263	beq	x27,x12,80001c94	 x27:0xb9120000 x12:0xffffffff
       44275000	      4426	80001c54	8cf50893	addi	x17,x10,-1841	 x10:0x80009c67 x17=0x80009536
       44285000	      4427	80001c58	01e91593	slli	x11,x18,0x1e	 x18:0x00000001 x11=0x40000000
       44295000	      4428	80001c5c	1d2ddbb7	lui	x23,0x1d2dd	 x23=0x1d2dd000
       44305000	      4429	80001c60	a348c193	xori	x3,x17,-1484	 x17:0x80009536  x3=0x7fff6f02
       44315000	      4430	80001c64	00038bb3	add	x23,x7,x0	  x7:0x00000212  x0:0x00000000 x23=0x00000212
       44325000	      4431	80001c68	97e65797	auipc	x15,0x97e65	 x15=0x17e66c64
       44335000	      4432	80001c6c	f79f2913	slti	x18,x30,-135	 x30:0x80001fc4 x18=0x00000001
       44345000	      4433	80001c70	00cedb93	srli	x23,x29,0xc	 x29:0xffffa060 x23=0x000ffffa
       44355000	      4434	80001c74	00f901b3	add	x3,x18,x15	 x18:0x00000001 x15:0x17e66c64  x3=0x17e66c65
       44365000	      4435	80001c78	40255013	srai	x0,x10,0x2	 x10:0x80009c67
       44375000	      4436	80001c7c	02485663	bge	x16,x4,80001ca8	 x16:0x00000000  x4:0x00000001
       44385000	      4437	80001c80	55766313	ori	x6,x12,1367	 x12:0xffffffff  x6=0xffffffff
       44395000	      4438	80001c84	411d5833	sra	x16,x26,x17	 x26:0xfd324000 x17:0x80009536 x16=0xfffffff4
       44405000	      4439	80001c88	dfe8bd13	sltiu	x26,x17,-514	 x17:0x80009536 x26=0x00000001
       44415000	      4440	80001c8c	92adec13	ori	x24,x27,-1750	 x27:0xb9120000 x24=0xfffff92a
       44425000	      4441	80001c90	00077033	and	x0,x14,x0	 x14:0xb9120001  x0:0x00000000
       44435000	      4442	80001c94	40205713	srai	x14,x0,0x2	  x0:0x00000000 x14=0x00000000
       44445000	      4443	80001c98	292701b7	lui	x3,0x29270	  x3=0x29270000
       44455000	      4444	80001c9c	1c830c13	addi	x24,x6,456	  x6:0xffffffff x24=0x000001c7
       44465000	      4445	80001ca0	aa92eb97	auipc	x23,0xaa92e	 x23=0x2a92fc9c
       44475000	      4446	80001ca4	48dd6a93	ori	x21,x26,1165	 x26:0x00000001 x21=0x0000048d
       44485000	      4447	80001ca8	41b25013	srai	x0,x4,0x1b	  x4:0x00000001
       44495000	      4448	80001cac	01f9f3b3	and	x7,x19,x31	 x19:0x2a3365a0 x31:0x00000000  x7=0x00000000
       44505000	      4449	80001cb0	014ef533	and	x10,x29,x20	 x29:0xffffa060 x20:0xfffffa06 x10=0xffffa000
       44515000	      4450	80001cb4	00695c93	srli	x25,x18,0x6	 x18:0x00000001 x25=0x00000000
       44525000	      4451	80001cb8	2ca8b093	sltiu	x1,x17,714	 x17:0x80009536  x1=0x00000000
       44535000	      4452	80001cbc	00000013	addi	x0,x0,0	  x0:0x00000000
       44545000	      4453	80001cc0	d8e7ee93	ori	x29,x15,-626	 x15:0x17e66c64 x29=0xfffffdee
       44555000	      4454	80001cc4	1586e413	ori	x8,x13,344	 x13:0x80009fc4  x8=0x80009fdc
       44565000	      4455	80001cc8	00000013	addi	x0,x0,0	  x0:0x00000000
       44575000	      4456	80001ccc	02498863	beq	x19,x4,80001cfc	 x19:0x2a3365a0  x4:0x00000001
       44585000	      4457	80001cd0	26406093	ori	x1,x0,612	  x0:0x00000000  x1=0x00000264
       44595000	      4458	80001cd4	c5a35c37	lui	x24,0xc5a35	 x24=0xc5a35000
       44605000	      4459	80001cd8	012d7ab3	and	x21,x26,x18	 x26:0x00000001 x18:0x00000001 x21=0x00000001
       44615000	      4460	80001cdc	011b05b3	add	x11,x22,x17	 x22:0x00000000 x17:0x80009536 x11=0x80009536
       44625000	      4461	80001ce0	01c6d493	srli	x9,x13,0x1c	 x13:0x80009fc4  x9=0x00000008
       44635000	      4462	80001ce4	01c2f1b3	and	x3,x5,x28	  x5:0x80009f84 x28:0x00000001  x3=0x00000000
       44645000	      4463	80001ce8	64060193	addi	x3,x12,1600	 x12:0xffffffff  x3=0x0000063f
       44655000	      4464	80001cec	62e0fb93	andi	x23,x1,1582	  x1:0x00000264 x23=0x00000224
       44665000	      4465	80001cf0	0161c0b3	xor	x1,x3,x22	  x3:0x0000063f x22:0x00000000  x1=0x0000063f
       44675000	      4466	80001cf4	f4f62d13	slti	x26,x12,-177	 x12:0xffffffff x26=0x00000000
       44685000	      4467	80001cf8	008439b3	sltu	x19,x8,x8	  x8:0x80009fdc  x8:0x80009fdc x19=0x00000000
       44695000	      4468	80001cfc	04ea6863	bltu	x20,x14,80001d4c	 x20:0xfffffa06 x14:0x00000000
       44705000	      4469	80001d00	0043c463	blt	x7,x4,80001d08	  x7:0x00000000  x4:0x00000001
       44715000	      4470	00000000	00000013	addi	x0,x0,0	  x0:0x00000000
       44725000	      4471	80001d04	00000013	addi	x0,x0,0	  x0:0x00000000
       44735000	      4472	80001d08	00081213	slli	x4,x16,0x0	 x16:0xfffffff4  x4=0xfffffff4
       44745000	      4473	80001d0c	0159b0b3	sltu	x1,x19,x21	 x19:0x00000000 x21:0x00000001  x1=0x00000001
       44755000	      4474	80001d10	03eb6063	bltu	x22,x30,80001d30	 x22:0x00000000 x30:0x80001fc4
       44765000	      4475	00000000	00000013	addi	x0,x0,0	  x0:0x00000000
       44775000	      4476	80001d2c	00000013	addi	x0,x0,0	  x0:0x00000000
       44785000	      4477	80001d30	0143f263	bgeu	x7,x20,80001d34	  x7:0x00000000 x20:0xfffffa06
       44795000	      4478	80001d34	76fb0893	addi	x17,x22,1903	 x22:0x00000000 x17=0x0000076f
       44805000	      4479	80001d38	001115b3	sll	x11,x2,x1	  x2:0x00000000  x1:0x00000001 x11=0x00000000
       44815000	      4480	80001d3c	006d4533	xor	x10,x26,x6	 x26:0x00000000  x6:0xffffffff x10=0xffffffff
       44825000	      4481	80001d40	018315b3	sll	x11,x6,x24	  x6:0xffffffff x24:0xc5a35000 x11=0xffffffff
       44835000	      4482	80001d44	4b604037	lui	x0,0x4b604	
       44845000	      4483	80001d48	01290033	add	x0,x18,x18	 x18:0x00000001 x18:0x00000001
       44855000	      4484	80001d4c	019d2db3	slt	x27,x26,x25	 x26:0x00000000 x25:0x00000000 x27=0x00000000
       44865000	      4485	80001d50	04f10063	beq	x2,x15,80001d90	  x2:0x00000000 x15:0x17e66c64
       44875000	      4486	80001d54	4018d093	srai	x1,x17,0x1	 x17:0x0000076f  x1=0x000003b7
       44885000	      4487	80001d58	03b15a63	bge	x2,x27,80001d8c	  x2:0x00000000 x27:0x00000000
       44895000	      4488	00000000	00000013	addi	x0,x0,0	  x0:0x00000000
       44905000	      4489	80001d88	00000013	addi	x0,x0,0	  x0:0x00000000
       44915000	      4490	80001d8c	00214db3	xor	x27,x2,x2	  x2:0x00000000  x2:0x00000000 x27=0x00000000
       44925000	      4491	80001d90	01ff8633	add	x12,x31,x31	 x31:0x00000000 x31:0x00000000 x12=0x00000000
       44935000	      4492	80001d94	f0d11397	auipc	x7,0xf0d11	  x7=0x70d12d90
       44945000	      4493	80001d98	3481c093	xori	x1,x3,840	  x3:0x0000063f  x1=0x00000577
       44955000	      4494	80001d9c	003ee0b3	or	x1,x29,x3	 x29:0xfffffdee  x3:0x0000063f  x1=0xffffffff
       44965000	      4495	80001da0	03d35c63	bge	x6,x29,80001dd8	  x6:0xffffffff x29:0xfffffdee
       44975000	      4496	00000000	00000013	addi	x0,x0,0	  x0:0x00000000
       44985000	      4497	80001dd4	00000013	addi	x0,x0,0	  x0:0x00000000
       44995000	      4498	80001dd8	291d2713	slti	x14,x26,657	 x26:0x00000000 x14=0x00000001
       45005000	      4499	80001ddc	41c9d393	srai	x7,x19,0x1c	 x19:0x00000000  x7=0x00000000
       45015000	      4500	80001de0	03405063	bge	x0,x20,80001e00	  x0:0x00000000 x20:0xfffffa06
       45025000	      4501	00000000	00000013	addi	x0,x0,0	  x0:0x00000000
       45035000	      4502	80001dfc	00000013	addi	x0,x0,0	  x0:0x00000000
       45045000	      4503	80001e00	008a3533	sltu	x10,x20,x8	 x20:0xfffffa06  x8:0x80009fdc x10=0x00000000
       45055000	      4504	80001e04	40838bb3	sub	x23,x7,x8	  x7:0x00000000  x8:0x80009fdc x23=0x7fff6024
       45065000	      4505	80001e08	40fe8033	sub	x0,x29,x15	 x29:0xfffffdee x15:0x17e66c64
       45075000	      4506	80001e0c	bf854d13	xori	x26,x10,-1032	 x10:0x00000000 x26=0xfffffbf8
       45085000	      4507	80001e10	0d314b93	xori	x23,x2,211	  x2:0x00000000 x23=0x000000d3
       45095000	      4508	80001e14	03b61c63	bne	x12,x27,80001e4c	 x12:0x00000000 x27:0x00000000
       45105000	      4509	80001e18	01084cb3	xor	x25,x16,x16	 x16:0xfffffff4 x16:0xfffffff4 x25=0x00000000
       45115000	      4510	80001e1c	016f3ab3	sltu	x21,x30,x22	 x30:0x80001fc4 x22:0x00000000 x21=0x00000000
       45125000	      4511	80001e20	02260c63	beq	x12,x2,80001e58	 x12:0x00000000  x2:0x00000000
       45135000	      4512	00000000	00000013	addi	x0,x0,0	  x0:0x00000000
       45145000	      4513	80001e54	00000013	addi	x0,x0,0	  x0:0x00000000
       45155000	      4514	80001e58	018df333	and	x6,x27,x24	 x27:0x00000000 x24:0xc5a35000  x6=0x00000000
       45165000	      4515	80001e5c	8a634713	xori	x14,x6,-1882	  x6:0x00000000 x14=0xfffff8a6
       45175000	      4516	80001e60	00e27fb3	and	x31,x4,x14	  x4:0xfffffff4 x14:0xfffff8a6 x31=0xfffff8a4
       45185000	      4517	80001e64	01c08733	add	x14,x1,x28	  x1:0xffffffff x28:0x00000001 x14=0x00000000
       45195000	      4518	80001e68	1ff5fc13	andi	x24,x11,511	 x11:0xffffffff x24=0x000001ff
       45205000	      4519	80001e6c	00921c63	bne	x4,x9,80001e84	  x4:0xfffffff4  x9:0x00000008
       45215000	      4520	00000000	00000013	addi	x0,x0,0	  x0:0x00000000
       45225000	      4521	80001e80	00000013	addi	x0,x0,0	  x0:0x00000000
       45235000	      4522	80001e84	8da08a97	auipc	x21,0x8da08	 x21=0x0da09e80
       45245000	      4523	80001e88	000337b3	sltu	x15,x6,x0	  x6:0x00000000  x0:0x00000000 x15=0x00000000
       45255000	      4524	80001e8c	014d78b3	and	x17,x26,x20	 x26:0xfffffbf8 x20:0xfffffa06 x17=0xfffffa00
       45265000	      4525	80001e90	00a45b93	srli	x23,x8,0xa	  x8:0x80009fdc x23=0x00200027
       45275000	      4526	80001e94	4007d413	srai	x8,x15,0x0	 x15:0x00000000  x8=0x00000000
       45285000	      4527	80001e98	9eab4c97	auipc	x25,0x9eab4	 x25=0x1eab5e94
       45295000	      4528	80001e9c	01a24e63	blt	x4,x26,80001eb8	  x4:0xfffffff4 x26:0xfffffbf8
       45305000	      4529	80001ea0	cc493093	sltiu	x1,x18,-828	 x18:0x00000001  x1=0x00000001
       45315000	      4530	80001ea4	009c9c33	sll	x24,x25,x9	 x25:0x1eab5e94  x9:0x00000008 x24=0xab5e9400
       45325000	      4531	80001ea8	0116b0b3	sltu	x1,x13,x17	 x13:0x80009fc4 x17:0xfffffa00  x1=0x00000001
       45335000	      4532	80001eac	003fdd93	srli	x27,x31,0x3	 x31:0xfffff8a4 x27=0x1fffff14
       45345000	      4533	80001eb0	00000013	addi	x0,x0,0	  x0:0x00000000
       45355000	      4534	80001eb4	f7130213	addi	x4,x6,-143	  x6:0x00000000  x4=0xffffff71
       45365000	      4535	80001eb8	00b83933	sltu	x18,x16,x11	 x16:0xfffffff4 x11:0xffffffff x18=0x00000001
       45375000	      4536	80001ebc	01d08db3	add	x27,x1,x29	  x1:0x00000001 x29:0xfffffdee x27=0xfffffdef
       45385000	      4537	80001ec0	00000013	addi	x0,x0,0	  x0:0x00000000
       45395000	      4538	80001ec4	e73b0d17	auipc	x26,0xe73b0	 x26=0x673b1ec0
       45405000	      4539	80001ec8	01ec9333	sll	x6,x25,x30	 x25:0x1eab5e94 x30:0x80001fc4  x6=0xeab5e940
       45415000	      4540	80001ecc	e9543013	sltiu	x0,x8,-363	  x8:0x00000000
       45425000	      4541	80001ed0	26d0b317	auipc	x6,0x26d0b	  x6=0xa6d0cecc
       45435000	      4542	80001ed4	40008fb3	sub	x31,x1,x0	  x1:0x00000001  x0:0x00000000 x31=0x00000001
       45445000	      4543	80001ed8	00000013	addi	x0,x0,0	  x0:0x00000000
       45455000	      4544	80001edc	00ec2033	slt	x0,x24,x14	 x24:0xab5e9400 x14:0x00000000
       45465000	      4545	80001ee0	6febb737	lui	x14,0x6febb	 x14=0x6febb000
       45475000	      4546	80001ee4	41a685b3	sub	x11,x13,x26	 x13:0x80009fc4 x26:0x673b1ec0 x11=0x18c58104
       45485000	      4547	80001ee8	0d094493	xori	x9,x18,208	 x18:0x00000001  x9=0x000000d1
       45495000	      4548	80001eec	18536d13	ori	x26,x6,389	  x6:0xa6d0cecc x26=0xa6d0cfcd
       45505000	      4549	80001ef0	004e31b3	sltu	x3,x28,x4	 x28:0x00000001  x4:0xffffff71  x3=0x00000001
       45515000	      4550	80001ef4	04f60063	beq	x12,x15,80001f34	 x12:0x00000000 x15:0x00000000
       45525000	      4551	00000000	00000013	addi	x0,x0,0	  x0:0x00000000
       45535000	      4552	80001f30	00000013	addi	x0,x0,0	  x0:0x00000000
       45545000	      4553	80001f34	00c7bf33	sltu	x30,x15,x12	 x15:0x00000000 x12:0x00000000 x30=0x00000000
       45555000	      4554	80001f38	00bd6e63	bltu	x26,x11,80001f54	 x26:0xa6d0cfcd x11:0x18c58104
       45565000	      4555	80001f3c	7007c493	xori	x9,x15,1792	 x15:0x00000000  x9=0x00000700
       45575000	      4556	80001f40	01f81ab3	sll	x21,x16,x31	 x16:0xfffffff4 x31:0x00000001 x21=0xffffffe8
       45585000	      4557	80001f44	02c60863	beq	x12,x12,80001f74	 x12:0x00000000 x12:0x00000000
       45595000	      4558	00000000	00000013	addi	x0,x0,0	  x0:0x00000000
       45605000	      4559	80001f70	00000013	addi	x0,x0,0	  x0:0x00000000
       45615000	      4560	80001f74	004b29b3	slt	x19,x22,x4	 x22:0x00000000  x4:0xffffff71 x19=0x00000000
       45625000	      4561	80001f78	00ca50b3	srl	x1,x20,x12	 x20:0xfffffa06 x12:0x00000000  x1=0xfffffa06
       45635000	      4562	80001f7c	00c55cb3	srl	x25,x10,x12	 x10:0x00000000 x12:0x00000000 x25=0x00000000
       45645000	      4563	80001f80	0bc9c813	xori	x16,x19,188	 x19:0x00000000 x16=0x000000bc
       45655000	      4564	80001f84	01274463	blt	x14,x18,80001f8c	 x14:0x6febb000 x18:0x00000001
       45665000	      4565	80001f88	40785613	srai	x12,x16,0x7	 x16:0x000000bc x12=0x00000001
       45675000	      4566	80001f8c	0644fc13	andi	x24,x9,100	  x9:0x00000700 x24=0x00000000
       45685000	      4567	80001f90	02109c63	bne	x1,x1,80001fc8	  x1:0xfffffa06  x1:0xfffffa06
       45695000	      4568	80001f94	0293fc63	bgeu	x7,x9,80001fcc	  x7:0x00000000  x9:0x00000700
       45705000	      4569	80001f98	005144b3	xor	x9,x2,x5	  x2:0x00000000  x5:0x80009f84  x9=0x80009f84
       45715000	      4570	80001f9c	0197fc33	and	x24,x15,x25	 x15:0x00000000 x25:0x00000000 x24=0x00000000
       45725000	      4571	80001fa0	00df81b3	add	x3,x31,x13	 x31:0x00000001 x13:0x80009fc4  x3=0x80009fc5
       45735000	      4572	80001fa4	01aef233	and	x4,x29,x26	 x29:0xfffffdee x26:0xa6d0cfcd  x4=0xa6d0cdcc
       45745000	      4573	80001fa8	c134f513	andi	x10,x9,-1005	  x9:0x80009f84 x10=0x80009c00
       45755000	      4574	80001fac	7a7ef713	andi	x14,x29,1959	 x29:0xfffffdee x14=0x000005a6
       45765000	      4575	80001fb0	00565cb3	srl	x25,x12,x5	 x12:0x00000001  x5:0x80009f84 x25=0x00000000
       45775000	      4576	80001fb4	004f9d33	sll	x26,x31,x4	 x31:0x00000001  x4:0xa6d0cdcc x26=0x00001000
       45785000	      4577	80001fb8	004d0033	add	x0,x26,x4	 x26:0x00001000  x4:0xa6d0cdcc
       45795000	      4578	80001fbc	bbf87d93	andi	x27,x16,-1089	 x16:0x000000bc x27=0x000000bc
       45805000	      4579	80001fc0	41f15f13	srai	x30,x2,0x1f	  x2:0x00000000 x30=0x00000000
       45815000	      4580	80001fc4	4dc83417	auipc	x8,0x4dc83	  x8=0xcdc84fc0
       45825000	      4581	80001fc8	743ca793	slti	x15,x25,1859	 x25:0x00000000 x15=0x00000001
       45835000	      4582	80001fcc	6d89a013	slti	x0,x19,1752	 x19:0x00000000
       45845000	      4583	80001fd0	48e3b113	sltiu	x2,x7,1166	  x7:0x00000000  x2=0x00000001
       45855000	      4584	80001fd4	24552413	slti	x8,x10,581	 x10:0x80009c00  x8=0x00000001
       45865000	      4585	80001fd8	01422ab3	slt	x21,x4,x20	  x4:0xa6d0cdcc x20:0xfffffa06 x21=0x00000001
       45875000	      4586	80001fdc	00e2e8b3	or	x17,x5,x14	  x5:0x80009f84 x14:0x000005a6 x17=0x80009fa6
       45885000	      4587	80001fe0	018bd4b3	srl	x9,x23,x24	 x23:0x00200027 x24:0x00000000  x9=0x00200027
       45895000	      4588	80001fe4	015b1bb3	sll	x23,x22,x21	 x22:0x00000000 x21:0x00000001 x23=0x00000000
       45905000	      4589	80001fe8	01422133	slt	x2,x4,x20	  x4:0xa6d0cdcc x20:0xfffffa06  x2=0x00000001
       45915000	      4590	80001fec	01544f33	xor	x30,x8,x21	  x8:0x00000001 x21:0x00000001 x30=0x00000000
       45925000	      4591	80001ff0	5a91af13	slti	x30,x3,1449	  x3:0x80009fc5 x30=0x00000001
       45935000	      4592	80001ff4	748af393	andi	x7,x21,1864	 x21:0x00000001  x7=0x00000000
       45945000	      4593	80001ff8	41db5b93	srai	x23,x22,0x1d	 x22:0x00000000 x23=0x00000000
       45955000	      4594	80001ffc	00000013	addi	x0,x0,0	  x0:0x00000000
       45965000	      4595	80002000	4015d393	srai	x7,x11,0x1	 x11:0x18c58104  x7=0x0c62c082
       45975000	      4596	80002004	01726993	ori	x19,x4,23	  x4:0xa6d0cdcc x19=0xa6d0cddf
       45985000	      4597	80002008	5b752d93	slti	x27,x10,1463	 x10:0x80009c00 x27=0x00000001
       45995000	      4598	8000200c	01672733	slt	x14,x14,x22	 x14:0x000005a6 x22:0x00000000 x14=0x00000000
       46005000	      4599	80002010	628e6b13	ori	x22,x28,1576	 x28:0x00000001 x22=0x00000629
       46015000	      4600	80002014	0d5ecb93	xori	x23,x29,213	 x29:0xfffffdee x23=0xfffffd3b
       46025000	      4601	80002018	014dd5b3	srl	x11,x27,x20	 x27:0x00000001 x20:0xfffffa06 x11=0x00000000
       46035000	      4602	8000201c	09ef6863	bltu	x30,x30,800020ac	 x30:0x00000001 x30:0x00000001
       46045000	      4603	80002020	63517db7	lui	x27,0x63517	 x27=0x63517000
       46055000	      4604	80002024	403dd193	srai	x3,x27,0x3	 x27:0x63517000  x3=0x0c6a2e00
       46065000	      4605	80002028	0107da33	srl	x20,x15,x16	 x15:0x00000001 x16:0x000000bc x20=0x00000000
       46075000	      4606	8000202c	e7daca13	xori	x20,x21,-387	 x21:0x00000001 x20=0xfffffe7c
       46085000	      4607	80002030	bc7df393	andi	x7,x27,-1081	 x27:0x63517000  x7=0x63517000
       46095000	      4608	80002034	08c19a63	bne	x3,x12,800020c8	  x3:0x0c6a2e00 x12:0x00000001
       46105000	      4609	00000000	00000013	addi	x0,x0,0	  x0:0x00000000
       46115000	      4610	800020c4	00000013	addi	x0,x0,0	  x0:0x00000000
       46125000	      4611	800020c8	0032ab33	slt	x22,x5,x3	  x5:0x80009f84  x3:0x0c6a2e00 x22=0x00000001
       46135000	      4612	800020cc	3eab7413	andi	x8,x22,1002	 x22:0x00000001  x8=0x00000000
       46145000	      4613	800020d0	01e07cb3	and	x25,x0,x30	  x0:0x00000000 x30:0x00000001 x25=0x00000000
       46155000	      4614	800020d4	481f2f13	slti	x30,x30,1153	 x30:0x00000001 x30=0x00000001
       46165000	      4615	800020d8	41775d33	sra	x26,x14,x23	 x14:0x00000000 x23:0xfffffd3b x26=0x00000000
       46175000	      4616	800020dc	018a6633	or	x12,x20,x24	 x20:0xfffffe7c x24:0x00000000 x12=0xfffffe7c
       46185000	      4617	800020e0	01cab9b3	sltu	x19,x21,x28	 x21:0x00000001 x28:0x00000001 x19=0x00000000
       46195000	      4618	800020e4	4b464b93	xori	x23,x12,1204	 x12:0xfffffe7c x23=0xfffffac8
       46205000	      4619	800020e8	bed9cd17	auipc	x26,0xbed9c	 x26=0x3ed9e0e4
       46215000	      4620	800020ec	415b59b3	sra	x19,x22,x21	 x22:0x00000001 x21:0x00000001 x19=0x00000000
       46225000	      4621	800020f0	89c09b97	auipc	x23,0x89c09	 x23=0x09c0b0ec
       46235000	      4622	800020f4	00cbc833	xor	x16,x23,x12	 x23:0x09c0b0ec x12:0xfffffe7c x16=0xf63f4e90
       46245000	      4623	800020f8	41e20533	sub	x10,x4,x30	  x4:0xa6d0cdcc x30:0x00000001 x10=0xa6d0cdcb
       46255000	      4624	800020fc	0391ec63	bltu	x3,x25,80002134	  x3:0x0c6a2e00 x25:0x00000000
       46265000	      4625	80002100	f3d74b13	xori	x22,x14,-195	 x14:0x00000000 x22=0xffffff3d
       46275000	      4626	80002104	b553b313	sltiu	x6,x7,-1195	  x7:0x63517000  x6=0x00000001
       46285000	      4627	80002108	4073dcb3	sra	x25,x7,x7	  x7:0x63517000  x7:0x63517000 x25=0x63517000
       46295000	      4628	8000210c	00f7bbb3	sltu	x23,x15,x15	 x15:0x00000001 x15:0x00000001 x23=0x00000000
       46305000	      4629	80002110	01604f33	xor	x30,x0,x22	  x0:0x00000000 x22:0xffffff3d x30=0xffffff3d
       46315000	      4630	80002114	40e15a33	sra	x20,x2,x14	  x2:0x00000001 x14:0x00000000 x20=0x00000001
       46325000	      4631	80002118	005c7663	bgeu	x24,x5,80002124	 x24:0x00000000  x5:0x80009f84
       46335000	      4632	8000211c	00000013	addi	x0,x0,0	  x0:0x00000000
       46345000	      4633	80002120	02eb5063	bge	x22,x14,80002140	 x22:0xffffff3d x14:0x00000000
       46355000	      4634	80002124	004e5a63	bge	x28,x4,80002138	 x28:0x00000001  x4:0xa6d0cdcc
       46365000	      4635	00000000	00000013	addi	x0,x0,0	  x0:0x00000000
       46375000	      4636	80002134	00000013	addi	x0,x0,0	  x0:0x00000000
       46385000	      4637	80002138	0080e863	bltu	x1,x8,80002148	  x1:0xfffffa06  x8:0x00000000
       46395000	      4638	8000213c	00eaf4b3	and	x9,x21,x14	 x21:0x00000001 x14:0x00000000  x9=0x00000000
       46405000	      4639	80002140	0023b533	sltu	x10,x7,x2	  x7:0x63517000  x2:0x00000001 x10=0x00000000
       46415000	      4640	80002144	00524db3	xor	x27,x4,x5	  x4:0xa6d0cdcc  x5:0x80009f84 x27=0x26d05248
       46425000	      4641	80002148	34f7ba13	sltiu	x20,x15,847	 x15:0x00000001 x20=0x00000001
       46435000	      4642	8000214c	00000e17	auipc	x28,0x0	 x28=0x80002148
       46445000	      4643	80002150	00ce0e13	addi	x28,x28,12	 x28:0x80002148 x28=0x80002154
       46455000	      4644	80002154	000e0067	jalr	x0,x28,0	 x28:0x80002154
       46465000	      4645	00000000	00000013	addi	x0,x0,0	  x0:0x00000000
       46475000	      4646	80002154	00000013	addi	x0,x0,0	  x0:0x00000000
       46485000	      4647	80002158	00100193	addi	x3,x0,1	  x0:0x00000000  x3=0x00000001
       46495000	      4648	8000215c	00000073	ecall	
       46505000	      4649	80002160	01def863	bgeu	x29,x29,80002170	 x29:0xfffffdee x29:0xfffffdee
