		Time			Cycle	PC		Insn	Decoded instruction	Register and memory contents
          65000	         5	80000004	00000293	addi	x5,x0,0	  x0:0x00000000  x5=0x00000000
          75000	         6	80000008	00000313	addi	x6,x0,0	  x0:0x00000000  x6=0x00000000
          85000	         7	8000000c	00628263	beq	x5,x6,80000010	  x5:0x00000000  x6:0x00000000
          95000	         8	00000000	00000013	addi	x0,x0,0	  x0:0x00000000
         105000	         9	8000000c	00000013	addi	x0,x0,0	  x0:0x00000000
         115000	        10	80000010	00000d17	auipc	x26,0x0	 x26=0x8000000c
         125000	        11	80000014	00cd0d13	addi	x26,x26,12	 x26:0x8000000c x26=0x80000018
         135000	        12	80000018	000d0067	jalr	x0,x26,0	 x26:0x80000018
         145000	        13	00000000	00000013	addi	x0,x0,0	  x0:0x00000000
         155000	        14	80000018	00000013	addi	x0,x0,0	  x0:0x00000000
         165000	        15	8000001c	40000e37	lui	x28,0x40000	 x28=0x40000000
         175000	        16	80000020	100e0e13	addi	x28,x28,256	 x28:0x40000000 x28=0x40000100
         185000	        17	80000024	00000013	addi	x0,x0,0	  x0:0x00000000
         195000	        18	80000028	0000a997	auipc	x19,0xa	 x19=0x8000a024
         205000	        19	8000002c	fa098993	addi	x19,x19,-96	 x19:0x8000a024 x19=0x80009fc4
         215000	        20	80000030	00004e17	auipc	x28,0x4	 x28=0x8000402c
         225000	        21	80000034	5d8e0e13	addi	x28,x28,1496	 x28:0x8000402c x28=0x80004604
         235000	        22	80000038	000e6e13	ori	x28,x28,0	 x28:0x80004604 x28=0x80004604
         245000	        23	8000003c	00000013	addi	x0,x0,0	  x0:0x00000000
         255000	        24	80000040	00000e17	auipc	x28,0x0	 x28=0x8000003c
         265000	        25	80000044	020e0e13	addi	x28,x28,32	 x28:0x8000003c x28=0x8000005c
         275000	        26	80000048	00000013	addi	x0,x0,0	  x0:0x00000000
         285000	        27	8000004c	00000013	addi	x0,x0,0	  x0:0x00000000
         295000	        28	80000050	00002e37	lui	x28,0x2	 x28=0x00002000
         305000	        29	80000054	800e0e13	addi	x28,x28,-2048	 x28:0x00002000 x28=0x00001800
         315000	        30	80000058	00000013	addi	x0,x0,0	  x0:0x00000000
         325000	        31	8000005c	00000013	addi	x0,x0,0	  x0:0x00000000
         335000	        32	80000060	505c7037	lui	x0,0x505c7	
         345000	        33	80000064	f0d00013	addi	x0,x0,-243	  x0:0x00000000
         355000	        34	80000068	800000b7	lui	x1,0x80000	  x1=0x80000000
         365000	        35	8000006c	f8ec5137	lui	x2,0xf8ec5	  x2=0xf8ec5000
         375000	        36	80000070	e7710113	addi	x2,x2,-393	  x2:0xf8ec5000  x2=0xf8ec4e77
         385000	        37	80000074	f4a841b7	lui	x3,0xf4a84	  x3=0xf4a84000
         395000	        38	80000078	b7a18193	addi	x3,x3,-1158	  x3:0xf4a84000  x3=0xf4a83b7a
         405000	        39	8000007c	00000213	addi	x4,x0,0	  x0:0x00000000  x4=0x00000000
         415000	        40	80000080	5cb772b7	lui	x5,0x5cb77	  x5=0x5cb77000
         425000	        41	80000084	32828293	addi	x5,x5,808	  x5:0x5cb77000  x5=0x5cb77328
         435000	        42	80000088	80000337	lui	x6,0x80000	  x6=0x80000000
         445000	        43	8000008c	00000393	addi	x7,x0,0	  x0:0x00000000  x7=0x00000000
         455000	        44	80000090	00600413	addi	x8,x0,6	  x0:0x00000000  x8=0x00000006
         465000	        45	80000094	f62b04b7	lui	x9,0xf62b0	  x9=0xf62b0000
         475000	        46	80000098	77648493	addi	x9,x9,1910	  x9:0xf62b0000  x9=0xf62b0776
         485000	        47	8000009c	fa30f537	lui	x10,0xfa30f	 x10=0xfa30f000
         495000	        48	800000a0	59150513	addi	x10,x10,1425	 x10:0xfa30f000 x10=0xfa30f591
         505000	        49	800000a4	00e00593	addi	x11,x0,14	  x0:0x00000000 x11=0x0000000e
         515000	        50	800000a8	80000637	lui	x12,0x80000	 x12=0x80000000
         525000	        51	800000ac	fce946b7	lui	x13,0xfce94	 x13=0xfce94000
         535000	        52	800000b0	54c68693	addi	x13,x13,1356	 x13:0xfce94000 x13=0xfce9454c
         545000	        53	800000b4	80000737	lui	x14,0x80000	 x14=0x80000000
         555000	        54	800000b8	800007b7	lui	x15,0x80000	 x15=0x80000000
         565000	        55	800000bc	8fa01837	lui	x16,0x8fa01	 x16=0x8fa01000
         575000	        56	800000c0	1d780813	addi	x16,x16,471	 x16:0x8fa01000 x16=0x8fa011d7
         585000	        57	800000c4	800008b7	lui	x17,0x80000	 x17=0x80000000
         595000	        58	800000c8	00300913	addi	x18,x0,3	  x0:0x00000000 x18=0x00000003
         605000	        59	800000cc	00200a13	addi	x20,x0,2	  x0:0x00000000 x20=0x00000002
         615000	        60	800000d0	f3b86ab7	lui	x21,0xf3b86	 x21=0xf3b86000
         625000	        61	800000d4	1bfa8a93	addi	x21,x21,447	 x21:0xf3b86000 x21=0xf3b861bf
         635000	        62	800000d8	59a16bb7	lui	x23,0x59a16	 x23=0x59a16000
         645000	        63	800000dc	32bb8b93	addi	x23,x23,811	 x23:0x59a16000 x23=0x59a1632b
         655000	        64	800000e0	f2359c37	lui	x24,0xf2359	 x24=0xf2359000
         665000	        65	800000e4	a7fc0c13	addi	x24,x24,-1409	 x24:0xf2359000 x24=0xf2358a7f
         675000	        66	800000e8	57737cb7	lui	x25,0x57737	 x25=0x57737000
         685000	        67	800000ec	26ec8c93	addi	x25,x25,622	 x25:0x57737000 x25=0x5773726e
         695000	        68	800000f0	fb709d37	lui	x26,0xfb709	 x26=0xfb709000
         705000	        69	800000f4	2ccd0d13	addi	x26,x26,716	 x26:0xfb709000 x26=0xfb7092cc
         715000	        70	800000f8	00000d93	addi	x27,x0,0	  x0:0x00000000 x27=0x00000000
         725000	        71	800000fc	00a00e13	addi	x28,x0,10	  x0:0x00000000 x28=0x0000000a
         735000	        72	80000100	f81e1eb7	lui	x29,0xf81e1	 x29=0xf81e1000
         745000	        73	80000104	1a7e8e93	addi	x29,x29,423	 x29:0xf81e1000 x29=0xf81e11a7
         755000	        74	80000108	fc2bef37	lui	x30,0xfc2be	 x30=0xfc2be000
         765000	        75	8000010c	caff0f13	addi	x30,x30,-849	 x30:0xfc2be000 x30=0xfc2bdcaf
         775000	        76	80000110	80000fb7	lui	x31,0x80000	 x31=0x80000000
         785000	        77	80000114	0000ab17	auipc	x22,0xa	 x22=0x8000a110
         795000	        78	80000118	e74b0b13	addi	x22,x22,-396	 x22:0x8000a110 x22=0x80009f84
         805000	        79	8000011c	9f58e137	lui	x2,0x9f58e	  x2=0x9f58e000
         815000	        80	80000120	00000297	auipc	x5,0x0	  x5=0x8000011c
         825000	        81	80000124	5f428293	addi	x5,x5,1524	  x5:0x8000011c  x5=0x80000710
         835000	        82	80000128	00103633	sltu	x12,x0,x1	  x0:0x00000000  x1:0x80000000 x12=0x00000001
         845000	        83	8000012c	01344433	xor	x8,x8,x19	  x8:0x00000006 x19:0x80009fc4  x8=0x80009fc2
         855000	        84	80000130	25228293	addi	x5,x5,594	  x5:0x80000710  x5=0x80000962
         865000	        85	80000134	01bce533	or	x10,x25,x27	 x25:0x5773726e x27:0x00000000 x10=0x5773726e
         875000	        86	80000138	005b7fb3	and	x31,x22,x5	 x22:0x80009f84  x5:0x80000962 x31=0x80000900
         885000	        87	8000013c	dae280e7	jalr	x1,x5,-594	  x5:0x80000962  x1=0x8000013c
         895000	        88	00000000	00000013	addi	x0,x0,0	  x0:0x00000000
         905000	        89	80000710	00000013	addi	x0,x0,0	  x0:0x00000000
         915000	        90	80000714	5ccaf917	auipc	x18,0x5ccaf	 x18=0xdccaf710
         925000	        91	80000718	0193d033	srl	x0,x7,x25	  x7:0x00000000 x25:0x5773726e
         935000	        92	8000071c	7762d217	auipc	x4,0x7762d	  x4=0xf762d718
         945000	        93	80000720	92910117	auipc	x2,0x92910	  x2=0x1291071c
         955000	        94	80000724	ff4b0b13	addi	x22,x22,-12	 x22:0x80009f84 x22=0x80009f78
         965000	        95	80000728	00b8dcb3	srl	x25,x17,x11	 x17:0x80000000 x11:0x0000000e x25=0x00020000
         975000	        96	8000072c	001b2223	sw	x1,4(x22)	 x22:0x80009f78  x1:0x8000013c PA:0x80009f7c
         985000	        97	80000730	40ea5893	srai	x17,x20,0xe	 x20:0x00000002 x17=0x00000000
         995000	        98	80000734	83a8a113	slti	x2,x17,-1990	 x17:0x00000000  x2=0x00000000
        1005000	        99	80000738	a111fa93	andi	x21,x3,-1519	  x3:0xf4a83b7a x21=0xf4a83a10
        1015000	       100	8000073c	013724b3	slt	x9,x14,x19	 x14:0x80000000 x19:0x80009fc4  x9=0x00000001
        1025000	       101	80000740	00c25f93	srli	x31,x4,0xc	  x4:0xf762d718 x31=0x000f762d
        1035000	       102	80000744	00003517	auipc	x10,0x3	 x10=0x80003740
        1045000	       103	80000748	6d850513	addi	x10,x10,1752	 x10:0x80003740 x10=0x80003e18
        1055000	       104	8000074c	00778c33	add	x24,x15,x7	 x15:0x80000000  x7:0x00000000 x24=0x80000000
        1065000	       105	80000750	415281b3	sub	x3,x5,x21	  x5:0x80000962 x21:0xf4a83a10  x3=0x8b57cf52
        1075000	       106	80000754	00e25b93	srli	x23,x4,0xe	  x4:0xf762d718 x23=0x0003dd8b
        1085000	       107	80000758	00000013	addi	x0,x0,0	  x0:0x00000000
        1095000	       108	8000075c	00c15d93	srli	x27,x2,0xc	  x2:0x00000000 x27=0x00000000
        1105000	       109	80000760	08850513	addi	x10,x10,136	 x10:0x80003e18 x10=0x80003ea0
        1115000	       110	80000764	e981ab93	slti	x23,x3,-360	  x3:0x8b57cf52 x23=0x00000001
        1125000	       111	80000768	01b5e933	or	x18,x11,x27	 x11:0x0000000e x27:0x00000000 x18=0x0000000e
        1135000	       112	8000076c	01d2b5b3	sltu	x11,x5,x29	  x5:0x80000962 x29:0xf81e11a7 x11=0x00000001
        1145000	       113	80000770	016c0463	beq	x24,x22,80000778	 x24:0x80000000 x22:0x80009f78
        1155000	       114	80000774	012a4633	xor	x12,x20,x18	 x20:0x00000002 x18:0x0000000e x12=0x0000000c
        1165000	       115	80000778	f78500e7	jalr	x1,x10,-136	 x10:0x80003ea0  x1=0x80000778
        1175000	       116	00000000	00000013	addi	x0,x0,0	  x0:0x00000000
        1185000	       117	80003e18	00000013	addi	x0,x0,0	  x0:0x00000000
        1195000	       118	80003e1c	01d59263	bne	x11,x29,80003e20	 x11:0x00000001 x29:0xf81e11a7
        1205000	       119	00000000	00000013	addi	x0,x0,0	  x0:0x00000000
        1215000	       120	80003e1c	00000013	addi	x0,x0,0	  x0:0x00000000
        1225000	       121	80003e20	fc8b0b13	addi	x22,x22,-56	 x22:0x80009f78 x22=0x80009f40
        1235000	       122	80003e24	415a5a13	srai	x20,x20,0x15	 x20:0x00000002 x20=0x00000000
        1245000	       123	80003e28	0171d493	srli	x9,x3,0x17	  x3:0x8b57cf52  x9=0x00000116
        1255000	       124	80003e2c	01c812b3	sll	x5,x16,x28	 x16:0x8fa011d7 x28:0x0000000a  x5=0x80475c00
        1265000	       125	80003e30	3c000713	addi	x14,x0,960	  x0:0x00000000 x14=0x000003c0
        1275000	       126	80003e34	001b2223	sw	x1,4(x22)	 x22:0x80009f40  x1:0x80000778 PA:0x80009f44
        1285000	       127	80003e38	0169c233	xor	x4,x19,x22	 x19:0x80009fc4 x22:0x80009f40  x4=0x00000084
        1295000	       128	80003e3c	bb922a13	slti	x20,x4,-1095	  x4:0x00000084 x20=0x00000000
        1305000	       129	80003e40	017c5e13	srli	x28,x24,0x17	 x24:0x80000000 x28=0x00000100
        1315000	       130	80003e44	014000ef	jal	x1,80003e44	  x1=0x80003e44
        1325000	       131	00000000	00000013	addi	x0,x0,0	  x0:0x00000000
        1335000	       132	80003e54	00000013	addi	x0,x0,0	  x0:0x00000000
        1345000	       133	80003e58	028000ef	jal	x1,80003e58	  x1=0x80003e58
        1355000	       134	00000000	00000013	addi	x0,x0,0	  x0:0x00000000
        1365000	       135	80003e7c	00000013	addi	x0,x0,0	  x0:0x00000000
        1375000	       136	80003e80	fe1ff0ef	jal	x1,80003e80	  x1=0x80003e80
        1385000	       137	00000000	00000013	addi	x0,x0,0	  x0:0x00000000
        1395000	       138	80003e5c	00000013	addi	x0,x0,0	  x0:0x00000000
        1405000	       139	80003e60	fedff0ef	jal	x1,80003e60	  x1=0x80003e60
        1415000	       140	00000000	00000013	addi	x0,x0,0	  x0:0x00000000
        1425000	       141	80003e48	00000013	addi	x0,x0,0	  x0:0x00000000
        1435000	       142	80003e4c	004001ef	jal	x3,80003e4c	  x3=0x80003e4c
        1445000	       143	00000000	00000013	addi	x0,x0,0	  x0:0x00000000
        1455000	       144	80003e4c	00000013	addi	x0,x0,0	  x0:0x00000000
        1465000	       145	80003e50	014000ef	jal	x1,80003e50	  x1=0x80003e50
        1475000	       146	00000000	00000013	addi	x0,x0,0	  x0:0x00000000
        1485000	       147	80003e60	00000013	addi	x0,x0,0	  x0:0x00000000
        1495000	       148	80003e64	010008ef	jal	x17,80003e64	 x17=0x80003e64
        1505000	       149	00000000	00000013	addi	x0,x0,0	  x0:0x00000000
        1515000	       150	80003e70	00000013	addi	x0,x0,0	  x0:0x00000000
        1525000	       151	80003e74	0080036f	jal	x6,80003e74	  x6=0x80003e74
        1535000	       152	00000000	00000013	addi	x0,x0,0	  x0:0x00000000
        1545000	       153	80003e78	00000013	addi	x0,x0,0	  x0:0x00000000
        1555000	       154	80003e7c	008000ef	jal	x1,80003e7c	  x1=0x80003e7c
        1565000	       155	00000000	00000013	addi	x0,x0,0	  x0:0x00000000
        1575000	       156	80003e80	00000013	addi	x0,x0,0	  x0:0x00000000
        1585000	       157	80003e84	fc5ff0ef	jal	x1,80003e84	  x1=0x80003e84
        1595000	       158	00000000	00000013	addi	x0,x0,0	  x0:0x00000000
        1605000	       159	80003e44	00000013	addi	x0,x0,0	  x0:0x00000000
        1615000	       160	80003e48	014000ef	jal	x1,80003e48	  x1=0x80003e48
        1625000	       161	00000000	00000013	addi	x0,x0,0	  x0:0x00000000
        1635000	       162	80003e58	00000013	addi	x0,x0,0	  x0:0x00000000
        1645000	       163	80003e5c	02c0096f	jal	x18,80003e5c	 x18=0x80003e5c
        1655000	       164	00000000	00000013	addi	x0,x0,0	  x0:0x00000000
        1665000	       165	80003e84	00000013	addi	x0,x0,0	  x0:0x00000000
        1675000	       166	80003e88	fe5ff0ef	jal	x1,80003e88	  x1=0x80003e88
        1685000	       167	00000000	00000013	addi	x0,x0,0	  x0:0x00000000
        1695000	       168	80003e68	00000013	addi	x0,x0,0	  x0:0x00000000
        1705000	       169	80003e6c	00c000ef	jal	x1,80003e6c	  x1=0x80003e6c
        1715000	       170	00000000	00000013	addi	x0,x0,0	  x0:0x00000000
        1725000	       171	80003e74	00000013	addi	x0,x0,0	  x0:0x00000000
        1735000	       172	80003e78	ff9ff0ef	jal	x1,80003e78	  x1=0x80003e78
        1745000	       173	00000000	00000013	addi	x0,x0,0	  x0:0x00000000
        1755000	       174	80003e6c	00000013	addi	x0,x0,0	  x0:0x00000000
        1765000	       175	80003e70	fe5ff0ef	jal	x1,80003e70	  x1=0x80003e70
        1775000	       176	00000000	00000013	addi	x0,x0,0	  x0:0x00000000
        1785000	       177	80003e50	00000013	addi	x0,x0,0	  x0:0x00000000
        1795000	       178	80003e54	014000ef	jal	x1,80003e54	  x1=0x80003e54
        1805000	       179	00000000	00000013	addi	x0,x0,0	  x0:0x00000000
        1815000	       180	80003e64	00000013	addi	x0,x0,0	  x0:0x00000000
        1825000	       181	80003e68	024000ef	jal	x1,80003e68	  x1=0x80003e68
        1835000	       182	00000000	00000013	addi	x0,x0,0	  x0:0x00000000
        1845000	       183	80003e88	00000013	addi	x0,x0,0	  x0:0x00000000
        1855000	       184	80003e8c	29cacc93	xori	x25,x21,668	 x21:0xf4a83a10 x25=0xf4a8388c
        1865000	       185	80003e90	03c000ef	jal	x1,80003e90	  x1=0x80003e90
        1875000	       186	00000000	00000013	addi	x0,x0,0	  x0:0x00000000
        1885000	       187	80003ec8	00000013	addi	x0,x0,0	  x0:0x00000000
        1895000	       188	80003ecc	ff9ff0ef	jal	x1,80003ecc	  x1=0x80003ecc
        1905000	       189	00000000	00000013	addi	x0,x0,0	  x0:0x00000000
        1915000	       190	80003ec0	00000013	addi	x0,x0,0	  x0:0x00000000
        1925000	       191	80003ec4	ffdff26f	jal	x4,80003ec4	  x4=0x80003ec4
        1935000	       192	00000000	00000013	addi	x0,x0,0	  x0:0x00000000
        1945000	       193	80003ebc	00000013	addi	x0,x0,0	  x0:0x00000000
        1955000	       194	80003ec0	fd9ff36f	jal	x6,80003ec0	  x6=0x80003ec0
        1965000	       195	00000000	00000013	addi	x0,x0,0	  x0:0x00000000
        1975000	       196	80003e94	00000013	addi	x0,x0,0	  x0:0x00000000
        1985000	       197	80003e98	00c000ef	jal	x1,80003e98	  x1=0x80003e98
        1995000	       198	00000000	00000013	addi	x0,x0,0	  x0:0x00000000
        2005000	       199	80003ea0	00000013	addi	x0,x0,0	  x0:0x00000000
        2015000	       200	80003ea4	ffdff2ef	jal	x5,80003ea4	  x5=0x80003ea4
        2025000	       201	00000000	00000013	addi	x0,x0,0	  x0:0x00000000
        2035000	       202	80003e9c	00000013	addi	x0,x0,0	  x0:0x00000000
        2045000	       203	80003ea0	034008ef	jal	x17,80003ea0	 x17=0x80003ea0
        2055000	       204	00000000	00000013	addi	x0,x0,0	  x0:0x00000000
        2065000	       205	80003ed0	00000013	addi	x0,x0,0	  x0:0x00000000
        2075000	       206	80003ed4	fe9ff0ef	jal	x1,80003ed4	  x1=0x80003ed4
        2085000	       207	00000000	00000013	addi	x0,x0,0	  x0:0x00000000
        2095000	       208	80003eb8	00000013	addi	x0,x0,0	  x0:0x00000000
        2105000	       209	80003ebc	fedff0ef	jal	x1,80003ebc	  x1=0x80003ebc
        2115000	       210	00000000	00000013	addi	x0,x0,0	  x0:0x00000000
        2125000	       211	80003ea4	00000013	addi	x0,x0,0	  x0:0x00000000
        2135000	       212	80003ea8	00c0096f	jal	x18,80003ea8	 x18=0x80003ea8
        2145000	       213	00000000	00000013	addi	x0,x0,0	  x0:0x00000000
        2155000	       214	80003eb0	00000013	addi	x0,x0,0	  x0:0x00000000
        2165000	       215	80003eb4	fe9ff0ef	jal	x1,80003eb4	  x1=0x80003eb4
        2175000	       216	00000000	00000013	addi	x0,x0,0	  x0:0x00000000
        2185000	       217	80003e98	00000013	addi	x0,x0,0	  x0:0x00000000
        2195000	       218	80003e9c	0140086f	jal	x16,80003e9c	 x16=0x80003e9c
        2205000	       219	00000000	00000013	addi	x0,x0,0	  x0:0x00000000
        2215000	       220	80003eac	00000013	addi	x0,x0,0	  x0:0x00000000
        2225000	       221	80003eb0	0200076f	jal	x14,80003eb0	 x14=0x80003eb0
        2235000	       222	00000000	00000013	addi	x0,x0,0	  x0:0x00000000
        2245000	       223	80003ecc	00000013	addi	x0,x0,0	  x0:0x00000000
        2255000	       224	80003ed0	fddff36f	jal	x6,80003ed0	  x6=0x80003ed0
        2265000	       225	00000000	00000013	addi	x0,x0,0	  x0:0x00000000
        2275000	       226	80003ea8	00000013	addi	x0,x0,0	  x0:0x00000000
        2285000	       227	80003eac	00c000ef	jal	x1,80003eac	  x1=0x80003eac
        2295000	       228	00000000	00000013	addi	x0,x0,0	  x0:0x00000000
        2305000	       229	80003eb4	00000013	addi	x0,x0,0	  x0:0x00000000
        2315000	       230	80003eb8	fddff0ef	jal	x1,80003eb8	  x1=0x80003eb8
        2325000	       231	00000000	00000013	addi	x0,x0,0	  x0:0x00000000
        2335000	       232	80003e90	00000013	addi	x0,x0,0	  x0:0x00000000
        2345000	       233	80003e94	04400def	jal	x27,80003e94	 x27=0x80003e94
        2355000	       234	00000000	00000013	addi	x0,x0,0	  x0:0x00000000
        2365000	       235	80003ed4	00000013	addi	x0,x0,0	  x0:0x00000000
        2375000	       236	80003ed8	ff1ff0ef	jal	x1,80003ed8	  x1=0x80003ed8
        2385000	       237	00000000	00000013	addi	x0,x0,0	  x0:0x00000000
        2395000	       238	80003ec4	00000013	addi	x0,x0,0	  x0:0x00000000
        2405000	       239	80003ec8	0140036f	jal	x6,80003ec8	  x6=0x80003ec8
        2415000	       240	00000000	00000013	addi	x0,x0,0	  x0:0x00000000
        2425000	       241	80003ed8	00000013	addi	x0,x0,0	  x0:0x00000000
        2435000	       242	80003edc	41068533	sub	x10,x13,x16	 x13:0xfce9454c x16:0x80003e9c x10=0x7ce906b0
        2445000	       243	80003ee0	01c000ef	jal	x1,80003ee0	  x1=0x80003ee0
        2455000	       244	00000000	00000013	addi	x0,x0,0	  x0:0x00000000
        2465000	       245	80003ef8	00000013	addi	x0,x0,0	  x0:0x00000000
        2475000	       246	80003efc	0140036f	jal	x6,80003efc	  x6=0x80003efc
        2485000	       247	00000000	00000013	addi	x0,x0,0	  x0:0x00000000
        2495000	       248	80003f0c	00000013	addi	x0,x0,0	  x0:0x00000000
        2505000	       249	80003f10	008006ef	jal	x13,80003f10	 x13=0x80003f10
        2515000	       250	00000000	00000013	addi	x0,x0,0	  x0:0x00000000
        2525000	       251	80003f14	00000013	addi	x0,x0,0	  x0:0x00000000
        2535000	       252	80003f18	ff1ff36f	jal	x6,80003f18	  x6=0x80003f18
        2545000	       253	00000000	00000013	addi	x0,x0,0	  x0:0x00000000
        2555000	       254	80003f04	00000013	addi	x0,x0,0	  x0:0x00000000
        2565000	       255	80003f08	01c000ef	jal	x1,80003f08	  x1=0x80003f08
        2575000	       256	00000000	00000013	addi	x0,x0,0	  x0:0x00000000
        2585000	       257	80003f20	00000013	addi	x0,x0,0	  x0:0x00000000
        2595000	       258	80003f24	fddff36f	jal	x6,80003f24	  x6=0x80003f24
        2605000	       259	00000000	00000013	addi	x0,x0,0	  x0:0x00000000
        2615000	       260	80003efc	00000013	addi	x0,x0,0	  x0:0x00000000
        2625000	       261	80003f00	fedff36f	jal	x6,80003f00	  x6=0x80003f00
        2635000	       262	00000000	00000013	addi	x0,x0,0	  x0:0x00000000
        2645000	       263	80003ee8	00000013	addi	x0,x0,0	  x0:0x00000000
        2655000	       264	80003eec	018000ef	jal	x1,80003eec	  x1=0x80003eec
        2665000	       265	00000000	00000013	addi	x0,x0,0	  x0:0x00000000
        2675000	       266	80003f00	00000013	addi	x0,x0,0	  x0:0x00000000
        2685000	       267	80003f04	fedff26f	jal	x4,80003f04	  x4=0x80003f04
        2695000	       268	00000000	00000013	addi	x0,x0,0	  x0:0x00000000
        2705000	       269	80003eec	00000013	addi	x0,x0,0	  x0:0x00000000
        2715000	       270	80003ef0	02c000ef	jal	x1,80003ef0	  x1=0x80003ef0
        2725000	       271	00000000	00000013	addi	x0,x0,0	  x0:0x00000000
        2735000	       272	80003f18	00000013	addi	x0,x0,0	  x0:0x00000000
        2745000	       273	80003f1c	fcdff36f	jal	x6,80003f1c	  x6=0x80003f1c
        2755000	       274	00000000	00000013	addi	x0,x0,0	  x0:0x00000000
        2765000	       275	80003ee4	00000013	addi	x0,x0,0	  x0:0x00000000
        2775000	       276	80003ee8	0100076f	jal	x14,80003ee8	 x14=0x80003ee8
        2785000	       277	00000000	00000013	addi	x0,x0,0	  x0:0x00000000
        2795000	       278	80003ef4	00000013	addi	x0,x0,0	  x0:0x00000000
        2805000	       279	80003ef8	fedff1ef	jal	x3,80003ef8	  x3=0x80003ef8
        2815000	       280	00000000	00000013	addi	x0,x0,0	  x0:0x00000000
        2825000	       281	80003ee0	00000013	addi	x0,x0,0	  x0:0x00000000
        2835000	       282	80003ee4	044000ef	jal	x1,80003ee4	  x1=0x80003ee4
        2845000	       283	00000000	00000013	addi	x0,x0,0	  x0:0x00000000
        2855000	       284	80003f24	00000013	addi	x0,x0,0	  x0:0x00000000
        2865000	       285	80003f28	fe5ff0ef	jal	x1,80003f28	  x1=0x80003f28
        2875000	       286	00000000	00000013	addi	x0,x0,0	  x0:0x00000000
        2885000	       287	80003f08	00000013	addi	x0,x0,0	  x0:0x00000000
        2895000	       288	80003f0c	fe9ff0ef	jal	x1,80003f0c	  x1=0x80003f0c
        2905000	       289	00000000	00000013	addi	x0,x0,0	  x0:0x00000000
        2915000	       290	80003ef0	00000013	addi	x0,x0,0	  x0:0x00000000
        2925000	       291	80003ef4	02c00cef	jal	x25,80003ef4	 x25=0x80003ef4
        2935000	       292	00000000	00000013	addi	x0,x0,0	  x0:0x00000000
        2945000	       293	80003f1c	00000013	addi	x0,x0,0	  x0:0x00000000
        2955000	       294	80003f20	ff5ff0ef	jal	x1,80003f20	  x1=0x80003f20
        2965000	       295	00000000	00000013	addi	x0,x0,0	  x0:0x00000000
        2975000	       296	80003f10	00000013	addi	x0,x0,0	  x0:0x00000000
        2985000	       297	80003f14	018000ef	jal	x1,80003f14	  x1=0x80003f14
        2995000	       298	00000000	00000013	addi	x0,x0,0	  x0:0x00000000
        3005000	       299	80003f28	00000013	addi	x0,x0,0	  x0:0x00000000
        3015000	       300	80003f2c	00000013	addi	x0,x0,0	  x0:0x00000000
        3025000	       301	80003f30	034000ef	jal	x1,80003f30	  x1=0x80003f30
        3035000	       302	00000000	00000013	addi	x0,x0,0	  x0:0x00000000
        3045000	       303	80003f60	00000013	addi	x0,x0,0	  x0:0x00000000
        3055000	       304	80003f64	ff1ff2ef	jal	x5,80003f64	  x5=0x80003f64
        3065000	       305	00000000	00000013	addi	x0,x0,0	  x0:0x00000000
        3075000	       306	80003f50	00000013	addi	x0,x0,0	  x0:0x00000000
        3085000	       307	80003f54	ff9ff46f	jal	x8,80003f54	  x8=0x80003f54
        3095000	       308	00000000	00000013	addi	x0,x0,0	  x0:0x00000000
        3105000	       309	80003f48	00000013	addi	x0,x0,0	  x0:0x00000000
        3115000	       310	80003f4c	ff5ffe6f	jal	x28,80003f4c	 x28=0x80003f4c
        3125000	       311	00000000	00000013	addi	x0,x0,0	  x0:0x00000000
        3135000	       312	80003f3c	00000013	addi	x0,x0,0	  x0:0x00000000
        3145000	       313	80003f40	0180036f	jal	x6,80003f40	  x6=0x80003f40
        3155000	       314	00000000	00000013	addi	x0,x0,0	  x0:0x00000000
        3165000	       315	80003f54	00000013	addi	x0,x0,0	  x0:0x00000000
        3175000	       316	80003f58	0080016f	jal	x2,80003f58	  x2=0x80003f58
        3185000	       317	00000000	00000013	addi	x0,x0,0	  x0:0x00000000
        3195000	       318	80003f5c	00000013	addi	x0,x0,0	  x0:0x00000000
        3205000	       319	80003f60	fe5ff0ef	jal	x1,80003f60	  x1=0x80003f60
        3215000	       320	00000000	00000013	addi	x0,x0,0	  x0:0x00000000
        3225000	       321	80003f40	00000013	addi	x0,x0,0	  x0:0x00000000
        3235000	       322	80003f44	024000ef	jal	x1,80003f44	  x1=0x80003f44
        3245000	       323	00000000	00000013	addi	x0,x0,0	  x0:0x00000000
        3255000	       324	80003f64	00000013	addi	x0,x0,0	  x0:0x00000000
        3265000	       325	80003f68	008000ef	jal	x1,80003f68	  x1=0x80003f68
        3275000	       326	00000000	00000013	addi	x0,x0,0	  x0:0x00000000
        3285000	       327	80003f6c	00000013	addi	x0,x0,0	  x0:0x00000000
        3295000	       328	80003f70	fc5ff0ef	jal	x1,80003f70	  x1=0x80003f70
        3305000	       329	00000000	00000013	addi	x0,x0,0	  x0:0x00000000
        3315000	       330	80003f30	00000013	addi	x0,x0,0	  x0:0x00000000
        3325000	       331	80003f34	028000ef	jal	x1,80003f34	  x1=0x80003f34
        3335000	       332	00000000	00000013	addi	x0,x0,0	  x0:0x00000000
        3345000	       333	80003f58	00000013	addi	x0,x0,0	  x0:0x00000000
        3355000	       334	80003f5c	0100016f	jal	x2,80003f5c	  x2=0x80003f5c
        3365000	       335	00000000	00000013	addi	x0,x0,0	  x0:0x00000000
        3375000	       336	80003f68	00000013	addi	x0,x0,0	  x0:0x00000000
        3385000	       337	80003f6c	fe5ff0ef	jal	x1,80003f6c	  x1=0x80003f6c
        3395000	       338	00000000	00000013	addi	x0,x0,0	  x0:0x00000000
        3405000	       339	80003f4c	00000013	addi	x0,x0,0	  x0:0x00000000
        3415000	       340	80003f50	fedff6ef	jal	x13,80003f50	 x13=0x80003f50
        3425000	       341	00000000	00000013	addi	x0,x0,0	  x0:0x00000000
        3435000	       342	80003f38	00000013	addi	x0,x0,0	  x0:0x00000000
        3445000	       343	80003f3c	ffdffe6f	jal	x28,80003f3c	 x28=0x80003f3c
        3455000	       344	00000000	00000013	addi	x0,x0,0	  x0:0x00000000
        3465000	       345	80003f34	00000013	addi	x0,x0,0	  x0:0x00000000
        3475000	       346	80003f38	010000ef	jal	x1,80003f38	  x1=0x80003f38
        3485000	       347	00000000	00000013	addi	x0,x0,0	  x0:0x00000000
        3495000	       348	80003f44	00000013	addi	x0,x0,0	  x0:0x00000000
        3505000	       349	80003f48	02c000ef	jal	x1,80003f48	  x1=0x80003f48
        3515000	       350	00000000	00000013	addi	x0,x0,0	  x0:0x00000000
        3525000	       351	80003f70	00000013	addi	x0,x0,0	  x0:0x00000000
        3535000	       352	80003f74	01cb97b3	sll	x15,x23,x28	 x23:0x00000001 x28:0x80003f3c x15=0x10000000
        3545000	       353	80003f78	00c000ef	jal	x1,80003f78	  x1=0x80003f78
        3555000	       354	00000000	00000013	addi	x0,x0,0	  x0:0x00000000
        3565000	       355	80003f80	00000013	addi	x0,x0,0	  x0:0x00000000
        3575000	       356	80003f84	018000ef	jal	x1,80003f84	  x1=0x80003f84
        3585000	       357	00000000	00000013	addi	x0,x0,0	  x0:0x00000000
        3595000	       358	80003f98	00000013	addi	x0,x0,0	  x0:0x00000000
        3605000	       359	80003f9c	010000ef	jal	x1,80003f9c	  x1=0x80003f9c
        3615000	       360	00000000	00000013	addi	x0,x0,0	  x0:0x00000000
        3625000	       361	80003fa8	00000013	addi	x0,x0,0	  x0:0x00000000
        3635000	       362	80003fac	00c000ef	jal	x1,80003fac	  x1=0x80003fac
        3645000	       363	00000000	00000013	addi	x0,x0,0	  x0:0x00000000
        3655000	       364	80003fb4	00000013	addi	x0,x0,0	  x0:0x00000000
        3665000	       365	80003fb8	ff1ff0ef	jal	x1,80003fb8	  x1=0x80003fb8
        3675000	       366	00000000	00000013	addi	x0,x0,0	  x0:0x00000000
        3685000	       367	80003fa4	00000013	addi	x0,x0,0	  x0:0x00000000
        3695000	       368	80003fa8	01c000ef	jal	x1,80003fa8	  x1=0x80003fa8
        3705000	       369	00000000	00000013	addi	x0,x0,0	  x0:0x00000000
        3715000	       370	80003fc0	00000013	addi	x0,x0,0	  x0:0x00000000
        3725000	       371	80003fc4	fedff0ef	jal	x1,80003fc4	  x1=0x80003fc4
        3735000	       372	00000000	00000013	addi	x0,x0,0	  x0:0x00000000
        3745000	       373	80003fac	00000013	addi	x0,x0,0	  x0:0x00000000
        3755000	       374	80003fb0	fe9ff36f	jal	x6,80003fb0	  x6=0x80003fb0
        3765000	       375	00000000	00000013	addi	x0,x0,0	  x0:0x00000000
        3775000	       376	80003f94	00000013	addi	x0,x0,0	  x0:0x00000000
        3785000	       377	80003f98	ff5ff36f	jal	x6,80003f98	  x6=0x80003f98
        3795000	       378	00000000	00000013	addi	x0,x0,0	  x0:0x00000000
        3805000	       379	80003f88	00000013	addi	x0,x0,0	  x0:0x00000000
        3815000	       380	80003f8c	0280036f	jal	x6,80003f8c	  x6=0x80003f8c
        3825000	       381	00000000	00000013	addi	x0,x0,0	  x0:0x00000000
        3835000	       382	80003fb0	00000013	addi	x0,x0,0	  x0:0x00000000
        3845000	       383	80003fb4	008000ef	jal	x1,80003fb4	  x1=0x80003fb4
        3855000	       384	00000000	00000013	addi	x0,x0,0	  x0:0x00000000
        3865000	       385	80003fb8	00000013	addi	x0,x0,0	  x0:0x00000000
        3875000	       386	80003fbc	fc5ff36f	jal	x6,80003fbc	  x6=0x80003fbc
        3885000	       387	00000000	00000013	addi	x0,x0,0	  x0:0x00000000
        3895000	       388	80003f7c	00000013	addi	x0,x0,0	  x0:0x00000000
        3905000	       389	80003f80	0100016f	jal	x2,80003f80	  x2=0x80003f80
        3915000	       390	00000000	00000013	addi	x0,x0,0	  x0:0x00000000
        3925000	       391	80003f8c	00000013	addi	x0,x0,0	  x0:0x00000000
        3935000	       392	80003f90	014000ef	jal	x1,80003f90	  x1=0x80003f90
        3945000	       393	00000000	00000013	addi	x0,x0,0	  x0:0x00000000
        3955000	       394	80003fa0	00000013	addi	x0,x0,0	  x0:0x00000000
        3965000	       395	80003fa4	01c000ef	jal	x1,80003fa4	  x1=0x80003fa4
        3975000	       396	00000000	00000013	addi	x0,x0,0	  x0:0x00000000
        3985000	       397	80003fbc	00000013	addi	x0,x0,0	  x0:0x00000000
        3995000	       398	80003fc0	fbdff0ef	jal	x1,80003fc0	  x1=0x80003fc0
        4005000	       399	00000000	00000013	addi	x0,x0,0	  x0:0x00000000
        4015000	       400	80003f78	00000013	addi	x0,x0,0	  x0:0x00000000
        4025000	       401	80003f7c	00c000ef	jal	x1,80003f7c	  x1=0x80003f7c
        4035000	       402	00000000	00000013	addi	x0,x0,0	  x0:0x00000000
        4045000	       403	80003f84	00000013	addi	x0,x0,0	  x0:0x00000000
        4055000	       404	80003f88	00c0046f	jal	x8,80003f88	  x8=0x80003f88
        4065000	       405	00000000	00000013	addi	x0,x0,0	  x0:0x00000000
        4075000	       406	80003f90	00000013	addi	x0,x0,0	  x0:0x00000000
        4085000	       407	80003f94	034000ef	jal	x1,80003f94	  x1=0x80003f94
        4095000	       408	00000000	00000013	addi	x0,x0,0	  x0:0x00000000
        4105000	       409	80003fc4	00000013	addi	x0,x0,0	  x0:0x00000000
        4115000	       410	80003fc8	fd9ff3ef	jal	x7,80003fc8	  x7=0x80003fc8
        4125000	       411	00000000	00000013	addi	x0,x0,0	  x0:0x00000000
        4135000	       412	80003f9c	00000013	addi	x0,x0,0	  x0:0x00000000
        4145000	       413	80003fa0	02c000ef	jal	x1,80003fa0	  x1=0x80003fa0
        4155000	       414	00000000	00000013	addi	x0,x0,0	  x0:0x00000000
        4165000	       415	80003fc8	00000013	addi	x0,x0,0	  x0:0x00000000
        4175000	       416	80003fcc	41f55213	srai	x4,x10,0x1f	 x10:0x7ce906b0  x4=0x00000000
        4185000	       417	80003fd0	024000ef	jal	x1,80003fd0	  x1=0x80003fd0
        4195000	       418	00000000	00000013	addi	x0,x0,0	  x0:0x00000000
        4205000	       419	80003ff0	00000013	addi	x0,x0,0	  x0:0x00000000
        4215000	       420	80003ff4	024008ef	jal	x17,80003ff4	 x17=0x80003ff4
        4225000	       421	00000000	00000013	addi	x0,x0,0	  x0:0x00000000
        4235000	       422	80004014	00000013	addi	x0,x0,0	  x0:0x00000000
        4245000	       423	80004018	fc5ff0ef	jal	x1,80004018	  x1=0x80004018
        4255000	       424	00000000	00000013	addi	x0,x0,0	  x0:0x00000000
        4265000	       425	80003fd8	00000013	addi	x0,x0,0	  x0:0x00000000
        4275000	       426	80003fdc	004001ef	jal	x3,80003fdc	  x3=0x80003fdc
        4285000	       427	00000000	00000013	addi	x0,x0,0	  x0:0x00000000
        4295000	       428	80003fdc	00000013	addi	x0,x0,0	  x0:0x00000000
        4305000	       429	80003fe0	0300036f	jal	x6,80003fe0	  x6=0x80003fe0
        4315000	       430	00000000	00000013	addi	x0,x0,0	  x0:0x00000000
        4325000	       431	8000400c	00000013	addi	x0,x0,0	  x0:0x00000000
        4335000	       432	80004010	fd9ff36f	jal	x6,80004010	  x6=0x80004010
        4345000	       433	00000000	00000013	addi	x0,x0,0	  x0:0x00000000
        4355000	       434	80003fe4	00000013	addi	x0,x0,0	  x0:0x00000000
        4365000	       435	80003fe8	0200096f	jal	x18,80003fe8	 x18=0x80003fe8
        4375000	       436	00000000	00000013	addi	x0,x0,0	  x0:0x00000000
        4385000	       437	80004004	00000013	addi	x0,x0,0	  x0:0x00000000
        4395000	       438	80004008	fddff96f	jal	x18,80004008	 x18=0x80004008
        4405000	       439	00000000	00000013	addi	x0,x0,0	  x0:0x00000000
        4415000	       440	80003fe0	00000013	addi	x0,x0,0	  x0:0x00000000
        4425000	       441	80003fe4	01c000ef	jal	x1,80003fe4	  x1=0x80003fe4
        4435000	       442	00000000	00000013	addi	x0,x0,0	  x0:0x00000000
        4445000	       443	80003ffc	00000013	addi	x0,x0,0	  x0:0x00000000
        4455000	       444	80004000	ff9ffbef	jal	x23,80004000	 x23=0x80004000
        4465000	       445	00000000	00000013	addi	x0,x0,0	  x0:0x00000000
        4475000	       446	80003ff4	00000013	addi	x0,x0,0	  x0:0x00000000
        4485000	       447	80003ff8	ff9ff36f	jal	x6,80003ff8	  x6=0x80003ff8
        4495000	       448	00000000	00000013	addi	x0,x0,0	  x0:0x00000000
        4505000	       449	80003fec	00000013	addi	x0,x0,0	  x0:0x00000000
        4515000	       450	80003ff0	fe9ff36f	jal	x6,80003ff0	  x6=0x80003ff0
        4525000	       451	00000000	00000013	addi	x0,x0,0	  x0:0x00000000
        4535000	       452	80003fd4	00000013	addi	x0,x0,0	  x0:0x00000000
        4545000	       453	80003fd8	034000ef	jal	x1,80003fd8	  x1=0x80003fd8
        4555000	       454	00000000	00000013	addi	x0,x0,0	  x0:0x00000000
        4565000	       455	80004008	00000013	addi	x0,x0,0	  x0:0x00000000
        4575000	       456	8000400c	008002ef	jal	x5,8000400c	  x5=0x8000400c
        4585000	       457	00000000	00000013	addi	x0,x0,0	  x0:0x00000000
        4595000	       458	80004010	00000013	addi	x0,x0,0	  x0:0x00000000
        4605000	       459	80004014	fd9ff26f	jal	x4,80004014	  x4=0x80004014
        4615000	       460	00000000	00000013	addi	x0,x0,0	  x0:0x00000000
        4625000	       461	80003fe8	00000013	addi	x0,x0,0	  x0:0x00000000
        4635000	       462	80003fec	010000ef	jal	x1,80003fec	  x1=0x80003fec
        4645000	       463	00000000	00000013	addi	x0,x0,0	  x0:0x00000000
        4655000	       464	80003ff8	00000013	addi	x0,x0,0	  x0:0x00000000
        4665000	       465	80003ffc	008000ef	jal	x1,80003ffc	  x1=0x80003ffc
        4675000	       466	00000000	00000013	addi	x0,x0,0	  x0:0x00000000
        4685000	       467	80004000	00000013	addi	x0,x0,0	  x0:0x00000000
        4695000	       468	80004004	fd1ff0ef	jal	x1,80004004	  x1=0x80004004
        4705000	       469	00000000	00000013	addi	x0,x0,0	  x0:0x00000000
        4715000	       470	80003fd0	00000013	addi	x0,x0,0	  x0:0x00000000
        4725000	       471	80003fd4	04800eef	jal	x29,80003fd4	 x29=0x80003fd4
        4735000	       472	00000000	00000013	addi	x0,x0,0	  x0:0x00000000
        4745000	       473	80004018	00000013	addi	x0,x0,0	  x0:0x00000000
        4755000	       474	8000401c	012f5133	srl	x2,x30,x18	 x30:0xfc2bdcaf x18:0x80004008  x2=0x00fc2bdc
        4765000	       475	80004020	ac804497	auipc	x9,0xac804	  x9=0x2c80801c
        4775000	       476	80004024	01869593	slli	x11,x13,0x18	 x13:0x80003f50 x11=0x50000000
        4785000	       477	80004028	04f74663	blt	x14,x15,80004074	 x14:0x80003ee8 x15:0x10000000
        4795000	       478	00000000	00000013	addi	x0,x0,0	  x0:0x00000000
        4805000	       479	80004070	00000013	addi	x0,x0,0	  x0:0x00000000
        4815000	       480	80004074	0198aa33	slt	x20,x17,x25	 x17:0x80003ff4 x25:0x80003ef4 x20=0x00000000
        4825000	       481	80004078	e0ac0c93	addi	x25,x24,-502	 x24:0x80000000 x25=0x7ffffe0a
        4835000	       482	8000407c	411b8533	sub	x10,x23,x17	 x23:0x80004000 x17:0x80003ff4 x10=0x0000000c
        4845000	       483	80004080	b07ce893	ori	x17,x25,-1273	 x25:0x7ffffe0a x17=0xffffff0f
        4855000	       484	80004084	46ee0d93	addi	x27,x28,1134	 x28:0x80003f3c x27=0x800043aa
        4865000	       485	80004088	b87e6613	ori	x12,x28,-1145	 x28:0x80003f3c x12=0xffffffbf
        4875000	       486	8000408c	02d3c663	blt	x7,x13,800040b8	  x7:0x80003fc8 x13:0x80003f50
        4885000	       487	80004090	a3318013	addi	x0,x3,-1485	  x3:0x80003fdc
        4895000	       488	80004094	0163da93	srli	x21,x7,0x16	  x7:0x80003fc8 x21=0x00000200
        4905000	       489	80004098	05fcf263	bgeu	x25,x31,800040dc	 x25:0x7ffffe0a x31:0x000f762d
        4915000	       490	00000000	00000013	addi	x0,x0,0	  x0:0x00000000
        4925000	       491	800040d8	00000013	addi	x0,x0,0	  x0:0x00000000
        4935000	       492	800040dc	00000013	addi	x0,x0,0	  x0:0x00000000
        4945000	       493	800040e0	00eccdb3	xor	x27,x25,x14	 x25:0x7ffffe0a x14:0x80003ee8 x27=0xffffc0e2
        4955000	       494	800040e4	4078dcb3	sra	x25,x17,x7	 x17:0xffffff0f  x7:0x80003fc8 x25=0xffffffff
        4965000	       495	800040e8	01154933	xor	x18,x10,x17	 x10:0x0000000c x17:0xffffff0f x18=0xffffff03
        4975000	       496	800040ec	e04a0413	addi	x8,x20,-508	 x20:0x00000000  x8=0xfffffe04
        4985000	       497	800040f0	92bc26b7	lui	x13,0x92bc2	 x13=0x92bc2000
        4995000	       498	800040f4	57f27237	lui	x4,0x57f27	  x4=0x57f27000
        5005000	       499	800040f8	01b2f2b3	and	x5,x5,x27	  x5:0x8000400c x27:0xffffc0e2  x5=0x80004000
        5015000	       500	800040fc	04386063	bltu	x16,x3,8000413c	 x16:0x80003e9c  x3:0x80003fdc
        5025000	       501	00000000	00000013	addi	x0,x0,0	  x0:0x00000000
        5035000	       502	80004138	00000013	addi	x0,x0,0	  x0:0x00000000
        5045000	       503	8000413c	41b3d633	sra	x12,x7,x27	  x7:0x80003fc8 x27:0xffffc0e2 x12=0xe0000ff2
        5055000	       504	80004140	051a9063	bne	x21,x17,80004180	 x21:0x00000200 x17:0xffffff0f
        5065000	       505	00000000	00000013	addi	x0,x0,0	  x0:0x00000000
        5075000	       506	8000417c	00000013	addi	x0,x0,0	  x0:0x00000000
        5085000	       507	80004180	0175c263	blt	x11,x23,80004184	 x11:0x50000000 x23:0x80004000
        5095000	       508	80004184	0028e533	or	x10,x17,x2	 x17:0xffffff0f  x2:0x00fc2bdc x10=0xffffffdf
        5105000	       509	80004188	04594463	blt	x18,x5,800041d0	 x18:0xffffff03  x5:0x80004000
        5115000	       510	8000418c	bf793113	sltiu	x2,x18,-1033	 x18:0xffffff03  x2=0x00000000
        5125000	       511	80004190	41845e33	sra	x28,x8,x24	  x8:0xfffffe04 x24:0x80000000 x28=0xfffffe04
        5135000	       512	80004194	04ec0063	beq	x24,x14,800041d4	 x24:0x80000000 x14:0x80003ee8
        5145000	       513	80004198	00be9193	slli	x3,x29,0xb	 x29:0x80003fd4  x3=0x01fea000
        5155000	       514	8000419c	0168bcb3	sltu	x25,x17,x22	 x17:0xffffff0f x22:0x80009f40 x25=0x00000000
        5165000	       515	800041a0	00499813	slli	x16,x19,0x4	 x19:0x80009fc4 x16=0x0009fc40
        5175000	       516	800041a4	00d50663	beq	x10,x13,800041b0	 x10:0xffffffdf x13:0x92bc2000
        5185000	       517	800041a8	00374cb3	xor	x25,x14,x3	 x14:0x80003ee8  x3:0x01fea000 x25=0x81fe9ee8
        5195000	       518	800041ac	02c26c63	bltu	x4,x12,800041e4	  x4:0x57f27000 x12:0xe0000ff2
        5205000	       519	00000000	00000013	addi	x0,x0,0	  x0:0x00000000
        5215000	       520	800041e0	00000013	addi	x0,x0,0	  x0:0x00000000
        5225000	       521	800041e4	009a08b3	add	x17,x20,x9	 x20:0x00000000  x9:0x2c80801c x17=0x2c80801c
        5235000	       522	800041e8	0011dab3	srl	x21,x3,x1	  x3:0x01fea000  x1:0x80004004 x21=0x001fea00
        5245000	       523	800041ec	00380f33	add	x30,x16,x3	 x16:0x0009fc40  x3:0x01fea000 x30=0x02089c40
        5255000	       524	800041f0	006421b3	slt	x3,x8,x6	  x8:0xfffffe04  x6:0x80003ff0  x3=0x00000000
        5265000	       525	800041f4	416ed4b3	sra	x9,x29,x22	 x29:0x80003fd4 x22:0x80009f40  x9=0x80003fd4
        5275000	       526	800041f8	3b66c897	auipc	x17,0x3b66c	 x17=0xbb6701f4
        5285000	       527	800041fc	41675793	srai	x15,x14,0x16	 x14:0x80003ee8 x15=0xfffffe00
        5295000	       528	80004200	020c5463	bge	x24,x0,80004228	 x24:0x80000000  x0:0x00000000
        5305000	       529	80004204	02c9ea63	bltu	x19,x12,80004238	 x19:0x80009fc4 x12:0xe0000ff2
        5315000	       530	00000000	00000013	addi	x0,x0,0	  x0:0x00000000
        5325000	       531	80004234	00000013	addi	x0,x0,0	  x0:0x00000000
        5335000	       532	80004238	09301337	lui	x6,0x9301	  x6=0x09301000
        5345000	       533	8000423c	03c40c63	beq	x8,x28,80004274	  x8:0xfffffe04 x28:0xfffffe04
        5355000	       534	00000000	00000013	addi	x0,x0,0	  x0:0x00000000
        5365000	       535	80004270	00000013	addi	x0,x0,0	  x0:0x00000000
        5375000	       536	80004274	0380da63	bge	x1,x24,800042a8	  x1:0x80004004 x24:0x80000000
        5385000	       537	00000000	00000013	addi	x0,x0,0	  x0:0x00000000
        5395000	       538	800042a4	00000013	addi	x0,x0,0	  x0:0x00000000
        5405000	       539	800042a8	017e5533	srl	x10,x28,x23	 x28:0xfffffe04 x23:0x80004000 x10=0xfffffe04
        5415000	       540	800042ac	00a9dc93	srli	x25,x19,0xa	 x19:0x80009fc4 x25=0x00200027
        5425000	       541	800042b0	017e9233	sll	x4,x29,x23	 x29:0x80003fd4 x23:0x80004000  x4=0x80003fd4
        5435000	       542	800042b4	83b2c413	xori	x8,x5,-1989	  x5:0x80004000  x8=0x7fffb83b
        5445000	       543	800042b8	01a49c63	bne	x9,x26,800042d0	  x9:0x80003fd4 x26:0xfb7092cc
        5455000	       544	00000000	00000013	addi	x0,x0,0	  x0:0x00000000
        5465000	       545	800042cc	00000013	addi	x0,x0,0	  x0:0x00000000
        5475000	       546	800042d0	03df1e63	bne	x30,x29,8000430c	 x30:0x02089c40 x29:0x80003fd4
        5485000	       547	00000000	00000013	addi	x0,x0,0	  x0:0x00000000
        5495000	       548	80004308	00000013	addi	x0,x0,0	  x0:0x00000000
        5505000	       549	8000430c	409d0e33	sub	x28,x26,x9	 x26:0xfb7092cc  x9:0x80003fd4 x28=0x7b7052f8
        5515000	       550	80004310	407bd7b3	sra	x15,x23,x7	 x23:0x80004000  x7:0x80003fc8 x15=0xff800040
        5525000	       551	80004314	40c28a33	sub	x20,x5,x12	  x5:0x80004000 x12:0xe0000ff2 x20=0xa000300e
        5535000	       552	80004318	414fd893	srai	x17,x31,0x14	 x31:0x000f762d x17=0x00000000
        5545000	       553	8000431c	007d4663	blt	x26,x7,80004328	 x26:0xfb7092cc  x7:0x80003fc8
        5555000	       554	80004320	5ad5fa93	andi	x21,x11,1453	 x11:0x50000000 x21=0x00000000
        5565000	       555	80004324	00033433	sltu	x8,x6,x0	  x6:0x09301000  x0:0x00000000  x8=0x00000000
        5575000	       556	80004328	0174d513	srli	x10,x9,0x17	  x9:0x80003fd4 x10=0x00000100
        5585000	       557	8000432c	40e6d613	srai	x12,x13,0xe	 x13:0x92bc2000 x12=0xfffe4af0
        5595000	       558	80004330	00ec6c33	or	x24,x24,x14	 x24:0x80000000 x14:0x80003ee8 x24=0x80003ee8
        5605000	       559	80004334	004491b3	sll	x3,x9,x4	  x9:0x80003fd4  x4:0x80003fd4  x3=0xfd400000
        5615000	       560	80004338	7d720537	lui	x10,0x7d720	 x10=0x7d720000
        5625000	       561	8000433c	00000013	addi	x0,x0,0	  x0:0x00000000
        5635000	       562	80004340	01ea4663	blt	x20,x30,8000434c	 x20:0xa000300e x30:0x02089c40
        5645000	       563	00000000	00000013	addi	x0,x0,0	  x0:0x00000000
        5655000	       564	80004348	00000013	addi	x0,x0,0	  x0:0x00000000
        5665000	       565	8000434c	00291093	slli	x1,x18,0x2	 x18:0xffffff03  x1=0xfffffc0c
        5675000	       566	80004350	774603b7	lui	x7,0x77460	  x7=0x77460000
        5685000	       567	80004354	0066e5b3	or	x11,x13,x6	 x13:0x92bc2000  x6:0x09301000 x11=0x9bbc3000
        5695000	       568	80004358	000dc0b3	xor	x1,x27,x0	 x27:0xffffc0e2  x0:0x00000000  x1=0xffffc0e2
        5705000	       569	8000435c	047b4063	blt	x22,x7,8000439c	 x22:0x80009f40  x7:0x77460000
        5715000	       570	00000000	00000013	addi	x0,x0,0	  x0:0x00000000
        5725000	       571	80004398	00000013	addi	x0,x0,0	  x0:0x00000000
        5735000	       572	8000439c	41f1d533	sra	x10,x3,x31	  x3:0xfd400000 x31:0x000f762d x10=0xffffea00
        5745000	       573	800043a0	013c8263	beq	x25,x19,800043a4	 x25:0x00200027 x19:0x80009fc4
        5755000	       574	800043a4	009bc4b3	xor	x9,x23,x9	 x23:0x80004000  x9:0x80003fd4  x9=0x00007fd4
        5765000	       575	800043a8	00f35613	srli	x12,x6,0xf	  x6:0x09301000 x12=0x00001260
        5775000	       576	800043ac	01351913	slli	x18,x10,0x13	 x10:0xffffea00 x18=0x50000000
        5785000	       577	800043b0	16c68093	addi	x1,x13,364	 x13:0x92bc2000  x1=0x92bc216c
        5795000	       578	800043b4	00335f13	srli	x30,x6,0x3	  x6:0x09301000 x30=0x01260200
        5805000	       579	800043b8	b275f913	andi	x18,x11,-1241	 x11:0x9bbc3000 x18=0x9bbc3000
        5815000	       580	800043bc	318d2693	slti	x13,x26,792	 x26:0xfb7092cc x13=0x00000001
        5825000	       581	800043c0	00fb9f93	slli	x31,x23,0xf	 x23:0x80004000 x31=0x20000000
        5835000	       582	800043c4	011d1713	slli	x14,x26,0x11	 x26:0xfb7092cc x14=0x25980000
        5845000	       583	800043c8	40140433	sub	x8,x8,x1	  x8:0x00000000  x1:0x92bc216c  x8=0x6d43de94
        5855000	       584	800043cc	009fa4b3	slt	x9,x31,x9	 x31:0x20000000  x9:0x00007fd4  x9=0x00000000
        5865000	       585	800043d0	00b5a4b3	slt	x9,x11,x11	 x11:0x9bbc3000 x11:0x9bbc3000  x9=0x00000000
        5875000	       586	800043d4	05171663	bne	x14,x17,80004420	 x14:0x25980000 x17:0x00000000
        5885000	       587	00000000	00000013	addi	x0,x0,0	  x0:0x00000000
        5895000	       588	8000441c	00000013	addi	x0,x0,0	  x0:0x00000000
        5905000	       589	80004420	00de18b3	sll	x17,x28,x13	 x28:0x7b7052f8 x13:0x00000001 x17=0xf6e0a5f0
        5915000	       590	80004424	04535263	bge	x6,x5,80004468	  x6:0x09301000  x5:0x80004000
        5925000	       591	00000000	00000013	addi	x0,x0,0	  x0:0x00000000
        5935000	       592	80004464	00000013	addi	x0,x0,0	  x0:0x00000000
        5945000	       593	80004468	00e85a13	srli	x20,x16,0xe	 x16:0x0009fc40 x20=0x00000027
        5955000	       594	8000446c	0dcbd2b7	lui	x5,0xdcbd	  x5=0x0dcbd000
        5965000	       595	80004470	00824db3	xor	x27,x4,x8	  x4:0x80003fd4  x8:0x6d43de94 x27=0xed43e140
        5975000	       596	80004474	4c9da497	auipc	x9,0x4c9da	  x9=0xcc9de470
        5985000	       597	80004478	03731663	bne	x6,x23,800044a4	  x6:0x09301000 x23:0x80004000
        5995000	       598	00000000	00000013	addi	x0,x0,0	  x0:0x00000000
        6005000	       599	800044a0	00000013	addi	x0,x0,0	  x0:0x00000000
        6015000	       600	800044a4	ddfd7593	andi	x11,x26,-545	 x26:0xfb7092cc x11=0xfb7090cc
        6025000	       601	800044a8	d8e57f93	andi	x31,x10,-626	 x10:0xffffea00 x31=0xffffe800
        6035000	       602	800044ac	00f35f93	srli	x31,x6,0xf	  x6:0x09301000 x31=0x00001260
        6045000	       603	800044b0	5934ea13	ori	x20,x9,1427	  x9:0xcc9de470 x20=0xcc9de5f3
        6055000	       604	800044b4	02910263	beq	x2,x9,800044d8	  x2:0x00000000  x9:0xcc9de470
        6065000	       605	800044b8	40368633	sub	x12,x13,x3	 x13:0x00000001  x3:0xfd400000 x12=0x02c00001
        6075000	       606	800044bc	009d9413	slli	x8,x27,0x9	 x27:0xed43e140  x8=0x87c28000
        6085000	       607	800044c0	4564e293	ori	x5,x9,1110	  x9:0xcc9de470  x5=0xcc9de476
        6095000	       608	800044c4	0043efb3	or	x31,x7,x4	  x7:0x77460000  x4:0x80003fd4 x31=0xf7463fd4
        6105000	       609	800044c8	1a6d61b7	lui	x3,0x1a6d6	  x3=0x1a6d6000
        6115000	       610	800044cc	00d65f93	srli	x31,x12,0xd	 x12:0x02c00001 x31=0x00001600
        6125000	       611	800044d0	3919cc93	xori	x25,x19,913	 x19:0x80009fc4 x25=0x80009c55
        6135000	       612	800044d4	9e2c2137	lui	x2,0x9e2c2	  x2=0x9e2c2000
        6145000	       613	800044d8	412c8db3	sub	x27,x25,x18	 x25:0x80009c55 x18:0x9bbc3000 x27=0xe4446c55
        6155000	       614	800044dc	84f6a493	slti	x9,x13,-1969	 x13:0x00000001  x9=0x00000000
        6165000	       615	800044e0	00ae0833	add	x16,x28,x10	 x28:0x7b7052f8 x10:0xffffea00 x16=0x7b703cf8
        6175000	       616	800044e4	03de5c63	bge	x28,x29,8000451c	 x28:0x7b7052f8 x29:0x80003fd4
        6185000	       617	00000000	00000013	addi	x0,x0,0	  x0:0x00000000
        6195000	       618	80004518	00000013	addi	x0,x0,0	  x0:0x00000000
        6205000	       619	8000451c	01d51613	slli	x12,x10,0x1d	 x10:0xffffea00 x12=0x00000000
        6215000	       620	80004520	00478933	add	x18,x15,x4	 x15:0xff800040  x4:0x80003fd4 x18=0x7f804014
        6225000	       621	80004524	004b2083	lw	x1,4(x22)	 x22:0x80009f40  x1=0x80000778 PA:0x80009f44
        6235000	       622	00000000	00000013	addi	x0,x0,0	  x0:0x00000000
        6245000	       623	80004528	4190d713	srai	x14,x1,0x19	  x1:0x80000778 x14=0xffffffc0
        6255000	       624	8000452c	0069e2b3	or	x5,x19,x6	 x19:0x80009fc4  x6:0x09301000  x5=0x89309fc4
        6265000	       625	80004530	00000013	addi	x0,x0,0	  x0:0x00000000
        6275000	       626	80004534	038b0b13	addi	x22,x22,56	 x22:0x80009f40 x22=0x80009f78
        6285000	       627	80004538	00e56633	or	x12,x10,x14	 x10:0xffffea00 x14:0xffffffc0 x12=0xffffffc0
        6295000	       628	8000453c	00108e13	addi	x28,x1,1	  x1:0x80000778 x28=0x80000779
        6305000	       629	80004540	000e0e67	jalr	x28,x28,0	 x28:0x80000779 x28=0x80004540
        6315000	       630	00000000	00000013	addi	x0,x0,0	  x0:0x00000000
        6325000	       631	80000778	00000013	addi	x0,x0,0	  x0:0x00000000
        6335000	       632	8000077c	02c000ef	jal	x1,8000077c	  x1=0x8000077c
        6345000	       633	00000000	00000013	addi	x0,x0,0	  x0:0x00000000
        6355000	       634	800007a4	00000013	addi	x0,x0,0	  x0:0x00000000
        6365000	       635	800007a8	fddff36f	jal	x6,800007a8	  x6=0x800007a8
        6375000	       636	00000000	00000013	addi	x0,x0,0	  x0:0x00000000
        6385000	       637	80000780	00000013	addi	x0,x0,0	  x0:0x00000000
        6395000	       638	80000784	004002ef	jal	x5,80000784	  x5=0x80000784
        6405000	       639	00000000	00000013	addi	x0,x0,0	  x0:0x00000000
        6415000	       640	80000784	00000013	addi	x0,x0,0	  x0:0x00000000
        6425000	       641	80000788	0300016f	jal	x2,80000788	  x2=0x80000788
        6435000	       642	00000000	00000013	addi	x0,x0,0	  x0:0x00000000
        6445000	       643	800007b4	00000013	addi	x0,x0,0	  x0:0x00000000
        6455000	       644	800007b8	ffdff36f	jal	x6,800007b8	  x6=0x800007b8
        6465000	       645	00000000	00000013	addi	x0,x0,0	  x0:0x00000000
        6475000	       646	800007b0	00000013	addi	x0,x0,0	  x0:0x00000000
        6485000	       647	800007b4	fe9ff2ef	jal	x5,800007b4	  x5=0x800007b4
        6495000	       648	00000000	00000013	addi	x0,x0,0	  x0:0x00000000
        6505000	       649	80000798	00000013	addi	x0,x0,0	  x0:0x00000000
        6515000	       650	8000079c	fe5ff46f	jal	x8,8000079c	  x8=0x8000079c
        6525000	       651	00000000	00000013	addi	x0,x0,0	  x0:0x00000000
        6535000	       652	8000077c	00000013	addi	x0,x0,0	  x0:0x00000000
        6545000	       653	80000780	030008ef	jal	x17,80000780	 x17=0x80000780
        6555000	       654	00000000	00000013	addi	x0,x0,0	  x0:0x00000000
        6565000	       655	800007ac	00000013	addi	x0,x0,0	  x0:0x00000000
        6575000	       656	800007b0	00c000ef	jal	x1,800007b0	  x1=0x800007b0
        6585000	       657	00000000	00000013	addi	x0,x0,0	  x0:0x00000000
        6595000	       658	800007b8	00000013	addi	x0,x0,0	  x0:0x00000000
        6605000	       659	800007bc	fe9ff2ef	jal	x5,800007bc	  x5=0x800007bc
        6615000	       660	00000000	00000013	addi	x0,x0,0	  x0:0x00000000
        6625000	       661	800007a0	00000013	addi	x0,x0,0	  x0:0x00000000
        6635000	       662	800007a4	ff5ff0ef	jal	x1,800007a4	  x1=0x800007a4
        6645000	       663	00000000	00000013	addi	x0,x0,0	  x0:0x00000000
        6655000	       664	80000794	00000013	addi	x0,x0,0	  x0:0x00000000
        6665000	       665	80000798	ff5ff0ef	jal	x1,80000798	  x1=0x80000798
        6675000	       666	00000000	00000013	addi	x0,x0,0	  x0:0x00000000
        6685000	       667	80000788	00000013	addi	x0,x0,0	  x0:0x00000000
        6695000	       668	8000078c	034000ef	jal	x1,8000078c	  x1=0x8000078c
        6705000	       669	00000000	00000013	addi	x0,x0,0	  x0:0x00000000
        6715000	       670	800007bc	00000013	addi	x0,x0,0	  x0:0x00000000
        6725000	       671	800007c0	fe1ffeef	jal	x29,800007c0	 x29=0x800007c0
        6735000	       672	00000000	00000013	addi	x0,x0,0	  x0:0x00000000
        6745000	       673	8000079c	00000013	addi	x0,x0,0	  x0:0x00000000
        6755000	       674	800007a0	0240036f	jal	x6,800007a0	  x6=0x800007a0
        6765000	       675	00000000	00000013	addi	x0,x0,0	  x0:0x00000000
        6775000	       676	800007c0	00000013	addi	x0,x0,0	  x0:0x00000000
        6785000	       677	800007c4	fd1ff8ef	jal	x17,800007c4	 x17=0x800007c4
        6795000	       678	00000000	00000013	addi	x0,x0,0	  x0:0x00000000
        6805000	       679	80000790	00000013	addi	x0,x0,0	  x0:0x00000000
        6815000	       680	80000794	018000ef	jal	x1,80000794	  x1=0x80000794
        6825000	       681	00000000	00000013	addi	x0,x0,0	  x0:0x00000000
        6835000	       682	800007a8	00000013	addi	x0,x0,0	  x0:0x00000000
        6845000	       683	800007ac	fe5ff6ef	jal	x13,800007ac	 x13=0x800007ac
        6855000	       684	00000000	00000013	addi	x0,x0,0	  x0:0x00000000
        6865000	       685	8000078c	00000013	addi	x0,x0,0	  x0:0x00000000
        6875000	       686	80000790	038000ef	jal	x1,80000790	  x1=0x80000790
        6885000	       687	00000000	00000013	addi	x0,x0,0	  x0:0x00000000
        6895000	       688	800007c4	00000013	addi	x0,x0,0	  x0:0x00000000
        6905000	       689	800007c8	018d7933	and	x18,x26,x24	 x26:0xfb7092cc x24:0x80003ee8 x18=0x800012c8
        6915000	       690	800007cc	010000ef	jal	x1,800007cc	  x1=0x800007cc
        6925000	       691	00000000	00000013	addi	x0,x0,0	  x0:0x00000000
        6935000	       692	800007d8	00000013	addi	x0,x0,0	  x0:0x00000000
        6945000	       693	800007dc	040002ef	jal	x5,800007dc	  x5=0x800007dc
        6955000	       694	00000000	00000013	addi	x0,x0,0	  x0:0x00000000
        6965000	       695	80000818	00000013	addi	x0,x0,0	  x0:0x00000000
        6975000	       696	8000081c	fb9ff0ef	jal	x1,8000081c	  x1=0x8000081c
        6985000	       697	00000000	00000013	addi	x0,x0,0	  x0:0x00000000
        6995000	       698	800007d0	00000013	addi	x0,x0,0	  x0:0x00000000
        7005000	       699	800007d4	030000ef	jal	x1,800007d4	  x1=0x800007d4
        7015000	       700	00000000	00000013	addi	x0,x0,0	  x0:0x00000000
        7025000	       701	80000800	00000013	addi	x0,x0,0	  x0:0x00000000
        7035000	       702	80000804	01c000ef	jal	x1,80000804	  x1=0x80000804
        7045000	       703	00000000	00000013	addi	x0,x0,0	  x0:0x00000000
        7055000	       704	8000081c	00000013	addi	x0,x0,0	  x0:0x00000000
        7065000	       705	80000820	fc5ff0ef	jal	x1,80000820	  x1=0x80000820
        7075000	       706	00000000	00000013	addi	x0,x0,0	  x0:0x00000000
        7085000	       707	800007e0	00000013	addi	x0,x0,0	  x0:0x00000000
        7095000	       708	800007e4	01c003ef	jal	x7,800007e4	  x7=0x800007e4
        7105000	       709	00000000	00000013	addi	x0,x0,0	  x0:0x00000000
        7115000	       710	800007fc	00000013	addi	x0,x0,0	  x0:0x00000000
        7125000	       711	80000800	0080086f	jal	x16,80000800	 x16=0x80000800
        7135000	       712	00000000	00000013	addi	x0,x0,0	  x0:0x00000000
        7145000	       713	80000804	00000013	addi	x0,x0,0	  x0:0x00000000
        7155000	       714	80000808	fd9ffa6f	jal	x20,80000808	 x20=0x80000808
        7165000	       715	00000000	00000013	addi	x0,x0,0	  x0:0x00000000
        7175000	       716	800007dc	00000013	addi	x0,x0,0	  x0:0x00000000
        7185000	       717	800007e0	030000ef	jal	x1,800007e0	  x1=0x800007e0
        7195000	       718	00000000	00000013	addi	x0,x0,0	  x0:0x00000000
        7205000	       719	8000080c	00000013	addi	x0,x0,0	  x0:0x00000000
        7215000	       720	80000810	fe1ff0ef	jal	x1,80000810	  x1=0x80000810
        7225000	       721	00000000	00000013	addi	x0,x0,0	  x0:0x00000000
        7235000	       722	800007ec	00000013	addi	x0,x0,0	  x0:0x00000000
        7245000	       723	800007f0	fe9ff3ef	jal	x7,800007f0	  x7=0x800007f0
        7255000	       724	00000000	00000013	addi	x0,x0,0	  x0:0x00000000
        7265000	       725	800007d4	00000013	addi	x0,x0,0	  x0:0x00000000
        7275000	       726	800007d8	034000ef	jal	x1,800007d8	  x1=0x800007d8
        7285000	       727	00000000	00000013	addi	x0,x0,0	  x0:0x00000000
        7295000	       728	80000808	00000013	addi	x0,x0,0	  x0:0x00000000
        7305000	       729	8000080c	00c000ef	jal	x1,8000080c	  x1=0x8000080c
        7315000	       730	00000000	00000013	addi	x0,x0,0	  x0:0x00000000
        7325000	       731	80000814	00000013	addi	x0,x0,0	  x0:0x00000000
        7335000	       732	80000818	fd1ff0ef	jal	x1,80000818	  x1=0x80000818
        7345000	       733	00000000	00000013	addi	x0,x0,0	  x0:0x00000000
        7355000	       734	800007e4	00000013	addi	x0,x0,0	  x0:0x00000000
        7365000	       735	800007e8	fe9ff0ef	jal	x1,800007e8	  x1=0x800007e8
        7375000	       736	00000000	00000013	addi	x0,x0,0	  x0:0x00000000
        7385000	       737	800007cc	00000013	addi	x0,x0,0	  x0:0x00000000
        7395000	       738	800007d0	01c0036f	jal	x6,800007d0	  x6=0x800007d0
        7405000	       739	00000000	00000013	addi	x0,x0,0	  x0:0x00000000
        7415000	       740	800007e8	00000013	addi	x0,x0,0	  x0:0x00000000
        7425000	       741	800007ec	010000ef	jal	x1,800007ec	  x1=0x800007ec
        7435000	       742	00000000	00000013	addi	x0,x0,0	  x0:0x00000000
        7445000	       743	800007f8	00000013	addi	x0,x0,0	  x0:0x00000000
        7455000	       744	800007fc	0180036f	jal	x6,800007fc	  x6=0x800007fc
        7465000	       745	00000000	00000013	addi	x0,x0,0	  x0:0x00000000
        7475000	       746	80000810	00000013	addi	x0,x0,0	  x0:0x00000000
        7485000	       747	80000814	fe1ff7ef	jal	x15,80000814	 x15=0x80000814
        7495000	       748	00000000	00000013	addi	x0,x0,0	  x0:0x00000000
        7505000	       749	800007f0	00000013	addi	x0,x0,0	  x0:0x00000000
        7515000	       750	800007f4	00400c6f	jal	x24,800007f4	 x24=0x800007f4
        7525000	       751	00000000	00000013	addi	x0,x0,0	  x0:0x00000000
        7535000	       752	800007f4	00000013	addi	x0,x0,0	  x0:0x00000000
        7545000	       753	800007f8	02c000ef	jal	x1,800007f8	  x1=0x800007f8
        7555000	       754	00000000	00000013	addi	x0,x0,0	  x0:0x00000000
        7565000	       755	80000820	00000013	addi	x0,x0,0	  x0:0x00000000
        7575000	       756	80000824	81ad6093	ori	x1,x26,-2022	 x26:0xfb7092cc  x1=0xfffffade
        7585000	       757	80000828	038000ef	jal	x1,80000828	  x1=0x80000828
        7595000	       758	00000000	00000013	addi	x0,x0,0	  x0:0x00000000
        7605000	       759	8000085c	00000013	addi	x0,x0,0	  x0:0x00000000
        7615000	       760	80000860	fedff36f	jal	x6,80000860	  x6=0x80000860
        7625000	       761	00000000	00000013	addi	x0,x0,0	  x0:0x00000000
        7635000	       762	80000848	00000013	addi	x0,x0,0	  x0:0x00000000
        7645000	       763	8000084c	fe5ff36f	jal	x6,8000084c	  x6=0x8000084c
        7655000	       764	00000000	00000013	addi	x0,x0,0	  x0:0x00000000
        7665000	       765	8000082c	00000013	addi	x0,x0,0	  x0:0x00000000
        7675000	       766	80000830	ffdff0ef	jal	x1,80000830	  x1=0x80000830
        7685000	       767	00000000	00000013	addi	x0,x0,0	  x0:0x00000000
        7695000	       768	80000828	00000013	addi	x0,x0,0	  x0:0x00000000
        7705000	       769	8000082c	024000ef	jal	x1,8000082c	  x1=0x8000082c
        7715000	       770	00000000	00000013	addi	x0,x0,0	  x0:0x00000000
        7725000	       771	8000084c	00000013	addi	x0,x0,0	  x0:0x00000000
        7735000	       772	80000850	ff5ff36f	jal	x6,80000850	  x6=0x80000850
        7745000	       773	00000000	00000013	addi	x0,x0,0	  x0:0x00000000
        7755000	       774	80000840	00000013	addi	x0,x0,0	  x0:0x00000000
        7765000	       775	80000844	ff5ff36f	jal	x6,80000844	  x6=0x80000844
        7775000	       776	00000000	00000013	addi	x0,x0,0	  x0:0x00000000
        7785000	       777	80000834	00000013	addi	x0,x0,0	  x0:0x00000000
        7795000	       778	80000838	01c006ef	jal	x13,80000838	 x13=0x80000838
        7805000	       779	00000000	00000013	addi	x0,x0,0	  x0:0x00000000
        7815000	       780	80000850	00000013	addi	x0,x0,0	  x0:0x00000000
        7825000	       781	80000854	fedff36f	jal	x6,80000854	  x6=0x80000854
        7835000	       782	00000000	00000013	addi	x0,x0,0	  x0:0x00000000
        7845000	       783	8000083c	00000013	addi	x0,x0,0	  x0:0x00000000
        7855000	       784	80000840	0240026f	jal	x4,80000840	  x4=0x80000840
        7865000	       785	00000000	00000013	addi	x0,x0,0	  x0:0x00000000
        7875000	       786	80000860	00000013	addi	x0,x0,0	  x0:0x00000000
        7885000	       787	80000864	fe5ff0ef	jal	x1,80000864	  x1=0x80000864
        7895000	       788	00000000	00000013	addi	x0,x0,0	  x0:0x00000000
        7905000	       789	80000844	00000013	addi	x0,x0,0	  x0:0x00000000
        7915000	       790	80000848	014000ef	jal	x1,80000848	  x1=0x80000848
        7925000	       791	00000000	00000013	addi	x0,x0,0	  x0:0x00000000
        7935000	       792	80000858	00000013	addi	x0,x0,0	  x0:0x00000000
        7945000	       793	8000085c	fd9ff0ef	jal	x1,8000085c	  x1=0x8000085c
        7955000	       794	00000000	00000013	addi	x0,x0,0	  x0:0x00000000
        7965000	       795	80000830	00000013	addi	x0,x0,0	  x0:0x00000000
        7975000	       796	80000834	008000ef	jal	x1,80000834	  x1=0x80000834
        7985000	       797	00000000	00000013	addi	x0,x0,0	  x0:0x00000000
        7995000	       798	80000838	00000013	addi	x0,x0,0	  x0:0x00000000
        8005000	       799	8000083c	01c0036f	jal	x6,8000083c	  x6=0x8000083c
        8015000	       800	00000000	00000013	addi	x0,x0,0	  x0:0x00000000
        8025000	       801	80000854	00000013	addi	x0,x0,0	  x0:0x00000000
        8035000	       802	80000858	010000ef	jal	x1,80000858	  x1=0x80000858
        8045000	       803	00000000	00000013	addi	x0,x0,0	  x0:0x00000000
        8055000	       804	80000864	00000013	addi	x0,x0,0	  x0:0x00000000
        8065000	       805	80000868	015843b3	xor	x7,x16,x21	 x16:0x80000800 x21:0x00000000  x7=0x80000800
        8075000	       806	8000086c	020000ef	jal	x1,8000086c	  x1=0x8000086c
        8085000	       807	00000000	00000013	addi	x0,x0,0	  x0:0x00000000
        8095000	       808	80000888	00000013	addi	x0,x0,0	  x0:0x00000000
        8105000	       809	8000088c	03c0096f	jal	x18,8000088c	 x18=0x8000088c
        8115000	       810	00000000	00000013	addi	x0,x0,0	  x0:0x00000000
        8125000	       811	800008c4	00000013	addi	x0,x0,0	  x0:0x00000000
        8135000	       812	800008c8	fe5ff76f	jal	x14,800008c8	 x14=0x800008c8
        8145000	       813	00000000	00000013	addi	x0,x0,0	  x0:0x00000000
        8155000	       814	800008a8	00000013	addi	x0,x0,0	  x0:0x00000000
        8165000	       815	800008ac	00c000ef	jal	x1,800008ac	  x1=0x800008ac
        8175000	       816	00000000	00000013	addi	x0,x0,0	  x0:0x00000000
        8185000	       817	800008b4	00000013	addi	x0,x0,0	  x0:0x00000000
        8195000	       818	800008b8	fc9ff0ef	jal	x1,800008b8	  x1=0x800008b8
        8205000	       819	00000000	00000013	addi	x0,x0,0	  x0:0x00000000
        8215000	       820	8000087c	00000013	addi	x0,x0,0	  x0:0x00000000
        8225000	       821	80000880	0400026f	jal	x4,80000880	  x4=0x80000880
        8235000	       822	00000000	00000013	addi	x0,x0,0	  x0:0x00000000
        8245000	       823	800008bc	00000013	addi	x0,x0,0	  x0:0x00000000
        8255000	       824	800008c0	fd5ff0ef	jal	x1,800008c0	  x1=0x800008c0
        8265000	       825	00000000	00000013	addi	x0,x0,0	  x0:0x00000000
        8275000	       826	80000890	00000013	addi	x0,x0,0	  x0:0x00000000
        8285000	       827	80000894	ffdff0ef	jal	x1,80000894	  x1=0x80000894
        8295000	       828	00000000	00000013	addi	x0,x0,0	  x0:0x00000000
        8305000	       829	8000088c	00000013	addi	x0,x0,0	  x0:0x00000000
        8315000	       830	80000890	0080036f	jal	x6,80000890	  x6=0x80000890
        8325000	       831	00000000	00000013	addi	x0,x0,0	  x0:0x00000000
        8335000	       832	80000894	00000013	addi	x0,x0,0	  x0:0x00000000
        8345000	       833	80000898	024000ef	jal	x1,80000898	  x1=0x80000898
        8355000	       834	00000000	00000013	addi	x0,x0,0	  x0:0x00000000
        8365000	       835	800008b8	00000013	addi	x0,x0,0	  x0:0x00000000
        8375000	       836	800008bc	fc9ff0ef	jal	x1,800008bc	  x1=0x800008bc
        8385000	       837	00000000	00000013	addi	x0,x0,0	  x0:0x00000000
        8395000	       838	80000880	00000013	addi	x0,x0,0	  x0:0x00000000
        8405000	       839	80000884	030000ef	jal	x1,80000884	  x1=0x80000884
        8415000	       840	00000000	00000013	addi	x0,x0,0	  x0:0x00000000
        8425000	       841	800008b0	00000013	addi	x0,x0,0	  x0:0x00000000
        8435000	       842	800008b4	fc1ff0ef	jal	x1,800008b4	  x1=0x800008b4
        8445000	       843	00000000	00000013	addi	x0,x0,0	  x0:0x00000000
        8455000	       844	80000870	00000013	addi	x0,x0,0	  x0:0x00000000
        8465000	       845	80000874	ffdff0ef	jal	x1,80000874	  x1=0x80000874
        8475000	       846	00000000	00000013	addi	x0,x0,0	  x0:0x00000000
        8485000	       847	8000086c	00000013	addi	x0,x0,0	  x0:0x00000000
        8495000	       848	80000870	03800fef	jal	x31,80000870	 x31=0x80000870
        8505000	       849	00000000	00000013	addi	x0,x0,0	  x0:0x00000000
        8515000	       850	800008a4	00000013	addi	x0,x0,0	  x0:0x00000000
        8525000	       851	800008a8	ff9ff76f	jal	x14,800008a8	 x14=0x800008a8
        8535000	       852	00000000	00000013	addi	x0,x0,0	  x0:0x00000000
        8545000	       853	8000089c	00000013	addi	x0,x0,0	  x0:0x00000000
        8555000	       854	800008a0	ffdff0ef	jal	x1,800008a0	  x1=0x800008a0
        8565000	       855	00000000	00000013	addi	x0,x0,0	  x0:0x00000000
        8575000	       856	80000898	00000013	addi	x0,x0,0	  x0:0x00000000
        8585000	       857	8000089c	fe1ff3ef	jal	x7,8000089c	  x7=0x8000089c
        8595000	       858	00000000	00000013	addi	x0,x0,0	  x0:0x00000000
        8605000	       859	80000878	00000013	addi	x0,x0,0	  x0:0x00000000
        8615000	       860	8000087c	00c000ef	jal	x1,8000087c	  x1=0x8000087c
        8625000	       861	00000000	00000013	addi	x0,x0,0	  x0:0x00000000
        8635000	       862	80000884	00000013	addi	x0,x0,0	  x0:0x00000000
        8645000	       863	80000888	03c001ef	jal	x3,80000888	  x3=0x80000888
        8655000	       864	00000000	00000013	addi	x0,x0,0	  x0:0x00000000
        8665000	       865	800008c0	00000013	addi	x0,x0,0	  x0:0x00000000
        8675000	       866	800008c4	fb5ff0ef	jal	x1,800008c4	  x1=0x800008c4
        8685000	       867	00000000	00000013	addi	x0,x0,0	  x0:0x00000000
        8695000	       868	80000874	00000013	addi	x0,x0,0	  x0:0x00000000
        8705000	       869	80000878	038000ef	jal	x1,80000878	  x1=0x80000878
        8715000	       870	00000000	00000013	addi	x0,x0,0	  x0:0x00000000
        8725000	       871	800008ac	00000013	addi	x0,x0,0	  x0:0x00000000
        8735000	       872	800008b0	ff5ff0ef	jal	x1,800008b0	  x1=0x800008b0
        8745000	       873	00000000	00000013	addi	x0,x0,0	  x0:0x00000000
        8755000	       874	800008a0	00000013	addi	x0,x0,0	  x0:0x00000000
        8765000	       875	800008a4	028000ef	jal	x1,800008a4	  x1=0x800008a4
        8775000	       876	00000000	00000013	addi	x0,x0,0	  x0:0x00000000
        8785000	       877	800008c8	00000013	addi	x0,x0,0	  x0:0x00000000
        8795000	       878	800008cc	004000ef	jal	x1,800008cc	  x1=0x800008cc
        8805000	       879	00000000	00000013	addi	x0,x0,0	  x0:0x00000000
        8815000	       880	800008cc	00000013	addi	x0,x0,0	  x0:0x00000000
        8825000	       881	800008d0	419b0633	sub	x12,x22,x25	 x22:0x80009f78 x25:0x80009c55 x12=0x00000323
        8835000	       882	800008d4	020000ef	jal	x1,800008d4	  x1=0x800008d4
        8845000	       883	00000000	00000013	addi	x0,x0,0	  x0:0x00000000
        8855000	       884	800008f0	00000013	addi	x0,x0,0	  x0:0x00000000
        8865000	       885	800008f4	00800def	jal	x27,800008f4	 x27=0x800008f4
        8875000	       886	00000000	00000013	addi	x0,x0,0	  x0:0x00000000
        8885000	       887	800008f8	00000013	addi	x0,x0,0	  x0:0x00000000
        8895000	       888	800008fc	ffdff5ef	jal	x11,800008fc	 x11=0x800008fc
        8905000	       889	00000000	00000013	addi	x0,x0,0	  x0:0x00000000
        8915000	       890	800008f4	00000013	addi	x0,x0,0	  x0:0x00000000
        8925000	       891	800008f8	0100036f	jal	x6,800008f8	  x6=0x800008f8
        8935000	       892	00000000	00000013	addi	x0,x0,0	  x0:0x00000000
        8945000	       893	80000904	00000013	addi	x0,x0,0	  x0:0x00000000
        8955000	       894	80000908	fe5ff0ef	jal	x1,80000908	  x1=0x80000908
        8965000	       895	00000000	00000013	addi	x0,x0,0	  x0:0x00000000
        8975000	       896	800008e8	00000013	addi	x0,x0,0	  x0:0x00000000
        8985000	       897	800008ec	ff1ff36f	jal	x6,800008ec	  x6=0x800008ec
        8995000	       898	00000000	00000013	addi	x0,x0,0	  x0:0x00000000
        9005000	       899	800008d8	00000013	addi	x0,x0,0	  x0:0x00000000
        9015000	       900	800008dc	014000ef	jal	x1,800008dc	  x1=0x800008dc
        9025000	       901	00000000	00000013	addi	x0,x0,0	  x0:0x00000000
        9035000	       902	800008ec	00000013	addi	x0,x0,0	  x0:0x00000000
        9045000	       903	800008f0	010000ef	jal	x1,800008f0	  x1=0x800008f0
        9055000	       904	00000000	00000013	addi	x0,x0,0	  x0:0x00000000
        9065000	       905	800008fc	00000013	addi	x0,x0,0	  x0:0x00000000
        9075000	       906	80000900	fe1ffaef	jal	x21,80000900	 x21=0x80000900
        9085000	       907	00000000	00000013	addi	x0,x0,0	  x0:0x00000000
        9095000	       908	800008dc	00000013	addi	x0,x0,0	  x0:0x00000000
        9105000	       909	800008e0	0080036f	jal	x6,800008e0	  x6=0x800008e0
        9115000	       910	00000000	00000013	addi	x0,x0,0	  x0:0x00000000
        9125000	       911	800008e4	00000013	addi	x0,x0,0	  x0:0x00000000
        9135000	       912	800008e8	ffdff0ef	jal	x1,800008e8	  x1=0x800008e8
        9145000	       913	00000000	00000013	addi	x0,x0,0	  x0:0x00000000
        9155000	       914	800008e0	00000013	addi	x0,x0,0	  x0:0x00000000
        9165000	       915	800008e4	020000ef	jal	x1,800008e4	  x1=0x800008e4
        9175000	       916	00000000	00000013	addi	x0,x0,0	  x0:0x00000000
        9185000	       917	80000900	00000013	addi	x0,x0,0	  x0:0x00000000
        9195000	       918	80000904	fd5ff0ef	jal	x1,80000904	  x1=0x80000904
        9205000	       919	00000000	00000013	addi	x0,x0,0	  x0:0x00000000
        9215000	       920	800008d4	00000013	addi	x0,x0,0	  x0:0x00000000
        9225000	       921	800008d8	0340036f	jal	x6,800008d8	  x6=0x800008d8
        9235000	       922	00000000	00000013	addi	x0,x0,0	  x0:0x00000000
        9245000	       923	80000908	00000013	addi	x0,x0,0	  x0:0x00000000
        9255000	       924	8000090c	0163f7b3	and	x15,x7,x22	  x7:0x8000089c x22:0x80009f78 x15=0x80000818
        9265000	       925	80000910	018000ef	jal	x1,80000910	  x1=0x80000910
        9275000	       926	00000000	00000013	addi	x0,x0,0	  x0:0x00000000
        9285000	       927	80000924	00000013	addi	x0,x0,0	  x0:0x00000000
        9295000	       928	80000928	01c000ef	jal	x1,80000928	  x1=0x80000928
        9305000	       929	00000000	00000013	addi	x0,x0,0	  x0:0x00000000
        9315000	       930	80000940	00000013	addi	x0,x0,0	  x0:0x00000000
        9325000	       931	80000944	ff5ffcef	jal	x25,80000944	 x25=0x80000944
        9335000	       932	00000000	00000013	addi	x0,x0,0	  x0:0x00000000
        9345000	       933	80000934	00000013	addi	x0,x0,0	  x0:0x00000000
        9355000	       934	80000938	ff9ff0ef	jal	x1,80000938	  x1=0x80000938
        9365000	       935	00000000	00000013	addi	x0,x0,0	  x0:0x00000000
        9375000	       936	8000092c	00000013	addi	x0,x0,0	  x0:0x00000000
        9385000	       937	80000930	ff1ff0ef	jal	x1,80000930	  x1=0x80000930
        9395000	       938	00000000	00000013	addi	x0,x0,0	  x0:0x00000000
        9405000	       939	8000091c	00000013	addi	x0,x0,0	  x0:0x00000000
        9415000	       940	80000920	ffdff0ef	jal	x1,80000920	  x1=0x80000920
        9425000	       941	00000000	00000013	addi	x0,x0,0	  x0:0x00000000
        9435000	       942	80000918	00000013	addi	x0,x0,0	  x0:0x00000000
        9445000	       943	8000091c	ffdfffef	jal	x31,8000091c	 x31=0x8000091c
        9455000	       944	00000000	00000013	addi	x0,x0,0	  x0:0x00000000
        9465000	       945	80000914	00000013	addi	x0,x0,0	  x0:0x00000000
        9475000	       946	80000918	01c000ef	jal	x1,80000918	  x1=0x80000918
        9485000	       947	00000000	00000013	addi	x0,x0,0	  x0:0x00000000
        9495000	       948	80000930	00000013	addi	x0,x0,0	  x0:0x00000000
        9505000	       949	80000934	ff1ff0ef	jal	x1,80000934	  x1=0x80000934
        9515000	       950	00000000	00000013	addi	x0,x0,0	  x0:0x00000000
        9525000	       951	80000920	00000013	addi	x0,x0,0	  x0:0x00000000
        9535000	       952	80000924	024000ef	jal	x1,80000924	  x1=0x80000924
        9545000	       953	00000000	00000013	addi	x0,x0,0	  x0:0x00000000
        9555000	       954	80000944	00000013	addi	x0,x0,0	  x0:0x00000000
        9565000	       955	80000948	ff9ff0ef	jal	x1,80000948	  x1=0x80000948
        9575000	       956	00000000	00000013	addi	x0,x0,0	  x0:0x00000000
        9585000	       957	8000093c	00000013	addi	x0,x0,0	  x0:0x00000000
        9595000	       958	80000940	fedff0ef	jal	x1,80000940	  x1=0x80000940
        9605000	       959	00000000	00000013	addi	x0,x0,0	  x0:0x00000000
        9615000	       960	80000928	00000013	addi	x0,x0,0	  x0:0x00000000
        9625000	       961	8000092c	fe9fff6f	jal	x30,8000092c	 x30=0x8000092c
        9635000	       962	00000000	00000013	addi	x0,x0,0	  x0:0x00000000
        9645000	       963	80000910	00000013	addi	x0,x0,0	  x0:0x00000000
        9655000	       964	80000914	028000ef	jal	x1,80000914	  x1=0x80000914
        9665000	       965	00000000	00000013	addi	x0,x0,0	  x0:0x00000000
        9675000	       966	80000938	00000013	addi	x0,x0,0	  x0:0x00000000
        9685000	       967	8000093c	010003ef	jal	x7,8000093c	  x7=0x8000093c
        9695000	       968	00000000	00000013	addi	x0,x0,0	  x0:0x00000000
        9705000	       969	80000948	00000013	addi	x0,x0,0	  x0:0x00000000
        9715000	       970	8000094c	0008d3b3	srl	x7,x17,x0	 x17:0x800007c4  x0:0x00000000  x7=0x800007c4
        9725000	       971	80000950	00c000ef	jal	x1,80000950	  x1=0x80000950
        9735000	       972	00000000	00000013	addi	x0,x0,0	  x0:0x00000000
        9745000	       973	80000958	00000013	addi	x0,x0,0	  x0:0x00000000
        9755000	       974	8000095c	010002ef	jal	x5,8000095c	  x5=0x8000095c
        9765000	       975	00000000	00000013	addi	x0,x0,0	  x0:0x00000000
        9775000	       976	80000968	00000013	addi	x0,x0,0	  x0:0x00000000
        9785000	       977	8000096c	0040036f	jal	x6,8000096c	  x6=0x8000096c
        9795000	       978	00000000	00000013	addi	x0,x0,0	  x0:0x00000000
        9805000	       979	8000096c	00000013	addi	x0,x0,0	  x0:0x00000000
        9815000	       980	80000970	fe9ffeef	jal	x29,80000970	 x29=0x80000970
        9825000	       981	00000000	00000013	addi	x0,x0,0	  x0:0x00000000
        9835000	       982	80000954	00000013	addi	x0,x0,0	  x0:0x00000000
        9845000	       983	80000958	ffdff0ef	jal	x1,80000958	  x1=0x80000958
        9855000	       984	00000000	00000013	addi	x0,x0,0	  x0:0x00000000
        9865000	       985	80000950	00000013	addi	x0,x0,0	  x0:0x00000000
        9875000	       986	80000954	024002ef	jal	x5,80000954	  x5=0x80000954
        9885000	       987	00000000	00000013	addi	x0,x0,0	  x0:0x00000000
        9895000	       988	80000974	00000013	addi	x0,x0,0	  x0:0x00000000
        9905000	       989	80000978	fe9ff0ef	jal	x1,80000978	  x1=0x80000978
        9915000	       990	00000000	00000013	addi	x0,x0,0	  x0:0x00000000
        9925000	       991	8000095c	00000013	addi	x0,x0,0	  x0:0x00000000
        9935000	       992	80000960	0080036f	jal	x6,80000960	  x6=0x80000960
        9945000	       993	00000000	00000013	addi	x0,x0,0	  x0:0x00000000
        9955000	       994	80000964	00000013	addi	x0,x0,0	  x0:0x00000000
        9965000	       995	80000968	00c000ef	jal	x1,80000968	  x1=0x80000968
        9975000	       996	00000000	00000013	addi	x0,x0,0	  x0:0x00000000
        9985000	       997	80000970	00000013	addi	x0,x0,0	  x0:0x00000000
        9995000	       998	80000974	ff1ff0ef	jal	x1,80000974	  x1=0x80000974
       10005000	       999	00000000	00000013	addi	x0,x0,0	  x0:0x00000000
       10015000	      1000	80000960	00000013	addi	x0,x0,0	  x0:0x00000000
       10025000	      1001	80000964	0180036f	jal	x6,80000964	  x6=0x80000964
       10035000	      1002	00000000	00000013	addi	x0,x0,0	  x0:0x00000000
       10045000	      1003	80000978	00000013	addi	x0,x0,0	  x0:0x00000000
       10055000	      1004	8000097c	dede2413	slti	x8,x28,-531	 x28:0x80004540  x8=0x00000001
       10065000	      1005	80000980	058000ef	jal	x1,80000980	  x1=0x80000980
       10075000	      1006	00000000	00000013	addi	x0,x0,0	  x0:0x00000000
       10085000	      1007	800009d4	00000013	addi	x0,x0,0	  x0:0x00000000
       10095000	      1008	800009d8	fadff0ef	jal	x1,800009d8	  x1=0x800009d8
       10105000	      1009	00000000	00000013	addi	x0,x0,0	  x0:0x00000000
       10115000	      1010	80000980	00000013	addi	x0,x0,0	  x0:0x00000000
       10125000	      1011	80000984	014000ef	jal	x1,80000984	  x1=0x80000984
       10135000	      1012	00000000	00000013	addi	x0,x0,0	  x0:0x00000000
       10145000	      1013	80000994	00000013	addi	x0,x0,0	  x0:0x00000000
       10155000	      1014	80000998	ffdff0ef	jal	x1,80000998	  x1=0x80000998
       10165000	      1015	00000000	00000013	addi	x0,x0,0	  x0:0x00000000
       10175000	      1016	80000990	00000013	addi	x0,x0,0	  x0:0x00000000
       10185000	      1017	80000994	008000ef	jal	x1,80000994	  x1=0x80000994
       10195000	      1018	00000000	00000013	addi	x0,x0,0	  x0:0x00000000
       10205000	      1019	80000998	00000013	addi	x0,x0,0	  x0:0x00000000
       10215000	      1020	8000099c	014001ef	jal	x3,8000099c	  x3=0x8000099c
       10225000	      1021	00000000	00000013	addi	x0,x0,0	  x0:0x00000000
       10235000	      1022	800009ac	00000013	addi	x0,x0,0	  x0:0x00000000
       10245000	      1023	800009b0	01c000ef	jal	x1,800009b0	  x1=0x800009b0
       10255000	      1024	00000000	00000013	addi	x0,x0,0	  x0:0x00000000
       10265000	      1025	800009c8	00000013	addi	x0,x0,0	  x0:0x00000000
       10275000	      1026	800009cc	fddff36f	jal	x6,800009cc	  x6=0x800009cc
       10285000	      1027	00000000	00000013	addi	x0,x0,0	  x0:0x00000000
       10295000	      1028	800009a4	00000013	addi	x0,x0,0	  x0:0x00000000
       10305000	      1029	800009a8	02c0036f	jal	x6,800009a8	  x6=0x800009a8
       10315000	      1030	00000000	00000013	addi	x0,x0,0	  x0:0x00000000
       10325000	      1031	800009d0	00000013	addi	x0,x0,0	  x0:0x00000000
       10335000	      1032	800009d4	fe5ff26f	jal	x4,800009d4	  x4=0x800009d4
       10345000	      1033	00000000	00000013	addi	x0,x0,0	  x0:0x00000000
       10355000	      1034	800009b4	00000013	addi	x0,x0,0	  x0:0x00000000
       10365000	      1035	800009b8	004000ef	jal	x1,800009b8	  x1=0x800009b8
       10375000	      1036	00000000	00000013	addi	x0,x0,0	  x0:0x00000000
       10385000	      1037	800009b8	00000013	addi	x0,x0,0	  x0:0x00000000
       10395000	      1038	800009bc	0040036f	jal	x6,800009bc	  x6=0x800009bc
       10405000	      1039	00000000	00000013	addi	x0,x0,0	  x0:0x00000000
       10415000	      1040	800009bc	00000013	addi	x0,x0,0	  x0:0x00000000
       10425000	      1041	800009c0	fd1ff0ef	jal	x1,800009c0	  x1=0x800009c0
       10435000	      1042	00000000	00000013	addi	x0,x0,0	  x0:0x00000000
       10445000	      1043	8000098c	00000013	addi	x0,x0,0	  x0:0x00000000
       10455000	      1044	80000990	034008ef	jal	x17,80000990	 x17=0x80000990
       10465000	      1045	00000000	00000013	addi	x0,x0,0	  x0:0x00000000
       10475000	      1046	800009c0	00000013	addi	x0,x0,0	  x0:0x00000000
       10485000	      1047	800009c4	fe1ff0ef	jal	x1,800009c4	  x1=0x800009c4
       10495000	      1048	00000000	00000013	addi	x0,x0,0	  x0:0x00000000
       10505000	      1049	800009a0	00000013	addi	x0,x0,0	  x0:0x00000000
       10515000	      1050	800009a4	ffdff26f	jal	x4,800009a4	  x4=0x800009a4
       10525000	      1051	00000000	00000013	addi	x0,x0,0	  x0:0x00000000
       10535000	      1052	8000099c	00000013	addi	x0,x0,0	  x0:0x00000000
       10545000	      1053	800009a0	fe9ff0ef	jal	x1,800009a0	  x1=0x800009a0
       10555000	      1054	00000000	00000013	addi	x0,x0,0	  x0:0x00000000
       10565000	      1055	80000984	00000013	addi	x0,x0,0	  x0:0x00000000
       10575000	      1056	80000988	0400016f	jal	x2,80000988	  x2=0x80000988
       10585000	      1057	00000000	00000013	addi	x0,x0,0	  x0:0x00000000
       10595000	      1058	800009c4	00000013	addi	x0,x0,0	  x0:0x00000000
       10605000	      1059	800009c8	fedff96f	jal	x18,800009c8	 x18=0x800009c8
       10615000	      1060	00000000	00000013	addi	x0,x0,0	  x0:0x00000000
       10625000	      1061	800009b0	00000013	addi	x0,x0,0	  x0:0x00000000
       10635000	      1062	800009b4	ff9ff0ef	jal	x1,800009b4	  x1=0x800009b4
       10645000	      1063	00000000	00000013	addi	x0,x0,0	  x0:0x00000000
       10655000	      1064	800009a8	00000013	addi	x0,x0,0	  x0:0x00000000
       10665000	      1065	800009ac	024000ef	jal	x1,800009ac	  x1=0x800009ac
       10675000	      1066	00000000	00000013	addi	x0,x0,0	  x0:0x00000000
       10685000	      1067	800009cc	00000013	addi	x0,x0,0	  x0:0x00000000
       10695000	      1068	800009d0	fbdff36f	jal	x6,800009d0	  x6=0x800009d0
       10705000	      1069	00000000	00000013	addi	x0,x0,0	  x0:0x00000000
       10715000	      1070	80000988	00000013	addi	x0,x0,0	  x0:0x00000000
       10725000	      1071	8000098c	050000ef	jal	x1,8000098c	  x1=0x8000098c
       10735000	      1072	00000000	00000013	addi	x0,x0,0	  x0:0x00000000
       10745000	      1073	800009d8	00000013	addi	x0,x0,0	  x0:0x00000000
       10755000	      1074	800009dc	cc97af97	auipc	x31,0xcc97a	 x31=0x4c97a9d8
       10765000	      1075	800009e0	03c000ef	jal	x1,800009e0	  x1=0x800009e0
       10775000	      1076	00000000	00000013	addi	x0,x0,0	  x0:0x00000000
       10785000	      1077	80000a18	00000013	addi	x0,x0,0	  x0:0x00000000
       10795000	      1078	80000a1c	fcdff0ef	jal	x1,80000a1c	  x1=0x80000a1c
       10805000	      1079	00000000	00000013	addi	x0,x0,0	  x0:0x00000000
       10815000	      1080	800009e4	00000013	addi	x0,x0,0	  x0:0x00000000
       10825000	      1081	800009e8	05c000ef	jal	x1,800009e8	  x1=0x800009e8
       10835000	      1082	00000000	00000013	addi	x0,x0,0	  x0:0x00000000
       10845000	      1083	80000a40	00000013	addi	x0,x0,0	  x0:0x00000000
       10855000	      1084	80000a44	fe5ff86f	jal	x16,80000a44	 x16=0x80000a44
       10865000	      1085	00000000	00000013	addi	x0,x0,0	  x0:0x00000000
       10875000	      1086	80000a24	00000013	addi	x0,x0,0	  x0:0x00000000
       10885000	      1087	80000a28	fedff0ef	jal	x1,80000a28	  x1=0x80000a28
       10895000	      1088	00000000	00000013	addi	x0,x0,0	  x0:0x00000000
       10905000	      1089	80000a10	00000013	addi	x0,x0,0	  x0:0x00000000
       10915000	      1090	80000a14	ff1ff0ef	jal	x1,80000a14	  x1=0x80000a14
       10925000	      1091	00000000	00000013	addi	x0,x0,0	  x0:0x00000000
       10935000	      1092	80000a00	00000013	addi	x0,x0,0	  x0:0x00000000
       10945000	      1093	80000a04	028000ef	jal	x1,80000a04	  x1=0x80000a04
       10955000	      1094	00000000	00000013	addi	x0,x0,0	  x0:0x00000000
       10965000	      1095	80000a28	00000013	addi	x0,x0,0	  x0:0x00000000
       10975000	      1096	80000a2c	024000ef	jal	x1,80000a2c	  x1=0x80000a2c
       10985000	      1097	00000000	00000013	addi	x0,x0,0	  x0:0x00000000
       10995000	      1098	80000a4c	00000013	addi	x0,x0,0	  x0:0x00000000
       11005000	      1099	80000a50	fd5ffc6f	jal	x24,80000a50	 x24=0x80000a50
       11015000	      1100	00000000	00000013	addi	x0,x0,0	  x0:0x00000000
       11025000	      1101	80000a20	00000013	addi	x0,x0,0	  x0:0x00000000
       11035000	      1102	80000a24	fc1ff0ef	jal	x1,80000a24	  x1=0x80000a24
       11045000	      1103	00000000	00000013	addi	x0,x0,0	  x0:0x00000000
       11055000	      1104	800009e0	00000013	addi	x0,x0,0	  x0:0x00000000
       11065000	      1105	800009e4	03400a6f	jal	x20,800009e4	 x20=0x800009e4
       11075000	      1106	00000000	00000013	addi	x0,x0,0	  x0:0x00000000
       11085000	      1107	80000a14	00000013	addi	x0,x0,0	  x0:0x00000000
       11095000	      1108	80000a18	fd9ff0ef	jal	x1,80000a18	  x1=0x80000a18
       11105000	      1109	00000000	00000013	addi	x0,x0,0	  x0:0x00000000
       11115000	      1110	800009ec	00000013	addi	x0,x0,0	  x0:0x00000000
       11125000	      1111	800009f0	00800c6f	jal	x24,800009f0	 x24=0x800009f0
       11135000	      1112	00000000	00000013	addi	x0,x0,0	  x0:0x00000000
       11145000	      1113	800009f4	00000013	addi	x0,x0,0	  x0:0x00000000
       11155000	      1114	800009f8	014000ef	jal	x1,800009f8	  x1=0x800009f8
       11165000	      1115	00000000	00000013	addi	x0,x0,0	  x0:0x00000000
       11175000	      1116	80000a08	00000013	addi	x0,x0,0	  x0:0x00000000
       11185000	      1117	80000a0c	ff1ff3ef	jal	x7,80000a0c	  x7=0x80000a0c
       11195000	      1118	00000000	00000013	addi	x0,x0,0	  x0:0x00000000
       11205000	      1119	800009f8	00000013	addi	x0,x0,0	  x0:0x00000000
       11215000	      1120	800009fc	04c000ef	jal	x1,800009fc	  x1=0x800009fc
       11225000	      1121	00000000	00000013	addi	x0,x0,0	  x0:0x00000000
       11235000	      1122	80000a44	00000013	addi	x0,x0,0	  x0:0x00000000
       11245000	      1123	80000a48	fd9ff0ef	jal	x1,80000a48	  x1=0x80000a48
       11255000	      1124	00000000	00000013	addi	x0,x0,0	  x0:0x00000000
       11265000	      1125	80000a1c	00000013	addi	x0,x0,0	  x0:0x00000000
       11275000	      1126	80000a20	018000ef	jal	x1,80000a20	  x1=0x80000a20
       11285000	      1127	00000000	00000013	addi	x0,x0,0	  x0:0x00000000
       11295000	      1128	80000a34	00000013	addi	x0,x0,0	  x0:0x00000000
       11305000	      1129	80000a38	014000ef	jal	x1,80000a38	  x1=0x80000a38
       11315000	      1130	00000000	00000013	addi	x0,x0,0	  x0:0x00000000
       11325000	      1131	80000a48	00000013	addi	x0,x0,0	  x0:0x00000000
       11335000	      1132	80000a4c	fa9ff0ef	jal	x1,80000a4c	  x1=0x80000a4c
       11345000	      1133	00000000	00000013	addi	x0,x0,0	  x0:0x00000000
       11355000	      1134	800009f0	00000013	addi	x0,x0,0	  x0:0x00000000
       11365000	      1135	800009f4	00c0086f	jal	x16,800009f4	 x16=0x800009f4
       11375000	      1136	00000000	00000013	addi	x0,x0,0	  x0:0x00000000
       11385000	      1137	800009fc	00000013	addi	x0,x0,0	  x0:0x00000000
       11395000	      1138	80000a00	054000ef	jal	x1,80000a00	  x1=0x80000a00
       11405000	      1139	00000000	00000013	addi	x0,x0,0	  x0:0x00000000
       11415000	      1140	80000a50	00000013	addi	x0,x0,0	  x0:0x00000000
       11425000	      1141	80000a54	fedff56f	jal	x10,80000a54	 x10=0x80000a54
       11435000	      1142	00000000	00000013	addi	x0,x0,0	  x0:0x00000000
       11445000	      1143	80000a3c	00000013	addi	x0,x0,0	  x0:0x00000000
       11455000	      1144	80000a40	ff5fff6f	jal	x30,80000a40	 x30=0x80000a40
       11465000	      1145	00000000	00000013	addi	x0,x0,0	  x0:0x00000000
       11475000	      1146	80000a30	00000013	addi	x0,x0,0	  x0:0x00000000
       11485000	      1147	80000a34	ffdffa6f	jal	x20,80000a34	 x20=0x80000a34
       11495000	      1148	00000000	00000013	addi	x0,x0,0	  x0:0x00000000
       11505000	      1149	80000a2c	00000013	addi	x0,x0,0	  x0:0x00000000
       11515000	      1150	80000a30	fd9ff0ef	jal	x1,80000a30	  x1=0x80000a30
       11525000	      1151	00000000	00000013	addi	x0,x0,0	  x0:0x00000000
       11535000	      1152	80000a04	00000013	addi	x0,x0,0	  x0:0x00000000
       11545000	      1153	80000a08	03400c6f	jal	x24,80000a08	 x24=0x80000a08
       11555000	      1154	00000000	00000013	addi	x0,x0,0	  x0:0x00000000
       11565000	      1155	80000a38	00000013	addi	x0,x0,0	  x0:0x00000000
       11575000	      1156	80000a3c	fd5ff66f	jal	x12,80000a3c	 x12=0x80000a3c
       11585000	      1157	00000000	00000013	addi	x0,x0,0	  x0:0x00000000
       11595000	      1158	80000a0c	00000013	addi	x0,x0,0	  x0:0x00000000
       11605000	      1159	80000a10	fddff0ef	jal	x1,80000a10	  x1=0x80000a10
       11615000	      1160	00000000	00000013	addi	x0,x0,0	  x0:0x00000000
       11625000	      1161	800009e8	00000013	addi	x0,x0,0	  x0:0x00000000
       11635000	      1162	800009ec	06c00bef	jal	x23,800009ec	 x23=0x800009ec
       11645000	      1163	00000000	00000013	addi	x0,x0,0	  x0:0x00000000
       11655000	      1164	80000a54	00000013	addi	x0,x0,0	  x0:0x00000000
       11665000	      1165	80000a58	01459833	sll	x16,x11,x20	 x11:0x800008fc x20:0x80000a34 x16=0x8fc00000
       11675000	      1166	80000a5c	008000ef	jal	x1,80000a5c	  x1=0x80000a5c
       11685000	      1167	00000000	00000013	addi	x0,x0,0	  x0:0x00000000
       11695000	      1168	80000a60	00000013	addi	x0,x0,0	  x0:0x00000000
       11705000	      1169	80000a64	010000ef	jal	x1,80000a64	  x1=0x80000a64
       11715000	      1170	00000000	00000013	addi	x0,x0,0	  x0:0x00000000
       11725000	      1171	80000a70	00000013	addi	x0,x0,0	  x0:0x00000000
       11735000	      1172	80000a74	ff5ff0ef	jal	x1,80000a74	  x1=0x80000a74
       11745000	      1173	00000000	00000013	addi	x0,x0,0	  x0:0x00000000
       11755000	      1174	80000a64	00000013	addi	x0,x0,0	  x0:0x00000000
       11765000	      1175	80000a68	0040036f	jal	x6,80000a68	  x6=0x80000a68
       11775000	      1176	00000000	00000013	addi	x0,x0,0	  x0:0x00000000
       11785000	      1177	80000a68	00000013	addi	x0,x0,0	  x0:0x00000000
       11795000	      1178	80000a6c	ff5ff36f	jal	x6,80000a6c	  x6=0x80000a6c
       11805000	      1179	00000000	00000013	addi	x0,x0,0	  x0:0x00000000
       11815000	      1180	80000a5c	00000013	addi	x0,x0,0	  x0:0x00000000
       11825000	      1181	80000a60	0300036f	jal	x6,80000a60	  x6=0x80000a60
       11835000	      1182	00000000	00000013	addi	x0,x0,0	  x0:0x00000000
       11845000	      1183	80000a8c	00000013	addi	x0,x0,0	  x0:0x00000000
       11855000	      1184	80000a90	ff9ffdef	jal	x27,80000a90	 x27=0x80000a90
       11865000	      1185	00000000	00000013	addi	x0,x0,0	  x0:0x00000000
       11875000	      1186	80000a84	00000013	addi	x0,x0,0	  x0:0x00000000
       11885000	      1187	80000a88	004000ef	jal	x1,80000a88	  x1=0x80000a88
       11895000	      1188	00000000	00000013	addi	x0,x0,0	  x0:0x00000000
       11905000	      1189	80000a88	00000013	addi	x0,x0,0	  x0:0x00000000
       11915000	      1190	80000a8c	fedff36f	jal	x6,80000a8c	  x6=0x80000a8c
       11925000	      1191	00000000	00000013	addi	x0,x0,0	  x0:0x00000000
       11935000	      1192	80000a74	00000013	addi	x0,x0,0	  x0:0x00000000
       11945000	      1193	80000a78	00c000ef	jal	x1,80000a78	  x1=0x80000a78
       11955000	      1194	00000000	00000013	addi	x0,x0,0	  x0:0x00000000
       11965000	      1195	80000a80	00000013	addi	x0,x0,0	  x0:0x00000000
       11975000	      1196	80000a84	ffdff0ef	jal	x1,80000a84	  x1=0x80000a84
       11985000	      1197	00000000	00000013	addi	x0,x0,0	  x0:0x00000000
       11995000	      1198	80000a7c	00000013	addi	x0,x0,0	  x0:0x00000000
       12005000	      1199	80000a80	ff1ff0ef	jal	x1,80000a80	  x1=0x80000a80
       12015000	      1200	00000000	00000013	addi	x0,x0,0	  x0:0x00000000
       12025000	      1201	80000a6c	00000013	addi	x0,x0,0	  x0:0x00000000
       12035000	      1202	80000a70	024000ef	jal	x1,80000a70	  x1=0x80000a70
       12045000	      1203	00000000	00000013	addi	x0,x0,0	  x0:0x00000000
       12055000	      1204	80000a90	00000013	addi	x0,x0,0	  x0:0x00000000
       12065000	      1205	80000a94	fe9ffc6f	jal	x24,80000a94	 x24=0x80000a94
       12075000	      1206	00000000	00000013	addi	x0,x0,0	  x0:0x00000000
       12085000	      1207	80000a78	00000013	addi	x0,x0,0	  x0:0x00000000
       12095000	      1208	80000a7c	01c000ef	jal	x1,80000a7c	  x1=0x80000a7c
       12105000	      1209	00000000	00000013	addi	x0,x0,0	  x0:0x00000000
       12115000	      1210	80000a94	00000013	addi	x0,x0,0	  x0:0x00000000
       12125000	      1211	80000a98	db1cff13	andi	x30,x25,-591	 x25:0x80000944 x30=0x80000900
       12135000	      1212	80000a9c	008000ef	jal	x1,80000a9c	  x1=0x80000a9c
       12145000	      1213	00000000	00000013	addi	x0,x0,0	  x0:0x00000000
       12155000	      1214	80000aa0	00000013	addi	x0,x0,0	  x0:0x00000000
       12165000	      1215	80000aa4	008000ef	jal	x1,80000aa4	  x1=0x80000aa4
       12175000	      1216	00000000	00000013	addi	x0,x0,0	  x0:0x00000000
       12185000	      1217	80000aa8	00000013	addi	x0,x0,0	  x0:0x00000000
       12195000	      1218	80000aac	ff5ff1ef	jal	x3,80000aac	  x3=0x80000aac
       12205000	      1219	00000000	00000013	addi	x0,x0,0	  x0:0x00000000
       12215000	      1220	80000a9c	00000013	addi	x0,x0,0	  x0:0x00000000
       12225000	      1221	80000aa0	0180086f	jal	x16,80000aa0	 x16=0x80000aa0
       12235000	      1222	00000000	00000013	addi	x0,x0,0	  x0:0x00000000
       12245000	      1223	80000ab4	00000013	addi	x0,x0,0	  x0:0x00000000
       12255000	      1224	80000ab8	00c000ef	jal	x1,80000ab8	  x1=0x80000ab8
       12265000	      1225	00000000	00000013	addi	x0,x0,0	  x0:0x00000000
       12275000	      1226	80000ac0	00000013	addi	x0,x0,0	  x0:0x00000000
       12285000	      1227	80000ac4	010000ef	jal	x1,80000ac4	  x1=0x80000ac4
       12295000	      1228	00000000	00000013	addi	x0,x0,0	  x0:0x00000000
       12305000	      1229	80000ad0	00000013	addi	x0,x0,0	  x0:0x00000000
       12315000	      1230	80000ad4	fedff0ef	jal	x1,80000ad4	  x1=0x80000ad4
       12325000	      1231	00000000	00000013	addi	x0,x0,0	  x0:0x00000000
       12335000	      1232	80000abc	00000013	addi	x0,x0,0	  x0:0x00000000
       12345000	      1233	80000ac0	00c000ef	jal	x1,80000ac0	  x1=0x80000ac0
       12355000	      1234	00000000	00000013	addi	x0,x0,0	  x0:0x00000000
       12365000	      1235	80000ac8	00000013	addi	x0,x0,0	  x0:0x00000000
       12375000	      1236	80000acc	ffdff0ef	jal	x1,80000acc	  x1=0x80000acc
       12385000	      1237	00000000	00000013	addi	x0,x0,0	  x0:0x00000000
       12395000	      1238	80000ac4	00000013	addi	x0,x0,0	  x0:0x00000000
       12405000	      1239	80000ac8	008000ef	jal	x1,80000ac8	  x1=0x80000ac8
       12415000	      1240	00000000	00000013	addi	x0,x0,0	  x0:0x00000000
       12425000	      1241	80000acc	00000013	addi	x0,x0,0	  x0:0x00000000
       12435000	      1242	80000ad0	fd9ff36f	jal	x6,80000ad0	  x6=0x80000ad0
       12445000	      1243	00000000	00000013	addi	x0,x0,0	  x0:0x00000000
       12455000	      1244	80000aa4	00000013	addi	x0,x0,0	  x0:0x00000000
       12465000	      1245	80000aa8	008000ef	jal	x1,80000aa8	  x1=0x80000aa8
       12475000	      1246	00000000	00000013	addi	x0,x0,0	  x0:0x00000000
       12485000	      1247	80000aac	00000013	addi	x0,x0,0	  x0:0x00000000
       12495000	      1248	80000ab0	004000ef	jal	x1,80000ab0	  x1=0x80000ab0
       12505000	      1249	00000000	00000013	addi	x0,x0,0	  x0:0x00000000
       12515000	      1250	80000ab0	00000013	addi	x0,x0,0	  x0:0x00000000
       12525000	      1251	80000ab4	008000ef	jal	x1,80000ab4	  x1=0x80000ab4
       12535000	      1252	00000000	00000013	addi	x0,x0,0	  x0:0x00000000
       12545000	      1253	80000ab8	00000013	addi	x0,x0,0	  x0:0x00000000
       12555000	      1254	80000abc	01c0046f	jal	x8,80000abc	  x8=0x80000abc
       12565000	      1255	00000000	00000013	addi	x0,x0,0	  x0:0x00000000
       12575000	      1256	80000ad4	00000013	addi	x0,x0,0	  x0:0x00000000
       12585000	      1257	80000ad8	013d8e33	add	x28,x27,x19	 x27:0x80000a90 x19:0x80009fc4 x28=0x0000aa54
       12595000	      1258	80000adc	008000ef	jal	x1,80000adc	  x1=0x80000adc
       12605000	      1259	00000000	00000013	addi	x0,x0,0	  x0:0x00000000
       12615000	      1260	80000ae0	00000013	addi	x0,x0,0	  x0:0x00000000
       12625000	      1261	80000ae4	03c002ef	jal	x5,80000ae4	  x5=0x80000ae4
       12635000	      1262	00000000	00000013	addi	x0,x0,0	  x0:0x00000000
       12645000	      1263	80000b1c	00000013	addi	x0,x0,0	  x0:0x00000000
       12655000	      1264	80000b20	fddff16f	jal	x2,80000b20	  x2=0x80000b20
       12665000	      1265	00000000	00000013	addi	x0,x0,0	  x0:0x00000000
       12675000	      1266	80000af8	00000013	addi	x0,x0,0	  x0:0x00000000
       12685000	      1267	80000afc	0280026f	jal	x4,80000afc	  x4=0x80000afc
       12695000	      1268	00000000	00000013	addi	x0,x0,0	  x0:0x00000000
       12705000	      1269	80000b20	00000013	addi	x0,x0,0	  x0:0x00000000
       12715000	      1270	80000b24	00c000ef	jal	x1,80000b24	  x1=0x80000b24
       12725000	      1271	00000000	00000013	addi	x0,x0,0	  x0:0x00000000
       12735000	      1272	80000b2c	00000013	addi	x0,x0,0	  x0:0x00000000
       12745000	      1273	80000b30	fbdff36f	jal	x6,80000b30	  x6=0x80000b30
       12755000	      1274	00000000	00000013	addi	x0,x0,0	  x0:0x00000000
       12765000	      1275	80000ae8	00000013	addi	x0,x0,0	  x0:0x00000000
       12775000	      1276	80000aec	024001ef	jal	x3,80000aec	  x3=0x80000aec
       12785000	      1277	00000000	00000013	addi	x0,x0,0	  x0:0x00000000
       12795000	      1278	80000b0c	00000013	addi	x0,x0,0	  x0:0x00000000
       12805000	      1279	80000b10	ff1fffef	jal	x31,80000b10	 x31=0x80000b10
       12815000	      1280	00000000	00000013	addi	x0,x0,0	  x0:0x00000000
       12825000	      1281	80000afc	00000013	addi	x0,x0,0	  x0:0x00000000
       12835000	      1282	80000b00	01c000ef	jal	x1,80000b00	  x1=0x80000b00
       12845000	      1283	00000000	00000013	addi	x0,x0,0	  x0:0x00000000
       12855000	      1284	80000b18	00000013	addi	x0,x0,0	  x0:0x00000000
       12865000	      1285	80000b1c	ff9ff0ef	jal	x1,80000b1c	  x1=0x80000b1c
       12875000	      1286	00000000	00000013	addi	x0,x0,0	  x0:0x00000000
       12885000	      1287	80000b10	00000013	addi	x0,x0,0	  x0:0x00000000
       12895000	      1288	80000b14	018000ef	jal	x1,80000b14	  x1=0x80000b14
       12905000	      1289	00000000	00000013	addi	x0,x0,0	  x0:0x00000000
       12915000	      1290	80000b28	00000013	addi	x0,x0,0	  x0:0x00000000
       12925000	      1291	80000b2c	fddff36f	jal	x6,80000b2c	  x6=0x80000b2c
       12935000	      1292	00000000	00000013	addi	x0,x0,0	  x0:0x00000000
       12945000	      1293	80000b04	00000013	addi	x0,x0,0	  x0:0x00000000
       12955000	      1294	80000b08	010000ef	jal	x1,80000b08	  x1=0x80000b08
       12965000	      1295	00000000	00000013	addi	x0,x0,0	  x0:0x00000000
       12975000	      1296	80000b14	00000013	addi	x0,x0,0	  x0:0x00000000
       12985000	      1297	80000b18	fe1ff0ef	jal	x1,80000b18	  x1=0x80000b18
       12995000	      1298	00000000	00000013	addi	x0,x0,0	  x0:0x00000000
       13005000	      1299	80000af4	00000013	addi	x0,x0,0	  x0:0x00000000
       13015000	      1300	80000af8	fe9ff0ef	jal	x1,80000af8	  x1=0x80000af8
       13025000	      1301	00000000	00000013	addi	x0,x0,0	  x0:0x00000000
       13035000	      1302	80000adc	00000013	addi	x0,x0,0	  x0:0x00000000
       13045000	      1303	80000ae0	014000ef	jal	x1,80000ae0	  x1=0x80000ae0
       13055000	      1304	00000000	00000013	addi	x0,x0,0	  x0:0x00000000
       13065000	      1305	80000af0	00000013	addi	x0,x0,0	  x0:0x00000000
       13075000	      1306	80000af4	0340036f	jal	x6,80000af4	  x6=0x80000af4
       13085000	      1307	00000000	00000013	addi	x0,x0,0	  x0:0x00000000
       13095000	      1308	80000b24	00000013	addi	x0,x0,0	  x0:0x00000000
       13105000	      1309	80000b28	fddffbef	jal	x23,80000b28	 x23=0x80000b28
       13115000	      1310	00000000	00000013	addi	x0,x0,0	  x0:0x00000000
       13125000	      1311	80000b00	00000013	addi	x0,x0,0	  x0:0x00000000
       13135000	      1312	80000b04	fedff0ef	jal	x1,80000b04	  x1=0x80000b04
       13145000	      1313	00000000	00000013	addi	x0,x0,0	  x0:0x00000000
       13155000	      1314	80000aec	00000013	addi	x0,x0,0	  x0:0x00000000
       13165000	      1315	80000af0	01c000ef	jal	x1,80000af0	  x1=0x80000af0
       13175000	      1316	00000000	00000013	addi	x0,x0,0	  x0:0x00000000
       13185000	      1317	80000b08	00000013	addi	x0,x0,0	  x0:0x00000000
       13195000	      1318	80000b0c	fddff36f	jal	x6,80000b0c	  x6=0x80000b0c
       13205000	      1319	00000000	00000013	addi	x0,x0,0	  x0:0x00000000
       13215000	      1320	80000ae4	00000013	addi	x0,x0,0	  x0:0x00000000
       13225000	      1321	80000ae8	04c000ef	jal	x1,80000ae8	  x1=0x80000ae8
       13235000	      1322	00000000	00000013	addi	x0,x0,0	  x0:0x00000000
       13245000	      1323	80000b30	00000013	addi	x0,x0,0	  x0:0x00000000
       13255000	      1324	80000b34	018a76b3	and	x13,x20,x24	 x20:0x80000a34 x24:0x80000a94 x13=0x80000a14
       13265000	      1325	80000b38	048000ef	jal	x1,80000b38	  x1=0x80000b38
       13275000	      1326	00000000	00000013	addi	x0,x0,0	  x0:0x00000000
       13285000	      1327	80000b7c	00000013	addi	x0,x0,0	  x0:0x00000000
       13295000	      1328	80000b80	ffdff5ef	jal	x11,80000b80	 x11=0x80000b80
       13305000	      1329	00000000	00000013	addi	x0,x0,0	  x0:0x00000000
       13315000	      1330	80000b78	00000013	addi	x0,x0,0	  x0:0x00000000
       13325000	      1331	80000b7c	ff9ffcef	jal	x25,80000b7c	 x25=0x80000b7c
       13335000	      1332	00000000	00000013	addi	x0,x0,0	  x0:0x00000000
       13345000	      1333	80000b70	00000013	addi	x0,x0,0	  x0:0x00000000
       13355000	      1334	80000b74	ff1ff0ef	jal	x1,80000b74	  x1=0x80000b74
       13365000	      1335	00000000	00000013	addi	x0,x0,0	  x0:0x00000000
       13375000	      1336	80000b60	00000013	addi	x0,x0,0	  x0:0x00000000
       13385000	      1337	80000b64	004002ef	jal	x5,80000b64	  x5=0x80000b64
       13395000	      1338	00000000	00000013	addi	x0,x0,0	  x0:0x00000000
       13405000	      1339	80000b64	00000013	addi	x0,x0,0	  x0:0x00000000
       13415000	      1340	80000b68	fd9ff0ef	jal	x1,80000b68	  x1=0x80000b68
       13425000	      1341	00000000	00000013	addi	x0,x0,0	  x0:0x00000000
       13435000	      1342	80000b3c	00000013	addi	x0,x0,0	  x0:0x00000000
       13445000	      1343	80000b40	018000ef	jal	x1,80000b40	  x1=0x80000b40
       13455000	      1344	00000000	00000013	addi	x0,x0,0	  x0:0x00000000
       13465000	      1345	80000b54	00000013	addi	x0,x0,0	  x0:0x00000000
       13475000	      1346	80000b58	ffdff0ef	jal	x1,80000b58	  x1=0x80000b58
       13485000	      1347	00000000	00000013	addi	x0,x0,0	  x0:0x00000000
       13495000	      1348	80000b50	00000013	addi	x0,x0,0	  x0:0x00000000
       13505000	      1349	80000b54	040000ef	jal	x1,80000b54	  x1=0x80000b54
       13515000	      1350	00000000	00000013	addi	x0,x0,0	  x0:0x00000000
       13525000	      1351	80000b90	00000013	addi	x0,x0,0	  x0:0x00000000
       13535000	      1352	80000b94	008000ef	jal	x1,80000b94	  x1=0x80000b94
       13545000	      1353	00000000	00000013	addi	x0,x0,0	  x0:0x00000000
       13555000	      1354	80000b98	00000013	addi	x0,x0,0	  x0:0x00000000
       13565000	      1355	80000b9c	fd5ff86f	jal	x16,80000b9c	 x16=0x80000b9c
       13575000	      1356	00000000	00000013	addi	x0,x0,0	  x0:0x00000000
       13585000	      1357	80000b6c	00000013	addi	x0,x0,0	  x0:0x00000000
       13595000	      1358	80000b70	ff1ff36f	jal	x6,80000b70	  x6=0x80000b70
       13605000	      1359	00000000	00000013	addi	x0,x0,0	  x0:0x00000000
       13615000	      1360	80000b5c	00000013	addi	x0,x0,0	  x0:0x00000000
       13625000	      1361	80000b60	fedff0ef	jal	x1,80000b60	  x1=0x80000b60
       13635000	      1362	00000000	00000013	addi	x0,x0,0	  x0:0x00000000
       13645000	      1363	80000b48	00000013	addi	x0,x0,0	  x0:0x00000000
       13655000	      1364	80000b4c	054003ef	jal	x7,80000b4c	  x7=0x80000b4c
       13665000	      1365	00000000	00000013	addi	x0,x0,0	  x0:0x00000000
       13675000	      1366	80000b9c	00000013	addi	x0,x0,0	  x0:0x00000000
       13685000	      1367	80000ba0	fbdff0ef	jal	x1,80000ba0	  x1=0x80000ba0
       13695000	      1368	00000000	00000013	addi	x0,x0,0	  x0:0x00000000
       13705000	      1369	80000b58	00000013	addi	x0,x0,0	  x0:0x00000000
       13715000	      1370	80000b5c	03400e6f	jal	x28,80000b5c	 x28=0x80000b5c
       13725000	      1371	00000000	00000013	addi	x0,x0,0	  x0:0x00000000
       13735000	      1372	80000b8c	00000013	addi	x0,x0,0	  x0:0x00000000
       13745000	      1373	80000b90	008000ef	jal	x1,80000b90	  x1=0x80000b90
       13755000	      1374	00000000	00000013	addi	x0,x0,0	  x0:0x00000000
       13765000	      1375	80000b94	00000013	addi	x0,x0,0	  x0:0x00000000
       13775000	      1376	80000b98	fd5ff36f	jal	x6,80000b98	  x6=0x80000b98
       13785000	      1377	00000000	00000013	addi	x0,x0,0	  x0:0x00000000
       13795000	      1378	80000b68	00000013	addi	x0,x0,0	  x0:0x00000000
       13805000	      1379	80000b6c	fe5ff0ef	jal	x1,80000b6c	  x1=0x80000b6c
       13815000	      1380	00000000	00000013	addi	x0,x0,0	  x0:0x00000000
       13825000	      1381	80000b4c	00000013	addi	x0,x0,0	  x0:0x00000000
       13835000	      1382	80000b50	ff9ff36f	jal	x6,80000b50	  x6=0x80000b50
       13845000	      1383	00000000	00000013	addi	x0,x0,0	  x0:0x00000000
       13855000	      1384	80000b44	00000013	addi	x0,x0,0	  x0:0x00000000
       13865000	      1385	80000b48	044000ef	jal	x1,80000b48	  x1=0x80000b48
       13875000	      1386	00000000	00000013	addi	x0,x0,0	  x0:0x00000000
       13885000	      1387	80000b88	00000013	addi	x0,x0,0	  x0:0x00000000
       13895000	      1388	80000b8c	fb9ff0ef	jal	x1,80000b8c	  x1=0x80000b8c
       13905000	      1389	00000000	00000013	addi	x0,x0,0	  x0:0x00000000
       13915000	      1390	80000b40	00000013	addi	x0,x0,0	  x0:0x00000000
       13925000	      1391	80000b44	034000ef	jal	x1,80000b44	  x1=0x80000b44
       13935000	      1392	00000000	00000013	addi	x0,x0,0	  x0:0x00000000
       13945000	      1393	80000b74	00000013	addi	x0,x0,0	  x0:0x00000000
       13955000	      1394	80000b78	00c0036f	jal	x6,80000b78	  x6=0x80000b78
       13965000	      1395	00000000	00000013	addi	x0,x0,0	  x0:0x00000000
       13975000	      1396	80000b80	00000013	addi	x0,x0,0	  x0:0x00000000
       13985000	      1397	80000b84	0040036f	jal	x6,80000b84	  x6=0x80000b84
       13995000	      1398	00000000	00000013	addi	x0,x0,0	  x0:0x00000000
       14005000	      1399	80000b84	00000013	addi	x0,x0,0	  x0:0x00000000
       14015000	      1400	80000b88	fb5ff46f	jal	x8,80000b88	  x8=0x80000b88
       14025000	      1401	00000000	00000013	addi	x0,x0,0	  x0:0x00000000
       14035000	      1402	80000b38	00000013	addi	x0,x0,0	  x0:0x00000000
       14045000	      1403	80000b3c	0680086f	jal	x16,80000b3c	 x16=0x80000b3c
       14055000	      1404	00000000	00000013	addi	x0,x0,0	  x0:0x00000000
       14065000	      1405	80000ba0	00000013	addi	x0,x0,0	  x0:0x00000000
       14075000	      1406	80000ba4	b0daa593	slti	x11,x21,-1267	 x21:0x80000900 x11=0x00000001
       14085000	      1407	80000ba8	028000ef	jal	x1,80000ba8	  x1=0x80000ba8
       14095000	      1408	00000000	00000013	addi	x0,x0,0	  x0:0x00000000
       14105000	      1409	80000bcc	00000013	addi	x0,x0,0	  x0:0x00000000
       14115000	      1410	80000bd0	0440036f	jal	x6,80000bd0	  x6=0x80000bd0
       14125000	      1411	00000000	00000013	addi	x0,x0,0	  x0:0x00000000
       14135000	      1412	80000c10	00000013	addi	x0,x0,0	  x0:0x00000000
       14145000	      1413	80000c14	fc1ff0ef	jal	x1,80000c14	  x1=0x80000c14
       14155000	      1414	00000000	00000013	addi	x0,x0,0	  x0:0x00000000
       14165000	      1415	80000bd0	00000013	addi	x0,x0,0	  x0:0x00000000
       14175000	      1416	80000bd4	04c000ef	jal	x1,80000bd4	  x1=0x80000bd4
       14185000	      1417	00000000	00000013	addi	x0,x0,0	  x0:0x00000000
       14195000	      1418	80000c1c	00000013	addi	x0,x0,0	  x0:0x00000000
       14205000	      1419	80000c20	fc5ff56f	jal	x10,80000c20	 x10=0x80000c20
       14215000	      1420	00000000	00000013	addi	x0,x0,0	  x0:0x00000000
       14225000	      1421	80000be0	00000013	addi	x0,x0,0	  x0:0x00000000
       14235000	      1422	80000be4	014000ef	jal	x1,80000be4	  x1=0x80000be4
       14245000	      1423	00000000	00000013	addi	x0,x0,0	  x0:0x00000000
       14255000	      1424	80000bf4	00000013	addi	x0,x0,0	  x0:0x00000000
       14265000	      1425	80000bf8	fcdff0ef	jal	x1,80000bf8	  x1=0x80000bf8
       14275000	      1426	00000000	00000013	addi	x0,x0,0	  x0:0x00000000
       14285000	      1427	80000bc0	00000013	addi	x0,x0,0	  x0:0x00000000
       14295000	      1428	80000bc4	058000ef	jal	x1,80000bc4	  x1=0x80000bc4
       14305000	      1429	00000000	00000013	addi	x0,x0,0	  x0:0x00000000
       14315000	      1430	80000c18	00000013	addi	x0,x0,0	  x0:0x00000000
       14325000	      1431	80000c1c	f95ff36f	jal	x6,80000c1c	  x6=0x80000c1c
       14335000	      1432	00000000	00000013	addi	x0,x0,0	  x0:0x00000000
       14345000	      1433	80000bac	00000013	addi	x0,x0,0	  x0:0x00000000
       14355000	      1434	80000bb0	0600036f	jal	x6,80000bb0	  x6=0x80000bb0
       14365000	      1435	00000000	00000013	addi	x0,x0,0	  x0:0x00000000
       14375000	      1436	80000c0c	00000013	addi	x0,x0,0	  x0:0x00000000
       14385000	      1437	80000c10	fbdff0ef	jal	x1,80000c10	  x1=0x80000c10
       14395000	      1438	00000000	00000013	addi	x0,x0,0	  x0:0x00000000
       14405000	      1439	80000bc8	00000013	addi	x0,x0,0	  x0:0x00000000
       14415000	      1440	80000bcc	00c000ef	jal	x1,80000bcc	  x1=0x80000bcc
       14425000	      1441	00000000	00000013	addi	x0,x0,0	  x0:0x00000000
       14435000	      1442	80000bd4	00000013	addi	x0,x0,0	  x0:0x00000000
       14445000	      1443	80000bd8	0040036f	jal	x6,80000bd8	  x6=0x80000bd8
       14455000	      1444	00000000	00000013	addi	x0,x0,0	  x0:0x00000000
       14465000	      1445	80000bd8	00000013	addi	x0,x0,0	  x0:0x00000000
       14475000	      1446	80000bdc	fedff0ef	jal	x1,80000bdc	  x1=0x80000bdc
       14485000	      1447	00000000	00000013	addi	x0,x0,0	  x0:0x00000000
       14495000	      1448	80000bc4	00000013	addi	x0,x0,0	  x0:0x00000000
       14505000	      1449	80000bc8	02400aef	jal	x21,80000bc8	 x21=0x80000bc8
       14515000	      1450	00000000	00000013	addi	x0,x0,0	  x0:0x00000000
       14525000	      1451	80000be8	00000013	addi	x0,x0,0	  x0:0x00000000
       14535000	      1452	80000bec	018000ef	jal	x1,80000bec	  x1=0x80000bec
       14545000	      1453	00000000	00000013	addi	x0,x0,0	  x0:0x00000000
       14555000	      1454	80000c00	00000013	addi	x0,x0,0	  x0:0x00000000
       14565000	      1455	80000c04	fb5ff0ef	jal	x1,80000c04	  x1=0x80000c04
       14575000	      1456	00000000	00000013	addi	x0,x0,0	  x0:0x00000000
       14585000	      1457	80000bb4	00000013	addi	x0,x0,0	  x0:0x00000000
       14595000	      1458	80000bb8	038000ef	jal	x1,80000bb8	  x1=0x80000bb8
       14605000	      1459	00000000	00000013	addi	x0,x0,0	  x0:0x00000000
       14615000	      1460	80000bec	00000013	addi	x0,x0,0	  x0:0x00000000
       14625000	      1461	80000bf0	fcdff36f	jal	x6,80000bf0	  x6=0x80000bf0
       14635000	      1462	00000000	00000013	addi	x0,x0,0	  x0:0x00000000
       14645000	      1463	80000bb8	00000013	addi	x0,x0,0	  x0:0x00000000
       14655000	      1464	80000bbc	0240036f	jal	x6,80000bbc	  x6=0x80000bbc
       14665000	      1465	00000000	00000013	addi	x0,x0,0	  x0:0x00000000
       14675000	      1466	80000bdc	00000013	addi	x0,x0,0	  x0:0x00000000
       14685000	      1467	80000be0	fcdff0ef	jal	x1,80000be0	  x1=0x80000be0
       14695000	      1468	00000000	00000013	addi	x0,x0,0	  x0:0x00000000
       14705000	      1469	80000ba8	00000013	addi	x0,x0,0	  x0:0x00000000
       14715000	      1470	80000bac	0540086f	jal	x16,80000bac	 x16=0x80000bac
       14725000	      1471	00000000	00000013	addi	x0,x0,0	  x0:0x00000000
       14735000	      1472	80000bfc	00000013	addi	x0,x0,0	  x0:0x00000000
       14745000	      1473	80000c00	fe9ff1ef	jal	x3,80000c00	  x3=0x80000c00
       14755000	      1474	00000000	00000013	addi	x0,x0,0	  x0:0x00000000
       14765000	      1475	80000be4	00000013	addi	x0,x0,0	  x0:0x00000000
       14775000	      1476	80000be8	024000ef	jal	x1,80000be8	  x1=0x80000be8
       14785000	      1477	00000000	00000013	addi	x0,x0,0	  x0:0x00000000
       14795000	      1478	80000c08	00000013	addi	x0,x0,0	  x0:0x00000000
       14805000	      1479	80000c0c	00c000ef	jal	x1,80000c0c	  x1=0x80000c0c
       14815000	      1480	00000000	00000013	addi	x0,x0,0	  x0:0x00000000
       14825000	      1481	80000c14	00000013	addi	x0,x0,0	  x0:0x00000000
       14835000	      1482	80000c18	fa9ff5ef	jal	x11,80000c18	 x11=0x80000c18
       14845000	      1483	00000000	00000013	addi	x0,x0,0	  x0:0x00000000
       14855000	      1484	80000bbc	00000013	addi	x0,x0,0	  x0:0x00000000
       14865000	      1485	80000bc0	048000ef	jal	x1,80000bc0	  x1=0x80000bc0
       14875000	      1486	00000000	00000013	addi	x0,x0,0	  x0:0x00000000
       14885000	      1487	80000c04	00000013	addi	x0,x0,0	  x0:0x00000000
       14895000	      1488	80000c08	ff5ff0ef	jal	x1,80000c08	  x1=0x80000c08
       14905000	      1489	00000000	00000013	addi	x0,x0,0	  x0:0x00000000
       14915000	      1490	80000bf8	00000013	addi	x0,x0,0	  x0:0x00000000
       14925000	      1491	80000bfc	ff9ff96f	jal	x18,80000bfc	 x18=0x80000bfc
       14935000	      1492	00000000	00000013	addi	x0,x0,0	  x0:0x00000000
       14945000	      1493	80000bf0	00000013	addi	x0,x0,0	  x0:0x00000000
       14955000	      1494	80000bf4	fc1ffa6f	jal	x20,80000bf4	 x20=0x80000bf4
       14965000	      1495	00000000	00000013	addi	x0,x0,0	  x0:0x00000000
       14975000	      1496	80000bb0	00000013	addi	x0,x0,0	  x0:0x00000000
       14985000	      1497	80000bb4	070001ef	jal	x3,80000bb4	  x3=0x80000bb4
       14995000	      1498	00000000	00000013	addi	x0,x0,0	  x0:0x00000000
       15005000	      1499	80000c20	00000013	addi	x0,x0,0	  x0:0x00000000
       15015000	      1500	80000c24	01619733	sll	x14,x3,x22	  x3:0x80000bb4 x22:0x80009f78 x14=0xb4000000
       15025000	      1501	80000c28	008000ef	jal	x1,80000c28	  x1=0x80000c28
       15035000	      1502	00000000	00000013	addi	x0,x0,0	  x0:0x00000000
       15045000	      1503	80000c2c	00000013	addi	x0,x0,0	  x0:0x00000000
       15055000	      1504	80000c30	008000ef	jal	x1,80000c30	  x1=0x80000c30
       15065000	      1505	00000000	00000013	addi	x0,x0,0	  x0:0x00000000
       15075000	      1506	80000c34	00000013	addi	x0,x0,0	  x0:0x00000000
       15085000	      1507	80000c38	02c00e6f	jal	x28,80000c38	 x28=0x80000c38
       15095000	      1508	00000000	00000013	addi	x0,x0,0	  x0:0x00000000
       15105000	      1509	80000c60	00000013	addi	x0,x0,0	  x0:0x00000000
       15115000	      1510	80000c64	00c000ef	jal	x1,80000c64	  x1=0x80000c64
       15125000	      1511	00000000	00000013	addi	x0,x0,0	  x0:0x00000000
       15135000	      1512	80000c6c	00000013	addi	x0,x0,0	  x0:0x00000000
       15145000	      1513	80000c70	fe9ff0ef	jal	x1,80000c70	  x1=0x80000c70
       15155000	      1514	00000000	00000013	addi	x0,x0,0	  x0:0x00000000
       15165000	      1515	80000c54	00000013	addi	x0,x0,0	  x0:0x00000000
       15175000	      1516	80000c58	ff5ff36f	jal	x6,80000c58	  x6=0x80000c58
       15185000	      1517	00000000	00000013	addi	x0,x0,0	  x0:0x00000000
       15195000	      1518	80000c48	00000013	addi	x0,x0,0	  x0:0x00000000
       15205000	      1519	80000c4c	fe1ff0ef	jal	x1,80000c4c	  x1=0x80000c4c
       15215000	      1520	00000000	00000013	addi	x0,x0,0	  x0:0x00000000
       15225000	      1521	80000c28	00000013	addi	x0,x0,0	  x0:0x00000000
       15235000	      1522	80000c2c	01c0036f	jal	x6,80000c2c	  x6=0x80000c2c
       15245000	      1523	00000000	00000013	addi	x0,x0,0	  x0:0x00000000
       15255000	      1524	80000c44	00000013	addi	x0,x0,0	  x0:0x00000000
       15265000	      1525	80000c48	024003ef	jal	x7,80000c48	  x7=0x80000c48
       15275000	      1526	00000000	00000013	addi	x0,x0,0	  x0:0x00000000
       15285000	      1527	80000c68	00000013	addi	x0,x0,0	  x0:0x00000000
       15295000	      1528	80000c6c	ff5ff0ef	jal	x1,80000c6c	  x1=0x80000c6c
       15305000	      1529	00000000	00000013	addi	x0,x0,0	  x0:0x00000000
       15315000	      1530	80000c5c	00000013	addi	x0,x0,0	  x0:0x00000000
       15325000	      1531	80000c60	ffdff2ef	jal	x5,80000c60	  x5=0x80000c60
       15335000	      1532	00000000	00000013	addi	x0,x0,0	  x0:0x00000000
       15345000	      1533	80000c58	00000013	addi	x0,x0,0	  x0:0x00000000
       15355000	      1534	80000c5c	fe1ff2ef	jal	x5,80000c5c	  x5=0x80000c5c
       15365000	      1535	00000000	00000013	addi	x0,x0,0	  x0:0x00000000
       15375000	      1536	80000c38	00000013	addi	x0,x0,0	  x0:0x00000000
       15385000	      1537	80000c3c	0080036f	jal	x6,80000c3c	  x6=0x80000c3c
       15395000	      1538	00000000	00000013	addi	x0,x0,0	  x0:0x00000000
       15405000	      1539	80000c40	00000013	addi	x0,x0,0	  x0:0x00000000
       15415000	      1540	80000c44	024000ef	jal	x1,80000c44	  x1=0x80000c44
       15425000	      1541	00000000	00000013	addi	x0,x0,0	  x0:0x00000000
       15435000	      1542	80000c64	00000013	addi	x0,x0,0	  x0:0x00000000
       15445000	      1543	80000c68	fd9ff0ef	jal	x1,80000c68	  x1=0x80000c68
       15455000	      1544	00000000	00000013	addi	x0,x0,0	  x0:0x00000000
       15465000	      1545	80000c3c	00000013	addi	x0,x0,0	  x0:0x00000000
       15475000	      1546	80000c40	ff5ff0ef	jal	x1,80000c40	  x1=0x80000c40
       15485000	      1547	00000000	00000013	addi	x0,x0,0	  x0:0x00000000
       15495000	      1548	80000c30	00000013	addi	x0,x0,0	  x0:0x00000000
       15505000	      1549	80000c34	020000ef	jal	x1,80000c34	  x1=0x80000c34
       15515000	      1550	00000000	00000013	addi	x0,x0,0	  x0:0x00000000
       15525000	      1551	80000c50	00000013	addi	x0,x0,0	  x0:0x00000000
       15535000	      1552	80000c54	ffdff0ef	jal	x1,80000c54	  x1=0x80000c54
       15545000	      1553	00000000	00000013	addi	x0,x0,0	  x0:0x00000000
       15555000	      1554	80000c4c	00000013	addi	x0,x0,0	  x0:0x00000000
       15565000	      1555	80000c50	0240036f	jal	x6,80000c50	  x6=0x80000c50
       15575000	      1556	00000000	00000013	addi	x0,x0,0	  x0:0x00000000
       15585000	      1557	80000c70	00000013	addi	x0,x0,0	  x0:0x00000000
       15595000	      1558	80000c74	d43cef13	ori	x30,x25,-701	 x25:0x80000b7c x30=0xffffff7f
       15605000	      1559	80000c78	41b280b3	sub	x1,x5,x27	  x5:0x80000c5c x27:0x80000a90  x1=0x000001cc
       15615000	      1560	80000c7c	03071263	bne	x14,x16,80000ca0	 x14:0xb4000000 x16:0x80000bac
       15625000	      1561	00000000	00000013	addi	x0,x0,0	  x0:0x00000000
       15635000	      1562	80000c9c	00000013	addi	x0,x0,0	  x0:0x00000000
       15645000	      1563	80000ca0	00fd6ab3	or	x21,x26,x15	 x26:0xfb7092cc x15:0x80000818 x21=0xfb709adc
       15655000	      1564	80000ca4	cd282637	lui	x12,0xcd282	 x12=0xcd282000
       15665000	      1565	80000ca8	011994b3	sll	x9,x19,x17	 x19:0x80009fc4 x17:0x80000990  x9=0x9fc40000
       15675000	      1566	80000cac	01309933	sll	x18,x1,x19	  x1:0x000001cc x19:0x80009fc4 x18=0x00001cc0
       15685000	      1567	80000cb0	013fa0b3	slt	x1,x31,x19	 x31:0x80000b10 x19:0x80009fc4  x1=0x00000001
       15695000	      1568	80000cb4	01541a13	slli	x20,x8,0x15	  x8:0x80000b88 x20=0x71000000
       15705000	      1569	80000cb8	a2d17813	andi	x16,x2,-1491	  x2:0x80000b20 x16=0x80000a20
       15715000	      1570	80000cbc	ff060fb7	lui	x31,0xff060	 x31=0xff060000
       15725000	      1571	80000cc0	e0df4913	xori	x18,x30,-499	 x30:0xffffff7f x18=0x00000172
       15735000	      1572	80000cc4	00949633	sll	x12,x9,x9	  x9:0x9fc40000  x9:0x9fc40000 x12=0x9fc40000
       15745000	      1573	80000cc8	019c0bb3	add	x23,x24,x25	 x24:0x80000a94 x25:0x80000b7c x23=0x00001610
       15755000	      1574	80000ccc	011a3433	sltu	x8,x20,x17	 x20:0x71000000 x17:0x80000990  x8=0x00000001
       15765000	      1575	80000cd0	f3c9c113	xori	x2,x19,-196	 x19:0x80009fc4  x2=0x7fff60f8
       15775000	      1576	80000cd4	016c4133	xor	x2,x24,x22	 x24:0x80000a94 x22:0x80009f78  x2=0x000095ec
       15785000	      1577	80000cd8	00d7b6b3	sltu	x13,x15,x13	 x15:0x80000818 x13:0x80000a14 x13=0x00000001
       15795000	      1578	80000cdc	02039863	bne	x7,x0,80000d0c	  x7:0x80000c48  x0:0x00000000
       15805000	      1579	00000000	00000013	addi	x0,x0,0	  x0:0x00000000
       15815000	      1580	80000d08	00000013	addi	x0,x0,0	  x0:0x00000000
       15825000	      1581	80000d0c	0101d463	bge	x3,x16,80000d14	  x3:0x80000bb4 x16:0x80000a20
       15835000	      1582	00000000	00000013	addi	x0,x0,0	  x0:0x00000000
       15845000	      1583	80000d10	00000013	addi	x0,x0,0	  x0:0x00000000
       15855000	      1584	80000d14	01108263	beq	x1,x17,80000d18	  x1:0x00000001 x17:0x80000990
       15865000	      1585	80000d18	f56e4f37	lui	x30,0xf56e4	 x30=0xf56e4000
       15875000	      1586	80000d1c	41ce5633	sra	x12,x28,x28	 x28:0x80000c38 x28:0x80000c38 x12=0xffffff80
       15885000	      1587	80000d20	00f06c63	bltu	x0,x15,80000d38	  x0:0x00000000 x15:0x80000818
       15895000	      1588	00000000	00000013	addi	x0,x0,0	  x0:0x00000000
       15905000	      1589	80000d34	00000013	addi	x0,x0,0	  x0:0x00000000
       15915000	      1590	80000d38	003bef33	or	x30,x23,x3	 x23:0x00001610  x3:0x80000bb4 x30=0x80001fb4
       15925000	      1591	80000d3c	0191c8b3	xor	x17,x3,x25	  x3:0x80000bb4 x25:0x80000b7c x17=0x000000c8
       15935000	      1592	80000d40	a01b9937	lui	x18,0xa01b9	 x18=0xa01b9000
       15945000	      1593	80000d44	6e90a513	slti	x10,x1,1769	  x1:0x00000001 x10=0x00000001
       15955000	      1594	80000d48	013e4533	xor	x10,x28,x19	 x28:0x80000c38 x19:0x80009fc4 x10=0x000093fc
       15965000	      1595	80000d4c	01f660b3	or	x1,x12,x31	 x12:0xffffff80 x31:0xff060000  x1=0xffffff80
       15975000	      1596	80000d50	00fa70b3	and	x1,x20,x15	 x20:0x71000000 x15:0x80000818  x1=0x00000000
       15985000	      1597	80000d54	30792a13	slti	x20,x18,775	 x18:0xa01b9000 x20=0x00000001
       15995000	      1598	80000d58	01a77eb3	and	x29,x14,x26	 x14:0xb4000000 x26:0xfb7092cc x29=0xb0000000
       16005000	      1599	80000d5c	2493c337	lui	x6,0x2493c	  x6=0x2493c000
       16015000	      1600	80000d60	009bcc33	xor	x24,x23,x9	 x23:0x00001610  x9:0x9fc40000 x24=0x9fc41610
       16025000	      1601	80000d64	02db4e63	blt	x22,x13,80000da0	 x22:0x80009f78 x13:0x00000001
       16035000	      1602	00000000	00000013	addi	x0,x0,0	  x0:0x00000000
       16045000	      1603	80000d9c	00000013	addi	x0,x0,0	  x0:0x00000000
       16055000	      1604	80000da0	00566ab3	or	x21,x12,x5	 x12:0xffffff80  x5:0x80000c5c x21=0xffffffdc
       16065000	      1605	80000da4	018883b3	add	x7,x17,x24	 x17:0x000000c8 x24:0x9fc41610  x7=0x9fc416d8
       16075000	      1606	80000da8	00000013	addi	x0,x0,0	  x0:0x00000000
       16085000	      1607	80000dac	ec60b597	auipc	x11,0xec60b	 x11=0x6c60bda8
       16095000	      1608	80000db0	59d2c497	auipc	x9,0x59d2c	  x9=0xd9d2cdac
       16105000	      1609	80000db4	407304b3	sub	x9,x6,x7	  x6:0x2493c000  x7:0x9fc416d8  x9=0x84cfa928
       16115000	      1610	80000db8	012cd613	srli	x12,x25,0x12	 x25:0x80000b7c x12=0x00002000
       16125000	      1611	80000dbc	ba2bbe93	sltiu	x29,x23,-1118	 x23:0x00001610 x29=0x00000001
       16135000	      1612	80000dc0	048c0863	beq	x24,x8,80000e10	 x24:0x9fc41610  x8:0x00000001
       16145000	      1613	80000dc4	0ab6c393	xori	x7,x13,171	 x13:0x00000001  x7=0x000000aa
       16155000	      1614	80000dc8	422d2413	slti	x8,x26,1058	 x26:0xfb7092cc  x8=0x00000001
       16165000	      1615	80000dcc	00000013	addi	x0,x0,0	  x0:0x00000000
       16175000	      1616	80000dd0	003e6033	or	x0,x28,x3	 x28:0x80000c38  x3:0x80000bb4
       16185000	      1617	80000dd4	851d6913	ori	x18,x26,-1967	 x26:0xfb7092cc x18=0xfffffadd
       16195000	      1618	80000dd8	bdeace13	xori	x28,x21,-1058	 x21:0xffffffdc x28=0x00000402
       16205000	      1619	80000ddc	bedabd93	sltiu	x27,x21,-1043	 x21:0xffffffdc x27=0x00000000
       16215000	      1620	80000de0	3a158293	addi	x5,x11,929	 x11:0x6c60bda8  x5=0x6c60c149
       16225000	      1621	80000de4	11e3f513	andi	x10,x7,286	  x7:0x000000aa x10=0x0000000a
       16235000	      1622	80000de8	4067d633	sra	x12,x15,x6	 x15:0x80000818  x6:0x2493c000 x12=0x80000818
       16245000	      1623	80000dec	00000013	addi	x0,x0,0	  x0:0x00000000
       16255000	      1624	80000df0	017c9e63	bne	x25,x23,80000e0c	 x25:0x80000b7c x23:0x00001610
       16265000	      1625	00000000	00000013	addi	x0,x0,0	  x0:0x00000000
       16275000	      1626	80000e08	00000013	addi	x0,x0,0	  x0:0x00000000
       16285000	      1627	80000e0c	00ab8663	beq	x23,x10,80000e18	 x23:0x00001610 x10:0x0000000a
       16295000	      1628	80000e10	c5907393	andi	x7,x0,-935	  x0:0x00000000  x7=0x00000000
       16305000	      1629	80000e14	40598233	sub	x4,x19,x5	 x19:0x80009fc4  x5:0x6c60c149  x4=0x139fde7b
       16315000	      1630	80000e18	00d5f733	and	x14,x11,x13	 x11:0x6c60bda8 x13:0x00000001 x14=0x00000000
       16325000	      1631	80000e1c	00a3be33	sltu	x28,x7,x10	  x7:0x00000000 x10:0x0000000a x28=0x00000001
       16335000	      1632	80000e20	03537e63	bgeu	x6,x21,80000e5c	  x6:0x2493c000 x21:0xffffffdc
       16345000	      1633	80000e24	011ffe63	bgeu	x31,x17,80000e40	 x31:0xff060000 x17:0x000000c8
       16355000	      1634	00000000	00000013	addi	x0,x0,0	  x0:0x00000000
       16365000	      1635	80000e3c	00000013	addi	x0,x0,0	  x0:0x00000000
       16375000	      1636	80000e40	00e5d3b3	srl	x7,x11,x14	 x11:0x6c60bda8 x14:0x00000000  x7=0x6c60bda8
       16385000	      1637	80000e44	00fd0ab3	add	x21,x26,x15	 x26:0xfb7092cc x15:0x80000818 x21=0x7b709ae4
       16395000	      1638	80000e48	94bd5f17	auipc	x30,0x94bd5	 x30=0x14bd5e44
       16405000	      1639	80000e4c	01385c93	srli	x25,x16,0x13	 x16:0x80000a20 x25=0x00001000
       16415000	      1640	80000e50	00a4afb3	slt	x31,x9,x10	  x9:0x84cfa928 x10:0x0000000a x31=0x00000001
       16425000	      1641	80000e54	419b5613	srai	x12,x22,0x19	 x22:0x80009f78 x12=0xffffffc0
       16435000	      1642	80000e58	02045c63	bge	x8,x0,80000e90	  x8:0x00000001  x0:0x00000000
       16445000	      1643	00000000	00000013	addi	x0,x0,0	  x0:0x00000000
       16455000	      1644	80000e8c	00000013	addi	x0,x0,0	  x0:0x00000000
       16465000	      1645	80000e90	0127beb3	sltu	x29,x15,x18	 x15:0x80000818 x18:0xfffffadd x29=0x00000001
       16475000	      1646	80000e94	416a52b3	sra	x5,x20,x22	 x20:0x00000001 x22:0x80009f78  x5=0x00000000
       16485000	      1647	80000e98	8f606f93	ori	x31,x0,-1802	  x0:0x00000000 x31=0xfffff8f6
       16495000	      1648	80000e9c	01ed24b3	slt	x9,x26,x30	 x26:0xfb7092cc x30:0x14bd5e44  x9=0x00000001
       16505000	      1649	80000ea0	028eee63	bltu	x29,x8,80000edc	 x29:0x00000001  x8:0x00000001
       16515000	      1650	80000ea4	b94c8393	addi	x7,x25,-1132	 x25:0x00001000  x7=0x00000b94
       16525000	      1651	80000ea8	ca39ae93	slti	x29,x19,-861	 x19:0x80009fc4 x29=0x00000001
       16535000	      1652	80000eac	0bd27213	andi	x4,x4,189	  x4:0x139fde7b  x4=0x00000039
       16545000	      1653	80000eb0	007d2fb3	slt	x31,x26,x7	 x26:0xfb7092cc  x7:0x00000b94 x31=0x00000001
       16555000	      1654	80000eb4	03b57063	bgeu	x10,x27,80000ed4	 x10:0x0000000a x27:0x00000000
       16565000	      1655	00000000	00000013	addi	x0,x0,0	  x0:0x00000000
       16575000	      1656	80000ed0	00000013	addi	x0,x0,0	  x0:0x00000000
       16585000	      1657	80000ed4	007328b3	slt	x17,x6,x7	  x6:0x2493c000  x7:0x00000b94 x17=0x00000000
       16595000	      1658	80000ed8	00000013	addi	x0,x0,0	  x0:0x00000000
       16605000	      1659	80000edc	00d4df13	srli	x30,x9,0xd	  x9:0x00000001 x30=0x00000000
       16615000	      1660	80000ee0	03954663	blt	x10,x25,80000f0c	 x10:0x0000000a x25:0x00001000
       16625000	      1661	00000000	00000013	addi	x0,x0,0	  x0:0x00000000
       16635000	      1662	80000f08	00000013	addi	x0,x0,0	  x0:0x00000000
       16645000	      1663	80000f0c	534bcb93	xori	x23,x23,1332	 x23:0x00001610 x23=0x00001324
       16655000	      1664	80000f10	02f94e63	blt	x18,x15,80000f4c	 x18:0xfffffadd x15:0x80000818
       16665000	      1665	80000f14	0094fe63	bgeu	x9,x9,80000f30	  x9:0x00000001  x9:0x00000001
       16675000	      1666	00000000	00000013	addi	x0,x0,0	  x0:0x00000000
       16685000	      1667	80000f2c	00000013	addi	x0,x0,0	  x0:0x00000000
       16695000	      1668	80000f30	00172c33	slt	x24,x14,x1	 x14:0x00000000  x1:0x00000000 x24=0x00000000
       16705000	      1669	80000f34	04ffc263	blt	x31,x15,80000f78	 x31:0x00000001 x15:0x80000818
       16715000	      1670	80000f38	411b5413	srai	x8,x22,0x11	 x22:0x80009f78  x8=0xffffc000
       16725000	      1671	80000f3c	01066cb3	or	x25,x12,x16	 x12:0xffffffc0 x16:0x80000a20 x25=0xffffffe0
       16735000	      1672	80000f40	0033aab3	slt	x21,x7,x3	  x7:0x00000b94  x3:0x80000bb4 x21=0x00000000
       16745000	      1673	80000f44	01711a33	sll	x20,x2,x23	  x2:0x000095ec x23:0x00001324 x20=0x00095ec0
       16755000	      1674	80000f48	000a5c13	srli	x24,x20,0x0	 x20:0x00095ec0 x24=0x00095ec0
       16765000	      1675	80000f4c	0389fc63	bgeu	x19,x24,80000f84	 x19:0x80009fc4 x24:0x00095ec0
       16775000	      1676	00000000	00000013	addi	x0,x0,0	  x0:0x00000000
       16785000	      1677	80000f80	00000013	addi	x0,x0,0	  x0:0x00000000
       16795000	      1678	80000f84	94d00213	addi	x4,x0,-1715	  x0:0x00000000  x4=0xfffff94d
       16805000	      1679	80000f88	0392e863	bltu	x5,x25,80000fb8	  x5:0x00000000 x25:0xffffffe0
       16815000	      1680	00000000	00000013	addi	x0,x0,0	  x0:0x00000000
       16825000	      1681	80000fb4	00000013	addi	x0,x0,0	  x0:0x00000000
       16835000	      1682	80000fb8	56db6513	ori	x10,x22,1389	 x22:0x80009f78 x10=0x80009f7d
       16845000	      1683	80000fbc	012293b3	sll	x7,x5,x18	  x5:0x00000000 x18:0xfffffadd  x7=0x00000000
       16855000	      1684	80000fc0	eaa35497	auipc	x9,0xeaa35	  x9=0x6aa35fbc
       16865000	      1685	80000fc4	40bd0793	addi	x15,x26,1035	 x26:0xfb7092cc x15=0xfb7096d7
       16875000	      1686	80000fc8	03fdc663	blt	x27,x31,80000ff4	 x27:0x00000000 x31:0x00000001
       16885000	      1687	00000000	00000013	addi	x0,x0,0	  x0:0x00000000
       16895000	      1688	80000ff0	00000013	addi	x0,x0,0	  x0:0x00000000
       16905000	      1689	80000ff4	018c2e33	slt	x28,x24,x24	 x24:0x00095ec0 x24:0x00095ec0 x28=0x00000000
       16915000	      1690	80000ff8	03628063	beq	x5,x22,80001018	  x5:0x00000000 x22:0x80009f78
       16925000	      1691	80000ffc	43c3e697	auipc	x13,0x43c3e	 x13=0xc3c3eff8
       16935000	      1692	80001000	f2a7f197	auipc	x3,0xf2a7f	  x3=0x72a7fffc
       16945000	      1693	80001004	41fb80b3	sub	x1,x23,x31	 x23:0x00001324 x31:0x00000001  x1=0x00001323
       16955000	      1694	80001008	00cd2c33	slt	x24,x26,x12	 x26:0xfb7092cc x12:0xffffffc0 x24=0x00000001
       16965000	      1695	8000100c	01379e33	sll	x28,x15,x19	 x15:0xfb7096d7 x19:0x80009fc4 x28=0xb7096d70
       16975000	      1696	80001010	40d4de93	srai	x29,x9,0xd	  x9:0x6aa35fbc x29=0x0003551a
       16985000	      1697	80001014	00044263	blt	x8,x0,80001018	  x8:0xffffc000  x0:0x00000000
       16995000	      1698	00000000	00000013	addi	x0,x0,0	  x0:0x00000000
       17005000	      1699	80001014	00000013	addi	x0,x0,0	  x0:0x00000000
       17015000	      1700	80001018	00c81113	slli	x2,x16,0xc	 x16:0x80000a20  x2=0x00a20000
       17025000	      1701	8000101c	00631813	slli	x16,x6,0x6	  x6:0x2493c000 x16=0x24f00000
       17035000	      1702	80001020	00000013	addi	x0,x0,0	  x0:0x00000000
       17045000	      1703	80001024	2eade413	ori	x8,x27,746	 x27:0x00000000  x8=0x000002ea
       17055000	      1704	80001028	02e1de63	bge	x3,x14,80001064	  x3:0x72a7fffc x14:0x00000000
       17065000	      1705	00000000	00000013	addi	x0,x0,0	  x0:0x00000000
       17075000	      1706	80001060	00000013	addi	x0,x0,0	  x0:0x00000000
       17085000	      1707	80001064	c7838b93	addi	x23,x7,-904	  x7:0x00000000 x23=0xfffffc78
       17095000	      1708	80001068	00000013	addi	x0,x0,0	  x0:0x00000000
       17105000	      1709	8000106c	765c2f93	slti	x31,x24,1893	 x24:0x00000001 x31=0x00000001
       17115000	      1710	80001070	24f98013	addi	x0,x19,591	 x19:0x80009fc4
       17125000	      1711	80001074	00e93ab3	sltu	x21,x18,x14	 x18:0xfffffadd x14:0x00000000 x21=0x00000000
       17135000	      1712	80001078	007781b3	add	x3,x15,x7	 x15:0xfb7096d7  x7:0x00000000  x3=0xfb7096d7
       17145000	      1713	8000107c	01f9ec63	bltu	x19,x31,80001094	 x19:0x80009fc4 x31:0x00000001
       17155000	      1714	80001080	02ae6663	bltu	x28,x10,800010ac	 x28:0xb7096d70 x10:0x80009f7d
       17165000	      1715	80001084	00fb5e63	bge	x22,x15,800010a0	 x22:0x80009f78 x15:0xfb7096d7
       17175000	      1716	80001088	002f5db3	srl	x27,x30,x2	 x30:0x00000000  x2:0x00a20000 x27=0x00000000
       17185000	      1717	8000108c	017f4263	blt	x30,x23,80001090	 x30:0x00000000 x23:0xfffffc78
       17195000	      1718	80001090	01141233	sll	x4,x8,x17	  x8:0x000002ea x17:0x00000000  x4=0x000002ea
       17205000	      1719	80001094	41970833	sub	x16,x14,x25	 x14:0x00000000 x25:0xffffffe0 x16=0x00000020
       17215000	      1720	80001098	01161e63	bne	x12,x17,800010b4	 x12:0xffffffc0 x17:0x00000000
       17225000	      1721	00000000	00000013	addi	x0,x0,0	  x0:0x00000000
       17235000	      1722	800010b0	00000013	addi	x0,x0,0	  x0:0x00000000
       17245000	      1723	800010b4	01b907b3	add	x15,x18,x27	 x18:0xfffffadd x27:0x00000000 x15=0xfffffadd
       17255000	      1724	800010b8	40d4dbb3	sra	x23,x9,x13	  x9:0x6aa35fbc x13:0xc3c3eff8 x23=0x0000006a
       17265000	      1725	800010bc	cca47213	andi	x4,x8,-822	  x8:0x000002ea  x4=0x000000ca
       17275000	      1726	800010c0	0108f8b3	and	x17,x17,x16	 x17:0x00000000 x16:0x00000020 x17=0x00000000
       17285000	      1727	800010c4	0125d6b3	srl	x13,x11,x18	 x11:0x6c60bda8 x18:0xfffffadd x13=0x00000003
       17295000	      1728	800010c8	f4f1ecb7	lui	x25,0xf4f1e	 x25=0xf4f1e000
       17305000	      1729	800010cc	01a6de63	bge	x13,x26,800010e8	 x13:0x00000003 x26:0xfb7092cc
       17315000	      1730	00000000	00000013	addi	x0,x0,0	  x0:0x00000000
       17325000	      1731	800010e4	00000013	addi	x0,x0,0	  x0:0x00000000
       17335000	      1732	800010e8	01bc8463	beq	x25,x27,800010f0	 x25:0xf4f1e000 x27:0x00000000
       17345000	      1733	800010ec	ccfeb037	lui	x0,0xccfeb	
       17355000	      1734	800010f0	03c50263	beq	x10,x28,80001114	 x10:0x80009f7d x28:0xb7096d70
       17365000	      1735	800010f4	01eb6833	or	x16,x22,x30	 x22:0x80009f78 x30:0x00000000 x16=0x80009f78
       17375000	      1736	800010f8	0c07ee97	auipc	x29,0xc07e	 x29=0x8c07f0f4
       17385000	      1737	800010fc	cc667093	andi	x1,x12,-826	 x12:0xffffffc0  x1=0xfffffcc0
       17395000	      1738	80001100	5f0ece93	xori	x29,x29,1520	 x29:0x8c07f0f4 x29=0x8c07f504
       17405000	      1739	80001104	d7a3b713	sltiu	x14,x7,-646	  x7:0x00000000 x14=0x00000001
       17415000	      1740	80001108	03817263	bgeu	x2,x24,8000112c	  x2:0x00a20000 x24:0x00000001
       17425000	      1741	00000000	00000013	addi	x0,x0,0	  x0:0x00000000
       17435000	      1742	80001128	00000013	addi	x0,x0,0	  x0:0x00000000
       17445000	      1743	8000112c	4093d093	srai	x1,x7,0x9	  x7:0x00000000  x1=0x00000000
       17455000	      1744	80001130	00248533	add	x10,x9,x2	  x9:0x6aa35fbc  x2:0x00a20000 x10=0x6b455fbc
       17465000	      1745	80001134	40005613	srai	x12,x0,0x0	  x0:0x00000000 x12=0x00000000
       17475000	      1746	80001138	010a1333	sll	x6,x20,x16	 x20:0x00095ec0 x16:0x80009f78  x6=0xc0000000
       17485000	      1747	8000113c	00695e63	bge	x18,x6,80001158	 x18:0xfffffadd  x6:0xc0000000
       17495000	      1748	00000000	00000013	addi	x0,x0,0	  x0:0x00000000
       17505000	      1749	80001154	00000013	addi	x0,x0,0	  x0:0x00000000
       17515000	      1750	80001158	00fcdc13	srli	x24,x25,0xf	 x25:0xf4f1e000 x24=0x0001e9e3
       17525000	      1751	8000115c	00d8d1b3	srl	x3,x17,x13	 x17:0x00000000 x13:0x00000003  x3=0x00000000
       17535000	      1752	80001160	01f557b3	srl	x15,x10,x31	 x10:0x6b455fbc x31:0x00000001 x15=0x35a2afde
       17545000	      1753	80001164	00b45c93	srli	x25,x8,0xb	  x8:0x000002ea x25=0x00000000
       17555000	      1754	80001168	55a92917	auipc	x18,0x55a92	 x18=0xd5a93164
       17565000	      1755	8000116c	01d91093	slli	x1,x18,0x1d	 x18:0xd5a93164  x1=0x80000000
       17575000	      1756	80001170	00a6d213	srli	x4,x13,0xa	 x13:0x00000003  x4=0x00000000
       17585000	      1757	80001174	403f8833	sub	x16,x31,x3	 x31:0x00000001  x3:0x00000000 x16=0x00000001
       17595000	      1758	80001178	6c98e813	ori	x16,x17,1737	 x17:0x00000000 x16=0x000006c9
       17605000	      1759	8000117c	02e9dc63	bge	x19,x14,800011b4	 x19:0x80009fc4 x14:0x00000001
       17615000	      1760	80001180	008f6e63	bltu	x30,x8,8000119c	 x30:0x00000000  x8:0x000002ea
       17625000	      1761	00000000	00000013	addi	x0,x0,0	  x0:0x00000000
       17635000	      1762	80001198	00000013	addi	x0,x0,0	  x0:0x00000000
       17645000	      1763	8000119c	01176a63	bltu	x14,x17,800011b0	 x14:0x00000001 x17:0x00000000
       17655000	      1764	800011a0	03064e63	blt	x12,x16,800011dc	 x12:0x00000000 x16:0x000006c9
       17665000	      1765	00000000	00000013	addi	x0,x0,0	  x0:0x00000000
       17675000	      1766	800011d8	00000013	addi	x0,x0,0	  x0:0x00000000
       17685000	      1767	800011dc	c73723b7	lui	x7,0xc7372	  x7=0xc7372000
       17695000	      1768	800011e0	0179f6b3	and	x13,x19,x23	 x19:0x80009fc4 x23:0x0000006a x13=0x00000040
       17705000	      1769	800011e4	00795663	bge	x18,x7,800011f0	 x18:0xd5a93164  x7:0xc7372000
       17715000	      1770	00000000	00000013	addi	x0,x0,0	  x0:0x00000000
       17725000	      1771	800011ec	00000013	addi	x0,x0,0	  x0:0x00000000
       17735000	      1772	800011f0	0018c133	xor	x2,x17,x1	 x17:0x00000000  x1:0x80000000  x2=0x80000000
       17745000	      1773	800011f4	0193bcb3	sltu	x25,x7,x25	  x7:0xc7372000 x25:0x00000000 x25=0x00000000
       17755000	      1774	800011f8	0131d893	srli	x17,x3,0x13	  x3:0x00000000 x17=0x00000000
       17765000	      1775	800011fc	402c87b3	sub	x15,x25,x2	 x25:0x00000000  x2:0x80000000 x15=0x80000000
       17775000	      1776	80001200	00ce5263	bge	x28,x12,80001204	 x28:0xb7096d70 x12:0x00000000
       17785000	      1777	80001204	01ea13b3	sll	x7,x20,x30	 x20:0x00095ec0 x30:0x00000000  x7=0x00095ec0
       17795000	      1778	80001208	002871b3	and	x3,x16,x2	 x16:0x000006c9  x2:0x80000000  x3=0x00000000
       17805000	      1779	8000120c	01f6d013	srli	x0,x13,0x1f	 x13:0x00000040
       17815000	      1780	80001210	b4f17113	andi	x2,x2,-1201	  x2:0x80000000  x2=0x80000000
       17825000	      1781	80001214	0038d5b3	srl	x11,x17,x3	 x17:0x00000000  x3:0x00000000 x11=0x00000000
       17835000	      1782	80001218	02d17863	bgeu	x2,x13,80001248	  x2:0x80000000 x13:0x00000040
       17845000	      1783	00000000	00000013	addi	x0,x0,0	  x0:0x00000000
       17855000	      1784	80001244	00000013	addi	x0,x0,0	  x0:0x00000000
       17865000	      1785	80001248	7bd32e93	slti	x29,x6,1981	  x6:0xc0000000 x29=0x00000001
       17875000	      1786	8000124c	0b4cf463	bgeu	x25,x20,800012f4	 x25:0x00000000 x20:0x00095ec0
       17885000	      1787	80001250	00000013	addi	x0,x0,0	  x0:0x00000000
       17895000	      1788	80001254	00000013	addi	x0,x0,0	  x0:0x00000000
       17905000	      1789	80001258	016acc33	xor	x24,x21,x22	 x21:0x00000000 x22:0x80009f78 x24=0x80009f78
       17915000	      1790	8000125c	0a519263	bne	x3,x5,80001300	  x3:0x00000000  x5:0x00000000
       17925000	      1791	80001260	09848a63	beq	x9,x24,800012f4	  x9:0x6aa35fbc x24:0x80009f78
       17935000	      1792	80001264	013dd8b3	srl	x17,x27,x19	 x27:0x00000000 x19:0x80009fc4 x17=0x00000000
       17945000	      1793	80001268	019b6a33	or	x20,x22,x25	 x22:0x80009f78 x25:0x00000000 x20=0x80009f78
       17955000	      1794	8000126c	00ea9133	sll	x2,x21,x14	 x21:0x00000000 x14:0x00000001  x2=0x00000000
       17965000	      1795	80001270	01985633	srl	x12,x16,x25	 x16:0x000006c9 x25:0x00000000 x12=0x000006c9
       17975000	      1796	80001274	fb58be93	sltiu	x29,x17,-75	 x17:0x00000000 x29=0x00000001
       17985000	      1797	80001278	cdfe31b7	lui	x3,0xcdfe3	  x3=0xcdfe3000
       17995000	      1798	8000127c	0138d3b3	srl	x7,x17,x19	 x17:0x00000000 x19:0x80009fc4  x7=0x00000000
       18005000	      1799	80001280	9f236913	ori	x18,x6,-1550	  x6:0xc0000000 x18=0xfffff9f2
       18015000	      1800	80001284	010cf133	and	x2,x25,x16	 x25:0x00000000 x16:0x000006c9  x2=0x00000000
       18025000	      1801	80001288	02c000ef	jal	x1,80001288	  x1=0x80001288
       18035000	      1802	00000000	00000013	addi	x0,x0,0	  x0:0x00000000
       18045000	      1803	800012b0	00000013	addi	x0,x0,0	  x0:0x00000000
       18055000	      1804	800012b4	ff5ff0ef	jal	x1,800012b4	  x1=0x800012b4
       18065000	      1805	00000000	00000013	addi	x0,x0,0	  x0:0x00000000
       18075000	      1806	800012a4	00000013	addi	x0,x0,0	  x0:0x00000000
       18085000	      1807	800012a8	004000ef	jal	x1,800012a8	  x1=0x800012a8
       18095000	      1808	00000000	00000013	addi	x0,x0,0	  x0:0x00000000
       18105000	      1809	800012a8	00000013	addi	x0,x0,0	  x0:0x00000000
       18115000	      1810	800012ac	00c000ef	jal	x1,800012ac	  x1=0x800012ac
       18125000	      1811	00000000	00000013	addi	x0,x0,0	  x0:0x00000000
       18135000	      1812	800012b4	00000013	addi	x0,x0,0	  x0:0x00000000
       18145000	      1813	800012b8	00c00aef	jal	x21,800012b8	 x21=0x800012b8
       18155000	      1814	00000000	00000013	addi	x0,x0,0	  x0:0x00000000
       18165000	      1815	800012c0	00000013	addi	x0,x0,0	  x0:0x00000000
       18175000	      1816	800012c4	fd5ff36f	jal	x6,800012c4	  x6=0x800012c4
       18185000	      1817	00000000	00000013	addi	x0,x0,0	  x0:0x00000000
       18195000	      1818	80001294	00000013	addi	x0,x0,0	  x0:0x00000000
       18205000	      1819	80001298	038000ef	jal	x1,80001298	  x1=0x80001298
       18215000	      1820	00000000	00000013	addi	x0,x0,0	  x0:0x00000000
       18225000	      1821	800012cc	00000013	addi	x0,x0,0	  x0:0x00000000
       18235000	      1822	800012d0	fedff0ef	jal	x1,800012d0	  x1=0x800012d0
       18245000	      1823	00000000	00000013	addi	x0,x0,0	  x0:0x00000000
       18255000	      1824	800012b8	00000013	addi	x0,x0,0	  x0:0x00000000
       18265000	      1825	800012bc	ff5ff36f	jal	x6,800012bc	  x6=0x800012bc
       18275000	      1826	00000000	00000013	addi	x0,x0,0	  x0:0x00000000
       18285000	      1827	800012ac	00000013	addi	x0,x0,0	  x0:0x00000000
       18295000	      1828	800012b0	010000ef	jal	x1,800012b0	  x1=0x800012b0
       18305000	      1829	00000000	00000013	addi	x0,x0,0	  x0:0x00000000
       18315000	      1830	800012bc	00000013	addi	x0,x0,0	  x0:0x00000000
       18325000	      1831	800012c0	00c0086f	jal	x16,800012c0	 x16=0x800012c0
       18335000	      1832	00000000	00000013	addi	x0,x0,0	  x0:0x00000000
       18345000	      1833	800012c8	00000013	addi	x0,x0,0	  x0:0x00000000
       18355000	      1834	800012cc	fd9ff0ef	jal	x1,800012cc	  x1=0x800012cc
       18365000	      1835	00000000	00000013	addi	x0,x0,0	  x0:0x00000000
       18375000	      1836	800012a0	00000013	addi	x0,x0,0	  x0:0x00000000
       18385000	      1837	800012a4	0240066f	jal	x12,800012a4	 x12=0x800012a4
       18395000	      1838	00000000	00000013	addi	x0,x0,0	  x0:0x00000000
       18405000	      1839	800012c4	00000013	addi	x0,x0,0	  x0:0x00000000
       18415000	      1840	800012c8	fc9ff0ef	jal	x1,800012c8	  x1=0x800012c8
       18425000	      1841	00000000	00000013	addi	x0,x0,0	  x0:0x00000000
       18435000	      1842	8000128c	00000013	addi	x0,x0,0	  x0:0x00000000
       18445000	      1843	80001290	0100016f	jal	x2,80001290	  x2=0x80001290
       18455000	      1844	00000000	00000013	addi	x0,x0,0	  x0:0x00000000
       18465000	      1845	8000129c	00000013	addi	x0,x0,0	  x0:0x00000000
       18475000	      1846	800012a0	ffdff0ef	jal	x1,800012a0	  x1=0x800012a0
       18485000	      1847	00000000	00000013	addi	x0,x0,0	  x0:0x00000000
       18495000	      1848	80001298	00000013	addi	x0,x0,0	  x0:0x00000000
       18505000	      1849	8000129c	0380036f	jal	x6,8000129c	  x6=0x8000129c
       18515000	      1850	00000000	00000013	addi	x0,x0,0	  x0:0x00000000
       18525000	      1851	800012d0	00000013	addi	x0,x0,0	  x0:0x00000000
       18535000	      1852	800012d4	fc1ff36f	jal	x6,800012d4	  x6=0x800012d4
       18545000	      1853	00000000	00000013	addi	x0,x0,0	  x0:0x00000000
       18555000	      1854	80001290	00000013	addi	x0,x0,0	  x0:0x00000000
       18565000	      1855	80001294	044000ef	jal	x1,80001294	  x1=0x80001294
       18575000	      1856	00000000	00000013	addi	x0,x0,0	  x0:0x00000000
       18585000	      1857	800012d4	00000013	addi	x0,x0,0	  x0:0x00000000
       18595000	      1858	800012d8	fb5ff0ef	jal	x1,800012d8	  x1=0x800012d8
       18605000	      1859	00000000	00000013	addi	x0,x0,0	  x0:0x00000000
       18615000	      1860	80001288	00000013	addi	x0,x0,0	  x0:0x00000000
       18625000	      1861	8000128c	0500086f	jal	x16,8000128c	 x16=0x8000128c
       18635000	      1862	00000000	00000013	addi	x0,x0,0	  x0:0x00000000
       18645000	      1863	800012d8	00000013	addi	x0,x0,0	  x0:0x00000000
       18655000	      1864	800012dc	41780c33	sub	x24,x16,x23	 x16:0x8000128c x23:0x0000006a x24=0x80001222
       18665000	      1865	800012e0	5234a537	lui	x10,0x5234a	 x10=0x5234a000
       18675000	      1866	800012e4	404c5533	sra	x10,x24,x4	 x24:0x80001222  x4:0x00000000 x10=0x80001222
       18685000	      1867	800012e8	047ff263	bgeu	x31,x7,8000132c	 x31:0x00000001  x7:0x00000000
       18695000	      1868	00000000	00000013	addi	x0,x0,0	  x0:0x00000000
       18705000	      1869	80001328	00000013	addi	x0,x0,0	  x0:0x00000000
       18715000	      1870	8000132c	2fb63c13	sltiu	x24,x12,763	 x12:0x800012a4 x24=0x00000000
       18725000	      1871	80001330	01291093	slli	x1,x18,0x12	 x18:0xfffff9f2  x1=0xe7c80000
       18735000	      1872	80001334	04631863	bne	x6,x6,80001384	  x6:0x800012d4  x6:0x800012d4
       18745000	      1873	80001338	01470433	add	x8,x14,x20	 x14:0x00000001 x20:0x80009f78  x8=0x80009f79
       18755000	      1874	8000133c	009f9463	bne	x31,x9,80001344	 x31:0x00000001  x9:0x6aa35fbc
       18765000	      1875	00000000	00000013	addi	x0,x0,0	  x0:0x00000000
       18775000	      1876	80001340	00000013	addi	x0,x0,0	  x0:0x00000000
       18785000	      1877	80001344	02b76e63	bltu	x14,x11,80001380	 x14:0x00000001 x11:0x00000000
       18795000	      1878	80001348	01236263	bltu	x6,x18,8000134c	  x6:0x800012d4 x18:0xfffff9f2
       18805000	      1879	00000000	00000013	addi	x0,x0,0	  x0:0x00000000
       18815000	      1880	80001348	00000013	addi	x0,x0,0	  x0:0x00000000
       18825000	      1881	8000134c	00913233	sltu	x4,x2,x9	  x2:0x80001290  x9:0x6aa35fbc  x4=0x00000000
       18835000	      1882	80001350	00f12db3	slt	x27,x2,x15	  x2:0x80001290 x15:0x80000000 x27=0x00000000
       18845000	      1883	80001354	00000013	addi	x0,x0,0	  x0:0x00000000
       18855000	      1884	80001358	41585133	sra	x2,x16,x21	 x16:0x8000128c x21:0x800012b8  x2=0xffffff80
       18865000	      1885	8000135c	40418f33	sub	x30,x3,x4	  x3:0xcdfe3000  x4:0x00000000 x30=0xcdfe3000
       18875000	      1886	80001360	e73a71b7	lui	x3,0xe73a7	  x3=0xe73a7000
       18885000	      1887	80001364	00e76eb3	or	x29,x14,x14	 x14:0x00000001 x14:0x00000001 x29=0x00000001
       18895000	      1888	80001368	022e4663	blt	x28,x2,80001394	 x28:0xb7096d70  x2:0xffffff80
       18905000	      1889	00000000	00000013	addi	x0,x0,0	  x0:0x00000000
       18915000	      1890	80001390	00000013	addi	x0,x0,0	  x0:0x00000000
       18925000	      1891	80001394	d9d2a313	slti	x6,x5,-611	  x5:0x00000000  x6=0x00000000
       18935000	      1892	80001398	0080dc63	bge	x1,x8,800013b0	  x1:0xe7c80000  x8:0x80009f79
       18945000	      1893	00000000	00000013	addi	x0,x0,0	  x0:0x00000000
       18955000	      1894	800013ac	00000013	addi	x0,x0,0	  x0:0x00000000
       18965000	      1895	800013b0	00ea22b3	slt	x5,x20,x14	 x20:0x80009f78 x14:0x00000001  x5=0x00000001
       18975000	      1896	800013b4	01fb9733	sll	x14,x23,x31	 x23:0x0000006a x31:0x00000001 x14=0x000000d4
       18985000	      1897	800013b8	f7123297	auipc	x5,0xf7123	  x5=0x771243b4
       18995000	      1898	800013bc	018c21b3	slt	x3,x24,x24	 x24:0x00000000 x24:0x00000000  x3=0x00000000
       19005000	      1899	800013c0	40cfd333	sra	x6,x31,x12	 x31:0x00000001 x12:0x800012a4  x6=0x00000000
       19015000	      1900	800013c4	005861b3	or	x3,x16,x5	 x16:0x8000128c  x5:0x771243b4  x3=0xf71253bc
       19025000	      1901	800013c8	004014b3	sll	x9,x0,x4	  x0:0x00000000  x4:0x00000000  x9=0x00000000
       19035000	      1902	800013cc	008ffdb3	and	x27,x31,x8	 x31:0x00000001  x8:0x80009f79 x27=0x00000001
       19045000	      1903	800013d0	02dede63	bge	x29,x13,8000140c	 x29:0x00000001 x13:0x00000040
       19055000	      1904	800013d4	01cb5e93	srli	x29,x22,0x1c	 x22:0x80009f78 x29=0x00000008
       19065000	      1905	800013d8	027f5063	bge	x30,x7,800013f8	 x30:0xcdfe3000  x7:0x00000000
       19075000	      1906	800013dc	00ed5593	srli	x11,x26,0xe	 x26:0xfb7092cc x11=0x0003edc2
       19085000	      1907	800013e0	62d84393	xori	x7,x16,1581	 x16:0x8000128c  x7=0x800014a1
       19095000	      1908	800013e4	b932ce13	xori	x28,x5,-1133	  x5:0x771243b4 x28=0x88edb827
       19105000	      1909	800013e8	72ee7a13	andi	x20,x28,1838	 x28:0x88edb827 x20=0x00000026
       19115000	      1910	800013ec	00ab8033	add	x0,x23,x10	 x23:0x0000006a x10:0x80001222
       19125000	      1911	800013f0	02a37e63	bgeu	x6,x10,8000142c	  x6:0x00000000 x10:0x80001222
       19135000	      1912	800013f4	014988b3	add	x17,x19,x20	 x19:0x80009fc4 x20:0x00000026 x17=0x80009fea
       19145000	      1913	800013f8	00ee30b3	sltu	x1,x28,x14	 x28:0x88edb827 x14:0x000000d4  x1=0x00000000
       19155000	      1914	800013fc	00000013	addi	x0,x0,0	  x0:0x00000000
       19165000	      1915	80001400	000cd833	srl	x16,x25,x0	 x25:0x00000000  x0:0x00000000 x16=0x00000000
       19175000	      1916	80001404	00775913	srli	x18,x14,0x7	 x14:0x000000d4 x18=0x00000001
       19185000	      1917	80001408	00ff0663	beq	x30,x15,80001414	 x30:0xcdfe3000 x15:0x80000000
       19195000	      1918	8000140c	5960f713	andi	x14,x1,1430	  x1:0x00000000 x14=0x00000000
       19205000	      1919	80001410	053c9263	bne	x25,x19,80001454	 x25:0x00000000 x19:0x80009fc4
       19215000	      1920	00000000	00000013	addi	x0,x0,0	  x0:0x00000000
       19225000	      1921	80001450	00000013	addi	x0,x0,0	  x0:0x00000000
       19235000	      1922	80001454	02c31663	bne	x6,x12,80001480	  x6:0x00000000 x12:0x800012a4
       19245000	      1923	00000000	00000013	addi	x0,x0,0	  x0:0x00000000
       19255000	      1924	8000147c	00000013	addi	x0,x0,0	  x0:0x00000000
       19265000	      1925	80001480	21f84393	xori	x7,x16,543	 x16:0x00000000  x7=0x0000021f
       19275000	      1926	80001484	00000013	addi	x0,x0,0	  x0:0x00000000
       19285000	      1927	80001488	039b7663	bgeu	x22,x25,800014b4	 x22:0x80009f78 x25:0x00000000
       19295000	      1928	00000000	00000013	addi	x0,x0,0	  x0:0x00000000
       19305000	      1929	800014b0	00000013	addi	x0,x0,0	  x0:0x00000000
       19315000	      1930	800014b4	00a2a733	slt	x14,x5,x10	  x5:0x771243b4 x10:0x80001222 x14=0x00000000
       19325000	      1931	800014b8	029d9e63	bne	x27,x9,800014f4	 x27:0x00000001  x9:0x00000000
       19335000	      1932	00000000	00000013	addi	x0,x0,0	  x0:0x00000000
       19345000	      1933	800014f0	00000013	addi	x0,x0,0	  x0:0x00000000
       19355000	      1934	800014f4	00ba4fb3	xor	x31,x20,x11	 x20:0x00000026 x11:0x0003edc2 x31=0x0003ede4
       19365000	      1935	800014f8	40185433	sra	x8,x16,x1	 x16:0x00000000  x1:0x00000000  x8=0x00000000
       19375000	      1936	800014fc	41db86b3	sub	x13,x23,x29	 x23:0x0000006a x29:0x00000008 x13=0x00000062
       19385000	      1937	80001500	406a8533	sub	x10,x21,x6	 x21:0x800012b8  x6:0x00000000 x10=0x800012b8
       19395000	      1938	80001504	11eabf13	sltiu	x30,x21,286	 x21:0x800012b8 x30=0x00000000
       19405000	      1939	80001508	40bc5e13	srai	x28,x24,0xb	 x24:0x00000000 x28=0x00000000
       19415000	      1940	8000150c	00003733	sltu	x14,x0,x0	  x0:0x00000000  x0:0x00000000 x14=0x00000000
       19425000	      1941	80001510	41458cb3	sub	x25,x11,x20	 x11:0x0003edc2 x20:0x00000026 x25=0x0003ed9c
       19435000	      1942	80001514	00789e13	slli	x28,x17,0x7	 x17:0x80009fea x28=0x004ff500
       19445000	      1943	80001518	01648533	add	x10,x9,x22	  x9:0x00000000 x22:0x80009f78 x10=0x80009f78
       19455000	      1944	8000151c	0c31e063	bltu	x3,x3,800015dc	  x3:0xf71253bc  x3:0xf71253bc
       19465000	      1945	80001520	0b335a63	bge	x6,x19,800015d4	  x6:0x00000000 x19:0x80009fc4
       19475000	      1946	00000000	00000013	addi	x0,x0,0	  x0:0x00000000
       19485000	      1947	800015d0	00000013	addi	x0,x0,0	  x0:0x00000000
       19495000	      1948	800015d4	a5913793	sltiu	x15,x2,-1447	  x2:0xffffff80 x15=0x00000000
       19505000	      1949	800015d8	00b57463	bgeu	x10,x11,800015e0	 x10:0x80009f78 x11:0x0003edc2
       19515000	      1950	00000000	00000013	addi	x0,x0,0	  x0:0x00000000
       19525000	      1951	800015dc	00000013	addi	x0,x0,0	  x0:0x00000000
       19535000	      1952	800015e0	00ecd833	srl	x16,x25,x14	 x25:0x0003ed9c x14:0x00000000 x16=0x0003ed9c
       19545000	      1953	800015e4	01de0ab3	add	x21,x28,x29	 x28:0x004ff500 x29:0x00000008 x21=0x004ff508
       19555000	      1954	800015e8	0ebf2313	slti	x6,x30,235	 x30:0x00000000  x6=0x00000001
       19565000	      1955	800015ec	0122f633	and	x12,x5,x18	  x5:0x771243b4 x18:0x00000001 x12=0x00000000
       19575000	      1956	800015f0	00000013	addi	x0,x0,0	  x0:0x00000000
       19585000	      1957	800015f4	409dddb3	sra	x27,x27,x9	 x27:0x00000001  x9:0x00000000 x27=0x00000001
       19595000	      1958	800015f8	0264e063	bltu	x9,x6,80001618	  x9:0x00000000  x6:0x00000001
       19605000	      1959	00000000	00000013	addi	x0,x0,0	  x0:0x00000000
       19615000	      1960	80001614	00000013	addi	x0,x0,0	  x0:0x00000000
       19625000	      1961	80001618	01c1d113	srli	x2,x3,0x1c	  x3:0xf71253bc  x2=0x0000000f
       19635000	      1962	8000161c	02bd4c63	blt	x26,x11,80001654	 x26:0xfb7092cc x11:0x0003edc2
       19645000	      1963	00000000	00000013	addi	x0,x0,0	  x0:0x00000000
       19655000	      1964	80001650	00000013	addi	x0,x0,0	  x0:0x00000000
       19665000	      1965	80001654	01f47333	and	x6,x8,x31	  x8:0x00000000 x31:0x0003ede4  x6=0x00000000
       19675000	      1966	80001658	03181263	bne	x16,x17,8000167c	 x16:0x0003ed9c x17:0x80009fea
       19685000	      1967	00000000	00000013	addi	x0,x0,0	  x0:0x00000000
       19695000	      1968	80001678	00000013	addi	x0,x0,0	  x0:0x00000000
       19705000	      1969	8000167c	180ea193	slti	x3,x29,384	 x29:0x00000008  x3=0x00000001
       19715000	      1970	80001680	00945f93	srli	x31,x8,0x9	  x8:0x00000000 x31=0x00000000
       19725000	      1971	80001684	70260293	addi	x5,x12,1794	 x12:0x00000000  x5=0x00000702
       19735000	      1972	80001688	01cb6833	or	x16,x22,x28	 x22:0x80009f78 x28:0x004ff500 x16=0x804fff78
       19745000	      1973	8000168c	0163e663	bltu	x7,x22,80001698	  x7:0x0000021f x22:0x80009f78
       19755000	      1974	00000000	00000013	addi	x0,x0,0	  x0:0x00000000
       19765000	      1975	80001694	00000013	addi	x0,x0,0	  x0:0x00000000
       19775000	      1976	80001698	010fbcb3	sltu	x25,x31,x16	 x31:0x00000000 x16:0x804fff78 x25=0x00000001
       19785000	      1977	8000169c	0fff8393	addi	x7,x31,255	 x31:0x00000000  x7=0x000000ff
       19795000	      1978	800016a0	029a9e63	bne	x21,x9,800016dc	 x21:0x004ff508  x9:0x00000000
       19805000	      1979	00000000	00000013	addi	x0,x0,0	  x0:0x00000000
       19815000	      1980	800016d8	00000013	addi	x0,x0,0	  x0:0x00000000
       19825000	      1981	800016dc	00405cb3	srl	x25,x0,x4	  x0:0x00000000  x4:0x00000000 x25=0x00000000
       19835000	      1982	800016e0	014c9eb3	sll	x29,x25,x20	 x25:0x00000000 x20:0x00000026 x29=0x00000000
       19845000	      1983	800016e4	5d626013	ori	x0,x4,1494	  x4:0x00000000
       19855000	      1984	800016e8	00775f93	srli	x31,x14,0x7	 x14:0x00000000 x31=0x00000000
       19865000	      1985	800016ec	00415f93	srli	x31,x2,0x4	  x2:0x0000000f x31=0x00000000
       19875000	      1986	800016f0	006167b3	or	x15,x2,x6	  x2:0x0000000f  x6:0x00000000 x15=0x0000000f
       19885000	      1987	800016f4	4039deb3	sra	x29,x19,x3	 x19:0x80009fc4  x3:0x00000001 x29=0xc0004fe2
       19895000	      1988	800016f8	01154e63	blt	x10,x17,80001714	 x10:0x80009f78 x17:0x80009fea
       19905000	      1989	00000000	00000013	addi	x0,x0,0	  x0:0x00000000
       19915000	      1990	80001710	00000013	addi	x0,x0,0	  x0:0x00000000
       19925000	      1991	80001714	03c68c63	beq	x13,x28,8000174c	 x13:0x00000062 x28:0x004ff500
       19935000	      1992	80001718	01aefa63	bgeu	x29,x26,8000172c	 x29:0xc0004fe2 x26:0xfb7092cc
       19945000	      1993	8000171c	0344c863	blt	x9,x20,8000174c	  x9:0x00000000 x20:0x00000026
       19955000	      1994	00000000	00000013	addi	x0,x0,0	  x0:0x00000000
       19965000	      1995	80001748	00000013	addi	x0,x0,0	  x0:0x00000000
       19975000	      1996	8000174c	c058b093	sltiu	x1,x17,-1019	 x17:0x80009fea  x1=0x00000001
       19985000	      1997	80001750	00d552b3	srl	x5,x10,x13	 x10:0x80009f78 x13:0x00000062  x5=0x200027de
       19995000	      1998	80001754	41e101b3	sub	x3,x2,x30	  x2:0x0000000f x30:0x00000000  x3=0x0000000f
       20005000	      1999	80001758	006aec63	bltu	x21,x6,80001770	 x21:0x004ff508  x6:0x00000000
       20015000	      2000	8000175c	00cfb5b3	sltu	x11,x31,x12	 x31:0x00000000 x12:0x00000000 x11=0x00000000
       20025000	      2001	80001760	02085e63	bge	x16,x0,8000179c	 x16:0x804fff78  x0:0x00000000
       20035000	      2002	80001764	05555863	bge	x10,x21,800017b4	 x10:0x80009f78 x21:0x004ff508
       20045000	      2003	80001768	0192e8b3	or	x17,x5,x25	  x5:0x200027de x25:0x00000000 x17=0x200027de
       20055000	      2004	8000176c	20c5a613	slti	x12,x11,524	 x11:0x00000000 x12=0x00000001
       20065000	      2005	80001770	408d01b3	sub	x3,x26,x8	 x26:0xfb7092cc  x8:0x00000000  x3=0xfb7092cc
       20075000	      2006	80001774	00000013	addi	x0,x0,0	  x0:0x00000000
       20085000	      2007	80001778	02895663	bge	x18,x8,800017a4	 x18:0x00000001  x8:0x00000000
       20095000	      2008	00000000	00000013	addi	x0,x0,0	  x0:0x00000000
       20105000	      2009	800017a0	00000013	addi	x0,x0,0	  x0:0x00000000
       20115000	      2010	800017a4	408782b3	sub	x5,x15,x8	 x15:0x0000000f  x8:0x00000000  x5=0x0000000f
       20125000	      2011	800017a8	01a1b8b7	lui	x17,0x1a1b	 x17=0x01a1b000
       20135000	      2012	800017ac	00be9eb3	sll	x29,x29,x11	 x29:0xc0004fe2 x11:0x00000000 x29=0xc0004fe2
       20145000	      2013	800017b0	00851713	slli	x14,x10,0x8	 x10:0x80009f78 x14=0x009f7800
       20155000	      2014	800017b4	02f91863	bne	x18,x15,800017e4	 x18:0x00000001 x15:0x0000000f
       20165000	      2015	00000000	00000013	addi	x0,x0,0	  x0:0x00000000
       20175000	      2016	800017e0	00000013	addi	x0,x0,0	  x0:0x00000000
       20185000	      2017	800017e4	0026d5b3	srl	x11,x13,x2	 x13:0x00000062  x2:0x0000000f x11=0x00000000
       20195000	      2018	800017e8	03c2b013	sltiu	x0,x5,60	  x5:0x0000000f
       20205000	      2019	800017ec	4065d8b3	sra	x17,x11,x6	 x11:0x00000000  x6:0x00000000 x17=0x00000000
       20215000	      2020	800017f0	018a5e33	srl	x28,x20,x24	 x20:0x00000026 x24:0x00000000 x28=0x00000026
       20225000	      2021	800017f4	018b06b3	add	x13,x22,x24	 x22:0x80009f78 x24:0x00000000 x13=0x80009f78
       20235000	      2022	800017f8	2809bd93	sltiu	x27,x19,640	 x19:0x80009fc4 x27=0x00000000
       20245000	      2023	800017fc	00265413	srli	x8,x12,0x2	 x12:0x00000001  x8=0x00000000
       20255000	      2024	80001800	00811263	bne	x2,x8,80001804	  x2:0x0000000f  x8:0x00000000
       20265000	      2025	00000000	00000013	addi	x0,x0,0	  x0:0x00000000
       20275000	      2026	80001800	00000013	addi	x0,x0,0	  x0:0x00000000
       20285000	      2027	80001804	00000013	addi	x0,x0,0	  x0:0x00000000
       20295000	      2028	80001808	6484ec93	ori	x25,x9,1608	  x9:0x00000000 x25=0x00000648
       20305000	      2029	8000180c	f9b64213	xori	x4,x12,-101	 x12:0x00000001  x4=0xffffff9a
       20315000	      2030	80001810	a213ff97	auipc	x31,0xa213f	 x31=0x2214080c
       20325000	      2031	80001814	00527fb3	and	x31,x4,x5	  x4:0xffffff9a  x5:0x0000000f x31=0x0000000a
       20335000	      2032	80001818	002ad733	srl	x14,x21,x2	 x21:0x004ff508  x2:0x0000000f x14=0x0000009f
       20345000	      2033	8000181c	035c6e63	bltu	x24,x21,80001858	 x24:0x00000000 x21:0x004ff508
       20355000	      2034	00000000	00000013	addi	x0,x0,0	  x0:0x00000000
       20365000	      2035	80001854	00000013	addi	x0,x0,0	  x0:0x00000000
       20375000	      2036	80001858	00175333	srl	x6,x14,x1	 x14:0x0000009f  x1:0x00000001  x6=0x0000004f
       20385000	      2037	8000185c	41ee5613	srai	x12,x28,0x1e	 x28:0x00000026 x12=0x00000000
       20395000	      2038	80001860	0064d113	srli	x2,x9,0x6	  x9:0x00000000  x2=0x00000000
       20405000	      2039	80001864	003f03b3	add	x7,x30,x3	 x30:0x00000000  x3:0xfb7092cc  x7=0xfb7092cc
       20415000	      2040	80001868	00000013	addi	x0,x0,0	  x0:0x00000000
       20425000	      2041	8000186c	600a5297	auipc	x5,0x600a5	  x5=0xe00a6868
       20435000	      2042	80001870	03229c63	bne	x5,x18,800018a8	  x5:0xe00a6868 x18:0x00000001
       20445000	      2043	00000000	00000013	addi	x0,x0,0	  x0:0x00000000
       20455000	      2044	800018a4	00000013	addi	x0,x0,0	  x0:0x00000000
       20465000	      2045	800018a8	537500b7	lui	x1,0x53750	  x1=0x53750000
       20475000	      2046	800018ac	c5fd6f13	ori	x30,x26,-929	 x26:0xfb7092cc x30=0xfffffedf
       20485000	      2047	800018b0	00fd8fb3	add	x31,x27,x15	 x27:0x00000000 x15:0x0000000f x31=0x0000000f
       20495000	      2048	800018b4	02a91c63	bne	x18,x10,800018ec	 x18:0x00000001 x10:0x80009f78
       20505000	      2049	00000000	00000013	addi	x0,x0,0	  x0:0x00000000
       20515000	      2050	800018e8	00000013	addi	x0,x0,0	  x0:0x00000000
       20525000	      2051	800018ec	00000013	addi	x0,x0,0	  x0:0x00000000
       20535000	      2052	800018f0	01455133	srl	x2,x10,x20	 x10:0x80009f78 x20:0x00000026  x2=0x0200027d
       20545000	      2053	800018f4	02827863	bgeu	x4,x8,80001924	  x4:0xffffff9a  x8:0x00000000
       20555000	      2054	00000000	00000013	addi	x0,x0,0	  x0:0x00000000
       20565000	      2055	80001920	00000013	addi	x0,x0,0	  x0:0x00000000
       20575000	      2056	80001924	01c69633	sll	x12,x13,x28	 x13:0x80009f78 x28:0x00000026 x12=0x0027de00
       20585000	      2057	80001928	b2318813	addi	x16,x3,-1245	  x3:0xfb7092cc x16=0xfb708def
       20595000	      2058	8000192c	bb82e593	ori	x11,x5,-1096	  x5:0xe00a6868 x11=0xfffffbf8
       20605000	      2059	80001930	01d0e513	ori	x10,x1,29	  x1:0x53750000 x10=0x5375001d
       20615000	      2060	80001934	0125c5b3	xor	x11,x11,x18	 x11:0xfffffbf8 x18:0x00000001 x11=0xfffffbf9
       20625000	      2061	80001938	02a5e663	bltu	x11,x10,80001964	 x11:0xfffffbf9 x10:0x5375001d
       20635000	      2062	8000193c	01605813	srli	x16,x0,0x16	  x0:0x00000000 x16=0x00000000
       20645000	      2063	80001940	780fb113	sltiu	x2,x31,1920	 x31:0x0000000f  x2=0x00000001
       20655000	      2064	80001944	006a5f13	srli	x30,x20,0x6	 x20:0x00000026 x30=0x00000000
       20665000	      2065	80001948	00000013	addi	x0,x0,0	  x0:0x00000000
       20675000	      2066	8000194c	0d737893	andi	x17,x6,215	  x6:0x0000004f x17=0x00000047
       20685000	      2067	80001950	77374a13	xori	x20,x14,1907	 x14:0x0000009f x20=0x000007ec
       20695000	      2068	80001954	01b81b93	slli	x23,x16,0x1b	 x16:0x00000000 x23=0x00000000
       20705000	      2069	80001958	011bd433	srl	x8,x23,x17	 x23:0x00000000 x17:0x00000047  x8=0x00000000
       20715000	      2070	8000195c	02959e63	bne	x11,x9,80001998	 x11:0xfffffbf9  x9:0x00000000
       20725000	      2071	00000000	00000013	addi	x0,x0,0	  x0:0x00000000
       20735000	      2072	80001994	00000013	addi	x0,x0,0	  x0:0x00000000
       20745000	      2073	80001998	01510fb3	add	x31,x2,x21	  x2:0x00000001 x21:0x004ff508 x31=0x004ff509
       20755000	      2074	8000199c	02a40663	beq	x8,x10,800019c8	  x8:0x00000000 x10:0x5375001d
       20765000	      2075	800019a0	052fc263	blt	x31,x18,800019e4	 x31:0x004ff509 x18:0x00000001
       20775000	      2076	800019a4	0128ac33	slt	x24,x17,x18	 x17:0x00000047 x18:0x00000001 x24=0x00000000
       20785000	      2077	800019a8	ae54fe13	andi	x28,x9,-1307	  x9:0x00000000 x28=0x00000000
       20795000	      2078	800019ac	aeb24693	xori	x13,x4,-1301	  x4:0xffffff9a x13=0x00000571
       20805000	      2079	800019b0	40e88e33	sub	x28,x17,x14	 x17:0x00000047 x14:0x0000009f x28=0xffffffa8
       20815000	      2080	800019b4	004cce63	blt	x25,x4,800019d0	 x25:0x00000648  x4:0xffffff9a
       20825000	      2081	800019b8	005b6533	or	x10,x22,x5	 x22:0x80009f78  x5:0xe00a6868 x10=0xe00aff78
       20835000	      2082	800019bc	00a6ce63	blt	x13,x10,800019d8	 x13:0x00000571 x10:0xe00aff78
       20845000	      2083	800019c0	41cb8cb3	sub	x25,x23,x28	 x23:0x00000000 x28:0xffffffa8 x25=0x00000058
       20855000	      2084	800019c4	03fc5e63	bge	x24,x31,80001a00	 x24:0x00000000 x31:0x004ff509
       20865000	      2085	800019c8	019f76b3	and	x13,x30,x25	 x30:0x00000000 x25:0x00000058 x13=0x00000000
       20875000	      2086	800019cc	01dc00b3	add	x1,x24,x29	 x24:0x00000000 x29:0xc0004fe2  x1=0xc0004fe2
       20885000	      2087	800019d0	00126463	bltu	x4,x1,800019d8	  x4:0xffffff9a  x1:0xc0004fe2
       20895000	      2088	800019d4	019fecb3	or	x25,x31,x25	 x31:0x004ff509 x25:0x00000058 x25=0x004ff559
       20905000	      2089	800019d8	01f1c7b3	xor	x15,x3,x31	  x3:0xfb7092cc x31:0x004ff509 x15=0xfb3f67c5
       20915000	      2090	800019dc	40ea5733	sra	x14,x20,x14	 x20:0x000007ec x14:0x0000009f x14=0x00000000
       20925000	      2091	800019e0	d344e113	ori	x2,x9,-716	  x9:0x00000000  x2=0xfffffd34
       20935000	      2092	800019e4	2f26be13	sltiu	x28,x13,754	 x13:0x00000000 x28=0x00000001
       20945000	      2093	800019e8	01805013	srli	x0,x0,0x18	  x0:0x00000000
       20955000	      2094	800019ec	41a98bb3	sub	x23,x19,x26	 x19:0x80009fc4 x26:0xfb7092cc x23=0x84900cf8
       20965000	      2095	800019f0	00173ab3	sltu	x21,x14,x1	 x14:0x00000000  x1:0xc0004fe2 x21=0x00000001
       20975000	      2096	800019f4	f983a193	slti	x3,x7,-104	  x7:0xfb7092cc  x3=0x00000001
       20985000	      2097	800019f8	f2823813	sltiu	x16,x4,-216	  x4:0xffffff9a x16=0x00000000
       20995000	      2098	800019fc	0fae0937	lui	x18,0xfae0	 x18=0x0fae0000
       21005000	      2099	80001a00	59aa7913	andi	x18,x20,1434	 x20:0x000007ec x18=0x00000588
       21015000	      2100	80001a04	49161cb7	lui	x25,0x49161	 x25=0x49161000
       21025000	      2101	80001a08	2c227613	andi	x12,x4,706	  x4:0xffffff9a x12=0x00000282
       21035000	      2102	80001a0c	b4b2ca93	xori	x21,x5,-1205	  x5:0xe00a6868 x21=0x1ff59323
       21045000	      2103	80001a10	0144e833	or	x16,x9,x20	  x9:0x00000000 x20:0x000007ec x16=0x000007ec
       21055000	      2104	80001a14	00f6c5b3	xor	x11,x13,x15	 x13:0x00000000 x15:0xfb3f67c5 x11=0xfb3f67c5
       21065000	      2105	80001a18	413c08b3	sub	x17,x24,x19	 x24:0x00000000 x19:0x80009fc4 x17=0x7fff603c
       21075000	      2106	80001a1c	c2a25c37	lui	x24,0xc2a25	 x24=0xc2a25000
       21085000	      2107	80001a20	40430233	sub	x4,x6,x4	  x6:0x0000004f  x4:0xffffff9a  x4=0x000000b5
       21095000	      2108	80001a24	84952293	slti	x5,x10,-1975	 x10:0xe00aff78  x5=0x00000001
       21105000	      2109	80001a28	03051e63	bne	x10,x16,80001a64	 x10:0xe00aff78 x16:0x000007ec
       21115000	      2110	00000000	00000013	addi	x0,x0,0	  x0:0x00000000
       21125000	      2111	80001a60	00000013	addi	x0,x0,0	  x0:0x00000000
       21135000	      2112	80001a64	015c1133	sll	x2,x24,x21	 x24:0xc2a25000 x21:0x1ff59323  x2=0x15128000
       21145000	      2113	80001a68	00b46fb3	or	x31,x8,x11	  x8:0x00000000 x11:0xfb3f67c5 x31=0xfb3f67c5
       21155000	      2114	80001a6c	003dd593	srli	x11,x27,0x3	 x27:0x00000000 x11=0x00000000
       21165000	      2115	80001a70	a4697793	andi	x15,x18,-1466	 x18:0x00000588 x15=0x00000000
       21175000	      2116	80001a74	02d58263	beq	x11,x13,80001a98	 x11:0x00000000 x13:0x00000000
       21185000	      2117	00000000	00000013	addi	x0,x0,0	  x0:0x00000000
       21195000	      2118	80001a94	00000013	addi	x0,x0,0	  x0:0x00000000
       21205000	      2119	80001a98	d57e0713	addi	x14,x28,-681	 x28:0x00000001 x14=0xfffffd58
       21215000	      2120	80001a9c	4fd4ed93	ori	x27,x9,1277	  x9:0x00000000 x27=0x000004fd
       21225000	      2121	80001aa0	0148e233	or	x4,x17,x20	 x17:0x7fff603c x20:0x000007ec  x4=0x7fff67fc
       21235000	      2122	80001aa4	0169dfb3	srl	x31,x19,x22	 x19:0x80009fc4 x22:0x80009f78 x31=0x00000080
       21245000	      2123	80001aa8	01c6ffb3	and	x31,x13,x28	 x13:0x00000000 x28:0x00000001 x31=0x00000000
       21255000	      2124	80001aac	41e0d913	srai	x18,x1,0x1e	  x1:0xc0004fe2 x18=0xffffffff
       21265000	      2125	80001ab0	415dd233	sra	x4,x27,x21	 x27:0x000004fd x21:0x1ff59323  x4=0x0000009f
       21275000	      2126	80001ab4	4f367e93	andi	x29,x12,1267	 x12:0x00000282 x29=0x00000082
       21285000	      2127	80001ab8	0010dc13	srli	x24,x1,0x1	  x1:0xc0004fe2 x24=0x600027f1
       21295000	      2128	80001abc	3c4aca93	xori	x21,x21,964	 x21:0x1ff59323 x21=0x1ff590e7
       21305000	      2129	80001ac0	000b2a33	slt	x20,x22,x0	 x22:0x80009f78  x0:0x00000000 x20=0x00000001
       21315000	      2130	80001ac4	03dde063	bltu	x27,x29,80001ae4	 x27:0x000004fd x29:0x00000082
       21325000	      2131	80001ac8	d055ee13	ori	x28,x11,-763	 x11:0x00000000 x28=0xfffffd05
       21335000	      2132	80001acc	00ec1e63	bne	x24,x14,80001ae8	 x24:0x600027f1 x14:0xfffffd58
       21345000	      2133	00000000	00000013	addi	x0,x0,0	  x0:0x00000000
       21355000	      2134	80001ae4	00000013	addi	x0,x0,0	  x0:0x00000000
       21365000	      2135	80001ae8	40c45f93	srai	x31,x8,0xc	  x8:0x00000000 x31=0x00000000
       21375000	      2136	80001aec	40a2d193	srai	x3,x5,0xa	  x5:0x00000001  x3=0x00000000
       21385000	      2137	80001af0	00000013	addi	x0,x0,0	  x0:0x00000000
       21395000	      2138	80001af4	01658533	add	x10,x11,x22	 x11:0x00000000 x22:0x80009f78 x10=0x80009f78
       21405000	      2139	80001af8	fe487913	andi	x18,x16,-28	 x16:0x000007ec x18=0x000007e4
       21415000	      2140	80001afc	5d892793	slti	x15,x18,1496	 x18:0x000007e4 x15=0x00000000
       21425000	      2141	80001b00	01fae333	or	x6,x21,x31	 x21:0x1ff590e7 x31:0x00000000  x6=0x1ff590e7
       21435000	      2142	80001b04	2f030b93	addi	x23,x6,752	  x6:0x1ff590e7 x23=0x1ff593d7
       21445000	      2143	80001b08	fd7b6313	ori	x6,x22,-41	 x22:0x80009f78  x6=0xffffffff
       21455000	      2144	80001b0c	05b77863	bgeu	x14,x27,80001b5c	 x14:0xfffffd58 x27:0x000004fd
       21465000	      2145	00000000	00000013	addi	x0,x0,0	  x0:0x00000000
       21475000	      2146	80001b58	00000013	addi	x0,x0,0	  x0:0x00000000
       21485000	      2147	80001b5c	01355c63	bge	x10,x19,80001b74	 x10:0x80009f78 x19:0x80009fc4
       21495000	      2148	80001b60	b13c3413	sltiu	x8,x24,-1261	 x24:0x600027f1  x8=0x00000001
       21505000	      2149	80001b64	8a254e37	lui	x28,0x8a254	 x28=0x8a254000
       21515000	      2150	80001b68	02a8cc63	blt	x17,x10,80001ba0	 x17:0x7fff603c x10:0x80009f78
       21525000	      2151	80001b6c	00890263	beq	x18,x8,80001b70	 x18:0x000007e4  x8:0x00000001
       21535000	      2152	80001b70	448b0413	addi	x8,x22,1096	 x22:0x80009f78  x8=0x8000a3c0
       21545000	      2153	80001b74	001d6f33	or	x30,x26,x1	 x26:0xfb7092cc  x1:0xc0004fe2 x30=0xfb70dfee
       21555000	      2154	80001b78	5ea3e693	ori	x13,x7,1514	  x7:0xfb7092cc x13=0xfb7097ee
       21565000	      2155	80001b7c	f0d28293	addi	x5,x5,-243	  x5:0x00000001  x5=0xffffff0e
       21575000	      2156	80001b80	87ae7e37	lui	x28,0x87ae7	 x28=0x87ae7000
       21585000	      2157	80001b84	086be463	bltu	x23,x6,80001c0c	 x23:0x1ff593d7  x6:0xffffffff
       21595000	      2158	00000000	00000013	addi	x0,x0,0	  x0:0x00000000
       21605000	      2159	80001c08	00000013	addi	x0,x0,0	  x0:0x00000000
       21615000	      2160	80001c0c	013da133	slt	x2,x27,x19	 x27:0x000004fd x19:0x80009fc4  x2=0x00000000
       21625000	      2161	80001c10	e2467713	andi	x14,x12,-476	 x12:0x00000282 x14=0x00000200
       21635000	      2162	80001c14	41375533	sra	x10,x14,x19	 x14:0x00000200 x19:0x80009fc4 x10=0x00000020
       21645000	      2163	80001c18	88417393	andi	x7,x2,-1916	  x2:0x00000000  x7=0x00000000
       21655000	      2164	80001c1c	017c2433	slt	x8,x24,x23	 x24:0x600027f1 x23:0x1ff593d7  x8=0x00000000
       21665000	      2165	80001c20	015d1893	slli	x17,x26,0x15	 x26:0xfb7092cc x17=0x59800000
       21675000	      2166	80001c24	0196ca33	xor	x20,x13,x25	 x13:0xfb7097ee x25:0x49161000 x20=0xb26687ee
       21685000	      2167	80001c28	007c93b3	sll	x7,x25,x7	 x25:0x49161000  x7:0x00000000  x7=0x49161000
       21695000	      2168	80001c2c	499ac513	xori	x10,x21,1177	 x21:0x1ff590e7 x10=0x1ff5947e
       21705000	      2169	80001c30	00000013	addi	x0,x0,0	  x0:0x00000000
       21715000	      2170	80001c34	03ed6463	bltu	x26,x30,80001c5c	 x26:0xfb7092cc x30:0xfb70dfee
       21725000	      2171	00000000	00000013	addi	x0,x0,0	  x0:0x00000000
       21735000	      2172	80001c58	00000013	addi	x0,x0,0	  x0:0x00000000
       21745000	      2173	80001c5c	0166ba33	sltu	x20,x13,x22	 x13:0xfb7097ee x22:0x80009f78 x20=0x00000000
       21755000	      2174	80001c60	00209633	sll	x12,x1,x2	  x1:0xc0004fe2  x2:0x00000000 x12=0xc0004fe2
       21765000	      2175	80001c64	004b2083	lw	x1,4(x22)	 x22:0x80009f78  x1=0x8000013c PA:0x80009f7c
       21775000	      2176	00000000	00000013	addi	x0,x0,0	  x0:0x00000000
       21785000	      2177	80001c68	0180a333	slt	x6,x1,x24	  x1:0x8000013c x24:0x600027f1  x6=0x00000001
       21795000	      2178	80001c6c	010afe33	and	x28,x21,x16	 x21:0x1ff590e7 x16:0x000007ec x28=0x000000e4
       21805000	      2179	80001c70	00000013	addi	x0,x0,0	  x0:0x00000000
       21815000	      2180	80001c74	01c7d893	srli	x17,x15,0x1c	 x15:0x00000000 x17=0x00000000
       21825000	      2181	80001c78	01ade733	or	x14,x27,x26	 x27:0x000004fd x26:0xfb7092cc x14=0xfb7096fd
       21835000	      2182	80001c7c	00cb0b13	addi	x22,x22,12	 x22:0x80009f78 x22=0x80009f84
       21845000	      2183	80001c80	00493633	sltu	x12,x18,x4	 x18:0x000007e4  x4:0x0000009f x12=0x00000000
       21855000	      2184	80001c84	00109413	slli	x8,x1,0x1	  x1:0x8000013c  x8=0x00000278
       21865000	      2185	80001c88	011996b3	sll	x13,x19,x17	 x19:0x80009fc4 x17:0x00000000 x13=0x80009fc4
       21875000	      2186	80001c8c	8bcf77b7	lui	x15,0x8bcf7	 x15=0x8bcf7000
       21885000	      2187	80001c90	00108613	addi	x12,x1,1	  x1:0x8000013c x12=0x8000013d
       21895000	      2188	80001c94	00060667	jalr	x12,x12,0	 x12:0x8000013d x12=0x80001c94
       21905000	      2189	00000000	00000013	addi	x0,x0,0	  x0:0x00000000
       21915000	      2190	8000013c	00000013	addi	x0,x0,0	  x0:0x00000000
       21925000	      2191	80000140	00b408b3	add	x17,x8,x11	  x8:0x00000278 x11:0x00000000 x17=0x00000278
       21935000	      2192	80000144	00002b97	auipc	x23,0x2	 x23=0x80002140
       21945000	      2193	80000148	564b8b93	addi	x23,x23,1380	 x23:0x80002140 x23=0x800026a4
       21955000	      2194	8000014c	38cb8b93	addi	x23,x23,908	 x23:0x800026a4 x23=0x80002a30
       21965000	      2195	80000150	ac183c93	sltiu	x25,x16,-1343	 x16:0x000007ec x25=0x00000001
       21975000	      2196	80000154	00197a63	bgeu	x18,x1,80000168	 x18:0x000007e4  x1:0x8000013c
       21985000	      2197	80000158	e787e4b7	lui	x9,0xe787e	  x9=0xe787e000
       21995000	      2198	8000015c	00f27fb3	and	x31,x4,x15	  x4:0x0000009f x15:0x8bcf7000 x31=0x00000000
       22005000	      2199	80000160	aea17a93	andi	x21,x2,-1302	  x2:0x00000000 x21=0x00000000
       22015000	      2200	80000164	00d85813	srli	x16,x16,0xd	 x16:0x000007ec x16=0x00000000
       22025000	      2201	80000168	c75b80e7	jalr	x1,x23,-907	 x23:0x80002a30  x1=0x80000168
       22035000	      2202	00000000	00000013	addi	x0,x0,0	  x0:0x00000000
       22045000	      2203	800026a4	00000013	addi	x0,x0,0	  x0:0x00000000
       22055000	      2204	800026a8	00f8d663	bge	x17,x15,800026b4	 x17:0x00000278 x15:0x8bcf7000
       22065000	      2205	00000000	00000013	addi	x0,x0,0	  x0:0x00000000
       22075000	      2206	800026b0	00000013	addi	x0,x0,0	  x0:0x00000000
       22085000	      2207	800026b4	fe0b0b13	addi	x22,x22,-32	 x22:0x80009f84 x22=0x80009f64
       22095000	      2208	800026b8	001b2223	sw	x1,4(x22)	 x22:0x80009f64  x1:0x80000168 PA:0x80009f68
       22105000	      2209	800026bc	59482793	slti	x15,x16,1428	 x16:0x00000000 x15=0x00000001
       22115000	      2210	800026c0	044000ef	jal	x1,800026c0	  x1=0x800026c0
       22125000	      2211	00000000	00000013	addi	x0,x0,0	  x0:0x00000000
       22135000	      2212	80002700	00000013	addi	x0,x0,0	  x0:0x00000000
       22145000	      2213	80002704	fc1ff36f	jal	x6,80002704	  x6=0x80002704
       22155000	      2214	00000000	00000013	addi	x0,x0,0	  x0:0x00000000
       22165000	      2215	800026c0	00000013	addi	x0,x0,0	  x0:0x00000000
       22175000	      2216	800026c4	0140036f	jal	x6,800026c4	  x6=0x800026c4
       22185000	      2217	00000000	00000013	addi	x0,x0,0	  x0:0x00000000
       22195000	      2218	800026d4	00000013	addi	x0,x0,0	  x0:0x00000000
       22205000	      2219	800026d8	0400046f	jal	x8,800026d8	  x8=0x800026d8
       22215000	      2220	00000000	00000013	addi	x0,x0,0	  x0:0x00000000
       22225000	      2221	80002714	00000013	addi	x0,x0,0	  x0:0x00000000
       22235000	      2222	80002718	ff9ff56f	jal	x10,80002718	 x10=0x80002718
       22245000	      2223	00000000	00000013	addi	x0,x0,0	  x0:0x00000000
       22255000	      2224	8000270c	00000013	addi	x0,x0,0	  x0:0x00000000
       22265000	      2225	80002710	ff9ff0ef	jal	x1,80002710	  x1=0x80002710
       22275000	      2226	00000000	00000013	addi	x0,x0,0	  x0:0x00000000
       22285000	      2227	80002704	00000013	addi	x0,x0,0	  x0:0x00000000
       22295000	      2228	80002708	fcdff26f	jal	x4,80002708	  x4=0x80002708
       22305000	      2229	00000000	00000013	addi	x0,x0,0	  x0:0x00000000
       22315000	      2230	800026d0	00000013	addi	x0,x0,0	  x0:0x00000000
       22325000	      2231	800026d4	ff9ff0ef	jal	x1,800026d4	  x1=0x800026d4
       22335000	      2232	00000000	00000013	addi	x0,x0,0	  x0:0x00000000
       22345000	      2233	800026c8	00000013	addi	x0,x0,0	  x0:0x00000000
       22355000	      2234	800026cc	048000ef	jal	x1,800026cc	  x1=0x800026cc
       22365000	      2235	00000000	00000013	addi	x0,x0,0	  x0:0x00000000
       22375000	      2236	80002710	00000013	addi	x0,x0,0	  x0:0x00000000
       22385000	      2237	80002714	fd1ff0ef	jal	x1,80002714	  x1=0x80002714
       22395000	      2238	00000000	00000013	addi	x0,x0,0	  x0:0x00000000
       22405000	      2239	800026e0	00000013	addi	x0,x0,0	  x0:0x00000000
       22415000	      2240	800026e4	ff9ff16f	jal	x2,800026e4	  x2=0x800026e4
       22425000	      2241	00000000	00000013	addi	x0,x0,0	  x0:0x00000000
       22435000	      2242	800026d8	00000013	addi	x0,x0,0	  x0:0x00000000
       22445000	      2243	800026dc	ff5ff0ef	jal	x1,800026dc	  x1=0x800026dc
       22455000	      2244	00000000	00000013	addi	x0,x0,0	  x0:0x00000000
       22465000	      2245	800026cc	00000013	addi	x0,x0,0	  x0:0x00000000
       22475000	      2246	800026d0	01c000ef	jal	x1,800026d0	  x1=0x800026d0
       22485000	      2247	00000000	00000013	addi	x0,x0,0	  x0:0x00000000
       22495000	      2248	800026e8	00000013	addi	x0,x0,0	  x0:0x00000000
       22505000	      2249	800026ec	ff5ff36f	jal	x6,800026ec	  x6=0x800026ec
       22515000	      2250	00000000	00000013	addi	x0,x0,0	  x0:0x00000000
       22525000	      2251	800026dc	00000013	addi	x0,x0,0	  x0:0x00000000
       22535000	      2252	800026e0	018000ef	jal	x1,800026e0	  x1=0x800026e0
       22545000	      2253	00000000	00000013	addi	x0,x0,0	  x0:0x00000000
       22555000	      2254	800026f4	00000013	addi	x0,x0,0	  x0:0x00000000
       22565000	      2255	800026f8	fd1ff0ef	jal	x1,800026f8	  x1=0x800026f8
       22575000	      2256	00000000	00000013	addi	x0,x0,0	  x0:0x00000000
       22585000	      2257	800026c4	00000013	addi	x0,x0,0	  x0:0x00000000
       22595000	      2258	800026c8	044000ef	jal	x1,800026c8	  x1=0x800026c8
       22605000	      2259	00000000	00000013	addi	x0,x0,0	  x0:0x00000000
       22615000	      2260	80002708	00000013	addi	x0,x0,0	  x0:0x00000000
       22625000	      2261	8000270c	0100036f	jal	x6,8000270c	  x6=0x8000270c
       22635000	      2262	00000000	00000013	addi	x0,x0,0	  x0:0x00000000
       22645000	      2263	80002718	00000013	addi	x0,x0,0	  x0:0x00000000
       22655000	      2264	8000271c	fcdff0ef	jal	x1,8000271c	  x1=0x8000271c
       22665000	      2265	00000000	00000013	addi	x0,x0,0	  x0:0x00000000
       22675000	      2266	800026e4	00000013	addi	x0,x0,0	  x0:0x00000000
       22685000	      2267	800026e8	00c0036f	jal	x6,800026e8	  x6=0x800026e8
       22695000	      2268	00000000	00000013	addi	x0,x0,0	  x0:0x00000000
       22705000	      2269	800026f0	00000013	addi	x0,x0,0	  x0:0x00000000
       22715000	      2270	800026f4	0080036f	jal	x6,800026f4	  x6=0x800026f4
       22725000	      2271	00000000	00000013	addi	x0,x0,0	  x0:0x00000000
       22735000	      2272	800026f8	00000013	addi	x0,x0,0	  x0:0x00000000
       22745000	      2273	800026fc	0040036f	jal	x6,800026fc	  x6=0x800026fc
       22755000	      2274	00000000	00000013	addi	x0,x0,0	  x0:0x00000000
       22765000	      2275	800026fc	00000013	addi	x0,x0,0	  x0:0x00000000
       22775000	      2276	80002700	ff1ff0ef	jal	x1,80002700	  x1=0x80002700
       22785000	      2277	00000000	00000013	addi	x0,x0,0	  x0:0x00000000
       22795000	      2278	800026ec	00000013	addi	x0,x0,0	  x0:0x00000000
       22805000	      2279	800026f0	030000ef	jal	x1,800026f0	  x1=0x800026f0
       22815000	      2280	00000000	00000013	addi	x0,x0,0	  x0:0x00000000
       22825000	      2281	8000271c	00000013	addi	x0,x0,0	  x0:0x00000000
       22835000	      2282	80002720	6d788793	addi	x15,x17,1751	 x17:0x00000278 x15=0x0000094f
       22845000	      2283	80002724	028000ef	jal	x1,80002724	  x1=0x80002724
       22855000	      2284	00000000	00000013	addi	x0,x0,0	  x0:0x00000000
       22865000	      2285	80002748	00000013	addi	x0,x0,0	  x0:0x00000000
       22875000	      2286	8000274c	fe9ff2ef	jal	x5,8000274c	  x5=0x8000274c
       22885000	      2287	00000000	00000013	addi	x0,x0,0	  x0:0x00000000
       22895000	      2288	80002730	00000013	addi	x0,x0,0	  x0:0x00000000
       22905000	      2289	80002734	00c00fef	jal	x31,80002734	 x31=0x80002734
       22915000	      2290	00000000	00000013	addi	x0,x0,0	  x0:0x00000000
       22925000	      2291	8000273c	00000013	addi	x0,x0,0	  x0:0x00000000
       22935000	      2292	80002740	ffdffcef	jal	x25,80002740	 x25=0x80002740
       22945000	      2293	00000000	00000013	addi	x0,x0,0	  x0:0x00000000
       22955000	      2294	80002738	00000013	addi	x0,x0,0	  x0:0x00000000
       22965000	      2295	8000273c	00c00f6f	jal	x30,8000273c	 x30=0x8000273c
       22975000	      2296	00000000	00000013	addi	x0,x0,0	  x0:0x00000000
       22985000	      2297	80002744	00000013	addi	x0,x0,0	  x0:0x00000000
       22995000	      2298	80002748	fe1ff0ef	jal	x1,80002748	  x1=0x80002748
       23005000	      2299	00000000	00000013	addi	x0,x0,0	  x0:0x00000000
       23015000	      2300	80002724	00000013	addi	x0,x0,0	  x0:0x00000000
       23025000	      2301	80002728	0040036f	jal	x6,80002728	  x6=0x80002728
       23035000	      2302	00000000	00000013	addi	x0,x0,0	  x0:0x00000000
       23045000	      2303	80002728	00000013	addi	x0,x0,0	  x0:0x00000000
       23055000	      2304	8000272c	0180086f	jal	x16,8000272c	 x16=0x8000272c
       23065000	      2305	00000000	00000013	addi	x0,x0,0	  x0:0x00000000
       23075000	      2306	80002740	00000013	addi	x0,x0,0	  x0:0x00000000
       23085000	      2307	80002744	fedff0ef	jal	x1,80002744	  x1=0x80002744
       23095000	      2308	00000000	00000013	addi	x0,x0,0	  x0:0x00000000
       23105000	      2309	8000272c	00000013	addi	x0,x0,0	  x0:0x00000000
       23115000	      2310	80002730	02000f6f	jal	x30,80002730	 x30=0x80002730
       23125000	      2311	00000000	00000013	addi	x0,x0,0	  x0:0x00000000
       23135000	      2312	8000274c	00000013	addi	x0,x0,0	  x0:0x00000000
       23145000	      2313	80002750	fe9ff36f	jal	x6,80002750	  x6=0x80002750
       23155000	      2314	00000000	00000013	addi	x0,x0,0	  x0:0x00000000
       23165000	      2315	80002734	00000013	addi	x0,x0,0	  x0:0x00000000
       23175000	      2316	80002738	01c0036f	jal	x6,80002738	  x6=0x80002738
       23185000	      2317	00000000	00000013	addi	x0,x0,0	  x0:0x00000000
       23195000	      2318	80002750	00000013	addi	x0,x0,0	  x0:0x00000000
       23205000	      2319	80002754	9f794a13	xori	x20,x18,-1545	 x18:0x000007e4 x20=0xfffffe13
       23215000	      2320	80002758	014000ef	jal	x1,80002758	  x1=0x80002758
       23225000	      2321	00000000	00000013	addi	x0,x0,0	  x0:0x00000000
       23235000	      2322	80002768	00000013	addi	x0,x0,0	  x0:0x00000000
       23245000	      2323	8000276c	010000ef	jal	x1,8000276c	  x1=0x8000276c
       23255000	      2324	00000000	00000013	addi	x0,x0,0	  x0:0x00000000
       23265000	      2325	80002778	00000013	addi	x0,x0,0	  x0:0x00000000
       23275000	      2326	8000277c	030000ef	jal	x1,8000277c	  x1=0x8000277c
       23285000	      2327	00000000	00000013	addi	x0,x0,0	  x0:0x00000000
       23295000	      2328	800027a8	00000013	addi	x0,x0,0	  x0:0x00000000
       23305000	      2329	800027ac	fe1ff96f	jal	x18,800027ac	 x18=0x800027ac
       23315000	      2330	00000000	00000013	addi	x0,x0,0	  x0:0x00000000
       23325000	      2331	80002788	00000013	addi	x0,x0,0	  x0:0x00000000
       23335000	      2332	8000278c	0080036f	jal	x6,8000278c	  x6=0x8000278c
       23345000	      2333	00000000	00000013	addi	x0,x0,0	  x0:0x00000000
       23355000	      2334	80002790	00000013	addi	x0,x0,0	  x0:0x00000000
       23365000	      2335	80002794	fddff0ef	jal	x1,80002794	  x1=0x80002794
       23375000	      2336	00000000	00000013	addi	x0,x0,0	  x0:0x00000000
       23385000	      2337	8000276c	00000013	addi	x0,x0,0	  x0:0x00000000
       23395000	      2338	80002770	02c000ef	jal	x1,80002770	  x1=0x80002770
       23405000	      2339	00000000	00000013	addi	x0,x0,0	  x0:0x00000000
       23415000	      2340	80002798	00000013	addi	x0,x0,0	  x0:0x00000000
       23425000	      2341	8000279c	fc1ff66f	jal	x12,8000279c	 x12=0x8000279c
       23435000	      2342	00000000	00000013	addi	x0,x0,0	  x0:0x00000000
       23445000	      2343	80002758	00000013	addi	x0,x0,0	  x0:0x00000000
       23455000	      2344	8000275c	04c0036f	jal	x6,8000275c	  x6=0x8000275c
       23465000	      2345	00000000	00000013	addi	x0,x0,0	  x0:0x00000000
       23475000	      2346	800027a4	00000013	addi	x0,x0,0	  x0:0x00000000
       23485000	      2347	800027a8	fc1ff7ef	jal	x15,800027a8	 x15=0x800027a8
       23495000	      2348	00000000	00000013	addi	x0,x0,0	  x0:0x00000000
       23505000	      2349	80002764	00000013	addi	x0,x0,0	  x0:0x00000000
       23515000	      2350	80002768	00c0036f	jal	x6,80002768	  x6=0x80002768
       23525000	      2351	00000000	00000013	addi	x0,x0,0	  x0:0x00000000
       23535000	      2352	80002770	00000013	addi	x0,x0,0	  x0:0x00000000
       23545000	      2353	80002774	024000ef	jal	x1,80002774	  x1=0x80002774
       23555000	      2354	00000000	00000013	addi	x0,x0,0	  x0:0x00000000
       23565000	      2355	80002794	00000013	addi	x0,x0,0	  x0:0x00000000
       23575000	      2356	80002798	008000ef	jal	x1,80002798	  x1=0x80002798
       23585000	      2357	00000000	00000013	addi	x0,x0,0	  x0:0x00000000
       23595000	      2358	8000279c	00000013	addi	x0,x0,0	  x0:0x00000000
       23605000	      2359	800027a0	fd9ff0ef	jal	x1,800027a0	  x1=0x800027a0
       23615000	      2360	00000000	00000013	addi	x0,x0,0	  x0:0x00000000
       23625000	      2361	80002774	00000013	addi	x0,x0,0	  x0:0x00000000
       23635000	      2362	80002778	010000ef	jal	x1,80002778	  x1=0x80002778
       23645000	      2363	00000000	00000013	addi	x0,x0,0	  x0:0x00000000
       23655000	      2364	80002784	00000013	addi	x0,x0,0	  x0:0x00000000
       23665000	      2365	80002788	ff9ff36f	jal	x6,80002788	  x6=0x80002788
       23675000	      2366	00000000	00000013	addi	x0,x0,0	  x0:0x00000000
       23685000	      2367	8000277c	00000013	addi	x0,x0,0	  x0:0x00000000
       23695000	      2368	80002780	0040036f	jal	x6,80002780	  x6=0x80002780
       23705000	      2369	00000000	00000013	addi	x0,x0,0	  x0:0x00000000
       23715000	      2370	80002780	00000013	addi	x0,x0,0	  x0:0x00000000
       23725000	      2371	80002784	fddff0ef	jal	x1,80002784	  x1=0x80002784
       23735000	      2372	00000000	00000013	addi	x0,x0,0	  x0:0x00000000
       23745000	      2373	8000275c	00000013	addi	x0,x0,0	  x0:0x00000000
       23755000	      2374	80002760	0040036f	jal	x6,80002760	  x6=0x80002760
       23765000	      2375	00000000	00000013	addi	x0,x0,0	  x0:0x00000000
       23775000	      2376	80002760	00000013	addi	x0,x0,0	  x0:0x00000000
       23785000	      2377	80002764	02c0036f	jal	x6,80002764	  x6=0x80002764
       23795000	      2378	00000000	00000013	addi	x0,x0,0	  x0:0x00000000
       23805000	      2379	8000278c	00000013	addi	x0,x0,0	  x0:0x00000000
       23815000	      2380	80002790	0140036f	jal	x6,80002790	  x6=0x80002790
       23825000	      2381	00000000	00000013	addi	x0,x0,0	  x0:0x00000000
       23835000	      2382	800027a0	00000013	addi	x0,x0,0	  x0:0x00000000
       23845000	      2383	800027a4	00c000ef	jal	x1,800027a4	  x1=0x800027a4
       23855000	      2384	00000000	00000013	addi	x0,x0,0	  x0:0x00000000
       23865000	      2385	800027ac	00000013	addi	x0,x0,0	  x0:0x00000000
       23875000	      2386	800027b0	01fec433	xor	x8,x29,x31	 x29:0x00000082 x31:0x80002734  x8=0x800027b6
       23885000	      2387	800027b4	01c000ef	jal	x1,800027b4	  x1=0x800027b4
       23895000	      2388	00000000	00000013	addi	x0,x0,0	  x0:0x00000000
       23905000	      2389	800027cc	00000013	addi	x0,x0,0	  x0:0x00000000
       23915000	      2390	800027d0	01c000ef	jal	x1,800027d0	  x1=0x800027d0
       23925000	      2391	00000000	00000013	addi	x0,x0,0	  x0:0x00000000
       23935000	      2392	800027e8	00000013	addi	x0,x0,0	  x0:0x00000000
       23945000	      2393	800027ec	ff9ff0ef	jal	x1,800027ec	  x1=0x800027ec
       23955000	      2394	00000000	00000013	addi	x0,x0,0	  x0:0x00000000
       23965000	      2395	800027e0	00000013	addi	x0,x0,0	  x0:0x00000000
       23975000	      2396	800027e4	fddff36f	jal	x6,800027e4	  x6=0x800027e4
       23985000	      2397	00000000	00000013	addi	x0,x0,0	  x0:0x00000000
       23995000	      2398	800027bc	00000013	addi	x0,x0,0	  x0:0x00000000
       24005000	      2399	800027c0	008001ef	jal	x3,800027c0	  x3=0x800027c0
       24015000	      2400	00000000	00000013	addi	x0,x0,0	  x0:0x00000000
       24025000	      2401	800027c4	00000013	addi	x0,x0,0	  x0:0x00000000
       24035000	      2402	800027c8	0100036f	jal	x6,800027c8	  x6=0x800027c8
       24045000	      2403	00000000	00000013	addi	x0,x0,0	  x0:0x00000000
       24055000	      2404	800027d4	00000013	addi	x0,x0,0	  x0:0x00000000
       24065000	      2405	800027d8	fe1ff0ef	jal	x1,800027d8	  x1=0x800027d8
       24075000	      2406	00000000	00000013	addi	x0,x0,0	  x0:0x00000000
       24085000	      2407	800027b4	00000013	addi	x0,x0,0	  x0:0x00000000
       24095000	      2408	800027b8	03000eef	jal	x29,800027b8	 x29=0x800027b8
       24105000	      2409	00000000	00000013	addi	x0,x0,0	  x0:0x00000000
       24115000	      2410	800027e4	00000013	addi	x0,x0,0	  x0:0x00000000
       24125000	      2411	800027e8	ff9ff16f	jal	x2,800027e8	  x2=0x800027e8
       24135000	      2412	00000000	00000013	addi	x0,x0,0	  x0:0x00000000
       24145000	      2413	800027dc	00000013	addi	x0,x0,0	  x0:0x00000000
       24155000	      2414	800027e0	fedff0ef	jal	x1,800027e0	  x1=0x800027e0
       24165000	      2415	00000000	00000013	addi	x0,x0,0	  x0:0x00000000
       24175000	      2416	800027c8	00000013	addi	x0,x0,0	  x0:0x00000000
       24185000	      2417	800027cc	ff1ff2ef	jal	x5,800027cc	  x5=0x800027cc
       24195000	      2418	00000000	00000013	addi	x0,x0,0	  x0:0x00000000
       24205000	      2419	800027b8	00000013	addi	x0,x0,0	  x0:0x00000000
       24215000	      2420	800027bc	034000ef	jal	x1,800027bc	  x1=0x800027bc
       24225000	      2421	00000000	00000013	addi	x0,x0,0	  x0:0x00000000
       24235000	      2422	800027ec	00000013	addi	x0,x0,0	  x0:0x00000000
       24245000	      2423	800027f0	fe5ff0ef	jal	x1,800027f0	  x1=0x800027f0
       24255000	      2424	00000000	00000013	addi	x0,x0,0	  x0:0x00000000
       24265000	      2425	800027d0	00000013	addi	x0,x0,0	  x0:0x00000000
       24275000	      2426	800027d4	ff1ff36f	jal	x6,800027d4	  x6=0x800027d4
       24285000	      2427	00000000	00000013	addi	x0,x0,0	  x0:0x00000000
       24295000	      2428	800027c0	00000013	addi	x0,x0,0	  x0:0x00000000
       24305000	      2429	800027c4	018000ef	jal	x1,800027c4	  x1=0x800027c4
       24315000	      2430	00000000	00000013	addi	x0,x0,0	  x0:0x00000000
       24325000	      2431	800027d8	00000013	addi	x0,x0,0	  x0:0x00000000
       24335000	      2432	800027dc	0180026f	jal	x4,800027dc	  x4=0x800027dc
       24345000	      2433	00000000	00000013	addi	x0,x0,0	  x0:0x00000000
       24355000	      2434	800027f0	00000013	addi	x0,x0,0	  x0:0x00000000
       24365000	      2435	800027f4	1ce34a93	xori	x21,x6,462	  x6:0x800027d4 x21=0x8000261a
       24375000	      2436	800027f8	044000ef	jal	x1,800027f8	  x1=0x800027f8
       24385000	      2437	00000000	00000013	addi	x0,x0,0	  x0:0x00000000
       24395000	      2438	80002838	00000013	addi	x0,x0,0	  x0:0x00000000
       24405000	      2439	8000283c	010000ef	jal	x1,8000283c	  x1=0x8000283c
       24415000	      2440	00000000	00000013	addi	x0,x0,0	  x0:0x00000000
       24425000	      2441	80002848	00000013	addi	x0,x0,0	  x0:0x00000000
       24435000	      2442	8000284c	fedff0ef	jal	x1,8000284c	  x1=0x8000284c
       24445000	      2443	00000000	00000013	addi	x0,x0,0	  x0:0x00000000
       24455000	      2444	80002834	00000013	addi	x0,x0,0	  x0:0x00000000
       24465000	      2445	80002838	010000ef	jal	x1,80002838	  x1=0x80002838
       24475000	      2446	00000000	00000013	addi	x0,x0,0	  x0:0x00000000
       24485000	      2447	80002844	00000013	addi	x0,x0,0	  x0:0x00000000
       24495000	      2448	80002848	fc9ff7ef	jal	x15,80002848	 x15=0x80002848
       24505000	      2449	00000000	00000013	addi	x0,x0,0	  x0:0x00000000
       24515000	      2450	8000280c	00000013	addi	x0,x0,0	  x0:0x00000000
       24525000	      2451	80002810	004000ef	jal	x1,80002810	  x1=0x80002810
       24535000	      2452	00000000	00000013	addi	x0,x0,0	  x0:0x00000000
       24545000	      2453	80002810	00000013	addi	x0,x0,0	  x0:0x00000000
       24555000	      2454	80002814	01800fef	jal	x31,80002814	 x31=0x80002814
       24565000	      2455	00000000	00000013	addi	x0,x0,0	  x0:0x00000000
       24575000	      2456	80002828	00000013	addi	x0,x0,0	  x0:0x00000000
       24585000	      2457	8000282c	ff1ff0ef	jal	x1,8000282c	  x1=0x8000282c
       24595000	      2458	00000000	00000013	addi	x0,x0,0	  x0:0x00000000
       24605000	      2459	80002818	00000013	addi	x0,x0,0	  x0:0x00000000
       24615000	      2460	8000281c	038002ef	jal	x5,8000281c	  x5=0x8000281c
       24625000	      2461	00000000	00000013	addi	x0,x0,0	  x0:0x00000000
       24635000	      2462	80002850	00000013	addi	x0,x0,0	  x0:0x00000000
       24645000	      2463	80002854	fcdff36f	jal	x6,80002854	  x6=0x80002854
       24655000	      2464	00000000	00000013	addi	x0,x0,0	  x0:0x00000000
       24665000	      2465	8000281c	00000013	addi	x0,x0,0	  x0:0x00000000
       24675000	      2466	80002820	fe1ff16f	jal	x2,80002820	  x2=0x80002820
       24685000	      2467	00000000	00000013	addi	x0,x0,0	  x0:0x00000000
       24695000	      2468	800027fc	00000013	addi	x0,x0,0	  x0:0x00000000
       24705000	      2469	80002800	024000ef	jal	x1,80002800	  x1=0x80002800
       24715000	      2470	00000000	00000013	addi	x0,x0,0	  x0:0x00000000
       24725000	      2471	80002820	00000013	addi	x0,x0,0	  x0:0x00000000
       24735000	      2472	80002824	0200036f	jal	x6,80002824	  x6=0x80002824
       24745000	      2473	00000000	00000013	addi	x0,x0,0	  x0:0x00000000
       24755000	      2474	80002840	00000013	addi	x0,x0,0	  x0:0x00000000
       24765000	      2475	80002844	fb9ff0ef	jal	x1,80002844	  x1=0x80002844
       24775000	      2476	00000000	00000013	addi	x0,x0,0	  x0:0x00000000
       24785000	      2477	800027f8	00000013	addi	x0,x0,0	  x0:0x00000000
       24795000	      2478	800027fc	00c0036f	jal	x6,800027fc	  x6=0x800027fc
       24805000	      2479	00000000	00000013	addi	x0,x0,0	  x0:0x00000000
       24815000	      2480	80002804	00000013	addi	x0,x0,0	  x0:0x00000000
       24825000	      2481	80002808	0280096f	jal	x18,80002808	 x18=0x80002808
       24835000	      2482	00000000	00000013	addi	x0,x0,0	  x0:0x00000000
       24845000	      2483	8000282c	00000013	addi	x0,x0,0	  x0:0x00000000
       24855000	      2484	80002830	fe9ffcef	jal	x25,80002830	 x25=0x80002830
       24865000	      2485	00000000	00000013	addi	x0,x0,0	  x0:0x00000000
       24875000	      2486	80002814	00000013	addi	x0,x0,0	  x0:0x00000000
       24885000	      2487	80002818	038000ef	jal	x1,80002818	  x1=0x80002818
       24895000	      2488	00000000	00000013	addi	x0,x0,0	  x0:0x00000000
       24905000	      2489	8000284c	00000013	addi	x0,x0,0	  x0:0x00000000
       24915000	      2490	80002850	ff1ff0ef	jal	x1,80002850	  x1=0x80002850
       24925000	      2491	00000000	00000013	addi	x0,x0,0	  x0:0x00000000
       24935000	      2492	8000283c	00000013	addi	x0,x0,0	  x0:0x00000000
       24945000	      2493	80002840	ff5ff0ef	jal	x1,80002840	  x1=0x80002840
       24955000	      2494	00000000	00000013	addi	x0,x0,0	  x0:0x00000000
       24965000	      2495	80002830	00000013	addi	x0,x0,0	  x0:0x00000000
       24975000	      2496	80002834	fd9ff0ef	jal	x1,80002834	  x1=0x80002834
       24985000	      2497	00000000	00000013	addi	x0,x0,0	  x0:0x00000000
       24995000	      2498	80002808	00000013	addi	x0,x0,0	  x0:0x00000000
       25005000	      2499	8000280c	ff9ff36f	jal	x6,8000280c	  x6=0x8000280c
       25015000	      2500	00000000	00000013	addi	x0,x0,0	  x0:0x00000000
       25025000	      2501	80002800	00000013	addi	x0,x0,0	  x0:0x00000000
       25035000	      2502	80002804	0240036f	jal	x6,80002804	  x6=0x80002804
       25045000	      2503	00000000	00000013	addi	x0,x0,0	  x0:0x00000000
       25055000	      2504	80002824	00000013	addi	x0,x0,0	  x0:0x00000000
       25065000	      2505	80002828	030000ef	jal	x1,80002828	  x1=0x80002828
       25075000	      2506	00000000	00000013	addi	x0,x0,0	  x0:0x00000000
       25085000	      2507	80002854	00000013	addi	x0,x0,0	  x0:0x00000000
       25095000	      2508	80002858	41155713	srai	x14,x10,0x11	 x10:0x80002718 x14=0xffffc000
       25105000	      2509	8000285c	024000ef	jal	x1,8000285c	  x1=0x8000285c
       25115000	      2510	00000000	00000013	addi	x0,x0,0	  x0:0x00000000
       25125000	      2511	8000287c	00000013	addi	x0,x0,0	  x0:0x00000000
       25135000	      2512	80002880	fedffcef	jal	x25,80002880	 x25=0x80002880
       25145000	      2513	00000000	00000013	addi	x0,x0,0	  x0:0x00000000
       25155000	      2514	80002868	00000013	addi	x0,x0,0	  x0:0x00000000
       25165000	      2515	8000286c	03c000ef	jal	x1,8000286c	  x1=0x8000286c
       25175000	      2516	00000000	00000013	addi	x0,x0,0	  x0:0x00000000
       25185000	      2517	800028a4	00000013	addi	x0,x0,0	  x0:0x00000000
       25195000	      2518	800028a8	ff9ff56f	jal	x10,800028a8	 x10=0x800028a8
       25205000	      2519	00000000	00000013	addi	x0,x0,0	  x0:0x00000000
       25215000	      2520	8000289c	00000013	addi	x0,x0,0	  x0:0x00000000
       25225000	      2521	800028a0	fddff0ef	jal	x1,800028a0	  x1=0x800028a0
       25235000	      2522	00000000	00000013	addi	x0,x0,0	  x0:0x00000000
       25245000	      2523	80002878	00000013	addi	x0,x0,0	  x0:0x00000000
       25255000	      2524	8000287c	ff5ffeef	jal	x29,8000287c	 x29=0x8000287c
       25265000	      2525	00000000	00000013	addi	x0,x0,0	  x0:0x00000000
       25275000	      2526	8000286c	00000013	addi	x0,x0,0	  x0:0x00000000
       25285000	      2527	80002870	0200036f	jal	x6,80002870	  x6=0x80002870
       25295000	      2528	00000000	00000013	addi	x0,x0,0	  x0:0x00000000
       25305000	      2529	8000288c	00000013	addi	x0,x0,0	  x0:0x00000000
       25315000	      2530	80002890	fd1ff4ef	jal	x9,80002890	  x9=0x80002890
       25325000	      2531	00000000	00000013	addi	x0,x0,0	  x0:0x00000000
       25335000	      2532	8000285c	00000013	addi	x0,x0,0	  x0:0x00000000
       25345000	      2533	80002860	04c000ef	jal	x1,80002860	  x1=0x80002860
       25355000	      2534	00000000	00000013	addi	x0,x0,0	  x0:0x00000000
       25365000	      2535	800028a8	00000013	addi	x0,x0,0	  x0:0x00000000
       25375000	      2536	800028ac	fc9ff0ef	jal	x1,800028ac	  x1=0x800028ac
       25385000	      2537	00000000	00000013	addi	x0,x0,0	  x0:0x00000000
       25395000	      2538	80002870	00000013	addi	x0,x0,0	  x0:0x00000000
       25405000	      2539	80002874	058000ef	jal	x1,80002874	  x1=0x80002874
       25415000	      2540	00000000	00000013	addi	x0,x0,0	  x0:0x00000000
       25425000	      2541	800028c8	00000013	addi	x0,x0,0	  x0:0x00000000
       25435000	      2542	800028cc	fedff0ef	jal	x1,800028cc	  x1=0x800028cc
       25445000	      2543	00000000	00000013	addi	x0,x0,0	  x0:0x00000000
       25455000	      2544	800028b4	00000013	addi	x0,x0,0	  x0:0x00000000
       25465000	      2545	800028b8	018000ef	jal	x1,800028b8	  x1=0x800028b8
       25475000	      2546	00000000	00000013	addi	x0,x0,0	  x0:0x00000000
       25485000	      2547	800028cc	00000013	addi	x0,x0,0	  x0:0x00000000
       25495000	      2548	800028d0	fc5ff0ef	jal	x1,800028d0	  x1=0x800028d0
       25505000	      2549	00000000	00000013	addi	x0,x0,0	  x0:0x00000000
       25515000	      2550	80002890	00000013	addi	x0,x0,0	  x0:0x00000000
       25525000	      2551	80002894	fd1ff0ef	jal	x1,80002894	  x1=0x80002894
       25535000	      2552	00000000	00000013	addi	x0,x0,0	  x0:0x00000000
       25545000	      2553	80002860	00000013	addi	x0,x0,0	  x0:0x00000000
       25555000	      2554	80002864	05c000ef	jal	x1,80002864	  x1=0x80002864
       25565000	      2555	00000000	00000013	addi	x0,x0,0	  x0:0x00000000
       25575000	      2556	800028bc	00000013	addi	x0,x0,0	  x0:0x00000000
       25585000	      2557	800028c0	fc5ff0ef	jal	x1,800028c0	  x1=0x800028c0
       25595000	      2558	00000000	00000013	addi	x0,x0,0	  x0:0x00000000
       25605000	      2559	80002880	00000013	addi	x0,x0,0	  x0:0x00000000
       25615000	      2560	80002884	008000ef	jal	x1,80002884	  x1=0x80002884
       25625000	      2561	00000000	00000013	addi	x0,x0,0	  x0:0x00000000
       25635000	      2562	80002888	00000013	addi	x0,x0,0	  x0:0x00000000
       25645000	      2563	8000288c	fedff1ef	jal	x3,8000288c	  x3=0x8000288c
       25655000	      2564	00000000	00000013	addi	x0,x0,0	  x0:0x00000000
       25665000	      2565	80002874	00000013	addi	x0,x0,0	  x0:0x00000000
       25675000	      2566	80002878	024000ef	jal	x1,80002878	  x1=0x80002878
       25685000	      2567	00000000	00000013	addi	x0,x0,0	  x0:0x00000000
       25695000	      2568	80002898	00000013	addi	x0,x0,0	  x0:0x00000000
       25705000	      2569	8000289c	fcdff36f	jal	x6,8000289c	  x6=0x8000289c
       25715000	      2570	00000000	00000013	addi	x0,x0,0	  x0:0x00000000
       25725000	      2571	80002864	00000013	addi	x0,x0,0	  x0:0x00000000
       25735000	      2572	80002868	04c0076f	jal	x14,80002868	 x14=0x80002868
       25745000	      2573	00000000	00000013	addi	x0,x0,0	  x0:0x00000000
       25755000	      2574	800028b0	00000013	addi	x0,x0,0	  x0:0x00000000
       25765000	      2575	800028b4	014000ef	jal	x1,800028b4	  x1=0x800028b4
       25775000	      2576	00000000	00000013	addi	x0,x0,0	  x0:0x00000000
       25785000	      2577	800028c4	00000013	addi	x0,x0,0	  x0:0x00000000
       25795000	      2578	800028c8	fe9ff2ef	jal	x5,800028c8	  x5=0x800028c8
       25805000	      2579	00000000	00000013	addi	x0,x0,0	  x0:0x00000000
       25815000	      2580	800028ac	00000013	addi	x0,x0,0	  x0:0x00000000
       25825000	      2581	800028b0	ff5ff36f	jal	x6,800028b0	  x6=0x800028b0
       25835000	      2582	00000000	00000013	addi	x0,x0,0	  x0:0x00000000
       25845000	      2583	800028a0	00000013	addi	x0,x0,0	  x0:0x00000000
       25855000	      2584	800028a4	ff5ff0ef	jal	x1,800028a4	  x1=0x800028a4
       25865000	      2585	00000000	00000013	addi	x0,x0,0	  x0:0x00000000
       25875000	      2586	80002894	00000013	addi	x0,x0,0	  x0:0x00000000
       25885000	      2587	80002898	0240026f	jal	x4,80002898	  x4=0x80002898
       25895000	      2588	00000000	00000013	addi	x0,x0,0	  x0:0x00000000
       25905000	      2589	800028b8	00000013	addi	x0,x0,0	  x0:0x00000000
       25915000	      2590	800028bc	fcdff0ef	jal	x1,800028bc	  x1=0x800028bc
       25925000	      2591	00000000	00000013	addi	x0,x0,0	  x0:0x00000000
       25935000	      2592	80002884	00000013	addi	x0,x0,0	  x0:0x00000000
       25945000	      2593	80002888	03c003ef	jal	x7,80002888	  x7=0x80002888
       25955000	      2594	00000000	00000013	addi	x0,x0,0	  x0:0x00000000
       25965000	      2595	800028c0	00000013	addi	x0,x0,0	  x0:0x00000000
       25975000	      2596	800028c4	010000ef	jal	x1,800028c4	  x1=0x800028c4
       25985000	      2597	00000000	00000013	addi	x0,x0,0	  x0:0x00000000
       25995000	      2598	800028d0	00000013	addi	x0,x0,0	  x0:0x00000000
       26005000	      2599	800028d4	32cda193	slti	x3,x27,812	 x27:0x000004fd  x3=0x00000000
       26015000	      2600	800028d8	044000ef	jal	x1,800028d8	  x1=0x800028d8
       26025000	      2601	00000000	00000013	addi	x0,x0,0	  x0:0x00000000
       26035000	      2602	80002918	00000013	addi	x0,x0,0	  x0:0x00000000
       26045000	      2603	8000291c	fc5ff36f	jal	x6,8000291c	  x6=0x8000291c
       26055000	      2604	00000000	00000013	addi	x0,x0,0	  x0:0x00000000
       26065000	      2605	800028dc	00000013	addi	x0,x0,0	  x0:0x00000000
       26075000	      2606	800028e0	0080096f	jal	x18,800028e0	 x18=0x800028e0
       26085000	      2607	00000000	00000013	addi	x0,x0,0	  x0:0x00000000
       26095000	      2608	800028e4	00000013	addi	x0,x0,0	  x0:0x00000000
       26105000	      2609	800028e8	0180036f	jal	x6,800028e8	  x6=0x800028e8
       26115000	      2610	00000000	00000013	addi	x0,x0,0	  x0:0x00000000
       26125000	      2611	800028fc	00000013	addi	x0,x0,0	  x0:0x00000000
       26135000	      2612	80002900	018000ef	jal	x1,80002900	  x1=0x80002900
       26145000	      2613	00000000	00000013	addi	x0,x0,0	  x0:0x00000000
       26155000	      2614	80002914	00000013	addi	x0,x0,0	  x0:0x00000000
       26165000	      2615	80002918	fddff36f	jal	x6,80002918	  x6=0x80002918
       26175000	      2616	00000000	00000013	addi	x0,x0,0	  x0:0x00000000
       26185000	      2617	800028f0	00000013	addi	x0,x0,0	  x0:0x00000000
       26195000	      2618	800028f4	fe9ff36f	jal	x6,800028f4	  x6=0x800028f4
       26205000	      2619	00000000	00000013	addi	x0,x0,0	  x0:0x00000000
       26215000	      2620	800028d8	00000013	addi	x0,x0,0	  x0:0x00000000
       26225000	      2621	800028dc	0100076f	jal	x14,800028dc	 x14=0x800028dc
       26235000	      2622	00000000	00000013	addi	x0,x0,0	  x0:0x00000000
       26245000	      2623	800028e8	00000013	addi	x0,x0,0	  x0:0x00000000
       26255000	      2624	800028ec	0200036f	jal	x6,800028ec	  x6=0x800028ec
       26265000	      2625	00000000	00000013	addi	x0,x0,0	  x0:0x00000000
       26275000	      2626	80002908	00000013	addi	x0,x0,0	  x0:0x00000000
       26285000	      2627	8000290c	ff1ff66f	jal	x12,8000290c	 x12=0x8000290c
       26295000	      2628	00000000	00000013	addi	x0,x0,0	  x0:0x00000000
       26305000	      2629	800028f8	00000013	addi	x0,x0,0	  x0:0x00000000
       26315000	      2630	800028fc	ff5ff0ef	jal	x1,800028fc	  x1=0x800028fc
       26325000	      2631	00000000	00000013	addi	x0,x0,0	  x0:0x00000000
       26335000	      2632	800028ec	00000013	addi	x0,x0,0	  x0:0x00000000
       26345000	      2633	800028f0	034000ef	jal	x1,800028f0	  x1=0x800028f0
       26355000	      2634	00000000	00000013	addi	x0,x0,0	  x0:0x00000000
       26365000	      2635	80002920	00000013	addi	x0,x0,0	  x0:0x00000000
       26375000	      2636	80002924	fe5ff1ef	jal	x3,80002924	  x3=0x80002924
       26385000	      2637	00000000	00000013	addi	x0,x0,0	  x0:0x00000000
       26395000	      2638	80002904	00000013	addi	x0,x0,0	  x0:0x00000000
       26405000	      2639	80002908	fddff36f	jal	x6,80002908	  x6=0x80002908
       26415000	      2640	00000000	00000013	addi	x0,x0,0	  x0:0x00000000
       26425000	      2641	800028e0	00000013	addi	x0,x0,0	  x0:0x00000000
       26435000	      2642	800028e4	03c000ef	jal	x1,800028e4	  x1=0x800028e4
       26445000	      2643	00000000	00000013	addi	x0,x0,0	  x0:0x00000000
       26455000	      2644	8000291c	00000013	addi	x0,x0,0	  x0:0x00000000
       26465000	      2645	80002920	fe5ff0ef	jal	x1,80002920	  x1=0x80002920
       26475000	      2646	00000000	00000013	addi	x0,x0,0	  x0:0x00000000
       26485000	      2647	80002900	00000013	addi	x0,x0,0	  x0:0x00000000
       26495000	      2648	80002904	00c006ef	jal	x13,80002904	 x13=0x80002904
       26505000	      2649	00000000	00000013	addi	x0,x0,0	  x0:0x00000000
       26515000	      2650	8000290c	00000013	addi	x0,x0,0	  x0:0x00000000
       26525000	      2651	80002910	fe9ff0ef	jal	x1,80002910	  x1=0x80002910
       26535000	      2652	00000000	00000013	addi	x0,x0,0	  x0:0x00000000
       26545000	      2653	800028f4	00000013	addi	x0,x0,0	  x0:0x00000000
       26555000	      2654	800028f8	01c00eef	jal	x29,800028f8	 x29=0x800028f8
       26565000	      2655	00000000	00000013	addi	x0,x0,0	  x0:0x00000000
       26575000	      2656	80002910	00000013	addi	x0,x0,0	  x0:0x00000000
       26585000	      2657	80002914	01400eef	jal	x29,80002914	 x29=0x80002914
       26595000	      2658	00000000	00000013	addi	x0,x0,0	  x0:0x00000000
       26605000	      2659	80002924	00000013	addi	x0,x0,0	  x0:0x00000000
       26615000	      2660	80002928	7b4e3213	sltiu	x4,x28,1972	 x28:0x000000e4  x4=0x00000001
       26625000	      2661	8000292c	058000ef	jal	x1,8000292c	  x1=0x8000292c
       26635000	      2662	00000000	00000013	addi	x0,x0,0	  x0:0x00000000
       26645000	      2663	80002980	00000013	addi	x0,x0,0	  x0:0x00000000
       26655000	      2664	80002984	ffdff0ef	jal	x1,80002984	  x1=0x80002984
       26665000	      2665	00000000	00000013	addi	x0,x0,0	  x0:0x00000000
       26675000	      2666	8000297c	00000013	addi	x0,x0,0	  x0:0x00000000
       26685000	      2667	80002980	fd5ff0ef	jal	x1,80002980	  x1=0x80002980
       26695000	      2668	00000000	00000013	addi	x0,x0,0	  x0:0x00000000
       26705000	      2669	80002950	00000013	addi	x0,x0,0	  x0:0x00000000
       26715000	      2670	80002954	0080036f	jal	x6,80002954	  x6=0x80002954
       26725000	      2671	00000000	00000013	addi	x0,x0,0	  x0:0x00000000
       26735000	      2672	80002958	00000013	addi	x0,x0,0	  x0:0x00000000
       26745000	      2673	8000295c	ffdff36f	jal	x6,8000295c	  x6=0x8000295c
       26755000	      2674	00000000	00000013	addi	x0,x0,0	  x0:0x00000000
       26765000	      2675	80002954	00000013	addi	x0,x0,0	  x0:0x00000000
       26775000	      2676	80002958	fe5ff36f	jal	x6,80002958	  x6=0x80002958
       26785000	      2677	00000000	00000013	addi	x0,x0,0	  x0:0x00000000
       26795000	      2678	80002938	00000013	addi	x0,x0,0	  x0:0x00000000
       26805000	      2679	8000293c	040000ef	jal	x1,8000293c	  x1=0x8000293c
       26815000	      2680	00000000	00000013	addi	x0,x0,0	  x0:0x00000000
       26825000	      2681	80002978	00000013	addi	x0,x0,0	  x0:0x00000000
       26835000	      2682	8000297c	ff5ff7ef	jal	x15,8000297c	 x15=0x8000297c
       26845000	      2683	00000000	00000013	addi	x0,x0,0	  x0:0x00000000
       26855000	      2684	8000296c	00000013	addi	x0,x0,0	  x0:0x00000000
       26865000	      2685	80002970	fc9ff0ef	jal	x1,80002970	  x1=0x80002970
       26875000	      2686	00000000	00000013	addi	x0,x0,0	  x0:0x00000000
       26885000	      2687	80002934	00000013	addi	x0,x0,0	  x0:0x00000000
       26895000	      2688	80002938	0080036f	jal	x6,80002938	  x6=0x80002938
       26905000	      2689	00000000	00000013	addi	x0,x0,0	  x0:0x00000000
       26915000	      2690	8000293c	00000013	addi	x0,x0,0	  x0:0x00000000
       26925000	      2691	80002940	0080086f	jal	x16,80002940	 x16=0x80002940
       26935000	      2692	00000000	00000013	addi	x0,x0,0	  x0:0x00000000
       26945000	      2693	80002944	00000013	addi	x0,x0,0	  x0:0x00000000
       26955000	      2694	80002948	020002ef	jal	x5,80002948	  x5=0x80002948
       26965000	      2695	00000000	00000013	addi	x0,x0,0	  x0:0x00000000
       26975000	      2696	80002964	00000013	addi	x0,x0,0	  x0:0x00000000
       26985000	      2697	80002968	ff9ff0ef	jal	x1,80002968	  x1=0x80002968
       26995000	      2698	00000000	00000013	addi	x0,x0,0	  x0:0x00000000
       27005000	      2699	8000295c	00000013	addi	x0,x0,0	  x0:0x00000000
       27015000	      2700	80002960	fd5ff1ef	jal	x3,80002960	  x3=0x80002960
       27025000	      2701	00000000	00000013	addi	x0,x0,0	  x0:0x00000000
       27035000	      2702	80002930	00000013	addi	x0,x0,0	  x0:0x00000000
       27045000	      2703	80002934	ffdff0ef	jal	x1,80002934	  x1=0x80002934
       27055000	      2704	00000000	00000013	addi	x0,x0,0	  x0:0x00000000
       27065000	      2705	8000292c	00000013	addi	x0,x0,0	  x0:0x00000000
       27075000	      2706	80002930	0200026f	jal	x4,80002930	  x4=0x80002930
       27085000	      2707	00000000	00000013	addi	x0,x0,0	  x0:0x00000000
       27095000	      2708	8000294c	00000013	addi	x0,x0,0	  x0:0x00000000
       27105000	      2709	80002950	014001ef	jal	x3,80002950	  x3=0x80002950
       27115000	      2710	00000000	00000013	addi	x0,x0,0	  x0:0x00000000
       27125000	      2711	80002960	00000013	addi	x0,x0,0	  x0:0x00000000
       27135000	      2712	80002964	fe1ff0ef	jal	x1,80002964	  x1=0x80002964
       27145000	      2713	00000000	00000013	addi	x0,x0,0	  x0:0x00000000
       27155000	      2714	80002940	00000013	addi	x0,x0,0	  x0:0x00000000
       27165000	      2715	80002944	030000ef	jal	x1,80002944	  x1=0x80002944
       27175000	      2716	00000000	00000013	addi	x0,x0,0	  x0:0x00000000
       27185000	      2717	80002970	00000013	addi	x0,x0,0	  x0:0x00000000
       27195000	      2718	80002974	ff9ff0ef	jal	x1,80002974	  x1=0x80002974
       27205000	      2719	00000000	00000013	addi	x0,x0,0	  x0:0x00000000
       27215000	      2720	80002968	00000013	addi	x0,x0,0	  x0:0x00000000
       27225000	      2721	8000296c	fe1ff3ef	jal	x7,8000296c	  x7=0x8000296c
       27235000	      2722	00000000	00000013	addi	x0,x0,0	  x0:0x00000000
       27245000	      2723	80002948	00000013	addi	x0,x0,0	  x0:0x00000000
       27255000	      2724	8000294c	02c0086f	jal	x16,8000294c	 x16=0x8000294c
       27265000	      2725	00000000	00000013	addi	x0,x0,0	  x0:0x00000000
       27275000	      2726	80002974	00000013	addi	x0,x0,0	  x0:0x00000000
       27285000	      2727	80002978	010000ef	jal	x1,80002978	  x1=0x80002978
       27295000	      2728	00000000	00000013	addi	x0,x0,0	  x0:0x00000000
       27305000	      2729	80002984	00000013	addi	x0,x0,0	  x0:0x00000000
       27315000	      2730	80002988	012f5293	srli	x5,x30,0x12	 x30:0x80002730  x5=0x00002000
       27325000	      2731	8000298c	024000ef	jal	x1,8000298c	  x1=0x8000298c
       27335000	      2732	00000000	00000013	addi	x0,x0,0	  x0:0x00000000
       27345000	      2733	800029ac	00000013	addi	x0,x0,0	  x0:0x00000000
       27355000	      2734	800029b0	0480036f	jal	x6,800029b0	  x6=0x800029b0
       27365000	      2735	00000000	00000013	addi	x0,x0,0	  x0:0x00000000
       27375000	      2736	800029f4	00000013	addi	x0,x0,0	  x0:0x00000000
       27385000	      2737	800029f8	fedff36f	jal	x6,800029f8	  x6=0x800029f8
       27395000	      2738	00000000	00000013	addi	x0,x0,0	  x0:0x00000000
       27405000	      2739	800029e0	00000013	addi	x0,x0,0	  x0:0x00000000
       27415000	      2740	800029e4	fb1ff86f	jal	x16,800029e4	 x16=0x800029e4
       27425000	      2741	00000000	00000013	addi	x0,x0,0	  x0:0x00000000
       27435000	      2742	80002990	00000013	addi	x0,x0,0	  x0:0x00000000
       27445000	      2743	80002994	03c0036f	jal	x6,80002994	  x6=0x80002994
       27455000	      2744	00000000	00000013	addi	x0,x0,0	  x0:0x00000000
       27465000	      2745	800029cc	00000013	addi	x0,x0,0	  x0:0x00000000
       27475000	      2746	800029d0	004000ef	jal	x1,800029d0	  x1=0x800029d0
       27485000	      2747	00000000	00000013	addi	x0,x0,0	  x0:0x00000000
       27495000	      2748	800029d0	00000013	addi	x0,x0,0	  x0:0x00000000
       27505000	      2749	800029d4	fedffdef	jal	x27,800029d4	 x27=0x800029d4
       27515000	      2750	00000000	00000013	addi	x0,x0,0	  x0:0x00000000
       27525000	      2751	800029bc	00000013	addi	x0,x0,0	  x0:0x00000000
       27535000	      2752	800029c0	030000ef	jal	x1,800029c0	  x1=0x800029c0
       27545000	      2753	00000000	00000013	addi	x0,x0,0	  x0:0x00000000
       27555000	      2754	800029ec	00000013	addi	x0,x0,0	  x0:0x00000000
       27565000	      2755	800029f0	004000ef	jal	x1,800029f0	  x1=0x800029f0
       27575000	      2756	00000000	00000013	addi	x0,x0,0	  x0:0x00000000
       27585000	      2757	800029f0	00000013	addi	x0,x0,0	  x0:0x00000000
       27595000	      2758	800029f4	fd9ff0ef	jal	x1,800029f4	  x1=0x800029f4
       27605000	      2759	00000000	00000013	addi	x0,x0,0	  x0:0x00000000
       27615000	      2760	800029c8	00000013	addi	x0,x0,0	  x0:0x00000000
       27625000	      2761	800029cc	01c000ef	jal	x1,800029cc	  x1=0x800029cc
       27635000	      2762	00000000	00000013	addi	x0,x0,0	  x0:0x00000000
       27645000	      2763	800029e4	00000013	addi	x0,x0,0	  x0:0x00000000
       27655000	      2764	800029e8	fb9ff36f	jal	x6,800029e8	  x6=0x800029e8
       27665000	      2765	00000000	00000013	addi	x0,x0,0	  x0:0x00000000
       27675000	      2766	8000299c	00000013	addi	x0,x0,0	  x0:0x00000000
       27685000	      2767	800029a0	024000ef	jal	x1,800029a0	  x1=0x800029a0
       27695000	      2768	00000000	00000013	addi	x0,x0,0	  x0:0x00000000
       27705000	      2769	800029c0	00000013	addi	x0,x0,0	  x0:0x00000000
       27715000	      2770	800029c4	ff9ff16f	jal	x2,800029c4	  x2=0x800029c4
       27725000	      2771	00000000	00000013	addi	x0,x0,0	  x0:0x00000000
       27735000	      2772	800029b8	00000013	addi	x0,x0,0	  x0:0x00000000
       27745000	      2773	800029bc	030000ef	jal	x1,800029bc	  x1=0x800029bc
       27755000	      2774	00000000	00000013	addi	x0,x0,0	  x0:0x00000000
       27765000	      2775	800029e8	00000013	addi	x0,x0,0	  x0:0x00000000
       27775000	      2776	800029ec	fc9ff0ef	jal	x1,800029ec	  x1=0x800029ec
       27785000	      2777	00000000	00000013	addi	x0,x0,0	  x0:0x00000000
       27795000	      2778	800029b0	00000013	addi	x0,x0,0	  x0:0x00000000
       27805000	      2779	800029b4	fe9ff8ef	jal	x17,800029b4	 x17=0x800029b4
       27815000	      2780	00000000	00000013	addi	x0,x0,0	  x0:0x00000000
       27825000	      2781	80002998	00000013	addi	x0,x0,0	  x0:0x00000000
       27835000	      2782	8000299c	00800cef	jal	x25,8000299c	 x25=0x8000299c
       27845000	      2783	00000000	00000013	addi	x0,x0,0	  x0:0x00000000
       27855000	      2784	800029a0	00000013	addi	x0,x0,0	  x0:0x00000000
       27865000	      2785	800029a4	058000ef	jal	x1,800029a4	  x1=0x800029a4
       27875000	      2786	00000000	00000013	addi	x0,x0,0	  x0:0x00000000
       27885000	      2787	800029f8	00000013	addi	x0,x0,0	  x0:0x00000000
       27895000	      2788	800029fc	fadff96f	jal	x18,800029fc	 x18=0x800029fc
       27905000	      2789	00000000	00000013	addi	x0,x0,0	  x0:0x00000000
       27915000	      2790	800029a4	00000013	addi	x0,x0,0	  x0:0x00000000
       27925000	      2791	800029a8	0340076f	jal	x14,800029a8	 x14=0x800029a8
       27935000	      2792	00000000	00000013	addi	x0,x0,0	  x0:0x00000000
       27945000	      2793	800029d8	00000013	addi	x0,x0,0	  x0:0x00000000
       27955000	      2794	800029dc	ffdff0ef	jal	x1,800029dc	  x1=0x800029dc
       27965000	      2795	00000000	00000013	addi	x0,x0,0	  x0:0x00000000
       27975000	      2796	800029d4	00000013	addi	x0,x0,0	  x0:0x00000000
       27985000	      2797	800029d8	ff1ff0ef	jal	x1,800029d8	  x1=0x800029d8
       27995000	      2798	00000000	00000013	addi	x0,x0,0	  x0:0x00000000
       28005000	      2799	800029c4	00000013	addi	x0,x0,0	  x0:0x00000000
       28015000	      2800	800029c8	0380036f	jal	x6,800029c8	  x6=0x800029c8
       28025000	      2801	00000000	00000013	addi	x0,x0,0	  x0:0x00000000
       28035000	      2802	800029fc	00000013	addi	x0,x0,0	  x0:0x00000000
       28045000	      2803	80002a00	fadff4ef	jal	x9,80002a00	  x9=0x80002a00
       28055000	      2804	00000000	00000013	addi	x0,x0,0	  x0:0x00000000
       28065000	      2805	800029a8	00000013	addi	x0,x0,0	  x0:0x00000000
       28075000	      2806	800029ac	034000ef	jal	x1,800029ac	  x1=0x800029ac
       28085000	      2807	00000000	00000013	addi	x0,x0,0	  x0:0x00000000
       28095000	      2808	800029dc	00000013	addi	x0,x0,0	  x0:0x00000000
       28105000	      2809	800029e0	fb1ff36f	jal	x6,800029e0	  x6=0x800029e0
       28115000	      2810	00000000	00000013	addi	x0,x0,0	  x0:0x00000000
       28125000	      2811	8000298c	00000013	addi	x0,x0,0	  x0:0x00000000
       28135000	      2812	80002990	028000ef	jal	x1,80002990	  x1=0x80002990
       28145000	      2813	00000000	00000013	addi	x0,x0,0	  x0:0x00000000
       28155000	      2814	800029b4	00000013	addi	x0,x0,0	  x0:0x00000000
       28165000	      2815	800029b8	fe1ff56f	jal	x10,800029b8	 x10=0x800029b8
       28175000	      2816	00000000	00000013	addi	x0,x0,0	  x0:0x00000000
       28185000	      2817	80002994	00000013	addi	x0,x0,0	  x0:0x00000000
       28195000	      2818	80002998	06c0036f	jal	x6,80002998	  x6=0x80002998
       28205000	      2819	00000000	00000013	addi	x0,x0,0	  x0:0x00000000
       28215000	      2820	80002a00	00000013	addi	x0,x0,0	  x0:0x00000000
       28225000	      2821	80002a04	2230fa93	andi	x21,x1,547	  x1:0x80002990 x21=0x00000000
       28235000	      2822	80002a08	030000ef	jal	x1,80002a08	  x1=0x80002a08
       28245000	      2823	00000000	00000013	addi	x0,x0,0	  x0:0x00000000
       28255000	      2824	80002a34	00000013	addi	x0,x0,0	  x0:0x00000000
       28265000	      2825	80002a38	fd5ff0ef	jal	x1,80002a38	  x1=0x80002a38
       28275000	      2826	00000000	00000013	addi	x0,x0,0	  x0:0x00000000
       28285000	      2827	80002a08	00000013	addi	x0,x0,0	  x0:0x00000000
       28295000	      2828	80002a0c	030000ef	jal	x1,80002a0c	  x1=0x80002a0c
       28305000	      2829	00000000	00000013	addi	x0,x0,0	  x0:0x00000000
       28315000	      2830	80002a38	00000013	addi	x0,x0,0	  x0:0x00000000
       28325000	      2831	80002a3c	fe1ff0ef	jal	x1,80002a3c	  x1=0x80002a3c
       28335000	      2832	00000000	00000013	addi	x0,x0,0	  x0:0x00000000
       28345000	      2833	80002a18	00000013	addi	x0,x0,0	  x0:0x00000000
       28355000	      2834	80002a1c	010000ef	jal	x1,80002a1c	  x1=0x80002a1c
       28365000	      2835	00000000	00000013	addi	x0,x0,0	  x0:0x00000000
       28375000	      2836	80002a28	00000013	addi	x0,x0,0	  x0:0x00000000
       28385000	      2837	80002a2c	0180036f	jal	x6,80002a2c	  x6=0x80002a2c
       28395000	      2838	00000000	00000013	addi	x0,x0,0	  x0:0x00000000
       28405000	      2839	80002a40	00000013	addi	x0,x0,0	  x0:0x00000000
       28415000	      2840	80002a44	ff1ff36f	jal	x6,80002a44	  x6=0x80002a44
       28425000	      2841	00000000	00000013	addi	x0,x0,0	  x0:0x00000000
       28435000	      2842	80002a30	00000013	addi	x0,x0,0	  x0:0x00000000
       28445000	      2843	80002a34	fe5ff66f	jal	x12,80002a34	 x12=0x80002a34
       28455000	      2844	00000000	00000013	addi	x0,x0,0	  x0:0x00000000
       28465000	      2845	80002a14	00000013	addi	x0,x0,0	  x0:0x00000000
       28475000	      2846	80002a18	ffdff36f	jal	x6,80002a18	  x6=0x80002a18
       28485000	      2847	00000000	00000013	addi	x0,x0,0	  x0:0x00000000
       28495000	      2848	80002a10	00000013	addi	x0,x0,0	  x0:0x00000000
       28505000	      2849	80002a14	01000cef	jal	x25,80002a14	 x25=0x80002a14
       28515000	      2850	00000000	00000013	addi	x0,x0,0	  x0:0x00000000
       28525000	      2851	80002a20	00000013	addi	x0,x0,0	  x0:0x00000000
       28535000	      2852	80002a24	0240036f	jal	x6,80002a24	  x6=0x80002a24
       28545000	      2853	00000000	00000013	addi	x0,x0,0	  x0:0x00000000
       28555000	      2854	80002a44	00000013	addi	x0,x0,0	  x0:0x00000000
       28565000	      2855	80002a48	fe1ff56f	jal	x10,80002a48	 x10=0x80002a48
       28575000	      2856	00000000	00000013	addi	x0,x0,0	  x0:0x00000000
       28585000	      2857	80002a24	00000013	addi	x0,x0,0	  x0:0x00000000
       28595000	      2858	80002a28	008000ef	jal	x1,80002a28	  x1=0x80002a28
       28605000	      2859	00000000	00000013	addi	x0,x0,0	  x0:0x00000000
       28615000	      2860	80002a2c	00000013	addi	x0,x0,0	  x0:0x00000000
       28625000	      2861	80002a30	ff1ff46f	jal	x8,80002a30	  x8=0x80002a30
       28635000	      2862	00000000	00000013	addi	x0,x0,0	  x0:0x00000000
       28645000	      2863	80002a1c	00000013	addi	x0,x0,0	  x0:0x00000000
       28655000	      2864	80002a20	020000ef	jal	x1,80002a20	  x1=0x80002a20
       28665000	      2865	00000000	00000013	addi	x0,x0,0	  x0:0x00000000
       28675000	      2866	80002a3c	00000013	addi	x0,x0,0	  x0:0x00000000
       28685000	      2867	80002a40	fd1ff66f	jal	x12,80002a40	 x12=0x80002a40
       28695000	      2868	00000000	00000013	addi	x0,x0,0	  x0:0x00000000
       28705000	      2869	80002a0c	00000013	addi	x0,x0,0	  x0:0x00000000
       28715000	      2870	80002a10	03c0026f	jal	x4,80002a10	  x4=0x80002a10
       28725000	      2871	00000000	00000013	addi	x0,x0,0	  x0:0x00000000
       28735000	      2872	80002a48	00000013	addi	x0,x0,0	  x0:0x00000000
       28745000	      2873	80002a4c	011d9213	slli	x4,x27,0x11	 x27:0x800029d4  x4=0x53a80000
       28755000	      2874	80002a50	010000ef	jal	x1,80002a50	  x1=0x80002a50
       28765000	      2875	00000000	00000013	addi	x0,x0,0	  x0:0x00000000
       28775000	      2876	80002a5c	00000013	addi	x0,x0,0	  x0:0x00000000
       28785000	      2877	80002a60	018002ef	jal	x5,80002a60	  x5=0x80002a60
       28795000	      2878	00000000	00000013	addi	x0,x0,0	  x0:0x00000000
       28805000	      2879	80002a74	00000013	addi	x0,x0,0	  x0:0x00000000
       28815000	      2880	80002a78	024000ef	jal	x1,80002a78	  x1=0x80002a78
       28825000	      2881	00000000	00000013	addi	x0,x0,0	  x0:0x00000000
       28835000	      2882	80002a98	00000013	addi	x0,x0,0	  x0:0x00000000
       28845000	      2883	80002a9c	fbdff0ef	jal	x1,80002a9c	  x1=0x80002a9c
       28855000	      2884	00000000	00000013	addi	x0,x0,0	  x0:0x00000000
       28865000	      2885	80002a54	00000013	addi	x0,x0,0	  x0:0x00000000
       28875000	      2886	80002a58	0140016f	jal	x2,80002a58	  x2=0x80002a58
       28885000	      2887	00000000	00000013	addi	x0,x0,0	  x0:0x00000000
       28895000	      2888	80002a68	00000013	addi	x0,x0,0	  x0:0x00000000
       28905000	      2889	80002a6c	02c000ef	jal	x1,80002a6c	  x1=0x80002a6c
       28915000	      2890	00000000	00000013	addi	x0,x0,0	  x0:0x00000000
       28925000	      2891	80002a94	00000013	addi	x0,x0,0	  x0:0x00000000
       28935000	      2892	80002a98	fd1ff3ef	jal	x7,80002a98	  x7=0x80002a98
       28945000	      2893	00000000	00000013	addi	x0,x0,0	  x0:0x00000000
       28955000	      2894	80002a64	00000013	addi	x0,x0,0	  x0:0x00000000
       28965000	      2895	80002a68	00c000ef	jal	x1,80002a68	  x1=0x80002a68
       28975000	      2896	00000000	00000013	addi	x0,x0,0	  x0:0x00000000
       28985000	      2897	80002a70	00000013	addi	x0,x0,0	  x0:0x00000000
       28995000	      2898	80002a74	0200036f	jal	x6,80002a74	  x6=0x80002a74
       29005000	      2899	00000000	00000013	addi	x0,x0,0	  x0:0x00000000
       29015000	      2900	80002a90	00000013	addi	x0,x0,0	  x0:0x00000000
       29025000	      2901	80002a94	fd1ffaef	jal	x21,80002a94	 x21=0x80002a94
       29035000	      2902	00000000	00000013	addi	x0,x0,0	  x0:0x00000000
       29045000	      2903	80002a60	00000013	addi	x0,x0,0	  x0:0x00000000
       29055000	      2904	80002a64	044000ef	jal	x1,80002a64	  x1=0x80002a64
       29065000	      2905	00000000	00000013	addi	x0,x0,0	  x0:0x00000000
       29075000	      2906	80002aa4	00000013	addi	x0,x0,0	  x0:0x00000000
       29085000	      2907	80002aa8	ff9ff36f	jal	x6,80002aa8	  x6=0x80002aa8
       29095000	      2908	00000000	00000013	addi	x0,x0,0	  x0:0x00000000
       29105000	      2909	80002a9c	00000013	addi	x0,x0,0	  x0:0x00000000
       29115000	      2910	80002aa0	fedfff6f	jal	x30,80002aa0	 x30=0x80002aa0
       29125000	      2911	00000000	00000013	addi	x0,x0,0	  x0:0x00000000
       29135000	      2912	80002a88	00000013	addi	x0,x0,0	  x0:0x00000000
       29145000	      2913	80002a8c	ffdff0ef	jal	x1,80002a8c	  x1=0x80002a8c
       29155000	      2914	00000000	00000013	addi	x0,x0,0	  x0:0x00000000
       29165000	      2915	80002a84	00000013	addi	x0,x0,0	  x0:0x00000000
       29175000	      2916	80002a88	fcdffe6f	jal	x28,80002a88	 x28=0x80002a88
       29185000	      2917	00000000	00000013	addi	x0,x0,0	  x0:0x00000000
       29195000	      2918	80002a50	00000013	addi	x0,x0,0	  x0:0x00000000
       29205000	      2919	80002a54	01c000ef	jal	x1,80002a54	  x1=0x80002a54
       29215000	      2920	00000000	00000013	addi	x0,x0,0	  x0:0x00000000
       29225000	      2921	80002a6c	00000013	addi	x0,x0,0	  x0:0x00000000
       29235000	      2922	80002a70	0340036f	jal	x6,80002a70	  x6=0x80002a70
       29245000	      2923	00000000	00000013	addi	x0,x0,0	  x0:0x00000000
       29255000	      2924	80002aa0	00000013	addi	x0,x0,0	  x0:0x00000000
       29265000	      2925	80002aa4	fe1ff8ef	jal	x17,80002aa4	 x17=0x80002aa4
       29275000	      2926	00000000	00000013	addi	x0,x0,0	  x0:0x00000000
       29285000	      2927	80002a80	00000013	addi	x0,x0,0	  x0:0x00000000
       29295000	      2928	80002a84	ff9ff2ef	jal	x5,80002a84	  x5=0x80002a84
       29305000	      2929	00000000	00000013	addi	x0,x0,0	  x0:0x00000000
       29315000	      2930	80002a78	00000013	addi	x0,x0,0	  x0:0x00000000
       29325000	      2931	80002a7c	fe1ff0ef	jal	x1,80002a7c	  x1=0x80002a7c
       29335000	      2932	00000000	00000013	addi	x0,x0,0	  x0:0x00000000
       29345000	      2933	80002a58	00000013	addi	x0,x0,0	  x0:0x00000000
       29355000	      2934	80002a5c	024000ef	jal	x1,80002a5c	  x1=0x80002a5c
       29365000	      2935	00000000	00000013	addi	x0,x0,0	  x0:0x00000000
       29375000	      2936	80002a7c	00000013	addi	x0,x0,0	  x0:0x00000000
       29385000	      2937	80002a80	0100036f	jal	x6,80002a80	  x6=0x80002a80
       29395000	      2938	00000000	00000013	addi	x0,x0,0	  x0:0x00000000
       29405000	      2939	80002a8c	00000013	addi	x0,x0,0	  x0:0x00000000
       29415000	      2940	80002a90	01c00fef	jal	x31,80002a90	 x31=0x80002a90
       29425000	      2941	00000000	00000013	addi	x0,x0,0	  x0:0x00000000
       29435000	      2942	80002aa8	00000013	addi	x0,x0,0	  x0:0x00000000
       29445000	      2943	80002aac	004007ef	jal	x15,80002aac	 x15=0x80002aac
       29455000	      2944	00000000	00000013	addi	x0,x0,0	  x0:0x00000000
       29465000	      2945	80002aac	00000013	addi	x0,x0,0	  x0:0x00000000
       29475000	      2946	80002ab0	1d337a93	andi	x21,x6,467	  x6:0x80002a80 x21=0x00000080
       29485000	      2947	80002ab4	024000ef	jal	x1,80002ab4	  x1=0x80002ab4
       29495000	      2948	00000000	00000013	addi	x0,x0,0	  x0:0x00000000
       29505000	      2949	80002ad4	00000013	addi	x0,x0,0	  x0:0x00000000
       29515000	      2950	80002ad8	fedff0ef	jal	x1,80002ad8	  x1=0x80002ad8
       29525000	      2951	00000000	00000013	addi	x0,x0,0	  x0:0x00000000
       29535000	      2952	80002ac0	00000013	addi	x0,x0,0	  x0:0x00000000
       29545000	      2953	80002ac4	02c0036f	jal	x6,80002ac4	  x6=0x80002ac4
       29555000	      2954	00000000	00000013	addi	x0,x0,0	  x0:0x00000000
       29565000	      2955	80002aec	00000013	addi	x0,x0,0	  x0:0x00000000
       29575000	      2956	80002af0	004000ef	jal	x1,80002af0	  x1=0x80002af0
       29585000	      2957	00000000	00000013	addi	x0,x0,0	  x0:0x00000000
       29595000	      2958	80002af0	00000013	addi	x0,x0,0	  x0:0x00000000
       29605000	      2959	80002af4	fc9ff36f	jal	x6,80002af4	  x6=0x80002af4
       29615000	      2960	00000000	00000013	addi	x0,x0,0	  x0:0x00000000
       29625000	      2961	80002ab8	00000013	addi	x0,x0,0	  x0:0x00000000
       29635000	      2962	80002abc	014006ef	jal	x13,80002abc	 x13=0x80002abc
       29645000	      2963	00000000	00000013	addi	x0,x0,0	  x0:0x00000000
       29655000	      2964	80002acc	00000013	addi	x0,x0,0	  x0:0x00000000
       29665000	      2965	80002ad0	02c0096f	jal	x18,80002ad0	 x18=0x80002ad0
       29675000	      2966	00000000	00000013	addi	x0,x0,0	  x0:0x00000000
       29685000	      2967	80002af8	00000013	addi	x0,x0,0	  x0:0x00000000
       29695000	      2968	80002afc	024005ef	jal	x11,80002afc	 x11=0x80002afc
       29705000	      2969	00000000	00000013	addi	x0,x0,0	  x0:0x00000000
       29715000	      2970	80002b1c	00000013	addi	x0,x0,0	  x0:0x00000000
       29725000	      2971	80002b20	fadff0ef	jal	x1,80002b20	  x1=0x80002b20
       29735000	      2972	00000000	00000013	addi	x0,x0,0	  x0:0x00000000
       29745000	      2973	80002ac8	00000013	addi	x0,x0,0	  x0:0x00000000
       29755000	      2974	80002acc	0500036f	jal	x6,80002acc	  x6=0x80002acc
       29765000	      2975	00000000	00000013	addi	x0,x0,0	  x0:0x00000000
       29775000	      2976	80002b18	00000013	addi	x0,x0,0	  x0:0x00000000
       29785000	      2977	80002b1c	ffdff36f	jal	x6,80002b1c	  x6=0x80002b1c
       29795000	      2978	00000000	00000013	addi	x0,x0,0	  x0:0x00000000
       29805000	      2979	80002b14	00000013	addi	x0,x0,0	  x0:0x00000000
       29815000	      2980	80002b18	fbdff0ef	jal	x1,80002b18	  x1=0x80002b18
       29825000	      2981	00000000	00000013	addi	x0,x0,0	  x0:0x00000000
       29835000	      2982	80002ad0	00000013	addi	x0,x0,0	  x0:0x00000000
       29845000	      2983	80002ad4	fe5ff0ef	jal	x1,80002ad4	  x1=0x80002ad4
       29855000	      2984	00000000	00000013	addi	x0,x0,0	  x0:0x00000000
       29865000	      2985	80002ab4	00000013	addi	x0,x0,0	  x0:0x00000000
       29875000	      2986	80002ab8	058000ef	jal	x1,80002ab8	  x1=0x80002ab8
       29885000	      2987	00000000	00000013	addi	x0,x0,0	  x0:0x00000000
       29895000	      2988	80002b0c	00000013	addi	x0,x0,0	  x0:0x00000000
       29905000	      2989	80002b10	fd1ff0ef	jal	x1,80002b10	  x1=0x80002b10
       29915000	      2990	00000000	00000013	addi	x0,x0,0	  x0:0x00000000
       29925000	      2991	80002adc	00000013	addi	x0,x0,0	  x0:0x00000000
       29935000	      2992	80002ae0	00c0036f	jal	x6,80002ae0	  x6=0x80002ae0
       29945000	      2993	00000000	00000013	addi	x0,x0,0	  x0:0x00000000
       29955000	      2994	80002ae8	00000013	addi	x0,x0,0	  x0:0x00000000
       29965000	      2995	80002aec	0140036f	jal	x6,80002aec	  x6=0x80002aec
       29975000	      2996	00000000	00000013	addi	x0,x0,0	  x0:0x00000000
       29985000	      2997	80002afc	00000013	addi	x0,x0,0	  x0:0x00000000
       29995000	      2998	80002b00	fe9fff6f	jal	x30,80002b00	 x30=0x80002b00
       30005000	      2999	00000000	00000013	addi	x0,x0,0	  x0:0x00000000
       30015000	      3000	80002ae4	00000013	addi	x0,x0,0	  x0:0x00000000
       30025000	      3001	80002ae8	0240036f	jal	x6,80002ae8	  x6=0x80002ae8
       30035000	      3002	00000000	00000013	addi	x0,x0,0	  x0:0x00000000
       30045000	      3003	80002b08	00000013	addi	x0,x0,0	  x0:0x00000000
       30055000	      3004	80002b0c	fbdff0ef	jal	x1,80002b0c	  x1=0x80002b0c
       30065000	      3005	00000000	00000013	addi	x0,x0,0	  x0:0x00000000
       30075000	      3006	80002ac4	00000013	addi	x0,x0,0	  x0:0x00000000
       30085000	      3007	80002ac8	014000ef	jal	x1,80002ac8	  x1=0x80002ac8
       30095000	      3008	00000000	00000013	addi	x0,x0,0	  x0:0x00000000
       30105000	      3009	80002ad8	00000013	addi	x0,x0,0	  x0:0x00000000
       30115000	      3010	80002adc	028000ef	jal	x1,80002adc	  x1=0x80002adc
       30125000	      3011	00000000	00000013	addi	x0,x0,0	  x0:0x00000000
       30135000	      3012	80002b00	00000013	addi	x0,x0,0	  x0:0x00000000
       30145000	      3013	80002b04	fbdfff6f	jal	x30,80002b04	 x30=0x80002b04
       30155000	      3014	00000000	00000013	addi	x0,x0,0	  x0:0x00000000
       30165000	      3015	80002abc	00000013	addi	x0,x0,0	  x0:0x00000000
       30175000	      3016	80002ac0	0640036f	jal	x6,80002ac0	  x6=0x80002ac0
       30185000	      3017	00000000	00000013	addi	x0,x0,0	  x0:0x00000000
       30195000	      3018	80002b20	00000013	addi	x0,x0,0	  x0:0x00000000
       30205000	      3019	80002b24	ff1ff0ef	jal	x1,80002b24	  x1=0x80002b24
       30215000	      3020	00000000	00000013	addi	x0,x0,0	  x0:0x00000000
       30225000	      3021	80002b10	00000013	addi	x0,x0,0	  x0:0x00000000
       30235000	      3022	80002b14	fe5ff0ef	jal	x1,80002b14	  x1=0x80002b14
       30245000	      3023	00000000	00000013	addi	x0,x0,0	  x0:0x00000000
       30255000	      3024	80002af4	00000013	addi	x0,x0,0	  x0:0x00000000
       30265000	      3025	80002af8	fedffdef	jal	x27,80002af8	 x27=0x80002af8
       30275000	      3026	00000000	00000013	addi	x0,x0,0	  x0:0x00000000
       30285000	      3027	80002ae0	00000013	addi	x0,x0,0	  x0:0x00000000
       30295000	      3028	80002ae4	0240036f	jal	x6,80002ae4	  x6=0x80002ae4
       30305000	      3029	00000000	00000013	addi	x0,x0,0	  x0:0x00000000
       30315000	      3030	80002b04	00000013	addi	x0,x0,0	  x0:0x00000000
       30325000	      3031	80002b08	020000ef	jal	x1,80002b08	  x1=0x80002b08
       30335000	      3032	00000000	00000013	addi	x0,x0,0	  x0:0x00000000
       30345000	      3033	80002b24	00000013	addi	x0,x0,0	  x0:0x00000000
       30355000	      3034	80002b28	00aa5733	srl	x14,x20,x10	 x20:0xfffffe13 x10:0x80002a48 x14=0x00fffffe
       30365000	      3035	80002b2c	030000ef	jal	x1,80002b2c	  x1=0x80002b2c
       30375000	      3036	00000000	00000013	addi	x0,x0,0	  x0:0x00000000
       30385000	      3037	80002b58	00000013	addi	x0,x0,0	  x0:0x00000000
       30395000	      3038	80002b5c	fd5ff5ef	jal	x11,80002b5c	 x11=0x80002b5c
       30405000	      3039	00000000	00000013	addi	x0,x0,0	  x0:0x00000000
       30415000	      3040	80002b2c	00000013	addi	x0,x0,0	  x0:0x00000000
       30425000	      3041	80002b30	00800def	jal	x27,80002b30	 x27=0x80002b30
       30435000	      3042	00000000	00000013	addi	x0,x0,0	  x0:0x00000000
       30445000	      3043	80002b34	00000013	addi	x0,x0,0	  x0:0x00000000
       30455000	      3044	80002b38	028001ef	jal	x3,80002b38	  x3=0x80002b38
       30465000	      3045	00000000	00000013	addi	x0,x0,0	  x0:0x00000000
       30475000	      3046	80002b5c	00000013	addi	x0,x0,0	  x0:0x00000000
       30485000	      3047	80002b60	ff1ff0ef	jal	x1,80002b60	  x1=0x80002b60
       30495000	      3048	00000000	00000013	addi	x0,x0,0	  x0:0x00000000
       30505000	      3049	80002b4c	00000013	addi	x0,x0,0	  x0:0x00000000
       30515000	      3050	80002b50	fedff2ef	jal	x5,80002b50	  x5=0x80002b50
       30525000	      3051	00000000	00000013	addi	x0,x0,0	  x0:0x00000000
       30535000	      3052	80002b38	00000013	addi	x0,x0,0	  x0:0x00000000
       30545000	      3053	80002b3c	004000ef	jal	x1,80002b3c	  x1=0x80002b3c
       30555000	      3054	00000000	00000013	addi	x0,x0,0	  x0:0x00000000
       30565000	      3055	80002b3c	00000013	addi	x0,x0,0	  x0:0x00000000
       30575000	      3056	80002b40	004000ef	jal	x1,80002b40	  x1=0x80002b40
       30585000	      3057	00000000	00000013	addi	x0,x0,0	  x0:0x00000000
       30595000	      3058	80002b40	00000013	addi	x0,x0,0	  x0:0x00000000
       30605000	      3059	80002b44	004000ef	jal	x1,80002b44	  x1=0x80002b44
       30615000	      3060	00000000	00000013	addi	x0,x0,0	  x0:0x00000000
       30625000	      3061	80002b44	00000013	addi	x0,x0,0	  x0:0x00000000
       30635000	      3062	80002b48	fedff0ef	jal	x1,80002b48	  x1=0x80002b48
       30645000	      3063	00000000	00000013	addi	x0,x0,0	  x0:0x00000000
       30655000	      3064	80002b30	00000013	addi	x0,x0,0	  x0:0x00000000
       30665000	      3065	80002b34	020000ef	jal	x1,80002b34	  x1=0x80002b34
       30675000	      3066	00000000	00000013	addi	x0,x0,0	  x0:0x00000000
       30685000	      3067	80002b50	00000013	addi	x0,x0,0	  x0:0x00000000
       30695000	      3068	80002b54	ff9ff0ef	jal	x1,80002b54	  x1=0x80002b54
       30705000	      3069	00000000	00000013	addi	x0,x0,0	  x0:0x00000000
       30715000	      3070	80002b48	00000013	addi	x0,x0,0	  x0:0x00000000
       30725000	      3071	80002b4c	00c000ef	jal	x1,80002b4c	  x1=0x80002b4c
       30735000	      3072	00000000	00000013	addi	x0,x0,0	  x0:0x00000000
       30745000	      3073	80002b54	00000013	addi	x0,x0,0	  x0:0x00000000
       30755000	      3074	80002b58	00c000ef	jal	x1,80002b58	  x1=0x80002b58
       30765000	      3075	00000000	00000013	addi	x0,x0,0	  x0:0x00000000
       30775000	      3076	80002b60	00000013	addi	x0,x0,0	  x0:0x00000000
       30785000	      3077	80002b64	015e42b3	xor	x5,x28,x21	 x28:0x80002a88 x21:0x00000080  x5=0x80002a08
       30795000	      3078	80002b68	04c000ef	jal	x1,80002b68	  x1=0x80002b68
       30805000	      3079	00000000	00000013	addi	x0,x0,0	  x0:0x00000000
       30815000	      3080	80002bb0	00000013	addi	x0,x0,0	  x0:0x00000000
       30825000	      3081	80002bb4	fe1ff36f	jal	x6,80002bb4	  x6=0x80002bb4
       30835000	      3082	00000000	00000013	addi	x0,x0,0	  x0:0x00000000
       30845000	      3083	80002b90	00000013	addi	x0,x0,0	  x0:0x00000000
       30855000	      3084	80002b94	fd9ff3ef	jal	x7,80002b94	  x7=0x80002b94
       30865000	      3085	00000000	00000013	addi	x0,x0,0	  x0:0x00000000
       30875000	      3086	80002b68	00000013	addi	x0,x0,0	  x0:0x00000000
       30885000	      3087	80002b6c	034004ef	jal	x9,80002b6c	  x9=0x80002b6c
       30895000	      3088	00000000	00000013	addi	x0,x0,0	  x0:0x00000000
       30905000	      3089	80002b9c	00000013	addi	x0,x0,0	  x0:0x00000000
       30915000	      3090	80002ba0	fd1ff2ef	jal	x5,80002ba0	  x5=0x80002ba0
       30925000	      3091	00000000	00000013	addi	x0,x0,0	  x0:0x00000000
       30935000	      3092	80002b6c	00000013	addi	x0,x0,0	  x0:0x00000000
       30945000	      3093	80002b70	02c0076f	jal	x14,80002b70	 x14=0x80002b70
       30955000	      3094	00000000	00000013	addi	x0,x0,0	  x0:0x00000000
       30965000	      3095	80002b98	00000013	addi	x0,x0,0	  x0:0x00000000
       30975000	      3096	80002b9c	0100036f	jal	x6,80002b9c	  x6=0x80002b9c
       30985000	      3097	00000000	00000013	addi	x0,x0,0	  x0:0x00000000
       30995000	      3098	80002ba8	00000013	addi	x0,x0,0	  x0:0x00000000
       31005000	      3099	80002bac	fd9ff36f	jal	x6,80002bac	  x6=0x80002bac
       31015000	      3100	00000000	00000013	addi	x0,x0,0	  x0:0x00000000
       31025000	      3101	80002b80	00000013	addi	x0,x0,0	  x0:0x00000000
       31035000	      3102	80002b84	00c0036f	jal	x6,80002b84	  x6=0x80002b84
       31045000	      3103	00000000	00000013	addi	x0,x0,0	  x0:0x00000000
       31055000	      3104	80002b8c	00000013	addi	x0,x0,0	  x0:0x00000000
       31065000	      3105	80002b90	ffdff26f	jal	x4,80002b90	  x4=0x80002b90
       31075000	      3106	00000000	00000013	addi	x0,x0,0	  x0:0x00000000
       31085000	      3107	80002b88	00000013	addi	x0,x0,0	  x0:0x00000000
       31095000	      3108	80002b8c	01c000ef	jal	x1,80002b8c	  x1=0x80002b8c
       31105000	      3109	00000000	00000013	addi	x0,x0,0	  x0:0x00000000
       31115000	      3110	80002ba4	00000013	addi	x0,x0,0	  x0:0x00000000
       31125000	      3111	80002ba8	fd1ffeef	jal	x29,80002ba8	 x29=0x80002ba8
       31135000	      3112	00000000	00000013	addi	x0,x0,0	  x0:0x00000000
       31145000	      3113	80002b74	00000013	addi	x0,x0,0	  x0:0x00000000
       31155000	      3114	80002b78	020000ef	jal	x1,80002b78	  x1=0x80002b78
       31165000	      3115	00000000	00000013	addi	x0,x0,0	  x0:0x00000000
       31175000	      3116	80002b94	00000013	addi	x0,x0,0	  x0:0x00000000
       31185000	      3117	80002b98	ff1ff0ef	jal	x1,80002b98	  x1=0x80002b98
       31195000	      3118	00000000	00000013	addi	x0,x0,0	  x0:0x00000000
       31205000	      3119	80002b84	00000013	addi	x0,x0,0	  x0:0x00000000
       31215000	      3120	80002b88	01c000ef	jal	x1,80002b88	  x1=0x80002b88
       31225000	      3121	00000000	00000013	addi	x0,x0,0	  x0:0x00000000
       31235000	      3122	80002ba0	00000013	addi	x0,x0,0	  x0:0x00000000
       31245000	      3123	80002ba4	00c00e6f	jal	x28,80002ba4	 x28=0x80002ba4
       31255000	      3124	00000000	00000013	addi	x0,x0,0	  x0:0x00000000
       31265000	      3125	80002bac	00000013	addi	x0,x0,0	  x0:0x00000000
       31275000	      3126	80002bb0	fc5ff0ef	jal	x1,80002bb0	  x1=0x80002bb0
       31285000	      3127	00000000	00000013	addi	x0,x0,0	  x0:0x00000000
       31295000	      3128	80002b70	00000013	addi	x0,x0,0	  x0:0x00000000
       31305000	      3129	80002b74	00800eef	jal	x29,80002b74	 x29=0x80002b74
       31315000	      3130	00000000	00000013	addi	x0,x0,0	  x0:0x00000000
       31325000	      3131	80002b78	00000013	addi	x0,x0,0	  x0:0x00000000
       31335000	      3132	80002b7c	0040016f	jal	x2,80002b7c	  x2=0x80002b7c
       31345000	      3133	00000000	00000013	addi	x0,x0,0	  x0:0x00000000
       31355000	      3134	80002b7c	00000013	addi	x0,x0,0	  x0:0x00000000
       31365000	      3135	80002b80	038002ef	jal	x5,80002b80	  x5=0x80002b80
       31375000	      3136	00000000	00000013	addi	x0,x0,0	  x0:0x00000000
       31385000	      3137	80002bb4	00000013	addi	x0,x0,0	  x0:0x00000000
       31395000	      3138	80002bb8	017825b3	slt	x11,x16,x23	 x16:0x800029e4 x23:0x80002a30 x11=0x00000001
       31405000	      3139	80002bbc	01c000ef	jal	x1,80002bbc	  x1=0x80002bbc
       31415000	      3140	00000000	00000013	addi	x0,x0,0	  x0:0x00000000
       31425000	      3141	80002bd4	00000013	addi	x0,x0,0	  x0:0x00000000
       31435000	      3142	80002bd8	03400eef	jal	x29,80002bd8	 x29=0x80002bd8
       31445000	      3143	00000000	00000013	addi	x0,x0,0	  x0:0x00000000
       31455000	      3144	80002c08	00000013	addi	x0,x0,0	  x0:0x00000000
       31465000	      3145	80002c0c	fe5ff2ef	jal	x5,80002c0c	  x5=0x80002c0c
       31475000	      3146	00000000	00000013	addi	x0,x0,0	  x0:0x00000000
       31485000	      3147	80002bec	00000013	addi	x0,x0,0	  x0:0x00000000
       31495000	      3148	80002bf0	00c000ef	jal	x1,80002bf0	  x1=0x80002bf0
       31505000	      3149	00000000	00000013	addi	x0,x0,0	  x0:0x00000000
       31515000	      3150	80002bf8	00000013	addi	x0,x0,0	  x0:0x00000000
       31525000	      3151	80002bfc	01c0036f	jal	x6,80002bfc	  x6=0x80002bfc
       31535000	      3152	00000000	00000013	addi	x0,x0,0	  x0:0x00000000
       31545000	      3153	80002c14	00000013	addi	x0,x0,0	  x0:0x00000000
       31555000	      3154	80002c18	00c0076f	jal	x14,80002c18	 x14=0x80002c18
       31565000	      3155	00000000	00000013	addi	x0,x0,0	  x0:0x00000000
       31575000	      3156	80002c20	00000013	addi	x0,x0,0	  x0:0x00000000
       31585000	      3157	80002c24	fbdff0ef	jal	x1,80002c24	  x1=0x80002c24
       31595000	      3158	00000000	00000013	addi	x0,x0,0	  x0:0x00000000
       31605000	      3159	80002bdc	00000013	addi	x0,x0,0	  x0:0x00000000
       31615000	      3160	80002be0	0400036f	jal	x6,80002be0	  x6=0x80002be0
       31625000	      3161	00000000	00000013	addi	x0,x0,0	  x0:0x00000000
       31635000	      3162	80002c1c	00000013	addi	x0,x0,0	  x0:0x00000000
       31645000	      3163	80002c20	fc5ff1ef	jal	x3,80002c20	  x3=0x80002c20
       31655000	      3164	00000000	00000013	addi	x0,x0,0	  x0:0x00000000
       31665000	      3165	80002be0	00000013	addi	x0,x0,0	  x0:0x00000000
       31675000	      3166	80002be4	fe5ff0ef	jal	x1,80002be4	  x1=0x80002be4
       31685000	      3167	00000000	00000013	addi	x0,x0,0	  x0:0x00000000
       31695000	      3168	80002bc4	00000013	addi	x0,x0,0	  x0:0x00000000
       31705000	      3169	80002bc8	004001ef	jal	x3,80002bc8	  x3=0x80002bc8
       31715000	      3170	00000000	00000013	addi	x0,x0,0	  x0:0x00000000
       31725000	      3171	80002bc8	00000013	addi	x0,x0,0	  x0:0x00000000
       31735000	      3172	80002bcc	02c000ef	jal	x1,80002bcc	  x1=0x80002bcc
       31745000	      3173	00000000	00000013	addi	x0,x0,0	  x0:0x00000000
       31755000	      3174	80002bf4	00000013	addi	x0,x0,0	  x0:0x00000000
       31765000	      3175	80002bf8	ff5ff36f	jal	x6,80002bf8	  x6=0x80002bf8
       31775000	      3176	00000000	00000013	addi	x0,x0,0	  x0:0x00000000
       31785000	      3177	80002be8	00000013	addi	x0,x0,0	  x0:0x00000000
       31795000	      3178	80002bec	ff1ff0ef	jal	x1,80002bec	  x1=0x80002bec
       31805000	      3179	00000000	00000013	addi	x0,x0,0	  x0:0x00000000
       31815000	      3180	80002bd8	00000013	addi	x0,x0,0	  x0:0x00000000
       31825000	      3181	80002bdc	0400016f	jal	x2,80002bdc	  x2=0x80002bdc
       31835000	      3182	00000000	00000013	addi	x0,x0,0	  x0:0x00000000
       31845000	      3183	80002c18	00000013	addi	x0,x0,0	  x0:0x00000000
       31855000	      3184	80002c1c	fe5ff36f	jal	x6,80002c1c	  x6=0x80002c1c
       31865000	      3185	00000000	00000013	addi	x0,x0,0	  x0:0x00000000
       31875000	      3186	80002bfc	00000013	addi	x0,x0,0	  x0:0x00000000
       31885000	      3187	80002c00	fc5ff0ef	jal	x1,80002c00	  x1=0x80002c00
       31895000	      3188	00000000	00000013	addi	x0,x0,0	  x0:0x00000000
       31905000	      3189	80002bc0	00000013	addi	x0,x0,0	  x0:0x00000000
       31915000	      3190	80002bc4	0100036f	jal	x6,80002bc4	  x6=0x80002bc4
       31925000	      3191	00000000	00000013	addi	x0,x0,0	  x0:0x00000000
       31935000	      3192	80002bd0	00000013	addi	x0,x0,0	  x0:0x00000000
       31945000	      3193	80002bd4	0300086f	jal	x16,80002bd4	 x16=0x80002bd4
       31955000	      3194	00000000	00000013	addi	x0,x0,0	  x0:0x00000000
       31965000	      3195	80002c00	00000013	addi	x0,x0,0	  x0:0x00000000
       31975000	      3196	80002c04	fcdff2ef	jal	x5,80002c04	  x5=0x80002c04
       31985000	      3197	00000000	00000013	addi	x0,x0,0	  x0:0x00000000
       31995000	      3198	80002bcc	00000013	addi	x0,x0,0	  x0:0x00000000
       32005000	      3199	80002bd0	0400036f	jal	x6,80002bd0	  x6=0x80002bd0
       32015000	      3200	00000000	00000013	addi	x0,x0,0	  x0:0x00000000
       32025000	      3201	80002c0c	00000013	addi	x0,x0,0	  x0:0x00000000
       32035000	      3202	80002c10	ff9ff36f	jal	x6,80002c10	  x6=0x80002c10
       32045000	      3203	00000000	00000013	addi	x0,x0,0	  x0:0x00000000
       32055000	      3204	80002c04	00000013	addi	x0,x0,0	  x0:0x00000000
       32065000	      3205	80002c08	00c000ef	jal	x1,80002c08	  x1=0x80002c08
       32075000	      3206	00000000	00000013	addi	x0,x0,0	  x0:0x00000000
       32085000	      3207	80002c10	00000013	addi	x0,x0,0	  x0:0x00000000
       32095000	      3208	80002c14	fadff0ef	jal	x1,80002c14	  x1=0x80002c14
       32105000	      3209	00000000	00000013	addi	x0,x0,0	  x0:0x00000000
       32115000	      3210	80002bbc	00000013	addi	x0,x0,0	  x0:0x00000000
       32125000	      3211	80002bc0	034000ef	jal	x1,80002bc0	  x1=0x80002bc0
       32135000	      3212	00000000	00000013	addi	x0,x0,0	  x0:0x00000000
       32145000	      3213	80002bf0	00000013	addi	x0,x0,0	  x0:0x00000000
       32155000	      3214	80002bf4	ff5ff46f	jal	x8,80002bf4	  x8=0x80002bf4
       32165000	      3215	00000000	00000013	addi	x0,x0,0	  x0:0x00000000
       32175000	      3216	80002be4	00000013	addi	x0,x0,0	  x0:0x00000000
       32185000	      3217	80002be8	040000ef	jal	x1,80002be8	  x1=0x80002be8
       32195000	      3218	00000000	00000013	addi	x0,x0,0	  x0:0x00000000
       32205000	      3219	80002c24	00000013	addi	x0,x0,0	  x0:0x00000000
       32215000	      3220	80002c28	013f0733	add	x14,x30,x19	 x30:0x80002b04 x19:0x80009fc4 x14=0x0000cac8
       32225000	      3221	80002c2c	020000ef	jal	x1,80002c2c	  x1=0x80002c2c
       32235000	      3222	00000000	00000013	addi	x0,x0,0	  x0:0x00000000
       32245000	      3223	80002c48	00000013	addi	x0,x0,0	  x0:0x00000000
       32255000	      3224	80002c4c	00c000ef	jal	x1,80002c4c	  x1=0x80002c4c
       32265000	      3225	00000000	00000013	addi	x0,x0,0	  x0:0x00000000
       32275000	      3226	80002c54	00000013	addi	x0,x0,0	  x0:0x00000000
       32285000	      3227	80002c58	fe5ff0ef	jal	x1,80002c58	  x1=0x80002c58
       32295000	      3228	00000000	00000013	addi	x0,x0,0	  x0:0x00000000
       32305000	      3229	80002c38	00000013	addi	x0,x0,0	  x0:0x00000000
       32315000	      3230	80002c3c	02800cef	jal	x25,80002c3c	 x25=0x80002c3c
       32325000	      3231	00000000	00000013	addi	x0,x0,0	  x0:0x00000000
       32335000	      3232	80002c60	00000013	addi	x0,x0,0	  x0:0x00000000
       32345000	      3233	80002c64	030000ef	jal	x1,80002c64	  x1=0x80002c64
       32355000	      3234	00000000	00000013	addi	x0,x0,0	  x0:0x00000000
       32365000	      3235	80002c90	00000013	addi	x0,x0,0	  x0:0x00000000
       32375000	      3236	80002c94	fe9ff2ef	jal	x5,80002c94	  x5=0x80002c94
       32385000	      3237	00000000	00000013	addi	x0,x0,0	  x0:0x00000000
       32395000	      3238	80002c78	00000013	addi	x0,x0,0	  x0:0x00000000
       32405000	      3239	80002c7c	fe5ff0ef	jal	x1,80002c7c	  x1=0x80002c7c
       32415000	      3240	00000000	00000013	addi	x0,x0,0	  x0:0x00000000
       32425000	      3241	80002c5c	00000013	addi	x0,x0,0	  x0:0x00000000
       32435000	      3242	80002c60	ff1ff36f	jal	x6,80002c60	  x6=0x80002c60
       32445000	      3243	00000000	00000013	addi	x0,x0,0	  x0:0x00000000
       32455000	      3244	80002c4c	00000013	addi	x0,x0,0	  x0:0x00000000
       32465000	      3245	80002c50	0380036f	jal	x6,80002c50	  x6=0x80002c50
       32475000	      3246	00000000	00000013	addi	x0,x0,0	  x0:0x00000000
       32485000	      3247	80002c84	00000013	addi	x0,x0,0	  x0:0x00000000
       32495000	      3248	80002c88	fd5ff36f	jal	x6,80002c88	  x6=0x80002c88
       32505000	      3249	00000000	00000013	addi	x0,x0,0	  x0:0x00000000
       32515000	      3250	80002c58	00000013	addi	x0,x0,0	  x0:0x00000000
       32525000	      3251	80002c5c	0240036f	jal	x6,80002c5c	  x6=0x80002c5c
       32535000	      3252	00000000	00000013	addi	x0,x0,0	  x0:0x00000000
       32545000	      3253	80002c7c	00000013	addi	x0,x0,0	  x0:0x00000000
       32555000	      3254	80002c80	fb5ff0ef	jal	x1,80002c80	  x1=0x80002c80
       32565000	      3255	00000000	00000013	addi	x0,x0,0	  x0:0x00000000
       32575000	      3256	80002c30	00000013	addi	x0,x0,0	  x0:0x00000000
       32585000	      3257	80002c34	040000ef	jal	x1,80002c34	  x1=0x80002c34
       32595000	      3258	00000000	00000013	addi	x0,x0,0	  x0:0x00000000
       32605000	      3259	80002c70	00000013	addi	x0,x0,0	  x0:0x00000000
       32615000	      3260	80002c74	fd1ff0ef	jal	x1,80002c74	  x1=0x80002c74
       32625000	      3261	00000000	00000013	addi	x0,x0,0	  x0:0x00000000
       32635000	      3262	80002c40	00000013	addi	x0,x0,0	  x0:0x00000000
       32645000	      3263	80002c44	fedff36f	jal	x6,80002c44	  x6=0x80002c44
       32655000	      3264	00000000	00000013	addi	x0,x0,0	  x0:0x00000000
       32665000	      3265	80002c2c	00000013	addi	x0,x0,0	  x0:0x00000000
       32675000	      3266	80002c30	0400046f	jal	x8,80002c30	  x8=0x80002c30
       32685000	      3267	00000000	00000013	addi	x0,x0,0	  x0:0x00000000
       32695000	      3268	80002c6c	00000013	addi	x0,x0,0	  x0:0x00000000
       32705000	      3269	80002c70	020000ef	jal	x1,80002c70	  x1=0x80002c70
       32715000	      3270	00000000	00000013	addi	x0,x0,0	  x0:0x00000000
       32725000	      3271	80002c8c	00000013	addi	x0,x0,0	  x0:0x00000000
       32735000	      3272	80002c90	fe9ff0ef	jal	x1,80002c90	  x1=0x80002c90
       32745000	      3273	00000000	00000013	addi	x0,x0,0	  x0:0x00000000
       32755000	      3274	80002c74	00000013	addi	x0,x0,0	  x0:0x00000000
       32765000	      3275	80002c78	fc1ff0ef	jal	x1,80002c78	  x1=0x80002c78
       32775000	      3276	00000000	00000013	addi	x0,x0,0	  x0:0x00000000
       32785000	      3277	80002c34	00000013	addi	x0,x0,0	  x0:0x00000000
       32795000	      3278	80002c38	04c000ef	jal	x1,80002c38	  x1=0x80002c38
       32805000	      3279	00000000	00000013	addi	x0,x0,0	  x0:0x00000000
       32815000	      3280	80002c80	00000013	addi	x0,x0,0	  x0:0x00000000
       32825000	      3281	80002c84	fc5ff36f	jal	x6,80002c84	  x6=0x80002c84
       32835000	      3282	00000000	00000013	addi	x0,x0,0	  x0:0x00000000
       32845000	      3283	80002c44	00000013	addi	x0,x0,0	  x0:0x00000000
       32855000	      3284	80002c48	020000ef	jal	x1,80002c48	  x1=0x80002c48
       32865000	      3285	00000000	00000013	addi	x0,x0,0	  x0:0x00000000
       32875000	      3286	80002c64	00000013	addi	x0,x0,0	  x0:0x00000000
       32885000	      3287	80002c68	024000ef	jal	x1,80002c68	  x1=0x80002c68
       32895000	      3288	00000000	00000013	addi	x0,x0,0	  x0:0x00000000
       32905000	      3289	80002c88	00000013	addi	x0,x0,0	  x0:0x00000000
       32915000	      3290	80002c8c	fe1ff76f	jal	x14,80002c8c	 x14=0x80002c8c
       32925000	      3291	00000000	00000013	addi	x0,x0,0	  x0:0x00000000
       32935000	      3292	80002c68	00000013	addi	x0,x0,0	  x0:0x00000000
       32945000	      3293	80002c6c	fe9ff8ef	jal	x17,80002c6c	 x17=0x80002c6c
       32955000	      3294	00000000	00000013	addi	x0,x0,0	  x0:0x00000000
       32965000	      3295	80002c50	00000013	addi	x0,x0,0	  x0:0x00000000
       32975000	      3296	80002c54	fedff36f	jal	x6,80002c54	  x6=0x80002c54
       32985000	      3297	00000000	00000013	addi	x0,x0,0	  x0:0x00000000
       32995000	      3298	80002c3c	00000013	addi	x0,x0,0	  x0:0x00000000
       33005000	      3299	80002c40	058001ef	jal	x3,80002c40	  x3=0x80002c40
       33015000	      3300	00000000	00000013	addi	x0,x0,0	  x0:0x00000000
       33025000	      3301	80002c94	00000013	addi	x0,x0,0	  x0:0x00000000
       33035000	      3302	80002c98	99546213	ori	x4,x8,-1643	  x8:0x80002c30  x4=0xfffffdb5
       33045000	      3303	80002c9c	059f8263	beq	x31,x25,80002ce0	 x31:0x80002a90 x25:0x80002c3c
       33055000	      3304	80002ca0	40b0d3b3	sra	x7,x1,x11	  x1:0x80002c68 x11:0x00000001  x7=0xc0001634
       33065000	      3305	80002ca4	40d60633	sub	x12,x12,x13	 x12:0x80002a40 x13:0x80002abc x12=0xffffff84
       33075000	      3306	80002ca8	4c2a0e93	addi	x29,x20,1218	 x20:0xfffffe13 x29=0x000002d5
       33085000	      3307	80002cac	01bf9293	slli	x5,x31,0x1b	 x31:0x80002a90  x5=0x80000000
       33095000	      3308	80002cb0	02b28a63	beq	x5,x11,80002ce4	  x5:0x80000000 x11:0x00000001
       33105000	      3309	80002cb4	00aa4cb3	xor	x25,x20,x10	 x20:0xfffffe13 x10:0x80002a48 x25=0x7fffd45b
       33115000	      3310	80002cb8	2b5b8893	addi	x17,x23,693	 x23:0x80002a30 x17=0x80002ce5
       33125000	      3311	80002cbc	011147b3	xor	x15,x2,x17	  x2:0x80002bdc x17:0x80002ce5 x15=0x00000739
       33135000	      3312	80002cc0	403cd5b3	sra	x11,x25,x3	 x25:0x7fffd45b  x3:0x80002c40 x11=0x7fffd45b
       33145000	      3313	80002cc4	0156e5b3	or	x11,x13,x21	 x13:0x80002abc x21:0x00000080 x11=0x80002abc
       33155000	      3314	80002cc8	584ae117	auipc	x2,0x584ae	  x2=0xd84b0cc4
       33165000	      3315	80002ccc	00000013	addi	x0,x0,0	  x0:0x00000000
       33175000	      3316	80002cd0	0598f263	bgeu	x17,x25,80002d14	 x17:0x80002ce5 x25:0x7fffd45b
       33185000	      3317	00000000	00000013	addi	x0,x0,0	  x0:0x00000000
       33195000	      3318	80002d10	00000013	addi	x0,x0,0	  x0:0x00000000
       33205000	      3319	80002d14	00766a33	or	x20,x12,x7	 x12:0xffffff84  x7:0xc0001634 x20=0xffffffb4
       33215000	      3320	80002d18	4c46b813	sltiu	x16,x13,1220	 x13:0x80002abc x16=0x00000000
       33225000	      3321	80002d1c	03d65063	bge	x12,x29,80002d3c	 x12:0xffffff84 x29:0x000002d5
       33235000	      3322	80002d20	015d8633	add	x12,x27,x21	 x27:0x80002b30 x21:0x00000080 x12=0x80002bb0
       33245000	      3323	80002d24	010e8db3	add	x27,x29,x16	 x29:0x000002d5 x16:0x00000000 x27=0x000002d5
       33255000	      3324	80002d28	01109f13	slli	x30,x1,0x11	  x1:0x80002c68 x30=0x58d00000
       33265000	      3325	80002d2c	01c99c63	bne	x19,x28,80002d44	 x19:0x80009fc4 x28:0x80002ba4
       33275000	      3326	00000000	00000013	addi	x0,x0,0	  x0:0x00000000
       33285000	      3327	80002d40	00000013	addi	x0,x0,0	  x0:0x00000000
       33295000	      3328	80002d44	fbc16113	ori	x2,x2,-68	  x2:0xd84b0cc4  x2=0xfffffffc
       33305000	      3329	80002d48	015ceab3	or	x21,x25,x21	 x25:0x7fffd45b x21:0x00000080 x21=0x7fffd4db
       33315000	      3330	80002d4c	0314c663	blt	x9,x17,80002d78	  x9:0x80002b6c x17:0x80002ce5
       33325000	      3331	00000000	00000013	addi	x0,x0,0	  x0:0x00000000
       33335000	      3332	80002d74	00000013	addi	x0,x0,0	  x0:0x00000000
       33345000	      3333	80002d78	9fb02a37	lui	x20,0x9fb02	 x20=0x9fb02000
       33355000	      3334	80002d7c	022a7e63	bgeu	x20,x2,80002db8	 x20:0x9fb02000  x2:0xfffffffc
       33365000	      3335	80002d80	006ea6b3	slt	x13,x29,x6	 x29:0x000002d5  x6:0x80002c54 x13=0x00000000
       33375000	      3336	80002d84	01ad5b93	srli	x23,x26,0x1a	 x26:0xfb7092cc x23=0x0000003e
       33385000	      3337	80002d88	00561e63	bne	x12,x5,80002da4	 x12:0x80002bb0  x5:0x80000000
       33395000	      3338	00000000	00000013	addi	x0,x0,0	  x0:0x00000000
       33405000	      3339	80002da0	00000013	addi	x0,x0,0	  x0:0x00000000
       33415000	      3340	80002da4	00e50a63	beq	x10,x14,80002db8	 x10:0x80002a48 x14:0x80002c8c
       33425000	      3341	80002da8	01166863	bltu	x12,x17,80002db8	 x12:0x80002bb0 x17:0x80002ce5
       33435000	      3342	00000000	00000013	addi	x0,x0,0	  x0:0x00000000
       33445000	      3343	80002db4	00000013	addi	x0,x0,0	  x0:0x00000000
       33455000	      3344	80002db8	017d1663	bne	x26,x23,80002dc4	 x26:0xfb7092cc x23:0x0000003e
       33465000	      3345	00000000	00000013	addi	x0,x0,0	  x0:0x00000000
       33475000	      3346	80002dc0	00000013	addi	x0,x0,0	  x0:0x00000000
       33485000	      3347	80002dc4	01db6263	bltu	x22,x29,80002dc8	 x22:0x80009f64 x29:0x000002d5
       33495000	      3348	80002dc8	41fade33	sra	x28,x21,x31	 x21:0x7fffd4db x31:0x80002a90 x28=0x00007fff
       33505000	      3349	80002dcc	03f18263	beq	x3,x31,80002df0	  x3:0x80002c40 x31:0x80002a90
       33515000	      3350	80002dd0	ce3a8a13	addi	x20,x21,-797	 x21:0x7fffd4db x20=0x7fffd1be
       33525000	      3351	80002dd4	ac2d0d93	addi	x27,x26,-1342	 x26:0xfb7092cc x27=0xfb708d8e
       33535000	      3352	80002dd8	403f8633	sub	x12,x31,x3	 x31:0x80002a90  x3:0x80002c40 x12=0xfffffe50
       33545000	      3353	80002ddc	008c40b3	xor	x1,x24,x8	 x24:0x600027f1  x8:0x80002c30  x1=0xe0000bc1
       33555000	      3354	80002de0	004f1713	slli	x14,x30,0x4	 x30:0x58d00000 x14=0x8d000000
       33565000	      3355	80002de4	002ff5b3	and	x11,x31,x2	 x31:0x80002a90  x2:0xfffffffc x11=0x80002a90
       33575000	      3356	80002de8	01b115b3	sll	x11,x2,x27	  x2:0xfffffffc x27:0xfb708d8e x11=0xffff0000
       33585000	      3357	80002dec	00c55493	srli	x9,x10,0xc	 x10:0x80002a48  x9=0x00080002
       33595000	      3358	80002df0	4ecffe93	andi	x29,x31,1260	 x31:0x80002a90 x29=0x00000080
       33605000	      3359	80002df4	002a57b3	srl	x15,x20,x2	 x20:0x7fffd1be  x2:0xfffffffc x15=0x00000007
       33615000	      3360	80002df8	b2598693	addi	x13,x19,-1243	 x19:0x80009fc4 x13=0x80009ae9
       33625000	      3361	80002dfc	01ff7eb3	and	x29,x30,x31	 x30:0x58d00000 x31:0x80002a90 x29=0x00000000
       33635000	      3362	80002e00	401f5a93	srai	x21,x30,0x1	 x30:0x58d00000 x21=0x2c680000
       33645000	      3363	80002e04	003e4863	blt	x28,x3,80002e14	 x28:0x00007fff  x3:0x80002c40
       33655000	      3364	80002e08	00000013	addi	x0,x0,0	  x0:0x00000000
       33665000	      3365	80002e0c	9656ee13	ori	x28,x13,-1691	 x13:0x80009ae9 x28=0xfffffbed
       33675000	      3366	80002e10	00000013	addi	x0,x0,0	  x0:0x00000000
       33685000	      3367	80002e14	da67b613	sltiu	x12,x15,-602	 x15:0x00000007 x12=0x00000001
       33695000	      3368	80002e18	61030d93	addi	x27,x6,1552	  x6:0x80002c54 x27=0x80003264
       33705000	      3369	80002e1c	6a46efb7	lui	x31,0x6a46e	 x31=0x6a46e000
       33715000	      3370	80002e20	0277c063	blt	x15,x7,80002e40	 x15:0x00000007  x7:0xc0001634
       33725000	      3371	80002e24	00a53c33	sltu	x24,x10,x10	 x10:0x80002a48 x10:0x80002a48 x24=0x00000000
       33735000	      3372	80002e28	04db8063	beq	x23,x13,80002e68	 x23:0x0000003e x13:0x80009ae9
       33745000	      3373	80002e2c	025ae463	bltu	x21,x5,80002e54	 x21:0x2c680000  x5:0x80000000
       33755000	      3374	00000000	00000013	addi	x0,x0,0	  x0:0x00000000
       33765000	      3375	80002e50	00000013	addi	x0,x0,0	  x0:0x00000000
       33775000	      3376	80002e54	013520b3	slt	x1,x10,x19	 x10:0x80002a48 x19:0x80009fc4  x1=0x00000001
       33785000	      3377	80002e58	41b300b3	sub	x1,x6,x27	  x6:0x80002c54 x27:0x80003264  x1=0xfffff9f0
       33795000	      3378	80002e5c	40528cb3	sub	x25,x5,x5	  x5:0x80000000  x5:0x80000000 x25=0x00000000
       33805000	      3379	80002e60	41e60c33	sub	x24,x12,x30	 x12:0x00000001 x30:0x58d00000 x24=0xa7300001
       33815000	      3380	80002e64	182ca913	slti	x18,x25,386	 x25:0x00000000 x18=0x00000001
       33825000	      3381	80002e68	015d9a13	slli	x20,x27,0x15	 x27:0x80003264 x20=0x4c800000
       33835000	      3382	80002e6c	1f333f93	sltiu	x31,x6,499	  x6:0x80002c54 x31=0x00000000
       33845000	      3383	80002e70	32618613	addi	x12,x3,806	  x3:0x80002c40 x12=0x80002f66
       33855000	      3384	80002e74	039e1463	bne	x28,x25,80002e9c	 x28:0xfffffbed x25:0x00000000
       33865000	      3385	00000000	00000013	addi	x0,x0,0	  x0:0x00000000
       33875000	      3386	80002e98	00000013	addi	x0,x0,0	  x0:0x00000000
       33885000	      3387	80002e9c	00155033	srl	x0,x10,x1	 x10:0x80002a48  x1:0xfffff9f0
       33895000	      3388	80002ea0	00999393	slli	x7,x19,0x9	 x19:0x80009fc4  x7=0x013f8800
       33905000	      3389	80002ea4	404edf13	srai	x30,x29,0x4	 x29:0x00000000 x30=0x00000000
       33915000	      3390	80002ea8	04bd0063	beq	x26,x11,80002ee8	 x26:0xfb7092cc x11:0xffff0000
       33925000	      3391	80002eac	01fcc0b3	xor	x1,x25,x31	 x25:0x00000000 x31:0x00000000  x1=0x00000000
       33935000	      3392	80002eb0	008d6233	or	x4,x26,x8	 x26:0xfb7092cc  x8:0x80002c30  x4=0xfb70befc
       33945000	      3393	80002eb4	f1e8a813	slti	x16,x17,-226	 x17:0x80002ce5 x16=0x00000001
       33955000	      3394	80002eb8	00579f93	slli	x31,x15,0x5	 x15:0x00000007 x31=0x000000e0
       33965000	      3395	80002ebc	00136733	or	x14,x6,x1	  x6:0x80002c54  x1:0x00000000 x14=0x80002c54
       33975000	      3396	80002ec0	01204e33	xor	x28,x0,x18	  x0:0x00000000 x18:0x00000001 x28=0x00000001
       33985000	      3397	80002ec4	99842913	slti	x18,x8,-1640	  x8:0x80002c30 x18=0x00000001
       33995000	      3398	80002ec8	7024c013	xori	x0,x9,1794	  x9:0x00080002
       34005000	      3399	80002ecc	01d032b3	sltu	x5,x0,x29	  x0:0x00000000 x29:0x00000000  x5=0x00000000
       34015000	      3400	80002ed0	016c5293	srli	x5,x24,0x16	 x24:0xa7300001  x5=0x0000029c
       34025000	      3401	80002ed4	4029dc93	srai	x25,x19,0x2	 x19:0x80009fc4 x25=0xe00027f1
       34035000	      3402	80002ed8	0320f463	bgeu	x1,x18,80002f00	  x1:0x00000000 x18:0x00000001
       34045000	      3403	80002edc	0039ffb3	and	x31,x19,x3	 x19:0x80009fc4  x3:0x80002c40 x31=0x80000c40
       34055000	      3404	80002ee0	919fa413	slti	x8,x31,-1767	 x31:0x80000c40  x8=0x00000001
       34065000	      3405	80002ee4	01b5a4b3	slt	x9,x11,x27	 x11:0xffff0000 x27:0x80003264  x9=0x00000000
       34075000	      3406	80002ee8	01374933	xor	x18,x14,x19	 x14:0x80002c54 x19:0x80009fc4 x18=0x0000b390
       34085000	      3407	80002eec	f1254313	xori	x6,x10,-238	 x10:0x80002a48  x6=0x7fffd55a
       34095000	      3408	80002ef0	01fdb233	sltu	x4,x27,x31	 x27:0x80003264 x31:0x80000c40  x4=0x00000000
       34105000	      3409	80002ef4	cc70b117	auipc	x2,0xcc70b	  x2=0x4c70def0
       34115000	      3410	80002ef8	05498263	beq	x19,x20,80002f3c	 x19:0x80009fc4 x20:0x4c800000
       34125000	      3411	80002efc	7418bf93	sltiu	x31,x17,1857	 x17:0x80002ce5 x31=0x00000000
       34135000	      3412	80002f00	0066f033	and	x0,x13,x6	 x13:0x80009ae9  x6:0x7fffd55a
       34145000	      3413	80002f04	ad567513	andi	x10,x12,-1323	 x12:0x80002f66 x10=0x80002a44
       34155000	      3414	80002f08	01c420b3	slt	x1,x8,x28	  x8:0x00000001 x28:0x00000001  x1=0x00000000
       34165000	      3415	80002f0c	01495d93	srli	x27,x18,0x14	 x18:0x0000b390 x27=0x00000000
       34175000	      3416	80002f10	c3a3e293	ori	x5,x7,-966	  x7:0x013f8800  x5=0xfffffc3a
       34185000	      3417	80002f14	47c9ac17	auipc	x24,0x47c9a	 x24=0xc7c9cf10
       34195000	      3418	80002f18	03a4f663	bgeu	x9,x26,80002f44	  x9:0x00000000 x26:0xfb7092cc
       34205000	      3419	80002f1c	01a03fb3	sltu	x31,x0,x26	  x0:0x00000000 x26:0xfb7092cc x31=0x00000001
       34215000	      3420	80002f20	018a9293	slli	x5,x21,0x18	 x21:0x2c680000  x5=0x00000000
       34225000	      3421	80002f24	0406d263	bge	x13,x0,80002f68	 x13:0x80009ae9  x0:0x00000000
       34235000	      3422	80002f28	00829663	bne	x5,x8,80002f34	  x5:0x00000000  x8:0x00000001
       34245000	      3423	00000000	00000013	addi	x0,x0,0	  x0:0x00000000
       34255000	      3424	80002f30	00000013	addi	x0,x0,0	  x0:0x00000000
       34265000	      3425	80002f34	0187d5b3	srl	x11,x15,x24	 x15:0x00000007 x24:0xc7c9cf10 x11=0x00000000
       34275000	      3426	80002f38	62126093	ori	x1,x4,1569	  x4:0x00000000  x1=0x00000621
       34285000	      3427	80002f3c	40ad8133	sub	x2,x27,x10	 x27:0x00000000 x10:0x80002a44  x2=0x7fffd5bc
       34295000	      3428	80002f40	90eef113	andi	x2,x29,-1778	 x29:0x00000000  x2=0x00000000
       34305000	      3429	80002f44	05af8263	beq	x31,x26,80002f88	 x31:0x00000001 x26:0xfb7092cc
       34315000	      3430	80002f48	0016b6b3	sltu	x13,x13,x1	 x13:0x80009ae9  x1:0x00000621 x13=0x00000000
       34325000	      3431	80002f4c	bec53bb7	lui	x23,0xbec53	 x23=0xbec53000
       34335000	      3432	80002f50	006ad813	srli	x16,x21,0x6	 x21:0x2c680000 x16=0x00b1a000
       34345000	      3433	80002f54	ac083d93	sltiu	x27,x16,-1344	 x16:0x00b1a000 x27=0x00000001
       34355000	      3434	80002f58	311d3a93	sltiu	x21,x26,785	 x26:0xfb7092cc x21=0x00000000
       34365000	      3435	80002f5c	00e54ab3	xor	x21,x10,x14	 x10:0x80002a44 x14:0x80002c54 x21=0x00000610
       34375000	      3436	80002f60	89b00bb7	lui	x23,0x89b00	 x23=0x89b00000
       34385000	      3437	80002f64	416a5813	srai	x16,x20,0x16	 x20:0x4c800000 x16=0x00000132
       34395000	      3438	80002f68	039b4863	blt	x22,x25,80002f98	 x22:0x80009f64 x25:0xe00027f1
       34405000	      3439	00000000	00000013	addi	x0,x0,0	  x0:0x00000000
       34415000	      3440	80002f94	00000013	addi	x0,x0,0	  x0:0x00000000
       34425000	      3441	80002f98	00698c63	beq	x19,x6,80002fb0	 x19:0x80009fc4  x6:0x7fffd55a
       34435000	      3442	80002f9c	01437c33	and	x24,x6,x20	  x6:0x7fffd55a x20:0x4c800000 x24=0x4c800000
       34445000	      3443	80002fa0	d1943393	sltiu	x7,x8,-743	  x8:0x00000001  x7=0x00000001
       34455000	      3444	80002fa4	41ca5a13	srai	x20,x20,0x1c	 x20:0x4c800000 x20=0x00000004
       34465000	      3445	80002fa8	a2924513	xori	x10,x4,-1495	  x4:0x00000000 x10=0xfffffa29
       34475000	      3446	80002fac	006ce433	or	x8,x25,x6	 x25:0xe00027f1  x6:0x7fffd55a  x8=0xfffff7fb
       34485000	      3447	80002fb0	01ff2fb3	slt	x31,x30,x31	 x30:0x00000000 x31:0x00000001 x31=0x00000001
       34495000	      3448	80002fb4	c7899337	lui	x6,0xc7899	  x6=0xc7899000
       34505000	      3449	80002fb8	0181d433	srl	x8,x3,x24	  x3:0x80002c40 x24:0x4c800000  x8=0x80002c40
       34515000	      3450	80002fbc	00683db3	sltu	x27,x16,x6	 x16:0x00000132  x6:0xc7899000 x27=0x00000001
       34525000	      3451	80002fc0	00f89913	slli	x18,x17,0xf	 x17:0x80002ce5 x18=0x16728000
       34535000	      3452	80002fc4	41780cb3	sub	x25,x16,x23	 x16:0x00000132 x23:0x89b00000 x25=0x76500132
       34545000	      3453	80002fc8	8f8a6393	ori	x7,x20,-1800	 x20:0x00000004  x7=0xfffff8fc
       34555000	      3454	80002fcc	03b75063	bge	x14,x27,80002fec	 x14:0x80002c54 x27:0x00000001
       34565000	      3455	80002fd0	05e18263	beq	x3,x30,80003014	  x3:0x80002c40 x30:0x00000000
       34575000	      3456	80002fd4	f86c8c93	addi	x25,x25,-122	 x25:0x76500132 x25=0x765000b8
       34585000	      3457	80002fd8	eb370f93	addi	x31,x14,-333	 x14:0x80002c54 x31=0x80002b07
       34595000	      3458	80002fdc	01c451b3	srl	x3,x8,x28	  x8:0x80002c40 x28:0x00000001  x3=0x40001620
       34605000	      3459	80002fe0	03dd8463	beq	x27,x29,80003008	 x27:0x00000001 x29:0x00000000
       34615000	      3460	80002fe4	00424a63	blt	x4,x4,80002ff8	  x4:0x00000000  x4:0x00000000
       34625000	      3461	80002fe8	44cd0593	addi	x11,x26,1100	 x26:0xfb7092cc x11=0xfb709718
       34635000	      3462	80002fec	00000013	addi	x0,x0,0	  x0:0x00000000
       34645000	      3463	80002ff0	56242513	slti	x10,x8,1378	  x8:0x80002c40 x10=0x00000001
       34655000	      3464	80002ff4	005b1cb3	sll	x25,x22,x5	 x22:0x80009f64  x5:0x00000000 x25=0x80009f64
       34665000	      3465	80002ff8	00000013	addi	x0,x0,0	  x0:0x00000000
       34675000	      3466	80002ffc	02356463	bltu	x10,x3,80003024	 x10:0x00000001  x3:0x40001620
       34685000	      3467	00000000	00000013	addi	x0,x0,0	  x0:0x00000000
       34695000	      3468	80003020	00000013	addi	x0,x0,0	  x0:0x00000000
       34705000	      3469	80003024	882b0d93	addi	x27,x22,-1918	 x22:0x80009f64 x27=0x800097e6
       34715000	      3470	80003028	6ec82f13	slti	x30,x16,1772	 x16:0x00000132 x30=0x00000001
       34725000	      3471	8000302c	018aee33	or	x28,x21,x24	 x21:0x00000610 x24:0x4c800000 x28=0x4c800610
       34735000	      3472	80003030	01419bb3	sll	x23,x3,x20	  x3:0x40001620 x20:0x00000004 x23=0x00016200
       34745000	      3473	80003034	01813533	sltu	x10,x2,x24	  x2:0x00000000 x24:0x4c800000 x10=0x00000001
       34755000	      3474	80003038	00ed3e33	sltu	x28,x26,x14	 x26:0xfb7092cc x14:0x80002c54 x28=0x00000000
       34765000	      3475	8000303c	01854863	blt	x10,x24,8000304c	 x10:0x00000001 x24:0x4c800000
       34775000	      3476	00000000	00000013	addi	x0,x0,0	  x0:0x00000000
       34785000	      3477	80003048	00000013	addi	x0,x0,0	  x0:0x00000000
       34795000	      3478	8000304c	016747b3	xor	x15,x14,x22	 x14:0x80002c54 x22:0x80009f64 x15=0x0000b330
       34805000	      3479	80003050	00e42233	slt	x4,x8,x14	  x8:0x80002c40 x14:0x80002c54  x4=0x00000001
       34815000	      3480	80003054	40be5fb3	sra	x31,x28,x11	 x28:0x00000000 x11:0xfb709718 x31=0x00000000
       34825000	      3481	80003058	05a56063	bltu	x10,x26,80003098	 x10:0x00000001 x26:0xfb7092cc
       34835000	      3482	00000000	00000013	addi	x0,x0,0	  x0:0x00000000
       34845000	      3483	80003094	00000013	addi	x0,x0,0	  x0:0x00000000
       34855000	      3484	80003098	8a430e37	lui	x28,0x8a430	 x28=0x8a430000
       34865000	      3485	8000309c	507f0213	addi	x4,x30,1287	 x30:0x00000001  x4=0x00000508
       34875000	      3486	800030a0	00d03a33	sltu	x20,x0,x13	  x0:0x00000000 x13:0x00000000 x20=0x00000000
       34885000	      3487	800030a4	03bd6a63	bltu	x26,x27,800030d8	 x26:0xfb7092cc x27:0x800097e6
       34895000	      3488	800030a8	019e9cb3	sll	x25,x29,x25	 x29:0x00000000 x25:0x80009f64 x25=0x00000000
       34905000	      3489	800030ac	bc7aea13	ori	x20,x21,-1081	 x21:0x00000610 x20=0xffffffd7
       34915000	      3490	800030b0	cbd14413	xori	x8,x2,-835	  x2:0x00000000  x8=0xfffffcbd
       34925000	      3491	800030b4	f64f6713	ori	x14,x30,-156	 x30:0x00000001 x14=0xffffff65
       34935000	      3492	800030b8	02b8fe13	andi	x28,x17,43	 x17:0x80002ce5 x28=0x00000021
       34945000	      3493	800030bc	00e22133	slt	x2,x4,x14	  x4:0x00000508 x14:0xffffff65  x2=0x00000000
       34955000	      3494	800030c0	61f44c93	xori	x25,x8,1567	  x8:0xfffffcbd x25=0xfffffaa2
       34965000	      3495	800030c4	adf3a8b7	lui	x17,0xadf3a	 x17=0xadf3a000
       34975000	      3496	800030c8	ae102a93	slti	x21,x0,-1311	  x0:0x00000000 x21=0x00000000
       34985000	      3497	800030cc	018c81b3	add	x3,x25,x24	 x25:0xfffffaa2 x24:0x4c800000  x3=0x4c7ffaa2
       34995000	      3498	800030d0	3b97e893	ori	x17,x15,953	 x15:0x0000b330 x17=0x0000b3b9
       35005000	      3499	800030d4	a48ca093	slti	x1,x25,-1464	 x25:0xfffffaa2  x1=0x00000000
       35015000	      3500	800030d8	00f51493	slli	x9,x10,0xf	 x10:0x00000001  x9=0x00008000
       35025000	      3501	800030dc	981f0e13	addi	x28,x30,-1663	 x30:0x00000001 x28=0xfffff982
       35035000	      3502	800030e0	9a47e313	ori	x6,x15,-1628	 x15:0x0000b330  x6=0xfffffbb4
       35045000	      3503	800030e4	4fbd3193	sltiu	x3,x26,1275	 x26:0xfb7092cc  x3=0x00000000
       35055000	      3504	800030e8	97c5be93	sltiu	x29,x11,-1668	 x11:0xfb709718 x29=0x00000001
       35065000	      3505	800030ec	00000013	addi	x0,x0,0	  x0:0x00000000
       35075000	      3506	800030f0	01e4f3b3	and	x7,x9,x30	  x9:0x00008000 x30:0x00000001  x7=0x00000000
       35085000	      3507	800030f4	022e7063	bgeu	x28,x2,80003114	 x28:0xfffff982  x2:0x00000000
       35095000	      3508	00000000	00000013	addi	x0,x0,0	  x0:0x00000000
       35105000	      3509	80003110	00000013	addi	x0,x0,0	  x0:0x00000000
       35115000	      3510	80003114	01d6cbb3	xor	x23,x13,x29	 x13:0x00000000 x29:0x00000001 x23=0x00000001
       35125000	      3511	80003118	0182a433	slt	x8,x5,x24	  x5:0x00000000 x24:0x4c800000  x8=0x00000001
       35135000	      3512	8000311c	166c6113	ori	x2,x24,358	 x24:0x4c800000  x2=0x4c800166
       35145000	      3513	80003120	002bb533	sltu	x10,x23,x2	 x23:0x00000001  x2:0x4c800166 x10=0x00000001
       35155000	      3514	80003124	00cd5a63	bge	x26,x12,80003138	 x26:0xfb7092cc x12:0x80002f66
       35165000	      3515	00000000	00000013	addi	x0,x0,0	  x0:0x00000000
       35175000	      3516	80003134	00000013	addi	x0,x0,0	  x0:0x00000000
       35185000	      3517	80003138	f88c6613	ori	x12,x24,-120	 x24:0x4c800000 x12=0xffffff88
       35195000	      3518	8000313c	023c8063	beq	x25,x3,8000315c	 x25:0xfffffaa2  x3:0x00000000
       35205000	      3519	80003140	01cc9833	sll	x16,x25,x28	 x25:0xfffffaa2 x28:0xfffff982 x16=0xffffea88
       35215000	      3520	80003144	01c0d733	srl	x14,x1,x28	  x1:0x00000000 x28:0xfffff982 x14=0x00000000
       35225000	      3521	80003148	7cae2313	slti	x6,x28,1994	 x28:0xfffff982  x6=0x00000001
       35235000	      3522	8000314c	01097e33	and	x28,x18,x16	 x18:0x16728000 x16:0xffffea88 x28=0x16728000
       35245000	      3523	80003150	02264c63	blt	x12,x2,80003188	 x12:0xffffff88  x2:0x4c800166
       35255000	      3524	00000000	00000013	addi	x0,x0,0	  x0:0x00000000
       35265000	      3525	80003184	00000013	addi	x0,x0,0	  x0:0x00000000
       35275000	      3526	80003188	083cf497	auipc	x9,0x83cf	  x9=0x883d2184
       35285000	      3527	8000318c	410c5213	srai	x4,x24,0x10	 x24:0x4c800000  x4=0x00004c80
       35295000	      3528	80003190	0952c063	blt	x5,x21,80003210	  x5:0x00000000 x21:0x00000000
       35305000	      3529	80003194	0d524293	xori	x5,x4,213	  x4:0x00004c80  x5=0x00004c55
       35315000	      3530	80003198	06120663	beq	x4,x1,80003204	  x4:0x00004c80  x1:0x00000000
       35325000	      3531	8000319c	010000ef	jal	x1,8000319c	  x1=0x8000319c
       35335000	      3532	00000000	00000013	addi	x0,x0,0	  x0:0x00000000
       35345000	      3533	800031a8	00000013	addi	x0,x0,0	  x0:0x00000000
       35355000	      3534	800031ac	01800cef	jal	x25,800031ac	 x25=0x800031ac
       35365000	      3535	00000000	00000013	addi	x0,x0,0	  x0:0x00000000
       35375000	      3536	800031c0	00000013	addi	x0,x0,0	  x0:0x00000000
       35385000	      3537	800031c4	ffdff16f	jal	x2,800031c4	  x2=0x800031c4
       35395000	      3538	00000000	00000013	addi	x0,x0,0	  x0:0x00000000
       35405000	      3539	800031bc	00000013	addi	x0,x0,0	  x0:0x00000000
       35415000	      3540	800031c0	00c000ef	jal	x1,800031c0	  x1=0x800031c0
       35425000	      3541	00000000	00000013	addi	x0,x0,0	  x0:0x00000000
       35435000	      3542	800031c8	00000013	addi	x0,x0,0	  x0:0x00000000
       35445000	      3543	800031cc	ff1ff0ef	jal	x1,800031cc	  x1=0x800031cc
       35455000	      3544	00000000	00000013	addi	x0,x0,0	  x0:0x00000000
       35465000	      3545	800031b8	00000013	addi	x0,x0,0	  x0:0x00000000
       35475000	      3546	800031bc	fe5ff0ef	jal	x1,800031bc	  x1=0x800031bc
       35485000	      3547	00000000	00000013	addi	x0,x0,0	  x0:0x00000000
       35495000	      3548	8000319c	00000013	addi	x0,x0,0	  x0:0x00000000
       35505000	      3549	800031a0	0140036f	jal	x6,800031a0	  x6=0x800031a0
       35515000	      3550	00000000	00000013	addi	x0,x0,0	  x0:0x00000000
       35525000	      3551	800031b0	00000013	addi	x0,x0,0	  x0:0x00000000
       35535000	      3552	800031b4	004000ef	jal	x1,800031b4	  x1=0x800031b4
       35545000	      3553	00000000	00000013	addi	x0,x0,0	  x0:0x00000000
       35555000	      3554	800031b4	00000013	addi	x0,x0,0	  x0:0x00000000
       35565000	      3555	800031b8	fedff0ef	jal	x1,800031b8	  x1=0x800031b8
       35575000	      3556	00000000	00000013	addi	x0,x0,0	  x0:0x00000000
       35585000	      3557	800031a0	00000013	addi	x0,x0,0	  x0:0x00000000
       35595000	      3558	800031a4	02c000ef	jal	x1,800031a4	  x1=0x800031a4
       35605000	      3559	00000000	00000013	addi	x0,x0,0	  x0:0x00000000
       35615000	      3560	800031cc	00000013	addi	x0,x0,0	  x0:0x00000000
       35625000	      3561	800031d0	fe1ff36f	jal	x6,800031d0	  x6=0x800031d0
       35635000	      3562	00000000	00000013	addi	x0,x0,0	  x0:0x00000000
       35645000	      3563	800031ac	00000013	addi	x0,x0,0	  x0:0x00000000
       35655000	      3564	800031b0	024000ef	jal	x1,800031b0	  x1=0x800031b0
       35665000	      3565	00000000	00000013	addi	x0,x0,0	  x0:0x00000000
       35675000	      3566	800031d0	00000013	addi	x0,x0,0	  x0:0x00000000
       35685000	      3567	800031d4	fd5ff36f	jal	x6,800031d4	  x6=0x800031d4
       35695000	      3568	00000000	00000013	addi	x0,x0,0	  x0:0x00000000
       35705000	      3569	800031a4	00000013	addi	x0,x0,0	  x0:0x00000000
       35715000	      3570	800031a8	0200036f	jal	x6,800031a8	  x6=0x800031a8
       35725000	      3571	00000000	00000013	addi	x0,x0,0	  x0:0x00000000
       35735000	      3572	800031c4	00000013	addi	x0,x0,0	  x0:0x00000000
       35745000	      3573	800031c8	010000ef	jal	x1,800031c8	  x1=0x800031c8
       35755000	      3574	00000000	00000013	addi	x0,x0,0	  x0:0x00000000
       35765000	      3575	800031d4	00000013	addi	x0,x0,0	  x0:0x00000000
       35775000	      3576	800031d8	005d1913	slli	x18,x26,0x5	 x26:0xfb7092cc x18=0x6e125980
       35785000	      3577	800031dc	7c21c113	xori	x2,x3,1986	  x3:0x00000000  x2=0x000007c2
       35795000	      3578	800031e0	66f18413	addi	x8,x3,1647	  x3:0x00000000  x8=0x0000066f
       35805000	      3579	800031e4	014d7a63	bgeu	x26,x20,800031f8	 x26:0xfb7092cc x20:0xffffffd7
       35815000	      3580	800031e8	015c6863	bltu	x24,x21,800031f8	 x24:0x4c800000 x21:0x00000000
       35825000	      3581	800031ec	73330b93	addi	x23,x6,1843	  x6:0x800031a8 x23=0x800038db
       35835000	      3582	800031f0	09e46513	ori	x10,x8,158	  x8:0x0000066f x10=0x000006ff
       35845000	      3583	800031f4	00a55633	srl	x12,x10,x10	 x10:0x000006ff x10:0x000006ff x12=0x00000000
       35855000	      3584	800031f8	4030d433	sra	x8,x1,x3	  x1:0x800031c8  x3:0x00000000  x8=0x800031c8
       35865000	      3585	800031fc	be873893	sltiu	x17,x14,-1048	 x14:0x00000000 x17=0x00000001
       35875000	      3586	80003200	0028de63	bge	x17,x2,8000321c	 x17:0x00000001  x2:0x000007c2
       35885000	      3587	80003204	002f75b3	and	x11,x30,x2	 x30:0x00000001  x2:0x000007c2 x11=0x00000000
       35895000	      3588	80003208	0002afb3	slt	x31,x5,x0	  x5:0x00004c55  x0:0x00000000 x31=0x00000000
       35905000	      3589	8000320c	014f9a33	sll	x20,x31,x20	 x31:0x00000000 x20:0xffffffd7 x20=0x00000000
       35915000	      3590	80003210	01bf9013	slli	x0,x31,0x1b	 x31:0x00000000
       35925000	      3591	80003214	012a4863	blt	x20,x18,80003224	 x20:0x00000000 x18:0x6e125980
       35935000	      3592	00000000	00000013	addi	x0,x0,0	  x0:0x00000000
       35945000	      3593	80003220	00000013	addi	x0,x0,0	  x0:0x00000000
       35955000	      3594	80003224	09f4e313	ori	x6,x9,159	  x9:0x883d2184  x6=0x883d219f
       35965000	      3595	80003228	01ea11b3	sll	x3,x20,x30	 x20:0x00000000 x30:0x00000001  x3=0x00000000
       35975000	      3596	8000322c	4f498517	auipc	x10,0x4f498	 x10=0xcf49b228
       35985000	      3597	80003230	2e026a13	ori	x20,x4,736	  x4:0x00004c80 x20=0x00004ee0
       35995000	      3598	80003234	fcc03093	sltiu	x1,x0,-52	  x0:0x00000000  x1=0x00000001
       36005000	      3599	80003238	01a4c8b3	xor	x17,x9,x26	  x9:0x883d2184 x26:0xfb7092cc x17=0x734db348
       36015000	      3600	8000323c	40250133	sub	x2,x10,x2	 x10:0xcf49b228  x2:0x000007c2  x2=0xcf49aa66
       36025000	      3601	80003240	0df71737	lui	x14,0xdf71	 x14=0x0df71000
       36035000	      3602	80003244	40d80933	sub	x18,x16,x13	 x16:0xffffea88 x13:0x00000000 x18=0xffffea88
       36045000	      3603	80003248	3b05f893	andi	x17,x11,944	 x11:0x00000000 x17=0x00000000
       36055000	      3604	8000324c	411edcb3	sra	x25,x29,x17	 x29:0x00000001 x17:0x00000000 x25=0x00000001
       36065000	      3605	80003250	0b9ab3b7	lui	x7,0xb9ab	  x7=0x0b9ab000
       36075000	      3606	80003254	006e14b3	sll	x9,x28,x6	 x28:0x16728000  x6:0x883d219f  x9=0x00000000
       36085000	      3607	80003258	41a45693	srai	x13,x8,0x1a	  x8:0x800031c8 x13=0xffffffe0
       36095000	      3608	8000325c	02885463	bge	x16,x8,80003284	 x16:0xffffea88  x8:0x800031c8
       36105000	      3609	00000000	00000013	addi	x0,x0,0	  x0:0x00000000
       36115000	      3610	80003280	00000013	addi	x0,x0,0	  x0:0x00000000
       36125000	      3611	80003284	2a52a593	slti	x11,x5,677	  x5:0x00004c55 x11=0x00000000
       36135000	      3612	80003288	01c60663	beq	x12,x28,80003294	 x12:0x00000000 x28:0x16728000
       36145000	      3613	8000328c	00000013	addi	x0,x0,0	  x0:0x00000000
       36155000	      3614	80003290	8c650213	addi	x4,x10,-1850	 x10:0xcf49b228  x4=0xcf49aaee
       36165000	      3615	80003294	00da71b3	and	x3,x20,x13	 x20:0x00004ee0 x13:0xffffffe0  x3=0x00004ee0
       36175000	      3616	80003298	eea12a93	slti	x21,x2,-278	  x2:0xcf49aa66 x21=0x00000001
       36185000	      3617	8000329c	03ea7a63	bgeu	x20,x30,800032d0	 x20:0x00004ee0 x30:0x00000001
       36195000	      3618	00000000	00000013	addi	x0,x0,0	  x0:0x00000000
       36205000	      3619	800032cc	00000013	addi	x0,x0,0	  x0:0x00000000
       36215000	      3620	800032d0	106c8e93	addi	x29,x25,262	 x25:0x00000001 x29=0x00000107
       36225000	      3621	800032d4	00d35a33	srl	x20,x6,x13	  x6:0x883d219f x13:0xffffffe0 x20=0x883d219f
       36235000	      3622	800032d8	0130a733	slt	x14,x1,x19	  x1:0x00000001 x19:0x80009fc4 x14=0x00000000
       36245000	      3623	800032dc	838d5037	lui	x0,0x838d5	
       36255000	      3624	800032e0	00529f13	slli	x30,x5,0x5	  x5:0x00004c55 x30=0x00098aa0
       36265000	      3625	800032e4	41955733	sra	x14,x10,x25	 x10:0xcf49b228 x25:0x00000001 x14=0xe7a4d914
       36275000	      3626	800032e8	00b30a33	add	x20,x6,x11	  x6:0x883d219f x11:0x00000000 x20=0x883d219f
       36285000	      3627	800032ec	0077ff33	and	x30,x15,x7	 x15:0x0000b330  x7:0x0b9ab000 x30=0x0000b000
       36295000	      3628	800032f0	9e4aab93	slti	x23,x21,-1564	 x21:0x00000001 x23=0x00000000
       36305000	      3629	800032f4	02545063	bge	x8,x5,80003314	  x8:0x800031c8  x5:0x00004c55
       36315000	      3630	800032f8	00e08733	add	x14,x1,x14	  x1:0x00000001 x14:0xe7a4d914 x14=0xe7a4d915
       36325000	      3631	800032fc	01c8c0b3	xor	x1,x17,x28	 x17:0x00000000 x28:0x16728000  x1=0x16728000
       36335000	      3632	80003300	f8cd8b93	addi	x23,x27,-116	 x27:0x800097e6 x23=0x80009772
       36345000	      3633	80003304	af010ab7	lui	x21,0xaf010	 x21=0xaf010000
       36355000	      3634	80003308	003064b3	or	x9,x0,x3	  x0:0x00000000  x3:0x00004ee0  x9=0x00004ee0
       36365000	      3635	8000330c	029aac93	slti	x25,x21,41	 x21:0xaf010000 x25=0x00000001
       36375000	      3636	80003310	00f11b93	slli	x23,x2,0xf	  x2:0xcf49aa66 x23=0xd5330000
       36385000	      3637	80003314	011d1093	slli	x1,x26,0x11	 x26:0xfb7092cc  x1=0x25980000
       36395000	      3638	80003318	dda6edb7	lui	x27,0xdda6e	 x27=0xdda6e000
       36405000	      3639	8000331c	01da43b3	xor	x7,x20,x29	 x20:0x883d219f x29:0x00000107  x7=0x883d2098
       36415000	      3640	80003320	026c1863	bne	x24,x6,80003350	 x24:0x4c800000  x6:0x883d219f
       36425000	      3641	00000000	00000013	addi	x0,x0,0	  x0:0x00000000
       36435000	      3642	8000334c	00000013	addi	x0,x0,0	  x0:0x00000000
       36445000	      3643	80003350	00000013	addi	x0,x0,0	  x0:0x00000000
       36455000	      3644	80003354	02830413	addi	x8,x6,40	  x6:0x883d219f  x8=0x883d21c7
       36465000	      3645	80003358	40975b93	srai	x23,x14,0x9	 x14:0xe7a4d915 x23=0xfff3d26c
       36475000	      3646	8000335c	01fa6eb3	or	x29,x20,x31	 x20:0x883d219f x31:0x00000000 x29=0x883d219f
       36485000	      3647	80003360	c4ca0037	lui	x0,0xc4ca0	
       36495000	      3648	80003364	0216e463	bltu	x13,x1,8000338c	 x13:0xffffffe0  x1:0x25980000
       36505000	      3649	80003368	03398663	beq	x19,x19,80003394	 x19:0x80009fc4 x19:0x80009fc4
       36515000	      3650	00000000	00000013	addi	x0,x0,0	  x0:0x00000000
       36525000	      3651	80003390	00000013	addi	x0,x0,0	  x0:0x00000000
       36535000	      3652	80003394	012e8233	add	x4,x29,x18	 x29:0x883d219f x18:0xffffea88  x4=0x883d0c27
       36545000	      3653	80003398	01e45793	srli	x15,x8,0x1e	  x8:0x883d21c7 x15=0x00000002
       36555000	      3654	8000339c	dd3e3f17	auipc	x30,0xdd3e3	 x30=0x5d3e6398
       36565000	      3655	800033a0	01b84a63	blt	x16,x27,800033b4	 x16:0xffffea88 x27:0xdda6e000
       36575000	      3656	800033a4	02866063	bltu	x12,x8,800033c4	 x12:0x00000000  x8:0x883d21c7
       36585000	      3657	00000000	00000013	addi	x0,x0,0	  x0:0x00000000
       36595000	      3658	800033c0	00000013	addi	x0,x0,0	  x0:0x00000000
       36605000	      3659	800033c4	41f5d593	srai	x11,x11,0x1f	 x11:0x00000000 x11=0x00000000
       36615000	      3660	800033c8	f9bb0693	addi	x13,x22,-101	 x22:0x80009f64 x13=0x80009eff
       36625000	      3661	800033cc	00143e33	sltu	x28,x8,x1	  x8:0x883d21c7  x1:0x25980000 x28=0x00000000
       36635000	      3662	800033d0	a74ca193	slti	x3,x25,-1420	 x25:0x00000001  x3=0x00000000
       36645000	      3663	800033d4	413fd3b3	sra	x7,x31,x19	 x31:0x00000000 x19:0x80009fc4  x7=0x00000000
       36655000	      3664	800033d8	90852413	slti	x8,x10,-1784	 x10:0xcf49b228  x8=0x00000001
       36665000	      3665	800033dc	37fbc393	xori	x7,x23,895	 x23:0xfff3d26c  x7=0xfff3d113
       36675000	      3666	800033e0	57dc4f37	lui	x30,0x57dc4	 x30=0x57dc4000
       36685000	      3667	800033e4	40d00933	sub	x18,x0,x13	  x0:0x00000000 x13:0x80009eff x18=0x7fff6101
       36695000	      3668	800033e8	407f87b3	sub	x15,x31,x7	 x31:0x00000000  x7:0xfff3d113 x15=0x000c2eed
       36705000	      3669	800033ec	0082cfb3	xor	x31,x5,x8	  x5:0x00004c55  x8:0x00000001 x31=0x00004c54
       36715000	      3670	800033f0	02aa1063	bne	x20,x10,80003410	 x20:0x883d219f x10:0xcf49b228
       36725000	      3671	00000000	00000013	addi	x0,x0,0	  x0:0x00000000
       36735000	      3672	8000340c	00000013	addi	x0,x0,0	  x0:0x00000000
       36745000	      3673	80003410	001e7e63	bgeu	x28,x1,8000342c	 x28:0x00000000  x1:0x25980000
       36755000	      3674	80003414	27987113	andi	x2,x16,633	 x16:0xffffea88  x2=0x00000208
       36765000	      3675	80003418	4b032f17	auipc	x30,0x4b032	 x30=0xcb035414
       36775000	      3676	8000341c	023c1463	bne	x24,x3,80003444	 x24:0x4c800000  x3:0x00000000
       36785000	      3677	00000000	00000013	addi	x0,x0,0	  x0:0x00000000
       36795000	      3678	80003440	00000013	addi	x0,x0,0	  x0:0x00000000
       36805000	      3679	80003444	00ab7833	and	x16,x22,x10	 x22:0x80009f64 x10:0xcf49b228 x16=0x80009220
       36815000	      3680	80003448	27ee9837	lui	x16,0x27ee9	 x16=0x27ee9000
       36825000	      3681	8000344c	05845263	bge	x8,x24,80003490	  x8:0x00000001 x24:0x4c800000
       36835000	      3682	80003450	006542b3	xor	x5,x10,x6	 x10:0xcf49b228  x6:0x883d219f  x5=0x477493b7
       36845000	      3683	80003454	01188133	add	x2,x17,x17	 x17:0x00000000 x17:0x00000000  x2=0x00000000
       36855000	      3684	80003458	19978f13	addi	x30,x15,409	 x15:0x000c2eed x30=0x000c3086
       36865000	      3685	8000345c	00f052b3	srl	x5,x0,x15	  x0:0x00000000 x15:0x000c2eed  x5=0x00000000
       36875000	      3686	80003460	0111e533	or	x10,x3,x17	  x3:0x00000000 x17:0x00000000 x10=0x00000000
       36885000	      3687	80003464	00000013	addi	x0,x0,0	  x0:0x00000000
       36895000	      3688	80003468	02f49463	bne	x9,x15,80003490	  x9:0x00004ee0 x15:0x000c2eed
       36905000	      3689	00000000	00000013	addi	x0,x0,0	  x0:0x00000000
       36915000	      3690	8000348c	00000013	addi	x0,x0,0	  x0:0x00000000
       36925000	      3691	80003490	369bc597	auipc	x11,0x369bc	 x11=0xb69bf48c
       36935000	      3692	80003494	007ad713	srli	x14,x21,0x7	 x21:0xaf010000 x14=0x015e0200
       36945000	      3693	80003498	006b0bb3	add	x23,x22,x6	 x22:0x80009f64  x6:0x883d219f x23=0x083dc103
       36955000	      3694	8000349c	053f8063	beq	x31,x19,800034dc	 x31:0x00004c54 x19:0x80009fc4
       36965000	      3695	800034a0	03b4ea63	bltu	x9,x27,800034d4	  x9:0x00004ee0 x27:0xdda6e000
       36975000	      3696	00000000	00000013	addi	x0,x0,0	  x0:0x00000000
       36985000	      3697	800034d0	00000013	addi	x0,x0,0	  x0:0x00000000
       36995000	      3698	800034d4	4141ad93	slti	x27,x3,1044	  x3:0x00000000 x27=0x00000001
       37005000	      3699	800034d8	009b9813	slli	x16,x23,0x9	 x23:0x083dc103 x16=0x7b820600
       37015000	      3700	800034dc	e6d10613	addi	x12,x2,-403	  x2:0x00000000 x12=0xfffffe6d
       37025000	      3701	800034e0	01f65413	srli	x8,x12,0x1f	 x12:0xfffffe6d  x8=0x00000001
       37035000	      3702	800034e4	7d8c4693	xori	x13,x24,2008	 x24:0x4c800000 x13=0x4c8007d8
       37045000	      3703	800034e8	0176cab3	xor	x21,x13,x23	 x13:0x4c8007d8 x23:0x083dc103 x21=0x44bdc6db
       37055000	      3704	800034ec	009f3c33	sltu	x24,x30,x9	 x30:0x000c3086  x9:0x00004ee0 x24=0x00000000
       37065000	      3705	800034f0	01993933	sltu	x18,x18,x25	 x18:0x7fff6101 x25:0x00000001 x18=0x00000000
       37075000	      3706	800034f4	007b9863	bne	x23,x7,80003504	 x23:0x083dc103  x7:0xfff3d113
       37085000	      3707	00000000	00000013	addi	x0,x0,0	  x0:0x00000000
       37095000	      3708	80003500	00000013	addi	x0,x0,0	  x0:0x00000000
       37105000	      3709	80003504	00a10db3	add	x27,x2,x10	  x2:0x00000000 x10:0x00000000 x27=0x00000000
       37115000	      3710	80003508	414f5333	sra	x6,x30,x20	 x30:0x000c3086 x20:0x883d219f  x6=0x00000000
       37125000	      3711	8000350c	613275b7	lui	x11,0x61327	 x11=0x61327000
       37135000	      3712	80003510	403052b3	sra	x5,x0,x3	  x0:0x00000000  x3:0x00000000  x5=0x00000000
       37145000	      3713	80003514	020a4c63	blt	x20,x0,8000354c	 x20:0x883d219f  x0:0x00000000
       37155000	      3714	00000000	00000013	addi	x0,x0,0	  x0:0x00000000
       37165000	      3715	80003548	00000013	addi	x0,x0,0	  x0:0x00000000
       37175000	      3716	8000354c	00731cb3	sll	x25,x6,x7	  x6:0x00000000  x7:0xfff3d113 x25=0x00000000
       37185000	      3717	80003550	010f5c63	bge	x30,x16,80003568	 x30:0x000c3086 x16:0x7b820600
       37195000	      3718	80003554	019b1f93	slli	x31,x22,0x19	 x22:0x80009f64 x31=0xc8000000
       37205000	      3719	80003558	f4a04a13	xori	x20,x0,-182	  x0:0x00000000 x20=0xffffff4a
       37215000	      3720	8000355c	0105e7b3	or	x15,x11,x16	 x11:0x61327000 x16:0x7b820600 x15=0x7bb27600
       37225000	      3721	80003560	419bda93	srai	x21,x23,0x19	 x23:0x083dc103 x21=0x00000004
       37235000	      3722	80003564	cb356f93	ori	x31,x10,-845	 x10:0x00000000 x31=0xfffffcb3
       37245000	      3723	80003568	40915093	srai	x1,x2,0x9	  x2:0x00000000  x1=0x00000000
       37255000	      3724	8000356c	41835533	sra	x10,x6,x24	  x6:0x00000000 x24:0x00000000 x10=0x00000000
       37265000	      3725	80003570	00f25733	srl	x14,x4,x15	  x4:0x883d0c27 x15:0x7bb27600 x14=0x883d0c27
       37275000	      3726	80003574	01538433	add	x8,x7,x21	  x7:0xfff3d113 x21:0x00000004  x8=0xfff3d117
       37285000	      3727	80003578	d7c52c13	slti	x24,x10,-644	 x10:0x00000000 x24=0x00000000
       37295000	      3728	8000357c	bd8f0a13	addi	x20,x30,-1064	 x30:0x000c3086 x20=0x000c2c5e
       37305000	      3729	80003580	4018d913	srai	x18,x17,0x1	 x17:0x00000000 x18=0x00000000
       37315000	      3730	80003584	41f65613	srai	x12,x12,0x1f	 x12:0xfffffe6d x12=0xffffffff
       37325000	      3731	80003588	edbf6f93	ori	x31,x30,-293	 x30:0x000c3086 x31=0xfffffedf
       37335000	      3732	8000358c	011ed263	bge	x29,x17,80003590	 x29:0x883d219f x17:0x00000000
       37345000	      3733	80003590	38d76093	ori	x1,x14,909	 x14:0x883d0c27  x1=0x883d0faf
       37355000	      3734	80003594	03837e63	bgeu	x6,x24,800035d0	  x6:0x00000000 x24:0x00000000
       37365000	      3735	00000000	00000013	addi	x0,x0,0	  x0:0x00000000
       37375000	      3736	800035cc	00000013	addi	x0,x0,0	  x0:0x00000000
       37385000	      3737	800035d0	41ee54b3	sra	x9,x28,x30	 x28:0x00000000 x30:0x000c3086  x9=0x00000000
       37395000	      3738	800035d4	006bd793	srli	x15,x23,0x6	 x23:0x083dc103 x15=0x0020f704
       37405000	      3739	800035d8	011e7eb3	and	x29,x28,x17	 x28:0x00000000 x17:0x00000000 x29=0x00000000
       37415000	      3740	800035dc	00f172b3	and	x5,x2,x15	  x2:0x00000000 x15:0x0020f704  x5=0x00000000
       37425000	      3741	800035e0	50a1e413	ori	x8,x3,1290	  x3:0x00000000  x8=0x0000050a
       37435000	      3742	800035e4	01b5d093	srli	x1,x11,0x1b	 x11:0x61327000  x1=0x0000000c
       37445000	      3743	800035e8	02bed663	bge	x29,x11,80003614	 x29:0x00000000 x11:0x61327000
       37455000	      3744	800035ec	408f5a93	srai	x21,x30,0x8	 x30:0x000c3086 x21=0x00000c30
       37465000	      3745	800035f0	00027863	bgeu	x4,x0,80003600	  x4:0x883d0c27  x0:0x00000000
       37475000	      3746	00000000	00000013	addi	x0,x0,0	  x0:0x00000000
       37485000	      3747	800035fc	00000013	addi	x0,x0,0	  x0:0x00000000
       37495000	      3748	80003600	00105e13	srli	x28,x0,0x1	  x0:0x00000000 x28=0x00000000
       37505000	      3749	80003604	03681663	bne	x16,x22,80003630	 x16:0x7b820600 x22:0x80009f64
       37515000	      3750	00000000	00000013	addi	x0,x0,0	  x0:0x00000000
       37525000	      3751	8000362c	00000013	addi	x0,x0,0	  x0:0x00000000
       37535000	      3752	80003630	007e1633	sll	x12,x28,x7	 x28:0x00000000  x7:0xfff3d113 x12=0x00000000
       37545000	      3753	80003634	00000013	addi	x0,x0,0	  x0:0x00000000
       37555000	      3754	80003638	b04ff713	andi	x14,x31,-1276	 x31:0xfffffedf x14=0xfffffa04
       37565000	      3755	8000363c	0026e5b3	or	x11,x13,x2	 x13:0x4c8007d8  x2:0x00000000 x11=0x4c8007d8
       37575000	      3756	80003640	007bd613	srli	x12,x23,0x7	 x23:0x083dc103 x12=0x00107b82
       37585000	      3757	80003644	00f4d263	bge	x9,x15,80003648	  x9:0x00000000 x15:0x0020f704
       37595000	      3758	80003648	015b65b3	or	x11,x22,x21	 x22:0x80009f64 x21:0x00000c30 x11=0x80009f74
       37605000	      3759	8000364c	02b74a63	blt	x14,x11,80003680	 x14:0xfffffa04 x11:0x80009f74
       37615000	      3760	80003650	c5f9e313	ori	x6,x19,-929	 x19:0x80009fc4  x6=0xffffffdf
       37625000	      3761	80003654	41d388b3	sub	x17,x7,x29	  x7:0xfff3d113 x29:0x00000000 x17=0xfff3d113
       37635000	      3762	80003658	76b92593	slti	x11,x18,1899	 x18:0x00000000 x11=0x00000001
       37645000	      3763	8000365c	40de5eb3	sra	x29,x28,x13	 x28:0x00000000 x13:0x4c8007d8 x29=0x00000000
       37655000	      3764	80003660	91414a13	xori	x20,x2,-1772	  x2:0x00000000 x20=0xfffff914
       37665000	      3765	80003664	0105f633	and	x12,x11,x16	 x11:0x00000001 x16:0x7b820600 x12=0x00000000
       37675000	      3766	80003668	74b7d0b7	lui	x1,0x74b7d	  x1=0x74b7d000
       37685000	      3767	8000366c	00000013	addi	x0,x0,0	  x0:0x00000000
       37695000	      3768	80003670	013dcbb3	xor	x23,x27,x19	 x27:0x00000000 x19:0x80009fc4 x23=0x80009fc4
       37705000	      3769	80003674	01c1d863	bge	x3,x28,80003684	  x3:0x00000000 x28:0x00000000
       37715000	      3770	00000000	00000013	addi	x0,x0,0	  x0:0x00000000
       37725000	      3771	80003680	00000013	addi	x0,x0,0	  x0:0x00000000
       37735000	      3772	80003684	b7168c13	addi	x24,x13,-1167	 x13:0x4c8007d8 x24=0x4c800349
       37745000	      3773	80003688	00000013	addi	x0,x0,0	  x0:0x00000000
       37755000	      3774	8000368c	00000013	addi	x0,x0,0	  x0:0x00000000
       37765000	      3775	80003690	404557b3	sra	x15,x10,x4	 x10:0x00000000  x4:0x883d0c27 x15=0x00000000
       37775000	      3776	80003694	00000013	addi	x0,x0,0	  x0:0x00000000
       37785000	      3777	80003698	00000013	addi	x0,x0,0	  x0:0x00000000
       37795000	      3778	8000369c	9b9e10b7	lui	x1,0x9b9e1	  x1=0x9b9e1000
       37805000	      3779	800036a0	003a1863	bne	x20,x3,800036b0	 x20:0xfffff914  x3:0x00000000
       37815000	      3780	00000000	00000013	addi	x0,x0,0	  x0:0x00000000
       37825000	      3781	800036ac	00000013	addi	x0,x0,0	  x0:0x00000000
       37835000	      3782	800036b0	00bcbbb3	sltu	x23,x25,x11	 x25:0x00000000 x11:0x00000001 x23=0x00000001
       37845000	      3783	800036b4	34ea9837	lui	x16,0x34ea9	 x16=0x34ea9000
       37855000	      3784	800036b8	75f4fcb7	lui	x25,0x75f4f	 x25=0x75f4f000
       37865000	      3785	800036bc	40615c33	sra	x24,x2,x6	  x2:0x00000000  x6:0xffffffdf x24=0x00000000
       37875000	      3786	800036c0	01bacc63	blt	x21,x27,800036d8	 x21:0x00000c30 x27:0x00000000
       37885000	      3787	800036c4	efe32293	slti	x5,x6,-258	  x6:0xffffffdf  x5=0x00000000
       37895000	      3788	800036c8	506fa037	lui	x0,0x506fa	
       37905000	      3789	800036cc	07225863	bge	x4,x18,8000373c	  x4:0x883d0c27 x18:0x00000000
       37915000	      3790	800036d0	4a08c793	xori	x15,x17,1184	 x17:0xfff3d113 x15=0xfff3d5b3
       37925000	      3791	800036d4	40dfd0b3	sra	x1,x31,x13	 x31:0xfffffedf x13:0x4c8007d8  x1=0xffffffff
       37935000	      3792	800036d8	acaaa893	slti	x17,x21,-1334	 x21:0x00000c30 x17=0x00000000
       37945000	      3793	800036dc	07a18e63	beq	x3,x26,80003758	  x3:0x00000000 x26:0xfb7092cc
       37955000	      3794	800036e0	e021ee93	ori	x29,x3,-510	  x3:0x00000000 x29=0xfffffe02
       37965000	      3795	800036e4	201c5c37	lui	x24,0x201c5	 x24=0x201c5000
       37975000	      3796	800036e8	952e4513	xori	x10,x28,-1710	 x28:0x00000000 x10=0xfffff952
       37985000	      3797	800036ec	5c26e093	ori	x1,x13,1474	 x13:0x4c8007d8  x1=0x4c8007da
       37995000	      3798	800036f0	00eb9333	sll	x6,x23,x14	 x23:0x00000001 x14:0xfffffa04  x6=0x00000010
       38005000	      3799	800036f4	071f6463	bltu	x30,x17,8000375c	 x30:0x000c3086 x17:0x00000000
       38015000	      3800	800036f8	004000ef	jal	x1,800036f8	  x1=0x800036f8
       38025000	      3801	00000000	00000013	addi	x0,x0,0	  x0:0x00000000
       38035000	      3802	800036f8	00000013	addi	x0,x0,0	  x0:0x00000000
       38045000	      3803	800036fc	0180026f	jal	x4,800036fc	  x4=0x800036fc
       38055000	      3804	00000000	00000013	addi	x0,x0,0	  x0:0x00000000
       38065000	      3805	80003710	00000013	addi	x0,x0,0	  x0:0x00000000
       38075000	      3806	80003714	ffdff0ef	jal	x1,80003714	  x1=0x80003714
       38085000	      3807	00000000	00000013	addi	x0,x0,0	  x0:0x00000000
       38095000	      3808	8000370c	00000013	addi	x0,x0,0	  x0:0x00000000
       38105000	      3809	80003710	ff9ff0ef	jal	x1,80003710	  x1=0x80003710
       38115000	      3810	00000000	00000013	addi	x0,x0,0	  x0:0x00000000
       38125000	      3811	80003704	00000013	addi	x0,x0,0	  x0:0x00000000
       38135000	      3812	80003708	00400f6f	jal	x30,80003708	 x30=0x80003708
       38145000	      3813	00000000	00000013	addi	x0,x0,0	  x0:0x00000000
       38155000	      3814	80003708	00000013	addi	x0,x0,0	  x0:0x00000000
       38165000	      3815	8000370c	0100036f	jal	x6,8000370c	  x6=0x8000370c
       38175000	      3816	00000000	00000013	addi	x0,x0,0	  x0:0x00000000
       38185000	      3817	80003718	00000013	addi	x0,x0,0	  x0:0x00000000
       38195000	      3818	8000371c	004000ef	jal	x1,8000371c	  x1=0x8000371c
       38205000	      3819	00000000	00000013	addi	x0,x0,0	  x0:0x00000000
       38215000	      3820	8000371c	00000013	addi	x0,x0,0	  x0:0x00000000
       38225000	      3821	80003720	fe5ff36f	jal	x6,80003720	  x6=0x80003720
       38235000	      3822	00000000	00000013	addi	x0,x0,0	  x0:0x00000000
       38245000	      3823	80003700	00000013	addi	x0,x0,0	  x0:0x00000000
       38255000	      3824	80003704	0140036f	jal	x6,80003704	  x6=0x80003704
       38265000	      3825	00000000	00000013	addi	x0,x0,0	  x0:0x00000000
       38275000	      3826	80003714	00000013	addi	x0,x0,0	  x0:0x00000000
       38285000	      3827	80003718	00c0036f	jal	x6,80003718	  x6=0x80003718
       38295000	      3828	00000000	00000013	addi	x0,x0,0	  x0:0x00000000
       38305000	      3829	80003720	00000013	addi	x0,x0,0	  x0:0x00000000
       38315000	      3830	80003724	0040036f	jal	x6,80003724	  x6=0x80003724
       38325000	      3831	00000000	00000013	addi	x0,x0,0	  x0:0x00000000
       38335000	      3832	80003724	00000013	addi	x0,x0,0	  x0:0x00000000
       38345000	      3833	80003728	fd9ffe6f	jal	x28,80003728	 x28=0x80003728
       38355000	      3834	00000000	00000013	addi	x0,x0,0	  x0:0x00000000
       38365000	      3835	800036fc	00000013	addi	x0,x0,0	  x0:0x00000000
       38375000	      3836	80003700	02c0036f	jal	x6,80003700	  x6=0x80003700
       38385000	      3837	00000000	00000013	addi	x0,x0,0	  x0:0x00000000
       38395000	      3838	80003728	00000013	addi	x0,x0,0	  x0:0x00000000
       38405000	      3839	8000372c	b45bea93	ori	x21,x23,-1211	 x23:0x00000001 x21=0xfffffb45
       38415000	      3840	80003730	03445a63	bge	x8,x20,80003764	  x8:0x0000050a x20:0xfffff914
       38425000	      3841	00000000	00000013	addi	x0,x0,0	  x0:0x00000000
       38435000	      3842	80003760	00000013	addi	x0,x0,0	  x0:0x00000000
       38445000	      3843	80003764	8aa38a13	addi	x20,x7,-1878	  x7:0xfff3d113 x20=0xfff3c9bd
       38455000	      3844	80003768	c4328c17	auipc	x24,0xc4328	 x24=0x4432b764
       38465000	      3845	8000376c	011f6fb3	or	x31,x30,x17	 x30:0x80003708 x17:0x00000000 x31=0x80003708
       38475000	      3846	80003770	010e9a13	slli	x20,x29,0x10	 x29:0xfffffe02 x20=0xfe020000
       38485000	      3847	80003774	b8852113	slti	x2,x10,-1144	 x10:0xfffff952  x2=0x00000001
       38495000	      3848	80003778	bbde4113	xori	x2,x28,-1091	 x28:0x80003728  x2=0x7fffcc95
       38505000	      3849	8000377c	00f377b3	and	x15,x6,x15	  x6:0x80003700 x15:0xfff3d5b3 x15=0x80001500
       38515000	      3850	80003780	ef30bf13	sltiu	x30,x1,-269	  x1:0x8000371c x30=0x00000001
       38525000	      3851	80003784	013c9013	slli	x0,x25,0x13	 x25:0x75f4f000
       38535000	      3852	80003788	00ea1a33	sll	x20,x20,x14	 x20:0xfe020000 x14:0xfffffa04 x20=0xe0200000
       38545000	      3853	8000378c	00d9dcb3	srl	x25,x19,x13	 x19:0x80009fc4 x13:0x4c8007d8 x25=0x00000080
       38555000	      3854	80003790	0069d913	srli	x18,x19,0x6	 x19:0x80009fc4 x18=0x0200027f
       38565000	      3855	80003794	4afeec13	ori	x24,x29,1199	 x29:0xfffffe02 x24=0xfffffeaf
       38575000	      3856	80003798	03eee463	bltu	x29,x30,800037c0	 x29:0xfffffe02 x30:0x00000001
       38585000	      3857	8000379c	021c1663	bne	x24,x1,800037c8	 x24:0xfffffeaf  x1:0x8000371c
       38595000	      3858	00000000	00000013	addi	x0,x0,0	  x0:0x00000000
       38605000	      3859	800037c4	00000013	addi	x0,x0,0	  x0:0x00000000
       38615000	      3860	800037c8	03c90263	beq	x18,x28,800037ec	 x18:0x0200027f x28:0x80003728
       38625000	      3861	800037cc	0157d3b3	srl	x7,x15,x21	 x15:0x80001500 x21:0xfffffb45  x7=0x040000a8
       38635000	      3862	800037d0	cb53cc13	xori	x24,x7,-843	  x7:0x040000a8 x24=0xfbfffc1d
       38645000	      3863	800037d4	00d59663	bne	x11,x13,800037e0	 x11:0x00000001 x13:0x4c8007d8
       38655000	      3864	00000000	00000013	addi	x0,x0,0	  x0:0x00000000
       38665000	      3865	800037dc	00000013	addi	x0,x0,0	  x0:0x00000000
       38675000	      3866	800037e0	833a8717	auipc	x14,0x833a8	 x14=0x033ab7dc
       38685000	      3867	800037e4	03405463	bge	x0,x20,8000380c	  x0:0x00000000 x20:0xe0200000
       38695000	      3868	00000000	00000013	addi	x0,x0,0	  x0:0x00000000
       38705000	      3869	80003808	00000013	addi	x0,x0,0	  x0:0x00000000
       38715000	      3870	8000380c	01299193	slli	x3,x19,0x12	 x19:0x80009fc4  x3=0x7f100000
       38725000	      3871	80003810	0348c063	blt	x17,x20,80003830	 x17:0x00000000 x20:0xe0200000
       38735000	      3872	80003814	9eeac613	xori	x12,x21,-1554	 x21:0xfffffb45 x12=0x000002ab
       38745000	      3873	80003818	03676063	bltu	x14,x22,80003838	 x14:0x033ab7dc x22:0x80009f64
       38755000	      3874	00000000	00000013	addi	x0,x0,0	  x0:0x00000000
       38765000	      3875	80003834	00000013	addi	x0,x0,0	  x0:0x00000000
       38775000	      3876	80003838	45d60513	addi	x10,x12,1117	 x12:0x000002ab x10=0x00000708
       38785000	      3877	8000383c	9f6a7817	auipc	x16,0x9f6a7	 x16=0x1f6aa838
       38795000	      3878	80003840	01120133	add	x2,x4,x17	  x4:0x800036fc x17:0x00000000  x2=0x800036fc
       38805000	      3879	80003844	bc587f13	andi	x30,x16,-1083	 x16:0x1f6aa838 x30=0x1f6aa800
       38815000	      3880	80003848	fe034113	xori	x2,x6,-32	  x6:0x80003700  x2=0x7fffc8e0
       38825000	      3881	8000384c	00000013	addi	x0,x0,0	  x0:0x00000000
       38835000	      3882	80003850	48968e93	addi	x29,x13,1161	 x13:0x4c8007d8 x29=0x4c800c61
       38845000	      3883	80003854	2dcb2593	slti	x11,x22,732	 x22:0x80009f64 x11=0x00000001
       38855000	      3884	80003858	0039d633	srl	x12,x19,x3	 x19:0x80009fc4  x3:0x7f100000 x12=0x80009fc4
       38865000	      3885	8000385c	001048b3	xor	x17,x0,x1	  x0:0x00000000  x1:0x8000371c x17=0x8000371c
       38875000	      3886	80003860	0a4b1463	bne	x22,x4,80003908	 x22:0x80009f64  x4:0x800036fc
       38885000	      3887	00000000	00000013	addi	x0,x0,0	  x0:0x00000000
       38895000	      3888	80003904	00000013	addi	x0,x0,0	  x0:0x00000000
       38905000	      3889	80003908	41cefb93	andi	x23,x29,1052	 x29:0x4c800c61 x23=0x00000400
       38915000	      3890	8000390c	7aa84b97	auipc	x23,0x7aa84	 x23=0xfaa87908
       38925000	      3891	80003910	a7b43093	sltiu	x1,x8,-1413	  x8:0x0000050a  x1=0x00000001
       38935000	      3892	80003914	00db9c33	sll	x24,x23,x13	 x23:0xfaa87908 x13:0x4c8007d8 x24=0x08000000
       38945000	      3893	80003918	d5ea8613	addi	x12,x21,-674	 x21:0xfffffb45 x12=0xfffff8a3
       38955000	      3894	8000391c	0474f063	bgeu	x9,x7,8000395c	  x9:0x00000000  x7:0x040000a8
       38965000	      3895	80003920	0026d933	srl	x18,x13,x2	 x13:0x4c8007d8  x2:0x7fffc8e0 x18=0x4c8007d8
       38975000	      3896	80003924	411ed413	srai	x8,x29,0x11	 x29:0x4c800c61  x8=0x00002640
       38985000	      3897	80003928	01d75a63	bge	x14,x29,8000393c	 x14:0x033ab7dc x29:0x4c800c61
       38995000	      3898	8000392c	055ee063	bltu	x29,x21,8000396c	 x29:0x4c800c61 x21:0xfffffb45
       39005000	      3899	00000000	00000013	addi	x0,x0,0	  x0:0x00000000
       39015000	      3900	80003968	00000013	addi	x0,x0,0	  x0:0x00000000
       39025000	      3901	8000396c	419fdc33	sra	x24,x31,x25	 x31:0x80003708 x25:0x00000080 x24=0x80003708
       39035000	      3902	80003970	05ea9263	bne	x21,x30,800039b4	 x21:0xfffffb45 x30:0x1f6aa800
       39045000	      3903	00000000	00000013	addi	x0,x0,0	  x0:0x00000000
       39055000	      3904	800039b0	00000013	addi	x0,x0,0	  x0:0x00000000
       39065000	      3905	800039b4	00dc1863	bne	x24,x13,800039c4	 x24:0x80003708 x13:0x4c8007d8
       39075000	      3906	00000000	00000013	addi	x0,x0,0	  x0:0x00000000
       39085000	      3907	800039c0	00000013	addi	x0,x0,0	  x0:0x00000000
       39095000	      3908	800039c4	414adc93	srai	x25,x21,0x14	 x21:0xfffffb45 x25=0xffffffff
       39105000	      3909	800039c8	56cebc93	sltiu	x25,x29,1388	 x29:0x4c800c61 x25=0x00000000
       39115000	      3910	800039cc	41cc52b3	sra	x5,x24,x28	 x24:0x80003708 x28:0x80003728  x5=0xff800037
       39125000	      3911	800039d0	1be5a013	slti	x0,x11,446	 x11:0x00000001
       39135000	      3912	800039d4	00303f33	sltu	x30,x0,x3	  x0:0x00000000  x3:0x7f100000 x30=0x00000001
       39145000	      3913	800039d8	9e790593	addi	x11,x18,-1561	 x18:0x4c8007d8 x11=0x4c8001bf
       39155000	      3914	800039dc	01617a63	bgeu	x2,x22,800039f0	  x2:0x7fffc8e0 x22:0x80009f64
       39165000	      3915	800039e0	511cf713	andi	x14,x25,1297	 x25:0x00000000 x14=0x00000000
       39175000	      3916	800039e4	00f80ab3	add	x21,x16,x15	 x16:0x1f6aa838 x15:0x80001500 x21=0x9f6abd38
       39185000	      3917	800039e8	0174e433	or	x8,x9,x23	  x9:0x00000000 x23:0xfaa87908  x8=0xfaa87908
       39195000	      3918	800039ec	039a8463	beq	x21,x25,80003a14	 x21:0x9f6abd38 x25:0x00000000
       39205000	      3919	800039f0	2d6c7693	andi	x13,x24,726	 x24:0x80003708 x13=0x00000200
       39215000	      3920	800039f4	30d74e13	xori	x28,x14,781	 x14:0x00000000 x28=0x0000030d
       39225000	      3921	800039f8	f9678f13	addi	x30,x15,-106	 x15:0x80001500 x30=0x80001496
       39235000	      3922	800039fc	ae76ff13	andi	x30,x13,-1305	 x13:0x00000200 x30=0x00000200
       39245000	      3923	80003a00	05ba7263	bgeu	x20,x27,80003a44	 x20:0xe0200000 x27:0x00000000
       39255000	      3924	00000000	00000013	addi	x0,x0,0	  x0:0x00000000
       39265000	      3925	80003a40	00000013	addi	x0,x0,0	  x0:0x00000000
       39275000	      3926	80003a44	01b0d693	srli	x13,x1,0x1b	  x1:0x00000001 x13=0x00000000
       39285000	      3927	80003a48	518f6397	auipc	x7,0x518f6	  x7=0xd18f9a44
       39295000	      3928	80003a4c	012a7a33	and	x20,x20,x18	 x20:0xe0200000 x18:0x4c8007d8 x20=0x40000000
       39305000	      3929	80003a50	001b0fb3	add	x31,x22,x1	 x22:0x80009f64  x1:0x00000001 x31=0x80009f65
       39315000	      3930	80003a54	eefcae97	auipc	x29,0xeefca	 x29=0x6efcda50
       39325000	      3931	80003a58	7ebaaa97	auipc	x21,0x7ebaa	 x21=0xfebada54
       39335000	      3932	80003a5c	ba627193	andi	x3,x4,-1114	  x4:0x800036fc  x3=0x800032a4
       39345000	      3933	80003a60	75410a13	addi	x20,x2,1876	  x2:0x7fffc8e0 x20=0x7fffd034
       39355000	      3934	80003a64	095fc063	blt	x31,x21,80003ae4	 x31:0x80009f65 x21:0xfebada54
       39365000	      3935	00000000	00000013	addi	x0,x0,0	  x0:0x00000000
       39375000	      3936	80003ae0	00000013	addi	x0,x0,0	  x0:0x00000000
       39385000	      3937	80003ae4	03204a63	blt	x0,x18,80003b18	  x0:0x00000000 x18:0x4c8007d8
       39395000	      3938	00000000	00000013	addi	x0,x0,0	  x0:0x00000000
       39405000	      3939	80003b14	00000013	addi	x0,x0,0	  x0:0x00000000
       39415000	      3940	80003b18	015642b3	xor	x5,x12,x21	 x12:0xfffff8a3 x21:0xfebada54  x5=0x014522f7
       39425000	      3941	80003b1c	01cc6a33	or	x20,x24,x28	 x24:0x80003708 x28:0x0000030d x20=0x8000370d
       39435000	      3942	80003b20	8d9dd517	auipc	x10,0x8d9dd	 x10=0x0d9e0b1c
       39445000	      3943	80003b24	00b61863	bne	x12,x11,80003b34	 x12:0xfffff8a3 x11:0x4c8001bf
       39455000	      3944	00000000	00000013	addi	x0,x0,0	  x0:0x00000000
       39465000	      3945	80003b30	00000013	addi	x0,x0,0	  x0:0x00000000
       39475000	      3946	80003b34	53ac2113	slti	x2,x24,1338	 x24:0x80003708  x2=0x00000001
       39485000	      3947	80003b38	00c90263	beq	x18,x12,80003b3c	 x18:0x4c8007d8 x12:0xfffff8a3
       39495000	      3948	80003b3c	00c08fb3	add	x31,x1,x12	  x1:0x00000001 x12:0xfffff8a3 x31=0xfffff8a4
       39505000	      3949	80003b40	02eaf063	bgeu	x21,x14,80003b60	 x21:0xfebada54 x14:0x00000000
       39515000	      3950	00000000	00000013	addi	x0,x0,0	  x0:0x00000000
       39525000	      3951	80003b5c	00000013	addi	x0,x0,0	  x0:0x00000000
       39535000	      3952	80003b60	0130cc17	auipc	x24,0x130c	 x24=0x8130fb5c
       39545000	      3953	80003b64	262a7a97	auipc	x21,0x262a7	 x21=0xa62aab60
       39555000	      3954	80003b68	00a31f33	sll	x30,x6,x10	  x6:0x80003700 x10:0x0d9e0b1c x30=0x00000000
       39565000	      3955	80003b6c	003ed333	srl	x6,x29,x3	 x29:0x6efcda50  x3:0x800032a4  x6=0x06efcda5
       39575000	      3956	80003b70	001c0fb3	add	x31,x24,x1	 x24:0x8130fb5c  x1:0x00000001 x31=0x8130fb5d
       39585000	      3957	80003b74	01089333	sll	x6,x17,x16	 x17:0x8000371c x16:0x1f6aa838  x6=0x1c000000
       39595000	      3958	80003b78	0469e263	bltu	x19,x6,80003bbc	 x19:0x80009fc4  x6:0x1c000000
       39605000	      3959	80003b7c	005b4233	xor	x4,x22,x5	 x22:0x80009f64  x5:0x014522f7  x4=0x8145bd93
       39615000	      3960	80003b80	e563b737	lui	x14,0xe563b	 x14=0xe563b000
       39625000	      3961	80003b84	01bfeab3	or	x21,x31,x27	 x31:0x8130fb5d x27:0x00000000 x21=0x8130fb5d
       39635000	      3962	80003b88	50daba13	sltiu	x20,x21,1293	 x21:0x8130fb5d x20=0x00000000
       39645000	      3963	80003b8c	01b76733	or	x14,x14,x27	 x14:0xe563b000 x27:0x00000000 x14=0xe563b000
       39655000	      3964	80003b90	01ffd093	srli	x1,x31,0x1f	 x31:0x8130fb5d  x1=0x00000001
       39665000	      3965	80003b94	0073c7b3	xor	x15,x7,x7	  x7:0xd18f9a44  x7:0xd18f9a44 x15=0x00000000
       39675000	      3966	80003b98	02f65c63	bge	x12,x15,80003bd0	 x12:0xfffff8a3 x15:0x00000000
       39685000	      3967	80003b9c	00651e33	sll	x28,x10,x6	 x10:0x0d9e0b1c  x6:0x1c000000 x28=0x0d9e0b1c
       39695000	      3968	80003ba0	be99bc13	sltiu	x24,x19,-1047	 x19:0x80009fc4 x24=0x00000001
       39705000	      3969	80003ba4	41570133	sub	x2,x14,x21	 x14:0xe563b000 x21:0x8130fb5d  x2=0x6432b4a3
       39715000	      3970	80003ba8	6660e817	auipc	x16,0x6660e	 x16=0xe6611ba4
       39725000	      3971	80003bac	05dcc213	xori	x4,x25,93	 x25:0x00000000  x4=0x0000005d
       39735000	      3972	80003bb0	021c7663	bgeu	x24,x1,80003bdc	 x24:0x00000001  x1:0x00000001
       39745000	      3973	00000000	00000013	addi	x0,x0,0	  x0:0x00000000
       39755000	      3974	80003bd8	00000013	addi	x0,x0,0	  x0:0x00000000
       39765000	      3975	80003bdc	02a83013	sltiu	x0,x16,42	 x16:0xe6611ba4
       39775000	      3976	80003be0	03a46a63	bltu	x8,x26,80003c14	  x8:0xfaa87908 x26:0xfb7092cc
       39785000	      3977	00000000	00000013	addi	x0,x0,0	  x0:0x00000000
       39795000	      3978	80003c10	00000013	addi	x0,x0,0	  x0:0x00000000
       39805000	      3979	80003c14	00000013	addi	x0,x0,0	  x0:0x00000000
       39815000	      3980	80003c18	19d52293	slti	x5,x10,413	 x10:0x0d9e0b1c  x5=0x00000000
       39825000	      3981	80003c1c	002b56b3	srl	x13,x22,x2	 x22:0x80009f64  x2:0x6432b4a3 x13=0x100013ec
       39835000	      3982	80003c20	401d08b3	sub	x17,x26,x1	 x26:0xfb7092cc  x1:0x00000001 x17=0xfb7092cb
       39845000	      3983	80003c24	01305db3	srl	x27,x0,x19	  x0:0x00000000 x19:0x80009fc4 x27=0x00000000
       39855000	      3984	80003c28	4eb72d93	slti	x27,x14,1259	 x14:0xe563b000 x27=0x00000001
       39865000	      3985	80003c2c	01ce40b3	xor	x1,x28,x28	 x28:0x0d9e0b1c x28:0x0d9e0b1c  x1=0x00000000
       39875000	      3986	80003c30	00ea8fb3	add	x31,x21,x14	 x21:0x8130fb5d x14:0xe563b000 x31=0x6694ab5d
       39885000	      3987	80003c34	004bd6b3	srl	x13,x23,x4	 x23:0xfaa87908  x4:0x0000005d x13=0x00000007
       39895000	      3988	80003c38	015ea7b3	slt	x15,x29,x21	 x29:0x6efcda50 x21:0x8130fb5d x15=0x00000000
       39905000	      3989	80003c3c	0141fc33	and	x24,x3,x20	  x3:0x800032a4 x20:0x00000000 x24=0x00000000
       39915000	      3990	80003c40	020b6063	bltu	x22,x0,80003c60	 x22:0x80009f64  x0:0x00000000
       39925000	      3991	80003c44	01ea26b3	slt	x13,x20,x30	 x20:0x00000000 x30:0x00000000 x13=0x00000000
       39935000	      3992	80003c48	01740a63	beq	x8,x23,80003c5c	  x8:0xfaa87908 x23:0xfaa87908
       39945000	      3993	00000000	00000013	addi	x0,x0,0	  x0:0x00000000
       39955000	      3994	80003c58	00000013	addi	x0,x0,0	  x0:0x00000000
       39965000	      3995	80003c5c	00cccfb3	xor	x31,x25,x12	 x25:0x00000000 x12:0xfffff8a3 x31=0xfffff8a3
       39975000	      3996	80003c60	6906e737	lui	x14,0x6906e	 x14=0x6906e000
       39985000	      3997	80003c64	01556663	bltu	x10,x21,80003c70	 x10:0x0d9e0b1c x21:0x8130fb5d
       39995000	      3998	00000000	00000013	addi	x0,x0,0	  x0:0x00000000
       40005000	      3999	80003c6c	00000013	addi	x0,x0,0	  x0:0x00000000
       40015000	      4000	80003c70	058dc263	blt	x27,x24,80003cb4	 x27:0x00000001 x24:0x00000000
       40025000	      4001	80003c74	419d0eb3	sub	x29,x26,x25	 x26:0xfb7092cc x25:0x00000000 x29=0xfb7092cc
       40035000	      4002	80003c78	00196863	bltu	x18,x1,80003c88	 x18:0x4c8007d8  x1:0x00000000
       40045000	      4003	80003c7c	01654e33	xor	x28,x10,x22	 x10:0x0d9e0b1c x22:0x80009f64 x28=0x8d9e9478
       40055000	      4004	80003c80	00000013	addi	x0,x0,0	  x0:0x00000000
       40065000	      4005	80003c84	00519c33	sll	x24,x3,x5	  x3:0x800032a4  x5:0x00000000 x24=0x800032a4
       40075000	      4006	80003c88	0006df93	srli	x31,x13,0x0	 x13:0x00000000 x31=0x00000000
       40085000	      4007	80003c8c	415f5693	srai	x13,x30,0x15	 x30:0x00000000 x13=0x00000000
       40095000	      4008	80003c90	006f1213	slli	x4,x30,0x6	 x30:0x00000000  x4=0x00000000
       40105000	      4009	80003c94	01aa5033	srl	x0,x20,x26	 x20:0x00000000 x26:0xfb7092cc
       40115000	      4010	80003c98	006b4a33	xor	x20,x22,x6	 x22:0x80009f64  x6:0x1c000000 x20=0x9c009f64
       40125000	      4011	80003c9c	00000013	addi	x0,x0,0	  x0:0x00000000
       40135000	      4012	80003ca0	ae45a793	slti	x15,x11,-1308	 x11:0x4c8001bf x15=0x00000000
       40145000	      4013	80003ca4	00031a63	bne	x6,x0,80003cb8	  x6:0x1c000000  x0:0x00000000
       40155000	      4014	00000000	00000013	addi	x0,x0,0	  x0:0x00000000
       40165000	      4015	80003cb4	00000013	addi	x0,x0,0	  x0:0x00000000
       40175000	      4016	80003cb8	00099133	sll	x2,x19,x0	 x19:0x80009fc4  x0:0x00000000  x2=0x80009fc4
       40185000	      4017	80003cbc	41f85a13	srai	x20,x16,0x1f	 x16:0xe6611ba4 x20=0xffffffff
       40195000	      4018	80003cc0	b872b813	sltiu	x16,x5,-1145	  x5:0x00000000 x16=0x00000001
       40205000	      4019	80003cc4	7aee2193	slti	x3,x28,1966	 x28:0x8d9e9478  x3=0x00000001
       40215000	      4020	80003cc8	013d4863	blt	x26,x19,80003cd8	 x26:0xfb7092cc x19:0x80009fc4
       40225000	      4021	80003ccc	012a77b3	and	x15,x20,x18	 x20:0xffffffff x18:0x4c8007d8 x15=0x4c8007d8
       40235000	      4022	80003cd0	014c1e93	slli	x29,x24,0x14	 x24:0x800032a4 x29=0x2a400000
       40245000	      4023	80003cd4	01b258b3	srl	x17,x4,x27	  x4:0x00000000 x27:0x00000001 x17=0x00000000
       40255000	      4024	80003cd8	05241263	bne	x8,x18,80003d1c	  x8:0xfaa87908 x18:0x4c8007d8
       40265000	      4025	00000000	00000013	addi	x0,x0,0	  x0:0x00000000
       40275000	      4026	80003d18	00000013	addi	x0,x0,0	  x0:0x00000000
       40285000	      4027	80003d1c	7cfd4813	xori	x16,x26,1999	 x26:0xfb7092cc x16=0xfb709503
       40295000	      4028	80003d20	0115cab3	xor	x21,x11,x17	 x11:0x4c8001bf x17:0x00000000 x21=0x4c8001bf
       40305000	      4029	80003d24	ffc53f93	sltiu	x31,x10,-4	 x10:0x0d9e0b1c x31=0x00000001
       40315000	      4030	80003d28	003dd233	srl	x4,x27,x3	 x27:0x00000001  x3:0x00000001  x4=0x00000000
       40325000	      4031	80003d2c	0034a733	slt	x14,x9,x3	  x9:0x00000000  x3:0x00000001 x14=0x00000001
       40335000	      4032	80003d30	04247063	bgeu	x8,x2,80003d70	  x8:0xfaa87908  x2:0x80009fc4
       40345000	      4033	00000000	00000013	addi	x0,x0,0	  x0:0x00000000
       40355000	      4034	80003d6c	00000013	addi	x0,x0,0	  x0:0x00000000
       40365000	      4035	80003d70	fe058013	addi	x0,x11,-32	 x11:0x4c8001bf
       40375000	      4036	80003d74	01989a93	slli	x21,x17,0x19	 x17:0x00000000 x21=0x00000000
       40385000	      4037	80003d78	027de063	bltu	x27,x7,80003d98	 x27:0x00000001  x7:0xd18f9a44
       40395000	      4038	00000000	00000013	addi	x0,x0,0	  x0:0x00000000
       40405000	      4039	80003d94	00000013	addi	x0,x0,0	  x0:0x00000000
       40415000	      4040	80003d98	052ee263	bltu	x29,x18,80003ddc	 x29:0x2a400000 x18:0x4c8007d8
       40425000	      4041	00000000	00000013	addi	x0,x0,0	  x0:0x00000000
       40435000	      4042	80003dd8	00000013	addi	x0,x0,0	  x0:0x00000000
       40445000	      4043	80003ddc	015777b3	and	x15,x14,x21	 x14:0x00000001 x21:0x00000000 x15=0x00000000
       40455000	      4044	80003de0	0070c2b3	xor	x5,x1,x7	  x1:0x00000000  x7:0xd18f9a44  x5=0xd18f9a44
       40465000	      4045	80003de4	004b2083	lw	x1,4(x22)	 x22:0x80009f64  x1=0x80000168 PA:0x80009f68
       40475000	      4046	80003de8	dd0db813	sltiu	x16,x27,-560	 x27:0x00000001 x16=0x00000001
       40485000	      4047	80003dec	4a30b713	sltiu	x14,x1,1187	  x1:0x80000168 x14=0x00000000
       40495000	      4048	80003df0	c7553317	auipc	x6,0xc7553	  x6=0x47556dec
       40505000	      4049	80003df4	c0d3c817	auipc	x16,0xc0d3c	 x16=0x40d3fdf0
       40515000	      4050	80003df8	020b0b13	addi	x22,x22,32	 x22:0x80009f64 x22=0x80009f84
       40525000	      4051	80003dfc	019ff3b3	and	x7,x31,x25	 x31:0x00000001 x25:0x00000000  x7=0x00000000
       40535000	      4052	80003e00	01e25713	srli	x14,x4,0x1e	  x4:0x00000000 x14=0x00000000
       40545000	      4053	80003e04	004783b3	add	x7,x15,x4	 x15:0x00000000  x4:0x00000000  x7=0x00000000
       40555000	      4054	80003e08	40bf0033	sub	x0,x30,x11	 x30:0x00000000 x11:0x4c8001bf
       40565000	      4055	80003e0c	dc2de913	ori	x18,x27,-574	 x27:0x00000001 x18=0xfffffdc3
       40575000	      4056	80003e10	00000013	addi	x0,x0,0	  x0:0x00000000
       40585000	      4057	80003e14	00008293	addi	x5,x1,0	  x1:0x80000168  x5=0x80000168
       40595000	      4058	80003e18	000282e7	jalr	x5,x5,0	  x5:0x80000168  x5=0x80003e18
       40605000	      4059	00000000	00000013	addi	x0,x0,0	  x0:0x00000000
       40615000	      4060	80000168	00000013	addi	x0,x0,0	  x0:0x00000000
       40625000	      4061	8000016c	00002d97	auipc	x27,0x2	 x27=0x80002168
       40635000	      4062	80000170	b2cd8d93	addi	x27,x27,-1236	 x27:0x80002168 x27=0x80001c94
       40645000	      4063	80000174	0035e233	or	x4,x11,x3	 x11:0x4c8001bf  x3:0x00000001  x4=0x4c8001bf
       40655000	      4064	80000178	2fdd8d93	addi	x27,x27,765	 x27:0x80001c94 x27=0x80001f91
       40665000	      4065	8000017c	82e5af93	slti	x31,x11,-2002	 x11:0x4c8001bf x31=0x00000000
       40675000	      4066	80000180	00000013	addi	x0,x0,0	  x0:0x00000000
       40685000	      4067	80000184	012fde33	srl	x28,x31,x18	 x31:0x00000000 x18:0xfffffdc3 x28=0x00000000
       40695000	      4068	80000188	00266c63	bltu	x12,x2,800001a0	 x12:0xfffff8a3  x2:0x80009fc4
       40705000	      4069	8000018c	01f92e33	slt	x28,x18,x31	 x18:0xfffffdc3 x31:0x00000000 x28=0x00000001
       40715000	      4070	80000190	019efbb3	and	x23,x29,x25	 x29:0x2a400000 x25:0x00000000 x23=0x00000000
       40725000	      4071	80000194	e2651ab7	lui	x21,0xe2651	 x21=0xe2651000
       40735000	      4072	80000198	0045a933	slt	x18,x11,x4	 x11:0x4c8001bf  x4:0x4c8001bf x18=0x00000000
       40745000	      4073	8000019c	01229833	sll	x16,x5,x18	  x5:0x80003e18 x18:0x00000000 x16=0x80003e18
       40755000	      4074	800001a0	d03d80e7	jalr	x1,x27,-765	 x27:0x80001f91  x1=0x800001a0
       40765000	      4075	00000000	00000013	addi	x0,x0,0	  x0:0x00000000
       40775000	      4076	80001c94	00000013	addi	x0,x0,0	  x0:0x00000000
       40785000	      4077	80001c98	fc0b0b13	addi	x22,x22,-64	 x22:0x80009f84 x22=0x80009f44
       40795000	      4078	80001c9c	007015b3	sll	x11,x0,x7	  x0:0x00000000  x7:0x00000000 x11=0x00000000
       40805000	      4079	80001ca0	00119593	slli	x11,x3,0x1	  x3:0x00000001 x11=0x00000002
       40815000	      4080	80001ca4	001b2223	sw	x1,4(x22)	 x22:0x80009f44  x1:0x800001a0 PA:0x80009f48
       40825000	      4081	80001ca8	00414a33	xor	x20,x2,x4	  x2:0x80009fc4  x4:0x4c8001bf x20=0xcc809e7b
       40835000	      4082	80001cac	00bef1b3	and	x3,x29,x11	 x29:0x2a400000 x11:0x00000002  x3=0x00000000
       40845000	      4083	80001cb0	008000ef	jal	x1,80001cb0	  x1=0x80001cb0
       40855000	      4084	00000000	00000013	addi	x0,x0,0	  x0:0x00000000
       40865000	      4085	80001cb4	00000013	addi	x0,x0,0	  x0:0x00000000
       40875000	      4086	80001cb8	0200036f	jal	x6,80001cb8	  x6=0x80001cb8
       40885000	      4087	00000000	00000013	addi	x0,x0,0	  x0:0x00000000
       40895000	      4088	80001cd4	00000013	addi	x0,x0,0	  x0:0x00000000
       40905000	      4089	80001cd8	ff5ff36f	jal	x6,80001cd8	  x6=0x80001cd8
       40915000	      4090	00000000	00000013	addi	x0,x0,0	  x0:0x00000000
       40925000	      4091	80001cc8	00000013	addi	x0,x0,0	  x0:0x00000000
       40935000	      4092	80001ccc	ff5ff96f	jal	x18,80001ccc	 x18=0x80001ccc
       40945000	      4093	00000000	00000013	addi	x0,x0,0	  x0:0x00000000
       40955000	      4094	80001cbc	00000013	addi	x0,x0,0	  x0:0x00000000
       40965000	      4095	80001cc0	ff5ff36f	jal	x6,80001cc0	  x6=0x80001cc0
       40975000	      4096	00000000	00000013	addi	x0,x0,0	  x0:0x00000000
       40985000	      4097	80001cb0	00000013	addi	x0,x0,0	  x0:0x00000000
       40995000	      4098	80001cb4	008000ef	jal	x1,80001cb4	  x1=0x80001cb4
       41005000	      4099	00000000	00000013	addi	x0,x0,0	  x0:0x00000000
       41015000	      4100	80001cb8	00000013	addi	x0,x0,0	  x0:0x00000000
       41025000	      4101	80001cbc	020000ef	jal	x1,80001cbc	  x1=0x80001cbc
       41035000	      4102	00000000	00000013	addi	x0,x0,0	  x0:0x00000000
       41045000	      4103	80001cd8	00000013	addi	x0,x0,0	  x0:0x00000000
       41055000	      4104	80001cdc	ff9ff0ef	jal	x1,80001cdc	  x1=0x80001cdc
       41065000	      4105	00000000	00000013	addi	x0,x0,0	  x0:0x00000000
       41075000	      4106	80001cd0	00000013	addi	x0,x0,0	  x0:0x00000000
       41085000	      4107	80001cd4	00c00f6f	jal	x30,80001cd4	 x30=0x80001cd4
       41095000	      4108	00000000	00000013	addi	x0,x0,0	  x0:0x00000000
       41105000	      4109	80001cdc	00000013	addi	x0,x0,0	  x0:0x00000000
       41115000	      4110	80001ce0	ff1ff1ef	jal	x3,80001ce0	  x3=0x80001ce0
       41125000	      4111	00000000	00000013	addi	x0,x0,0	  x0:0x00000000
       41135000	      4112	80001ccc	00000013	addi	x0,x0,0	  x0:0x00000000
       41145000	      4113	80001cd0	01c0036f	jal	x6,80001cd0	  x6=0x80001cd0
       41155000	      4114	00000000	00000013	addi	x0,x0,0	  x0:0x00000000
       41165000	      4115	80001ce8	00000013	addi	x0,x0,0	  x0:0x00000000
       41175000	      4116	80001cec	fd9ff0ef	jal	x1,80001cec	  x1=0x80001cec
       41185000	      4117	00000000	00000013	addi	x0,x0,0	  x0:0x00000000
       41195000	      4118	80001cc0	00000013	addi	x0,x0,0	  x0:0x00000000
       41205000	      4119	80001cc4	0200036f	jal	x6,80001cc4	  x6=0x80001cc4
       41215000	      4120	00000000	00000013	addi	x0,x0,0	  x0:0x00000000
       41225000	      4121	80001ce0	00000013	addi	x0,x0,0	  x0:0x00000000
       41235000	      4122	80001ce4	fe5ff0ef	jal	x1,80001ce4	  x1=0x80001ce4
       41245000	      4123	00000000	00000013	addi	x0,x0,0	  x0:0x00000000
       41255000	      4124	80001cc4	00000013	addi	x0,x0,0	  x0:0x00000000
       41265000	      4125	80001cc8	02000eef	jal	x29,80001cc8	 x29=0x80001cc8
       41275000	      4126	00000000	00000013	addi	x0,x0,0	  x0:0x00000000
       41285000	      4127	80001ce4	00000013	addi	x0,x0,0	  x0:0x00000000
       41295000	      4128	80001ce8	008000ef	jal	x1,80001ce8	  x1=0x80001ce8
       41305000	      4129	00000000	00000013	addi	x0,x0,0	  x0:0x00000000
       41315000	      4130	80001cec	00000013	addi	x0,x0,0	  x0:0x00000000
       41325000	      4131	80001cf0	002c2e33	slt	x28,x24,x2	 x24:0x800032a4  x2:0x80009fc4 x28=0x00000001
       41335000	      4132	80001cf4	024000ef	jal	x1,80001cf4	  x1=0x80001cf4
       41345000	      4133	00000000	00000013	addi	x0,x0,0	  x0:0x00000000
       41355000	      4134	80001d14	00000013	addi	x0,x0,0	  x0:0x00000000
       41365000	      4135	80001d18	fedff0ef	jal	x1,80001d18	  x1=0x80001d18
       41375000	      4136	00000000	00000013	addi	x0,x0,0	  x0:0x00000000
       41385000	      4137	80001d00	00000013	addi	x0,x0,0	  x0:0x00000000
       41395000	      4138	80001d04	00c000ef	jal	x1,80001d04	  x1=0x80001d04
       41405000	      4139	00000000	00000013	addi	x0,x0,0	  x0:0x00000000
       41415000	      4140	80001d0c	00000013	addi	x0,x0,0	  x0:0x00000000
       41425000	      4141	80001d10	ff1ff26f	jal	x4,80001d10	  x4=0x80001d10
       41435000	      4142	00000000	00000013	addi	x0,x0,0	  x0:0x00000000
       41445000	      4143	80001cfc	00000013	addi	x0,x0,0	  x0:0x00000000
       41455000	      4144	80001d00	0280016f	jal	x2,80001d00	  x2=0x80001d00
       41465000	      4145	00000000	00000013	addi	x0,x0,0	  x0:0x00000000
       41475000	      4146	80001d24	00000013	addi	x0,x0,0	  x0:0x00000000
       41485000	      4147	80001d28	ff9ff0ef	jal	x1,80001d28	  x1=0x80001d28
       41495000	      4148	00000000	00000013	addi	x0,x0,0	  x0:0x00000000
       41505000	      4149	80001d1c	00000013	addi	x0,x0,0	  x0:0x00000000
       41515000	      4150	80001d20	0100036f	jal	x6,80001d20	  x6=0x80001d20
       41525000	      4151	00000000	00000013	addi	x0,x0,0	  x0:0x00000000
       41535000	      4152	80001d2c	00000013	addi	x0,x0,0	  x0:0x00000000
       41545000	      4153	80001d30	fd9ff36f	jal	x6,80001d30	  x6=0x80001d30
       41555000	      4154	00000000	00000013	addi	x0,x0,0	  x0:0x00000000
       41565000	      4155	80001d04	00000013	addi	x0,x0,0	  x0:0x00000000
       41575000	      4156	80001d08	004000ef	jal	x1,80001d08	  x1=0x80001d08
       41585000	      4157	00000000	00000013	addi	x0,x0,0	  x0:0x00000000
       41595000	      4158	80001d08	00000013	addi	x0,x0,0	  x0:0x00000000
       41605000	      4159	80001d0c	008000ef	jal	x1,80001d0c	  x1=0x80001d0c
       41615000	      4160	00000000	00000013	addi	x0,x0,0	  x0:0x00000000
       41625000	      4161	80001d10	00000013	addi	x0,x0,0	  x0:0x00000000
       41635000	      4162	80001d14	01800c6f	jal	x24,80001d14	 x24=0x80001d14
       41645000	      4163	00000000	00000013	addi	x0,x0,0	  x0:0x00000000
       41655000	      4164	80001d28	00000013	addi	x0,x0,0	  x0:0x00000000
       41665000	      4165	80001d2c	ff1ff36f	jal	x6,80001d2c	  x6=0x80001d2c
       41675000	      4166	00000000	00000013	addi	x0,x0,0	  x0:0x00000000
       41685000	      4167	80001d18	00000013	addi	x0,x0,0	  x0:0x00000000
       41695000	      4168	80001d1c	018000ef	jal	x1,80001d1c	  x1=0x80001d1c
       41705000	      4169	00000000	00000013	addi	x0,x0,0	  x0:0x00000000
       41715000	      4170	80001d30	00000013	addi	x0,x0,0	  x0:0x00000000
       41725000	      4171	80001d34	ff1ff0ef	jal	x1,80001d34	  x1=0x80001d34
       41735000	      4172	00000000	00000013	addi	x0,x0,0	  x0:0x00000000
       41745000	      4173	80001d20	00000013	addi	x0,x0,0	  x0:0x00000000
       41755000	      4174	80001d24	fd9ff0ef	jal	x1,80001d24	  x1=0x80001d24
       41765000	      4175	00000000	00000013	addi	x0,x0,0	  x0:0x00000000
       41775000	      4176	80001cf8	00000013	addi	x0,x0,0	  x0:0x00000000
       41785000	      4177	80001cfc	ffdff0ef	jal	x1,80001cfc	  x1=0x80001cfc
       41795000	      4178	00000000	00000013	addi	x0,x0,0	  x0:0x00000000
       41805000	      4179	80001cf4	00000013	addi	x0,x0,0	  x0:0x00000000
       41815000	      4180	80001cf8	040000ef	jal	x1,80001cf8	  x1=0x80001cf8
       41825000	      4181	00000000	00000013	addi	x0,x0,0	  x0:0x00000000
       41835000	      4182	80001d34	00000013	addi	x0,x0,0	  x0:0x00000000
       41845000	      4183	80001d38	008248b3	xor	x17,x4,x8	  x4:0x80001d10  x8:0xfaa87908 x17=0x7aa86418
       41855000	      4184	80001d3c	00c000ef	jal	x1,80001d3c	  x1=0x80001d3c
       41865000	      4185	00000000	00000013	addi	x0,x0,0	  x0:0x00000000
       41875000	      4186	80001d44	00000013	addi	x0,x0,0	  x0:0x00000000
       41885000	      4187	80001d48	020000ef	jal	x1,80001d48	  x1=0x80001d48
       41895000	      4188	00000000	00000013	addi	x0,x0,0	  x0:0x00000000
       41905000	      4189	80001d64	00000013	addi	x0,x0,0	  x0:0x00000000
       41915000	      4190	80001d68	fddff36f	jal	x6,80001d68	  x6=0x80001d68
       41925000	      4191	00000000	00000013	addi	x0,x0,0	  x0:0x00000000
       41935000	      4192	80001d40	00000013	addi	x0,x0,0	  x0:0x00000000
       41945000	      4193	80001d44	02c000ef	jal	x1,80001d44	  x1=0x80001d44
       41955000	      4194	00000000	00000013	addi	x0,x0,0	  x0:0x00000000
       41965000	      4195	80001d6c	00000013	addi	x0,x0,0	  x0:0x00000000
       41975000	      4196	80001d70	ff1ff0ef	jal	x1,80001d70	  x1=0x80001d70
       41985000	      4197	00000000	00000013	addi	x0,x0,0	  x0:0x00000000
       41995000	      4198	80001d5c	00000013	addi	x0,x0,0	  x0:0x00000000
       42005000	      4199	80001d60	020000ef	jal	x1,80001d60	  x1=0x80001d60
       42015000	      4200	00000000	00000013	addi	x0,x0,0	  x0:0x00000000
       42025000	      4201	80001d7c	00000013	addi	x0,x0,0	  x0:0x00000000
       42035000	      4202	80001d80	fd5ff26f	jal	x4,80001d80	  x4=0x80001d80
       42045000	      4203	00000000	00000013	addi	x0,x0,0	  x0:0x00000000
       42055000	      4204	80001d50	00000013	addi	x0,x0,0	  x0:0x00000000
       42065000	      4205	80001d54	034000ef	jal	x1,80001d54	  x1=0x80001d54
       42075000	      4206	00000000	00000013	addi	x0,x0,0	  x0:0x00000000
       42085000	      4207	80001d84	00000013	addi	x0,x0,0	  x0:0x00000000
       42095000	      4208	80001d88	ffdff0ef	jal	x1,80001d88	  x1=0x80001d88
       42105000	      4209	00000000	00000013	addi	x0,x0,0	  x0:0x00000000
       42115000	      4210	80001d80	00000013	addi	x0,x0,0	  x0:0x00000000
       42125000	      4211	80001d84	ff1ff0ef	jal	x1,80001d84	  x1=0x80001d84
       42135000	      4212	00000000	00000013	addi	x0,x0,0	  x0:0x00000000
       42145000	      4213	80001d70	00000013	addi	x0,x0,0	  x0:0x00000000
       42155000	      4214	80001d74	0240096f	jal	x18,80001d74	 x18=0x80001d74
       42165000	      4215	00000000	00000013	addi	x0,x0,0	  x0:0x00000000
       42175000	      4216	80001d94	00000013	addi	x0,x0,0	  x0:0x00000000
       42185000	      4217	80001d98	004000ef	jal	x1,80001d98	  x1=0x80001d98
       42195000	      4218	00000000	00000013	addi	x0,x0,0	  x0:0x00000000
       42205000	      4219	80001d98	00000013	addi	x0,x0,0	  x0:0x00000000
       42215000	      4220	80001d9c	fc1ffbef	jal	x23,80001d9c	 x23=0x80001d9c
       42225000	      4221	00000000	00000013	addi	x0,x0,0	  x0:0x00000000
       42235000	      4222	80001d58	00000013	addi	x0,x0,0	  x0:0x00000000
       42245000	      4223	80001d5c	008000ef	jal	x1,80001d5c	  x1=0x80001d5c
       42255000	      4224	00000000	00000013	addi	x0,x0,0	  x0:0x00000000
       42265000	      4225	80001d60	00000013	addi	x0,x0,0	  x0:0x00000000
       42275000	      4226	80001d64	fddff0ef	jal	x1,80001d64	  x1=0x80001d64
       42285000	      4227	00000000	00000013	addi	x0,x0,0	  x0:0x00000000
       42295000	      4228	80001d3c	00000013	addi	x0,x0,0	  x0:0x00000000
       42305000	      4229	80001d40	05400def	jal	x27,80001d40	 x27=0x80001d40
       42315000	      4230	00000000	00000013	addi	x0,x0,0	  x0:0x00000000
       42325000	      4231	80001d90	00000013	addi	x0,x0,0	  x0:0x00000000
       42335000	      4232	80001d94	fbdff0ef	jal	x1,80001d94	  x1=0x80001d94
       42345000	      4233	00000000	00000013	addi	x0,x0,0	  x0:0x00000000
       42355000	      4234	80001d4c	00000013	addi	x0,x0,0	  x0:0x00000000
       42365000	      4235	80001d50	02c0016f	jal	x2,80001d50	  x2=0x80001d50
       42375000	      4236	00000000	00000013	addi	x0,x0,0	  x0:0x00000000
       42385000	      4237	80001d78	00000013	addi	x0,x0,0	  x0:0x00000000
       42395000	      4238	80001d7c	0140016f	jal	x2,80001d7c	  x2=0x80001d7c
       42405000	      4239	00000000	00000013	addi	x0,x0,0	  x0:0x00000000
       42415000	      4240	80001d8c	00000013	addi	x0,x0,0	  x0:0x00000000
       42425000	      4241	80001d90	ffdff0ef	jal	x1,80001d90	  x1=0x80001d90
       42435000	      4242	00000000	00000013	addi	x0,x0,0	  x0:0x00000000
       42445000	      4243	80001d88	00000013	addi	x0,x0,0	  x0:0x00000000
       42455000	      4244	80001d8c	fedff36f	jal	x6,80001d8c	  x6=0x80001d8c
       42465000	      4245	00000000	00000013	addi	x0,x0,0	  x0:0x00000000
       42475000	      4246	80001d74	00000013	addi	x0,x0,0	  x0:0x00000000
       42485000	      4247	80001d78	fe1ff36f	jal	x6,80001d78	  x6=0x80001d78
       42495000	      4248	00000000	00000013	addi	x0,x0,0	  x0:0x00000000
       42505000	      4249	80001d54	00000013	addi	x0,x0,0	  x0:0x00000000
       42515000	      4250	80001d58	ff5ff0ef	jal	x1,80001d58	  x1=0x80001d58
       42525000	      4251	00000000	00000013	addi	x0,x0,0	  x0:0x00000000
       42535000	      4252	80001d48	00000013	addi	x0,x0,0	  x0:0x00000000
       42545000	      4253	80001d4c	020000ef	jal	x1,80001d4c	  x1=0x80001d4c
       42555000	      4254	00000000	00000013	addi	x0,x0,0	  x0:0x00000000
       42565000	      4255	80001d68	00000013	addi	x0,x0,0	  x0:0x00000000
       42575000	      4256	80001d6c	0340026f	jal	x4,80001d6c	  x4=0x80001d6c
       42585000	      4257	00000000	00000013	addi	x0,x0,0	  x0:0x00000000
       42595000	      4258	80001d9c	00000013	addi	x0,x0,0	  x0:0x00000000
       42605000	      4259	80001da0	28a2bc93	sltiu	x25,x5,650	  x5:0x80003e18 x25=0x00000000
       42615000	      4260	80001da4	054000ef	jal	x1,80001da4	  x1=0x80001da4
       42625000	      4261	00000000	00000013	addi	x0,x0,0	  x0:0x00000000
       42635000	      4262	80001df4	00000013	addi	x0,x0,0	  x0:0x00000000
       42645000	      4263	80001df8	fb9ffa6f	jal	x20,80001df8	 x20=0x80001df8
       42655000	      4264	00000000	00000013	addi	x0,x0,0	  x0:0x00000000
       42665000	      4265	80001dac	00000013	addi	x0,x0,0	  x0:0x00000000
       42675000	      4266	80001db0	010000ef	jal	x1,80001db0	  x1=0x80001db0
       42685000	      4267	00000000	00000013	addi	x0,x0,0	  x0:0x00000000
       42695000	      4268	80001dbc	00000013	addi	x0,x0,0	  x0:0x00000000
       42705000	      4269	80001dc0	008000ef	jal	x1,80001dc0	  x1=0x80001dc0
       42715000	      4270	00000000	00000013	addi	x0,x0,0	  x0:0x00000000
       42725000	      4271	80001dc4	00000013	addi	x0,x0,0	  x0:0x00000000
       42735000	      4272	80001dc8	ff1ff36f	jal	x6,80001dc8	  x6=0x80001dc8
       42745000	      4273	00000000	00000013	addi	x0,x0,0	  x0:0x00000000
       42755000	      4274	80001db4	00000013	addi	x0,x0,0	  x0:0x00000000
       42765000	      4275	80001db8	034000ef	jal	x1,80001db8	  x1=0x80001db8
       42775000	      4276	00000000	00000013	addi	x0,x0,0	  x0:0x00000000
       42785000	      4277	80001de8	00000013	addi	x0,x0,0	  x0:0x00000000
       42795000	      4278	80001dec	008002ef	jal	x5,80001dec	  x5=0x80001dec
       42805000	      4279	00000000	00000013	addi	x0,x0,0	  x0:0x00000000
       42815000	      4280	80001df0	00000013	addi	x0,x0,0	  x0:0x00000000
       42825000	      4281	80001df4	fc1ff36f	jal	x6,80001df4	  x6=0x80001df4
       42835000	      4282	00000000	00000013	addi	x0,x0,0	  x0:0x00000000
       42845000	      4283	80001db0	00000013	addi	x0,x0,0	  x0:0x00000000
       42855000	      4284	80001db4	01c0036f	jal	x6,80001db4	  x6=0x80001db4
       42865000	      4285	00000000	00000013	addi	x0,x0,0	  x0:0x00000000
       42875000	      4286	80001dcc	00000013	addi	x0,x0,0	  x0:0x00000000
       42885000	      4287	80001dd0	008000ef	jal	x1,80001dd0	  x1=0x80001dd0
       42895000	      4288	00000000	00000013	addi	x0,x0,0	  x0:0x00000000
       42905000	      4289	80001dd4	00000013	addi	x0,x0,0	  x0:0x00000000
       42915000	      4290	80001dd8	024000ef	jal	x1,80001dd8	  x1=0x80001dd8
       42925000	      4291	00000000	00000013	addi	x0,x0,0	  x0:0x00000000
       42935000	      4292	80001df8	00000013	addi	x0,x0,0	  x0:0x00000000
       42945000	      4293	80001dfc	fd1ff36f	jal	x6,80001dfc	  x6=0x80001dfc
       42955000	      4294	00000000	00000013	addi	x0,x0,0	  x0:0x00000000
       42965000	      4295	80001dc8	00000013	addi	x0,x0,0	  x0:0x00000000
       42975000	      4296	80001dcc	0080096f	jal	x18,80001dcc	 x18=0x80001dcc
       42985000	      4297	00000000	00000013	addi	x0,x0,0	  x0:0x00000000
       42995000	      4298	80001dd0	00000013	addi	x0,x0,0	  x0:0x00000000
       43005000	      4299	80001dd4	01c000ef	jal	x1,80001dd4	  x1=0x80001dd4
       43015000	      4300	00000000	00000013	addi	x0,x0,0	  x0:0x00000000
       43025000	      4301	80001dec	00000013	addi	x0,x0,0	  x0:0x00000000
       43035000	      4302	80001df0	ff9fff6f	jal	x30,80001df0	 x30=0x80001df0
       43045000	      4303	00000000	00000013	addi	x0,x0,0	  x0:0x00000000
       43055000	      4304	80001de4	00000013	addi	x0,x0,0	  x0:0x00000000
       43065000	      4305	80001de8	ff5ff8ef	jal	x17,80001de8	 x17=0x80001de8
       43075000	      4306	00000000	00000013	addi	x0,x0,0	  x0:0x00000000
       43085000	      4307	80001dd8	00000013	addi	x0,x0,0	  x0:0x00000000
       43095000	      4308	80001ddc	fe9ff96f	jal	x18,80001ddc	 x18=0x80001ddc
       43105000	      4309	00000000	00000013	addi	x0,x0,0	  x0:0x00000000
       43115000	      4310	80001dc0	00000013	addi	x0,x0,0	  x0:0x00000000
       43125000	      4311	80001dc4	fe5ff36f	jal	x6,80001dc4	  x6=0x80001dc4
       43135000	      4312	00000000	00000013	addi	x0,x0,0	  x0:0x00000000
       43145000	      4313	80001da4	00000013	addi	x0,x0,0	  x0:0x00000000
       43155000	      4314	80001da8	00400eef	jal	x29,80001da8	 x29=0x80001da8
       43165000	      4315	00000000	00000013	addi	x0,x0,0	  x0:0x00000000
       43175000	      4316	80001da8	00000013	addi	x0,x0,0	  x0:0x00000000
       43185000	      4317	80001dac	034005ef	jal	x11,80001dac	 x11=0x80001dac
       43195000	      4318	00000000	00000013	addi	x0,x0,0	  x0:0x00000000
       43205000	      4319	80001ddc	00000013	addi	x0,x0,0	  x0:0x00000000
       43215000	      4320	80001de0	004000ef	jal	x1,80001de0	  x1=0x80001de0
       43225000	      4321	00000000	00000013	addi	x0,x0,0	  x0:0x00000000
       43235000	      4322	80001de0	00000013	addi	x0,x0,0	  x0:0x00000000
       43245000	      4323	80001de4	fd9ff0ef	jal	x1,80001de4	  x1=0x80001de4
       43255000	      4324	00000000	00000013	addi	x0,x0,0	  x0:0x00000000
       43265000	      4325	80001db8	00000013	addi	x0,x0,0	  x0:0x00000000
       43275000	      4326	80001dbc	04400f6f	jal	x30,80001dbc	 x30=0x80001dbc
       43285000	      4327	00000000	00000013	addi	x0,x0,0	  x0:0x00000000
       43295000	      4328	80001dfc	00000013	addi	x0,x0,0	  x0:0x00000000
       43305000	      4329	80001e00	862f4413	xori	x8,x30,-1950	 x30:0x80001dbc  x8=0x7fffe5de
       43315000	      4330	80001e04	010000ef	jal	x1,80001e04	  x1=0x80001e04
       43325000	      4331	00000000	00000013	addi	x0,x0,0	  x0:0x00000000
       43335000	      4332	80001e10	00000013	addi	x0,x0,0	  x0:0x00000000
       43345000	      4333	80001e14	040005ef	jal	x11,80001e14	 x11=0x80001e14
       43355000	      4334	00000000	00000013	addi	x0,x0,0	  x0:0x00000000
       43365000	      4335	80001e50	00000013	addi	x0,x0,0	  x0:0x00000000
       43375000	      4336	80001e54	fd9ff2ef	jal	x5,80001e54	  x5=0x80001e54
       43385000	      4337	00000000	00000013	addi	x0,x0,0	  x0:0x00000000
       43395000	      4338	80001e28	00000013	addi	x0,x0,0	  x0:0x00000000
       43405000	      4339	80001e2c	00c000ef	jal	x1,80001e2c	  x1=0x80001e2c
       43415000	      4340	00000000	00000013	addi	x0,x0,0	  x0:0x00000000
       43425000	      4341	80001e34	00000013	addi	x0,x0,0	  x0:0x00000000
       43435000	      4342	80001e38	00c000ef	jal	x1,80001e38	  x1=0x80001e38
       43445000	      4343	00000000	00000013	addi	x0,x0,0	  x0:0x00000000
       43455000	      4344	80001e40	00000013	addi	x0,x0,0	  x0:0x00000000
       43465000	      4345	80001e44	fe1ff0ef	jal	x1,80001e44	  x1=0x80001e44
       43475000	      4346	00000000	00000013	addi	x0,x0,0	  x0:0x00000000
       43485000	      4347	80001e20	00000013	addi	x0,x0,0	  x0:0x00000000
       43495000	      4348	80001e24	03c000ef	jal	x1,80001e24	  x1=0x80001e24
       43505000	      4349	00000000	00000013	addi	x0,x0,0	  x0:0x00000000
       43515000	      4350	80001e5c	00000013	addi	x0,x0,0	  x0:0x00000000
       43525000	      4351	80001e60	fe1ff0ef	jal	x1,80001e60	  x1=0x80001e60
       43535000	      4352	00000000	00000013	addi	x0,x0,0	  x0:0x00000000
       43545000	      4353	80001e3c	00000013	addi	x0,x0,0	  x0:0x00000000
       43555000	      4354	80001e40	fddff16f	jal	x2,80001e40	  x2=0x80001e40
       43565000	      4355	00000000	00000013	addi	x0,x0,0	  x0:0x00000000
       43575000	      4356	80001e18	00000013	addi	x0,x0,0	  x0:0x00000000
       43585000	      4357	80001e1c	020000ef	jal	x1,80001e1c	  x1=0x80001e1c
       43595000	      4358	00000000	00000013	addi	x0,x0,0	  x0:0x00000000
       43605000	      4359	80001e38	00000013	addi	x0,x0,0	  x0:0x00000000
       43615000	      4360	80001e3c	0200056f	jal	x10,80001e3c	 x10=0x80001e3c
       43625000	      4361	00000000	00000013	addi	x0,x0,0	  x0:0x00000000
       43635000	      4362	80001e58	00000013	addi	x0,x0,0	  x0:0x00000000
       43645000	      4363	80001e5c	fd5ff36f	jal	x6,80001e5c	  x6=0x80001e5c
       43655000	      4364	00000000	00000013	addi	x0,x0,0	  x0:0x00000000
       43665000	      4365	80001e2c	00000013	addi	x0,x0,0	  x0:0x00000000
       43675000	      4366	80001e30	03400fef	jal	x31,80001e30	 x31=0x80001e30
       43685000	      4367	00000000	00000013	addi	x0,x0,0	  x0:0x00000000
       43695000	      4368	80001e60	00000013	addi	x0,x0,0	  x0:0x00000000
       43705000	      4369	80001e64	fa9ff0ef	jal	x1,80001e64	  x1=0x80001e64
       43715000	      4370	00000000	00000013	addi	x0,x0,0	  x0:0x00000000
       43725000	      4371	80001e08	00000013	addi	x0,x0,0	  x0:0x00000000
       43735000	      4372	80001e0c	0140036f	jal	x6,80001e0c	  x6=0x80001e0c
       43745000	      4373	00000000	00000013	addi	x0,x0,0	  x0:0x00000000
       43755000	      4374	80001e1c	00000013	addi	x0,x0,0	  x0:0x00000000
       43765000	      4375	80001e20	02c0016f	jal	x2,80001e20	  x2=0x80001e20
       43775000	      4376	00000000	00000013	addi	x0,x0,0	  x0:0x00000000
       43785000	      4377	80001e48	00000013	addi	x0,x0,0	  x0:0x00000000
       43795000	      4378	80001e4c	fddff0ef	jal	x1,80001e4c	  x1=0x80001e4c
       43805000	      4379	00000000	00000013	addi	x0,x0,0	  x0:0x00000000
       43815000	      4380	80001e24	00000013	addi	x0,x0,0	  x0:0x00000000
       43825000	      4381	80001e28	fe1ff0ef	jal	x1,80001e28	  x1=0x80001e28
       43835000	      4382	00000000	00000013	addi	x0,x0,0	  x0:0x00000000
       43845000	      4383	80001e04	00000013	addi	x0,x0,0	  x0:0x00000000
       43855000	      4384	80001e08	010001ef	jal	x3,80001e08	  x3=0x80001e08
       43865000	      4385	00000000	00000013	addi	x0,x0,0	  x0:0x00000000
       43875000	      4386	80001e14	00000013	addi	x0,x0,0	  x0:0x00000000
       43885000	      4387	80001e18	01c000ef	jal	x1,80001e18	  x1=0x80001e18
       43895000	      4388	00000000	00000013	addi	x0,x0,0	  x0:0x00000000
       43905000	      4389	80001e30	00000013	addi	x0,x0,0	  x0:0x00000000
       43915000	      4390	80001e34	014000ef	jal	x1,80001e34	  x1=0x80001e34
       43925000	      4391	00000000	00000013	addi	x0,x0,0	  x0:0x00000000
       43935000	      4392	80001e44	00000013	addi	x0,x0,0	  x0:0x00000000
       43945000	      4393	80001e48	008000ef	jal	x1,80001e48	  x1=0x80001e48
       43955000	      4394	00000000	00000013	addi	x0,x0,0	  x0:0x00000000
       43965000	      4395	80001e4c	00000013	addi	x0,x0,0	  x0:0x00000000
       43975000	      4396	80001e50	0080036f	jal	x6,80001e50	  x6=0x80001e50
       43985000	      4397	00000000	00000013	addi	x0,x0,0	  x0:0x00000000
       43995000	      4398	80001e54	00000013	addi	x0,x0,0	  x0:0x00000000
       44005000	      4399	80001e58	fb9ff0ef	jal	x1,80001e58	  x1=0x80001e58
       44015000	      4400	00000000	00000013	addi	x0,x0,0	  x0:0x00000000
       44025000	      4401	80001e0c	00000013	addi	x0,x0,0	  x0:0x00000000
       44035000	      4402	80001e10	058000ef	jal	x1,80001e10	  x1=0x80001e10
       44045000	      4403	00000000	00000013	addi	x0,x0,0	  x0:0x00000000
       44055000	      4404	80001e64	00000013	addi	x0,x0,0	  x0:0x00000000
       44065000	      4405	80001e68	bfcde4b7	lui	x9,0xbfcde	  x9=0xbfcde000
       44075000	      4406	80001e6c	070000ef	jal	x1,80001e6c	  x1=0x80001e6c
       44085000	      4407	00000000	00000013	addi	x0,x0,0	  x0:0x00000000
       44095000	      4408	80001ed8	00000013	addi	x0,x0,0	  x0:0x00000000
       44105000	      4409	80001edc	f99ffcef	jal	x25,80001edc	 x25=0x80001edc
       44115000	      4410	00000000	00000013	addi	x0,x0,0	  x0:0x00000000
       44125000	      4411	80001e70	00000013	addi	x0,x0,0	  x0:0x00000000
       44135000	      4412	80001e74	030000ef	jal	x1,80001e74	  x1=0x80001e74
       44145000	      4413	00000000	00000013	addi	x0,x0,0	  x0:0x00000000
       44155000	      4414	80001ea0	00000013	addi	x0,x0,0	  x0:0x00000000
       44165000	      4415	80001ea4	00c0076f	jal	x14,80001ea4	 x14=0x80001ea4
       44175000	      4416	00000000	00000013	addi	x0,x0,0	  x0:0x00000000
       44185000	      4417	80001eac	00000013	addi	x0,x0,0	  x0:0x00000000
       44195000	      4418	80001eb0	fddff36f	jal	x6,80001eb0	  x6=0x80001eb0
       44205000	      4419	00000000	00000013	addi	x0,x0,0	  x0:0x00000000
       44215000	      4420	80001e88	00000013	addi	x0,x0,0	  x0:0x00000000
       44225000	      4421	80001e8c	ff5ff36f	jal	x6,80001e8c	  x6=0x80001e8c
       44235000	      4422	00000000	00000013	addi	x0,x0,0	  x0:0x00000000
       44245000	      4423	80001e7c	00000013	addi	x0,x0,0	  x0:0x00000000
       44255000	      4424	80001e80	064005ef	jal	x11,80001e80	 x11=0x80001e80
       44265000	      4425	00000000	00000013	addi	x0,x0,0	  x0:0x00000000
       44275000	      4426	80001ee0	00000013	addi	x0,x0,0	  x0:0x00000000
       44285000	      4427	80001ee4	f99ff0ef	jal	x1,80001ee4	  x1=0x80001ee4
       44295000	      4428	00000000	00000013	addi	x0,x0,0	  x0:0x00000000
       44305000	      4429	80001e78	00000013	addi	x0,x0,0	  x0:0x00000000
       44315000	      4430	80001e7c	018001ef	jal	x3,80001e7c	  x3=0x80001e7c
       44325000	      4431	00000000	00000013	addi	x0,x0,0	  x0:0x00000000
       44335000	      4432	80001e90	00000013	addi	x0,x0,0	  x0:0x00000000
       44345000	      4433	80001e94	fddff36f	jal	x6,80001e94	  x6=0x80001e94
       44355000	      4434	00000000	00000013	addi	x0,x0,0	  x0:0x00000000
       44365000	      4435	80001e6c	00000013	addi	x0,x0,0	  x0:0x00000000
       44375000	      4436	80001e70	05c001ef	jal	x3,80001e70	  x3=0x80001e70
       44385000	      4437	00000000	00000013	addi	x0,x0,0	  x0:0x00000000
       44395000	      4438	80001ec8	00000013	addi	x0,x0,0	  x0:0x00000000
       44405000	      4439	80001ecc	00c000ef	jal	x1,80001ecc	  x1=0x80001ecc
       44415000	      4440	00000000	00000013	addi	x0,x0,0	  x0:0x00000000
       44425000	      4441	80001ed4	00000013	addi	x0,x0,0	  x0:0x00000000
       44435000	      4442	80001ed8	fb1ff3ef	jal	x7,80001ed8	  x7=0x80001ed8
       44445000	      4443	00000000	00000013	addi	x0,x0,0	  x0:0x00000000
       44455000	      4444	80001e84	00000013	addi	x0,x0,0	  x0:0x00000000
       44465000	      4445	80001e88	0380036f	jal	x6,80001e88	  x6=0x80001e88
       44475000	      4446	00000000	00000013	addi	x0,x0,0	  x0:0x00000000
       44485000	      4447	80001ebc	00000013	addi	x0,x0,0	  x0:0x00000000
       44495000	      4448	80001ec0	fb9ff36f	jal	x6,80001ec0	  x6=0x80001ec0
       44505000	      4449	00000000	00000013	addi	x0,x0,0	  x0:0x00000000
       44515000	      4450	80001e74	00000013	addi	x0,x0,0	  x0:0x00000000
       44525000	      4451	80001e78	024000ef	jal	x1,80001e78	  x1=0x80001e78
       44535000	      4452	00000000	00000013	addi	x0,x0,0	  x0:0x00000000
       44545000	      4453	80001e98	00000013	addi	x0,x0,0	  x0:0x00000000
       44555000	      4454	80001e9c	004000ef	jal	x1,80001e9c	  x1=0x80001e9c
       44565000	      4455	00000000	00000013	addi	x0,x0,0	  x0:0x00000000
       44575000	      4456	80001e9c	00000013	addi	x0,x0,0	  x0:0x00000000
       44585000	      4457	80001ea0	030000ef	jal	x1,80001ea0	  x1=0x80001ea0
       44595000	      4458	00000000	00000013	addi	x0,x0,0	  x0:0x00000000
       44605000	      4459	80001ecc	00000013	addi	x0,x0,0	  x0:0x00000000
       44615000	      4460	80001ed0	010000ef	jal	x1,80001ed0	  x1=0x80001ed0
       44625000	      4461	00000000	00000013	addi	x0,x0,0	  x0:0x00000000
       44635000	      4462	80001edc	00000013	addi	x0,x0,0	  x0:0x00000000
       44645000	      4463	80001ee0	fc9ff0ef	jal	x1,80001ee0	  x1=0x80001ee0
       44655000	      4464	00000000	00000013	addi	x0,x0,0	  x0:0x00000000
       44665000	      4465	80001ea4	00000013	addi	x0,x0,0	  x0:0x00000000
       44675000	      4466	80001ea8	020000ef	jal	x1,80001ea8	  x1=0x80001ea8
       44685000	      4467	00000000	00000013	addi	x0,x0,0	  x0:0x00000000
       44695000	      4468	80001ec4	00000013	addi	x0,x0,0	  x0:0x00000000
       44705000	      4469	80001ec8	ff1ff0ef	jal	x1,80001ec8	  x1=0x80001ec8
       44715000	      4470	00000000	00000013	addi	x0,x0,0	  x0:0x00000000
       44725000	      4471	80001eb4	00000013	addi	x0,x0,0	  x0:0x00000000
       44735000	      4472	80001eb8	00c000ef	jal	x1,80001eb8	  x1=0x80001eb8
       44745000	      4473	00000000	00000013	addi	x0,x0,0	  x0:0x00000000
       44755000	      4474	80001ec0	00000013	addi	x0,x0,0	  x0:0x00000000
       44765000	      4475	80001ec4	010000ef	jal	x1,80001ec4	  x1=0x80001ec4
       44775000	      4476	00000000	00000013	addi	x0,x0,0	  x0:0x00000000
       44785000	      4477	80001ed0	00000013	addi	x0,x0,0	  x0:0x00000000
       44795000	      4478	80001ed4	fbdff36f	jal	x6,80001ed4	  x6=0x80001ed4
       44805000	      4479	00000000	00000013	addi	x0,x0,0	  x0:0x00000000
       44815000	      4480	80001e8c	00000013	addi	x0,x0,0	  x0:0x00000000
       44825000	      4481	80001e90	02c000ef	jal	x1,80001e90	  x1=0x80001e90
       44835000	      4482	00000000	00000013	addi	x0,x0,0	  x0:0x00000000
       44845000	      4483	80001eb8	00000013	addi	x0,x0,0	  x0:0x00000000
       44855000	      4484	80001ebc	fc9ff0ef	jal	x1,80001ebc	  x1=0x80001ebc
       44865000	      4485	00000000	00000013	addi	x0,x0,0	  x0:0x00000000
       44875000	      4486	80001e80	00000013	addi	x0,x0,0	  x0:0x00000000
       44885000	      4487	80001e84	028000ef	jal	x1,80001e84	  x1=0x80001e84
       44895000	      4488	00000000	00000013	addi	x0,x0,0	  x0:0x00000000
       44905000	      4489	80001ea8	00000013	addi	x0,x0,0	  x0:0x00000000
       44915000	      4490	80001eac	0080036f	jal	x6,80001eac	  x6=0x80001eac
       44925000	      4491	00000000	00000013	addi	x0,x0,0	  x0:0x00000000
       44935000	      4492	80001eb0	00000013	addi	x0,x0,0	  x0:0x00000000
       44945000	      4493	80001eb4	fe5ff0ef	jal	x1,80001eb4	  x1=0x80001eb4
       44955000	      4494	00000000	00000013	addi	x0,x0,0	  x0:0x00000000
       44965000	      4495	80001e94	00000013	addi	x0,x0,0	  x0:0x00000000
       44975000	      4496	80001e98	050000ef	jal	x1,80001e98	  x1=0x80001e98
       44985000	      4497	00000000	00000013	addi	x0,x0,0	  x0:0x00000000
       44995000	      4498	80001ee4	00000013	addi	x0,x0,0	  x0:0x00000000
       45005000	      4499	80001ee8	013dc1b3	xor	x3,x27,x19	 x27:0x80001d40 x19:0x80009fc4  x3=0x00008284
       45015000	      4500	80001eec	030000ef	jal	x1,80001eec	  x1=0x80001eec
       45025000	      4501	00000000	00000013	addi	x0,x0,0	  x0:0x00000000
       45035000	      4502	80001f18	00000013	addi	x0,x0,0	  x0:0x00000000
       45045000	      4503	80001f1c	028000ef	jal	x1,80001f1c	  x1=0x80001f1c
       45055000	      4504	00000000	00000013	addi	x0,x0,0	  x0:0x00000000
       45065000	      4505	80001f40	00000013	addi	x0,x0,0	  x0:0x00000000
       45075000	      4506	80001f44	fc5ff0ef	jal	x1,80001f44	  x1=0x80001f44
       45085000	      4507	00000000	00000013	addi	x0,x0,0	  x0:0x00000000
       45095000	      4508	80001f04	00000013	addi	x0,x0,0	  x0:0x00000000
       45105000	      4509	80001f08	028000ef	jal	x1,80001f08	  x1=0x80001f08
       45115000	      4510	00000000	00000013	addi	x0,x0,0	  x0:0x00000000
       45125000	      4511	80001f2c	00000013	addi	x0,x0,0	  x0:0x00000000
       45135000	      4512	80001f30	004007ef	jal	x15,80001f30	 x15=0x80001f30
       45145000	      4513	00000000	00000013	addi	x0,x0,0	  x0:0x00000000
       45155000	      4514	80001f30	00000013	addi	x0,x0,0	  x0:0x00000000
       45165000	      4515	80001f34	fbdff86f	jal	x16,80001f34	 x16=0x80001f34
       45175000	      4516	00000000	00000013	addi	x0,x0,0	  x0:0x00000000
       45185000	      4517	80001eec	00000013	addi	x0,x0,0	  x0:0x00000000
       45195000	      4518	80001ef0	04c00fef	jal	x31,80001ef0	 x31=0x80001ef0
       45205000	      4519	00000000	00000013	addi	x0,x0,0	  x0:0x00000000
       45215000	      4520	80001f38	00000013	addi	x0,x0,0	  x0:0x00000000
       45225000	      4521	80001f3c	fe5ff0ef	jal	x1,80001f3c	  x1=0x80001f3c
       45235000	      4522	00000000	00000013	addi	x0,x0,0	  x0:0x00000000
       45245000	      4523	80001f1c	00000013	addi	x0,x0,0	  x0:0x00000000
       45255000	      4524	80001f20	fe1ff0ef	jal	x1,80001f20	  x1=0x80001f20
       45265000	      4525	00000000	00000013	addi	x0,x0,0	  x0:0x00000000
       45275000	      4526	80001efc	00000013	addi	x0,x0,0	  x0:0x00000000
       45285000	      4527	80001f00	014000ef	jal	x1,80001f00	  x1=0x80001f00
       45295000	      4528	00000000	00000013	addi	x0,x0,0	  x0:0x00000000
       45305000	      4529	80001f10	00000013	addi	x0,x0,0	  x0:0x00000000
       45315000	      4530	80001f14	0180036f	jal	x6,80001f14	  x6=0x80001f14
       45325000	      4531	00000000	00000013	addi	x0,x0,0	  x0:0x00000000
       45335000	      4532	80001f28	00000013	addi	x0,x0,0	  x0:0x00000000
       45345000	      4533	80001f2c	fcdff0ef	jal	x1,80001f2c	  x1=0x80001f2c
       45355000	      4534	00000000	00000013	addi	x0,x0,0	  x0:0x00000000
       45365000	      4535	80001ef4	00000013	addi	x0,x0,0	  x0:0x00000000
       45375000	      4536	80001ef8	0140036f	jal	x6,80001ef8	  x6=0x80001ef8
       45385000	      4537	00000000	00000013	addi	x0,x0,0	  x0:0x00000000
       45395000	      4538	80001f08	00000013	addi	x0,x0,0	  x0:0x00000000
       45405000	      4539	80001f0c	00c000ef	jal	x1,80001f0c	  x1=0x80001f0c
       45415000	      4540	00000000	00000013	addi	x0,x0,0	  x0:0x00000000
       45425000	      4541	80001f14	00000013	addi	x0,x0,0	  x0:0x00000000
       45435000	      4542	80001f18	fe5ff96f	jal	x18,80001f18	 x18=0x80001f18
       45445000	      4543	00000000	00000013	addi	x0,x0,0	  x0:0x00000000
       45455000	      4544	80001ef8	00000013	addi	x0,x0,0	  x0:0x00000000
       45465000	      4545	80001efc	02c0026f	jal	x4,80001efc	  x4=0x80001efc
       45475000	      4546	00000000	00000013	addi	x0,x0,0	  x0:0x00000000
       45485000	      4547	80001f24	00000013	addi	x0,x0,0	  x0:0x00000000
       45495000	      4548	80001f28	fddff56f	jal	x10,80001f28	 x10=0x80001f28
       45505000	      4549	00000000	00000013	addi	x0,x0,0	  x0:0x00000000
       45515000	      4550	80001f00	00000013	addi	x0,x0,0	  x0:0x00000000
       45525000	      4551	80001f04	0340036f	jal	x6,80001f04	  x6=0x80001f04
       45535000	      4552	00000000	00000013	addi	x0,x0,0	  x0:0x00000000
       45545000	      4553	80001f34	00000013	addi	x0,x0,0	  x0:0x00000000
       45555000	      4554	80001f38	008000ef	jal	x1,80001f38	  x1=0x80001f38
       45565000	      4555	00000000	00000013	addi	x0,x0,0	  x0:0x00000000
       45575000	      4556	80001f3c	00000013	addi	x0,x0,0	  x0:0x00000000
       45585000	      4557	80001f40	fe5ff86f	jal	x16,80001f40	 x16=0x80001f40
       45595000	      4558	00000000	00000013	addi	x0,x0,0	  x0:0x00000000
       45605000	      4559	80001f20	00000013	addi	x0,x0,0	  x0:0x00000000
       45615000	      4560	80001f24	fd1ff0ef	jal	x1,80001f24	  x1=0x80001f24
       45625000	      4561	00000000	00000013	addi	x0,x0,0	  x0:0x00000000
       45635000	      4562	80001ef0	00000013	addi	x0,x0,0	  x0:0x00000000
       45645000	      4563	80001ef4	01c00aef	jal	x21,80001ef4	 x21=0x80001ef4
       45655000	      4564	00000000	00000013	addi	x0,x0,0	  x0:0x00000000
       45665000	      4565	80001f0c	00000013	addi	x0,x0,0	  x0:0x00000000
       45675000	      4566	80001f10	038000ef	jal	x1,80001f10	  x1=0x80001f10
       45685000	      4567	00000000	00000013	addi	x0,x0,0	  x0:0x00000000
       45695000	      4568	80001f44	00000013	addi	x0,x0,0	  x0:0x00000000
       45705000	      4569	80001f48	019143b3	xor	x7,x2,x25	  x2:0x80001e20 x25:0x80001edc  x7=0x000000fc
       45715000	      4570	80001f4c	00000013	addi	x0,x0,0	  x0:0x00000000
       45725000	      4571	80001f50	53e64393	xori	x7,x12,1342	 x12:0xfffff8a3  x7=0xfffffd9d
       45735000	      4572	80001f54	0366d063	bge	x13,x22,80001f74	 x13:0x00000000 x22:0x80009f44
       45745000	      4573	00000000	00000013	addi	x0,x0,0	  x0:0x00000000
       45755000	      4574	80001f70	00000013	addi	x0,x0,0	  x0:0x00000000
       45765000	      4575	80001f74	1da84f17	auipc	x30,0x1da84	 x30=0x9da85f70
       45775000	      4576	80001f78	d9e9c593	xori	x11,x19,-610	 x19:0x80009fc4 x11=0x7fff625a
       45785000	      4577	80001f7c	685a4693	xori	x13,x20,1669	 x20:0x80001df8 x13=0x80001b7d
       45795000	      4578	80001f80	015b0a33	add	x20,x22,x21	 x22:0x80009f44 x21:0x80001ef4 x20=0x0000be38
       45805000	      4579	80001f84	402353b3	sra	x7,x6,x2	  x6:0x80001f04  x2:0x80001e20  x7=0x80001f04
       45815000	      4580	80001f88	01979ab3	sll	x21,x15,x25	 x15:0x80001f30 x25:0x80001edc x21=0x00000000
       45825000	      4581	80001f8c	003d1093	slli	x1,x26,0x3	 x26:0xfb7092cc  x1=0xdb849660
       45835000	      4582	80001f90	05bb8863	beq	x23,x27,80001fe0	 x23:0x80001d9c x27:0x80001d40
       45845000	      4583	80001f94	00261c63	bne	x12,x2,80001fac	 x12:0xfffff8a3  x2:0x80001e20
       45855000	      4584	00000000	00000013	addi	x0,x0,0	  x0:0x00000000
       45865000	      4585	80001fa8	00000013	addi	x0,x0,0	  x0:0x00000000
       45875000	      4586	80001fac	01e4d613	srli	x12,x9,0x1e	  x9:0xbfcde000 x12=0x00000002
       45885000	      4587	80001fb0	00e823b3	slt	x7,x16,x14	 x16:0x80001f40 x14:0x80001ea4  x7=0x00000000
       45895000	      4588	80001fb4	94fdce13	xori	x28,x27,-1713	 x27:0x80001d40 x28=0x7fffe40f
       45905000	      4589	80001fb8	01bbdfb3	srl	x31,x23,x27	 x23:0x80001d9c x27:0x80001d40 x31=0x80001d9c
       45915000	      4590	80001fbc	8b616bb7	lui	x23,0x8b616	 x23=0x8b616000
       45925000	      4591	80001fc0	016e35b3	sltu	x11,x28,x22	 x28:0x7fffe40f x22:0x80009f44 x11=0x00000001
       45935000	      4592	80001fc4	014f9863	bne	x31,x20,80001fd4	 x31:0x80001d9c x20:0x0000be38
       45945000	      4593	00000000	00000013	addi	x0,x0,0	  x0:0x00000000
       45955000	      4594	80001fd0	00000013	addi	x0,x0,0	  x0:0x00000000
       45965000	      4595	80001fd4	00dd10b3	sll	x1,x26,x13	 x26:0xfb7092cc x13:0x80001b7d  x1=0x80000000
       45975000	      4596	80001fd8	01981213	slli	x4,x16,0x19	 x16:0x80001f40  x4=0x80000000
       45985000	      4597	80001fdc	023de063	bltu	x27,x3,80001ffc	 x27:0x80001d40  x3:0x00008284
       45995000	      4598	80001fe0	97cb2493	slti	x9,x22,-1668	 x22:0x80009f44  x9=0x00000001
       46005000	      4599	80001fe4	dad8f813	andi	x16,x17,-595	 x17:0x80001de8 x16=0x80001da8
       46015000	      4600	80001fe8	02d59263	bne	x11,x13,8000200c	 x11:0x00000001 x13:0x80001b7d
       46025000	      4601	00000000	00000013	addi	x0,x0,0	  x0:0x00000000
       46035000	      4602	80002008	00000013	addi	x0,x0,0	  x0:0x00000000
       46045000	      4603	8000200c	00000013	addi	x0,x0,0	  x0:0x00000000
       46055000	      4604	80002010	f7bc8013	addi	x0,x25,-133	 x25:0x80001edc
       46065000	      4605	80002014	6b6b7cb7	lui	x25,0x6b6b7	 x25=0x6b6b7000
       46075000	      4606	80002018	35a1a193	slti	x3,x3,858	  x3:0x00008284  x3=0x00000000
       46085000	      4607	8000201c	9faff193	andi	x3,x31,-1542	 x31:0x80001d9c  x3=0x80001998
       46095000	      4608	80002020	00baf933	and	x18,x21,x11	 x21:0x00000000 x11:0x00000001 x18=0x00000000
       46105000	      4609	80002024	01d3d663	bge	x7,x29,80002030	  x7:0x00000000 x29:0x80001da8
       46115000	      4610	00000000	00000013	addi	x0,x0,0	  x0:0x00000000
       46125000	      4611	8000202c	00000013	addi	x0,x0,0	  x0:0x00000000
       46135000	      4612	80002030	41700333	sub	x6,x0,x23	  x0:0x00000000 x23:0x8b616000  x6=0x749ea000
       46145000	      4613	80002034	00746433	or	x8,x8,x7	  x8:0x7fffe5de  x7:0x00000000  x8=0x7fffe5de
       46155000	      4614	80002038	00629393	slli	x7,x5,0x6	  x5:0x80001e54  x7=0x00079500
       46165000	      4615	8000203c	8c236713	ori	x14,x6,-1854	  x6:0x749ea000 x14=0xfffff8c2
       46175000	      4616	80002040	033a1063	bne	x20,x19,80002060	 x20:0x0000be38 x19:0x80009fc4
       46185000	      4617	00000000	00000013	addi	x0,x0,0	  x0:0x00000000
       46195000	      4618	8000205c	00000013	addi	x0,x0,0	  x0:0x00000000
       46205000	      4619	80002060	96cc8613	addi	x12,x25,-1684	 x25:0x6b6b7000 x12=0x6b6b696c
       46215000	      4620	80002064	9e2fc193	xori	x3,x31,-1566	 x31:0x80001d9c  x3=0x7fffe47e
       46225000	      4621	80002068	41e8d813	srai	x16,x17,0x1e	 x17:0x80001de8 x16=0xfffffffe
       46235000	      4622	8000206c	13c4e693	ori	x13,x9,316	  x9:0x00000001 x13=0x0000013d
       46245000	      4623	80002070	c40ffd93	andi	x27,x31,-960	 x31:0x80001d9c x27=0x80001c00
       46255000	      4624	80002074	006c2433	slt	x8,x24,x6	 x24:0x80001d14  x6:0x749ea000  x8=0x00000001
       46265000	      4625	80002078	025ada63	bge	x21,x5,800020ac	 x21:0x00000000  x5:0x80001e54
       46275000	      4626	00000000	00000013	addi	x0,x0,0	  x0:0x00000000
       46285000	      4627	800020a8	00000013	addi	x0,x0,0	  x0:0x00000000
       46295000	      4628	800020ac	c8c9e513	ori	x10,x19,-884	 x19:0x80009fc4 x10=0xffffffcc
       46305000	      4629	800020b0	41db5913	srai	x18,x22,0x1d	 x22:0x80009f44 x18=0xfffffffc
       46315000	      4630	800020b4	41905113	srai	x2,x0,0x19	  x0:0x00000000  x2=0x00000000
       46325000	      4631	800020b8	00539593	slli	x11,x7,0x5	  x7:0x00079500 x11=0x00f2a000
       46335000	      4632	800020bc	00ea1713	slli	x14,x20,0xe	 x20:0x0000be38 x14=0x2f8e0000
       46345000	      4633	800020c0	4165dc33	sra	x24,x11,x22	 x11:0x00f2a000 x22:0x80009f44 x24=0x000f2a00
       46355000	      4634	800020c4	0116b1b3	sltu	x3,x13,x17	 x13:0x0000013d x17:0x80001de8  x3=0x00000001
       46365000	      4635	800020c8	01ce7663	bgeu	x28,x28,800020d4	 x28:0x7fffe40f x28:0x7fffe40f
       46375000	      4636	00000000	00000013	addi	x0,x0,0	  x0:0x00000000
       46385000	      4637	800020d0	00000013	addi	x0,x0,0	  x0:0x00000000
       46395000	      4638	800020d4	03706263	bltu	x0,x23,800020f8	  x0:0x00000000 x23:0x8b616000
       46405000	      4639	00000000	00000013	addi	x0,x0,0	  x0:0x00000000
       46415000	      4640	800020f4	00000013	addi	x0,x0,0	  x0:0x00000000
       46425000	      4641	800020f8	41325cb3	sra	x25,x4,x19	  x4:0x80000000 x19:0x80009fc4 x25=0xf8000000
       46435000	      4642	800020fc	00364bb3	xor	x23,x12,x3	 x12:0x6b6b696c  x3:0x00000001 x23=0x6b6b696d
       46445000	      4643	80002100	005e9e33	sll	x28,x29,x5	 x29:0x80001da8  x5:0x80001e54 x28=0xda800000
       46455000	      4644	80002104	02d99463	bne	x19,x13,8000212c	 x19:0x80009fc4 x13:0x0000013d
       46465000	      4645	00000000	00000013	addi	x0,x0,0	  x0:0x00000000
       46475000	      4646	80002128	00000013	addi	x0,x0,0	  x0:0x00000000
       46485000	      4647	8000212c	41ba0533	sub	x10,x20,x27	 x20:0x0000be38 x27:0x80001c00 x10=0x8000a238
       46495000	      4648	80002130	497be713	ori	x14,x23,1175	 x23:0x6b6b696d x14=0x6b6b6dff
       46505000	      4649	80002134	40915613	srai	x12,x2,0x9	  x2:0x00000000 x12=0x00000000
       46515000	      4650	80002138	012a5733	srl	x14,x20,x18	 x20:0x0000be38 x18:0xfffffffc x14=0x00000000
       46525000	      4651	8000213c	40ba0eb3	sub	x29,x20,x11	 x20:0x0000be38 x11:0x00f2a000 x29=0xff0e1e38
       46535000	      4652	80002140	2447a193	slti	x3,x15,580	 x15:0x80001f30  x3=0x00000001
       46545000	      4653	80002144	a1c4a713	slti	x14,x9,-1508	  x9:0x00000001 x14=0x00000000
       46555000	      4654	80002148	ca45f493	andi	x9,x11,-860	 x11:0x00f2a000  x9=0x00f2a000
       46565000	      4655	8000214c	016ed663	bge	x29,x22,80002158	 x29:0xff0e1e38 x22:0x80009f44
       46575000	      4656	00000000	00000013	addi	x0,x0,0	  x0:0x00000000
       46585000	      4657	80002154	00000013	addi	x0,x0,0	  x0:0x00000000
       46595000	      4658	80002158	40000733	sub	x14,x0,x0	  x0:0x00000000  x0:0x00000000 x14=0x00000000
       46605000	      4659	8000215c	00f784b3	add	x9,x15,x15	 x15:0x80001f30 x15:0x80001f30  x9=0x00003e60
       46615000	      4660	80002160	019b60b3	or	x1,x22,x25	 x22:0x80009f44 x25:0xf8000000  x1=0xf8009f44
       46625000	      4661	80002164	0319c063	blt	x19,x17,80002184	 x19:0x80009fc4 x17:0x80001de8
       46635000	      4662	80002168	00a2ce63	blt	x5,x10,80002184	  x5:0x80001e54 x10:0x8000a238
       46645000	      4663	00000000	00000013	addi	x0,x0,0	  x0:0x00000000
       46655000	      4664	80002180	00000013	addi	x0,x0,0	  x0:0x00000000
       46665000	      4665	80002184	dd370113	addi	x2,x14,-557	 x14:0x00000000  x2=0xfffffdd3
       46675000	      4666	80002188	1593f513	andi	x10,x7,345	  x7:0x00079500 x10=0x00000100
       46685000	      4667	8000218c	82eaf493	andi	x9,x21,-2002	 x21:0x00000000  x9=0x00000000
       46695000	      4668	80002190	6a3c2393	slti	x7,x24,1699	 x24:0x000f2a00  x7=0x00000000
       46705000	      4669	80002194	008f1e33	sll	x28,x30,x8	 x30:0x9da85f70  x8:0x00000001 x28=0x3b50bee0
       46715000	      4670	80002198	bfb3f293	andi	x5,x7,-1029	  x7:0x00000000  x5=0x00000000
       46725000	      4671	8000219c	229cec93	ori	x25,x25,553	 x25:0xf8000000 x25=0xf8000229
       46735000	      4672	800021a0	01407263	bgeu	x0,x20,800021a4	  x0:0x00000000 x20:0x0000be38
       46745000	      4673	800021a4	032db893	sltiu	x17,x27,50	 x27:0x80001c00 x17=0x00000000
       46755000	      4674	800021a8	02db0863	beq	x22,x13,800021d8	 x22:0x80009f44 x13:0x0000013d
       46765000	      4675	800021ac	00741d93	slli	x27,x8,0x7	  x8:0x00000001 x27=0x00000080
       46775000	      4676	800021b0	00653333	sltu	x6,x10,x6	 x10:0x00000100  x6:0x749ea000  x6=0x00000001
       46785000	      4677	800021b4	65383013	sltiu	x0,x16,1619	 x16:0xfffffffe
       46795000	      4678	800021b8	008b6733	or	x14,x22,x8	 x22:0x80009f44  x8:0x00000001 x14=0x80009f45
       46805000	      4679	800021bc	02600463	beq	x0,x6,800021e4	  x0:0x00000000  x6:0x00000001
       46815000	      4680	800021c0	007958b3	srl	x17,x18,x7	 x18:0xfffffffc  x7:0x00000000 x17=0xfffffffc
       46825000	      4681	800021c4	0131ddb3	srl	x27,x3,x19	  x3:0x00000001 x19:0x80009fc4 x27=0x00000000
       46835000	      4682	800021c8	ae37b393	sltiu	x7,x15,-1309	 x15:0x80001f30  x7=0x00000001
       46845000	      4683	800021cc	41a55393	srai	x7,x10,0x1a	 x10:0x00000100  x7=0x00000000
       46855000	      4684	800021d0	03048463	beq	x9,x16,800021f8	  x9:0x00000000 x16:0xfffffffe
       46865000	      4685	800021d4	bfe6e213	ori	x4,x13,-1026	 x13:0x0000013d  x4=0xfffffbff
       46875000	      4686	800021d8	f3b46293	ori	x5,x8,-197	  x8:0x00000001  x5=0xffffff3b
       46885000	      4687	800021dc	d0d5e817	auipc	x16,0xd0d5e	 x16=0x50d601d8
       46895000	      4688	800021e0	0bd7eb93	ori	x23,x15,189	 x15:0x80001f30 x23=0x80001fbd
       46905000	      4689	800021e4	01508eb3	add	x29,x1,x21	  x1:0xf8009f44 x21:0x00000000 x29=0xf8009f44
       46915000	      4690	800021e8	00f4ccb3	xor	x25,x9,x15	  x9:0x00000000 x15:0x80001f30 x25=0x80001f30
       46925000	      4691	800021ec	064f0537	lui	x10,0x64f0	 x10=0x064f0000
       46935000	      4692	800021f0	03578063	beq	x15,x21,80002210	 x15:0x80001f30 x21:0x00000000
       46945000	      4693	800021f4	4153df13	srai	x30,x7,0x15	  x7:0x00000000 x30=0x00000000
       46955000	      4694	800021f8	01d55913	srli	x18,x10,0x1d	 x10:0x064f0000 x18=0x00000000
       46965000	      4695	800021fc	0127eeb3	or	x29,x15,x18	 x15:0x80001f30 x18:0x00000000 x29=0x80001f30
       46975000	      4696	80002200	00f64263	blt	x12,x15,80002204	 x12:0x00000000 x15:0x80001f30
       46985000	      4697	80002204	401857b3	sra	x15,x16,x1	 x16:0x50d601d8  x1:0xf8009f44 x15=0x050d601d
       46995000	      4698	80002208	81173693	sltiu	x13,x14,-2031	 x14:0x80009f45 x13=0x00000001
       47005000	      4699	8000220c	00315c13	srli	x24,x2,0x3	  x2:0xfffffdd3 x24=0x1fffffba
       47015000	      4700	80002210	01eac933	xor	x18,x21,x30	 x21:0x00000000 x30:0x00000000 x18=0x00000000
       47025000	      4701	80002214	004fedb3	or	x27,x31,x4	 x31:0x80001d9c  x4:0xfffffbff x27=0xffffffff
       47035000	      4702	80002218	04696863	bltu	x18,x6,80002268	 x18:0x00000000  x6:0x00000001
       47045000	      4703	00000000	00000013	addi	x0,x0,0	  x0:0x00000000
       47055000	      4704	80002264	00000013	addi	x0,x0,0	  x0:0x00000000
       47065000	      4705	80002268	7ea72093	slti	x1,x14,2026	 x14:0x80009f45  x1=0x00000001
       47075000	      4706	8000226c	089f1c63	bne	x30,x9,80002304	 x30:0x00000000  x9:0x00000000
       47085000	      4707	80002270	3534b193	sltiu	x3,x9,851	  x9:0x00000000  x3=0x00000001
       47095000	      4708	80002274	01bcbeb3	sltu	x29,x25,x27	 x25:0x80001f30 x27:0xffffffff x29=0x00000001
       47105000	      4709	80002278	010000ef	jal	x1,80002278	  x1=0x80002278
       47115000	      4710	00000000	00000013	addi	x0,x0,0	  x0:0x00000000
       47125000	      4711	80002284	00000013	addi	x0,x0,0	  x0:0x00000000
       47135000	      4712	80002288	058001ef	jal	x3,80002288	  x3=0x80002288
       47145000	      4713	00000000	00000013	addi	x0,x0,0	  x0:0x00000000
       47155000	      4714	800022dc	00000013	addi	x0,x0,0	  x0:0x00000000
       47165000	      4715	800022e0	fb1ff36f	jal	x6,800022e0	  x6=0x800022e0
       47175000	      4716	00000000	00000013	addi	x0,x0,0	  x0:0x00000000
       47185000	      4717	8000228c	00000013	addi	x0,x0,0	  x0:0x00000000
       47195000	      4718	80002290	058003ef	jal	x7,80002290	  x7=0x80002290
       47205000	      4719	00000000	00000013	addi	x0,x0,0	  x0:0x00000000
       47215000	      4720	800022e4	00000013	addi	x0,x0,0	  x0:0x00000000
       47225000	      4721	800022e8	f95ff0ef	jal	x1,800022e8	  x1=0x800022e8
       47235000	      4722	00000000	00000013	addi	x0,x0,0	  x0:0x00000000
       47245000	      4723	80002278	00000013	addi	x0,x0,0	  x0:0x00000000
       47255000	      4724	8000227c	0500036f	jal	x6,8000227c	  x6=0x8000227c
       47265000	      4725	00000000	00000013	addi	x0,x0,0	  x0:0x00000000
       47275000	      4726	800022c8	00000013	addi	x0,x0,0	  x0:0x00000000
       47285000	      4727	800022cc	00c001ef	jal	x3,800022cc	  x3=0x800022cc
       47295000	      4728	00000000	00000013	addi	x0,x0,0	  x0:0x00000000
       47305000	      4729	800022d4	00000013	addi	x0,x0,0	  x0:0x00000000
       47315000	      4730	800022d8	fddfff6f	jal	x30,800022d8	 x30=0x800022d8
       47325000	      4731	00000000	00000013	addi	x0,x0,0	  x0:0x00000000
       47335000	      4732	800022b0	00000013	addi	x0,x0,0	  x0:0x00000000
       47345000	      4733	800022b4	fe9ff0ef	jal	x1,800022b4	  x1=0x800022b4
       47355000	      4734	00000000	00000013	addi	x0,x0,0	  x0:0x00000000
       47365000	      4735	80002298	00000013	addi	x0,x0,0	  x0:0x00000000
       47375000	      4736	8000229c	ff1ff36f	jal	x6,8000229c	  x6=0x8000229c
       47385000	      4737	00000000	00000013	addi	x0,x0,0	  x0:0x00000000
       47395000	      4738	80002288	00000013	addi	x0,x0,0	  x0:0x00000000
       47405000	      4739	8000228c	050000ef	jal	x1,8000228c	  x1=0x8000228c
       47415000	      4740	00000000	00000013	addi	x0,x0,0	  x0:0x00000000
       47425000	      4741	800022d8	00000013	addi	x0,x0,0	  x0:0x00000000
       47435000	      4742	800022dc	fc5ff36f	jal	x6,800022dc	  x6=0x800022dc
       47445000	      4743	00000000	00000013	addi	x0,x0,0	  x0:0x00000000
       47455000	      4744	8000229c	00000013	addi	x0,x0,0	  x0:0x00000000
       47465000	      4745	800022a0	010002ef	jal	x5,800022a0	  x5=0x800022a0
       47475000	      4746	00000000	00000013	addi	x0,x0,0	  x0:0x00000000
       47485000	      4747	800022ac	00000013	addi	x0,x0,0	  x0:0x00000000
       47495000	      4748	800022b0	ff5ff0ef	jal	x1,800022b0	  x1=0x800022b0
       47505000	      4749	00000000	00000013	addi	x0,x0,0	  x0:0x00000000
       47515000	      4750	800022a0	00000013	addi	x0,x0,0	  x0:0x00000000
       47525000	      4751	800022a4	0140076f	jal	x14,800022a4	 x14=0x800022a4
       47535000	      4752	00000000	00000013	addi	x0,x0,0	  x0:0x00000000
       47545000	      4753	800022b4	00000013	addi	x0,x0,0	  x0:0x00000000
       47555000	      4754	800022b8	018000ef	jal	x1,800022b8	  x1=0x800022b8
       47565000	      4755	00000000	00000013	addi	x0,x0,0	  x0:0x00000000
       47575000	      4756	800022cc	00000013	addi	x0,x0,0	  x0:0x00000000
       47585000	      4757	800022d0	fb1ffcef	jal	x25,800022d0	 x25=0x800022d0
       47595000	      4758	00000000	00000013	addi	x0,x0,0	  x0:0x00000000
       47605000	      4759	8000227c	00000013	addi	x0,x0,0	  x0:0x00000000
       47615000	      4760	80002280	014000ef	jal	x1,80002280	  x1=0x80002280
       47625000	      4761	00000000	00000013	addi	x0,x0,0	  x0:0x00000000
       47635000	      4762	80002290	00000013	addi	x0,x0,0	  x0:0x00000000
       47645000	      4763	80002294	0300036f	jal	x6,80002294	  x6=0x80002294
       47655000	      4764	00000000	00000013	addi	x0,x0,0	  x0:0x00000000
       47665000	      4765	800022c0	00000013	addi	x0,x0,0	  x0:0x00000000
       47675000	      4766	800022c4	fe9ff36f	jal	x6,800022c4	  x6=0x800022c4
       47685000	      4767	00000000	00000013	addi	x0,x0,0	  x0:0x00000000
       47695000	      4768	800022a8	00000013	addi	x0,x0,0	  x0:0x00000000
       47705000	      4769	800022ac	0100026f	jal	x4,800022ac	  x4=0x800022ac
       47715000	      4770	00000000	00000013	addi	x0,x0,0	  x0:0x00000000
       47725000	      4771	800022b8	00000013	addi	x0,x0,0	  x0:0x00000000
       47735000	      4772	800022bc	fedff36f	jal	x6,800022bc	  x6=0x800022bc
       47745000	      4773	00000000	00000013	addi	x0,x0,0	  x0:0x00000000
       47755000	      4774	800022a4	00000013	addi	x0,x0,0	  x0:0x00000000
       47765000	      4775	800022a8	ff1ff26f	jal	x4,800022a8	  x4=0x800022a8
       47775000	      4776	00000000	00000013	addi	x0,x0,0	  x0:0x00000000
       47785000	      4777	80002294	00000013	addi	x0,x0,0	  x0:0x00000000
       47795000	      4778	80002298	0280036f	jal	x6,80002298	  x6=0x80002298
       47805000	      4779	00000000	00000013	addi	x0,x0,0	  x0:0x00000000
       47815000	      4780	800022bc	00000013	addi	x0,x0,0	  x0:0x00000000
       47825000	      4781	800022c0	0140016f	jal	x2,800022c0	  x2=0x800022c0
       47835000	      4782	00000000	00000013	addi	x0,x0,0	  x0:0x00000000
       47845000	      4783	800022d0	00000013	addi	x0,x0,0	  x0:0x00000000
       47855000	      4784	800022d4	fb1ff0ef	jal	x1,800022d4	  x1=0x800022d4
       47865000	      4785	00000000	00000013	addi	x0,x0,0	  x0:0x00000000
       47875000	      4786	80002280	00000013	addi	x0,x0,0	  x0:0x00000000
       47885000	      4787	80002284	060001ef	jal	x3,80002284	  x3=0x80002284
       47895000	      4788	00000000	00000013	addi	x0,x0,0	  x0:0x00000000
       47905000	      4789	800022e0	00000013	addi	x0,x0,0	  x0:0x00000000
       47915000	      4790	800022e4	fe5ff2ef	jal	x5,800022e4	  x5=0x800022e4
       47925000	      4791	00000000	00000013	addi	x0,x0,0	  x0:0x00000000
       47935000	      4792	800022c4	00000013	addi	x0,x0,0	  x0:0x00000000
       47945000	      4793	800022c8	0240036f	jal	x6,800022c8	  x6=0x800022c8
       47955000	      4794	00000000	00000013	addi	x0,x0,0	  x0:0x00000000
       47965000	      4795	800022e8	00000013	addi	x0,x0,0	  x0:0x00000000
       47975000	      4796	800022ec	00b41db3	sll	x27,x8,x11	  x8:0x00000001 x11:0x00f2a000 x27=0x00000001
       47985000	      4797	800022f0	c09b3593	sltiu	x11,x22,-1015	 x22:0x80009f44 x11=0x00000001
       47995000	      4798	800022f4	41ac83b3	sub	x7,x25,x26	 x25:0x800022d0 x26:0xfb7092cc  x7=0x848f9004
       48005000	      4799	800022f8	02f50263	beq	x10,x15,8000231c	 x10:0x064f0000 x15:0x050d601d
       48015000	      4800	800022fc	144aa113	slti	x2,x21,324	 x21:0x00000000  x2=0x00000001
       48025000	      4801	80002300	b787c513	xori	x10,x15,-1160	 x15:0x050d601d x10=0xfaf29b65
       48035000	      4802	80002304	8fd47693	andi	x13,x8,-1795	  x8:0x00000001 x13=0x00000001
       48045000	      4803	80002308	00bd8333	add	x6,x27,x11	 x27:0x00000001 x11:0x00000001  x6=0x00000002
       48055000	      4804	8000230c	000c4c63	blt	x24,x0,80002324	 x24:0x1fffffba  x0:0x00000000
       48065000	      4805	80002310	02889263	bne	x17,x8,80002334	 x17:0xfffffffc  x8:0x00000001
       48075000	      4806	00000000	00000013	addi	x0,x0,0	  x0:0x00000000
       48085000	      4807	80002330	00000013	addi	x0,x0,0	  x0:0x00000000
       48095000	      4808	80002334	0169b433	sltu	x8,x19,x22	 x19:0x80009fc4 x22:0x80009f44  x8=0x00000000
       48105000	      4809	80002338	41cd02b3	sub	x5,x26,x28	 x26:0xfb7092cc x28:0x3b50bee0  x5=0xc01fd3ec
       48115000	      4810	8000233c	406e0733	sub	x14,x28,x6	 x28:0x3b50bee0  x6:0x00000002 x14=0x3b50bede
       48125000	      4811	80002340	00a00ab3	add	x21,x0,x10	  x0:0x00000000 x10:0xfaf29b65 x21=0xfaf29b65
       48135000	      4812	80002344	405f5d93	srai	x27,x30,0x5	 x30:0x800022d8 x27=0xfc000116
       48145000	      4813	80002348	dce6e893	ori	x17,x13,-562	 x13:0x00000001 x17=0xfffffdcf
       48155000	      4814	8000234c	00366c63	bltu	x12,x3,80002364	 x12:0x00000000  x3:0x80002284
       48165000	      4815	00000000	00000013	addi	x0,x0,0	  x0:0x00000000
       48175000	      4816	80002360	00000013	addi	x0,x0,0	  x0:0x00000000
       48185000	      4817	80002364	06c82793	slti	x15,x16,108	 x16:0x50d601d8 x15=0x00000000
       48195000	      4818	80002368	02194463	blt	x18,x1,80002390	 x18:0x00000000  x1:0x800022d4
       48205000	      4819	8000236c	40e9d8b3	sra	x17,x19,x14	 x19:0x80009fc4 x14:0x3b50bede x17=0xfffffffe
       48215000	      4820	80002370	5d432213	slti	x4,x6,1492	  x6:0x00000002  x4=0x00000001
       48225000	      4821	80002374	3ede3293	sltiu	x5,x28,1005	 x28:0x3b50bee0  x5=0x00000000
       48235000	      4822	80002378	24677593	andi	x11,x14,582	 x14:0x3b50bede x11=0x00000246
       48245000	      4823	8000237c	004cd593	srli	x11,x25,0x4	 x25:0x800022d0 x11=0x0800022d
       48255000	      4824	80002380	4117d2b7	lui	x5,0x4117d	  x5=0x4117d000
       48265000	      4825	80002384	020cec63	bltu	x25,x0,800023bc	 x25:0x800022d0  x0:0x00000000
       48275000	      4826	80002388	03f85a63	bge	x16,x31,800023bc	 x16:0x50d601d8 x31:0x80001d9c
       48285000	      4827	00000000	00000013	addi	x0,x0,0	  x0:0x00000000
       48295000	      4828	800023b8	00000013	addi	x0,x0,0	  x0:0x00000000
       48305000	      4829	800023bc	00a76233	or	x4,x14,x10	 x14:0x3b50bede x10:0xfaf29b65  x4=0xfbf2bfff
       48315000	      4830	800023c0	89dd3513	sltiu	x10,x26,-1891	 x26:0xfb7092cc x10=0x00000001
       48325000	      4831	800023c4	31f04e37	lui	x28,0x31f04	 x28=0x31f04000
       48335000	      4832	800023c8	00b68e33	add	x28,x13,x11	 x13:0x00000001 x11:0x0800022d x28=0x0800022e
       48345000	      4833	800023cc	403355b3	sra	x11,x6,x3	  x6:0x00000002  x3:0x80002284 x11=0x00000000
       48355000	      4834	800023d0	01fa5533	srl	x10,x20,x31	 x20:0x0000be38 x31:0x80001d9c x10=0x00000000
       48365000	      4835	800023d4	052e8663	beq	x29,x18,80002420	 x29:0x00000001 x18:0x00000000
       48375000	      4836	800023d8	41a7d793	srai	x15,x15,0x1a	 x15:0x00000000 x15=0x00000000
       48385000	      4837	800023dc	c4917317	auipc	x6,0xc4917	  x6=0x449193d8
       48395000	      4838	800023e0	2fbcf597	auipc	x11,0x2fbcf	 x11=0xafbd13dc
       48405000	      4839	800023e4	68e14b97	auipc	x23,0x68e14	 x23=0xe8e163e0
       48415000	      4840	800023e8	3ea6a117	auipc	x2,0x3ea6a	  x2=0xbea6c3e4
       48425000	      4841	800023ec	00c57a63	bgeu	x10,x12,80002400	 x10:0x00000000 x12:0x00000000
       48435000	      4842	00000000	00000013	addi	x0,x0,0	  x0:0x00000000
       48445000	      4843	800023fc	00000013	addi	x0,x0,0	  x0:0x00000000
       48455000	      4844	80002400	000020b3	slt	x1,x0,x0	  x0:0x00000000  x0:0x00000000  x1=0x00000000
       48465000	      4845	80002404	41500fb3	sub	x31,x0,x21	  x0:0x00000000 x21:0xfaf29b65 x31=0x050d649b
       48475000	      4846	80002408	03297063	bgeu	x18,x18,80002428	 x18:0x00000000 x18:0x00000000
       48485000	      4847	00000000	00000013	addi	x0,x0,0	  x0:0x00000000
       48495000	      4848	80002424	00000013	addi	x0,x0,0	  x0:0x00000000
       48505000	      4849	80002428	00e96bb3	or	x23,x18,x14	 x18:0x00000000 x14:0x3b50bede x23=0x3b50bede
       48515000	      4850	8000242c	ea5d9ab7	lui	x21,0xea5d9	 x21=0xea5d9000
       48525000	      4851	80002430	0057d733	srl	x14,x15,x5	 x15:0x00000000  x5:0x4117d000 x14=0x00000000
       48535000	      4852	80002434	017b7c33	and	x24,x22,x23	 x22:0x80009f44 x23:0x3b50bede x24=0x00009e44
       48545000	      4853	80002438	005fd833	srl	x16,x31,x5	 x31:0x050d649b  x5:0x4117d000 x16=0x050d649b
       48555000	      4854	8000243c	0419d263	bge	x19,x1,80002480	 x19:0x80009fc4  x1:0x00000000
       48565000	      4855	80002440	b2a00013	addi	x0,x0,-1238	  x0:0x00000000
       48575000	      4856	80002444	a1e41bb7	lui	x23,0xa1e41	 x23=0xa1e41000
       48585000	      4857	80002448	005c4663	blt	x24,x5,80002454	 x24:0x00009e44  x5:0x4117d000
       48595000	      4858	00000000	00000013	addi	x0,x0,0	  x0:0x00000000
       48605000	      4859	80002450	00000013	addi	x0,x0,0	  x0:0x00000000
       48615000	      4860	80002454	0045f2b3	and	x5,x11,x4	 x11:0xafbd13dc  x4:0xfbf2bfff  x5=0xabb013dc
       48625000	      4861	80002458	00461e13	slli	x28,x12,0x4	 x12:0x00000000 x28=0x00000000
       48635000	      4862	8000245c	a0c0c917	auipc	x18,0xa0c0c	 x18=0x20c0e458
       48645000	      4863	80002460	416b88b3	sub	x17,x23,x22	 x23:0xa1e41000 x22:0x80009f44 x17=0x21e370bc
       48655000	      4864	80002464	415c5893	srai	x17,x24,0x15	 x24:0x00009e44 x17=0x00000000
       48665000	      4865	80002468	01ab9c63	bne	x23,x26,80002480	 x23:0xa1e41000 x26:0xfb7092cc
       48675000	      4866	00000000	00000013	addi	x0,x0,0	  x0:0x00000000
       48685000	      4867	8000247c	00000013	addi	x0,x0,0	  x0:0x00000000
       48695000	      4868	80002480	8deff813	andi	x16,x31,-1826	 x31:0x050d649b x16=0x050d609a
       48705000	      4869	80002484	05fd0263	beq	x26,x31,800024c8	 x26:0xfb7092cc x31:0x050d649b
       48715000	      4870	80002488	00bbe933	or	x18,x23,x11	 x23:0xa1e41000 x11:0xafbd13dc x18=0xaffd13dc
       48725000	      4871	8000248c	017653b3	srl	x7,x12,x23	 x12:0x00000000 x23:0xa1e41000  x7=0x00000000
       48735000	      4872	80002490	41b55633	sra	x12,x10,x27	 x10:0x00000000 x27:0xfc000116 x12=0x00000000
       48745000	      4873	80002494	00000013	addi	x0,x0,0	  x0:0x00000000
       48755000	      4874	80002498	9e4c2d93	slti	x27,x24,-1564	 x24:0x00009e44 x27=0x00000000
       48765000	      4875	8000249c	019e0863	beq	x28,x25,800024ac	 x28:0x00000000 x25:0x800022d0
       48775000	      4876	800024a0	00000013	addi	x0,x0,0	  x0:0x00000000
       48785000	      4877	800024a4	01ea9633	sll	x12,x21,x30	 x21:0xea5d9000 x30:0x800022d8 x12=0x00000000
       48795000	      4878	800024a8	01c62333	slt	x6,x12,x28	 x12:0x00000000 x28:0x00000000  x6=0x00000000
       48805000	      4879	800024ac	40ca97b7	lui	x15,0x40ca9	 x15=0x40ca9000
       48815000	      4880	800024b0	00000013	addi	x0,x0,0	  x0:0x00000000
       48825000	      4881	800024b4	40230033	sub	x0,x6,x2	  x6:0x00000000  x2:0xbea6c3e4
       48835000	      4882	800024b8	40895413	srai	x8,x18,0x8	 x18:0xaffd13dc  x8=0xffaffd13
       48845000	      4883	800024bc	0112df33	srl	x30,x5,x17	  x5:0xabb013dc x17:0x00000000 x30=0xabb013dc
       48855000	      4884	800024c0	00af7663	bgeu	x30,x10,800024cc	 x30:0xabb013dc x10:0x00000000
       48865000	      4885	00000000	00000013	addi	x0,x0,0	  x0:0x00000000
       48875000	      4886	800024c8	00000013	addi	x0,x0,0	  x0:0x00000000
       48885000	      4887	800024cc	749f5c97	auipc	x25,0x749f5	 x25=0xf49f74c8
       48895000	      4888	800024d0	40f2d433	sra	x8,x5,x15	  x5:0xabb013dc x15:0x40ca9000  x8=0xabb013dc
       48905000	      4889	800024d4	03a6f063	bgeu	x13,x26,800024f4	 x13:0x00000001 x26:0xfb7092cc
       48915000	      4890	800024d8	f10a7213	andi	x4,x20,-240	 x20:0x0000be38  x4=0x0000be10
       48925000	      4891	800024dc	3eaef193	andi	x3,x29,1002	 x29:0x00000001  x3=0x00000000
       48935000	      4892	800024e0	005e27b3	slt	x15,x28,x5	 x28:0x00000000  x5:0xabb013dc x15=0x00000000
       48945000	      4893	800024e4	01a81833	sll	x16,x16,x26	 x16:0x050d609a x26:0xfb7092cc x16=0xd609a000
       48955000	      4894	800024e8	41fe5a93	srai	x21,x28,0x1f	 x28:0x00000000 x21=0x00000000
       48965000	      4895	800024ec	40bb8cb3	sub	x25,x23,x11	 x23:0xa1e41000 x11:0xafbd13dc x25=0xf226fc24
       48975000	      4896	800024f0	404685b3	sub	x11,x13,x4	 x13:0x00000001  x4:0x0000be10 x11=0xffff41f1
       48985000	      4897	800024f4	5dda7893	andi	x17,x20,1501	 x20:0x0000be38 x17=0x00000418
       48995000	      4898	800024f8	0113f8b3	and	x17,x7,x17	  x7:0x00000000 x17:0x00000418 x17=0x00000000
       49005000	      4899	800024fc	002e3bb3	sltu	x23,x28,x2	 x28:0x00000000  x2:0xbea6c3e4 x23=0x00000001
       49015000	      4900	80002500	b4ccc113	xori	x2,x25,-1204	 x25:0xf226fc24  x2=0x0dd90768
       49025000	      4901	80002504	0127d613	srli	x12,x15,0x12	 x15:0x00000000 x12=0x00000000
       49035000	      4902	80002508	9d94fc93	andi	x25,x9,-1575	  x9:0x00000000 x25=0x00000000
       49045000	      4903	8000250c	6e42e393	ori	x7,x5,1764	  x5:0xabb013dc  x7=0xabb017fc
       49055000	      4904	80002510	ac3c2b93	slti	x23,x24,-1341	 x24:0x00009e44 x23=0x00000000
       49065000	      4905	80002514	411c5a93	srai	x21,x24,0x11	 x24:0x00009e44 x21=0x00000000
       49075000	      4906	80002518	00cbcc63	blt	x23,x12,80002530	 x23:0x00000000 x12:0x00000000
       49085000	      4907	8000251c	01ce3cb3	sltu	x25,x28,x28	 x28:0x00000000 x28:0x00000000 x25=0x00000000
       49095000	      4908	80002520	2bbd0c93	addi	x25,x26,699	 x26:0xfb7092cc x25=0xfb709587
       49105000	      4909	80002524	00ad0033	add	x0,x26,x10	 x26:0xfb7092cc x10:0x00000000
       49115000	      4910	80002528	50643413	sltiu	x8,x8,1286	  x8:0xabb013dc  x8=0x00000000
       49125000	      4911	8000252c	00c5e863	bltu	x11,x12,8000253c	 x11:0xffff41f1 x12:0x00000000
       49135000	      4912	80002530	40865c13	srai	x24,x12,0x8	 x12:0x00000000 x24=0x00000000
       49145000	      4913	80002534	014c4e63	blt	x24,x20,80002550	 x24:0x00000000 x20:0x0000be38
       49155000	      4914	00000000	00000013	addi	x0,x0,0	  x0:0x00000000
       49165000	      4915	8000254c	00000013	addi	x0,x0,0	  x0:0x00000000
       49175000	      4916	80002550	2191e413	ori	x8,x3,537	  x3:0x00000000  x8=0x00000219
       49185000	      4917	80002554	02651263	bne	x10,x6,80002578	 x10:0x00000000  x6:0x00000000
       49195000	      4918	80002558	03090a63	beq	x18,x16,8000258c	 x18:0xaffd13dc x16:0xd609a000
       49205000	      4919	8000255c	01116f33	or	x30,x2,x17	  x2:0x0dd90768 x17:0x00000000 x30=0x0dd90768
       49215000	      4920	80002560	80fc4c93	xori	x25,x24,-2033	 x24:0x00000000 x25=0xfffff80f
       49225000	      4921	80002564	40f4d6b3	sra	x13,x9,x15	  x9:0x00000000 x15:0x00000000 x13=0x00000000
       49235000	      4922	80002568	d79e6c13	ori	x24,x28,-647	 x28:0x00000000 x24=0xfffffd79
       49245000	      4923	8000256c	346c8d93	addi	x27,x25,838	 x25:0xfffff80f x27=0xfffffb55
       49255000	      4924	80002570	7746a013	slti	x0,x13,1908	 x13:0x00000000
       49265000	      4925	80002574	965c8493	addi	x9,x25,-1691	 x25:0xfffff80f  x9=0xfffff174
       49275000	      4926	80002578	00000013	addi	x0,x0,0	  x0:0x00000000
       49285000	      4927	8000257c	015f0663	beq	x30,x21,80002588	 x30:0x0dd90768 x21:0x00000000
       49295000	      4928	80002580	006102b3	add	x5,x2,x6	  x2:0x0dd90768  x6:0x00000000  x5=0x0dd90768
       49305000	      4929	80002584	00a3c033	xor	x0,x7,x10	  x7:0xabb017fc x10:0x00000000
       49315000	      4930	80002588	dd99e817	auipc	x16,0xdd99e	 x16=0x5d9a0584
       49325000	      4931	8000258c	725ab213	sltiu	x4,x21,1829	 x21:0x00000000  x4=0x00000001
       49335000	      4932	80002590	009f3c33	sltu	x24,x30,x9	 x30:0x0dd90768  x9:0xfffff174 x24=0x00000001
       49345000	      4933	80002594	0324f063	bgeu	x9,x18,800025b4	  x9:0xfffff174 x18:0xaffd13dc
       49355000	      4934	00000000	00000013	addi	x0,x0,0	  x0:0x00000000
       49365000	      4935	800025b0	00000013	addi	x0,x0,0	  x0:0x00000000
       49375000	      4936	800025b4	00c10263	beq	x2,x12,800025b8	  x2:0x0dd90768 x12:0x00000000
       49385000	      4937	800025b8	9e713093	sltiu	x1,x2,-1561	  x2:0x0dd90768  x1=0x00000001
       49395000	      4938	800025bc	00ba0db3	add	x27,x20,x11	 x20:0x0000be38 x11:0xffff41f1 x27=0x00000029
       49405000	      4939	800025c0	03dd1463	bne	x26,x29,800025e8	 x26:0xfb7092cc x29:0x00000001
       49415000	      4940	00000000	00000013	addi	x0,x0,0	  x0:0x00000000
       49425000	      4941	800025e4	00000013	addi	x0,x0,0	  x0:0x00000000
       49435000	      4942	800025e8	02c4c063	blt	x9,x12,80002608	  x9:0xfffff174 x12:0x00000000
       49445000	      4943	00000000	00000013	addi	x0,x0,0	  x0:0x00000000
       49455000	      4944	80002604	00000013	addi	x0,x0,0	  x0:0x00000000
       49465000	      4945	80002608	8bdd2c97	auipc	x25,0x8bdd2	 x25=0x0bdd4604
       49475000	      4946	8000260c	00449713	slli	x14,x9,0x4	  x9:0xfffff174 x14=0xffff1740
       49485000	      4947	80002610	0a35b793	sltiu	x15,x11,163	 x11:0xffff41f1 x15=0x00000000
       49495000	      4948	80002614	00353db3	sltu	x27,x10,x3	 x10:0x00000000  x3:0x00000000 x27=0x00000000
       49505000	      4949	80002618	016324b3	slt	x9,x6,x22	  x6:0x00000000 x22:0x80009f44  x9=0x00000000
       49515000	      4950	8000261c	2529fa97	auipc	x21,0x2529f	 x21=0xa52a1618
       49525000	      4951	80002620	516a8e13	addi	x28,x21,1302	 x21:0xa52a1618 x28=0xa52a1b2e
       49535000	      4952	80002624	fab56213	ori	x4,x10,-85	 x10:0x00000000  x4=0xffffffab
       49545000	      4953	80002628	01e69263	bne	x13,x30,8000262c	 x13:0x00000000 x30:0x0dd90768
       49555000	      4954	00000000	00000013	addi	x0,x0,0	  x0:0x00000000
       49565000	      4955	80002628	00000013	addi	x0,x0,0	  x0:0x00000000
       49575000	      4956	8000262c	00fa4933	xor	x18,x20,x15	 x20:0x0000be38 x15:0x00000000 x18=0x0000be38
       49585000	      4957	80002630	dda8e313	ori	x6,x17,-550	 x17:0x00000000  x6=0xfffffdda
       49595000	      4958	80002634	01cefa63	bgeu	x29,x28,80002648	 x29:0x00000001 x28:0xa52a1b2e
       49605000	      4959	80002638	02a4e063	bltu	x9,x10,80002658	  x9:0x00000000 x10:0x00000000
       49615000	      4960	8000263c	02094a63	blt	x18,x0,80002670	 x18:0x0000be38  x0:0x00000000
       49625000	      4961	80002640	0048d613	srli	x12,x17,0x4	 x17:0x00000000 x12=0x00000000
       49635000	      4962	80002644	001902b3	add	x5,x18,x1	 x18:0x0000be38  x1:0x00000001  x5=0x0000be39
       49645000	      4963	80002648	00c033b3	sltu	x7,x0,x12	  x0:0x00000000 x12:0x00000000  x7=0x00000000
       49655000	      4964	8000264c	03b57263	bgeu	x10,x27,80002670	 x10:0x00000000 x27:0x00000000
       49665000	      4965	00000000	00000013	addi	x0,x0,0	  x0:0x00000000
       49675000	      4966	8000266c	00000013	addi	x0,x0,0	  x0:0x00000000
       49685000	      4967	80002670	00c457b3	srl	x15,x8,x12	  x8:0x00000219 x12:0x00000000 x15=0x00000219
       49695000	      4968	80002674	004b2083	lw	x1,4(x22)	 x22:0x80009f44  x1=0x800001a0 PA:0x80009f48
       49705000	      4969	80002678	01685633	srl	x12,x16,x22	 x16:0x5d9a0584 x22:0x80009f44 x12=0x05d9a058
       49715000	      4970	8000267c	040b0b13	addi	x22,x22,64	 x22:0x80009f44 x22=0x80009f84
       49725000	      4971	80002680	01ac16b3	sll	x13,x24,x26	 x24:0x00000001 x26:0xfb7092cc x13=0x00001000
       49735000	      4972	80002684	01569833	sll	x16,x13,x21	 x13:0x00001000 x21:0xa52a1618 x16=0x00000000
       49745000	      4973	80002688	00421b93	slli	x23,x4,0x4	  x4:0xffffffab x23=0xfffffab0
       49755000	      4974	8000268c	00eb61b3	or	x3,x22,x14	 x22:0x80009f84 x14:0xffff1740  x3=0xffff9fc4
       49765000	      4975	80002690	00b0d813	srli	x16,x1,0xb	  x1:0x800001a0 x16=0x00100000
       49775000	      4976	80002694	00000013	addi	x0,x0,0	  x0:0x00000000
       49785000	      4977	80002698	9cda9437	lui	x8,0x9cda9	  x8=0x9cda9000
       49795000	      4978	8000269c	01e643b3	xor	x7,x12,x30	 x12:0x05d9a058 x30:0x0dd90768  x7=0x0800a730
       49805000	      4979	800026a0	00008f13	addi	x30,x1,0	  x1:0x800001a0 x30=0x800001a0
       49815000	      4980	800026a4	000f0f67	jalr	x30,x30,0	 x30:0x800001a0 x30=0x800026a4
       49825000	      4981	00000000	00000013	addi	x0,x0,0	  x0:0x00000000
       49835000	      4982	800001a0	00000013	addi	x0,x0,0	  x0:0x00000000
       49845000	      4983	800001a4	01c000ef	jal	x1,800001a4	  x1=0x800001a4
       49855000	      4984	00000000	00000013	addi	x0,x0,0	  x0:0x00000000
       49865000	      4985	800001bc	00000013	addi	x0,x0,0	  x0:0x00000000
       49875000	      4986	800001c0	030000ef	jal	x1,800001c0	  x1=0x800001c0
       49885000	      4987	00000000	00000013	addi	x0,x0,0	  x0:0x00000000
       49895000	      4988	800001ec	00000013	addi	x0,x0,0	  x0:0x00000000
       49905000	      4989	800001f0	fcdff36f	jal	x6,800001f0	  x6=0x800001f0
       49915000	      4990	00000000	00000013	addi	x0,x0,0	  x0:0x00000000
       49925000	      4991	800001b8	00000013	addi	x0,x0,0	  x0:0x00000000
       49935000	      4992	800001bc	0100036f	jal	x6,800001bc	  x6=0x800001bc
       49945000	      4993	00000000	00000013	addi	x0,x0,0	  x0:0x00000000
       49955000	      4994	800001c8	00000013	addi	x0,x0,0	  x0:0x00000000
       49965000	      4995	800001cc	01c0036f	jal	x6,800001cc	  x6=0x800001cc
       49975000	      4996	00000000	00000013	addi	x0,x0,0	  x0:0x00000000
       49985000	      4997	800001e4	00000013	addi	x0,x0,0	  x0:0x00000000
       49995000	      4998	800001e8	fe9ff56f	jal	x10,800001e8	 x10=0x800001e8
       50005000	      4999	00000000	00000013	addi	x0,x0,0	  x0:0x00000000
       50015000	      5000	800001cc	00000013	addi	x0,x0,0	  x0:0x00000000
       50025000	      5001	800001d0	fddff0ef	jal	x1,800001d0	  x1=0x800001d0
       50035000	      5002	00000000	00000013	addi	x0,x0,0	  x0:0x00000000
       50045000	      5003	800001a8	00000013	addi	x0,x0,0	  x0:0x00000000
       50055000	      5004	800001ac	030000ef	jal	x1,800001ac	  x1=0x800001ac
       50065000	      5005	00000000	00000013	addi	x0,x0,0	  x0:0x00000000
       50075000	      5006	800001d8	00000013	addi	x0,x0,0	  x0:0x00000000
       50085000	      5007	800001dc	fd9ffc6f	jal	x24,800001dc	 x24=0x800001dc
       50095000	      5008	00000000	00000013	addi	x0,x0,0	  x0:0x00000000
       50105000	      5009	800001b0	00000013	addi	x0,x0,0	  x0:0x00000000
       50115000	      5010	800001b4	02c001ef	jal	x3,800001b4	  x3=0x800001b4
       50125000	      5011	00000000	00000013	addi	x0,x0,0	  x0:0x00000000
       50135000	      5012	800001dc	00000013	addi	x0,x0,0	  x0:0x00000000
       50145000	      5013	800001e0	00c00a6f	jal	x20,800001e0	 x20=0x800001e0
       50155000	      5014	00000000	00000013	addi	x0,x0,0	  x0:0x00000000
       50165000	      5015	800001e8	00000013	addi	x0,x0,0	  x0:0x00000000
       50175000	      5016	800001ec	fd9ff36f	jal	x6,800001ec	  x6=0x800001ec
       50185000	      5017	00000000	00000013	addi	x0,x0,0	  x0:0x00000000
       50195000	      5018	800001c0	00000013	addi	x0,x0,0	  x0:0x00000000
       50205000	      5019	800001c4	fedff36f	jal	x6,800001c4	  x6=0x800001c4
       50215000	      5020	00000000	00000013	addi	x0,x0,0	  x0:0x00000000
       50225000	      5021	800001ac	00000013	addi	x0,x0,0	  x0:0x00000000
       50235000	      5022	800001b0	034000ef	jal	x1,800001b0	  x1=0x800001b0
       50245000	      5023	00000000	00000013	addi	x0,x0,0	  x0:0x00000000
       50255000	      5024	800001e0	00000013	addi	x0,x0,0	  x0:0x00000000
       50265000	      5025	800001e4	ff1ff36f	jal	x6,800001e4	  x6=0x800001e4
       50275000	      5026	00000000	00000013	addi	x0,x0,0	  x0:0x00000000
       50285000	      5027	800001d0	00000013	addi	x0,x0,0	  x0:0x00000000
       50295000	      5028	800001d4	fd5ff36f	jal	x6,800001d4	  x6=0x800001d4
       50305000	      5029	00000000	00000013	addi	x0,x0,0	  x0:0x00000000
       50315000	      5030	800001a4	00000013	addi	x0,x0,0	  x0:0x00000000
       50325000	      5031	800001a8	010000ef	jal	x1,800001a8	  x1=0x800001a8
       50335000	      5032	00000000	00000013	addi	x0,x0,0	  x0:0x00000000
       50345000	      5033	800001b4	00000013	addi	x0,x0,0	  x0:0x00000000
       50355000	      5034	800001b8	020002ef	jal	x5,800001b8	  x5=0x800001b8
       50365000	      5035	00000000	00000013	addi	x0,x0,0	  x0:0x00000000
       50375000	      5036	800001d4	00000013	addi	x0,x0,0	  x0:0x00000000
       50385000	      5037	800001d8	ff1ff46f	jal	x8,800001d8	  x8=0x800001d8
       50395000	      5038	00000000	00000013	addi	x0,x0,0	  x0:0x00000000
       50405000	      5039	800001c4	00000013	addi	x0,x0,0	  x0:0x00000000
       50415000	      5040	800001c8	02c0016f	jal	x2,800001c8	  x2=0x800001c8
       50425000	      5041	00000000	00000013	addi	x0,x0,0	  x0:0x00000000
       50435000	      5042	800001f0	00000013	addi	x0,x0,0	  x0:0x00000000
       50445000	      5043	800001f4	019f48b3	xor	x17,x30,x25	 x30:0x800026a4 x25:0x0bdd4604 x17=0x8bdd60a0
       50455000	      5044	800001f8	010000ef	jal	x1,800001f8	  x1=0x800001f8
       50465000	      5045	00000000	00000013	addi	x0,x0,0	  x0:0x00000000
       50475000	      5046	80000204	00000013	addi	x0,x0,0	  x0:0x00000000
       50485000	      5047	80000208	ff5ff36f	jal	x6,80000208	  x6=0x80000208
       50495000	      5048	00000000	00000013	addi	x0,x0,0	  x0:0x00000000
       50505000	      5049	800001f8	00000013	addi	x0,x0,0	  x0:0x00000000
       50515000	      5050	800001fc	010000ef	jal	x1,800001fc	  x1=0x800001fc
       50525000	      5051	00000000	00000013	addi	x0,x0,0	  x0:0x00000000
       50535000	      5052	80000208	00000013	addi	x0,x0,0	  x0:0x00000000
       50545000	      5053	8000020c	020000ef	jal	x1,8000020c	  x1=0x8000020c
       50555000	      5054	00000000	00000013	addi	x0,x0,0	  x0:0x00000000
       50565000	      5055	80000228	00000013	addi	x0,x0,0	  x0:0x00000000
       50575000	      5056	8000022c	fd9ff36f	jal	x6,8000022c	  x6=0x8000022c
       50585000	      5057	00000000	00000013	addi	x0,x0,0	  x0:0x00000000
       50595000	      5058	80000200	00000013	addi	x0,x0,0	  x0:0x00000000
       50605000	      5059	80000204	018000ef	jal	x1,80000204	  x1=0x80000204
       50615000	      5060	00000000	00000013	addi	x0,x0,0	  x0:0x00000000
       50625000	      5061	80000218	00000013	addi	x0,x0,0	  x0:0x00000000
       50635000	      5062	8000021c	0080016f	jal	x2,8000021c	  x2=0x8000021c
       50645000	      5063	00000000	00000013	addi	x0,x0,0	  x0:0x00000000
       50655000	      5064	80000220	00000013	addi	x0,x0,0	  x0:0x00000000
       50665000	      5065	80000224	ff5ff86f	jal	x16,80000224	 x16=0x80000224
       50675000	      5066	00000000	00000013	addi	x0,x0,0	  x0:0x00000000
       50685000	      5067	80000214	00000013	addi	x0,x0,0	  x0:0x00000000
       50695000	      5068	80000218	01000a6f	jal	x20,80000218	 x20=0x80000218
       50705000	      5069	00000000	00000013	addi	x0,x0,0	  x0:0x00000000
       50715000	      5070	80000224	00000013	addi	x0,x0,0	  x0:0x00000000
       50725000	      5071	80000228	fe9ff36f	jal	x6,80000228	  x6=0x80000228
       50735000	      5072	00000000	00000013	addi	x0,x0,0	  x0:0x00000000
       50745000	      5073	8000020c	00000013	addi	x0,x0,0	  x0:0x00000000
       50755000	      5074	80000210	ff1ff36f	jal	x6,80000210	  x6=0x80000210
       50765000	      5075	00000000	00000013	addi	x0,x0,0	  x0:0x00000000
       50775000	      5076	800001fc	00000013	addi	x0,x0,0	  x0:0x00000000
       50785000	      5077	80000200	020000ef	jal	x1,80000200	  x1=0x80000200
       50795000	      5078	00000000	00000013	addi	x0,x0,0	  x0:0x00000000
       50805000	      5079	8000021c	00000013	addi	x0,x0,0	  x0:0x00000000
       50815000	      5080	80000220	ff5ff36f	jal	x6,80000220	  x6=0x80000220
       50825000	      5081	00000000	00000013	addi	x0,x0,0	  x0:0x00000000
       50835000	      5082	80000210	00000013	addi	x0,x0,0	  x0:0x00000000
       50845000	      5083	80000214	01c005ef	jal	x11,80000214	 x11=0x80000214
       50855000	      5084	00000000	00000013	addi	x0,x0,0	  x0:0x00000000
       50865000	      5085	8000022c	00000013	addi	x0,x0,0	  x0:0x00000000
       50875000	      5086	80000230	59197d93	andi	x27,x18,1425	 x18:0x0000be38 x27=0x00000410
       50885000	      5087	80000234	004000ef	jal	x1,80000234	  x1=0x80000234
       50895000	      5088	00000000	00000013	addi	x0,x0,0	  x0:0x00000000
       50905000	      5089	80000234	00000013	addi	x0,x0,0	  x0:0x00000000
       50915000	      5090	80000238	0480016f	jal	x2,80000238	  x2=0x80000238
       50925000	      5091	00000000	00000013	addi	x0,x0,0	  x0:0x00000000
       50935000	      5092	8000027c	00000013	addi	x0,x0,0	  x0:0x00000000
       50945000	      5093	80000280	fd1ff4ef	jal	x9,80000280	  x9=0x80000280
       50955000	      5094	00000000	00000013	addi	x0,x0,0	  x0:0x00000000
       50965000	      5095	8000024c	00000013	addi	x0,x0,0	  x0:0x00000000
       50975000	      5096	80000250	00c000ef	jal	x1,80000250	  x1=0x80000250
       50985000	      5097	00000000	00000013	addi	x0,x0,0	  x0:0x00000000
       50995000	      5098	80000258	00000013	addi	x0,x0,0	  x0:0x00000000
       51005000	      5099	8000025c	fe1ff0ef	jal	x1,8000025c	  x1=0x8000025c
       51015000	      5100	00000000	00000013	addi	x0,x0,0	  x0:0x00000000
       51025000	      5101	80000238	00000013	addi	x0,x0,0	  x0:0x00000000
       51035000	      5102	8000023c	01c0096f	jal	x18,8000023c	 x18=0x8000023c
       51045000	      5103	00000000	00000013	addi	x0,x0,0	  x0:0x00000000
       51055000	      5104	80000254	00000013	addi	x0,x0,0	  x0:0x00000000
       51065000	      5105	80000258	02000c6f	jal	x24,80000258	 x24=0x80000258
       51075000	      5106	00000000	00000013	addi	x0,x0,0	  x0:0x00000000
       51085000	      5107	80000274	00000013	addi	x0,x0,0	  x0:0x00000000
       51095000	      5108	80000278	fe9ff0ef	jal	x1,80000278	  x1=0x80000278
       51105000	      5109	00000000	00000013	addi	x0,x0,0	  x0:0x00000000
       51115000	      5110	8000025c	00000013	addi	x0,x0,0	  x0:0x00000000
       51125000	      5111	80000260	fe5ff0ef	jal	x1,80000260	  x1=0x80000260
       51135000	      5112	00000000	00000013	addi	x0,x0,0	  x0:0x00000000
       51145000	      5113	80000240	00000013	addi	x0,x0,0	  x0:0x00000000
       51155000	      5114	80000244	020000ef	jal	x1,80000244	  x1=0x80000244
       51165000	      5115	00000000	00000013	addi	x0,x0,0	  x0:0x00000000
       51175000	      5116	80000260	00000013	addi	x0,x0,0	  x0:0x00000000
       51185000	      5117	80000264	018000ef	jal	x1,80000264	  x1=0x80000264
       51195000	      5118	00000000	00000013	addi	x0,x0,0	  x0:0x00000000
       51205000	      5119	80000278	00000013	addi	x0,x0,0	  x0:0x00000000
       51215000	      5120	8000027c	ff1ff0ef	jal	x1,8000027c	  x1=0x8000027c
       51225000	      5121	00000000	00000013	addi	x0,x0,0	  x0:0x00000000
       51235000	      5122	80000268	00000013	addi	x0,x0,0	  x0:0x00000000
       51245000	      5123	8000026c	fd5ff36f	jal	x6,8000026c	  x6=0x8000026c
       51255000	      5124	00000000	00000013	addi	x0,x0,0	  x0:0x00000000
       51265000	      5125	8000023c	00000013	addi	x0,x0,0	  x0:0x00000000
       51275000	      5126	80000240	014000ef	jal	x1,80000240	  x1=0x80000240
       51285000	      5127	00000000	00000013	addi	x0,x0,0	  x0:0x00000000
       51295000	      5128	80000250	00000013	addi	x0,x0,0	  x0:0x00000000
       51305000	      5129	80000254	ff5ff66f	jal	x12,80000254	 x12=0x80000254
       51315000	      5130	00000000	00000013	addi	x0,x0,0	  x0:0x00000000
       51325000	      5131	80000244	00000013	addi	x0,x0,0	  x0:0x00000000
       51335000	      5132	80000248	0280036f	jal	x6,80000248	  x6=0x80000248
       51345000	      5133	00000000	00000013	addi	x0,x0,0	  x0:0x00000000
       51355000	      5134	8000026c	00000013	addi	x0,x0,0	  x0:0x00000000
       51365000	      5135	80000270	00400c6f	jal	x24,80000270	 x24=0x80000270
       51375000	      5136	00000000	00000013	addi	x0,x0,0	  x0:0x00000000
       51385000	      5137	80000270	00000013	addi	x0,x0,0	  x0:0x00000000
       51395000	      5138	80000274	010001ef	jal	x3,80000274	  x3=0x80000274
       51405000	      5139	00000000	00000013	addi	x0,x0,0	  x0:0x00000000
       51415000	      5140	80000280	00000013	addi	x0,x0,0	  x0:0x00000000
       51425000	      5141	80000284	fe5ff0ef	jal	x1,80000284	  x1=0x80000284
       51435000	      5142	00000000	00000013	addi	x0,x0,0	  x0:0x00000000
       51445000	      5143	80000264	00000013	addi	x0,x0,0	  x0:0x00000000
       51455000	      5144	80000268	fe5ff0ef	jal	x1,80000268	  x1=0x80000268
       51465000	      5145	00000000	00000013	addi	x0,x0,0	  x0:0x00000000
       51475000	      5146	80000248	00000013	addi	x0,x0,0	  x0:0x00000000
       51485000	      5147	8000024c	03c0086f	jal	x16,8000024c	 x16=0x8000024c
       51495000	      5148	00000000	00000013	addi	x0,x0,0	  x0:0x00000000
       51505000	      5149	80000284	00000013	addi	x0,x0,0	  x0:0x00000000
       51515000	      5150	80000288	40735393	srai	x7,x6,0x7	  x6:0x80000248  x7=0xff000004
       51525000	      5151	8000028c	00c000ef	jal	x1,8000028c	  x1=0x8000028c
       51535000	      5152	00000000	00000013	addi	x0,x0,0	  x0:0x00000000
       51545000	      5153	80000294	00000013	addi	x0,x0,0	  x0:0x00000000
       51555000	      5154	80000298	ffdff0ef	jal	x1,80000298	  x1=0x80000298
       51565000	      5155	00000000	00000013	addi	x0,x0,0	  x0:0x00000000
       51575000	      5156	80000290	00000013	addi	x0,x0,0	  x0:0x00000000
       51585000	      5157	80000294	00c00def	jal	x27,80000294	 x27=0x80000294
       51595000	      5158	00000000	00000013	addi	x0,x0,0	  x0:0x00000000
       51605000	      5159	8000029c	00000013	addi	x0,x0,0	  x0:0x00000000
       51615000	      5160	800002a0	ff1ff6ef	jal	x13,800002a0	 x13=0x800002a0
       51625000	      5161	00000000	00000013	addi	x0,x0,0	  x0:0x00000000
       51635000	      5162	8000028c	00000013	addi	x0,x0,0	  x0:0x00000000
       51645000	      5163	80000290	028000ef	jal	x1,80000290	  x1=0x80000290
       51655000	      5164	00000000	00000013	addi	x0,x0,0	  x0:0x00000000
       51665000	      5165	800002b4	00000013	addi	x0,x0,0	  x0:0x00000000
       51675000	      5166	800002b8	008000ef	jal	x1,800002b8	  x1=0x800002b8
       51685000	      5167	00000000	00000013	addi	x0,x0,0	  x0:0x00000000
       51695000	      5168	800002bc	00000013	addi	x0,x0,0	  x0:0x00000000
       51705000	      5169	800002c0	0040036f	jal	x6,800002c0	  x6=0x800002c0
       51715000	      5170	00000000	00000013	addi	x0,x0,0	  x0:0x00000000
       51725000	      5171	800002c0	00000013	addi	x0,x0,0	  x0:0x00000000
       51735000	      5172	800002c4	fe5ff36f	jal	x6,800002c4	  x6=0x800002c4
       51745000	      5173	00000000	00000013	addi	x0,x0,0	  x0:0x00000000
       51755000	      5174	800002a4	00000013	addi	x0,x0,0	  x0:0x00000000
       51765000	      5175	800002a8	00c0036f	jal	x6,800002a8	  x6=0x800002a8
       51775000	      5176	00000000	00000013	addi	x0,x0,0	  x0:0x00000000
       51785000	      5177	800002b0	00000013	addi	x0,x0,0	  x0:0x00000000
       51795000	      5178	800002b4	ffdff0ef	jal	x1,800002b4	  x1=0x800002b4
       51805000	      5179	00000000	00000013	addi	x0,x0,0	  x0:0x00000000
       51815000	      5180	800002ac	00000013	addi	x0,x0,0	  x0:0x00000000
       51825000	      5181	800002b0	fedff0ef	jal	x1,800002b0	  x1=0x800002b0
       51835000	      5182	00000000	00000013	addi	x0,x0,0	  x0:0x00000000
       51845000	      5183	80000298	00000013	addi	x0,x0,0	  x0:0x00000000
       51855000	      5184	8000029c	01000bef	jal	x23,8000029c	 x23=0x8000029c
       51865000	      5185	00000000	00000013	addi	x0,x0,0	  x0:0x00000000
       51875000	      5186	800002a8	00000013	addi	x0,x0,0	  x0:0x00000000
       51885000	      5187	800002ac	ff9ff0ef	jal	x1,800002ac	  x1=0x800002ac
       51895000	      5188	00000000	00000013	addi	x0,x0,0	  x0:0x00000000
       51905000	      5189	800002a0	00000013	addi	x0,x0,0	  x0:0x00000000
       51915000	      5190	800002a4	01800def	jal	x27,800002a4	 x27=0x800002a4
       51925000	      5191	00000000	00000013	addi	x0,x0,0	  x0:0x00000000
       51935000	      5192	800002b8	00000013	addi	x0,x0,0	  x0:0x00000000
       51945000	      5193	800002bc	00c000ef	jal	x1,800002bc	  x1=0x800002bc
       51955000	      5194	00000000	00000013	addi	x0,x0,0	  x0:0x00000000
       51965000	      5195	800002c4	00000013	addi	x0,x0,0	  x0:0x00000000
       51975000	      5196	800002c8	40998233	sub	x4,x19,x9	 x19:0x80009fc4  x9:0x80000280  x4=0x00009d44
       51985000	      5197	800002cc	699efc13	andi	x24,x29,1689	 x29:0x00000001 x24=0x00000001
       51995000	      5198	800002d0	40cf5613	srai	x12,x30,0xc	 x30:0x800026a4 x12=0xfff80002
       52005000	      5199	800002d4	40035cb3	sra	x25,x6,x0	  x6:0x800002a8  x0:0x00000000 x25=0x800002a8
       52015000	      5200	800002d8	54496713	ori	x14,x18,1348	 x18:0x8000023c x14=0x8000077c
       52025000	      5201	800002dc	c4f5f293	andi	x5,x11,-945	 x11:0x80000214  x5=0x80000004
       52035000	      5202	800002e0	03580863	beq	x16,x21,80000310	 x16:0x8000024c x21:0xa52a1618
       52045000	      5203	800002e4	40565a13	srai	x20,x12,0x5	 x12:0xfff80002 x20=0xffffc000
       52055000	      5204	800002e8	01c36933	or	x18,x6,x28	  x6:0x800002a8 x28:0xa52a1b2e x18=0xa52a1bae
       52065000	      5205	800002ec	00ed5a13	srli	x20,x26,0xe	 x26:0xfb7092cc x20=0x0003edc2
       52075000	      5206	800002f0	00164263	blt	x12,x1,800002f4	 x12:0xfff80002  x1:0x800002bc
       52085000	      5207	800002f4	0037d463	bge	x15,x3,800002fc	 x15:0x00000219  x3:0x80000274
       52095000	      5208	00000000	00000013	addi	x0,x0,0	  x0:0x00000000
       52105000	      5209	800002f8	00000013	addi	x0,x0,0	  x0:0x00000000
       52115000	      5210	800002fc	002e1213	slli	x4,x28,0x2	 x28:0xa52a1b2e  x4=0x94a86cb8
       52125000	      5211	80000300	cdf96197	auipc	x3,0xcdf96	  x3=0x4df962fc
       52135000	      5212	80000304	e3033393	sltiu	x7,x6,-464	  x6:0x800002a8  x7=0x00000001
       52145000	      5213	80000308	04bec463	blt	x29,x11,80000350	 x29:0x00000001 x11:0x80000214
       52155000	      5214	8000030c	0039d2b3	srl	x5,x19,x3	 x19:0x80009fc4  x3:0x4df962fc  x5=0x00000008
       52165000	      5215	80000310	009870b3	and	x1,x16,x9	 x16:0x8000024c  x9:0x80000280  x1=0x80000200
       52175000	      5216	80000314	ebd26393	ori	x7,x4,-323	  x4:0x94a86cb8  x7=0xfffffebd
       52185000	      5217	80000318	00ed7263	bgeu	x26,x14,8000031c	 x26:0xfb7092cc x14:0x8000077c
       52195000	      5218	00000000	00000013	addi	x0,x0,0	  x0:0x00000000
       52205000	      5219	80000318	00000013	addi	x0,x0,0	  x0:0x00000000
       52215000	      5220	8000031c	01fc9013	slli	x0,x25,0x1f	 x25:0x800002a8
       52225000	      5221	80000320	00981893	slli	x17,x16,0x9	 x16:0x8000024c x17=0x00049800
       52235000	      5222	80000324	51798713	addi	x14,x19,1303	 x19:0x80009fc4 x14=0x8000a4db
       52245000	      5223	80000328	006a0e63	beq	x20,x6,80000344	 x20:0x0003edc2  x6:0x800002a8
       52255000	      5224	8000032c	417e5e33	sra	x28,x28,x23	 x28:0xa52a1b2e x23:0x8000029c x28=0xfffffffa
       52265000	      5225	80000330	00187f33	and	x30,x16,x1	 x16:0x8000024c  x1:0x80000200 x30=0x80000200
       52275000	      5226	80000334	005ba033	slt	x0,x23,x5	 x23:0x8000029c  x5:0x00000008
       52285000	      5227	80000338	41290fb3	sub	x31,x18,x18	 x18:0xa52a1bae x18:0xa52a1bae x31=0x00000000
       52295000	      5228	8000033c	01facc63	blt	x21,x31,80000354	 x21:0xa52a1618 x31:0x00000000
       52305000	      5229	00000000	00000013	addi	x0,x0,0	  x0:0x00000000
       52315000	      5230	80000350	00000013	addi	x0,x0,0	  x0:0x00000000
       52325000	      5231	80000354	41d2dbb3	sra	x23,x5,x29	  x5:0x00000008 x29:0x00000001 x23=0x00000004
       52335000	      5232	80000358	00e8f263	bgeu	x17,x14,8000035c	 x17:0x00049800 x14:0x8000a4db
       52345000	      5233	8000035c	00000013	addi	x0,x0,0	  x0:0x00000000
       52355000	      5234	80000360	10f22f93	slti	x31,x4,271	  x4:0x94a86cb8 x31=0x00000001
       52365000	      5235	80000364	00000013	addi	x0,x0,0	  x0:0x00000000
       52375000	      5236	80000368	01abc833	xor	x16,x23,x26	 x23:0x00000004 x26:0xfb7092cc x16=0xfb7092c8
       52385000	      5237	8000036c	017c41b3	xor	x3,x24,x23	 x24:0x00000001 x23:0x00000004  x3=0x00000005
       52395000	      5238	80000370	012853b3	srl	x7,x16,x18	 x16:0xfb7092c8 x18:0xa52a1bae  x7=0x0003edc2
       52405000	      5239	80000374	00ef7863	bgeu	x30,x14,80000384	 x30:0x80000200 x14:0x8000a4db
       52415000	      5240	80000378	0064f733	and	x14,x9,x6	  x9:0x80000280  x6:0x800002a8 x14=0x80000280
       52425000	      5241	8000037c	012e9db3	sll	x27,x29,x18	 x29:0x00000001 x18:0xa52a1bae x27=0x00004000
       52435000	      5242	80000380	01a74bb3	xor	x23,x14,x26	 x14:0x80000280 x26:0xfb7092cc x23=0x7b70904c
       52445000	      5243	80000384	4139d693	srai	x13,x19,0x13	 x19:0x80009fc4 x13=0xfffff000
       52455000	      5244	80000388	03401663	bne	x0,x20,800003b4	  x0:0x00000000 x20:0x0003edc2
       52465000	      5245	00000000	00000013	addi	x0,x0,0	  x0:0x00000000
       52475000	      5246	800003b0	00000013	addi	x0,x0,0	  x0:0x00000000
       52485000	      5247	800003b4	00000013	addi	x0,x0,0	  x0:0x00000000
       52495000	      5248	800003b8	41b6d313	srai	x6,x13,0x1b	 x13:0xfffff000  x6=0xffffffff
       52505000	      5249	800003bc	019fccb3	xor	x25,x31,x25	 x31:0x00000001 x25:0x800002a8 x25=0x800002a9
       52515000	      5250	800003c0	61657613	andi	x12,x10,1558	 x10:0x800001e8 x12=0x00000000
       52525000	      5251	800003c4	008bdcb3	srl	x25,x23,x8	 x23:0x7b70904c  x8:0x800001d8 x25=0x0000007b
       52535000	      5252	800003c8	be642b93	slti	x23,x8,-1050	  x8:0x800001d8 x23=0x00000001
       52545000	      5253	800003cc	cf8dc693	xori	x13,x27,-776	 x27:0x00004000 x13=0xffffbcf8
       52555000	      5254	800003d0	00a3a3b3	slt	x7,x7,x10	  x7:0x0003edc2 x10:0x800001e8  x7=0x00000000
       52565000	      5255	800003d4	00479333	sll	x6,x15,x4	 x15:0x00000219  x4:0x94a86cb8  x6=0x19000000
       52575000	      5256	800003d8	01d1f6b3	and	x13,x3,x29	  x3:0x00000005 x29:0x00000001 x13=0x00000001
       52585000	      5257	800003dc	e2a86f13	ori	x30,x16,-470	 x16:0xfb7092c8 x30=0xfffffeea
       52595000	      5258	800003e0	d4078513	addi	x10,x15,-704	 x15:0x00000219 x10=0xffffff59
       52605000	      5259	800003e4	018298b3	sll	x17,x5,x24	  x5:0x00000008 x24:0x00000001 x17=0x00000010
       52615000	      5260	800003e8	01371c93	slli	x25,x14,0x13	 x14:0x80000280 x25=0x14000000
       52625000	      5261	800003ec	cbce8e37	lui	x28,0xcbce8	 x28=0xcbce8000
       52635000	      5262	800003f0	0f744f93	xori	x31,x8,247	  x8:0x800001d8 x31=0x8000012f
       52645000	      5263	800003f4	06d90e63	beq	x18,x13,80000470	 x18:0xa52a1bae x13:0x00000001
       52655000	      5264	800003f8	069ee063	bltu	x29,x9,80000458	 x29:0x00000001  x9:0x80000280
       52665000	      5265	00000000	00000013	addi	x0,x0,0	  x0:0x00000000
       52675000	      5266	80000454	00000013	addi	x0,x0,0	  x0:0x00000000
       52685000	      5267	80000458	00000013	addi	x0,x0,0	  x0:0x00000000
       52695000	      5268	8000045c	41215613	srai	x12,x2,0x12	  x2:0x80000238 x12=0xffffe000
       52705000	      5269	80000460	64531817	auipc	x16,0x64531	 x16=0xe453145c
       52715000	      5270	80000464	01fbfe63	bgeu	x23,x31,80000480	 x23:0x00000001 x31:0x8000012f
       52725000	      5271	80000468	003c51b3	srl	x3,x24,x3	 x24:0x00000001  x3:0x00000005  x3=0x00000000
       52735000	      5272	8000046c	00669e33	sll	x28,x13,x6	 x13:0x00000001  x6:0x19000000 x28=0x00000001
       52745000	      5273	80000470	014e3bb3	sltu	x23,x28,x20	 x28:0x00000001 x20:0x0003edc2 x23=0x00000001
       52755000	      5274	80000474	58f9f313	andi	x6,x19,1423	 x19:0x80009fc4  x6=0x00000584
       52765000	      5275	80000478	47359917	auipc	x18,0x47359	 x18=0xc7359474
       52775000	      5276	8000047c	6e334397	auipc	x7,0x6e334	  x7=0xee334478
       52785000	      5277	80000480	bcd3ea93	ori	x21,x7,-1075	  x7:0xee334478 x21=0xfffffffd
       52795000	      5278	80000484	c96c0513	addi	x10,x24,-874	 x24:0x00000001 x10=0xfffffc97
       52805000	      5279	80000488	0452d297	auipc	x5,0x452d	  x5=0x8452d484
       52815000	      5280	8000048c	001a6663	bltu	x20,x1,80000498	 x20:0x0003edc2  x1:0x80000200
       52825000	      5281	00000000	00000013	addi	x0,x0,0	  x0:0x00000000
       52835000	      5282	80000494	00000013	addi	x0,x0,0	  x0:0x00000000
       52845000	      5283	80000498	cbb348b7	lui	x17,0xcbb34	 x17=0xcbb34000
       52855000	      5284	8000049c	047ae663	bltu	x21,x7,800004e8	 x21:0xfffffffd  x7:0xee334478
       52865000	      5285	800004a0	0460a413	slti	x8,x1,70	  x1:0x80000200  x8=0x00000001
       52875000	      5286	800004a4	05930463	beq	x6,x25,800004ec	  x6:0x00000584 x25:0x14000000
       52885000	      5287	800004a8	01297ab3	and	x21,x18,x18	 x18:0xc7359474 x18:0xc7359474 x21=0xc7359474
       52895000	      5288	800004ac	00e963b3	or	x7,x18,x14	 x18:0xc7359474 x14:0x80000280  x7=0xc73596f4
       52905000	      5289	800004b0	107c2c13	slti	x24,x24,263	 x24:0x00000001 x24=0x00000001
       52915000	      5290	800004b4	009bbf33	sltu	x30,x23,x9	 x23:0x00000001  x9:0x80000280 x30=0x00000001
       52925000	      5291	800004b8	0903e263	bltu	x7,x16,8000053c	  x7:0xc73596f4 x16:0xe453145c
       52935000	      5292	00000000	00000013	addi	x0,x0,0	  x0:0x00000000
       52945000	      5293	80000538	00000013	addi	x0,x0,0	  x0:0x00000000
       52955000	      5294	8000053c	017e5f13	srli	x30,x28,0x17	 x28:0x00000001 x30=0x00000000
       52965000	      5295	80000540	7f710013	addi	x0,x2,2039	  x2:0x80000238
       52975000	      5296	80000544	7c7e6c93	ori	x25,x28,1991	 x28:0x00000001 x25=0x000007c7
       52985000	      5297	80000548	021cef93	ori	x31,x25,33	 x25:0x000007c7 x31=0x000007e7
       52995000	      5298	8000054c	03124e63	blt	x4,x17,80000588	  x4:0x94a86cb8 x17:0xcbb34000
       53005000	      5299	00000000	00000013	addi	x0,x0,0	  x0:0x00000000
       53015000	      5300	80000584	00000013	addi	x0,x0,0	  x0:0x00000000
       53025000	      5301	80000588	36b71bb7	lui	x23,0x36b71	 x23=0x36b71000
       53035000	      5302	8000058c	009ad893	srli	x17,x21,0x9	 x21:0xc7359474 x17=0x00639aca
       53045000	      5303	80000590	01e2c733	xor	x14,x5,x30	  x5:0x8452d484 x30:0x00000000 x14=0x8452d484
       53055000	      5304	80000594	00000013	addi	x0,x0,0	  x0:0x00000000
       53065000	      5305	80000598	05c9e663	bltu	x19,x28,800005e4	 x19:0x80009fc4 x28:0x00000001
       53075000	      5306	8000059c	dffc2b93	slti	x23,x24,-513	 x24:0x00000001 x23=0x00000000
       53085000	      5307	800005a0	00402033	slt	x0,x0,x4	  x0:0x00000000  x4:0x94a86cb8
       53095000	      5308	800005a4	004c2033	slt	x0,x24,x4	 x24:0x00000001  x4:0x94a86cb8
       53105000	      5309	800005a8	052b4263	blt	x22,x18,800005ec	 x22:0x80009f84 x18:0xc7359474
       53115000	      5310	00000000	00000013	addi	x0,x0,0	  x0:0x00000000
       53125000	      5311	800005e8	00000013	addi	x0,x0,0	  x0:0x00000000
       53135000	      5312	800005ec	00000013	addi	x0,x0,0	  x0:0x00000000
       53145000	      5313	800005f0	40675113	srai	x2,x14,0x6	 x14:0x8452d484  x2=0xfe114b52
       53155000	      5314	800005f4	a6b4ea13	ori	x20,x9,-1429	  x9:0x80000280 x20=0xfffffaeb
       53165000	      5315	800005f8	000beab3	or	x21,x23,x0	 x23:0x00000000  x0:0x00000000 x21=0x00000000
       53175000	      5316	800005fc	41c501b3	sub	x3,x10,x28	 x10:0xfffffc97 x28:0x00000001  x3=0xfffffc96
       53185000	      5317	80000600	0015e463	bltu	x11,x1,80000608	 x11:0x80000214  x1:0x80000200
       53195000	      5318	80000604	42b4a813	slti	x16,x9,1067	  x9:0x80000280 x16=0x00000001
       53205000	      5319	80000608	020e5e63	bge	x28,x0,80000644	 x28:0x00000001  x0:0x00000000
       53215000	      5320	00000000	00000013	addi	x0,x0,0	  x0:0x00000000
       53225000	      5321	80000640	00000013	addi	x0,x0,0	  x0:0x00000000
       53235000	      5322	80000644	00a41433	sll	x8,x8,x10	  x8:0x00000001 x10:0xfffffc97  x8=0x00800000
       53245000	      5323	80000648	41405093	srai	x1,x0,0x14	  x0:0x00000000  x1=0x00000000
       53255000	      5324	8000064c	027d1663	bne	x26,x7,80000678	 x26:0xfb7092cc  x7:0xc73596f4
       53265000	      5325	00000000	00000013	addi	x0,x0,0	  x0:0x00000000
       53275000	      5326	80000674	00000013	addi	x0,x0,0	  x0:0x00000000
       53285000	      5327	80000678	01301c93	slli	x25,x0,0x13	  x0:0x00000000 x25=0x00000000
       53295000	      5328	8000067c	00a585b3	add	x11,x11,x10	 x11:0x80000214 x10:0xfffffc97 x11=0x7ffffeab
       53305000	      5329	80000680	0a687d97	auipc	x27,0xa687	 x27=0x8a68767c
       53315000	      5330	80000684	0233e863	bltu	x7,x3,800006b4	  x7:0xc73596f4  x3:0xfffffc96
       53325000	      5331	00000000	00000013	addi	x0,x0,0	  x0:0x00000000
       53335000	      5332	800006b0	00000013	addi	x0,x0,0	  x0:0x00000000
       53345000	      5333	800006b4	017425b3	slt	x11,x8,x23	  x8:0x00800000 x23:0x00000000 x11=0x00000000
       53355000	      5334	800006b8	01e7d513	srli	x10,x15,0x1e	 x15:0x00000219 x10=0x00000000
       53365000	      5335	800006bc	017bb133	sltu	x2,x23,x23	 x23:0x00000000 x23:0x00000000  x2=0x00000000
       53375000	      5336	800006c0	02716e63	bltu	x2,x7,800006fc	  x2:0x00000000  x7:0xc73596f4
       53385000	      5337	00000000	00000013	addi	x0,x0,0	  x0:0x00000000
       53395000	      5338	800006f8	00000013	addi	x0,x0,0	  x0:0x00000000
       53405000	      5339	800006fc	55207693	andi	x13,x0,1362	  x0:0x00000000 x13=0x00000000
       53415000	      5340	80000700	00000d17	auipc	x26,0x0	 x26=0x800006fc
       53425000	      5341	80000704	00cd0d13	addi	x26,x26,12	 x26:0x800006fc x26=0x80000708
       53435000	      5342	80000708	000d0067	jalr	x0,x26,0	 x26:0x80000708
       53445000	      5343	00000000	00000013	addi	x0,x0,0	  x0:0x00000000
       53455000	      5344	80000708	00000013	addi	x0,x0,0	  x0:0x00000000
       53465000	      5345	8000070c	00100193	addi	x3,x0,1	  x0:0x00000000  x3=0x00000001
       53475000	      5346	80000710	00000073	ecall	
       53485000	      5347	80000714	5ccaf917	auipc	x18,0x5ccaf	 x18=0xdccaf710
