		Time			Cycle	PC		Insn	Decoded instruction	Register and memory contents
          65000	         5	80000004	00000293	addi	x5,x0,0	  x0:0x00000000  x5=0x00000000
          75000	         6	80000008	00000313	addi	x6,x0,0	  x0:0x00000000  x6=0x00000000
          85000	         7	8000000c	00628263	beq	x5,x6,80000010	  x5:0x00000000  x6:0x00000000
          95000	         8	00000000	00000013	addi	x0,x0,0	  x0:0x00000000
         105000	         9	8000000c	00000013	addi	x0,x0,0	  x0:0x00000000
         115000	        10	80000010	00000797	auipc	x15,0x0	 x15=0x8000000c
         125000	        11	80000014	00c78793	addi	x15,x15,12	 x15:0x8000000c x15=0x80000018
         135000	        12	80000018	00078067	jalr	x0,x15,0	 x15:0x80000018
         145000	        13	00000000	00000013	addi	x0,x0,0	  x0:0x00000000
         155000	        14	80000018	00000013	addi	x0,x0,0	  x0:0x00000000
         165000	        15	8000001c	400003b7	lui	x7,0x40000	  x7=0x40000000
         175000	        16	80000020	10038393	addi	x7,x7,256	  x7:0x40000000  x7=0x40000100
         185000	        17	80000024	00000013	addi	x0,x0,0	  x0:0x00000000
         195000	        18	80000028	0000a897	auipc	x17,0xa	 x17=0x8000a024
         205000	        19	8000002c	fa088893	addi	x17,x17,-96	 x17:0x8000a024 x17=0x80009fc4
         215000	        20	80000030	00005397	auipc	x7,0x5	  x7=0x8000502c
         225000	        21	80000034	f9438393	addi	x7,x7,-108	  x7:0x8000502c  x7=0x80004fc0
         235000	        22	80000038	0013e393	ori	x7,x7,1	  x7:0x80004fc0  x7=0x80004fc1
         245000	        23	8000003c	00000013	addi	x0,x0,0	  x0:0x00000000
         255000	        24	80000040	00000397	auipc	x7,0x0	  x7=0x8000003c
         265000	        25	80000044	02038393	addi	x7,x7,32	  x7:0x8000003c  x7=0x8000005c
         275000	        26	80000048	00000013	addi	x0,x0,0	  x0:0x00000000
         285000	        27	8000004c	00000013	addi	x0,x0,0	  x0:0x00000000
         295000	        28	80000050	000023b7	lui	x7,0x2	  x7=0x00002000
         305000	        29	80000054	80038393	addi	x7,x7,-2048	  x7:0x00002000  x7=0x00001800
         315000	        30	80000058	00000013	addi	x0,x0,0	  x0:0x00000000
         325000	        31	8000005c	00000013	addi	x0,x0,0	  x0:0x00000000
         335000	        32	80000060	00800013	addi	x0,x0,8	  x0:0x00000000
         345000	        33	80000064	800000b7	lui	x1,0x80000	  x1=0x80000000
         355000	        34	80000068	00000113	addi	x2,x0,0	  x0:0x00000000  x2=0x00000000
         365000	        35	8000006c	bd0021b7	lui	x3,0xbd002	  x3=0xbd002000
         375000	        36	80000070	28e18193	addi	x3,x3,654	  x3:0xbd002000  x3=0xbd00228e
         385000	        37	80000074	ceef0237	lui	x4,0xceef0	  x4=0xceef0000
         395000	        38	80000078	e2120213	addi	x4,x4,-479	  x4:0xceef0000  x4=0xceeefe21
         405000	        39	8000007c	f368c2b7	lui	x5,0xf368c	  x5=0xf368c000
         415000	        40	80000080	47428293	addi	x5,x5,1140	  x5:0xf368c000  x5=0xf368c474
         425000	        41	80000084	00600313	addi	x6,x0,6	  x0:0x00000000  x6=0x00000006
         435000	        42	80000088	00000393	addi	x7,x0,0	  x0:0x00000000  x7=0x00000000
         445000	        43	8000008c	f5ade437	lui	x8,0xf5ade	  x8=0xf5ade000
         455000	        44	80000090	91c40413	addi	x8,x8,-1764	  x8:0xf5ade000  x8=0xf5add91c
         465000	        45	80000094	cbddc4b7	lui	x9,0xcbddc	  x9=0xcbddc000
         475000	        46	80000098	5db48493	addi	x9,x9,1499	  x9:0xcbddc000  x9=0xcbddc5db
         485000	        47	8000009c	7e4cd537	lui	x10,0x7e4cd	 x10=0x7e4cd000
         495000	        48	800000a0	96550513	addi	x10,x10,-1691	 x10:0x7e4cd000 x10=0x7e4cc965
         505000	        49	800000a4	650135b7	lui	x11,0x65013	 x11=0x65013000
         515000	        50	800000a8	fab58593	addi	x11,x11,-85	 x11:0x65013000 x11=0x65012fab
         525000	        51	800000ac	83047637	lui	x12,0x83047	 x12=0x83047000
         535000	        52	800000b0	08f60613	addi	x12,x12,143	 x12:0x83047000 x12=0x8304708f
         545000	        53	800000b4	00000693	addi	x13,x0,0	  x0:0x00000000 x13=0x00000000
         555000	        54	800000b8	00000713	addi	x14,x0,0	  x0:0x00000000 x14=0x00000000
         565000	        55	800000bc	f573b7b7	lui	x15,0xf573b	 x15=0xf573b000
         575000	        56	800000c0	7aa78793	addi	x15,x15,1962	 x15:0xf573b000 x15=0xf573b7aa
         585000	        57	800000c4	80000837	lui	x16,0x80000	 x16=0x80000000
         595000	        58	800000c8	3705f937	lui	x18,0x3705f	 x18=0x3705f000
         605000	        59	800000cc	c9990913	addi	x18,x18,-871	 x18:0x3705f000 x18=0x3705ec99
         615000	        60	800000d0	800009b7	lui	x19,0x80000	 x19=0x80000000
         625000	        61	800000d4	00000a13	addi	x20,x0,0	  x0:0x00000000 x20=0x00000000
         635000	        62	800000d8	80000ab7	lui	x21,0x80000	 x21=0x80000000
         645000	        63	800000dc	fca02b37	lui	x22,0xfca02	 x22=0xfca02000
         655000	        64	800000e0	ae7b0b13	addi	x22,x22,-1305	 x22:0xfca02000 x22=0xfca01ae7
         665000	        65	800000e4	00900b93	addi	x23,x0,9	  x0:0x00000000 x23=0x00000009
         675000	        66	800000e8	fe688c37	lui	x24,0xfe688	 x24=0xfe688000
         685000	        67	800000ec	ba4c0c13	addi	x24,x24,-1116	 x24:0xfe688000 x24=0xfe687ba4
         695000	        68	800000f0	80000cb7	lui	x25,0x80000	 x25=0x80000000
         705000	        69	800000f4	10547db7	lui	x27,0x10547	 x27=0x10547000
         715000	        70	800000f8	2ebd8d93	addi	x27,x27,747	 x27:0x10547000 x27=0x105472eb
         725000	        71	800000fc	ff121e37	lui	x28,0xff121	 x28=0xff121000
         735000	        72	80000100	51be0e13	addi	x28,x28,1307	 x28:0xff121000 x28=0xff12151b
         745000	        73	80000104	afeb1eb7	lui	x29,0xafeb1	 x29=0xafeb1000
         755000	        74	80000108	8ade8e93	addi	x29,x29,-1875	 x29:0xafeb1000 x29=0xafeb08ad
         765000	        75	8000010c	80000f37	lui	x30,0x80000	 x30=0x80000000
         775000	        76	80000110	00800f93	addi	x31,x0,8	  x0:0x00000000 x31=0x00000008
         785000	        77	80000114	0000ad17	auipc	x26,0xa	 x26=0x8000a110
         795000	        78	80000118	e74d0d13	addi	x26,x26,-396	 x26:0x8000a110 x26=0x80009f84
         805000	        79	8000011c	00000013	addi	x0,x0,0	  x0:0x00000000
         815000	        80	80000120	00004917	auipc	x18,0x4	 x18=0x8000411c
         825000	        81	80000124	f7090913	addi	x18,x18,-144	 x18:0x8000411c x18=0x8000408c
         835000	        82	80000128	466a2493	slti	x9,x20,1126	 x20:0x00000000  x9=0x00000001
         845000	        83	8000012c	c9c07b93	andi	x23,x0,-868	  x0:0x00000000 x23=0x00000000
         855000	        84	80000130	01650fb3	add	x31,x10,x22	 x10:0x7e4cc965 x22:0xfca01ae7 x31=0x7aece44c
         865000	        85	80000134	013b09b3	add	x19,x22,x19	 x22:0xfca01ae7 x19:0x80000000 x19=0x7ca01ae7
         875000	        86	80000138	01e2bbb3	sltu	x23,x5,x30	  x5:0xf368c474 x30:0x80000000 x23=0x00000000
         885000	        87	8000013c	01f59a13	slli	x20,x11,0x1f	 x11:0x65012fab x20=0x80000000
         895000	        88	80000140	b13af393	andi	x7,x21,-1261	 x21:0x80000000  x7=0x80000000
         905000	        89	80000144	35190913	addi	x18,x18,849	 x18:0x8000408c x18=0x800043dd
         915000	        90	80000148	01c0f2b3	and	x5,x1,x28	  x1:0x80000000 x28:0xff12151b  x5=0x80000000
         925000	        91	8000014c	005811b3	sll	x3,x16,x5	 x16:0x80000000  x5:0x80000000  x3=0x80000000
         935000	        92	80000150	cb090367	jalr	x6,x18,-848	 x18:0x800043dd  x6=0x80000150
         945000	        93	00000000	00000013	addi	x0,x0,0	  x0:0x00000000
         955000	        94	8000408c	00000013	addi	x0,x0,0	  x0:0x00000000
         965000	        95	80004090	002dc833	xor	x16,x27,x2	 x27:0x105472eb  x2:0x00000000 x16=0x105472eb
         975000	        96	80004094	0079d463	bge	x19,x7,8000409c	 x19:0x7ca01ae7  x7:0x80000000
         985000	        97	00000000	00000013	addi	x0,x0,0	  x0:0x00000000
         995000	        98	80004098	00000013	addi	x0,x0,0	  x0:0x00000000
        1005000	        99	8000409c	ff4d0d13	addi	x26,x26,-12	 x26:0x80009f84 x26=0x80009f78
        1015000	       100	800040a0	006d2223	sw	x6,4(x26)	 x26:0x80009f78  x6:0x80000150 PA:0x80009f7c
        1025000	       101	800040a4	017701b3	add	x3,x14,x23	 x14:0x00000000 x23:0x00000000  x3=0x00000000
        1035000	       102	800040a8	00ac2633	slt	x12,x24,x10	 x24:0xfe687ba4 x10:0x7e4cc965 x12=0x00000001
        1045000	       103	800040ac	417a5b33	sra	x22,x20,x23	 x20:0x80000000 x23:0x00000000 x22=0x80000000
        1055000	       104	800040b0	40a48933	sub	x18,x9,x10	  x9:0x00000001 x10:0x7e4cc965 x18=0x81b3369c
        1065000	       105	800040b4	fffffb97	auipc	x23,0xfffff	 x23=0x800030b0
        1075000	       106	800040b8	d6cb8b93	addi	x23,x23,-660	 x23:0x800030b0 x23=0x80002e1c
        1085000	       107	800040bc	014fcdb3	xor	x27,x31,x20	 x31:0x7aece44c x20:0x80000000 x27=0xfaece44c
        1095000	       108	800040c0	9ac87393	andi	x7,x16,-1620	 x16:0x105472eb  x7=0x105470a8
        1105000	       109	800040c4	00755513	srli	x10,x10,0x7	 x10:0x7e4cc965 x10=0x00fc9992
        1115000	       110	800040c8	056b8b93	addi	x23,x23,86	 x23:0x80002e1c x23=0x80002e72
        1125000	       111	800040cc	00000013	addi	x0,x0,0	  x0:0x00000000
        1135000	       112	800040d0	eee48013	addi	x0,x9,-274	  x9:0x00000001
        1145000	       113	800040d4	00b90463	beq	x18,x11,800040dc	 x18:0x81b3369c x11:0x65012fab
        1155000	       114	800040d8	0181fcb3	and	x25,x3,x24	  x3:0x00000000 x24:0xfe687ba4 x25=0x00000000
        1165000	       115	800040dc	fabb8367	jalr	x6,x23,-85	 x23:0x80002e72  x6=0x800040dc
        1175000	       116	00000000	00000013	addi	x0,x0,0	  x0:0x00000000
        1185000	       117	80002e1c	00000013	addi	x0,x0,0	  x0:0x00000000
        1195000	       118	80002e20	00ad4263	blt	x26,x10,80002e24	 x26:0x80009f78 x10:0x00fc9992
        1205000	       119	00000000	00000013	addi	x0,x0,0	  x0:0x00000000
        1215000	       120	80002e20	00000013	addi	x0,x0,0	  x0:0x00000000
        1225000	       121	80002e24	fe4d0d13	addi	x26,x26,-28	 x26:0x80009f78 x26=0x80009f5c
        1235000	       122	80002e28	65636213	ori	x4,x6,1622	  x6:0x800040dc  x4=0x800046de
        1245000	       123	80002e2c	907c0613	addi	x12,x24,-1785	 x24:0xfe687ba4 x12=0xfe6874ab
        1255000	       124	80002e30	01f7f033	and	x0,x15,x31	 x15:0xf573b7aa x31:0x7aece44c
        1265000	       125	80002e34	49877f37	lui	x30,0x49877	 x30=0x49877000
        1275000	       126	80002e38	006d2223	sw	x6,4(x26)	 x26:0x80009f5c  x6:0x800040dc PA:0x80009f60
        1285000	       127	80002e3c	42dd3113	sltiu	x2,x26,1069	 x26:0x80009f5c  x2=0x00000000
        1295000	       128	80002e40	013f5b93	srli	x23,x30,0x13	 x30:0x49877000 x23=0x00000930
        1305000	       129	80002e44	14a54413	xori	x8,x10,330	 x10:0x00fc9992  x8=0x00fc98d8
        1315000	       130	80002e48	015b53b3	srl	x7,x22,x21	 x22:0x80000000 x21:0x80000000  x7=0x80000000
        1325000	       131	80002e4c	2f75b313	sltiu	x6,x11,759	 x11:0x65012fab  x6=0x00000000
        1335000	       132	80002e50	00fb66b3	or	x13,x22,x15	 x22:0x80000000 x15:0xf573b7aa x13=0xf573b7aa
        1345000	       133	80002e54	00e184b3	add	x9,x3,x14	  x3:0x00000000 x14:0x00000000  x9=0x00000000
        1355000	       134	80002e58	00d5c863	blt	x11,x13,80002e68	 x11:0x65012fab x13:0xf573b7aa
        1365000	       135	80002e5c	4130d633	sra	x12,x1,x19	  x1:0x80000000 x19:0x7ca01ae7 x12=0xff000000
        1375000	       136	80002e60	40745a13	srai	x20,x8,0x7	  x8:0x00fc98d8 x20=0x0001f931
        1385000	       137	80002e64	4104d713	srai	x14,x9,0x10	  x9:0x00000000 x14=0x00000000
        1395000	       138	80002e68	904fe36f	jal	x6,80002e68	  x6=0x80002e68
        1405000	       139	00000000	00000013	addi	x0,x0,0	  x0:0x00000000
        1415000	       140	80000f68	00000013	addi	x0,x0,0	  x0:0x00000000
        1425000	       141	80000f6c	fd0d0d13	addi	x26,x26,-48	 x26:0x80009f5c x26=0x80009f2c
        1435000	       142	80000f70	8a6ae913	ori	x18,x21,-1882	 x21:0x80000000 x18=0xfffff8a6
        1445000	       143	80000f74	01345293	srli	x5,x8,0x13	  x8:0x00fc98d8  x5=0x0000001f
        1455000	       144	80000f78	006d2223	sw	x6,4(x26)	 x26:0x80009f2c  x6:0x80002e68 PA:0x80009f30
        1465000	       145	80000f7c	01c5c733	xor	x14,x11,x28	 x11:0x65012fab x28:0xff12151b x14=0x9a133ab0
        1475000	       146	80000f80	0100036f	jal	x6,80000f80	  x6=0x80000f80
        1485000	       147	00000000	00000013	addi	x0,x0,0	  x0:0x00000000
        1495000	       148	80000f8c	00000013	addi	x0,x0,0	  x0:0x00000000
        1505000	       149	80000f90	0140036f	jal	x6,80000f90	  x6=0x80000f90
        1515000	       150	00000000	00000013	addi	x0,x0,0	  x0:0x00000000
        1525000	       151	80000fa0	00000013	addi	x0,x0,0	  x0:0x00000000
        1535000	       152	80000fa4	ff5ff0ef	jal	x1,80000fa4	  x1=0x80000fa4
        1545000	       153	00000000	00000013	addi	x0,x0,0	  x0:0x00000000
        1555000	       154	80000f94	00000013	addi	x0,x0,0	  x0:0x00000000
        1565000	       155	80000f98	ff5ff2ef	jal	x5,80000f98	  x5=0x80000f98
        1575000	       156	00000000	00000013	addi	x0,x0,0	  x0:0x00000000
        1585000	       157	80000f88	00000013	addi	x0,x0,0	  x0:0x00000000
        1595000	       158	80000f8c	01c004ef	jal	x9,80000f8c	  x9=0x80000f8c
        1605000	       159	00000000	00000013	addi	x0,x0,0	  x0:0x00000000
        1615000	       160	80000fa4	00000013	addi	x0,x0,0	  x0:0x00000000
        1625000	       161	80000fa8	ff9ff0ef	jal	x1,80000fa8	  x1=0x80000fa8
        1635000	       162	00000000	00000013	addi	x0,x0,0	  x0:0x00000000
        1645000	       163	80000f9c	00000013	addi	x0,x0,0	  x0:0x00000000
        1655000	       164	80000fa0	fe5ff0ef	jal	x1,80000fa0	  x1=0x80000fa0
        1665000	       165	00000000	00000013	addi	x0,x0,0	  x0:0x00000000
        1675000	       166	80000f80	00000013	addi	x0,x0,0	  x0:0x00000000
        1685000	       167	80000f84	0100036f	jal	x6,80000f84	  x6=0x80000f84
        1695000	       168	00000000	00000013	addi	x0,x0,0	  x0:0x00000000
        1705000	       169	80000f90	00000013	addi	x0,x0,0	  x0:0x00000000
        1715000	       170	80000f94	ff5ff36f	jal	x6,80000f94	  x6=0x80000f94
        1725000	       171	00000000	00000013	addi	x0,x0,0	  x0:0x00000000
        1735000	       172	80000f84	00000013	addi	x0,x0,0	  x0:0x00000000
        1745000	       173	80000f88	0140036f	jal	x6,80000f88	  x6=0x80000f88
        1755000	       174	00000000	00000013	addi	x0,x0,0	  x0:0x00000000
        1765000	       175	80000f98	00000013	addi	x0,x0,0	  x0:0x00000000
        1775000	       176	80000f9c	010000ef	jal	x1,80000f9c	  x1=0x80000f9c
        1785000	       177	00000000	00000013	addi	x0,x0,0	  x0:0x00000000
        1795000	       178	80000fa8	00000013	addi	x0,x0,0	  x0:0x00000000
        1805000	       179	80000fac	0040016f	jal	x2,80000fac	  x2=0x80000fac
        1815000	       180	00000000	00000013	addi	x0,x0,0	  x0:0x00000000
        1825000	       181	80000fac	00000013	addi	x0,x0,0	  x0:0x00000000
        1835000	       182	80000fb0	0048b2b3	sltu	x5,x17,x4	 x17:0x80009fc4  x4:0x800046de  x5=0x00000000
        1845000	       183	80000fb4	06c0036f	jal	x6,80000fb4	  x6=0x80000fb4
        1855000	       184	00000000	00000013	addi	x0,x0,0	  x0:0x00000000
        1865000	       185	8000101c	00000013	addi	x0,x0,0	  x0:0x00000000
        1875000	       186	80001020	fe5ff66f	jal	x12,80001020	 x12=0x80001020
        1885000	       187	00000000	00000013	addi	x0,x0,0	  x0:0x00000000
        1895000	       188	80001000	00000013	addi	x0,x0,0	  x0:0x00000000
        1905000	       189	80001004	fbdff36f	jal	x6,80001004	  x6=0x80001004
        1915000	       190	00000000	00000013	addi	x0,x0,0	  x0:0x00000000
        1925000	       191	80000fbc	00000013	addi	x0,x0,0	  x0:0x00000000
        1935000	       192	80000fc0	05c005ef	jal	x11,80000fc0	 x11=0x80000fc0
        1945000	       193	00000000	00000013	addi	x0,x0,0	  x0:0x00000000
        1955000	       194	80001018	00000013	addi	x0,x0,0	  x0:0x00000000
        1965000	       195	8000101c	fadff36f	jal	x6,8000101c	  x6=0x8000101c
        1975000	       196	00000000	00000013	addi	x0,x0,0	  x0:0x00000000
        1985000	       197	80000fc4	00000013	addi	x0,x0,0	  x0:0x00000000
        1995000	       198	80000fc8	030000ef	jal	x1,80000fc8	  x1=0x80000fc8
        2005000	       199	00000000	00000013	addi	x0,x0,0	  x0:0x00000000
        2015000	       200	80000ff4	00000013	addi	x0,x0,0	  x0:0x00000000
        2025000	       201	80000ff8	ffdff36f	jal	x6,80000ff8	  x6=0x80000ff8
        2035000	       202	00000000	00000013	addi	x0,x0,0	  x0:0x00000000
        2045000	       203	80000ff0	00000013	addi	x0,x0,0	  x0:0x00000000
        2055000	       204	80000ff4	ff5ff0ef	jal	x1,80000ff4	  x1=0x80000ff4
        2065000	       205	00000000	00000013	addi	x0,x0,0	  x0:0x00000000
        2075000	       206	80000fe4	00000013	addi	x0,x0,0	  x0:0x00000000
        2085000	       207	80000fe8	ff9ffb6f	jal	x22,80000fe8	 x22=0x80000fe8
        2095000	       208	00000000	00000013	addi	x0,x0,0	  x0:0x00000000
        2105000	       209	80000fdc	00000013	addi	x0,x0,0	  x0:0x00000000
        2115000	       210	80000fe0	fe5ff0ef	jal	x1,80000fe0	  x1=0x80000fe0
        2125000	       211	00000000	00000013	addi	x0,x0,0	  x0:0x00000000
        2135000	       212	80000fc0	00000013	addi	x0,x0,0	  x0:0x00000000
        2145000	       213	80000fc4	038000ef	jal	x1,80000fc4	  x1=0x80000fc4
        2155000	       214	00000000	00000013	addi	x0,x0,0	  x0:0x00000000
        2165000	       215	80000ff8	00000013	addi	x0,x0,0	  x0:0x00000000
        2175000	       216	80000ffc	01800f6f	jal	x30,80000ffc	 x30=0x80000ffc
        2185000	       217	00000000	00000013	addi	x0,x0,0	  x0:0x00000000
        2195000	       218	80001010	00000013	addi	x0,x0,0	  x0:0x00000000
        2205000	       219	80001014	fa5ff3ef	jal	x7,80001014	  x7=0x80001014
        2215000	       220	00000000	00000013	addi	x0,x0,0	  x0:0x00000000
        2225000	       221	80000fb4	00000013	addi	x0,x0,0	  x0:0x00000000
        2235000	       222	80000fb8	004000ef	jal	x1,80000fb8	  x1=0x80000fb8
        2245000	       223	00000000	00000013	addi	x0,x0,0	  x0:0x00000000
        2255000	       224	80000fb8	00000013	addi	x0,x0,0	  x0:0x00000000
        2265000	       225	80000fbc	0180036f	jal	x6,80000fbc	  x6=0x80000fbc
        2275000	       226	00000000	00000013	addi	x0,x0,0	  x0:0x00000000
        2285000	       227	80000fd0	00000013	addi	x0,x0,0	  x0:0x00000000
        2295000	       228	80000fd4	0440036f	jal	x6,80000fd4	  x6=0x80000fd4
        2305000	       229	00000000	00000013	addi	x0,x0,0	  x0:0x00000000
        2315000	       230	80001014	00000013	addi	x0,x0,0	  x0:0x00000000
        2325000	       231	80001018	fc1ff26f	jal	x4,80001018	  x4=0x80001018
        2335000	       232	00000000	00000013	addi	x0,x0,0	  x0:0x00000000
        2345000	       233	80000fd4	00000013	addi	x0,x0,0	  x0:0x00000000
        2355000	       234	80000fd8	0140076f	jal	x14,80000fd8	 x14=0x80000fd8
        2365000	       235	00000000	00000013	addi	x0,x0,0	  x0:0x00000000
        2375000	       236	80000fe8	00000013	addi	x0,x0,0	  x0:0x00000000
        2385000	       237	80000fec	ff1ff0ef	jal	x1,80000fec	  x1=0x80000fec
        2395000	       238	00000000	00000013	addi	x0,x0,0	  x0:0x00000000
        2405000	       239	80000fd8	00000013	addi	x0,x0,0	  x0:0x00000000
        2415000	       240	80000fdc	0140036f	jal	x6,80000fdc	  x6=0x80000fdc
        2425000	       241	00000000	00000013	addi	x0,x0,0	  x0:0x00000000
        2435000	       242	80000fec	00000013	addi	x0,x0,0	  x0:0x00000000
        2445000	       243	80000ff0	020000ef	jal	x1,80000ff0	  x1=0x80000ff0
        2455000	       244	00000000	00000013	addi	x0,x0,0	  x0:0x00000000
        2465000	       245	8000100c	00000013	addi	x0,x0,0	  x0:0x00000000
        2475000	       246	80001010	ffdff6ef	jal	x13,80001010	 x13=0x80001010
        2485000	       247	00000000	00000013	addi	x0,x0,0	  x0:0x00000000
        2495000	       248	80001008	00000013	addi	x0,x0,0	  x0:0x00000000
        2505000	       249	8000100c	ffdff0ef	jal	x1,8000100c	  x1=0x8000100c
        2515000	       250	00000000	00000013	addi	x0,x0,0	  x0:0x00000000
        2525000	       251	80001004	00000013	addi	x0,x0,0	  x0:0x00000000
        2535000	       252	80001008	fc9ffbef	jal	x23,80001008	 x23=0x80001008
        2545000	       253	00000000	00000013	addi	x0,x0,0	  x0:0x00000000
        2555000	       254	80000fcc	00000013	addi	x0,x0,0	  x0:0x00000000
        2565000	       255	80000fd0	030000ef	jal	x1,80000fd0	  x1=0x80000fd0
        2575000	       256	00000000	00000013	addi	x0,x0,0	  x0:0x00000000
        2585000	       257	80000ffc	00000013	addi	x0,x0,0	  x0:0x00000000
        2595000	       258	80001000	fe5ff26f	jal	x4,80001000	  x4=0x80001000
        2605000	       259	00000000	00000013	addi	x0,x0,0	  x0:0x00000000
        2615000	       260	80000fe0	00000013	addi	x0,x0,0	  x0:0x00000000
        2625000	       261	80000fe4	fe9ff76f	jal	x14,80000fe4	 x14=0x80000fe4
        2635000	       262	00000000	00000013	addi	x0,x0,0	  x0:0x00000000
        2645000	       263	80000fc8	00000013	addi	x0,x0,0	  x0:0x00000000
        2655000	       264	80000fcc	0580036f	jal	x6,80000fcc	  x6=0x80000fcc
        2665000	       265	00000000	00000013	addi	x0,x0,0	  x0:0x00000000
        2675000	       266	80001020	00000013	addi	x0,x0,0	  x0:0x00000000
        2685000	       267	80001024	016466b3	or	x13,x8,x22	  x8:0x00fc98d8 x22:0x80000fe8 x13=0x80fc9ff8
        2695000	       268	80001028	0180036f	jal	x6,80001028	  x6=0x80001028
        2705000	       269	00000000	00000013	addi	x0,x0,0	  x0:0x00000000
        2715000	       270	8000103c	00000013	addi	x0,x0,0	  x0:0x00000000
        2725000	       271	80001040	004000ef	jal	x1,80001040	  x1=0x80001040
        2735000	       272	00000000	00000013	addi	x0,x0,0	  x0:0x00000000
        2745000	       273	80001040	00000013	addi	x0,x0,0	  x0:0x00000000
        2755000	       274	80001044	fe9ff0ef	jal	x1,80001044	  x1=0x80001044
        2765000	       275	00000000	00000013	addi	x0,x0,0	  x0:0x00000000
        2775000	       276	80001028	00000013	addi	x0,x0,0	  x0:0x00000000
        2785000	       277	8000102c	0080026f	jal	x4,8000102c	  x4=0x8000102c
        2795000	       278	00000000	00000013	addi	x0,x0,0	  x0:0x00000000
        2805000	       279	80001030	00000013	addi	x0,x0,0	  x0:0x00000000
        2815000	       280	80001034	008000ef	jal	x1,80001034	  x1=0x80001034
        2825000	       281	00000000	00000013	addi	x0,x0,0	  x0:0x00000000
        2835000	       282	80001038	00000013	addi	x0,x0,0	  x0:0x00000000
        2845000	       283	8000103c	00c000ef	jal	x1,8000103c	  x1=0x8000103c
        2855000	       284	00000000	00000013	addi	x0,x0,0	  x0:0x00000000
        2865000	       285	80001044	00000013	addi	x0,x0,0	  x0:0x00000000
        2875000	       286	80001048	008000ef	jal	x1,80001048	  x1=0x80001048
        2885000	       287	00000000	00000013	addi	x0,x0,0	  x0:0x00000000
        2895000	       288	8000104c	00000013	addi	x0,x0,0	  x0:0x00000000
        2905000	       289	80001050	ffdff0ef	jal	x1,80001050	  x1=0x80001050
        2915000	       290	00000000	00000013	addi	x0,x0,0	  x0:0x00000000
        2925000	       291	80001048	00000013	addi	x0,x0,0	  x0:0x00000000
        2935000	       292	8000104c	fedff0ef	jal	x1,8000104c	  x1=0x8000104c
        2945000	       293	00000000	00000013	addi	x0,x0,0	  x0:0x00000000
        2955000	       294	80001034	00000013	addi	x0,x0,0	  x0:0x00000000
        2965000	       295	80001038	ff9ff0ef	jal	x1,80001038	  x1=0x80001038
        2975000	       296	00000000	00000013	addi	x0,x0,0	  x0:0x00000000
        2985000	       297	8000102c	00000013	addi	x0,x0,0	  x0:0x00000000
        2995000	       298	80001030	024000ef	jal	x1,80001030	  x1=0x80001030
        3005000	       299	00000000	00000013	addi	x0,x0,0	  x0:0x00000000
        3015000	       300	80001050	00000013	addi	x0,x0,0	  x0:0x00000000
        3025000	       301	80001054	5ab58193	addi	x3,x11,1451	 x11:0x80000fc0  x3=0x8000156b
        3035000	       302	80001058	0180036f	jal	x6,80001058	  x6=0x80001058
        3045000	       303	00000000	00000013	addi	x0,x0,0	  x0:0x00000000
        3055000	       304	8000106c	00000013	addi	x0,x0,0	  x0:0x00000000
        3065000	       305	80001070	048000ef	jal	x1,80001070	  x1=0x80001070
        3075000	       306	00000000	00000013	addi	x0,x0,0	  x0:0x00000000
        3085000	       307	800010b4	00000013	addi	x0,x0,0	  x0:0x00000000
        3095000	       308	800010b8	ffdff26f	jal	x4,800010b8	  x4=0x800010b8
        3105000	       309	00000000	00000013	addi	x0,x0,0	  x0:0x00000000
        3115000	       310	800010b0	00000013	addi	x0,x0,0	  x0:0x00000000
        3125000	       311	800010b4	fd5ff36f	jal	x6,800010b4	  x6=0x800010b4
        3135000	       312	00000000	00000013	addi	x0,x0,0	  x0:0x00000000
        3145000	       313	80001084	00000013	addi	x0,x0,0	  x0:0x00000000
        3155000	       314	80001088	020002ef	jal	x5,80001088	  x5=0x80001088
        3165000	       315	00000000	00000013	addi	x0,x0,0	  x0:0x00000000
        3175000	       316	800010a4	00000013	addi	x0,x0,0	  x0:0x00000000
        3185000	       317	800010a8	fedff0ef	jal	x1,800010a8	  x1=0x800010a8
        3195000	       318	00000000	00000013	addi	x0,x0,0	  x0:0x00000000
        3205000	       319	80001090	00000013	addi	x0,x0,0	  x0:0x00000000
        3215000	       320	80001094	fd5ff0ef	jal	x1,80001094	  x1=0x80001094
        3225000	       321	00000000	00000013	addi	x0,x0,0	  x0:0x00000000
        3235000	       322	80001064	00000013	addi	x0,x0,0	  x0:0x00000000
        3245000	       323	80001068	ffdff0ef	jal	x1,80001068	  x1=0x80001068
        3255000	       324	00000000	00000013	addi	x0,x0,0	  x0:0x00000000
        3265000	       325	80001060	00000013	addi	x0,x0,0	  x0:0x00000000
        3275000	       326	80001064	010000ef	jal	x1,80001064	  x1=0x80001064
        3285000	       327	00000000	00000013	addi	x0,x0,0	  x0:0x00000000
        3295000	       328	80001070	00000013	addi	x0,x0,0	  x0:0x00000000
        3305000	       329	80001074	fe9ff1ef	jal	x3,80001074	  x3=0x80001074
        3315000	       330	00000000	00000013	addi	x0,x0,0	  x0:0x00000000
        3325000	       331	80001058	00000013	addi	x0,x0,0	  x0:0x00000000
        3335000	       332	8000105c	030000ef	jal	x1,8000105c	  x1=0x8000105c
        3345000	       333	00000000	00000013	addi	x0,x0,0	  x0:0x00000000
        3355000	       334	80001088	00000013	addi	x0,x0,0	  x0:0x00000000
        3365000	       335	8000108c	018000ef	jal	x1,8000108c	  x1=0x8000108c
        3375000	       336	00000000	00000013	addi	x0,x0,0	  x0:0x00000000
        3385000	       337	800010a0	00000013	addi	x0,x0,0	  x0:0x00000000
        3395000	       338	800010a4	01c0036f	jal	x6,800010a4	  x6=0x800010a4
        3405000	       339	00000000	00000013	addi	x0,x0,0	  x0:0x00000000
        3415000	       340	800010bc	00000013	addi	x0,x0,0	  x0:0x00000000
        3425000	       341	800010c0	fb9ff0ef	jal	x1,800010c0	  x1=0x800010c0
        3435000	       342	00000000	00000013	addi	x0,x0,0	  x0:0x00000000
        3445000	       343	80001074	00000013	addi	x0,x0,0	  x0:0x00000000
        3455000	       344	80001078	fe9ff0ef	jal	x1,80001078	  x1=0x80001078
        3465000	       345	00000000	00000013	addi	x0,x0,0	  x0:0x00000000
        3475000	       346	8000105c	00000013	addi	x0,x0,0	  x0:0x00000000
        3485000	       347	80001060	03c000ef	jal	x1,80001060	  x1=0x80001060
        3495000	       348	00000000	00000013	addi	x0,x0,0	  x0:0x00000000
        3505000	       349	80001098	00000013	addi	x0,x0,0	  x0:0x00000000
        3515000	       350	8000109c	ff5ff36f	jal	x6,8000109c	  x6=0x8000109c
        3525000	       351	00000000	00000013	addi	x0,x0,0	  x0:0x00000000
        3535000	       352	8000108c	00000013	addi	x0,x0,0	  x0:0x00000000
        3545000	       353	80001090	03400aef	jal	x21,80001090	 x21=0x80001090
        3555000	       354	00000000	00000013	addi	x0,x0,0	  x0:0x00000000
        3565000	       355	800010c0	00000013	addi	x0,x0,0	  x0:0x00000000
        3575000	       356	800010c4	fb9ff0ef	jal	x1,800010c4	  x1=0x800010c4
        3585000	       357	00000000	00000013	addi	x0,x0,0	  x0:0x00000000
        3595000	       358	80001078	00000013	addi	x0,x0,0	  x0:0x00000000
        3605000	       359	8000107c	050000ef	jal	x1,8000107c	  x1=0x8000107c
        3615000	       360	00000000	00000013	addi	x0,x0,0	  x0:0x00000000
        3625000	       361	800010c8	00000013	addi	x0,x0,0	  x0:0x00000000
        3635000	       362	800010cc	fa1ff0ef	jal	x1,800010cc	  x1=0x800010cc
        3645000	       363	00000000	00000013	addi	x0,x0,0	  x0:0x00000000
        3655000	       364	80001068	00000013	addi	x0,x0,0	  x0:0x00000000
        3665000	       365	8000106c	0500036f	jal	x6,8000106c	  x6=0x8000106c
        3675000	       366	00000000	00000013	addi	x0,x0,0	  x0:0x00000000
        3685000	       367	800010b8	00000013	addi	x0,x0,0	  x0:0x00000000
        3695000	       368	800010bc	ff1ffe6f	jal	x28,800010bc	 x28=0x800010bc
        3705000	       369	00000000	00000013	addi	x0,x0,0	  x0:0x00000000
        3715000	       370	800010a8	00000013	addi	x0,x0,0	  x0:0x00000000
        3725000	       371	800010ac	fd9ff0ef	jal	x1,800010ac	  x1=0x800010ac
        3735000	       372	00000000	00000013	addi	x0,x0,0	  x0:0x00000000
        3745000	       373	80001080	00000013	addi	x0,x0,0	  x0:0x00000000
        3755000	       374	80001084	04c005ef	jal	x11,80001084	 x11=0x80001084
        3765000	       375	00000000	00000013	addi	x0,x0,0	  x0:0x00000000
        3775000	       376	800010cc	00000013	addi	x0,x0,0	  x0:0x00000000
        3785000	       377	800010d0	ff9ff0ef	jal	x1,800010d0	  x1=0x800010d0
        3795000	       378	00000000	00000013	addi	x0,x0,0	  x0:0x00000000
        3805000	       379	800010c4	00000013	addi	x0,x0,0	  x0:0x00000000
        3815000	       380	800010c8	fd9ff4ef	jal	x9,800010c8	  x9=0x800010c8
        3825000	       381	00000000	00000013	addi	x0,x0,0	  x0:0x00000000
        3835000	       382	8000109c	00000013	addi	x0,x0,0	  x0:0x00000000
        3845000	       383	800010a0	010000ef	jal	x1,800010a0	  x1=0x800010a0
        3855000	       384	00000000	00000013	addi	x0,x0,0	  x0:0x00000000
        3865000	       385	800010ac	00000013	addi	x0,x0,0	  x0:0x00000000
        3875000	       386	800010b0	fd1ff0ef	jal	x1,800010b0	  x1=0x800010b0
        3885000	       387	00000000	00000013	addi	x0,x0,0	  x0:0x00000000
        3895000	       388	8000107c	00000013	addi	x0,x0,0	  x0:0x00000000
        3905000	       389	80001080	018000ef	jal	x1,80001080	  x1=0x80001080
        3915000	       390	00000000	00000013	addi	x0,x0,0	  x0:0x00000000
        3925000	       391	80001094	00000013	addi	x0,x0,0	  x0:0x00000000
        3935000	       392	80001098	03c000ef	jal	x1,80001098	  x1=0x80001098
        3945000	       393	00000000	00000013	addi	x0,x0,0	  x0:0x00000000
        3955000	       394	800010d0	00000013	addi	x0,x0,0	  x0:0x00000000
        3965000	       395	800010d4	f4f08d93	addi	x27,x1,-177	  x1:0x80001098 x27=0x80000fe7
        3975000	       396	800010d8	0580036f	jal	x6,800010d8	  x6=0x800010d8
        3985000	       397	00000000	00000013	addi	x0,x0,0	  x0:0x00000000
        3995000	       398	8000112c	00000013	addi	x0,x0,0	  x0:0x00000000
        4005000	       399	80001130	ffdff26f	jal	x4,80001130	  x4=0x80001130
        4015000	       400	00000000	00000013	addi	x0,x0,0	  x0:0x00000000
        4025000	       401	80001128	00000013	addi	x0,x0,0	  x0:0x00000000
        4035000	       402	8000112c	fd1ff0ef	jal	x1,8000112c	  x1=0x8000112c
        4045000	       403	00000000	00000013	addi	x0,x0,0	  x0:0x00000000
        4055000	       404	800010f8	00000013	addi	x0,x0,0	  x0:0x00000000
        4065000	       405	800010fc	02400def	jal	x27,800010fc	 x27=0x800010fc
        4075000	       406	00000000	00000013	addi	x0,x0,0	  x0:0x00000000
        4085000	       407	8000111c	00000013	addi	x0,x0,0	  x0:0x00000000
        4095000	       408	80001120	fe9ff66f	jal	x12,80001120	 x12=0x80001120
        4105000	       409	00000000	00000013	addi	x0,x0,0	  x0:0x00000000
        4115000	       410	80001104	00000013	addi	x0,x0,0	  x0:0x00000000
        4125000	       411	80001108	fedfffef	jal	x31,80001108	 x31=0x80001108
        4135000	       412	00000000	00000013	addi	x0,x0,0	  x0:0x00000000
        4145000	       413	800010f0	00000013	addi	x0,x0,0	  x0:0x00000000
        4155000	       414	800010f4	ff1ff0ef	jal	x1,800010f4	  x1=0x800010f4
        4165000	       415	00000000	00000013	addi	x0,x0,0	  x0:0x00000000
        4175000	       416	800010e0	00000013	addi	x0,x0,0	  x0:0x00000000
        4185000	       417	800010e4	0040036f	jal	x6,800010e4	  x6=0x800010e4
        4195000	       418	00000000	00000013	addi	x0,x0,0	  x0:0x00000000
        4205000	       419	800010e4	00000013	addi	x0,x0,0	  x0:0x00000000
        4215000	       420	800010e8	010000ef	jal	x1,800010e8	  x1=0x800010e8
        4225000	       421	00000000	00000013	addi	x0,x0,0	  x0:0x00000000
        4235000	       422	800010f4	00000013	addi	x0,x0,0	  x0:0x00000000
        4245000	       423	800010f8	02c0036f	jal	x6,800010f8	  x6=0x800010f8
        4255000	       424	00000000	00000013	addi	x0,x0,0	  x0:0x00000000
        4265000	       425	80001120	00000013	addi	x0,x0,0	  x0:0x00000000
        4275000	       426	80001124	fe1ffbef	jal	x23,80001124	 x23=0x80001124
        4285000	       427	00000000	00000013	addi	x0,x0,0	  x0:0x00000000
        4295000	       428	80001100	00000013	addi	x0,x0,0	  x0:0x00000000
        4305000	       429	80001104	0080026f	jal	x4,80001104	  x4=0x80001104
        4315000	       430	00000000	00000013	addi	x0,x0,0	  x0:0x00000000
        4325000	       431	80001108	00000013	addi	x0,x0,0	  x0:0x00000000
        4335000	       432	8000110c	fd5ff56f	jal	x10,8000110c	 x10=0x8000110c
        4345000	       433	00000000	00000013	addi	x0,x0,0	  x0:0x00000000
        4355000	       434	800010dc	00000013	addi	x0,x0,0	  x0:0x00000000
        4365000	       435	800010e0	038000ef	jal	x1,800010e0	  x1=0x800010e0
        4375000	       436	00000000	00000013	addi	x0,x0,0	  x0:0x00000000
        4385000	       437	80001114	00000013	addi	x0,x0,0	  x0:0x00000000
        4395000	       438	80001118	fc5ff0ef	jal	x1,80001118	  x1=0x80001118
        4405000	       439	00000000	00000013	addi	x0,x0,0	  x0:0x00000000
        4415000	       440	800010d8	00000013	addi	x0,x0,0	  x0:0x00000000
        4425000	       441	800010dc	0140036f	jal	x6,800010dc	  x6=0x800010dc
        4435000	       442	00000000	00000013	addi	x0,x0,0	  x0:0x00000000
        4445000	       443	800010ec	00000013	addi	x0,x0,0	  x0:0x00000000
        4455000	       444	800010f0	020000ef	jal	x1,800010f0	  x1=0x800010f0
        4465000	       445	00000000	00000013	addi	x0,x0,0	  x0:0x00000000
        4475000	       446	8000110c	00000013	addi	x0,x0,0	  x0:0x00000000
        4485000	       447	80001110	fddff0ef	jal	x1,80001110	  x1=0x80001110
        4495000	       448	00000000	00000013	addi	x0,x0,0	  x0:0x00000000
        4505000	       449	800010e8	00000013	addi	x0,x0,0	  x0:0x00000000
        4515000	       450	800010ec	03c000ef	jal	x1,800010ec	  x1=0x800010ec
        4525000	       451	00000000	00000013	addi	x0,x0,0	  x0:0x00000000
        4535000	       452	80001124	00000013	addi	x0,x0,0	  x0:0x00000000
        4545000	       453	80001128	ff5ff0ef	jal	x1,80001128	  x1=0x80001128
        4555000	       454	00000000	00000013	addi	x0,x0,0	  x0:0x00000000
        4565000	       455	80001118	00000013	addi	x0,x0,0	  x0:0x00000000
        4575000	       456	8000111c	ff9ff0ef	jal	x1,8000111c	  x1=0x8000111c
        4585000	       457	00000000	00000013	addi	x0,x0,0	  x0:0x00000000
        4595000	       458	80001110	00000013	addi	x0,x0,0	  x0:0x00000000
        4605000	       459	80001114	fedff0ef	jal	x1,80001114	  x1=0x80001114
        4615000	       460	00000000	00000013	addi	x0,x0,0	  x0:0x00000000
        4625000	       461	800010fc	00000013	addi	x0,x0,0	  x0:0x00000000
        4635000	       462	80001100	034000ef	jal	x1,80001100	  x1=0x80001100
        4645000	       463	00000000	00000013	addi	x0,x0,0	  x0:0x00000000
        4655000	       464	80001130	00000013	addi	x0,x0,0	  x0:0x00000000
        4665000	       465	80001134	41c2d1b3	sra	x3,x5,x28	  x5:0x80001088 x28:0x800010bc  x3=0xfffffff8
        4675000	       466	80001138	0200036f	jal	x6,80001138	  x6=0x80001138
        4685000	       467	00000000	00000013	addi	x0,x0,0	  x0:0x00000000
        4695000	       468	80001154	00000013	addi	x0,x0,0	  x0:0x00000000
        4705000	       469	80001158	04c000ef	jal	x1,80001158	  x1=0x80001158
        4715000	       470	00000000	00000013	addi	x0,x0,0	  x0:0x00000000
        4725000	       471	800011a0	00000013	addi	x0,x0,0	  x0:0x00000000
        4735000	       472	800011a4	fbdff0ef	jal	x1,800011a4	  x1=0x800011a4
        4745000	       473	00000000	00000013	addi	x0,x0,0	  x0:0x00000000
        4755000	       474	8000115c	00000013	addi	x0,x0,0	  x0:0x00000000
        4765000	       475	80001160	0480036f	jal	x6,80001160	  x6=0x80001160
        4775000	       476	00000000	00000013	addi	x0,x0,0	  x0:0x00000000
        4785000	       477	800011a4	00000013	addi	x0,x0,0	  x0:0x00000000
        4795000	       478	800011a8	fedff36f	jal	x6,800011a8	  x6=0x800011a8
        4805000	       479	00000000	00000013	addi	x0,x0,0	  x0:0x00000000
        4815000	       480	80001190	00000013	addi	x0,x0,0	  x0:0x00000000
        4825000	       481	80001194	ff9ff36f	jal	x6,80001194	  x6=0x80001194
        4835000	       482	00000000	00000013	addi	x0,x0,0	  x0:0x00000000
        4845000	       483	80001188	00000013	addi	x0,x0,0	  x0:0x00000000
        4855000	       484	8000118c	00c0046f	jal	x8,8000118c	  x8=0x8000118c
        4865000	       485	00000000	00000013	addi	x0,x0,0	  x0:0x00000000
        4875000	       486	80001194	00000013	addi	x0,x0,0	  x0:0x00000000
        4885000	       487	80001198	fbdff0ef	jal	x1,80001198	  x1=0x80001198
        4895000	       488	00000000	00000013	addi	x0,x0,0	  x0:0x00000000
        4905000	       489	80001150	00000013	addi	x0,x0,0	  x0:0x00000000
        4915000	       490	80001154	02c000ef	jal	x1,80001154	  x1=0x80001154
        4925000	       491	00000000	00000013	addi	x0,x0,0	  x0:0x00000000
        4935000	       492	8000117c	00000013	addi	x0,x0,0	  x0:0x00000000
        4945000	       493	80001180	0100016f	jal	x2,80001180	  x2=0x80001180
        4955000	       494	00000000	00000013	addi	x0,x0,0	  x0:0x00000000
        4965000	       495	8000118c	00000013	addi	x0,x0,0	  x0:0x00000000
        4975000	       496	80001190	fe9ff0ef	jal	x1,80001190	  x1=0x80001190
        4985000	       497	00000000	00000013	addi	x0,x0,0	  x0:0x00000000
        4995000	       498	80001174	00000013	addi	x0,x0,0	  x0:0x00000000
        5005000	       499	80001178	fd1ff0ef	jal	x1,80001178	  x1=0x80001178
        5015000	       500	00000000	00000013	addi	x0,x0,0	  x0:0x00000000
        5025000	       501	80001144	00000013	addi	x0,x0,0	  x0:0x00000000
        5035000	       502	80001148	040000ef	jal	x1,80001148	  x1=0x80001148
        5045000	       503	00000000	00000013	addi	x0,x0,0	  x0:0x00000000
        5055000	       504	80001184	00000013	addi	x0,x0,0	  x0:0x00000000
        5065000	       505	80001188	fe5ff0ef	jal	x1,80001188	  x1=0x80001188
        5075000	       506	00000000	00000013	addi	x0,x0,0	  x0:0x00000000
        5085000	       507	80001168	00000013	addi	x0,x0,0	  x0:0x00000000
        5095000	       508	8000116c	ff9ff36f	jal	x6,8000116c	  x6=0x8000116c
        5105000	       509	00000000	00000013	addi	x0,x0,0	  x0:0x00000000
        5115000	       510	80001160	00000013	addi	x0,x0,0	  x0:0x00000000
        5125000	       511	80001164	03c0036f	jal	x6,80001164	  x6=0x80001164
        5135000	       512	00000000	00000013	addi	x0,x0,0	  x0:0x00000000
        5145000	       513	8000119c	00000013	addi	x0,x0,0	  x0:0x00000000
        5155000	       514	800011a0	ffdff36f	jal	x6,800011a0	  x6=0x800011a0
        5165000	       515	00000000	00000013	addi	x0,x0,0	  x0:0x00000000
        5175000	       516	80001198	00000013	addi	x0,x0,0	  x0:0x00000000
        5185000	       517	8000119c	fb5ff0ef	jal	x1,8000119c	  x1=0x8000119c
        5195000	       518	00000000	00000013	addi	x0,x0,0	  x0:0x00000000
        5205000	       519	8000114c	00000013	addi	x0,x0,0	  x0:0x00000000
        5215000	       520	80001150	ff5ff36f	jal	x6,80001150	  x6=0x80001150
        5225000	       521	00000000	00000013	addi	x0,x0,0	  x0:0x00000000
        5235000	       522	80001140	00000013	addi	x0,x0,0	  x0:0x00000000
        5245000	       523	80001144	008000ef	jal	x1,80001144	  x1=0x80001144
        5255000	       524	00000000	00000013	addi	x0,x0,0	  x0:0x00000000
        5265000	       525	80001148	00000013	addi	x0,x0,0	  x0:0x00000000
        5275000	       526	8000114c	010000ef	jal	x1,8000114c	  x1=0x8000114c
        5285000	       527	00000000	00000013	addi	x0,x0,0	  x0:0x00000000
        5295000	       528	80001158	00000013	addi	x0,x0,0	  x0:0x00000000
        5305000	       529	8000115c	fe1ff0ef	jal	x1,8000115c	  x1=0x8000115c
        5315000	       530	00000000	00000013	addi	x0,x0,0	  x0:0x00000000
        5325000	       531	80001138	00000013	addi	x0,x0,0	  x0:0x00000000
        5335000	       532	8000113c	02c0016f	jal	x2,8000113c	  x2=0x8000113c
        5345000	       533	00000000	00000013	addi	x0,x0,0	  x0:0x00000000
        5355000	       534	80001164	00000013	addi	x0,x0,0	  x0:0x00000000
        5365000	       535	80001168	014000ef	jal	x1,80001168	  x1=0x80001168
        5375000	       536	00000000	00000013	addi	x0,x0,0	  x0:0x00000000
        5385000	       537	80001178	00000013	addi	x0,x0,0	  x0:0x00000000
        5395000	       538	8000117c	ff9ff0ef	jal	x1,8000117c	  x1=0x8000117c
        5405000	       539	00000000	00000013	addi	x0,x0,0	  x0:0x00000000
        5415000	       540	80001170	00000013	addi	x0,x0,0	  x0:0x00000000
        5425000	       541	80001174	fcdff36f	jal	x6,80001174	  x6=0x80001174
        5435000	       542	00000000	00000013	addi	x0,x0,0	  x0:0x00000000
        5445000	       543	8000113c	00000013	addi	x0,x0,0	  x0:0x00000000
        5455000	       544	80001140	0300036f	jal	x6,80001140	  x6=0x80001140
        5465000	       545	00000000	00000013	addi	x0,x0,0	  x0:0x00000000
        5475000	       546	8000116c	00000013	addi	x0,x0,0	  x0:0x00000000
        5485000	       547	80001170	014000ef	jal	x1,80001170	  x1=0x80001170
        5495000	       548	00000000	00000013	addi	x0,x0,0	  x0:0x00000000
        5505000	       549	80001180	00000013	addi	x0,x0,0	  x0:0x00000000
        5515000	       550	80001184	028000ef	jal	x1,80001184	  x1=0x80001184
        5525000	       551	00000000	00000013	addi	x0,x0,0	  x0:0x00000000
        5535000	       552	800011a8	00000013	addi	x0,x0,0	  x0:0x00000000
        5545000	       553	800011ac	40625633	sra	x12,x4,x6	  x4:0x80001104  x6:0x80001140 x12=0x80001104
        5555000	       554	800011b0	0340036f	jal	x6,800011b0	  x6=0x800011b0
        5565000	       555	00000000	00000013	addi	x0,x0,0	  x0:0x00000000
        5575000	       556	800011e0	00000013	addi	x0,x0,0	  x0:0x00000000
        5585000	       557	800011e4	00c000ef	jal	x1,800011e4	  x1=0x800011e4
        5595000	       558	00000000	00000013	addi	x0,x0,0	  x0:0x00000000
        5605000	       559	800011ec	00000013	addi	x0,x0,0	  x0:0x00000000
        5615000	       560	800011f0	01c000ef	jal	x1,800011f0	  x1=0x800011f0
        5625000	       561	00000000	00000013	addi	x0,x0,0	  x0:0x00000000
        5635000	       562	80001208	00000013	addi	x0,x0,0	  x0:0x00000000
        5645000	       563	8000120c	fbdff0ef	jal	x1,8000120c	  x1=0x8000120c
        5655000	       564	00000000	00000013	addi	x0,x0,0	  x0:0x00000000
        5665000	       565	800011c4	00000013	addi	x0,x0,0	  x0:0x00000000
        5675000	       566	800011c8	ff1ff16f	jal	x2,800011c8	  x2=0x800011c8
        5685000	       567	00000000	00000013	addi	x0,x0,0	  x0:0x00000000
        5695000	       568	800011b4	00000013	addi	x0,x0,0	  x0:0x00000000
        5705000	       569	800011b8	024000ef	jal	x1,800011b8	  x1=0x800011b8
        5715000	       570	00000000	00000013	addi	x0,x0,0	  x0:0x00000000
        5725000	       571	800011d8	00000013	addi	x0,x0,0	  x0:0x00000000
        5735000	       572	800011dc	ffdff36f	jal	x6,800011dc	  x6=0x800011dc
        5745000	       573	00000000	00000013	addi	x0,x0,0	  x0:0x00000000
        5755000	       574	800011d4	00000013	addi	x0,x0,0	  x0:0x00000000
        5765000	       575	800011d8	03000bef	jal	x23,800011d8	 x23=0x800011d8
        5775000	       576	00000000	00000013	addi	x0,x0,0	  x0:0x00000000
        5785000	       577	80001204	00000013	addi	x0,x0,0	  x0:0x00000000
        5795000	       578	80001208	fedff36f	jal	x6,80001208	  x6=0x80001208
        5805000	       579	00000000	00000013	addi	x0,x0,0	  x0:0x00000000
        5815000	       580	800011f0	00000013	addi	x0,x0,0	  x0:0x00000000
        5825000	       581	800011f4	fedff36f	jal	x6,800011f4	  x6=0x800011f4
        5835000	       582	00000000	00000013	addi	x0,x0,0	  x0:0x00000000
        5845000	       583	800011dc	00000013	addi	x0,x0,0	  x0:0x00000000
        5855000	       584	800011e0	0200036f	jal	x6,800011e0	  x6=0x800011e0
        5865000	       585	00000000	00000013	addi	x0,x0,0	  x0:0x00000000
        5875000	       586	800011fc	00000013	addi	x0,x0,0	  x0:0x00000000
        5885000	       587	80001200	fbdff0ef	jal	x1,80001200	  x1=0x80001200
        5895000	       588	00000000	00000013	addi	x0,x0,0	  x0:0x00000000
        5905000	       589	800011b8	00000013	addi	x0,x0,0	  x0:0x00000000
        5915000	       590	800011bc	030000ef	jal	x1,800011bc	  x1=0x800011bc
        5925000	       591	00000000	00000013	addi	x0,x0,0	  x0:0x00000000
        5935000	       592	800011e8	00000013	addi	x0,x0,0	  x0:0x00000000
        5945000	       593	800011ec	01000eef	jal	x29,800011ec	 x29=0x800011ec
        5955000	       594	00000000	00000013	addi	x0,x0,0	  x0:0x00000000
        5965000	       595	800011f8	00000013	addi	x0,x0,0	  x0:0x00000000
        5975000	       596	800011fc	0080056f	jal	x10,800011fc	 x10=0x800011fc
        5985000	       597	00000000	00000013	addi	x0,x0,0	  x0:0x00000000
        5995000	       598	80001200	00000013	addi	x0,x0,0	  x0:0x00000000
        6005000	       599	80001204	ff5ff0ef	jal	x1,80001204	  x1=0x80001204
        6015000	       600	00000000	00000013	addi	x0,x0,0	  x0:0x00000000
        6025000	       601	800011f4	00000013	addi	x0,x0,0	  x0:0x00000000
        6035000	       602	800011f8	fd5ff3ef	jal	x7,800011f8	  x7=0x800011f8
        6045000	       603	00000000	00000013	addi	x0,x0,0	  x0:0x00000000
        6055000	       604	800011c8	00000013	addi	x0,x0,0	  x0:0x00000000
        6065000	       605	800011cc	ff5ff0ef	jal	x1,800011cc	  x1=0x800011cc
        6075000	       606	00000000	00000013	addi	x0,x0,0	  x0:0x00000000
        6085000	       607	800011bc	00000013	addi	x0,x0,0	  x0:0x00000000
        6095000	       608	800011c0	ff5ff36f	jal	x6,800011c0	  x6=0x800011c0
        6105000	       609	00000000	00000013	addi	x0,x0,0	  x0:0x00000000
        6115000	       610	800011b0	00000013	addi	x0,x0,0	  x0:0x00000000
        6125000	       611	800011b4	0340036f	jal	x6,800011b4	  x6=0x800011b4
        6135000	       612	00000000	00000013	addi	x0,x0,0	  x0:0x00000000
        6145000	       613	800011e4	00000013	addi	x0,x0,0	  x0:0x00000000
        6155000	       614	800011e8	fedff0ef	jal	x1,800011e8	  x1=0x800011e8
        6165000	       615	00000000	00000013	addi	x0,x0,0	  x0:0x00000000
        6175000	       616	800011d0	00000013	addi	x0,x0,0	  x0:0x00000000
        6185000	       617	800011d4	ff1ff0ef	jal	x1,800011d4	  x1=0x800011d4
        6195000	       618	00000000	00000013	addi	x0,x0,0	  x0:0x00000000
        6205000	       619	800011c0	00000013	addi	x0,x0,0	  x0:0x00000000
        6215000	       620	800011c4	00c0036f	jal	x6,800011c4	  x6=0x800011c4
        6225000	       621	00000000	00000013	addi	x0,x0,0	  x0:0x00000000
        6235000	       622	800011cc	00000013	addi	x0,x0,0	  x0:0x00000000
        6245000	       623	800011d0	0400016f	jal	x2,800011d0	  x2=0x800011d0
        6255000	       624	00000000	00000013	addi	x0,x0,0	  x0:0x00000000
        6265000	       625	8000120c	00000013	addi	x0,x0,0	  x0:0x00000000
        6275000	       626	80001210	00000013	addi	x0,x0,0	  x0:0x00000000
        6285000	       627	80001214	0440036f	jal	x6,80001214	  x6=0x80001214
        6295000	       628	00000000	00000013	addi	x0,x0,0	  x0:0x00000000
        6305000	       629	80001254	00000013	addi	x0,x0,0	  x0:0x00000000
        6315000	       630	80001258	ff9ff0ef	jal	x1,80001258	  x1=0x80001258
        6325000	       631	00000000	00000013	addi	x0,x0,0	  x0:0x00000000
        6335000	       632	8000124c	00000013	addi	x0,x0,0	  x0:0x00000000
        6345000	       633	80001250	fd5ffaef	jal	x21,80001250	 x21=0x80001250
        6355000	       634	00000000	00000013	addi	x0,x0,0	  x0:0x00000000
        6365000	       635	80001220	00000013	addi	x0,x0,0	  x0:0x00000000
        6375000	       636	80001224	ff9ff36f	jal	x6,80001224	  x6=0x80001224
        6385000	       637	00000000	00000013	addi	x0,x0,0	  x0:0x00000000
        6395000	       638	80001218	00000013	addi	x0,x0,0	  x0:0x00000000
        6405000	       639	8000121c	00c000ef	jal	x1,8000121c	  x1=0x8000121c
        6415000	       640	00000000	00000013	addi	x0,x0,0	  x0:0x00000000
        6425000	       641	80001224	00000013	addi	x0,x0,0	  x0:0x00000000
        6435000	       642	80001228	008000ef	jal	x1,80001228	  x1=0x80001228
        6445000	       643	00000000	00000013	addi	x0,x0,0	  x0:0x00000000
        6455000	       644	8000122c	00000013	addi	x0,x0,0	  x0:0x00000000
        6465000	       645	80001230	fe9ff36f	jal	x6,80001230	  x6=0x80001230
        6475000	       646	00000000	00000013	addi	x0,x0,0	  x0:0x00000000
        6485000	       647	80001214	00000013	addi	x0,x0,0	  x0:0x00000000
        6495000	       648	80001218	02c000ef	jal	x1,80001218	  x1=0x80001218
        6505000	       649	00000000	00000013	addi	x0,x0,0	  x0:0x00000000
        6515000	       650	80001240	00000013	addi	x0,x0,0	  x0:0x00000000
        6525000	       651	80001244	0100036f	jal	x6,80001244	  x6=0x80001244
        6535000	       652	00000000	00000013	addi	x0,x0,0	  x0:0x00000000
        6545000	       653	80001250	00000013	addi	x0,x0,0	  x0:0x00000000
        6555000	       654	80001254	014000ef	jal	x1,80001254	  x1=0x80001254
        6565000	       655	00000000	00000013	addi	x0,x0,0	  x0:0x00000000
        6575000	       656	80001264	00000013	addi	x0,x0,0	  x0:0x00000000
        6585000	       657	80001268	fc5ff36f	jal	x6,80001268	  x6=0x80001268
        6595000	       658	00000000	00000013	addi	x0,x0,0	  x0:0x00000000
        6605000	       659	80001228	00000013	addi	x0,x0,0	  x0:0x00000000
        6615000	       660	8000122c	040001ef	jal	x3,8000122c	  x3=0x8000122c
        6625000	       661	00000000	00000013	addi	x0,x0,0	  x0:0x00000000
        6635000	       662	80001268	00000013	addi	x0,x0,0	  x0:0x00000000
        6645000	       663	8000126c	fb5ff0ef	jal	x1,8000126c	  x1=0x8000126c
        6655000	       664	00000000	00000013	addi	x0,x0,0	  x0:0x00000000
        6665000	       665	8000121c	00000013	addi	x0,x0,0	  x0:0x00000000
        6675000	       666	80001220	03c00f6f	jal	x30,80001220	 x30=0x80001220
        6685000	       667	00000000	00000013	addi	x0,x0,0	  x0:0x00000000
        6695000	       668	80001258	00000013	addi	x0,x0,0	  x0:0x00000000
        6705000	       669	8000125c	004000ef	jal	x1,8000125c	  x1=0x8000125c
        6715000	       670	00000000	00000013	addi	x0,x0,0	  x0:0x00000000
        6725000	       671	8000125c	00000013	addi	x0,x0,0	  x0:0x00000000
        6735000	       672	80001260	fe9ff0ef	jal	x1,80001260	  x1=0x80001260
        6745000	       673	00000000	00000013	addi	x0,x0,0	  x0:0x00000000
        6755000	       674	80001244	00000013	addi	x0,x0,0	  x0:0x00000000
        6765000	       675	80001248	ff5fffef	jal	x31,80001248	 x31=0x80001248
        6775000	       676	00000000	00000013	addi	x0,x0,0	  x0:0x00000000
        6785000	       677	80001238	00000013	addi	x0,x0,0	  x0:0x00000000
        6795000	       678	8000123c	ffdff6ef	jal	x13,8000123c	 x13=0x8000123c
        6805000	       679	00000000	00000013	addi	x0,x0,0	  x0:0x00000000
        6815000	       680	80001234	00000013	addi	x0,x0,0	  x0:0x00000000
        6825000	       681	80001238	014000ef	jal	x1,80001238	  x1=0x80001238
        6835000	       682	00000000	00000013	addi	x0,x0,0	  x0:0x00000000
        6845000	       683	80001248	00000013	addi	x0,x0,0	  x0:0x00000000
        6855000	       684	8000124c	018000ef	jal	x1,8000124c	  x1=0x8000124c
        6865000	       685	00000000	00000013	addi	x0,x0,0	  x0:0x00000000
        6875000	       686	80001260	00000013	addi	x0,x0,0	  x0:0x00000000
        6885000	       687	80001264	fd1ff36f	jal	x6,80001264	  x6=0x80001264
        6895000	       688	00000000	00000013	addi	x0,x0,0	  x0:0x00000000
        6905000	       689	80001230	00000013	addi	x0,x0,0	  x0:0x00000000
        6915000	       690	80001234	00c002ef	jal	x5,80001234	  x5=0x80001234
        6925000	       691	00000000	00000013	addi	x0,x0,0	  x0:0x00000000
        6935000	       692	8000123c	00000013	addi	x0,x0,0	  x0:0x00000000
        6945000	       693	80001240	0300026f	jal	x4,80001240	  x4=0x80001240
        6955000	       694	00000000	00000013	addi	x0,x0,0	  x0:0x00000000
        6965000	       695	8000126c	00000013	addi	x0,x0,0	  x0:0x00000000
        6975000	       696	80001270	011fb333	sltu	x6,x31,x17	 x31:0x80001248 x17:0x80009fc4  x6=0x00000001
        6985000	       697	80001274	02c0036f	jal	x6,80001274	  x6=0x80001274
        6995000	       698	00000000	00000013	addi	x0,x0,0	  x0:0x00000000
        7005000	       699	8000129c	00000013	addi	x0,x0,0	  x0:0x00000000
        7015000	       700	800012a0	010000ef	jal	x1,800012a0	  x1=0x800012a0
        7025000	       701	00000000	00000013	addi	x0,x0,0	  x0:0x00000000
        7035000	       702	800012ac	00000013	addi	x0,x0,0	  x0:0x00000000
        7045000	       703	800012b0	fedfffef	jal	x31,800012b0	 x31=0x800012b0
        7055000	       704	00000000	00000013	addi	x0,x0,0	  x0:0x00000000
        7065000	       705	80001298	00000013	addi	x0,x0,0	  x0:0x00000000
        7075000	       706	8000129c	038000ef	jal	x1,8000129c	  x1=0x8000129c
        7085000	       707	00000000	00000013	addi	x0,x0,0	  x0:0x00000000
        7095000	       708	800012d0	00000013	addi	x0,x0,0	  x0:0x00000000
        7105000	       709	800012d4	fb1ff16f	jal	x2,800012d4	  x2=0x800012d4
        7115000	       710	00000000	00000013	addi	x0,x0,0	  x0:0x00000000
        7125000	       711	80001280	00000013	addi	x0,x0,0	  x0:0x00000000
        7135000	       712	80001284	0200016f	jal	x2,80001284	  x2=0x80001284
        7145000	       713	00000000	00000013	addi	x0,x0,0	  x0:0x00000000
        7155000	       714	800012a0	00000013	addi	x0,x0,0	  x0:0x00000000
        7165000	       715	800012a4	018000ef	jal	x1,800012a4	  x1=0x800012a4
        7175000	       716	00000000	00000013	addi	x0,x0,0	  x0:0x00000000
        7185000	       717	800012b8	00000013	addi	x0,x0,0	  x0:0x00000000
        7195000	       718	800012bc	00c000ef	jal	x1,800012bc	  x1=0x800012bc
        7205000	       719	00000000	00000013	addi	x0,x0,0	  x0:0x00000000
        7215000	       720	800012c4	00000013	addi	x0,x0,0	  x0:0x00000000
        7225000	       721	800012c8	fe5ff0ef	jal	x1,800012c8	  x1=0x800012c8
        7235000	       722	00000000	00000013	addi	x0,x0,0	  x0:0x00000000
        7245000	       723	800012a8	00000013	addi	x0,x0,0	  x0:0x00000000
        7255000	       724	800012ac	fd5ff6ef	jal	x13,800012ac	 x13=0x800012ac
        7265000	       725	00000000	00000013	addi	x0,x0,0	  x0:0x00000000
        7275000	       726	8000127c	00000013	addi	x0,x0,0	  x0:0x00000000
        7285000	       727	80001280	ff9ff36f	jal	x6,80001280	  x6=0x80001280
        7295000	       728	00000000	00000013	addi	x0,x0,0	  x0:0x00000000
        7305000	       729	80001274	00000013	addi	x0,x0,0	  x0:0x00000000
        7315000	       730	80001278	0600026f	jal	x4,80001278	  x4=0x80001278
        7325000	       731	00000000	00000013	addi	x0,x0,0	  x0:0x00000000
        7335000	       732	800012d4	00000013	addi	x0,x0,0	  x0:0x00000000
        7345000	       733	800012d8	fe9ff16f	jal	x2,800012d8	  x2=0x800012d8
        7355000	       734	00000000	00000013	addi	x0,x0,0	  x0:0x00000000
        7365000	       735	800012bc	00000013	addi	x0,x0,0	  x0:0x00000000
        7375000	       736	800012c0	0240096f	jal	x18,800012c0	 x18=0x800012c0
        7385000	       737	00000000	00000013	addi	x0,x0,0	  x0:0x00000000
        7395000	       738	800012e0	00000013	addi	x0,x0,0	  x0:0x00000000
        7405000	       739	800012e4	fe1ff0ef	jal	x1,800012e4	  x1=0x800012e4
        7415000	       740	00000000	00000013	addi	x0,x0,0	  x0:0x00000000
        7425000	       741	800012c0	00000013	addi	x0,x0,0	  x0:0x00000000
        7435000	       742	800012c4	008000ef	jal	x1,800012c4	  x1=0x800012c4
        7445000	       743	00000000	00000013	addi	x0,x0,0	  x0:0x00000000
        7455000	       744	800012c8	00000013	addi	x0,x0,0	  x0:0x00000000
        7465000	       745	800012cc	fddff2ef	jal	x5,800012cc	  x5=0x800012cc
        7475000	       746	00000000	00000013	addi	x0,x0,0	  x0:0x00000000
        7485000	       747	800012a4	00000013	addi	x0,x0,0	  x0:0x00000000
        7495000	       748	800012a8	03400bef	jal	x23,800012a8	 x23=0x800012a8
        7505000	       749	00000000	00000013	addi	x0,x0,0	  x0:0x00000000
        7515000	       750	800012d8	00000013	addi	x0,x0,0	  x0:0x00000000
        7525000	       751	800012dc	fbdff16f	jal	x2,800012dc	  x2=0x800012dc
        7535000	       752	00000000	00000013	addi	x0,x0,0	  x0:0x00000000
        7545000	       753	80001294	00000013	addi	x0,x0,0	  x0:0x00000000
        7555000	       754	80001298	ff5ff0ef	jal	x1,80001298	  x1=0x80001298
        7565000	       755	00000000	00000013	addi	x0,x0,0	  x0:0x00000000
        7575000	       756	80001288	00000013	addi	x0,x0,0	  x0:0x00000000
        7585000	       757	8000128c	ffdff0ef	jal	x1,8000128c	  x1=0x8000128c
        7595000	       758	00000000	00000013	addi	x0,x0,0	  x0:0x00000000
        7605000	       759	80001284	00000013	addi	x0,x0,0	  x0:0x00000000
        7615000	       760	80001288	02c000ef	jal	x1,80001288	  x1=0x80001288
        7625000	       761	00000000	00000013	addi	x0,x0,0	  x0:0x00000000
        7635000	       762	800012b0	00000013	addi	x0,x0,0	  x0:0x00000000
        7645000	       763	800012b4	fe1ff0ef	jal	x1,800012b4	  x1=0x800012b4
        7655000	       764	00000000	00000013	addi	x0,x0,0	  x0:0x00000000
        7665000	       765	80001290	00000013	addi	x0,x0,0	  x0:0x00000000
        7675000	       766	80001294	fe9fffef	jal	x31,80001294	 x31=0x80001294
        7685000	       767	00000000	00000013	addi	x0,x0,0	  x0:0x00000000
        7695000	       768	80001278	00000013	addi	x0,x0,0	  x0:0x00000000
        7705000	       769	8000127c	06c002ef	jal	x5,8000127c	  x5=0x8000127c
        7715000	       770	00000000	00000013	addi	x0,x0,0	  x0:0x00000000
        7725000	       771	800012e4	00000013	addi	x0,x0,0	  x0:0x00000000
        7735000	       772	800012e8	fa9ff16f	jal	x2,800012e8	  x2=0x800012e8
        7745000	       773	00000000	00000013	addi	x0,x0,0	  x0:0x00000000
        7755000	       774	8000128c	00000013	addi	x0,x0,0	  x0:0x00000000
        7765000	       775	80001290	028000ef	jal	x1,80001290	  x1=0x80001290
        7775000	       776	00000000	00000013	addi	x0,x0,0	  x0:0x00000000
        7785000	       777	800012b4	00000013	addi	x0,x0,0	  x0:0x00000000
        7795000	       778	800012b8	0180036f	jal	x6,800012b8	  x6=0x800012b8
        7805000	       779	00000000	00000013	addi	x0,x0,0	  x0:0x00000000
        7815000	       780	800012cc	00000013	addi	x0,x0,0	  x0:0x00000000
        7825000	       781	800012d0	010000ef	jal	x1,800012d0	  x1=0x800012d0
        7835000	       782	00000000	00000013	addi	x0,x0,0	  x0:0x00000000
        7845000	       783	800012dc	00000013	addi	x0,x0,0	  x0:0x00000000
        7855000	       784	800012e0	00c000ef	jal	x1,800012e0	  x1=0x800012e0
        7865000	       785	00000000	00000013	addi	x0,x0,0	  x0:0x00000000
        7875000	       786	800012e8	00000013	addi	x0,x0,0	  x0:0x00000000
        7885000	       787	800012ec	0187e433	or	x8,x15,x24	 x15:0xf573b7aa x24:0xfe687ba4  x8=0xff7bffae
        7895000	       788	800012f0	0500036f	jal	x6,800012f0	  x6=0x800012f0
        7905000	       789	00000000	00000013	addi	x0,x0,0	  x0:0x00000000
        7915000	       790	8000133c	00000013	addi	x0,x0,0	  x0:0x00000000
        7925000	       791	80001340	fd5ff2ef	jal	x5,80001340	  x5=0x80001340
        7935000	       792	00000000	00000013	addi	x0,x0,0	  x0:0x00000000
        7945000	       793	80001310	00000013	addi	x0,x0,0	  x0:0x00000000
        7955000	       794	80001314	01c001ef	jal	x3,80001314	  x3=0x80001314
        7965000	       795	00000000	00000013	addi	x0,x0,0	  x0:0x00000000
        7975000	       796	8000132c	00000013	addi	x0,x0,0	  x0:0x00000000
        7985000	       797	80001330	ff1ff26f	jal	x4,80001330	  x4=0x80001330
        7995000	       798	00000000	00000013	addi	x0,x0,0	  x0:0x00000000
        8005000	       799	8000131c	00000013	addi	x0,x0,0	  x0:0x00000000
        8015000	       800	80001320	01c0036f	jal	x6,80001320	  x6=0x80001320
        8025000	       801	00000000	00000013	addi	x0,x0,0	  x0:0x00000000
        8035000	       802	80001338	00000013	addi	x0,x0,0	  x0:0x00000000
        8045000	       803	8000133c	ff9ff0ef	jal	x1,8000133c	  x1=0x8000133c
        8055000	       804	00000000	00000013	addi	x0,x0,0	  x0:0x00000000
        8065000	       805	80001330	00000013	addi	x0,x0,0	  x0:0x00000000
        8075000	       806	80001334	fc1ff86f	jal	x16,80001334	 x16=0x80001334
        8085000	       807	00000000	00000013	addi	x0,x0,0	  x0:0x00000000
        8095000	       808	800012f0	00000013	addi	x0,x0,0	  x0:0x00000000
        8105000	       809	800012f4	03800cef	jal	x25,800012f4	 x25=0x800012f4
        8115000	       810	00000000	00000013	addi	x0,x0,0	  x0:0x00000000
        8125000	       811	80001328	00000013	addi	x0,x0,0	  x0:0x00000000
        8135000	       812	8000132c	fe1ff0ef	jal	x1,8000132c	  x1=0x8000132c
        8145000	       813	00000000	00000013	addi	x0,x0,0	  x0:0x00000000
        8155000	       814	80001308	00000013	addi	x0,x0,0	  x0:0x00000000
        8165000	       815	8000130c	01c000ef	jal	x1,8000130c	  x1=0x8000130c
        8175000	       816	00000000	00000013	addi	x0,x0,0	  x0:0x00000000
        8185000	       817	80001324	00000013	addi	x0,x0,0	  x0:0x00000000
        8195000	       818	80001328	020000ef	jal	x1,80001328	  x1=0x80001328
        8205000	       819	00000000	00000013	addi	x0,x0,0	  x0:0x00000000
        8215000	       820	80001344	00000013	addi	x0,x0,0	  x0:0x00000000
        8225000	       821	80001348	fb1ff0ef	jal	x1,80001348	  x1=0x80001348
        8235000	       822	00000000	00000013	addi	x0,x0,0	  x0:0x00000000
        8245000	       823	800012f4	00000013	addi	x0,x0,0	  x0:0x00000000
        8255000	       824	800012f8	008000ef	jal	x1,800012f8	  x1=0x800012f8
        8265000	       825	00000000	00000013	addi	x0,x0,0	  x0:0x00000000
        8275000	       826	800012fc	00000013	addi	x0,x0,0	  x0:0x00000000
        8285000	       827	80001300	ffdffdef	jal	x27,80001300	 x27=0x80001300
        8295000	       828	00000000	00000013	addi	x0,x0,0	  x0:0x00000000
        8305000	       829	800012f8	00000013	addi	x0,x0,0	  x0:0x00000000
        8315000	       830	800012fc	028000ef	jal	x1,800012fc	  x1=0x800012fc
        8325000	       831	00000000	00000013	addi	x0,x0,0	  x0:0x00000000
        8335000	       832	80001320	00000013	addi	x0,x0,0	  x0:0x00000000
        8345000	       833	80001324	fe1ff0ef	jal	x1,80001324	  x1=0x80001324
        8355000	       834	00000000	00000013	addi	x0,x0,0	  x0:0x00000000
        8365000	       835	80001300	00000013	addi	x0,x0,0	  x0:0x00000000
        8375000	       836	80001304	040000ef	jal	x1,80001304	  x1=0x80001304
        8385000	       837	00000000	00000013	addi	x0,x0,0	  x0:0x00000000
        8395000	       838	80001340	00000013	addi	x0,x0,0	  x0:0x00000000
        8405000	       839	80001344	fd9ff36f	jal	x6,80001344	  x6=0x80001344
        8415000	       840	00000000	00000013	addi	x0,x0,0	  x0:0x00000000
        8425000	       841	80001318	00000013	addi	x0,x0,0	  x0:0x00000000
        8435000	       842	8000131c	01c0036f	jal	x6,8000131c	  x6=0x8000131c
        8445000	       843	00000000	00000013	addi	x0,x0,0	  x0:0x00000000
        8455000	       844	80001334	00000013	addi	x0,x0,0	  x0:0x00000000
        8465000	       845	80001338	fd9ff0ef	jal	x1,80001338	  x1=0x80001338
        8475000	       846	00000000	00000013	addi	x0,x0,0	  x0:0x00000000
        8485000	       847	8000130c	00000013	addi	x0,x0,0	  x0:0x00000000
        8495000	       848	80001310	ff9ffe6f	jal	x28,80001310	 x28=0x80001310
        8505000	       849	00000000	00000013	addi	x0,x0,0	  x0:0x00000000
        8515000	       850	80001304	00000013	addi	x0,x0,0	  x0:0x00000000
        8525000	       851	80001308	010002ef	jal	x5,80001308	  x5=0x80001308
        8535000	       852	00000000	00000013	addi	x0,x0,0	  x0:0x00000000
        8545000	       853	80001314	00000013	addi	x0,x0,0	  x0:0x00000000
        8555000	       854	80001318	0340036f	jal	x6,80001318	  x6=0x80001318
        8565000	       855	00000000	00000013	addi	x0,x0,0	  x0:0x00000000
        8575000	       856	80001348	00000013	addi	x0,x0,0	  x0:0x00000000
        8585000	       857	8000134c	01815f13	srli	x30,x2,0x18	  x2:0x800012e8 x30=0x00000080
        8595000	       858	80001350	0340036f	jal	x6,80001350	  x6=0x80001350
        8605000	       859	00000000	00000013	addi	x0,x0,0	  x0:0x00000000
        8615000	       860	80001380	00000013	addi	x0,x0,0	  x0:0x00000000
        8625000	       861	80001384	ff1ff0ef	jal	x1,80001384	  x1=0x80001384
        8635000	       862	00000000	00000013	addi	x0,x0,0	  x0:0x00000000
        8645000	       863	80001370	00000013	addi	x0,x0,0	  x0:0x00000000
        8655000	       864	80001374	0140026f	jal	x4,80001374	  x4=0x80001374
        8665000	       865	00000000	00000013	addi	x0,x0,0	  x0:0x00000000
        8675000	       866	80001384	00000013	addi	x0,x0,0	  x0:0x00000000
        8685000	       867	80001388	ff5ffeef	jal	x29,80001388	 x29=0x80001388
        8695000	       868	00000000	00000013	addi	x0,x0,0	  x0:0x00000000
        8705000	       869	80001378	00000013	addi	x0,x0,0	  x0:0x00000000
        8715000	       870	8000137c	004003ef	jal	x7,8000137c	  x7=0x8000137c
        8725000	       871	00000000	00000013	addi	x0,x0,0	  x0:0x00000000
        8735000	       872	8000137c	00000013	addi	x0,x0,0	  x0:0x00000000
        8745000	       873	80001380	00c000ef	jal	x1,80001380	  x1=0x80001380
        8755000	       874	00000000	00000013	addi	x0,x0,0	  x0:0x00000000
        8765000	       875	80001388	00000013	addi	x0,x0,0	  x0:0x00000000
        8775000	       876	8000138c	fe5ff96f	jal	x18,8000138c	 x18=0x8000138c
        8785000	       877	00000000	00000013	addi	x0,x0,0	  x0:0x00000000
        8795000	       878	8000136c	00000013	addi	x0,x0,0	  x0:0x00000000
        8805000	       879	80001370	0080036f	jal	x6,80001370	  x6=0x80001370
        8815000	       880	00000000	00000013	addi	x0,x0,0	  x0:0x00000000
        8825000	       881	80001374	00000013	addi	x0,x0,0	  x0:0x00000000
        8835000	       882	80001378	fe5ff46f	jal	x8,80001378	  x8=0x80001378
        8845000	       883	00000000	00000013	addi	x0,x0,0	  x0:0x00000000
        8855000	       884	80001358	00000013	addi	x0,x0,0	  x0:0x00000000
        8865000	       885	8000135c	010000ef	jal	x1,8000135c	  x1=0x8000135c
        8875000	       886	00000000	00000013	addi	x0,x0,0	  x0:0x00000000
        8885000	       887	80001368	00000013	addi	x0,x0,0	  x0:0x00000000
        8895000	       888	8000136c	ffdff36f	jal	x6,8000136c	  x6=0x8000136c
        8905000	       889	00000000	00000013	addi	x0,x0,0	  x0:0x00000000
        8915000	       890	80001364	00000013	addi	x0,x0,0	  x0:0x00000000
        8925000	       891	80001368	ffdff0ef	jal	x1,80001368	  x1=0x80001368
        8935000	       892	00000000	00000013	addi	x0,x0,0	  x0:0x00000000
        8945000	       893	80001360	00000013	addi	x0,x0,0	  x0:0x00000000
        8955000	       894	80001364	ffdffeef	jal	x29,80001364	 x29=0x80001364
        8965000	       895	00000000	00000013	addi	x0,x0,0	  x0:0x00000000
        8975000	       896	8000135c	00000013	addi	x0,x0,0	  x0:0x00000000
        8985000	       897	80001360	ff9ff0ef	jal	x1,80001360	  x1=0x80001360
        8995000	       898	00000000	00000013	addi	x0,x0,0	  x0:0x00000000
        9005000	       899	80001354	00000013	addi	x0,x0,0	  x0:0x00000000
        9015000	       900	80001358	ffdff36f	jal	x6,80001358	  x6=0x80001358
        9025000	       901	00000000	00000013	addi	x0,x0,0	  x0:0x00000000
        9035000	       902	80001350	00000013	addi	x0,x0,0	  x0:0x00000000
        9045000	       903	80001354	03c000ef	jal	x1,80001354	  x1=0x80001354
        9055000	       904	00000000	00000013	addi	x0,x0,0	  x0:0x00000000
        9065000	       905	8000138c	00000013	addi	x0,x0,0	  x0:0x00000000
        9075000	       906	80001390	572d8c97	auipc	x25,0x572d8	 x25=0xd72d938c
        9085000	       907	80001394	0280036f	jal	x6,80001394	  x6=0x80001394
        9095000	       908	00000000	00000013	addi	x0,x0,0	  x0:0x00000000
        9105000	       909	800013b8	00000013	addi	x0,x0,0	  x0:0x00000000
        9115000	       910	800013bc	008004ef	jal	x9,800013bc	  x9=0x800013bc
        9125000	       911	00000000	00000013	addi	x0,x0,0	  x0:0x00000000
        9135000	       912	800013c0	00000013	addi	x0,x0,0	  x0:0x00000000
        9145000	       913	800013c4	00c0036f	jal	x6,800013c4	  x6=0x800013c4
        9155000	       914	00000000	00000013	addi	x0,x0,0	  x0:0x00000000
        9165000	       915	800013cc	00000013	addi	x0,x0,0	  x0:0x00000000
        9175000	       916	800013d0	fe5ff2ef	jal	x5,800013d0	  x5=0x800013d0
        9185000	       917	00000000	00000013	addi	x0,x0,0	  x0:0x00000000
        9195000	       918	800013b0	00000013	addi	x0,x0,0	  x0:0x00000000
        9205000	       919	800013b4	fe5ff36f	jal	x6,800013b4	  x6=0x800013b4
        9215000	       920	00000000	00000013	addi	x0,x0,0	  x0:0x00000000
        9225000	       921	80001394	00000013	addi	x0,x0,0	  x0:0x00000000
        9235000	       922	80001398	03000fef	jal	x31,80001398	 x31=0x80001398
        9245000	       923	00000000	00000013	addi	x0,x0,0	  x0:0x00000000
        9255000	       924	800013c4	00000013	addi	x0,x0,0	  x0:0x00000000
        9265000	       925	800013c8	fd9ff36f	jal	x6,800013c8	  x6=0x800013c8
        9275000	       926	00000000	00000013	addi	x0,x0,0	  x0:0x00000000
        9285000	       927	8000139c	00000013	addi	x0,x0,0	  x0:0x00000000
        9295000	       928	800013a0	02c005ef	jal	x11,800013a0	 x11=0x800013a0
        9305000	       929	00000000	00000013	addi	x0,x0,0	  x0:0x00000000
        9315000	       930	800013c8	00000013	addi	x0,x0,0	  x0:0x00000000
        9325000	       931	800013cc	fedff0ef	jal	x1,800013cc	  x1=0x800013cc
        9335000	       932	00000000	00000013	addi	x0,x0,0	  x0:0x00000000
        9345000	       933	800013b4	00000013	addi	x0,x0,0	  x0:0x00000000
        9355000	       934	800013b8	fedff0ef	jal	x1,800013b8	  x1=0x800013b8
        9365000	       935	00000000	00000013	addi	x0,x0,0	  x0:0x00000000
        9375000	       936	800013a0	00000013	addi	x0,x0,0	  x0:0x00000000
        9385000	       937	800013a4	01c00c6f	jal	x24,800013a4	 x24=0x800013a4
        9395000	       938	00000000	00000013	addi	x0,x0,0	  x0:0x00000000
        9405000	       939	800013bc	00000013	addi	x0,x0,0	  x0:0x00000000
        9415000	       940	800013c0	fe9ff36f	jal	x6,800013c0	  x6=0x800013c0
        9425000	       941	00000000	00000013	addi	x0,x0,0	  x0:0x00000000
        9435000	       942	800013a4	00000013	addi	x0,x0,0	  x0:0x00000000
        9445000	       943	800013a8	ff5ff0ef	jal	x1,800013a8	  x1=0x800013a8
        9455000	       944	00000000	00000013	addi	x0,x0,0	  x0:0x00000000
        9465000	       945	80001398	00000013	addi	x0,x0,0	  x0:0x00000000
        9475000	       946	8000139c	0140036f	jal	x6,8000139c	  x6=0x8000139c
        9485000	       947	00000000	00000013	addi	x0,x0,0	  x0:0x00000000
        9495000	       948	800013ac	00000013	addi	x0,x0,0	  x0:0x00000000
        9505000	       949	800013b0	ffdff36f	jal	x6,800013b0	  x6=0x800013b0
        9515000	       950	00000000	00000013	addi	x0,x0,0	  x0:0x00000000
        9525000	       951	800013a8	00000013	addi	x0,x0,0	  x0:0x00000000
        9535000	       952	800013ac	0280036f	jal	x6,800013ac	  x6=0x800013ac
        9545000	       953	00000000	00000013	addi	x0,x0,0	  x0:0x00000000
        9555000	       954	800013d0	00000013	addi	x0,x0,0	  x0:0x00000000
        9565000	       955	800013d4	00000013	addi	x0,x0,0	  x0:0x00000000
        9575000	       956	800013d8	0580036f	jal	x6,800013d8	  x6=0x800013d8
        9585000	       957	00000000	00000013	addi	x0,x0,0	  x0:0x00000000
        9595000	       958	8000142c	00000013	addi	x0,x0,0	  x0:0x00000000
        9605000	       959	80001430	fc9ff6ef	jal	x13,80001430	 x13=0x80001430
        9615000	       960	00000000	00000013	addi	x0,x0,0	  x0:0x00000000
        9625000	       961	800013f4	00000013	addi	x0,x0,0	  x0:0x00000000
        9635000	       962	800013f8	008002ef	jal	x5,800013f8	  x5=0x800013f8
        9645000	       963	00000000	00000013	addi	x0,x0,0	  x0:0x00000000
        9655000	       964	800013fc	00000013	addi	x0,x0,0	  x0:0x00000000
        9665000	       965	80001400	024000ef	jal	x1,80001400	  x1=0x80001400
        9675000	       966	00000000	00000013	addi	x0,x0,0	  x0:0x00000000
        9685000	       967	80001420	00000013	addi	x0,x0,0	  x0:0x00000000
        9695000	       968	80001424	fe5ff0ef	jal	x1,80001424	  x1=0x80001424
        9705000	       969	00000000	00000013	addi	x0,x0,0	  x0:0x00000000
        9715000	       970	80001404	00000013	addi	x0,x0,0	  x0:0x00000000
        9725000	       971	80001408	010000ef	jal	x1,80001408	  x1=0x80001408
        9735000	       972	00000000	00000013	addi	x0,x0,0	  x0:0x00000000
        9745000	       973	80001414	00000013	addi	x0,x0,0	  x0:0x00000000
        9755000	       974	80001418	004009ef	jal	x19,80001418	 x19=0x80001418
        9765000	       975	00000000	00000013	addi	x0,x0,0	  x0:0x00000000
        9775000	       976	80001418	00000013	addi	x0,x0,0	  x0:0x00000000
        9785000	       977	8000141c	00c000ef	jal	x1,8000141c	  x1=0x8000141c
        9795000	       978	00000000	00000013	addi	x0,x0,0	  x0:0x00000000
        9805000	       979	80001424	00000013	addi	x0,x0,0	  x0:0x00000000
        9815000	       980	80001428	fc5ffeef	jal	x29,80001428	 x29=0x80001428
        9825000	       981	00000000	00000013	addi	x0,x0,0	  x0:0x00000000
        9835000	       982	800013e8	00000013	addi	x0,x0,0	  x0:0x00000000
        9845000	       983	800013ec	004002ef	jal	x5,800013ec	  x5=0x800013ec
        9855000	       984	00000000	00000013	addi	x0,x0,0	  x0:0x00000000
        9865000	       985	800013ec	00000013	addi	x0,x0,0	  x0:0x00000000
        9875000	       986	800013f0	fedff0ef	jal	x1,800013f0	  x1=0x800013f0
        9885000	       987	00000000	00000013	addi	x0,x0,0	  x0:0x00000000
        9895000	       988	800013d8	00000013	addi	x0,x0,0	  x0:0x00000000
        9905000	       989	800013dc	00c00cef	jal	x25,800013dc	 x25=0x800013dc
        9915000	       990	00000000	00000013	addi	x0,x0,0	  x0:0x00000000
        9925000	       991	800013e4	00000013	addi	x0,x0,0	  x0:0x00000000
        9935000	       992	800013e8	ffdff0ef	jal	x1,800013e8	  x1=0x800013e8
        9945000	       993	00000000	00000013	addi	x0,x0,0	  x0:0x00000000
        9955000	       994	800013e0	00000013	addi	x0,x0,0	  x0:0x00000000
        9965000	       995	800013e4	02c0036f	jal	x6,800013e4	  x6=0x800013e4
        9975000	       996	00000000	00000013	addi	x0,x0,0	  x0:0x00000000
        9985000	       997	8000140c	00000013	addi	x0,x0,0	  x0:0x00000000
        9995000	       998	80001410	004000ef	jal	x1,80001410	  x1=0x80001410
       10005000	       999	00000000	00000013	addi	x0,x0,0	  x0:0x00000000
       10015000	      1000	80001410	00000013	addi	x0,x0,0	  x0:0x00000000
       10025000	      1001	80001414	fe1ff16f	jal	x2,80001414	  x2=0x80001414
       10035000	      1002	00000000	00000013	addi	x0,x0,0	  x0:0x00000000
       10045000	      1003	800013f0	00000013	addi	x0,x0,0	  x0:0x00000000
       10055000	      1004	800013f4	038005ef	jal	x11,800013f4	 x11=0x800013f4
       10065000	      1005	00000000	00000013	addi	x0,x0,0	  x0:0x00000000
       10075000	      1006	80001428	00000013	addi	x0,x0,0	  x0:0x00000000
       10085000	      1007	8000142c	fe1ff36f	jal	x6,8000142c	  x6=0x8000142c
       10095000	      1008	00000000	00000013	addi	x0,x0,0	  x0:0x00000000
       10105000	      1009	80001408	00000013	addi	x0,x0,0	  x0:0x00000000
       10115000	      1010	8000140c	0140036f	jal	x6,8000140c	  x6=0x8000140c
       10125000	      1011	00000000	00000013	addi	x0,x0,0	  x0:0x00000000
       10135000	      1012	8000141c	00000013	addi	x0,x0,0	  x0:0x00000000
       10145000	      1013	80001420	fe5ff16f	jal	x2,80001420	  x2=0x80001420
       10155000	      1014	00000000	00000013	addi	x0,x0,0	  x0:0x00000000
       10165000	      1015	80001400	00000013	addi	x0,x0,0	  x0:0x00000000
       10175000	      1016	80001404	fddff26f	jal	x4,80001404	  x4=0x80001404
       10185000	      1017	00000000	00000013	addi	x0,x0,0	  x0:0x00000000
       10195000	      1018	800013dc	00000013	addi	x0,x0,0	  x0:0x00000000
       10205000	      1019	800013e0	01c000ef	jal	x1,800013e0	  x1=0x800013e0
       10215000	      1020	00000000	00000013	addi	x0,x0,0	  x0:0x00000000
       10225000	      1021	800013f8	00000013	addi	x0,x0,0	  x0:0x00000000
       10235000	      1022	800013fc	038000ef	jal	x1,800013fc	  x1=0x800013fc
       10245000	      1023	00000000	00000013	addi	x0,x0,0	  x0:0x00000000
       10255000	      1024	80001430	00000013	addi	x0,x0,0	  x0:0x00000000
       10265000	      1025	80001434	00721a33	sll	x20,x4,x7	  x4:0x80001404  x7:0x8000137c x20=0x40000000
       10275000	      1026	80001438	00c0036f	jal	x6,80001438	  x6=0x80001438
       10285000	      1027	00000000	00000013	addi	x0,x0,0	  x0:0x00000000
       10295000	      1028	80001440	00000013	addi	x0,x0,0	  x0:0x00000000
       10305000	      1029	80001444	008000ef	jal	x1,80001444	  x1=0x80001444
       10315000	      1030	00000000	00000013	addi	x0,x0,0	  x0:0x00000000
       10325000	      1031	80001448	00000013	addi	x0,x0,0	  x0:0x00000000
       10335000	      1032	8000144c	0100036f	jal	x6,8000144c	  x6=0x8000144c
       10345000	      1033	00000000	00000013	addi	x0,x0,0	  x0:0x00000000
       10355000	      1034	80001458	00000013	addi	x0,x0,0	  x0:0x00000000
       10365000	      1035	8000145c	ff5ff0ef	jal	x1,8000145c	  x1=0x8000145c
       10375000	      1036	00000000	00000013	addi	x0,x0,0	  x0:0x00000000
       10385000	      1037	8000144c	00000013	addi	x0,x0,0	  x0:0x00000000
       10395000	      1038	80001450	fedff0ef	jal	x1,80001450	  x1=0x80001450
       10405000	      1039	00000000	00000013	addi	x0,x0,0	  x0:0x00000000
       10415000	      1040	80001438	00000013	addi	x0,x0,0	  x0:0x00000000
       10425000	      1041	8000143c	018000ef	jal	x1,8000143c	  x1=0x8000143c
       10435000	      1042	00000000	00000013	addi	x0,x0,0	  x0:0x00000000
       10445000	      1043	80001450	00000013	addi	x0,x0,0	  x0:0x00000000
       10455000	      1044	80001454	0100036f	jal	x6,80001454	  x6=0x80001454
       10465000	      1045	00000000	00000013	addi	x0,x0,0	  x0:0x00000000
       10475000	      1046	80001460	00000013	addi	x0,x0,0	  x0:0x00000000
       10485000	      1047	80001464	fddff96f	jal	x18,80001464	 x18=0x80001464
       10495000	      1048	00000000	00000013	addi	x0,x0,0	  x0:0x00000000
       10505000	      1049	8000143c	00000013	addi	x0,x0,0	  x0:0x00000000
       10515000	      1050	80001440	020000ef	jal	x1,80001440	  x1=0x80001440
       10525000	      1051	00000000	00000013	addi	x0,x0,0	  x0:0x00000000
       10535000	      1052	8000145c	00000013	addi	x0,x0,0	  x0:0x00000000
       10545000	      1053	80001460	fe9ff0ef	jal	x1,80001460	  x1=0x80001460
       10555000	      1054	00000000	00000013	addi	x0,x0,0	  x0:0x00000000
       10565000	      1055	80001444	00000013	addi	x0,x0,0	  x0:0x00000000
       10575000	      1056	80001448	010000ef	jal	x1,80001448	  x1=0x80001448
       10585000	      1057	00000000	00000013	addi	x0,x0,0	  x0:0x00000000
       10595000	      1058	80001454	00000013	addi	x0,x0,0	  x0:0x00000000
       10605000	      1059	80001458	0100056f	jal	x10,80001458	 x10=0x80001458
       10615000	      1060	00000000	00000013	addi	x0,x0,0	  x0:0x00000000
       10625000	      1061	80001464	00000013	addi	x0,x0,0	  x0:0x00000000
       10635000	      1062	80001468	b8d7b517	auipc	x10,0xb8d7b	 x10=0x38d7c464
       10645000	      1063	8000146c	0280036f	jal	x6,8000146c	  x6=0x8000146c
       10655000	      1064	00000000	00000013	addi	x0,x0,0	  x0:0x00000000
       10665000	      1065	80001490	00000013	addi	x0,x0,0	  x0:0x00000000
       10675000	      1066	80001494	00400eef	jal	x29,80001494	 x29=0x80001494
       10685000	      1067	00000000	00000013	addi	x0,x0,0	  x0:0x00000000
       10695000	      1068	80001494	00000013	addi	x0,x0,0	  x0:0x00000000
       10705000	      1069	80001498	fe1ff56f	jal	x10,80001498	 x10=0x80001498
       10715000	      1070	00000000	00000013	addi	x0,x0,0	  x0:0x00000000
       10725000	      1071	80001474	00000013	addi	x0,x0,0	  x0:0x00000000
       10735000	      1072	80001478	00c005ef	jal	x11,80001478	 x11=0x80001478
       10745000	      1073	00000000	00000013	addi	x0,x0,0	  x0:0x00000000
       10755000	      1074	80001480	00000013	addi	x0,x0,0	  x0:0x00000000
       10765000	      1075	80001484	ff9ff1ef	jal	x3,80001484	  x3=0x80001484
       10775000	      1076	00000000	00000013	addi	x0,x0,0	  x0:0x00000000
       10785000	      1077	80001478	00000013	addi	x0,x0,0	  x0:0x00000000
       10795000	      1078	8000147c	ff9ff6ef	jal	x13,8000147c	 x13=0x8000147c
       10805000	      1079	00000000	00000013	addi	x0,x0,0	  x0:0x00000000
       10815000	      1080	80001470	00000013	addi	x0,x0,0	  x0:0x00000000
       10825000	      1081	80001474	ffdff0ef	jal	x1,80001474	  x1=0x80001474
       10835000	      1082	00000000	00000013	addi	x0,x0,0	  x0:0x00000000
       10845000	      1083	8000146c	00000013	addi	x0,x0,0	  x0:0x00000000
       10855000	      1084	80001470	020002ef	jal	x5,80001470	  x5=0x80001470
       10865000	      1085	00000000	00000013	addi	x0,x0,0	  x0:0x00000000
       10875000	      1086	8000148c	00000013	addi	x0,x0,0	  x0:0x00000000
       10885000	      1087	80001490	ff1ff36f	jal	x6,80001490	  x6=0x80001490
       10895000	      1088	00000000	00000013	addi	x0,x0,0	  x0:0x00000000
       10905000	      1089	8000147c	00000013	addi	x0,x0,0	  x0:0x00000000
       10915000	      1090	80001480	0080066f	jal	x12,80001480	 x12=0x80001480
       10925000	      1091	00000000	00000013	addi	x0,x0,0	  x0:0x00000000
       10935000	      1092	80001484	00000013	addi	x0,x0,0	  x0:0x00000000
       10945000	      1093	80001488	004000ef	jal	x1,80001488	  x1=0x80001488
       10955000	      1094	00000000	00000013	addi	x0,x0,0	  x0:0x00000000
       10965000	      1095	80001488	00000013	addi	x0,x0,0	  x0:0x00000000
       10975000	      1096	8000148c	0100036f	jal	x6,8000148c	  x6=0x8000148c
       10985000	      1097	00000000	00000013	addi	x0,x0,0	  x0:0x00000000
       10995000	      1098	80001498	00000013	addi	x0,x0,0	  x0:0x00000000
       11005000	      1099	8000149c	0156cb33	xor	x22,x13,x21	 x13:0x8000147c x21:0x80001250 x22=0x0000062c
       11015000	      1100	800014a0	02c0036f	jal	x6,800014a0	  x6=0x800014a0
       11025000	      1101	00000000	00000013	addi	x0,x0,0	  x0:0x00000000
       11035000	      1102	800014c8	00000013	addi	x0,x0,0	  x0:0x00000000
       11045000	      1103	800014cc	ff9ff36f	jal	x6,800014cc	  x6=0x800014cc
       11055000	      1104	00000000	00000013	addi	x0,x0,0	  x0:0x00000000
       11065000	      1105	800014c0	00000013	addi	x0,x0,0	  x0:0x00000000
       11075000	      1106	800014c4	ffdff2ef	jal	x5,800014c4	  x5=0x800014c4
       11085000	      1107	00000000	00000013	addi	x0,x0,0	  x0:0x00000000
       11095000	      1108	800014bc	00000013	addi	x0,x0,0	  x0:0x00000000
       11105000	      1109	800014c0	0080036f	jal	x6,800014c0	  x6=0x800014c0
       11115000	      1110	00000000	00000013	addi	x0,x0,0	  x0:0x00000000
       11125000	      1111	800014c4	00000013	addi	x0,x0,0	  x0:0x00000000
       11135000	      1112	800014c8	0080016f	jal	x2,800014c8	  x2=0x800014c8
       11145000	      1113	00000000	00000013	addi	x0,x0,0	  x0:0x00000000
       11155000	      1114	800014cc	00000013	addi	x0,x0,0	  x0:0x00000000
       11165000	      1115	800014d0	fedff0ef	jal	x1,800014d0	  x1=0x800014d0
       11175000	      1116	00000000	00000013	addi	x0,x0,0	  x0:0x00000000
       11185000	      1117	800014b8	00000013	addi	x0,x0,0	  x0:0x00000000
       11195000	      1118	800014bc	ff1ffdef	jal	x27,800014bc	 x27=0x800014bc
       11205000	      1119	00000000	00000013	addi	x0,x0,0	  x0:0x00000000
       11215000	      1120	800014a8	00000013	addi	x0,x0,0	  x0:0x00000000
       11225000	      1121	800014ac	02c0016f	jal	x2,800014ac	  x2=0x800014ac
       11235000	      1122	00000000	00000013	addi	x0,x0,0	  x0:0x00000000
       11245000	      1123	800014d4	00000013	addi	x0,x0,0	  x0:0x00000000
       11255000	      1124	800014d8	fd9ffb6f	jal	x22,800014d8	 x22=0x800014d8
       11265000	      1125	00000000	00000013	addi	x0,x0,0	  x0:0x00000000
       11275000	      1126	800014ac	00000013	addi	x0,x0,0	  x0:0x00000000
       11285000	      1127	800014b0	024000ef	jal	x1,800014b0	  x1=0x800014b0
       11295000	      1128	00000000	00000013	addi	x0,x0,0	  x0:0x00000000
       11305000	      1129	800014d0	00000013	addi	x0,x0,0	  x0:0x00000000
       11315000	      1130	800014d4	fd5ff36f	jal	x6,800014d4	  x6=0x800014d4
       11325000	      1131	00000000	00000013	addi	x0,x0,0	  x0:0x00000000
       11335000	      1132	800014a4	00000013	addi	x0,x0,0	  x0:0x00000000
       11345000	      1133	800014a8	ffdff46f	jal	x8,800014a8	  x8=0x800014a8
       11355000	      1134	00000000	00000013	addi	x0,x0,0	  x0:0x00000000
       11365000	      1135	800014a0	00000013	addi	x0,x0,0	  x0:0x00000000
       11375000	      1136	800014a4	01400e6f	jal	x28,800014a4	 x28=0x800014a4
       11385000	      1137	00000000	00000013	addi	x0,x0,0	  x0:0x00000000
       11395000	      1138	800014b4	00000013	addi	x0,x0,0	  x0:0x00000000
       11405000	      1139	800014b8	ffdff36f	jal	x6,800014b8	  x6=0x800014b8
       11415000	      1140	00000000	00000013	addi	x0,x0,0	  x0:0x00000000
       11425000	      1141	800014b0	00000013	addi	x0,x0,0	  x0:0x00000000
       11435000	      1142	800014b4	028000ef	jal	x1,800014b4	  x1=0x800014b4
       11445000	      1143	00000000	00000013	addi	x0,x0,0	  x0:0x00000000
       11455000	      1144	800014d8	00000013	addi	x0,x0,0	  x0:0x00000000
       11465000	      1145	800014dc	24ec6e93	ori	x29,x24,590	 x24:0x800013a4 x29=0x800013ee
       11475000	      1146	800014e0	02c0036f	jal	x6,800014e0	  x6=0x800014e0
       11485000	      1147	00000000	00000013	addi	x0,x0,0	  x0:0x00000000
       11495000	      1148	80001508	00000013	addi	x0,x0,0	  x0:0x00000000
       11505000	      1149	8000150c	ff1ff26f	jal	x4,8000150c	  x4=0x8000150c
       11515000	      1150	00000000	00000013	addi	x0,x0,0	  x0:0x00000000
       11525000	      1151	800014f8	00000013	addi	x0,x0,0	  x0:0x00000000
       11535000	      1152	800014fc	ffdfffef	jal	x31,800014fc	 x31=0x800014fc
       11545000	      1153	00000000	00000013	addi	x0,x0,0	  x0:0x00000000
       11555000	      1154	800014f4	00000013	addi	x0,x0,0	  x0:0x00000000
       11565000	      1155	800014f8	fedff36f	jal	x6,800014f8	  x6=0x800014f8
       11575000	      1156	00000000	00000013	addi	x0,x0,0	  x0:0x00000000
       11585000	      1157	800014e0	00000013	addi	x0,x0,0	  x0:0x00000000
       11595000	      1158	800014e4	024000ef	jal	x1,800014e4	  x1=0x800014e4
       11605000	      1159	00000000	00000013	addi	x0,x0,0	  x0:0x00000000
       11615000	      1160	80001504	00000013	addi	x0,x0,0	  x0:0x00000000
       11625000	      1161	80001508	fe9ff0ef	jal	x1,80001508	  x1=0x80001508
       11635000	      1162	00000000	00000013	addi	x0,x0,0	  x0:0x00000000
       11645000	      1163	800014ec	00000013	addi	x0,x0,0	  x0:0x00000000
       11655000	      1164	800014f0	0040066f	jal	x12,800014f0	 x12=0x800014f0
       11665000	      1165	00000000	00000013	addi	x0,x0,0	  x0:0x00000000
       11675000	      1166	800014f0	00000013	addi	x0,x0,0	  x0:0x00000000
       11685000	      1167	800014f4	010000ef	jal	x1,800014f4	  x1=0x800014f4
       11695000	      1168	00000000	00000013	addi	x0,x0,0	  x0:0x00000000
       11705000	      1169	80001500	00000013	addi	x0,x0,0	  x0:0x00000000
       11715000	      1170	80001504	fe5ff9ef	jal	x19,80001504	 x19=0x80001504
       11725000	      1171	00000000	00000013	addi	x0,x0,0	  x0:0x00000000
       11735000	      1172	800014e4	00000013	addi	x0,x0,0	  x0:0x00000000
       11745000	      1173	800014e8	00400eef	jal	x29,800014e8	 x29=0x800014e8
       11755000	      1174	00000000	00000013	addi	x0,x0,0	  x0:0x00000000
       11765000	      1175	800014e8	00000013	addi	x0,x0,0	  x0:0x00000000
       11775000	      1176	800014ec	014000ef	jal	x1,800014ec	  x1=0x800014ec
       11785000	      1177	00000000	00000013	addi	x0,x0,0	  x0:0x00000000
       11795000	      1178	800014fc	00000013	addi	x0,x0,0	  x0:0x00000000
       11805000	      1179	80001500	010000ef	jal	x1,80001500	  x1=0x80001500
       11815000	      1180	00000000	00000013	addi	x0,x0,0	  x0:0x00000000
       11825000	      1181	8000150c	00000013	addi	x0,x0,0	  x0:0x00000000
       11835000	      1182	80001510	00f3f733	and	x14,x7,x15	  x7:0x8000137c x15:0xf573b7aa x14=0x80001328
       11845000	      1183	80001514	0240036f	jal	x6,80001514	  x6=0x80001514
       11855000	      1184	00000000	00000013	addi	x0,x0,0	  x0:0x00000000
       11865000	      1185	80001534	00000013	addi	x0,x0,0	  x0:0x00000000
       11875000	      1186	80001538	ff9ff2ef	jal	x5,80001538	  x5=0x80001538
       11885000	      1187	00000000	00000013	addi	x0,x0,0	  x0:0x00000000
       11895000	      1188	8000152c	00000013	addi	x0,x0,0	  x0:0x00000000
       11905000	      1189	80001530	ffdff0ef	jal	x1,80001530	  x1=0x80001530
       11915000	      1190	00000000	00000013	addi	x0,x0,0	  x0:0x00000000
       11925000	      1191	80001528	00000013	addi	x0,x0,0	  x0:0x00000000
       11935000	      1192	8000152c	fedff0ef	jal	x1,8000152c	  x1=0x8000152c
       11945000	      1193	00000000	00000013	addi	x0,x0,0	  x0:0x00000000
       11955000	      1194	80001514	00000013	addi	x0,x0,0	  x0:0x00000000
       11965000	      1195	80001518	02c000ef	jal	x1,80001518	  x1=0x80001518
       11975000	      1196	00000000	00000013	addi	x0,x0,0	  x0:0x00000000
       11985000	      1197	80001540	00000013	addi	x0,x0,0	  x0:0x00000000
       11995000	      1198	80001544	00c002ef	jal	x5,80001544	  x5=0x80001544
       12005000	      1199	00000000	00000013	addi	x0,x0,0	  x0:0x00000000
       12015000	      1200	8000154c	00000013	addi	x0,x0,0	  x0:0x00000000
       12025000	      1201	80001550	ff9ff0ef	jal	x1,80001550	  x1=0x80001550
       12035000	      1202	00000000	00000013	addi	x0,x0,0	  x0:0x00000000
       12045000	      1203	80001544	00000013	addi	x0,x0,0	  x0:0x00000000
       12055000	      1204	80001548	ff9ff0ef	jal	x1,80001548	  x1=0x80001548
       12065000	      1205	00000000	00000013	addi	x0,x0,0	  x0:0x00000000
       12075000	      1206	8000153c	00000013	addi	x0,x0,0	  x0:0x00000000
       12085000	      1207	80001540	ff5ff0ef	jal	x1,80001540	  x1=0x80001540
       12095000	      1208	00000000	00000013	addi	x0,x0,0	  x0:0x00000000
       12105000	      1209	80001530	00000013	addi	x0,x0,0	  x0:0x00000000
       12115000	      1210	80001534	fe9ff0ef	jal	x1,80001534	  x1=0x80001534
       12125000	      1211	00000000	00000013	addi	x0,x0,0	  x0:0x00000000
       12135000	      1212	80001518	00000013	addi	x0,x0,0	  x0:0x00000000
       12145000	      1213	8000151c	00400def	jal	x27,8000151c	 x27=0x8000151c
       12155000	      1214	00000000	00000013	addi	x0,x0,0	  x0:0x00000000
       12165000	      1215	8000151c	00000013	addi	x0,x0,0	  x0:0x00000000
       12175000	      1216	80001520	00400def	jal	x27,80001520	 x27=0x80001520
       12185000	      1217	00000000	00000013	addi	x0,x0,0	  x0:0x00000000
       12195000	      1218	80001520	00000013	addi	x0,x0,0	  x0:0x00000000
       12205000	      1219	80001524	0180036f	jal	x6,80001524	  x6=0x80001524
       12215000	      1220	00000000	00000013	addi	x0,x0,0	  x0:0x00000000
       12225000	      1221	80001538	00000013	addi	x0,x0,0	  x0:0x00000000
       12235000	      1222	8000153c	fedff3ef	jal	x7,8000153c	  x7=0x8000153c
       12245000	      1223	00000000	00000013	addi	x0,x0,0	  x0:0x00000000
       12255000	      1224	80001524	00000013	addi	x0,x0,0	  x0:0x00000000
       12265000	      1225	80001528	024000ef	jal	x1,80001528	  x1=0x80001528
       12275000	      1226	00000000	00000013	addi	x0,x0,0	  x0:0x00000000
       12285000	      1227	80001548	00000013	addi	x0,x0,0	  x0:0x00000000
       12295000	      1228	8000154c	00800c6f	jal	x24,8000154c	 x24=0x8000154c
       12305000	      1229	00000000	00000013	addi	x0,x0,0	  x0:0x00000000
       12315000	      1230	80001550	00000013	addi	x0,x0,0	  x0:0x00000000
       12325000	      1231	80001554	54532f13	slti	x30,x6,1349	  x6:0x80001524 x30=0x00000001
       12335000	      1232	80001558	0080036f	jal	x6,80001558	  x6=0x80001558
       12345000	      1233	00000000	00000013	addi	x0,x0,0	  x0:0x00000000
       12355000	      1234	8000155c	00000013	addi	x0,x0,0	  x0:0x00000000
       12365000	      1235	80001560	018001ef	jal	x3,80001560	  x3=0x80001560
       12375000	      1236	00000000	00000013	addi	x0,x0,0	  x0:0x00000000
       12385000	      1237	80001574	00000013	addi	x0,x0,0	  x0:0x00000000
       12395000	      1238	80001578	04800def	jal	x27,80001578	 x27=0x80001578
       12405000	      1239	00000000	00000013	addi	x0,x0,0	  x0:0x00000000
       12415000	      1240	800015bc	00000013	addi	x0,x0,0	  x0:0x00000000
       12425000	      1241	800015c0	fddff0ef	jal	x1,800015c0	  x1=0x800015c0
       12435000	      1242	00000000	00000013	addi	x0,x0,0	  x0:0x00000000
       12445000	      1243	80001598	00000013	addi	x0,x0,0	  x0:0x00000000
       12455000	      1244	8000159c	fe1ff2ef	jal	x5,8000159c	  x5=0x8000159c
       12465000	      1245	00000000	00000013	addi	x0,x0,0	  x0:0x00000000
       12475000	      1246	80001578	00000013	addi	x0,x0,0	  x0:0x00000000
       12485000	      1247	8000157c	004000ef	jal	x1,8000157c	  x1=0x8000157c
       12495000	      1248	00000000	00000013	addi	x0,x0,0	  x0:0x00000000
       12505000	      1249	8000157c	00000013	addi	x0,x0,0	  x0:0x00000000
       12515000	      1250	80001580	fedff56f	jal	x10,80001580	 x10=0x80001580
       12525000	      1251	00000000	00000013	addi	x0,x0,0	  x0:0x00000000
       12535000	      1252	80001568	00000013	addi	x0,x0,0	  x0:0x00000000
       12545000	      1253	8000156c	0200036f	jal	x6,8000156c	  x6=0x8000156c
       12555000	      1254	00000000	00000013	addi	x0,x0,0	  x0:0x00000000
       12565000	      1255	80001588	00000013	addi	x0,x0,0	  x0:0x00000000
       12575000	      1256	8000158c	ff9ff1ef	jal	x3,8000158c	  x3=0x8000158c
       12585000	      1257	00000000	00000013	addi	x0,x0,0	  x0:0x00000000
       12595000	      1258	80001580	00000013	addi	x0,x0,0	  x0:0x00000000
       12605000	      1259	80001584	00c000ef	jal	x1,80001584	  x1=0x80001584
       12615000	      1260	00000000	00000013	addi	x0,x0,0	  x0:0x00000000
       12625000	      1261	8000158c	00000013	addi	x0,x0,0	  x0:0x00000000
       12635000	      1262	80001590	0240036f	jal	x6,80001590	  x6=0x80001590
       12645000	      1263	00000000	00000013	addi	x0,x0,0	  x0:0x00000000
       12655000	      1264	800015b0	00000013	addi	x0,x0,0	  x0:0x00000000
       12665000	      1265	800015b4	fc1ff36f	jal	x6,800015b4	  x6=0x800015b4
       12675000	      1266	00000000	00000013	addi	x0,x0,0	  x0:0x00000000
       12685000	      1267	80001570	00000013	addi	x0,x0,0	  x0:0x00000000
       12695000	      1268	80001574	ffdff0ef	jal	x1,80001574	  x1=0x80001574
       12705000	      1269	00000000	00000013	addi	x0,x0,0	  x0:0x00000000
       12715000	      1270	8000156c	00000013	addi	x0,x0,0	  x0:0x00000000
       12725000	      1271	80001570	0240076f	jal	x14,80001570	 x14=0x80001570
       12735000	      1272	00000000	00000013	addi	x0,x0,0	  x0:0x00000000
       12745000	      1273	80001590	00000013	addi	x0,x0,0	  x0:0x00000000
       12755000	      1274	80001594	02800a6f	jal	x20,80001594	 x20=0x80001594
       12765000	      1275	00000000	00000013	addi	x0,x0,0	  x0:0x00000000
       12775000	      1276	800015b8	00000013	addi	x0,x0,0	  x0:0x00000000
       12785000	      1277	800015bc	ff1ff9ef	jal	x19,800015bc	 x19=0x800015bc
       12795000	      1278	00000000	00000013	addi	x0,x0,0	  x0:0x00000000
       12805000	      1279	800015a8	00000013	addi	x0,x0,0	  x0:0x00000000
       12815000	      1280	800015ac	ff9ff0ef	jal	x1,800015ac	  x1=0x800015ac
       12825000	      1281	00000000	00000013	addi	x0,x0,0	  x0:0x00000000
       12835000	      1282	800015a0	00000013	addi	x0,x0,0	  x0:0x00000000
       12845000	      1283	800015a4	fc5ff0ef	jal	x1,800015a4	  x1=0x800015a4
       12855000	      1284	00000000	00000013	addi	x0,x0,0	  x0:0x00000000
       12865000	      1285	80001564	00000013	addi	x0,x0,0	  x0:0x00000000
       12875000	      1286	80001568	0500016f	jal	x2,80001568	  x2=0x80001568
       12885000	      1287	00000000	00000013	addi	x0,x0,0	  x0:0x00000000
       12895000	      1288	800015b4	00000013	addi	x0,x0,0	  x0:0x00000000
       12905000	      1289	800015b8	fe1ff0ef	jal	x1,800015b8	  x1=0x800015b8
       12915000	      1290	00000000	00000013	addi	x0,x0,0	  x0:0x00000000
       12925000	      1291	80001594	00000013	addi	x0,x0,0	  x0:0x00000000
       12935000	      1292	80001598	fc5ff2ef	jal	x5,80001598	  x5=0x80001598
       12945000	      1293	00000000	00000013	addi	x0,x0,0	  x0:0x00000000
       12955000	      1294	80001558	00000013	addi	x0,x0,0	  x0:0x00000000
       12965000	      1295	8000155c	008000ef	jal	x1,8000155c	  x1=0x8000155c
       12975000	      1296	00000000	00000013	addi	x0,x0,0	  x0:0x00000000
       12985000	      1297	80001560	00000013	addi	x0,x0,0	  x0:0x00000000
       12995000	      1298	80001564	0440046f	jal	x8,80001564	  x8=0x80001564
       13005000	      1299	00000000	00000013	addi	x0,x0,0	  x0:0x00000000
       13015000	      1300	800015a4	00000013	addi	x0,x0,0	  x0:0x00000000
       13025000	      1301	800015a8	fe1ff36f	jal	x6,800015a8	  x6=0x800015a8
       13035000	      1302	00000000	00000013	addi	x0,x0,0	  x0:0x00000000
       13045000	      1303	80001584	00000013	addi	x0,x0,0	  x0:0x00000000
       13055000	      1304	80001588	028002ef	jal	x5,80001588	  x5=0x80001588
       13065000	      1305	00000000	00000013	addi	x0,x0,0	  x0:0x00000000
       13075000	      1306	800015ac	00000013	addi	x0,x0,0	  x0:0x00000000
       13085000	      1307	800015b0	ff1ff36f	jal	x6,800015b0	  x6=0x800015b0
       13095000	      1308	00000000	00000013	addi	x0,x0,0	  x0:0x00000000
       13105000	      1309	8000159c	00000013	addi	x0,x0,0	  x0:0x00000000
       13115000	      1310	800015a0	02400c6f	jal	x24,800015a0	 x24=0x800015a0
       13125000	      1311	00000000	00000013	addi	x0,x0,0	  x0:0x00000000
       13135000	      1312	800015c0	00000013	addi	x0,x0,0	  x0:0x00000000
       13145000	      1313	800015c4	b2b62393	slti	x7,x12,-1237	 x12:0x800014f0  x7=0x00000001
       13155000	      1314	800015c8	0240036f	jal	x6,800015c8	  x6=0x800015c8
       13165000	      1315	00000000	00000013	addi	x0,x0,0	  x0:0x00000000
       13175000	      1316	800015e8	00000013	addi	x0,x0,0	  x0:0x00000000
       13185000	      1317	800015ec	fe1ff2ef	jal	x5,800015ec	  x5=0x800015ec
       13195000	      1318	00000000	00000013	addi	x0,x0,0	  x0:0x00000000
       13205000	      1319	800015c8	00000013	addi	x0,x0,0	  x0:0x00000000
       13215000	      1320	800015cc	01c000ef	jal	x1,800015cc	  x1=0x800015cc
       13225000	      1321	00000000	00000013	addi	x0,x0,0	  x0:0x00000000
       13235000	      1322	800015e4	00000013	addi	x0,x0,0	  x0:0x00000000
       13245000	      1323	800015e8	fe9ff16f	jal	x2,800015e8	  x2=0x800015e8
       13255000	      1324	00000000	00000013	addi	x0,x0,0	  x0:0x00000000
       13265000	      1325	800015cc	00000013	addi	x0,x0,0	  x0:0x00000000
       13275000	      1326	800015d0	01400b6f	jal	x22,800015d0	 x22=0x800015d0
       13285000	      1327	00000000	00000013	addi	x0,x0,0	  x0:0x00000000
       13295000	      1328	800015e0	00000013	addi	x0,x0,0	  x0:0x00000000
       13305000	      1329	800015e4	ff5ff36f	jal	x6,800015e4	  x6=0x800015e4
       13315000	      1330	00000000	00000013	addi	x0,x0,0	  x0:0x00000000
       13325000	      1331	800015d4	00000013	addi	x0,x0,0	  x0:0x00000000
       13335000	      1332	800015d8	0280036f	jal	x6,800015d8	  x6=0x800015d8
       13345000	      1333	00000000	00000013	addi	x0,x0,0	  x0:0x00000000
       13355000	      1334	800015fc	00000013	addi	x0,x0,0	  x0:0x00000000
       13365000	      1335	80001600	fddff0ef	jal	x1,80001600	  x1=0x80001600
       13375000	      1336	00000000	00000013	addi	x0,x0,0	  x0:0x00000000
       13385000	      1337	800015d8	00000013	addi	x0,x0,0	  x0:0x00000000
       13395000	      1338	800015dc	01800def	jal	x27,800015dc	 x27=0x800015dc
       13405000	      1339	00000000	00000013	addi	x0,x0,0	  x0:0x00000000
       13415000	      1340	800015f0	00000013	addi	x0,x0,0	  x0:0x00000000
       13425000	      1341	800015f4	010000ef	jal	x1,800015f4	  x1=0x800015f4
       13435000	      1342	00000000	00000013	addi	x0,x0,0	  x0:0x00000000
       13445000	      1343	80001600	00000013	addi	x0,x0,0	  x0:0x00000000
       13455000	      1344	80001604	ff9ffb6f	jal	x22,80001604	 x22=0x80001604
       13465000	      1345	00000000	00000013	addi	x0,x0,0	  x0:0x00000000
       13475000	      1346	800015f8	00000013	addi	x0,x0,0	  x0:0x00000000
       13485000	      1347	800015fc	fd9ff2ef	jal	x5,800015fc	  x5=0x800015fc
       13495000	      1348	00000000	00000013	addi	x0,x0,0	  x0:0x00000000
       13505000	      1349	800015d0	00000013	addi	x0,x0,0	  x0:0x00000000
       13515000	      1350	800015d4	00c000ef	jal	x1,800015d4	  x1=0x800015d4
       13525000	      1351	00000000	00000013	addi	x0,x0,0	  x0:0x00000000
       13535000	      1352	800015dc	00000013	addi	x0,x0,0	  x0:0x00000000
       13545000	      1353	800015e0	018000ef	jal	x1,800015e0	  x1=0x800015e0
       13555000	      1354	00000000	00000013	addi	x0,x0,0	  x0:0x00000000
       13565000	      1355	800015f4	00000013	addi	x0,x0,0	  x0:0x00000000
       13575000	      1356	800015f8	ff9ff1ef	jal	x3,800015f8	  x3=0x800015f8
       13585000	      1357	00000000	00000013	addi	x0,x0,0	  x0:0x00000000
       13595000	      1358	800015ec	00000013	addi	x0,x0,0	  x0:0x00000000
       13605000	      1359	800015f0	0180036f	jal	x6,800015f0	  x6=0x800015f0
       13615000	      1360	00000000	00000013	addi	x0,x0,0	  x0:0x00000000
       13625000	      1361	80001604	00000013	addi	x0,x0,0	  x0:0x00000000
       13635000	      1362	80001608	0040046f	jal	x8,80001608	  x8=0x80001608
       13645000	      1363	00000000	00000013	addi	x0,x0,0	  x0:0x00000000
       13655000	      1364	80001608	00000013	addi	x0,x0,0	  x0:0x00000000
       13665000	      1365	8000160c	409e86b3	sub	x13,x29,x9	 x29:0x800014e8  x9:0x800013bc x13=0x0000012c
       13675000	      1366	80001610	0241e863	bltu	x3,x4,80001640	  x3:0x800015f8  x4:0x8000150c
       13685000	      1367	80001614	40845033	sra	x0,x8,x8	  x8:0x80001608  x8:0x80001608
       13695000	      1368	80001618	40c984b3	sub	x9,x19,x12	 x19:0x800015bc x12:0x800014f0  x9=0x000000cc
       13705000	      1369	8000161c	19593a93	sltiu	x21,x18,405	 x18:0x80001464 x21=0x00000000
       13715000	      1370	80001620	5ee20a13	addi	x20,x4,1518	  x4:0x8000150c x20=0x80001afa
       13725000	      1371	80001624	013b7b33	and	x22,x22,x19	 x22:0x80001604 x19:0x800015bc x22=0x80001404
       13735000	      1372	80001628	0063db33	srl	x22,x7,x6	  x7:0x00000001  x6:0x800015f0 x22=0x00000000
       13745000	      1373	8000162c	00159b93	slli	x23,x11,0x1	 x11:0x80001478 x23=0x000028f0
       13755000	      1374	80001630	00c1d333	srl	x6,x3,x12	  x3:0x800015f8 x12:0x800014f0  x6=0x00008000
       13765000	      1375	80001634	8fea3c13	sltiu	x24,x20,-1794	 x20:0x80001afa x24=0x00000001
       13775000	      1376	80001638	01ebbdb3	sltu	x27,x23,x30	 x23:0x000028f0 x30:0x00000001 x27=0x00000000
       13785000	      1377	8000163c	00518fb3	add	x31,x3,x5	  x3:0x800015f8  x5:0x800015fc x31=0x00002bf4
       13795000	      1378	80001640	00f40033	add	x0,x8,x15	  x8:0x80001608 x15:0xf573b7aa
       13805000	      1379	80001644	011d1fb3	sll	x31,x26,x17	 x26:0x80009f2c x17:0x80009fc4 x31=0x0009f2c0
       13815000	      1380	80001648	e8c2bf93	sltiu	x31,x5,-372	  x5:0x800015fc x31=0x00000001
       13825000	      1381	8000164c	4a7ba617	auipc	x12,0x4a7ba	 x12=0xca7bb648
       13835000	      1382	80001650	004acfb3	xor	x31,x21,x4	 x21:0x00000000  x4:0x8000150c x31=0x8000150c
       13845000	      1383	80001654	e12b3193	sltiu	x3,x22,-494	 x22:0x00000000  x3=0x00000001
       13855000	      1384	80001658	0b3fb313	sltiu	x6,x31,179	 x31:0x8000150c  x6=0x00000000
       13865000	      1385	8000165c	01155913	srli	x18,x10,0x11	 x10:0x80001580 x18=0x00004000
       13875000	      1386	80001660	d33bb213	sltiu	x4,x23,-717	 x23:0x000028f0  x4=0x00000001
       13885000	      1387	80001664	4d55c697	auipc	x13,0x4d55c	 x13=0xcd55d660
       13895000	      1388	80001668	4c0deb93	ori	x23,x27,1216	 x27:0x00000000 x23=0x000004c0
       13905000	      1389	8000166c	00cfe663	bltu	x31,x12,80001678	 x31:0x8000150c x12:0xca7bb648
       13915000	      1390	00000000	00000013	addi	x0,x0,0	  x0:0x00000000
       13925000	      1391	80001674	00000013	addi	x0,x0,0	  x0:0x00000000
       13935000	      1392	80001678	32af0a97	auipc	x21,0x32af0	 x21=0xb2af1674
       13945000	      1393	8000167c	00a4c263	blt	x9,x10,80001680	  x9:0x000000cc x10:0x80001580
       13955000	      1394	80001680	007cb4b3	sltu	x9,x25,x7	 x25:0x800013dc  x7:0x00000001  x9=0x00000000
       13965000	      1395	80001684	01aa2bb3	slt	x23,x20,x26	 x20:0x80001afa x26:0x80009f2c x23=0x00000001
       13975000	      1396	80001688	002af333	and	x6,x21,x2	 x21:0xb2af1674  x2:0x800015e8  x6=0x80001460
       13985000	      1397	8000168c	003905b3	add	x11,x18,x3	 x18:0x00004000  x3:0x00000001 x11=0x00004001
       13995000	      1398	80001690	004e8bb3	add	x23,x29,x4	 x29:0x800014e8  x4:0x00000001 x23=0x800014e9
       14005000	      1399	80001694	7a3fc713	xori	x14,x31,1955	 x31:0x8000150c x14=0x800012af
       14015000	      1400	80001698	aa2fc393	xori	x7,x31,-1374	 x31:0x8000150c  x7=0x7fffefae
       14025000	      1401	8000169c	00a4c3b3	xor	x7,x9,x10	  x9:0x00000000 x10:0x80001580  x7=0x80001580
       14035000	      1402	800016a0	028e8263	beq	x29,x8,800016c4	 x29:0x800014e8  x8:0x80001608
       14045000	      1403	800016a4	901ecbb7	lui	x23,0x901ec	 x23=0x901ec000
       14055000	      1404	800016a8	02051063	bne	x10,x0,800016c8	 x10:0x80001580  x0:0x00000000
       14065000	      1405	00000000	00000013	addi	x0,x0,0	  x0:0x00000000
       14075000	      1406	800016c4	00000013	addi	x0,x0,0	  x0:0x00000000
       14085000	      1407	800016c8	01ee1533	sll	x10,x28,x30	 x28:0x800014a4 x30:0x00000001 x10=0x00002948
       14095000	      1408	800016cc	0471d463	bge	x3,x7,80001714	  x3:0x00000001  x7:0x80001580
       14105000	      1409	00000000	00000013	addi	x0,x0,0	  x0:0x00000000
       14115000	      1410	80001710	00000013	addi	x0,x0,0	  x0:0x00000000
       14125000	      1411	80001714	e02e7013	andi	x0,x28,-510	 x28:0x800014a4
       14135000	      1412	80001718	0057ec33	or	x24,x15,x5	 x15:0xf573b7aa  x5:0x800015fc x24=0xf573b7fe
       14145000	      1413	8000171c	69104d93	xori	x27,x0,1681	  x0:0x00000000 x27=0x00000691
       14155000	      1414	80001720	01c41533	sll	x10,x8,x28	  x8:0x80001608 x28:0x800014a4 x10=0x00016080
       14165000	      1415	80001724	d62b4f93	xori	x31,x22,-670	 x22:0x00000000 x31=0xfffffd62
       14175000	      1416	80001728	00ccd833	srl	x16,x25,x12	 x25:0x800013dc x12:0xca7bb648 x16=0x00800013
       14185000	      1417	8000172c	03fe5c63	bge	x28,x31,80001764	 x28:0x800014a4 x31:0xfffffd62
       14195000	      1418	80001730	00280633	add	x12,x16,x2	 x16:0x00800013  x2:0x800015e8 x12=0x808015fb
       14205000	      1419	80001734	012aef33	or	x30,x21,x18	 x21:0xb2af1674 x18:0x00004000 x30=0xb2af5674
       14215000	      1420	80001738	015fd493	srli	x9,x31,0x15	 x31:0xfffffd62  x9=0x000007ff
       14225000	      1421	8000173c	00bcf4b3	and	x9,x25,x11	 x25:0x800013dc x11:0x00004001  x9=0x00000000
       14235000	      1422	80001740	01ef6263	bltu	x30,x30,80001744	 x30:0xb2af5674 x30:0xb2af5674
       14245000	      1423	80001744	011f7a33	and	x20,x30,x17	 x30:0xb2af5674 x17:0x80009fc4 x20=0x80001644
       14255000	      1424	80001748	003ab833	sltu	x16,x21,x3	 x21:0xb2af1674  x3:0x00000001 x16=0x00000000
       14265000	      1425	8000174c	004e5c63	bge	x28,x4,80001764	 x28:0x800014a4  x4:0x00000001
       14275000	      1426	80001750	fcc69537	lui	x10,0xfcc69	 x10=0xfcc69000
       14285000	      1427	80001754	ba4d7913	andi	x18,x26,-1116	 x26:0x80009f2c x18=0x80009b24
       14295000	      1428	80001758	01555713	srli	x14,x10,0x15	 x10:0xfcc69000 x14=0x000007e6
       14305000	      1429	8000175c	047e6663	bltu	x28,x7,800017a8	 x28:0x800014a4  x7:0x80001580
       14315000	      1430	00000000	00000013	addi	x0,x0,0	  x0:0x00000000
       14325000	      1431	800017a4	00000013	addi	x0,x0,0	  x0:0x00000000
       14335000	      1432	800017a8	01bd64b3	or	x9,x26,x27	 x26:0x80009f2c x27:0x00000691  x9=0x80009fbd
       14345000	      1433	800017ac	01482e33	slt	x28,x16,x20	 x16:0x00000000 x20:0x80001644 x28=0x00000000
       14355000	      1434	800017b0	00f86bb3	or	x23,x16,x15	 x16:0x00000000 x15:0xf573b7aa x23=0xf573b7aa
       14365000	      1435	800017b4	e51b4b17	auipc	x22,0xe51b4	 x22=0x651b57b0
       14375000	      1436	800017b8	d9cef0b7	lui	x1,0xd9cef	  x1=0xd9cef000
       14385000	      1437	800017bc	00016e63	bltu	x2,x0,800017d8	  x2:0x800015e8  x0:0x00000000
       14395000	      1438	800017c0	40e5d313	srai	x6,x11,0xe	 x11:0x00004001  x6=0x00000001
       14405000	      1439	800017c4	1375f637	lui	x12,0x1375f	 x12=0x1375f000
       14415000	      1440	800017c8	a8973e13	sltiu	x28,x14,-1399	 x14:0x000007e6 x28=0x00000001
       14425000	      1441	800017cc	018d8a63	beq	x27,x24,800017e0	 x27:0x00000691 x24:0xf573b7fe
       14435000	      1442	800017d0	01ac0663	beq	x24,x26,800017dc	 x24:0xf573b7fe x26:0x80009f2c
       14445000	      1443	800017d4	00000013	addi	x0,x0,0	  x0:0x00000000
       14455000	      1444	800017d8	85b46c93	ori	x25,x8,-1957	  x8:0x80001608 x25=0xfffffe5b
       14465000	      1445	800017dc	281d4a13	xori	x20,x26,641	 x26:0x80009f2c x20=0x80009dad
       14475000	      1446	800017e0	03315863	bge	x2,x19,80001810	  x2:0x800015e8 x19:0x800015bc
       14485000	      1447	00000000	00000013	addi	x0,x0,0	  x0:0x00000000
       14495000	      1448	8000180c	00000013	addi	x0,x0,0	  x0:0x00000000
       14505000	      1449	80001810	011ed513	srli	x10,x29,0x11	 x29:0x800014e8 x10=0x00004000
       14515000	      1450	80001814	961ff093	andi	x1,x31,-1695	 x31:0xfffffd62  x1=0xfffff960
       14525000	      1451	80001818	4a7bc613	xori	x12,x23,1191	 x23:0xf573b7aa x12=0xf573b30d
       14535000	      1452	8000181c	417650b3	sra	x1,x12,x23	 x12:0xf573b30d x23:0xf573b7aa  x1=0xfffd5cec
       14545000	      1453	80001820	008b5663	bge	x22,x8,8000182c	 x22:0x651b57b0  x8:0x80001608
       14555000	      1454	00000000	00000013	addi	x0,x0,0	  x0:0x00000000
       14565000	      1455	80001828	00000013	addi	x0,x0,0	  x0:0x00000000
       14575000	      1456	8000182c	04c80863	beq	x16,x12,8000187c	 x16:0x00000000 x12:0xf573b30d
       14585000	      1457	80001830	b3d35617	auipc	x12,0xb3d35	 x12=0x33d3682c
       14595000	      1458	80001834	8351e297	auipc	x5,0x8351e	  x5=0x0351f830
       14605000	      1459	80001838	05f04663	blt	x0,x31,80001884	  x0:0x00000000 x31:0xfffffd62
       14615000	      1460	8000183c	97096c13	ori	x24,x18,-1680	 x18:0x80009b24 x24=0xfffffb74
       14625000	      1461	80001840	00000013	addi	x0,x0,0	  x0:0x00000000
       14635000	      1462	80001844	004473b3	and	x7,x8,x4	  x8:0x80001608  x4:0x00000001  x7=0x00000000
       14645000	      1463	80001848	fc39e593	ori	x11,x19,-61	 x19:0x800015bc x11=0xffffffff
       14655000	      1464	8000184c	014790b3	sll	x1,x15,x20	 x15:0xf573b7aa x20:0x80009dad  x1=0x76f54000
       14665000	      1465	80001850	39e7f493	andi	x9,x15,926	 x15:0xf573b7aa  x9=0x0000038a
       14675000	      1466	80001854	027a0e63	beq	x20,x7,80001890	 x20:0x80009dad  x7:0x00000000
       14685000	      1467	80001858	e67c8417	auipc	x8,0xe67c8	  x8=0x667c9854
       14695000	      1468	8000185c	007d1533	sll	x10,x26,x7	 x26:0x80009f2c  x7:0x00000000 x10=0x80009f2c
       14705000	      1469	80001860	41e4dc13	srai	x24,x9,0x1e	  x9:0x0000038a x24=0x00000000
       14715000	      1470	80001864	04c56463	bltu	x10,x12,800018ac	 x10:0x80009f2c x12:0x33d3682c
       14725000	      1471	80001868	712fc193	xori	x3,x31,1810	 x31:0xfffffd62  x3=0xfffffa70
       14735000	      1472	8000186c	00000013	addi	x0,x0,0	  x0:0x00000000
       14745000	      1473	80001870	41d10bb3	sub	x23,x2,x29	  x2:0x800015e8 x29:0x800014e8 x23=0x00000100
       14755000	      1474	80001874	011fae33	slt	x28,x31,x17	 x31:0xfffffd62 x17:0x80009fc4 x28=0x00000000
       14765000	      1475	80001878	00114233	xor	x4,x2,x1	  x2:0x800015e8  x1:0x76f54000  x4=0xf6f555e8
       14775000	      1476	8000187c	009c30b3	sltu	x1,x24,x9	 x24:0x00000000  x9:0x0000038a  x1=0x00000001
       14785000	      1477	80001880	01411093	slli	x1,x2,0x14	  x2:0x800015e8  x1=0x5e800000
       14795000	      1478	80001884	01770933	add	x18,x14,x23	 x14:0x000007e6 x23:0x00000100 x18=0x000008e6
       14805000	      1479	80001888	41320c33	sub	x24,x4,x19	  x4:0xf6f555e8 x19:0x800015bc x24=0x76f5402c
       14815000	      1480	8000188c	285dcf97	auipc	x31,0x285dc	 x31=0xa85dd888
       14825000	      1481	80001890	00ae6663	bltu	x28,x10,8000189c	 x28:0x00000000 x10:0x80009f2c
       14835000	      1482	00000000	00000013	addi	x0,x0,0	  x0:0x00000000
       14845000	      1483	80001898	00000013	addi	x0,x0,0	  x0:0x00000000
       14855000	      1484	8000189c	f6d57713	andi	x14,x10,-147	 x10:0x80009f2c x14=0x80009f2c
       14865000	      1485	800018a0	017c5593	srli	x11,x24,0x17	 x24:0x76f5402c x11=0x000000ed
       14875000	      1486	800018a4	008d6bb3	or	x23,x26,x8	 x26:0x80009f2c  x8:0x667c9854 x23=0xe67c9f7c
       14885000	      1487	800018a8	016289b3	add	x19,x5,x22	  x5:0x0351f830 x22:0x651b57b0 x19=0x686d4fe0
       14895000	      1488	800018ac	41a105b3	sub	x11,x2,x26	  x2:0x800015e8 x26:0x80009f2c x11=0xffff76bc
       14905000	      1489	800018b0	0051d263	bge	x3,x5,800018b4	  x3:0xfffffa70  x5:0x0351f830
       14915000	      1490	800018b4	015bd113	srli	x2,x23,0x15	 x23:0xe67c9f7c  x2=0x00000733
       14925000	      1491	800018b8	01eebb33	sltu	x22,x29,x30	 x29:0x800014e8 x30:0xb2af5674 x22=0x00000001
       14935000	      1492	800018bc	75e53c13	sltiu	x24,x10,1886	 x10:0x80009f2c x24=0x00000000
       14945000	      1493	800018c0	015bf663	bgeu	x23,x21,800018cc	 x23:0xe67c9f7c x21:0xb2af1674
       14955000	      1494	00000000	00000013	addi	x0,x0,0	  x0:0x00000000
       14965000	      1495	800018c8	00000013	addi	x0,x0,0	  x0:0x00000000
       14975000	      1496	800018cc	f3174db7	lui	x27,0xf3174	 x27=0xf3174000
       14985000	      1497	800018d0	02479063	bne	x15,x4,800018f0	 x15:0xf573b7aa  x4:0xf6f555e8
       14995000	      1498	00000000	00000013	addi	x0,x0,0	  x0:0x00000000
       15005000	      1499	800018ec	00000013	addi	x0,x0,0	  x0:0x00000000
       15015000	      1500	800018f0	40a152b3	sra	x5,x2,x10	  x2:0x00000733 x10:0x80009f2c  x5=0x00000000
       15025000	      1501	800018f4	00012033	slt	x0,x2,x0	  x2:0x00000733  x0:0x00000000
       15035000	      1502	800018f8	1210fa93	andi	x21,x1,289	  x1:0x5e800000 x21=0x00000000
       15045000	      1503	800018fc	41835513	srai	x10,x6,0x18	  x6:0x00000001 x10=0x00000000
       15055000	      1504	80001900	12baa293	slti	x5,x21,299	 x21:0x00000000  x5=0x00000001
       15065000	      1505	80001904	00000013	addi	x0,x0,0	  x0:0x00000000
       15075000	      1506	80001908	01039a63	bne	x7,x16,8000191c	  x7:0x00000000 x16:0x00000000
       15085000	      1507	8000190c	01e0dab3	srl	x21,x1,x30	  x1:0x5e800000 x30:0xb2af5674 x21=0x000005e8
       15095000	      1508	80001910	49e07917	auipc	x18,0x49e07	 x18=0xc9e0890c
       15105000	      1509	80001914	00824a63	blt	x4,x8,80001928	  x4:0xf6f555e8  x8:0x667c9854
       15115000	      1510	00000000	00000013	addi	x0,x0,0	  x0:0x00000000
       15125000	      1511	80001924	00000013	addi	x0,x0,0	  x0:0x00000000
       15135000	      1512	80001928	01ae32b3	sltu	x5,x28,x26	 x28:0x00000000 x26:0x80009f2c  x5=0x00000001
       15145000	      1513	8000192c	aaffddb7	lui	x27,0xaaffd	 x27=0xaaffd000
       15155000	      1514	80001930	af8e4a93	xori	x21,x28,-1288	 x28:0x00000000 x21=0xfffffaf8
       15165000	      1515	80001934	00c52bb3	slt	x23,x10,x12	 x10:0x00000000 x12:0x33d3682c x23=0x00000001
       15175000	      1516	80001938	00103233	sltu	x4,x0,x1	  x0:0x00000000  x1:0x5e800000  x4=0x00000001
       15185000	      1517	8000193c	40e95693	srai	x13,x18,0xe	 x18:0xc9e0890c x13=0xffff2782
       15195000	      1518	80001940	0388ee63	bltu	x17,x24,8000197c	 x17:0x80009fc4 x24:0x00000000
       15205000	      1519	80001944	553ae293	ori	x5,x21,1363	 x21:0xfffffaf8  x5=0xfffffffb
       15215000	      1520	80001948	c4b57e93	andi	x29,x10,-949	 x10:0x00000000 x29=0x00000000
       15225000	      1521	8000194c	011dd613	srli	x12,x27,0x11	 x27:0xaaffd000 x12=0x0000557f
       15235000	      1522	80001950	00533c33	sltu	x24,x6,x5	  x6:0x00000001  x5:0xfffffffb x24=0x00000001
       15245000	      1523	80001954	a5d23593	sltiu	x11,x4,-1443	  x4:0x00000001 x11=0x00000001
       15255000	      1524	80001958	f0f1f613	andi	x12,x3,-241	  x3:0xfffffa70 x12=0xfffffa00
       15265000	      1525	8000195c	68897b13	andi	x22,x18,1672	 x18:0xc9e0890c x22=0x00000008
       15275000	      1526	80001960	003a5cb3	srl	x25,x20,x3	 x20:0x80009dad  x3:0xfffffa70 x25=0x00008000
       15285000	      1527	80001964	406dde33	sra	x28,x27,x6	 x27:0xaaffd000  x6:0x00000001 x28=0xd57fe800
       15295000	      1528	80001968	00576133	or	x2,x14,x5	 x14:0x80009f2c  x5:0xfffffffb  x2=0xffffffff
       15305000	      1529	8000196c	001d70b3	and	x1,x26,x1	 x26:0x80009f2c  x1:0x5e800000  x1=0x00000000
       15315000	      1530	80001970	6fe4b813	sltiu	x16,x9,1790	  x9:0x0000038a x16=0x00000001
       15325000	      1531	80001974	205f0913	addi	x18,x30,517	 x30:0xb2af5674 x18=0xb2af5879
       15335000	      1532	80001978	dc0709b7	lui	x19,0xdc070	 x19=0xdc070000
       15345000	      1533	8000197c	0139f863	bgeu	x19,x19,8000198c	 x19:0xdc070000 x19:0xdc070000
       15355000	      1534	00000000	00000013	addi	x0,x0,0	  x0:0x00000000
       15365000	      1535	80001988	00000013	addi	x0,x0,0	  x0:0x00000000
       15375000	      1536	8000198c	00099433	sll	x8,x19,x0	 x19:0xdc070000  x0:0x00000000  x8=0xdc070000
       15385000	      1537	80001990	85fd3393	sltiu	x7,x26,-1953	 x26:0x80009f2c  x7=0x00000001
       15395000	      1538	80001994	04420463	beq	x4,x4,800019dc	  x4:0x00000001  x4:0x00000001
       15405000	      1539	00000000	00000013	addi	x0,x0,0	  x0:0x00000000
       15415000	      1540	800019d8	00000013	addi	x0,x0,0	  x0:0x00000000
       15425000	      1541	800019dc	00e2b233	sltu	x4,x5,x14	  x5:0xfffffffb x14:0x80009f2c  x4=0x00000000
       15435000	      1542	800019e0	00000013	addi	x0,x0,0	  x0:0x00000000
       15445000	      1543	800019e4	404403b3	sub	x7,x8,x4	  x8:0xdc070000  x4:0x00000000  x7=0xdc070000
       15455000	      1544	800019e8	04a18663	beq	x3,x10,80001a34	  x3:0xfffffa70 x10:0x00000000
       15465000	      1545	800019ec	9c0ebb13	sltiu	x22,x29,-1600	 x29:0x00000000 x22=0x00000001
       15475000	      1546	800019f0	03fe8863	beq	x29,x31,80001a20	 x29:0x00000000 x31:0xa85dd888
       15485000	      1547	800019f4	b8340913	addi	x18,x8,-1149	  x8:0xdc070000 x18=0xdc06fb83
       15495000	      1548	800019f8	01d07e63	bgeu	x0,x29,80001a14	  x0:0x00000000 x29:0x00000000
       15505000	      1549	00000000	00000013	addi	x0,x0,0	  x0:0x00000000
       15515000	      1550	80001a10	00000013	addi	x0,x0,0	  x0:0x00000000
       15525000	      1551	80001a14	9b8dc593	xori	x11,x27,-1608	 x27:0xaaffd000 x11=0x550029b8
       15535000	      1552	80001a18	015e0333	add	x6,x28,x21	 x28:0xd57fe800 x21:0xfffffaf8  x6=0xd57fe2f8
       15545000	      1553	80001a1c	01377a63	bgeu	x14,x19,80001a30	 x14:0x80009f2c x19:0xdc070000
       15555000	      1554	80001a20	002b5b13	srli	x22,x22,0x2	 x22:0x00000001 x22=0x00000000
       15565000	      1555	80001a24	00e82533	slt	x10,x16,x14	 x16:0x00000001 x14:0x80009f2c x10=0x00000000
       15575000	      1556	80001a28	64422b93	slti	x23,x4,1604	  x4:0x00000000 x23=0x00000001
       15585000	      1557	80001a2c	004e5113	srli	x2,x28,0x4	 x28:0xd57fe800  x2=0x0d57fe80
       15595000	      1558	80001a30	0022d493	srli	x9,x5,0x2	  x5:0xfffffffb  x9=0x3ffffffe
       15605000	      1559	80001a34	64ccb437	lui	x8,0x64ccb	  x8=0x64ccb000
       15615000	      1560	80001a38	204f6c13	ori	x24,x30,516	 x30:0xb2af5674 x24=0xb2af5674
       15625000	      1561	80001a3c	41595d93	srai	x27,x18,0x15	 x18:0xdc06fb83 x27=0xfffffee0
       15635000	      1562	80001a40	07c1f993	andi	x19,x3,124	  x3:0xfffffa70 x19=0x00000070
       15645000	      1563	80001a44	b64de393	ori	x7,x27,-1180	 x27:0xfffffee0  x7=0xffffffe4
       15655000	      1564	80001a48	04c20663	beq	x4,x12,80001a94	  x4:0x00000000 x12:0xfffffa00
       15665000	      1565	80001a4c	01d59233	sll	x4,x11,x29	 x11:0x550029b8 x29:0x00000000  x4=0x550029b8
       15675000	      1566	80001a50	000501b3	add	x3,x10,x0	 x10:0x00000000  x0:0x00000000  x3=0x00000000
       15685000	      1567	80001a54	35daf013	andi	x0,x21,861	 x21:0xfffffaf8
       15695000	      1568	80001a58	00d0c5b3	xor	x11,x1,x13	  x1:0x00000000 x13:0xffff2782 x11=0xffff2782
       15705000	      1569	80001a5c	88ce8013	addi	x0,x29,-1908	 x29:0x00000000
       15715000	      1570	80001a60	00e80663	beq	x16,x14,80001a6c	 x16:0x00000001 x14:0x80009f2c
       15725000	      1571	80001a64	eff6deb7	lui	x29,0xeff6d	 x29=0xeff6d000
       15735000	      1572	80001a68	00000013	addi	x0,x0,0	  x0:0x00000000
       15745000	      1573	80001a6c	00699713	slli	x14,x19,0x6	 x19:0x00000070 x14=0x00001c00
       15755000	      1574	80001a70	00b8d9b3	srl	x19,x17,x11	 x17:0x80009fc4 x11:0xffff2782 x19=0x200027f1
       15765000	      1575	80001a74	0b9df063	bgeu	x27,x25,80001b14	 x27:0xfffffee0 x25:0x00008000
       15775000	      1576	00000000	00000013	addi	x0,x0,0	  x0:0x00000000
       15785000	      1577	80001b10	00000013	addi	x0,x0,0	  x0:0x00000000
       15795000	      1578	80001b14	defb7193	andi	x3,x22,-529	 x22:0x00000000  x3=0x00000000
       15805000	      1579	80001b18	4178de93	srai	x29,x17,0x17	 x17:0x80009fc4 x29=0xffffff00
       15815000	      1580	80001b1c	013776b3	and	x13,x14,x19	 x14:0x00001c00 x19:0x200027f1 x13=0x00000400
       15825000	      1581	80001b20	00000013	addi	x0,x0,0	  x0:0x00000000
       15835000	      1582	80001b24	01235fb3	srl	x31,x6,x18	  x6:0xd57fe2f8 x18:0xdc06fb83 x31=0x1aaffc5f
       15845000	      1583	80001b28	ababc413	xori	x8,x23,-1350	 x23:0x00000001  x8=0xfffffabb
       15855000	      1584	80001b2c	40c5d013	srai	x0,x11,0xc	 x11:0xffff2782
       15865000	      1585	80001b30	406f0f33	sub	x30,x30,x6	 x30:0xb2af5674  x6:0xd57fe2f8 x30=0xdd2f737c
       15875000	      1586	80001b34	0088f1b3	and	x3,x17,x8	 x17:0x80009fc4  x8:0xfffffabb  x3=0x80009a80
       15885000	      1587	80001b38	3c74f613	andi	x12,x9,967	  x9:0x3ffffffe x12=0x000003c6
       15895000	      1588	80001b3c	01369eb3	sll	x29,x13,x19	 x13:0x00000400 x19:0x200027f1 x29=0x08000000
       15905000	      1589	80001b40	40735b13	srai	x22,x6,0x7	  x6:0xd57fe2f8 x22=0xffaaffc5
       15915000	      1590	80001b44	c454e713	ori	x14,x9,-955	  x9:0x3ffffffe x14=0xffffffff
       15925000	      1591	80001b48	cd1e0f97	auipc	x31,0xcd1e0	 x31=0x4d1e1b44
       15935000	      1592	80001b4c	01745a33	srl	x20,x8,x23	  x8:0xfffffabb x23:0x00000001 x20=0x7ffffd5d
       15945000	      1593	80001b50	002d5f93	srli	x31,x26,0x2	 x26:0x80009f2c x31=0x200027cb
       15955000	      1594	80001b54	01105133	srl	x2,x0,x17	  x0:0x00000000 x17:0x80009fc4  x2=0x00000000
       15965000	      1595	80001b58	00309f33	sll	x30,x1,x3	  x1:0x00000000  x3:0x80009a80 x30=0x00000000
       15975000	      1596	80001b5c	00dbf6b3	and	x13,x23,x13	 x23:0x00000001 x13:0x00000400 x13=0x00000000
       15985000	      1597	80001b60	0a208e93	addi	x29,x1,162	  x1:0x00000000 x29=0x000000a2
       15995000	      1598	80001b64	fe604813	xori	x16,x0,-26	  x0:0x00000000 x16=0xffffffe6
       16005000	      1599	80001b68	43fc7f93	andi	x31,x24,1087	 x24:0xb2af5674 x31=0x00000434
       16015000	      1600	80001b6c	4b482213	slti	x4,x16,1204	 x16:0xffffffe6  x4=0x00000001
       16025000	      1601	80001b70	01644c63	blt	x8,x22,80001b88	  x8:0xfffffabb x22:0xffaaffc5
       16035000	      1602	80001b74	00236933	or	x18,x6,x2	  x6:0xd57fe2f8  x2:0x00000000 x18=0xd57fe2f8
       16045000	      1603	80001b78	00cbfdb3	and	x27,x23,x12	 x23:0x00000001 x12:0x000003c6 x27=0x00000000
       16055000	      1604	80001b7c	01552233	slt	x4,x10,x21	 x10:0x00000000 x21:0xfffffaf8  x4=0x00000000
       16065000	      1605	80001b80	01dd6e33	or	x28,x26,x29	 x26:0x80009f2c x29:0x000000a2 x28=0x80009fae
       16075000	      1606	80001b84	05828863	beq	x5,x24,80001bd4	  x5:0xfffffffb x24:0xb2af5674
       16085000	      1607	80001b88	411c0bb3	sub	x23,x24,x17	 x24:0xb2af5674 x17:0x80009fc4 x23=0x32aeb6b0
       16095000	      1608	80001b8c	9e08b413	sltiu	x8,x17,-1568	 x17:0x80009fc4  x8=0x00000001
       16105000	      1609	80001b90	bf792293	slti	x5,x18,-1033	 x18:0xd57fe2f8  x5=0x00000001
       16115000	      1610	80001b94	22b1f493	andi	x9,x3,555	  x3:0x80009a80  x9=0x00000200
       16125000	      1611	80001b98	00dfdf13	srli	x30,x31,0xd	 x31:0x00000434 x30=0x00000000
       16135000	      1612	80001b9c	0026e033	or	x0,x13,x2	 x13:0x00000000  x2:0x00000000
       16145000	      1613	80001ba0	415304b3	sub	x9,x6,x21	  x6:0xd57fe2f8 x21:0xfffffaf8  x9=0xd57fe800
       16155000	      1614	80001ba4	017b7633	and	x12,x22,x23	 x22:0xffaaffc5 x23:0x32aeb6b0 x12=0x32aab680
       16165000	      1615	80001ba8	01a93b33	sltu	x22,x18,x26	 x18:0xd57fe2f8 x26:0x80009f2c x22=0x00000000
       16175000	      1616	80001bac	0048dc63	bge	x17,x4,80001bc4	 x17:0x80009fc4  x4:0x00000000
       16185000	      1617	80001bb0	05a15863	bge	x2,x26,80001c00	  x2:0x00000000 x26:0x80009f2c
       16195000	      1618	00000000	00000013	addi	x0,x0,0	  x0:0x00000000
       16205000	      1619	80001bfc	00000013	addi	x0,x0,0	  x0:0x00000000
       16215000	      1620	80001c00	00661813	slli	x16,x12,0x6	 x12:0x32aab680 x16=0xaaada000
       16225000	      1621	80001c04	32740693	addi	x13,x8,807	  x8:0x00000001 x13=0x00000328
       16235000	      1622	80001c08	00a8cb33	xor	x22,x17,x10	 x17:0x80009fc4 x10:0x00000000 x22=0x80009fc4
       16245000	      1623	80001c0c	00ddde63	bge	x27,x13,80001c28	 x27:0x00000000 x13:0x00000328
       16255000	      1624	80001c10	01ad76b3	and	x13,x26,x26	 x26:0x80009f2c x26:0x80009f2c x13=0x80009f2c
       16265000	      1625	80001c14	41e5d833	sra	x16,x11,x30	 x11:0xffff2782 x30:0x00000000 x16=0xffff2782
       16275000	      1626	80001c18	01b49263	bne	x9,x27,80001c1c	  x9:0xd57fe800 x27:0x00000000
       16285000	      1627	00000000	00000013	addi	x0,x0,0	  x0:0x00000000
       16295000	      1628	80001c18	00000013	addi	x0,x0,0	  x0:0x00000000
       16305000	      1629	80001c1c	e9ebfb93	andi	x23,x23,-354	 x23:0x32aeb6b0 x23=0x32aeb690
       16315000	      1630	80001c20	d89ca493	slti	x9,x25,-631	 x25:0x00008000  x9=0x00000000
       16325000	      1631	80001c24	01b6d593	srli	x11,x13,0x1b	 x13:0x80009f2c x11=0x00000010
       16335000	      1632	80001c28	01d59213	slli	x4,x11,0x1d	 x11:0x00000010  x4=0x00000000
       16345000	      1633	80001c2c	04e4c663	blt	x9,x14,80001c78	  x9:0x00000000 x14:0xffffffff
       16355000	      1634	80001c30	000d4663	blt	x26,x0,80001c3c	 x26:0x80009f2c  x0:0x00000000
       16365000	      1635	00000000	00000013	addi	x0,x0,0	  x0:0x00000000
       16375000	      1636	80001c38	00000013	addi	x0,x0,0	  x0:0x00000000
       16385000	      1637	80001c3c	00f1c033	xor	x0,x3,x15	  x3:0x80009a80 x15:0xf573b7aa
       16395000	      1638	80001c40	41038cb3	sub	x25,x7,x16	  x7:0xffffffe4 x16:0xffff2782 x25=0x0000d862
       16405000	      1639	80001c44	006153b3	srl	x7,x2,x6	  x2:0x00000000  x6:0xd57fe2f8  x7=0x00000000
       16415000	      1640	80001c48	40600733	sub	x14,x0,x6	  x0:0x00000000  x6:0xd57fe2f8 x14=0x2a801d08
       16425000	      1641	80001c4c	c4da1b17	auipc	x22,0xc4da1	 x22=0x44da2c48
       16435000	      1642	80001c50	016f91b3	sll	x3,x31,x22	 x31:0x00000434 x22:0x44da2c48  x3=0x00043400
       16445000	      1643	80001c54	04b8e263	bltu	x17,x11,80001c98	 x17:0x80009fc4 x11:0x00000010
       16455000	      1644	80001c58	a47351b7	lui	x3,0xa4735	  x3=0xa4735000
       16465000	      1645	80001c5c	05b71463	bne	x14,x27,80001ca4	 x14:0x2a801d08 x27:0x00000000
       16475000	      1646	00000000	00000013	addi	x0,x0,0	  x0:0x00000000
       16485000	      1647	80001ca0	00000013	addi	x0,x0,0	  x0:0x00000000
       16495000	      1648	80001ca4	00bedab3	srl	x21,x29,x11	 x29:0x000000a2 x11:0x00000010 x21=0x00000000
       16505000	      1649	80001ca8	00e11fb3	sll	x31,x2,x14	  x2:0x00000000 x14:0x2a801d08 x31=0x00000000
       16515000	      1650	80001cac	00000013	addi	x0,x0,0	  x0:0x00000000
       16525000	      1651	80001cb0	d4236313	ori	x6,x6,-702	  x6:0xd57fe2f8  x6=0xfffffffa
       16535000	      1652	80001cb4	0047bdb3	sltu	x27,x15,x4	 x15:0xf573b7aa  x4:0x00000000 x27=0x00000000
       16545000	      1653	80001cb8	41c08f33	sub	x30,x1,x28	  x1:0x00000000 x28:0x80009fae x30=0x7fff6052
       16555000	      1654	80001cbc	76e4b213	sltiu	x4,x9,1902	  x9:0x00000000  x4=0x00000001
       16565000	      1655	80001cc0	6e25bf93	sltiu	x31,x11,1762	 x11:0x00000010 x31=0x00000001
       16575000	      1656	80001cc4	013584b3	add	x9,x11,x19	 x11:0x00000010 x19:0x200027f1  x9=0x20002801
       16585000	      1657	80001cc8	010f9713	slli	x14,x31,0x10	 x31:0x00000001 x14=0x00010000
       16595000	      1658	80001ccc	010cd993	srli	x19,x25,0x10	 x25:0x0000d862 x19=0x00000000
       16605000	      1659	80001cd0	01c540b3	xor	x1,x10,x28	 x10:0x00000000 x28:0x80009fae  x1=0x80009fae
       16615000	      1660	80001cd4	01b7aab3	slt	x21,x15,x27	 x15:0xf573b7aa x27:0x00000000 x21=0x00000001
       16625000	      1661	80001cd8	ef026e93	ori	x29,x4,-272	  x4:0x00000001 x29=0xfffffef1
       16635000	      1662	80001cdc	00066fb3	or	x31,x12,x0	 x12:0x32aab680  x0:0x00000000 x31=0x32aab680
       16645000	      1663	80001ce0	020e6063	bltu	x28,x0,80001d00	 x28:0x80009fae  x0:0x00000000
       16655000	      1664	80001ce4	017e8663	beq	x29,x23,80001cf0	 x29:0xfffffef1 x23:0x32aeb690
       16665000	      1665	80001ce8	9f2bc313	xori	x6,x23,-1550	 x23:0x32aeb690  x6=0xcd514f62
       16675000	      1666	80001cec	00000013	addi	x0,x0,0	  x0:0x00000000
       16685000	      1667	80001cf0	014b6a33	or	x20,x22,x20	 x22:0x44da2c48 x20:0x7ffffd5d x20=0x7ffffd5d
       16695000	      1668	80001cf4	00d5e5b3	or	x11,x11,x13	 x11:0x00000010 x13:0x80009f2c x11=0x80009f3c
       16705000	      1669	80001cf8	e4124f93	xori	x31,x4,-447	  x4:0x00000001 x31=0xfffffe40
       16715000	      1670	80001cfc	00f11713	slli	x14,x2,0xf	  x2:0x00000000 x14=0x00000000
       16725000	      1671	80001d00	01e7d593	srli	x11,x15,0x1e	 x15:0xf573b7aa x11=0x00000003
       16735000	      1672	80001d04	017ac633	xor	x12,x21,x23	 x21:0x00000001 x23:0x32aeb690 x12=0x32aeb691
       16745000	      1673	80001d08	01830a63	beq	x6,x24,80001d1c	  x6:0xcd514f62 x24:0xb2af5674
       16755000	      1674	80001d0c	00fd5813	srli	x16,x26,0xf	 x26:0x80009f2c x16=0x00010001
       16765000	      1675	80001d10	494df013	andi	x0,x27,1172	 x27:0x00000000
       16775000	      1676	80001d14	0116da93	srli	x21,x13,0x11	 x13:0x80009f2c x21=0x00004000
       16785000	      1677	80001d18	1ef1aa17	auipc	x20,0x1ef1a	 x20=0x9ef1bd14
       16795000	      1678	80001d1c	01a66a33	or	x20,x12,x26	 x12:0x32aeb691 x26:0x80009f2c x20=0xb2aebfbd
       16805000	      1679	80001d20	000dc333	xor	x6,x27,x0	 x27:0x00000000  x0:0x00000000  x6=0x00000000
       16815000	      1680	80001d24	d8fae193	ori	x3,x21,-625	 x21:0x00004000  x3=0xfffffd8f
       16825000	      1681	80001d28	5e430117	auipc	x2,0x5e430	  x2=0xde431d24
       16835000	      1682	80001d2c	0187b2b3	sltu	x5,x15,x24	 x15:0xf573b7aa x24:0xb2af5674  x5=0x00000000
       16845000	      1683	80001d30	00ff5493	srli	x9,x30,0xf	 x30:0x7fff6052  x9=0x0000fffe
       16855000	      1684	80001d34	00f89663	bne	x17,x15,80001d40	 x17:0x80009fc4 x15:0xf573b7aa
       16865000	      1685	00000000	00000013	addi	x0,x0,0	  x0:0x00000000
       16875000	      1686	80001d3c	00000013	addi	x0,x0,0	  x0:0x00000000
       16885000	      1687	80001d40	40790cb3	sub	x25,x18,x7	 x18:0xd57fe2f8  x7:0x00000000 x25=0xd57fe2f8
       16895000	      1688	80001d44	00e23533	sltu	x10,x4,x14	  x4:0x00000001 x14:0x00000000 x10=0x00000000
       16905000	      1689	80001d48	20684217	auipc	x4,0x20684	  x4=0xa0685d44
       16915000	      1690	80001d4c	0108cab3	xor	x21,x17,x16	 x17:0x80009fc4 x16:0x00010001 x21=0x80019fc5
       16925000	      1691	80001d50	401a5293	srai	x5,x20,0x1	 x20:0xb2aebfbd  x5=0xd9575fde
       16935000	      1692	80001d54	00d566b3	or	x13,x10,x13	 x10:0x00000000 x13:0x80009f2c x13=0x80009f2c
       16945000	      1693	80001d58	02b1d863	bge	x3,x11,80001d88	  x3:0xfffffd8f x11:0x00000003
       16955000	      1694	80001d5c	2ea86293	ori	x5,x16,746	 x16:0x00010001  x5=0x000102eb
       16965000	      1695	80001d60	b742ad93	slti	x27,x5,-1164	  x5:0x000102eb x27=0x00000000
       16975000	      1696	80001d64	00f05513	srli	x10,x0,0xf	  x0:0x00000000 x10=0x00000000
       16985000	      1697	80001d68	e0ccbfb7	lui	x31,0xe0ccb	 x31=0xe0ccb000
       16995000	      1698	80001d6c	3ac7bf17	auipc	x30,0x3ac7b	 x30=0xbac7cd68
       17005000	      1699	80001d70	40038833	sub	x16,x7,x0	  x7:0x00000000  x0:0x00000000 x16=0x00000000
       17015000	      1700	80001d74	6a98bf93	sltiu	x31,x17,1705	 x17:0x80009fc4 x31=0x00000000
       17025000	      1701	80001d78	00554663	blt	x10,x5,80001d84	 x10:0x00000000  x5:0x000102eb
       17035000	      1702	00000000	00000013	addi	x0,x0,0	  x0:0x00000000
       17045000	      1703	80001d80	00000013	addi	x0,x0,0	  x0:0x00000000
       17055000	      1704	80001d84	02004e63	blt	x0,x0,80001dc0	  x0:0x00000000  x0:0x00000000
       17065000	      1705	80001d88	350d7293	andi	x5,x26,848	 x26:0x80009f2c  x5=0x00000300
       17075000	      1706	80001d8c	00641213	slli	x4,x8,0x6	  x8:0x00000001  x4=0x00000040
       17085000	      1707	80001d90	78bae193	ori	x3,x21,1931	 x21:0x80019fc5  x3=0x80019fcf
       17095000	      1708	80001d94	01bca933	slt	x18,x25,x27	 x25:0xd57fe2f8 x27:0x00000000 x18=0x00000001
       17105000	      1709	80001d98	00f8f2b3	and	x5,x17,x15	 x17:0x80009fc4 x15:0xf573b7aa  x5=0x80009780
       17115000	      1710	80001d9c	40be5633	sra	x12,x28,x11	 x28:0x80009fae x11:0x00000003 x12=0xf00013f5
       17125000	      1711	80001da0	c4992eb7	lui	x29,0xc4992	 x29=0xc4992000
       17135000	      1712	80001da4	48ae3b93	sltiu	x23,x28,1162	 x28:0x80009fae x23=0x00000000
       17145000	      1713	80001da8	96183b13	sltiu	x22,x16,-1695	 x16:0x00000000 x22=0x00000001
       17155000	      1714	80001dac	001fd5b3	srl	x11,x31,x1	 x31:0x00000000  x1:0x80009fae x11=0x00000000
       17165000	      1715	80001db0	02ae9663	bne	x29,x10,80001ddc	 x29:0xc4992000 x10:0x00000000
       17175000	      1716	00000000	00000013	addi	x0,x0,0	  x0:0x00000000
       17185000	      1717	80001dd8	00000013	addi	x0,x0,0	  x0:0x00000000
       17195000	      1718	80001ddc	411b8733	sub	x14,x23,x17	 x23:0x00000000 x17:0x80009fc4 x14=0x7fff603c
       17205000	      1719	80001de0	018b5c63	bge	x22,x24,80001df8	 x22:0x00000001 x24:0xb2af5674
       17215000	      1720	00000000	00000013	addi	x0,x0,0	  x0:0x00000000
       17225000	      1721	80001df4	00000013	addi	x0,x0,0	  x0:0x00000000
       17235000	      1722	80001df8	00388263	beq	x17,x3,80001dfc	 x17:0x80009fc4  x3:0x80019fcf
       17245000	      1723	80001dfc	00f94bb3	xor	x23,x18,x15	 x18:0x00000001 x15:0xf573b7aa x23=0xf573b7ab
       17255000	      1724	80001e00	01de9093	slli	x1,x29,0x1d	 x29:0xc4992000  x1=0x00000000
       17265000	      1725	80001e04	008369b3	or	x19,x6,x8	  x6:0x00000000  x8:0x00000001 x19=0x00000001
       17275000	      1726	80001e08	30bb2117	auipc	x2,0x30bb2	  x2=0xb0bb3e04
       17285000	      1727	80001e0c	40cade13	srai	x28,x21,0xc	 x21:0x80019fc5 x28=0xfff80019
       17295000	      1728	80001e10	41cc01b3	sub	x3,x24,x28	 x24:0xb2af5674 x28:0xfff80019  x3=0xb2b7565b
       17305000	      1729	80001e14	41248cb3	sub	x25,x9,x18	  x9:0x0000fffe x18:0x00000001 x25=0x0000fffd
       17315000	      1730	80001e18	0dab4463	blt	x22,x26,80001ee0	 x22:0x00000001 x26:0x80009f2c
       17325000	      1731	80001e1c	5e8fa693	slti	x13,x31,1512	 x31:0x00000000 x13=0x00000001
       17335000	      1732	80001e20	00779193	slli	x3,x15,0x7	 x15:0xf573b7aa  x3=0xb9dbd500
       17345000	      1733	80001e24	b7c8ed93	ori	x27,x17,-1156	 x17:0x80009fc4 x27=0xfffffffc
       17355000	      1734	80001e28	0a9e6063	bltu	x28,x9,80001ec8	 x28:0xfff80019  x9:0x0000fffe
       17365000	      1735	80001e2c	eaa94513	xori	x10,x18,-342	 x18:0x00000001 x10=0xfffffeab
       17375000	      1736	80001e30	00e5dd93	srli	x27,x11,0xe	 x11:0x00000000 x27=0x00000000
       17385000	      1737	80001e34	08c80463	beq	x16,x12,80001ebc	 x16:0x00000000 x12:0xf00013f5
       17395000	      1738	80001e38	0640036f	jal	x6,80001e38	  x6=0x80001e38
       17405000	      1739	00000000	00000013	addi	x0,x0,0	  x0:0x00000000
       17415000	      1740	80001e98	00000013	addi	x0,x0,0	  x0:0x00000000
       17425000	      1741	80001e9c	fa5ffdef	jal	x27,80001e9c	 x27=0x80001e9c
       17435000	      1742	00000000	00000013	addi	x0,x0,0	  x0:0x00000000
       17445000	      1743	80001e3c	00000013	addi	x0,x0,0	  x0:0x00000000
       17455000	      1744	80001e40	01c000ef	jal	x1,80001e40	  x1=0x80001e40
       17465000	      1745	00000000	00000013	addi	x0,x0,0	  x0:0x00000000
       17475000	      1746	80001e58	00000013	addi	x0,x0,0	  x0:0x00000000
       17485000	      1747	80001e5c	030000ef	jal	x1,80001e5c	  x1=0x80001e5c
       17495000	      1748	00000000	00000013	addi	x0,x0,0	  x0:0x00000000
       17505000	      1749	80001e88	00000013	addi	x0,x0,0	  x0:0x00000000
       17515000	      1750	80001e8c	fb9ff0ef	jal	x1,80001e8c	  x1=0x80001e8c
       17525000	      1751	00000000	00000013	addi	x0,x0,0	  x0:0x00000000
       17535000	      1752	80001e40	00000013	addi	x0,x0,0	  x0:0x00000000
       17545000	      1753	80001e44	028000ef	jal	x1,80001e44	  x1=0x80001e44
       17555000	      1754	00000000	00000013	addi	x0,x0,0	  x0:0x00000000
       17565000	      1755	80001e68	00000013	addi	x0,x0,0	  x0:0x00000000
       17575000	      1756	80001e6c	03c0036f	jal	x6,80001e6c	  x6=0x80001e6c
       17585000	      1757	00000000	00000013	addi	x0,x0,0	  x0:0x00000000
       17595000	      1758	80001ea4	00000013	addi	x0,x0,0	  x0:0x00000000
       17605000	      1759	80001ea8	0040066f	jal	x12,80001ea8	 x12=0x80001ea8
       17615000	      1760	00000000	00000013	addi	x0,x0,0	  x0:0x00000000
       17625000	      1761	80001ea8	00000013	addi	x0,x0,0	  x0:0x00000000
       17635000	      1762	80001eac	fa1ff36f	jal	x6,80001eac	  x6=0x80001eac
       17645000	      1763	00000000	00000013	addi	x0,x0,0	  x0:0x00000000
       17655000	      1764	80001e48	00000013	addi	x0,x0,0	  x0:0x00000000
       17665000	      1765	80001e4c	02c0036f	jal	x6,80001e4c	  x6=0x80001e4c
       17675000	      1766	00000000	00000013	addi	x0,x0,0	  x0:0x00000000
       17685000	      1767	80001e74	00000013	addi	x0,x0,0	  x0:0x00000000
       17695000	      1768	80001e78	010000ef	jal	x1,80001e78	  x1=0x80001e78
       17705000	      1769	00000000	00000013	addi	x0,x0,0	  x0:0x00000000
       17715000	      1770	80001e84	00000013	addi	x0,x0,0	  x0:0x00000000
       17725000	      1771	80001e88	fddff0ef	jal	x1,80001e88	  x1=0x80001e88
       17735000	      1772	00000000	00000013	addi	x0,x0,0	  x0:0x00000000
       17745000	      1773	80001e60	00000013	addi	x0,x0,0	  x0:0x00000000
       17755000	      1774	80001e64	0400036f	jal	x6,80001e64	  x6=0x80001e64
       17765000	      1775	00000000	00000013	addi	x0,x0,0	  x0:0x00000000
       17775000	      1776	80001ea0	00000013	addi	x0,x0,0	  x0:0x00000000
       17785000	      1777	80001ea4	ff5ff0ef	jal	x1,80001ea4	  x1=0x80001ea4
       17795000	      1778	00000000	00000013	addi	x0,x0,0	  x0:0x00000000
       17805000	      1779	80001e94	00000013	addi	x0,x0,0	  x0:0x00000000
       17815000	      1780	80001e98	fedff0ef	jal	x1,80001e98	  x1=0x80001e98
       17825000	      1781	00000000	00000013	addi	x0,x0,0	  x0:0x00000000
       17835000	      1782	80001e80	00000013	addi	x0,x0,0	  x0:0x00000000
       17845000	      1783	80001e84	fe5ff36f	jal	x6,80001e84	  x6=0x80001e84
       17855000	      1784	00000000	00000013	addi	x0,x0,0	  x0:0x00000000
       17865000	      1785	80001e64	00000013	addi	x0,x0,0	  x0:0x00000000
       17875000	      1786	80001e68	008000ef	jal	x1,80001e68	  x1=0x80001e68
       17885000	      1787	00000000	00000013	addi	x0,x0,0	  x0:0x00000000
       17895000	      1788	80001e6c	00000013	addi	x0,x0,0	  x0:0x00000000
       17905000	      1789	80001e70	0240036f	jal	x6,80001e70	  x6=0x80001e70
       17915000	      1790	00000000	00000013	addi	x0,x0,0	  x0:0x00000000
       17925000	      1791	80001e90	00000013	addi	x0,x0,0	  x0:0x00000000
       17935000	      1792	80001e94	fcdff36f	jal	x6,80001e94	  x6=0x80001e94
       17945000	      1793	00000000	00000013	addi	x0,x0,0	  x0:0x00000000
       17955000	      1794	80001e5c	00000013	addi	x0,x0,0	  x0:0x00000000
       17965000	      1795	80001e60	ff5fffef	jal	x31,80001e60	 x31=0x80001e60
       17975000	      1796	00000000	00000013	addi	x0,x0,0	  x0:0x00000000
       17985000	      1797	80001e50	00000013	addi	x0,x0,0	  x0:0x00000000
       17995000	      1798	80001e54	0280036f	jal	x6,80001e54	  x6=0x80001e54
       18005000	      1799	00000000	00000013	addi	x0,x0,0	  x0:0x00000000
       18015000	      1800	80001e78	00000013	addi	x0,x0,0	  x0:0x00000000
       18025000	      1801	80001e7c	014000ef	jal	x1,80001e7c	  x1=0x80001e7c
       18035000	      1802	00000000	00000013	addi	x0,x0,0	  x0:0x00000000
       18045000	      1803	80001e8c	00000013	addi	x0,x0,0	  x0:0x00000000
       18055000	      1804	80001e90	0100076f	jal	x14,80001e90	 x14=0x80001e90
       18065000	      1805	00000000	00000013	addi	x0,x0,0	  x0:0x00000000
       18075000	      1806	80001e9c	00000013	addi	x0,x0,0	  x0:0x00000000
       18085000	      1807	80001ea0	fe1ff0ef	jal	x1,80001ea0	  x1=0x80001ea0
       18095000	      1808	00000000	00000013	addi	x0,x0,0	  x0:0x00000000
       18105000	      1809	80001e7c	00000013	addi	x0,x0,0	  x0:0x00000000
       18115000	      1810	80001e80	fbdff4ef	jal	x9,80001e80	  x9=0x80001e80
       18125000	      1811	00000000	00000013	addi	x0,x0,0	  x0:0x00000000
       18135000	      1812	80001e38	00000013	addi	x0,x0,0	  x0:0x00000000
       18145000	      1813	80001e3c	01c0036f	jal	x6,80001e3c	  x6=0x80001e3c
       18155000	      1814	00000000	00000013	addi	x0,x0,0	  x0:0x00000000
       18165000	      1815	80001e54	00000013	addi	x0,x0,0	  x0:0x00000000
       18175000	      1816	80001e58	ff9ff0ef	jal	x1,80001e58	  x1=0x80001e58
       18185000	      1817	00000000	00000013	addi	x0,x0,0	  x0:0x00000000
       18195000	      1818	80001e4c	00000013	addi	x0,x0,0	  x0:0x00000000
       18205000	      1819	80001e50	024003ef	jal	x7,80001e50	  x7=0x80001e50
       18215000	      1820	00000000	00000013	addi	x0,x0,0	  x0:0x00000000
       18225000	      1821	80001e70	00000013	addi	x0,x0,0	  x0:0x00000000
       18235000	      1822	80001e74	fd5ff6ef	jal	x13,80001e74	 x13=0x80001e74
       18245000	      1823	00000000	00000013	addi	x0,x0,0	  x0:0x00000000
       18255000	      1824	80001e44	00000013	addi	x0,x0,0	  x0:0x00000000
       18265000	      1825	80001e48	0680036f	jal	x6,80001e48	  x6=0x80001e48
       18275000	      1826	00000000	00000013	addi	x0,x0,0	  x0:0x00000000
       18285000	      1827	80001eac	00000013	addi	x0,x0,0	  x0:0x00000000
       18295000	      1828	80001eb0	3dd88913	addi	x18,x17,989	 x17:0x80009fc4 x18=0x8000a3a1
       18305000	      1829	80001eb4	01fa1813	slli	x16,x20,0x1f	 x20:0xb2aebfbd x16=0x80000000
       18315000	      1830	80001eb8	007d1663	bne	x26,x7,80001ec4	 x26:0x80009f2c  x7:0x80001e50
       18325000	      1831	00000000	00000013	addi	x0,x0,0	  x0:0x00000000
       18335000	      1832	80001ec0	00000013	addi	x0,x0,0	  x0:0x00000000
       18345000	      1833	80001ec4	01f4c033	xor	x0,x9,x31	  x9:0x80001e80 x31:0x80001e60
       18355000	      1834	80001ec8	01df0663	beq	x30,x29,80001ed4	 x30:0xbac7cd68 x29:0xc4992000
       18365000	      1835	80001ecc	70903813	sltiu	x16,x0,1801	  x0:0x00000000 x16=0x00000001
       18375000	      1836	80001ed0	0cb4a813	slti	x16,x9,203	  x9:0x80001e80 x16=0x00000001
       18385000	      1837	80001ed4	01e37fb3	and	x31,x6,x30	  x6:0x80001e48 x30:0xbac7cd68 x31=0x80000c48
       18395000	      1838	80001ed8	01e5c533	xor	x10,x11,x30	 x11:0x00000000 x30:0xbac7cd68 x10=0xbac7cd68
       18405000	      1839	80001edc	006b00b3	add	x1,x22,x6	 x22:0x00000001  x6:0x80001e48  x1=0x80001e49
       18415000	      1840	80001ee0	02db5663	bge	x22,x13,80001f0c	 x22:0x00000001 x13:0x80001e74
       18425000	      1841	00000000	00000013	addi	x0,x0,0	  x0:0x00000000
       18435000	      1842	80001f08	00000013	addi	x0,x0,0	  x0:0x00000000
       18445000	      1843	80001f0c	00000013	addi	x0,x0,0	  x0:0x00000000
       18455000	      1844	80001f10	01dc5c93	srli	x25,x24,0x1d	 x24:0xb2af5674 x25=0x00000005
       18465000	      1845	80001f14	012b5d93	srli	x27,x22,0x12	 x22:0x00000001 x27=0x00000000
       18475000	      1846	80001f18	00000013	addi	x0,x0,0	  x0:0x00000000
       18485000	      1847	80001f1c	40acd613	srai	x12,x25,0xa	 x25:0x00000005 x12=0x00000000
       18495000	      1848	80001f20	007c0663	beq	x24,x7,80001f2c	 x24:0xb2af5674  x7:0x80001e50
       18505000	      1849	80001f24	40865e93	srai	x29,x12,0x8	 x12:0x00000000 x29=0x00000000
       18515000	      1850	80001f28	03509263	bne	x1,x21,80001f4c	  x1:0x80001e49 x21:0x80019fc5
       18525000	      1851	00000000	00000013	addi	x0,x0,0	  x0:0x00000000
       18535000	      1852	80001f48	00000013	addi	x0,x0,0	  x0:0x00000000
       18545000	      1853	80001f4c	01d1cc63	blt	x3,x29,80001f64	  x3:0xb9dbd500 x29:0x00000000
       18555000	      1854	00000000	00000013	addi	x0,x0,0	  x0:0x00000000
       18565000	      1855	80001f60	00000013	addi	x0,x0,0	  x0:0x00000000
       18575000	      1856	80001f64	00fca833	slt	x16,x25,x15	 x25:0x00000005 x15:0xf573b7aa x16=0x00000000
       18585000	      1857	80001f68	c2a7a6b7	lui	x13,0xc2a7a	 x13=0xc2a7a000
       18595000	      1858	80001f6c	843d0cb7	lui	x25,0x843d0	 x25=0x843d0000
       18605000	      1859	80001f70	001cd533	srl	x10,x25,x1	 x25:0x843d0000  x1:0x80001e49 x10=0x00421e80
       18615000	      1860	80001f74	3ee903b7	lui	x7,0x3ee90	  x7=0x3ee90000
       18625000	      1861	80001f78	06762613	slti	x12,x12,103	 x12:0x00000000 x12=0x00000001
       18635000	      1862	80001f7c	48007293	andi	x5,x0,1152	  x0:0x00000000  x5=0x00000000
       18645000	      1863	80001f80	0408c863	blt	x17,x0,80001fd0	 x17:0x80009fc4  x0:0x00000000
       18655000	      1864	00000000	00000013	addi	x0,x0,0	  x0:0x00000000
       18665000	      1865	80001fcc	00000013	addi	x0,x0,0	  x0:0x00000000
       18675000	      1866	80001fd0	b41e0593	addi	x11,x28,-1215	 x28:0xfff80019 x11=0xfff7fb5a
       18685000	      1867	80001fd4	01f36e33	or	x28,x6,x31	  x6:0x80001e48 x31:0x80000c48 x28=0x80001e48
       18695000	      1868	80001fd8	01b64663	blt	x12,x27,80001fe4	 x12:0x00000001 x27:0x00000000
       18705000	      1869	80001fdc	10ee0d93	addi	x27,x28,270	 x28:0x80001e48 x27=0x80001f56
       18715000	      1870	80001fe0	003a6f33	or	x30,x20,x3	 x20:0xb2aebfbd  x3:0xb9dbd500 x30=0xbbffffbd
       18725000	      1871	80001fe4	23084013	xori	x0,x16,560	 x16:0x00000000
       18735000	      1872	80001fe8	00288cb3	add	x25,x17,x2	 x17:0x80009fc4  x2:0xb0bb3e04 x25=0x30bbddc8
       18745000	      1873	80001fec	005b6863	bltu	x22,x5,80001ffc	 x22:0x00000001  x5:0x00000000
       18755000	      1874	80001ff0	000e5f33	srl	x30,x28,x0	 x28:0x80001e48  x0:0x00000000 x30=0x80001e48
       18765000	      1875	80001ff4	183e0197	auipc	x3,0x183e0	  x3=0x983e1ff0
       18775000	      1876	80001ff8	007f9d93	slli	x27,x31,0x7	 x31:0x80000c48 x27=0x00062400
       18785000	      1877	80001ffc	01389cb3	sll	x25,x17,x19	 x17:0x80009fc4 x19:0x00000001 x25=0x00013f88
       18795000	      1878	80002000	f2286113	ori	x2,x16,-222	 x16:0x00000000  x2=0xffffff22
       18805000	      1879	80002004	46c50713	addi	x14,x10,1132	 x10:0x00421e80 x14=0x004222ec
       18815000	      1880	80002008	405dd933	sra	x18,x27,x5	 x27:0x00062400  x5:0x00000000 x18=0x00062400
       18825000	      1881	8000200c	0094f033	and	x0,x9,x9	  x9:0x80001e80  x9:0x80001e80
       18835000	      1882	80002010	66722f93	slti	x31,x4,1639	  x4:0x00000040 x31=0x00000001
       18845000	      1883	80002014	f7054c37	lui	x24,0xf7054	 x24=0xf7054000
       18855000	      1884	80002018	007e8fb3	add	x31,x29,x7	 x29:0x00000000  x7:0x3ee90000 x31=0x3ee90000
       18865000	      1885	8000201c	033a8863	beq	x21,x19,8000204c	 x21:0x80019fc5 x19:0x00000001
       18875000	      1886	80002020	ad44c613	xori	x12,x9,-1324	  x9:0x80001e80 x12=0x7fffe454
       18885000	      1887	80002024	01c5ca33	xor	x20,x11,x28	 x11:0xfff7fb5a x28:0x80001e48 x20=0x7ff7e512
       18895000	      1888	80002028	40fbd413	srai	x8,x23,0xf	 x23:0xf573b7ab  x8=0xffffeae7
       18905000	      1889	8000202c	a903cd93	xori	x27,x7,-1392	  x7:0x3ee90000 x27=0xc116fa90
       18915000	      1890	80002030	778d7213	andi	x4,x26,1912	 x26:0x80009f2c  x4=0x00000728
       18925000	      1891	80002034	66b30db7	lui	x27,0x66b30	 x27=0x66b30000
       18935000	      1892	80002038	0178dd93	srli	x27,x17,0x17	 x17:0x80009fc4 x27=0x00000100
       18945000	      1893	8000203c	01da8c33	add	x24,x21,x29	 x21:0x80019fc5 x29:0x00000000 x24=0x80019fc5
       18955000	      1894	80002040	0b9b6263	bltu	x22,x25,800020e4	 x22:0x00000001 x25:0x00013f88
       18965000	      1895	00000000	00000013	addi	x0,x0,0	  x0:0x00000000
       18975000	      1896	800020e0	00000013	addi	x0,x0,0	  x0:0x00000000
       18985000	      1897	800020e4	00369733	sll	x14,x13,x3	 x13:0xc2a7a000  x3:0x983e1ff0 x14=0xa0000000
       18995000	      1898	800020e8	0584c463	blt	x9,x24,80002130	  x9:0x80001e80 x24:0x80019fc5
       19005000	      1899	00000000	00000013	addi	x0,x0,0	  x0:0x00000000
       19015000	      1900	8000212c	00000013	addi	x0,x0,0	  x0:0x00000000
       19025000	      1901	80002130	029a7e63	bgeu	x20,x9,8000216c	 x20:0x7ff7e512  x9:0x80001e80
       19035000	      1902	80002134	01f919b3	sll	x19,x18,x31	 x18:0x00062400 x31:0x3ee90000 x19=0x00062400
       19045000	      1903	80002138	78bd2297	auipc	x5,0x78bd2	  x5=0xf8bd4134
       19055000	      1904	8000213c	00000013	addi	x0,x0,0	  x0:0x00000000
       19065000	      1905	80002140	f0823313	sltiu	x6,x4,-248	  x4:0x00000728  x6=0x00000001
       19075000	      1906	80002144	007b9193	slli	x3,x23,0x7	 x23:0xf573b7ab  x3=0xb9dbd580
       19085000	      1907	80002148	00aa2cb3	slt	x25,x20,x10	 x20:0x7ff7e512 x10:0x00421e80 x25=0x00000000
       19095000	      1908	8000214c	41d05613	srai	x12,x0,0x1d	  x0:0x00000000 x12=0x00000000
       19105000	      1909	80002150	41a651b3	sra	x3,x12,x26	 x12:0x00000000 x26:0x80009f2c  x3=0x00000000
       19115000	      1910	80002154	8b7270b7	lui	x1,0x8b727	  x1=0x8b727000
       19125000	      1911	80002158	d438c713	xori	x14,x17,-701	 x17:0x80009fc4 x14=0x7fff6287
       19135000	      1912	8000215c	00c88663	beq	x17,x12,80002168	 x17:0x80009fc4 x12:0x00000000
       19145000	      1913	80002160	00af6033	or	x0,x30,x10	 x30:0x80001e48 x10:0x00421e80
       19155000	      1914	80002164	01e29633	sll	x12,x5,x30	  x5:0xf8bd4134 x30:0x80001e48 x12=0xbd413400
       19165000	      1915	80002168	9929df97	auipc	x31,0x9929d	 x31=0x1929f164
       19175000	      1916	8000216c	b53f7293	andi	x5,x30,-1197	 x30:0x80001e48  x5=0x80001a40
       19185000	      1917	80002170	b97f0313	addi	x6,x30,-1129	 x30:0x80001e48  x6=0x800019df
       19195000	      1918	80002174	016a6a63	bltu	x20,x22,80002188	 x20:0x7ff7e512 x22:0x00000001
       19205000	      1919	80002178	01bb8263	beq	x23,x27,8000217c	 x23:0xf573b7ab x27:0x00000100
       19215000	      1920	8000217c	00f59c63	bne	x11,x15,80002194	 x11:0xfff7fb5a x15:0xf573b7aa
       19225000	      1921	00000000	00000013	addi	x0,x0,0	  x0:0x00000000
       19235000	      1922	80002190	00000013	addi	x0,x0,0	  x0:0x00000000
       19245000	      1923	80002194	59fcee13	ori	x28,x25,1439	 x25:0x00000000 x28=0x0000059f
       19255000	      1924	80002198	6797e013	ori	x0,x15,1657	 x15:0xf573b7aa
       19265000	      1925	8000219c	f5463c93	sltiu	x25,x12,-172	 x12:0xbd413400 x25=0x00000001
       19275000	      1926	800021a0	00160a33	add	x20,x12,x1	 x12:0xbd413400  x1:0x8b727000 x20=0x48b3a400
       19285000	      1927	800021a4	00765fb3	srl	x31,x12,x7	 x12:0xbd413400  x7:0x3ee90000 x31=0xbd413400
       19295000	      1928	800021a8	00000013	addi	x0,x0,0	  x0:0x00000000
       19305000	      1929	800021ac	04b17663	bgeu	x2,x11,800021f8	  x2:0xffffff22 x11:0xfff7fb5a
       19315000	      1930	00000000	00000013	addi	x0,x0,0	  x0:0x00000000
       19325000	      1931	800021f4	00000013	addi	x0,x0,0	  x0:0x00000000
       19335000	      1932	800021f8	e3a58093	addi	x1,x11,-454	 x11:0xfff7fb5a  x1=0xfff7f994
       19345000	      1933	800021fc	01c68c33	add	x24,x13,x28	 x13:0xc2a7a000 x28:0x0000059f x24=0xc2a7a59f
       19355000	      1934	80002200	01f5f663	bgeu	x11,x31,8000220c	 x11:0xfff7fb5a x31:0xbd413400
       19365000	      1935	00000000	00000013	addi	x0,x0,0	  x0:0x00000000
       19375000	      1936	80002208	00000013	addi	x0,x0,0	  x0:0x00000000
       19385000	      1937	8000220c	01784663	blt	x16,x23,80002218	 x16:0x00000000 x23:0xf573b7ab
       19395000	      1938	80002210	41d15013	srai	x0,x2,0x1d	  x2:0xffffff22
       19405000	      1939	80002214	3e84a593	slti	x11,x9,1000	  x9:0x80001e80 x11=0x00000001
       19415000	      1940	80002218	47b86093	ori	x1,x16,1147	 x16:0x00000000  x1=0x0000047b
       19425000	      1941	8000221c	03980663	beq	x16,x25,80002248	 x16:0x00000000 x25:0x00000001
       19435000	      1942	80002220	5ad97d97	auipc	x27,0x5ad97	 x27=0xdad9921c
       19445000	      1943	80002224	c73f2993	slti	x19,x30,-909	 x30:0x80001e48 x19=0x00000001
       19455000	      1944	80002228	41340f33	sub	x30,x8,x19	  x8:0xffffeae7 x19:0x00000001 x30=0xffffeae6
       19465000	      1945	8000222c	019bce33	xor	x28,x23,x25	 x23:0xf573b7ab x25:0x00000001 x28=0xf573b7aa
       19475000	      1946	80002230	00fc8e63	beq	x25,x15,8000224c	 x25:0x00000001 x15:0xf573b7aa
       19485000	      1947	80002234	03fec263	blt	x29,x31,80002258	 x29:0x00000000 x31:0xbd413400
       19495000	      1948	80002238	00511833	sll	x16,x2,x5	  x2:0xffffff22  x5:0x80001a40 x16=0xffffff22
       19505000	      1949	8000223c	fb9eec13	ori	x24,x29,-71	 x29:0x00000000 x24=0xffffffb9
       19515000	      1950	80002240	b8b2c693	xori	x13,x5,-1141	  x5:0x80001a40 x13=0x7fffe1cb
       19525000	      1951	80002244	aa7e6017	auipc	x0,0xaa7e6	
       19535000	      1952	80002248	00759993	slli	x19,x11,0x7	 x11:0x00000001 x19=0x00000080
       19545000	      1953	8000224c	417b0833	sub	x16,x22,x23	 x22:0x00000001 x23:0xf573b7ab x16=0x0a8c4856
       19555000	      1954	80002250	4163d5b3	sra	x11,x7,x22	  x7:0x3ee90000 x22:0x00000001 x11=0x1f748000
       19565000	      1955	80002254	20ad2017	auipc	x0,0x20ad2	
       19575000	      1956	80002258	008ec663	blt	x29,x8,80002264	 x29:0x00000000  x8:0xffffeae7
       19585000	      1957	8000225c	006a5013	srli	x0,x20,0x6	 x20:0x48b3a400
       19595000	      1958	80002260	00079c33	sll	x24,x15,x0	 x15:0xf573b7aa  x0:0x00000000 x24=0xf573b7aa
       19605000	      1959	80002264	019e5933	srl	x18,x28,x25	 x28:0xf573b7aa x25:0x00000001 x18=0x7ab9dbd5
       19615000	      1960	80002268	05075463	bge	x14,x16,800022b0	 x14:0x7fff6287 x16:0x0a8c4856
       19625000	      1961	00000000	00000013	addi	x0,x0,0	  x0:0x00000000
       19635000	      1962	800022ac	00000013	addi	x0,x0,0	  x0:0x00000000
       19645000	      1963	800022b0	9df2fd93	andi	x27,x5,-1569	  x5:0x80001a40 x27=0x80001840
       19655000	      1964	800022b4	00000013	addi	x0,x0,0	  x0:0x00000000
       19665000	      1965	800022b8	0075bc33	sltu	x24,x11,x7	 x11:0x1f748000  x7:0x3ee90000 x24=0x00000001
       19675000	      1966	800022bc	18067e93	andi	x29,x12,384	 x12:0xbd413400 x29=0x00000000
       19685000	      1967	800022c0	004dfeb3	and	x29,x27,x4	 x27:0x80001840  x4:0x00000728 x29=0x00000000
       19695000	      1968	800022c4	013cd5b3	srl	x11,x25,x19	 x25:0x00000001 x19:0x00000080 x11=0x00000001
       19705000	      1969	800022c8	01647b33	and	x22,x8,x22	  x8:0xffffeae7 x22:0x00000001 x22=0x00000001
       19715000	      1970	800022cc	405a5293	srai	x5,x20,0x5	 x20:0x48b3a400  x5=0x02459d20
       19725000	      1971	800022d0	003413b3	sll	x7,x8,x3	  x8:0xffffeae7  x3:0x00000000  x7=0xffffeae7
       19735000	      1972	800022d4	0127c833	xor	x16,x15,x18	 x15:0xf573b7aa x18:0x7ab9dbd5 x16=0x8fca6c7f
       19745000	      1973	800022d8	40f6de13	srai	x28,x13,0xf	 x13:0x7fffe1cb x28=0x0000ffff
       19755000	      1974	800022dc	72e02413	slti	x8,x0,1838	  x0:0x00000000  x8=0x00000001
       19765000	      1975	800022e0	2ec64b37	lui	x22,0x2ec64	 x22=0x2ec64000
       19775000	      1976	800022e4	40c20f33	sub	x30,x4,x12	  x4:0x00000728 x12:0xbd413400 x30=0x42bed328
       19785000	      1977	800022e8	00331c63	bne	x6,x3,80002300	  x6:0x800019df  x3:0x00000000
       19795000	      1978	00000000	00000013	addi	x0,x0,0	  x0:0x00000000
       19805000	      1979	800022fc	00000013	addi	x0,x0,0	  x0:0x00000000
       19815000	      1980	80002300	01801013	slli	x0,x0,0x18	  x0:0x00000000
       19825000	      1981	80002304	40935213	srai	x4,x6,0x9	  x6:0x800019df  x4=0xffc0000c
       19835000	      1982	80002308	01d0ce33	xor	x28,x1,x29	  x1:0x0000047b x29:0x00000000 x28=0x0000047b
       19845000	      1983	8000230c	0087e533	or	x10,x15,x8	 x15:0xf573b7aa  x8:0x00000001 x10=0xf573b7ab
       19855000	      1984	80002310	00815493	srli	x9,x2,0x8	  x2:0xffffff22  x9=0x00ffffff
       19865000	      1985	80002314	0012f6b3	and	x13,x5,x1	  x5:0x02459d20  x1:0x0000047b x13=0x00000420
       19875000	      1986	80002318	1b48a493	slti	x9,x17,436	 x17:0x80009fc4  x9=0x00000001
       19885000	      1987	8000231c	8e923d97	auipc	x27,0x8e923	 x27=0x0e925318
       19895000	      1988	80002320	00838863	beq	x7,x8,80002330	  x7:0xffffeae7  x8:0x00000001
       19905000	      1989	80002324	006cc533	xor	x10,x25,x6	 x25:0x00000001  x6:0x800019df x10=0x800019de
       19915000	      1990	80002328	581abc17	auipc	x24,0x581ab	 x24=0xd81ad324
       19925000	      1991	8000232c	0059e663	bltu	x19,x5,80002338	 x19:0x00000080  x5:0x02459d20
       19935000	      1992	00000000	00000013	addi	x0,x0,0	  x0:0x00000000
       19945000	      1993	80002334	00000013	addi	x0,x0,0	  x0:0x00000000
       19955000	      1994	80002338	8e016337	lui	x6,0x8e016	  x6=0x8e016000
       19965000	      1995	8000233c	0128eb33	or	x22,x17,x18	 x17:0x80009fc4 x18:0x7ab9dbd5 x22=0xfab9dfd5
       19975000	      1996	80002340	00a5c033	xor	x0,x11,x10	 x11:0x00000001 x10:0x800019de
       19985000	      1997	80002344	0178f1b3	and	x3,x17,x23	 x17:0x80009fc4 x23:0xf573b7ab  x3=0x80009780
       19995000	      1998	80002348	40085033	sra	x0,x16,x0	 x16:0x8fca6c7f  x0:0x00000000
       20005000	      1999	8000234c	d70b6f17	auipc	x30,0xd70b6	 x30=0x570b8348
       20015000	      2000	80002350	75c6cb93	xori	x23,x13,1884	 x13:0x00000420 x23=0x0000037c
       20025000	      2001	80002354	6a12a593	slti	x11,x5,1697	  x5:0x02459d20 x11=0x00000000
       20035000	      2002	80002358	0160f233	and	x4,x1,x22	  x1:0x0000047b x22:0xfab9dfd5  x4=0x00000451
       20045000	      2003	8000235c	409f5fb3	sra	x31,x30,x9	 x30:0x570b8348  x9:0x00000001 x31=0x2b85c1a4
       20055000	      2004	80002360	019d4663	blt	x26,x25,8000236c	 x26:0x80009f2c x25:0x00000001
       20065000	      2005	00000000	00000013	addi	x0,x0,0	  x0:0x00000000
       20075000	      2006	80002368	00000013	addi	x0,x0,0	  x0:0x00000000
       20085000	      2007	8000236c	05c98463	beq	x19,x28,800023b4	 x19:0x00000080 x28:0x0000047b
       20095000	      2008	80002370	05ee4463	blt	x28,x30,800023b8	 x28:0x0000047b x30:0x570b8348
       20105000	      2009	00000000	00000013	addi	x0,x0,0	  x0:0x00000000
       20115000	      2010	800023b4	00000013	addi	x0,x0,0	  x0:0x00000000
       20125000	      2011	800023b8	03ae9e63	bne	x29,x26,800023f4	 x29:0x00000000 x26:0x80009f2c
       20135000	      2012	00000000	00000013	addi	x0,x0,0	  x0:0x00000000
       20145000	      2013	800023f0	00000013	addi	x0,x0,0	  x0:0x00000000
       20155000	      2014	800023f4	41d6deb3	sra	x29,x13,x29	 x13:0x00000420 x29:0x00000000 x29=0x00000420
       20165000	      2015	800023f8	89fc4b93	xori	x23,x24,-1889	 x24:0xd81ad324 x23=0x27e52bbb
       20175000	      2016	800023fc	01a18bb3	add	x23,x3,x26	  x3:0x80009780 x26:0x80009f2c x23=0x000136ac
       20185000	      2017	80002400	411054b3	sra	x9,x0,x17	  x0:0x00000000 x17:0x80009fc4  x9=0x00000000
       20195000	      2018	80002404	555ea913	slti	x18,x29,1365	 x29:0x00000420 x18=0x00000001
       20205000	      2019	80002408	01383733	sltu	x14,x16,x19	 x16:0x8fca6c7f x19:0x00000080 x14=0x00000000
       20215000	      2020	8000240c	0305c863	blt	x11,x16,8000243c	 x11:0x00000000 x16:0x8fca6c7f
       20225000	      2021	80002410	0e0bc493	xori	x9,x23,224	 x23:0x000136ac  x9=0x0001364c
       20235000	      2022	80002414	43f84c13	xori	x24,x16,1087	 x16:0x8fca6c7f x24=0x8fca6840
       20245000	      2023	80002418	01579a63	bne	x15,x21,8000242c	 x15:0xf573b7aa x21:0x80019fc5
       20255000	      2024	00000000	00000013	addi	x0,x0,0	  x0:0x00000000
       20265000	      2025	80002428	00000013	addi	x0,x0,0	  x0:0x00000000
       20275000	      2026	8000242c	00e4ffb3	and	x31,x9,x14	  x9:0x0001364c x14:0x00000000 x31=0x00000000
       20285000	      2027	80002430	00ca9713	slli	x14,x21,0xc	 x21:0x80019fc5 x14=0x19fc5000
       20295000	      2028	80002434	d5549437	lui	x8,0xd5549	  x8=0xd5549000
       20305000	      2029	80002438	00cd0ab3	add	x21,x26,x12	 x26:0x80009f2c x12:0xbd413400 x21=0x3d41d32c
       20315000	      2030	8000243c	9ea34317	auipc	x6,0x9ea34	  x6=0x1ea36438
       20325000	      2031	80002440	01d0c663	blt	x1,x29,8000244c	  x1:0x0000047b x29:0x00000420
       20335000	      2032	80002444	bd760593	addi	x11,x12,-1065	 x12:0xbd413400 x11=0xbd412fd7
       20345000	      2033	80002448	01f95633	srl	x12,x18,x31	 x18:0x00000001 x31:0x00000000 x12=0x00000001
       20355000	      2034	8000244c	003471b3	and	x3,x8,x3	  x8:0xd5549000  x3:0x80009780  x3=0x80009000
       20365000	      2035	80002450	670eec93	ori	x25,x29,1648	 x29:0x00000420 x25=0x00000670
       20375000	      2036	80002454	01d330b3	sltu	x1,x6,x29	  x6:0x1ea36438 x29:0x00000420  x1=0x00000000
       20385000	      2037	80002458	413c0f33	sub	x30,x24,x19	 x24:0x8fca6840 x19:0x00000080 x30=0x8fca67c0
       20395000	      2038	8000245c	02b54663	blt	x10,x11,80002488	 x10:0x800019de x11:0xbd412fd7
       20405000	      2039	00000000	00000013	addi	x0,x0,0	  x0:0x00000000
       20415000	      2040	80002484	00000013	addi	x0,x0,0	  x0:0x00000000
       20425000	      2041	80002488	014369b3	or	x19,x6,x20	  x6:0x1ea36438 x20:0x48b3a400 x19=0x5eb3e438
       20435000	      2042	8000248c	011d7b33	and	x22,x26,x17	 x26:0x80009f2c x17:0x80009fc4 x22=0x80009f04
       20445000	      2043	80002490	02e2f063	bgeu	x5,x14,800024b0	  x5:0x02459d20 x14:0x19fc5000
       20455000	      2044	80002494	0020c033	xor	x0,x1,x2	  x1:0x00000000  x2:0xffffff22
       20465000	      2045	80002498	5861ae93	slti	x29,x3,1414	  x3:0x80009000 x29=0x00000001
       20475000	      2046	8000249c	05e49863	bne	x9,x30,800024ec	  x9:0x0001364c x30:0x8fca67c0
       20485000	      2047	00000000	00000013	addi	x0,x0,0	  x0:0x00000000
       20495000	      2048	800024e8	00000013	addi	x0,x0,0	  x0:0x00000000
       20505000	      2049	800024ec	01feeab3	or	x21,x29,x31	 x29:0x00000001 x31:0x00000000 x21=0x00000001
       20515000	      2050	800024f0	01ecc933	xor	x18,x25,x30	 x25:0x00000670 x30:0x8fca67c0 x18=0x8fca61b0
       20525000	      2051	800024f4	41f95e93	srai	x29,x18,0x1f	 x18:0x8fca61b0 x29=0xffffffff
       20535000	      2052	800024f8	1da56213	ori	x4,x10,474	 x10:0x800019de  x4=0x800019de
       20545000	      2053	800024fc	00f6ee63	bltu	x13,x15,80002518	 x13:0x00000420 x15:0xf573b7aa
       20555000	      2054	00000000	00000013	addi	x0,x0,0	  x0:0x00000000
       20565000	      2055	80002514	00000013	addi	x0,x0,0	  x0:0x00000000
       20575000	      2056	80002518	01ca4263	blt	x20,x28,8000251c	 x20:0x48b3a400 x28:0x0000047b
       20585000	      2057	8000251c	01378cb3	add	x25,x15,x19	 x15:0xf573b7aa x19:0x5eb3e438 x25=0x54279be2
       20595000	      2058	80002520	0205ec63	bltu	x11,x0,80002558	 x11:0xbd412fd7  x0:0x00000000
       20605000	      2059	80002524	403cdc93	srai	x25,x25,0x3	 x25:0x54279be2 x25=0x0a84f37c
       20615000	      2060	80002528	01dbd993	srli	x19,x23,0x1d	 x23:0x000136ac x19=0x00000000
       20625000	      2061	8000252c	41218933	sub	x18,x3,x18	  x3:0x80009000 x18:0x8fca61b0 x18=0xf0362e50
       20635000	      2062	80002530	00b17bb3	and	x23,x2,x11	  x2:0xffffff22 x11:0xbd412fd7 x23=0xbd412f02
       20645000	      2063	80002534	00c03b33	sltu	x22,x0,x12	  x0:0x00000000 x12:0x00000001 x22=0x00000001
       20655000	      2064	80002538	0053ea63	bltu	x7,x5,8000254c	  x7:0xffffeae7  x5:0x02459d20
       20665000	      2065	8000253c	01dfb6b3	sltu	x13,x31,x29	 x31:0x00000000 x29:0xffffffff x13=0x00000001
       20675000	      2066	80002540	05f95663	bge	x18,x31,8000258c	 x18:0xf0362e50 x31:0x00000000
       20685000	      2067	80002544	00e01633	sll	x12,x0,x14	  x0:0x00000000 x14:0x19fc5000 x12=0x00000000
       20695000	      2068	80002548	00781293	slli	x5,x16,0x7	 x16:0x8fca6c7f  x5=0xe5363f80
       20705000	      2069	8000254c	17eb4d93	xori	x27,x22,382	 x22:0x00000001 x27=0x0000017f
       20715000	      2070	80002550	01898c63	beq	x19,x24,80002568	 x19:0x00000000 x24:0x8fca6840
       20725000	      2071	80002554	401c8a33	sub	x20,x25,x1	 x25:0x0a84f37c  x1:0x00000000 x20=0x0a84f37c
       20735000	      2072	80002558	013c9d93	slli	x27,x25,0x13	 x25:0x0a84f37c x27=0x9be00000
       20745000	      2073	8000255c	03cbe863	bltu	x23,x28,8000258c	 x23:0xbd412f02 x28:0x0000047b
       20755000	      2074	80002560	01397663	bgeu	x18,x19,8000256c	 x18:0xf0362e50 x19:0x00000000
       20765000	      2075	00000000	00000013	addi	x0,x0,0	  x0:0x00000000
       20775000	      2076	80002568	00000013	addi	x0,x0,0	  x0:0x00000000
       20785000	      2077	8000256c	408e8bb3	sub	x23,x29,x8	 x29:0xffffffff  x8:0xd5549000 x23=0x2aab6fff
       20795000	      2078	80002570	bd1fb693	sltiu	x13,x31,-1071	 x31:0x00000000 x13=0x00000001
       20805000	      2079	80002574	01942933	slt	x18,x8,x25	  x8:0xd5549000 x25:0x0a84f37c x18=0x00000001
       20815000	      2080	80002578	40f389b3	sub	x19,x7,x15	  x7:0xffffeae7 x15:0xf573b7aa x19=0x0a8c333d
       20825000	      2081	8000257c	01f0e333	or	x6,x1,x31	  x1:0x00000000 x31:0x00000000  x6=0x00000000
       20835000	      2082	80002580	89b66913	ori	x18,x12,-1893	 x12:0x00000000 x18=0xfffff89b
       20845000	      2083	80002584	abb8e0b7	lui	x1,0xabb8e	  x1=0xabb8e000
       20855000	      2084	80002588	00df4cb3	xor	x25,x30,x13	 x30:0x8fca67c0 x13:0x00000001 x25=0x8fca67c1
       20865000	      2085	8000258c	41bf8b33	sub	x22,x31,x27	 x31:0x00000000 x27:0x9be00000 x22=0x64200000
       20875000	      2086	80002590	14176c13	ori	x24,x14,321	 x14:0x19fc5000 x24=0x19fc5141
       20885000	      2087	80002594	e46da217	auipc	x4,0xe46da	  x4=0x646dc590
       20895000	      2088	80002598	011e2333	slt	x6,x28,x17	 x28:0x0000047b x17:0x80009fc4  x6=0x00000000
       20905000	      2089	8000259c	01c61c93	slli	x25,x12,0x1c	 x12:0x00000000 x25=0x00000000
       20915000	      2090	800025a0	94928213	addi	x4,x5,-1719	  x5:0xe5363f80  x4=0xe53638c9
       20925000	      2091	800025a4	01946663	bltu	x8,x25,800025b0	  x8:0xd5549000 x25:0x00000000
       20935000	      2092	800025a8	04ee6663	bltu	x28,x14,800025f4	 x28:0x0000047b x14:0x19fc5000
       20945000	      2093	00000000	00000013	addi	x0,x0,0	  x0:0x00000000
       20955000	      2094	800025f0	00000013	addi	x0,x0,0	  x0:0x00000000
       20965000	      2095	800025f4	00490033	add	x0,x18,x4	 x18:0xfffff89b  x4:0xe53638c9
       20975000	      2096	800025f8	5d660913	addi	x18,x12,1494	 x12:0x00000000 x18=0x000005d6
       20985000	      2097	800025fc	4160db33	sra	x22,x1,x22	  x1:0xabb8e000 x22:0x64200000 x22=0xabb8e000
       20995000	      2098	80002600	01e6e433	or	x8,x13,x30	 x13:0x00000001 x30:0x8fca67c0  x8=0x8fca67c1
       21005000	      2099	80002604	11b28493	addi	x9,x5,283	  x5:0xe5363f80  x9=0xe536409b
       21015000	      2100	80002608	f25eac13	slti	x24,x29,-219	 x29:0xffffffff x24=0x00000000
       21025000	      2101	8000260c	01d31663	bne	x6,x29,80002618	  x6:0x00000000 x29:0xffffffff
       21035000	      2102	00000000	00000013	addi	x0,x0,0	  x0:0x00000000
       21045000	      2103	80002614	00000013	addi	x0,x0,0	  x0:0x00000000
       21055000	      2104	80002618	00ec9113	slli	x2,x25,0xe	 x25:0x00000000  x2=0x00000000
       21065000	      2105	8000261c	00d3e133	or	x2,x7,x13	  x7:0xffffeae7 x13:0x00000001  x2=0xffffeae7
       21075000	      2106	80002620	330e0a13	addi	x20,x28,816	 x28:0x0000047b x20=0x000007ab
       21085000	      2107	80002624	cbe6c093	xori	x1,x13,-834	 x13:0x00000001  x1=0xfffffcbf
       21095000	      2108	80002628	023e7263	bgeu	x28,x3,8000264c	 x28:0x0000047b  x3:0x80009000
       21105000	      2109	8000262c	2906a313	slti	x6,x13,656	 x13:0x00000001  x6=0x00000001
       21115000	      2110	80002630	0100de93	srli	x29,x1,0x10	  x1:0xfffffcbf x29=0x0000ffff
       21125000	      2111	80002634	00a64263	blt	x12,x10,80002638	 x12:0x00000000 x10:0x800019de
       21135000	      2112	80002638	017202b3	add	x5,x4,x23	  x4:0xe53638c9 x23:0x2aab6fff  x5=0x0fe1a8c8
       21145000	      2113	8000263c	015a0c63	beq	x20,x21,80002654	 x20:0x000007ab x21:0x00000001
       21155000	      2114	80002640	e6decf13	xori	x30,x29,-403	 x29:0x0000ffff x30=0xffff0192
       21165000	      2115	80002644	0017ae33	slt	x28,x15,x1	 x15:0xf573b7aa  x1:0xfffffcbf x28=0x00000001
       21175000	      2116	80002648	04866863	bltu	x12,x8,80002698	 x12:0x00000000  x8:0x8fca67c1
       21185000	      2117	00000000	00000013	addi	x0,x0,0	  x0:0x00000000
       21195000	      2118	80002694	00000013	addi	x0,x0,0	  x0:0x00000000
       21205000	      2119	80002698	405b5093	srai	x1,x22,0x5	 x22:0xabb8e000  x1=0xfd5dc700
       21215000	      2120	8000269c	967f1a17	auipc	x20,0x967f1	 x20=0x167f3698
       21225000	      2121	800026a0	55cfc013	xori	x0,x31,1372	 x31:0x00000000
       21235000	      2122	800026a4	c6286a93	ori	x21,x16,-926	 x16:0x8fca6c7f x21=0xfffffc7f
       21245000	      2123	800026a8	027cee63	bltu	x25,x7,800026e4	 x25:0x00000000  x7:0xffffeae7
       21255000	      2124	00000000	00000013	addi	x0,x0,0	  x0:0x00000000
       21265000	      2125	800026e0	00000013	addi	x0,x0,0	  x0:0x00000000
       21275000	      2126	800026e4	01731663	bne	x6,x23,800026f0	  x6:0x00000001 x23:0x2aab6fff
       21285000	      2127	00000000	00000013	addi	x0,x0,0	  x0:0x00000000
       21295000	      2128	800026ec	00000013	addi	x0,x0,0	  x0:0x00000000
       21305000	      2129	800026f0	00b33733	sltu	x14,x6,x11	  x6:0x00000001 x11:0xbd412fd7 x14=0x00000001
       21315000	      2130	800026f4	05f0e263	bltu	x1,x31,80002738	  x1:0xfd5dc700 x31:0x00000000
       21325000	      2131	800026f8	03156063	bltu	x10,x17,80002718	 x10:0x800019de x17:0x80009fc4
       21335000	      2132	00000000	00000013	addi	x0,x0,0	  x0:0x00000000
       21345000	      2133	80002714	00000013	addi	x0,x0,0	  x0:0x00000000
       21355000	      2134	80002718	9944b413	sltiu	x8,x9,-1644	  x9:0xe536409b  x8=0x00000001
       21365000	      2135	8000271c	03c97c63	bgeu	x18,x28,80002754	 x18:0x000005d6 x28:0x00000001
       21375000	      2136	00000000	00000013	addi	x0,x0,0	  x0:0x00000000
       21385000	      2137	80002750	00000013	addi	x0,x0,0	  x0:0x00000000
       21395000	      2138	80002754	001e45b3	xor	x11,x28,x1	 x28:0x00000001  x1:0xfd5dc700 x11=0xfd5dc701
       21405000	      2139	80002758	02a60863	beq	x12,x10,80002788	 x12:0x00000000 x10:0x800019de
       21415000	      2140	8000275c	d7e0ef97	auipc	x31,0xd7e0e	 x31=0x57e10758
       21425000	      2141	80002760	41ed4613	xori	x12,x26,1054	 x26:0x80009f2c x12=0x80009b32
       21435000	      2142	80002764	00741663	bne	x8,x7,80002770	  x8:0x00000001  x7:0xffffeae7
       21445000	      2143	00000000	00000013	addi	x0,x0,0	  x0:0x00000000
       21455000	      2144	8000276c	00000013	addi	x0,x0,0	  x0:0x00000000
       21465000	      2145	80002770	0183d393	srli	x7,x7,0x18	  x7:0xffffeae7  x7=0x000000ff
       21475000	      2146	80002774	465c2c13	slti	x24,x24,1125	 x24:0x00000000 x24=0x00000001
       21485000	      2147	80002778	00d6b733	sltu	x14,x13,x13	 x13:0x00000001 x13:0x00000001 x14=0x00000000
       21495000	      2148	8000277c	03900263	beq	x0,x25,800027a0	  x0:0x00000000 x25:0x00000000
       21505000	      2149	00000000	00000013	addi	x0,x0,0	  x0:0x00000000
       21515000	      2150	8000279c	00000013	addi	x0,x0,0	  x0:0x00000000
       21525000	      2151	800027a0	c9bee393	ori	x7,x29,-869	 x29:0x0000ffff  x7=0xffffffff
       21535000	      2152	800027a4	9715bf93	sltiu	x31,x11,-1679	 x11:0xfd5dc701 x31=0x00000001
       21545000	      2153	800027a8	41415233	sra	x4,x2,x20	  x2:0xffffeae7 x20:0x167f3698  x4=0xffffffff
       21555000	      2154	800027ac	e1ba3093	sltiu	x1,x20,-485	 x20:0x167f3698  x1=0x00000001
       21565000	      2155	800027b0	41640c33	sub	x24,x8,x22	  x8:0x00000001 x22:0xabb8e000 x24=0x54472001
       21575000	      2156	800027b4	00374033	xor	x0,x14,x3	 x14:0x00000000  x3:0x80009000
       21585000	      2157	800027b8	d4c9a013	slti	x0,x19,-692	 x19:0x0a8c333d
       21595000	      2158	800027bc	04fef263	bgeu	x29,x15,80002800	 x29:0x0000ffff x15:0xf573b7aa
       21605000	      2159	800027c0	edab4713	xori	x14,x22,-294	 x22:0xabb8e000 x14=0x54471eda
       21615000	      2160	800027c4	04046663	bltu	x8,x0,80002810	  x8:0x00000001  x0:0x00000000
       21625000	      2161	800027c8	0089e263	bltu	x19,x8,800027cc	 x19:0x0a8c333d  x8:0x00000001
       21635000	      2162	800027cc	3e77eb93	ori	x23,x15,999	 x15:0xf573b7aa x23=0xf573b7ef
       21645000	      2163	800027d0	40d4d613	srai	x12,x9,0xd	  x9:0xe536409b x12=0xffff29b2
       21655000	      2164	800027d4	014e0a63	beq	x28,x20,800027e8	 x28:0x00000001 x20:0x167f3698
       21665000	      2165	800027d8	a0ab2093	slti	x1,x22,-1526	 x22:0xabb8e000  x1=0x00000001
       21675000	      2166	800027dc	01308a63	beq	x1,x19,800027f0	  x1:0x00000001 x19:0x0a8c333d
       21685000	      2167	800027e0	1ee1b813	sltiu	x16,x3,494	  x3:0x80009000 x16=0x00000000
       21695000	      2168	800027e4	5f91c537	lui	x10,0x5f91c	 x10=0x5f91c000
       21705000	      2169	800027e8	00a55213	srli	x4,x10,0xa	 x10:0x5f91c000  x4=0x0017e470
       21715000	      2170	800027ec	00fb5c63	bge	x22,x15,80002804	 x22:0xabb8e000 x15:0xf573b7aa
       21725000	      2171	800027f0	20510013	addi	x0,x2,517	  x2:0xffffeae7
       21735000	      2172	800027f4	00b1c263	blt	x3,x11,800027f8	  x3:0x80009000 x11:0xfd5dc701
       21745000	      2173	00000000	00000013	addi	x0,x0,0	  x0:0x00000000
       21755000	      2174	800027f4	00000013	addi	x0,x0,0	  x0:0x00000000
       21765000	      2175	800027f8	009d4133	xor	x2,x26,x9	 x26:0x80009f2c  x9:0xe536409b  x2=0x6536dfb7
       21775000	      2176	800027fc	01227cb3	and	x25,x4,x18	  x4:0x0017e470 x18:0x000005d6 x25=0x00000450
       21785000	      2177	80002800	04ca1863	bne	x20,x12,80002850	 x20:0x167f3698 x12:0xffff29b2
       21795000	      2178	00000000	00000013	addi	x0,x0,0	  x0:0x00000000
       21805000	      2179	8000284c	00000013	addi	x0,x0,0	  x0:0x00000000
       21815000	      2180	80002850	00982db3	slt	x27,x16,x9	 x16:0x00000000  x9:0xe536409b x27=0x00000000
       21825000	      2181	80002854	8a39a197	auipc	x3,0x8a39a	  x3=0x0a39c850
       21835000	      2182	80002858	00b4e533	or	x10,x9,x11	  x9:0xe536409b x11:0xfd5dc701 x10=0xfd7fc79b
       21845000	      2183	8000285c	408a0033	sub	x0,x20,x8	 x20:0x167f3698  x8:0x00000001
       21855000	      2184	80002860	40e70933	sub	x18,x14,x14	 x14:0x54471eda x14:0x54471eda x18=0x00000000
       21865000	      2185	80002864	4169df33	sra	x30,x19,x22	 x19:0x0a8c333d x22:0xabb8e000 x30=0x0a8c333d
       21875000	      2186	80002868	6df70093	addi	x1,x14,1759	 x14:0x54471eda  x1=0x544725b9
       21885000	      2187	8000286c	04618463	beq	x3,x6,800028b4	  x3:0x0a39c850  x6:0x00000001
       21895000	      2188	80002870	41195393	srai	x7,x18,0x11	 x18:0x00000000  x7=0x00000000
       21905000	      2189	80002874	99a0b093	sltiu	x1,x1,-1638	  x1:0x544725b9  x1=0x00000001
       21915000	      2190	80002878	0437f463	bgeu	x15,x3,800028c0	 x15:0xf573b7aa  x3:0x0a39c850
       21925000	      2191	00000000	00000013	addi	x0,x0,0	  x0:0x00000000
       21935000	      2192	800028bc	00000013	addi	x0,x0,0	  x0:0x00000000
       21945000	      2193	800028c0	52073813	sltiu	x16,x14,1312	 x14:0x54471eda x16=0x00000000
       21955000	      2194	800028c4	842dcb13	xori	x22,x27,-1982	 x27:0x00000000 x22=0xfffff842
       21965000	      2195	800028c8	01b025b3	slt	x11,x0,x27	  x0:0x00000000 x27:0x00000000 x11=0x00000000
       21975000	      2196	800028cc	00361333	sll	x6,x12,x3	 x12:0xffff29b2  x3:0x0a39c850  x6=0x29b20000
       21985000	      2197	800028d0	d40aa513	slti	x10,x21,-704	 x21:0xfffffc7f x10=0x00000001
       21995000	      2198	800028d4	a6afe813	ori	x16,x31,-1430	 x31:0x00000001 x16=0xfffffa6b
       22005000	      2199	800028d8	07da7c63	bgeu	x20,x29,80002950	 x20:0x167f3698 x29:0x0000ffff
       22015000	      2200	00000000	00000013	addi	x0,x0,0	  x0:0x00000000
       22025000	      2201	8000294c	00000013	addi	x0,x0,0	  x0:0x00000000
       22035000	      2202	80002950	03931863	bne	x6,x25,80002980	  x6:0x29b20000 x25:0x00000450
       22045000	      2203	00000000	00000013	addi	x0,x0,0	  x0:0x00000000
       22055000	      2204	8000297c	00000013	addi	x0,x0,0	  x0:0x00000000
       22065000	      2205	80002980	018be033	or	x0,x23,x24	 x23:0xf573b7ef x24:0x54472001
       22075000	      2206	80002984	9823ad93	slti	x27,x7,-1662	  x7:0x00000000 x27=0x00000000
       22085000	      2207	80002988	56f4e913	ori	x18,x9,1391	  x9:0xe536409b x18=0xe53645ff
       22095000	      2208	8000298c	40c0db33	sra	x22,x1,x12	  x1:0x00000001 x12:0xffff29b2 x22=0x00000000
       22105000	      2209	80002990	00885f13	srli	x30,x16,0x8	 x16:0xfffffa6b x30=0x00fffffa
       22115000	      2210	80002994	05636463	bltu	x6,x22,800029dc	  x6:0x29b20000 x22:0x00000000
       22125000	      2211	80002998	01bc6e33	or	x28,x24,x27	 x24:0x54472001 x27:0x00000000 x28=0x54472001
       22135000	      2212	8000299c	00505663	bge	x0,x5,800029a8	  x0:0x00000000  x5:0x0fe1a8c8
       22145000	      2213	800029a0	00cfaab3	slt	x21,x31,x12	 x31:0x00000001 x12:0xffff29b2 x21=0x00000000
       22155000	      2214	800029a4	01115993	srli	x19,x2,0x11	  x2:0x6536dfb7 x19=0x0000329b
       22165000	      2215	800029a8	00957c63	bgeu	x10,x9,800029c0	 x10:0x00000001  x9:0xe536409b
       22175000	      2216	800029ac	01e65a63	bge	x12,x30,800029c0	 x12:0xffff29b2 x30:0x00fffffa
       22185000	      2217	800029b0	01bddfb3	srl	x31,x27,x27	 x27:0x00000000 x27:0x00000000 x31=0x00000000
       22195000	      2218	800029b4	008d2933	slt	x18,x26,x8	 x26:0x80009f2c  x8:0x00000001 x18=0x00000001
       22205000	      2219	800029b8	01d8c263	blt	x17,x29,800029bc	 x17:0x80009fc4 x29:0x0000ffff
       22215000	      2220	00000000	00000013	addi	x0,x0,0	  x0:0x00000000
       22225000	      2221	800029b8	00000013	addi	x0,x0,0	  x0:0x00000000
       22235000	      2222	800029bc	00631333	sll	x6,x6,x6	  x6:0x29b20000  x6:0x29b20000  x6=0x29b20000
       22245000	      2223	800029c0	01906433	or	x8,x0,x25	  x0:0x00000000 x25:0x00000450  x8=0x00000450
       22255000	      2224	800029c4	8a17b697	auipc	x13,0x8a17b	 x13=0x0a17d9c0
       22265000	      2225	800029c8	41a405b3	sub	x11,x8,x26	  x8:0x00000450 x26:0x80009f2c x11=0x7fff6524
       22275000	      2226	800029cc	01d7e1b3	or	x3,x15,x29	 x15:0xf573b7aa x29:0x0000ffff  x3=0xf573ffff
       22285000	      2227	800029d0	5ddff993	andi	x19,x31,1501	 x31:0x00000000 x19=0x00000000
       22295000	      2228	800029d4	00d30a63	beq	x6,x13,800029e8	  x6:0x29b20000 x13:0x0a17d9c0
       22305000	      2229	800029d8	00de8433	add	x8,x29,x13	 x29:0x0000ffff x13:0x0a17d9c0  x8=0x0a18d9bf
       22315000	      2230	800029dc	0501e263	bltu	x3,x16,80002a20	  x3:0xf573ffff x16:0xfffffa6b
       22325000	      2231	00000000	00000013	addi	x0,x0,0	  x0:0x00000000
       22335000	      2232	80002a1c	00000013	addi	x0,x0,0	  x0:0x00000000
       22345000	      2233	80002a20	016591b3	sll	x3,x11,x22	 x11:0x7fff6524 x22:0x00000000  x3=0x7fff6524
       22355000	      2234	80002a24	006aea33	or	x20,x21,x6	 x21:0x00000000  x6:0x29b20000 x20=0x29b20000
       22365000	      2235	80002a28	01730a63	beq	x6,x23,80002a3c	  x6:0x29b20000 x23:0xf573b7ef
       22375000	      2236	80002a2c	00f44833	xor	x16,x8,x15	  x8:0x0a18d9bf x15:0xf573b7aa x16=0xff6b6e15
       22385000	      2237	80002a30	eb290617	auipc	x12,0xeb290	 x12=0x6b292a2c
       22395000	      2238	80002a34	00a441b3	xor	x3,x8,x10	  x8:0x0a18d9bf x10:0x00000001  x3=0x0a18d9be
       22405000	      2239	80002a38	01369533	sll	x10,x13,x19	 x13:0x0a17d9c0 x19:0x00000000 x10=0x0a17d9c0
       22415000	      2240	80002a3c	01ef39b3	sltu	x19,x30,x30	 x30:0x00fffffa x30:0x00fffffa x19=0x00000000
       22425000	      2241	80002a40	41b6dd93	srai	x27,x13,0x1b	 x13:0x0a17d9c0 x27=0x00000001
       22435000	      2242	80002a44	01bbe633	or	x12,x23,x27	 x23:0xf573b7ef x27:0x00000001 x12=0xf573b7ef
       22445000	      2243	80002a48	0300de63	bge	x1,x16,80002a84	  x1:0x00000001 x16:0xff6b6e15
       22455000	      2244	00000000	00000013	addi	x0,x0,0	  x0:0x00000000
       22465000	      2245	80002a80	00000013	addi	x0,x0,0	  x0:0x00000000
       22475000	      2246	80002a84	e3dbab93	slti	x23,x23,-451	 x23:0xf573b7ef x23=0x00000001
       22485000	      2247	80002a88	f5e0f2b7	lui	x5,0xf5e0f	  x5=0xf5e0f000
       22495000	      2248	80002a8c	00002bb3	slt	x23,x0,x0	  x0:0x00000000  x0:0x00000000 x23=0x00000000
       22505000	      2249	80002a90	15bebd93	sltiu	x27,x29,347	 x29:0x0000ffff x27=0x00000000
       22515000	      2250	80002a94	04709463	bne	x1,x7,80002adc	  x1:0x00000001  x7:0x00000000
       22525000	      2251	00000000	00000013	addi	x0,x0,0	  x0:0x00000000
       22535000	      2252	80002ad8	00000013	addi	x0,x0,0	  x0:0x00000000
       22545000	      2253	80002adc	252d3713	sltiu	x14,x26,594	 x26:0x80009f2c x14=0x00000000
       22555000	      2254	80002ae0	01c3fe33	and	x28,x7,x28	  x7:0x00000000 x28:0x54472001 x28=0x00000000
       22565000	      2255	80002ae4	051f0863	beq	x30,x17,80002b34	 x30:0x00fffffa x17:0x80009fc4
       22575000	      2256	80002ae8	68a84713	xori	x14,x16,1674	 x16:0xff6b6e15 x14=0xff6b689f
       22585000	      2257	80002aec	00983633	sltu	x12,x16,x9	 x16:0xff6b6e15  x9:0xe536409b x12=0x00000000
       22595000	      2258	80002af0	00000013	addi	x0,x0,0	  x0:0x00000000
       22605000	      2259	80002af4	01e762b3	or	x5,x14,x30	 x14:0xff6b689f x30:0x00fffffa  x5=0xffffffff
       22615000	      2260	80002af8	01764eb3	xor	x29,x12,x23	 x12:0x00000000 x23:0x00000000 x29=0x00000000
       22625000	      2261	80002afc	00632633	slt	x12,x6,x6	  x6:0x29b20000  x6:0x29b20000 x12=0x00000000
       22635000	      2262	80002b00	02d80263	beq	x16,x13,80002b24	 x16:0xff6b6e15 x13:0x0a17d9c0
       22645000	      2263	80002b04	01360633	add	x12,x12,x19	 x12:0x00000000 x19:0x00000000 x12=0x00000000
       22655000	      2264	80002b08	40d75633	sra	x12,x14,x13	 x14:0xff6b689f x13:0x0a17d9c0 x12=0xff6b689f
       22665000	      2265	80002b0c	0003bab3	sltu	x21,x7,x0	  x7:0x00000000  x0:0x00000000 x21=0x00000000
       22675000	      2266	80002b10	00593833	sltu	x16,x18,x5	 x18:0x00000001  x5:0xffffffff x16=0x00000001
       22685000	      2267	80002b14	008af863	bgeu	x21,x8,80002b24	 x21:0x00000000  x8:0x0a18d9bf
       22695000	      2268	80002b18	a12d9037	lui	x0,0xa12d9	
       22705000	      2269	80002b1c	16364b13	xori	x22,x12,355	 x12:0xff6b689f x22=0xff6b69fc
       22715000	      2270	80002b20	00158033	add	x0,x11,x1	 x11:0x7fff6524  x1:0x00000001
       22725000	      2271	80002b24	61d7c737	lui	x14,0x61d7c	 x14=0x61d7c000
       22735000	      2272	80002b28	00d08133	add	x2,x1,x13	  x1:0x00000001 x13:0x0a17d9c0  x2=0x0a17d9c1
       22745000	      2273	80002b2c	f6976593	ori	x11,x14,-151	 x14:0x61d7c000 x11=0xffffff69
       22755000	      2274	80002b30	0062d9b3	srl	x19,x5,x6	  x5:0xffffffff  x6:0x29b20000 x19=0xffffffff
       22765000	      2275	80002b34	1c984813	xori	x16,x16,457	 x16:0x00000001 x16=0x000001c8
       22775000	      2276	80002b38	b52f4c93	xori	x25,x30,-1198	 x30:0x00fffffa x25=0xff0004a8
       22785000	      2277	80002b3c	00000013	addi	x0,x0,0	  x0:0x00000000
       22795000	      2278	80002b40	0086eeb3	or	x29,x13,x8	 x13:0x0a17d9c0  x8:0x0a18d9bf x29=0x0a1fd9ff
       22805000	      2279	80002b44	41a10b33	sub	x22,x2,x26	  x2:0x0a17d9c1 x26:0x80009f2c x22=0x8a173a95
       22815000	      2280	80002b48	0340036f	jal	x6,80002b48	  x6=0x80002b48
       22825000	      2281	00000000	00000013	addi	x0,x0,0	  x0:0x00000000
       22835000	      2282	80002b78	00000013	addi	x0,x0,0	  x0:0x00000000
       22845000	      2283	80002b7c	fddff0ef	jal	x1,80002b7c	  x1=0x80002b7c
       22855000	      2284	00000000	00000013	addi	x0,x0,0	  x0:0x00000000
       22865000	      2285	80002b54	00000013	addi	x0,x0,0	  x0:0x00000000
       22875000	      2286	80002b58	01400b6f	jal	x22,80002b58	 x22=0x80002b58
       22885000	      2287	00000000	00000013	addi	x0,x0,0	  x0:0x00000000
       22895000	      2288	80002b68	00000013	addi	x0,x0,0	  x0:0x00000000
       22905000	      2289	80002b6c	fe1ff0ef	jal	x1,80002b6c	  x1=0x80002b6c
       22915000	      2290	00000000	00000013	addi	x0,x0,0	  x0:0x00000000
       22925000	      2291	80002b48	00000013	addi	x0,x0,0	  x0:0x00000000
       22935000	      2292	80002b4c	0240026f	jal	x4,80002b4c	  x4=0x80002b4c
       22945000	      2293	00000000	00000013	addi	x0,x0,0	  x0:0x00000000
       22955000	      2294	80002b6c	00000013	addi	x0,x0,0	  x0:0x00000000
       22965000	      2295	80002b70	038002ef	jal	x5,80002b70	  x5=0x80002b70
       22975000	      2296	00000000	00000013	addi	x0,x0,0	  x0:0x00000000
       22985000	      2297	80002ba4	00000013	addi	x0,x0,0	  x0:0x00000000
       22995000	      2298	80002ba8	fd9ff0ef	jal	x1,80002ba8	  x1=0x80002ba8
       23005000	      2299	00000000	00000013	addi	x0,x0,0	  x0:0x00000000
       23015000	      2300	80002b7c	00000013	addi	x0,x0,0	  x0:0x00000000
       23025000	      2301	80002b80	fddff0ef	jal	x1,80002b80	  x1=0x80002b80
       23035000	      2302	00000000	00000013	addi	x0,x0,0	  x0:0x00000000
       23045000	      2303	80002b58	00000013	addi	x0,x0,0	  x0:0x00000000
       23055000	      2304	80002b5c	0400076f	jal	x14,80002b5c	 x14=0x80002b5c
       23065000	      2305	00000000	00000013	addi	x0,x0,0	  x0:0x00000000
       23075000	      2306	80002b98	00000013	addi	x0,x0,0	  x0:0x00000000
       23085000	      2307	80002b9c	fddffdef	jal	x27,80002b9c	 x27=0x80002b9c
       23095000	      2308	00000000	00000013	addi	x0,x0,0	  x0:0x00000000
       23105000	      2309	80002b74	00000013	addi	x0,x0,0	  x0:0x00000000
       23115000	      2310	80002b78	ff1ff0ef	jal	x1,80002b78	  x1=0x80002b78
       23125000	      2311	00000000	00000013	addi	x0,x0,0	  x0:0x00000000
       23135000	      2312	80002b64	00000013	addi	x0,x0,0	  x0:0x00000000
       23145000	      2313	80002b68	030000ef	jal	x1,80002b68	  x1=0x80002b68
       23155000	      2314	00000000	00000013	addi	x0,x0,0	  x0:0x00000000
       23165000	      2315	80002b94	00000013	addi	x0,x0,0	  x0:0x00000000
       23175000	      2316	80002b98	ffdff0ef	jal	x1,80002b98	  x1=0x80002b98
       23185000	      2317	00000000	00000013	addi	x0,x0,0	  x0:0x00000000
       23195000	      2318	80002b90	00000013	addi	x0,x0,0	  x0:0x00000000
       23205000	      2319	80002b94	01000c6f	jal	x24,80002b94	 x24=0x80002b94
       23215000	      2320	00000000	00000013	addi	x0,x0,0	  x0:0x00000000
       23225000	      2321	80002ba0	00000013	addi	x0,x0,0	  x0:0x00000000
       23235000	      2322	80002ba4	fc1ff36f	jal	x6,80002ba4	  x6=0x80002ba4
       23245000	      2323	00000000	00000013	addi	x0,x0,0	  x0:0x00000000
       23255000	      2324	80002b60	00000013	addi	x0,x0,0	  x0:0x00000000
       23265000	      2325	80002b64	028000ef	jal	x1,80002b64	  x1=0x80002b64
       23275000	      2326	00000000	00000013	addi	x0,x0,0	  x0:0x00000000
       23285000	      2327	80002b88	00000013	addi	x0,x0,0	  x0:0x00000000
       23295000	      2328	80002b8c	fd5ff4ef	jal	x9,80002b8c	  x9=0x80002b8c
       23305000	      2329	00000000	00000013	addi	x0,x0,0	  x0:0x00000000
       23315000	      2330	80002b5c	00000013	addi	x0,x0,0	  x0:0x00000000
       23325000	      2331	80002b60	ff1ff0ef	jal	x1,80002b60	  x1=0x80002b60
       23335000	      2332	00000000	00000013	addi	x0,x0,0	  x0:0x00000000
       23345000	      2333	80002b4c	00000013	addi	x0,x0,0	  x0:0x00000000
       23355000	      2334	80002b50	00400aef	jal	x21,80002b50	 x21=0x80002b50
       23365000	      2335	00000000	00000013	addi	x0,x0,0	  x0:0x00000000
       23375000	      2336	80002b50	00000013	addi	x0,x0,0	  x0:0x00000000
       23385000	      2337	80002b54	030000ef	jal	x1,80002b54	  x1=0x80002b54
       23395000	      2338	00000000	00000013	addi	x0,x0,0	  x0:0x00000000
       23405000	      2339	80002b80	00000013	addi	x0,x0,0	  x0:0x00000000
       23415000	      2340	80002b84	004000ef	jal	x1,80002b84	  x1=0x80002b84
       23425000	      2341	00000000	00000013	addi	x0,x0,0	  x0:0x00000000
       23435000	      2342	80002b84	00000013	addi	x0,x0,0	  x0:0x00000000
       23445000	      2343	80002b88	008000ef	jal	x1,80002b88	  x1=0x80002b88
       23455000	      2344	00000000	00000013	addi	x0,x0,0	  x0:0x00000000
       23465000	      2345	80002b8c	00000013	addi	x0,x0,0	  x0:0x00000000
       23475000	      2346	80002b90	fe5ff0ef	jal	x1,80002b90	  x1=0x80002b90
       23485000	      2347	00000000	00000013	addi	x0,x0,0	  x0:0x00000000
       23495000	      2348	80002b70	00000013	addi	x0,x0,0	  x0:0x00000000
       23505000	      2349	80002b74	02c000ef	jal	x1,80002b74	  x1=0x80002b74
       23515000	      2350	00000000	00000013	addi	x0,x0,0	  x0:0x00000000
       23525000	      2351	80002b9c	00000013	addi	x0,x0,0	  x0:0x00000000
       23535000	      2352	80002ba0	00c0036f	jal	x6,80002ba0	  x6=0x80002ba0
       23545000	      2353	00000000	00000013	addi	x0,x0,0	  x0:0x00000000
       23555000	      2354	80002ba8	00000013	addi	x0,x0,0	  x0:0x00000000
       23565000	      2355	80002bac	413adb93	srai	x23,x21,0x13	 x21:0x80002b50 x23=0xfffff000
       23575000	      2356	80002bb0	076b9463	bne	x23,x22,80002c18	 x23:0xfffff000 x22:0x80002b58
       23585000	      2357	00000000	00000013	addi	x0,x0,0	  x0:0x00000000
       23595000	      2358	80002c14	00000013	addi	x0,x0,0	  x0:0x00000000
       23605000	      2359	80002c18	02448863	beq	x9,x4,80002c48	  x9:0x80002b8c  x4:0x80002b4c
       23615000	      2360	80002c1c	86ef4493	xori	x9,x30,-1938	 x30:0x00fffffa  x9=0xff000794
       23625000	      2361	80002c20	01fc0533	add	x10,x24,x31	 x24:0x80002b94 x31:0x00000000 x10=0x80002b94
       23635000	      2362	80002c24	00d60663	beq	x12,x13,80002c30	 x12:0xff6b689f x13:0x0a17d9c0
       23645000	      2363	80002c28	40955a93	srai	x21,x10,0x9	 x10:0x80002b94 x21=0xffc00015
       23655000	      2364	80002c2c	009643b3	xor	x7,x12,x9	 x12:0xff6b689f  x9:0xff000794  x7=0x006b6f0b
       23665000	      2365	80002c30	e3ac4613	xori	x12,x24,-454	 x24:0x80002b94 x12=0x7fffd5ae
       23675000	      2366	80002c34	016f1a63	bne	x30,x22,80002c48	 x30:0x00fffffa x22:0x80002b58
       23685000	      2367	00000000	00000013	addi	x0,x0,0	  x0:0x00000000
       23695000	      2368	80002c44	00000013	addi	x0,x0,0	  x0:0x00000000
       23705000	      2369	80002c48	0069d663	bge	x19,x6,80002c54	 x19:0xffffffff  x6:0x80002ba0
       23715000	      2370	00000000	00000013	addi	x0,x0,0	  x0:0x00000000
       23725000	      2371	80002c50	00000013	addi	x0,x0,0	  x0:0x00000000
       23735000	      2372	80002c54	c46b3313	sltiu	x6,x22,-954	 x22:0x80002b58  x6=0x00000001
       23745000	      2373	80002c58	01e006b3	add	x13,x0,x30	  x0:0x00000000 x30:0x00fffffa x13=0x00fffffa
       23755000	      2374	80002c5c	017ddc93	srli	x25,x27,0x17	 x27:0x80002b9c x25=0x00000100
       23765000	      2375	80002c60	fcad3393	sltiu	x7,x26,-54	 x26:0x80009f2c  x7=0x00000001
       23775000	      2376	80002c64	db49a393	slti	x7,x19,-588	 x19:0xffffffff  x7=0x00000000
       23785000	      2377	80002c68	01d65ab3	srl	x21,x12,x29	 x12:0x7fffd5ae x29:0x0a1fd9ff x21=0x00000000
       23795000	      2378	80002c6c	2265ee93	ori	x29,x11,550	 x11:0xffffff69 x29=0xffffff6f
       23805000	      2379	80002c70	4110d493	srai	x9,x1,0x11	  x1:0x80002b74  x9=0xffffc000
       23815000	      2380	80002c74	0110c2b3	xor	x5,x1,x17	  x1:0x80002b74 x17:0x80009fc4  x5=0x0000b4b0
       23825000	      2381	80002c78	0bcefe13	andi	x28,x29,188	 x29:0xffffff6f x28=0x0000002c
       23835000	      2382	80002c7c	01bf72b3	and	x5,x30,x27	 x30:0x00fffffa x27:0x80002b9c  x5=0x00002b98
       23845000	      2383	80002c80	dd04fb13	andi	x22,x9,-560	  x9:0xffffc000 x22=0xffffc000
       23855000	      2384	80002c84	00b29433	sll	x8,x5,x11	  x5:0x00002b98 x11:0xffffff69  x8=0x00573000
       23865000	      2385	80002c88	008d8ab3	add	x21,x27,x8	 x27:0x80002b9c  x8:0x00573000 x21=0x80575b9c
       23875000	      2386	80002c8c	008fa133	slt	x2,x31,x8	 x31:0x00000000  x8:0x00573000  x2=0x00000001
       23885000	      2387	80002c90	012762b3	or	x5,x14,x18	 x14:0x80002b5c x18:0x00000001  x5=0x80002b5d
       23895000	      2388	80002c94	40e1dab3	sra	x21,x3,x14	  x3:0x0a18d9be x14:0x80002b5c x21=0x00000000
       23905000	      2389	80002c98	b1ec2993	slti	x19,x24,-1250	 x24:0x80002b94 x19=0x00000001
       23915000	      2390	80002c9c	002c3833	sltu	x16,x24,x2	 x24:0x80002b94  x2:0x00000001 x16=0x00000000
       23925000	      2391	80002ca0	1cc20813	addi	x16,x4,460	  x4:0x80002b4c x16=0x80002d18
       23935000	      2392	80002ca4	00656cb3	or	x25,x10,x6	 x10:0x80002b94  x6:0x00000001 x25=0x80002b95
       23945000	      2393	80002ca8	00000013	addi	x0,x0,0	  x0:0x00000000
       23955000	      2394	80002cac	001d6c63	bltu	x26,x1,80002cc4	 x26:0x80009f2c  x1:0x80002b74
       23965000	      2395	80002cb0	41090ab3	sub	x21,x18,x16	 x18:0x00000001 x16:0x80002d18 x21=0x7fffd2e9
       23975000	      2396	80002cb4	01d6de93	srli	x29,x13,0x1d	 x13:0x00fffffa x29=0x00000000
       23985000	      2397	80002cb8	01daa733	slt	x14,x21,x29	 x21:0x7fffd2e9 x29:0x00000000 x14=0x00000000
       23995000	      2398	80002cbc	08fd5463	bge	x26,x15,80002d44	 x26:0x80009f2c x15:0xf573b7aa
       24005000	      2399	80002cc0	00000013	addi	x0,x0,0	  x0:0x00000000
       24015000	      2400	80002cc4	02375863	bge	x14,x3,80002cf4	 x14:0x00000000  x3:0x0a18d9be
       24025000	      2401	80002cc8	1d386513	ori	x10,x16,467	 x16:0x80002d18 x10=0x80002ddb
       24035000	      2402	80002ccc	c771aeb7	lui	x29,0xc771a	 x29=0xc771a000
       24045000	      2403	80002cd0	031ee663	bltu	x29,x17,80002cfc	 x29:0xc771a000 x17:0x80009fc4
       24055000	      2404	80002cd4	01f2c663	blt	x5,x31,80002ce0	  x5:0x80002b5d x31:0x00000000
       24065000	      2405	00000000	00000013	addi	x0,x0,0	  x0:0x00000000
       24075000	      2406	80002cdc	00000013	addi	x0,x0,0	  x0:0x00000000
       24085000	      2407	80002ce0	00dc1b33	sll	x22,x24,x13	 x24:0x80002b94 x13:0x00fffffa x22=0x50000000
       24095000	      2408	80002ce4	00431a63	bne	x6,x4,80002cf8	  x6:0x00000001  x4:0x80002b4c
       24105000	      2409	00000000	00000013	addi	x0,x0,0	  x0:0x00000000
       24115000	      2410	80002cf4	00000013	addi	x0,x0,0	  x0:0x00000000
       24125000	      2411	80002cf8	08736463	bltu	x6,x7,80002d80	  x6:0x00000001  x7:0x00000000
       24135000	      2412	80002cfc	418ed513	srai	x10,x29,0x18	 x29:0xc771a000 x10=0xffffffc7
       24145000	      2413	80002d00	04044863	blt	x8,x0,80002d50	  x8:0x00573000  x0:0x00000000
       24155000	      2414	80002d04	0127c333	xor	x6,x15,x18	 x15:0xf573b7aa x18:0x00000001  x6=0xf573b7ab
       24165000	      2415	80002d08	0280036f	jal	x6,80002d08	  x6=0x80002d08
       24175000	      2416	00000000	00000013	addi	x0,x0,0	  x0:0x00000000
       24185000	      2417	80002d2c	00000013	addi	x0,x0,0	  x0:0x00000000
       24195000	      2418	80002d30	fe5ff26f	jal	x4,80002d30	  x4=0x80002d30
       24205000	      2419	00000000	00000013	addi	x0,x0,0	  x0:0x00000000
       24215000	      2420	80002d10	00000013	addi	x0,x0,0	  x0:0x00000000
       24225000	      2421	80002d14	00c00eef	jal	x29,80002d14	 x29=0x80002d14
       24235000	      2422	00000000	00000013	addi	x0,x0,0	  x0:0x00000000
       24245000	      2423	80002d1c	00000013	addi	x0,x0,0	  x0:0x00000000
       24255000	      2424	80002d20	014000ef	jal	x1,80002d20	  x1=0x80002d20
       24265000	      2425	00000000	00000013	addi	x0,x0,0	  x0:0x00000000
       24275000	      2426	80002d30	00000013	addi	x0,x0,0	  x0:0x00000000
       24285000	      2427	80002d34	008000ef	jal	x1,80002d34	  x1=0x80002d34
       24295000	      2428	00000000	00000013	addi	x0,x0,0	  x0:0x00000000
       24305000	      2429	80002d38	00000013	addi	x0,x0,0	  x0:0x00000000
       24315000	      2430	80002d3c	fd1ff36f	jal	x6,80002d3c	  x6=0x80002d3c
       24325000	      2431	00000000	00000013	addi	x0,x0,0	  x0:0x00000000
       24335000	      2432	80002d08	00000013	addi	x0,x0,0	  x0:0x00000000
       24345000	      2433	80002d0c	02c00eef	jal	x29,80002d0c	 x29=0x80002d0c
       24355000	      2434	00000000	00000013	addi	x0,x0,0	  x0:0x00000000
       24365000	      2435	80002d34	00000013	addi	x0,x0,0	  x0:0x00000000
       24375000	      2436	80002d38	ff5ff1ef	jal	x3,80002d38	  x3=0x80002d38
       24385000	      2437	00000000	00000013	addi	x0,x0,0	  x0:0x00000000
       24395000	      2438	80002d28	00000013	addi	x0,x0,0	  x0:0x00000000
       24405000	      2439	80002d2c	fe5ff36f	jal	x6,80002d2c	  x6=0x80002d2c
       24415000	      2440	00000000	00000013	addi	x0,x0,0	  x0:0x00000000
       24425000	      2441	80002d0c	00000013	addi	x0,x0,0	  x0:0x00000000
       24435000	      2442	80002d10	01800c6f	jal	x24,80002d10	 x24=0x80002d10
       24445000	      2443	00000000	00000013	addi	x0,x0,0	  x0:0x00000000
       24455000	      2444	80002d24	00000013	addi	x0,x0,0	  x0:0x00000000
       24465000	      2445	80002d28	ff1ff0ef	jal	x1,80002d28	  x1=0x80002d28
       24475000	      2446	00000000	00000013	addi	x0,x0,0	  x0:0x00000000
       24485000	      2447	80002d14	00000013	addi	x0,x0,0	  x0:0x00000000
       24495000	      2448	80002d18	004000ef	jal	x1,80002d18	  x1=0x80002d18
       24505000	      2449	00000000	00000013	addi	x0,x0,0	  x0:0x00000000
       24515000	      2450	80002d18	00000013	addi	x0,x0,0	  x0:0x00000000
       24525000	      2451	80002d1c	008000ef	jal	x1,80002d1c	  x1=0x80002d1c
       24535000	      2452	00000000	00000013	addi	x0,x0,0	  x0:0x00000000
       24545000	      2453	80002d20	00000013	addi	x0,x0,0	  x0:0x00000000
       24555000	      2454	80002d24	01c000ef	jal	x1,80002d24	  x1=0x80002d24
       24565000	      2455	00000000	00000013	addi	x0,x0,0	  x0:0x00000000
       24575000	      2456	80002d3c	00000013	addi	x0,x0,0	  x0:0x00000000
       24585000	      2457	80002d40	381a0997	auipc	x19,0x381a0	 x19=0xb81a2d3c
       24595000	      2458	80002d44	008eea33	or	x20,x29,x8	 x29:0x80002d0c  x8:0x00573000 x20=0x80573d0c
       24605000	      2459	80002d48	0336de63	bge	x13,x19,80002d84	 x13:0x00fffffa x19:0xb81a2d3c
       24615000	      2460	00000000	00000013	addi	x0,x0,0	  x0:0x00000000
       24625000	      2461	80002d80	00000013	addi	x0,x0,0	  x0:0x00000000
       24635000	      2462	80002d84	948e0693	addi	x13,x28,-1720	 x28:0x0000002c x13=0xfffff974
       24645000	      2463	80002d88	01d36633	or	x12,x6,x29	  x6:0x80002d2c x29:0x80002d0c x12=0x80002d2c
       24655000	      2464	80002d8c	00000013	addi	x0,x0,0	  x0:0x00000000
       24665000	      2465	80002d90	00a49133	sll	x2,x9,x10	  x9:0xffffc000 x10:0xffffffc7  x2=0xffe00000
       24675000	      2466	80002d94	40445c13	srai	x24,x8,0x4	  x8:0x00573000 x24=0x00057300
       24685000	      2467	80002d98	407c5233	sra	x4,x24,x7	 x24:0x00057300  x7:0x00000000  x4=0x00057300
       24695000	      2468	80002d9c	04d5c463	blt	x11,x13,80002de4	 x11:0xffffff69 x13:0xfffff974
       24705000	      2469	80002da0	011d7663	bgeu	x26,x17,80002dac	 x26:0x80009f2c x17:0x80009fc4
       24715000	      2470	80002da4	00e9c633	xor	x12,x19,x14	 x19:0xb81a2d3c x14:0x00000000 x12=0xb81a2d3c
       24725000	      2471	80002da8	0321dc63	bge	x3,x18,80002de0	  x3:0x80002d38 x18:0x00000001
       24735000	      2472	80002dac	01f6ca63	blt	x13,x31,80002dc0	 x13:0xfffff974 x31:0x00000000
       24745000	      2473	00000000	00000013	addi	x0,x0,0	  x0:0x00000000
       24755000	      2474	80002dbc	00000013	addi	x0,x0,0	  x0:0x00000000
       24765000	      2475	80002dc0	00789833	sll	x16,x17,x7	 x17:0x80009fc4  x7:0x00000000 x16=0x80009fc4
       24775000	      2476	80002dc4	1ed06fb7	lui	x31,0x1ed06	 x31=0x1ed06000
       24785000	      2477	80002dc8	001d8263	beq	x27,x1,80002dcc	 x27:0x80002b9c  x1:0x80002d24
       24795000	      2478	80002dcc	01670433	add	x8,x14,x22	 x14:0x00000000 x22:0x50000000  x8=0x50000000
       24805000	      2479	80002dd0	00000013	addi	x0,x0,0	  x0:0x00000000
       24815000	      2480	80002dd4	885d3513	sltiu	x10,x26,-1915	 x26:0x80009f2c x10=0x00000001
       24825000	      2481	80002dd8	01db95b3	sll	x11,x23,x29	 x23:0xfffff000 x29:0x80002d0c x11=0xff000000
       24835000	      2482	80002ddc	412f59b3	sra	x19,x30,x18	 x30:0x00fffffa x18:0x00000001 x19=0x007ffffd
       24845000	      2483	80002de0	00994c63	blt	x18,x9,80002df8	 x18:0x00000001  x9:0xffffc000
       24855000	      2484	80002de4	41470db3	sub	x27,x14,x20	 x14:0x00000000 x20:0x80573d0c x27=0x7fa8c2f4
       24865000	      2485	80002de8	05476837	lui	x16,0x5476	 x16=0x05476000
       24875000	      2486	80002dec	01fec663	blt	x29,x31,80002df8	 x29:0x80002d0c x31:0x1ed06000
       24885000	      2487	00000000	00000013	addi	x0,x0,0	  x0:0x00000000
       24895000	      2488	80002df4	00000013	addi	x0,x0,0	  x0:0x00000000
       24905000	      2489	80002df8	00ad6b33	or	x22,x26,x10	 x26:0x80009f2c x10:0x00000001 x22=0x80009f2d
       24915000	      2490	80002dfc	01cfc233	xor	x4,x31,x28	 x31:0x1ed06000 x28:0x0000002c  x4=0x1ed0602c
       24925000	      2491	80002e00	00175e93	srli	x29,x14,0x1	 x14:0x00000000 x29=0x00000000
       24935000	      2492	80002e04	004d2303	lw	x6,4(x26)	 x26:0x80009f2c  x6=0x80002e68 PA:0x80009f30
       24945000	      2493	80002e08	d05655b7	lui	x11,0xd0565	 x11=0xd0565000
       24955000	      2494	80002e0c	00000013	addi	x0,x0,0	  x0:0x00000000
       24965000	      2495	80002e10	030d0d13	addi	x26,x26,48	 x26:0x80009f2c x26=0x80009f5c
       24975000	      2496	80002e14	d4367293	andi	x5,x12,-701	 x12:0xb81a2d3c  x5=0xb81a2d00
       24985000	      2497	80002e18	00130393	addi	x7,x6,1	  x6:0x80002e68  x7=0x80002e69
       24995000	      2498	80002e1c	000383e7	jalr	x7,x7,0	  x7:0x80002e69  x7=0x80002e1c
       25005000	      2499	00000000	00000013	addi	x0,x0,0	  x0:0x00000000
       25015000	      2500	80002e68	00000013	addi	x0,x0,0	  x0:0x00000000
       25025000	      2501	80002e6c	0080036f	jal	x6,80002e6c	  x6=0x80002e6c
       25035000	      2502	00000000	00000013	addi	x0,x0,0	  x0:0x00000000
       25045000	      2503	80002e70	00000013	addi	x0,x0,0	  x0:0x00000000
       25055000	      2504	80002e74	050000ef	jal	x1,80002e74	  x1=0x80002e74
       25065000	      2505	00000000	00000013	addi	x0,x0,0	  x0:0x00000000
       25075000	      2506	80002ec0	00000013	addi	x0,x0,0	  x0:0x00000000
       25085000	      2507	80002ec4	ff1ff26f	jal	x4,80002ec4	  x4=0x80002ec4
       25095000	      2508	00000000	00000013	addi	x0,x0,0	  x0:0x00000000
       25105000	      2509	80002eb0	00000013	addi	x0,x0,0	  x0:0x00000000
       25115000	      2510	80002eb4	fe1ff0ef	jal	x1,80002eb4	  x1=0x80002eb4
       25125000	      2511	00000000	00000013	addi	x0,x0,0	  x0:0x00000000
       25135000	      2512	80002e90	00000013	addi	x0,x0,0	  x0:0x00000000
       25145000	      2513	80002e94	024000ef	jal	x1,80002e94	  x1=0x80002e94
       25155000	      2514	00000000	00000013	addi	x0,x0,0	  x0:0x00000000
       25165000	      2515	80002eb4	00000013	addi	x0,x0,0	  x0:0x00000000
       25175000	      2516	80002eb8	01000fef	jal	x31,80002eb8	 x31=0x80002eb8
       25185000	      2517	00000000	00000013	addi	x0,x0,0	  x0:0x00000000
       25195000	      2518	80002ec4	00000013	addi	x0,x0,0	  x0:0x00000000
       25205000	      2519	80002ec8	fd9ff0ef	jal	x1,80002ec8	  x1=0x80002ec8
       25215000	      2520	00000000	00000013	addi	x0,x0,0	  x0:0x00000000
       25225000	      2521	80002e9c	00000013	addi	x0,x0,0	  x0:0x00000000
       25235000	      2522	80002ea0	fe5ff36f	jal	x6,80002ea0	  x6=0x80002ea0
       25245000	      2523	00000000	00000013	addi	x0,x0,0	  x0:0x00000000
       25255000	      2524	80002e80	00000013	addi	x0,x0,0	  x0:0x00000000
       25265000	      2525	80002e84	0200036f	jal	x6,80002e84	  x6=0x80002e84
       25275000	      2526	00000000	00000013	addi	x0,x0,0	  x0:0x00000000
       25285000	      2527	80002ea0	00000013	addi	x0,x0,0	  x0:0x00000000
       25295000	      2528	80002ea4	02c00a6f	jal	x20,80002ea4	 x20=0x80002ea4
       25305000	      2529	00000000	00000013	addi	x0,x0,0	  x0:0x00000000
       25315000	      2530	80002ecc	00000013	addi	x0,x0,0	  x0:0x00000000
       25325000	      2531	80002ed0	fddff0ef	jal	x1,80002ed0	  x1=0x80002ed0
       25335000	      2532	00000000	00000013	addi	x0,x0,0	  x0:0x00000000
       25345000	      2533	80002ea8	00000013	addi	x0,x0,0	  x0:0x00000000
       25355000	      2534	80002eac	004000ef	jal	x1,80002eac	  x1=0x80002eac
       25365000	      2535	00000000	00000013	addi	x0,x0,0	  x0:0x00000000
       25375000	      2536	80002eac	00000013	addi	x0,x0,0	  x0:0x00000000
       25385000	      2537	80002eb0	fedff36f	jal	x6,80002eb0	  x6=0x80002eb0
       25395000	      2538	00000000	00000013	addi	x0,x0,0	  x0:0x00000000
       25405000	      2539	80002e98	00000013	addi	x0,x0,0	  x0:0x00000000
       25415000	      2540	80002e9c	fd5ff2ef	jal	x5,80002e9c	  x5=0x80002e9c
       25425000	      2541	00000000	00000013	addi	x0,x0,0	  x0:0x00000000
       25435000	      2542	80002e6c	00000013	addi	x0,x0,0	  x0:0x00000000
       25445000	      2543	80002e70	038000ef	jal	x1,80002e70	  x1=0x80002e70
       25455000	      2544	00000000	00000013	addi	x0,x0,0	  x0:0x00000000
       25465000	      2545	80002ea4	00000013	addi	x0,x0,0	  x0:0x00000000
       25475000	      2546	80002ea8	0140016f	jal	x2,80002ea8	  x2=0x80002ea8
       25485000	      2547	00000000	00000013	addi	x0,x0,0	  x0:0x00000000
       25495000	      2548	80002eb8	00000013	addi	x0,x0,0	  x0:0x00000000
       25505000	      2549	80002ebc	fcdff0ef	jal	x1,80002ebc	  x1=0x80002ebc
       25515000	      2550	00000000	00000013	addi	x0,x0,0	  x0:0x00000000
       25525000	      2551	80002e84	00000013	addi	x0,x0,0	  x0:0x00000000
       25535000	      2552	80002e88	0080086f	jal	x16,80002e88	 x16=0x80002e88
       25545000	      2553	00000000	00000013	addi	x0,x0,0	  x0:0x00000000
       25555000	      2554	80002e8c	00000013	addi	x0,x0,0	  x0:0x00000000
       25565000	      2555	80002e90	fe9ff0ef	jal	x1,80002e90	  x1=0x80002e90
       25575000	      2556	00000000	00000013	addi	x0,x0,0	  x0:0x00000000
       25585000	      2557	80002e74	00000013	addi	x0,x0,0	  x0:0x00000000
       25595000	      2558	80002e78	00400f6f	jal	x30,80002e78	 x30=0x80002e78
       25605000	      2559	00000000	00000013	addi	x0,x0,0	  x0:0x00000000
       25615000	      2560	80002e78	00000013	addi	x0,x0,0	  x0:0x00000000
       25625000	      2561	80002e7c	01c0016f	jal	x2,80002e7c	  x2=0x80002e7c
       25635000	      2562	00000000	00000013	addi	x0,x0,0	  x0:0x00000000
       25645000	      2563	80002e94	00000013	addi	x0,x0,0	  x0:0x00000000
       25655000	      2564	80002e98	fe9ff0ef	jal	x1,80002e98	  x1=0x80002e98
       25665000	      2565	00000000	00000013	addi	x0,x0,0	  x0:0x00000000
       25675000	      2566	80002e7c	00000013	addi	x0,x0,0	  x0:0x00000000
       25685000	      2567	80002e80	04c000ef	jal	x1,80002e80	  x1=0x80002e80
       25695000	      2568	00000000	00000013	addi	x0,x0,0	  x0:0x00000000
       25705000	      2569	80002ec8	00000013	addi	x0,x0,0	  x0:0x00000000
       25715000	      2570	80002ecc	fc1ff0ef	jal	x1,80002ecc	  x1=0x80002ecc
       25725000	      2571	00000000	00000013	addi	x0,x0,0	  x0:0x00000000
       25735000	      2572	80002e88	00000013	addi	x0,x0,0	  x0:0x00000000
       25745000	      2573	80002e8c	034000ef	jal	x1,80002e8c	  x1=0x80002e8c
       25755000	      2574	00000000	00000013	addi	x0,x0,0	  x0:0x00000000
       25765000	      2575	80002ebc	00000013	addi	x0,x0,0	  x0:0x00000000
       25775000	      2576	80002ec0	0140036f	jal	x6,80002ec0	  x6=0x80002ec0
       25785000	      2577	00000000	00000013	addi	x0,x0,0	  x0:0x00000000
       25795000	      2578	80002ed0	00000013	addi	x0,x0,0	  x0:0x00000000
       25805000	      2579	80002ed4	01096fb3	or	x31,x18,x16	 x18:0x00000001 x16:0x80002e88 x31=0x80002e89
       25815000	      2580	80002ed8	0500036f	jal	x6,80002ed8	  x6=0x80002ed8
       25825000	      2581	00000000	00000013	addi	x0,x0,0	  x0:0x00000000
       25835000	      2582	80002f24	00000013	addi	x0,x0,0	  x0:0x00000000
       25845000	      2583	80002f28	fb5ffa6f	jal	x20,80002f28	 x20=0x80002f28
       25855000	      2584	00000000	00000013	addi	x0,x0,0	  x0:0x00000000
       25865000	      2585	80002ed8	00000013	addi	x0,x0,0	  x0:0x00000000
       25875000	      2586	80002edc	028002ef	jal	x5,80002edc	  x5=0x80002edc
       25885000	      2587	00000000	00000013	addi	x0,x0,0	  x0:0x00000000
       25895000	      2588	80002f00	00000013	addi	x0,x0,0	  x0:0x00000000
       25905000	      2589	80002f04	018000ef	jal	x1,80002f04	  x1=0x80002f04
       25915000	      2590	00000000	00000013	addi	x0,x0,0	  x0:0x00000000
       25925000	      2591	80002f18	00000013	addi	x0,x0,0	  x0:0x00000000
       25935000	      2592	80002f1c	fcdff1ef	jal	x3,80002f1c	  x3=0x80002f1c
       25945000	      2593	00000000	00000013	addi	x0,x0,0	  x0:0x00000000
       25955000	      2594	80002ee4	00000013	addi	x0,x0,0	  x0:0x00000000
       25965000	      2595	80002ee8	0240036f	jal	x6,80002ee8	  x6=0x80002ee8
       25975000	      2596	00000000	00000013	addi	x0,x0,0	  x0:0x00000000
       25985000	      2597	80002f08	00000013	addi	x0,x0,0	  x0:0x00000000
       25995000	      2598	80002f0c	fd5fff6f	jal	x30,80002f0c	 x30=0x80002f0c
       26005000	      2599	00000000	00000013	addi	x0,x0,0	  x0:0x00000000
       26015000	      2600	80002edc	00000013	addi	x0,x0,0	  x0:0x00000000
       26025000	      2601	80002ee0	00c000ef	jal	x1,80002ee0	  x1=0x80002ee0
       26035000	      2602	00000000	00000013	addi	x0,x0,0	  x0:0x00000000
       26045000	      2603	80002ee8	00000013	addi	x0,x0,0	  x0:0x00000000
       26055000	      2604	80002eec	ff9ffaef	jal	x21,80002eec	 x21=0x80002eec
       26065000	      2605	00000000	00000013	addi	x0,x0,0	  x0:0x00000000
       26075000	      2606	80002ee0	00000013	addi	x0,x0,0	  x0:0x00000000
       26085000	      2607	80002ee4	00c000ef	jal	x1,80002ee4	  x1=0x80002ee4
       26095000	      2608	00000000	00000013	addi	x0,x0,0	  x0:0x00000000
       26105000	      2609	80002eec	00000013	addi	x0,x0,0	  x0:0x00000000
       26115000	      2610	80002ef0	010000ef	jal	x1,80002ef0	  x1=0x80002ef0
       26125000	      2611	00000000	00000013	addi	x0,x0,0	  x0:0x00000000
       26135000	      2612	80002efc	00000013	addi	x0,x0,0	  x0:0x00000000
       26145000	      2613	80002f00	01000c6f	jal	x24,80002f00	 x24=0x80002f00
       26155000	      2614	00000000	00000013	addi	x0,x0,0	  x0:0x00000000
       26165000	      2615	80002f0c	00000013	addi	x0,x0,0	  x0:0x00000000
       26175000	      2616	80002f10	01c005ef	jal	x11,80002f10	 x11=0x80002f10
       26185000	      2617	00000000	00000013	addi	x0,x0,0	  x0:0x00000000
       26195000	      2618	80002f28	00000013	addi	x0,x0,0	  x0:0x00000000
       26205000	      2619	80002f2c	ff9ff2ef	jal	x5,80002f2c	  x5=0x80002f2c
       26215000	      2620	00000000	00000013	addi	x0,x0,0	  x0:0x00000000
       26225000	      2621	80002f20	00000013	addi	x0,x0,0	  x0:0x00000000
       26235000	      2622	80002f24	ffdff36f	jal	x6,80002f24	  x6=0x80002f24
       26245000	      2623	00000000	00000013	addi	x0,x0,0	  x0:0x00000000
       26255000	      2624	80002f1c	00000013	addi	x0,x0,0	  x0:0x00000000
       26265000	      2625	80002f20	ff5ff1ef	jal	x3,80002f20	  x3=0x80002f20
       26275000	      2626	00000000	00000013	addi	x0,x0,0	  x0:0x00000000
       26285000	      2627	80002f10	00000013	addi	x0,x0,0	  x0:0x00000000
       26295000	      2628	80002f14	fe9ff2ef	jal	x5,80002f14	  x5=0x80002f14
       26305000	      2629	00000000	00000013	addi	x0,x0,0	  x0:0x00000000
       26315000	      2630	80002ef8	00000013	addi	x0,x0,0	  x0:0x00000000
       26325000	      2631	80002efc	ff9ff2ef	jal	x5,80002efc	  x5=0x80002efc
       26335000	      2632	00000000	00000013	addi	x0,x0,0	  x0:0x00000000
       26345000	      2633	80002ef0	00000013	addi	x0,x0,0	  x0:0x00000000
       26355000	      2634	80002ef4	0140036f	jal	x6,80002ef4	  x6=0x80002ef4
       26365000	      2635	00000000	00000013	addi	x0,x0,0	  x0:0x00000000
       26375000	      2636	80002f04	00000013	addi	x0,x0,0	  x0:0x00000000
       26385000	      2637	80002f08	ff1ff36f	jal	x6,80002f08	  x6=0x80002f08
       26395000	      2638	00000000	00000013	addi	x0,x0,0	  x0:0x00000000
       26405000	      2639	80002ef4	00000013	addi	x0,x0,0	  x0:0x00000000
       26415000	      2640	80002ef8	020000ef	jal	x1,80002ef8	  x1=0x80002ef8
       26425000	      2641	00000000	00000013	addi	x0,x0,0	  x0:0x00000000
       26435000	      2642	80002f14	00000013	addi	x0,x0,0	  x0:0x00000000
       26445000	      2643	80002f18	0180026f	jal	x4,80002f18	  x4=0x80002f18
       26455000	      2644	00000000	00000013	addi	x0,x0,0	  x0:0x00000000
       26465000	      2645	80002f2c	00000013	addi	x0,x0,0	  x0:0x00000000
       26475000	      2646	80002f30	99c4ee93	ori	x29,x9,-1636	  x9:0xffffc000 x29=0xfffff99c
       26485000	      2647	80002f34	03c0036f	jal	x6,80002f34	  x6=0x80002f34
       26495000	      2648	00000000	00000013	addi	x0,x0,0	  x0:0x00000000
       26505000	      2649	80002f6c	00000013	addi	x0,x0,0	  x0:0x00000000
       26515000	      2650	80002f70	ff5ff26f	jal	x4,80002f70	  x4=0x80002f70
       26525000	      2651	00000000	00000013	addi	x0,x0,0	  x0:0x00000000
       26535000	      2652	80002f60	00000013	addi	x0,x0,0	  x0:0x00000000
       26545000	      2653	80002f64	fe5ff0ef	jal	x1,80002f64	  x1=0x80002f64
       26555000	      2654	00000000	00000013	addi	x0,x0,0	  x0:0x00000000
       26565000	      2655	80002f44	00000013	addi	x0,x0,0	  x0:0x00000000
       26575000	      2656	80002f48	03400aef	jal	x21,80002f48	 x21=0x80002f48
       26585000	      2657	00000000	00000013	addi	x0,x0,0	  x0:0x00000000
       26595000	      2658	80002f78	00000013	addi	x0,x0,0	  x0:0x00000000
       26605000	      2659	80002f7c	ffdff36f	jal	x6,80002f7c	  x6=0x80002f7c
       26615000	      2660	00000000	00000013	addi	x0,x0,0	  x0:0x00000000
       26625000	      2661	80002f74	00000013	addi	x0,x0,0	  x0:0x00000000
       26635000	      2662	80002f78	fddff86f	jal	x16,80002f78	 x16=0x80002f78
       26645000	      2663	00000000	00000013	addi	x0,x0,0	  x0:0x00000000
       26655000	      2664	80002f50	00000013	addi	x0,x0,0	  x0:0x00000000
       26665000	      2665	80002f54	ff9ffc6f	jal	x24,80002f54	 x24=0x80002f54
       26675000	      2666	00000000	00000013	addi	x0,x0,0	  x0:0x00000000
       26685000	      2667	80002f48	00000013	addi	x0,x0,0	  x0:0x00000000
       26695000	      2668	80002f4c	00c0016f	jal	x2,80002f4c	  x2=0x80002f4c
       26705000	      2669	00000000	00000013	addi	x0,x0,0	  x0:0x00000000
       26715000	      2670	80002f54	00000013	addi	x0,x0,0	  x0:0x00000000
       26725000	      2671	80002f58	fe5ff0ef	jal	x1,80002f58	  x1=0x80002f58
       26735000	      2672	00000000	00000013	addi	x0,x0,0	  x0:0x00000000
       26745000	      2673	80002f38	00000013	addi	x0,x0,0	  x0:0x00000000
       26755000	      2674	80002f3c	0240036f	jal	x6,80002f3c	  x6=0x80002f3c
       26765000	      2675	00000000	00000013	addi	x0,x0,0	  x0:0x00000000
       26775000	      2676	80002f5c	00000013	addi	x0,x0,0	  x0:0x00000000
       26785000	      2677	80002f60	ff1ffa6f	jal	x20,80002f60	 x20=0x80002f60
       26795000	      2678	00000000	00000013	addi	x0,x0,0	  x0:0x00000000
       26805000	      2679	80002f4c	00000013	addi	x0,x0,0	  x0:0x00000000
       26815000	      2680	80002f50	ff1ff0ef	jal	x1,80002f50	  x1=0x80002f50
       26825000	      2681	00000000	00000013	addi	x0,x0,0	  x0:0x00000000
       26835000	      2682	80002f3c	00000013	addi	x0,x0,0	  x0:0x00000000
       26845000	      2683	80002f40	0040036f	jal	x6,80002f40	  x6=0x80002f40
       26855000	      2684	00000000	00000013	addi	x0,x0,0	  x0:0x00000000
       26865000	      2685	80002f40	00000013	addi	x0,x0,0	  x0:0x00000000
       26875000	      2686	80002f44	ff5ff0ef	jal	x1,80002f44	  x1=0x80002f44
       26885000	      2687	00000000	00000013	addi	x0,x0,0	  x0:0x00000000
       26895000	      2688	80002f34	00000013	addi	x0,x0,0	  x0:0x00000000
       26905000	      2689	80002f38	04c000ef	jal	x1,80002f38	  x1=0x80002f38
       26915000	      2690	00000000	00000013	addi	x0,x0,0	  x0:0x00000000
       26925000	      2691	80002f80	00000013	addi	x0,x0,0	  x0:0x00000000
       26935000	      2692	80002f84	ff1ff36f	jal	x6,80002f84	  x6=0x80002f84
       26945000	      2693	00000000	00000013	addi	x0,x0,0	  x0:0x00000000
       26955000	      2694	80002f70	00000013	addi	x0,x0,0	  x0:0x00000000
       26965000	      2695	80002f74	ff9ff0ef	jal	x1,80002f74	  x1=0x80002f74
       26975000	      2696	00000000	00000013	addi	x0,x0,0	  x0:0x00000000
       26985000	      2697	80002f68	00000013	addi	x0,x0,0	  x0:0x00000000
       26995000	      2698	80002f6c	ff1ff96f	jal	x18,80002f6c	 x18=0x80002f6c
       27005000	      2699	00000000	00000013	addi	x0,x0,0	  x0:0x00000000
       27015000	      2700	80002f58	00000013	addi	x0,x0,0	  x0:0x00000000
       27025000	      2701	80002f5c	02400c6f	jal	x24,80002f5c	 x24=0x80002f5c
       27035000	      2702	00000000	00000013	addi	x0,x0,0	  x0:0x00000000
       27045000	      2703	80002f7c	00000013	addi	x0,x0,0	  x0:0x00000000
       27055000	      2704	80002f80	fe9ff0ef	jal	x1,80002f80	  x1=0x80002f80
       27065000	      2705	00000000	00000013	addi	x0,x0,0	  x0:0x00000000
       27075000	      2706	80002f64	00000013	addi	x0,x0,0	  x0:0x00000000
       27085000	      2707	80002f68	020000ef	jal	x1,80002f68	  x1=0x80002f68
       27095000	      2708	00000000	00000013	addi	x0,x0,0	  x0:0x00000000
       27105000	      2709	80002f84	00000013	addi	x0,x0,0	  x0:0x00000000
       27115000	      2710	80002f88	4aa90597	auipc	x11,0x4aa90	 x11=0xcaa92f84
       27125000	      2711	80002f8c	0340036f	jal	x6,80002f8c	  x6=0x80002f8c
       27135000	      2712	00000000	00000013	addi	x0,x0,0	  x0:0x00000000
       27145000	      2713	80002fbc	00000013	addi	x0,x0,0	  x0:0x00000000
       27155000	      2714	80002fc0	fd5ff0ef	jal	x1,80002fc0	  x1=0x80002fc0
       27165000	      2715	00000000	00000013	addi	x0,x0,0	  x0:0x00000000
       27175000	      2716	80002f90	00000013	addi	x0,x0,0	  x0:0x00000000
       27185000	      2717	80002f94	038000ef	jal	x1,80002f94	  x1=0x80002f94
       27195000	      2718	00000000	00000013	addi	x0,x0,0	  x0:0x00000000
       27205000	      2719	80002fc8	00000013	addi	x0,x0,0	  x0:0x00000000
       27215000	      2720	80002fcc	ff9ffb6f	jal	x22,80002fcc	 x22=0x80002fcc
       27225000	      2721	00000000	00000013	addi	x0,x0,0	  x0:0x00000000
       27235000	      2722	80002fc0	00000013	addi	x0,x0,0	  x0:0x00000000
       27245000	      2723	80002fc4	ff1ff0ef	jal	x1,80002fc4	  x1=0x80002fc4
       27255000	      2724	00000000	00000013	addi	x0,x0,0	  x0:0x00000000
       27265000	      2725	80002fb0	00000013	addi	x0,x0,0	  x0:0x00000000
       27275000	      2726	80002fb4	fe5ffeef	jal	x29,80002fb4	 x29=0x80002fb4
       27285000	      2727	00000000	00000013	addi	x0,x0,0	  x0:0x00000000
       27295000	      2728	80002f94	00000013	addi	x0,x0,0	  x0:0x00000000
       27305000	      2729	80002f98	054000ef	jal	x1,80002f98	  x1=0x80002f98
       27315000	      2730	00000000	00000013	addi	x0,x0,0	  x0:0x00000000
       27325000	      2731	80002fe8	00000013	addi	x0,x0,0	  x0:0x00000000
       27335000	      2732	80002fec	fe9ff0ef	jal	x1,80002fec	  x1=0x80002fec
       27345000	      2733	00000000	00000013	addi	x0,x0,0	  x0:0x00000000
       27355000	      2734	80002fd0	00000013	addi	x0,x0,0	  x0:0x00000000
       27365000	      2735	80002fd4	00400c6f	jal	x24,80002fd4	 x24=0x80002fd4
       27375000	      2736	00000000	00000013	addi	x0,x0,0	  x0:0x00000000
       27385000	      2737	80002fd4	00000013	addi	x0,x0,0	  x0:0x00000000
       27395000	      2738	80002fd8	fe5ff0ef	jal	x1,80002fd8	  x1=0x80002fd8
       27405000	      2739	00000000	00000013	addi	x0,x0,0	  x0:0x00000000
       27415000	      2740	80002fb8	00000013	addi	x0,x0,0	  x0:0x00000000
       27425000	      2741	80002fbc	034002ef	jal	x5,80002fbc	  x5=0x80002fbc
       27435000	      2742	00000000	00000013	addi	x0,x0,0	  x0:0x00000000
       27445000	      2743	80002fec	00000013	addi	x0,x0,0	  x0:0x00000000
       27455000	      2744	80002ff0	fb1fff6f	jal	x30,80002ff0	 x30=0x80002ff0
       27465000	      2745	00000000	00000013	addi	x0,x0,0	  x0:0x00000000
       27475000	      2746	80002f9c	00000013	addi	x0,x0,0	  x0:0x00000000
       27485000	      2747	80002fa0	004000ef	jal	x1,80002fa0	  x1=0x80002fa0
       27495000	      2748	00000000	00000013	addi	x0,x0,0	  x0:0x00000000
       27505000	      2749	80002fa0	00000013	addi	x0,x0,0	  x0:0x00000000
       27515000	      2750	80002fa4	038000ef	jal	x1,80002fa4	  x1=0x80002fa4
       27525000	      2751	00000000	00000013	addi	x0,x0,0	  x0:0x00000000
       27535000	      2752	80002fd8	00000013	addi	x0,x0,0	  x0:0x00000000
       27545000	      2753	80002fdc	fc1ff0ef	jal	x1,80002fdc	  x1=0x80002fdc
       27555000	      2754	00000000	00000013	addi	x0,x0,0	  x0:0x00000000
       27565000	      2755	80002f98	00000013	addi	x0,x0,0	  x0:0x00000000
       27575000	      2756	80002f9c	04c002ef	jal	x5,80002f9c	  x5=0x80002f9c
       27585000	      2757	00000000	00000013	addi	x0,x0,0	  x0:0x00000000
       27595000	      2758	80002fe4	00000013	addi	x0,x0,0	  x0:0x00000000
       27605000	      2759	80002fe8	fc9ff0ef	jal	x1,80002fe8	  x1=0x80002fe8
       27615000	      2760	00000000	00000013	addi	x0,x0,0	  x0:0x00000000
       27625000	      2761	80002fac	00000013	addi	x0,x0,0	  x0:0x00000000
       27635000	      2762	80002fb0	008000ef	jal	x1,80002fb0	  x1=0x80002fb0
       27645000	      2763	00000000	00000013	addi	x0,x0,0	  x0:0x00000000
       27655000	      2764	80002fb4	00000013	addi	x0,x0,0	  x0:0x00000000
       27665000	      2765	80002fb8	02c000ef	jal	x1,80002fb8	  x1=0x80002fb8
       27675000	      2766	00000000	00000013	addi	x0,x0,0	  x0:0x00000000
       27685000	      2767	80002fe0	00000013	addi	x0,x0,0	  x0:0x00000000
       27695000	      2768	80002fe4	fadff0ef	jal	x1,80002fe4	  x1=0x80002fe4
       27705000	      2769	00000000	00000013	addi	x0,x0,0	  x0:0x00000000
       27715000	      2770	80002f8c	00000013	addi	x0,x0,0	  x0:0x00000000
       27725000	      2771	80002f90	0400066f	jal	x12,80002f90	 x12=0x80002f90
       27735000	      2772	00000000	00000013	addi	x0,x0,0	  x0:0x00000000
       27745000	      2773	80002fcc	00000013	addi	x0,x0,0	  x0:0x00000000
       27755000	      2774	80002fd0	ff9ff0ef	jal	x1,80002fd0	  x1=0x80002fd0
       27765000	      2775	00000000	00000013	addi	x0,x0,0	  x0:0x00000000
       27775000	      2776	80002fc4	00000013	addi	x0,x0,0	  x0:0x00000000
       27785000	      2777	80002fc8	fe5ff0ef	jal	x1,80002fc8	  x1=0x80002fc8
       27795000	      2778	00000000	00000013	addi	x0,x0,0	  x0:0x00000000
       27805000	      2779	80002fa8	00000013	addi	x0,x0,0	  x0:0x00000000
       27815000	      2780	80002fac	0340036f	jal	x6,80002fac	  x6=0x80002fac
       27825000	      2781	00000000	00000013	addi	x0,x0,0	  x0:0x00000000
       27835000	      2782	80002fdc	00000013	addi	x0,x0,0	  x0:0x00000000
       27845000	      2783	80002fe0	fc9ff0ef	jal	x1,80002fe0	  x1=0x80002fe0
       27855000	      2784	00000000	00000013	addi	x0,x0,0	  x0:0x00000000
       27865000	      2785	80002fa4	00000013	addi	x0,x0,0	  x0:0x00000000
       27875000	      2786	80002fa8	04c0096f	jal	x18,80002fa8	 x18=0x80002fa8
       27885000	      2787	00000000	00000013	addi	x0,x0,0	  x0:0x00000000
       27895000	      2788	80002ff0	00000013	addi	x0,x0,0	  x0:0x00000000
       27905000	      2789	80002ff4	01c971b3	and	x3,x18,x28	 x18:0x80002fa8 x28:0x0000002c  x3=0x00000028
       27915000	      2790	80002ff8	0340036f	jal	x6,80002ff8	  x6=0x80002ff8
       27925000	      2791	00000000	00000013	addi	x0,x0,0	  x0:0x00000000
       27935000	      2792	80003028	00000013	addi	x0,x0,0	  x0:0x00000000
       27945000	      2793	8000302c	028000ef	jal	x1,8000302c	  x1=0x8000302c
       27955000	      2794	00000000	00000013	addi	x0,x0,0	  x0:0x00000000
       27965000	      2795	80003050	00000013	addi	x0,x0,0	  x0:0x00000000
       27975000	      2796	80003054	fc1ff0ef	jal	x1,80003054	  x1=0x80003054
       27985000	      2797	00000000	00000013	addi	x0,x0,0	  x0:0x00000000
       27995000	      2798	80003010	00000013	addi	x0,x0,0	  x0:0x00000000
       28005000	      2799	80003014	ff5ff96f	jal	x18,80003014	 x18=0x80003014
       28015000	      2800	00000000	00000013	addi	x0,x0,0	  x0:0x00000000
       28025000	      2801	80003004	00000013	addi	x0,x0,0	  x0:0x00000000
       28035000	      2802	80003008	054002ef	jal	x5,80003008	  x5=0x80003008
       28045000	      2803	00000000	00000013	addi	x0,x0,0	  x0:0x00000000
       28055000	      2804	80003058	00000013	addi	x0,x0,0	  x0:0x00000000
       28065000	      2805	8000305c	fb5ff0ef	jal	x1,8000305c	  x1=0x8000305c
       28075000	      2806	00000000	00000013	addi	x0,x0,0	  x0:0x00000000
       28085000	      2807	8000300c	00000013	addi	x0,x0,0	  x0:0x00000000
       28095000	      2808	80003010	ff5ff0ef	jal	x1,80003010	  x1=0x80003010
       28105000	      2809	00000000	00000013	addi	x0,x0,0	  x0:0x00000000
       28115000	      2810	80003000	00000013	addi	x0,x0,0	  x0:0x00000000
       28125000	      2811	80003004	ff9ff36f	jal	x6,80003004	  x6=0x80003004
       28135000	      2812	00000000	00000013	addi	x0,x0,0	  x0:0x00000000
       28145000	      2813	80002ff8	00000013	addi	x0,x0,0	  x0:0x00000000
       28155000	      2814	80002ffc	004000ef	jal	x1,80002ffc	  x1=0x80002ffc
       28165000	      2815	00000000	00000013	addi	x0,x0,0	  x0:0x00000000
       28175000	      2816	80002ffc	00000013	addi	x0,x0,0	  x0:0x00000000
       28185000	      2817	80003000	01c000ef	jal	x1,80003000	  x1=0x80003000
       28195000	      2818	00000000	00000013	addi	x0,x0,0	  x0:0x00000000
       28205000	      2819	80003018	00000013	addi	x0,x0,0	  x0:0x00000000
       28215000	      2820	8000301c	008000ef	jal	x1,8000301c	  x1=0x8000301c
       28225000	      2821	00000000	00000013	addi	x0,x0,0	  x0:0x00000000
       28235000	      2822	80003020	00000013	addi	x0,x0,0	  x0:0x00000000
       28245000	      2823	80003024	0280056f	jal	x10,80003024	 x10=0x80003024
       28255000	      2824	00000000	00000013	addi	x0,x0,0	  x0:0x00000000
       28265000	      2825	80003048	00000013	addi	x0,x0,0	  x0:0x00000000
       28275000	      2826	8000304c	ff1ff0ef	jal	x1,8000304c	  x1=0x8000304c
       28285000	      2827	00000000	00000013	addi	x0,x0,0	  x0:0x00000000
       28295000	      2828	80003038	00000013	addi	x0,x0,0	  x0:0x00000000
       28305000	      2829	8000303c	0140056f	jal	x10,8000303c	 x10=0x8000303c
       28315000	      2830	00000000	00000013	addi	x0,x0,0	  x0:0x00000000
       28325000	      2831	8000304c	00000013	addi	x0,x0,0	  x0:0x00000000
       28335000	      2832	80003050	ff5ff0ef	jal	x1,80003050	  x1=0x80003050
       28345000	      2833	00000000	00000013	addi	x0,x0,0	  x0:0x00000000
       28355000	      2834	80003040	00000013	addi	x0,x0,0	  x0:0x00000000
       28365000	      2835	80003044	01400eef	jal	x29,80003044	 x29=0x80003044
       28375000	      2836	00000000	00000013	addi	x0,x0,0	  x0:0x00000000
       28385000	      2837	80003054	00000013	addi	x0,x0,0	  x0:0x00000000
       28395000	      2838	80003058	fb5ff0ef	jal	x1,80003058	  x1=0x80003058
       28405000	      2839	00000000	00000013	addi	x0,x0,0	  x0:0x00000000
       28415000	      2840	80003008	00000013	addi	x0,x0,0	  x0:0x00000000
       28425000	      2841	8000300c	034000ef	jal	x1,8000300c	  x1=0x8000300c
       28435000	      2842	00000000	00000013	addi	x0,x0,0	  x0:0x00000000
       28445000	      2843	8000303c	00000013	addi	x0,x0,0	  x0:0x00000000
       28455000	      2844	80003040	008000ef	jal	x1,80003040	  x1=0x80003040
       28465000	      2845	00000000	00000013	addi	x0,x0,0	  x0:0x00000000
       28475000	      2846	80003044	00000013	addi	x0,x0,0	  x0:0x00000000
       28485000	      2847	80003048	fedff36f	jal	x6,80003048	  x6=0x80003048
       28495000	      2848	00000000	00000013	addi	x0,x0,0	  x0:0x00000000
       28505000	      2849	80003030	00000013	addi	x0,x0,0	  x0:0x00000000
       28515000	      2850	80003034	0040086f	jal	x16,80003034	 x16=0x80003034
       28525000	      2851	00000000	00000013	addi	x0,x0,0	  x0:0x00000000
       28535000	      2852	80003034	00000013	addi	x0,x0,0	  x0:0x00000000
       28545000	      2853	80003038	ff9ff36f	jal	x6,80003038	  x6=0x80003038
       28555000	      2854	00000000	00000013	addi	x0,x0,0	  x0:0x00000000
       28565000	      2855	8000302c	00000013	addi	x0,x0,0	  x0:0x00000000
       28575000	      2856	80003030	ff1ff0ef	jal	x1,80003030	  x1=0x80003030
       28585000	      2857	00000000	00000013	addi	x0,x0,0	  x0:0x00000000
       28595000	      2858	8000301c	00000013	addi	x0,x0,0	  x0:0x00000000
       28605000	      2859	80003020	ff9ff96f	jal	x18,80003020	 x18=0x80003020
       28615000	      2860	00000000	00000013	addi	x0,x0,0	  x0:0x00000000
       28625000	      2861	80003014	00000013	addi	x0,x0,0	  x0:0x00000000
       28635000	      2862	80003018	010000ef	jal	x1,80003018	  x1=0x80003018
       28645000	      2863	00000000	00000013	addi	x0,x0,0	  x0:0x00000000
       28655000	      2864	80003024	00000013	addi	x0,x0,0	  x0:0x00000000
       28665000	      2865	80003028	038000ef	jal	x1,80003028	  x1=0x80003028
       28675000	      2866	00000000	00000013	addi	x0,x0,0	  x0:0x00000000
       28685000	      2867	8000305c	00000013	addi	x0,x0,0	  x0:0x00000000
       28695000	      2868	80003060	01dbd213	srli	x4,x23,0x1d	 x23:0xfffff000  x4=0x00000007
       28705000	      2869	80003064	03c0036f	jal	x6,80003064	  x6=0x80003064
       28715000	      2870	00000000	00000013	addi	x0,x0,0	  x0:0x00000000
       28725000	      2871	8000309c	00000013	addi	x0,x0,0	  x0:0x00000000
       28735000	      2872	800030a0	008004ef	jal	x9,800030a0	  x9=0x800030a0
       28745000	      2873	00000000	00000013	addi	x0,x0,0	  x0:0x00000000
       28755000	      2874	800030a4	00000013	addi	x0,x0,0	  x0:0x00000000
       28765000	      2875	800030a8	ff1ffc6f	jal	x24,800030a8	 x24=0x800030a8
       28775000	      2876	00000000	00000013	addi	x0,x0,0	  x0:0x00000000
       28785000	      2877	80003094	00000013	addi	x0,x0,0	  x0:0x00000000
       28795000	      2878	80003098	fe9ff36f	jal	x6,80003098	  x6=0x80003098
       28805000	      2879	00000000	00000013	addi	x0,x0,0	  x0:0x00000000
       28815000	      2880	8000307c	00000013	addi	x0,x0,0	  x0:0x00000000
       28825000	      2881	80003080	fe9ff3ef	jal	x7,80003080	  x7=0x80003080
       28835000	      2882	00000000	00000013	addi	x0,x0,0	  x0:0x00000000
       28845000	      2883	80003064	00000013	addi	x0,x0,0	  x0:0x00000000
       28855000	      2884	80003068	00800f6f	jal	x30,80003068	 x30=0x80003068
       28865000	      2885	00000000	00000013	addi	x0,x0,0	  x0:0x00000000
       28875000	      2886	8000306c	00000013	addi	x0,x0,0	  x0:0x00000000
       28885000	      2887	80003070	00c0026f	jal	x4,80003070	  x4=0x80003070
       28895000	      2888	00000000	00000013	addi	x0,x0,0	  x0:0x00000000
       28905000	      2889	80003078	00000013	addi	x0,x0,0	  x0:0x00000000
       28915000	      2890	8000307c	00c000ef	jal	x1,8000307c	  x1=0x8000307c
       28925000	      2891	00000000	00000013	addi	x0,x0,0	  x0:0x00000000
       28935000	      2892	80003084	00000013	addi	x0,x0,0	  x0:0x00000000
       28945000	      2893	80003088	00c0036f	jal	x6,80003088	  x6=0x80003088
       28955000	      2894	00000000	00000013	addi	x0,x0,0	  x0:0x00000000
       28965000	      2895	80003090	00000013	addi	x0,x0,0	  x0:0x00000000
       28975000	      2896	80003094	0180036f	jal	x6,80003094	  x6=0x80003094
       28985000	      2897	00000000	00000013	addi	x0,x0,0	  x0:0x00000000
       28995000	      2898	800030a8	00000013	addi	x0,x0,0	  x0:0x00000000
       29005000	      2899	800030ac	fc9ff0ef	jal	x1,800030ac	  x1=0x800030ac
       29015000	      2900	00000000	00000013	addi	x0,x0,0	  x0:0x00000000
       29025000	      2901	80003070	00000013	addi	x0,x0,0	  x0:0x00000000
       29035000	      2902	80003074	030004ef	jal	x9,80003074	  x9=0x80003074
       29045000	      2903	00000000	00000013	addi	x0,x0,0	  x0:0x00000000
       29055000	      2904	800030a0	00000013	addi	x0,x0,0	  x0:0x00000000
       29065000	      2905	800030a4	fe1ff0ef	jal	x1,800030a4	  x1=0x800030a4
       29075000	      2906	00000000	00000013	addi	x0,x0,0	  x0:0x00000000
       29085000	      2907	80003080	00000013	addi	x0,x0,0	  x0:0x00000000
       29095000	      2908	80003084	00c000ef	jal	x1,80003084	  x1=0x80003084
       29105000	      2909	00000000	00000013	addi	x0,x0,0	  x0:0x00000000
       29115000	      2910	8000308c	00000013	addi	x0,x0,0	  x0:0x00000000
       29125000	      2911	80003090	ffdff0ef	jal	x1,80003090	  x1=0x80003090
       29135000	      2912	00000000	00000013	addi	x0,x0,0	  x0:0x00000000
       29145000	      2913	80003088	00000013	addi	x0,x0,0	  x0:0x00000000
       29155000	      2914	8000308c	fedff0ef	jal	x1,8000308c	  x1=0x8000308c
       29165000	      2915	00000000	00000013	addi	x0,x0,0	  x0:0x00000000
       29175000	      2916	80003074	00000013	addi	x0,x0,0	  x0:0x00000000
       29185000	      2917	80003078	024000ef	jal	x1,80003078	  x1=0x80003078
       29195000	      2918	00000000	00000013	addi	x0,x0,0	  x0:0x00000000
       29205000	      2919	80003098	00000013	addi	x0,x0,0	  x0:0x00000000
       29215000	      2920	8000309c	0140066f	jal	x12,8000309c	 x12=0x8000309c
       29225000	      2921	00000000	00000013	addi	x0,x0,0	  x0:0x00000000
       29235000	      2922	800030ac	00000013	addi	x0,x0,0	  x0:0x00000000
       29245000	      2923	800030b0	fbdff0ef	jal	x1,800030b0	  x1=0x800030b0
       29255000	      2924	00000000	00000013	addi	x0,x0,0	  x0:0x00000000
       29265000	      2925	80003068	00000013	addi	x0,x0,0	  x0:0x00000000
       29275000	      2926	8000306c	048000ef	jal	x1,8000306c	  x1=0x8000306c
       29285000	      2927	00000000	00000013	addi	x0,x0,0	  x0:0x00000000
       29295000	      2928	800030b0	00000013	addi	x0,x0,0	  x0:0x00000000
       29305000	      2929	800030b4	e4e0d537	lui	x10,0xe4e0d	 x10=0xe4e0d000
       29315000	      2930	800030b8	0180036f	jal	x6,800030b8	  x6=0x800030b8
       29325000	      2931	00000000	00000013	addi	x0,x0,0	  x0:0x00000000
       29335000	      2932	800030cc	00000013	addi	x0,x0,0	  x0:0x00000000
       29345000	      2933	800030d0	ff5ff36f	jal	x6,800030d0	  x6=0x800030d0
       29355000	      2934	00000000	00000013	addi	x0,x0,0	  x0:0x00000000
       29365000	      2935	800030c0	00000013	addi	x0,x0,0	  x0:0x00000000
       29375000	      2936	800030c4	004000ef	jal	x1,800030c4	  x1=0x800030c4
       29385000	      2937	00000000	00000013	addi	x0,x0,0	  x0:0x00000000
       29395000	      2938	800030c4	00000013	addi	x0,x0,0	  x0:0x00000000
       29405000	      2939	800030c8	0380036f	jal	x6,800030c8	  x6=0x800030c8
       29415000	      2940	00000000	00000013	addi	x0,x0,0	  x0:0x00000000
       29425000	      2941	800030fc	00000013	addi	x0,x0,0	  x0:0x00000000
       29435000	      2942	80003100	0040016f	jal	x2,80003100	  x2=0x80003100
       29445000	      2943	00000000	00000013	addi	x0,x0,0	  x0:0x00000000
       29455000	      2944	80003100	00000013	addi	x0,x0,0	  x0:0x00000000
       29465000	      2945	80003104	fc9fffef	jal	x31,80003104	 x31=0x80003104
       29475000	      2946	00000000	00000013	addi	x0,x0,0	  x0:0x00000000
       29485000	      2947	800030c8	00000013	addi	x0,x0,0	  x0:0x00000000
       29495000	      2948	800030cc	02c0056f	jal	x10,800030cc	 x10=0x800030cc
       29505000	      2949	00000000	00000013	addi	x0,x0,0	  x0:0x00000000
       29515000	      2950	800030f4	00000013	addi	x0,x0,0	  x0:0x00000000
       29525000	      2951	800030f8	fe5ff0ef	jal	x1,800030f8	  x1=0x800030f8
       29535000	      2952	00000000	00000013	addi	x0,x0,0	  x0:0x00000000
       29545000	      2953	800030d8	00000013	addi	x0,x0,0	  x0:0x00000000
       29555000	      2954	800030dc	0140036f	jal	x6,800030dc	  x6=0x800030dc
       29565000	      2955	00000000	00000013	addi	x0,x0,0	  x0:0x00000000
       29575000	      2956	800030ec	00000013	addi	x0,x0,0	  x0:0x00000000
       29585000	      2957	800030f0	004002ef	jal	x5,800030f0	  x5=0x800030f0
       29595000	      2958	00000000	00000013	addi	x0,x0,0	  x0:0x00000000
       29605000	      2959	800030f0	00000013	addi	x0,x0,0	  x0:0x00000000
       29615000	      2960	800030f4	0080036f	jal	x6,800030f4	  x6=0x800030f4
       29625000	      2961	00000000	00000013	addi	x0,x0,0	  x0:0x00000000
       29635000	      2962	800030f8	00000013	addi	x0,x0,0	  x0:0x00000000
       29645000	      2963	800030fc	fd9ff0ef	jal	x1,800030fc	  x1=0x800030fc
       29655000	      2964	00000000	00000013	addi	x0,x0,0	  x0:0x00000000
       29665000	      2965	800030d0	00000013	addi	x0,x0,0	  x0:0x00000000
       29675000	      2966	800030d4	00c000ef	jal	x1,800030d4	  x1=0x800030d4
       29685000	      2967	00000000	00000013	addi	x0,x0,0	  x0:0x00000000
       29695000	      2968	800030dc	00000013	addi	x0,x0,0	  x0:0x00000000
       29705000	      2969	800030e0	00800e6f	jal	x28,800030e0	 x28=0x800030e0
       29715000	      2970	00000000	00000013	addi	x0,x0,0	  x0:0x00000000
       29725000	      2971	800030e4	00000013	addi	x0,x0,0	  x0:0x00000000
       29735000	      2972	800030e8	fd5ff0ef	jal	x1,800030e8	  x1=0x800030e8
       29745000	      2973	00000000	00000013	addi	x0,x0,0	  x0:0x00000000
       29755000	      2974	800030b8	00000013	addi	x0,x0,0	  x0:0x00000000
       29765000	      2975	800030bc	030000ef	jal	x1,800030bc	  x1=0x800030bc
       29775000	      2976	00000000	00000013	addi	x0,x0,0	  x0:0x00000000
       29785000	      2977	800030e8	00000013	addi	x0,x0,0	  x0:0x00000000
       29795000	      2978	800030ec	fedfffef	jal	x31,800030ec	 x31=0x800030ec
       29805000	      2979	00000000	00000013	addi	x0,x0,0	  x0:0x00000000
       29815000	      2980	800030d4	00000013	addi	x0,x0,0	  x0:0x00000000
       29825000	      2981	800030d8	030000ef	jal	x1,800030d8	  x1=0x800030d8
       29835000	      2982	00000000	00000013	addi	x0,x0,0	  x0:0x00000000
       29845000	      2983	80003104	00000013	addi	x0,x0,0	  x0:0x00000000
       29855000	      2984	80003108	fddff56f	jal	x10,80003108	 x10=0x80003108
       29865000	      2985	00000000	00000013	addi	x0,x0,0	  x0:0x00000000
       29875000	      2986	800030e0	00000013	addi	x0,x0,0	  x0:0x00000000
       29885000	      2987	800030e4	fddff36f	jal	x6,800030e4	  x6=0x800030e4
       29895000	      2988	00000000	00000013	addi	x0,x0,0	  x0:0x00000000
       29905000	      2989	800030bc	00000013	addi	x0,x0,0	  x0:0x00000000
       29915000	      2990	800030c0	04c000ef	jal	x1,800030c0	  x1=0x800030c0
       29925000	      2991	00000000	00000013	addi	x0,x0,0	  x0:0x00000000
       29935000	      2992	80003108	00000013	addi	x0,x0,0	  x0:0x00000000
       29945000	      2993	8000310c	90a5cd93	xori	x27,x11,-1782	 x11:0xcaa92f84 x27=0x3556d68e
       29955000	      2994	80003110	0100036f	jal	x6,80003110	  x6=0x80003110
       29965000	      2995	00000000	00000013	addi	x0,x0,0	  x0:0x00000000
       29975000	      2996	8000311c	00000013	addi	x0,x0,0	  x0:0x00000000
       29985000	      2997	80003120	ff9ff0ef	jal	x1,80003120	  x1=0x80003120
       29995000	      2998	00000000	00000013	addi	x0,x0,0	  x0:0x00000000
       30005000	      2999	80003114	00000013	addi	x0,x0,0	  x0:0x00000000
       30015000	      3000	80003118	0340036f	jal	x6,80003118	  x6=0x80003118
       30025000	      3001	00000000	00000013	addi	x0,x0,0	  x0:0x00000000
       30035000	      3002	80003148	00000013	addi	x0,x0,0	  x0:0x00000000
       30045000	      3003	8000314c	fc9ff36f	jal	x6,8000314c	  x6=0x8000314c
       30055000	      3004	00000000	00000013	addi	x0,x0,0	  x0:0x00000000
       30065000	      3005	80003110	00000013	addi	x0,x0,0	  x0:0x00000000
       30075000	      3006	80003114	014000ef	jal	x1,80003114	  x1=0x80003114
       30085000	      3007	00000000	00000013	addi	x0,x0,0	  x0:0x00000000
       30095000	      3008	80003124	00000013	addi	x0,x0,0	  x0:0x00000000
       30105000	      3009	80003128	0100066f	jal	x12,80003128	 x12=0x80003128
       30115000	      3010	00000000	00000013	addi	x0,x0,0	  x0:0x00000000
       30125000	      3011	80003134	00000013	addi	x0,x0,0	  x0:0x00000000
       30135000	      3012	80003138	fe5ff0ef	jal	x1,80003138	  x1=0x80003138
       30145000	      3013	00000000	00000013	addi	x0,x0,0	  x0:0x00000000
       30155000	      3014	80003118	00000013	addi	x0,x0,0	  x0:0x00000000
       30165000	      3015	8000311c	024006ef	jal	x13,8000311c	 x13=0x8000311c
       30175000	      3016	00000000	00000013	addi	x0,x0,0	  x0:0x00000000
       30185000	      3017	8000313c	00000013	addi	x0,x0,0	  x0:0x00000000
       30195000	      3018	80003140	010000ef	jal	x1,80003140	  x1=0x80003140
       30205000	      3019	00000000	00000013	addi	x0,x0,0	  x0:0x00000000
       30215000	      3020	8000314c	00000013	addi	x0,x0,0	  x0:0x00000000
       30225000	      3021	80003150	fddff36f	jal	x6,80003150	  x6=0x80003150
       30235000	      3022	00000000	00000013	addi	x0,x0,0	  x0:0x00000000
       30245000	      3023	80003128	00000013	addi	x0,x0,0	  x0:0x00000000
       30255000	      3024	8000312c	02c000ef	jal	x1,8000312c	  x1=0x8000312c
       30265000	      3025	00000000	00000013	addi	x0,x0,0	  x0:0x00000000
       30275000	      3026	80003154	00000013	addi	x0,x0,0	  x0:0x00000000
       30285000	      3027	80003158	fedff36f	jal	x6,80003158	  x6=0x80003158
       30295000	      3028	00000000	00000013	addi	x0,x0,0	  x0:0x00000000
       30305000	      3029	80003140	00000013	addi	x0,x0,0	  x0:0x00000000
       30315000	      3030	80003144	fe1ff0ef	jal	x1,80003144	  x1=0x80003144
       30325000	      3031	00000000	00000013	addi	x0,x0,0	  x0:0x00000000
       30335000	      3032	80003120	00000013	addi	x0,x0,0	  x0:0x00000000
       30345000	      3033	80003124	00c0036f	jal	x6,80003124	  x6=0x80003124
       30355000	      3034	00000000	00000013	addi	x0,x0,0	  x0:0x00000000
       30365000	      3035	8000312c	00000013	addi	x0,x0,0	  x0:0x00000000
       30375000	      3036	80003130	00c0036f	jal	x6,80003130	  x6=0x80003130
       30385000	      3037	00000000	00000013	addi	x0,x0,0	  x0:0x00000000
       30395000	      3038	80003138	00000013	addi	x0,x0,0	  x0:0x00000000
       30405000	      3039	8000313c	ff9ff0ef	jal	x1,8000313c	  x1=0x8000313c
       30415000	      3040	00000000	00000013	addi	x0,x0,0	  x0:0x00000000
       30425000	      3041	80003130	00000013	addi	x0,x0,0	  x0:0x00000000
       30435000	      3042	80003134	020000ef	jal	x1,80003134	  x1=0x80003134
       30445000	      3043	00000000	00000013	addi	x0,x0,0	  x0:0x00000000
       30455000	      3044	80003150	00000013	addi	x0,x0,0	  x0:0x00000000
       30465000	      3045	80003154	ff5ff0ef	jal	x1,80003154	  x1=0x80003154
       30475000	      3046	00000000	00000013	addi	x0,x0,0	  x0:0x00000000
       30485000	      3047	80003144	00000013	addi	x0,x0,0	  x0:0x00000000
       30495000	      3048	80003148	014001ef	jal	x3,80003148	  x3=0x80003148
       30505000	      3049	00000000	00000013	addi	x0,x0,0	  x0:0x00000000
       30515000	      3050	80003158	00000013	addi	x0,x0,0	  x0:0x00000000
       30525000	      3051	8000315c	0090c333	xor	x6,x1,x9	  x1:0x80003154  x9:0x80003074  x6=0x00000120
       30535000	      3052	80003160	05c0036f	jal	x6,80003160	  x6=0x80003160
       30545000	      3053	00000000	00000013	addi	x0,x0,0	  x0:0x00000000
       30555000	      3054	800031b8	00000013	addi	x0,x0,0	  x0:0x00000000
       30565000	      3055	800031bc	fa9ff0ef	jal	x1,800031bc	  x1=0x800031bc
       30575000	      3056	00000000	00000013	addi	x0,x0,0	  x0:0x00000000
       30585000	      3057	80003160	00000013	addi	x0,x0,0	  x0:0x00000000
       30595000	      3058	80003164	030000ef	jal	x1,80003164	  x1=0x80003164
       30605000	      3059	00000000	00000013	addi	x0,x0,0	  x0:0x00000000
       30615000	      3060	80003190	00000013	addi	x0,x0,0	  x0:0x00000000
       30625000	      3061	80003194	fe1ff26f	jal	x4,80003194	  x4=0x80003194
       30635000	      3062	00000000	00000013	addi	x0,x0,0	  x0:0x00000000
       30645000	      3063	80003170	00000013	addi	x0,x0,0	  x0:0x00000000
       30655000	      3064	80003174	030000ef	jal	x1,80003174	  x1=0x80003174
       30665000	      3065	00000000	00000013	addi	x0,x0,0	  x0:0x00000000
       30675000	      3066	800031a0	00000013	addi	x0,x0,0	  x0:0x00000000
       30685000	      3067	800031a4	ff5ff36f	jal	x6,800031a4	  x6=0x800031a4
       30695000	      3068	00000000	00000013	addi	x0,x0,0	  x0:0x00000000
       30705000	      3069	80003194	00000013	addi	x0,x0,0	  x0:0x00000000
       30715000	      3070	80003198	01c0036f	jal	x6,80003198	  x6=0x80003198
       30725000	      3071	00000000	00000013	addi	x0,x0,0	  x0:0x00000000
       30735000	      3072	800031b0	00000013	addi	x0,x0,0	  x0:0x00000000
       30745000	      3073	800031b4	fbdff0ef	jal	x1,800031b4	  x1=0x800031b4
       30755000	      3074	00000000	00000013	addi	x0,x0,0	  x0:0x00000000
       30765000	      3075	8000316c	00000013	addi	x0,x0,0	  x0:0x00000000
       30775000	      3076	80003170	03000aef	jal	x21,80003170	 x21=0x80003170
       30785000	      3077	00000000	00000013	addi	x0,x0,0	  x0:0x00000000
       30795000	      3078	8000319c	00000013	addi	x0,x0,0	  x0:0x00000000
       30805000	      3079	800031a0	fcdff36f	jal	x6,800031a0	  x6=0x800031a0
       30815000	      3080	00000000	00000013	addi	x0,x0,0	  x0:0x00000000
       30825000	      3081	80003168	00000013	addi	x0,x0,0	  x0:0x00000000
       30835000	      3082	8000316c	010000ef	jal	x1,8000316c	  x1=0x8000316c
       30845000	      3083	00000000	00000013	addi	x0,x0,0	  x0:0x00000000
       30855000	      3084	80003178	00000013	addi	x0,x0,0	  x0:0x00000000
       30865000	      3085	8000317c	02c000ef	jal	x1,8000317c	  x1=0x8000317c
       30875000	      3086	00000000	00000013	addi	x0,x0,0	  x0:0x00000000
       30885000	      3087	800031a4	00000013	addi	x0,x0,0	  x0:0x00000000
       30895000	      3088	800031a8	008000ef	jal	x1,800031a8	  x1=0x800031a8
       30905000	      3089	00000000	00000013	addi	x0,x0,0	  x0:0x00000000
       30915000	      3090	800031ac	00000013	addi	x0,x0,0	  x0:0x00000000
       30925000	      3091	800031b0	fd9ff0ef	jal	x1,800031b0	  x1=0x800031b0
       30935000	      3092	00000000	00000013	addi	x0,x0,0	  x0:0x00000000
       30945000	      3093	80003184	00000013	addi	x0,x0,0	  x0:0x00000000
       30955000	      3094	80003188	0240036f	jal	x6,80003188	  x6=0x80003188
       30965000	      3095	00000000	00000013	addi	x0,x0,0	  x0:0x00000000
       30975000	      3096	800031a8	00000013	addi	x0,x0,0	  x0:0x00000000
       30985000	      3097	800031ac	fbdff0ef	jal	x1,800031ac	  x1=0x800031ac
       30995000	      3098	00000000	00000013	addi	x0,x0,0	  x0:0x00000000
       31005000	      3099	80003164	00000013	addi	x0,x0,0	  x0:0x00000000
       31015000	      3100	80003168	0100066f	jal	x12,80003168	 x12=0x80003168
       31025000	      3101	00000000	00000013	addi	x0,x0,0	  x0:0x00000000
       31035000	      3102	80003174	00000013	addi	x0,x0,0	  x0:0x00000000
       31045000	      3103	80003178	014000ef	jal	x1,80003178	  x1=0x80003178
       31055000	      3104	00000000	00000013	addi	x0,x0,0	  x0:0x00000000
       31065000	      3105	80003188	00000013	addi	x0,x0,0	  x0:0x00000000
       31075000	      3106	8000318c	ff5ffc6f	jal	x24,8000318c	 x24=0x8000318c
       31085000	      3107	00000000	00000013	addi	x0,x0,0	  x0:0x00000000
       31095000	      3108	8000317c	00000013	addi	x0,x0,0	  x0:0x00000000
       31105000	      3109	80003180	00400b6f	jal	x22,80003180	 x22=0x80003180
       31115000	      3110	00000000	00000013	addi	x0,x0,0	  x0:0x00000000
       31125000	      3111	80003180	00000013	addi	x0,x0,0	  x0:0x00000000
       31135000	      3112	80003184	00c00cef	jal	x25,80003184	 x25=0x80003184
       31145000	      3113	00000000	00000013	addi	x0,x0,0	  x0:0x00000000
       31155000	      3114	8000318c	00000013	addi	x0,x0,0	  x0:0x00000000
       31165000	      3115	80003190	028000ef	jal	x1,80003190	  x1=0x80003190
       31175000	      3116	00000000	00000013	addi	x0,x0,0	  x0:0x00000000
       31185000	      3117	800031b4	00000013	addi	x0,x0,0	  x0:0x00000000
       31195000	      3118	800031b8	fe5ff6ef	jal	x13,800031b8	 x13=0x800031b8
       31205000	      3119	00000000	00000013	addi	x0,x0,0	  x0:0x00000000
       31215000	      3120	80003198	00000013	addi	x0,x0,0	  x0:0x00000000
       31225000	      3121	8000319c	0240046f	jal	x8,8000319c	  x8=0x8000319c
       31235000	      3122	00000000	00000013	addi	x0,x0,0	  x0:0x00000000
       31245000	      3123	800031bc	00000013	addi	x0,x0,0	  x0:0x00000000
       31255000	      3124	800031c0	7d06a293	slti	x5,x13,2000	 x13:0x800031b8  x5=0x00000001
       31265000	      3125	800031c4	00c0036f	jal	x6,800031c4	  x6=0x800031c4
       31275000	      3126	00000000	00000013	addi	x0,x0,0	  x0:0x00000000
       31285000	      3127	800031cc	00000013	addi	x0,x0,0	  x0:0x00000000
       31295000	      3128	800031d0	03c0016f	jal	x2,800031d0	  x2=0x800031d0
       31305000	      3129	00000000	00000013	addi	x0,x0,0	  x0:0x00000000
       31315000	      3130	80003208	00000013	addi	x0,x0,0	  x0:0x00000000
       31325000	      3131	8000320c	fbdff36f	jal	x6,8000320c	  x6=0x8000320c
       31335000	      3132	00000000	00000013	addi	x0,x0,0	  x0:0x00000000
       31345000	      3133	800031c4	00000013	addi	x0,x0,0	  x0:0x00000000
       31355000	      3134	800031c8	00c0036f	jal	x6,800031c8	  x6=0x800031c8
       31365000	      3135	00000000	00000013	addi	x0,x0,0	  x0:0x00000000
       31375000	      3136	800031d0	00000013	addi	x0,x0,0	  x0:0x00000000
       31385000	      3137	800031d4	010001ef	jal	x3,800031d4	  x3=0x800031d4
       31395000	      3138	00000000	00000013	addi	x0,x0,0	  x0:0x00000000
       31405000	      3139	800031e0	00000013	addi	x0,x0,0	  x0:0x00000000
       31415000	      3140	800031e4	0040036f	jal	x6,800031e4	  x6=0x800031e4
       31425000	      3141	00000000	00000013	addi	x0,x0,0	  x0:0x00000000
       31435000	      3142	800031e4	00000013	addi	x0,x0,0	  x0:0x00000000
       31445000	      3143	800031e8	0140036f	jal	x6,800031e8	  x6=0x800031e8
       31455000	      3144	00000000	00000013	addi	x0,x0,0	  x0:0x00000000
       31465000	      3145	800031f8	00000013	addi	x0,x0,0	  x0:0x00000000
       31475000	      3146	800031fc	ff1ff0ef	jal	x1,800031fc	  x1=0x800031fc
       31485000	      3147	00000000	00000013	addi	x0,x0,0	  x0:0x00000000
       31495000	      3148	800031e8	00000013	addi	x0,x0,0	  x0:0x00000000
       31505000	      3149	800031ec	0080066f	jal	x12,800031ec	 x12=0x800031ec
       31515000	      3150	00000000	00000013	addi	x0,x0,0	  x0:0x00000000
       31525000	      3151	800031f0	00000013	addi	x0,x0,0	  x0:0x00000000
       31535000	      3152	800031f4	00c000ef	jal	x1,800031f4	  x1=0x800031f4
       31545000	      3153	00000000	00000013	addi	x0,x0,0	  x0:0x00000000
       31555000	      3154	800031fc	00000013	addi	x0,x0,0	  x0:0x00000000
       31565000	      3155	80003200	ff1ff9ef	jal	x19,80003200	 x19=0x80003200
       31575000	      3156	00000000	00000013	addi	x0,x0,0	  x0:0x00000000
       31585000	      3157	800031ec	00000013	addi	x0,x0,0	  x0:0x00000000
       31595000	      3158	800031f0	0080046f	jal	x8,800031f0	  x8=0x800031f0
       31605000	      3159	00000000	00000013	addi	x0,x0,0	  x0:0x00000000
       31615000	      3160	800031f4	00000013	addi	x0,x0,0	  x0:0x00000000
       31625000	      3161	800031f8	fd5ff0ef	jal	x1,800031f8	  x1=0x800031f8
       31635000	      3162	00000000	00000013	addi	x0,x0,0	  x0:0x00000000
       31645000	      3163	800031c8	00000013	addi	x0,x0,0	  x0:0x00000000
       31655000	      3164	800031cc	00c002ef	jal	x5,800031cc	  x5=0x800031cc
       31665000	      3165	00000000	00000013	addi	x0,x0,0	  x0:0x00000000
       31675000	      3166	800031d4	00000013	addi	x0,x0,0	  x0:0x00000000
       31685000	      3167	800031d8	03000cef	jal	x25,800031d8	 x25=0x800031d8
       31695000	      3168	00000000	00000013	addi	x0,x0,0	  x0:0x00000000
       31705000	      3169	80003204	00000013	addi	x0,x0,0	  x0:0x00000000
       31715000	      3170	80003208	fd5ff0ef	jal	x1,80003208	  x1=0x80003208
       31725000	      3171	00000000	00000013	addi	x0,x0,0	  x0:0x00000000
       31735000	      3172	800031d8	00000013	addi	x0,x0,0	  x0:0x00000000
       31745000	      3173	800031dc	0280076f	jal	x14,800031dc	 x14=0x800031dc
       31755000	      3174	00000000	00000013	addi	x0,x0,0	  x0:0x00000000
       31765000	      3175	80003200	00000013	addi	x0,x0,0	  x0:0x00000000
       31775000	      3176	80003204	fddff0ef	jal	x1,80003204	  x1=0x80003204
       31785000	      3177	00000000	00000013	addi	x0,x0,0	  x0:0x00000000
       31795000	      3178	800031dc	00000013	addi	x0,x0,0	  x0:0x00000000
       31805000	      3179	800031e0	03000cef	jal	x25,800031e0	 x25=0x800031e0
       31815000	      3180	00000000	00000013	addi	x0,x0,0	  x0:0x00000000
       31825000	      3181	8000320c	00000013	addi	x0,x0,0	  x0:0x00000000
       31835000	      3182	80003210	016da233	slt	x4,x27,x22	 x27:0x3556d68e x22:0x80003180  x4=0x00000000
       31845000	      3183	80003214	0180036f	jal	x6,80003214	  x6=0x80003214
       31855000	      3184	00000000	00000013	addi	x0,x0,0	  x0:0x00000000
       31865000	      3185	80003228	00000013	addi	x0,x0,0	  x0:0x00000000
       31875000	      3186	8000322c	fedff36f	jal	x6,8000322c	  x6=0x8000322c
       31885000	      3187	00000000	00000013	addi	x0,x0,0	  x0:0x00000000
       31895000	      3188	80003214	00000013	addi	x0,x0,0	  x0:0x00000000
       31905000	      3189	80003218	034000ef	jal	x1,80003218	  x1=0x80003218
       31915000	      3190	00000000	00000013	addi	x0,x0,0	  x0:0x00000000
       31925000	      3191	80003248	00000013	addi	x0,x0,0	  x0:0x00000000
       31935000	      3192	8000324c	00c000ef	jal	x1,8000324c	  x1=0x8000324c
       31945000	      3193	00000000	00000013	addi	x0,x0,0	  x0:0x00000000
       31955000	      3194	80003254	00000013	addi	x0,x0,0	  x0:0x00000000
       31965000	      3195	80003258	ff9ff96f	jal	x18,80003258	 x18=0x80003258
       31975000	      3196	00000000	00000013	addi	x0,x0,0	  x0:0x00000000
       31985000	      3197	8000324c	00000013	addi	x0,x0,0	  x0:0x00000000
       31995000	      3198	80003250	ff9ff36f	jal	x6,80003250	  x6=0x80003250
       32005000	      3199	00000000	00000013	addi	x0,x0,0	  x0:0x00000000
       32015000	      3200	80003244	00000013	addi	x0,x0,0	  x0:0x00000000
       32025000	      3201	80003248	ff9ff0ef	jal	x1,80003248	  x1=0x80003248
       32035000	      3202	00000000	00000013	addi	x0,x0,0	  x0:0x00000000
       32045000	      3203	8000323c	00000013	addi	x0,x0,0	  x0:0x00000000
       32055000	      3204	80003240	fe1ff0ef	jal	x1,80003240	  x1=0x80003240
       32065000	      3205	00000000	00000013	addi	x0,x0,0	  x0:0x00000000
       32075000	      3206	8000321c	00000013	addi	x0,x0,0	  x0:0x00000000
       32085000	      3207	80003220	05000bef	jal	x23,80003220	 x23=0x80003220
       32095000	      3208	00000000	00000013	addi	x0,x0,0	  x0:0x00000000
       32105000	      3209	8000326c	00000013	addi	x0,x0,0	  x0:0x00000000
       32115000	      3210	80003270	fedff0ef	jal	x1,80003270	  x1=0x80003270
       32125000	      3211	00000000	00000013	addi	x0,x0,0	  x0:0x00000000
       32135000	      3212	80003258	00000013	addi	x0,x0,0	  x0:0x00000000
       32145000	      3213	8000325c	fe9ffc6f	jal	x24,8000325c	 x24=0x8000325c
       32155000	      3214	00000000	00000013	addi	x0,x0,0	  x0:0x00000000
       32165000	      3215	80003240	00000013	addi	x0,x0,0	  x0:0x00000000
       32175000	      3216	80003244	fe5ff0ef	jal	x1,80003244	  x1=0x80003244
       32185000	      3217	00000000	00000013	addi	x0,x0,0	  x0:0x00000000
       32195000	      3218	80003224	00000013	addi	x0,x0,0	  x0:0x00000000
       32205000	      3219	80003228	04000aef	jal	x21,80003228	 x21=0x80003228
       32215000	      3220	00000000	00000013	addi	x0,x0,0	  x0:0x00000000
       32225000	      3221	80003264	00000013	addi	x0,x0,0	  x0:0x00000000
       32235000	      3222	80003268	ff9ffa6f	jal	x20,80003268	 x20=0x80003268
       32245000	      3223	00000000	00000013	addi	x0,x0,0	  x0:0x00000000
       32255000	      3224	8000325c	00000013	addi	x0,x0,0	  x0:0x00000000
       32265000	      3225	80003260	fddff0ef	jal	x1,80003260	  x1=0x80003260
       32275000	      3226	00000000	00000013	addi	x0,x0,0	  x0:0x00000000
       32285000	      3227	80003238	00000013	addi	x0,x0,0	  x0:0x00000000
       32295000	      3228	8000323c	fe1ff1ef	jal	x3,8000323c	  x3=0x8000323c
       32305000	      3229	00000000	00000013	addi	x0,x0,0	  x0:0x00000000
       32315000	      3230	80003218	00000013	addi	x0,x0,0	  x0:0x00000000
       32325000	      3231	8000321c	01c000ef	jal	x1,8000321c	  x1=0x8000321c
       32335000	      3232	00000000	00000013	addi	x0,x0,0	  x0:0x00000000
       32345000	      3233	80003234	00000013	addi	x0,x0,0	  x0:0x00000000
       32355000	      3234	80003238	01c000ef	jal	x1,80003238	  x1=0x80003238
       32365000	      3235	00000000	00000013	addi	x0,x0,0	  x0:0x00000000
       32375000	      3236	80003250	00000013	addi	x0,x0,0	  x0:0x00000000
       32385000	      3237	80003254	fddff0ef	jal	x1,80003254	  x1=0x80003254
       32395000	      3238	00000000	00000013	addi	x0,x0,0	  x0:0x00000000
       32405000	      3239	8000322c	00000013	addi	x0,x0,0	  x0:0x00000000
       32415000	      3240	80003230	03c000ef	jal	x1,80003230	  x1=0x80003230
       32425000	      3241	00000000	00000013	addi	x0,x0,0	  x0:0x00000000
       32435000	      3242	80003268	00000013	addi	x0,x0,0	  x0:0x00000000
       32445000	      3243	8000326c	ff9ffa6f	jal	x20,8000326c	 x20=0x8000326c
       32455000	      3244	00000000	00000013	addi	x0,x0,0	  x0:0x00000000
       32465000	      3245	80003260	00000013	addi	x0,x0,0	  x0:0x00000000
       32475000	      3246	80003264	fd1ff56f	jal	x10,80003264	 x10=0x80003264
       32485000	      3247	00000000	00000013	addi	x0,x0,0	  x0:0x00000000
       32495000	      3248	80003230	00000013	addi	x0,x0,0	  x0:0x00000000
       32505000	      3249	80003234	ff1ff4ef	jal	x9,80003234	  x9=0x80003234
       32515000	      3250	00000000	00000013	addi	x0,x0,0	  x0:0x00000000
       32525000	      3251	80003220	00000013	addi	x0,x0,0	  x0:0x00000000
       32535000	      3252	80003224	050000ef	jal	x1,80003224	  x1=0x80003224
       32545000	      3253	00000000	00000013	addi	x0,x0,0	  x0:0x00000000
       32555000	      3254	80003270	00000013	addi	x0,x0,0	  x0:0x00000000
       32565000	      3255	80003274	41395a93	srai	x21,x18,0x13	 x18:0x80003258 x21=0xfffff000
       32575000	      3256	80003278	01c0036f	jal	x6,80003278	  x6=0x80003278
       32585000	      3257	00000000	00000013	addi	x0,x0,0	  x0:0x00000000
       32595000	      3258	80003290	00000013	addi	x0,x0,0	  x0:0x00000000
       32605000	      3259	80003294	ff9ff86f	jal	x16,80003294	 x16=0x80003294
       32615000	      3260	00000000	00000013	addi	x0,x0,0	  x0:0x00000000
       32625000	      3261	80003288	00000013	addi	x0,x0,0	  x0:0x00000000
       32635000	      3262	8000328c	050000ef	jal	x1,8000328c	  x1=0x8000328c
       32645000	      3263	00000000	00000013	addi	x0,x0,0	  x0:0x00000000
       32655000	      3264	800032d8	00000013	addi	x0,x0,0	  x0:0x00000000
       32665000	      3265	800032dc	fb5ff16f	jal	x2,800032dc	  x2=0x800032dc
       32675000	      3266	00000000	00000013	addi	x0,x0,0	  x0:0x00000000
       32685000	      3267	8000328c	00000013	addi	x0,x0,0	  x0:0x00000000
       32695000	      3268	80003290	030006ef	jal	x13,80003290	 x13=0x80003290
       32705000	      3269	00000000	00000013	addi	x0,x0,0	  x0:0x00000000
       32715000	      3270	800032bc	00000013	addi	x0,x0,0	  x0:0x00000000
       32725000	      3271	800032c0	00c005ef	jal	x11,800032c0	 x11=0x800032c0
       32735000	      3272	00000000	00000013	addi	x0,x0,0	  x0:0x00000000
       32745000	      3273	800032c8	00000013	addi	x0,x0,0	  x0:0x00000000
       32755000	      3274	800032cc	ff9ffe6f	jal	x28,800032cc	 x28=0x800032cc
       32765000	      3275	00000000	00000013	addi	x0,x0,0	  x0:0x00000000
       32775000	      3276	800032c0	00000013	addi	x0,x0,0	  x0:0x00000000
       32785000	      3277	800032c4	00c000ef	jal	x1,800032c4	  x1=0x800032c4
       32795000	      3278	00000000	00000013	addi	x0,x0,0	  x0:0x00000000
       32805000	      3279	800032cc	00000013	addi	x0,x0,0	  x0:0x00000000
       32815000	      3280	800032d0	fe1ff0ef	jal	x1,800032d0	  x1=0x800032d0
       32825000	      3281	00000000	00000013	addi	x0,x0,0	  x0:0x00000000
       32835000	      3282	800032ac	00000013	addi	x0,x0,0	  x0:0x00000000
       32845000	      3283	800032b0	ff5ff36f	jal	x6,800032b0	  x6=0x800032b0
       32855000	      3284	00000000	00000013	addi	x0,x0,0	  x0:0x00000000
       32865000	      3285	800032a0	00000013	addi	x0,x0,0	  x0:0x00000000
       32875000	      3286	800032a4	ff9ffeef	jal	x29,800032a4	 x29=0x800032a4
       32885000	      3287	00000000	00000013	addi	x0,x0,0	  x0:0x00000000
       32895000	      3288	80003298	00000013	addi	x0,x0,0	  x0:0x00000000
       32905000	      3289	8000329c	fe5ff76f	jal	x14,8000329c	 x14=0x8000329c
       32915000	      3290	00000000	00000013	addi	x0,x0,0	  x0:0x00000000
       32925000	      3291	8000327c	00000013	addi	x0,x0,0	  x0:0x00000000
       32935000	      3292	80003280	0340016f	jal	x2,80003280	  x2=0x80003280
       32945000	      3293	00000000	00000013	addi	x0,x0,0	  x0:0x00000000
       32955000	      3294	800032b0	00000013	addi	x0,x0,0	  x0:0x00000000
       32965000	      3295	800032b4	ff5ff0ef	jal	x1,800032b4	  x1=0x800032b4
       32975000	      3296	00000000	00000013	addi	x0,x0,0	  x0:0x00000000
       32985000	      3297	800032a4	00000013	addi	x0,x0,0	  x0:0x00000000
       32995000	      3298	800032a8	004000ef	jal	x1,800032a8	  x1=0x800032a8
       33005000	      3299	00000000	00000013	addi	x0,x0,0	  x0:0x00000000
       33015000	      3300	800032a8	00000013	addi	x0,x0,0	  x0:0x00000000
       33025000	      3301	800032ac	ff5ffc6f	jal	x24,800032ac	 x24=0x800032ac
       33035000	      3302	00000000	00000013	addi	x0,x0,0	  x0:0x00000000
       33045000	      3303	8000329c	00000013	addi	x0,x0,0	  x0:0x00000000
       33055000	      3304	800032a0	0380036f	jal	x6,800032a0	  x6=0x800032a0
       33065000	      3305	00000000	00000013	addi	x0,x0,0	  x0:0x00000000
       33075000	      3306	800032d4	00000013	addi	x0,x0,0	  x0:0x00000000
       33085000	      3307	800032d8	fc1fff6f	jal	x30,800032d8	 x30=0x800032d8
       33095000	      3308	00000000	00000013	addi	x0,x0,0	  x0:0x00000000
       33105000	      3309	80003294	00000013	addi	x0,x0,0	  x0:0x00000000
       33115000	      3310	80003298	fedff0ef	jal	x1,80003298	  x1=0x80003298
       33125000	      3311	00000000	00000013	addi	x0,x0,0	  x0:0x00000000
       33135000	      3312	80003280	00000013	addi	x0,x0,0	  x0:0x00000000
       33145000	      3313	80003284	038000ef	jal	x1,80003284	  x1=0x80003284
       33155000	      3314	00000000	00000013	addi	x0,x0,0	  x0:0x00000000
       33165000	      3315	800032b8	00000013	addi	x0,x0,0	  x0:0x00000000
       33175000	      3316	800032bc	018003ef	jal	x7,800032bc	  x7=0x800032bc
       33185000	      3317	00000000	00000013	addi	x0,x0,0	  x0:0x00000000
       33195000	      3318	800032d0	00000013	addi	x0,x0,0	  x0:0x00000000
       33205000	      3319	800032d4	fb5ffeef	jal	x29,800032d4	 x29=0x800032d4
       33215000	      3320	00000000	00000013	addi	x0,x0,0	  x0:0x00000000
       33225000	      3321	80003284	00000013	addi	x0,x0,0	  x0:0x00000000
       33235000	      3322	80003288	0300076f	jal	x14,80003288	 x14=0x80003288
       33245000	      3323	00000000	00000013	addi	x0,x0,0	  x0:0x00000000
       33255000	      3324	800032b4	00000013	addi	x0,x0,0	  x0:0x00000000
       33265000	      3325	800032b8	fc5ff2ef	jal	x5,800032b8	  x5=0x800032b8
       33275000	      3326	00000000	00000013	addi	x0,x0,0	  x0:0x00000000
       33285000	      3327	80003278	00000013	addi	x0,x0,0	  x0:0x00000000
       33295000	      3328	8000327c	04c000ef	jal	x1,8000327c	  x1=0x8000327c
       33305000	      3329	00000000	00000013	addi	x0,x0,0	  x0:0x00000000
       33315000	      3330	800032c4	00000013	addi	x0,x0,0	  x0:0x00000000
       33325000	      3331	800032c8	0180026f	jal	x4,800032c8	  x4=0x800032c8
       33335000	      3332	00000000	00000013	addi	x0,x0,0	  x0:0x00000000
       33345000	      3333	800032dc	00000013	addi	x0,x0,0	  x0:0x00000000
       33355000	      3334	800032e0	85f67013	andi	x0,x12,-1953	 x12:0x800031ec
       33365000	      3335	800032e4	0380036f	jal	x6,800032e4	  x6=0x800032e4
       33375000	      3336	00000000	00000013	addi	x0,x0,0	  x0:0x00000000
       33385000	      3337	80003318	00000013	addi	x0,x0,0	  x0:0x00000000
       33395000	      3338	8000331c	fcdff16f	jal	x2,8000331c	  x2=0x8000331c
       33405000	      3339	00000000	00000013	addi	x0,x0,0	  x0:0x00000000
       33415000	      3340	800032e4	00000013	addi	x0,x0,0	  x0:0x00000000
       33425000	      3341	800032e8	0080016f	jal	x2,800032e8	  x2=0x800032e8
       33435000	      3342	00000000	00000013	addi	x0,x0,0	  x0:0x00000000
       33445000	      3343	800032ec	00000013	addi	x0,x0,0	  x0:0x00000000
       33455000	      3344	800032f0	0080046f	jal	x8,800032f0	  x8=0x800032f0
       33465000	      3345	00000000	00000013	addi	x0,x0,0	  x0:0x00000000
       33475000	      3346	800032f4	00000013	addi	x0,x0,0	  x0:0x00000000
       33485000	      3347	800032f8	0080056f	jal	x10,800032f8	 x10=0x800032f8
       33495000	      3348	00000000	00000013	addi	x0,x0,0	  x0:0x00000000
       33505000	      3349	800032fc	00000013	addi	x0,x0,0	  x0:0x00000000
       33515000	      3350	80003300	048000ef	jal	x1,80003300	  x1=0x80003300
       33525000	      3351	00000000	00000013	addi	x0,x0,0	  x0:0x00000000
       33535000	      3352	80003344	00000013	addi	x0,x0,0	  x0:0x00000000
       33545000	      3353	80003348	fadff26f	jal	x4,80003348	  x4=0x80003348
       33555000	      3354	00000000	00000013	addi	x0,x0,0	  x0:0x00000000
       33565000	      3355	800032f0	00000013	addi	x0,x0,0	  x0:0x00000000
       33575000	      3356	800032f4	02c000ef	jal	x1,800032f4	  x1=0x800032f4
       33585000	      3357	00000000	00000013	addi	x0,x0,0	  x0:0x00000000
       33595000	      3358	8000331c	00000013	addi	x0,x0,0	  x0:0x00000000
       33605000	      3359	80003320	014000ef	jal	x1,80003320	  x1=0x80003320
       33615000	      3360	00000000	00000013	addi	x0,x0,0	  x0:0x00000000
       33625000	      3361	80003330	00000013	addi	x0,x0,0	  x0:0x00000000
       33635000	      3362	80003334	fddff36f	jal	x6,80003334	  x6=0x80003334
       33645000	      3363	00000000	00000013	addi	x0,x0,0	  x0:0x00000000
       33655000	      3364	8000330c	00000013	addi	x0,x0,0	  x0:0x00000000
       33665000	      3365	80003310	ff5ff66f	jal	x12,80003310	 x12=0x80003310
       33675000	      3366	00000000	00000013	addi	x0,x0,0	  x0:0x00000000
       33685000	      3367	80003300	00000013	addi	x0,x0,0	  x0:0x00000000
       33695000	      3368	80003304	0280036f	jal	x6,80003304	  x6=0x80003304
       33705000	      3369	00000000	00000013	addi	x0,x0,0	  x0:0x00000000
       33715000	      3370	80003328	00000013	addi	x0,x0,0	  x0:0x00000000
       33725000	      3371	8000332c	010000ef	jal	x1,8000332c	  x1=0x8000332c
       33735000	      3372	00000000	00000013	addi	x0,x0,0	  x0:0x00000000
       33745000	      3373	80003338	00000013	addi	x0,x0,0	  x0:0x00000000
       33755000	      3374	8000333c	ffdff56f	jal	x10,8000333c	 x10=0x8000333c
       33765000	      3375	00000000	00000013	addi	x0,x0,0	  x0:0x00000000
       33775000	      3376	80003334	00000013	addi	x0,x0,0	  x0:0x00000000
       33785000	      3377	80003338	fd1ff0ef	jal	x1,80003338	  x1=0x80003338
       33795000	      3378	00000000	00000013	addi	x0,x0,0	  x0:0x00000000
       33805000	      3379	80003304	00000013	addi	x0,x0,0	  x0:0x00000000
       33815000	      3380	80003308	ff5ff0ef	jal	x1,80003308	  x1=0x80003308
       33825000	      3381	00000000	00000013	addi	x0,x0,0	  x0:0x00000000
       33835000	      3382	800032f8	00000013	addi	x0,x0,0	  x0:0x00000000
       33845000	      3383	800032fc	034002ef	jal	x5,800032fc	  x5=0x800032fc
       33855000	      3384	00000000	00000013	addi	x0,x0,0	  x0:0x00000000
       33865000	      3385	8000332c	00000013	addi	x0,x0,0	  x0:0x00000000
       33875000	      3386	80003330	0140036f	jal	x6,80003330	  x6=0x80003330
       33885000	      3387	00000000	00000013	addi	x0,x0,0	  x0:0x00000000
       33895000	      3388	80003340	00000013	addi	x0,x0,0	  x0:0x00000000
       33905000	      3389	80003344	fc9ff16f	jal	x2,80003344	  x2=0x80003344
       33915000	      3390	00000000	00000013	addi	x0,x0,0	  x0:0x00000000
       33925000	      3391	80003308	00000013	addi	x0,x0,0	  x0:0x00000000
       33935000	      3392	8000330c	00c000ef	jal	x1,8000330c	  x1=0x8000330c
       33945000	      3393	00000000	00000013	addi	x0,x0,0	  x0:0x00000000
       33955000	      3394	80003314	00000013	addi	x0,x0,0	  x0:0x00000000
       33965000	      3395	80003318	00c000ef	jal	x1,80003318	  x1=0x80003318
       33975000	      3396	00000000	00000013	addi	x0,x0,0	  x0:0x00000000
       33985000	      3397	80003320	00000013	addi	x0,x0,0	  x0:0x00000000
       33995000	      3398	80003324	01c000ef	jal	x1,80003324	  x1=0x80003324
       34005000	      3399	00000000	00000013	addi	x0,x0,0	  x0:0x00000000
       34015000	      3400	8000333c	00000013	addi	x0,x0,0	  x0:0x00000000
       34025000	      3401	80003340	fe9ff0ef	jal	x1,80003340	  x1=0x80003340
       34035000	      3402	00000000	00000013	addi	x0,x0,0	  x0:0x00000000
       34045000	      3403	80003324	00000013	addi	x0,x0,0	  x0:0x00000000
       34055000	      3404	80003328	fedff1ef	jal	x3,80003328	  x3=0x80003328
       34065000	      3405	00000000	00000013	addi	x0,x0,0	  x0:0x00000000
       34075000	      3406	80003310	00000013	addi	x0,x0,0	  x0:0x00000000
       34085000	      3407	80003314	fd9ff36f	jal	x6,80003314	  x6=0x80003314
       34095000	      3408	00000000	00000013	addi	x0,x0,0	  x0:0x00000000
       34105000	      3409	800032e8	00000013	addi	x0,x0,0	  x0:0x00000000
       34115000	      3410	800032ec	0600026f	jal	x4,800032ec	  x4=0x800032ec
       34125000	      3411	00000000	00000013	addi	x0,x0,0	  x0:0x00000000
       34135000	      3412	80003348	00000013	addi	x0,x0,0	  x0:0x00000000
       34145000	      3413	8000334c	00000013	addi	x0,x0,0	  x0:0x00000000
       34155000	      3414	80003350	017d1493	slli	x9,x26,0x17	 x26:0x80009f5c  x9=0xae000000
       34165000	      3415	80003354	00c0a833	slt	x16,x1,x12	  x1:0x80003340 x12:0x80003310 x16=0x00000000
       34175000	      3416	80003358	01795f13	srli	x30,x18,0x17	 x18:0x80003258 x30=0x00000100
       34185000	      3417	8000335c	00861bb3	sll	x23,x12,x8	 x12:0x80003310  x8:0x800032f0 x23=0x33100000
       34195000	      3418	80003360	00000013	addi	x0,x0,0	  x0:0x00000000
       34205000	      3419	80003364	880d4c13	xori	x24,x26,-1920	 x26:0x80009f5c x24=0x7fff67dc
       34215000	      3420	80003368	00825493	srli	x9,x4,0x8	  x4:0x800032ec  x9=0x00800032
       34225000	      3421	8000336c	00fdb633	sltu	x12,x27,x15	 x27:0x3556d68e x15:0xf573b7aa x12=0x00000001
       34235000	      3422	80003370	41ee5693	srai	x13,x28,0x1e	 x28:0x800032cc x13=0xfffffffe
       34245000	      3423	80003374	01920c63	beq	x4,x25,8000338c	  x4:0x800032ec x25:0x800031e0
       34255000	      3424	80003378	00356633	or	x12,x10,x3	 x10:0x8000333c  x3:0x80003328 x12=0x8000333c
       34265000	      3425	8000337c	a4584113	xori	x2,x16,-1467	 x16:0x00000000  x2=0xfffffa45
       34275000	      3426	80003380	410b8c33	sub	x24,x23,x16	 x23:0x33100000 x16:0x00000000 x24=0x33100000
       34285000	      3427	80003384	7e8e4b13	xori	x22,x28,2024	 x28:0x800032cc x22=0x80003524
       34295000	      3428	80003388	408d01b3	sub	x3,x26,x8	 x26:0x80009f5c  x8:0x800032f0  x3=0x00006c6c
       34305000	      3429	8000338c	01b4b1b3	sltu	x3,x9,x27	  x9:0x00800032 x27:0x3556d68e  x3=0x00000001
       34315000	      3430	80003390	4043d413	srai	x8,x7,0x4	  x7:0x800032bc  x8=0xf800032b
       34325000	      3431	80003394	41f6dbb3	sra	x23,x13,x31	 x13:0xfffffffe x31:0x800030ec x23=0xffffffff
       34335000	      3432	80003398	84dc7c37	lui	x24,0x84dc7	 x24=0x84dc7000
       34345000	      3433	8000339c	01adc863	blt	x27,x26,800033ac	 x27:0x3556d68e x26:0x80009f5c
       34355000	      3434	800033a0	0534fb93	andi	x23,x9,83	  x9:0x00800032 x23=0x00000012
       34365000	      3435	800033a4	01929a63	bne	x5,x25,800033b8	  x5:0x800032fc x25:0x800031e0
       34375000	      3436	00000000	00000013	addi	x0,x0,0	  x0:0x00000000
       34385000	      3437	800033b4	00000013	addi	x0,x0,0	  x0:0x00000000
       34395000	      3438	800033b8	66d1f617	auipc	x12,0x66d1f	 x12=0xe6d223b4
       34405000	      3439	800033bc	00ea26b3	slt	x13,x20,x14	 x20:0x8000326c x14:0x80003288 x13=0x00000001
       34415000	      3440	800033c0	01405533	srl	x10,x0,x20	  x0:0x00000000 x20:0x8000326c x10=0x00000000
       34425000	      3441	800033c4	015503b3	add	x7,x10,x21	 x10:0x00000000 x21:0xfffff000  x7=0xfffff000
       34435000	      3442	800033c8	010f5a93	srli	x21,x30,0x10	 x30:0x00000100 x21=0x00000000
       34445000	      3443	800033cc	01a1cfb3	xor	x31,x3,x26	  x3:0x00000001 x26:0x80009f5c x31=0x80009f5d
       34455000	      3444	800033d0	73e8bf93	sltiu	x31,x17,1854	 x17:0x80009fc4 x31=0x00000000
       34465000	      3445	800033d4	01858933	add	x18,x11,x24	 x11:0x800032c0 x24:0x84dc7000 x18=0x04dca2c0
       34475000	      3446	800033d8	039a5863	bge	x20,x25,80003408	 x20:0x8000326c x25:0x800031e0
       34485000	      3447	00000000	00000013	addi	x0,x0,0	  x0:0x00000000
       34495000	      3448	80003404	00000013	addi	x0,x0,0	  x0:0x00000000
       34505000	      3449	80003408	00911413	slli	x8,x2,0x9	  x2:0xfffffa45  x8=0xfff48a00
       34515000	      3450	8000340c	400a06b3	sub	x13,x20,x0	 x20:0x8000326c  x0:0x00000000 x13=0x8000326c
       34525000	      3451	80003410	042f1063	bne	x30,x2,80003450	 x30:0x00000100  x2:0xfffffa45
       34535000	      3452	00000000	00000013	addi	x0,x0,0	  x0:0x00000000
       34545000	      3453	8000344c	00000013	addi	x0,x0,0	  x0:0x00000000
       34555000	      3454	80003450	0164de33	srl	x28,x9,x22	  x9:0x00800032 x22:0x80003524 x28=0x00080003
       34565000	      3455	80003454	c0f03f93	sltiu	x31,x0,-1009	  x0:0x00000000 x31=0x00000001
       34575000	      3456	80003458	73578393	addi	x7,x15,1845	 x15:0xf573b7aa  x7=0xf573bedf
       34585000	      3457	8000345c	00408a33	add	x20,x1,x4	  x1:0x80003340  x4:0x800032ec x20=0x0000662c
       34595000	      3458	80003460	002c4233	xor	x4,x24,x2	 x24:0x84dc7000  x2:0xfffffa45  x4=0x7b238a45
       34605000	      3459	80003464	00490433	add	x8,x18,x4	 x18:0x04dca2c0  x4:0x7b238a45  x8=0x80002d05
       34615000	      3460	80003468	dd50bf93	sltiu	x31,x1,-555	  x1:0x80003340 x31=0x00000001
       34625000	      3461	8000346c	00000013	addi	x0,x0,0	  x0:0x00000000
       34635000	      3462	80003470	73a27293	andi	x5,x4,1850	  x4:0x7b238a45  x5=0x00000200
       34645000	      3463	80003474	acb04193	xori	x3,x0,-1333	  x0:0x00000000  x3=0xfffffacb
       34655000	      3464	80003478	41655713	srai	x14,x10,0x16	 x10:0x00000000 x14=0x00000000
       34665000	      3465	8000347c	e8a93f13	sltiu	x30,x18,-374	 x18:0x04dca2c0 x30=0x00000001
       34675000	      3466	80003480	04b53193	sltiu	x3,x10,75	 x10:0x00000000  x3=0x00000001
       34685000	      3467	80003484	00000013	addi	x0,x0,0	  x0:0x00000000
       34695000	      3468	80003488	0163de93	srli	x29,x7,0x16	  x7:0xf573bedf x29=0x000003d5
       34705000	      3469	8000348c	00000013	addi	x0,x0,0	  x0:0x00000000
       34715000	      3470	80003490	01839993	slli	x19,x7,0x18	  x7:0xf573bedf x19=0xdf000000
       34725000	      3471	80003494	01c40f33	add	x30,x8,x28	  x8:0x80002d05 x28:0x00080003 x30=0x80082d08
       34735000	      3472	80003498	0a4d2a93	slti	x21,x26,164	 x26:0x80009f5c x21=0x00000001
       34745000	      3473	8000349c	00a6dc63	bge	x13,x10,800034b4	 x13:0x8000326c x10:0x00000000
       34755000	      3474	800034a0	0126eb33	or	x22,x13,x18	 x13:0x8000326c x18:0x04dca2c0 x22=0x84dcb2ec
       34765000	      3475	800034a4	0cc2f117	auipc	x2,0xcc2f	  x2=0x8cc324a0
       34775000	      3476	800034a8	00475093	srli	x1,x14,0x4	 x14:0x00000000  x1=0x00000000
       34785000	      3477	800034ac	00000013	addi	x0,x0,0	  x0:0x00000000
       34795000	      3478	800034b0	aabc0993	addi	x19,x24,-1365	 x24:0x84dc7000 x19=0x84dc6aab
       34805000	      3479	800034b4	ec1f7217	auipc	x4,0xec1f7	  x4=0x6c1fa4b0
       34815000	      3480	800034b8	00000013	addi	x0,x0,0	  x0:0x00000000
       34825000	      3481	800034bc	47a64193	xori	x3,x12,1146	 x12:0xe6d223b4  x3=0xe6d227ce
       34835000	      3482	800034c0	04c58263	beq	x11,x12,80003504	 x11:0x800032c0 x12:0xe6d223b4
       34845000	      3483	800034c4	40e25a13	srai	x20,x4,0xe	  x4:0x6c1fa4b0 x20=0x0001b07e
       34855000	      3484	800034c8	03c28863	beq	x5,x28,800034f8	  x5:0x00000200 x28:0x00080003
       34865000	      3485	800034cc	416c04b3	sub	x9,x24,x22	 x24:0x84dc7000 x22:0x84dcb2ec  x9=0xffffbd14
       34875000	      3486	800034d0	591cba13	sltiu	x20,x25,1425	 x25:0x800031e0 x20=0x00000000
       34885000	      3487	800034d4	01d13833	sltu	x16,x2,x29	  x2:0x8cc324a0 x29:0x000003d5 x16=0x00000000
       34895000	      3488	800034d8	01290e63	beq	x18,x18,800034f4	 x18:0x04dca2c0 x18:0x04dca2c0
       34905000	      3489	00000000	00000013	addi	x0,x0,0	  x0:0x00000000
       34915000	      3490	800034f0	00000013	addi	x0,x0,0	  x0:0x00000000
       34925000	      3491	800034f4	03b50463	beq	x10,x27,8000351c	 x10:0x00000000 x27:0x3556d68e
       34935000	      3492	800034f8	05dd9063	bne	x27,x29,80003538	 x27:0x3556d68e x29:0x000003d5
       34945000	      3493	00000000	00000013	addi	x0,x0,0	  x0:0x00000000
       34955000	      3494	80003534	00000013	addi	x0,x0,0	  x0:0x00000000
       34965000	      3495	80003538	02634063	blt	x6,x6,80003558	  x6:0x80003314  x6:0x80003314
       34975000	      3496	8000353c	b34bac13	slti	x24,x23,-1228	 x23:0x00000012 x24=0x00000000
       34985000	      3497	80003540	00525013	srli	x0,x4,0x5	  x4:0x6c1fa4b0
       34995000	      3498	80003544	40835f33	sra	x30,x6,x8	  x6:0x80003314  x8:0x80002d05 x30=0xfc000198
       35005000	      3499	80003548	c6508e13	addi	x28,x1,-923	  x1:0x00000000 x28=0xfffffc65
       35015000	      3500	8000354c	05e70263	beq	x14,x30,80003590	 x14:0x00000000 x30:0xfc000198
       35025000	      3501	80003550	003ec533	xor	x10,x29,x3	 x29:0x000003d5  x3:0xe6d227ce x10=0xe6d2241b
       35035000	      3502	80003554	8d18cf13	xori	x30,x17,-1839	 x17:0x80009fc4 x30=0x7fff6715
       35045000	      3503	80003558	0084bcb3	sltu	x25,x9,x8	  x9:0xffffbd14  x8:0x80002d05 x25=0x00000000
       35055000	      3504	8000355c	014b9463	bne	x23,x20,80003564	 x23:0x00000012 x20:0x00000000
       35065000	      3505	00000000	00000013	addi	x0,x0,0	  x0:0x00000000
       35075000	      3506	80003560	00000013	addi	x0,x0,0	  x0:0x00000000
       35085000	      3507	80003564	deb8e997	auipc	x19,0xdeb8e	 x19=0x5eb91560
       35095000	      3508	80003568	005f9193	slli	x3,x31,0x5	 x31:0x00000001  x3=0x00000020
       35105000	      3509	8000356c	03607063	bgeu	x0,x22,8000358c	  x0:0x00000000 x22:0x84dcb2ec
       35115000	      3510	80003570	784ff313	andi	x6,x31,1924	 x31:0x00000001  x6=0x00000000
       35125000	      3511	80003574	69371497	auipc	x9,0x69371	  x9=0xe9374570
       35135000	      3512	80003578	0162d013	srli	x0,x5,0x16	  x5:0x00000200
       35145000	      3513	8000357c	045d6463	bltu	x26,x5,800035c4	 x26:0x80009f5c  x5:0x00000200
       35155000	      3514	80003580	01660833	add	x16,x12,x22	 x12:0xe6d223b4 x22:0x84dcb2ec x16=0x6baed6a0
       35165000	      3515	80003584	993c2c13	slti	x24,x24,-1645	 x24:0x00000000 x24=0x00000000
       35175000	      3516	80003588	02ae5663	bge	x28,x10,800035b4	 x28:0xfffffc65 x10:0xe6d2241b
       35185000	      3517	00000000	00000013	addi	x0,x0,0	  x0:0x00000000
       35195000	      3518	800035b0	00000013	addi	x0,x0,0	  x0:0x00000000
       35205000	      3519	800035b4	01938ab3	add	x21,x7,x25	  x7:0xf573bedf x25:0x00000000 x21=0xf573bedf
       35215000	      3520	800035b8	09c56497	auipc	x9,0x9c56	  x9=0x89c595b4
       35225000	      3521	800035bc	001e01b3	add	x3,x28,x1	 x28:0xfffffc65  x1:0x00000000  x3=0xfffffc65
       35235000	      3522	800035c0	0050bcb3	sltu	x25,x1,x5	  x1:0x00000000  x5:0x00000200 x25=0x00000001
       35245000	      3523	800035c4	0a38f063	bgeu	x17,x3,80003664	 x17:0x80009fc4  x3:0xfffffc65
       35255000	      3524	800035c8	43b2c813	xori	x16,x5,1083	  x5:0x00000200 x16=0x0000063b
       35265000	      3525	800035cc	a2828113	addi	x2,x5,-1496	  x5:0x00000200  x2=0xfffffc28
       35275000	      3526	800035d0	00000013	addi	x0,x0,0	  x0:0x00000000
       35285000	      3527	800035d4	00c155b3	srl	x11,x2,x12	  x2:0xfffffc28 x12:0xe6d223b4 x11=0x00000fff
       35295000	      3528	800035d8	e4d44137	lui	x2,0xe4d44	  x2=0xe4d44000
       35305000	      3529	800035dc	00ca2033	slt	x0,x20,x12	 x20:0x00000000 x12:0xe6d223b4
       35315000	      3530	800035e0	00840033	add	x0,x8,x8	  x8:0x80002d05  x8:0x80002d05
       35325000	      3531	800035e4	00000013	addi	x0,x0,0	  x0:0x00000000
       35335000	      3532	800035e8	402e5f13	srai	x30,x28,0x2	 x28:0xfffffc65 x30=0xffffff19
       35345000	      3533	800035ec	09178e63	beq	x15,x17,80003688	 x15:0xf573b7aa x17:0x80009fc4
       35355000	      3534	800035f0	0240036f	jal	x6,800035f0	  x6=0x800035f0
       35365000	      3535	00000000	00000013	addi	x0,x0,0	  x0:0x00000000
       35375000	      3536	80003610	00000013	addi	x0,x0,0	  x0:0x00000000
       35385000	      3537	80003614	fe9ff66f	jal	x12,80003614	 x12=0x80003614
       35395000	      3538	00000000	00000013	addi	x0,x0,0	  x0:0x00000000
       35405000	      3539	800035f8	00000013	addi	x0,x0,0	  x0:0x00000000
       35415000	      3540	800035fc	04c000ef	jal	x1,800035fc	  x1=0x800035fc
       35425000	      3541	00000000	00000013	addi	x0,x0,0	  x0:0x00000000
       35435000	      3542	80003644	00000013	addi	x0,x0,0	  x0:0x00000000
       35445000	      3543	80003648	fc5ff0ef	jal	x1,80003648	  x1=0x80003648
       35455000	      3544	00000000	00000013	addi	x0,x0,0	  x0:0x00000000
       35465000	      3545	80003608	00000013	addi	x0,x0,0	  x0:0x00000000
       35475000	      3546	8000360c	0280036f	jal	x6,8000360c	  x6=0x8000360c
       35485000	      3547	00000000	00000013	addi	x0,x0,0	  x0:0x00000000
       35495000	      3548	80003630	00000013	addi	x0,x0,0	  x0:0x00000000
       35505000	      3549	80003634	0100026f	jal	x4,80003634	  x4=0x80003634
       35515000	      3550	00000000	00000013	addi	x0,x0,0	  x0:0x00000000
       35525000	      3551	80003640	00000013	addi	x0,x0,0	  x0:0x00000000
       35535000	      3552	80003644	ff9ff0ef	jal	x1,80003644	  x1=0x80003644
       35545000	      3553	00000000	00000013	addi	x0,x0,0	  x0:0x00000000
       35555000	      3554	80003638	00000013	addi	x0,x0,0	  x0:0x00000000
       35565000	      3555	8000363c	fedff36f	jal	x6,8000363c	  x6=0x8000363c
       35575000	      3556	00000000	00000013	addi	x0,x0,0	  x0:0x00000000
       35585000	      3557	80003624	00000013	addi	x0,x0,0	  x0:0x00000000
       35595000	      3558	80003628	fe9fffef	jal	x31,80003628	 x31=0x80003628
       35605000	      3559	00000000	00000013	addi	x0,x0,0	  x0:0x00000000
       35615000	      3560	8000360c	00000013	addi	x0,x0,0	  x0:0x00000000
       35625000	      3561	80003610	ff1ff96f	jal	x18,80003610	 x18=0x80003610
       35635000	      3562	00000000	00000013	addi	x0,x0,0	  x0:0x00000000
       35645000	      3563	800035fc	00000013	addi	x0,x0,0	  x0:0x00000000
       35655000	      3564	80003600	0300036f	jal	x6,80003600	  x6=0x80003600
       35665000	      3565	00000000	00000013	addi	x0,x0,0	  x0:0x00000000
       35675000	      3566	8000362c	00000013	addi	x0,x0,0	  x0:0x00000000
       35685000	      3567	80003630	fc5ff6ef	jal	x13,80003630	 x13=0x80003630
       35695000	      3568	00000000	00000013	addi	x0,x0,0	  x0:0x00000000
       35705000	      3569	800035f0	00000013	addi	x0,x0,0	  x0:0x00000000
       35715000	      3570	800035f4	030000ef	jal	x1,800035f4	  x1=0x800035f4
       35725000	      3571	00000000	00000013	addi	x0,x0,0	  x0:0x00000000
       35735000	      3572	80003620	00000013	addi	x0,x0,0	  x0:0x00000000
       35745000	      3573	80003624	fe1ff0ef	jal	x1,80003624	  x1=0x80003624
       35755000	      3574	00000000	00000013	addi	x0,x0,0	  x0:0x00000000
       35765000	      3575	80003600	00000013	addi	x0,x0,0	  x0:0x00000000
       35775000	      3576	80003604	014000ef	jal	x1,80003604	  x1=0x80003604
       35785000	      3577	00000000	00000013	addi	x0,x0,0	  x0:0x00000000
       35795000	      3578	80003614	00000013	addi	x0,x0,0	  x0:0x00000000
       35805000	      3579	80003618	020000ef	jal	x1,80003618	  x1=0x80003618
       35815000	      3580	00000000	00000013	addi	x0,x0,0	  x0:0x00000000
       35825000	      3581	80003634	00000013	addi	x0,x0,0	  x0:0x00000000
       35835000	      3582	80003638	fc1ff0ef	jal	x1,80003638	  x1=0x80003638
       35845000	      3583	00000000	00000013	addi	x0,x0,0	  x0:0x00000000
       35855000	      3584	800035f4	00000013	addi	x0,x0,0	  x0:0x00000000
       35865000	      3585	800035f8	01000def	jal	x27,800035f8	 x27=0x800035f8
       35875000	      3586	00000000	00000013	addi	x0,x0,0	  x0:0x00000000
       35885000	      3587	80003604	00000013	addi	x0,x0,0	  x0:0x00000000
       35895000	      3588	80003608	014000ef	jal	x1,80003608	  x1=0x80003608
       35905000	      3589	00000000	00000013	addi	x0,x0,0	  x0:0x00000000
       35915000	      3590	80003618	00000013	addi	x0,x0,0	  x0:0x00000000
       35925000	      3591	8000361c	004000ef	jal	x1,8000361c	  x1=0x8000361c
       35935000	      3592	00000000	00000013	addi	x0,x0,0	  x0:0x00000000
       35945000	      3593	8000361c	00000013	addi	x0,x0,0	  x0:0x00000000
       35955000	      3594	80003620	00c000ef	jal	x1,80003620	  x1=0x80003620
       35965000	      3595	00000000	00000013	addi	x0,x0,0	  x0:0x00000000
       35975000	      3596	80003628	00000013	addi	x0,x0,0	  x0:0x00000000
       35985000	      3597	8000362c	0140036f	jal	x6,8000362c	  x6=0x8000362c
       35995000	      3598	00000000	00000013	addi	x0,x0,0	  x0:0x00000000
       36005000	      3599	8000363c	00000013	addi	x0,x0,0	  x0:0x00000000
       36015000	      3600	80003640	00c003ef	jal	x7,80003640	  x7=0x80003640
       36025000	      3601	00000000	00000013	addi	x0,x0,0	  x0:0x00000000
       36035000	      3602	80003648	00000013	addi	x0,x0,0	  x0:0x00000000
       36045000	      3603	8000364c	01b42193	slti	x3,x8,27	  x8:0x80002d05  x3=0x00000001
       36055000	      3604	80003650	40588b33	sub	x22,x17,x5	 x17:0x80009fc4  x5:0x00000200 x22=0x80009dc4
       36065000	      3605	80003654	013a40b3	xor	x1,x20,x19	 x20:0x00000000 x19:0x5eb91560  x1=0x5eb91560
       36075000	      3606	80003658	41a35f33	sra	x30,x6,x26	  x6:0x8000362c x26:0x80009f5c x30=0xfffffff8
       36085000	      3607	8000365c	40140cb3	sub	x25,x8,x1	  x8:0x80002d05  x1:0x5eb91560 x25=0x214717a5
       36095000	      3608	80003660	00c61fb3	sll	x31,x12,x12	 x12:0x80003614 x12:0x80003614 x31=0x61400000
       36105000	      3609	80003664	01fbbeb3	sltu	x29,x23,x31	 x23:0x00000012 x31:0x61400000 x29=0x00000001
       36115000	      3610	80003668	00000013	addi	x0,x0,0	  x0:0x00000000
       36125000	      3611	8000366c	7404eb93	ori	x23,x9,1856	  x9:0x89c595b4 x23=0x89c597f4
       36135000	      3612	80003670	023e6063	bltu	x28,x3,80003690	 x28:0xfffffc65  x3:0x00000001
       36145000	      3613	80003674	00527733	and	x14,x4,x5	  x4:0x80003634  x5:0x00000200 x14=0x00000200
       36155000	      3614	80003678	85d8fbb7	lui	x23,0x85d8f	 x23=0x85d8f000
       36165000	      3615	8000367c	01fe4bb3	xor	x23,x28,x31	 x28:0xfffffc65 x31:0x61400000 x23=0x9ebffc65
       36175000	      3616	80003680	019df6b3	and	x13,x27,x25	 x27:0x800035f8 x25:0x214717a5 x13=0x000015a0
       36185000	      3617	80003684	016411b3	sll	x3,x8,x22	  x8:0x80002d05 x22:0x80009dc4  x3=0x0002d050
       36195000	      3618	80003688	437dce93	xori	x29,x27,1079	 x27:0x800035f8 x29=0x800031cf
       36205000	      3619	8000368c	012a6c33	or	x24,x20,x18	 x20:0x00000000 x18:0x80003610 x24=0x80003610
       36215000	      3620	80003690	012a1833	sll	x16,x20,x18	 x20:0x00000000 x18:0x80003610 x16=0x00000000
       36225000	      3621	80003694	b960eb93	ori	x23,x1,-1130	  x1:0x5eb91560 x23=0xfffffff6
       36235000	      3622	80003698	0190f533	and	x10,x1,x25	  x1:0x5eb91560 x25:0x214717a5 x10=0x00011520
       36245000	      3623	8000369c	009944b3	xor	x9,x18,x9	 x18:0x80003610  x9:0x89c595b4  x9=0x09c5a3a4
       36255000	      3624	800036a0	0219e863	bltu	x19,x1,800036d0	 x19:0x5eb91560  x1:0x5eb91560
       36265000	      3625	800036a4	407e89b3	sub	x19,x29,x7	 x29:0x800031cf  x7:0x80003640 x19=0xfffffb8f
       36275000	      3626	800036a8	0067dc13	srli	x24,x15,0x6	 x15:0xf573b7aa x24=0x03d5cede
       36285000	      3627	800036ac	00eb2833	slt	x16,x22,x14	 x22:0x80009dc4 x14:0x00000200 x16=0x00000001
       36295000	      3628	800036b0	01693b33	sltu	x22,x18,x22	 x18:0x80003610 x22:0x80009dc4 x22=0x00000001
       36305000	      3629	800036b4	01db9813	slli	x16,x23,0x1d	 x23:0xfffffff6 x16=0xc0000000
       36315000	      3630	800036b8	038ac063	blt	x21,x24,800036d8	 x21:0xf573bedf x24:0x03d5cede
       36325000	      3631	00000000	00000013	addi	x0,x0,0	  x0:0x00000000
       36335000	      3632	800036d4	00000013	addi	x0,x0,0	  x0:0x00000000
       36345000	      3633	800036d8	40c68433	sub	x8,x13,x12	 x13:0x000015a0 x12:0x80003614  x8=0x7fffdf8c
       36355000	      3634	800036dc	00000013	addi	x0,x0,0	  x0:0x00000000
       36365000	      3635	800036e0	76c68413	addi	x8,x13,1900	 x13:0x000015a0  x8=0x00001d0c
       36375000	      3636	800036e4	03306063	bltu	x0,x19,80003704	  x0:0x00000000 x19:0xfffffb8f
       36385000	      3637	00000000	00000013	addi	x0,x0,0	  x0:0x00000000
       36395000	      3638	80003700	00000013	addi	x0,x0,0	  x0:0x00000000
       36405000	      3639	80003704	00000013	addi	x0,x0,0	  x0:0x00000000
       36415000	      3640	80003708	0504d063	bge	x9,x16,80003748	  x9:0x09c5a3a4 x16:0xc0000000
       36425000	      3641	00000000	00000013	addi	x0,x0,0	  x0:0x00000000
       36435000	      3642	80003744	00000013	addi	x0,x0,0	  x0:0x00000000
       36445000	      3643	80003748	00000013	addi	x0,x0,0	  x0:0x00000000
       36455000	      3644	8000374c	00928bb3	add	x23,x5,x9	  x5:0x00000200  x9:0x09c5a3a4 x23=0x09c5a5a4
       36465000	      3645	80003750	23d34393	xori	x7,x6,573	  x6:0x8000362c  x7=0x80003411
       36475000	      3646	80003754	4101d313	srai	x6,x3,0x10	  x3:0x0002d050  x6=0x00000002
       36485000	      3647	80003758	0373e663	bltu	x7,x23,80003784	  x7:0x80003411 x23:0x09c5a5a4
       36495000	      3648	8000375c	0328fe63	bgeu	x17,x18,80003798	 x17:0x80009fc4 x18:0x80003610
       36505000	      3649	00000000	00000013	addi	x0,x0,0	  x0:0x00000000
       36515000	      3650	80003794	00000013	addi	x0,x0,0	  x0:0x00000000
       36525000	      3651	80003798	48faff13	andi	x30,x21,1167	 x21:0xf573bedf x30=0x0000048f
       36535000	      3652	8000379c	41e559b3	sra	x19,x10,x30	 x10:0x00011520 x30:0x0000048f x19=0x00000002
       36545000	      3653	800037a0	018a5c63	bge	x20,x24,800037b8	 x20:0x00000000 x24:0x03d5cede
       36555000	      3654	800037a4	005841b3	xor	x3,x16,x5	 x16:0xc0000000  x5:0x00000200  x3=0xc0000200
       36565000	      3655	800037a8	030ae063	bltu	x21,x16,800037c8	 x21:0xf573bedf x16:0xc0000000
       36575000	      3656	800037ac	05abc663	blt	x23,x26,800037f8	 x23:0x09c5a5a4 x26:0x80009f5c
       36585000	      3657	800037b0	b5c3f193	andi	x3,x7,-1188	  x7:0x80003411  x3=0x80003010
       36595000	      3658	800037b4	4f5a3413	sltiu	x8,x20,1269	 x20:0x00000000  x8=0x00000001
       36605000	      3659	800037b8	00489113	slli	x2,x17,0x4	 x17:0x80009fc4  x2=0x0009fc40
       36615000	      3660	800037bc	405f0533	sub	x10,x30,x5	 x30:0x0000048f  x5:0x00000200 x10=0x0000028f
       36625000	      3661	800037c0	c0b3ab13	slti	x22,x7,-1013	  x7:0x80003411 x22=0x00000001
       36635000	      3662	800037c4	00fa4e33	xor	x28,x20,x15	 x20:0x00000000 x15:0xf573b7aa x28=0xf573b7aa
       36645000	      3663	800037c8	da73f913	andi	x18,x7,-601	  x7:0x80003411 x18=0x80003401
       36655000	      3664	800037cc	43dd4713	xori	x14,x26,1085	 x26:0x80009f5c x14=0x80009b61
       36665000	      3665	800037d0	3c2ab917	auipc	x18,0x3c2ab	 x18=0xbc2ae7cc
       36675000	      3666	800037d4	00377233	and	x4,x14,x3	 x14:0x80009b61  x3:0x80003010  x4=0x80001000
       36685000	      3667	800037d8	eb3dbc13	sltiu	x24,x27,-333	 x27:0x800035f8 x24=0x00000001
       36695000	      3668	800037dc	03269463	bne	x13,x18,80003804	 x13:0x000015a0 x18:0xbc2ae7cc
       36705000	      3669	00000000	00000013	addi	x0,x0,0	  x0:0x00000000
       36715000	      3670	80003800	00000013	addi	x0,x0,0	  x0:0x00000000
       36725000	      3671	80003804	03ea9863	bne	x21,x30,80003834	 x21:0xf573bedf x30:0x0000048f
       36735000	      3672	00000000	00000013	addi	x0,x0,0	  x0:0x00000000
       36745000	      3673	80003830	00000013	addi	x0,x0,0	  x0:0x00000000
       36755000	      3674	80003834	009f7133	and	x2,x30,x9	 x30:0x0000048f  x9:0x09c5a3a4  x2=0x00000084
       36765000	      3675	80003838	011d53b3	srl	x7,x26,x17	 x26:0x80009f5c x17:0x80009fc4  x7=0x080009f5
       36775000	      3676	8000383c	2eac7313	andi	x6,x24,746	 x24:0x00000001  x6=0x00000000
       36785000	      3677	80003840	0169cfb3	xor	x31,x19,x22	 x19:0x00000002 x22:0x00000001 x31=0x00000003
       36795000	      3678	80003844	0506c263	blt	x13,x16,80003888	 x13:0x000015a0 x16:0xc0000000
       36805000	      3679	80003848	0116fab3	and	x21,x13,x17	 x13:0x000015a0 x17:0x80009fc4 x21=0x00001580
       36815000	      3680	8000384c	00000013	addi	x0,x0,0	  x0:0x00000000
       36825000	      3681	80003850	00c24eb3	xor	x29,x4,x12	  x4:0x80001000 x12:0x80003614 x29=0x00002614
       36835000	      3682	80003854	003085b3	add	x11,x1,x3	  x1:0x5eb91560  x3:0x80003010 x11=0xdeb94570
       36845000	      3683	80003858	00e5bfb3	sltu	x31,x11,x14	 x11:0xdeb94570 x14:0x80009b61 x31=0x00000000
       36855000	      3684	8000385c	012b5ab3	srl	x21,x22,x18	 x22:0x00000001 x18:0xbc2ae7cc x21=0x00000000
       36865000	      3685	80003860	00c92033	slt	x0,x18,x12	 x18:0xbc2ae7cc x12:0x80003614
       36875000	      3686	80003864	341f0e93	addi	x29,x30,833	 x30:0x0000048f x29=0x000007d0
       36885000	      3687	80003868	01e0c863	blt	x1,x30,80003878	  x1:0x5eb91560 x30:0x0000048f
       36895000	      3688	8000386c	6cdd8d93	addi	x27,x27,1741	 x27:0x800035f8 x27=0x80003cc5
       36905000	      3689	80003870	0020cf33	xor	x30,x1,x2	  x1:0x5eb91560  x2:0x00000084 x30=0x5eb915e4
       36915000	      3690	80003874	01d30c33	add	x24,x6,x29	  x6:0x00000000 x29:0x000007d0 x24=0x000007d0
       36925000	      3691	80003878	055bd663	bge	x23,x21,800038c4	 x23:0x09c5a5a4 x21:0x00000000
       36935000	      3692	00000000	00000013	addi	x0,x0,0	  x0:0x00000000
       36945000	      3693	800038c0	00000013	addi	x0,x0,0	  x0:0x00000000
       36955000	      3694	800038c4	b2018993	addi	x19,x3,-1248	  x3:0x80003010 x19=0x80002b30
       36965000	      3695	800038c8	01db09b3	add	x19,x22,x29	 x22:0x00000001 x29:0x000007d0 x19=0x000007d1
       36975000	      3696	800038cc	403fd513	srai	x10,x31,0x3	 x31:0x00000000 x10=0x00000000
       36985000	      3697	800038d0	00000013	addi	x0,x0,0	  x0:0x00000000
       36995000	      3698	800038d4	05255063	bge	x10,x18,80003914	 x10:0x00000000 x18:0xbc2ae7cc
       37005000	      3699	00000000	00000013	addi	x0,x0,0	  x0:0x00000000
       37015000	      3700	80003910	00000013	addi	x0,x0,0	  x0:0x00000000
       37025000	      3701	80003914	04597063	bgeu	x18,x5,80003954	 x18:0xbc2ae7cc  x5:0x00000200
       37035000	      3702	00000000	00000013	addi	x0,x0,0	  x0:0x00000000
       37045000	      3703	80003950	00000013	addi	x0,x0,0	  x0:0x00000000
       37055000	      3704	80003954	02b75863	bge	x14,x11,80003984	 x14:0x80009b61 x11:0xdeb94570
       37065000	      3705	80003958	00000013	addi	x0,x0,0	  x0:0x00000000
       37075000	      3706	8000395c	ffd1e593	ori	x11,x3,-3	  x3:0x80003010 x11=0xfffffffd
       37085000	      3707	80003960	050ad263	bge	x21,x16,800039a4	 x21:0x00000000 x16:0xc0000000
       37095000	      3708	00000000	00000013	addi	x0,x0,0	  x0:0x00000000
       37105000	      3709	800039a0	00000013	addi	x0,x0,0	  x0:0x00000000
       37115000	      3710	800039a4	a722f317	auipc	x6,0xa722f	  x6=0x272329a0
       37125000	      3711	800039a8	00bfd133	srl	x2,x31,x11	 x31:0x00000000 x11:0xfffffffd  x2=0x00000000
       37135000	      3712	800039ac	eba69d97	auipc	x27,0xeba69	 x27=0x6ba6c9a8
       37145000	      3713	800039b0	00000013	addi	x0,x0,0	  x0:0x00000000
       37155000	      3714	800039b4	010e9233	sll	x4,x29,x16	 x29:0x000007d0 x16:0xc0000000  x4=0x000007d0
       37165000	      3715	800039b8	04897663	bgeu	x18,x8,80003a04	 x18:0xbc2ae7cc  x8:0x00000001
       37175000	      3716	00000000	00000013	addi	x0,x0,0	  x0:0x00000000
       37185000	      3717	80003a00	00000013	addi	x0,x0,0	  x0:0x00000000
       37195000	      3718	80003a04	01316ab3	or	x21,x2,x19	  x2:0x00000000 x19:0x000007d1 x21=0x000007d1
       37205000	      3719	80003a08	01faf433	and	x8,x21,x31	 x21:0x000007d1 x31:0x00000000  x8=0x00000000
       37215000	      3720	80003a0c	01d0bbb3	sltu	x23,x1,x29	  x1:0x5eb91560 x29:0x000007d0 x23=0x00000000
       37225000	      3721	80003a10	0048b033	sltu	x0,x17,x4	 x17:0x80009fc4  x4:0x000007d0
       37235000	      3722	80003a14	5b254693	xori	x13,x10,1458	 x10:0x00000000 x13=0x000005b2
       37245000	      3723	80003a18	01997e63	bgeu	x18,x25,80003a34	 x18:0xbc2ae7cc x25:0x214717a5
       37255000	      3724	00000000	00000013	addi	x0,x0,0	  x0:0x00000000
       37265000	      3725	80003a30	00000013	addi	x0,x0,0	  x0:0x00000000
       37275000	      3726	80003a34	56654593	xori	x11,x10,1382	 x10:0x00000000 x11=0x00000566
       37285000	      3727	80003a38	cead3313	sltiu	x6,x26,-790	 x26:0x80009f5c  x6=0x00000001
       37295000	      3728	80003a3c	01d941b3	xor	x3,x18,x29	 x18:0xbc2ae7cc x29:0x000007d0  x3=0xbc2ae01c
       37305000	      3729	80003a40	94f946b7	lui	x13,0x94f94	 x13=0x94f94000
       37315000	      3730	80003a44	010fde93	srli	x29,x31,0x10	 x31:0x00000000 x29=0x00000000
       37325000	      3731	80003a48	01158a63	beq	x11,x17,80003a5c	 x11:0x00000566 x17:0x80009fc4
       37335000	      3732	80003a4c	d84b0f93	addi	x31,x22,-636	 x22:0x00000001 x31=0xfffffd85
       37345000	      3733	80003a50	ee1a7c93	andi	x25,x20,-287	 x20:0x00000000 x25=0x00000000
       37355000	      3734	80003a54	037d1063	bne	x26,x23,80003a74	 x26:0x80009f5c x23:0x00000000
       37365000	      3735	00000000	00000013	addi	x0,x0,0	  x0:0x00000000
       37375000	      3736	80003a70	00000013	addi	x0,x0,0	  x0:0x00000000
       37385000	      3737	80003a74	0178db33	srl	x22,x17,x23	 x17:0x80009fc4 x23:0x00000000 x22=0x80009fc4
       37395000	      3738	80003a78	0104a733	slt	x14,x9,x16	  x9:0x09c5a3a4 x16:0xc0000000 x14=0x00000000
       37405000	      3739	80003a7c	00acb4b3	sltu	x9,x25,x10	 x25:0x00000000 x10:0x00000000  x9=0x00000000
       37415000	      3740	80003a80	02821663	bne	x4,x8,80003aac	  x4:0x000007d0  x8:0x00000000
       37425000	      3741	00000000	00000013	addi	x0,x0,0	  x0:0x00000000
       37435000	      3742	80003aa8	00000013	addi	x0,x0,0	  x0:0x00000000
       37445000	      3743	80003aac	01c09a63	bne	x1,x28,80003ac0	  x1:0x5eb91560 x28:0xf573b7aa
       37455000	      3744	00000000	00000013	addi	x0,x0,0	  x0:0x00000000
       37465000	      3745	80003abc	00000013	addi	x0,x0,0	  x0:0x00000000
       37475000	      3746	80003ac0	001cc533	xor	x10,x25,x1	 x25:0x00000000  x1:0x5eb91560 x10=0x5eb91560
       37485000	      3747	80003ac4	00c45463	bge	x8,x12,80003acc	  x8:0x00000000 x12:0x80003614
       37495000	      3748	00000000	00000013	addi	x0,x0,0	  x0:0x00000000
       37505000	      3749	80003ac8	00000013	addi	x0,x0,0	  x0:0x00000000
       37515000	      3750	80003acc	01892433	slt	x8,x18,x24	 x18:0xbc2ae7cc x24:0x000007d0  x8=0x00000001
       37525000	      3751	80003ad0	fe5a6e17	auipc	x28,0xfe5a6	 x28=0x7e5a9acc
       37535000	      3752	80003ad4	6ae56213	ori	x4,x10,1710	 x10:0x5eb91560  x4=0x5eb917ee
       37545000	      3753	80003ad8	04c74463	blt	x14,x12,80003b20	 x14:0x00000000 x12:0x80003614
       37555000	      3754	80003adc	01c8d393	srli	x7,x17,0x1c	 x17:0x80009fc4  x7=0x00000008
       37565000	      3755	80003ae0	000fbeb3	sltu	x29,x31,x0	 x31:0xfffffd85  x0:0x00000000 x29=0x00000000
       37575000	      3756	80003ae4	b755ab13	slti	x22,x11,-1163	 x11:0x00000566 x22=0x00000000
       37585000	      3757	80003ae8	7f704b93	xori	x23,x0,2039	  x0:0x00000000 x23=0x000007f7
       37595000	      3758	80003aec	01187db3	and	x27,x16,x17	 x16:0xc0000000 x17:0x80009fc4 x27=0x80000000
       37605000	      3759	80003af0	01be1613	slli	x12,x28,0x1b	 x28:0x7e5a9acc x12=0x60000000
       37615000	      3760	80003af4	02330a63	beq	x6,x3,80003b28	  x6:0x00000001  x3:0xbc2ae01c
       37625000	      3761	80003af8	01439e13	slli	x28,x7,0x14	  x7:0x00000008 x28=0x00800000
       37635000	      3762	80003afc	9abfa613	slti	x12,x31,-1621	 x31:0xfffffd85 x12=0x00000000
       37645000	      3763	80003b00	00d67c63	bgeu	x12,x13,80003b18	 x12:0x00000000 x13:0x94f94000
       37655000	      3764	80003b04	009cbb33	sltu	x22,x25,x9	 x25:0x00000000  x9:0x00000000 x22=0x00000000
       37665000	      3765	80003b08	0108de93	srli	x29,x17,0x10	 x17:0x80009fc4 x29=0x00008000
       37675000	      3766	80003b0c	00d48cb3	add	x25,x9,x13	  x9:0x00000000 x13:0x94f94000 x25=0x94f94000
       37685000	      3767	80003b10	fda42f13	slti	x30,x8,-38	  x8:0x00000001 x30=0x00000000
       37695000	      3768	80003b14	04987663	bgeu	x16,x9,80003b60	 x16:0xc0000000  x9:0x00000000
       37705000	      3769	00000000	00000013	addi	x0,x0,0	  x0:0x00000000
       37715000	      3770	80003b5c	00000013	addi	x0,x0,0	  x0:0x00000000
       37725000	      3771	80003b60	00845a63	bge	x8,x8,80003b74	  x8:0x00000001  x8:0x00000001
       37735000	      3772	00000000	00000013	addi	x0,x0,0	  x0:0x00000000
       37745000	      3773	80003b70	00000013	addi	x0,x0,0	  x0:0x00000000
       37755000	      3774	80003b74	4038ba13	sltiu	x20,x17,1027	 x17:0x80009fc4 x20=0x00000000
       37765000	      3775	80003b78	010852b3	srl	x5,x16,x16	 x16:0xc0000000 x16:0xc0000000  x5=0xc0000000
       37775000	      3776	80003b7c	00c83b33	sltu	x22,x16,x12	 x16:0xc0000000 x12:0x00000000 x22=0x00000000
       37785000	      3777	80003b80	00951833	sll	x16,x10,x9	 x10:0x5eb91560  x9:0x00000000 x16=0x5eb91560
       37795000	      3778	80003b84	a11a7813	andi	x16,x20,-1519	 x20:0x00000000 x16=0x00000000
       37805000	      3779	80003b88	de206513	ori	x10,x0,-542	  x0:0x00000000 x10=0xfffffde2
       37815000	      3780	80003b8c	21843213	sltiu	x4,x8,536	  x8:0x00000001  x4=0x00000001
       37825000	      3781	80003b90	f5870413	addi	x8,x14,-168	 x14:0x00000000  x8=0xffffff58
       37835000	      3782	80003b94	41e58f33	sub	x30,x11,x30	 x11:0x00000566 x30:0x00000000 x30=0x00000566
       37845000	      3783	80003b98	403b5413	srai	x8,x22,0x3	 x22:0x00000000  x8=0x00000000
       37855000	      3784	80003b9c	24f68b93	addi	x23,x13,591	 x13:0x94f94000 x23=0x94f9424f
       37865000	      3785	80003ba0	d51da093	slti	x1,x27,-687	 x27:0x80000000  x1=0x00000001
       37875000	      3786	80003ba4	06cce263	bltu	x25,x12,80003c08	 x25:0x94f94000 x12:0x00000000
       37885000	      3787	80003ba8	043d6863	bltu	x26,x3,80003bf8	 x26:0x80009f5c  x3:0xbc2ae01c
       37895000	      3788	00000000	00000013	addi	x0,x0,0	  x0:0x00000000
       37905000	      3789	80003bf4	00000013	addi	x0,x0,0	  x0:0x00000000
       37915000	      3790	80003bf8	0c330693	addi	x13,x6,195	  x6:0x00000001 x13=0x000000c4
       37925000	      3791	80003bfc	40b8d093	srai	x1,x17,0xb	 x17:0x80009fc4  x1=0xfff00013
       37935000	      3792	80003c00	d9346693	ori	x13,x8,-621	  x8:0x00000000 x13=0xfffffd93
       37945000	      3793	80003c04	7a85b913	sltiu	x18,x11,1960	 x11:0x00000566 x18=0x00000001
       37955000	      3794	80003c08	0192d5b3	srl	x11,x5,x25	  x5:0xc0000000 x25:0x94f94000 x11=0xc0000000
       37965000	      3795	80003c0c	ca510993	addi	x19,x2,-859	  x2:0x00000000 x19=0xfffffca5
       37975000	      3796	80003c10	90f25c97	auipc	x25,0x90f25	 x25=0x10f28c0c
       37985000	      3797	80003c14	51d13593	sltiu	x11,x2,1309	  x2:0x00000000 x11=0x00000001
       37995000	      3798	80003c18	01b71993	slli	x19,x14,0x1b	 x14:0x00000000 x19=0x00000000
       38005000	      3799	80003c1c	890b3193	sltiu	x3,x22,-1904	 x22:0x00000000  x3=0x00000001
       38015000	      3800	80003c20	015b8133	add	x2,x23,x21	 x23:0x94f9424f x21:0x000007d1  x2=0x94f94a20
       38025000	      3801	80003c24	004639b3	sltu	x19,x12,x4	 x12:0x00000000  x4:0x00000001 x19=0x00000001
       38035000	      3802	80003c28	005393b3	sll	x7,x7,x5	  x7:0x00000008  x5:0xc0000000  x7=0x00000008
       38045000	      3803	80003c2c	b1928213	addi	x4,x5,-1255	  x5:0xc0000000  x4=0xbffffb19
       38055000	      3804	80003c30	010e3633	sltu	x12,x28,x16	 x28:0x00800000 x16:0x00000000 x12=0x00000000
       38065000	      3805	80003c34	2ae28493	addi	x9,x5,686	  x5:0xc0000000  x9=0xc00002ae
       38075000	      3806	80003c38	037e0063	beq	x28,x23,80003c58	 x28:0x00800000 x23:0x94f9424f
       38085000	      3807	80003c3c	012c6133	or	x2,x24,x18	 x24:0x000007d0 x18:0x00000001  x2=0x000007d1
       38095000	      3808	80003c40	bcaa0813	addi	x16,x20,-1078	 x20:0x00000000 x16=0xfffffbca
       38105000	      3809	80003c44	8be3af93	slti	x31,x7,-1858	  x7:0x00000008 x31=0x00000000
       38115000	      3810	80003c48	01d29193	slli	x3,x5,0x1d	  x5:0xc0000000  x3=0x00000000
       38125000	      3811	80003c4c	01cbf733	and	x14,x23,x28	 x23:0x94f9424f x28:0x00800000 x14=0x00800000
       38135000	      3812	80003c50	400f5e13	srai	x28,x30,0x0	 x30:0x00000566 x28=0x00000566
       38145000	      3813	80003c54	01b44433	xor	x8,x8,x27	  x8:0x00000000 x27:0x80000000  x8=0x80000000
       38155000	      3814	80003c58	9b18fb93	andi	x23,x17,-1615	 x17:0x80009fc4 x23=0x80009980
       38165000	      3815	80003c5c	03a51463	bne	x10,x26,80003c84	 x10:0xfffffde2 x26:0x80009f5c
       38175000	      3816	00000000	00000013	addi	x0,x0,0	  x0:0x00000000
       38185000	      3817	80003c80	00000013	addi	x0,x0,0	  x0:0x00000000
       38195000	      3818	80003c84	03d34663	blt	x6,x29,80003cb0	  x6:0x00000001 x29:0x00008000
       38205000	      3819	00000000	00000013	addi	x0,x0,0	  x0:0x00000000
       38215000	      3820	80003cac	00000013	addi	x0,x0,0	  x0:0x00000000
       38225000	      3821	80003cb0	405a8333	sub	x6,x21,x5	 x21:0x000007d1  x5:0xc0000000  x6=0x400007d1
       38235000	      3822	80003cb4	00379db3	sll	x27,x15,x3	 x15:0xf573b7aa  x3:0x00000000 x27=0xf573b7aa
       38245000	      3823	80003cb8	6f867413	andi	x8,x12,1784	 x12:0x00000000  x8=0x00000000
       38255000	      3824	80003cbc	7f37fa93	andi	x21,x15,2035	 x15:0xf573b7aa x21=0x000007a2
       38265000	      3825	80003cc0	40160a33	sub	x20,x12,x1	 x12:0x00000000  x1:0xfff00013 x20=0x000fffed
       38275000	      3826	80003cc4	c84c2213	slti	x4,x24,-892	 x24:0x000007d0  x4=0x00000000
       38285000	      3827	80003cc8	4bb2fe93	andi	x29,x5,1211	  x5:0xc0000000 x29=0x00000000
       38295000	      3828	80003ccc	4d5a7b17	auipc	x22,0x4d5a7	 x22=0xcd5aacc8
       38305000	      3829	80003cd0	e337b617	auipc	x12,0xe337b	 x12=0x6337eccc
       38315000	      3830	80003cd4	00301a33	sll	x20,x0,x3	  x0:0x00000000  x3:0x00000000 x20=0x00000000
       38325000	      3831	80003cd8	00f41c33	sll	x24,x8,x15	  x8:0x00000000 x15:0xf573b7aa x24=0x00000000
       38335000	      3832	80003cdc	407c5933	sra	x18,x24,x7	 x24:0x00000000  x7:0x00000008 x18=0x00000000
       38345000	      3833	80003ce0	41628a33	sub	x20,x5,x22	  x5:0xc0000000 x22:0xcd5aacc8 x20=0xf2a55338
       38355000	      3834	80003ce4	007c1e13	slli	x28,x24,0x7	 x24:0x00000000 x28=0x00000000
       38365000	      3835	80003ce8	037be063	bltu	x23,x23,80003d08	 x23:0x80009980 x23:0x80009980
       38375000	      3836	80003cec	413989b3	sub	x19,x19,x19	 x19:0x00000001 x19:0x00000001 x19=0x00000000
       38385000	      3837	80003cf0	03a77063	bgeu	x14,x26,80003d10	 x14:0x00800000 x26:0x80009f5c
       38395000	      3838	80003cf4	03cb0e63	beq	x22,x28,80003d30	 x22:0xcd5aacc8 x28:0x00000000
       38405000	      3839	80003cf8	9a9a4a13	xori	x20,x20,-1623	 x20:0xf2a55338 x20=0x0d5aaa91
       38415000	      3840	80003cfc	5d548493	addi	x9,x9,1493	  x9:0xc00002ae  x9=0xc0000883
       38425000	      3841	80003d00	0ce6ae13	slti	x28,x13,206	 x13:0xfffffd93 x28=0x00000001
       38435000	      3842	80003d04	00e46333	or	x6,x8,x14	  x8:0x00000000 x14:0x00800000  x6=0x00800000
       38445000	      3843	80003d08	00000013	addi	x0,x0,0	  x0:0x00000000
       38455000	      3844	80003d0c	02b17063	bgeu	x2,x11,80003d2c	  x2:0x000007d1 x11:0x00000001
       38465000	      3845	00000000	00000013	addi	x0,x0,0	  x0:0x00000000
       38475000	      3846	80003d28	00000013	addi	x0,x0,0	  x0:0x00000000
       38485000	      3847	80003d2c	005161b3	or	x3,x2,x5	  x2:0x000007d1  x5:0xc0000000  x3=0xc00007d1
       38495000	      3848	80003d30	00cabbb3	sltu	x23,x21,x12	 x21:0x000007a2 x12:0x6337eccc x23=0x00000001
       38505000	      3849	80003d34	8b0acf13	xori	x30,x21,-1872	 x21:0x000007a2 x30=0xffffff12
       38515000	      3850	80003d38	fc4afb13	andi	x22,x21,-60	 x21:0x000007a2 x22=0x00000780
       38525000	      3851	80003d3c	04bcc263	blt	x25,x11,80003d80	 x25:0x10f28c0c x11:0x00000001
       38535000	      3852	80003d40	41708733	sub	x14,x1,x23	  x1:0xfff00013 x23:0x00000001 x14=0xfff00012
       38545000	      3853	80003d44	15ed0a13	addi	x20,x26,350	 x26:0x80009f5c x20=0x8000a0ba
       38555000	      3854	80003d48	e146b997	auipc	x19,0xe146b	 x19=0x6146ed44
       38565000	      3855	80003d4c	00101733	sll	x14,x0,x1	  x0:0x00000000  x1:0xfff00013 x14=0x00000000
       38575000	      3856	80003d50	01b15863	bge	x2,x27,80003d60	  x2:0x000007d1 x27:0xf573b7aa
       38585000	      3857	00000000	00000013	addi	x0,x0,0	  x0:0x00000000
       38595000	      3858	80003d5c	00000013	addi	x0,x0,0	  x0:0x00000000
       38605000	      3859	80003d60	01c7d693	srli	x13,x15,0x1c	 x15:0xf573b7aa x13=0x0000000f
       38615000	      3860	80003d64	002ed313	srli	x6,x29,0x2	 x29:0x00000000  x6=0x00000000
       38625000	      3861	80003d68	02acc063	blt	x25,x10,80003d88	 x25:0x10f28c0c x10:0xfffffde2
       38635000	      3862	80003d6c	00854a63	blt	x10,x8,80003d80	 x10:0xfffffde2  x8:0x00000000
       38645000	      3863	00000000	00000013	addi	x0,x0,0	  x0:0x00000000
       38655000	      3864	80003d7c	00000013	addi	x0,x0,0	  x0:0x00000000
       38665000	      3865	80003d80	418f5993	srai	x19,x30,0x18	 x30:0xffffff12 x19=0xffffffff
       38675000	      3866	80003d84	01dd3833	sltu	x16,x26,x29	 x26:0x80009f5c x29:0x00000000 x16=0x00000000
       38685000	      3867	80003d88	019c1f13	slli	x30,x24,0x19	 x24:0x00000000 x30=0x00000000
       38695000	      3868	80003d8c	03097863	bgeu	x18,x16,80003dbc	 x18:0x00000000 x16:0x00000000
       38705000	      3869	00000000	00000013	addi	x0,x0,0	  x0:0x00000000
       38715000	      3870	80003db8	00000013	addi	x0,x0,0	  x0:0x00000000
       38725000	      3871	80003dbc	00b5dbb3	srl	x23,x11,x11	 x11:0x00000001 x11:0x00000001 x23=0x00000000
       38735000	      3872	80003dc0	8b3cf813	andi	x16,x25,-1869	 x25:0x10f28c0c x16=0x10f28800
       38745000	      3873	80003dc4	02230463	beq	x6,x2,80003dec	  x6:0x00000000  x2:0x000007d1
       38755000	      3874	80003dc8	03685863	bge	x16,x22,80003df8	 x16:0x10f28800 x22:0x00000780
       38765000	      3875	00000000	00000013	addi	x0,x0,0	  x0:0x00000000
       38775000	      3876	80003df4	00000013	addi	x0,x0,0	  x0:0x00000000
       38785000	      3877	80003df8	5637f1b7	lui	x3,0x5637f	  x3=0x5637f000
       38795000	      3878	80003dfc	b6d5a297	auipc	x5,0xb6d5a	  x5=0x36d5ddf8
       38805000	      3879	80003e00	00000013	addi	x0,x0,0	  x0:0x00000000
       38815000	      3880	80003e04	404e0a33	sub	x20,x28,x4	 x28:0x00000001  x4:0x00000000 x20=0x00000001
       38825000	      3881	80003e08	1b70ae13	slti	x28,x1,439	  x1:0xfff00013 x28=0x00000001
       38835000	      3882	80003e0c	01fb8bb3	add	x23,x23,x31	 x23:0x00000000 x31:0x00000000 x23=0x00000000
       38845000	      3883	80003e10	f0908093	addi	x1,x1,-247	  x1:0xfff00013  x1=0xffefff1c
       38855000	      3884	80003e14	01a6bf33	sltu	x30,x13,x26	 x13:0x0000000f x26:0x80009f5c x30=0x00000001
       38865000	      3885	80003e18	02c40a63	beq	x8,x12,80003e4c	  x8:0x00000000 x12:0x6337eccc
       38875000	      3886	80003e1c	061d6063	bltu	x26,x1,80003e7c	 x26:0x80009f5c  x1:0xffefff1c
       38885000	      3887	00000000	00000013	addi	x0,x0,0	  x0:0x00000000
       38895000	      3888	80003e78	00000013	addi	x0,x0,0	  x0:0x00000000
       38905000	      3889	80003e7c	02086397	auipc	x7,0x2086	  x7=0x82089e78
       38915000	      3890	80003e80	67406613	ori	x12,x0,1652	  x0:0x00000000 x12=0x00000674
       38925000	      3891	80003e84	00000013	addi	x0,x0,0	  x0:0x00000000
       38935000	      3892	80003e88	eabec213	xori	x4,x29,-341	 x29:0x00000000  x4=0xfffffeab
       38945000	      3893	80003e8c	02fa9663	bne	x21,x15,80003eb8	 x21:0x000007a2 x15:0xf573b7aa
       38955000	      3894	00000000	00000013	addi	x0,x0,0	  x0:0x00000000
       38965000	      3895	80003eb4	00000013	addi	x0,x0,0	  x0:0x00000000
       38975000	      3896	80003eb8	0014de33	srl	x28,x9,x1	  x9:0xc0000883  x1:0xffefff1c x28=0x0000000c
       38985000	      3897	80003ebc	01b223b3	slt	x7,x4,x27	  x4:0xfffffeab x27:0xf573b7aa  x7=0x00000000
       38995000	      3898	80003ec0	41dc5f33	sra	x30,x24,x29	 x24:0x00000000 x29:0x00000000 x30=0x00000000
       39005000	      3899	80003ec4	0247f063	bgeu	x15,x4,80003ee4	 x15:0xf573b7aa  x4:0xfffffeab
       39015000	      3900	80003ec8	00305033	srl	x0,x0,x3	  x0:0x00000000  x3:0x5637f000
       39025000	      3901	80003ecc	00f4c463	blt	x9,x15,80003ed4	  x9:0xc0000883 x15:0xf573b7aa
       39035000	      3902	00000000	00000013	addi	x0,x0,0	  x0:0x00000000
       39045000	      3903	80003ed0	00000013	addi	x0,x0,0	  x0:0x00000000
       39055000	      3904	80003ed4	d0604113	xori	x2,x0,-762	  x0:0x00000000  x2=0xfffffd06
       39065000	      3905	80003ed8	00e84c63	blt	x16,x14,80003ef0	 x16:0x10f28800 x14:0x00000000
       39075000	      3906	80003edc	02287a63	bgeu	x16,x2,80003f10	 x16:0x10f28800  x2:0xfffffd06
       39085000	      3907	80003ee0	017746b3	xor	x13,x14,x23	 x14:0x00000000 x23:0x00000000 x13=0x00000000
       39095000	      3908	80003ee4	40145013	srai	x0,x8,0x1	  x8:0x00000000
       39105000	      3909	80003ee8	0282c863	blt	x5,x8,80003f18	  x5:0x36d5ddf8  x8:0x00000000
       39115000	      3910	80003eec	00aa5b33	srl	x22,x20,x10	 x20:0x00000001 x10:0xfffffde2 x22=0x00000000
       39125000	      3911	80003ef0	00000013	addi	x0,x0,0	  x0:0x00000000
       39135000	      3912	80003ef4	00738a63	beq	x7,x7,80003f08	  x7:0x00000000  x7:0x00000000
       39145000	      3913	00000000	00000013	addi	x0,x0,0	  x0:0x00000000
       39155000	      3914	80003f04	00000013	addi	x0,x0,0	  x0:0x00000000
       39165000	      3915	80003f08	51eafd93	andi	x27,x21,1310	 x21:0x000007a2 x27=0x00000502
       39175000	      3916	80003f0c	d8af2493	slti	x9,x30,-630	 x30:0x00000000  x9=0x00000000
       39185000	      3917	80003f10	0153a0b3	slt	x1,x7,x21	  x7:0x00000000 x21:0x000007a2  x1=0x00000001
       39195000	      3918	80003f14	41c25693	srai	x13,x4,0x1c	  x4:0xfffffeab x13=0xffffffff
       39205000	      3919	80003f18	00bb81b3	add	x3,x23,x11	 x23:0x00000000 x11:0x00000001  x3=0x00000001
       39215000	      3920	80003f1c	00cb5333	srl	x6,x22,x12	 x22:0x00000000 x12:0x00000674  x6=0x00000000
       39225000	      3921	80003f20	00205313	srli	x6,x0,0x2	  x0:0x00000000  x6=0x00000000
       39235000	      3922	80003f24	006aa333	slt	x6,x21,x6	 x21:0x000007a2  x6:0x00000000  x6=0x00000000
       39245000	      3923	80003f28	00c97233	and	x4,x18,x12	 x18:0x00000000 x12:0x00000674  x4=0x00000000
       39255000	      3924	80003f2c	41fbdc33	sra	x24,x23,x31	 x23:0x00000000 x31:0x00000000 x24=0x00000000
       39265000	      3925	80003f30	04a50663	beq	x10,x10,80003f7c	 x10:0xfffffde2 x10:0xfffffde2
       39275000	      3926	00000000	00000013	addi	x0,x0,0	  x0:0x00000000
       39285000	      3927	80003f78	00000013	addi	x0,x0,0	  x0:0x00000000
       39295000	      3928	80003f7c	04541663	bne	x8,x5,80003fc8	  x8:0x00000000  x5:0x36d5ddf8
       39305000	      3929	00000000	00000013	addi	x0,x0,0	  x0:0x00000000
       39315000	      3930	80003fc4	00000013	addi	x0,x0,0	  x0:0x00000000
       39325000	      3931	80003fc8	007f2c33	slt	x24,x30,x7	 x30:0x00000000  x7:0x00000000 x24=0x00000000
       39335000	      3932	80003fcc	405a52b3	sra	x5,x20,x5	 x20:0x00000001  x5:0x36d5ddf8  x5=0x00000000
       39345000	      3933	80003fd0	01ee1a93	slli	x21,x28,0x1e	 x28:0x0000000c x21=0x00000000
       39355000	      3934	80003fd4	415ed013	srai	x0,x29,0x15	 x29:0x00000000
       39365000	      3935	80003fd8	0063fc33	and	x24,x7,x6	  x7:0x00000000  x6:0x00000000 x24=0x00000000
       39375000	      3936	80003fdc	73a2fd93	andi	x27,x5,1850	  x5:0x00000000 x27=0x00000000
       39385000	      3937	80003fe0	df8deb93	ori	x23,x27,-520	 x27:0x00000000 x23=0xfffffdf8
       39395000	      3938	80003fe4	02625063	bge	x4,x6,80004004	  x4:0x00000000  x6:0x00000000
       39405000	      3939	00000000	00000013	addi	x0,x0,0	  x0:0x00000000
       39415000	      3940	80004000	00000013	addi	x0,x0,0	  x0:0x00000000
       39425000	      3941	80004004	00c00233	add	x4,x0,x12	  x0:0x00000000 x12:0x00000674  x4=0x00000674
       39435000	      3942	80004008	03cbc063	blt	x23,x28,80004028	 x23:0xfffffdf8 x28:0x0000000c
       39445000	      3943	00000000	00000013	addi	x0,x0,0	  x0:0x00000000
       39455000	      3944	80004024	00000013	addi	x0,x0,0	  x0:0x00000000
       39465000	      3945	80004028	0158c233	xor	x4,x17,x21	 x17:0x80009fc4 x21:0x00000000  x4=0x80009fc4
       39475000	      3946	8000402c	b2a9c313	xori	x6,x19,-1238	 x19:0xffffffff  x6=0x000004d5
       39485000	      3947	80004030	012e8c33	add	x24,x29,x18	 x29:0x00000000 x18:0x00000000 x24=0x00000000
       39495000	      3948	80004034	9627c413	xori	x8,x15,-1694	 x15:0xf573b7aa  x8=0x0a8c4ec8
       39505000	      3949	80004038	afeb3693	sltiu	x13,x22,-1282	 x22:0x00000000 x13=0x00000001
       39515000	      3950	8000403c	002fbdb3	sltu	x27,x31,x2	 x31:0x00000000  x2:0xfffffd06 x27=0x00000001
       39525000	      3951	80004040	002d26b3	slt	x13,x26,x2	 x26:0x80009f5c  x2:0xfffffd06 x13=0x00000001
       39535000	      3952	80004044	03be6993	ori	x19,x28,59	 x28:0x0000000c x19=0x0000003f
       39545000	      3953	80004048	40b85ab3	sra	x21,x16,x11	 x16:0x10f28800 x11:0x00000001 x21=0x08794400
       39555000	      3954	8000404c	988b8193	addi	x3,x23,-1656	 x23:0xfffffdf8  x3=0xfffff780
       39565000	      3955	80004050	01c85813	srli	x16,x16,0x1c	 x16:0x10f28800 x16=0x00000001
       39575000	      3956	80004054	00a06db3	or	x27,x0,x10	  x0:0x00000000 x10:0xfffffde2 x27=0xfffffde2
       39585000	      3957	80004058	0123aa33	slt	x20,x7,x18	  x7:0x00000000 x18:0x00000000 x20=0x00000000
       39595000	      3958	8000405c	010bb733	sltu	x14,x23,x16	 x23:0xfffffdf8 x16:0x00000001 x14=0x00000000
       39605000	      3959	80004060	004d2303	lw	x6,4(x26)	 x26:0x80009f5c  x6=0x800040dc PA:0x80009f60
       39615000	      3960	80004064	00bf5813	srli	x16,x30,0xb	 x30:0x00000000 x16=0x00000000
       39625000	      3961	80004068	cbbeaf93	slti	x31,x29,-837	 x29:0x00000000 x31=0x00000000
       39635000	      3962	8000406c	40d85513	srai	x10,x16,0xd	 x16:0x00000000 x10=0x00000000
       39645000	      3963	80004070	40de5733	sra	x14,x28,x13	 x28:0x0000000c x13:0x00000001 x14=0x00000006
       39655000	      3964	80004074	01fdcdb3	xor	x27,x27,x31	 x27:0xfffffde2 x31:0x00000000 x27=0xfffffde2
       39665000	      3965	80004078	01cd0d13	addi	x26,x26,28	 x26:0x80009f5c x26=0x80009f78
       39675000	      3966	8000407c	01fc14b3	sll	x9,x24,x31	 x24:0x00000000 x31:0x00000000  x9=0x00000000
       39685000	      3967	80004080	01d2b6b3	sltu	x13,x5,x29	  x5:0x00000000 x29:0x00000000 x13=0x00000000
       39695000	      3968	80004084	0018b633	sltu	x12,x17,x1	 x17:0x80009fc4  x1:0x00000001 x12=0x00000000
       39705000	      3969	80004088	00130913	addi	x18,x6,1	  x6:0x800040dc x18=0x800040dd
       39715000	      3970	8000408c	00090967	jalr	x18,x18,0	 x18:0x800040dd x18=0x8000408c
       39725000	      3971	00000000	00000013	addi	x0,x0,0	  x0:0x00000000
       39735000	      3972	800040dc	00000013	addi	x0,x0,0	  x0:0x00000000
       39745000	      3973	800040e0	0180036f	jal	x6,800040e0	  x6=0x800040e0
       39755000	      3974	00000000	00000013	addi	x0,x0,0	  x0:0x00000000
       39765000	      3975	800040f4	00000013	addi	x0,x0,0	  x0:0x00000000
       39775000	      3976	800040f8	04400cef	jal	x25,800040f8	 x25=0x800040f8
       39785000	      3977	00000000	00000013	addi	x0,x0,0	  x0:0x00000000
       39795000	      3978	80004138	00000013	addi	x0,x0,0	  x0:0x00000000
       39805000	      3979	8000413c	fb9ff0ef	jal	x1,8000413c	  x1=0x8000413c
       39815000	      3980	00000000	00000013	addi	x0,x0,0	  x0:0x00000000
       39825000	      3981	800040f0	00000013	addi	x0,x0,0	  x0:0x00000000
       39835000	      3982	800040f4	008000ef	jal	x1,800040f4	  x1=0x800040f4
       39845000	      3983	00000000	00000013	addi	x0,x0,0	  x0:0x00000000
       39855000	      3984	800040f8	00000013	addi	x0,x0,0	  x0:0x00000000
       39865000	      3985	800040fc	0200036f	jal	x6,800040fc	  x6=0x800040fc
       39875000	      3986	00000000	00000013	addi	x0,x0,0	  x0:0x00000000
       39885000	      3987	80004118	00000013	addi	x0,x0,0	  x0:0x00000000
       39895000	      3988	8000411c	ffdff36f	jal	x6,8000411c	  x6=0x8000411c
       39905000	      3989	00000000	00000013	addi	x0,x0,0	  x0:0x00000000
       39915000	      3990	80004114	00000013	addi	x0,x0,0	  x0:0x00000000
       39925000	      3991	80004118	fd1ff0ef	jal	x1,80004118	  x1=0x80004118
       39935000	      3992	00000000	00000013	addi	x0,x0,0	  x0:0x00000000
       39945000	      3993	800040e4	00000013	addi	x0,x0,0	  x0:0x00000000
       39955000	      3994	800040e8	050000ef	jal	x1,800040e8	  x1=0x800040e8
       39965000	      3995	00000000	00000013	addi	x0,x0,0	  x0:0x00000000
       39975000	      3996	80004134	00000013	addi	x0,x0,0	  x0:0x00000000
       39985000	      3997	80004138	fd9ff36f	jal	x6,80004138	  x6=0x80004138
       39995000	      3998	00000000	00000013	addi	x0,x0,0	  x0:0x00000000
       40005000	      3999	8000410c	00000013	addi	x0,x0,0	  x0:0x00000000
       40015000	      4000	80004110	fddff0ef	jal	x1,80004110	  x1=0x80004110
       40025000	      4001	00000000	00000013	addi	x0,x0,0	  x0:0x00000000
       40035000	      4002	800040e8	00000013	addi	x0,x0,0	  x0:0x00000000
       40045000	      4003	800040ec	0200086f	jal	x16,800040ec	 x16=0x800040ec
       40055000	      4004	00000000	00000013	addi	x0,x0,0	  x0:0x00000000
       40065000	      4005	80004108	00000013	addi	x0,x0,0	  x0:0x00000000
       40075000	      4006	8000410c	fd9ff0ef	jal	x1,8000410c	  x1=0x8000410c
       40085000	      4007	00000000	00000013	addi	x0,x0,0	  x0:0x00000000
       40095000	      4008	800040e0	00000013	addi	x0,x0,0	  x0:0x00000000
       40105000	      4009	800040e4	0480036f	jal	x6,800040e4	  x6=0x800040e4
       40115000	      4010	00000000	00000013	addi	x0,x0,0	  x0:0x00000000
       40125000	      4011	80004128	00000013	addi	x0,x0,0	  x0:0x00000000
       40135000	      4012	8000412c	fe9ff36f	jal	x6,8000412c	  x6=0x8000412c
       40145000	      4013	00000000	00000013	addi	x0,x0,0	  x0:0x00000000
       40155000	      4014	80004110	00000013	addi	x0,x0,0	  x0:0x00000000
       40165000	      4015	80004114	020002ef	jal	x5,80004114	  x5=0x80004114
       40175000	      4016	00000000	00000013	addi	x0,x0,0	  x0:0x00000000
       40185000	      4017	80004130	00000013	addi	x0,x0,0	  x0:0x00000000
       40195000	      4018	80004134	fcdff5ef	jal	x11,80004134	 x11=0x80004134
       40205000	      4019	00000000	00000013	addi	x0,x0,0	  x0:0x00000000
       40215000	      4020	800040fc	00000013	addi	x0,x0,0	  x0:0x00000000
       40225000	      4021	80004100	0040086f	jal	x16,80004100	 x16=0x80004100
       40235000	      4022	00000000	00000013	addi	x0,x0,0	  x0:0x00000000
       40245000	      4023	80004100	00000013	addi	x0,x0,0	  x0:0x00000000
       40255000	      4024	80004104	fedff0ef	jal	x1,80004104	  x1=0x80004104
       40265000	      4025	00000000	00000013	addi	x0,x0,0	  x0:0x00000000
       40275000	      4026	800040ec	00000013	addi	x0,x0,0	  x0:0x00000000
       40285000	      4027	800040f0	018000ef	jal	x1,800040f0	  x1=0x800040f0
       40295000	      4028	00000000	00000013	addi	x0,x0,0	  x0:0x00000000
       40305000	      4029	80004104	00000013	addi	x0,x0,0	  x0:0x00000000
       40315000	      4030	80004108	038004ef	jal	x9,80004108	  x9=0x80004108
       40325000	      4031	00000000	00000013	addi	x0,x0,0	  x0:0x00000000
       40335000	      4032	8000413c	00000013	addi	x0,x0,0	  x0:0x00000000
       40345000	      4033	80004140	fe9ff36f	jal	x6,80004140	  x6=0x80004140
       40355000	      4034	00000000	00000013	addi	x0,x0,0	  x0:0x00000000
       40365000	      4035	80004124	00000013	addi	x0,x0,0	  x0:0x00000000
       40375000	      4036	80004128	ff9ff0ef	jal	x1,80004128	  x1=0x80004128
       40385000	      4037	00000000	00000013	addi	x0,x0,0	  x0:0x00000000
       40395000	      4038	8000411c	00000013	addi	x0,x0,0	  x0:0x00000000
       40405000	      4039	80004120	004000ef	jal	x1,80004120	  x1=0x80004120
       40415000	      4040	00000000	00000013	addi	x0,x0,0	  x0:0x00000000
       40425000	      4041	80004120	00000013	addi	x0,x0,0	  x0:0x00000000
       40435000	      4042	80004124	00c0046f	jal	x8,80004124	  x8=0x80004124
       40445000	      4043	00000000	00000013	addi	x0,x0,0	  x0:0x00000000
       40455000	      4044	8000412c	00000013	addi	x0,x0,0	  x0:0x00000000
       40465000	      4045	80004130	01400f6f	jal	x30,80004130	 x30=0x80004130
       40475000	      4046	00000000	00000013	addi	x0,x0,0	  x0:0x00000000
       40485000	      4047	80004140	00000013	addi	x0,x0,0	  x0:0x00000000
       40495000	      4048	80004144	00486133	or	x2,x16,x4	 x16:0x80004100  x4:0x80009fc4  x2=0x8000dfc4
       40505000	      4049	80004148	04c0036f	jal	x6,80004148	  x6=0x80004148
       40515000	      4050	00000000	00000013	addi	x0,x0,0	  x0:0x00000000
       40525000	      4051	80004190	00000013	addi	x0,x0,0	  x0:0x00000000
       40535000	      4052	80004194	0040036f	jal	x6,80004194	  x6=0x80004194
       40545000	      4053	00000000	00000013	addi	x0,x0,0	  x0:0x00000000
       40555000	      4054	80004194	00000013	addi	x0,x0,0	  x0:0x00000000
       40565000	      4055	80004198	fcdff0ef	jal	x1,80004198	  x1=0x80004198
       40575000	      4056	00000000	00000013	addi	x0,x0,0	  x0:0x00000000
       40585000	      4057	80004160	00000013	addi	x0,x0,0	  x0:0x00000000
       40595000	      4058	80004164	028000ef	jal	x1,80004164	  x1=0x80004164
       40605000	      4059	00000000	00000013	addi	x0,x0,0	  x0:0x00000000
       40615000	      4060	80004188	00000013	addi	x0,x0,0	  x0:0x00000000
       40625000	      4061	8000418c	010000ef	jal	x1,8000418c	  x1=0x8000418c
       40635000	      4062	00000000	00000013	addi	x0,x0,0	  x0:0x00000000
       40645000	      4063	80004198	00000013	addi	x0,x0,0	  x0:0x00000000
       40655000	      4064	8000419c	fe5ff0ef	jal	x1,8000419c	  x1=0x8000419c
       40665000	      4065	00000000	00000013	addi	x0,x0,0	  x0:0x00000000
       40675000	      4066	8000417c	00000013	addi	x0,x0,0	  x0:0x00000000
       40685000	      4067	80004180	ff5ff36f	jal	x6,80004180	  x6=0x80004180
       40695000	      4068	00000000	00000013	addi	x0,x0,0	  x0:0x00000000
       40705000	      4069	80004170	00000013	addi	x0,x0,0	  x0:0x00000000
       40715000	      4070	80004174	fd9ff0ef	jal	x1,80004174	  x1=0x80004174
       40725000	      4071	00000000	00000013	addi	x0,x0,0	  x0:0x00000000
       40735000	      4072	80004148	00000013	addi	x0,x0,0	  x0:0x00000000
       40745000	      4073	8000414c	0540026f	jal	x4,8000414c	  x4=0x8000414c
       40755000	      4074	00000000	00000013	addi	x0,x0,0	  x0:0x00000000
       40765000	      4075	8000419c	00000013	addi	x0,x0,0	  x0:0x00000000
       40775000	      4076	800041a0	fcdff36f	jal	x6,800041a0	  x6=0x800041a0
       40785000	      4077	00000000	00000013	addi	x0,x0,0	  x0:0x00000000
       40795000	      4078	80004168	00000013	addi	x0,x0,0	  x0:0x00000000
       40805000	      4079	8000416c	fe9ff0ef	jal	x1,8000416c	  x1=0x8000416c
       40815000	      4080	00000000	00000013	addi	x0,x0,0	  x0:0x00000000
       40825000	      4081	80004150	00000013	addi	x0,x0,0	  x0:0x00000000
       40835000	      4082	80004154	0280026f	jal	x4,80004154	  x4=0x80004154
       40845000	      4083	00000000	00000013	addi	x0,x0,0	  x0:0x00000000
       40855000	      4084	80004178	00000013	addi	x0,x0,0	  x0:0x00000000
       40865000	      4085	8000417c	fe1ff0ef	jal	x1,8000417c	  x1=0x8000417c
       40875000	      4086	00000000	00000013	addi	x0,x0,0	  x0:0x00000000
       40885000	      4087	80004158	00000013	addi	x0,x0,0	  x0:0x00000000
       40895000	      4088	8000415c	01c000ef	jal	x1,8000415c	  x1=0x8000415c
       40905000	      4089	00000000	00000013	addi	x0,x0,0	  x0:0x00000000
       40915000	      4090	80004174	00000013	addi	x0,x0,0	  x0:0x00000000
       40925000	      4091	80004178	fe1ffcef	jal	x25,80004178	 x25=0x80004178
       40935000	      4092	00000000	00000013	addi	x0,x0,0	  x0:0x00000000
       40945000	      4093	80004154	00000013	addi	x0,x0,0	  x0:0x00000000
       40955000	      4094	80004158	030000ef	jal	x1,80004158	  x1=0x80004158
       40965000	      4095	00000000	00000013	addi	x0,x0,0	  x0:0x00000000
       40975000	      4096	80004184	00000013	addi	x0,x0,0	  x0:0x00000000
       40985000	      4097	80004188	ffdff0ef	jal	x1,80004188	  x1=0x80004188
       40995000	      4098	00000000	00000013	addi	x0,x0,0	  x0:0x00000000
       41005000	      4099	80004180	00000013	addi	x0,x0,0	  x0:0x00000000
       41015000	      4100	80004184	fcdff0ef	jal	x1,80004184	  x1=0x80004184
       41025000	      4101	00000000	00000013	addi	x0,x0,0	  x0:0x00000000
       41035000	      4102	8000414c	00000013	addi	x0,x0,0	  x0:0x00000000
       41045000	      4103	80004150	018000ef	jal	x1,80004150	  x1=0x80004150
       41055000	      4104	00000000	00000013	addi	x0,x0,0	  x0:0x00000000
       41065000	      4105	80004164	00000013	addi	x0,x0,0	  x0:0x00000000
       41075000	      4106	80004168	028003ef	jal	x7,80004168	  x7=0x80004168
       41085000	      4107	00000000	00000013	addi	x0,x0,0	  x0:0x00000000
       41095000	      4108	8000418c	00000013	addi	x0,x0,0	  x0:0x00000000
       41105000	      4109	80004190	014000ef	jal	x1,80004190	  x1=0x80004190
       41115000	      4110	00000000	00000013	addi	x0,x0,0	  x0:0x00000000
       41125000	      4111	800041a0	00000013	addi	x0,x0,0	  x0:0x00000000
       41135000	      4112	800041a4	fcdff36f	jal	x6,800041a4	  x6=0x800041a4
       41145000	      4113	00000000	00000013	addi	x0,x0,0	  x0:0x00000000
       41155000	      4114	8000416c	00000013	addi	x0,x0,0	  x0:0x00000000
       41165000	      4115	80004170	ff1ff0ef	jal	x1,80004170	  x1=0x80004170
       41175000	      4116	00000000	00000013	addi	x0,x0,0	  x0:0x00000000
       41185000	      4117	8000415c	00000013	addi	x0,x0,0	  x0:0x00000000
       41195000	      4118	80004160	04800e6f	jal	x28,80004160	 x28=0x80004160
       41205000	      4119	00000000	00000013	addi	x0,x0,0	  x0:0x00000000
       41215000	      4120	800041a4	00000013	addi	x0,x0,0	  x0:0x00000000
       41225000	      4121	800041a8	2075aa13	slti	x20,x11,519	 x11:0x80004134 x20=0x00000001
       41235000	      4122	800041ac	0100036f	jal	x6,800041ac	  x6=0x800041ac
       41245000	      4123	00000000	00000013	addi	x0,x0,0	  x0:0x00000000
       41255000	      4124	800041b8	00000013	addi	x0,x0,0	  x0:0x00000000
       41265000	      4125	800041bc	024000ef	jal	x1,800041bc	  x1=0x800041bc
       41275000	      4126	00000000	00000013	addi	x0,x0,0	  x0:0x00000000
       41285000	      4127	800041dc	00000013	addi	x0,x0,0	  x0:0x00000000
       41295000	      4128	800041e0	ff1ff36f	jal	x6,800041e0	  x6=0x800041e0
       41305000	      4129	00000000	00000013	addi	x0,x0,0	  x0:0x00000000
       41315000	      4130	800041cc	00000013	addi	x0,x0,0	  x0:0x00000000
       41325000	      4131	800041d0	fe9ff0ef	jal	x1,800041d0	  x1=0x800041d0
       41335000	      4132	00000000	00000013	addi	x0,x0,0	  x0:0x00000000
       41345000	      4133	800041b4	00000013	addi	x0,x0,0	  x0:0x00000000
       41355000	      4134	800041b8	02c00eef	jal	x29,800041b8	 x29=0x800041b8
       41365000	      4135	00000000	00000013	addi	x0,x0,0	  x0:0x00000000
       41375000	      4136	800041e0	00000013	addi	x0,x0,0	  x0:0x00000000
       41385000	      4137	800041e4	ff1ff16f	jal	x2,800041e4	  x2=0x800041e4
       41395000	      4138	00000000	00000013	addi	x0,x0,0	  x0:0x00000000
       41405000	      4139	800041d0	00000013	addi	x0,x0,0	  x0:0x00000000
       41415000	      4140	800041d4	fddffeef	jal	x29,800041d4	 x29=0x800041d4
       41425000	      4141	00000000	00000013	addi	x0,x0,0	  x0:0x00000000
       41435000	      4142	800041ac	00000013	addi	x0,x0,0	  x0:0x00000000
       41445000	      4143	800041b0	02c0036f	jal	x6,800041b0	  x6=0x800041b0
       41455000	      4144	00000000	00000013	addi	x0,x0,0	  x0:0x00000000
       41465000	      4145	800041d8	00000013	addi	x0,x0,0	  x0:0x00000000
       41475000	      4146	800041dc	ffdff0ef	jal	x1,800041dc	  x1=0x800041dc
       41485000	      4147	00000000	00000013	addi	x0,x0,0	  x0:0x00000000
       41495000	      4148	800041d4	00000013	addi	x0,x0,0	  x0:0x00000000
       41505000	      4149	800041d8	ff1ff0ef	jal	x1,800041d8	  x1=0x800041d8
       41515000	      4150	00000000	00000013	addi	x0,x0,0	  x0:0x00000000
       41525000	      4151	800041c4	00000013	addi	x0,x0,0	  x0:0x00000000
       41535000	      4152	800041c8	fedff36f	jal	x6,800041c8	  x6=0x800041c8
       41545000	      4153	00000000	00000013	addi	x0,x0,0	  x0:0x00000000
       41555000	      4154	800041b0	00000013	addi	x0,x0,0	  x0:0x00000000
       41565000	      4155	800041b4	00c000ef	jal	x1,800041b4	  x1=0x800041b4
       41575000	      4156	00000000	00000013	addi	x0,x0,0	  x0:0x00000000
       41585000	      4157	800041bc	00000013	addi	x0,x0,0	  x0:0x00000000
       41595000	      4158	800041c0	028000ef	jal	x1,800041c0	  x1=0x800041c0
       41605000	      4159	00000000	00000013	addi	x0,x0,0	  x0:0x00000000
       41615000	      4160	800041e4	00000013	addi	x0,x0,0	  x0:0x00000000
       41625000	      4161	800041e8	fddff0ef	jal	x1,800041e8	  x1=0x800041e8
       41635000	      4162	00000000	00000013	addi	x0,x0,0	  x0:0x00000000
       41645000	      4163	800041c0	00000013	addi	x0,x0,0	  x0:0x00000000
       41655000	      4164	800041c4	0080036f	jal	x6,800041c4	  x6=0x800041c4
       41665000	      4165	00000000	00000013	addi	x0,x0,0	  x0:0x00000000
       41675000	      4166	800041c8	00000013	addi	x0,x0,0	  x0:0x00000000
       41685000	      4167	800041cc	0200036f	jal	x6,800041cc	  x6=0x800041cc
       41695000	      4168	00000000	00000013	addi	x0,x0,0	  x0:0x00000000
       41705000	      4169	800041e8	00000013	addi	x0,x0,0	  x0:0x00000000
       41715000	      4170	800041ec	0d75f113	andi	x2,x11,215	 x11:0x80004134  x2=0x00000014
       41725000	      4171	800041f0	031a9c63	bne	x21,x17,80004228	 x21:0x08794400 x17:0x80009fc4
       41735000	      4172	00000000	00000013	addi	x0,x0,0	  x0:0x00000000
       41745000	      4173	80004224	00000013	addi	x0,x0,0	  x0:0x00000000
       41755000	      4174	80004228	07da9863	bne	x21,x29,80004298	 x21:0x08794400 x29:0x800041d4
       41765000	      4175	00000000	00000013	addi	x0,x0,0	  x0:0x00000000
       41775000	      4176	80004294	00000013	addi	x0,x0,0	  x0:0x00000000
       41785000	      4177	80004298	fb9ff5ef	jal	x11,80004298	 x11=0x80004298
       41795000	      4178	00000000	00000013	addi	x0,x0,0	  x0:0x00000000
       41805000	      4179	8000424c	00000013	addi	x0,x0,0	  x0:0x00000000
       41815000	      4180	80004250	030001ef	jal	x3,80004250	  x3=0x80004250
       41825000	      4181	00000000	00000013	addi	x0,x0,0	  x0:0x00000000
       41835000	      4182	8000427c	00000013	addi	x0,x0,0	  x0:0x00000000
       41845000	      4183	80004280	fd9ff0ef	jal	x1,80004280	  x1=0x80004280
       41855000	      4184	00000000	00000013	addi	x0,x0,0	  x0:0x00000000
       41865000	      4185	80004254	00000013	addi	x0,x0,0	  x0:0x00000000
       41875000	      4186	80004258	008000ef	jal	x1,80004258	  x1=0x80004258
       41885000	      4187	00000000	00000013	addi	x0,x0,0	  x0:0x00000000
       41895000	      4188	8000425c	00000013	addi	x0,x0,0	  x0:0x00000000
       41905000	      4189	80004260	ff5ff0ef	jal	x1,80004260	  x1=0x80004260
       41915000	      4190	00000000	00000013	addi	x0,x0,0	  x0:0x00000000
       41925000	      4191	80004250	00000013	addi	x0,x0,0	  x0:0x00000000
       41935000	      4192	80004254	0200016f	jal	x2,80004254	  x2=0x80004254
       41945000	      4193	00000000	00000013	addi	x0,x0,0	  x0:0x00000000
       41955000	      4194	80004270	00000013	addi	x0,x0,0	  x0:0x00000000
       41965000	      4195	80004274	fc5ff1ef	jal	x3,80004274	  x3=0x80004274
       41975000	      4196	00000000	00000013	addi	x0,x0,0	  x0:0x00000000
       41985000	      4197	80004234	00000013	addi	x0,x0,0	  x0:0x00000000
       41995000	      4198	80004238	050000ef	jal	x1,80004238	  x1=0x80004238
       42005000	      4199	00000000	00000013	addi	x0,x0,0	  x0:0x00000000
       42015000	      4200	80004284	00000013	addi	x0,x0,0	  x0:0x00000000
       42025000	      4201	80004288	fadff0ef	jal	x1,80004288	  x1=0x80004288
       42035000	      4202	00000000	00000013	addi	x0,x0,0	  x0:0x00000000
       42045000	      4203	80004230	00000013	addi	x0,x0,0	  x0:0x00000000
       42055000	      4204	80004234	03c00e6f	jal	x28,80004234	 x28=0x80004234
       42065000	      4205	00000000	00000013	addi	x0,x0,0	  x0:0x00000000
       42075000	      4206	8000426c	00000013	addi	x0,x0,0	  x0:0x00000000
       42085000	      4207	80004270	fc1ff16f	jal	x2,80004270	  x2=0x80004270
       42095000	      4208	00000000	00000013	addi	x0,x0,0	  x0:0x00000000
       42105000	      4209	8000422c	00000013	addi	x0,x0,0	  x0:0x00000000
       42115000	      4210	80004230	01c0036f	jal	x6,80004230	  x6=0x80004230
       42125000	      4211	00000000	00000013	addi	x0,x0,0	  x0:0x00000000
       42135000	      4212	80004248	00000013	addi	x0,x0,0	  x0:0x00000000
       42145000	      4213	8000424c	ffdff0ef	jal	x1,8000424c	  x1=0x8000424c
       42155000	      4214	00000000	00000013	addi	x0,x0,0	  x0:0x00000000
       42165000	      4215	80004244	00000013	addi	x0,x0,0	  x0:0x00000000
       42175000	      4216	80004248	ff5ff86f	jal	x16,80004248	 x16=0x80004248
       42185000	      4217	00000000	00000013	addi	x0,x0,0	  x0:0x00000000
       42195000	      4218	80004238	00000013	addi	x0,x0,0	  x0:0x00000000
       42205000	      4219	8000423c	02c000ef	jal	x1,8000423c	  x1=0x8000423c
       42215000	      4220	00000000	00000013	addi	x0,x0,0	  x0:0x00000000
       42225000	      4221	80004264	00000013	addi	x0,x0,0	  x0:0x00000000
       42235000	      4222	80004268	ff5ff0ef	jal	x1,80004268	  x1=0x80004268
       42245000	      4223	00000000	00000013	addi	x0,x0,0	  x0:0x00000000
       42255000	      4224	80004258	00000013	addi	x0,x0,0	  x0:0x00000000
       42265000	      4225	8000425c	0280036f	jal	x6,8000425c	  x6=0x8000425c
       42275000	      4226	00000000	00000013	addi	x0,x0,0	  x0:0x00000000
       42285000	      4227	80004280	00000013	addi	x0,x0,0	  x0:0x00000000
       42295000	      4228	80004284	0180036f	jal	x6,80004284	  x6=0x80004284
       42305000	      4229	00000000	00000013	addi	x0,x0,0	  x0:0x00000000
       42315000	      4230	80004298	00000013	addi	x0,x0,0	  x0:0x00000000
       42325000	      4231	8000429c	fa9ff96f	jal	x18,8000429c	 x18=0x8000429c
       42335000	      4232	00000000	00000013	addi	x0,x0,0	  x0:0x00000000
       42345000	      4233	80004240	00000013	addi	x0,x0,0	  x0:0x00000000
       42355000	      4234	80004244	05c000ef	jal	x1,80004244	  x1=0x80004244
       42365000	      4235	00000000	00000013	addi	x0,x0,0	  x0:0x00000000
       42375000	      4236	8000429c	00000013	addi	x0,x0,0	  x0:0x00000000
       42385000	      4237	800042a0	0dc1f093	andi	x1,x3,220	  x3:0x80004274  x1=0x00000054
       42395000	      4238	800042a4	11e6d717	auipc	x14,0x11e6d	 x14=0x91e712a0
       42405000	      4239	800042a8	68a02f93	slti	x31,x0,1674	  x0:0x00000000 x31=0x00000001
       42415000	      4240	800042ac	40515f93	srai	x31,x2,0x5	  x2:0x80004270 x31=0xfc000213
       42425000	      4241	800042b0	41165013	srai	x0,x12,0x11	 x12:0x00000000
       42435000	      4242	800042b4	03315663	bge	x2,x19,800042e0	  x2:0x80004270 x19:0x0000003f
       42445000	      4243	800042b8	01461833	sll	x16,x12,x20	 x12:0x00000000 x20:0x00000001 x16=0x00000000
       42455000	      4244	800042bc	9d3c6293	ori	x5,x24,-1581	 x24:0x00000000  x5=0xfffff9d3
       42465000	      4245	800042c0	054f1863	bne	x30,x20,80004310	 x30:0x80004130 x20:0x00000001
       42475000	      4246	00000000	00000013	addi	x0,x0,0	  x0:0x00000000
       42485000	      4247	8000430c	00000013	addi	x0,x0,0	  x0:0x00000000
       42495000	      4248	80004310	00000013	addi	x0,x0,0	  x0:0x00000000
       42505000	      4249	80004314	41e85c33	sra	x24,x16,x30	 x16:0x00000000 x30:0x80004130 x24=0x00000000
       42515000	      4250	80004318	c99c3d93	sltiu	x27,x24,-871	 x24:0x00000000 x27=0x00000001
       42525000	      4251	8000431c	01941993	slli	x19,x8,0x19	  x8:0x80004124 x19=0x48000000
       42535000	      4252	80004320	012759b3	srl	x19,x14,x18	 x14:0x91e712a0 x18:0x8000429c x19=0x00000009
       42545000	      4253	80004324	1c3e7713	andi	x14,x28,451	 x28:0x80004234 x14=0x00000000
       42555000	      4254	80004328	00349033	sll	x0,x9,x3	  x9:0x80004108  x3:0x80004274
       42565000	      4255	8000432c	40815193	srai	x3,x2,0x8	  x2:0x80004270  x3=0xff800042
       42575000	      4256	80004330	a3358313	addi	x6,x11,-1485	 x11:0x80004298  x6=0x80003ccb
       42585000	      4257	80004334	0666c913	xori	x18,x13,102	 x13:0x00000000 x18=0x00000066
       42595000	      4258	80004338	edf36b37	lui	x22,0xedf36	 x22=0xedf36000
       42605000	      4259	8000433c	059d9463	bne	x27,x25,80004384	 x27:0x00000001 x25:0x80004178
       42615000	      4260	00000000	00000013	addi	x0,x0,0	  x0:0x00000000
       42625000	      4261	80004380	00000013	addi	x0,x0,0	  x0:0x00000000
       42635000	      4262	80004384	00000013	addi	x0,x0,0	  x0:0x00000000
       42645000	      4263	80004388	006e9463	bne	x29,x6,80004390	 x29:0x800041d4  x6:0x80003ccb
       42655000	      4264	00000000	00000013	addi	x0,x0,0	  x0:0x00000000
       42665000	      4265	8000438c	00000013	addi	x0,x0,0	  x0:0x00000000
       42675000	      4266	80004390	40e75393	srai	x7,x14,0xe	 x14:0x00000000  x7=0x00000000
       42685000	      4267	80004394	a62930b7	lui	x1,0xa6293	  x1=0xa6293000
       42695000	      4268	80004398	00751833	sll	x16,x10,x7	 x10:0x00000000  x7:0x00000000 x16=0x00000000
       42705000	      4269	8000439c	00000013	addi	x0,x0,0	  x0:0x00000000
       42715000	      4270	800043a0	d3814d93	xori	x27,x2,-712	  x2:0x80004270 x27=0x7fffbf48
       42725000	      4271	800043a4	7f286f93	ori	x31,x16,2034	 x16:0x00000000 x31=0x000007f2
       42735000	      4272	800043a8	3ca28c13	addi	x24,x5,970	  x5:0xfffff9d3 x24=0xfffffd9d
       42745000	      4273	800043ac	41205f93	srai	x31,x0,0x12	  x0:0x00000000 x31=0x00000000
       42755000	      4274	800043b0	03f9c263	blt	x19,x31,800043d4	 x19:0x00000009 x31:0x00000000
       42765000	      4275	800043b4	0e7de693	ori	x13,x27,231	 x27:0x7fffbf48 x13=0x7fffbfef
       42775000	      4276	800043b8	00339733	sll	x14,x7,x3	  x7:0x00000000  x3:0xff800042 x14=0x00000000
       42785000	      4277	800043bc	05a45863	bge	x8,x26,8000440c	  x8:0x80004124 x26:0x80009f78
       42795000	      4278	800043c0	00273133	sltu	x2,x14,x2	 x14:0x00000000  x2:0x80004270  x2=0x00000001
       42805000	      4279	800043c4	f4962813	slti	x16,x12,-183	 x12:0x00000000 x16=0x00000000
       42815000	      4280	800043c8	00ab4f33	xor	x30,x22,x10	 x22:0xedf36000 x10:0x00000000 x30=0xedf36000
       42825000	      4281	800043cc	402bd393	srai	x7,x23,0x2	 x23:0xfffffdf8  x7=0xffffff7e
       42835000	      4282	800043d0	01223ab3	sltu	x21,x4,x18	  x4:0x80004154 x18:0x00000066 x21=0x00000000
       42845000	      4283	800043d4	01dc1633	sll	x12,x24,x29	 x24:0xfffffd9d x29:0x800041d4 x12=0xd9d00000
       42855000	      4284	800043d8	014e4663	blt	x28,x20,800043e4	 x28:0x80004234 x20:0x00000001
       42865000	      4285	00000000	00000013	addi	x0,x0,0	  x0:0x00000000
       42875000	      4286	800043e0	00000013	addi	x0,x0,0	  x0:0x00000000
       42885000	      4287	800043e4	0507d463	bge	x15,x16,8000442c	 x15:0xf573b7aa x16:0x00000000
       42895000	      4288	800043e8	386be593	ori	x11,x23,902	 x23:0xfffffdf8 x11=0xfffffffe
       42905000	      4289	800043ec	405a03b3	sub	x7,x20,x5	 x20:0x00000001  x5:0xfffff9d3  x7=0x0000062e
       42915000	      4290	800043f0	915e9297	auipc	x5,0x915e9	  x5=0x115ed3ec
       42925000	      4291	800043f4	444fe993	ori	x19,x31,1092	 x31:0x00000000 x19=0x00000444
       42935000	      4292	800043f8	000d5eb3	srl	x29,x26,x0	 x26:0x80009f78  x0:0x00000000 x29=0x80009f78
       42945000	      4293	800043fc	025ce263	bltu	x25,x5,80004420	 x25:0x80004178  x5:0x115ed3ec
       42955000	      4294	80004400	01ad4e33	xor	x28,x26,x26	 x26:0x80009f78 x26:0x80009f78 x28=0x00000000
       42965000	      4295	80004404	01c515b3	sll	x11,x10,x28	 x10:0x00000000 x28:0x00000000 x11=0x00000000
       42975000	      4296	80004408	41d68133	sub	x2,x13,x29	 x13:0x7fffbfef x29:0x80009f78  x2=0xffff2077
       42985000	      4297	8000440c	01ab7a63	bgeu	x22,x26,80004420	 x22:0xedf36000 x26:0x80009f78
       42995000	      4298	00000000	00000013	addi	x0,x0,0	  x0:0x00000000
       43005000	      4299	8000441c	00000013	addi	x0,x0,0	  x0:0x00000000
       43015000	      4300	80004420	2103fb93	andi	x23,x7,528	  x7:0x0000062e x23=0x00000200
       43025000	      4301	80004424	0009c9b3	xor	x19,x19,x0	 x19:0x00000444  x0:0x00000000 x19=0x00000444
       43035000	      4302	80004428	00000013	addi	x0,x0,0	  x0:0x00000000
       43045000	      4303	8000442c	41388533	sub	x10,x17,x19	 x17:0x80009fc4 x19:0x00000444 x10=0x80009b80
       43055000	      4304	80004430	02dbca63	blt	x23,x13,80004464	 x23:0x00000200 x13:0x7fffbfef
       43065000	      4305	00000000	00000013	addi	x0,x0,0	  x0:0x00000000
       43075000	      4306	80004460	00000013	addi	x0,x0,0	  x0:0x00000000
       43085000	      4307	80004464	03438663	beq	x7,x20,80004490	  x7:0x0000062e x20:0x00000001
       43095000	      4308	80004468	38b96693	ori	x13,x18,907	 x18:0x00000066 x13=0x000003ef
       43105000	      4309	8000446c	019a5193	srli	x3,x20,0x19	 x20:0x00000001  x3=0x00000000
       43115000	      4310	80004470	0025d933	srl	x18,x11,x2	 x11:0x00000000  x2:0xffff2077 x18=0x00000000
       43125000	      4311	80004474	032ee863	bltu	x29,x18,800044a4	 x29:0x80009f78 x18:0x00000000
       43135000	      4312	80004478	63101037	lui	x0,0x63101	
       43145000	      4313	8000447c	01588663	beq	x17,x21,80004488	 x17:0x80009fc4 x21:0x00000000
       43155000	      4314	80004480	4081d5b3	sra	x11,x3,x8	  x3:0x00000000  x8:0x80004124 x11=0x00000000
       43165000	      4315	80004484	004acf33	xor	x30,x21,x4	 x21:0x00000000  x4:0x80004154 x30=0x80004154
       43175000	      4316	80004488	6c0ccf93	xori	x31,x25,1728	 x25:0x80004178 x31=0x800047b8
       43185000	      4317	8000448c	c8743593	sltiu	x11,x8,-889	  x8:0x80004124 x11=0x00000001
       43195000	      4318	80004490	00964e63	blt	x12,x9,800044ac	 x12:0xd9d00000  x9:0x80004108
       43205000	      4319	80004494	00faea63	bltu	x21,x15,800044a8	 x21:0x00000000 x15:0xf573b7aa
       43215000	      4320	00000000	00000013	addi	x0,x0,0	  x0:0x00000000
       43225000	      4321	800044a4	00000013	addi	x0,x0,0	  x0:0x00000000
       43235000	      4322	800044a8	41705c93	srai	x25,x0,0x17	  x0:0x00000000 x25=0x00000000
       43245000	      4323	800044ac	0001adb3	slt	x27,x3,x0	  x3:0x00000000  x0:0x00000000 x27=0x00000000
       43255000	      4324	800044b0	3f356c93	ori	x25,x10,1011	 x10:0x80009b80 x25=0x80009bf3
       43265000	      4325	800044b4	4a8c4f17	auipc	x30,0x4a8c4	 x30=0xca8c84b0
       43275000	      4326	800044b8	0031fbb3	and	x23,x3,x3	  x3:0x00000000  x3:0x00000000 x23=0x00000000
       43285000	      4327	800044bc	4037d033	sra	x0,x15,x3	 x15:0xf573b7aa  x3:0x00000000
       43295000	      4328	800044c0	40455f33	sra	x30,x10,x4	 x10:0x80009b80  x4:0x80004154 x30=0xfffff800
       43305000	      4329	800044c4	023a9663	bne	x21,x3,800044f0	 x21:0x00000000  x3:0x00000000
       43315000	      4330	800044c8	03e40a63	beq	x8,x30,800044fc	  x8:0x80004124 x30:0xfffff800
       43325000	      4331	800044cc	ef4a2113	slti	x2,x20,-268	 x20:0x00000001  x2=0x00000000
       43335000	      4332	800044d0	cf7e2693	slti	x13,x28,-777	 x28:0x00000000 x13=0x00000000
       43345000	      4333	800044d4	017a9693	slli	x13,x21,0x17	 x21:0x00000000 x13=0x00000000
       43355000	      4334	800044d8	00e041b3	xor	x3,x0,x14	  x0:0x00000000 x14:0x00000000  x3=0x00000000
       43365000	      4335	800044dc	40c984b3	sub	x9,x19,x12	 x19:0x00000444 x12:0xd9d00000  x9=0x26300444
       43375000	      4336	800044e0	01d296b3	sll	x13,x5,x29	  x5:0x115ed3ec x29:0x80009f78 x13=0xec000000
       43385000	      4337	800044e4	006d6f33	or	x30,x26,x6	 x26:0x80009f78  x6:0x80003ccb x30=0x8000bffb
       43395000	      4338	800044e8	03346263	bltu	x8,x19,8000450c	  x8:0x80004124 x19:0x00000444
       43405000	      4339	800044ec	002a1213	slli	x4,x20,0x2	 x20:0x00000001  x4=0x00000004
       43415000	      4340	800044f0	003483b3	add	x7,x9,x3	  x9:0x26300444  x3:0x00000000  x7=0x26300444
       43425000	      4341	800044f4	00000013	addi	x0,x0,0	  x0:0x00000000
       43435000	      4342	800044f8	01db4033	xor	x0,x22,x29	 x22:0xedf36000 x29:0x80009f78
       43445000	      4343	800044fc	01c2f863	bgeu	x5,x28,8000450c	  x5:0x115ed3ec x28:0x00000000
       43455000	      4344	00000000	00000013	addi	x0,x0,0	  x0:0x00000000
       43465000	      4345	80004508	00000013	addi	x0,x0,0	  x0:0x00000000
       43475000	      4346	8000450c	af834817	auipc	x16,0xaf834	 x16=0x2f838508
       43485000	      4347	80004510	1edaac13	slti	x24,x21,493	 x21:0x00000000 x24=0x00000001
       43495000	      4348	80004514	00000013	addi	x0,x0,0	  x0:0x00000000
       43505000	      4349	80004518	0098d863	bge	x17,x9,80004528	 x17:0x80009fc4  x9:0x26300444
       43515000	      4350	8000451c	75744e13	xori	x28,x8,1879	  x8:0x80004124 x28=0x80004673
       43525000	      4351	80004520	01375e33	srl	x28,x14,x19	 x14:0x00000000 x19:0x00000444 x28=0x00000000
       43535000	      4352	80004524	41a28cb3	sub	x25,x5,x26	  x5:0x115ed3ec x26:0x80009f78 x25=0x915e3474
       43545000	      4353	80004528	00f7bfb3	sltu	x31,x15,x15	 x15:0xf573b7aa x15:0xf573b7aa x31=0x00000000
       43555000	      4354	8000452c	047e4463	blt	x28,x7,80004574	 x28:0x00000000  x7:0x26300444
       43565000	      4355	00000000	00000013	addi	x0,x0,0	  x0:0x00000000
       43575000	      4356	80004570	00000013	addi	x0,x0,0	  x0:0x00000000
       43585000	      4357	80004574	01c99d93	slli	x27,x19,0x1c	 x19:0x00000444 x27=0x40000000
       43595000	      4358	80004578	c547b493	sltiu	x9,x15,-940	 x15:0xf573b7aa  x9=0x00000001
       43605000	      4359	8000457c	4110db93	srai	x23,x1,0x11	  x1:0xa6293000 x23=0xffffd314
       43615000	      4360	80004580	00675933	srl	x18,x14,x6	 x14:0x00000000  x6:0x80003ccb x18=0x00000000
       43625000	      4361	80004584	105fb093	sltiu	x1,x31,261	 x31:0x00000000  x1=0x00000001
       43635000	      4362	80004588	002e6c63	bltu	x28,x2,800045a0	 x28:0x00000000  x2:0x00000000
       43645000	      4363	8000458c	00d71193	slli	x3,x14,0xd	 x14:0x00000000  x3=0x00000000
       43655000	      4364	80004590	415100b3	sub	x1,x2,x21	  x2:0x00000000 x21:0x00000000  x1=0x00000000
       43665000	      4365	80004594	00650e63	beq	x10,x6,800045b0	 x10:0x80009b80  x6:0x80003ccb
       43675000	      4366	80004598	008b8e33	add	x28,x23,x8	 x23:0xffffd314  x8:0x80004124 x28=0x80001438
       43685000	      4367	8000459c	40695133	sra	x2,x18,x6	 x18:0x00000000  x6:0x80003ccb  x2=0x00000000
       43695000	      4368	800045a0	01b35e93	srli	x29,x6,0x1b	  x6:0x80003ccb x29=0x00000010
       43705000	      4369	800045a4	02f74c63	blt	x14,x15,800045dc	 x14:0x00000000 x15:0xf573b7aa
       43715000	      4370	800045a8	03448a93	addi	x21,x9,52	  x9:0x00000001 x21=0x00000035
       43725000	      4371	800045ac	00e4eab3	or	x21,x9,x14	  x9:0x00000001 x14:0x00000000 x21=0x00000001
       43735000	      4372	800045b0	403c0bb3	sub	x23,x24,x3	 x24:0x00000001  x3:0x00000000 x23=0x00000001
       43745000	      4373	800045b4	00a89433	sll	x8,x17,x10	 x17:0x80009fc4 x10:0x80009b80  x8=0x80009fc4
       43755000	      4374	800045b8	405edb13	srai	x22,x29,0x5	 x29:0x00000010 x22=0x00000000
       43765000	      4375	800045bc	00395e33	srl	x28,x18,x3	 x18:0x00000000  x3:0x00000000 x28=0x00000000
       43775000	      4376	800045c0	3233eb93	ori	x23,x7,803	  x7:0x26300444 x23=0x26300767
       43785000	      4377	800045c4	01c60eb3	add	x29,x12,x28	 x12:0xd9d00000 x28:0x00000000 x29=0xd9d00000
       43795000	      4378	800045c8	00630b33	add	x22,x6,x6	  x6:0x80003ccb  x6:0x80003ccb x22=0x00007996
       43805000	      4379	800045cc	0573e863	bltu	x7,x23,8000461c	  x7:0x26300444 x23:0x26300767
       43815000	      4380	00000000	00000013	addi	x0,x0,0	  x0:0x00000000
       43825000	      4381	80004618	00000013	addi	x0,x0,0	  x0:0x00000000
       43835000	      4382	8000461c	5abfe113	ori	x2,x31,1451	 x31:0x00000000  x2=0x000005ab
       43845000	      4383	80004620	00d45913	srli	x18,x8,0xd	  x8:0x80009fc4 x18=0x00040004
       43855000	      4384	80004624	81d48313	addi	x6,x9,-2019	  x9:0x00000001  x6=0xfffff81e
       43865000	      4385	80004628	018beb33	or	x22,x23,x24	 x23:0x26300767 x24:0x00000001 x22=0x26300767
       43875000	      4386	8000462c	019db9b3	sltu	x19,x27,x25	 x27:0x40000000 x25:0x915e3474 x19=0x00000001
       43885000	      4387	80004630	008a3033	sltu	x0,x20,x8	 x20:0x00000001  x8:0x80009fc4
       43895000	      4388	80004634	41488833	sub	x16,x17,x20	 x17:0x80009fc4 x20:0x00000001 x16=0x80009fc3
       43905000	      4389	80004638	004d2303	lw	x6,4(x26)	 x26:0x80009f78  x6=0x80000150 PA:0x80009f7c
       43915000	      4390	8000463c	972f6013	ori	x0,x30,-1678	 x30:0x8000bffb
       43925000	      4391	80004640	41a25013	srai	x0,x4,0x1a	  x4:0x00000004
       43935000	      4392	80004644	00cd0d13	addi	x26,x26,12	 x26:0x80009f78 x26=0x80009f84
       43945000	      4393	80004648	405f5993	srai	x19,x30,0x5	 x30:0x8000bffb x19=0xfc0005ff
       43955000	      4394	8000464c	00130a93	addi	x21,x6,1	  x6:0x80000150 x21=0x80000151
       43965000	      4395	80004650	000a8ae7	jalr	x21,x21,0	 x21:0x80000151 x21=0x80004650
       43975000	      4396	00000000	00000013	addi	x0,x0,0	  x0:0x00000000
       43985000	      4397	80000150	00000013	addi	x0,x0,0	  x0:0x00000000
       43995000	      4398	80000154	90817517	auipc	x10,0x90817	 x10=0x10817150
       44005000	      4399	80000158	01143833	sltu	x16,x8,x17	  x8:0x80009fc4 x17:0x80009fc4 x16=0x00000000
       44015000	      4400	8000015c	00004317	auipc	x6,0x4	  x6=0x80004158
       44025000	      4401	80000160	f3430313	addi	x6,x6,-204	  x6:0x80004158  x6=0x8000408c
       44035000	      4402	80000164	00000013	addi	x0,x0,0	  x0:0x00000000
       44045000	      4403	80000168	00000013	addi	x0,x0,0	  x0:0x00000000
       44055000	      4404	8000016c	40600733	sub	x14,x0,x6	  x0:0x00000000  x6:0x8000408c x14=0x7fffbf74
       44065000	      4405	80000170	17030313	addi	x6,x6,368	  x6:0x8000408c  x6=0x800041fc
       44075000	      4406	80000174	40ff5433	sra	x8,x30,x15	 x30:0x8000bffb x15:0xf573b7aa  x8=0xffe0002f
       44085000	      4407	80000178	009e1e33	sll	x28,x28,x9	 x28:0x00000000  x9:0x00000001 x28=0x00000000
       44095000	      4408	8000017c	e9130367	jalr	x6,x6,-367	  x6:0x800041fc  x6=0x8000017c
       44105000	      4409	00000000	00000013	addi	x0,x0,0	  x0:0x00000000
       44115000	      4410	8000408c	00000013	addi	x0,x0,0	  x0:0x00000000
       44125000	      4411	80004090	002dc833	xor	x16,x27,x2	 x27:0x40000000  x2:0x000005ab x16=0x400005ab
       44135000	      4412	80004094	0079d463	bge	x19,x7,8000409c	 x19:0xfc0005ff  x7:0x26300444
       44145000	      4413	80004098	01689113	slli	x2,x17,0x16	 x17:0x80009fc4  x2=0xf1000000
       44155000	      4414	8000409c	ff4d0d13	addi	x26,x26,-12	 x26:0x80009f84 x26=0x80009f78
       44165000	      4415	800040a0	006d2223	sw	x6,4(x26)	 x26:0x80009f78  x6:0x8000017c PA:0x80009f7c
       44175000	      4416	800040a4	017701b3	add	x3,x14,x23	 x14:0x7fffbf74 x23:0x26300767  x3=0xa62fc6db
       44185000	      4417	800040a8	00ac2633	slt	x12,x24,x10	 x24:0x00000001 x10:0x10817150 x12=0x00000001
       44195000	      4418	800040ac	417a5b33	sra	x22,x20,x23	 x20:0x00000001 x23:0x26300767 x22=0x00000000
       44205000	      4419	800040b0	40a48933	sub	x18,x9,x10	  x9:0x00000001 x10:0x10817150 x18=0xef7e8eb1
       44215000	      4420	800040b4	fffffb97	auipc	x23,0xfffff	 x23=0x800030b0
       44225000	      4421	800040b8	d6cb8b93	addi	x23,x23,-660	 x23:0x800030b0 x23=0x80002e1c
       44235000	      4422	800040bc	014fcdb3	xor	x27,x31,x20	 x31:0x00000000 x20:0x00000001 x27=0x00000001
       44245000	      4423	800040c0	9ac87393	andi	x7,x16,-1620	 x16:0x400005ab  x7=0x400001a8
       44255000	      4424	800040c4	00755513	srli	x10,x10,0x7	 x10:0x10817150 x10=0x002102e2
       44265000	      4425	800040c8	056b8b93	addi	x23,x23,86	 x23:0x80002e1c x23=0x80002e72
       44275000	      4426	800040cc	00000013	addi	x0,x0,0	  x0:0x00000000
       44285000	      4427	800040d0	eee48013	addi	x0,x9,-274	  x9:0x00000001
       44295000	      4428	800040d4	00b90463	beq	x18,x11,800040dc	 x18:0xef7e8eb1 x11:0x00000001
       44305000	      4429	800040d8	0181fcb3	and	x25,x3,x24	  x3:0xa62fc6db x24:0x00000001 x25=0x00000001
       44315000	      4430	800040dc	fabb8367	jalr	x6,x23,-85	 x23:0x80002e72  x6=0x800040dc
       44325000	      4431	00000000	00000013	addi	x0,x0,0	  x0:0x00000000
       44335000	      4432	80002e1c	00000013	addi	x0,x0,0	  x0:0x00000000
       44345000	      4433	80002e20	00ad4263	blt	x26,x10,80002e24	 x26:0x80009f78 x10:0x002102e2
       44355000	      4434	00000000	00000013	addi	x0,x0,0	  x0:0x00000000
       44365000	      4435	80002e20	00000013	addi	x0,x0,0	  x0:0x00000000
       44375000	      4436	80002e24	fe4d0d13	addi	x26,x26,-28	 x26:0x80009f78 x26=0x80009f5c
       44385000	      4437	80002e28	65636213	ori	x4,x6,1622	  x6:0x800040dc  x4=0x800046de
       44395000	      4438	80002e2c	907c0613	addi	x12,x24,-1785	 x24:0x00000001 x12=0xfffff908
       44405000	      4439	80002e30	01f7f033	and	x0,x15,x31	 x15:0xf573b7aa x31:0x00000000
       44415000	      4440	80002e34	49877f37	lui	x30,0x49877	 x30=0x49877000
       44425000	      4441	80002e38	006d2223	sw	x6,4(x26)	 x26:0x80009f5c  x6:0x800040dc PA:0x80009f60
       44435000	      4442	80002e3c	42dd3113	sltiu	x2,x26,1069	 x26:0x80009f5c  x2=0x00000000
       44445000	      4443	80002e40	013f5b93	srli	x23,x30,0x13	 x30:0x49877000 x23=0x00000930
       44455000	      4444	80002e44	14a54413	xori	x8,x10,330	 x10:0x002102e2  x8=0x002103a8
       44465000	      4445	80002e48	015b53b3	srl	x7,x22,x21	 x22:0x00000000 x21:0x80004650  x7=0x00000000
       44475000	      4446	80002e4c	2f75b313	sltiu	x6,x11,759	 x11:0x00000001  x6=0x00000001
       44485000	      4447	80002e50	00fb66b3	or	x13,x22,x15	 x22:0x00000000 x15:0xf573b7aa x13=0xf573b7aa
       44495000	      4448	80002e54	00e184b3	add	x9,x3,x14	  x3:0xa62fc6db x14:0x7fffbf74  x9=0x262f864f
       44505000	      4449	80002e58	00d5c863	blt	x11,x13,80002e68	 x11:0x00000001 x13:0xf573b7aa
       44515000	      4450	80002e5c	4130d633	sra	x12,x1,x19	  x1:0x00000000 x19:0xfc0005ff x12=0x00000000
       44525000	      4451	80002e60	40745a13	srai	x20,x8,0x7	  x8:0x002103a8 x20=0x00004207
       44535000	      4452	80002e64	4104d713	srai	x14,x9,0x10	  x9:0x262f864f x14=0x0000262f
       44545000	      4453	80002e68	904fe36f	jal	x6,80002e68	  x6=0x80002e68
       44555000	      4454	00000000	00000013	addi	x0,x0,0	  x0:0x00000000
       44565000	      4455	80000f68	00000013	addi	x0,x0,0	  x0:0x00000000
       44575000	      4456	80000f6c	fd0d0d13	addi	x26,x26,-48	 x26:0x80009f5c x26=0x80009f2c
       44585000	      4457	80000f70	8a6ae913	ori	x18,x21,-1882	 x21:0x80004650 x18=0xfffffef6
       44595000	      4458	80000f74	01345293	srli	x5,x8,0x13	  x8:0x002103a8  x5=0x00000004
       44605000	      4459	80000f78	006d2223	sw	x6,4(x26)	 x26:0x80009f2c  x6:0x80002e68 PA:0x80009f30
       44615000	      4460	80000f7c	01c5c733	xor	x14,x11,x28	 x11:0x00000001 x28:0x00000000 x14=0x00000001
       44625000	      4461	80000f80	0100036f	jal	x6,80000f80	  x6=0x80000f80
       44635000	      4462	00000000	00000013	addi	x0,x0,0	  x0:0x00000000
       44645000	      4463	80000f8c	00000013	addi	x0,x0,0	  x0:0x00000000
       44655000	      4464	80000f90	0140036f	jal	x6,80000f90	  x6=0x80000f90
       44665000	      4465	00000000	00000013	addi	x0,x0,0	  x0:0x00000000
       44675000	      4466	80000fa0	00000013	addi	x0,x0,0	  x0:0x00000000
       44685000	      4467	80000fa4	ff5ff0ef	jal	x1,80000fa4	  x1=0x80000fa4
       44695000	      4468	00000000	00000013	addi	x0,x0,0	  x0:0x00000000
       44705000	      4469	80000f94	00000013	addi	x0,x0,0	  x0:0x00000000
       44715000	      4470	80000f98	ff5ff2ef	jal	x5,80000f98	  x5=0x80000f98
       44725000	      4471	00000000	00000013	addi	x0,x0,0	  x0:0x00000000
       44735000	      4472	80000f88	00000013	addi	x0,x0,0	  x0:0x00000000
       44745000	      4473	80000f8c	01c004ef	jal	x9,80000f8c	  x9=0x80000f8c
       44755000	      4474	00000000	00000013	addi	x0,x0,0	  x0:0x00000000
       44765000	      4475	80000fa4	00000013	addi	x0,x0,0	  x0:0x00000000
       44775000	      4476	80000fa8	ff9ff0ef	jal	x1,80000fa8	  x1=0x80000fa8
       44785000	      4477	00000000	00000013	addi	x0,x0,0	  x0:0x00000000
       44795000	      4478	80000f9c	00000013	addi	x0,x0,0	  x0:0x00000000
       44805000	      4479	80000fa0	fe5ff0ef	jal	x1,80000fa0	  x1=0x80000fa0
       44815000	      4480	00000000	00000013	addi	x0,x0,0	  x0:0x00000000
       44825000	      4481	80000f80	00000013	addi	x0,x0,0	  x0:0x00000000
       44835000	      4482	80000f84	0100036f	jal	x6,80000f84	  x6=0x80000f84
       44845000	      4483	00000000	00000013	addi	x0,x0,0	  x0:0x00000000
       44855000	      4484	80000f90	00000013	addi	x0,x0,0	  x0:0x00000000
       44865000	      4485	80000f94	ff5ff36f	jal	x6,80000f94	  x6=0x80000f94
       44875000	      4486	00000000	00000013	addi	x0,x0,0	  x0:0x00000000
       44885000	      4487	80000f84	00000013	addi	x0,x0,0	  x0:0x00000000
       44895000	      4488	80000f88	0140036f	jal	x6,80000f88	  x6=0x80000f88
       44905000	      4489	00000000	00000013	addi	x0,x0,0	  x0:0x00000000
       44915000	      4490	80000f98	00000013	addi	x0,x0,0	  x0:0x00000000
       44925000	      4491	80000f9c	010000ef	jal	x1,80000f9c	  x1=0x80000f9c
       44935000	      4492	00000000	00000013	addi	x0,x0,0	  x0:0x00000000
       44945000	      4493	80000fa8	00000013	addi	x0,x0,0	  x0:0x00000000
       44955000	      4494	80000fac	0040016f	jal	x2,80000fac	  x2=0x80000fac
       44965000	      4495	00000000	00000013	addi	x0,x0,0	  x0:0x00000000
       44975000	      4496	80000fac	00000013	addi	x0,x0,0	  x0:0x00000000
       44985000	      4497	80000fb0	0048b2b3	sltu	x5,x17,x4	 x17:0x80009fc4  x4:0x800046de  x5=0x00000000
       44995000	      4498	80000fb4	06c0036f	jal	x6,80000fb4	  x6=0x80000fb4
       45005000	      4499	00000000	00000013	addi	x0,x0,0	  x0:0x00000000
       45015000	      4500	8000101c	00000013	addi	x0,x0,0	  x0:0x00000000
       45025000	      4501	80001020	fe5ff66f	jal	x12,80001020	 x12=0x80001020
       45035000	      4502	00000000	00000013	addi	x0,x0,0	  x0:0x00000000
       45045000	      4503	80001000	00000013	addi	x0,x0,0	  x0:0x00000000
       45055000	      4504	80001004	fbdff36f	jal	x6,80001004	  x6=0x80001004
       45065000	      4505	00000000	00000013	addi	x0,x0,0	  x0:0x00000000
       45075000	      4506	80000fbc	00000013	addi	x0,x0,0	  x0:0x00000000
       45085000	      4507	80000fc0	05c005ef	jal	x11,80000fc0	 x11=0x80000fc0
       45095000	      4508	00000000	00000013	addi	x0,x0,0	  x0:0x00000000
       45105000	      4509	80001018	00000013	addi	x0,x0,0	  x0:0x00000000
       45115000	      4510	8000101c	fadff36f	jal	x6,8000101c	  x6=0x8000101c
       45125000	      4511	00000000	00000013	addi	x0,x0,0	  x0:0x00000000
       45135000	      4512	80000fc4	00000013	addi	x0,x0,0	  x0:0x00000000
       45145000	      4513	80000fc8	030000ef	jal	x1,80000fc8	  x1=0x80000fc8
       45155000	      4514	00000000	00000013	addi	x0,x0,0	  x0:0x00000000
       45165000	      4515	80000ff4	00000013	addi	x0,x0,0	  x0:0x00000000
       45175000	      4516	80000ff8	ffdff36f	jal	x6,80000ff8	  x6=0x80000ff8
       45185000	      4517	00000000	00000013	addi	x0,x0,0	  x0:0x00000000
       45195000	      4518	80000ff0	00000013	addi	x0,x0,0	  x0:0x00000000
       45205000	      4519	80000ff4	ff5ff0ef	jal	x1,80000ff4	  x1=0x80000ff4
       45215000	      4520	00000000	00000013	addi	x0,x0,0	  x0:0x00000000
       45225000	      4521	80000fe4	00000013	addi	x0,x0,0	  x0:0x00000000
       45235000	      4522	80000fe8	ff9ffb6f	jal	x22,80000fe8	 x22=0x80000fe8
       45245000	      4523	00000000	00000013	addi	x0,x0,0	  x0:0x00000000
       45255000	      4524	80000fdc	00000013	addi	x0,x0,0	  x0:0x00000000
       45265000	      4525	80000fe0	fe5ff0ef	jal	x1,80000fe0	  x1=0x80000fe0
       45275000	      4526	00000000	00000013	addi	x0,x0,0	  x0:0x00000000
       45285000	      4527	80000fc0	00000013	addi	x0,x0,0	  x0:0x00000000
       45295000	      4528	80000fc4	038000ef	jal	x1,80000fc4	  x1=0x80000fc4
       45305000	      4529	00000000	00000013	addi	x0,x0,0	  x0:0x00000000
       45315000	      4530	80000ff8	00000013	addi	x0,x0,0	  x0:0x00000000
       45325000	      4531	80000ffc	01800f6f	jal	x30,80000ffc	 x30=0x80000ffc
       45335000	      4532	00000000	00000013	addi	x0,x0,0	  x0:0x00000000
       45345000	      4533	80001010	00000013	addi	x0,x0,0	  x0:0x00000000
       45355000	      4534	80001014	fa5ff3ef	jal	x7,80001014	  x7=0x80001014
       45365000	      4535	00000000	00000013	addi	x0,x0,0	  x0:0x00000000
       45375000	      4536	80000fb4	00000013	addi	x0,x0,0	  x0:0x00000000
       45385000	      4537	80000fb8	004000ef	jal	x1,80000fb8	  x1=0x80000fb8
       45395000	      4538	00000000	00000013	addi	x0,x0,0	  x0:0x00000000
       45405000	      4539	80000fb8	00000013	addi	x0,x0,0	  x0:0x00000000
       45415000	      4540	80000fbc	0180036f	jal	x6,80000fbc	  x6=0x80000fbc
       45425000	      4541	00000000	00000013	addi	x0,x0,0	  x0:0x00000000
       45435000	      4542	80000fd0	00000013	addi	x0,x0,0	  x0:0x00000000
       45445000	      4543	80000fd4	0440036f	jal	x6,80000fd4	  x6=0x80000fd4
       45455000	      4544	00000000	00000013	addi	x0,x0,0	  x0:0x00000000
       45465000	      4545	80001014	00000013	addi	x0,x0,0	  x0:0x00000000
       45475000	      4546	80001018	fc1ff26f	jal	x4,80001018	  x4=0x80001018
       45485000	      4547	00000000	00000013	addi	x0,x0,0	  x0:0x00000000
       45495000	      4548	80000fd4	00000013	addi	x0,x0,0	  x0:0x00000000
       45505000	      4549	80000fd8	0140076f	jal	x14,80000fd8	 x14=0x80000fd8
       45515000	      4550	00000000	00000013	addi	x0,x0,0	  x0:0x00000000
       45525000	      4551	80000fe8	00000013	addi	x0,x0,0	  x0:0x00000000
       45535000	      4552	80000fec	ff1ff0ef	jal	x1,80000fec	  x1=0x80000fec
       45545000	      4553	00000000	00000013	addi	x0,x0,0	  x0:0x00000000
       45555000	      4554	80000fd8	00000013	addi	x0,x0,0	  x0:0x00000000
       45565000	      4555	80000fdc	0140036f	jal	x6,80000fdc	  x6=0x80000fdc
       45575000	      4556	00000000	00000013	addi	x0,x0,0	  x0:0x00000000
       45585000	      4557	80000fec	00000013	addi	x0,x0,0	  x0:0x00000000
       45595000	      4558	80000ff0	020000ef	jal	x1,80000ff0	  x1=0x80000ff0
       45605000	      4559	00000000	00000013	addi	x0,x0,0	  x0:0x00000000
       45615000	      4560	8000100c	00000013	addi	x0,x0,0	  x0:0x00000000
       45625000	      4561	80001010	ffdff6ef	jal	x13,80001010	 x13=0x80001010
       45635000	      4562	00000000	00000013	addi	x0,x0,0	  x0:0x00000000
       45645000	      4563	80001008	00000013	addi	x0,x0,0	  x0:0x00000000
       45655000	      4564	8000100c	ffdff0ef	jal	x1,8000100c	  x1=0x8000100c
       45665000	      4565	00000000	00000013	addi	x0,x0,0	  x0:0x00000000
       45675000	      4566	80001004	00000013	addi	x0,x0,0	  x0:0x00000000
       45685000	      4567	80001008	fc9ffbef	jal	x23,80001008	 x23=0x80001008
       45695000	      4568	00000000	00000013	addi	x0,x0,0	  x0:0x00000000
       45705000	      4569	80000fcc	00000013	addi	x0,x0,0	  x0:0x00000000
       45715000	      4570	80000fd0	030000ef	jal	x1,80000fd0	  x1=0x80000fd0
       45725000	      4571	00000000	00000013	addi	x0,x0,0	  x0:0x00000000
       45735000	      4572	80000ffc	00000013	addi	x0,x0,0	  x0:0x00000000
       45745000	      4573	80001000	fe5ff26f	jal	x4,80001000	  x4=0x80001000
       45755000	      4574	00000000	00000013	addi	x0,x0,0	  x0:0x00000000
       45765000	      4575	80000fe0	00000013	addi	x0,x0,0	  x0:0x00000000
       45775000	      4576	80000fe4	fe9ff76f	jal	x14,80000fe4	 x14=0x80000fe4
       45785000	      4577	00000000	00000013	addi	x0,x0,0	  x0:0x00000000
       45795000	      4578	80000fc8	00000013	addi	x0,x0,0	  x0:0x00000000
       45805000	      4579	80000fcc	0580036f	jal	x6,80000fcc	  x6=0x80000fcc
       45815000	      4580	00000000	00000013	addi	x0,x0,0	  x0:0x00000000
       45825000	      4581	80001020	00000013	addi	x0,x0,0	  x0:0x00000000
       45835000	      4582	80001024	016466b3	or	x13,x8,x22	  x8:0x002103a8 x22:0x80000fe8 x13=0x80210fe8
       45845000	      4583	80001028	0180036f	jal	x6,80001028	  x6=0x80001028
       45855000	      4584	00000000	00000013	addi	x0,x0,0	  x0:0x00000000
       45865000	      4585	8000103c	00000013	addi	x0,x0,0	  x0:0x00000000
       45875000	      4586	80001040	004000ef	jal	x1,80001040	  x1=0x80001040
       45885000	      4587	00000000	00000013	addi	x0,x0,0	  x0:0x00000000
       45895000	      4588	80001040	00000013	addi	x0,x0,0	  x0:0x00000000
       45905000	      4589	80001044	fe9ff0ef	jal	x1,80001044	  x1=0x80001044
       45915000	      4590	00000000	00000013	addi	x0,x0,0	  x0:0x00000000
       45925000	      4591	80001028	00000013	addi	x0,x0,0	  x0:0x00000000
       45935000	      4592	8000102c	0080026f	jal	x4,8000102c	  x4=0x8000102c
       45945000	      4593	00000000	00000013	addi	x0,x0,0	  x0:0x00000000
       45955000	      4594	80001030	00000013	addi	x0,x0,0	  x0:0x00000000
       45965000	      4595	80001034	008000ef	jal	x1,80001034	  x1=0x80001034
       45975000	      4596	00000000	00000013	addi	x0,x0,0	  x0:0x00000000
       45985000	      4597	80001038	00000013	addi	x0,x0,0	  x0:0x00000000
       45995000	      4598	8000103c	00c000ef	jal	x1,8000103c	  x1=0x8000103c
       46005000	      4599	00000000	00000013	addi	x0,x0,0	  x0:0x00000000
       46015000	      4600	80001044	00000013	addi	x0,x0,0	  x0:0x00000000
       46025000	      4601	80001048	008000ef	jal	x1,80001048	  x1=0x80001048
       46035000	      4602	00000000	00000013	addi	x0,x0,0	  x0:0x00000000
       46045000	      4603	8000104c	00000013	addi	x0,x0,0	  x0:0x00000000
       46055000	      4604	80001050	ffdff0ef	jal	x1,80001050	  x1=0x80001050
       46065000	      4605	00000000	00000013	addi	x0,x0,0	  x0:0x00000000
       46075000	      4606	80001048	00000013	addi	x0,x0,0	  x0:0x00000000
       46085000	      4607	8000104c	fedff0ef	jal	x1,8000104c	  x1=0x8000104c
       46095000	      4608	00000000	00000013	addi	x0,x0,0	  x0:0x00000000
       46105000	      4609	80001034	00000013	addi	x0,x0,0	  x0:0x00000000
       46115000	      4610	80001038	ff9ff0ef	jal	x1,80001038	  x1=0x80001038
       46125000	      4611	00000000	00000013	addi	x0,x0,0	  x0:0x00000000
       46135000	      4612	8000102c	00000013	addi	x0,x0,0	  x0:0x00000000
       46145000	      4613	80001030	024000ef	jal	x1,80001030	  x1=0x80001030
       46155000	      4614	00000000	00000013	addi	x0,x0,0	  x0:0x00000000
       46165000	      4615	80001050	00000013	addi	x0,x0,0	  x0:0x00000000
       46175000	      4616	80001054	5ab58193	addi	x3,x11,1451	 x11:0x80000fc0  x3=0x8000156b
       46185000	      4617	80001058	0180036f	jal	x6,80001058	  x6=0x80001058
       46195000	      4618	00000000	00000013	addi	x0,x0,0	  x0:0x00000000
       46205000	      4619	8000106c	00000013	addi	x0,x0,0	  x0:0x00000000
       46215000	      4620	80001070	048000ef	jal	x1,80001070	  x1=0x80001070
       46225000	      4621	00000000	00000013	addi	x0,x0,0	  x0:0x00000000
       46235000	      4622	800010b4	00000013	addi	x0,x0,0	  x0:0x00000000
       46245000	      4623	800010b8	ffdff26f	jal	x4,800010b8	  x4=0x800010b8
       46255000	      4624	00000000	00000013	addi	x0,x0,0	  x0:0x00000000
       46265000	      4625	800010b0	00000013	addi	x0,x0,0	  x0:0x00000000
       46275000	      4626	800010b4	fd5ff36f	jal	x6,800010b4	  x6=0x800010b4
       46285000	      4627	00000000	00000013	addi	x0,x0,0	  x0:0x00000000
       46295000	      4628	80001084	00000013	addi	x0,x0,0	  x0:0x00000000
       46305000	      4629	80001088	020002ef	jal	x5,80001088	  x5=0x80001088
       46315000	      4630	00000000	00000013	addi	x0,x0,0	  x0:0x00000000
       46325000	      4631	800010a4	00000013	addi	x0,x0,0	  x0:0x00000000
       46335000	      4632	800010a8	fedff0ef	jal	x1,800010a8	  x1=0x800010a8
       46345000	      4633	00000000	00000013	addi	x0,x0,0	  x0:0x00000000
       46355000	      4634	80001090	00000013	addi	x0,x0,0	  x0:0x00000000
       46365000	      4635	80001094	fd5ff0ef	jal	x1,80001094	  x1=0x80001094
       46375000	      4636	00000000	00000013	addi	x0,x0,0	  x0:0x00000000
       46385000	      4637	80001064	00000013	addi	x0,x0,0	  x0:0x00000000
       46395000	      4638	80001068	ffdff0ef	jal	x1,80001068	  x1=0x80001068
       46405000	      4639	00000000	00000013	addi	x0,x0,0	  x0:0x00000000
       46415000	      4640	80001060	00000013	addi	x0,x0,0	  x0:0x00000000
       46425000	      4641	80001064	010000ef	jal	x1,80001064	  x1=0x80001064
       46435000	      4642	00000000	00000013	addi	x0,x0,0	  x0:0x00000000
       46445000	      4643	80001070	00000013	addi	x0,x0,0	  x0:0x00000000
       46455000	      4644	80001074	fe9ff1ef	jal	x3,80001074	  x3=0x80001074
       46465000	      4645	00000000	00000013	addi	x0,x0,0	  x0:0x00000000
       46475000	      4646	80001058	00000013	addi	x0,x0,0	  x0:0x00000000
       46485000	      4647	8000105c	030000ef	jal	x1,8000105c	  x1=0x8000105c
       46495000	      4648	00000000	00000013	addi	x0,x0,0	  x0:0x00000000
       46505000	      4649	80001088	00000013	addi	x0,x0,0	  x0:0x00000000
       46515000	      4650	8000108c	018000ef	jal	x1,8000108c	  x1=0x8000108c
       46525000	      4651	00000000	00000013	addi	x0,x0,0	  x0:0x00000000
       46535000	      4652	800010a0	00000013	addi	x0,x0,0	  x0:0x00000000
       46545000	      4653	800010a4	01c0036f	jal	x6,800010a4	  x6=0x800010a4
       46555000	      4654	00000000	00000013	addi	x0,x0,0	  x0:0x00000000
       46565000	      4655	800010bc	00000013	addi	x0,x0,0	  x0:0x00000000
       46575000	      4656	800010c0	fb9ff0ef	jal	x1,800010c0	  x1=0x800010c0
       46585000	      4657	00000000	00000013	addi	x0,x0,0	  x0:0x00000000
       46595000	      4658	80001074	00000013	addi	x0,x0,0	  x0:0x00000000
       46605000	      4659	80001078	fe9ff0ef	jal	x1,80001078	  x1=0x80001078
       46615000	      4660	00000000	00000013	addi	x0,x0,0	  x0:0x00000000
       46625000	      4661	8000105c	00000013	addi	x0,x0,0	  x0:0x00000000
       46635000	      4662	80001060	03c000ef	jal	x1,80001060	  x1=0x80001060
       46645000	      4663	00000000	00000013	addi	x0,x0,0	  x0:0x00000000
       46655000	      4664	80001098	00000013	addi	x0,x0,0	  x0:0x00000000
       46665000	      4665	8000109c	ff5ff36f	jal	x6,8000109c	  x6=0x8000109c
       46675000	      4666	00000000	00000013	addi	x0,x0,0	  x0:0x00000000
       46685000	      4667	8000108c	00000013	addi	x0,x0,0	  x0:0x00000000
       46695000	      4668	80001090	03400aef	jal	x21,80001090	 x21=0x80001090
       46705000	      4669	00000000	00000013	addi	x0,x0,0	  x0:0x00000000
       46715000	      4670	800010c0	00000013	addi	x0,x0,0	  x0:0x00000000
       46725000	      4671	800010c4	fb9ff0ef	jal	x1,800010c4	  x1=0x800010c4
       46735000	      4672	00000000	00000013	addi	x0,x0,0	  x0:0x00000000
       46745000	      4673	80001078	00000013	addi	x0,x0,0	  x0:0x00000000
       46755000	      4674	8000107c	050000ef	jal	x1,8000107c	  x1=0x8000107c
       46765000	      4675	00000000	00000013	addi	x0,x0,0	  x0:0x00000000
       46775000	      4676	800010c8	00000013	addi	x0,x0,0	  x0:0x00000000
       46785000	      4677	800010cc	fa1ff0ef	jal	x1,800010cc	  x1=0x800010cc
       46795000	      4678	00000000	00000013	addi	x0,x0,0	  x0:0x00000000
       46805000	      4679	80001068	00000013	addi	x0,x0,0	  x0:0x00000000
       46815000	      4680	8000106c	0500036f	jal	x6,8000106c	  x6=0x8000106c
       46825000	      4681	00000000	00000013	addi	x0,x0,0	  x0:0x00000000
       46835000	      4682	800010b8	00000013	addi	x0,x0,0	  x0:0x00000000
       46845000	      4683	800010bc	ff1ffe6f	jal	x28,800010bc	 x28=0x800010bc
       46855000	      4684	00000000	00000013	addi	x0,x0,0	  x0:0x00000000
       46865000	      4685	800010a8	00000013	addi	x0,x0,0	  x0:0x00000000
       46875000	      4686	800010ac	fd9ff0ef	jal	x1,800010ac	  x1=0x800010ac
       46885000	      4687	00000000	00000013	addi	x0,x0,0	  x0:0x00000000
       46895000	      4688	80001080	00000013	addi	x0,x0,0	  x0:0x00000000
       46905000	      4689	80001084	04c005ef	jal	x11,80001084	 x11=0x80001084
       46915000	      4690	00000000	00000013	addi	x0,x0,0	  x0:0x00000000
       46925000	      4691	800010cc	00000013	addi	x0,x0,0	  x0:0x00000000
       46935000	      4692	800010d0	ff9ff0ef	jal	x1,800010d0	  x1=0x800010d0
       46945000	      4693	00000000	00000013	addi	x0,x0,0	  x0:0x00000000
       46955000	      4694	800010c4	00000013	addi	x0,x0,0	  x0:0x00000000
       46965000	      4695	800010c8	fd9ff4ef	jal	x9,800010c8	  x9=0x800010c8
       46975000	      4696	00000000	00000013	addi	x0,x0,0	  x0:0x00000000
       46985000	      4697	8000109c	00000013	addi	x0,x0,0	  x0:0x00000000
       46995000	      4698	800010a0	010000ef	jal	x1,800010a0	  x1=0x800010a0
       47005000	      4699	00000000	00000013	addi	x0,x0,0	  x0:0x00000000
       47015000	      4700	800010ac	00000013	addi	x0,x0,0	  x0:0x00000000
       47025000	      4701	800010b0	fd1ff0ef	jal	x1,800010b0	  x1=0x800010b0
       47035000	      4702	00000000	00000013	addi	x0,x0,0	  x0:0x00000000
       47045000	      4703	8000107c	00000013	addi	x0,x0,0	  x0:0x00000000
       47055000	      4704	80001080	018000ef	jal	x1,80001080	  x1=0x80001080
       47065000	      4705	00000000	00000013	addi	x0,x0,0	  x0:0x00000000
       47075000	      4706	80001094	00000013	addi	x0,x0,0	  x0:0x00000000
       47085000	      4707	80001098	03c000ef	jal	x1,80001098	  x1=0x80001098
       47095000	      4708	00000000	00000013	addi	x0,x0,0	  x0:0x00000000
       47105000	      4709	800010d0	00000013	addi	x0,x0,0	  x0:0x00000000
       47115000	      4710	800010d4	f4f08d93	addi	x27,x1,-177	  x1:0x80001098 x27=0x80000fe7
       47125000	      4711	800010d8	0580036f	jal	x6,800010d8	  x6=0x800010d8
       47135000	      4712	00000000	00000013	addi	x0,x0,0	  x0:0x00000000
       47145000	      4713	8000112c	00000013	addi	x0,x0,0	  x0:0x00000000
       47155000	      4714	80001130	ffdff26f	jal	x4,80001130	  x4=0x80001130
       47165000	      4715	00000000	00000013	addi	x0,x0,0	  x0:0x00000000
       47175000	      4716	80001128	00000013	addi	x0,x0,0	  x0:0x00000000
       47185000	      4717	8000112c	fd1ff0ef	jal	x1,8000112c	  x1=0x8000112c
       47195000	      4718	00000000	00000013	addi	x0,x0,0	  x0:0x00000000
       47205000	      4719	800010f8	00000013	addi	x0,x0,0	  x0:0x00000000
       47215000	      4720	800010fc	02400def	jal	x27,800010fc	 x27=0x800010fc
       47225000	      4721	00000000	00000013	addi	x0,x0,0	  x0:0x00000000
       47235000	      4722	8000111c	00000013	addi	x0,x0,0	  x0:0x00000000
       47245000	      4723	80001120	fe9ff66f	jal	x12,80001120	 x12=0x80001120
       47255000	      4724	00000000	00000013	addi	x0,x0,0	  x0:0x00000000
       47265000	      4725	80001104	00000013	addi	x0,x0,0	  x0:0x00000000
       47275000	      4726	80001108	fedfffef	jal	x31,80001108	 x31=0x80001108
       47285000	      4727	00000000	00000013	addi	x0,x0,0	  x0:0x00000000
       47295000	      4728	800010f0	00000013	addi	x0,x0,0	  x0:0x00000000
       47305000	      4729	800010f4	ff1ff0ef	jal	x1,800010f4	  x1=0x800010f4
       47315000	      4730	00000000	00000013	addi	x0,x0,0	  x0:0x00000000
       47325000	      4731	800010e0	00000013	addi	x0,x0,0	  x0:0x00000000
       47335000	      4732	800010e4	0040036f	jal	x6,800010e4	  x6=0x800010e4
       47345000	      4733	00000000	00000013	addi	x0,x0,0	  x0:0x00000000
       47355000	      4734	800010e4	00000013	addi	x0,x0,0	  x0:0x00000000
       47365000	      4735	800010e8	010000ef	jal	x1,800010e8	  x1=0x800010e8
       47375000	      4736	00000000	00000013	addi	x0,x0,0	  x0:0x00000000
       47385000	      4737	800010f4	00000013	addi	x0,x0,0	  x0:0x00000000
       47395000	      4738	800010f8	02c0036f	jal	x6,800010f8	  x6=0x800010f8
       47405000	      4739	00000000	00000013	addi	x0,x0,0	  x0:0x00000000
       47415000	      4740	80001120	00000013	addi	x0,x0,0	  x0:0x00000000
       47425000	      4741	80001124	fe1ffbef	jal	x23,80001124	 x23=0x80001124
       47435000	      4742	00000000	00000013	addi	x0,x0,0	  x0:0x00000000
       47445000	      4743	80001100	00000013	addi	x0,x0,0	  x0:0x00000000
       47455000	      4744	80001104	0080026f	jal	x4,80001104	  x4=0x80001104
       47465000	      4745	00000000	00000013	addi	x0,x0,0	  x0:0x00000000
       47475000	      4746	80001108	00000013	addi	x0,x0,0	  x0:0x00000000
       47485000	      4747	8000110c	fd5ff56f	jal	x10,8000110c	 x10=0x8000110c
       47495000	      4748	00000000	00000013	addi	x0,x0,0	  x0:0x00000000
       47505000	      4749	800010dc	00000013	addi	x0,x0,0	  x0:0x00000000
       47515000	      4750	800010e0	038000ef	jal	x1,800010e0	  x1=0x800010e0
       47525000	      4751	00000000	00000013	addi	x0,x0,0	  x0:0x00000000
       47535000	      4752	80001114	00000013	addi	x0,x0,0	  x0:0x00000000
       47545000	      4753	80001118	fc5ff0ef	jal	x1,80001118	  x1=0x80001118
       47555000	      4754	00000000	00000013	addi	x0,x0,0	  x0:0x00000000
       47565000	      4755	800010d8	00000013	addi	x0,x0,0	  x0:0x00000000
       47575000	      4756	800010dc	0140036f	jal	x6,800010dc	  x6=0x800010dc
       47585000	      4757	00000000	00000013	addi	x0,x0,0	  x0:0x00000000
       47595000	      4758	800010ec	00000013	addi	x0,x0,0	  x0:0x00000000
       47605000	      4759	800010f0	020000ef	jal	x1,800010f0	  x1=0x800010f0
       47615000	      4760	00000000	00000013	addi	x0,x0,0	  x0:0x00000000
       47625000	      4761	8000110c	00000013	addi	x0,x0,0	  x0:0x00000000
       47635000	      4762	80001110	fddff0ef	jal	x1,80001110	  x1=0x80001110
       47645000	      4763	00000000	00000013	addi	x0,x0,0	  x0:0x00000000
       47655000	      4764	800010e8	00000013	addi	x0,x0,0	  x0:0x00000000
       47665000	      4765	800010ec	03c000ef	jal	x1,800010ec	  x1=0x800010ec
       47675000	      4766	00000000	00000013	addi	x0,x0,0	  x0:0x00000000
       47685000	      4767	80001124	00000013	addi	x0,x0,0	  x0:0x00000000
       47695000	      4768	80001128	ff5ff0ef	jal	x1,80001128	  x1=0x80001128
       47705000	      4769	00000000	00000013	addi	x0,x0,0	  x0:0x00000000
       47715000	      4770	80001118	00000013	addi	x0,x0,0	  x0:0x00000000
       47725000	      4771	8000111c	ff9ff0ef	jal	x1,8000111c	  x1=0x8000111c
       47735000	      4772	00000000	00000013	addi	x0,x0,0	  x0:0x00000000
       47745000	      4773	80001110	00000013	addi	x0,x0,0	  x0:0x00000000
       47755000	      4774	80001114	fedff0ef	jal	x1,80001114	  x1=0x80001114
       47765000	      4775	00000000	00000013	addi	x0,x0,0	  x0:0x00000000
       47775000	      4776	800010fc	00000013	addi	x0,x0,0	  x0:0x00000000
       47785000	      4777	80001100	034000ef	jal	x1,80001100	  x1=0x80001100
       47795000	      4778	00000000	00000013	addi	x0,x0,0	  x0:0x00000000
       47805000	      4779	80001130	00000013	addi	x0,x0,0	  x0:0x00000000
       47815000	      4780	80001134	41c2d1b3	sra	x3,x5,x28	  x5:0x80001088 x28:0x800010bc  x3=0xfffffff8
       47825000	      4781	80001138	0200036f	jal	x6,80001138	  x6=0x80001138
       47835000	      4782	00000000	00000013	addi	x0,x0,0	  x0:0x00000000
       47845000	      4783	80001154	00000013	addi	x0,x0,0	  x0:0x00000000
       47855000	      4784	80001158	04c000ef	jal	x1,80001158	  x1=0x80001158
       47865000	      4785	00000000	00000013	addi	x0,x0,0	  x0:0x00000000
       47875000	      4786	800011a0	00000013	addi	x0,x0,0	  x0:0x00000000
       47885000	      4787	800011a4	fbdff0ef	jal	x1,800011a4	  x1=0x800011a4
       47895000	      4788	00000000	00000013	addi	x0,x0,0	  x0:0x00000000
       47905000	      4789	8000115c	00000013	addi	x0,x0,0	  x0:0x00000000
       47915000	      4790	80001160	0480036f	jal	x6,80001160	  x6=0x80001160
       47925000	      4791	00000000	00000013	addi	x0,x0,0	  x0:0x00000000
       47935000	      4792	800011a4	00000013	addi	x0,x0,0	  x0:0x00000000
       47945000	      4793	800011a8	fedff36f	jal	x6,800011a8	  x6=0x800011a8
       47955000	      4794	00000000	00000013	addi	x0,x0,0	  x0:0x00000000
       47965000	      4795	80001190	00000013	addi	x0,x0,0	  x0:0x00000000
       47975000	      4796	80001194	ff9ff36f	jal	x6,80001194	  x6=0x80001194
       47985000	      4797	00000000	00000013	addi	x0,x0,0	  x0:0x00000000
       47995000	      4798	80001188	00000013	addi	x0,x0,0	  x0:0x00000000
       48005000	      4799	8000118c	00c0046f	jal	x8,8000118c	  x8=0x8000118c
       48015000	      4800	00000000	00000013	addi	x0,x0,0	  x0:0x00000000
       48025000	      4801	80001194	00000013	addi	x0,x0,0	  x0:0x00000000
       48035000	      4802	80001198	fbdff0ef	jal	x1,80001198	  x1=0x80001198
       48045000	      4803	00000000	00000013	addi	x0,x0,0	  x0:0x00000000
       48055000	      4804	80001150	00000013	addi	x0,x0,0	  x0:0x00000000
       48065000	      4805	80001154	02c000ef	jal	x1,80001154	  x1=0x80001154
       48075000	      4806	00000000	00000013	addi	x0,x0,0	  x0:0x00000000
       48085000	      4807	8000117c	00000013	addi	x0,x0,0	  x0:0x00000000
       48095000	      4808	80001180	0100016f	jal	x2,80001180	  x2=0x80001180
       48105000	      4809	00000000	00000013	addi	x0,x0,0	  x0:0x00000000
       48115000	      4810	8000118c	00000013	addi	x0,x0,0	  x0:0x00000000
       48125000	      4811	80001190	fe9ff0ef	jal	x1,80001190	  x1=0x80001190
       48135000	      4812	00000000	00000013	addi	x0,x0,0	  x0:0x00000000
       48145000	      4813	80001174	00000013	addi	x0,x0,0	  x0:0x00000000
       48155000	      4814	80001178	fd1ff0ef	jal	x1,80001178	  x1=0x80001178
       48165000	      4815	00000000	00000013	addi	x0,x0,0	  x0:0x00000000
       48175000	      4816	80001144	00000013	addi	x0,x0,0	  x0:0x00000000
       48185000	      4817	80001148	040000ef	jal	x1,80001148	  x1=0x80001148
       48195000	      4818	00000000	00000013	addi	x0,x0,0	  x0:0x00000000
       48205000	      4819	80001184	00000013	addi	x0,x0,0	  x0:0x00000000
       48215000	      4820	80001188	fe5ff0ef	jal	x1,80001188	  x1=0x80001188
       48225000	      4821	00000000	00000013	addi	x0,x0,0	  x0:0x00000000
       48235000	      4822	80001168	00000013	addi	x0,x0,0	  x0:0x00000000
       48245000	      4823	8000116c	ff9ff36f	jal	x6,8000116c	  x6=0x8000116c
       48255000	      4824	00000000	00000013	addi	x0,x0,0	  x0:0x00000000
       48265000	      4825	80001160	00000013	addi	x0,x0,0	  x0:0x00000000
       48275000	      4826	80001164	03c0036f	jal	x6,80001164	  x6=0x80001164
       48285000	      4827	00000000	00000013	addi	x0,x0,0	  x0:0x00000000
       48295000	      4828	8000119c	00000013	addi	x0,x0,0	  x0:0x00000000
       48305000	      4829	800011a0	ffdff36f	jal	x6,800011a0	  x6=0x800011a0
       48315000	      4830	00000000	00000013	addi	x0,x0,0	  x0:0x00000000
       48325000	      4831	80001198	00000013	addi	x0,x0,0	  x0:0x00000000
       48335000	      4832	8000119c	fb5ff0ef	jal	x1,8000119c	  x1=0x8000119c
       48345000	      4833	00000000	00000013	addi	x0,x0,0	  x0:0x00000000
       48355000	      4834	8000114c	00000013	addi	x0,x0,0	  x0:0x00000000
       48365000	      4835	80001150	ff5ff36f	jal	x6,80001150	  x6=0x80001150
       48375000	      4836	00000000	00000013	addi	x0,x0,0	  x0:0x00000000
       48385000	      4837	80001140	00000013	addi	x0,x0,0	  x0:0x00000000
       48395000	      4838	80001144	008000ef	jal	x1,80001144	  x1=0x80001144
       48405000	      4839	00000000	00000013	addi	x0,x0,0	  x0:0x00000000
       48415000	      4840	80001148	00000013	addi	x0,x0,0	  x0:0x00000000
       48425000	      4841	8000114c	010000ef	jal	x1,8000114c	  x1=0x8000114c
       48435000	      4842	00000000	00000013	addi	x0,x0,0	  x0:0x00000000
       48445000	      4843	80001158	00000013	addi	x0,x0,0	  x0:0x00000000
       48455000	      4844	8000115c	fe1ff0ef	jal	x1,8000115c	  x1=0x8000115c
       48465000	      4845	00000000	00000013	addi	x0,x0,0	  x0:0x00000000
       48475000	      4846	80001138	00000013	addi	x0,x0,0	  x0:0x00000000
       48485000	      4847	8000113c	02c0016f	jal	x2,8000113c	  x2=0x8000113c
       48495000	      4848	00000000	00000013	addi	x0,x0,0	  x0:0x00000000
       48505000	      4849	80001164	00000013	addi	x0,x0,0	  x0:0x00000000
       48515000	      4850	80001168	014000ef	jal	x1,80001168	  x1=0x80001168
       48525000	      4851	00000000	00000013	addi	x0,x0,0	  x0:0x00000000
       48535000	      4852	80001178	00000013	addi	x0,x0,0	  x0:0x00000000
       48545000	      4853	8000117c	ff9ff0ef	jal	x1,8000117c	  x1=0x8000117c
       48555000	      4854	00000000	00000013	addi	x0,x0,0	  x0:0x00000000
       48565000	      4855	80001170	00000013	addi	x0,x0,0	  x0:0x00000000
       48575000	      4856	80001174	fcdff36f	jal	x6,80001174	  x6=0x80001174
       48585000	      4857	00000000	00000013	addi	x0,x0,0	  x0:0x00000000
       48595000	      4858	8000113c	00000013	addi	x0,x0,0	  x0:0x00000000
       48605000	      4859	80001140	0300036f	jal	x6,80001140	  x6=0x80001140
       48615000	      4860	00000000	00000013	addi	x0,x0,0	  x0:0x00000000
       48625000	      4861	8000116c	00000013	addi	x0,x0,0	  x0:0x00000000
       48635000	      4862	80001170	014000ef	jal	x1,80001170	  x1=0x80001170
       48645000	      4863	00000000	00000013	addi	x0,x0,0	  x0:0x00000000
       48655000	      4864	80001180	00000013	addi	x0,x0,0	  x0:0x00000000
       48665000	      4865	80001184	028000ef	jal	x1,80001184	  x1=0x80001184
       48675000	      4866	00000000	00000013	addi	x0,x0,0	  x0:0x00000000
       48685000	      4867	800011a8	00000013	addi	x0,x0,0	  x0:0x00000000
       48695000	      4868	800011ac	40625633	sra	x12,x4,x6	  x4:0x80001104  x6:0x80001140 x12=0x80001104
       48705000	      4869	800011b0	0340036f	jal	x6,800011b0	  x6=0x800011b0
       48715000	      4870	00000000	00000013	addi	x0,x0,0	  x0:0x00000000
       48725000	      4871	800011e0	00000013	addi	x0,x0,0	  x0:0x00000000
       48735000	      4872	800011e4	00c000ef	jal	x1,800011e4	  x1=0x800011e4
       48745000	      4873	00000000	00000013	addi	x0,x0,0	  x0:0x00000000
       48755000	      4874	800011ec	00000013	addi	x0,x0,0	  x0:0x00000000
       48765000	      4875	800011f0	01c000ef	jal	x1,800011f0	  x1=0x800011f0
       48775000	      4876	00000000	00000013	addi	x0,x0,0	  x0:0x00000000
       48785000	      4877	80001208	00000013	addi	x0,x0,0	  x0:0x00000000
       48795000	      4878	8000120c	fbdff0ef	jal	x1,8000120c	  x1=0x8000120c
       48805000	      4879	00000000	00000013	addi	x0,x0,0	  x0:0x00000000
       48815000	      4880	800011c4	00000013	addi	x0,x0,0	  x0:0x00000000
       48825000	      4881	800011c8	ff1ff16f	jal	x2,800011c8	  x2=0x800011c8
       48835000	      4882	00000000	00000013	addi	x0,x0,0	  x0:0x00000000
       48845000	      4883	800011b4	00000013	addi	x0,x0,0	  x0:0x00000000
       48855000	      4884	800011b8	024000ef	jal	x1,800011b8	  x1=0x800011b8
       48865000	      4885	00000000	00000013	addi	x0,x0,0	  x0:0x00000000
       48875000	      4886	800011d8	00000013	addi	x0,x0,0	  x0:0x00000000
       48885000	      4887	800011dc	ffdff36f	jal	x6,800011dc	  x6=0x800011dc
       48895000	      4888	00000000	00000013	addi	x0,x0,0	  x0:0x00000000
       48905000	      4889	800011d4	00000013	addi	x0,x0,0	  x0:0x00000000
       48915000	      4890	800011d8	03000bef	jal	x23,800011d8	 x23=0x800011d8
       48925000	      4891	00000000	00000013	addi	x0,x0,0	  x0:0x00000000
       48935000	      4892	80001204	00000013	addi	x0,x0,0	  x0:0x00000000
       48945000	      4893	80001208	fedff36f	jal	x6,80001208	  x6=0x80001208
       48955000	      4894	00000000	00000013	addi	x0,x0,0	  x0:0x00000000
       48965000	      4895	800011f0	00000013	addi	x0,x0,0	  x0:0x00000000
       48975000	      4896	800011f4	fedff36f	jal	x6,800011f4	  x6=0x800011f4
       48985000	      4897	00000000	00000013	addi	x0,x0,0	  x0:0x00000000
       48995000	      4898	800011dc	00000013	addi	x0,x0,0	  x0:0x00000000
       49005000	      4899	800011e0	0200036f	jal	x6,800011e0	  x6=0x800011e0
       49015000	      4900	00000000	00000013	addi	x0,x0,0	  x0:0x00000000
       49025000	      4901	800011fc	00000013	addi	x0,x0,0	  x0:0x00000000
       49035000	      4902	80001200	fbdff0ef	jal	x1,80001200	  x1=0x80001200
       49045000	      4903	00000000	00000013	addi	x0,x0,0	  x0:0x00000000
       49055000	      4904	800011b8	00000013	addi	x0,x0,0	  x0:0x00000000
       49065000	      4905	800011bc	030000ef	jal	x1,800011bc	  x1=0x800011bc
       49075000	      4906	00000000	00000013	addi	x0,x0,0	  x0:0x00000000
       49085000	      4907	800011e8	00000013	addi	x0,x0,0	  x0:0x00000000
       49095000	      4908	800011ec	01000eef	jal	x29,800011ec	 x29=0x800011ec
       49105000	      4909	00000000	00000013	addi	x0,x0,0	  x0:0x00000000
       49115000	      4910	800011f8	00000013	addi	x0,x0,0	  x0:0x00000000
       49125000	      4911	800011fc	0080056f	jal	x10,800011fc	 x10=0x800011fc
       49135000	      4912	00000000	00000013	addi	x0,x0,0	  x0:0x00000000
       49145000	      4913	80001200	00000013	addi	x0,x0,0	  x0:0x00000000
       49155000	      4914	80001204	ff5ff0ef	jal	x1,80001204	  x1=0x80001204
       49165000	      4915	00000000	00000013	addi	x0,x0,0	  x0:0x00000000
       49175000	      4916	800011f4	00000013	addi	x0,x0,0	  x0:0x00000000
       49185000	      4917	800011f8	fd5ff3ef	jal	x7,800011f8	  x7=0x800011f8
       49195000	      4918	00000000	00000013	addi	x0,x0,0	  x0:0x00000000
       49205000	      4919	800011c8	00000013	addi	x0,x0,0	  x0:0x00000000
       49215000	      4920	800011cc	ff5ff0ef	jal	x1,800011cc	  x1=0x800011cc
       49225000	      4921	00000000	00000013	addi	x0,x0,0	  x0:0x00000000
       49235000	      4922	800011bc	00000013	addi	x0,x0,0	  x0:0x00000000
       49245000	      4923	800011c0	ff5ff36f	jal	x6,800011c0	  x6=0x800011c0
       49255000	      4924	00000000	00000013	addi	x0,x0,0	  x0:0x00000000
       49265000	      4925	800011b0	00000013	addi	x0,x0,0	  x0:0x00000000
       49275000	      4926	800011b4	0340036f	jal	x6,800011b4	  x6=0x800011b4
       49285000	      4927	00000000	00000013	addi	x0,x0,0	  x0:0x00000000
       49295000	      4928	800011e4	00000013	addi	x0,x0,0	  x0:0x00000000
       49305000	      4929	800011e8	fedff0ef	jal	x1,800011e8	  x1=0x800011e8
       49315000	      4930	00000000	00000013	addi	x0,x0,0	  x0:0x00000000
       49325000	      4931	800011d0	00000013	addi	x0,x0,0	  x0:0x00000000
       49335000	      4932	800011d4	ff1ff0ef	jal	x1,800011d4	  x1=0x800011d4
       49345000	      4933	00000000	00000013	addi	x0,x0,0	  x0:0x00000000
       49355000	      4934	800011c0	00000013	addi	x0,x0,0	  x0:0x00000000
       49365000	      4935	800011c4	00c0036f	jal	x6,800011c4	  x6=0x800011c4
       49375000	      4936	00000000	00000013	addi	x0,x0,0	  x0:0x00000000
       49385000	      4937	800011cc	00000013	addi	x0,x0,0	  x0:0x00000000
       49395000	      4938	800011d0	0400016f	jal	x2,800011d0	  x2=0x800011d0
       49405000	      4939	00000000	00000013	addi	x0,x0,0	  x0:0x00000000
       49415000	      4940	8000120c	00000013	addi	x0,x0,0	  x0:0x00000000
       49425000	      4941	80001210	00000013	addi	x0,x0,0	  x0:0x00000000
       49435000	      4942	80001214	0440036f	jal	x6,80001214	  x6=0x80001214
       49445000	      4943	00000000	00000013	addi	x0,x0,0	  x0:0x00000000
       49455000	      4944	80001254	00000013	addi	x0,x0,0	  x0:0x00000000
       49465000	      4945	80001258	ff9ff0ef	jal	x1,80001258	  x1=0x80001258
       49475000	      4946	00000000	00000013	addi	x0,x0,0	  x0:0x00000000
       49485000	      4947	8000124c	00000013	addi	x0,x0,0	  x0:0x00000000
       49495000	      4948	80001250	fd5ffaef	jal	x21,80001250	 x21=0x80001250
       49505000	      4949	00000000	00000013	addi	x0,x0,0	  x0:0x00000000
       49515000	      4950	80001220	00000013	addi	x0,x0,0	  x0:0x00000000
       49525000	      4951	80001224	ff9ff36f	jal	x6,80001224	  x6=0x80001224
       49535000	      4952	00000000	00000013	addi	x0,x0,0	  x0:0x00000000
       49545000	      4953	80001218	00000013	addi	x0,x0,0	  x0:0x00000000
       49555000	      4954	8000121c	00c000ef	jal	x1,8000121c	  x1=0x8000121c
       49565000	      4955	00000000	00000013	addi	x0,x0,0	  x0:0x00000000
       49575000	      4956	80001224	00000013	addi	x0,x0,0	  x0:0x00000000
       49585000	      4957	80001228	008000ef	jal	x1,80001228	  x1=0x80001228
       49595000	      4958	00000000	00000013	addi	x0,x0,0	  x0:0x00000000
       49605000	      4959	8000122c	00000013	addi	x0,x0,0	  x0:0x00000000
       49615000	      4960	80001230	fe9ff36f	jal	x6,80001230	  x6=0x80001230
       49625000	      4961	00000000	00000013	addi	x0,x0,0	  x0:0x00000000
       49635000	      4962	80001214	00000013	addi	x0,x0,0	  x0:0x00000000
       49645000	      4963	80001218	02c000ef	jal	x1,80001218	  x1=0x80001218
       49655000	      4964	00000000	00000013	addi	x0,x0,0	  x0:0x00000000
       49665000	      4965	80001240	00000013	addi	x0,x0,0	  x0:0x00000000
       49675000	      4966	80001244	0100036f	jal	x6,80001244	  x6=0x80001244
       49685000	      4967	00000000	00000013	addi	x0,x0,0	  x0:0x00000000
       49695000	      4968	80001250	00000013	addi	x0,x0,0	  x0:0x00000000
       49705000	      4969	80001254	014000ef	jal	x1,80001254	  x1=0x80001254
       49715000	      4970	00000000	00000013	addi	x0,x0,0	  x0:0x00000000
       49725000	      4971	80001264	00000013	addi	x0,x0,0	  x0:0x00000000
       49735000	      4972	80001268	fc5ff36f	jal	x6,80001268	  x6=0x80001268
       49745000	      4973	00000000	00000013	addi	x0,x0,0	  x0:0x00000000
       49755000	      4974	80001228	00000013	addi	x0,x0,0	  x0:0x00000000
       49765000	      4975	8000122c	040001ef	jal	x3,8000122c	  x3=0x8000122c
       49775000	      4976	00000000	00000013	addi	x0,x0,0	  x0:0x00000000
       49785000	      4977	80001268	00000013	addi	x0,x0,0	  x0:0x00000000
       49795000	      4978	8000126c	fb5ff0ef	jal	x1,8000126c	  x1=0x8000126c
       49805000	      4979	00000000	00000013	addi	x0,x0,0	  x0:0x00000000
       49815000	      4980	8000121c	00000013	addi	x0,x0,0	  x0:0x00000000
       49825000	      4981	80001220	03c00f6f	jal	x30,80001220	 x30=0x80001220
       49835000	      4982	00000000	00000013	addi	x0,x0,0	  x0:0x00000000
       49845000	      4983	80001258	00000013	addi	x0,x0,0	  x0:0x00000000
       49855000	      4984	8000125c	004000ef	jal	x1,8000125c	  x1=0x8000125c
       49865000	      4985	00000000	00000013	addi	x0,x0,0	  x0:0x00000000
       49875000	      4986	8000125c	00000013	addi	x0,x0,0	  x0:0x00000000
       49885000	      4987	80001260	fe9ff0ef	jal	x1,80001260	  x1=0x80001260
       49895000	      4988	00000000	00000013	addi	x0,x0,0	  x0:0x00000000
       49905000	      4989	80001244	00000013	addi	x0,x0,0	  x0:0x00000000
       49915000	      4990	80001248	ff5fffef	jal	x31,80001248	 x31=0x80001248
       49925000	      4991	00000000	00000013	addi	x0,x0,0	  x0:0x00000000
       49935000	      4992	80001238	00000013	addi	x0,x0,0	  x0:0x00000000
       49945000	      4993	8000123c	ffdff6ef	jal	x13,8000123c	 x13=0x8000123c
       49955000	      4994	00000000	00000013	addi	x0,x0,0	  x0:0x00000000
       49965000	      4995	80001234	00000013	addi	x0,x0,0	  x0:0x00000000
       49975000	      4996	80001238	014000ef	jal	x1,80001238	  x1=0x80001238
       49985000	      4997	00000000	00000013	addi	x0,x0,0	  x0:0x00000000
       49995000	      4998	80001248	00000013	addi	x0,x0,0	  x0:0x00000000
       50005000	      4999	8000124c	018000ef	jal	x1,8000124c	  x1=0x8000124c
       50015000	      5000	00000000	00000013	addi	x0,x0,0	  x0:0x00000000
       50025000	      5001	80001260	00000013	addi	x0,x0,0	  x0:0x00000000
       50035000	      5002	80001264	fd1ff36f	jal	x6,80001264	  x6=0x80001264
       50045000	      5003	00000000	00000013	addi	x0,x0,0	  x0:0x00000000
       50055000	      5004	80001230	00000013	addi	x0,x0,0	  x0:0x00000000
       50065000	      5005	80001234	00c002ef	jal	x5,80001234	  x5=0x80001234
       50075000	      5006	00000000	00000013	addi	x0,x0,0	  x0:0x00000000
       50085000	      5007	8000123c	00000013	addi	x0,x0,0	  x0:0x00000000
       50095000	      5008	80001240	0300026f	jal	x4,80001240	  x4=0x80001240
       50105000	      5009	00000000	00000013	addi	x0,x0,0	  x0:0x00000000
       50115000	      5010	8000126c	00000013	addi	x0,x0,0	  x0:0x00000000
       50125000	      5011	80001270	011fb333	sltu	x6,x31,x17	 x31:0x80001248 x17:0x80009fc4  x6=0x00000001
       50135000	      5012	80001274	02c0036f	jal	x6,80001274	  x6=0x80001274
       50145000	      5013	00000000	00000013	addi	x0,x0,0	  x0:0x00000000
       50155000	      5014	8000129c	00000013	addi	x0,x0,0	  x0:0x00000000
       50165000	      5015	800012a0	010000ef	jal	x1,800012a0	  x1=0x800012a0
       50175000	      5016	00000000	00000013	addi	x0,x0,0	  x0:0x00000000
       50185000	      5017	800012ac	00000013	addi	x0,x0,0	  x0:0x00000000
       50195000	      5018	800012b0	fedfffef	jal	x31,800012b0	 x31=0x800012b0
       50205000	      5019	00000000	00000013	addi	x0,x0,0	  x0:0x00000000
       50215000	      5020	80001298	00000013	addi	x0,x0,0	  x0:0x00000000
       50225000	      5021	8000129c	038000ef	jal	x1,8000129c	  x1=0x8000129c
       50235000	      5022	00000000	00000013	addi	x0,x0,0	  x0:0x00000000
       50245000	      5023	800012d0	00000013	addi	x0,x0,0	  x0:0x00000000
       50255000	      5024	800012d4	fb1ff16f	jal	x2,800012d4	  x2=0x800012d4
       50265000	      5025	00000000	00000013	addi	x0,x0,0	  x0:0x00000000
       50275000	      5026	80001280	00000013	addi	x0,x0,0	  x0:0x00000000
       50285000	      5027	80001284	0200016f	jal	x2,80001284	  x2=0x80001284
       50295000	      5028	00000000	00000013	addi	x0,x0,0	  x0:0x00000000
       50305000	      5029	800012a0	00000013	addi	x0,x0,0	  x0:0x00000000
       50315000	      5030	800012a4	018000ef	jal	x1,800012a4	  x1=0x800012a4
       50325000	      5031	00000000	00000013	addi	x0,x0,0	  x0:0x00000000
       50335000	      5032	800012b8	00000013	addi	x0,x0,0	  x0:0x00000000
       50345000	      5033	800012bc	00c000ef	jal	x1,800012bc	  x1=0x800012bc
       50355000	      5034	00000000	00000013	addi	x0,x0,0	  x0:0x00000000
       50365000	      5035	800012c4	00000013	addi	x0,x0,0	  x0:0x00000000
       50375000	      5036	800012c8	fe5ff0ef	jal	x1,800012c8	  x1=0x800012c8
       50385000	      5037	00000000	00000013	addi	x0,x0,0	  x0:0x00000000
       50395000	      5038	800012a8	00000013	addi	x0,x0,0	  x0:0x00000000
       50405000	      5039	800012ac	fd5ff6ef	jal	x13,800012ac	 x13=0x800012ac
       50415000	      5040	00000000	00000013	addi	x0,x0,0	  x0:0x00000000
       50425000	      5041	8000127c	00000013	addi	x0,x0,0	  x0:0x00000000
       50435000	      5042	80001280	ff9ff36f	jal	x6,80001280	  x6=0x80001280
       50445000	      5043	00000000	00000013	addi	x0,x0,0	  x0:0x00000000
       50455000	      5044	80001274	00000013	addi	x0,x0,0	  x0:0x00000000
       50465000	      5045	80001278	0600026f	jal	x4,80001278	  x4=0x80001278
       50475000	      5046	00000000	00000013	addi	x0,x0,0	  x0:0x00000000
       50485000	      5047	800012d4	00000013	addi	x0,x0,0	  x0:0x00000000
       50495000	      5048	800012d8	fe9ff16f	jal	x2,800012d8	  x2=0x800012d8
       50505000	      5049	00000000	00000013	addi	x0,x0,0	  x0:0x00000000
       50515000	      5050	800012bc	00000013	addi	x0,x0,0	  x0:0x00000000
       50525000	      5051	800012c0	0240096f	jal	x18,800012c0	 x18=0x800012c0
       50535000	      5052	00000000	00000013	addi	x0,x0,0	  x0:0x00000000
       50545000	      5053	800012e0	00000013	addi	x0,x0,0	  x0:0x00000000
       50555000	      5054	800012e4	fe1ff0ef	jal	x1,800012e4	  x1=0x800012e4
       50565000	      5055	00000000	00000013	addi	x0,x0,0	  x0:0x00000000
       50575000	      5056	800012c0	00000013	addi	x0,x0,0	  x0:0x00000000
       50585000	      5057	800012c4	008000ef	jal	x1,800012c4	  x1=0x800012c4
       50595000	      5058	00000000	00000013	addi	x0,x0,0	  x0:0x00000000
       50605000	      5059	800012c8	00000013	addi	x0,x0,0	  x0:0x00000000
       50615000	      5060	800012cc	fddff2ef	jal	x5,800012cc	  x5=0x800012cc
       50625000	      5061	00000000	00000013	addi	x0,x0,0	  x0:0x00000000
       50635000	      5062	800012a4	00000013	addi	x0,x0,0	  x0:0x00000000
       50645000	      5063	800012a8	03400bef	jal	x23,800012a8	 x23=0x800012a8
       50655000	      5064	00000000	00000013	addi	x0,x0,0	  x0:0x00000000
       50665000	      5065	800012d8	00000013	addi	x0,x0,0	  x0:0x00000000
       50675000	      5066	800012dc	fbdff16f	jal	x2,800012dc	  x2=0x800012dc
       50685000	      5067	00000000	00000013	addi	x0,x0,0	  x0:0x00000000
       50695000	      5068	80001294	00000013	addi	x0,x0,0	  x0:0x00000000
       50705000	      5069	80001298	ff5ff0ef	jal	x1,80001298	  x1=0x80001298
       50715000	      5070	00000000	00000013	addi	x0,x0,0	  x0:0x00000000
       50725000	      5071	80001288	00000013	addi	x0,x0,0	  x0:0x00000000
       50735000	      5072	8000128c	ffdff0ef	jal	x1,8000128c	  x1=0x8000128c
       50745000	      5073	00000000	00000013	addi	x0,x0,0	  x0:0x00000000
       50755000	      5074	80001284	00000013	addi	x0,x0,0	  x0:0x00000000
       50765000	      5075	80001288	02c000ef	jal	x1,80001288	  x1=0x80001288
       50775000	      5076	00000000	00000013	addi	x0,x0,0	  x0:0x00000000
       50785000	      5077	800012b0	00000013	addi	x0,x0,0	  x0:0x00000000
       50795000	      5078	800012b4	fe1ff0ef	jal	x1,800012b4	  x1=0x800012b4
       50805000	      5079	00000000	00000013	addi	x0,x0,0	  x0:0x00000000
       50815000	      5080	80001290	00000013	addi	x0,x0,0	  x0:0x00000000
       50825000	      5081	80001294	fe9fffef	jal	x31,80001294	 x31=0x80001294
       50835000	      5082	00000000	00000013	addi	x0,x0,0	  x0:0x00000000
       50845000	      5083	80001278	00000013	addi	x0,x0,0	  x0:0x00000000
       50855000	      5084	8000127c	06c002ef	jal	x5,8000127c	  x5=0x8000127c
       50865000	      5085	00000000	00000013	addi	x0,x0,0	  x0:0x00000000
       50875000	      5086	800012e4	00000013	addi	x0,x0,0	  x0:0x00000000
       50885000	      5087	800012e8	fa9ff16f	jal	x2,800012e8	  x2=0x800012e8
       50895000	      5088	00000000	00000013	addi	x0,x0,0	  x0:0x00000000
       50905000	      5089	8000128c	00000013	addi	x0,x0,0	  x0:0x00000000
       50915000	      5090	80001290	028000ef	jal	x1,80001290	  x1=0x80001290
       50925000	      5091	00000000	00000013	addi	x0,x0,0	  x0:0x00000000
       50935000	      5092	800012b4	00000013	addi	x0,x0,0	  x0:0x00000000
       50945000	      5093	800012b8	0180036f	jal	x6,800012b8	  x6=0x800012b8
       50955000	      5094	00000000	00000013	addi	x0,x0,0	  x0:0x00000000
       50965000	      5095	800012cc	00000013	addi	x0,x0,0	  x0:0x00000000
       50975000	      5096	800012d0	010000ef	jal	x1,800012d0	  x1=0x800012d0
       50985000	      5097	00000000	00000013	addi	x0,x0,0	  x0:0x00000000
       50995000	      5098	800012dc	00000013	addi	x0,x0,0	  x0:0x00000000
       51005000	      5099	800012e0	00c000ef	jal	x1,800012e0	  x1=0x800012e0
       51015000	      5100	00000000	00000013	addi	x0,x0,0	  x0:0x00000000
       51025000	      5101	800012e8	00000013	addi	x0,x0,0	  x0:0x00000000
       51035000	      5102	800012ec	0187e433	or	x8,x15,x24	 x15:0xf573b7aa x24:0x00000001  x8=0xf573b7ab
       51045000	      5103	800012f0	0500036f	jal	x6,800012f0	  x6=0x800012f0
       51055000	      5104	00000000	00000013	addi	x0,x0,0	  x0:0x00000000
       51065000	      5105	8000133c	00000013	addi	x0,x0,0	  x0:0x00000000
       51075000	      5106	80001340	fd5ff2ef	jal	x5,80001340	  x5=0x80001340
       51085000	      5107	00000000	00000013	addi	x0,x0,0	  x0:0x00000000
       51095000	      5108	80001310	00000013	addi	x0,x0,0	  x0:0x00000000
       51105000	      5109	80001314	01c001ef	jal	x3,80001314	  x3=0x80001314
       51115000	      5110	00000000	00000013	addi	x0,x0,0	  x0:0x00000000
       51125000	      5111	8000132c	00000013	addi	x0,x0,0	  x0:0x00000000
       51135000	      5112	80001330	ff1ff26f	jal	x4,80001330	  x4=0x80001330
       51145000	      5113	00000000	00000013	addi	x0,x0,0	  x0:0x00000000
       51155000	      5114	8000131c	00000013	addi	x0,x0,0	  x0:0x00000000
       51165000	      5115	80001320	01c0036f	jal	x6,80001320	  x6=0x80001320
       51175000	      5116	00000000	00000013	addi	x0,x0,0	  x0:0x00000000
       51185000	      5117	80001338	00000013	addi	x0,x0,0	  x0:0x00000000
       51195000	      5118	8000133c	ff9ff0ef	jal	x1,8000133c	  x1=0x8000133c
       51205000	      5119	00000000	00000013	addi	x0,x0,0	  x0:0x00000000
       51215000	      5120	80001330	00000013	addi	x0,x0,0	  x0:0x00000000
       51225000	      5121	80001334	fc1ff86f	jal	x16,80001334	 x16=0x80001334
       51235000	      5122	00000000	00000013	addi	x0,x0,0	  x0:0x00000000
       51245000	      5123	800012f0	00000013	addi	x0,x0,0	  x0:0x00000000
       51255000	      5124	800012f4	03800cef	jal	x25,800012f4	 x25=0x800012f4
       51265000	      5125	00000000	00000013	addi	x0,x0,0	  x0:0x00000000
       51275000	      5126	80001328	00000013	addi	x0,x0,0	  x0:0x00000000
       51285000	      5127	8000132c	fe1ff0ef	jal	x1,8000132c	  x1=0x8000132c
       51295000	      5128	00000000	00000013	addi	x0,x0,0	  x0:0x00000000
       51305000	      5129	80001308	00000013	addi	x0,x0,0	  x0:0x00000000
       51315000	      5130	8000130c	01c000ef	jal	x1,8000130c	  x1=0x8000130c
       51325000	      5131	00000000	00000013	addi	x0,x0,0	  x0:0x00000000
       51335000	      5132	80001324	00000013	addi	x0,x0,0	  x0:0x00000000
       51345000	      5133	80001328	020000ef	jal	x1,80001328	  x1=0x80001328
       51355000	      5134	00000000	00000013	addi	x0,x0,0	  x0:0x00000000
       51365000	      5135	80001344	00000013	addi	x0,x0,0	  x0:0x00000000
       51375000	      5136	80001348	fb1ff0ef	jal	x1,80001348	  x1=0x80001348
       51385000	      5137	00000000	00000013	addi	x0,x0,0	  x0:0x00000000
       51395000	      5138	800012f4	00000013	addi	x0,x0,0	  x0:0x00000000
       51405000	      5139	800012f8	008000ef	jal	x1,800012f8	  x1=0x800012f8
       51415000	      5140	00000000	00000013	addi	x0,x0,0	  x0:0x00000000
       51425000	      5141	800012fc	00000013	addi	x0,x0,0	  x0:0x00000000
       51435000	      5142	80001300	ffdffdef	jal	x27,80001300	 x27=0x80001300
       51445000	      5143	00000000	00000013	addi	x0,x0,0	  x0:0x00000000
       51455000	      5144	800012f8	00000013	addi	x0,x0,0	  x0:0x00000000
       51465000	      5145	800012fc	028000ef	jal	x1,800012fc	  x1=0x800012fc
       51475000	      5146	00000000	00000013	addi	x0,x0,0	  x0:0x00000000
       51485000	      5147	80001320	00000013	addi	x0,x0,0	  x0:0x00000000
       51495000	      5148	80001324	fe1ff0ef	jal	x1,80001324	  x1=0x80001324
       51505000	      5149	00000000	00000013	addi	x0,x0,0	  x0:0x00000000
       51515000	      5150	80001300	00000013	addi	x0,x0,0	  x0:0x00000000
       51525000	      5151	80001304	040000ef	jal	x1,80001304	  x1=0x80001304
       51535000	      5152	00000000	00000013	addi	x0,x0,0	  x0:0x00000000
       51545000	      5153	80001340	00000013	addi	x0,x0,0	  x0:0x00000000
       51555000	      5154	80001344	fd9ff36f	jal	x6,80001344	  x6=0x80001344
       51565000	      5155	00000000	00000013	addi	x0,x0,0	  x0:0x00000000
       51575000	      5156	80001318	00000013	addi	x0,x0,0	  x0:0x00000000
       51585000	      5157	8000131c	01c0036f	jal	x6,8000131c	  x6=0x8000131c
       51595000	      5158	00000000	00000013	addi	x0,x0,0	  x0:0x00000000
       51605000	      5159	80001334	00000013	addi	x0,x0,0	  x0:0x00000000
       51615000	      5160	80001338	fd9ff0ef	jal	x1,80001338	  x1=0x80001338
       51625000	      5161	00000000	00000013	addi	x0,x0,0	  x0:0x00000000
       51635000	      5162	8000130c	00000013	addi	x0,x0,0	  x0:0x00000000
       51645000	      5163	80001310	ff9ffe6f	jal	x28,80001310	 x28=0x80001310
       51655000	      5164	00000000	00000013	addi	x0,x0,0	  x0:0x00000000
       51665000	      5165	80001304	00000013	addi	x0,x0,0	  x0:0x00000000
       51675000	      5166	80001308	010002ef	jal	x5,80001308	  x5=0x80001308
       51685000	      5167	00000000	00000013	addi	x0,x0,0	  x0:0x00000000
       51695000	      5168	80001314	00000013	addi	x0,x0,0	  x0:0x00000000
       51705000	      5169	80001318	0340036f	jal	x6,80001318	  x6=0x80001318
       51715000	      5170	00000000	00000013	addi	x0,x0,0	  x0:0x00000000
       51725000	      5171	80001348	00000013	addi	x0,x0,0	  x0:0x00000000
       51735000	      5172	8000134c	01815f13	srli	x30,x2,0x18	  x2:0x800012e8 x30=0x00000080
       51745000	      5173	80001350	0340036f	jal	x6,80001350	  x6=0x80001350
       51755000	      5174	00000000	00000013	addi	x0,x0,0	  x0:0x00000000
       51765000	      5175	80001380	00000013	addi	x0,x0,0	  x0:0x00000000
       51775000	      5176	80001384	ff1ff0ef	jal	x1,80001384	  x1=0x80001384
       51785000	      5177	00000000	00000013	addi	x0,x0,0	  x0:0x00000000
       51795000	      5178	80001370	00000013	addi	x0,x0,0	  x0:0x00000000
       51805000	      5179	80001374	0140026f	jal	x4,80001374	  x4=0x80001374
       51815000	      5180	00000000	00000013	addi	x0,x0,0	  x0:0x00000000
       51825000	      5181	80001384	00000013	addi	x0,x0,0	  x0:0x00000000
       51835000	      5182	80001388	ff5ffeef	jal	x29,80001388	 x29=0x80001388
       51845000	      5183	00000000	00000013	addi	x0,x0,0	  x0:0x00000000
       51855000	      5184	80001378	00000013	addi	x0,x0,0	  x0:0x00000000
       51865000	      5185	8000137c	004003ef	jal	x7,8000137c	  x7=0x8000137c
       51875000	      5186	00000000	00000013	addi	x0,x0,0	  x0:0x00000000
       51885000	      5187	8000137c	00000013	addi	x0,x0,0	  x0:0x00000000
       51895000	      5188	80001380	00c000ef	jal	x1,80001380	  x1=0x80001380
       51905000	      5189	00000000	00000013	addi	x0,x0,0	  x0:0x00000000
       51915000	      5190	80001388	00000013	addi	x0,x0,0	  x0:0x00000000
       51925000	      5191	8000138c	fe5ff96f	jal	x18,8000138c	 x18=0x8000138c
       51935000	      5192	00000000	00000013	addi	x0,x0,0	  x0:0x00000000
       51945000	      5193	8000136c	00000013	addi	x0,x0,0	  x0:0x00000000
       51955000	      5194	80001370	0080036f	jal	x6,80001370	  x6=0x80001370
       51965000	      5195	00000000	00000013	addi	x0,x0,0	  x0:0x00000000
       51975000	      5196	80001374	00000013	addi	x0,x0,0	  x0:0x00000000
       51985000	      5197	80001378	fe5ff46f	jal	x8,80001378	  x8=0x80001378
       51995000	      5198	00000000	00000013	addi	x0,x0,0	  x0:0x00000000
       52005000	      5199	80001358	00000013	addi	x0,x0,0	  x0:0x00000000
       52015000	      5200	8000135c	010000ef	jal	x1,8000135c	  x1=0x8000135c
       52025000	      5201	00000000	00000013	addi	x0,x0,0	  x0:0x00000000
       52035000	      5202	80001368	00000013	addi	x0,x0,0	  x0:0x00000000
       52045000	      5203	8000136c	ffdff36f	jal	x6,8000136c	  x6=0x8000136c
       52055000	      5204	00000000	00000013	addi	x0,x0,0	  x0:0x00000000
       52065000	      5205	80001364	00000013	addi	x0,x0,0	  x0:0x00000000
       52075000	      5206	80001368	ffdff0ef	jal	x1,80001368	  x1=0x80001368
       52085000	      5207	00000000	00000013	addi	x0,x0,0	  x0:0x00000000
       52095000	      5208	80001360	00000013	addi	x0,x0,0	  x0:0x00000000
       52105000	      5209	80001364	ffdffeef	jal	x29,80001364	 x29=0x80001364
       52115000	      5210	00000000	00000013	addi	x0,x0,0	  x0:0x00000000
       52125000	      5211	8000135c	00000013	addi	x0,x0,0	  x0:0x00000000
       52135000	      5212	80001360	ff9ff0ef	jal	x1,80001360	  x1=0x80001360
       52145000	      5213	00000000	00000013	addi	x0,x0,0	  x0:0x00000000
       52155000	      5214	80001354	00000013	addi	x0,x0,0	  x0:0x00000000
       52165000	      5215	80001358	ffdff36f	jal	x6,80001358	  x6=0x80001358
       52175000	      5216	00000000	00000013	addi	x0,x0,0	  x0:0x00000000
       52185000	      5217	80001350	00000013	addi	x0,x0,0	  x0:0x00000000
       52195000	      5218	80001354	03c000ef	jal	x1,80001354	  x1=0x80001354
       52205000	      5219	00000000	00000013	addi	x0,x0,0	  x0:0x00000000
       52215000	      5220	8000138c	00000013	addi	x0,x0,0	  x0:0x00000000
       52225000	      5221	80001390	572d8c97	auipc	x25,0x572d8	 x25=0xd72d938c
       52235000	      5222	80001394	0280036f	jal	x6,80001394	  x6=0x80001394
       52245000	      5223	00000000	00000013	addi	x0,x0,0	  x0:0x00000000
       52255000	      5224	800013b8	00000013	addi	x0,x0,0	  x0:0x00000000
       52265000	      5225	800013bc	008004ef	jal	x9,800013bc	  x9=0x800013bc
       52275000	      5226	00000000	00000013	addi	x0,x0,0	  x0:0x00000000
       52285000	      5227	800013c0	00000013	addi	x0,x0,0	  x0:0x00000000
       52295000	      5228	800013c4	00c0036f	jal	x6,800013c4	  x6=0x800013c4
       52305000	      5229	00000000	00000013	addi	x0,x0,0	  x0:0x00000000
       52315000	      5230	800013cc	00000013	addi	x0,x0,0	  x0:0x00000000
       52325000	      5231	800013d0	fe5ff2ef	jal	x5,800013d0	  x5=0x800013d0
       52335000	      5232	00000000	00000013	addi	x0,x0,0	  x0:0x00000000
       52345000	      5233	800013b0	00000013	addi	x0,x0,0	  x0:0x00000000
       52355000	      5234	800013b4	fe5ff36f	jal	x6,800013b4	  x6=0x800013b4
       52365000	      5235	00000000	00000013	addi	x0,x0,0	  x0:0x00000000
       52375000	      5236	80001394	00000013	addi	x0,x0,0	  x0:0x00000000
       52385000	      5237	80001398	03000fef	jal	x31,80001398	 x31=0x80001398
       52395000	      5238	00000000	00000013	addi	x0,x0,0	  x0:0x00000000
       52405000	      5239	800013c4	00000013	addi	x0,x0,0	  x0:0x00000000
       52415000	      5240	800013c8	fd9ff36f	jal	x6,800013c8	  x6=0x800013c8
       52425000	      5241	00000000	00000013	addi	x0,x0,0	  x0:0x00000000
       52435000	      5242	8000139c	00000013	addi	x0,x0,0	  x0:0x00000000
       52445000	      5243	800013a0	02c005ef	jal	x11,800013a0	 x11=0x800013a0
       52455000	      5244	00000000	00000013	addi	x0,x0,0	  x0:0x00000000
       52465000	      5245	800013c8	00000013	addi	x0,x0,0	  x0:0x00000000
       52475000	      5246	800013cc	fedff0ef	jal	x1,800013cc	  x1=0x800013cc
       52485000	      5247	00000000	00000013	addi	x0,x0,0	  x0:0x00000000
       52495000	      5248	800013b4	00000013	addi	x0,x0,0	  x0:0x00000000
       52505000	      5249	800013b8	fedff0ef	jal	x1,800013b8	  x1=0x800013b8
       52515000	      5250	00000000	00000013	addi	x0,x0,0	  x0:0x00000000
       52525000	      5251	800013a0	00000013	addi	x0,x0,0	  x0:0x00000000
       52535000	      5252	800013a4	01c00c6f	jal	x24,800013a4	 x24=0x800013a4
       52545000	      5253	00000000	00000013	addi	x0,x0,0	  x0:0x00000000
       52555000	      5254	800013bc	00000013	addi	x0,x0,0	  x0:0x00000000
       52565000	      5255	800013c0	fe9ff36f	jal	x6,800013c0	  x6=0x800013c0
       52575000	      5256	00000000	00000013	addi	x0,x0,0	  x0:0x00000000
       52585000	      5257	800013a4	00000013	addi	x0,x0,0	  x0:0x00000000
       52595000	      5258	800013a8	ff5ff0ef	jal	x1,800013a8	  x1=0x800013a8
       52605000	      5259	00000000	00000013	addi	x0,x0,0	  x0:0x00000000
       52615000	      5260	80001398	00000013	addi	x0,x0,0	  x0:0x00000000
       52625000	      5261	8000139c	0140036f	jal	x6,8000139c	  x6=0x8000139c
       52635000	      5262	00000000	00000013	addi	x0,x0,0	  x0:0x00000000
       52645000	      5263	800013ac	00000013	addi	x0,x0,0	  x0:0x00000000
       52655000	      5264	800013b0	ffdff36f	jal	x6,800013b0	  x6=0x800013b0
       52665000	      5265	00000000	00000013	addi	x0,x0,0	  x0:0x00000000
       52675000	      5266	800013a8	00000013	addi	x0,x0,0	  x0:0x00000000
       52685000	      5267	800013ac	0280036f	jal	x6,800013ac	  x6=0x800013ac
       52695000	      5268	00000000	00000013	addi	x0,x0,0	  x0:0x00000000
       52705000	      5269	800013d0	00000013	addi	x0,x0,0	  x0:0x00000000
       52715000	      5270	800013d4	00000013	addi	x0,x0,0	  x0:0x00000000
       52725000	      5271	800013d8	0580036f	jal	x6,800013d8	  x6=0x800013d8
       52735000	      5272	00000000	00000013	addi	x0,x0,0	  x0:0x00000000
       52745000	      5273	8000142c	00000013	addi	x0,x0,0	  x0:0x00000000
       52755000	      5274	80001430	fc9ff6ef	jal	x13,80001430	 x13=0x80001430
       52765000	      5275	00000000	00000013	addi	x0,x0,0	  x0:0x00000000
       52775000	      5276	800013f4	00000013	addi	x0,x0,0	  x0:0x00000000
       52785000	      5277	800013f8	008002ef	jal	x5,800013f8	  x5=0x800013f8
       52795000	      5278	00000000	00000013	addi	x0,x0,0	  x0:0x00000000
       52805000	      5279	800013fc	00000013	addi	x0,x0,0	  x0:0x00000000
       52815000	      5280	80001400	024000ef	jal	x1,80001400	  x1=0x80001400
       52825000	      5281	00000000	00000013	addi	x0,x0,0	  x0:0x00000000
       52835000	      5282	80001420	00000013	addi	x0,x0,0	  x0:0x00000000
       52845000	      5283	80001424	fe5ff0ef	jal	x1,80001424	  x1=0x80001424
       52855000	      5284	00000000	00000013	addi	x0,x0,0	  x0:0x00000000
       52865000	      5285	80001404	00000013	addi	x0,x0,0	  x0:0x00000000
       52875000	      5286	80001408	010000ef	jal	x1,80001408	  x1=0x80001408
       52885000	      5287	00000000	00000013	addi	x0,x0,0	  x0:0x00000000
       52895000	      5288	80001414	00000013	addi	x0,x0,0	  x0:0x00000000
       52905000	      5289	80001418	004009ef	jal	x19,80001418	 x19=0x80001418
       52915000	      5290	00000000	00000013	addi	x0,x0,0	  x0:0x00000000
       52925000	      5291	80001418	00000013	addi	x0,x0,0	  x0:0x00000000
       52935000	      5292	8000141c	00c000ef	jal	x1,8000141c	  x1=0x8000141c
       52945000	      5293	00000000	00000013	addi	x0,x0,0	  x0:0x00000000
       52955000	      5294	80001424	00000013	addi	x0,x0,0	  x0:0x00000000
       52965000	      5295	80001428	fc5ffeef	jal	x29,80001428	 x29=0x80001428
       52975000	      5296	00000000	00000013	addi	x0,x0,0	  x0:0x00000000
       52985000	      5297	800013e8	00000013	addi	x0,x0,0	  x0:0x00000000
       52995000	      5298	800013ec	004002ef	jal	x5,800013ec	  x5=0x800013ec
       53005000	      5299	00000000	00000013	addi	x0,x0,0	  x0:0x00000000
       53015000	      5300	800013ec	00000013	addi	x0,x0,0	  x0:0x00000000
       53025000	      5301	800013f0	fedff0ef	jal	x1,800013f0	  x1=0x800013f0
       53035000	      5302	00000000	00000013	addi	x0,x0,0	  x0:0x00000000
       53045000	      5303	800013d8	00000013	addi	x0,x0,0	  x0:0x00000000
       53055000	      5304	800013dc	00c00cef	jal	x25,800013dc	 x25=0x800013dc
       53065000	      5305	00000000	00000013	addi	x0,x0,0	  x0:0x00000000
       53075000	      5306	800013e4	00000013	addi	x0,x0,0	  x0:0x00000000
       53085000	      5307	800013e8	ffdff0ef	jal	x1,800013e8	  x1=0x800013e8
       53095000	      5308	00000000	00000013	addi	x0,x0,0	  x0:0x00000000
       53105000	      5309	800013e0	00000013	addi	x0,x0,0	  x0:0x00000000
       53115000	      5310	800013e4	02c0036f	jal	x6,800013e4	  x6=0x800013e4
       53125000	      5311	00000000	00000013	addi	x0,x0,0	  x0:0x00000000
       53135000	      5312	8000140c	00000013	addi	x0,x0,0	  x0:0x00000000
       53145000	      5313	80001410	004000ef	jal	x1,80001410	  x1=0x80001410
       53155000	      5314	00000000	00000013	addi	x0,x0,0	  x0:0x00000000
       53165000	      5315	80001410	00000013	addi	x0,x0,0	  x0:0x00000000
       53175000	      5316	80001414	fe1ff16f	jal	x2,80001414	  x2=0x80001414
       53185000	      5317	00000000	00000013	addi	x0,x0,0	  x0:0x00000000
       53195000	      5318	800013f0	00000013	addi	x0,x0,0	  x0:0x00000000
       53205000	      5319	800013f4	038005ef	jal	x11,800013f4	 x11=0x800013f4
       53215000	      5320	00000000	00000013	addi	x0,x0,0	  x0:0x00000000
       53225000	      5321	80001428	00000013	addi	x0,x0,0	  x0:0x00000000
       53235000	      5322	8000142c	fe1ff36f	jal	x6,8000142c	  x6=0x8000142c
       53245000	      5323	00000000	00000013	addi	x0,x0,0	  x0:0x00000000
       53255000	      5324	80001408	00000013	addi	x0,x0,0	  x0:0x00000000
       53265000	      5325	8000140c	0140036f	jal	x6,8000140c	  x6=0x8000140c
       53275000	      5326	00000000	00000013	addi	x0,x0,0	  x0:0x00000000
       53285000	      5327	8000141c	00000013	addi	x0,x0,0	  x0:0x00000000
       53295000	      5328	80001420	fe5ff16f	jal	x2,80001420	  x2=0x80001420
       53305000	      5329	00000000	00000013	addi	x0,x0,0	  x0:0x00000000
       53315000	      5330	80001400	00000013	addi	x0,x0,0	  x0:0x00000000
       53325000	      5331	80001404	fddff26f	jal	x4,80001404	  x4=0x80001404
       53335000	      5332	00000000	00000013	addi	x0,x0,0	  x0:0x00000000
       53345000	      5333	800013dc	00000013	addi	x0,x0,0	  x0:0x00000000
       53355000	      5334	800013e0	01c000ef	jal	x1,800013e0	  x1=0x800013e0
       53365000	      5335	00000000	00000013	addi	x0,x0,0	  x0:0x00000000
       53375000	      5336	800013f8	00000013	addi	x0,x0,0	  x0:0x00000000
       53385000	      5337	800013fc	038000ef	jal	x1,800013fc	  x1=0x800013fc
       53395000	      5338	00000000	00000013	addi	x0,x0,0	  x0:0x00000000
       53405000	      5339	80001430	00000013	addi	x0,x0,0	  x0:0x00000000
       53415000	      5340	80001434	00721a33	sll	x20,x4,x7	  x4:0x80001404  x7:0x8000137c x20=0x40000000
       53425000	      5341	80001438	00c0036f	jal	x6,80001438	  x6=0x80001438
       53435000	      5342	00000000	00000013	addi	x0,x0,0	  x0:0x00000000
       53445000	      5343	80001440	00000013	addi	x0,x0,0	  x0:0x00000000
       53455000	      5344	80001444	008000ef	jal	x1,80001444	  x1=0x80001444
       53465000	      5345	00000000	00000013	addi	x0,x0,0	  x0:0x00000000
       53475000	      5346	80001448	00000013	addi	x0,x0,0	  x0:0x00000000
       53485000	      5347	8000144c	0100036f	jal	x6,8000144c	  x6=0x8000144c
       53495000	      5348	00000000	00000013	addi	x0,x0,0	  x0:0x00000000
       53505000	      5349	80001458	00000013	addi	x0,x0,0	  x0:0x00000000
       53515000	      5350	8000145c	ff5ff0ef	jal	x1,8000145c	  x1=0x8000145c
       53525000	      5351	00000000	00000013	addi	x0,x0,0	  x0:0x00000000
       53535000	      5352	8000144c	00000013	addi	x0,x0,0	  x0:0x00000000
       53545000	      5353	80001450	fedff0ef	jal	x1,80001450	  x1=0x80001450
       53555000	      5354	00000000	00000013	addi	x0,x0,0	  x0:0x00000000
       53565000	      5355	80001438	00000013	addi	x0,x0,0	  x0:0x00000000
       53575000	      5356	8000143c	018000ef	jal	x1,8000143c	  x1=0x8000143c
       53585000	      5357	00000000	00000013	addi	x0,x0,0	  x0:0x00000000
       53595000	      5358	80001450	00000013	addi	x0,x0,0	  x0:0x00000000
       53605000	      5359	80001454	0100036f	jal	x6,80001454	  x6=0x80001454
       53615000	      5360	00000000	00000013	addi	x0,x0,0	  x0:0x00000000
       53625000	      5361	80001460	00000013	addi	x0,x0,0	  x0:0x00000000
       53635000	      5362	80001464	fddff96f	jal	x18,80001464	 x18=0x80001464
       53645000	      5363	00000000	00000013	addi	x0,x0,0	  x0:0x00000000
       53655000	      5364	8000143c	00000013	addi	x0,x0,0	  x0:0x00000000
       53665000	      5365	80001440	020000ef	jal	x1,80001440	  x1=0x80001440
       53675000	      5366	00000000	00000013	addi	x0,x0,0	  x0:0x00000000
       53685000	      5367	8000145c	00000013	addi	x0,x0,0	  x0:0x00000000
       53695000	      5368	80001460	fe9ff0ef	jal	x1,80001460	  x1=0x80001460
       53705000	      5369	00000000	00000013	addi	x0,x0,0	  x0:0x00000000
       53715000	      5370	80001444	00000013	addi	x0,x0,0	  x0:0x00000000
       53725000	      5371	80001448	010000ef	jal	x1,80001448	  x1=0x80001448
       53735000	      5372	00000000	00000013	addi	x0,x0,0	  x0:0x00000000
       53745000	      5373	80001454	00000013	addi	x0,x0,0	  x0:0x00000000
       53755000	      5374	80001458	0100056f	jal	x10,80001458	 x10=0x80001458
       53765000	      5375	00000000	00000013	addi	x0,x0,0	  x0:0x00000000
       53775000	      5376	80001464	00000013	addi	x0,x0,0	  x0:0x00000000
       53785000	      5377	80001468	b8d7b517	auipc	x10,0xb8d7b	 x10=0x38d7c464
       53795000	      5378	8000146c	0280036f	jal	x6,8000146c	  x6=0x8000146c
       53805000	      5379	00000000	00000013	addi	x0,x0,0	  x0:0x00000000
       53815000	      5380	80001490	00000013	addi	x0,x0,0	  x0:0x00000000
       53825000	      5381	80001494	00400eef	jal	x29,80001494	 x29=0x80001494
       53835000	      5382	00000000	00000013	addi	x0,x0,0	  x0:0x00000000
       53845000	      5383	80001494	00000013	addi	x0,x0,0	  x0:0x00000000
       53855000	      5384	80001498	fe1ff56f	jal	x10,80001498	 x10=0x80001498
       53865000	      5385	00000000	00000013	addi	x0,x0,0	  x0:0x00000000
       53875000	      5386	80001474	00000013	addi	x0,x0,0	  x0:0x00000000
       53885000	      5387	80001478	00c005ef	jal	x11,80001478	 x11=0x80001478
       53895000	      5388	00000000	00000013	addi	x0,x0,0	  x0:0x00000000
       53905000	      5389	80001480	00000013	addi	x0,x0,0	  x0:0x00000000
       53915000	      5390	80001484	ff9ff1ef	jal	x3,80001484	  x3=0x80001484
       53925000	      5391	00000000	00000013	addi	x0,x0,0	  x0:0x00000000
       53935000	      5392	80001478	00000013	addi	x0,x0,0	  x0:0x00000000
       53945000	      5393	8000147c	ff9ff6ef	jal	x13,8000147c	 x13=0x8000147c
       53955000	      5394	00000000	00000013	addi	x0,x0,0	  x0:0x00000000
       53965000	      5395	80001470	00000013	addi	x0,x0,0	  x0:0x00000000
       53975000	      5396	80001474	ffdff0ef	jal	x1,80001474	  x1=0x80001474
       53985000	      5397	00000000	00000013	addi	x0,x0,0	  x0:0x00000000
       53995000	      5398	8000146c	00000013	addi	x0,x0,0	  x0:0x00000000
       54005000	      5399	80001470	020002ef	jal	x5,80001470	  x5=0x80001470
       54015000	      5400	00000000	00000013	addi	x0,x0,0	  x0:0x00000000
       54025000	      5401	8000148c	00000013	addi	x0,x0,0	  x0:0x00000000
       54035000	      5402	80001490	ff1ff36f	jal	x6,80001490	  x6=0x80001490
       54045000	      5403	00000000	00000013	addi	x0,x0,0	  x0:0x00000000
       54055000	      5404	8000147c	00000013	addi	x0,x0,0	  x0:0x00000000
       54065000	      5405	80001480	0080066f	jal	x12,80001480	 x12=0x80001480
       54075000	      5406	00000000	00000013	addi	x0,x0,0	  x0:0x00000000
       54085000	      5407	80001484	00000013	addi	x0,x0,0	  x0:0x00000000
       54095000	      5408	80001488	004000ef	jal	x1,80001488	  x1=0x80001488
       54105000	      5409	00000000	00000013	addi	x0,x0,0	  x0:0x00000000
       54115000	      5410	80001488	00000013	addi	x0,x0,0	  x0:0x00000000
       54125000	      5411	8000148c	0100036f	jal	x6,8000148c	  x6=0x8000148c
       54135000	      5412	00000000	00000013	addi	x0,x0,0	  x0:0x00000000
       54145000	      5413	80001498	00000013	addi	x0,x0,0	  x0:0x00000000
       54155000	      5414	8000149c	0156cb33	xor	x22,x13,x21	 x13:0x8000147c x21:0x80001250 x22=0x0000062c
       54165000	      5415	800014a0	02c0036f	jal	x6,800014a0	  x6=0x800014a0
       54175000	      5416	00000000	00000013	addi	x0,x0,0	  x0:0x00000000
       54185000	      5417	800014c8	00000013	addi	x0,x0,0	  x0:0x00000000
       54195000	      5418	800014cc	ff9ff36f	jal	x6,800014cc	  x6=0x800014cc
       54205000	      5419	00000000	00000013	addi	x0,x0,0	  x0:0x00000000
       54215000	      5420	800014c0	00000013	addi	x0,x0,0	  x0:0x00000000
       54225000	      5421	800014c4	ffdff2ef	jal	x5,800014c4	  x5=0x800014c4
       54235000	      5422	00000000	00000013	addi	x0,x0,0	  x0:0x00000000
       54245000	      5423	800014bc	00000013	addi	x0,x0,0	  x0:0x00000000
       54255000	      5424	800014c0	0080036f	jal	x6,800014c0	  x6=0x800014c0
       54265000	      5425	00000000	00000013	addi	x0,x0,0	  x0:0x00000000
       54275000	      5426	800014c4	00000013	addi	x0,x0,0	  x0:0x00000000
       54285000	      5427	800014c8	0080016f	jal	x2,800014c8	  x2=0x800014c8
       54295000	      5428	00000000	00000013	addi	x0,x0,0	  x0:0x00000000
       54305000	      5429	800014cc	00000013	addi	x0,x0,0	  x0:0x00000000
       54315000	      5430	800014d0	fedff0ef	jal	x1,800014d0	  x1=0x800014d0
       54325000	      5431	00000000	00000013	addi	x0,x0,0	  x0:0x00000000
       54335000	      5432	800014b8	00000013	addi	x0,x0,0	  x0:0x00000000
       54345000	      5433	800014bc	ff1ffdef	jal	x27,800014bc	 x27=0x800014bc
       54355000	      5434	00000000	00000013	addi	x0,x0,0	  x0:0x00000000
       54365000	      5435	800014a8	00000013	addi	x0,x0,0	  x0:0x00000000
       54375000	      5436	800014ac	02c0016f	jal	x2,800014ac	  x2=0x800014ac
       54385000	      5437	00000000	00000013	addi	x0,x0,0	  x0:0x00000000
       54395000	      5438	800014d4	00000013	addi	x0,x0,0	  x0:0x00000000
       54405000	      5439	800014d8	fd9ffb6f	jal	x22,800014d8	 x22=0x800014d8
       54415000	      5440	00000000	00000013	addi	x0,x0,0	  x0:0x00000000
       54425000	      5441	800014ac	00000013	addi	x0,x0,0	  x0:0x00000000
       54435000	      5442	800014b0	024000ef	jal	x1,800014b0	  x1=0x800014b0
       54445000	      5443	00000000	00000013	addi	x0,x0,0	  x0:0x00000000
       54455000	      5444	800014d0	00000013	addi	x0,x0,0	  x0:0x00000000
       54465000	      5445	800014d4	fd5ff36f	jal	x6,800014d4	  x6=0x800014d4
       54475000	      5446	00000000	00000013	addi	x0,x0,0	  x0:0x00000000
       54485000	      5447	800014a4	00000013	addi	x0,x0,0	  x0:0x00000000
       54495000	      5448	800014a8	ffdff46f	jal	x8,800014a8	  x8=0x800014a8
       54505000	      5449	00000000	00000013	addi	x0,x0,0	  x0:0x00000000
       54515000	      5450	800014a0	00000013	addi	x0,x0,0	  x0:0x00000000
       54525000	      5451	800014a4	01400e6f	jal	x28,800014a4	 x28=0x800014a4
       54535000	      5452	00000000	00000013	addi	x0,x0,0	  x0:0x00000000
       54545000	      5453	800014b4	00000013	addi	x0,x0,0	  x0:0x00000000
       54555000	      5454	800014b8	ffdff36f	jal	x6,800014b8	  x6=0x800014b8
       54565000	      5455	00000000	00000013	addi	x0,x0,0	  x0:0x00000000
       54575000	      5456	800014b0	00000013	addi	x0,x0,0	  x0:0x00000000
       54585000	      5457	800014b4	028000ef	jal	x1,800014b4	  x1=0x800014b4
       54595000	      5458	00000000	00000013	addi	x0,x0,0	  x0:0x00000000
       54605000	      5459	800014d8	00000013	addi	x0,x0,0	  x0:0x00000000
       54615000	      5460	800014dc	24ec6e93	ori	x29,x24,590	 x24:0x800013a4 x29=0x800013ee
       54625000	      5461	800014e0	02c0036f	jal	x6,800014e0	  x6=0x800014e0
       54635000	      5462	00000000	00000013	addi	x0,x0,0	  x0:0x00000000
       54645000	      5463	80001508	00000013	addi	x0,x0,0	  x0:0x00000000
       54655000	      5464	8000150c	ff1ff26f	jal	x4,8000150c	  x4=0x8000150c
       54665000	      5465	00000000	00000013	addi	x0,x0,0	  x0:0x00000000
       54675000	      5466	800014f8	00000013	addi	x0,x0,0	  x0:0x00000000
       54685000	      5467	800014fc	ffdfffef	jal	x31,800014fc	 x31=0x800014fc
       54695000	      5468	00000000	00000013	addi	x0,x0,0	  x0:0x00000000
       54705000	      5469	800014f4	00000013	addi	x0,x0,0	  x0:0x00000000
       54715000	      5470	800014f8	fedff36f	jal	x6,800014f8	  x6=0x800014f8
       54725000	      5471	00000000	00000013	addi	x0,x0,0	  x0:0x00000000
       54735000	      5472	800014e0	00000013	addi	x0,x0,0	  x0:0x00000000
       54745000	      5473	800014e4	024000ef	jal	x1,800014e4	  x1=0x800014e4
       54755000	      5474	00000000	00000013	addi	x0,x0,0	  x0:0x00000000
       54765000	      5475	80001504	00000013	addi	x0,x0,0	  x0:0x00000000
       54775000	      5476	80001508	fe9ff0ef	jal	x1,80001508	  x1=0x80001508
       54785000	      5477	00000000	00000013	addi	x0,x0,0	  x0:0x00000000
       54795000	      5478	800014ec	00000013	addi	x0,x0,0	  x0:0x00000000
       54805000	      5479	800014f0	0040066f	jal	x12,800014f0	 x12=0x800014f0
       54815000	      5480	00000000	00000013	addi	x0,x0,0	  x0:0x00000000
       54825000	      5481	800014f0	00000013	addi	x0,x0,0	  x0:0x00000000
       54835000	      5482	800014f4	010000ef	jal	x1,800014f4	  x1=0x800014f4
       54845000	      5483	00000000	00000013	addi	x0,x0,0	  x0:0x00000000
       54855000	      5484	80001500	00000013	addi	x0,x0,0	  x0:0x00000000
       54865000	      5485	80001504	fe5ff9ef	jal	x19,80001504	 x19=0x80001504
       54875000	      5486	00000000	00000013	addi	x0,x0,0	  x0:0x00000000
       54885000	      5487	800014e4	00000013	addi	x0,x0,0	  x0:0x00000000
       54895000	      5488	800014e8	00400eef	jal	x29,800014e8	 x29=0x800014e8
       54905000	      5489	00000000	00000013	addi	x0,x0,0	  x0:0x00000000
       54915000	      5490	800014e8	00000013	addi	x0,x0,0	  x0:0x00000000
       54925000	      5491	800014ec	014000ef	jal	x1,800014ec	  x1=0x800014ec
       54935000	      5492	00000000	00000013	addi	x0,x0,0	  x0:0x00000000
       54945000	      5493	800014fc	00000013	addi	x0,x0,0	  x0:0x00000000
       54955000	      5494	80001500	010000ef	jal	x1,80001500	  x1=0x80001500
       54965000	      5495	00000000	00000013	addi	x0,x0,0	  x0:0x00000000
       54975000	      5496	8000150c	00000013	addi	x0,x0,0	  x0:0x00000000
       54985000	      5497	80001510	00f3f733	and	x14,x7,x15	  x7:0x8000137c x15:0xf573b7aa x14=0x80001328
       54995000	      5498	80001514	0240036f	jal	x6,80001514	  x6=0x80001514
       55005000	      5499	00000000	00000013	addi	x0,x0,0	  x0:0x00000000
       55015000	      5500	80001534	00000013	addi	x0,x0,0	  x0:0x00000000
       55025000	      5501	80001538	ff9ff2ef	jal	x5,80001538	  x5=0x80001538
       55035000	      5502	00000000	00000013	addi	x0,x0,0	  x0:0x00000000
       55045000	      5503	8000152c	00000013	addi	x0,x0,0	  x0:0x00000000
       55055000	      5504	80001530	ffdff0ef	jal	x1,80001530	  x1=0x80001530
       55065000	      5505	00000000	00000013	addi	x0,x0,0	  x0:0x00000000
       55075000	      5506	80001528	00000013	addi	x0,x0,0	  x0:0x00000000
       55085000	      5507	8000152c	fedff0ef	jal	x1,8000152c	  x1=0x8000152c
       55095000	      5508	00000000	00000013	addi	x0,x0,0	  x0:0x00000000
       55105000	      5509	80001514	00000013	addi	x0,x0,0	  x0:0x00000000
       55115000	      5510	80001518	02c000ef	jal	x1,80001518	  x1=0x80001518
       55125000	      5511	00000000	00000013	addi	x0,x0,0	  x0:0x00000000
       55135000	      5512	80001540	00000013	addi	x0,x0,0	  x0:0x00000000
       55145000	      5513	80001544	00c002ef	jal	x5,80001544	  x5=0x80001544
       55155000	      5514	00000000	00000013	addi	x0,x0,0	  x0:0x00000000
       55165000	      5515	8000154c	00000013	addi	x0,x0,0	  x0:0x00000000
       55175000	      5516	80001550	ff9ff0ef	jal	x1,80001550	  x1=0x80001550
       55185000	      5517	00000000	00000013	addi	x0,x0,0	  x0:0x00000000
       55195000	      5518	80001544	00000013	addi	x0,x0,0	  x0:0x00000000
       55205000	      5519	80001548	ff9ff0ef	jal	x1,80001548	  x1=0x80001548
       55215000	      5520	00000000	00000013	addi	x0,x0,0	  x0:0x00000000
       55225000	      5521	8000153c	00000013	addi	x0,x0,0	  x0:0x00000000
       55235000	      5522	80001540	ff5ff0ef	jal	x1,80001540	  x1=0x80001540
       55245000	      5523	00000000	00000013	addi	x0,x0,0	  x0:0x00000000
       55255000	      5524	80001530	00000013	addi	x0,x0,0	  x0:0x00000000
       55265000	      5525	80001534	fe9ff0ef	jal	x1,80001534	  x1=0x80001534
       55275000	      5526	00000000	00000013	addi	x0,x0,0	  x0:0x00000000
       55285000	      5527	80001518	00000013	addi	x0,x0,0	  x0:0x00000000
       55295000	      5528	8000151c	00400def	jal	x27,8000151c	 x27=0x8000151c
       55305000	      5529	00000000	00000013	addi	x0,x0,0	  x0:0x00000000
       55315000	      5530	8000151c	00000013	addi	x0,x0,0	  x0:0x00000000
       55325000	      5531	80001520	00400def	jal	x27,80001520	 x27=0x80001520
       55335000	      5532	00000000	00000013	addi	x0,x0,0	  x0:0x00000000
       55345000	      5533	80001520	00000013	addi	x0,x0,0	  x0:0x00000000
       55355000	      5534	80001524	0180036f	jal	x6,80001524	  x6=0x80001524
       55365000	      5535	00000000	00000013	addi	x0,x0,0	  x0:0x00000000
       55375000	      5536	80001538	00000013	addi	x0,x0,0	  x0:0x00000000
       55385000	      5537	8000153c	fedff3ef	jal	x7,8000153c	  x7=0x8000153c
       55395000	      5538	00000000	00000013	addi	x0,x0,0	  x0:0x00000000
       55405000	      5539	80001524	00000013	addi	x0,x0,0	  x0:0x00000000
       55415000	      5540	80001528	024000ef	jal	x1,80001528	  x1=0x80001528
       55425000	      5541	00000000	00000013	addi	x0,x0,0	  x0:0x00000000
       55435000	      5542	80001548	00000013	addi	x0,x0,0	  x0:0x00000000
       55445000	      5543	8000154c	00800c6f	jal	x24,8000154c	 x24=0x8000154c
       55455000	      5544	00000000	00000013	addi	x0,x0,0	  x0:0x00000000
       55465000	      5545	80001550	00000013	addi	x0,x0,0	  x0:0x00000000
       55475000	      5546	80001554	54532f13	slti	x30,x6,1349	  x6:0x80001524 x30=0x00000001
       55485000	      5547	80001558	0080036f	jal	x6,80001558	  x6=0x80001558
       55495000	      5548	00000000	00000013	addi	x0,x0,0	  x0:0x00000000
       55505000	      5549	8000155c	00000013	addi	x0,x0,0	  x0:0x00000000
       55515000	      5550	80001560	018001ef	jal	x3,80001560	  x3=0x80001560
       55525000	      5551	00000000	00000013	addi	x0,x0,0	  x0:0x00000000
       55535000	      5552	80001574	00000013	addi	x0,x0,0	  x0:0x00000000
       55545000	      5553	80001578	04800def	jal	x27,80001578	 x27=0x80001578
       55555000	      5554	00000000	00000013	addi	x0,x0,0	  x0:0x00000000
       55565000	      5555	800015bc	00000013	addi	x0,x0,0	  x0:0x00000000
       55575000	      5556	800015c0	fddff0ef	jal	x1,800015c0	  x1=0x800015c0
       55585000	      5557	00000000	00000013	addi	x0,x0,0	  x0:0x00000000
       55595000	      5558	80001598	00000013	addi	x0,x0,0	  x0:0x00000000
       55605000	      5559	8000159c	fe1ff2ef	jal	x5,8000159c	  x5=0x8000159c
       55615000	      5560	00000000	00000013	addi	x0,x0,0	  x0:0x00000000
       55625000	      5561	80001578	00000013	addi	x0,x0,0	  x0:0x00000000
       55635000	      5562	8000157c	004000ef	jal	x1,8000157c	  x1=0x8000157c
       55645000	      5563	00000000	00000013	addi	x0,x0,0	  x0:0x00000000
       55655000	      5564	8000157c	00000013	addi	x0,x0,0	  x0:0x00000000
       55665000	      5565	80001580	fedff56f	jal	x10,80001580	 x10=0x80001580
       55675000	      5566	00000000	00000013	addi	x0,x0,0	  x0:0x00000000
       55685000	      5567	80001568	00000013	addi	x0,x0,0	  x0:0x00000000
       55695000	      5568	8000156c	0200036f	jal	x6,8000156c	  x6=0x8000156c
       55705000	      5569	00000000	00000013	addi	x0,x0,0	  x0:0x00000000
       55715000	      5570	80001588	00000013	addi	x0,x0,0	  x0:0x00000000
       55725000	      5571	8000158c	ff9ff1ef	jal	x3,8000158c	  x3=0x8000158c
       55735000	      5572	00000000	00000013	addi	x0,x0,0	  x0:0x00000000
       55745000	      5573	80001580	00000013	addi	x0,x0,0	  x0:0x00000000
       55755000	      5574	80001584	00c000ef	jal	x1,80001584	  x1=0x80001584
       55765000	      5575	00000000	00000013	addi	x0,x0,0	  x0:0x00000000
       55775000	      5576	8000158c	00000013	addi	x0,x0,0	  x0:0x00000000
       55785000	      5577	80001590	0240036f	jal	x6,80001590	  x6=0x80001590
       55795000	      5578	00000000	00000013	addi	x0,x0,0	  x0:0x00000000
       55805000	      5579	800015b0	00000013	addi	x0,x0,0	  x0:0x00000000
       55815000	      5580	800015b4	fc1ff36f	jal	x6,800015b4	  x6=0x800015b4
       55825000	      5581	00000000	00000013	addi	x0,x0,0	  x0:0x00000000
       55835000	      5582	80001570	00000013	addi	x0,x0,0	  x0:0x00000000
       55845000	      5583	80001574	ffdff0ef	jal	x1,80001574	  x1=0x80001574
       55855000	      5584	00000000	00000013	addi	x0,x0,0	  x0:0x00000000
       55865000	      5585	8000156c	00000013	addi	x0,x0,0	  x0:0x00000000
       55875000	      5586	80001570	0240076f	jal	x14,80001570	 x14=0x80001570
       55885000	      5587	00000000	00000013	addi	x0,x0,0	  x0:0x00000000
       55895000	      5588	80001590	00000013	addi	x0,x0,0	  x0:0x00000000
       55905000	      5589	80001594	02800a6f	jal	x20,80001594	 x20=0x80001594
       55915000	      5590	00000000	00000013	addi	x0,x0,0	  x0:0x00000000
       55925000	      5591	800015b8	00000013	addi	x0,x0,0	  x0:0x00000000
       55935000	      5592	800015bc	ff1ff9ef	jal	x19,800015bc	 x19=0x800015bc
       55945000	      5593	00000000	00000013	addi	x0,x0,0	  x0:0x00000000
       55955000	      5594	800015a8	00000013	addi	x0,x0,0	  x0:0x00000000
       55965000	      5595	800015ac	ff9ff0ef	jal	x1,800015ac	  x1=0x800015ac
       55975000	      5596	00000000	00000013	addi	x0,x0,0	  x0:0x00000000
       55985000	      5597	800015a0	00000013	addi	x0,x0,0	  x0:0x00000000
       55995000	      5598	800015a4	fc5ff0ef	jal	x1,800015a4	  x1=0x800015a4
       56005000	      5599	00000000	00000013	addi	x0,x0,0	  x0:0x00000000
       56015000	      5600	80001564	00000013	addi	x0,x0,0	  x0:0x00000000
       56025000	      5601	80001568	0500016f	jal	x2,80001568	  x2=0x80001568
       56035000	      5602	00000000	00000013	addi	x0,x0,0	  x0:0x00000000
       56045000	      5603	800015b4	00000013	addi	x0,x0,0	  x0:0x00000000
       56055000	      5604	800015b8	fe1ff0ef	jal	x1,800015b8	  x1=0x800015b8
       56065000	      5605	00000000	00000013	addi	x0,x0,0	  x0:0x00000000
       56075000	      5606	80001594	00000013	addi	x0,x0,0	  x0:0x00000000
       56085000	      5607	80001598	fc5ff2ef	jal	x5,80001598	  x5=0x80001598
       56095000	      5608	00000000	00000013	addi	x0,x0,0	  x0:0x00000000
       56105000	      5609	80001558	00000013	addi	x0,x0,0	  x0:0x00000000
       56115000	      5610	8000155c	008000ef	jal	x1,8000155c	  x1=0x8000155c
       56125000	      5611	00000000	00000013	addi	x0,x0,0	  x0:0x00000000
       56135000	      5612	80001560	00000013	addi	x0,x0,0	  x0:0x00000000
       56145000	      5613	80001564	0440046f	jal	x8,80001564	  x8=0x80001564
       56155000	      5614	00000000	00000013	addi	x0,x0,0	  x0:0x00000000
       56165000	      5615	800015a4	00000013	addi	x0,x0,0	  x0:0x00000000
       56175000	      5616	800015a8	fe1ff36f	jal	x6,800015a8	  x6=0x800015a8
       56185000	      5617	00000000	00000013	addi	x0,x0,0	  x0:0x00000000
       56195000	      5618	80001584	00000013	addi	x0,x0,0	  x0:0x00000000
       56205000	      5619	80001588	028002ef	jal	x5,80001588	  x5=0x80001588
       56215000	      5620	00000000	00000013	addi	x0,x0,0	  x0:0x00000000
       56225000	      5621	800015ac	00000013	addi	x0,x0,0	  x0:0x00000000
       56235000	      5622	800015b0	ff1ff36f	jal	x6,800015b0	  x6=0x800015b0
       56245000	      5623	00000000	00000013	addi	x0,x0,0	  x0:0x00000000
       56255000	      5624	8000159c	00000013	addi	x0,x0,0	  x0:0x00000000
       56265000	      5625	800015a0	02400c6f	jal	x24,800015a0	 x24=0x800015a0
       56275000	      5626	00000000	00000013	addi	x0,x0,0	  x0:0x00000000
       56285000	      5627	800015c0	00000013	addi	x0,x0,0	  x0:0x00000000
       56295000	      5628	800015c4	b2b62393	slti	x7,x12,-1237	 x12:0x800014f0  x7=0x00000001
       56305000	      5629	800015c8	0240036f	jal	x6,800015c8	  x6=0x800015c8
       56315000	      5630	00000000	00000013	addi	x0,x0,0	  x0:0x00000000
       56325000	      5631	800015e8	00000013	addi	x0,x0,0	  x0:0x00000000
       56335000	      5632	800015ec	fe1ff2ef	jal	x5,800015ec	  x5=0x800015ec
       56345000	      5633	00000000	00000013	addi	x0,x0,0	  x0:0x00000000
       56355000	      5634	800015c8	00000013	addi	x0,x0,0	  x0:0x00000000
       56365000	      5635	800015cc	01c000ef	jal	x1,800015cc	  x1=0x800015cc
       56375000	      5636	00000000	00000013	addi	x0,x0,0	  x0:0x00000000
       56385000	      5637	800015e4	00000013	addi	x0,x0,0	  x0:0x00000000
       56395000	      5638	800015e8	fe9ff16f	jal	x2,800015e8	  x2=0x800015e8
       56405000	      5639	00000000	00000013	addi	x0,x0,0	  x0:0x00000000
       56415000	      5640	800015cc	00000013	addi	x0,x0,0	  x0:0x00000000
       56425000	      5641	800015d0	01400b6f	jal	x22,800015d0	 x22=0x800015d0
       56435000	      5642	00000000	00000013	addi	x0,x0,0	  x0:0x00000000
       56445000	      5643	800015e0	00000013	addi	x0,x0,0	  x0:0x00000000
       56455000	      5644	800015e4	ff5ff36f	jal	x6,800015e4	  x6=0x800015e4
       56465000	      5645	00000000	00000013	addi	x0,x0,0	  x0:0x00000000
       56475000	      5646	800015d4	00000013	addi	x0,x0,0	  x0:0x00000000
       56485000	      5647	800015d8	0280036f	jal	x6,800015d8	  x6=0x800015d8
       56495000	      5648	00000000	00000013	addi	x0,x0,0	  x0:0x00000000
       56505000	      5649	800015fc	00000013	addi	x0,x0,0	  x0:0x00000000
       56515000	      5650	80001600	fddff0ef	jal	x1,80001600	  x1=0x80001600
       56525000	      5651	00000000	00000013	addi	x0,x0,0	  x0:0x00000000
       56535000	      5652	800015d8	00000013	addi	x0,x0,0	  x0:0x00000000
       56545000	      5653	800015dc	01800def	jal	x27,800015dc	 x27=0x800015dc
       56555000	      5654	00000000	00000013	addi	x0,x0,0	  x0:0x00000000
       56565000	      5655	800015f0	00000013	addi	x0,x0,0	  x0:0x00000000
       56575000	      5656	800015f4	010000ef	jal	x1,800015f4	  x1=0x800015f4
       56585000	      5657	00000000	00000013	addi	x0,x0,0	  x0:0x00000000
       56595000	      5658	80001600	00000013	addi	x0,x0,0	  x0:0x00000000
       56605000	      5659	80001604	ff9ffb6f	jal	x22,80001604	 x22=0x80001604
       56615000	      5660	00000000	00000013	addi	x0,x0,0	  x0:0x00000000
       56625000	      5661	800015f8	00000013	addi	x0,x0,0	  x0:0x00000000
       56635000	      5662	800015fc	fd9ff2ef	jal	x5,800015fc	  x5=0x800015fc
       56645000	      5663	00000000	00000013	addi	x0,x0,0	  x0:0x00000000
       56655000	      5664	800015d0	00000013	addi	x0,x0,0	  x0:0x00000000
       56665000	      5665	800015d4	00c000ef	jal	x1,800015d4	  x1=0x800015d4
       56675000	      5666	00000000	00000013	addi	x0,x0,0	  x0:0x00000000
       56685000	      5667	800015dc	00000013	addi	x0,x0,0	  x0:0x00000000
       56695000	      5668	800015e0	018000ef	jal	x1,800015e0	  x1=0x800015e0
       56705000	      5669	00000000	00000013	addi	x0,x0,0	  x0:0x00000000
       56715000	      5670	800015f4	00000013	addi	x0,x0,0	  x0:0x00000000
       56725000	      5671	800015f8	ff9ff1ef	jal	x3,800015f8	  x3=0x800015f8
       56735000	      5672	00000000	00000013	addi	x0,x0,0	  x0:0x00000000
       56745000	      5673	800015ec	00000013	addi	x0,x0,0	  x0:0x00000000
       56755000	      5674	800015f0	0180036f	jal	x6,800015f0	  x6=0x800015f0
       56765000	      5675	00000000	00000013	addi	x0,x0,0	  x0:0x00000000
       56775000	      5676	80001604	00000013	addi	x0,x0,0	  x0:0x00000000
       56785000	      5677	80001608	0040046f	jal	x8,80001608	  x8=0x80001608
       56795000	      5678	00000000	00000013	addi	x0,x0,0	  x0:0x00000000
       56805000	      5679	80001608	00000013	addi	x0,x0,0	  x0:0x00000000
       56815000	      5680	8000160c	409e86b3	sub	x13,x29,x9	 x29:0x800014e8  x9:0x800013bc x13=0x0000012c
       56825000	      5681	80001610	0241e863	bltu	x3,x4,80001640	  x3:0x800015f8  x4:0x8000150c
       56835000	      5682	80001614	40845033	sra	x0,x8,x8	  x8:0x80001608  x8:0x80001608
       56845000	      5683	80001618	40c984b3	sub	x9,x19,x12	 x19:0x800015bc x12:0x800014f0  x9=0x000000cc
       56855000	      5684	8000161c	19593a93	sltiu	x21,x18,405	 x18:0x80001464 x21=0x00000000
       56865000	      5685	80001620	5ee20a13	addi	x20,x4,1518	  x4:0x8000150c x20=0x80001afa
       56875000	      5686	80001624	013b7b33	and	x22,x22,x19	 x22:0x80001604 x19:0x800015bc x22=0x80001404
       56885000	      5687	80001628	0063db33	srl	x22,x7,x6	  x7:0x00000001  x6:0x800015f0 x22=0x00000000
       56895000	      5688	8000162c	00159b93	slli	x23,x11,0x1	 x11:0x80001478 x23=0x000028f0
       56905000	      5689	80001630	00c1d333	srl	x6,x3,x12	  x3:0x800015f8 x12:0x800014f0  x6=0x00008000
       56915000	      5690	80001634	8fea3c13	sltiu	x24,x20,-1794	 x20:0x80001afa x24=0x00000001
       56925000	      5691	80001638	01ebbdb3	sltu	x27,x23,x30	 x23:0x000028f0 x30:0x00000001 x27=0x00000000
       56935000	      5692	8000163c	00518fb3	add	x31,x3,x5	  x3:0x800015f8  x5:0x800015fc x31=0x00002bf4
       56945000	      5693	80001640	00f40033	add	x0,x8,x15	  x8:0x80001608 x15:0xf573b7aa
       56955000	      5694	80001644	011d1fb3	sll	x31,x26,x17	 x26:0x80009f2c x17:0x80009fc4 x31=0x0009f2c0
       56965000	      5695	80001648	e8c2bf93	sltiu	x31,x5,-372	  x5:0x800015fc x31=0x00000001
       56975000	      5696	8000164c	4a7ba617	auipc	x12,0x4a7ba	 x12=0xca7bb648
       56985000	      5697	80001650	004acfb3	xor	x31,x21,x4	 x21:0x00000000  x4:0x8000150c x31=0x8000150c
       56995000	      5698	80001654	e12b3193	sltiu	x3,x22,-494	 x22:0x00000000  x3=0x00000001
       57005000	      5699	80001658	0b3fb313	sltiu	x6,x31,179	 x31:0x8000150c  x6=0x00000000
       57015000	      5700	8000165c	01155913	srli	x18,x10,0x11	 x10:0x80001580 x18=0x00004000
       57025000	      5701	80001660	d33bb213	sltiu	x4,x23,-717	 x23:0x000028f0  x4=0x00000001
       57035000	      5702	80001664	4d55c697	auipc	x13,0x4d55c	 x13=0xcd55d660
       57045000	      5703	80001668	4c0deb93	ori	x23,x27,1216	 x27:0x00000000 x23=0x000004c0
       57055000	      5704	8000166c	00cfe663	bltu	x31,x12,80001678	 x31:0x8000150c x12:0xca7bb648
       57065000	      5705	00000000	00000013	addi	x0,x0,0	  x0:0x00000000
       57075000	      5706	80001674	00000013	addi	x0,x0,0	  x0:0x00000000
       57085000	      5707	80001678	32af0a97	auipc	x21,0x32af0	 x21=0xb2af1674
       57095000	      5708	8000167c	00a4c263	blt	x9,x10,80001680	  x9:0x000000cc x10:0x80001580
       57105000	      5709	80001680	007cb4b3	sltu	x9,x25,x7	 x25:0x800013dc  x7:0x00000001  x9=0x00000000
       57115000	      5710	80001684	01aa2bb3	slt	x23,x20,x26	 x20:0x80001afa x26:0x80009f2c x23=0x00000001
       57125000	      5711	80001688	002af333	and	x6,x21,x2	 x21:0xb2af1674  x2:0x800015e8  x6=0x80001460
       57135000	      5712	8000168c	003905b3	add	x11,x18,x3	 x18:0x00004000  x3:0x00000001 x11=0x00004001
       57145000	      5713	80001690	004e8bb3	add	x23,x29,x4	 x29:0x800014e8  x4:0x00000001 x23=0x800014e9
       57155000	      5714	80001694	7a3fc713	xori	x14,x31,1955	 x31:0x8000150c x14=0x800012af
       57165000	      5715	80001698	aa2fc393	xori	x7,x31,-1374	 x31:0x8000150c  x7=0x7fffefae
       57175000	      5716	8000169c	00a4c3b3	xor	x7,x9,x10	  x9:0x00000000 x10:0x80001580  x7=0x80001580
       57185000	      5717	800016a0	028e8263	beq	x29,x8,800016c4	 x29:0x800014e8  x8:0x80001608
       57195000	      5718	800016a4	901ecbb7	lui	x23,0x901ec	 x23=0x901ec000
       57205000	      5719	800016a8	02051063	bne	x10,x0,800016c8	 x10:0x80001580  x0:0x00000000
       57215000	      5720	00000000	00000013	addi	x0,x0,0	  x0:0x00000000
       57225000	      5721	800016c4	00000013	addi	x0,x0,0	  x0:0x00000000
       57235000	      5722	800016c8	01ee1533	sll	x10,x28,x30	 x28:0x800014a4 x30:0x00000001 x10=0x00002948
       57245000	      5723	800016cc	0471d463	bge	x3,x7,80001714	  x3:0x00000001  x7:0x80001580
       57255000	      5724	00000000	00000013	addi	x0,x0,0	  x0:0x00000000
       57265000	      5725	80001710	00000013	addi	x0,x0,0	  x0:0x00000000
       57275000	      5726	80001714	e02e7013	andi	x0,x28,-510	 x28:0x800014a4
       57285000	      5727	80001718	0057ec33	or	x24,x15,x5	 x15:0xf573b7aa  x5:0x800015fc x24=0xf573b7fe
       57295000	      5728	8000171c	69104d93	xori	x27,x0,1681	  x0:0x00000000 x27=0x00000691
       57305000	      5729	80001720	01c41533	sll	x10,x8,x28	  x8:0x80001608 x28:0x800014a4 x10=0x00016080
       57315000	      5730	80001724	d62b4f93	xori	x31,x22,-670	 x22:0x00000000 x31=0xfffffd62
       57325000	      5731	80001728	00ccd833	srl	x16,x25,x12	 x25:0x800013dc x12:0xca7bb648 x16=0x00800013
       57335000	      5732	8000172c	03fe5c63	bge	x28,x31,80001764	 x28:0x800014a4 x31:0xfffffd62
       57345000	      5733	80001730	00280633	add	x12,x16,x2	 x16:0x00800013  x2:0x800015e8 x12=0x808015fb
       57355000	      5734	80001734	012aef33	or	x30,x21,x18	 x21:0xb2af1674 x18:0x00004000 x30=0xb2af5674
       57365000	      5735	80001738	015fd493	srli	x9,x31,0x15	 x31:0xfffffd62  x9=0x000007ff
       57375000	      5736	8000173c	00bcf4b3	and	x9,x25,x11	 x25:0x800013dc x11:0x00004001  x9=0x00000000
       57385000	      5737	80001740	01ef6263	bltu	x30,x30,80001744	 x30:0xb2af5674 x30:0xb2af5674
       57395000	      5738	80001744	011f7a33	and	x20,x30,x17	 x30:0xb2af5674 x17:0x80009fc4 x20=0x80001644
       57405000	      5739	80001748	003ab833	sltu	x16,x21,x3	 x21:0xb2af1674  x3:0x00000001 x16=0x00000000
       57415000	      5740	8000174c	004e5c63	bge	x28,x4,80001764	 x28:0x800014a4  x4:0x00000001
       57425000	      5741	80001750	fcc69537	lui	x10,0xfcc69	 x10=0xfcc69000
       57435000	      5742	80001754	ba4d7913	andi	x18,x26,-1116	 x26:0x80009f2c x18=0x80009b24
       57445000	      5743	80001758	01555713	srli	x14,x10,0x15	 x10:0xfcc69000 x14=0x000007e6
       57455000	      5744	8000175c	047e6663	bltu	x28,x7,800017a8	 x28:0x800014a4  x7:0x80001580
       57465000	      5745	00000000	00000013	addi	x0,x0,0	  x0:0x00000000
       57475000	      5746	800017a4	00000013	addi	x0,x0,0	  x0:0x00000000
       57485000	      5747	800017a8	01bd64b3	or	x9,x26,x27	 x26:0x80009f2c x27:0x00000691  x9=0x80009fbd
       57495000	      5748	800017ac	01482e33	slt	x28,x16,x20	 x16:0x00000000 x20:0x80001644 x28=0x00000000
       57505000	      5749	800017b0	00f86bb3	or	x23,x16,x15	 x16:0x00000000 x15:0xf573b7aa x23=0xf573b7aa
       57515000	      5750	800017b4	e51b4b17	auipc	x22,0xe51b4	 x22=0x651b57b0
       57525000	      5751	800017b8	d9cef0b7	lui	x1,0xd9cef	  x1=0xd9cef000
       57535000	      5752	800017bc	00016e63	bltu	x2,x0,800017d8	  x2:0x800015e8  x0:0x00000000
       57545000	      5753	800017c0	40e5d313	srai	x6,x11,0xe	 x11:0x00004001  x6=0x00000001
       57555000	      5754	800017c4	1375f637	lui	x12,0x1375f	 x12=0x1375f000
       57565000	      5755	800017c8	a8973e13	sltiu	x28,x14,-1399	 x14:0x000007e6 x28=0x00000001
       57575000	      5756	800017cc	018d8a63	beq	x27,x24,800017e0	 x27:0x00000691 x24:0xf573b7fe
       57585000	      5757	800017d0	01ac0663	beq	x24,x26,800017dc	 x24:0xf573b7fe x26:0x80009f2c
       57595000	      5758	800017d4	00000013	addi	x0,x0,0	  x0:0x00000000
       57605000	      5759	800017d8	85b46c93	ori	x25,x8,-1957	  x8:0x80001608 x25=0xfffffe5b
       57615000	      5760	800017dc	281d4a13	xori	x20,x26,641	 x26:0x80009f2c x20=0x80009dad
       57625000	      5761	800017e0	03315863	bge	x2,x19,80001810	  x2:0x800015e8 x19:0x800015bc
       57635000	      5762	00000000	00000013	addi	x0,x0,0	  x0:0x00000000
       57645000	      5763	8000180c	00000013	addi	x0,x0,0	  x0:0x00000000
       57655000	      5764	80001810	011ed513	srli	x10,x29,0x11	 x29:0x800014e8 x10=0x00004000
       57665000	      5765	80001814	961ff093	andi	x1,x31,-1695	 x31:0xfffffd62  x1=0xfffff960
       57675000	      5766	80001818	4a7bc613	xori	x12,x23,1191	 x23:0xf573b7aa x12=0xf573b30d
       57685000	      5767	8000181c	417650b3	sra	x1,x12,x23	 x12:0xf573b30d x23:0xf573b7aa  x1=0xfffd5cec
       57695000	      5768	80001820	008b5663	bge	x22,x8,8000182c	 x22:0x651b57b0  x8:0x80001608
       57705000	      5769	00000000	00000013	addi	x0,x0,0	  x0:0x00000000
       57715000	      5770	80001828	00000013	addi	x0,x0,0	  x0:0x00000000
       57725000	      5771	8000182c	04c80863	beq	x16,x12,8000187c	 x16:0x00000000 x12:0xf573b30d
       57735000	      5772	80001830	b3d35617	auipc	x12,0xb3d35	 x12=0x33d3682c
       57745000	      5773	80001834	8351e297	auipc	x5,0x8351e	  x5=0x0351f830
       57755000	      5774	80001838	05f04663	blt	x0,x31,80001884	  x0:0x00000000 x31:0xfffffd62
       57765000	      5775	8000183c	97096c13	ori	x24,x18,-1680	 x18:0x80009b24 x24=0xfffffb74
       57775000	      5776	80001840	00000013	addi	x0,x0,0	  x0:0x00000000
       57785000	      5777	80001844	004473b3	and	x7,x8,x4	  x8:0x80001608  x4:0x00000001  x7=0x00000000
       57795000	      5778	80001848	fc39e593	ori	x11,x19,-61	 x19:0x800015bc x11=0xffffffff
       57805000	      5779	8000184c	014790b3	sll	x1,x15,x20	 x15:0xf573b7aa x20:0x80009dad  x1=0x76f54000
       57815000	      5780	80001850	39e7f493	andi	x9,x15,926	 x15:0xf573b7aa  x9=0x0000038a
       57825000	      5781	80001854	027a0e63	beq	x20,x7,80001890	 x20:0x80009dad  x7:0x00000000
       57835000	      5782	80001858	e67c8417	auipc	x8,0xe67c8	  x8=0x667c9854
       57845000	      5783	8000185c	007d1533	sll	x10,x26,x7	 x26:0x80009f2c  x7:0x00000000 x10=0x80009f2c
       57855000	      5784	80001860	41e4dc13	srai	x24,x9,0x1e	  x9:0x0000038a x24=0x00000000
       57865000	      5785	80001864	04c56463	bltu	x10,x12,800018ac	 x10:0x80009f2c x12:0x33d3682c
       57875000	      5786	80001868	712fc193	xori	x3,x31,1810	 x31:0xfffffd62  x3=0xfffffa70
       57885000	      5787	8000186c	00000013	addi	x0,x0,0	  x0:0x00000000
       57895000	      5788	80001870	41d10bb3	sub	x23,x2,x29	  x2:0x800015e8 x29:0x800014e8 x23=0x00000100
       57905000	      5789	80001874	011fae33	slt	x28,x31,x17	 x31:0xfffffd62 x17:0x80009fc4 x28=0x00000000
       57915000	      5790	80001878	00114233	xor	x4,x2,x1	  x2:0x800015e8  x1:0x76f54000  x4=0xf6f555e8
       57925000	      5791	8000187c	009c30b3	sltu	x1,x24,x9	 x24:0x00000000  x9:0x0000038a  x1=0x00000001
       57935000	      5792	80001880	01411093	slli	x1,x2,0x14	  x2:0x800015e8  x1=0x5e800000
       57945000	      5793	80001884	01770933	add	x18,x14,x23	 x14:0x000007e6 x23:0x00000100 x18=0x000008e6
       57955000	      5794	80001888	41320c33	sub	x24,x4,x19	  x4:0xf6f555e8 x19:0x800015bc x24=0x76f5402c
       57965000	      5795	8000188c	285dcf97	auipc	x31,0x285dc	 x31=0xa85dd888
       57975000	      5796	80001890	00ae6663	bltu	x28,x10,8000189c	 x28:0x00000000 x10:0x80009f2c
       57985000	      5797	00000000	00000013	addi	x0,x0,0	  x0:0x00000000
       57995000	      5798	80001898	00000013	addi	x0,x0,0	  x0:0x00000000
       58005000	      5799	8000189c	f6d57713	andi	x14,x10,-147	 x10:0x80009f2c x14=0x80009f2c
       58015000	      5800	800018a0	017c5593	srli	x11,x24,0x17	 x24:0x76f5402c x11=0x000000ed
       58025000	      5801	800018a4	008d6bb3	or	x23,x26,x8	 x26:0x80009f2c  x8:0x667c9854 x23=0xe67c9f7c
       58035000	      5802	800018a8	016289b3	add	x19,x5,x22	  x5:0x0351f830 x22:0x651b57b0 x19=0x686d4fe0
       58045000	      5803	800018ac	41a105b3	sub	x11,x2,x26	  x2:0x800015e8 x26:0x80009f2c x11=0xffff76bc
       58055000	      5804	800018b0	0051d263	bge	x3,x5,800018b4	  x3:0xfffffa70  x5:0x0351f830
       58065000	      5805	800018b4	015bd113	srli	x2,x23,0x15	 x23:0xe67c9f7c  x2=0x00000733
       58075000	      5806	800018b8	01eebb33	sltu	x22,x29,x30	 x29:0x800014e8 x30:0xb2af5674 x22=0x00000001
       58085000	      5807	800018bc	75e53c13	sltiu	x24,x10,1886	 x10:0x80009f2c x24=0x00000000
       58095000	      5808	800018c0	015bf663	bgeu	x23,x21,800018cc	 x23:0xe67c9f7c x21:0xb2af1674
       58105000	      5809	00000000	00000013	addi	x0,x0,0	  x0:0x00000000
       58115000	      5810	800018c8	00000013	addi	x0,x0,0	  x0:0x00000000
       58125000	      5811	800018cc	f3174db7	lui	x27,0xf3174	 x27=0xf3174000
       58135000	      5812	800018d0	02479063	bne	x15,x4,800018f0	 x15:0xf573b7aa  x4:0xf6f555e8
       58145000	      5813	00000000	00000013	addi	x0,x0,0	  x0:0x00000000
       58155000	      5814	800018ec	00000013	addi	x0,x0,0	  x0:0x00000000
       58165000	      5815	800018f0	40a152b3	sra	x5,x2,x10	  x2:0x00000733 x10:0x80009f2c  x5=0x00000000
       58175000	      5816	800018f4	00012033	slt	x0,x2,x0	  x2:0x00000733  x0:0x00000000
       58185000	      5817	800018f8	1210fa93	andi	x21,x1,289	  x1:0x5e800000 x21=0x00000000
       58195000	      5818	800018fc	41835513	srai	x10,x6,0x18	  x6:0x00000001 x10=0x00000000
       58205000	      5819	80001900	12baa293	slti	x5,x21,299	 x21:0x00000000  x5=0x00000001
       58215000	      5820	80001904	00000013	addi	x0,x0,0	  x0:0x00000000
       58225000	      5821	80001908	01039a63	bne	x7,x16,8000191c	  x7:0x00000000 x16:0x00000000
       58235000	      5822	8000190c	01e0dab3	srl	x21,x1,x30	  x1:0x5e800000 x30:0xb2af5674 x21=0x000005e8
       58245000	      5823	80001910	49e07917	auipc	x18,0x49e07	 x18=0xc9e0890c
       58255000	      5824	80001914	00824a63	blt	x4,x8,80001928	  x4:0xf6f555e8  x8:0x667c9854
       58265000	      5825	00000000	00000013	addi	x0,x0,0	  x0:0x00000000
       58275000	      5826	80001924	00000013	addi	x0,x0,0	  x0:0x00000000
       58285000	      5827	80001928	01ae32b3	sltu	x5,x28,x26	 x28:0x00000000 x26:0x80009f2c  x5=0x00000001
       58295000	      5828	8000192c	aaffddb7	lui	x27,0xaaffd	 x27=0xaaffd000
       58305000	      5829	80001930	af8e4a93	xori	x21,x28,-1288	 x28:0x00000000 x21=0xfffffaf8
       58315000	      5830	80001934	00c52bb3	slt	x23,x10,x12	 x10:0x00000000 x12:0x33d3682c x23=0x00000001
       58325000	      5831	80001938	00103233	sltu	x4,x0,x1	  x0:0x00000000  x1:0x5e800000  x4=0x00000001
       58335000	      5832	8000193c	40e95693	srai	x13,x18,0xe	 x18:0xc9e0890c x13=0xffff2782
       58345000	      5833	80001940	0388ee63	bltu	x17,x24,8000197c	 x17:0x80009fc4 x24:0x00000000
       58355000	      5834	80001944	553ae293	ori	x5,x21,1363	 x21:0xfffffaf8  x5=0xfffffffb
       58365000	      5835	80001948	c4b57e93	andi	x29,x10,-949	 x10:0x00000000 x29=0x00000000
       58375000	      5836	8000194c	011dd613	srli	x12,x27,0x11	 x27:0xaaffd000 x12=0x0000557f
       58385000	      5837	80001950	00533c33	sltu	x24,x6,x5	  x6:0x00000001  x5:0xfffffffb x24=0x00000001
       58395000	      5838	80001954	a5d23593	sltiu	x11,x4,-1443	  x4:0x00000001 x11=0x00000001
       58405000	      5839	80001958	f0f1f613	andi	x12,x3,-241	  x3:0xfffffa70 x12=0xfffffa00
       58415000	      5840	8000195c	68897b13	andi	x22,x18,1672	 x18:0xc9e0890c x22=0x00000008
       58425000	      5841	80001960	003a5cb3	srl	x25,x20,x3	 x20:0x80009dad  x3:0xfffffa70 x25=0x00008000
       58435000	      5842	80001964	406dde33	sra	x28,x27,x6	 x27:0xaaffd000  x6:0x00000001 x28=0xd57fe800
       58445000	      5843	80001968	00576133	or	x2,x14,x5	 x14:0x80009f2c  x5:0xfffffffb  x2=0xffffffff
       58455000	      5844	8000196c	001d70b3	and	x1,x26,x1	 x26:0x80009f2c  x1:0x5e800000  x1=0x00000000
       58465000	      5845	80001970	6fe4b813	sltiu	x16,x9,1790	  x9:0x0000038a x16=0x00000001
       58475000	      5846	80001974	205f0913	addi	x18,x30,517	 x30:0xb2af5674 x18=0xb2af5879
       58485000	      5847	80001978	dc0709b7	lui	x19,0xdc070	 x19=0xdc070000
       58495000	      5848	8000197c	0139f863	bgeu	x19,x19,8000198c	 x19:0xdc070000 x19:0xdc070000
       58505000	      5849	00000000	00000013	addi	x0,x0,0	  x0:0x00000000
       58515000	      5850	80001988	00000013	addi	x0,x0,0	  x0:0x00000000
       58525000	      5851	8000198c	00099433	sll	x8,x19,x0	 x19:0xdc070000  x0:0x00000000  x8=0xdc070000
       58535000	      5852	80001990	85fd3393	sltiu	x7,x26,-1953	 x26:0x80009f2c  x7=0x00000001
       58545000	      5853	80001994	04420463	beq	x4,x4,800019dc	  x4:0x00000001  x4:0x00000001
       58555000	      5854	00000000	00000013	addi	x0,x0,0	  x0:0x00000000
       58565000	      5855	800019d8	00000013	addi	x0,x0,0	  x0:0x00000000
       58575000	      5856	800019dc	00e2b233	sltu	x4,x5,x14	  x5:0xfffffffb x14:0x80009f2c  x4=0x00000000
       58585000	      5857	800019e0	00000013	addi	x0,x0,0	  x0:0x00000000
       58595000	      5858	800019e4	404403b3	sub	x7,x8,x4	  x8:0xdc070000  x4:0x00000000  x7=0xdc070000
       58605000	      5859	800019e8	04a18663	beq	x3,x10,80001a34	  x3:0xfffffa70 x10:0x00000000
       58615000	      5860	800019ec	9c0ebb13	sltiu	x22,x29,-1600	 x29:0x00000000 x22=0x00000001
       58625000	      5861	800019f0	03fe8863	beq	x29,x31,80001a20	 x29:0x00000000 x31:0xa85dd888
       58635000	      5862	800019f4	b8340913	addi	x18,x8,-1149	  x8:0xdc070000 x18=0xdc06fb83
       58645000	      5863	800019f8	01d07e63	bgeu	x0,x29,80001a14	  x0:0x00000000 x29:0x00000000
       58655000	      5864	00000000	00000013	addi	x0,x0,0	  x0:0x00000000
       58665000	      5865	80001a10	00000013	addi	x0,x0,0	  x0:0x00000000
       58675000	      5866	80001a14	9b8dc593	xori	x11,x27,-1608	 x27:0xaaffd000 x11=0x550029b8
       58685000	      5867	80001a18	015e0333	add	x6,x28,x21	 x28:0xd57fe800 x21:0xfffffaf8  x6=0xd57fe2f8
       58695000	      5868	80001a1c	01377a63	bgeu	x14,x19,80001a30	 x14:0x80009f2c x19:0xdc070000
       58705000	      5869	80001a20	002b5b13	srli	x22,x22,0x2	 x22:0x00000001 x22=0x00000000
       58715000	      5870	80001a24	00e82533	slt	x10,x16,x14	 x16:0x00000001 x14:0x80009f2c x10=0x00000000
       58725000	      5871	80001a28	64422b93	slti	x23,x4,1604	  x4:0x00000000 x23=0x00000001
       58735000	      5872	80001a2c	004e5113	srli	x2,x28,0x4	 x28:0xd57fe800  x2=0x0d57fe80
       58745000	      5873	80001a30	0022d493	srli	x9,x5,0x2	  x5:0xfffffffb  x9=0x3ffffffe
       58755000	      5874	80001a34	64ccb437	lui	x8,0x64ccb	  x8=0x64ccb000
       58765000	      5875	80001a38	204f6c13	ori	x24,x30,516	 x30:0xb2af5674 x24=0xb2af5674
       58775000	      5876	80001a3c	41595d93	srai	x27,x18,0x15	 x18:0xdc06fb83 x27=0xfffffee0
       58785000	      5877	80001a40	07c1f993	andi	x19,x3,124	  x3:0xfffffa70 x19=0x00000070
       58795000	      5878	80001a44	b64de393	ori	x7,x27,-1180	 x27:0xfffffee0  x7=0xffffffe4
       58805000	      5879	80001a48	04c20663	beq	x4,x12,80001a94	  x4:0x00000000 x12:0xfffffa00
       58815000	      5880	80001a4c	01d59233	sll	x4,x11,x29	 x11:0x550029b8 x29:0x00000000  x4=0x550029b8
       58825000	      5881	80001a50	000501b3	add	x3,x10,x0	 x10:0x00000000  x0:0x00000000  x3=0x00000000
       58835000	      5882	80001a54	35daf013	andi	x0,x21,861	 x21:0xfffffaf8
       58845000	      5883	80001a58	00d0c5b3	xor	x11,x1,x13	  x1:0x00000000 x13:0xffff2782 x11=0xffff2782
       58855000	      5884	80001a5c	88ce8013	addi	x0,x29,-1908	 x29:0x00000000
       58865000	      5885	80001a60	00e80663	beq	x16,x14,80001a6c	 x16:0x00000001 x14:0x80009f2c
       58875000	      5886	80001a64	eff6deb7	lui	x29,0xeff6d	 x29=0xeff6d000
       58885000	      5887	80001a68	00000013	addi	x0,x0,0	  x0:0x00000000
       58895000	      5888	80001a6c	00699713	slli	x14,x19,0x6	 x19:0x00000070 x14=0x00001c00
       58905000	      5889	80001a70	00b8d9b3	srl	x19,x17,x11	 x17:0x80009fc4 x11:0xffff2782 x19=0x200027f1
       58915000	      5890	80001a74	0b9df063	bgeu	x27,x25,80001b14	 x27:0xfffffee0 x25:0x00008000
       58925000	      5891	00000000	00000013	addi	x0,x0,0	  x0:0x00000000
       58935000	      5892	80001b10	00000013	addi	x0,x0,0	  x0:0x00000000
       58945000	      5893	80001b14	defb7193	andi	x3,x22,-529	 x22:0x00000000  x3=0x00000000
       58955000	      5894	80001b18	4178de93	srai	x29,x17,0x17	 x17:0x80009fc4 x29=0xffffff00
       58965000	      5895	80001b1c	013776b3	and	x13,x14,x19	 x14:0x00001c00 x19:0x200027f1 x13=0x00000400
       58975000	      5896	80001b20	00000013	addi	x0,x0,0	  x0:0x00000000
       58985000	      5897	80001b24	01235fb3	srl	x31,x6,x18	  x6:0xd57fe2f8 x18:0xdc06fb83 x31=0x1aaffc5f
       58995000	      5898	80001b28	ababc413	xori	x8,x23,-1350	 x23:0x00000001  x8=0xfffffabb
       59005000	      5899	80001b2c	40c5d013	srai	x0,x11,0xc	 x11:0xffff2782
       59015000	      5900	80001b30	406f0f33	sub	x30,x30,x6	 x30:0xb2af5674  x6:0xd57fe2f8 x30=0xdd2f737c
       59025000	      5901	80001b34	0088f1b3	and	x3,x17,x8	 x17:0x80009fc4  x8:0xfffffabb  x3=0x80009a80
       59035000	      5902	80001b38	3c74f613	andi	x12,x9,967	  x9:0x3ffffffe x12=0x000003c6
       59045000	      5903	80001b3c	01369eb3	sll	x29,x13,x19	 x13:0x00000400 x19:0x200027f1 x29=0x08000000
       59055000	      5904	80001b40	40735b13	srai	x22,x6,0x7	  x6:0xd57fe2f8 x22=0xffaaffc5
       59065000	      5905	80001b44	c454e713	ori	x14,x9,-955	  x9:0x3ffffffe x14=0xffffffff
       59075000	      5906	80001b48	cd1e0f97	auipc	x31,0xcd1e0	 x31=0x4d1e1b44
       59085000	      5907	80001b4c	01745a33	srl	x20,x8,x23	  x8:0xfffffabb x23:0x00000001 x20=0x7ffffd5d
       59095000	      5908	80001b50	002d5f93	srli	x31,x26,0x2	 x26:0x80009f2c x31=0x200027cb
       59105000	      5909	80001b54	01105133	srl	x2,x0,x17	  x0:0x00000000 x17:0x80009fc4  x2=0x00000000
       59115000	      5910	80001b58	00309f33	sll	x30,x1,x3	  x1:0x00000000  x3:0x80009a80 x30=0x00000000
       59125000	      5911	80001b5c	00dbf6b3	and	x13,x23,x13	 x23:0x00000001 x13:0x00000400 x13=0x00000000
       59135000	      5912	80001b60	0a208e93	addi	x29,x1,162	  x1:0x00000000 x29=0x000000a2
       59145000	      5913	80001b64	fe604813	xori	x16,x0,-26	  x0:0x00000000 x16=0xffffffe6
       59155000	      5914	80001b68	43fc7f93	andi	x31,x24,1087	 x24:0xb2af5674 x31=0x00000434
       59165000	      5915	80001b6c	4b482213	slti	x4,x16,1204	 x16:0xffffffe6  x4=0x00000001
       59175000	      5916	80001b70	01644c63	blt	x8,x22,80001b88	  x8:0xfffffabb x22:0xffaaffc5
       59185000	      5917	80001b74	00236933	or	x18,x6,x2	  x6:0xd57fe2f8  x2:0x00000000 x18=0xd57fe2f8
       59195000	      5918	80001b78	00cbfdb3	and	x27,x23,x12	 x23:0x00000001 x12:0x000003c6 x27=0x00000000
       59205000	      5919	80001b7c	01552233	slt	x4,x10,x21	 x10:0x00000000 x21:0xfffffaf8  x4=0x00000000
       59215000	      5920	80001b80	01dd6e33	or	x28,x26,x29	 x26:0x80009f2c x29:0x000000a2 x28=0x80009fae
       59225000	      5921	80001b84	05828863	beq	x5,x24,80001bd4	  x5:0xfffffffb x24:0xb2af5674
       59235000	      5922	80001b88	411c0bb3	sub	x23,x24,x17	 x24:0xb2af5674 x17:0x80009fc4 x23=0x32aeb6b0
       59245000	      5923	80001b8c	9e08b413	sltiu	x8,x17,-1568	 x17:0x80009fc4  x8=0x00000001
       59255000	      5924	80001b90	bf792293	slti	x5,x18,-1033	 x18:0xd57fe2f8  x5=0x00000001
       59265000	      5925	80001b94	22b1f493	andi	x9,x3,555	  x3:0x80009a80  x9=0x00000200
       59275000	      5926	80001b98	00dfdf13	srli	x30,x31,0xd	 x31:0x00000434 x30=0x00000000
       59285000	      5927	80001b9c	0026e033	or	x0,x13,x2	 x13:0x00000000  x2:0x00000000
       59295000	      5928	80001ba0	415304b3	sub	x9,x6,x21	  x6:0xd57fe2f8 x21:0xfffffaf8  x9=0xd57fe800
       59305000	      5929	80001ba4	017b7633	and	x12,x22,x23	 x22:0xffaaffc5 x23:0x32aeb6b0 x12=0x32aab680
       59315000	      5930	80001ba8	01a93b33	sltu	x22,x18,x26	 x18:0xd57fe2f8 x26:0x80009f2c x22=0x00000000
       59325000	      5931	80001bac	0048dc63	bge	x17,x4,80001bc4	 x17:0x80009fc4  x4:0x00000000
       59335000	      5932	80001bb0	05a15863	bge	x2,x26,80001c00	  x2:0x00000000 x26:0x80009f2c
       59345000	      5933	00000000	00000013	addi	x0,x0,0	  x0:0x00000000
       59355000	      5934	80001bfc	00000013	addi	x0,x0,0	  x0:0x00000000
       59365000	      5935	80001c00	00661813	slli	x16,x12,0x6	 x12:0x32aab680 x16=0xaaada000
       59375000	      5936	80001c04	32740693	addi	x13,x8,807	  x8:0x00000001 x13=0x00000328
       59385000	      5937	80001c08	00a8cb33	xor	x22,x17,x10	 x17:0x80009fc4 x10:0x00000000 x22=0x80009fc4
       59395000	      5938	80001c0c	00ddde63	bge	x27,x13,80001c28	 x27:0x00000000 x13:0x00000328
       59405000	      5939	80001c10	01ad76b3	and	x13,x26,x26	 x26:0x80009f2c x26:0x80009f2c x13=0x80009f2c
       59415000	      5940	80001c14	41e5d833	sra	x16,x11,x30	 x11:0xffff2782 x30:0x00000000 x16=0xffff2782
       59425000	      5941	80001c18	01b49263	bne	x9,x27,80001c1c	  x9:0xd57fe800 x27:0x00000000
       59435000	      5942	00000000	00000013	addi	x0,x0,0	  x0:0x00000000
       59445000	      5943	80001c18	00000013	addi	x0,x0,0	  x0:0x00000000
       59455000	      5944	80001c1c	e9ebfb93	andi	x23,x23,-354	 x23:0x32aeb6b0 x23=0x32aeb690
       59465000	      5945	80001c20	d89ca493	slti	x9,x25,-631	 x25:0x00008000  x9=0x00000000
       59475000	      5946	80001c24	01b6d593	srli	x11,x13,0x1b	 x13:0x80009f2c x11=0x00000010
       59485000	      5947	80001c28	01d59213	slli	x4,x11,0x1d	 x11:0x00000010  x4=0x00000000
       59495000	      5948	80001c2c	04e4c663	blt	x9,x14,80001c78	  x9:0x00000000 x14:0xffffffff
       59505000	      5949	80001c30	000d4663	blt	x26,x0,80001c3c	 x26:0x80009f2c  x0:0x00000000
       59515000	      5950	00000000	00000013	addi	x0,x0,0	  x0:0x00000000
       59525000	      5951	80001c38	00000013	addi	x0,x0,0	  x0:0x00000000
       59535000	      5952	80001c3c	00f1c033	xor	x0,x3,x15	  x3:0x80009a80 x15:0xf573b7aa
       59545000	      5953	80001c40	41038cb3	sub	x25,x7,x16	  x7:0xffffffe4 x16:0xffff2782 x25=0x0000d862
       59555000	      5954	80001c44	006153b3	srl	x7,x2,x6	  x2:0x00000000  x6:0xd57fe2f8  x7=0x00000000
       59565000	      5955	80001c48	40600733	sub	x14,x0,x6	  x0:0x00000000  x6:0xd57fe2f8 x14=0x2a801d08
       59575000	      5956	80001c4c	c4da1b17	auipc	x22,0xc4da1	 x22=0x44da2c48
       59585000	      5957	80001c50	016f91b3	sll	x3,x31,x22	 x31:0x00000434 x22:0x44da2c48  x3=0x00043400
       59595000	      5958	80001c54	04b8e263	bltu	x17,x11,80001c98	 x17:0x80009fc4 x11:0x00000010
       59605000	      5959	80001c58	a47351b7	lui	x3,0xa4735	  x3=0xa4735000
       59615000	      5960	80001c5c	05b71463	bne	x14,x27,80001ca4	 x14:0x2a801d08 x27:0x00000000
       59625000	      5961	00000000	00000013	addi	x0,x0,0	  x0:0x00000000
       59635000	      5962	80001ca0	00000013	addi	x0,x0,0	  x0:0x00000000
       59645000	      5963	80001ca4	00bedab3	srl	x21,x29,x11	 x29:0x000000a2 x11:0x00000010 x21=0x00000000
       59655000	      5964	80001ca8	00e11fb3	sll	x31,x2,x14	  x2:0x00000000 x14:0x2a801d08 x31=0x00000000
       59665000	      5965	80001cac	00000013	addi	x0,x0,0	  x0:0x00000000
       59675000	      5966	80001cb0	d4236313	ori	x6,x6,-702	  x6:0xd57fe2f8  x6=0xfffffffa
       59685000	      5967	80001cb4	0047bdb3	sltu	x27,x15,x4	 x15:0xf573b7aa  x4:0x00000000 x27=0x00000000
       59695000	      5968	80001cb8	41c08f33	sub	x30,x1,x28	  x1:0x00000000 x28:0x80009fae x30=0x7fff6052
       59705000	      5969	80001cbc	76e4b213	sltiu	x4,x9,1902	  x9:0x00000000  x4=0x00000001
       59715000	      5970	80001cc0	6e25bf93	sltiu	x31,x11,1762	 x11:0x00000010 x31=0x00000001
       59725000	      5971	80001cc4	013584b3	add	x9,x11,x19	 x11:0x00000010 x19:0x200027f1  x9=0x20002801
       59735000	      5972	80001cc8	010f9713	slli	x14,x31,0x10	 x31:0x00000001 x14=0x00010000
       59745000	      5973	80001ccc	010cd993	srli	x19,x25,0x10	 x25:0x0000d862 x19=0x00000000
       59755000	      5974	80001cd0	01c540b3	xor	x1,x10,x28	 x10:0x00000000 x28:0x80009fae  x1=0x80009fae
       59765000	      5975	80001cd4	01b7aab3	slt	x21,x15,x27	 x15:0xf573b7aa x27:0x00000000 x21=0x00000001
       59775000	      5976	80001cd8	ef026e93	ori	x29,x4,-272	  x4:0x00000001 x29=0xfffffef1
       59785000	      5977	80001cdc	00066fb3	or	x31,x12,x0	 x12:0x32aab680  x0:0x00000000 x31=0x32aab680
       59795000	      5978	80001ce0	020e6063	bltu	x28,x0,80001d00	 x28:0x80009fae  x0:0x00000000
       59805000	      5979	80001ce4	017e8663	beq	x29,x23,80001cf0	 x29:0xfffffef1 x23:0x32aeb690
       59815000	      5980	80001ce8	9f2bc313	xori	x6,x23,-1550	 x23:0x32aeb690  x6=0xcd514f62
       59825000	      5981	80001cec	00000013	addi	x0,x0,0	  x0:0x00000000
       59835000	      5982	80001cf0	014b6a33	or	x20,x22,x20	 x22:0x44da2c48 x20:0x7ffffd5d x20=0x7ffffd5d
       59845000	      5983	80001cf4	00d5e5b3	or	x11,x11,x13	 x11:0x00000010 x13:0x80009f2c x11=0x80009f3c
       59855000	      5984	80001cf8	e4124f93	xori	x31,x4,-447	  x4:0x00000001 x31=0xfffffe40
       59865000	      5985	80001cfc	00f11713	slli	x14,x2,0xf	  x2:0x00000000 x14=0x00000000
       59875000	      5986	80001d00	01e7d593	srli	x11,x15,0x1e	 x15:0xf573b7aa x11=0x00000003
       59885000	      5987	80001d04	017ac633	xor	x12,x21,x23	 x21:0x00000001 x23:0x32aeb690 x12=0x32aeb691
       59895000	      5988	80001d08	01830a63	beq	x6,x24,80001d1c	  x6:0xcd514f62 x24:0xb2af5674
       59905000	      5989	80001d0c	00fd5813	srli	x16,x26,0xf	 x26:0x80009f2c x16=0x00010001
       59915000	      5990	80001d10	494df013	andi	x0,x27,1172	 x27:0x00000000
       59925000	      5991	80001d14	0116da93	srli	x21,x13,0x11	 x13:0x80009f2c x21=0x00004000
       59935000	      5992	80001d18	1ef1aa17	auipc	x20,0x1ef1a	 x20=0x9ef1bd14
       59945000	      5993	80001d1c	01a66a33	or	x20,x12,x26	 x12:0x32aeb691 x26:0x80009f2c x20=0xb2aebfbd
       59955000	      5994	80001d20	000dc333	xor	x6,x27,x0	 x27:0x00000000  x0:0x00000000  x6=0x00000000
       59965000	      5995	80001d24	d8fae193	ori	x3,x21,-625	 x21:0x00004000  x3=0xfffffd8f
       59975000	      5996	80001d28	5e430117	auipc	x2,0x5e430	  x2=0xde431d24
       59985000	      5997	80001d2c	0187b2b3	sltu	x5,x15,x24	 x15:0xf573b7aa x24:0xb2af5674  x5=0x00000000
       59995000	      5998	80001d30	00ff5493	srli	x9,x30,0xf	 x30:0x7fff6052  x9=0x0000fffe
       60005000	      5999	80001d34	00f89663	bne	x17,x15,80001d40	 x17:0x80009fc4 x15:0xf573b7aa
       60015000	      6000	00000000	00000013	addi	x0,x0,0	  x0:0x00000000
       60025000	      6001	80001d3c	00000013	addi	x0,x0,0	  x0:0x00000000
       60035000	      6002	80001d40	40790cb3	sub	x25,x18,x7	 x18:0xd57fe2f8  x7:0x00000000 x25=0xd57fe2f8
       60045000	      6003	80001d44	00e23533	sltu	x10,x4,x14	  x4:0x00000001 x14:0x00000000 x10=0x00000000
       60055000	      6004	80001d48	20684217	auipc	x4,0x20684	  x4=0xa0685d44
       60065000	      6005	80001d4c	0108cab3	xor	x21,x17,x16	 x17:0x80009fc4 x16:0x00010001 x21=0x80019fc5
       60075000	      6006	80001d50	401a5293	srai	x5,x20,0x1	 x20:0xb2aebfbd  x5=0xd9575fde
       60085000	      6007	80001d54	00d566b3	or	x13,x10,x13	 x10:0x00000000 x13:0x80009f2c x13=0x80009f2c
       60095000	      6008	80001d58	02b1d863	bge	x3,x11,80001d88	  x3:0xfffffd8f x11:0x00000003
       60105000	      6009	80001d5c	2ea86293	ori	x5,x16,746	 x16:0x00010001  x5=0x000102eb
       60115000	      6010	80001d60	b742ad93	slti	x27,x5,-1164	  x5:0x000102eb x27=0x00000000
       60125000	      6011	80001d64	00f05513	srli	x10,x0,0xf	  x0:0x00000000 x10=0x00000000
       60135000	      6012	80001d68	e0ccbfb7	lui	x31,0xe0ccb	 x31=0xe0ccb000
       60145000	      6013	80001d6c	3ac7bf17	auipc	x30,0x3ac7b	 x30=0xbac7cd68
       60155000	      6014	80001d70	40038833	sub	x16,x7,x0	  x7:0x00000000  x0:0x00000000 x16=0x00000000
       60165000	      6015	80001d74	6a98bf93	sltiu	x31,x17,1705	 x17:0x80009fc4 x31=0x00000000
       60175000	      6016	80001d78	00554663	blt	x10,x5,80001d84	 x10:0x00000000  x5:0x000102eb
       60185000	      6017	00000000	00000013	addi	x0,x0,0	  x0:0x00000000
       60195000	      6018	80001d80	00000013	addi	x0,x0,0	  x0:0x00000000
       60205000	      6019	80001d84	02004e63	blt	x0,x0,80001dc0	  x0:0x00000000  x0:0x00000000
       60215000	      6020	80001d88	350d7293	andi	x5,x26,848	 x26:0x80009f2c  x5=0x00000300
       60225000	      6021	80001d8c	00641213	slli	x4,x8,0x6	  x8:0x00000001  x4=0x00000040
       60235000	      6022	80001d90	78bae193	ori	x3,x21,1931	 x21:0x80019fc5  x3=0x80019fcf
       60245000	      6023	80001d94	01bca933	slt	x18,x25,x27	 x25:0xd57fe2f8 x27:0x00000000 x18=0x00000001
       60255000	      6024	80001d98	00f8f2b3	and	x5,x17,x15	 x17:0x80009fc4 x15:0xf573b7aa  x5=0x80009780
       60265000	      6025	80001d9c	40be5633	sra	x12,x28,x11	 x28:0x80009fae x11:0x00000003 x12=0xf00013f5
       60275000	      6026	80001da0	c4992eb7	lui	x29,0xc4992	 x29=0xc4992000
       60285000	      6027	80001da4	48ae3b93	sltiu	x23,x28,1162	 x28:0x80009fae x23=0x00000000
       60295000	      6028	80001da8	96183b13	sltiu	x22,x16,-1695	 x16:0x00000000 x22=0x00000001
       60305000	      6029	80001dac	001fd5b3	srl	x11,x31,x1	 x31:0x00000000  x1:0x80009fae x11=0x00000000
       60315000	      6030	80001db0	02ae9663	bne	x29,x10,80001ddc	 x29:0xc4992000 x10:0x00000000
       60325000	      6031	00000000	00000013	addi	x0,x0,0	  x0:0x00000000
       60335000	      6032	80001dd8	00000013	addi	x0,x0,0	  x0:0x00000000
       60345000	      6033	80001ddc	411b8733	sub	x14,x23,x17	 x23:0x00000000 x17:0x80009fc4 x14=0x7fff603c
       60355000	      6034	80001de0	018b5c63	bge	x22,x24,80001df8	 x22:0x00000001 x24:0xb2af5674
       60365000	      6035	00000000	00000013	addi	x0,x0,0	  x0:0x00000000
       60375000	      6036	80001df4	00000013	addi	x0,x0,0	  x0:0x00000000
       60385000	      6037	80001df8	00388263	beq	x17,x3,80001dfc	 x17:0x80009fc4  x3:0x80019fcf
       60395000	      6038	80001dfc	00f94bb3	xor	x23,x18,x15	 x18:0x00000001 x15:0xf573b7aa x23=0xf573b7ab
       60405000	      6039	80001e00	01de9093	slli	x1,x29,0x1d	 x29:0xc4992000  x1=0x00000000
       60415000	      6040	80001e04	008369b3	or	x19,x6,x8	  x6:0x00000000  x8:0x00000001 x19=0x00000001
       60425000	      6041	80001e08	30bb2117	auipc	x2,0x30bb2	  x2=0xb0bb3e04
       60435000	      6042	80001e0c	40cade13	srai	x28,x21,0xc	 x21:0x80019fc5 x28=0xfff80019
       60445000	      6043	80001e10	41cc01b3	sub	x3,x24,x28	 x24:0xb2af5674 x28:0xfff80019  x3=0xb2b7565b
       60455000	      6044	80001e14	41248cb3	sub	x25,x9,x18	  x9:0x0000fffe x18:0x00000001 x25=0x0000fffd
       60465000	      6045	80001e18	0dab4463	blt	x22,x26,80001ee0	 x22:0x00000001 x26:0x80009f2c
       60475000	      6046	80001e1c	5e8fa693	slti	x13,x31,1512	 x31:0x00000000 x13=0x00000001
       60485000	      6047	80001e20	00779193	slli	x3,x15,0x7	 x15:0xf573b7aa  x3=0xb9dbd500
       60495000	      6048	80001e24	b7c8ed93	ori	x27,x17,-1156	 x17:0x80009fc4 x27=0xfffffffc
       60505000	      6049	80001e28	0a9e6063	bltu	x28,x9,80001ec8	 x28:0xfff80019  x9:0x0000fffe
       60515000	      6050	80001e2c	eaa94513	xori	x10,x18,-342	 x18:0x00000001 x10=0xfffffeab
       60525000	      6051	80001e30	00e5dd93	srli	x27,x11,0xe	 x11:0x00000000 x27=0x00000000
       60535000	      6052	80001e34	08c80463	beq	x16,x12,80001ebc	 x16:0x00000000 x12:0xf00013f5
       60545000	      6053	80001e38	0640036f	jal	x6,80001e38	  x6=0x80001e38
       60555000	      6054	00000000	00000013	addi	x0,x0,0	  x0:0x00000000
       60565000	      6055	80001e98	00000013	addi	x0,x0,0	  x0:0x00000000
       60575000	      6056	80001e9c	fa5ffdef	jal	x27,80001e9c	 x27=0x80001e9c
       60585000	      6057	00000000	00000013	addi	x0,x0,0	  x0:0x00000000
       60595000	      6058	80001e3c	00000013	addi	x0,x0,0	  x0:0x00000000
       60605000	      6059	80001e40	01c000ef	jal	x1,80001e40	  x1=0x80001e40
       60615000	      6060	00000000	00000013	addi	x0,x0,0	  x0:0x00000000
       60625000	      6061	80001e58	00000013	addi	x0,x0,0	  x0:0x00000000
       60635000	      6062	80001e5c	030000ef	jal	x1,80001e5c	  x1=0x80001e5c
       60645000	      6063	00000000	00000013	addi	x0,x0,0	  x0:0x00000000
       60655000	      6064	80001e88	00000013	addi	x0,x0,0	  x0:0x00000000
       60665000	      6065	80001e8c	fb9ff0ef	jal	x1,80001e8c	  x1=0x80001e8c
       60675000	      6066	00000000	00000013	addi	x0,x0,0	  x0:0x00000000
       60685000	      6067	80001e40	00000013	addi	x0,x0,0	  x0:0x00000000
       60695000	      6068	80001e44	028000ef	jal	x1,80001e44	  x1=0x80001e44
       60705000	      6069	00000000	00000013	addi	x0,x0,0	  x0:0x00000000
       60715000	      6070	80001e68	00000013	addi	x0,x0,0	  x0:0x00000000
       60725000	      6071	80001e6c	03c0036f	jal	x6,80001e6c	  x6=0x80001e6c
       60735000	      6072	00000000	00000013	addi	x0,x0,0	  x0:0x00000000
       60745000	      6073	80001ea4	00000013	addi	x0,x0,0	  x0:0x00000000
       60755000	      6074	80001ea8	0040066f	jal	x12,80001ea8	 x12=0x80001ea8
       60765000	      6075	00000000	00000013	addi	x0,x0,0	  x0:0x00000000
       60775000	      6076	80001ea8	00000013	addi	x0,x0,0	  x0:0x00000000
       60785000	      6077	80001eac	fa1ff36f	jal	x6,80001eac	  x6=0x80001eac
       60795000	      6078	00000000	00000013	addi	x0,x0,0	  x0:0x00000000
       60805000	      6079	80001e48	00000013	addi	x0,x0,0	  x0:0x00000000
       60815000	      6080	80001e4c	02c0036f	jal	x6,80001e4c	  x6=0x80001e4c
       60825000	      6081	00000000	00000013	addi	x0,x0,0	  x0:0x00000000
       60835000	      6082	80001e74	00000013	addi	x0,x0,0	  x0:0x00000000
       60845000	      6083	80001e78	010000ef	jal	x1,80001e78	  x1=0x80001e78
       60855000	      6084	00000000	00000013	addi	x0,x0,0	  x0:0x00000000
       60865000	      6085	80001e84	00000013	addi	x0,x0,0	  x0:0x00000000
       60875000	      6086	80001e88	fddff0ef	jal	x1,80001e88	  x1=0x80001e88
       60885000	      6087	00000000	00000013	addi	x0,x0,0	  x0:0x00000000
       60895000	      6088	80001e60	00000013	addi	x0,x0,0	  x0:0x00000000
       60905000	      6089	80001e64	0400036f	jal	x6,80001e64	  x6=0x80001e64
       60915000	      6090	00000000	00000013	addi	x0,x0,0	  x0:0x00000000
       60925000	      6091	80001ea0	00000013	addi	x0,x0,0	  x0:0x00000000
       60935000	      6092	80001ea4	ff5ff0ef	jal	x1,80001ea4	  x1=0x80001ea4
       60945000	      6093	00000000	00000013	addi	x0,x0,0	  x0:0x00000000
       60955000	      6094	80001e94	00000013	addi	x0,x0,0	  x0:0x00000000
       60965000	      6095	80001e98	fedff0ef	jal	x1,80001e98	  x1=0x80001e98
       60975000	      6096	00000000	00000013	addi	x0,x0,0	  x0:0x00000000
       60985000	      6097	80001e80	00000013	addi	x0,x0,0	  x0:0x00000000
       60995000	      6098	80001e84	fe5ff36f	jal	x6,80001e84	  x6=0x80001e84
       61005000	      6099	00000000	00000013	addi	x0,x0,0	  x0:0x00000000
       61015000	      6100	80001e64	00000013	addi	x0,x0,0	  x0:0x00000000
       61025000	      6101	80001e68	008000ef	jal	x1,80001e68	  x1=0x80001e68
       61035000	      6102	00000000	00000013	addi	x0,x0,0	  x0:0x00000000
       61045000	      6103	80001e6c	00000013	addi	x0,x0,0	  x0:0x00000000
       61055000	      6104	80001e70	0240036f	jal	x6,80001e70	  x6=0x80001e70
       61065000	      6105	00000000	00000013	addi	x0,x0,0	  x0:0x00000000
       61075000	      6106	80001e90	00000013	addi	x0,x0,0	  x0:0x00000000
       61085000	      6107	80001e94	fcdff36f	jal	x6,80001e94	  x6=0x80001e94
       61095000	      6108	00000000	00000013	addi	x0,x0,0	  x0:0x00000000
       61105000	      6109	80001e5c	00000013	addi	x0,x0,0	  x0:0x00000000
       61115000	      6110	80001e60	ff5fffef	jal	x31,80001e60	 x31=0x80001e60
       61125000	      6111	00000000	00000013	addi	x0,x0,0	  x0:0x00000000
       61135000	      6112	80001e50	00000013	addi	x0,x0,0	  x0:0x00000000
       61145000	      6113	80001e54	0280036f	jal	x6,80001e54	  x6=0x80001e54
       61155000	      6114	00000000	00000013	addi	x0,x0,0	  x0:0x00000000
       61165000	      6115	80001e78	00000013	addi	x0,x0,0	  x0:0x00000000
       61175000	      6116	80001e7c	014000ef	jal	x1,80001e7c	  x1=0x80001e7c
       61185000	      6117	00000000	00000013	addi	x0,x0,0	  x0:0x00000000
       61195000	      6118	80001e8c	00000013	addi	x0,x0,0	  x0:0x00000000
       61205000	      6119	80001e90	0100076f	jal	x14,80001e90	 x14=0x80001e90
       61215000	      6120	00000000	00000013	addi	x0,x0,0	  x0:0x00000000
       61225000	      6121	80001e9c	00000013	addi	x0,x0,0	  x0:0x00000000
       61235000	      6122	80001ea0	fe1ff0ef	jal	x1,80001ea0	  x1=0x80001ea0
       61245000	      6123	00000000	00000013	addi	x0,x0,0	  x0:0x00000000
       61255000	      6124	80001e7c	00000013	addi	x0,x0,0	  x0:0x00000000
       61265000	      6125	80001e80	fbdff4ef	jal	x9,80001e80	  x9=0x80001e80
       61275000	      6126	00000000	00000013	addi	x0,x0,0	  x0:0x00000000
       61285000	      6127	80001e38	00000013	addi	x0,x0,0	  x0:0x00000000
       61295000	      6128	80001e3c	01c0036f	jal	x6,80001e3c	  x6=0x80001e3c
       61305000	      6129	00000000	00000013	addi	x0,x0,0	  x0:0x00000000
       61315000	      6130	80001e54	00000013	addi	x0,x0,0	  x0:0x00000000
       61325000	      6131	80001e58	ff9ff0ef	jal	x1,80001e58	  x1=0x80001e58
       61335000	      6132	00000000	00000013	addi	x0,x0,0	  x0:0x00000000
       61345000	      6133	80001e4c	00000013	addi	x0,x0,0	  x0:0x00000000
       61355000	      6134	80001e50	024003ef	jal	x7,80001e50	  x7=0x80001e50
       61365000	      6135	00000000	00000013	addi	x0,x0,0	  x0:0x00000000
       61375000	      6136	80001e70	00000013	addi	x0,x0,0	  x0:0x00000000
       61385000	      6137	80001e74	fd5ff6ef	jal	x13,80001e74	 x13=0x80001e74
       61395000	      6138	00000000	00000013	addi	x0,x0,0	  x0:0x00000000
       61405000	      6139	80001e44	00000013	addi	x0,x0,0	  x0:0x00000000
       61415000	      6140	80001e48	0680036f	jal	x6,80001e48	  x6=0x80001e48
       61425000	      6141	00000000	00000013	addi	x0,x0,0	  x0:0x00000000
       61435000	      6142	80001eac	00000013	addi	x0,x0,0	  x0:0x00000000
       61445000	      6143	80001eb0	3dd88913	addi	x18,x17,989	 x17:0x80009fc4 x18=0x8000a3a1
       61455000	      6144	80001eb4	01fa1813	slli	x16,x20,0x1f	 x20:0xb2aebfbd x16=0x80000000
       61465000	      6145	80001eb8	007d1663	bne	x26,x7,80001ec4	 x26:0x80009f2c  x7:0x80001e50
       61475000	      6146	00000000	00000013	addi	x0,x0,0	  x0:0x00000000
       61485000	      6147	80001ec0	00000013	addi	x0,x0,0	  x0:0x00000000
       61495000	      6148	80001ec4	01f4c033	xor	x0,x9,x31	  x9:0x80001e80 x31:0x80001e60
       61505000	      6149	80001ec8	01df0663	beq	x30,x29,80001ed4	 x30:0xbac7cd68 x29:0xc4992000
       61515000	      6150	80001ecc	70903813	sltiu	x16,x0,1801	  x0:0x00000000 x16=0x00000001
       61525000	      6151	80001ed0	0cb4a813	slti	x16,x9,203	  x9:0x80001e80 x16=0x00000001
       61535000	      6152	80001ed4	01e37fb3	and	x31,x6,x30	  x6:0x80001e48 x30:0xbac7cd68 x31=0x80000c48
       61545000	      6153	80001ed8	01e5c533	xor	x10,x11,x30	 x11:0x00000000 x30:0xbac7cd68 x10=0xbac7cd68
       61555000	      6154	80001edc	006b00b3	add	x1,x22,x6	 x22:0x00000001  x6:0x80001e48  x1=0x80001e49
       61565000	      6155	80001ee0	02db5663	bge	x22,x13,80001f0c	 x22:0x00000001 x13:0x80001e74
       61575000	      6156	00000000	00000013	addi	x0,x0,0	  x0:0x00000000
       61585000	      6157	80001f08	00000013	addi	x0,x0,0	  x0:0x00000000
       61595000	      6158	80001f0c	00000013	addi	x0,x0,0	  x0:0x00000000
       61605000	      6159	80001f10	01dc5c93	srli	x25,x24,0x1d	 x24:0xb2af5674 x25=0x00000005
       61615000	      6160	80001f14	012b5d93	srli	x27,x22,0x12	 x22:0x00000001 x27=0x00000000
       61625000	      6161	80001f18	00000013	addi	x0,x0,0	  x0:0x00000000
       61635000	      6162	80001f1c	40acd613	srai	x12,x25,0xa	 x25:0x00000005 x12=0x00000000
       61645000	      6163	80001f20	007c0663	beq	x24,x7,80001f2c	 x24:0xb2af5674  x7:0x80001e50
       61655000	      6164	80001f24	40865e93	srai	x29,x12,0x8	 x12:0x00000000 x29=0x00000000
       61665000	      6165	80001f28	03509263	bne	x1,x21,80001f4c	  x1:0x80001e49 x21:0x80019fc5
       61675000	      6166	00000000	00000013	addi	x0,x0,0	  x0:0x00000000
       61685000	      6167	80001f48	00000013	addi	x0,x0,0	  x0:0x00000000
       61695000	      6168	80001f4c	01d1cc63	blt	x3,x29,80001f64	  x3:0xb9dbd500 x29:0x00000000
       61705000	      6169	00000000	00000013	addi	x0,x0,0	  x0:0x00000000
       61715000	      6170	80001f60	00000013	addi	x0,x0,0	  x0:0x00000000
       61725000	      6171	80001f64	00fca833	slt	x16,x25,x15	 x25:0x00000005 x15:0xf573b7aa x16=0x00000000
       61735000	      6172	80001f68	c2a7a6b7	lui	x13,0xc2a7a	 x13=0xc2a7a000
       61745000	      6173	80001f6c	843d0cb7	lui	x25,0x843d0	 x25=0x843d0000
       61755000	      6174	80001f70	001cd533	srl	x10,x25,x1	 x25:0x843d0000  x1:0x80001e49 x10=0x00421e80
       61765000	      6175	80001f74	3ee903b7	lui	x7,0x3ee90	  x7=0x3ee90000
       61775000	      6176	80001f78	06762613	slti	x12,x12,103	 x12:0x00000000 x12=0x00000001
       61785000	      6177	80001f7c	48007293	andi	x5,x0,1152	  x0:0x00000000  x5=0x00000000
       61795000	      6178	80001f80	0408c863	blt	x17,x0,80001fd0	 x17:0x80009fc4  x0:0x00000000
       61805000	      6179	00000000	00000013	addi	x0,x0,0	  x0:0x00000000
       61815000	      6180	80001fcc	00000013	addi	x0,x0,0	  x0:0x00000000
       61825000	      6181	80001fd0	b41e0593	addi	x11,x28,-1215	 x28:0xfff80019 x11=0xfff7fb5a
       61835000	      6182	80001fd4	01f36e33	or	x28,x6,x31	  x6:0x80001e48 x31:0x80000c48 x28=0x80001e48
       61845000	      6183	80001fd8	01b64663	blt	x12,x27,80001fe4	 x12:0x00000001 x27:0x00000000
       61855000	      6184	80001fdc	10ee0d93	addi	x27,x28,270	 x28:0x80001e48 x27=0x80001f56
       61865000	      6185	80001fe0	003a6f33	or	x30,x20,x3	 x20:0xb2aebfbd  x3:0xb9dbd500 x30=0xbbffffbd
       61875000	      6186	80001fe4	23084013	xori	x0,x16,560	 x16:0x00000000
       61885000	      6187	80001fe8	00288cb3	add	x25,x17,x2	 x17:0x80009fc4  x2:0xb0bb3e04 x25=0x30bbddc8
       61895000	      6188	80001fec	005b6863	bltu	x22,x5,80001ffc	 x22:0x00000001  x5:0x00000000
       61905000	      6189	80001ff0	000e5f33	srl	x30,x28,x0	 x28:0x80001e48  x0:0x00000000 x30=0x80001e48
       61915000	      6190	80001ff4	183e0197	auipc	x3,0x183e0	  x3=0x983e1ff0
       61925000	      6191	80001ff8	007f9d93	slli	x27,x31,0x7	 x31:0x80000c48 x27=0x00062400
       61935000	      6192	80001ffc	01389cb3	sll	x25,x17,x19	 x17:0x80009fc4 x19:0x00000001 x25=0x00013f88
       61945000	      6193	80002000	f2286113	ori	x2,x16,-222	 x16:0x00000000  x2=0xffffff22
       61955000	      6194	80002004	46c50713	addi	x14,x10,1132	 x10:0x00421e80 x14=0x004222ec
       61965000	      6195	80002008	405dd933	sra	x18,x27,x5	 x27:0x00062400  x5:0x00000000 x18=0x00062400
       61975000	      6196	8000200c	0094f033	and	x0,x9,x9	  x9:0x80001e80  x9:0x80001e80
       61985000	      6197	80002010	66722f93	slti	x31,x4,1639	  x4:0x00000040 x31=0x00000001
       61995000	      6198	80002014	f7054c37	lui	x24,0xf7054	 x24=0xf7054000
       62005000	      6199	80002018	007e8fb3	add	x31,x29,x7	 x29:0x00000000  x7:0x3ee90000 x31=0x3ee90000
       62015000	      6200	8000201c	033a8863	beq	x21,x19,8000204c	 x21:0x80019fc5 x19:0x00000001
       62025000	      6201	80002020	ad44c613	xori	x12,x9,-1324	  x9:0x80001e80 x12=0x7fffe454
       62035000	      6202	80002024	01c5ca33	xor	x20,x11,x28	 x11:0xfff7fb5a x28:0x80001e48 x20=0x7ff7e512
       62045000	      6203	80002028	40fbd413	srai	x8,x23,0xf	 x23:0xf573b7ab  x8=0xffffeae7
       62055000	      6204	8000202c	a903cd93	xori	x27,x7,-1392	  x7:0x3ee90000 x27=0xc116fa90
       62065000	      6205	80002030	778d7213	andi	x4,x26,1912	 x26:0x80009f2c  x4=0x00000728
       62075000	      6206	80002034	66b30db7	lui	x27,0x66b30	 x27=0x66b30000
       62085000	      6207	80002038	0178dd93	srli	x27,x17,0x17	 x17:0x80009fc4 x27=0x00000100
       62095000	      6208	8000203c	01da8c33	add	x24,x21,x29	 x21:0x80019fc5 x29:0x00000000 x24=0x80019fc5
       62105000	      6209	80002040	0b9b6263	bltu	x22,x25,800020e4	 x22:0x00000001 x25:0x00013f88
       62115000	      6210	00000000	00000013	addi	x0,x0,0	  x0:0x00000000
       62125000	      6211	800020e0	00000013	addi	x0,x0,0	  x0:0x00000000
       62135000	      6212	800020e4	00369733	sll	x14,x13,x3	 x13:0xc2a7a000  x3:0x983e1ff0 x14=0xa0000000
       62145000	      6213	800020e8	0584c463	blt	x9,x24,80002130	  x9:0x80001e80 x24:0x80019fc5
       62155000	      6214	00000000	00000013	addi	x0,x0,0	  x0:0x00000000
       62165000	      6215	8000212c	00000013	addi	x0,x0,0	  x0:0x00000000
       62175000	      6216	80002130	029a7e63	bgeu	x20,x9,8000216c	 x20:0x7ff7e512  x9:0x80001e80
       62185000	      6217	80002134	01f919b3	sll	x19,x18,x31	 x18:0x00062400 x31:0x3ee90000 x19=0x00062400
       62195000	      6218	80002138	78bd2297	auipc	x5,0x78bd2	  x5=0xf8bd4134
       62205000	      6219	8000213c	00000013	addi	x0,x0,0	  x0:0x00000000
       62215000	      6220	80002140	f0823313	sltiu	x6,x4,-248	  x4:0x00000728  x6=0x00000001
       62225000	      6221	80002144	007b9193	slli	x3,x23,0x7	 x23:0xf573b7ab  x3=0xb9dbd580
       62235000	      6222	80002148	00aa2cb3	slt	x25,x20,x10	 x20:0x7ff7e512 x10:0x00421e80 x25=0x00000000
       62245000	      6223	8000214c	41d05613	srai	x12,x0,0x1d	  x0:0x00000000 x12=0x00000000
       62255000	      6224	80002150	41a651b3	sra	x3,x12,x26	 x12:0x00000000 x26:0x80009f2c  x3=0x00000000
       62265000	      6225	80002154	8b7270b7	lui	x1,0x8b727	  x1=0x8b727000
       62275000	      6226	80002158	d438c713	xori	x14,x17,-701	 x17:0x80009fc4 x14=0x7fff6287
       62285000	      6227	8000215c	00c88663	beq	x17,x12,80002168	 x17:0x80009fc4 x12:0x00000000
       62295000	      6228	80002160	00af6033	or	x0,x30,x10	 x30:0x80001e48 x10:0x00421e80
       62305000	      6229	80002164	01e29633	sll	x12,x5,x30	  x5:0xf8bd4134 x30:0x80001e48 x12=0xbd413400
       62315000	      6230	80002168	9929df97	auipc	x31,0x9929d	 x31=0x1929f164
       62325000	      6231	8000216c	b53f7293	andi	x5,x30,-1197	 x30:0x80001e48  x5=0x80001a40
       62335000	      6232	80002170	b97f0313	addi	x6,x30,-1129	 x30:0x80001e48  x6=0x800019df
       62345000	      6233	80002174	016a6a63	bltu	x20,x22,80002188	 x20:0x7ff7e512 x22:0x00000001
       62355000	      6234	80002178	01bb8263	beq	x23,x27,8000217c	 x23:0xf573b7ab x27:0x00000100
       62365000	      6235	8000217c	00f59c63	bne	x11,x15,80002194	 x11:0xfff7fb5a x15:0xf573b7aa
       62375000	      6236	00000000	00000013	addi	x0,x0,0	  x0:0x00000000
       62385000	      6237	80002190	00000013	addi	x0,x0,0	  x0:0x00000000
       62395000	      6238	80002194	59fcee13	ori	x28,x25,1439	 x25:0x00000000 x28=0x0000059f
       62405000	      6239	80002198	6797e013	ori	x0,x15,1657	 x15:0xf573b7aa
       62415000	      6240	8000219c	f5463c93	sltiu	x25,x12,-172	 x12:0xbd413400 x25=0x00000001
       62425000	      6241	800021a0	00160a33	add	x20,x12,x1	 x12:0xbd413400  x1:0x8b727000 x20=0x48b3a400
       62435000	      6242	800021a4	00765fb3	srl	x31,x12,x7	 x12:0xbd413400  x7:0x3ee90000 x31=0xbd413400
       62445000	      6243	800021a8	00000013	addi	x0,x0,0	  x0:0x00000000
       62455000	      6244	800021ac	04b17663	bgeu	x2,x11,800021f8	  x2:0xffffff22 x11:0xfff7fb5a
       62465000	      6245	00000000	00000013	addi	x0,x0,0	  x0:0x00000000
       62475000	      6246	800021f4	00000013	addi	x0,x0,0	  x0:0x00000000
       62485000	      6247	800021f8	e3a58093	addi	x1,x11,-454	 x11:0xfff7fb5a  x1=0xfff7f994
       62495000	      6248	800021fc	01c68c33	add	x24,x13,x28	 x13:0xc2a7a000 x28:0x0000059f x24=0xc2a7a59f
       62505000	      6249	80002200	01f5f663	bgeu	x11,x31,8000220c	 x11:0xfff7fb5a x31:0xbd413400
       62515000	      6250	00000000	00000013	addi	x0,x0,0	  x0:0x00000000
       62525000	      6251	80002208	00000013	addi	x0,x0,0	  x0:0x00000000
       62535000	      6252	8000220c	01784663	blt	x16,x23,80002218	 x16:0x00000000 x23:0xf573b7ab
       62545000	      6253	80002210	41d15013	srai	x0,x2,0x1d	  x2:0xffffff22
       62555000	      6254	80002214	3e84a593	slti	x11,x9,1000	  x9:0x80001e80 x11=0x00000001
       62565000	      6255	80002218	47b86093	ori	x1,x16,1147	 x16:0x00000000  x1=0x0000047b
       62575000	      6256	8000221c	03980663	beq	x16,x25,80002248	 x16:0x00000000 x25:0x00000001
       62585000	      6257	80002220	5ad97d97	auipc	x27,0x5ad97	 x27=0xdad9921c
       62595000	      6258	80002224	c73f2993	slti	x19,x30,-909	 x30:0x80001e48 x19=0x00000001
       62605000	      6259	80002228	41340f33	sub	x30,x8,x19	  x8:0xffffeae7 x19:0x00000001 x30=0xffffeae6
       62615000	      6260	8000222c	019bce33	xor	x28,x23,x25	 x23:0xf573b7ab x25:0x00000001 x28=0xf573b7aa
       62625000	      6261	80002230	00fc8e63	beq	x25,x15,8000224c	 x25:0x00000001 x15:0xf573b7aa
       62635000	      6262	80002234	03fec263	blt	x29,x31,80002258	 x29:0x00000000 x31:0xbd413400
       62645000	      6263	80002238	00511833	sll	x16,x2,x5	  x2:0xffffff22  x5:0x80001a40 x16=0xffffff22
       62655000	      6264	8000223c	fb9eec13	ori	x24,x29,-71	 x29:0x00000000 x24=0xffffffb9
       62665000	      6265	80002240	b8b2c693	xori	x13,x5,-1141	  x5:0x80001a40 x13=0x7fffe1cb
       62675000	      6266	80002244	aa7e6017	auipc	x0,0xaa7e6	
       62685000	      6267	80002248	00759993	slli	x19,x11,0x7	 x11:0x00000001 x19=0x00000080
       62695000	      6268	8000224c	417b0833	sub	x16,x22,x23	 x22:0x00000001 x23:0xf573b7ab x16=0x0a8c4856
       62705000	      6269	80002250	4163d5b3	sra	x11,x7,x22	  x7:0x3ee90000 x22:0x00000001 x11=0x1f748000
       62715000	      6270	80002254	20ad2017	auipc	x0,0x20ad2	
       62725000	      6271	80002258	008ec663	blt	x29,x8,80002264	 x29:0x00000000  x8:0xffffeae7
       62735000	      6272	8000225c	006a5013	srli	x0,x20,0x6	 x20:0x48b3a400
       62745000	      6273	80002260	00079c33	sll	x24,x15,x0	 x15:0xf573b7aa  x0:0x00000000 x24=0xf573b7aa
       62755000	      6274	80002264	019e5933	srl	x18,x28,x25	 x28:0xf573b7aa x25:0x00000001 x18=0x7ab9dbd5
       62765000	      6275	80002268	05075463	bge	x14,x16,800022b0	 x14:0x7fff6287 x16:0x0a8c4856
       62775000	      6276	00000000	00000013	addi	x0,x0,0	  x0:0x00000000
       62785000	      6277	800022ac	00000013	addi	x0,x0,0	  x0:0x00000000
       62795000	      6278	800022b0	9df2fd93	andi	x27,x5,-1569	  x5:0x80001a40 x27=0x80001840
       62805000	      6279	800022b4	00000013	addi	x0,x0,0	  x0:0x00000000
       62815000	      6280	800022b8	0075bc33	sltu	x24,x11,x7	 x11:0x1f748000  x7:0x3ee90000 x24=0x00000001
       62825000	      6281	800022bc	18067e93	andi	x29,x12,384	 x12:0xbd413400 x29=0x00000000
       62835000	      6282	800022c0	004dfeb3	and	x29,x27,x4	 x27:0x80001840  x4:0x00000728 x29=0x00000000
       62845000	      6283	800022c4	013cd5b3	srl	x11,x25,x19	 x25:0x00000001 x19:0x00000080 x11=0x00000001
       62855000	      6284	800022c8	01647b33	and	x22,x8,x22	  x8:0xffffeae7 x22:0x00000001 x22=0x00000001
       62865000	      6285	800022cc	405a5293	srai	x5,x20,0x5	 x20:0x48b3a400  x5=0x02459d20
       62875000	      6286	800022d0	003413b3	sll	x7,x8,x3	  x8:0xffffeae7  x3:0x00000000  x7=0xffffeae7
       62885000	      6287	800022d4	0127c833	xor	x16,x15,x18	 x15:0xf573b7aa x18:0x7ab9dbd5 x16=0x8fca6c7f
       62895000	      6288	800022d8	40f6de13	srai	x28,x13,0xf	 x13:0x7fffe1cb x28=0x0000ffff
       62905000	      6289	800022dc	72e02413	slti	x8,x0,1838	  x0:0x00000000  x8=0x00000001
       62915000	      6290	800022e0	2ec64b37	lui	x22,0x2ec64	 x22=0x2ec64000
       62925000	      6291	800022e4	40c20f33	sub	x30,x4,x12	  x4:0x00000728 x12:0xbd413400 x30=0x42bed328
       62935000	      6292	800022e8	00331c63	bne	x6,x3,80002300	  x6:0x800019df  x3:0x00000000
       62945000	      6293	00000000	00000013	addi	x0,x0,0	  x0:0x00000000
       62955000	      6294	800022fc	00000013	addi	x0,x0,0	  x0:0x00000000
       62965000	      6295	80002300	01801013	slli	x0,x0,0x18	  x0:0x00000000
       62975000	      6296	80002304	40935213	srai	x4,x6,0x9	  x6:0x800019df  x4=0xffc0000c
       62985000	      6297	80002308	01d0ce33	xor	x28,x1,x29	  x1:0x0000047b x29:0x00000000 x28=0x0000047b
       62995000	      6298	8000230c	0087e533	or	x10,x15,x8	 x15:0xf573b7aa  x8:0x00000001 x10=0xf573b7ab
       63005000	      6299	80002310	00815493	srli	x9,x2,0x8	  x2:0xffffff22  x9=0x00ffffff
       63015000	      6300	80002314	0012f6b3	and	x13,x5,x1	  x5:0x02459d20  x1:0x0000047b x13=0x00000420
       63025000	      6301	80002318	1b48a493	slti	x9,x17,436	 x17:0x80009fc4  x9=0x00000001
       63035000	      6302	8000231c	8e923d97	auipc	x27,0x8e923	 x27=0x0e925318
       63045000	      6303	80002320	00838863	beq	x7,x8,80002330	  x7:0xffffeae7  x8:0x00000001
       63055000	      6304	80002324	006cc533	xor	x10,x25,x6	 x25:0x00000001  x6:0x800019df x10=0x800019de
       63065000	      6305	80002328	581abc17	auipc	x24,0x581ab	 x24=0xd81ad324
       63075000	      6306	8000232c	0059e663	bltu	x19,x5,80002338	 x19:0x00000080  x5:0x02459d20
       63085000	      6307	00000000	00000013	addi	x0,x0,0	  x0:0x00000000
       63095000	      6308	80002334	00000013	addi	x0,x0,0	  x0:0x00000000
       63105000	      6309	80002338	8e016337	lui	x6,0x8e016	  x6=0x8e016000
       63115000	      6310	8000233c	0128eb33	or	x22,x17,x18	 x17:0x80009fc4 x18:0x7ab9dbd5 x22=0xfab9dfd5
       63125000	      6311	80002340	00a5c033	xor	x0,x11,x10	 x11:0x00000001 x10:0x800019de
       63135000	      6312	80002344	0178f1b3	and	x3,x17,x23	 x17:0x80009fc4 x23:0xf573b7ab  x3=0x80009780
       63145000	      6313	80002348	40085033	sra	x0,x16,x0	 x16:0x8fca6c7f  x0:0x00000000
       63155000	      6314	8000234c	d70b6f17	auipc	x30,0xd70b6	 x30=0x570b8348
       63165000	      6315	80002350	75c6cb93	xori	x23,x13,1884	 x13:0x00000420 x23=0x0000037c
       63175000	      6316	80002354	6a12a593	slti	x11,x5,1697	  x5:0x02459d20 x11=0x00000000
       63185000	      6317	80002358	0160f233	and	x4,x1,x22	  x1:0x0000047b x22:0xfab9dfd5  x4=0x00000451
       63195000	      6318	8000235c	409f5fb3	sra	x31,x30,x9	 x30:0x570b8348  x9:0x00000001 x31=0x2b85c1a4
       63205000	      6319	80002360	019d4663	blt	x26,x25,8000236c	 x26:0x80009f2c x25:0x00000001
       63215000	      6320	00000000	00000013	addi	x0,x0,0	  x0:0x00000000
       63225000	      6321	80002368	00000013	addi	x0,x0,0	  x0:0x00000000
       63235000	      6322	8000236c	05c98463	beq	x19,x28,800023b4	 x19:0x00000080 x28:0x0000047b
       63245000	      6323	80002370	05ee4463	blt	x28,x30,800023b8	 x28:0x0000047b x30:0x570b8348
       63255000	      6324	00000000	00000013	addi	x0,x0,0	  x0:0x00000000
       63265000	      6325	800023b4	00000013	addi	x0,x0,0	  x0:0x00000000
       63275000	      6326	800023b8	03ae9e63	bne	x29,x26,800023f4	 x29:0x00000000 x26:0x80009f2c
       63285000	      6327	00000000	00000013	addi	x0,x0,0	  x0:0x00000000
       63295000	      6328	800023f0	00000013	addi	x0,x0,0	  x0:0x00000000
       63305000	      6329	800023f4	41d6deb3	sra	x29,x13,x29	 x13:0x00000420 x29:0x00000000 x29=0x00000420
       63315000	      6330	800023f8	89fc4b93	xori	x23,x24,-1889	 x24:0xd81ad324 x23=0x27e52bbb
       63325000	      6331	800023fc	01a18bb3	add	x23,x3,x26	  x3:0x80009780 x26:0x80009f2c x23=0x000136ac
       63335000	      6332	80002400	411054b3	sra	x9,x0,x17	  x0:0x00000000 x17:0x80009fc4  x9=0x00000000
       63345000	      6333	80002404	555ea913	slti	x18,x29,1365	 x29:0x00000420 x18=0x00000001
       63355000	      6334	80002408	01383733	sltu	x14,x16,x19	 x16:0x8fca6c7f x19:0x00000080 x14=0x00000000
       63365000	      6335	8000240c	0305c863	blt	x11,x16,8000243c	 x11:0x00000000 x16:0x8fca6c7f
       63375000	      6336	80002410	0e0bc493	xori	x9,x23,224	 x23:0x000136ac  x9=0x0001364c
       63385000	      6337	80002414	43f84c13	xori	x24,x16,1087	 x16:0x8fca6c7f x24=0x8fca6840
       63395000	      6338	80002418	01579a63	bne	x15,x21,8000242c	 x15:0xf573b7aa x21:0x80019fc5
       63405000	      6339	00000000	00000013	addi	x0,x0,0	  x0:0x00000000
       63415000	      6340	80002428	00000013	addi	x0,x0,0	  x0:0x00000000
       63425000	      6341	8000242c	00e4ffb3	and	x31,x9,x14	  x9:0x0001364c x14:0x00000000 x31=0x00000000
       63435000	      6342	80002430	00ca9713	slli	x14,x21,0xc	 x21:0x80019fc5 x14=0x19fc5000
       63445000	      6343	80002434	d5549437	lui	x8,0xd5549	  x8=0xd5549000
       63455000	      6344	80002438	00cd0ab3	add	x21,x26,x12	 x26:0x80009f2c x12:0xbd413400 x21=0x3d41d32c
       63465000	      6345	8000243c	9ea34317	auipc	x6,0x9ea34	  x6=0x1ea36438
       63475000	      6346	80002440	01d0c663	blt	x1,x29,8000244c	  x1:0x0000047b x29:0x00000420
       63485000	      6347	80002444	bd760593	addi	x11,x12,-1065	 x12:0xbd413400 x11=0xbd412fd7
       63495000	      6348	80002448	01f95633	srl	x12,x18,x31	 x18:0x00000001 x31:0x00000000 x12=0x00000001
       63505000	      6349	8000244c	003471b3	and	x3,x8,x3	  x8:0xd5549000  x3:0x80009780  x3=0x80009000
       63515000	      6350	80002450	670eec93	ori	x25,x29,1648	 x29:0x00000420 x25=0x00000670
       63525000	      6351	80002454	01d330b3	sltu	x1,x6,x29	  x6:0x1ea36438 x29:0x00000420  x1=0x00000000
       63535000	      6352	80002458	413c0f33	sub	x30,x24,x19	 x24:0x8fca6840 x19:0x00000080 x30=0x8fca67c0
       63545000	      6353	8000245c	02b54663	blt	x10,x11,80002488	 x10:0x800019de x11:0xbd412fd7
       63555000	      6354	00000000	00000013	addi	x0,x0,0	  x0:0x00000000
       63565000	      6355	80002484	00000013	addi	x0,x0,0	  x0:0x00000000
       63575000	      6356	80002488	014369b3	or	x19,x6,x20	  x6:0x1ea36438 x20:0x48b3a400 x19=0x5eb3e438
       63585000	      6357	8000248c	011d7b33	and	x22,x26,x17	 x26:0x80009f2c x17:0x80009fc4 x22=0x80009f04
       63595000	      6358	80002490	02e2f063	bgeu	x5,x14,800024b0	  x5:0x02459d20 x14:0x19fc5000
       63605000	      6359	80002494	0020c033	xor	x0,x1,x2	  x1:0x00000000  x2:0xffffff22
       63615000	      6360	80002498	5861ae93	slti	x29,x3,1414	  x3:0x80009000 x29=0x00000001
       63625000	      6361	8000249c	05e49863	bne	x9,x30,800024ec	  x9:0x0001364c x30:0x8fca67c0
       63635000	      6362	00000000	00000013	addi	x0,x0,0	  x0:0x00000000
       63645000	      6363	800024e8	00000013	addi	x0,x0,0	  x0:0x00000000
       63655000	      6364	800024ec	01feeab3	or	x21,x29,x31	 x29:0x00000001 x31:0x00000000 x21=0x00000001
       63665000	      6365	800024f0	01ecc933	xor	x18,x25,x30	 x25:0x00000670 x30:0x8fca67c0 x18=0x8fca61b0
       63675000	      6366	800024f4	41f95e93	srai	x29,x18,0x1f	 x18:0x8fca61b0 x29=0xffffffff
       63685000	      6367	800024f8	1da56213	ori	x4,x10,474	 x10:0x800019de  x4=0x800019de
       63695000	      6368	800024fc	00f6ee63	bltu	x13,x15,80002518	 x13:0x00000420 x15:0xf573b7aa
       63705000	      6369	00000000	00000013	addi	x0,x0,0	  x0:0x00000000
       63715000	      6370	80002514	00000013	addi	x0,x0,0	  x0:0x00000000
       63725000	      6371	80002518	01ca4263	blt	x20,x28,8000251c	 x20:0x48b3a400 x28:0x0000047b
       63735000	      6372	8000251c	01378cb3	add	x25,x15,x19	 x15:0xf573b7aa x19:0x5eb3e438 x25=0x54279be2
       63745000	      6373	80002520	0205ec63	bltu	x11,x0,80002558	 x11:0xbd412fd7  x0:0x00000000
       63755000	      6374	80002524	403cdc93	srai	x25,x25,0x3	 x25:0x54279be2 x25=0x0a84f37c
       63765000	      6375	80002528	01dbd993	srli	x19,x23,0x1d	 x23:0x000136ac x19=0x00000000
       63775000	      6376	8000252c	41218933	sub	x18,x3,x18	  x3:0x80009000 x18:0x8fca61b0 x18=0xf0362e50
       63785000	      6377	80002530	00b17bb3	and	x23,x2,x11	  x2:0xffffff22 x11:0xbd412fd7 x23=0xbd412f02
       63795000	      6378	80002534	00c03b33	sltu	x22,x0,x12	  x0:0x00000000 x12:0x00000001 x22=0x00000001
       63805000	      6379	80002538	0053ea63	bltu	x7,x5,8000254c	  x7:0xffffeae7  x5:0x02459d20
       63815000	      6380	8000253c	01dfb6b3	sltu	x13,x31,x29	 x31:0x00000000 x29:0xffffffff x13=0x00000001
       63825000	      6381	80002540	05f95663	bge	x18,x31,8000258c	 x18:0xf0362e50 x31:0x00000000
       63835000	      6382	80002544	00e01633	sll	x12,x0,x14	  x0:0x00000000 x14:0x19fc5000 x12=0x00000000
       63845000	      6383	80002548	00781293	slli	x5,x16,0x7	 x16:0x8fca6c7f  x5=0xe5363f80
       63855000	      6384	8000254c	17eb4d93	xori	x27,x22,382	 x22:0x00000001 x27=0x0000017f
       63865000	      6385	80002550	01898c63	beq	x19,x24,80002568	 x19:0x00000000 x24:0x8fca6840
       63875000	      6386	80002554	401c8a33	sub	x20,x25,x1	 x25:0x0a84f37c  x1:0x00000000 x20=0x0a84f37c
       63885000	      6387	80002558	013c9d93	slli	x27,x25,0x13	 x25:0x0a84f37c x27=0x9be00000
       63895000	      6388	8000255c	03cbe863	bltu	x23,x28,8000258c	 x23:0xbd412f02 x28:0x0000047b
       63905000	      6389	80002560	01397663	bgeu	x18,x19,8000256c	 x18:0xf0362e50 x19:0x00000000
       63915000	      6390	00000000	00000013	addi	x0,x0,0	  x0:0x00000000
       63925000	      6391	80002568	00000013	addi	x0,x0,0	  x0:0x00000000
       63935000	      6392	8000256c	408e8bb3	sub	x23,x29,x8	 x29:0xffffffff  x8:0xd5549000 x23=0x2aab6fff
       63945000	      6393	80002570	bd1fb693	sltiu	x13,x31,-1071	 x31:0x00000000 x13=0x00000001
       63955000	      6394	80002574	01942933	slt	x18,x8,x25	  x8:0xd5549000 x25:0x0a84f37c x18=0x00000001
       63965000	      6395	80002578	40f389b3	sub	x19,x7,x15	  x7:0xffffeae7 x15:0xf573b7aa x19=0x0a8c333d
       63975000	      6396	8000257c	01f0e333	or	x6,x1,x31	  x1:0x00000000 x31:0x00000000  x6=0x00000000
       63985000	      6397	80002580	89b66913	ori	x18,x12,-1893	 x12:0x00000000 x18=0xfffff89b
       63995000	      6398	80002584	abb8e0b7	lui	x1,0xabb8e	  x1=0xabb8e000
       64005000	      6399	80002588	00df4cb3	xor	x25,x30,x13	 x30:0x8fca67c0 x13:0x00000001 x25=0x8fca67c1
       64015000	      6400	8000258c	41bf8b33	sub	x22,x31,x27	 x31:0x00000000 x27:0x9be00000 x22=0x64200000
       64025000	      6401	80002590	14176c13	ori	x24,x14,321	 x14:0x19fc5000 x24=0x19fc5141
       64035000	      6402	80002594	e46da217	auipc	x4,0xe46da	  x4=0x646dc590
       64045000	      6403	80002598	011e2333	slt	x6,x28,x17	 x28:0x0000047b x17:0x80009fc4  x6=0x00000000
       64055000	      6404	8000259c	01c61c93	slli	x25,x12,0x1c	 x12:0x00000000 x25=0x00000000
       64065000	      6405	800025a0	94928213	addi	x4,x5,-1719	  x5:0xe5363f80  x4=0xe53638c9
       64075000	      6406	800025a4	01946663	bltu	x8,x25,800025b0	  x8:0xd5549000 x25:0x00000000
       64085000	      6407	800025a8	04ee6663	bltu	x28,x14,800025f4	 x28:0x0000047b x14:0x19fc5000
       64095000	      6408	00000000	00000013	addi	x0,x0,0	  x0:0x00000000
       64105000	      6409	800025f0	00000013	addi	x0,x0,0	  x0:0x00000000
       64115000	      6410	800025f4	00490033	add	x0,x18,x4	 x18:0xfffff89b  x4:0xe53638c9
       64125000	      6411	800025f8	5d660913	addi	x18,x12,1494	 x12:0x00000000 x18=0x000005d6
       64135000	      6412	800025fc	4160db33	sra	x22,x1,x22	  x1:0xabb8e000 x22:0x64200000 x22=0xabb8e000
       64145000	      6413	80002600	01e6e433	or	x8,x13,x30	 x13:0x00000001 x30:0x8fca67c0  x8=0x8fca67c1
       64155000	      6414	80002604	11b28493	addi	x9,x5,283	  x5:0xe5363f80  x9=0xe536409b
       64165000	      6415	80002608	f25eac13	slti	x24,x29,-219	 x29:0xffffffff x24=0x00000000
       64175000	      6416	8000260c	01d31663	bne	x6,x29,80002618	  x6:0x00000000 x29:0xffffffff
       64185000	      6417	00000000	00000013	addi	x0,x0,0	  x0:0x00000000
       64195000	      6418	80002614	00000013	addi	x0,x0,0	  x0:0x00000000
       64205000	      6419	80002618	00ec9113	slli	x2,x25,0xe	 x25:0x00000000  x2=0x00000000
       64215000	      6420	8000261c	00d3e133	or	x2,x7,x13	  x7:0xffffeae7 x13:0x00000001  x2=0xffffeae7
       64225000	      6421	80002620	330e0a13	addi	x20,x28,816	 x28:0x0000047b x20=0x000007ab
       64235000	      6422	80002624	cbe6c093	xori	x1,x13,-834	 x13:0x00000001  x1=0xfffffcbf
       64245000	      6423	80002628	023e7263	bgeu	x28,x3,8000264c	 x28:0x0000047b  x3:0x80009000
       64255000	      6424	8000262c	2906a313	slti	x6,x13,656	 x13:0x00000001  x6=0x00000001
       64265000	      6425	80002630	0100de93	srli	x29,x1,0x10	  x1:0xfffffcbf x29=0x0000ffff
       64275000	      6426	80002634	00a64263	blt	x12,x10,80002638	 x12:0x00000000 x10:0x800019de
       64285000	      6427	80002638	017202b3	add	x5,x4,x23	  x4:0xe53638c9 x23:0x2aab6fff  x5=0x0fe1a8c8
       64295000	      6428	8000263c	015a0c63	beq	x20,x21,80002654	 x20:0x000007ab x21:0x00000001
       64305000	      6429	80002640	e6decf13	xori	x30,x29,-403	 x29:0x0000ffff x30=0xffff0192
       64315000	      6430	80002644	0017ae33	slt	x28,x15,x1	 x15:0xf573b7aa  x1:0xfffffcbf x28=0x00000001
       64325000	      6431	80002648	04866863	bltu	x12,x8,80002698	 x12:0x00000000  x8:0x8fca67c1
       64335000	      6432	00000000	00000013	addi	x0,x0,0	  x0:0x00000000
       64345000	      6433	80002694	00000013	addi	x0,x0,0	  x0:0x00000000
       64355000	      6434	80002698	405b5093	srai	x1,x22,0x5	 x22:0xabb8e000  x1=0xfd5dc700
       64365000	      6435	8000269c	967f1a17	auipc	x20,0x967f1	 x20=0x167f3698
       64375000	      6436	800026a0	55cfc013	xori	x0,x31,1372	 x31:0x00000000
       64385000	      6437	800026a4	c6286a93	ori	x21,x16,-926	 x16:0x8fca6c7f x21=0xfffffc7f
       64395000	      6438	800026a8	027cee63	bltu	x25,x7,800026e4	 x25:0x00000000  x7:0xffffeae7
       64405000	      6439	00000000	00000013	addi	x0,x0,0	  x0:0x00000000
       64415000	      6440	800026e0	00000013	addi	x0,x0,0	  x0:0x00000000
       64425000	      6441	800026e4	01731663	bne	x6,x23,800026f0	  x6:0x00000001 x23:0x2aab6fff
       64435000	      6442	00000000	00000013	addi	x0,x0,0	  x0:0x00000000
       64445000	      6443	800026ec	00000013	addi	x0,x0,0	  x0:0x00000000
       64455000	      6444	800026f0	00b33733	sltu	x14,x6,x11	  x6:0x00000001 x11:0xbd412fd7 x14=0x00000001
       64465000	      6445	800026f4	05f0e263	bltu	x1,x31,80002738	  x1:0xfd5dc700 x31:0x00000000
       64475000	      6446	800026f8	03156063	bltu	x10,x17,80002718	 x10:0x800019de x17:0x80009fc4
       64485000	      6447	00000000	00000013	addi	x0,x0,0	  x0:0x00000000
       64495000	      6448	80002714	00000013	addi	x0,x0,0	  x0:0x00000000
       64505000	      6449	80002718	9944b413	sltiu	x8,x9,-1644	  x9:0xe536409b  x8=0x00000001
       64515000	      6450	8000271c	03c97c63	bgeu	x18,x28,80002754	 x18:0x000005d6 x28:0x00000001
       64525000	      6451	00000000	00000013	addi	x0,x0,0	  x0:0x00000000
       64535000	      6452	80002750	00000013	addi	x0,x0,0	  x0:0x00000000
       64545000	      6453	80002754	001e45b3	xor	x11,x28,x1	 x28:0x00000001  x1:0xfd5dc700 x11=0xfd5dc701
       64555000	      6454	80002758	02a60863	beq	x12,x10,80002788	 x12:0x00000000 x10:0x800019de
       64565000	      6455	8000275c	d7e0ef97	auipc	x31,0xd7e0e	 x31=0x57e10758
       64575000	      6456	80002760	41ed4613	xori	x12,x26,1054	 x26:0x80009f2c x12=0x80009b32
       64585000	      6457	80002764	00741663	bne	x8,x7,80002770	  x8:0x00000001  x7:0xffffeae7
       64595000	      6458	00000000	00000013	addi	x0,x0,0	  x0:0x00000000
       64605000	      6459	8000276c	00000013	addi	x0,x0,0	  x0:0x00000000
       64615000	      6460	80002770	0183d393	srli	x7,x7,0x18	  x7:0xffffeae7  x7=0x000000ff
       64625000	      6461	80002774	465c2c13	slti	x24,x24,1125	 x24:0x00000000 x24=0x00000001
       64635000	      6462	80002778	00d6b733	sltu	x14,x13,x13	 x13:0x00000001 x13:0x00000001 x14=0x00000000
       64645000	      6463	8000277c	03900263	beq	x0,x25,800027a0	  x0:0x00000000 x25:0x00000000
       64655000	      6464	00000000	00000013	addi	x0,x0,0	  x0:0x00000000
       64665000	      6465	8000279c	00000013	addi	x0,x0,0	  x0:0x00000000
       64675000	      6466	800027a0	c9bee393	ori	x7,x29,-869	 x29:0x0000ffff  x7=0xffffffff
       64685000	      6467	800027a4	9715bf93	sltiu	x31,x11,-1679	 x11:0xfd5dc701 x31=0x00000001
       64695000	      6468	800027a8	41415233	sra	x4,x2,x20	  x2:0xffffeae7 x20:0x167f3698  x4=0xffffffff
       64705000	      6469	800027ac	e1ba3093	sltiu	x1,x20,-485	 x20:0x167f3698  x1=0x00000001
       64715000	      6470	800027b0	41640c33	sub	x24,x8,x22	  x8:0x00000001 x22:0xabb8e000 x24=0x54472001
       64725000	      6471	800027b4	00374033	xor	x0,x14,x3	 x14:0x00000000  x3:0x80009000
       64735000	      6472	800027b8	d4c9a013	slti	x0,x19,-692	 x19:0x0a8c333d
       64745000	      6473	800027bc	04fef263	bgeu	x29,x15,80002800	 x29:0x0000ffff x15:0xf573b7aa
       64755000	      6474	800027c0	edab4713	xori	x14,x22,-294	 x22:0xabb8e000 x14=0x54471eda
       64765000	      6475	800027c4	04046663	bltu	x8,x0,80002810	  x8:0x00000001  x0:0x00000000
       64775000	      6476	800027c8	0089e263	bltu	x19,x8,800027cc	 x19:0x0a8c333d  x8:0x00000001
       64785000	      6477	800027cc	3e77eb93	ori	x23,x15,999	 x15:0xf573b7aa x23=0xf573b7ef
       64795000	      6478	800027d0	40d4d613	srai	x12,x9,0xd	  x9:0xe536409b x12=0xffff29b2
       64805000	      6479	800027d4	014e0a63	beq	x28,x20,800027e8	 x28:0x00000001 x20:0x167f3698
       64815000	      6480	800027d8	a0ab2093	slti	x1,x22,-1526	 x22:0xabb8e000  x1=0x00000001
       64825000	      6481	800027dc	01308a63	beq	x1,x19,800027f0	  x1:0x00000001 x19:0x0a8c333d
       64835000	      6482	800027e0	1ee1b813	sltiu	x16,x3,494	  x3:0x80009000 x16=0x00000000
       64845000	      6483	800027e4	5f91c537	lui	x10,0x5f91c	 x10=0x5f91c000
       64855000	      6484	800027e8	00a55213	srli	x4,x10,0xa	 x10:0x5f91c000  x4=0x0017e470
       64865000	      6485	800027ec	00fb5c63	bge	x22,x15,80002804	 x22:0xabb8e000 x15:0xf573b7aa
       64875000	      6486	800027f0	20510013	addi	x0,x2,517	  x2:0xffffeae7
       64885000	      6487	800027f4	00b1c263	blt	x3,x11,800027f8	  x3:0x80009000 x11:0xfd5dc701
       64895000	      6488	00000000	00000013	addi	x0,x0,0	  x0:0x00000000
       64905000	      6489	800027f4	00000013	addi	x0,x0,0	  x0:0x00000000
       64915000	      6490	800027f8	009d4133	xor	x2,x26,x9	 x26:0x80009f2c  x9:0xe536409b  x2=0x6536dfb7
       64925000	      6491	800027fc	01227cb3	and	x25,x4,x18	  x4:0x0017e470 x18:0x000005d6 x25=0x00000450
       64935000	      6492	80002800	04ca1863	bne	x20,x12,80002850	 x20:0x167f3698 x12:0xffff29b2
       64945000	      6493	00000000	00000013	addi	x0,x0,0	  x0:0x00000000
       64955000	      6494	8000284c	00000013	addi	x0,x0,0	  x0:0x00000000
       64965000	      6495	80002850	00982db3	slt	x27,x16,x9	 x16:0x00000000  x9:0xe536409b x27=0x00000000
       64975000	      6496	80002854	8a39a197	auipc	x3,0x8a39a	  x3=0x0a39c850
       64985000	      6497	80002858	00b4e533	or	x10,x9,x11	  x9:0xe536409b x11:0xfd5dc701 x10=0xfd7fc79b
       64995000	      6498	8000285c	408a0033	sub	x0,x20,x8	 x20:0x167f3698  x8:0x00000001
       65005000	      6499	80002860	40e70933	sub	x18,x14,x14	 x14:0x54471eda x14:0x54471eda x18=0x00000000
       65015000	      6500	80002864	4169df33	sra	x30,x19,x22	 x19:0x0a8c333d x22:0xabb8e000 x30=0x0a8c333d
       65025000	      6501	80002868	6df70093	addi	x1,x14,1759	 x14:0x54471eda  x1=0x544725b9
       65035000	      6502	8000286c	04618463	beq	x3,x6,800028b4	  x3:0x0a39c850  x6:0x00000001
       65045000	      6503	80002870	41195393	srai	x7,x18,0x11	 x18:0x00000000  x7=0x00000000
       65055000	      6504	80002874	99a0b093	sltiu	x1,x1,-1638	  x1:0x544725b9  x1=0x00000001
       65065000	      6505	80002878	0437f463	bgeu	x15,x3,800028c0	 x15:0xf573b7aa  x3:0x0a39c850
       65075000	      6506	00000000	00000013	addi	x0,x0,0	  x0:0x00000000
       65085000	      6507	800028bc	00000013	addi	x0,x0,0	  x0:0x00000000
       65095000	      6508	800028c0	52073813	sltiu	x16,x14,1312	 x14:0x54471eda x16=0x00000000
       65105000	      6509	800028c4	842dcb13	xori	x22,x27,-1982	 x27:0x00000000 x22=0xfffff842
       65115000	      6510	800028c8	01b025b3	slt	x11,x0,x27	  x0:0x00000000 x27:0x00000000 x11=0x00000000
       65125000	      6511	800028cc	00361333	sll	x6,x12,x3	 x12:0xffff29b2  x3:0x0a39c850  x6=0x29b20000
       65135000	      6512	800028d0	d40aa513	slti	x10,x21,-704	 x21:0xfffffc7f x10=0x00000001
       65145000	      6513	800028d4	a6afe813	ori	x16,x31,-1430	 x31:0x00000001 x16=0xfffffa6b
       65155000	      6514	800028d8	07da7c63	bgeu	x20,x29,80002950	 x20:0x167f3698 x29:0x0000ffff
       65165000	      6515	00000000	00000013	addi	x0,x0,0	  x0:0x00000000
       65175000	      6516	8000294c	00000013	addi	x0,x0,0	  x0:0x00000000
       65185000	      6517	80002950	03931863	bne	x6,x25,80002980	  x6:0x29b20000 x25:0x00000450
       65195000	      6518	00000000	00000013	addi	x0,x0,0	  x0:0x00000000
       65205000	      6519	8000297c	00000013	addi	x0,x0,0	  x0:0x00000000
       65215000	      6520	80002980	018be033	or	x0,x23,x24	 x23:0xf573b7ef x24:0x54472001
       65225000	      6521	80002984	9823ad93	slti	x27,x7,-1662	  x7:0x00000000 x27=0x00000000
       65235000	      6522	80002988	56f4e913	ori	x18,x9,1391	  x9:0xe536409b x18=0xe53645ff
       65245000	      6523	8000298c	40c0db33	sra	x22,x1,x12	  x1:0x00000001 x12:0xffff29b2 x22=0x00000000
       65255000	      6524	80002990	00885f13	srli	x30,x16,0x8	 x16:0xfffffa6b x30=0x00fffffa
       65265000	      6525	80002994	05636463	bltu	x6,x22,800029dc	  x6:0x29b20000 x22:0x00000000
       65275000	      6526	80002998	01bc6e33	or	x28,x24,x27	 x24:0x54472001 x27:0x00000000 x28=0x54472001
       65285000	      6527	8000299c	00505663	bge	x0,x5,800029a8	  x0:0x00000000  x5:0x0fe1a8c8
       65295000	      6528	800029a0	00cfaab3	slt	x21,x31,x12	 x31:0x00000001 x12:0xffff29b2 x21=0x00000000
       65305000	      6529	800029a4	01115993	srli	x19,x2,0x11	  x2:0x6536dfb7 x19=0x0000329b
       65315000	      6530	800029a8	00957c63	bgeu	x10,x9,800029c0	 x10:0x00000001  x9:0xe536409b
       65325000	      6531	800029ac	01e65a63	bge	x12,x30,800029c0	 x12:0xffff29b2 x30:0x00fffffa
       65335000	      6532	800029b0	01bddfb3	srl	x31,x27,x27	 x27:0x00000000 x27:0x00000000 x31=0x00000000
       65345000	      6533	800029b4	008d2933	slt	x18,x26,x8	 x26:0x80009f2c  x8:0x00000001 x18=0x00000001
       65355000	      6534	800029b8	01d8c263	blt	x17,x29,800029bc	 x17:0x80009fc4 x29:0x0000ffff
       65365000	      6535	00000000	00000013	addi	x0,x0,0	  x0:0x00000000
       65375000	      6536	800029b8	00000013	addi	x0,x0,0	  x0:0x00000000
       65385000	      6537	800029bc	00631333	sll	x6,x6,x6	  x6:0x29b20000  x6:0x29b20000  x6=0x29b20000
       65395000	      6538	800029c0	01906433	or	x8,x0,x25	  x0:0x00000000 x25:0x00000450  x8=0x00000450
       65405000	      6539	800029c4	8a17b697	auipc	x13,0x8a17b	 x13=0x0a17d9c0
       65415000	      6540	800029c8	41a405b3	sub	x11,x8,x26	  x8:0x00000450 x26:0x80009f2c x11=0x7fff6524
       65425000	      6541	800029cc	01d7e1b3	or	x3,x15,x29	 x15:0xf573b7aa x29:0x0000ffff  x3=0xf573ffff
       65435000	      6542	800029d0	5ddff993	andi	x19,x31,1501	 x31:0x00000000 x19=0x00000000
       65445000	      6543	800029d4	00d30a63	beq	x6,x13,800029e8	  x6:0x29b20000 x13:0x0a17d9c0
       65455000	      6544	800029d8	00de8433	add	x8,x29,x13	 x29:0x0000ffff x13:0x0a17d9c0  x8=0x0a18d9bf
       65465000	      6545	800029dc	0501e263	bltu	x3,x16,80002a20	  x3:0xf573ffff x16:0xfffffa6b
       65475000	      6546	00000000	00000013	addi	x0,x0,0	  x0:0x00000000
       65485000	      6547	80002a1c	00000013	addi	x0,x0,0	  x0:0x00000000
       65495000	      6548	80002a20	016591b3	sll	x3,x11,x22	 x11:0x7fff6524 x22:0x00000000  x3=0x7fff6524
       65505000	      6549	80002a24	006aea33	or	x20,x21,x6	 x21:0x00000000  x6:0x29b20000 x20=0x29b20000
       65515000	      6550	80002a28	01730a63	beq	x6,x23,80002a3c	  x6:0x29b20000 x23:0xf573b7ef
       65525000	      6551	80002a2c	00f44833	xor	x16,x8,x15	  x8:0x0a18d9bf x15:0xf573b7aa x16=0xff6b6e15
       65535000	      6552	80002a30	eb290617	auipc	x12,0xeb290	 x12=0x6b292a2c
       65545000	      6553	80002a34	00a441b3	xor	x3,x8,x10	  x8:0x0a18d9bf x10:0x00000001  x3=0x0a18d9be
       65555000	      6554	80002a38	01369533	sll	x10,x13,x19	 x13:0x0a17d9c0 x19:0x00000000 x10=0x0a17d9c0
       65565000	      6555	80002a3c	01ef39b3	sltu	x19,x30,x30	 x30:0x00fffffa x30:0x00fffffa x19=0x00000000
       65575000	      6556	80002a40	41b6dd93	srai	x27,x13,0x1b	 x13:0x0a17d9c0 x27=0x00000001
       65585000	      6557	80002a44	01bbe633	or	x12,x23,x27	 x23:0xf573b7ef x27:0x00000001 x12=0xf573b7ef
       65595000	      6558	80002a48	0300de63	bge	x1,x16,80002a84	  x1:0x00000001 x16:0xff6b6e15
       65605000	      6559	00000000	00000013	addi	x0,x0,0	  x0:0x00000000
       65615000	      6560	80002a80	00000013	addi	x0,x0,0	  x0:0x00000000
       65625000	      6561	80002a84	e3dbab93	slti	x23,x23,-451	 x23:0xf573b7ef x23=0x00000001
       65635000	      6562	80002a88	f5e0f2b7	lui	x5,0xf5e0f	  x5=0xf5e0f000
       65645000	      6563	80002a8c	00002bb3	slt	x23,x0,x0	  x0:0x00000000  x0:0x00000000 x23=0x00000000
       65655000	      6564	80002a90	15bebd93	sltiu	x27,x29,347	 x29:0x0000ffff x27=0x00000000
       65665000	      6565	80002a94	04709463	bne	x1,x7,80002adc	  x1:0x00000001  x7:0x00000000
       65675000	      6566	00000000	00000013	addi	x0,x0,0	  x0:0x00000000
       65685000	      6567	80002ad8	00000013	addi	x0,x0,0	  x0:0x00000000
       65695000	      6568	80002adc	252d3713	sltiu	x14,x26,594	 x26:0x80009f2c x14=0x00000000
       65705000	      6569	80002ae0	01c3fe33	and	x28,x7,x28	  x7:0x00000000 x28:0x54472001 x28=0x00000000
       65715000	      6570	80002ae4	051f0863	beq	x30,x17,80002b34	 x30:0x00fffffa x17:0x80009fc4
       65725000	      6571	80002ae8	68a84713	xori	x14,x16,1674	 x16:0xff6b6e15 x14=0xff6b689f
       65735000	      6572	80002aec	00983633	sltu	x12,x16,x9	 x16:0xff6b6e15  x9:0xe536409b x12=0x00000000
       65745000	      6573	80002af0	00000013	addi	x0,x0,0	  x0:0x00000000
       65755000	      6574	80002af4	01e762b3	or	x5,x14,x30	 x14:0xff6b689f x30:0x00fffffa  x5=0xffffffff
       65765000	      6575	80002af8	01764eb3	xor	x29,x12,x23	 x12:0x00000000 x23:0x00000000 x29=0x00000000
       65775000	      6576	80002afc	00632633	slt	x12,x6,x6	  x6:0x29b20000  x6:0x29b20000 x12=0x00000000
       65785000	      6577	80002b00	02d80263	beq	x16,x13,80002b24	 x16:0xff6b6e15 x13:0x0a17d9c0
       65795000	      6578	80002b04	01360633	add	x12,x12,x19	 x12:0x00000000 x19:0x00000000 x12=0x00000000
       65805000	      6579	80002b08	40d75633	sra	x12,x14,x13	 x14:0xff6b689f x13:0x0a17d9c0 x12=0xff6b689f
       65815000	      6580	80002b0c	0003bab3	sltu	x21,x7,x0	  x7:0x00000000  x0:0x00000000 x21=0x00000000
       65825000	      6581	80002b10	00593833	sltu	x16,x18,x5	 x18:0x00000001  x5:0xffffffff x16=0x00000001
       65835000	      6582	80002b14	008af863	bgeu	x21,x8,80002b24	 x21:0x00000000  x8:0x0a18d9bf
       65845000	      6583	80002b18	a12d9037	lui	x0,0xa12d9	
       65855000	      6584	80002b1c	16364b13	xori	x22,x12,355	 x12:0xff6b689f x22=0xff6b69fc
       65865000	      6585	80002b20	00158033	add	x0,x11,x1	 x11:0x7fff6524  x1:0x00000001
       65875000	      6586	80002b24	61d7c737	lui	x14,0x61d7c	 x14=0x61d7c000
       65885000	      6587	80002b28	00d08133	add	x2,x1,x13	  x1:0x00000001 x13:0x0a17d9c0  x2=0x0a17d9c1
       65895000	      6588	80002b2c	f6976593	ori	x11,x14,-151	 x14:0x61d7c000 x11=0xffffff69
       65905000	      6589	80002b30	0062d9b3	srl	x19,x5,x6	  x5:0xffffffff  x6:0x29b20000 x19=0xffffffff
       65915000	      6590	80002b34	1c984813	xori	x16,x16,457	 x16:0x00000001 x16=0x000001c8
       65925000	      6591	80002b38	b52f4c93	xori	x25,x30,-1198	 x30:0x00fffffa x25=0xff0004a8
       65935000	      6592	80002b3c	00000013	addi	x0,x0,0	  x0:0x00000000
       65945000	      6593	80002b40	0086eeb3	or	x29,x13,x8	 x13:0x0a17d9c0  x8:0x0a18d9bf x29=0x0a1fd9ff
       65955000	      6594	80002b44	41a10b33	sub	x22,x2,x26	  x2:0x0a17d9c1 x26:0x80009f2c x22=0x8a173a95
       65965000	      6595	80002b48	0340036f	jal	x6,80002b48	  x6=0x80002b48
       65975000	      6596	00000000	00000013	addi	x0,x0,0	  x0:0x00000000
       65985000	      6597	80002b78	00000013	addi	x0,x0,0	  x0:0x00000000
       65995000	      6598	80002b7c	fddff0ef	jal	x1,80002b7c	  x1=0x80002b7c
       66005000	      6599	00000000	00000013	addi	x0,x0,0	  x0:0x00000000
       66015000	      6600	80002b54	00000013	addi	x0,x0,0	  x0:0x00000000
       66025000	      6601	80002b58	01400b6f	jal	x22,80002b58	 x22=0x80002b58
       66035000	      6602	00000000	00000013	addi	x0,x0,0	  x0:0x00000000
       66045000	      6603	80002b68	00000013	addi	x0,x0,0	  x0:0x00000000
       66055000	      6604	80002b6c	fe1ff0ef	jal	x1,80002b6c	  x1=0x80002b6c
       66065000	      6605	00000000	00000013	addi	x0,x0,0	  x0:0x00000000
       66075000	      6606	80002b48	00000013	addi	x0,x0,0	  x0:0x00000000
       66085000	      6607	80002b4c	0240026f	jal	x4,80002b4c	  x4=0x80002b4c
       66095000	      6608	00000000	00000013	addi	x0,x0,0	  x0:0x00000000
       66105000	      6609	80002b6c	00000013	addi	x0,x0,0	  x0:0x00000000
       66115000	      6610	80002b70	038002ef	jal	x5,80002b70	  x5=0x80002b70
       66125000	      6611	00000000	00000013	addi	x0,x0,0	  x0:0x00000000
       66135000	      6612	80002ba4	00000013	addi	x0,x0,0	  x0:0x00000000
       66145000	      6613	80002ba8	fd9ff0ef	jal	x1,80002ba8	  x1=0x80002ba8
       66155000	      6614	00000000	00000013	addi	x0,x0,0	  x0:0x00000000
       66165000	      6615	80002b7c	00000013	addi	x0,x0,0	  x0:0x00000000
       66175000	      6616	80002b80	fddff0ef	jal	x1,80002b80	  x1=0x80002b80
       66185000	      6617	00000000	00000013	addi	x0,x0,0	  x0:0x00000000
       66195000	      6618	80002b58	00000013	addi	x0,x0,0	  x0:0x00000000
       66205000	      6619	80002b5c	0400076f	jal	x14,80002b5c	 x14=0x80002b5c
       66215000	      6620	00000000	00000013	addi	x0,x0,0	  x0:0x00000000
       66225000	      6621	80002b98	00000013	addi	x0,x0,0	  x0:0x00000000
       66235000	      6622	80002b9c	fddffdef	jal	x27,80002b9c	 x27=0x80002b9c
       66245000	      6623	00000000	00000013	addi	x0,x0,0	  x0:0x00000000
       66255000	      6624	80002b74	00000013	addi	x0,x0,0	  x0:0x00000000
       66265000	      6625	80002b78	ff1ff0ef	jal	x1,80002b78	  x1=0x80002b78
       66275000	      6626	00000000	00000013	addi	x0,x0,0	  x0:0x00000000
       66285000	      6627	80002b64	00000013	addi	x0,x0,0	  x0:0x00000000
       66295000	      6628	80002b68	030000ef	jal	x1,80002b68	  x1=0x80002b68
       66305000	      6629	00000000	00000013	addi	x0,x0,0	  x0:0x00000000
       66315000	      6630	80002b94	00000013	addi	x0,x0,0	  x0:0x00000000
       66325000	      6631	80002b98	ffdff0ef	jal	x1,80002b98	  x1=0x80002b98
       66335000	      6632	00000000	00000013	addi	x0,x0,0	  x0:0x00000000
       66345000	      6633	80002b90	00000013	addi	x0,x0,0	  x0:0x00000000
       66355000	      6634	80002b94	01000c6f	jal	x24,80002b94	 x24=0x80002b94
       66365000	      6635	00000000	00000013	addi	x0,x0,0	  x0:0x00000000
       66375000	      6636	80002ba0	00000013	addi	x0,x0,0	  x0:0x00000000
       66385000	      6637	80002ba4	fc1ff36f	jal	x6,80002ba4	  x6=0x80002ba4
       66395000	      6638	00000000	00000013	addi	x0,x0,0	  x0:0x00000000
       66405000	      6639	80002b60	00000013	addi	x0,x0,0	  x0:0x00000000
       66415000	      6640	80002b64	028000ef	jal	x1,80002b64	  x1=0x80002b64
       66425000	      6641	00000000	00000013	addi	x0,x0,0	  x0:0x00000000
       66435000	      6642	80002b88	00000013	addi	x0,x0,0	  x0:0x00000000
       66445000	      6643	80002b8c	fd5ff4ef	jal	x9,80002b8c	  x9=0x80002b8c
       66455000	      6644	00000000	00000013	addi	x0,x0,0	  x0:0x00000000
       66465000	      6645	80002b5c	00000013	addi	x0,x0,0	  x0:0x00000000
       66475000	      6646	80002b60	ff1ff0ef	jal	x1,80002b60	  x1=0x80002b60
       66485000	      6647	00000000	00000013	addi	x0,x0,0	  x0:0x00000000
       66495000	      6648	80002b4c	00000013	addi	x0,x0,0	  x0:0x00000000
       66505000	      6649	80002b50	00400aef	jal	x21,80002b50	 x21=0x80002b50
       66515000	      6650	00000000	00000013	addi	x0,x0,0	  x0:0x00000000
       66525000	      6651	80002b50	00000013	addi	x0,x0,0	  x0:0x00000000
       66535000	      6652	80002b54	030000ef	jal	x1,80002b54	  x1=0x80002b54
       66545000	      6653	00000000	00000013	addi	x0,x0,0	  x0:0x00000000
       66555000	      6654	80002b80	00000013	addi	x0,x0,0	  x0:0x00000000
       66565000	      6655	80002b84	004000ef	jal	x1,80002b84	  x1=0x80002b84
       66575000	      6656	00000000	00000013	addi	x0,x0,0	  x0:0x00000000
       66585000	      6657	80002b84	00000013	addi	x0,x0,0	  x0:0x00000000
       66595000	      6658	80002b88	008000ef	jal	x1,80002b88	  x1=0x80002b88
       66605000	      6659	00000000	00000013	addi	x0,x0,0	  x0:0x00000000
       66615000	      6660	80002b8c	00000013	addi	x0,x0,0	  x0:0x00000000
       66625000	      6661	80002b90	fe5ff0ef	jal	x1,80002b90	  x1=0x80002b90
       66635000	      6662	00000000	00000013	addi	x0,x0,0	  x0:0x00000000
       66645000	      6663	80002b70	00000013	addi	x0,x0,0	  x0:0x00000000
       66655000	      6664	80002b74	02c000ef	jal	x1,80002b74	  x1=0x80002b74
       66665000	      6665	00000000	00000013	addi	x0,x0,0	  x0:0x00000000
       66675000	      6666	80002b9c	00000013	addi	x0,x0,0	  x0:0x00000000
       66685000	      6667	80002ba0	00c0036f	jal	x6,80002ba0	  x6=0x80002ba0
       66695000	      6668	00000000	00000013	addi	x0,x0,0	  x0:0x00000000
       66705000	      6669	80002ba8	00000013	addi	x0,x0,0	  x0:0x00000000
       66715000	      6670	80002bac	413adb93	srai	x23,x21,0x13	 x21:0x80002b50 x23=0xfffff000
       66725000	      6671	80002bb0	076b9463	bne	x23,x22,80002c18	 x23:0xfffff000 x22:0x80002b58
       66735000	      6672	00000000	00000013	addi	x0,x0,0	  x0:0x00000000
       66745000	      6673	80002c14	00000013	addi	x0,x0,0	  x0:0x00000000
       66755000	      6674	80002c18	02448863	beq	x9,x4,80002c48	  x9:0x80002b8c  x4:0x80002b4c
       66765000	      6675	80002c1c	86ef4493	xori	x9,x30,-1938	 x30:0x00fffffa  x9=0xff000794
       66775000	      6676	80002c20	01fc0533	add	x10,x24,x31	 x24:0x80002b94 x31:0x00000000 x10=0x80002b94
       66785000	      6677	80002c24	00d60663	beq	x12,x13,80002c30	 x12:0xff6b689f x13:0x0a17d9c0
       66795000	      6678	80002c28	40955a93	srai	x21,x10,0x9	 x10:0x80002b94 x21=0xffc00015
       66805000	      6679	80002c2c	009643b3	xor	x7,x12,x9	 x12:0xff6b689f  x9:0xff000794  x7=0x006b6f0b
       66815000	      6680	80002c30	e3ac4613	xori	x12,x24,-454	 x24:0x80002b94 x12=0x7fffd5ae
       66825000	      6681	80002c34	016f1a63	bne	x30,x22,80002c48	 x30:0x00fffffa x22:0x80002b58
       66835000	      6682	00000000	00000013	addi	x0,x0,0	  x0:0x00000000
       66845000	      6683	80002c44	00000013	addi	x0,x0,0	  x0:0x00000000
       66855000	      6684	80002c48	0069d663	bge	x19,x6,80002c54	 x19:0xffffffff  x6:0x80002ba0
       66865000	      6685	00000000	00000013	addi	x0,x0,0	  x0:0x00000000
       66875000	      6686	80002c50	00000013	addi	x0,x0,0	  x0:0x00000000
       66885000	      6687	80002c54	c46b3313	sltiu	x6,x22,-954	 x22:0x80002b58  x6=0x00000001
       66895000	      6688	80002c58	01e006b3	add	x13,x0,x30	  x0:0x00000000 x30:0x00fffffa x13=0x00fffffa
       66905000	      6689	80002c5c	017ddc93	srli	x25,x27,0x17	 x27:0x80002b9c x25=0x00000100
       66915000	      6690	80002c60	fcad3393	sltiu	x7,x26,-54	 x26:0x80009f2c  x7=0x00000001
       66925000	      6691	80002c64	db49a393	slti	x7,x19,-588	 x19:0xffffffff  x7=0x00000000
       66935000	      6692	80002c68	01d65ab3	srl	x21,x12,x29	 x12:0x7fffd5ae x29:0x0a1fd9ff x21=0x00000000
       66945000	      6693	80002c6c	2265ee93	ori	x29,x11,550	 x11:0xffffff69 x29=0xffffff6f
       66955000	      6694	80002c70	4110d493	srai	x9,x1,0x11	  x1:0x80002b74  x9=0xffffc000
       66965000	      6695	80002c74	0110c2b3	xor	x5,x1,x17	  x1:0x80002b74 x17:0x80009fc4  x5=0x0000b4b0
       66975000	      6696	80002c78	0bcefe13	andi	x28,x29,188	 x29:0xffffff6f x28=0x0000002c
       66985000	      6697	80002c7c	01bf72b3	and	x5,x30,x27	 x30:0x00fffffa x27:0x80002b9c  x5=0x00002b98
       66995000	      6698	80002c80	dd04fb13	andi	x22,x9,-560	  x9:0xffffc000 x22=0xffffc000
       67005000	      6699	80002c84	00b29433	sll	x8,x5,x11	  x5:0x00002b98 x11:0xffffff69  x8=0x00573000
       67015000	      6700	80002c88	008d8ab3	add	x21,x27,x8	 x27:0x80002b9c  x8:0x00573000 x21=0x80575b9c
       67025000	      6701	80002c8c	008fa133	slt	x2,x31,x8	 x31:0x00000000  x8:0x00573000  x2=0x00000001
       67035000	      6702	80002c90	012762b3	or	x5,x14,x18	 x14:0x80002b5c x18:0x00000001  x5=0x80002b5d
       67045000	      6703	80002c94	40e1dab3	sra	x21,x3,x14	  x3:0x0a18d9be x14:0x80002b5c x21=0x00000000
       67055000	      6704	80002c98	b1ec2993	slti	x19,x24,-1250	 x24:0x80002b94 x19=0x00000001
       67065000	      6705	80002c9c	002c3833	sltu	x16,x24,x2	 x24:0x80002b94  x2:0x00000001 x16=0x00000000
       67075000	      6706	80002ca0	1cc20813	addi	x16,x4,460	  x4:0x80002b4c x16=0x80002d18
       67085000	      6707	80002ca4	00656cb3	or	x25,x10,x6	 x10:0x80002b94  x6:0x00000001 x25=0x80002b95
       67095000	      6708	80002ca8	00000013	addi	x0,x0,0	  x0:0x00000000
       67105000	      6709	80002cac	001d6c63	bltu	x26,x1,80002cc4	 x26:0x80009f2c  x1:0x80002b74
       67115000	      6710	80002cb0	41090ab3	sub	x21,x18,x16	 x18:0x00000001 x16:0x80002d18 x21=0x7fffd2e9
       67125000	      6711	80002cb4	01d6de93	srli	x29,x13,0x1d	 x13:0x00fffffa x29=0x00000000
       67135000	      6712	80002cb8	01daa733	slt	x14,x21,x29	 x21:0x7fffd2e9 x29:0x00000000 x14=0x00000000
       67145000	      6713	80002cbc	08fd5463	bge	x26,x15,80002d44	 x26:0x80009f2c x15:0xf573b7aa
       67155000	      6714	80002cc0	00000013	addi	x0,x0,0	  x0:0x00000000
       67165000	      6715	80002cc4	02375863	bge	x14,x3,80002cf4	 x14:0x00000000  x3:0x0a18d9be
       67175000	      6716	80002cc8	1d386513	ori	x10,x16,467	 x16:0x80002d18 x10=0x80002ddb
       67185000	      6717	80002ccc	c771aeb7	lui	x29,0xc771a	 x29=0xc771a000
       67195000	      6718	80002cd0	031ee663	bltu	x29,x17,80002cfc	 x29:0xc771a000 x17:0x80009fc4
       67205000	      6719	80002cd4	01f2c663	blt	x5,x31,80002ce0	  x5:0x80002b5d x31:0x00000000
       67215000	      6720	00000000	00000013	addi	x0,x0,0	  x0:0x00000000
       67225000	      6721	80002cdc	00000013	addi	x0,x0,0	  x0:0x00000000
       67235000	      6722	80002ce0	00dc1b33	sll	x22,x24,x13	 x24:0x80002b94 x13:0x00fffffa x22=0x50000000
       67245000	      6723	80002ce4	00431a63	bne	x6,x4,80002cf8	  x6:0x00000001  x4:0x80002b4c
       67255000	      6724	00000000	00000013	addi	x0,x0,0	  x0:0x00000000
       67265000	      6725	80002cf4	00000013	addi	x0,x0,0	  x0:0x00000000
       67275000	      6726	80002cf8	08736463	bltu	x6,x7,80002d80	  x6:0x00000001  x7:0x00000000
       67285000	      6727	80002cfc	418ed513	srai	x10,x29,0x18	 x29:0xc771a000 x10=0xffffffc7
       67295000	      6728	80002d00	04044863	blt	x8,x0,80002d50	  x8:0x00573000  x0:0x00000000
       67305000	      6729	80002d04	0127c333	xor	x6,x15,x18	 x15:0xf573b7aa x18:0x00000001  x6=0xf573b7ab
       67315000	      6730	80002d08	0280036f	jal	x6,80002d08	  x6=0x80002d08
       67325000	      6731	00000000	00000013	addi	x0,x0,0	  x0:0x00000000
       67335000	      6732	80002d2c	00000013	addi	x0,x0,0	  x0:0x00000000
       67345000	      6733	80002d30	fe5ff26f	jal	x4,80002d30	  x4=0x80002d30
       67355000	      6734	00000000	00000013	addi	x0,x0,0	  x0:0x00000000
       67365000	      6735	80002d10	00000013	addi	x0,x0,0	  x0:0x00000000
       67375000	      6736	80002d14	00c00eef	jal	x29,80002d14	 x29=0x80002d14
       67385000	      6737	00000000	00000013	addi	x0,x0,0	  x0:0x00000000
       67395000	      6738	80002d1c	00000013	addi	x0,x0,0	  x0:0x00000000
       67405000	      6739	80002d20	014000ef	jal	x1,80002d20	  x1=0x80002d20
       67415000	      6740	00000000	00000013	addi	x0,x0,0	  x0:0x00000000
       67425000	      6741	80002d30	00000013	addi	x0,x0,0	  x0:0x00000000
       67435000	      6742	80002d34	008000ef	jal	x1,80002d34	  x1=0x80002d34
       67445000	      6743	00000000	00000013	addi	x0,x0,0	  x0:0x00000000
       67455000	      6744	80002d38	00000013	addi	x0,x0,0	  x0:0x00000000
       67465000	      6745	80002d3c	fd1ff36f	jal	x6,80002d3c	  x6=0x80002d3c
       67475000	      6746	00000000	00000013	addi	x0,x0,0	  x0:0x00000000
       67485000	      6747	80002d08	00000013	addi	x0,x0,0	  x0:0x00000000
       67495000	      6748	80002d0c	02c00eef	jal	x29,80002d0c	 x29=0x80002d0c
       67505000	      6749	00000000	00000013	addi	x0,x0,0	  x0:0x00000000
       67515000	      6750	80002d34	00000013	addi	x0,x0,0	  x0:0x00000000
       67525000	      6751	80002d38	ff5ff1ef	jal	x3,80002d38	  x3=0x80002d38
       67535000	      6752	00000000	00000013	addi	x0,x0,0	  x0:0x00000000
       67545000	      6753	80002d28	00000013	addi	x0,x0,0	  x0:0x00000000
       67555000	      6754	80002d2c	fe5ff36f	jal	x6,80002d2c	  x6=0x80002d2c
       67565000	      6755	00000000	00000013	addi	x0,x0,0	  x0:0x00000000
       67575000	      6756	80002d0c	00000013	addi	x0,x0,0	  x0:0x00000000
       67585000	      6757	80002d10	01800c6f	jal	x24,80002d10	 x24=0x80002d10
       67595000	      6758	00000000	00000013	addi	x0,x0,0	  x0:0x00000000
       67605000	      6759	80002d24	00000013	addi	x0,x0,0	  x0:0x00000000
       67615000	      6760	80002d28	ff1ff0ef	jal	x1,80002d28	  x1=0x80002d28
       67625000	      6761	00000000	00000013	addi	x0,x0,0	  x0:0x00000000
       67635000	      6762	80002d14	00000013	addi	x0,x0,0	  x0:0x00000000
       67645000	      6763	80002d18	004000ef	jal	x1,80002d18	  x1=0x80002d18
       67655000	      6764	00000000	00000013	addi	x0,x0,0	  x0:0x00000000
       67665000	      6765	80002d18	00000013	addi	x0,x0,0	  x0:0x00000000
       67675000	      6766	80002d1c	008000ef	jal	x1,80002d1c	  x1=0x80002d1c
       67685000	      6767	00000000	00000013	addi	x0,x0,0	  x0:0x00000000
       67695000	      6768	80002d20	00000013	addi	x0,x0,0	  x0:0x00000000
       67705000	      6769	80002d24	01c000ef	jal	x1,80002d24	  x1=0x80002d24
       67715000	      6770	00000000	00000013	addi	x0,x0,0	  x0:0x00000000
       67725000	      6771	80002d3c	00000013	addi	x0,x0,0	  x0:0x00000000
       67735000	      6772	80002d40	381a0997	auipc	x19,0x381a0	 x19=0xb81a2d3c
       67745000	      6773	80002d44	008eea33	or	x20,x29,x8	 x29:0x80002d0c  x8:0x00573000 x20=0x80573d0c
       67755000	      6774	80002d48	0336de63	bge	x13,x19,80002d84	 x13:0x00fffffa x19:0xb81a2d3c
       67765000	      6775	00000000	00000013	addi	x0,x0,0	  x0:0x00000000
       67775000	      6776	80002d80	00000013	addi	x0,x0,0	  x0:0x00000000
       67785000	      6777	80002d84	948e0693	addi	x13,x28,-1720	 x28:0x0000002c x13=0xfffff974
       67795000	      6778	80002d88	01d36633	or	x12,x6,x29	  x6:0x80002d2c x29:0x80002d0c x12=0x80002d2c
       67805000	      6779	80002d8c	00000013	addi	x0,x0,0	  x0:0x00000000
       67815000	      6780	80002d90	00a49133	sll	x2,x9,x10	  x9:0xffffc000 x10:0xffffffc7  x2=0xffe00000
       67825000	      6781	80002d94	40445c13	srai	x24,x8,0x4	  x8:0x00573000 x24=0x00057300
       67835000	      6782	80002d98	407c5233	sra	x4,x24,x7	 x24:0x00057300  x7:0x00000000  x4=0x00057300
       67845000	      6783	80002d9c	04d5c463	blt	x11,x13,80002de4	 x11:0xffffff69 x13:0xfffff974
       67855000	      6784	80002da0	011d7663	bgeu	x26,x17,80002dac	 x26:0x80009f2c x17:0x80009fc4
       67865000	      6785	80002da4	00e9c633	xor	x12,x19,x14	 x19:0xb81a2d3c x14:0x00000000 x12=0xb81a2d3c
       67875000	      6786	80002da8	0321dc63	bge	x3,x18,80002de0	  x3:0x80002d38 x18:0x00000001
       67885000	      6787	80002dac	01f6ca63	blt	x13,x31,80002dc0	 x13:0xfffff974 x31:0x00000000
       67895000	      6788	00000000	00000013	addi	x0,x0,0	  x0:0x00000000
       67905000	      6789	80002dbc	00000013	addi	x0,x0,0	  x0:0x00000000
       67915000	      6790	80002dc0	00789833	sll	x16,x17,x7	 x17:0x80009fc4  x7:0x00000000 x16=0x80009fc4
       67925000	      6791	80002dc4	1ed06fb7	lui	x31,0x1ed06	 x31=0x1ed06000
       67935000	      6792	80002dc8	001d8263	beq	x27,x1,80002dcc	 x27:0x80002b9c  x1:0x80002d24
       67945000	      6793	80002dcc	01670433	add	x8,x14,x22	 x14:0x00000000 x22:0x50000000  x8=0x50000000
       67955000	      6794	80002dd0	00000013	addi	x0,x0,0	  x0:0x00000000
       67965000	      6795	80002dd4	885d3513	sltiu	x10,x26,-1915	 x26:0x80009f2c x10=0x00000001
       67975000	      6796	80002dd8	01db95b3	sll	x11,x23,x29	 x23:0xfffff000 x29:0x80002d0c x11=0xff000000
       67985000	      6797	80002ddc	412f59b3	sra	x19,x30,x18	 x30:0x00fffffa x18:0x00000001 x19=0x007ffffd
       67995000	      6798	80002de0	00994c63	blt	x18,x9,80002df8	 x18:0x00000001  x9:0xffffc000
       68005000	      6799	80002de4	41470db3	sub	x27,x14,x20	 x14:0x00000000 x20:0x80573d0c x27=0x7fa8c2f4
       68015000	      6800	80002de8	05476837	lui	x16,0x5476	 x16=0x05476000
       68025000	      6801	80002dec	01fec663	blt	x29,x31,80002df8	 x29:0x80002d0c x31:0x1ed06000
       68035000	      6802	00000000	00000013	addi	x0,x0,0	  x0:0x00000000
       68045000	      6803	80002df4	00000013	addi	x0,x0,0	  x0:0x00000000
       68055000	      6804	80002df8	00ad6b33	or	x22,x26,x10	 x26:0x80009f2c x10:0x00000001 x22=0x80009f2d
       68065000	      6805	80002dfc	01cfc233	xor	x4,x31,x28	 x31:0x1ed06000 x28:0x0000002c  x4=0x1ed0602c
       68075000	      6806	80002e00	00175e93	srli	x29,x14,0x1	 x14:0x00000000 x29=0x00000000
       68085000	      6807	80002e04	004d2303	lw	x6,4(x26)	 x26:0x80009f2c  x6=0x80002e68 PA:0x80009f30
       68095000	      6808	80002e08	d05655b7	lui	x11,0xd0565	 x11=0xd0565000
       68105000	      6809	80002e0c	00000013	addi	x0,x0,0	  x0:0x00000000
       68115000	      6810	80002e10	030d0d13	addi	x26,x26,48	 x26:0x80009f2c x26=0x80009f5c
       68125000	      6811	80002e14	d4367293	andi	x5,x12,-701	 x12:0xb81a2d3c  x5=0xb81a2d00
       68135000	      6812	80002e18	00130393	addi	x7,x6,1	  x6:0x80002e68  x7=0x80002e69
       68145000	      6813	80002e1c	000383e7	jalr	x7,x7,0	  x7:0x80002e69  x7=0x80002e1c
       68155000	      6814	00000000	00000013	addi	x0,x0,0	  x0:0x00000000
       68165000	      6815	80002e68	00000013	addi	x0,x0,0	  x0:0x00000000
       68175000	      6816	80002e6c	0080036f	jal	x6,80002e6c	  x6=0x80002e6c
       68185000	      6817	00000000	00000013	addi	x0,x0,0	  x0:0x00000000
       68195000	      6818	80002e70	00000013	addi	x0,x0,0	  x0:0x00000000
       68205000	      6819	80002e74	050000ef	jal	x1,80002e74	  x1=0x80002e74
       68215000	      6820	00000000	00000013	addi	x0,x0,0	  x0:0x00000000
       68225000	      6821	80002ec0	00000013	addi	x0,x0,0	  x0:0x00000000
       68235000	      6822	80002ec4	ff1ff26f	jal	x4,80002ec4	  x4=0x80002ec4
       68245000	      6823	00000000	00000013	addi	x0,x0,0	  x0:0x00000000
       68255000	      6824	80002eb0	00000013	addi	x0,x0,0	  x0:0x00000000
       68265000	      6825	80002eb4	fe1ff0ef	jal	x1,80002eb4	  x1=0x80002eb4
       68275000	      6826	00000000	00000013	addi	x0,x0,0	  x0:0x00000000
       68285000	      6827	80002e90	00000013	addi	x0,x0,0	  x0:0x00000000
       68295000	      6828	80002e94	024000ef	jal	x1,80002e94	  x1=0x80002e94
       68305000	      6829	00000000	00000013	addi	x0,x0,0	  x0:0x00000000
       68315000	      6830	80002eb4	00000013	addi	x0,x0,0	  x0:0x00000000
       68325000	      6831	80002eb8	01000fef	jal	x31,80002eb8	 x31=0x80002eb8
       68335000	      6832	00000000	00000013	addi	x0,x0,0	  x0:0x00000000
       68345000	      6833	80002ec4	00000013	addi	x0,x0,0	  x0:0x00000000
       68355000	      6834	80002ec8	fd9ff0ef	jal	x1,80002ec8	  x1=0x80002ec8
       68365000	      6835	00000000	00000013	addi	x0,x0,0	  x0:0x00000000
       68375000	      6836	80002e9c	00000013	addi	x0,x0,0	  x0:0x00000000
       68385000	      6837	80002ea0	fe5ff36f	jal	x6,80002ea0	  x6=0x80002ea0
       68395000	      6838	00000000	00000013	addi	x0,x0,0	  x0:0x00000000
       68405000	      6839	80002e80	00000013	addi	x0,x0,0	  x0:0x00000000
       68415000	      6840	80002e84	0200036f	jal	x6,80002e84	  x6=0x80002e84
       68425000	      6841	00000000	00000013	addi	x0,x0,0	  x0:0x00000000
       68435000	      6842	80002ea0	00000013	addi	x0,x0,0	  x0:0x00000000
       68445000	      6843	80002ea4	02c00a6f	jal	x20,80002ea4	 x20=0x80002ea4
       68455000	      6844	00000000	00000013	addi	x0,x0,0	  x0:0x00000000
       68465000	      6845	80002ecc	00000013	addi	x0,x0,0	  x0:0x00000000
       68475000	      6846	80002ed0	fddff0ef	jal	x1,80002ed0	  x1=0x80002ed0
       68485000	      6847	00000000	00000013	addi	x0,x0,0	  x0:0x00000000
       68495000	      6848	80002ea8	00000013	addi	x0,x0,0	  x0:0x00000000
       68505000	      6849	80002eac	004000ef	jal	x1,80002eac	  x1=0x80002eac
       68515000	      6850	00000000	00000013	addi	x0,x0,0	  x0:0x00000000
       68525000	      6851	80002eac	00000013	addi	x0,x0,0	  x0:0x00000000
       68535000	      6852	80002eb0	fedff36f	jal	x6,80002eb0	  x6=0x80002eb0
       68545000	      6853	00000000	00000013	addi	x0,x0,0	  x0:0x00000000
       68555000	      6854	80002e98	00000013	addi	x0,x0,0	  x0:0x00000000
       68565000	      6855	80002e9c	fd5ff2ef	jal	x5,80002e9c	  x5=0x80002e9c
       68575000	      6856	00000000	00000013	addi	x0,x0,0	  x0:0x00000000
       68585000	      6857	80002e6c	00000013	addi	x0,x0,0	  x0:0x00000000
       68595000	      6858	80002e70	038000ef	jal	x1,80002e70	  x1=0x80002e70
       68605000	      6859	00000000	00000013	addi	x0,x0,0	  x0:0x00000000
       68615000	      6860	80002ea4	00000013	addi	x0,x0,0	  x0:0x00000000
       68625000	      6861	80002ea8	0140016f	jal	x2,80002ea8	  x2=0x80002ea8
       68635000	      6862	00000000	00000013	addi	x0,x0,0	  x0:0x00000000
       68645000	      6863	80002eb8	00000013	addi	x0,x0,0	  x0:0x00000000
       68655000	      6864	80002ebc	fcdff0ef	jal	x1,80002ebc	  x1=0x80002ebc
       68665000	      6865	00000000	00000013	addi	x0,x0,0	  x0:0x00000000
       68675000	      6866	80002e84	00000013	addi	x0,x0,0	  x0:0x00000000
       68685000	      6867	80002e88	0080086f	jal	x16,80002e88	 x16=0x80002e88
       68695000	      6868	00000000	00000013	addi	x0,x0,0	  x0:0x00000000
       68705000	      6869	80002e8c	00000013	addi	x0,x0,0	  x0:0x00000000
       68715000	      6870	80002e90	fe9ff0ef	jal	x1,80002e90	  x1=0x80002e90
       68725000	      6871	00000000	00000013	addi	x0,x0,0	  x0:0x00000000
       68735000	      6872	80002e74	00000013	addi	x0,x0,0	  x0:0x00000000
       68745000	      6873	80002e78	00400f6f	jal	x30,80002e78	 x30=0x80002e78
       68755000	      6874	00000000	00000013	addi	x0,x0,0	  x0:0x00000000
       68765000	      6875	80002e78	00000013	addi	x0,x0,0	  x0:0x00000000
       68775000	      6876	80002e7c	01c0016f	jal	x2,80002e7c	  x2=0x80002e7c
       68785000	      6877	00000000	00000013	addi	x0,x0,0	  x0:0x00000000
       68795000	      6878	80002e94	00000013	addi	x0,x0,0	  x0:0x00000000
       68805000	      6879	80002e98	fe9ff0ef	jal	x1,80002e98	  x1=0x80002e98
       68815000	      6880	00000000	00000013	addi	x0,x0,0	  x0:0x00000000
       68825000	      6881	80002e7c	00000013	addi	x0,x0,0	  x0:0x00000000
       68835000	      6882	80002e80	04c000ef	jal	x1,80002e80	  x1=0x80002e80
       68845000	      6883	00000000	00000013	addi	x0,x0,0	  x0:0x00000000
       68855000	      6884	80002ec8	00000013	addi	x0,x0,0	  x0:0x00000000
       68865000	      6885	80002ecc	fc1ff0ef	jal	x1,80002ecc	  x1=0x80002ecc
       68875000	      6886	00000000	00000013	addi	x0,x0,0	  x0:0x00000000
       68885000	      6887	80002e88	00000013	addi	x0,x0,0	  x0:0x00000000
       68895000	      6888	80002e8c	034000ef	jal	x1,80002e8c	  x1=0x80002e8c
       68905000	      6889	00000000	00000013	addi	x0,x0,0	  x0:0x00000000
       68915000	      6890	80002ebc	00000013	addi	x0,x0,0	  x0:0x00000000
       68925000	      6891	80002ec0	0140036f	jal	x6,80002ec0	  x6=0x80002ec0
       68935000	      6892	00000000	00000013	addi	x0,x0,0	  x0:0x00000000
       68945000	      6893	80002ed0	00000013	addi	x0,x0,0	  x0:0x00000000
       68955000	      6894	80002ed4	01096fb3	or	x31,x18,x16	 x18:0x00000001 x16:0x80002e88 x31=0x80002e89
       68965000	      6895	80002ed8	0500036f	jal	x6,80002ed8	  x6=0x80002ed8
       68975000	      6896	00000000	00000013	addi	x0,x0,0	  x0:0x00000000
       68985000	      6897	80002f24	00000013	addi	x0,x0,0	  x0:0x00000000
       68995000	      6898	80002f28	fb5ffa6f	jal	x20,80002f28	 x20=0x80002f28
       69005000	      6899	00000000	00000013	addi	x0,x0,0	  x0:0x00000000
       69015000	      6900	80002ed8	00000013	addi	x0,x0,0	  x0:0x00000000
       69025000	      6901	80002edc	028002ef	jal	x5,80002edc	  x5=0x80002edc
       69035000	      6902	00000000	00000013	addi	x0,x0,0	  x0:0x00000000
       69045000	      6903	80002f00	00000013	addi	x0,x0,0	  x0:0x00000000
       69055000	      6904	80002f04	018000ef	jal	x1,80002f04	  x1=0x80002f04
       69065000	      6905	00000000	00000013	addi	x0,x0,0	  x0:0x00000000
       69075000	      6906	80002f18	00000013	addi	x0,x0,0	  x0:0x00000000
       69085000	      6907	80002f1c	fcdff1ef	jal	x3,80002f1c	  x3=0x80002f1c
       69095000	      6908	00000000	00000013	addi	x0,x0,0	  x0:0x00000000
       69105000	      6909	80002ee4	00000013	addi	x0,x0,0	  x0:0x00000000
       69115000	      6910	80002ee8	0240036f	jal	x6,80002ee8	  x6=0x80002ee8
       69125000	      6911	00000000	00000013	addi	x0,x0,0	  x0:0x00000000
       69135000	      6912	80002f08	00000013	addi	x0,x0,0	  x0:0x00000000
       69145000	      6913	80002f0c	fd5fff6f	jal	x30,80002f0c	 x30=0x80002f0c
       69155000	      6914	00000000	00000013	addi	x0,x0,0	  x0:0x00000000
       69165000	      6915	80002edc	00000013	addi	x0,x0,0	  x0:0x00000000
       69175000	      6916	80002ee0	00c000ef	jal	x1,80002ee0	  x1=0x80002ee0
       69185000	      6917	00000000	00000013	addi	x0,x0,0	  x0:0x00000000
       69195000	      6918	80002ee8	00000013	addi	x0,x0,0	  x0:0x00000000
       69205000	      6919	80002eec	ff9ffaef	jal	x21,80002eec	 x21=0x80002eec
       69215000	      6920	00000000	00000013	addi	x0,x0,0	  x0:0x00000000
       69225000	      6921	80002ee0	00000013	addi	x0,x0,0	  x0:0x00000000
       69235000	      6922	80002ee4	00c000ef	jal	x1,80002ee4	  x1=0x80002ee4
       69245000	      6923	00000000	00000013	addi	x0,x0,0	  x0:0x00000000
       69255000	      6924	80002eec	00000013	addi	x0,x0,0	  x0:0x00000000
       69265000	      6925	80002ef0	010000ef	jal	x1,80002ef0	  x1=0x80002ef0
       69275000	      6926	00000000	00000013	addi	x0,x0,0	  x0:0x00000000
       69285000	      6927	80002efc	00000013	addi	x0,x0,0	  x0:0x00000000
       69295000	      6928	80002f00	01000c6f	jal	x24,80002f00	 x24=0x80002f00
       69305000	      6929	00000000	00000013	addi	x0,x0,0	  x0:0x00000000
       69315000	      6930	80002f0c	00000013	addi	x0,x0,0	  x0:0x00000000
       69325000	      6931	80002f10	01c005ef	jal	x11,80002f10	 x11=0x80002f10
       69335000	      6932	00000000	00000013	addi	x0,x0,0	  x0:0x00000000
       69345000	      6933	80002f28	00000013	addi	x0,x0,0	  x0:0x00000000
       69355000	      6934	80002f2c	ff9ff2ef	jal	x5,80002f2c	  x5=0x80002f2c
       69365000	      6935	00000000	00000013	addi	x0,x0,0	  x0:0x00000000
       69375000	      6936	80002f20	00000013	addi	x0,x0,0	  x0:0x00000000
       69385000	      6937	80002f24	ffdff36f	jal	x6,80002f24	  x6=0x80002f24
       69395000	      6938	00000000	00000013	addi	x0,x0,0	  x0:0x00000000
       69405000	      6939	80002f1c	00000013	addi	x0,x0,0	  x0:0x00000000
       69415000	      6940	80002f20	ff5ff1ef	jal	x3,80002f20	  x3=0x80002f20
       69425000	      6941	00000000	00000013	addi	x0,x0,0	  x0:0x00000000
       69435000	      6942	80002f10	00000013	addi	x0,x0,0	  x0:0x00000000
       69445000	      6943	80002f14	fe9ff2ef	jal	x5,80002f14	  x5=0x80002f14
       69455000	      6944	00000000	00000013	addi	x0,x0,0	  x0:0x00000000
       69465000	      6945	80002ef8	00000013	addi	x0,x0,0	  x0:0x00000000
       69475000	      6946	80002efc	ff9ff2ef	jal	x5,80002efc	  x5=0x80002efc
       69485000	      6947	00000000	00000013	addi	x0,x0,0	  x0:0x00000000
       69495000	      6948	80002ef0	00000013	addi	x0,x0,0	  x0:0x00000000
       69505000	      6949	80002ef4	0140036f	jal	x6,80002ef4	  x6=0x80002ef4
       69515000	      6950	00000000	00000013	addi	x0,x0,0	  x0:0x00000000
       69525000	      6951	80002f04	00000013	addi	x0,x0,0	  x0:0x00000000
       69535000	      6952	80002f08	ff1ff36f	jal	x6,80002f08	  x6=0x80002f08
       69545000	      6953	00000000	00000013	addi	x0,x0,0	  x0:0x00000000
       69555000	      6954	80002ef4	00000013	addi	x0,x0,0	  x0:0x00000000
       69565000	      6955	80002ef8	020000ef	jal	x1,80002ef8	  x1=0x80002ef8
       69575000	      6956	00000000	00000013	addi	x0,x0,0	  x0:0x00000000
       69585000	      6957	80002f14	00000013	addi	x0,x0,0	  x0:0x00000000
       69595000	      6958	80002f18	0180026f	jal	x4,80002f18	  x4=0x80002f18
       69605000	      6959	00000000	00000013	addi	x0,x0,0	  x0:0x00000000
       69615000	      6960	80002f2c	00000013	addi	x0,x0,0	  x0:0x00000000
       69625000	      6961	80002f30	99c4ee93	ori	x29,x9,-1636	  x9:0xffffc000 x29=0xfffff99c
       69635000	      6962	80002f34	03c0036f	jal	x6,80002f34	  x6=0x80002f34
       69645000	      6963	00000000	00000013	addi	x0,x0,0	  x0:0x00000000
       69655000	      6964	80002f6c	00000013	addi	x0,x0,0	  x0:0x00000000
       69665000	      6965	80002f70	ff5ff26f	jal	x4,80002f70	  x4=0x80002f70
       69675000	      6966	00000000	00000013	addi	x0,x0,0	  x0:0x00000000
       69685000	      6967	80002f60	00000013	addi	x0,x0,0	  x0:0x00000000
       69695000	      6968	80002f64	fe5ff0ef	jal	x1,80002f64	  x1=0x80002f64
       69705000	      6969	00000000	00000013	addi	x0,x0,0	  x0:0x00000000
       69715000	      6970	80002f44	00000013	addi	x0,x0,0	  x0:0x00000000
       69725000	      6971	80002f48	03400aef	jal	x21,80002f48	 x21=0x80002f48
       69735000	      6972	00000000	00000013	addi	x0,x0,0	  x0:0x00000000
       69745000	      6973	80002f78	00000013	addi	x0,x0,0	  x0:0x00000000
       69755000	      6974	80002f7c	ffdff36f	jal	x6,80002f7c	  x6=0x80002f7c
       69765000	      6975	00000000	00000013	addi	x0,x0,0	  x0:0x00000000
       69775000	      6976	80002f74	00000013	addi	x0,x0,0	  x0:0x00000000
       69785000	      6977	80002f78	fddff86f	jal	x16,80002f78	 x16=0x80002f78
       69795000	      6978	00000000	00000013	addi	x0,x0,0	  x0:0x00000000
       69805000	      6979	80002f50	00000013	addi	x0,x0,0	  x0:0x00000000
       69815000	      6980	80002f54	ff9ffc6f	jal	x24,80002f54	 x24=0x80002f54
       69825000	      6981	00000000	00000013	addi	x0,x0,0	  x0:0x00000000
       69835000	      6982	80002f48	00000013	addi	x0,x0,0	  x0:0x00000000
       69845000	      6983	80002f4c	00c0016f	jal	x2,80002f4c	  x2=0x80002f4c
       69855000	      6984	00000000	00000013	addi	x0,x0,0	  x0:0x00000000
       69865000	      6985	80002f54	00000013	addi	x0,x0,0	  x0:0x00000000
       69875000	      6986	80002f58	fe5ff0ef	jal	x1,80002f58	  x1=0x80002f58
       69885000	      6987	00000000	00000013	addi	x0,x0,0	  x0:0x00000000
       69895000	      6988	80002f38	00000013	addi	x0,x0,0	  x0:0x00000000
       69905000	      6989	80002f3c	0240036f	jal	x6,80002f3c	  x6=0x80002f3c
       69915000	      6990	00000000	00000013	addi	x0,x0,0	  x0:0x00000000
       69925000	      6991	80002f5c	00000013	addi	x0,x0,0	  x0:0x00000000
       69935000	      6992	80002f60	ff1ffa6f	jal	x20,80002f60	 x20=0x80002f60
       69945000	      6993	00000000	00000013	addi	x0,x0,0	  x0:0x00000000
       69955000	      6994	80002f4c	00000013	addi	x0,x0,0	  x0:0x00000000
       69965000	      6995	80002f50	ff1ff0ef	jal	x1,80002f50	  x1=0x80002f50
       69975000	      6996	00000000	00000013	addi	x0,x0,0	  x0:0x00000000
       69985000	      6997	80002f3c	00000013	addi	x0,x0,0	  x0:0x00000000
       69995000	      6998	80002f40	0040036f	jal	x6,80002f40	  x6=0x80002f40
       70005000	      6999	00000000	00000013	addi	x0,x0,0	  x0:0x00000000
       70015000	      7000	80002f40	00000013	addi	x0,x0,0	  x0:0x00000000
       70025000	      7001	80002f44	ff5ff0ef	jal	x1,80002f44	  x1=0x80002f44
       70035000	      7002	00000000	00000013	addi	x0,x0,0	  x0:0x00000000
       70045000	      7003	80002f34	00000013	addi	x0,x0,0	  x0:0x00000000
       70055000	      7004	80002f38	04c000ef	jal	x1,80002f38	  x1=0x80002f38
       70065000	      7005	00000000	00000013	addi	x0,x0,0	  x0:0x00000000
       70075000	      7006	80002f80	00000013	addi	x0,x0,0	  x0:0x00000000
       70085000	      7007	80002f84	ff1ff36f	jal	x6,80002f84	  x6=0x80002f84
       70095000	      7008	00000000	00000013	addi	x0,x0,0	  x0:0x00000000
       70105000	      7009	80002f70	00000013	addi	x0,x0,0	  x0:0x00000000
       70115000	      7010	80002f74	ff9ff0ef	jal	x1,80002f74	  x1=0x80002f74
       70125000	      7011	00000000	00000013	addi	x0,x0,0	  x0:0x00000000
       70135000	      7012	80002f68	00000013	addi	x0,x0,0	  x0:0x00000000
       70145000	      7013	80002f6c	ff1ff96f	jal	x18,80002f6c	 x18=0x80002f6c
       70155000	      7014	00000000	00000013	addi	x0,x0,0	  x0:0x00000000
       70165000	      7015	80002f58	00000013	addi	x0,x0,0	  x0:0x00000000
       70175000	      7016	80002f5c	02400c6f	jal	x24,80002f5c	 x24=0x80002f5c
       70185000	      7017	00000000	00000013	addi	x0,x0,0	  x0:0x00000000
       70195000	      7018	80002f7c	00000013	addi	x0,x0,0	  x0:0x00000000
       70205000	      7019	80002f80	fe9ff0ef	jal	x1,80002f80	  x1=0x80002f80
       70215000	      7020	00000000	00000013	addi	x0,x0,0	  x0:0x00000000
       70225000	      7021	80002f64	00000013	addi	x0,x0,0	  x0:0x00000000
       70235000	      7022	80002f68	020000ef	jal	x1,80002f68	  x1=0x80002f68
       70245000	      7023	00000000	00000013	addi	x0,x0,0	  x0:0x00000000
       70255000	      7024	80002f84	00000013	addi	x0,x0,0	  x0:0x00000000
       70265000	      7025	80002f88	4aa90597	auipc	x11,0x4aa90	 x11=0xcaa92f84
       70275000	      7026	80002f8c	0340036f	jal	x6,80002f8c	  x6=0x80002f8c
       70285000	      7027	00000000	00000013	addi	x0,x0,0	  x0:0x00000000
       70295000	      7028	80002fbc	00000013	addi	x0,x0,0	  x0:0x00000000
       70305000	      7029	80002fc0	fd5ff0ef	jal	x1,80002fc0	  x1=0x80002fc0
       70315000	      7030	00000000	00000013	addi	x0,x0,0	  x0:0x00000000
       70325000	      7031	80002f90	00000013	addi	x0,x0,0	  x0:0x00000000
       70335000	      7032	80002f94	038000ef	jal	x1,80002f94	  x1=0x80002f94
       70345000	      7033	00000000	00000013	addi	x0,x0,0	  x0:0x00000000
       70355000	      7034	80002fc8	00000013	addi	x0,x0,0	  x0:0x00000000
       70365000	      7035	80002fcc	ff9ffb6f	jal	x22,80002fcc	 x22=0x80002fcc
       70375000	      7036	00000000	00000013	addi	x0,x0,0	  x0:0x00000000
       70385000	      7037	80002fc0	00000013	addi	x0,x0,0	  x0:0x00000000
       70395000	      7038	80002fc4	ff1ff0ef	jal	x1,80002fc4	  x1=0x80002fc4
       70405000	      7039	00000000	00000013	addi	x0,x0,0	  x0:0x00000000
       70415000	      7040	80002fb0	00000013	addi	x0,x0,0	  x0:0x00000000
       70425000	      7041	80002fb4	fe5ffeef	jal	x29,80002fb4	 x29=0x80002fb4
       70435000	      7042	00000000	00000013	addi	x0,x0,0	  x0:0x00000000
       70445000	      7043	80002f94	00000013	addi	x0,x0,0	  x0:0x00000000
       70455000	      7044	80002f98	054000ef	jal	x1,80002f98	  x1=0x80002f98
       70465000	      7045	00000000	00000013	addi	x0,x0,0	  x0:0x00000000
       70475000	      7046	80002fe8	00000013	addi	x0,x0,0	  x0:0x00000000
       70485000	      7047	80002fec	fe9ff0ef	jal	x1,80002fec	  x1=0x80002fec
       70495000	      7048	00000000	00000013	addi	x0,x0,0	  x0:0x00000000
       70505000	      7049	80002fd0	00000013	addi	x0,x0,0	  x0:0x00000000
       70515000	      7050	80002fd4	00400c6f	jal	x24,80002fd4	 x24=0x80002fd4
       70525000	      7051	00000000	00000013	addi	x0,x0,0	  x0:0x00000000
       70535000	      7052	80002fd4	00000013	addi	x0,x0,0	  x0:0x00000000
       70545000	      7053	80002fd8	fe5ff0ef	jal	x1,80002fd8	  x1=0x80002fd8
       70555000	      7054	00000000	00000013	addi	x0,x0,0	  x0:0x00000000
       70565000	      7055	80002fb8	00000013	addi	x0,x0,0	  x0:0x00000000
       70575000	      7056	80002fbc	034002ef	jal	x5,80002fbc	  x5=0x80002fbc
       70585000	      7057	00000000	00000013	addi	x0,x0,0	  x0:0x00000000
       70595000	      7058	80002fec	00000013	addi	x0,x0,0	  x0:0x00000000
       70605000	      7059	80002ff0	fb1fff6f	jal	x30,80002ff0	 x30=0x80002ff0
       70615000	      7060	00000000	00000013	addi	x0,x0,0	  x0:0x00000000
       70625000	      7061	80002f9c	00000013	addi	x0,x0,0	  x0:0x00000000
       70635000	      7062	80002fa0	004000ef	jal	x1,80002fa0	  x1=0x80002fa0
       70645000	      7063	00000000	00000013	addi	x0,x0,0	  x0:0x00000000
       70655000	      7064	80002fa0	00000013	addi	x0,x0,0	  x0:0x00000000
       70665000	      7065	80002fa4	038000ef	jal	x1,80002fa4	  x1=0x80002fa4
       70675000	      7066	00000000	00000013	addi	x0,x0,0	  x0:0x00000000
       70685000	      7067	80002fd8	00000013	addi	x0,x0,0	  x0:0x00000000
       70695000	      7068	80002fdc	fc1ff0ef	jal	x1,80002fdc	  x1=0x80002fdc
       70705000	      7069	00000000	00000013	addi	x0,x0,0	  x0:0x00000000
       70715000	      7070	80002f98	00000013	addi	x0,x0,0	  x0:0x00000000
       70725000	      7071	80002f9c	04c002ef	jal	x5,80002f9c	  x5=0x80002f9c
       70735000	      7072	00000000	00000013	addi	x0,x0,0	  x0:0x00000000
       70745000	      7073	80002fe4	00000013	addi	x0,x0,0	  x0:0x00000000
       70755000	      7074	80002fe8	fc9ff0ef	jal	x1,80002fe8	  x1=0x80002fe8
       70765000	      7075	00000000	00000013	addi	x0,x0,0	  x0:0x00000000
       70775000	      7076	80002fac	00000013	addi	x0,x0,0	  x0:0x00000000
       70785000	      7077	80002fb0	008000ef	jal	x1,80002fb0	  x1=0x80002fb0
       70795000	      7078	00000000	00000013	addi	x0,x0,0	  x0:0x00000000
       70805000	      7079	80002fb4	00000013	addi	x0,x0,0	  x0:0x00000000
       70815000	      7080	80002fb8	02c000ef	jal	x1,80002fb8	  x1=0x80002fb8
       70825000	      7081	00000000	00000013	addi	x0,x0,0	  x0:0x00000000
       70835000	      7082	80002fe0	00000013	addi	x0,x0,0	  x0:0x00000000
       70845000	      7083	80002fe4	fadff0ef	jal	x1,80002fe4	  x1=0x80002fe4
       70855000	      7084	00000000	00000013	addi	x0,x0,0	  x0:0x00000000
       70865000	      7085	80002f8c	00000013	addi	x0,x0,0	  x0:0x00000000
       70875000	      7086	80002f90	0400066f	jal	x12,80002f90	 x12=0x80002f90
       70885000	      7087	00000000	00000013	addi	x0,x0,0	  x0:0x00000000
       70895000	      7088	80002fcc	00000013	addi	x0,x0,0	  x0:0x00000000
       70905000	      7089	80002fd0	ff9ff0ef	jal	x1,80002fd0	  x1=0x80002fd0
       70915000	      7090	00000000	00000013	addi	x0,x0,0	  x0:0x00000000
       70925000	      7091	80002fc4	00000013	addi	x0,x0,0	  x0:0x00000000
       70935000	      7092	80002fc8	fe5ff0ef	jal	x1,80002fc8	  x1=0x80002fc8
       70945000	      7093	00000000	00000013	addi	x0,x0,0	  x0:0x00000000
       70955000	      7094	80002fa8	00000013	addi	x0,x0,0	  x0:0x00000000
       70965000	      7095	80002fac	0340036f	jal	x6,80002fac	  x6=0x80002fac
       70975000	      7096	00000000	00000013	addi	x0,x0,0	  x0:0x00000000
       70985000	      7097	80002fdc	00000013	addi	x0,x0,0	  x0:0x00000000
       70995000	      7098	80002fe0	fc9ff0ef	jal	x1,80002fe0	  x1=0x80002fe0
       71005000	      7099	00000000	00000013	addi	x0,x0,0	  x0:0x00000000
       71015000	      7100	80002fa4	00000013	addi	x0,x0,0	  x0:0x00000000
       71025000	      7101	80002fa8	04c0096f	jal	x18,80002fa8	 x18=0x80002fa8
       71035000	      7102	00000000	00000013	addi	x0,x0,0	  x0:0x00000000
       71045000	      7103	80002ff0	00000013	addi	x0,x0,0	  x0:0x00000000
       71055000	      7104	80002ff4	01c971b3	and	x3,x18,x28	 x18:0x80002fa8 x28:0x0000002c  x3=0x00000028
       71065000	      7105	80002ff8	0340036f	jal	x6,80002ff8	  x6=0x80002ff8
       71075000	      7106	00000000	00000013	addi	x0,x0,0	  x0:0x00000000
       71085000	      7107	80003028	00000013	addi	x0,x0,0	  x0:0x00000000
       71095000	      7108	8000302c	028000ef	jal	x1,8000302c	  x1=0x8000302c
       71105000	      7109	00000000	00000013	addi	x0,x0,0	  x0:0x00000000
       71115000	      7110	80003050	00000013	addi	x0,x0,0	  x0:0x00000000
       71125000	      7111	80003054	fc1ff0ef	jal	x1,80003054	  x1=0x80003054
       71135000	      7112	00000000	00000013	addi	x0,x0,0	  x0:0x00000000
       71145000	      7113	80003010	00000013	addi	x0,x0,0	  x0:0x00000000
       71155000	      7114	80003014	ff5ff96f	jal	x18,80003014	 x18=0x80003014
       71165000	      7115	00000000	00000013	addi	x0,x0,0	  x0:0x00000000
       71175000	      7116	80003004	00000013	addi	x0,x0,0	  x0:0x00000000
       71185000	      7117	80003008	054002ef	jal	x5,80003008	  x5=0x80003008
       71195000	      7118	00000000	00000013	addi	x0,x0,0	  x0:0x00000000
       71205000	      7119	80003058	00000013	addi	x0,x0,0	  x0:0x00000000
       71215000	      7120	8000305c	fb5ff0ef	jal	x1,8000305c	  x1=0x8000305c
       71225000	      7121	00000000	00000013	addi	x0,x0,0	  x0:0x00000000
       71235000	      7122	8000300c	00000013	addi	x0,x0,0	  x0:0x00000000
       71245000	      7123	80003010	ff5ff0ef	jal	x1,80003010	  x1=0x80003010
       71255000	      7124	00000000	00000013	addi	x0,x0,0	  x0:0x00000000
       71265000	      7125	80003000	00000013	addi	x0,x0,0	  x0:0x00000000
       71275000	      7126	80003004	ff9ff36f	jal	x6,80003004	  x6=0x80003004
       71285000	      7127	00000000	00000013	addi	x0,x0,0	  x0:0x00000000
       71295000	      7128	80002ff8	00000013	addi	x0,x0,0	  x0:0x00000000
       71305000	      7129	80002ffc	004000ef	jal	x1,80002ffc	  x1=0x80002ffc
       71315000	      7130	00000000	00000013	addi	x0,x0,0	  x0:0x00000000
       71325000	      7131	80002ffc	00000013	addi	x0,x0,0	  x0:0x00000000
       71335000	      7132	80003000	01c000ef	jal	x1,80003000	  x1=0x80003000
       71345000	      7133	00000000	00000013	addi	x0,x0,0	  x0:0x00000000
       71355000	      7134	80003018	00000013	addi	x0,x0,0	  x0:0x00000000
       71365000	      7135	8000301c	008000ef	jal	x1,8000301c	  x1=0x8000301c
       71375000	      7136	00000000	00000013	addi	x0,x0,0	  x0:0x00000000
       71385000	      7137	80003020	00000013	addi	x0,x0,0	  x0:0x00000000
       71395000	      7138	80003024	0280056f	jal	x10,80003024	 x10=0x80003024
       71405000	      7139	00000000	00000013	addi	x0,x0,0	  x0:0x00000000
       71415000	      7140	80003048	00000013	addi	x0,x0,0	  x0:0x00000000
       71425000	      7141	8000304c	ff1ff0ef	jal	x1,8000304c	  x1=0x8000304c
       71435000	      7142	00000000	00000013	addi	x0,x0,0	  x0:0x00000000
       71445000	      7143	80003038	00000013	addi	x0,x0,0	  x0:0x00000000
       71455000	      7144	8000303c	0140056f	jal	x10,8000303c	 x10=0x8000303c
       71465000	      7145	00000000	00000013	addi	x0,x0,0	  x0:0x00000000
       71475000	      7146	8000304c	00000013	addi	x0,x0,0	  x0:0x00000000
       71485000	      7147	80003050	ff5ff0ef	jal	x1,80003050	  x1=0x80003050
       71495000	      7148	00000000	00000013	addi	x0,x0,0	  x0:0x00000000
       71505000	      7149	80003040	00000013	addi	x0,x0,0	  x0:0x00000000
       71515000	      7150	80003044	01400eef	jal	x29,80003044	 x29=0x80003044
       71525000	      7151	00000000	00000013	addi	x0,x0,0	  x0:0x00000000
       71535000	      7152	80003054	00000013	addi	x0,x0,0	  x0:0x00000000
       71545000	      7153	80003058	fb5ff0ef	jal	x1,80003058	  x1=0x80003058
       71555000	      7154	00000000	00000013	addi	x0,x0,0	  x0:0x00000000
       71565000	      7155	80003008	00000013	addi	x0,x0,0	  x0:0x00000000
       71575000	      7156	8000300c	034000ef	jal	x1,8000300c	  x1=0x8000300c
       71585000	      7157	00000000	00000013	addi	x0,x0,0	  x0:0x00000000
       71595000	      7158	8000303c	00000013	addi	x0,x0,0	  x0:0x00000000
       71605000	      7159	80003040	008000ef	jal	x1,80003040	  x1=0x80003040
       71615000	      7160	00000000	00000013	addi	x0,x0,0	  x0:0x00000000
       71625000	      7161	80003044	00000013	addi	x0,x0,0	  x0:0x00000000
       71635000	      7162	80003048	fedff36f	jal	x6,80003048	  x6=0x80003048
       71645000	      7163	00000000	00000013	addi	x0,x0,0	  x0:0x00000000
       71655000	      7164	80003030	00000013	addi	x0,x0,0	  x0:0x00000000
       71665000	      7165	80003034	0040086f	jal	x16,80003034	 x16=0x80003034
       71675000	      7166	00000000	00000013	addi	x0,x0,0	  x0:0x00000000
       71685000	      7167	80003034	00000013	addi	x0,x0,0	  x0:0x00000000
       71695000	      7168	80003038	ff9ff36f	jal	x6,80003038	  x6=0x80003038
       71705000	      7169	00000000	00000013	addi	x0,x0,0	  x0:0x00000000
       71715000	      7170	8000302c	00000013	addi	x0,x0,0	  x0:0x00000000
       71725000	      7171	80003030	ff1ff0ef	jal	x1,80003030	  x1=0x80003030
       71735000	      7172	00000000	00000013	addi	x0,x0,0	  x0:0x00000000
       71745000	      7173	8000301c	00000013	addi	x0,x0,0	  x0:0x00000000
       71755000	      7174	80003020	ff9ff96f	jal	x18,80003020	 x18=0x80003020
       71765000	      7175	00000000	00000013	addi	x0,x0,0	  x0:0x00000000
       71775000	      7176	80003014	00000013	addi	x0,x0,0	  x0:0x00000000
       71785000	      7177	80003018	010000ef	jal	x1,80003018	  x1=0x80003018
       71795000	      7178	00000000	00000013	addi	x0,x0,0	  x0:0x00000000
       71805000	      7179	80003024	00000013	addi	x0,x0,0	  x0:0x00000000
       71815000	      7180	80003028	038000ef	jal	x1,80003028	  x1=0x80003028
       71825000	      7181	00000000	00000013	addi	x0,x0,0	  x0:0x00000000
       71835000	      7182	8000305c	00000013	addi	x0,x0,0	  x0:0x00000000
       71845000	      7183	80003060	01dbd213	srli	x4,x23,0x1d	 x23:0xfffff000  x4=0x00000007
       71855000	      7184	80003064	03c0036f	jal	x6,80003064	  x6=0x80003064
       71865000	      7185	00000000	00000013	addi	x0,x0,0	  x0:0x00000000
       71875000	      7186	8000309c	00000013	addi	x0,x0,0	  x0:0x00000000
       71885000	      7187	800030a0	008004ef	jal	x9,800030a0	  x9=0x800030a0
       71895000	      7188	00000000	00000013	addi	x0,x0,0	  x0:0x00000000
       71905000	      7189	800030a4	00000013	addi	x0,x0,0	  x0:0x00000000
       71915000	      7190	800030a8	ff1ffc6f	jal	x24,800030a8	 x24=0x800030a8
       71925000	      7191	00000000	00000013	addi	x0,x0,0	  x0:0x00000000
       71935000	      7192	80003094	00000013	addi	x0,x0,0	  x0:0x00000000
       71945000	      7193	80003098	fe9ff36f	jal	x6,80003098	  x6=0x80003098
       71955000	      7194	00000000	00000013	addi	x0,x0,0	  x0:0x00000000
       71965000	      7195	8000307c	00000013	addi	x0,x0,0	  x0:0x00000000
       71975000	      7196	80003080	fe9ff3ef	jal	x7,80003080	  x7=0x80003080
       71985000	      7197	00000000	00000013	addi	x0,x0,0	  x0:0x00000000
       71995000	      7198	80003064	00000013	addi	x0,x0,0	  x0:0x00000000
       72005000	      7199	80003068	00800f6f	jal	x30,80003068	 x30=0x80003068
       72015000	      7200	00000000	00000013	addi	x0,x0,0	  x0:0x00000000
       72025000	      7201	8000306c	00000013	addi	x0,x0,0	  x0:0x00000000
       72035000	      7202	80003070	00c0026f	jal	x4,80003070	  x4=0x80003070
       72045000	      7203	00000000	00000013	addi	x0,x0,0	  x0:0x00000000
       72055000	      7204	80003078	00000013	addi	x0,x0,0	  x0:0x00000000
       72065000	      7205	8000307c	00c000ef	jal	x1,8000307c	  x1=0x8000307c
       72075000	      7206	00000000	00000013	addi	x0,x0,0	  x0:0x00000000
       72085000	      7207	80003084	00000013	addi	x0,x0,0	  x0:0x00000000
       72095000	      7208	80003088	00c0036f	jal	x6,80003088	  x6=0x80003088
       72105000	      7209	00000000	00000013	addi	x0,x0,0	  x0:0x00000000
       72115000	      7210	80003090	00000013	addi	x0,x0,0	  x0:0x00000000
       72125000	      7211	80003094	0180036f	jal	x6,80003094	  x6=0x80003094
       72135000	      7212	00000000	00000013	addi	x0,x0,0	  x0:0x00000000
       72145000	      7213	800030a8	00000013	addi	x0,x0,0	  x0:0x00000000
       72155000	      7214	800030ac	fc9ff0ef	jal	x1,800030ac	  x1=0x800030ac
       72165000	      7215	00000000	00000013	addi	x0,x0,0	  x0:0x00000000
       72175000	      7216	80003070	00000013	addi	x0,x0,0	  x0:0x00000000
       72185000	      7217	80003074	030004ef	jal	x9,80003074	  x9=0x80003074
       72195000	      7218	00000000	00000013	addi	x0,x0,0	  x0:0x00000000
       72205000	      7219	800030a0	00000013	addi	x0,x0,0	  x0:0x00000000
       72215000	      7220	800030a4	fe1ff0ef	jal	x1,800030a4	  x1=0x800030a4
       72225000	      7221	00000000	00000013	addi	x0,x0,0	  x0:0x00000000
       72235000	      7222	80003080	00000013	addi	x0,x0,0	  x0:0x00000000
       72245000	      7223	80003084	00c000ef	jal	x1,80003084	  x1=0x80003084
       72255000	      7224	00000000	00000013	addi	x0,x0,0	  x0:0x00000000
       72265000	      7225	8000308c	00000013	addi	x0,x0,0	  x0:0x00000000
       72275000	      7226	80003090	ffdff0ef	jal	x1,80003090	  x1=0x80003090
       72285000	      7227	00000000	00000013	addi	x0,x0,0	  x0:0x00000000
       72295000	      7228	80003088	00000013	addi	x0,x0,0	  x0:0x00000000
       72305000	      7229	8000308c	fedff0ef	jal	x1,8000308c	  x1=0x8000308c
       72315000	      7230	00000000	00000013	addi	x0,x0,0	  x0:0x00000000
       72325000	      7231	80003074	00000013	addi	x0,x0,0	  x0:0x00000000
       72335000	      7232	80003078	024000ef	jal	x1,80003078	  x1=0x80003078
       72345000	      7233	00000000	00000013	addi	x0,x0,0	  x0:0x00000000
       72355000	      7234	80003098	00000013	addi	x0,x0,0	  x0:0x00000000
       72365000	      7235	8000309c	0140066f	jal	x12,8000309c	 x12=0x8000309c
       72375000	      7236	00000000	00000013	addi	x0,x0,0	  x0:0x00000000
       72385000	      7237	800030ac	00000013	addi	x0,x0,0	  x0:0x00000000
       72395000	      7238	800030b0	fbdff0ef	jal	x1,800030b0	  x1=0x800030b0
       72405000	      7239	00000000	00000013	addi	x0,x0,0	  x0:0x00000000
       72415000	      7240	80003068	00000013	addi	x0,x0,0	  x0:0x00000000
       72425000	      7241	8000306c	048000ef	jal	x1,8000306c	  x1=0x8000306c
       72435000	      7242	00000000	00000013	addi	x0,x0,0	  x0:0x00000000
       72445000	      7243	800030b0	00000013	addi	x0,x0,0	  x0:0x00000000
       72455000	      7244	800030b4	e4e0d537	lui	x10,0xe4e0d	 x10=0xe4e0d000
       72465000	      7245	800030b8	0180036f	jal	x6,800030b8	  x6=0x800030b8
       72475000	      7246	00000000	00000013	addi	x0,x0,0	  x0:0x00000000
       72485000	      7247	800030cc	00000013	addi	x0,x0,0	  x0:0x00000000
       72495000	      7248	800030d0	ff5ff36f	jal	x6,800030d0	  x6=0x800030d0
       72505000	      7249	00000000	00000013	addi	x0,x0,0	  x0:0x00000000
       72515000	      7250	800030c0	00000013	addi	x0,x0,0	  x0:0x00000000
       72525000	      7251	800030c4	004000ef	jal	x1,800030c4	  x1=0x800030c4
       72535000	      7252	00000000	00000013	addi	x0,x0,0	  x0:0x00000000
       72545000	      7253	800030c4	00000013	addi	x0,x0,0	  x0:0x00000000
       72555000	      7254	800030c8	0380036f	jal	x6,800030c8	  x6=0x800030c8
       72565000	      7255	00000000	00000013	addi	x0,x0,0	  x0:0x00000000
       72575000	      7256	800030fc	00000013	addi	x0,x0,0	  x0:0x00000000
       72585000	      7257	80003100	0040016f	jal	x2,80003100	  x2=0x80003100
       72595000	      7258	00000000	00000013	addi	x0,x0,0	  x0:0x00000000
       72605000	      7259	80003100	00000013	addi	x0,x0,0	  x0:0x00000000
       72615000	      7260	80003104	fc9fffef	jal	x31,80003104	 x31=0x80003104
       72625000	      7261	00000000	00000013	addi	x0,x0,0	  x0:0x00000000
       72635000	      7262	800030c8	00000013	addi	x0,x0,0	  x0:0x00000000
       72645000	      7263	800030cc	02c0056f	jal	x10,800030cc	 x10=0x800030cc
       72655000	      7264	00000000	00000013	addi	x0,x0,0	  x0:0x00000000
       72665000	      7265	800030f4	00000013	addi	x0,x0,0	  x0:0x00000000
       72675000	      7266	800030f8	fe5ff0ef	jal	x1,800030f8	  x1=0x800030f8
       72685000	      7267	00000000	00000013	addi	x0,x0,0	  x0:0x00000000
       72695000	      7268	800030d8	00000013	addi	x0,x0,0	  x0:0x00000000
       72705000	      7269	800030dc	0140036f	jal	x6,800030dc	  x6=0x800030dc
       72715000	      7270	00000000	00000013	addi	x0,x0,0	  x0:0x00000000
       72725000	      7271	800030ec	00000013	addi	x0,x0,0	  x0:0x00000000
       72735000	      7272	800030f0	004002ef	jal	x5,800030f0	  x5=0x800030f0
       72745000	      7273	00000000	00000013	addi	x0,x0,0	  x0:0x00000000
       72755000	      7274	800030f0	00000013	addi	x0,x0,0	  x0:0x00000000
       72765000	      7275	800030f4	0080036f	jal	x6,800030f4	  x6=0x800030f4
       72775000	      7276	00000000	00000013	addi	x0,x0,0	  x0:0x00000000
       72785000	      7277	800030f8	00000013	addi	x0,x0,0	  x0:0x00000000
       72795000	      7278	800030fc	fd9ff0ef	jal	x1,800030fc	  x1=0x800030fc
       72805000	      7279	00000000	00000013	addi	x0,x0,0	  x0:0x00000000
       72815000	      7280	800030d0	00000013	addi	x0,x0,0	  x0:0x00000000
       72825000	      7281	800030d4	00c000ef	jal	x1,800030d4	  x1=0x800030d4
       72835000	      7282	00000000	00000013	addi	x0,x0,0	  x0:0x00000000
       72845000	      7283	800030dc	00000013	addi	x0,x0,0	  x0:0x00000000
       72855000	      7284	800030e0	00800e6f	jal	x28,800030e0	 x28=0x800030e0
       72865000	      7285	00000000	00000013	addi	x0,x0,0	  x0:0x00000000
       72875000	      7286	800030e4	00000013	addi	x0,x0,0	  x0:0x00000000
       72885000	      7287	800030e8	fd5ff0ef	jal	x1,800030e8	  x1=0x800030e8
       72895000	      7288	00000000	00000013	addi	x0,x0,0	  x0:0x00000000
       72905000	      7289	800030b8	00000013	addi	x0,x0,0	  x0:0x00000000
       72915000	      7290	800030bc	030000ef	jal	x1,800030bc	  x1=0x800030bc
       72925000	      7291	00000000	00000013	addi	x0,x0,0	  x0:0x00000000
       72935000	      7292	800030e8	00000013	addi	x0,x0,0	  x0:0x00000000
       72945000	      7293	800030ec	fedfffef	jal	x31,800030ec	 x31=0x800030ec
       72955000	      7294	00000000	00000013	addi	x0,x0,0	  x0:0x00000000
       72965000	      7295	800030d4	00000013	addi	x0,x0,0	  x0:0x00000000
       72975000	      7296	800030d8	030000ef	jal	x1,800030d8	  x1=0x800030d8
       72985000	      7297	00000000	00000013	addi	x0,x0,0	  x0:0x00000000
       72995000	      7298	80003104	00000013	addi	x0,x0,0	  x0:0x00000000
       73005000	      7299	80003108	fddff56f	jal	x10,80003108	 x10=0x80003108
       73015000	      7300	00000000	00000013	addi	x0,x0,0	  x0:0x00000000
       73025000	      7301	800030e0	00000013	addi	x0,x0,0	  x0:0x00000000
       73035000	      7302	800030e4	fddff36f	jal	x6,800030e4	  x6=0x800030e4
       73045000	      7303	00000000	00000013	addi	x0,x0,0	  x0:0x00000000
       73055000	      7304	800030bc	00000013	addi	x0,x0,0	  x0:0x00000000
       73065000	      7305	800030c0	04c000ef	jal	x1,800030c0	  x1=0x800030c0
       73075000	      7306	00000000	00000013	addi	x0,x0,0	  x0:0x00000000
       73085000	      7307	80003108	00000013	addi	x0,x0,0	  x0:0x00000000
       73095000	      7308	8000310c	90a5cd93	xori	x27,x11,-1782	 x11:0xcaa92f84 x27=0x3556d68e
       73105000	      7309	80003110	0100036f	jal	x6,80003110	  x6=0x80003110
       73115000	      7310	00000000	00000013	addi	x0,x0,0	  x0:0x00000000
       73125000	      7311	8000311c	00000013	addi	x0,x0,0	  x0:0x00000000
       73135000	      7312	80003120	ff9ff0ef	jal	x1,80003120	  x1=0x80003120
       73145000	      7313	00000000	00000013	addi	x0,x0,0	  x0:0x00000000
       73155000	      7314	80003114	00000013	addi	x0,x0,0	  x0:0x00000000
       73165000	      7315	80003118	0340036f	jal	x6,80003118	  x6=0x80003118
       73175000	      7316	00000000	00000013	addi	x0,x0,0	  x0:0x00000000
       73185000	      7317	80003148	00000013	addi	x0,x0,0	  x0:0x00000000
       73195000	      7318	8000314c	fc9ff36f	jal	x6,8000314c	  x6=0x8000314c
       73205000	      7319	00000000	00000013	addi	x0,x0,0	  x0:0x00000000
       73215000	      7320	80003110	00000013	addi	x0,x0,0	  x0:0x00000000
       73225000	      7321	80003114	014000ef	jal	x1,80003114	  x1=0x80003114
       73235000	      7322	00000000	00000013	addi	x0,x0,0	  x0:0x00000000
       73245000	      7323	80003124	00000013	addi	x0,x0,0	  x0:0x00000000
       73255000	      7324	80003128	0100066f	jal	x12,80003128	 x12=0x80003128
       73265000	      7325	00000000	00000013	addi	x0,x0,0	  x0:0x00000000
       73275000	      7326	80003134	00000013	addi	x0,x0,0	  x0:0x00000000
       73285000	      7327	80003138	fe5ff0ef	jal	x1,80003138	  x1=0x80003138
       73295000	      7328	00000000	00000013	addi	x0,x0,0	  x0:0x00000000
       73305000	      7329	80003118	00000013	addi	x0,x0,0	  x0:0x00000000
       73315000	      7330	8000311c	024006ef	jal	x13,8000311c	 x13=0x8000311c
       73325000	      7331	00000000	00000013	addi	x0,x0,0	  x0:0x00000000
       73335000	      7332	8000313c	00000013	addi	x0,x0,0	  x0:0x00000000
       73345000	      7333	80003140	010000ef	jal	x1,80003140	  x1=0x80003140
       73355000	      7334	00000000	00000013	addi	x0,x0,0	  x0:0x00000000
       73365000	      7335	8000314c	00000013	addi	x0,x0,0	  x0:0x00000000
       73375000	      7336	80003150	fddff36f	jal	x6,80003150	  x6=0x80003150
       73385000	      7337	00000000	00000013	addi	x0,x0,0	  x0:0x00000000
       73395000	      7338	80003128	00000013	addi	x0,x0,0	  x0:0x00000000
       73405000	      7339	8000312c	02c000ef	jal	x1,8000312c	  x1=0x8000312c
       73415000	      7340	00000000	00000013	addi	x0,x0,0	  x0:0x00000000
       73425000	      7341	80003154	00000013	addi	x0,x0,0	  x0:0x00000000
       73435000	      7342	80003158	fedff36f	jal	x6,80003158	  x6=0x80003158
       73445000	      7343	00000000	00000013	addi	x0,x0,0	  x0:0x00000000
       73455000	      7344	80003140	00000013	addi	x0,x0,0	  x0:0x00000000
       73465000	      7345	80003144	fe1ff0ef	jal	x1,80003144	  x1=0x80003144
       73475000	      7346	00000000	00000013	addi	x0,x0,0	  x0:0x00000000
       73485000	      7347	80003120	00000013	addi	x0,x0,0	  x0:0x00000000
       73495000	      7348	80003124	00c0036f	jal	x6,80003124	  x6=0x80003124
       73505000	      7349	00000000	00000013	addi	x0,x0,0	  x0:0x00000000
       73515000	      7350	8000312c	00000013	addi	x0,x0,0	  x0:0x00000000
       73525000	      7351	80003130	00c0036f	jal	x6,80003130	  x6=0x80003130
       73535000	      7352	00000000	00000013	addi	x0,x0,0	  x0:0x00000000
       73545000	      7353	80003138	00000013	addi	x0,x0,0	  x0:0x00000000
       73555000	      7354	8000313c	ff9ff0ef	jal	x1,8000313c	  x1=0x8000313c
       73565000	      7355	00000000	00000013	addi	x0,x0,0	  x0:0x00000000
       73575000	      7356	80003130	00000013	addi	x0,x0,0	  x0:0x00000000
       73585000	      7357	80003134	020000ef	jal	x1,80003134	  x1=0x80003134
       73595000	      7358	00000000	00000013	addi	x0,x0,0	  x0:0x00000000
       73605000	      7359	80003150	00000013	addi	x0,x0,0	  x0:0x00000000
       73615000	      7360	80003154	ff5ff0ef	jal	x1,80003154	  x1=0x80003154
       73625000	      7361	00000000	00000013	addi	x0,x0,0	  x0:0x00000000
       73635000	      7362	80003144	00000013	addi	x0,x0,0	  x0:0x00000000
       73645000	      7363	80003148	014001ef	jal	x3,80003148	  x3=0x80003148
       73655000	      7364	00000000	00000013	addi	x0,x0,0	  x0:0x00000000
       73665000	      7365	80003158	00000013	addi	x0,x0,0	  x0:0x00000000
       73675000	      7366	8000315c	0090c333	xor	x6,x1,x9	  x1:0x80003154  x9:0x80003074  x6=0x00000120
       73685000	      7367	80003160	05c0036f	jal	x6,80003160	  x6=0x80003160
       73695000	      7368	00000000	00000013	addi	x0,x0,0	  x0:0x00000000
       73705000	      7369	800031b8	00000013	addi	x0,x0,0	  x0:0x00000000
       73715000	      7370	800031bc	fa9ff0ef	jal	x1,800031bc	  x1=0x800031bc
       73725000	      7371	00000000	00000013	addi	x0,x0,0	  x0:0x00000000
       73735000	      7372	80003160	00000013	addi	x0,x0,0	  x0:0x00000000
       73745000	      7373	80003164	030000ef	jal	x1,80003164	  x1=0x80003164
       73755000	      7374	00000000	00000013	addi	x0,x0,0	  x0:0x00000000
       73765000	      7375	80003190	00000013	addi	x0,x0,0	  x0:0x00000000
       73775000	      7376	80003194	fe1ff26f	jal	x4,80003194	  x4=0x80003194
       73785000	      7377	00000000	00000013	addi	x0,x0,0	  x0:0x00000000
       73795000	      7378	80003170	00000013	addi	x0,x0,0	  x0:0x00000000
       73805000	      7379	80003174	030000ef	jal	x1,80003174	  x1=0x80003174
       73815000	      7380	00000000	00000013	addi	x0,x0,0	  x0:0x00000000
       73825000	      7381	800031a0	00000013	addi	x0,x0,0	  x0:0x00000000
       73835000	      7382	800031a4	ff5ff36f	jal	x6,800031a4	  x6=0x800031a4
       73845000	      7383	00000000	00000013	addi	x0,x0,0	  x0:0x00000000
       73855000	      7384	80003194	00000013	addi	x0,x0,0	  x0:0x00000000
       73865000	      7385	80003198	01c0036f	jal	x6,80003198	  x6=0x80003198
       73875000	      7386	00000000	00000013	addi	x0,x0,0	  x0:0x00000000
       73885000	      7387	800031b0	00000013	addi	x0,x0,0	  x0:0x00000000
       73895000	      7388	800031b4	fbdff0ef	jal	x1,800031b4	  x1=0x800031b4
       73905000	      7389	00000000	00000013	addi	x0,x0,0	  x0:0x00000000
       73915000	      7390	8000316c	00000013	addi	x0,x0,0	  x0:0x00000000
       73925000	      7391	80003170	03000aef	jal	x21,80003170	 x21=0x80003170
       73935000	      7392	00000000	00000013	addi	x0,x0,0	  x0:0x00000000
       73945000	      7393	8000319c	00000013	addi	x0,x0,0	  x0:0x00000000
       73955000	      7394	800031a0	fcdff36f	jal	x6,800031a0	  x6=0x800031a0
       73965000	      7395	00000000	00000013	addi	x0,x0,0	  x0:0x00000000
       73975000	      7396	80003168	00000013	addi	x0,x0,0	  x0:0x00000000
       73985000	      7397	8000316c	010000ef	jal	x1,8000316c	  x1=0x8000316c
       73995000	      7398	00000000	00000013	addi	x0,x0,0	  x0:0x00000000
       74005000	      7399	80003178	00000013	addi	x0,x0,0	  x0:0x00000000
       74015000	      7400	8000317c	02c000ef	jal	x1,8000317c	  x1=0x8000317c
       74025000	      7401	00000000	00000013	addi	x0,x0,0	  x0:0x00000000
       74035000	      7402	800031a4	00000013	addi	x0,x0,0	  x0:0x00000000
       74045000	      7403	800031a8	008000ef	jal	x1,800031a8	  x1=0x800031a8
       74055000	      7404	00000000	00000013	addi	x0,x0,0	  x0:0x00000000
       74065000	      7405	800031ac	00000013	addi	x0,x0,0	  x0:0x00000000
       74075000	      7406	800031b0	fd9ff0ef	jal	x1,800031b0	  x1=0x800031b0
       74085000	      7407	00000000	00000013	addi	x0,x0,0	  x0:0x00000000
       74095000	      7408	80003184	00000013	addi	x0,x0,0	  x0:0x00000000
       74105000	      7409	80003188	0240036f	jal	x6,80003188	  x6=0x80003188
       74115000	      7410	00000000	00000013	addi	x0,x0,0	  x0:0x00000000
       74125000	      7411	800031a8	00000013	addi	x0,x0,0	  x0:0x00000000
       74135000	      7412	800031ac	fbdff0ef	jal	x1,800031ac	  x1=0x800031ac
       74145000	      7413	00000000	00000013	addi	x0,x0,0	  x0:0x00000000
       74155000	      7414	80003164	00000013	addi	x0,x0,0	  x0:0x00000000
       74165000	      7415	80003168	0100066f	jal	x12,80003168	 x12=0x80003168
       74175000	      7416	00000000	00000013	addi	x0,x0,0	  x0:0x00000000
       74185000	      7417	80003174	00000013	addi	x0,x0,0	  x0:0x00000000
       74195000	      7418	80003178	014000ef	jal	x1,80003178	  x1=0x80003178
       74205000	      7419	00000000	00000013	addi	x0,x0,0	  x0:0x00000000
       74215000	      7420	80003188	00000013	addi	x0,x0,0	  x0:0x00000000
       74225000	      7421	8000318c	ff5ffc6f	jal	x24,8000318c	 x24=0x8000318c
       74235000	      7422	00000000	00000013	addi	x0,x0,0	  x0:0x00000000
       74245000	      7423	8000317c	00000013	addi	x0,x0,0	  x0:0x00000000
       74255000	      7424	80003180	00400b6f	jal	x22,80003180	 x22=0x80003180
       74265000	      7425	00000000	00000013	addi	x0,x0,0	  x0:0x00000000
       74275000	      7426	80003180	00000013	addi	x0,x0,0	  x0:0x00000000
       74285000	      7427	80003184	00c00cef	jal	x25,80003184	 x25=0x80003184
       74295000	      7428	00000000	00000013	addi	x0,x0,0	  x0:0x00000000
       74305000	      7429	8000318c	00000013	addi	x0,x0,0	  x0:0x00000000
       74315000	      7430	80003190	028000ef	jal	x1,80003190	  x1=0x80003190
       74325000	      7431	00000000	00000013	addi	x0,x0,0	  x0:0x00000000
       74335000	      7432	800031b4	00000013	addi	x0,x0,0	  x0:0x00000000
       74345000	      7433	800031b8	fe5ff6ef	jal	x13,800031b8	 x13=0x800031b8
       74355000	      7434	00000000	00000013	addi	x0,x0,0	  x0:0x00000000
       74365000	      7435	80003198	00000013	addi	x0,x0,0	  x0:0x00000000
       74375000	      7436	8000319c	0240046f	jal	x8,8000319c	  x8=0x8000319c
       74385000	      7437	00000000	00000013	addi	x0,x0,0	  x0:0x00000000
       74395000	      7438	800031bc	00000013	addi	x0,x0,0	  x0:0x00000000
       74405000	      7439	800031c0	7d06a293	slti	x5,x13,2000	 x13:0x800031b8  x5=0x00000001
       74415000	      7440	800031c4	00c0036f	jal	x6,800031c4	  x6=0x800031c4
       74425000	      7441	00000000	00000013	addi	x0,x0,0	  x0:0x00000000
       74435000	      7442	800031cc	00000013	addi	x0,x0,0	  x0:0x00000000
       74445000	      7443	800031d0	03c0016f	jal	x2,800031d0	  x2=0x800031d0
       74455000	      7444	00000000	00000013	addi	x0,x0,0	  x0:0x00000000
       74465000	      7445	80003208	00000013	addi	x0,x0,0	  x0:0x00000000
       74475000	      7446	8000320c	fbdff36f	jal	x6,8000320c	  x6=0x8000320c
       74485000	      7447	00000000	00000013	addi	x0,x0,0	  x0:0x00000000
       74495000	      7448	800031c4	00000013	addi	x0,x0,0	  x0:0x00000000
       74505000	      7449	800031c8	00c0036f	jal	x6,800031c8	  x6=0x800031c8
       74515000	      7450	00000000	00000013	addi	x0,x0,0	  x0:0x00000000
       74525000	      7451	800031d0	00000013	addi	x0,x0,0	  x0:0x00000000
       74535000	      7452	800031d4	010001ef	jal	x3,800031d4	  x3=0x800031d4
       74545000	      7453	00000000	00000013	addi	x0,x0,0	  x0:0x00000000
       74555000	      7454	800031e0	00000013	addi	x0,x0,0	  x0:0x00000000
       74565000	      7455	800031e4	0040036f	jal	x6,800031e4	  x6=0x800031e4
       74575000	      7456	00000000	00000013	addi	x0,x0,0	  x0:0x00000000
       74585000	      7457	800031e4	00000013	addi	x0,x0,0	  x0:0x00000000
       74595000	      7458	800031e8	0140036f	jal	x6,800031e8	  x6=0x800031e8
       74605000	      7459	00000000	00000013	addi	x0,x0,0	  x0:0x00000000
       74615000	      7460	800031f8	00000013	addi	x0,x0,0	  x0:0x00000000
       74625000	      7461	800031fc	ff1ff0ef	jal	x1,800031fc	  x1=0x800031fc
       74635000	      7462	00000000	00000013	addi	x0,x0,0	  x0:0x00000000
       74645000	      7463	800031e8	00000013	addi	x0,x0,0	  x0:0x00000000
       74655000	      7464	800031ec	0080066f	jal	x12,800031ec	 x12=0x800031ec
       74665000	      7465	00000000	00000013	addi	x0,x0,0	  x0:0x00000000
       74675000	      7466	800031f0	00000013	addi	x0,x0,0	  x0:0x00000000
       74685000	      7467	800031f4	00c000ef	jal	x1,800031f4	  x1=0x800031f4
       74695000	      7468	00000000	00000013	addi	x0,x0,0	  x0:0x00000000
       74705000	      7469	800031fc	00000013	addi	x0,x0,0	  x0:0x00000000
       74715000	      7470	80003200	ff1ff9ef	jal	x19,80003200	 x19=0x80003200
       74725000	      7471	00000000	00000013	addi	x0,x0,0	  x0:0x00000000
       74735000	      7472	800031ec	00000013	addi	x0,x0,0	  x0:0x00000000
       74745000	      7473	800031f0	0080046f	jal	x8,800031f0	  x8=0x800031f0
       74755000	      7474	00000000	00000013	addi	x0,x0,0	  x0:0x00000000
       74765000	      7475	800031f4	00000013	addi	x0,x0,0	  x0:0x00000000
       74775000	      7476	800031f8	fd5ff0ef	jal	x1,800031f8	  x1=0x800031f8
       74785000	      7477	00000000	00000013	addi	x0,x0,0	  x0:0x00000000
       74795000	      7478	800031c8	00000013	addi	x0,x0,0	  x0:0x00000000
       74805000	      7479	800031cc	00c002ef	jal	x5,800031cc	  x5=0x800031cc
       74815000	      7480	00000000	00000013	addi	x0,x0,0	  x0:0x00000000
       74825000	      7481	800031d4	00000013	addi	x0,x0,0	  x0:0x00000000
       74835000	      7482	800031d8	03000cef	jal	x25,800031d8	 x25=0x800031d8
       74845000	      7483	00000000	00000013	addi	x0,x0,0	  x0:0x00000000
       74855000	      7484	80003204	00000013	addi	x0,x0,0	  x0:0x00000000
       74865000	      7485	80003208	fd5ff0ef	jal	x1,80003208	  x1=0x80003208
       74875000	      7486	00000000	00000013	addi	x0,x0,0	  x0:0x00000000
       74885000	      7487	800031d8	00000013	addi	x0,x0,0	  x0:0x00000000
       74895000	      7488	800031dc	0280076f	jal	x14,800031dc	 x14=0x800031dc
       74905000	      7489	00000000	00000013	addi	x0,x0,0	  x0:0x00000000
       74915000	      7490	80003200	00000013	addi	x0,x0,0	  x0:0x00000000
       74925000	      7491	80003204	fddff0ef	jal	x1,80003204	  x1=0x80003204
       74935000	      7492	00000000	00000013	addi	x0,x0,0	  x0:0x00000000
       74945000	      7493	800031dc	00000013	addi	x0,x0,0	  x0:0x00000000
       74955000	      7494	800031e0	03000cef	jal	x25,800031e0	 x25=0x800031e0
       74965000	      7495	00000000	00000013	addi	x0,x0,0	  x0:0x00000000
       74975000	      7496	8000320c	00000013	addi	x0,x0,0	  x0:0x00000000
       74985000	      7497	80003210	016da233	slt	x4,x27,x22	 x27:0x3556d68e x22:0x80003180  x4=0x00000000
       74995000	      7498	80003214	0180036f	jal	x6,80003214	  x6=0x80003214
       75005000	      7499	00000000	00000013	addi	x0,x0,0	  x0:0x00000000
       75015000	      7500	80003228	00000013	addi	x0,x0,0	  x0:0x00000000
       75025000	      7501	8000322c	fedff36f	jal	x6,8000322c	  x6=0x8000322c
       75035000	      7502	00000000	00000013	addi	x0,x0,0	  x0:0x00000000
       75045000	      7503	80003214	00000013	addi	x0,x0,0	  x0:0x00000000
       75055000	      7504	80003218	034000ef	jal	x1,80003218	  x1=0x80003218
       75065000	      7505	00000000	00000013	addi	x0,x0,0	  x0:0x00000000
       75075000	      7506	80003248	00000013	addi	x0,x0,0	  x0:0x00000000
       75085000	      7507	8000324c	00c000ef	jal	x1,8000324c	  x1=0x8000324c
       75095000	      7508	00000000	00000013	addi	x0,x0,0	  x0:0x00000000
       75105000	      7509	80003254	00000013	addi	x0,x0,0	  x0:0x00000000
       75115000	      7510	80003258	ff9ff96f	jal	x18,80003258	 x18=0x80003258
       75125000	      7511	00000000	00000013	addi	x0,x0,0	  x0:0x00000000
       75135000	      7512	8000324c	00000013	addi	x0,x0,0	  x0:0x00000000
       75145000	      7513	80003250	ff9ff36f	jal	x6,80003250	  x6=0x80003250
       75155000	      7514	00000000	00000013	addi	x0,x0,0	  x0:0x00000000
       75165000	      7515	80003244	00000013	addi	x0,x0,0	  x0:0x00000000
       75175000	      7516	80003248	ff9ff0ef	jal	x1,80003248	  x1=0x80003248
       75185000	      7517	00000000	00000013	addi	x0,x0,0	  x0:0x00000000
       75195000	      7518	8000323c	00000013	addi	x0,x0,0	  x0:0x00000000
       75205000	      7519	80003240	fe1ff0ef	jal	x1,80003240	  x1=0x80003240
       75215000	      7520	00000000	00000013	addi	x0,x0,0	  x0:0x00000000
       75225000	      7521	8000321c	00000013	addi	x0,x0,0	  x0:0x00000000
       75235000	      7522	80003220	05000bef	jal	x23,80003220	 x23=0x80003220
       75245000	      7523	00000000	00000013	addi	x0,x0,0	  x0:0x00000000
       75255000	      7524	8000326c	00000013	addi	x0,x0,0	  x0:0x00000000
       75265000	      7525	80003270	fedff0ef	jal	x1,80003270	  x1=0x80003270
       75275000	      7526	00000000	00000013	addi	x0,x0,0	  x0:0x00000000
       75285000	      7527	80003258	00000013	addi	x0,x0,0	  x0:0x00000000
       75295000	      7528	8000325c	fe9ffc6f	jal	x24,8000325c	 x24=0x8000325c
       75305000	      7529	00000000	00000013	addi	x0,x0,0	  x0:0x00000000
       75315000	      7530	80003240	00000013	addi	x0,x0,0	  x0:0x00000000
       75325000	      7531	80003244	fe5ff0ef	jal	x1,80003244	  x1=0x80003244
       75335000	      7532	00000000	00000013	addi	x0,x0,0	  x0:0x00000000
       75345000	      7533	80003224	00000013	addi	x0,x0,0	  x0:0x00000000
       75355000	      7534	80003228	04000aef	jal	x21,80003228	 x21=0x80003228
       75365000	      7535	00000000	00000013	addi	x0,x0,0	  x0:0x00000000
       75375000	      7536	80003264	00000013	addi	x0,x0,0	  x0:0x00000000
       75385000	      7537	80003268	ff9ffa6f	jal	x20,80003268	 x20=0x80003268
       75395000	      7538	00000000	00000013	addi	x0,x0,0	  x0:0x00000000
       75405000	      7539	8000325c	00000013	addi	x0,x0,0	  x0:0x00000000
       75415000	      7540	80003260	fddff0ef	jal	x1,80003260	  x1=0x80003260
       75425000	      7541	00000000	00000013	addi	x0,x0,0	  x0:0x00000000
       75435000	      7542	80003238	00000013	addi	x0,x0,0	  x0:0x00000000
       75445000	      7543	8000323c	fe1ff1ef	jal	x3,8000323c	  x3=0x8000323c
       75455000	      7544	00000000	00000013	addi	x0,x0,0	  x0:0x00000000
       75465000	      7545	80003218	00000013	addi	x0,x0,0	  x0:0x00000000
       75475000	      7546	8000321c	01c000ef	jal	x1,8000321c	  x1=0x8000321c
       75485000	      7547	00000000	00000013	addi	x0,x0,0	  x0:0x00000000
       75495000	      7548	80003234	00000013	addi	x0,x0,0	  x0:0x00000000
       75505000	      7549	80003238	01c000ef	jal	x1,80003238	  x1=0x80003238
       75515000	      7550	00000000	00000013	addi	x0,x0,0	  x0:0x00000000
       75525000	      7551	80003250	00000013	addi	x0,x0,0	  x0:0x00000000
       75535000	      7552	80003254	fddff0ef	jal	x1,80003254	  x1=0x80003254
       75545000	      7553	00000000	00000013	addi	x0,x0,0	  x0:0x00000000
       75555000	      7554	8000322c	00000013	addi	x0,x0,0	  x0:0x00000000
       75565000	      7555	80003230	03c000ef	jal	x1,80003230	  x1=0x80003230
       75575000	      7556	00000000	00000013	addi	x0,x0,0	  x0:0x00000000
       75585000	      7557	80003268	00000013	addi	x0,x0,0	  x0:0x00000000
       75595000	      7558	8000326c	ff9ffa6f	jal	x20,8000326c	 x20=0x8000326c
       75605000	      7559	00000000	00000013	addi	x0,x0,0	  x0:0x00000000
       75615000	      7560	80003260	00000013	addi	x0,x0,0	  x0:0x00000000
       75625000	      7561	80003264	fd1ff56f	jal	x10,80003264	 x10=0x80003264
       75635000	      7562	00000000	00000013	addi	x0,x0,0	  x0:0x00000000
       75645000	      7563	80003230	00000013	addi	x0,x0,0	  x0:0x00000000
       75655000	      7564	80003234	ff1ff4ef	jal	x9,80003234	  x9=0x80003234
       75665000	      7565	00000000	00000013	addi	x0,x0,0	  x0:0x00000000
       75675000	      7566	80003220	00000013	addi	x0,x0,0	  x0:0x00000000
       75685000	      7567	80003224	050000ef	jal	x1,80003224	  x1=0x80003224
       75695000	      7568	00000000	00000013	addi	x0,x0,0	  x0:0x00000000
       75705000	      7569	80003270	00000013	addi	x0,x0,0	  x0:0x00000000
       75715000	      7570	80003274	41395a93	srai	x21,x18,0x13	 x18:0x80003258 x21=0xfffff000
       75725000	      7571	80003278	01c0036f	jal	x6,80003278	  x6=0x80003278
       75735000	      7572	00000000	00000013	addi	x0,x0,0	  x0:0x00000000
       75745000	      7573	80003290	00000013	addi	x0,x0,0	  x0:0x00000000
       75755000	      7574	80003294	ff9ff86f	jal	x16,80003294	 x16=0x80003294
       75765000	      7575	00000000	00000013	addi	x0,x0,0	  x0:0x00000000
       75775000	      7576	80003288	00000013	addi	x0,x0,0	  x0:0x00000000
       75785000	      7577	8000328c	050000ef	jal	x1,8000328c	  x1=0x8000328c
       75795000	      7578	00000000	00000013	addi	x0,x0,0	  x0:0x00000000
       75805000	      7579	800032d8	00000013	addi	x0,x0,0	  x0:0x00000000
       75815000	      7580	800032dc	fb5ff16f	jal	x2,800032dc	  x2=0x800032dc
       75825000	      7581	00000000	00000013	addi	x0,x0,0	  x0:0x00000000
       75835000	      7582	8000328c	00000013	addi	x0,x0,0	  x0:0x00000000
       75845000	      7583	80003290	030006ef	jal	x13,80003290	 x13=0x80003290
       75855000	      7584	00000000	00000013	addi	x0,x0,0	  x0:0x00000000
       75865000	      7585	800032bc	00000013	addi	x0,x0,0	  x0:0x00000000
       75875000	      7586	800032c0	00c005ef	jal	x11,800032c0	 x11=0x800032c0
       75885000	      7587	00000000	00000013	addi	x0,x0,0	  x0:0x00000000
       75895000	      7588	800032c8	00000013	addi	x0,x0,0	  x0:0x00000000
       75905000	      7589	800032cc	ff9ffe6f	jal	x28,800032cc	 x28=0x800032cc
       75915000	      7590	00000000	00000013	addi	x0,x0,0	  x0:0x00000000
       75925000	      7591	800032c0	00000013	addi	x0,x0,0	  x0:0x00000000
       75935000	      7592	800032c4	00c000ef	jal	x1,800032c4	  x1=0x800032c4
       75945000	      7593	00000000	00000013	addi	x0,x0,0	  x0:0x00000000
       75955000	      7594	800032cc	00000013	addi	x0,x0,0	  x0:0x00000000
       75965000	      7595	800032d0	fe1ff0ef	jal	x1,800032d0	  x1=0x800032d0
       75975000	      7596	00000000	00000013	addi	x0,x0,0	  x0:0x00000000
       75985000	      7597	800032ac	00000013	addi	x0,x0,0	  x0:0x00000000
       75995000	      7598	800032b0	ff5ff36f	jal	x6,800032b0	  x6=0x800032b0
       76005000	      7599	00000000	00000013	addi	x0,x0,0	  x0:0x00000000
       76015000	      7600	800032a0	00000013	addi	x0,x0,0	  x0:0x00000000
       76025000	      7601	800032a4	ff9ffeef	jal	x29,800032a4	 x29=0x800032a4
       76035000	      7602	00000000	00000013	addi	x0,x0,0	  x0:0x00000000
       76045000	      7603	80003298	00000013	addi	x0,x0,0	  x0:0x00000000
       76055000	      7604	8000329c	fe5ff76f	jal	x14,8000329c	 x14=0x8000329c
       76065000	      7605	00000000	00000013	addi	x0,x0,0	  x0:0x00000000
       76075000	      7606	8000327c	00000013	addi	x0,x0,0	  x0:0x00000000
       76085000	      7607	80003280	0340016f	jal	x2,80003280	  x2=0x80003280
       76095000	      7608	00000000	00000013	addi	x0,x0,0	  x0:0x00000000
       76105000	      7609	800032b0	00000013	addi	x0,x0,0	  x0:0x00000000
       76115000	      7610	800032b4	ff5ff0ef	jal	x1,800032b4	  x1=0x800032b4
       76125000	      7611	00000000	00000013	addi	x0,x0,0	  x0:0x00000000
       76135000	      7612	800032a4	00000013	addi	x0,x0,0	  x0:0x00000000
       76145000	      7613	800032a8	004000ef	jal	x1,800032a8	  x1=0x800032a8
       76155000	      7614	00000000	00000013	addi	x0,x0,0	  x0:0x00000000
       76165000	      7615	800032a8	00000013	addi	x0,x0,0	  x0:0x00000000
       76175000	      7616	800032ac	ff5ffc6f	jal	x24,800032ac	 x24=0x800032ac
       76185000	      7617	00000000	00000013	addi	x0,x0,0	  x0:0x00000000
       76195000	      7618	8000329c	00000013	addi	x0,x0,0	  x0:0x00000000
       76205000	      7619	800032a0	0380036f	jal	x6,800032a0	  x6=0x800032a0
       76215000	      7620	00000000	00000013	addi	x0,x0,0	  x0:0x00000000
       76225000	      7621	800032d4	00000013	addi	x0,x0,0	  x0:0x00000000
       76235000	      7622	800032d8	fc1fff6f	jal	x30,800032d8	 x30=0x800032d8
       76245000	      7623	00000000	00000013	addi	x0,x0,0	  x0:0x00000000
       76255000	      7624	80003294	00000013	addi	x0,x0,0	  x0:0x00000000
       76265000	      7625	80003298	fedff0ef	jal	x1,80003298	  x1=0x80003298
       76275000	      7626	00000000	00000013	addi	x0,x0,0	  x0:0x00000000
       76285000	      7627	80003280	00000013	addi	x0,x0,0	  x0:0x00000000
       76295000	      7628	80003284	038000ef	jal	x1,80003284	  x1=0x80003284
       76305000	      7629	00000000	00000013	addi	x0,x0,0	  x0:0x00000000
       76315000	      7630	800032b8	00000013	addi	x0,x0,0	  x0:0x00000000
       76325000	      7631	800032bc	018003ef	jal	x7,800032bc	  x7=0x800032bc
       76335000	      7632	00000000	00000013	addi	x0,x0,0	  x0:0x00000000
       76345000	      7633	800032d0	00000013	addi	x0,x0,0	  x0:0x00000000
       76355000	      7634	800032d4	fb5ffeef	jal	x29,800032d4	 x29=0x800032d4
       76365000	      7635	00000000	00000013	addi	x0,x0,0	  x0:0x00000000
       76375000	      7636	80003284	00000013	addi	x0,x0,0	  x0:0x00000000
       76385000	      7637	80003288	0300076f	jal	x14,80003288	 x14=0x80003288
       76395000	      7638	00000000	00000013	addi	x0,x0,0	  x0:0x00000000
       76405000	      7639	800032b4	00000013	addi	x0,x0,0	  x0:0x00000000
       76415000	      7640	800032b8	fc5ff2ef	jal	x5,800032b8	  x5=0x800032b8
       76425000	      7641	00000000	00000013	addi	x0,x0,0	  x0:0x00000000
       76435000	      7642	80003278	00000013	addi	x0,x0,0	  x0:0x00000000
       76445000	      7643	8000327c	04c000ef	jal	x1,8000327c	  x1=0x8000327c
       76455000	      7644	00000000	00000013	addi	x0,x0,0	  x0:0x00000000
       76465000	      7645	800032c4	00000013	addi	x0,x0,0	  x0:0x00000000
       76475000	      7646	800032c8	0180026f	jal	x4,800032c8	  x4=0x800032c8
       76485000	      7647	00000000	00000013	addi	x0,x0,0	  x0:0x00000000
       76495000	      7648	800032dc	00000013	addi	x0,x0,0	  x0:0x00000000
       76505000	      7649	800032e0	85f67013	andi	x0,x12,-1953	 x12:0x800031ec
       76515000	      7650	800032e4	0380036f	jal	x6,800032e4	  x6=0x800032e4
       76525000	      7651	00000000	00000013	addi	x0,x0,0	  x0:0x00000000
       76535000	      7652	80003318	00000013	addi	x0,x0,0	  x0:0x00000000
       76545000	      7653	8000331c	fcdff16f	jal	x2,8000331c	  x2=0x8000331c
       76555000	      7654	00000000	00000013	addi	x0,x0,0	  x0:0x00000000
       76565000	      7655	800032e4	00000013	addi	x0,x0,0	  x0:0x00000000
       76575000	      7656	800032e8	0080016f	jal	x2,800032e8	  x2=0x800032e8
       76585000	      7657	00000000	00000013	addi	x0,x0,0	  x0:0x00000000
       76595000	      7658	800032ec	00000013	addi	x0,x0,0	  x0:0x00000000
       76605000	      7659	800032f0	0080046f	jal	x8,800032f0	  x8=0x800032f0
       76615000	      7660	00000000	00000013	addi	x0,x0,0	  x0:0x00000000
       76625000	      7661	800032f4	00000013	addi	x0,x0,0	  x0:0x00000000
       76635000	      7662	800032f8	0080056f	jal	x10,800032f8	 x10=0x800032f8
       76645000	      7663	00000000	00000013	addi	x0,x0,0	  x0:0x00000000
       76655000	      7664	800032fc	00000013	addi	x0,x0,0	  x0:0x00000000
       76665000	      7665	80003300	048000ef	jal	x1,80003300	  x1=0x80003300
       76675000	      7666	00000000	00000013	addi	x0,x0,0	  x0:0x00000000
       76685000	      7667	80003344	00000013	addi	x0,x0,0	  x0:0x00000000
       76695000	      7668	80003348	fadff26f	jal	x4,80003348	  x4=0x80003348
       76705000	      7669	00000000	00000013	addi	x0,x0,0	  x0:0x00000000
       76715000	      7670	800032f0	00000013	addi	x0,x0,0	  x0:0x00000000
       76725000	      7671	800032f4	02c000ef	jal	x1,800032f4	  x1=0x800032f4
       76735000	      7672	00000000	00000013	addi	x0,x0,0	  x0:0x00000000
       76745000	      7673	8000331c	00000013	addi	x0,x0,0	  x0:0x00000000
       76755000	      7674	80003320	014000ef	jal	x1,80003320	  x1=0x80003320
       76765000	      7675	00000000	00000013	addi	x0,x0,0	  x0:0x00000000
       76775000	      7676	80003330	00000013	addi	x0,x0,0	  x0:0x00000000
       76785000	      7677	80003334	fddff36f	jal	x6,80003334	  x6=0x80003334
       76795000	      7678	00000000	00000013	addi	x0,x0,0	  x0:0x00000000
       76805000	      7679	8000330c	00000013	addi	x0,x0,0	  x0:0x00000000
       76815000	      7680	80003310	ff5ff66f	jal	x12,80003310	 x12=0x80003310
       76825000	      7681	00000000	00000013	addi	x0,x0,0	  x0:0x00000000
       76835000	      7682	80003300	00000013	addi	x0,x0,0	  x0:0x00000000
       76845000	      7683	80003304	0280036f	jal	x6,80003304	  x6=0x80003304
       76855000	      7684	00000000	00000013	addi	x0,x0,0	  x0:0x00000000
       76865000	      7685	80003328	00000013	addi	x0,x0,0	  x0:0x00000000
       76875000	      7686	8000332c	010000ef	jal	x1,8000332c	  x1=0x8000332c
       76885000	      7687	00000000	00000013	addi	x0,x0,0	  x0:0x00000000
       76895000	      7688	80003338	00000013	addi	x0,x0,0	  x0:0x00000000
       76905000	      7689	8000333c	ffdff56f	jal	x10,8000333c	 x10=0x8000333c
       76915000	      7690	00000000	00000013	addi	x0,x0,0	  x0:0x00000000
       76925000	      7691	80003334	00000013	addi	x0,x0,0	  x0:0x00000000
       76935000	      7692	80003338	fd1ff0ef	jal	x1,80003338	  x1=0x80003338
       76945000	      7693	00000000	00000013	addi	x0,x0,0	  x0:0x00000000
       76955000	      7694	80003304	00000013	addi	x0,x0,0	  x0:0x00000000
       76965000	      7695	80003308	ff5ff0ef	jal	x1,80003308	  x1=0x80003308
       76975000	      7696	00000000	00000013	addi	x0,x0,0	  x0:0x00000000
       76985000	      7697	800032f8	00000013	addi	x0,x0,0	  x0:0x00000000
       76995000	      7698	800032fc	034002ef	jal	x5,800032fc	  x5=0x800032fc
       77005000	      7699	00000000	00000013	addi	x0,x0,0	  x0:0x00000000
       77015000	      7700	8000332c	00000013	addi	x0,x0,0	  x0:0x00000000
       77025000	      7701	80003330	0140036f	jal	x6,80003330	  x6=0x80003330
       77035000	      7702	00000000	00000013	addi	x0,x0,0	  x0:0x00000000
       77045000	      7703	80003340	00000013	addi	x0,x0,0	  x0:0x00000000
       77055000	      7704	80003344	fc9ff16f	jal	x2,80003344	  x2=0x80003344
       77065000	      7705	00000000	00000013	addi	x0,x0,0	  x0:0x00000000
       77075000	      7706	80003308	00000013	addi	x0,x0,0	  x0:0x00000000
       77085000	      7707	8000330c	00c000ef	jal	x1,8000330c	  x1=0x8000330c
       77095000	      7708	00000000	00000013	addi	x0,x0,0	  x0:0x00000000
       77105000	      7709	80003314	00000013	addi	x0,x0,0	  x0:0x00000000
       77115000	      7710	80003318	00c000ef	jal	x1,80003318	  x1=0x80003318
       77125000	      7711	00000000	00000013	addi	x0,x0,0	  x0:0x00000000
       77135000	      7712	80003320	00000013	addi	x0,x0,0	  x0:0x00000000
       77145000	      7713	80003324	01c000ef	jal	x1,80003324	  x1=0x80003324
       77155000	      7714	00000000	00000013	addi	x0,x0,0	  x0:0x00000000
       77165000	      7715	8000333c	00000013	addi	x0,x0,0	  x0:0x00000000
       77175000	      7716	80003340	fe9ff0ef	jal	x1,80003340	  x1=0x80003340
       77185000	      7717	00000000	00000013	addi	x0,x0,0	  x0:0x00000000
       77195000	      7718	80003324	00000013	addi	x0,x0,0	  x0:0x00000000
       77205000	      7719	80003328	fedff1ef	jal	x3,80003328	  x3=0x80003328
       77215000	      7720	00000000	00000013	addi	x0,x0,0	  x0:0x00000000
       77225000	      7721	80003310	00000013	addi	x0,x0,0	  x0:0x00000000
       77235000	      7722	80003314	fd9ff36f	jal	x6,80003314	  x6=0x80003314
       77245000	      7723	00000000	00000013	addi	x0,x0,0	  x0:0x00000000
       77255000	      7724	800032e8	00000013	addi	x0,x0,0	  x0:0x00000000
       77265000	      7725	800032ec	0600026f	jal	x4,800032ec	  x4=0x800032ec
       77275000	      7726	00000000	00000013	addi	x0,x0,0	  x0:0x00000000
       77285000	      7727	80003348	00000013	addi	x0,x0,0	  x0:0x00000000
       77295000	      7728	8000334c	00000013	addi	x0,x0,0	  x0:0x00000000
       77305000	      7729	80003350	017d1493	slli	x9,x26,0x17	 x26:0x80009f5c  x9=0xae000000
       77315000	      7730	80003354	00c0a833	slt	x16,x1,x12	  x1:0x80003340 x12:0x80003310 x16=0x00000000
       77325000	      7731	80003358	01795f13	srli	x30,x18,0x17	 x18:0x80003258 x30=0x00000100
       77335000	      7732	8000335c	00861bb3	sll	x23,x12,x8	 x12:0x80003310  x8:0x800032f0 x23=0x33100000
       77345000	      7733	80003360	00000013	addi	x0,x0,0	  x0:0x00000000
       77355000	      7734	80003364	880d4c13	xori	x24,x26,-1920	 x26:0x80009f5c x24=0x7fff67dc
       77365000	      7735	80003368	00825493	srli	x9,x4,0x8	  x4:0x800032ec  x9=0x00800032
       77375000	      7736	8000336c	00fdb633	sltu	x12,x27,x15	 x27:0x3556d68e x15:0xf573b7aa x12=0x00000001
       77385000	      7737	80003370	41ee5693	srai	x13,x28,0x1e	 x28:0x800032cc x13=0xfffffffe
       77395000	      7738	80003374	01920c63	beq	x4,x25,8000338c	  x4:0x800032ec x25:0x800031e0
       77405000	      7739	80003378	00356633	or	x12,x10,x3	 x10:0x8000333c  x3:0x80003328 x12=0x8000333c
       77415000	      7740	8000337c	a4584113	xori	x2,x16,-1467	 x16:0x00000000  x2=0xfffffa45
       77425000	      7741	80003380	410b8c33	sub	x24,x23,x16	 x23:0x33100000 x16:0x00000000 x24=0x33100000
       77435000	      7742	80003384	7e8e4b13	xori	x22,x28,2024	 x28:0x800032cc x22=0x80003524
       77445000	      7743	80003388	408d01b3	sub	x3,x26,x8	 x26:0x80009f5c  x8:0x800032f0  x3=0x00006c6c
       77455000	      7744	8000338c	01b4b1b3	sltu	x3,x9,x27	  x9:0x00800032 x27:0x3556d68e  x3=0x00000001
       77465000	      7745	80003390	4043d413	srai	x8,x7,0x4	  x7:0x800032bc  x8=0xf800032b
       77475000	      7746	80003394	41f6dbb3	sra	x23,x13,x31	 x13:0xfffffffe x31:0x800030ec x23=0xffffffff
       77485000	      7747	80003398	84dc7c37	lui	x24,0x84dc7	 x24=0x84dc7000
       77495000	      7748	8000339c	01adc863	blt	x27,x26,800033ac	 x27:0x3556d68e x26:0x80009f5c
       77505000	      7749	800033a0	0534fb93	andi	x23,x9,83	  x9:0x00800032 x23=0x00000012
       77515000	      7750	800033a4	01929a63	bne	x5,x25,800033b8	  x5:0x800032fc x25:0x800031e0
       77525000	      7751	00000000	00000013	addi	x0,x0,0	  x0:0x00000000
       77535000	      7752	800033b4	00000013	addi	x0,x0,0	  x0:0x00000000
       77545000	      7753	800033b8	66d1f617	auipc	x12,0x66d1f	 x12=0xe6d223b4
       77555000	      7754	800033bc	00ea26b3	slt	x13,x20,x14	 x20:0x8000326c x14:0x80003288 x13=0x00000001
       77565000	      7755	800033c0	01405533	srl	x10,x0,x20	  x0:0x00000000 x20:0x8000326c x10=0x00000000
       77575000	      7756	800033c4	015503b3	add	x7,x10,x21	 x10:0x00000000 x21:0xfffff000  x7=0xfffff000
       77585000	      7757	800033c8	010f5a93	srli	x21,x30,0x10	 x30:0x00000100 x21=0x00000000
       77595000	      7758	800033cc	01a1cfb3	xor	x31,x3,x26	  x3:0x00000001 x26:0x80009f5c x31=0x80009f5d
       77605000	      7759	800033d0	73e8bf93	sltiu	x31,x17,1854	 x17:0x80009fc4 x31=0x00000000
       77615000	      7760	800033d4	01858933	add	x18,x11,x24	 x11:0x800032c0 x24:0x84dc7000 x18=0x04dca2c0
       77625000	      7761	800033d8	039a5863	bge	x20,x25,80003408	 x20:0x8000326c x25:0x800031e0
       77635000	      7762	00000000	00000013	addi	x0,x0,0	  x0:0x00000000
       77645000	      7763	80003404	00000013	addi	x0,x0,0	  x0:0x00000000
       77655000	      7764	80003408	00911413	slli	x8,x2,0x9	  x2:0xfffffa45  x8=0xfff48a00
       77665000	      7765	8000340c	400a06b3	sub	x13,x20,x0	 x20:0x8000326c  x0:0x00000000 x13=0x8000326c
       77675000	      7766	80003410	042f1063	bne	x30,x2,80003450	 x30:0x00000100  x2:0xfffffa45
       77685000	      7767	00000000	00000013	addi	x0,x0,0	  x0:0x00000000
       77695000	      7768	8000344c	00000013	addi	x0,x0,0	  x0:0x00000000
       77705000	      7769	80003450	0164de33	srl	x28,x9,x22	  x9:0x00800032 x22:0x80003524 x28=0x00080003
       77715000	      7770	80003454	c0f03f93	sltiu	x31,x0,-1009	  x0:0x00000000 x31=0x00000001
       77725000	      7771	80003458	73578393	addi	x7,x15,1845	 x15:0xf573b7aa  x7=0xf573bedf
       77735000	      7772	8000345c	00408a33	add	x20,x1,x4	  x1:0x80003340  x4:0x800032ec x20=0x0000662c
       77745000	      7773	80003460	002c4233	xor	x4,x24,x2	 x24:0x84dc7000  x2:0xfffffa45  x4=0x7b238a45
       77755000	      7774	80003464	00490433	add	x8,x18,x4	 x18:0x04dca2c0  x4:0x7b238a45  x8=0x80002d05
       77765000	      7775	80003468	dd50bf93	sltiu	x31,x1,-555	  x1:0x80003340 x31=0x00000001
       77775000	      7776	8000346c	00000013	addi	x0,x0,0	  x0:0x00000000
       77785000	      7777	80003470	73a27293	andi	x5,x4,1850	  x4:0x7b238a45  x5=0x00000200
       77795000	      7778	80003474	acb04193	xori	x3,x0,-1333	  x0:0x00000000  x3=0xfffffacb
       77805000	      7779	80003478	41655713	srai	x14,x10,0x16	 x10:0x00000000 x14=0x00000000
       77815000	      7780	8000347c	e8a93f13	sltiu	x30,x18,-374	 x18:0x04dca2c0 x30=0x00000001
       77825000	      7781	80003480	04b53193	sltiu	x3,x10,75	 x10:0x00000000  x3=0x00000001
       77835000	      7782	80003484	00000013	addi	x0,x0,0	  x0:0x00000000
       77845000	      7783	80003488	0163de93	srli	x29,x7,0x16	  x7:0xf573bedf x29=0x000003d5
       77855000	      7784	8000348c	00000013	addi	x0,x0,0	  x0:0x00000000
       77865000	      7785	80003490	01839993	slli	x19,x7,0x18	  x7:0xf573bedf x19=0xdf000000
       77875000	      7786	80003494	01c40f33	add	x30,x8,x28	  x8:0x80002d05 x28:0x00080003 x30=0x80082d08
       77885000	      7787	80003498	0a4d2a93	slti	x21,x26,164	 x26:0x80009f5c x21=0x00000001
       77895000	      7788	8000349c	00a6dc63	bge	x13,x10,800034b4	 x13:0x8000326c x10:0x00000000
       77905000	      7789	800034a0	0126eb33	or	x22,x13,x18	 x13:0x8000326c x18:0x04dca2c0 x22=0x84dcb2ec
       77915000	      7790	800034a4	0cc2f117	auipc	x2,0xcc2f	  x2=0x8cc324a0
       77925000	      7791	800034a8	00475093	srli	x1,x14,0x4	 x14:0x00000000  x1=0x00000000
       77935000	      7792	800034ac	00000013	addi	x0,x0,0	  x0:0x00000000
       77945000	      7793	800034b0	aabc0993	addi	x19,x24,-1365	 x24:0x84dc7000 x19=0x84dc6aab
       77955000	      7794	800034b4	ec1f7217	auipc	x4,0xec1f7	  x4=0x6c1fa4b0
       77965000	      7795	800034b8	00000013	addi	x0,x0,0	  x0:0x00000000
       77975000	      7796	800034bc	47a64193	xori	x3,x12,1146	 x12:0xe6d223b4  x3=0xe6d227ce
       77985000	      7797	800034c0	04c58263	beq	x11,x12,80003504	 x11:0x800032c0 x12:0xe6d223b4
       77995000	      7798	800034c4	40e25a13	srai	x20,x4,0xe	  x4:0x6c1fa4b0 x20=0x0001b07e
       78005000	      7799	800034c8	03c28863	beq	x5,x28,800034f8	  x5:0x00000200 x28:0x00080003
       78015000	      7800	800034cc	416c04b3	sub	x9,x24,x22	 x24:0x84dc7000 x22:0x84dcb2ec  x9=0xffffbd14
       78025000	      7801	800034d0	591cba13	sltiu	x20,x25,1425	 x25:0x800031e0 x20=0x00000000
       78035000	      7802	800034d4	01d13833	sltu	x16,x2,x29	  x2:0x8cc324a0 x29:0x000003d5 x16=0x00000000
       78045000	      7803	800034d8	01290e63	beq	x18,x18,800034f4	 x18:0x04dca2c0 x18:0x04dca2c0
       78055000	      7804	00000000	00000013	addi	x0,x0,0	  x0:0x00000000
       78065000	      7805	800034f0	00000013	addi	x0,x0,0	  x0:0x00000000
       78075000	      7806	800034f4	03b50463	beq	x10,x27,8000351c	 x10:0x00000000 x27:0x3556d68e
       78085000	      7807	800034f8	05dd9063	bne	x27,x29,80003538	 x27:0x3556d68e x29:0x000003d5
       78095000	      7808	00000000	00000013	addi	x0,x0,0	  x0:0x00000000
       78105000	      7809	80003534	00000013	addi	x0,x0,0	  x0:0x00000000
       78115000	      7810	80003538	02634063	blt	x6,x6,80003558	  x6:0x80003314  x6:0x80003314
       78125000	      7811	8000353c	b34bac13	slti	x24,x23,-1228	 x23:0x00000012 x24=0x00000000
       78135000	      7812	80003540	00525013	srli	x0,x4,0x5	  x4:0x6c1fa4b0
       78145000	      7813	80003544	40835f33	sra	x30,x6,x8	  x6:0x80003314  x8:0x80002d05 x30=0xfc000198
       78155000	      7814	80003548	c6508e13	addi	x28,x1,-923	  x1:0x00000000 x28=0xfffffc65
       78165000	      7815	8000354c	05e70263	beq	x14,x30,80003590	 x14:0x00000000 x30:0xfc000198
       78175000	      7816	80003550	003ec533	xor	x10,x29,x3	 x29:0x000003d5  x3:0xe6d227ce x10=0xe6d2241b
       78185000	      7817	80003554	8d18cf13	xori	x30,x17,-1839	 x17:0x80009fc4 x30=0x7fff6715
       78195000	      7818	80003558	0084bcb3	sltu	x25,x9,x8	  x9:0xffffbd14  x8:0x80002d05 x25=0x00000000
       78205000	      7819	8000355c	014b9463	bne	x23,x20,80003564	 x23:0x00000012 x20:0x00000000
       78215000	      7820	00000000	00000013	addi	x0,x0,0	  x0:0x00000000
       78225000	      7821	80003560	00000013	addi	x0,x0,0	  x0:0x00000000
       78235000	      7822	80003564	deb8e997	auipc	x19,0xdeb8e	 x19=0x5eb91560
       78245000	      7823	80003568	005f9193	slli	x3,x31,0x5	 x31:0x00000001  x3=0x00000020
       78255000	      7824	8000356c	03607063	bgeu	x0,x22,8000358c	  x0:0x00000000 x22:0x84dcb2ec
       78265000	      7825	80003570	784ff313	andi	x6,x31,1924	 x31:0x00000001  x6=0x00000000
       78275000	      7826	80003574	69371497	auipc	x9,0x69371	  x9=0xe9374570
       78285000	      7827	80003578	0162d013	srli	x0,x5,0x16	  x5:0x00000200
       78295000	      7828	8000357c	045d6463	bltu	x26,x5,800035c4	 x26:0x80009f5c  x5:0x00000200
       78305000	      7829	80003580	01660833	add	x16,x12,x22	 x12:0xe6d223b4 x22:0x84dcb2ec x16=0x6baed6a0
       78315000	      7830	80003584	993c2c13	slti	x24,x24,-1645	 x24:0x00000000 x24=0x00000000
       78325000	      7831	80003588	02ae5663	bge	x28,x10,800035b4	 x28:0xfffffc65 x10:0xe6d2241b
       78335000	      7832	00000000	00000013	addi	x0,x0,0	  x0:0x00000000
       78345000	      7833	800035b0	00000013	addi	x0,x0,0	  x0:0x00000000
       78355000	      7834	800035b4	01938ab3	add	x21,x7,x25	  x7:0xf573bedf x25:0x00000000 x21=0xf573bedf
       78365000	      7835	800035b8	09c56497	auipc	x9,0x9c56	  x9=0x89c595b4
       78375000	      7836	800035bc	001e01b3	add	x3,x28,x1	 x28:0xfffffc65  x1:0x00000000  x3=0xfffffc65
       78385000	      7837	800035c0	0050bcb3	sltu	x25,x1,x5	  x1:0x00000000  x5:0x00000200 x25=0x00000001
       78395000	      7838	800035c4	0a38f063	bgeu	x17,x3,80003664	 x17:0x80009fc4  x3:0xfffffc65
       78405000	      7839	800035c8	43b2c813	xori	x16,x5,1083	  x5:0x00000200 x16=0x0000063b
       78415000	      7840	800035cc	a2828113	addi	x2,x5,-1496	  x5:0x00000200  x2=0xfffffc28
       78425000	      7841	800035d0	00000013	addi	x0,x0,0	  x0:0x00000000
       78435000	      7842	800035d4	00c155b3	srl	x11,x2,x12	  x2:0xfffffc28 x12:0xe6d223b4 x11=0x00000fff
       78445000	      7843	800035d8	e4d44137	lui	x2,0xe4d44	  x2=0xe4d44000
       78455000	      7844	800035dc	00ca2033	slt	x0,x20,x12	 x20:0x00000000 x12:0xe6d223b4
       78465000	      7845	800035e0	00840033	add	x0,x8,x8	  x8:0x80002d05  x8:0x80002d05
       78475000	      7846	800035e4	00000013	addi	x0,x0,0	  x0:0x00000000
       78485000	      7847	800035e8	402e5f13	srai	x30,x28,0x2	 x28:0xfffffc65 x30=0xffffff19
       78495000	      7848	800035ec	09178e63	beq	x15,x17,80003688	 x15:0xf573b7aa x17:0x80009fc4
       78505000	      7849	800035f0	0240036f	jal	x6,800035f0	  x6=0x800035f0
       78515000	      7850	00000000	00000013	addi	x0,x0,0	  x0:0x00000000
       78525000	      7851	80003610	00000013	addi	x0,x0,0	  x0:0x00000000
       78535000	      7852	80003614	fe9ff66f	jal	x12,80003614	 x12=0x80003614
       78545000	      7853	00000000	00000013	addi	x0,x0,0	  x0:0x00000000
       78555000	      7854	800035f8	00000013	addi	x0,x0,0	  x0:0x00000000
       78565000	      7855	800035fc	04c000ef	jal	x1,800035fc	  x1=0x800035fc
       78575000	      7856	00000000	00000013	addi	x0,x0,0	  x0:0x00000000
       78585000	      7857	80003644	00000013	addi	x0,x0,0	  x0:0x00000000
       78595000	      7858	80003648	fc5ff0ef	jal	x1,80003648	  x1=0x80003648
       78605000	      7859	00000000	00000013	addi	x0,x0,0	  x0:0x00000000
       78615000	      7860	80003608	00000013	addi	x0,x0,0	  x0:0x00000000
       78625000	      7861	8000360c	0280036f	jal	x6,8000360c	  x6=0x8000360c
       78635000	      7862	00000000	00000013	addi	x0,x0,0	  x0:0x00000000
       78645000	      7863	80003630	00000013	addi	x0,x0,0	  x0:0x00000000
       78655000	      7864	80003634	0100026f	jal	x4,80003634	  x4=0x80003634
       78665000	      7865	00000000	00000013	addi	x0,x0,0	  x0:0x00000000
       78675000	      7866	80003640	00000013	addi	x0,x0,0	  x0:0x00000000
       78685000	      7867	80003644	ff9ff0ef	jal	x1,80003644	  x1=0x80003644
       78695000	      7868	00000000	00000013	addi	x0,x0,0	  x0:0x00000000
       78705000	      7869	80003638	00000013	addi	x0,x0,0	  x0:0x00000000
       78715000	      7870	8000363c	fedff36f	jal	x6,8000363c	  x6=0x8000363c
       78725000	      7871	00000000	00000013	addi	x0,x0,0	  x0:0x00000000
       78735000	      7872	80003624	00000013	addi	x0,x0,0	  x0:0x00000000
       78745000	      7873	80003628	fe9fffef	jal	x31,80003628	 x31=0x80003628
       78755000	      7874	00000000	00000013	addi	x0,x0,0	  x0:0x00000000
       78765000	      7875	8000360c	00000013	addi	x0,x0,0	  x0:0x00000000
       78775000	      7876	80003610	ff1ff96f	jal	x18,80003610	 x18=0x80003610
       78785000	      7877	00000000	00000013	addi	x0,x0,0	  x0:0x00000000
       78795000	      7878	800035fc	00000013	addi	x0,x0,0	  x0:0x00000000
       78805000	      7879	80003600	0300036f	jal	x6,80003600	  x6=0x80003600
       78815000	      7880	00000000	00000013	addi	x0,x0,0	  x0:0x00000000
       78825000	      7881	8000362c	00000013	addi	x0,x0,0	  x0:0x00000000
       78835000	      7882	80003630	fc5ff6ef	jal	x13,80003630	 x13=0x80003630
       78845000	      7883	00000000	00000013	addi	x0,x0,0	  x0:0x00000000
       78855000	      7884	800035f0	00000013	addi	x0,x0,0	  x0:0x00000000
       78865000	      7885	800035f4	030000ef	jal	x1,800035f4	  x1=0x800035f4
       78875000	      7886	00000000	00000013	addi	x0,x0,0	  x0:0x00000000
       78885000	      7887	80003620	00000013	addi	x0,x0,0	  x0:0x00000000
       78895000	      7888	80003624	fe1ff0ef	jal	x1,80003624	  x1=0x80003624
       78905000	      7889	00000000	00000013	addi	x0,x0,0	  x0:0x00000000
       78915000	      7890	80003600	00000013	addi	x0,x0,0	  x0:0x00000000
       78925000	      7891	80003604	014000ef	jal	x1,80003604	  x1=0x80003604
       78935000	      7892	00000000	00000013	addi	x0,x0,0	  x0:0x00000000
       78945000	      7893	80003614	00000013	addi	x0,x0,0	  x0:0x00000000
       78955000	      7894	80003618	020000ef	jal	x1,80003618	  x1=0x80003618
       78965000	      7895	00000000	00000013	addi	x0,x0,0	  x0:0x00000000
       78975000	      7896	80003634	00000013	addi	x0,x0,0	  x0:0x00000000
       78985000	      7897	80003638	fc1ff0ef	jal	x1,80003638	  x1=0x80003638
       78995000	      7898	00000000	00000013	addi	x0,x0,0	  x0:0x00000000
       79005000	      7899	800035f4	00000013	addi	x0,x0,0	  x0:0x00000000
       79015000	      7900	800035f8	01000def	jal	x27,800035f8	 x27=0x800035f8
       79025000	      7901	00000000	00000013	addi	x0,x0,0	  x0:0x00000000
       79035000	      7902	80003604	00000013	addi	x0,x0,0	  x0:0x00000000
       79045000	      7903	80003608	014000ef	jal	x1,80003608	  x1=0x80003608
       79055000	      7904	00000000	00000013	addi	x0,x0,0	  x0:0x00000000
       79065000	      7905	80003618	00000013	addi	x0,x0,0	  x0:0x00000000
       79075000	      7906	8000361c	004000ef	jal	x1,8000361c	  x1=0x8000361c
       79085000	      7907	00000000	00000013	addi	x0,x0,0	  x0:0x00000000
       79095000	      7908	8000361c	00000013	addi	x0,x0,0	  x0:0x00000000
       79105000	      7909	80003620	00c000ef	jal	x1,80003620	  x1=0x80003620
       79115000	      7910	00000000	00000013	addi	x0,x0,0	  x0:0x00000000
       79125000	      7911	80003628	00000013	addi	x0,x0,0	  x0:0x00000000
       79135000	      7912	8000362c	0140036f	jal	x6,8000362c	  x6=0x8000362c
       79145000	      7913	00000000	00000013	addi	x0,x0,0	  x0:0x00000000
       79155000	      7914	8000363c	00000013	addi	x0,x0,0	  x0:0x00000000
       79165000	      7915	80003640	00c003ef	jal	x7,80003640	  x7=0x80003640
       79175000	      7916	00000000	00000013	addi	x0,x0,0	  x0:0x00000000
       79185000	      7917	80003648	00000013	addi	x0,x0,0	  x0:0x00000000
       79195000	      7918	8000364c	01b42193	slti	x3,x8,27	  x8:0x80002d05  x3=0x00000001
       79205000	      7919	80003650	40588b33	sub	x22,x17,x5	 x17:0x80009fc4  x5:0x00000200 x22=0x80009dc4
       79215000	      7920	80003654	013a40b3	xor	x1,x20,x19	 x20:0x00000000 x19:0x5eb91560  x1=0x5eb91560
       79225000	      7921	80003658	41a35f33	sra	x30,x6,x26	  x6:0x8000362c x26:0x80009f5c x30=0xfffffff8
       79235000	      7922	8000365c	40140cb3	sub	x25,x8,x1	  x8:0x80002d05  x1:0x5eb91560 x25=0x214717a5
       79245000	      7923	80003660	00c61fb3	sll	x31,x12,x12	 x12:0x80003614 x12:0x80003614 x31=0x61400000
       79255000	      7924	80003664	01fbbeb3	sltu	x29,x23,x31	 x23:0x00000012 x31:0x61400000 x29=0x00000001
       79265000	      7925	80003668	00000013	addi	x0,x0,0	  x0:0x00000000
       79275000	      7926	8000366c	7404eb93	ori	x23,x9,1856	  x9:0x89c595b4 x23=0x89c597f4
       79285000	      7927	80003670	023e6063	bltu	x28,x3,80003690	 x28:0xfffffc65  x3:0x00000001
       79295000	      7928	80003674	00527733	and	x14,x4,x5	  x4:0x80003634  x5:0x00000200 x14=0x00000200
       79305000	      7929	80003678	85d8fbb7	lui	x23,0x85d8f	 x23=0x85d8f000
       79315000	      7930	8000367c	01fe4bb3	xor	x23,x28,x31	 x28:0xfffffc65 x31:0x61400000 x23=0x9ebffc65
       79325000	      7931	80003680	019df6b3	and	x13,x27,x25	 x27:0x800035f8 x25:0x214717a5 x13=0x000015a0
       79335000	      7932	80003684	016411b3	sll	x3,x8,x22	  x8:0x80002d05 x22:0x80009dc4  x3=0x0002d050
       79345000	      7933	80003688	437dce93	xori	x29,x27,1079	 x27:0x800035f8 x29=0x800031cf
       79355000	      7934	8000368c	012a6c33	or	x24,x20,x18	 x20:0x00000000 x18:0x80003610 x24=0x80003610
       79365000	      7935	80003690	012a1833	sll	x16,x20,x18	 x20:0x00000000 x18:0x80003610 x16=0x00000000
       79375000	      7936	80003694	b960eb93	ori	x23,x1,-1130	  x1:0x5eb91560 x23=0xfffffff6
       79385000	      7937	80003698	0190f533	and	x10,x1,x25	  x1:0x5eb91560 x25:0x214717a5 x10=0x00011520
       79395000	      7938	8000369c	009944b3	xor	x9,x18,x9	 x18:0x80003610  x9:0x89c595b4  x9=0x09c5a3a4
       79405000	      7939	800036a0	0219e863	bltu	x19,x1,800036d0	 x19:0x5eb91560  x1:0x5eb91560
       79415000	      7940	800036a4	407e89b3	sub	x19,x29,x7	 x29:0x800031cf  x7:0x80003640 x19=0xfffffb8f
       79425000	      7941	800036a8	0067dc13	srli	x24,x15,0x6	 x15:0xf573b7aa x24=0x03d5cede
       79435000	      7942	800036ac	00eb2833	slt	x16,x22,x14	 x22:0x80009dc4 x14:0x00000200 x16=0x00000001
       79445000	      7943	800036b0	01693b33	sltu	x22,x18,x22	 x18:0x80003610 x22:0x80009dc4 x22=0x00000001
       79455000	      7944	800036b4	01db9813	slli	x16,x23,0x1d	 x23:0xfffffff6 x16=0xc0000000
       79465000	      7945	800036b8	038ac063	blt	x21,x24,800036d8	 x21:0xf573bedf x24:0x03d5cede
       79475000	      7946	00000000	00000013	addi	x0,x0,0	  x0:0x00000000
       79485000	      7947	800036d4	00000013	addi	x0,x0,0	  x0:0x00000000
       79495000	      7948	800036d8	40c68433	sub	x8,x13,x12	 x13:0x000015a0 x12:0x80003614  x8=0x7fffdf8c
       79505000	      7949	800036dc	00000013	addi	x0,x0,0	  x0:0x00000000
       79515000	      7950	800036e0	76c68413	addi	x8,x13,1900	 x13:0x000015a0  x8=0x00001d0c
       79525000	      7951	800036e4	03306063	bltu	x0,x19,80003704	  x0:0x00000000 x19:0xfffffb8f
       79535000	      7952	00000000	00000013	addi	x0,x0,0	  x0:0x00000000
       79545000	      7953	80003700	00000013	addi	x0,x0,0	  x0:0x00000000
       79555000	      7954	80003704	00000013	addi	x0,x0,0	  x0:0x00000000
       79565000	      7955	80003708	0504d063	bge	x9,x16,80003748	  x9:0x09c5a3a4 x16:0xc0000000
       79575000	      7956	00000000	00000013	addi	x0,x0,0	  x0:0x00000000
       79585000	      7957	80003744	00000013	addi	x0,x0,0	  x0:0x00000000
       79595000	      7958	80003748	00000013	addi	x0,x0,0	  x0:0x00000000
       79605000	      7959	8000374c	00928bb3	add	x23,x5,x9	  x5:0x00000200  x9:0x09c5a3a4 x23=0x09c5a5a4
       79615000	      7960	80003750	23d34393	xori	x7,x6,573	  x6:0x8000362c  x7=0x80003411
       79625000	      7961	80003754	4101d313	srai	x6,x3,0x10	  x3:0x0002d050  x6=0x00000002
       79635000	      7962	80003758	0373e663	bltu	x7,x23,80003784	  x7:0x80003411 x23:0x09c5a5a4
       79645000	      7963	8000375c	0328fe63	bgeu	x17,x18,80003798	 x17:0x80009fc4 x18:0x80003610
       79655000	      7964	00000000	00000013	addi	x0,x0,0	  x0:0x00000000
       79665000	      7965	80003794	00000013	addi	x0,x0,0	  x0:0x00000000
       79675000	      7966	80003798	48faff13	andi	x30,x21,1167	 x21:0xf573bedf x30=0x0000048f
       79685000	      7967	8000379c	41e559b3	sra	x19,x10,x30	 x10:0x00011520 x30:0x0000048f x19=0x00000002
       79695000	      7968	800037a0	018a5c63	bge	x20,x24,800037b8	 x20:0x00000000 x24:0x03d5cede
       79705000	      7969	800037a4	005841b3	xor	x3,x16,x5	 x16:0xc0000000  x5:0x00000200  x3=0xc0000200
       79715000	      7970	800037a8	030ae063	bltu	x21,x16,800037c8	 x21:0xf573bedf x16:0xc0000000
       79725000	      7971	800037ac	05abc663	blt	x23,x26,800037f8	 x23:0x09c5a5a4 x26:0x80009f5c
       79735000	      7972	800037b0	b5c3f193	andi	x3,x7,-1188	  x7:0x80003411  x3=0x80003010
       79745000	      7973	800037b4	4f5a3413	sltiu	x8,x20,1269	 x20:0x00000000  x8=0x00000001
       79755000	      7974	800037b8	00489113	slli	x2,x17,0x4	 x17:0x80009fc4  x2=0x0009fc40
       79765000	      7975	800037bc	405f0533	sub	x10,x30,x5	 x30:0x0000048f  x5:0x00000200 x10=0x0000028f
       79775000	      7976	800037c0	c0b3ab13	slti	x22,x7,-1013	  x7:0x80003411 x22=0x00000001
       79785000	      7977	800037c4	00fa4e33	xor	x28,x20,x15	 x20:0x00000000 x15:0xf573b7aa x28=0xf573b7aa
       79795000	      7978	800037c8	da73f913	andi	x18,x7,-601	  x7:0x80003411 x18=0x80003401
       79805000	      7979	800037cc	43dd4713	xori	x14,x26,1085	 x26:0x80009f5c x14=0x80009b61
       79815000	      7980	800037d0	3c2ab917	auipc	x18,0x3c2ab	 x18=0xbc2ae7cc
       79825000	      7981	800037d4	00377233	and	x4,x14,x3	 x14:0x80009b61  x3:0x80003010  x4=0x80001000
       79835000	      7982	800037d8	eb3dbc13	sltiu	x24,x27,-333	 x27:0x800035f8 x24=0x00000001
       79845000	      7983	800037dc	03269463	bne	x13,x18,80003804	 x13:0x000015a0 x18:0xbc2ae7cc
       79855000	      7984	00000000	00000013	addi	x0,x0,0	  x0:0x00000000
       79865000	      7985	80003800	00000013	addi	x0,x0,0	  x0:0x00000000
       79875000	      7986	80003804	03ea9863	bne	x21,x30,80003834	 x21:0xf573bedf x30:0x0000048f
       79885000	      7987	00000000	00000013	addi	x0,x0,0	  x0:0x00000000
       79895000	      7988	80003830	00000013	addi	x0,x0,0	  x0:0x00000000
       79905000	      7989	80003834	009f7133	and	x2,x30,x9	 x30:0x0000048f  x9:0x09c5a3a4  x2=0x00000084
       79915000	      7990	80003838	011d53b3	srl	x7,x26,x17	 x26:0x80009f5c x17:0x80009fc4  x7=0x080009f5
       79925000	      7991	8000383c	2eac7313	andi	x6,x24,746	 x24:0x00000001  x6=0x00000000
       79935000	      7992	80003840	0169cfb3	xor	x31,x19,x22	 x19:0x00000002 x22:0x00000001 x31=0x00000003
       79945000	      7993	80003844	0506c263	blt	x13,x16,80003888	 x13:0x000015a0 x16:0xc0000000
       79955000	      7994	80003848	0116fab3	and	x21,x13,x17	 x13:0x000015a0 x17:0x80009fc4 x21=0x00001580
       79965000	      7995	8000384c	00000013	addi	x0,x0,0	  x0:0x00000000
       79975000	      7996	80003850	00c24eb3	xor	x29,x4,x12	  x4:0x80001000 x12:0x80003614 x29=0x00002614
       79985000	      7997	80003854	003085b3	add	x11,x1,x3	  x1:0x5eb91560  x3:0x80003010 x11=0xdeb94570
       79995000	      7998	80003858	00e5bfb3	sltu	x31,x11,x14	 x11:0xdeb94570 x14:0x80009b61 x31=0x00000000
       80005000	      7999	8000385c	012b5ab3	srl	x21,x22,x18	 x22:0x00000001 x18:0xbc2ae7cc x21=0x00000000
       80015000	      8000	80003860	00c92033	slt	x0,x18,x12	 x18:0xbc2ae7cc x12:0x80003614
       80025000	      8001	80003864	341f0e93	addi	x29,x30,833	 x30:0x0000048f x29=0x000007d0
       80035000	      8002	80003868	01e0c863	blt	x1,x30,80003878	  x1:0x5eb91560 x30:0x0000048f
       80045000	      8003	8000386c	6cdd8d93	addi	x27,x27,1741	 x27:0x800035f8 x27=0x80003cc5
       80055000	      8004	80003870	0020cf33	xor	x30,x1,x2	  x1:0x5eb91560  x2:0x00000084 x30=0x5eb915e4
       80065000	      8005	80003874	01d30c33	add	x24,x6,x29	  x6:0x00000000 x29:0x000007d0 x24=0x000007d0
       80075000	      8006	80003878	055bd663	bge	x23,x21,800038c4	 x23:0x09c5a5a4 x21:0x00000000
       80085000	      8007	00000000	00000013	addi	x0,x0,0	  x0:0x00000000
       80095000	      8008	800038c0	00000013	addi	x0,x0,0	  x0:0x00000000
       80105000	      8009	800038c4	b2018993	addi	x19,x3,-1248	  x3:0x80003010 x19=0x80002b30
       80115000	      8010	800038c8	01db09b3	add	x19,x22,x29	 x22:0x00000001 x29:0x000007d0 x19=0x000007d1
       80125000	      8011	800038cc	403fd513	srai	x10,x31,0x3	 x31:0x00000000 x10=0x00000000
       80135000	      8012	800038d0	00000013	addi	x0,x0,0	  x0:0x00000000
       80145000	      8013	800038d4	05255063	bge	x10,x18,80003914	 x10:0x00000000 x18:0xbc2ae7cc
       80155000	      8014	00000000	00000013	addi	x0,x0,0	  x0:0x00000000
       80165000	      8015	80003910	00000013	addi	x0,x0,0	  x0:0x00000000
       80175000	      8016	80003914	04597063	bgeu	x18,x5,80003954	 x18:0xbc2ae7cc  x5:0x00000200
       80185000	      8017	00000000	00000013	addi	x0,x0,0	  x0:0x00000000
       80195000	      8018	80003950	00000013	addi	x0,x0,0	  x0:0x00000000
       80205000	      8019	80003954	02b75863	bge	x14,x11,80003984	 x14:0x80009b61 x11:0xdeb94570
       80215000	      8020	80003958	00000013	addi	x0,x0,0	  x0:0x00000000
       80225000	      8021	8000395c	ffd1e593	ori	x11,x3,-3	  x3:0x80003010 x11=0xfffffffd
       80235000	      8022	80003960	050ad263	bge	x21,x16,800039a4	 x21:0x00000000 x16:0xc0000000
       80245000	      8023	00000000	00000013	addi	x0,x0,0	  x0:0x00000000
       80255000	      8024	800039a0	00000013	addi	x0,x0,0	  x0:0x00000000
       80265000	      8025	800039a4	a722f317	auipc	x6,0xa722f	  x6=0x272329a0
       80275000	      8026	800039a8	00bfd133	srl	x2,x31,x11	 x31:0x00000000 x11:0xfffffffd  x2=0x00000000
       80285000	      8027	800039ac	eba69d97	auipc	x27,0xeba69	 x27=0x6ba6c9a8
       80295000	      8028	800039b0	00000013	addi	x0,x0,0	  x0:0x00000000
       80305000	      8029	800039b4	010e9233	sll	x4,x29,x16	 x29:0x000007d0 x16:0xc0000000  x4=0x000007d0
       80315000	      8030	800039b8	04897663	bgeu	x18,x8,80003a04	 x18:0xbc2ae7cc  x8:0x00000001
       80325000	      8031	00000000	00000013	addi	x0,x0,0	  x0:0x00000000
       80335000	      8032	80003a00	00000013	addi	x0,x0,0	  x0:0x00000000
       80345000	      8033	80003a04	01316ab3	or	x21,x2,x19	  x2:0x00000000 x19:0x000007d1 x21=0x000007d1
       80355000	      8034	80003a08	01faf433	and	x8,x21,x31	 x21:0x000007d1 x31:0x00000000  x8=0x00000000
       80365000	      8035	80003a0c	01d0bbb3	sltu	x23,x1,x29	  x1:0x5eb91560 x29:0x000007d0 x23=0x00000000
       80375000	      8036	80003a10	0048b033	sltu	x0,x17,x4	 x17:0x80009fc4  x4:0x000007d0
       80385000	      8037	80003a14	5b254693	xori	x13,x10,1458	 x10:0x00000000 x13=0x000005b2
       80395000	      8038	80003a18	01997e63	bgeu	x18,x25,80003a34	 x18:0xbc2ae7cc x25:0x214717a5
       80405000	      8039	00000000	00000013	addi	x0,x0,0	  x0:0x00000000
       80415000	      8040	80003a30	00000013	addi	x0,x0,0	  x0:0x00000000
       80425000	      8041	80003a34	56654593	xori	x11,x10,1382	 x10:0x00000000 x11=0x00000566
       80435000	      8042	80003a38	cead3313	sltiu	x6,x26,-790	 x26:0x80009f5c  x6=0x00000001
       80445000	      8043	80003a3c	01d941b3	xor	x3,x18,x29	 x18:0xbc2ae7cc x29:0x000007d0  x3=0xbc2ae01c
       80455000	      8044	80003a40	94f946b7	lui	x13,0x94f94	 x13=0x94f94000
       80465000	      8045	80003a44	010fde93	srli	x29,x31,0x10	 x31:0x00000000 x29=0x00000000
       80475000	      8046	80003a48	01158a63	beq	x11,x17,80003a5c	 x11:0x00000566 x17:0x80009fc4
       80485000	      8047	80003a4c	d84b0f93	addi	x31,x22,-636	 x22:0x00000001 x31=0xfffffd85
       80495000	      8048	80003a50	ee1a7c93	andi	x25,x20,-287	 x20:0x00000000 x25=0x00000000
       80505000	      8049	80003a54	037d1063	bne	x26,x23,80003a74	 x26:0x80009f5c x23:0x00000000
       80515000	      8050	00000000	00000013	addi	x0,x0,0	  x0:0x00000000
       80525000	      8051	80003a70	00000013	addi	x0,x0,0	  x0:0x00000000
       80535000	      8052	80003a74	0178db33	srl	x22,x17,x23	 x17:0x80009fc4 x23:0x00000000 x22=0x80009fc4
       80545000	      8053	80003a78	0104a733	slt	x14,x9,x16	  x9:0x09c5a3a4 x16:0xc0000000 x14=0x00000000
       80555000	      8054	80003a7c	00acb4b3	sltu	x9,x25,x10	 x25:0x00000000 x10:0x00000000  x9=0x00000000
       80565000	      8055	80003a80	02821663	bne	x4,x8,80003aac	  x4:0x000007d0  x8:0x00000000
       80575000	      8056	00000000	00000013	addi	x0,x0,0	  x0:0x00000000
       80585000	      8057	80003aa8	00000013	addi	x0,x0,0	  x0:0x00000000
       80595000	      8058	80003aac	01c09a63	bne	x1,x28,80003ac0	  x1:0x5eb91560 x28:0xf573b7aa
       80605000	      8059	00000000	00000013	addi	x0,x0,0	  x0:0x00000000
       80615000	      8060	80003abc	00000013	addi	x0,x0,0	  x0:0x00000000
       80625000	      8061	80003ac0	001cc533	xor	x10,x25,x1	 x25:0x00000000  x1:0x5eb91560 x10=0x5eb91560
       80635000	      8062	80003ac4	00c45463	bge	x8,x12,80003acc	  x8:0x00000000 x12:0x80003614
       80645000	      8063	00000000	00000013	addi	x0,x0,0	  x0:0x00000000
       80655000	      8064	80003ac8	00000013	addi	x0,x0,0	  x0:0x00000000
       80665000	      8065	80003acc	01892433	slt	x8,x18,x24	 x18:0xbc2ae7cc x24:0x000007d0  x8=0x00000001
       80675000	      8066	80003ad0	fe5a6e17	auipc	x28,0xfe5a6	 x28=0x7e5a9acc
       80685000	      8067	80003ad4	6ae56213	ori	x4,x10,1710	 x10:0x5eb91560  x4=0x5eb917ee
       80695000	      8068	80003ad8	04c74463	blt	x14,x12,80003b20	 x14:0x00000000 x12:0x80003614
       80705000	      8069	80003adc	01c8d393	srli	x7,x17,0x1c	 x17:0x80009fc4  x7=0x00000008
       80715000	      8070	80003ae0	000fbeb3	sltu	x29,x31,x0	 x31:0xfffffd85  x0:0x00000000 x29=0x00000000
       80725000	      8071	80003ae4	b755ab13	slti	x22,x11,-1163	 x11:0x00000566 x22=0x00000000
       80735000	      8072	80003ae8	7f704b93	xori	x23,x0,2039	  x0:0x00000000 x23=0x000007f7
       80745000	      8073	80003aec	01187db3	and	x27,x16,x17	 x16:0xc0000000 x17:0x80009fc4 x27=0x80000000
       80755000	      8074	80003af0	01be1613	slli	x12,x28,0x1b	 x28:0x7e5a9acc x12=0x60000000
       80765000	      8075	80003af4	02330a63	beq	x6,x3,80003b28	  x6:0x00000001  x3:0xbc2ae01c
       80775000	      8076	80003af8	01439e13	slli	x28,x7,0x14	  x7:0x00000008 x28=0x00800000
       80785000	      8077	80003afc	9abfa613	slti	x12,x31,-1621	 x31:0xfffffd85 x12=0x00000000
       80795000	      8078	80003b00	00d67c63	bgeu	x12,x13,80003b18	 x12:0x00000000 x13:0x94f94000
       80805000	      8079	80003b04	009cbb33	sltu	x22,x25,x9	 x25:0x00000000  x9:0x00000000 x22=0x00000000
       80815000	      8080	80003b08	0108de93	srli	x29,x17,0x10	 x17:0x80009fc4 x29=0x00008000
       80825000	      8081	80003b0c	00d48cb3	add	x25,x9,x13	  x9:0x00000000 x13:0x94f94000 x25=0x94f94000
       80835000	      8082	80003b10	fda42f13	slti	x30,x8,-38	  x8:0x00000001 x30=0x00000000
       80845000	      8083	80003b14	04987663	bgeu	x16,x9,80003b60	 x16:0xc0000000  x9:0x00000000
       80855000	      8084	00000000	00000013	addi	x0,x0,0	  x0:0x00000000
       80865000	      8085	80003b5c	00000013	addi	x0,x0,0	  x0:0x00000000
       80875000	      8086	80003b60	00845a63	bge	x8,x8,80003b74	  x8:0x00000001  x8:0x00000001
       80885000	      8087	00000000	00000013	addi	x0,x0,0	  x0:0x00000000
       80895000	      8088	80003b70	00000013	addi	x0,x0,0	  x0:0x00000000
       80905000	      8089	80003b74	4038ba13	sltiu	x20,x17,1027	 x17:0x80009fc4 x20=0x00000000
       80915000	      8090	80003b78	010852b3	srl	x5,x16,x16	 x16:0xc0000000 x16:0xc0000000  x5=0xc0000000
       80925000	      8091	80003b7c	00c83b33	sltu	x22,x16,x12	 x16:0xc0000000 x12:0x00000000 x22=0x00000000
       80935000	      8092	80003b80	00951833	sll	x16,x10,x9	 x10:0x5eb91560  x9:0x00000000 x16=0x5eb91560
       80945000	      8093	80003b84	a11a7813	andi	x16,x20,-1519	 x20:0x00000000 x16=0x00000000
       80955000	      8094	80003b88	de206513	ori	x10,x0,-542	  x0:0x00000000 x10=0xfffffde2
       80965000	      8095	80003b8c	21843213	sltiu	x4,x8,536	  x8:0x00000001  x4=0x00000001
       80975000	      8096	80003b90	f5870413	addi	x8,x14,-168	 x14:0x00000000  x8=0xffffff58
       80985000	      8097	80003b94	41e58f33	sub	x30,x11,x30	 x11:0x00000566 x30:0x00000000 x30=0x00000566
       80995000	      8098	80003b98	403b5413	srai	x8,x22,0x3	 x22:0x00000000  x8=0x00000000
       81005000	      8099	80003b9c	24f68b93	addi	x23,x13,591	 x13:0x94f94000 x23=0x94f9424f
       81015000	      8100	80003ba0	d51da093	slti	x1,x27,-687	 x27:0x80000000  x1=0x00000001
       81025000	      8101	80003ba4	06cce263	bltu	x25,x12,80003c08	 x25:0x94f94000 x12:0x00000000
       81035000	      8102	80003ba8	043d6863	bltu	x26,x3,80003bf8	 x26:0x80009f5c  x3:0xbc2ae01c
       81045000	      8103	00000000	00000013	addi	x0,x0,0	  x0:0x00000000
       81055000	      8104	80003bf4	00000013	addi	x0,x0,0	  x0:0x00000000
       81065000	      8105	80003bf8	0c330693	addi	x13,x6,195	  x6:0x00000001 x13=0x000000c4
       81075000	      8106	80003bfc	40b8d093	srai	x1,x17,0xb	 x17:0x80009fc4  x1=0xfff00013
       81085000	      8107	80003c00	d9346693	ori	x13,x8,-621	  x8:0x00000000 x13=0xfffffd93
       81095000	      8108	80003c04	7a85b913	sltiu	x18,x11,1960	 x11:0x00000566 x18=0x00000001
       81105000	      8109	80003c08	0192d5b3	srl	x11,x5,x25	  x5:0xc0000000 x25:0x94f94000 x11=0xc0000000
       81115000	      8110	80003c0c	ca510993	addi	x19,x2,-859	  x2:0x00000000 x19=0xfffffca5
       81125000	      8111	80003c10	90f25c97	auipc	x25,0x90f25	 x25=0x10f28c0c
       81135000	      8112	80003c14	51d13593	sltiu	x11,x2,1309	  x2:0x00000000 x11=0x00000001
       81145000	      8113	80003c18	01b71993	slli	x19,x14,0x1b	 x14:0x00000000 x19=0x00000000
       81155000	      8114	80003c1c	890b3193	sltiu	x3,x22,-1904	 x22:0x00000000  x3=0x00000001
       81165000	      8115	80003c20	015b8133	add	x2,x23,x21	 x23:0x94f9424f x21:0x000007d1  x2=0x94f94a20
       81175000	      8116	80003c24	004639b3	sltu	x19,x12,x4	 x12:0x00000000  x4:0x00000001 x19=0x00000001
       81185000	      8117	80003c28	005393b3	sll	x7,x7,x5	  x7:0x00000008  x5:0xc0000000  x7=0x00000008
       81195000	      8118	80003c2c	b1928213	addi	x4,x5,-1255	  x5:0xc0000000  x4=0xbffffb19
       81205000	      8119	80003c30	010e3633	sltu	x12,x28,x16	 x28:0x00800000 x16:0x00000000 x12=0x00000000
       81215000	      8120	80003c34	2ae28493	addi	x9,x5,686	  x5:0xc0000000  x9=0xc00002ae
       81225000	      8121	80003c38	037e0063	beq	x28,x23,80003c58	 x28:0x00800000 x23:0x94f9424f
       81235000	      8122	80003c3c	012c6133	or	x2,x24,x18	 x24:0x000007d0 x18:0x00000001  x2=0x000007d1
       81245000	      8123	80003c40	bcaa0813	addi	x16,x20,-1078	 x20:0x00000000 x16=0xfffffbca
       81255000	      8124	80003c44	8be3af93	slti	x31,x7,-1858	  x7:0x00000008 x31=0x00000000
       81265000	      8125	80003c48	01d29193	slli	x3,x5,0x1d	  x5:0xc0000000  x3=0x00000000
       81275000	      8126	80003c4c	01cbf733	and	x14,x23,x28	 x23:0x94f9424f x28:0x00800000 x14=0x00800000
       81285000	      8127	80003c50	400f5e13	srai	x28,x30,0x0	 x30:0x00000566 x28=0x00000566
       81295000	      8128	80003c54	01b44433	xor	x8,x8,x27	  x8:0x00000000 x27:0x80000000  x8=0x80000000
       81305000	      8129	80003c58	9b18fb93	andi	x23,x17,-1615	 x17:0x80009fc4 x23=0x80009980
       81315000	      8130	80003c5c	03a51463	bne	x10,x26,80003c84	 x10:0xfffffde2 x26:0x80009f5c
       81325000	      8131	00000000	00000013	addi	x0,x0,0	  x0:0x00000000
       81335000	      8132	80003c80	00000013	addi	x0,x0,0	  x0:0x00000000
       81345000	      8133	80003c84	03d34663	blt	x6,x29,80003cb0	  x6:0x00000001 x29:0x00008000
       81355000	      8134	00000000	00000013	addi	x0,x0,0	  x0:0x00000000
       81365000	      8135	80003cac	00000013	addi	x0,x0,0	  x0:0x00000000
       81375000	      8136	80003cb0	405a8333	sub	x6,x21,x5	 x21:0x000007d1  x5:0xc0000000  x6=0x400007d1
       81385000	      8137	80003cb4	00379db3	sll	x27,x15,x3	 x15:0xf573b7aa  x3:0x00000000 x27=0xf573b7aa
       81395000	      8138	80003cb8	6f867413	andi	x8,x12,1784	 x12:0x00000000  x8=0x00000000
       81405000	      8139	80003cbc	7f37fa93	andi	x21,x15,2035	 x15:0xf573b7aa x21=0x000007a2
       81415000	      8140	80003cc0	40160a33	sub	x20,x12,x1	 x12:0x00000000  x1:0xfff00013 x20=0x000fffed
       81425000	      8141	80003cc4	c84c2213	slti	x4,x24,-892	 x24:0x000007d0  x4=0x00000000
       81435000	      8142	80003cc8	4bb2fe93	andi	x29,x5,1211	  x5:0xc0000000 x29=0x00000000
       81445000	      8143	80003ccc	4d5a7b17	auipc	x22,0x4d5a7	 x22=0xcd5aacc8
       81455000	      8144	80003cd0	e337b617	auipc	x12,0xe337b	 x12=0x6337eccc
       81465000	      8145	80003cd4	00301a33	sll	x20,x0,x3	  x0:0x00000000  x3:0x00000000 x20=0x00000000
       81475000	      8146	80003cd8	00f41c33	sll	x24,x8,x15	  x8:0x00000000 x15:0xf573b7aa x24=0x00000000
       81485000	      8147	80003cdc	407c5933	sra	x18,x24,x7	 x24:0x00000000  x7:0x00000008 x18=0x00000000
       81495000	      8148	80003ce0	41628a33	sub	x20,x5,x22	  x5:0xc0000000 x22:0xcd5aacc8 x20=0xf2a55338
       81505000	      8149	80003ce4	007c1e13	slli	x28,x24,0x7	 x24:0x00000000 x28=0x00000000
       81515000	      8150	80003ce8	037be063	bltu	x23,x23,80003d08	 x23:0x80009980 x23:0x80009980
       81525000	      8151	80003cec	413989b3	sub	x19,x19,x19	 x19:0x00000001 x19:0x00000001 x19=0x00000000
       81535000	      8152	80003cf0	03a77063	bgeu	x14,x26,80003d10	 x14:0x00800000 x26:0x80009f5c
       81545000	      8153	80003cf4	03cb0e63	beq	x22,x28,80003d30	 x22:0xcd5aacc8 x28:0x00000000
       81555000	      8154	80003cf8	9a9a4a13	xori	x20,x20,-1623	 x20:0xf2a55338 x20=0x0d5aaa91
       81565000	      8155	80003cfc	5d548493	addi	x9,x9,1493	  x9:0xc00002ae  x9=0xc0000883
       81575000	      8156	80003d00	0ce6ae13	slti	x28,x13,206	 x13:0xfffffd93 x28=0x00000001
       81585000	      8157	80003d04	00e46333	or	x6,x8,x14	  x8:0x00000000 x14:0x00800000  x6=0x00800000
       81595000	      8158	80003d08	00000013	addi	x0,x0,0	  x0:0x00000000
       81605000	      8159	80003d0c	02b17063	bgeu	x2,x11,80003d2c	  x2:0x000007d1 x11:0x00000001
       81615000	      8160	00000000	00000013	addi	x0,x0,0	  x0:0x00000000
       81625000	      8161	80003d28	00000013	addi	x0,x0,0	  x0:0x00000000
       81635000	      8162	80003d2c	005161b3	or	x3,x2,x5	  x2:0x000007d1  x5:0xc0000000  x3=0xc00007d1
       81645000	      8163	80003d30	00cabbb3	sltu	x23,x21,x12	 x21:0x000007a2 x12:0x6337eccc x23=0x00000001
       81655000	      8164	80003d34	8b0acf13	xori	x30,x21,-1872	 x21:0x000007a2 x30=0xffffff12
       81665000	      8165	80003d38	fc4afb13	andi	x22,x21,-60	 x21:0x000007a2 x22=0x00000780
       81675000	      8166	80003d3c	04bcc263	blt	x25,x11,80003d80	 x25:0x10f28c0c x11:0x00000001
       81685000	      8167	80003d40	41708733	sub	x14,x1,x23	  x1:0xfff00013 x23:0x00000001 x14=0xfff00012
       81695000	      8168	80003d44	15ed0a13	addi	x20,x26,350	 x26:0x80009f5c x20=0x8000a0ba
       81705000	      8169	80003d48	e146b997	auipc	x19,0xe146b	 x19=0x6146ed44
       81715000	      8170	80003d4c	00101733	sll	x14,x0,x1	  x0:0x00000000  x1:0xfff00013 x14=0x00000000
       81725000	      8171	80003d50	01b15863	bge	x2,x27,80003d60	  x2:0x000007d1 x27:0xf573b7aa
       81735000	      8172	00000000	00000013	addi	x0,x0,0	  x0:0x00000000
       81745000	      8173	80003d5c	00000013	addi	x0,x0,0	  x0:0x00000000
       81755000	      8174	80003d60	01c7d693	srli	x13,x15,0x1c	 x15:0xf573b7aa x13=0x0000000f
       81765000	      8175	80003d64	002ed313	srli	x6,x29,0x2	 x29:0x00000000  x6=0x00000000
       81775000	      8176	80003d68	02acc063	blt	x25,x10,80003d88	 x25:0x10f28c0c x10:0xfffffde2
       81785000	      8177	80003d6c	00854a63	blt	x10,x8,80003d80	 x10:0xfffffde2  x8:0x00000000
       81795000	      8178	00000000	00000013	addi	x0,x0,0	  x0:0x00000000
       81805000	      8179	80003d7c	00000013	addi	x0,x0,0	  x0:0x00000000
       81815000	      8180	80003d80	418f5993	srai	x19,x30,0x18	 x30:0xffffff12 x19=0xffffffff
       81825000	      8181	80003d84	01dd3833	sltu	x16,x26,x29	 x26:0x80009f5c x29:0x00000000 x16=0x00000000
       81835000	      8182	80003d88	019c1f13	slli	x30,x24,0x19	 x24:0x00000000 x30=0x00000000
       81845000	      8183	80003d8c	03097863	bgeu	x18,x16,80003dbc	 x18:0x00000000 x16:0x00000000
       81855000	      8184	00000000	00000013	addi	x0,x0,0	  x0:0x00000000
       81865000	      8185	80003db8	00000013	addi	x0,x0,0	  x0:0x00000000
       81875000	      8186	80003dbc	00b5dbb3	srl	x23,x11,x11	 x11:0x00000001 x11:0x00000001 x23=0x00000000
       81885000	      8187	80003dc0	8b3cf813	andi	x16,x25,-1869	 x25:0x10f28c0c x16=0x10f28800
       81895000	      8188	80003dc4	02230463	beq	x6,x2,80003dec	  x6:0x00000000  x2:0x000007d1
       81905000	      8189	80003dc8	03685863	bge	x16,x22,80003df8	 x16:0x10f28800 x22:0x00000780
       81915000	      8190	00000000	00000013	addi	x0,x0,0	  x0:0x00000000
       81925000	      8191	80003df4	00000013	addi	x0,x0,0	  x0:0x00000000
       81935000	      8192	80003df8	5637f1b7	lui	x3,0x5637f	  x3=0x5637f000
       81945000	      8193	80003dfc	b6d5a297	auipc	x5,0xb6d5a	  x5=0x36d5ddf8
       81955000	      8194	80003e00	00000013	addi	x0,x0,0	  x0:0x00000000
       81965000	      8195	80003e04	404e0a33	sub	x20,x28,x4	 x28:0x00000001  x4:0x00000000 x20=0x00000001
       81975000	      8196	80003e08	1b70ae13	slti	x28,x1,439	  x1:0xfff00013 x28=0x00000001
       81985000	      8197	80003e0c	01fb8bb3	add	x23,x23,x31	 x23:0x00000000 x31:0x00000000 x23=0x00000000
       81995000	      8198	80003e10	f0908093	addi	x1,x1,-247	  x1:0xfff00013  x1=0xffefff1c
       82005000	      8199	80003e14	01a6bf33	sltu	x30,x13,x26	 x13:0x0000000f x26:0x80009f5c x30=0x00000001
       82015000	      8200	80003e18	02c40a63	beq	x8,x12,80003e4c	  x8:0x00000000 x12:0x6337eccc
       82025000	      8201	80003e1c	061d6063	bltu	x26,x1,80003e7c	 x26:0x80009f5c  x1:0xffefff1c
       82035000	      8202	00000000	00000013	addi	x0,x0,0	  x0:0x00000000
       82045000	      8203	80003e78	00000013	addi	x0,x0,0	  x0:0x00000000
       82055000	      8204	80003e7c	02086397	auipc	x7,0x2086	  x7=0x82089e78
       82065000	      8205	80003e80	67406613	ori	x12,x0,1652	  x0:0x00000000 x12=0x00000674
       82075000	      8206	80003e84	00000013	addi	x0,x0,0	  x0:0x00000000
       82085000	      8207	80003e88	eabec213	xori	x4,x29,-341	 x29:0x00000000  x4=0xfffffeab
       82095000	      8208	80003e8c	02fa9663	bne	x21,x15,80003eb8	 x21:0x000007a2 x15:0xf573b7aa
       82105000	      8209	00000000	00000013	addi	x0,x0,0	  x0:0x00000000
       82115000	      8210	80003eb4	00000013	addi	x0,x0,0	  x0:0x00000000
       82125000	      8211	80003eb8	0014de33	srl	x28,x9,x1	  x9:0xc0000883  x1:0xffefff1c x28=0x0000000c
       82135000	      8212	80003ebc	01b223b3	slt	x7,x4,x27	  x4:0xfffffeab x27:0xf573b7aa  x7=0x00000000
       82145000	      8213	80003ec0	41dc5f33	sra	x30,x24,x29	 x24:0x00000000 x29:0x00000000 x30=0x00000000
       82155000	      8214	80003ec4	0247f063	bgeu	x15,x4,80003ee4	 x15:0xf573b7aa  x4:0xfffffeab
       82165000	      8215	80003ec8	00305033	srl	x0,x0,x3	  x0:0x00000000  x3:0x5637f000
       82175000	      8216	80003ecc	00f4c463	blt	x9,x15,80003ed4	  x9:0xc0000883 x15:0xf573b7aa
       82185000	      8217	00000000	00000013	addi	x0,x0,0	  x0:0x00000000
       82195000	      8218	80003ed0	00000013	addi	x0,x0,0	  x0:0x00000000
       82205000	      8219	80003ed4	d0604113	xori	x2,x0,-762	  x0:0x00000000  x2=0xfffffd06
       82215000	      8220	80003ed8	00e84c63	blt	x16,x14,80003ef0	 x16:0x10f28800 x14:0x00000000
       82225000	      8221	80003edc	02287a63	bgeu	x16,x2,80003f10	 x16:0x10f28800  x2:0xfffffd06
       82235000	      8222	80003ee0	017746b3	xor	x13,x14,x23	 x14:0x00000000 x23:0x00000000 x13=0x00000000
       82245000	      8223	80003ee4	40145013	srai	x0,x8,0x1	  x8:0x00000000
       82255000	      8224	80003ee8	0282c863	blt	x5,x8,80003f18	  x5:0x36d5ddf8  x8:0x00000000
       82265000	      8225	80003eec	00aa5b33	srl	x22,x20,x10	 x20:0x00000001 x10:0xfffffde2 x22=0x00000000
       82275000	      8226	80003ef0	00000013	addi	x0,x0,0	  x0:0x00000000
       82285000	      8227	80003ef4	00738a63	beq	x7,x7,80003f08	  x7:0x00000000  x7:0x00000000
       82295000	      8228	00000000	00000013	addi	x0,x0,0	  x0:0x00000000
       82305000	      8229	80003f04	00000013	addi	x0,x0,0	  x0:0x00000000
       82315000	      8230	80003f08	51eafd93	andi	x27,x21,1310	 x21:0x000007a2 x27=0x00000502
       82325000	      8231	80003f0c	d8af2493	slti	x9,x30,-630	 x30:0x00000000  x9=0x00000000
       82335000	      8232	80003f10	0153a0b3	slt	x1,x7,x21	  x7:0x00000000 x21:0x000007a2  x1=0x00000001
       82345000	      8233	80003f14	41c25693	srai	x13,x4,0x1c	  x4:0xfffffeab x13=0xffffffff
       82355000	      8234	80003f18	00bb81b3	add	x3,x23,x11	 x23:0x00000000 x11:0x00000001  x3=0x00000001
       82365000	      8235	80003f1c	00cb5333	srl	x6,x22,x12	 x22:0x00000000 x12:0x00000674  x6=0x00000000
       82375000	      8236	80003f20	00205313	srli	x6,x0,0x2	  x0:0x00000000  x6=0x00000000
       82385000	      8237	80003f24	006aa333	slt	x6,x21,x6	 x21:0x000007a2  x6:0x00000000  x6=0x00000000
       82395000	      8238	80003f28	00c97233	and	x4,x18,x12	 x18:0x00000000 x12:0x00000674  x4=0x00000000
       82405000	      8239	80003f2c	41fbdc33	sra	x24,x23,x31	 x23:0x00000000 x31:0x00000000 x24=0x00000000
       82415000	      8240	80003f30	04a50663	beq	x10,x10,80003f7c	 x10:0xfffffde2 x10:0xfffffde2
       82425000	      8241	00000000	00000013	addi	x0,x0,0	  x0:0x00000000
       82435000	      8242	80003f78	00000013	addi	x0,x0,0	  x0:0x00000000
       82445000	      8243	80003f7c	04541663	bne	x8,x5,80003fc8	  x8:0x00000000  x5:0x36d5ddf8
       82455000	      8244	00000000	00000013	addi	x0,x0,0	  x0:0x00000000
       82465000	      8245	80003fc4	00000013	addi	x0,x0,0	  x0:0x00000000
       82475000	      8246	80003fc8	007f2c33	slt	x24,x30,x7	 x30:0x00000000  x7:0x00000000 x24=0x00000000
       82485000	      8247	80003fcc	405a52b3	sra	x5,x20,x5	 x20:0x00000001  x5:0x36d5ddf8  x5=0x00000000
       82495000	      8248	80003fd0	01ee1a93	slli	x21,x28,0x1e	 x28:0x0000000c x21=0x00000000
       82505000	      8249	80003fd4	415ed013	srai	x0,x29,0x15	 x29:0x00000000
       82515000	      8250	80003fd8	0063fc33	and	x24,x7,x6	  x7:0x00000000  x6:0x00000000 x24=0x00000000
       82525000	      8251	80003fdc	73a2fd93	andi	x27,x5,1850	  x5:0x00000000 x27=0x00000000
       82535000	      8252	80003fe0	df8deb93	ori	x23,x27,-520	 x27:0x00000000 x23=0xfffffdf8
       82545000	      8253	80003fe4	02625063	bge	x4,x6,80004004	  x4:0x00000000  x6:0x00000000
       82555000	      8254	00000000	00000013	addi	x0,x0,0	  x0:0x00000000
       82565000	      8255	80004000	00000013	addi	x0,x0,0	  x0:0x00000000
       82575000	      8256	80004004	00c00233	add	x4,x0,x12	  x0:0x00000000 x12:0x00000674  x4=0x00000674
       82585000	      8257	80004008	03cbc063	blt	x23,x28,80004028	 x23:0xfffffdf8 x28:0x0000000c
       82595000	      8258	00000000	00000013	addi	x0,x0,0	  x0:0x00000000
       82605000	      8259	80004024	00000013	addi	x0,x0,0	  x0:0x00000000
       82615000	      8260	80004028	0158c233	xor	x4,x17,x21	 x17:0x80009fc4 x21:0x00000000  x4=0x80009fc4
       82625000	      8261	8000402c	b2a9c313	xori	x6,x19,-1238	 x19:0xffffffff  x6=0x000004d5
       82635000	      8262	80004030	012e8c33	add	x24,x29,x18	 x29:0x00000000 x18:0x00000000 x24=0x00000000
       82645000	      8263	80004034	9627c413	xori	x8,x15,-1694	 x15:0xf573b7aa  x8=0x0a8c4ec8
       82655000	      8264	80004038	afeb3693	sltiu	x13,x22,-1282	 x22:0x00000000 x13=0x00000001
       82665000	      8265	8000403c	002fbdb3	sltu	x27,x31,x2	 x31:0x00000000  x2:0xfffffd06 x27=0x00000001
       82675000	      8266	80004040	002d26b3	slt	x13,x26,x2	 x26:0x80009f5c  x2:0xfffffd06 x13=0x00000001
       82685000	      8267	80004044	03be6993	ori	x19,x28,59	 x28:0x0000000c x19=0x0000003f
       82695000	      8268	80004048	40b85ab3	sra	x21,x16,x11	 x16:0x10f28800 x11:0x00000001 x21=0x08794400
       82705000	      8269	8000404c	988b8193	addi	x3,x23,-1656	 x23:0xfffffdf8  x3=0xfffff780
       82715000	      8270	80004050	01c85813	srli	x16,x16,0x1c	 x16:0x10f28800 x16=0x00000001
       82725000	      8271	80004054	00a06db3	or	x27,x0,x10	  x0:0x00000000 x10:0xfffffde2 x27=0xfffffde2
       82735000	      8272	80004058	0123aa33	slt	x20,x7,x18	  x7:0x00000000 x18:0x00000000 x20=0x00000000
       82745000	      8273	8000405c	010bb733	sltu	x14,x23,x16	 x23:0xfffffdf8 x16:0x00000001 x14=0x00000000
       82755000	      8274	80004060	004d2303	lw	x6,4(x26)	 x26:0x80009f5c  x6=0x800040dc PA:0x80009f60
       82765000	      8275	80004064	00bf5813	srli	x16,x30,0xb	 x30:0x00000000 x16=0x00000000
       82775000	      8276	80004068	cbbeaf93	slti	x31,x29,-837	 x29:0x00000000 x31=0x00000000
       82785000	      8277	8000406c	40d85513	srai	x10,x16,0xd	 x16:0x00000000 x10=0x00000000
       82795000	      8278	80004070	40de5733	sra	x14,x28,x13	 x28:0x0000000c x13:0x00000001 x14=0x00000006
       82805000	      8279	80004074	01fdcdb3	xor	x27,x27,x31	 x27:0xfffffde2 x31:0x00000000 x27=0xfffffde2
       82815000	      8280	80004078	01cd0d13	addi	x26,x26,28	 x26:0x80009f5c x26=0x80009f78
       82825000	      8281	8000407c	01fc14b3	sll	x9,x24,x31	 x24:0x00000000 x31:0x00000000  x9=0x00000000
       82835000	      8282	80004080	01d2b6b3	sltu	x13,x5,x29	  x5:0x00000000 x29:0x00000000 x13=0x00000000
       82845000	      8283	80004084	0018b633	sltu	x12,x17,x1	 x17:0x80009fc4  x1:0x00000001 x12=0x00000000
       82855000	      8284	80004088	00130913	addi	x18,x6,1	  x6:0x800040dc x18=0x800040dd
       82865000	      8285	8000408c	00090967	jalr	x18,x18,0	 x18:0x800040dd x18=0x8000408c
       82875000	      8286	00000000	00000013	addi	x0,x0,0	  x0:0x00000000
       82885000	      8287	800040dc	00000013	addi	x0,x0,0	  x0:0x00000000
       82895000	      8288	800040e0	0180036f	jal	x6,800040e0	  x6=0x800040e0
       82905000	      8289	00000000	00000013	addi	x0,x0,0	  x0:0x00000000
       82915000	      8290	800040f4	00000013	addi	x0,x0,0	  x0:0x00000000
       82925000	      8291	800040f8	04400cef	jal	x25,800040f8	 x25=0x800040f8
       82935000	      8292	00000000	00000013	addi	x0,x0,0	  x0:0x00000000
       82945000	      8293	80004138	00000013	addi	x0,x0,0	  x0:0x00000000
       82955000	      8294	8000413c	fb9ff0ef	jal	x1,8000413c	  x1=0x8000413c
       82965000	      8295	00000000	00000013	addi	x0,x0,0	  x0:0x00000000
       82975000	      8296	800040f0	00000013	addi	x0,x0,0	  x0:0x00000000
       82985000	      8297	800040f4	008000ef	jal	x1,800040f4	  x1=0x800040f4
       82995000	      8298	00000000	00000013	addi	x0,x0,0	  x0:0x00000000
       83005000	      8299	800040f8	00000013	addi	x0,x0,0	  x0:0x00000000
       83015000	      8300	800040fc	0200036f	jal	x6,800040fc	  x6=0x800040fc
       83025000	      8301	00000000	00000013	addi	x0,x0,0	  x0:0x00000000
       83035000	      8302	80004118	00000013	addi	x0,x0,0	  x0:0x00000000
       83045000	      8303	8000411c	ffdff36f	jal	x6,8000411c	  x6=0x8000411c
       83055000	      8304	00000000	00000013	addi	x0,x0,0	  x0:0x00000000
       83065000	      8305	80004114	00000013	addi	x0,x0,0	  x0:0x00000000
       83075000	      8306	80004118	fd1ff0ef	jal	x1,80004118	  x1=0x80004118
       83085000	      8307	00000000	00000013	addi	x0,x0,0	  x0:0x00000000
       83095000	      8308	800040e4	00000013	addi	x0,x0,0	  x0:0x00000000
       83105000	      8309	800040e8	050000ef	jal	x1,800040e8	  x1=0x800040e8
       83115000	      8310	00000000	00000013	addi	x0,x0,0	  x0:0x00000000
       83125000	      8311	80004134	00000013	addi	x0,x0,0	  x0:0x00000000
       83135000	      8312	80004138	fd9ff36f	jal	x6,80004138	  x6=0x80004138
       83145000	      8313	00000000	00000013	addi	x0,x0,0	  x0:0x00000000
       83155000	      8314	8000410c	00000013	addi	x0,x0,0	  x0:0x00000000
       83165000	      8315	80004110	fddff0ef	jal	x1,80004110	  x1=0x80004110
       83175000	      8316	00000000	00000013	addi	x0,x0,0	  x0:0x00000000
       83185000	      8317	800040e8	00000013	addi	x0,x0,0	  x0:0x00000000
       83195000	      8318	800040ec	0200086f	jal	x16,800040ec	 x16=0x800040ec
       83205000	      8319	00000000	00000013	addi	x0,x0,0	  x0:0x00000000
       83215000	      8320	80004108	00000013	addi	x0,x0,0	  x0:0x00000000
       83225000	      8321	8000410c	fd9ff0ef	jal	x1,8000410c	  x1=0x8000410c
       83235000	      8322	00000000	00000013	addi	x0,x0,0	  x0:0x00000000
       83245000	      8323	800040e0	00000013	addi	x0,x0,0	  x0:0x00000000
       83255000	      8324	800040e4	0480036f	jal	x6,800040e4	  x6=0x800040e4
       83265000	      8325	00000000	00000013	addi	x0,x0,0	  x0:0x00000000
       83275000	      8326	80004128	00000013	addi	x0,x0,0	  x0:0x00000000
       83285000	      8327	8000412c	fe9ff36f	jal	x6,8000412c	  x6=0x8000412c
       83295000	      8328	00000000	00000013	addi	x0,x0,0	  x0:0x00000000
       83305000	      8329	80004110	00000013	addi	x0,x0,0	  x0:0x00000000
       83315000	      8330	80004114	020002ef	jal	x5,80004114	  x5=0x80004114
       83325000	      8331	00000000	00000013	addi	x0,x0,0	  x0:0x00000000
       83335000	      8332	80004130	00000013	addi	x0,x0,0	  x0:0x00000000
       83345000	      8333	80004134	fcdff5ef	jal	x11,80004134	 x11=0x80004134
       83355000	      8334	00000000	00000013	addi	x0,x0,0	  x0:0x00000000
       83365000	      8335	800040fc	00000013	addi	x0,x0,0	  x0:0x00000000
       83375000	      8336	80004100	0040086f	jal	x16,80004100	 x16=0x80004100
       83385000	      8337	00000000	00000013	addi	x0,x0,0	  x0:0x00000000
       83395000	      8338	80004100	00000013	addi	x0,x0,0	  x0:0x00000000
       83405000	      8339	80004104	fedff0ef	jal	x1,80004104	  x1=0x80004104
       83415000	      8340	00000000	00000013	addi	x0,x0,0	  x0:0x00000000
       83425000	      8341	800040ec	00000013	addi	x0,x0,0	  x0:0x00000000
       83435000	      8342	800040f0	018000ef	jal	x1,800040f0	  x1=0x800040f0
       83445000	      8343	00000000	00000013	addi	x0,x0,0	  x0:0x00000000
       83455000	      8344	80004104	00000013	addi	x0,x0,0	  x0:0x00000000
       83465000	      8345	80004108	038004ef	jal	x9,80004108	  x9=0x80004108
       83475000	      8346	00000000	00000013	addi	x0,x0,0	  x0:0x00000000
       83485000	      8347	8000413c	00000013	addi	x0,x0,0	  x0:0x00000000
       83495000	      8348	80004140	fe9ff36f	jal	x6,80004140	  x6=0x80004140
       83505000	      8349	00000000	00000013	addi	x0,x0,0	  x0:0x00000000
       83515000	      8350	80004124	00000013	addi	x0,x0,0	  x0:0x00000000
       83525000	      8351	80004128	ff9ff0ef	jal	x1,80004128	  x1=0x80004128
       83535000	      8352	00000000	00000013	addi	x0,x0,0	  x0:0x00000000
       83545000	      8353	8000411c	00000013	addi	x0,x0,0	  x0:0x00000000
       83555000	      8354	80004120	004000ef	jal	x1,80004120	  x1=0x80004120
       83565000	      8355	00000000	00000013	addi	x0,x0,0	  x0:0x00000000
       83575000	      8356	80004120	00000013	addi	x0,x0,0	  x0:0x00000000
       83585000	      8357	80004124	00c0046f	jal	x8,80004124	  x8=0x80004124
       83595000	      8358	00000000	00000013	addi	x0,x0,0	  x0:0x00000000
       83605000	      8359	8000412c	00000013	addi	x0,x0,0	  x0:0x00000000
       83615000	      8360	80004130	01400f6f	jal	x30,80004130	 x30=0x80004130
       83625000	      8361	00000000	00000013	addi	x0,x0,0	  x0:0x00000000
       83635000	      8362	80004140	00000013	addi	x0,x0,0	  x0:0x00000000
       83645000	      8363	80004144	00486133	or	x2,x16,x4	 x16:0x80004100  x4:0x80009fc4  x2=0x8000dfc4
       83655000	      8364	80004148	04c0036f	jal	x6,80004148	  x6=0x80004148
       83665000	      8365	00000000	00000013	addi	x0,x0,0	  x0:0x00000000
       83675000	      8366	80004190	00000013	addi	x0,x0,0	  x0:0x00000000
       83685000	      8367	80004194	0040036f	jal	x6,80004194	  x6=0x80004194
       83695000	      8368	00000000	00000013	addi	x0,x0,0	  x0:0x00000000
       83705000	      8369	80004194	00000013	addi	x0,x0,0	  x0:0x00000000
       83715000	      8370	80004198	fcdff0ef	jal	x1,80004198	  x1=0x80004198
       83725000	      8371	00000000	00000013	addi	x0,x0,0	  x0:0x00000000
       83735000	      8372	80004160	00000013	addi	x0,x0,0	  x0:0x00000000
       83745000	      8373	80004164	028000ef	jal	x1,80004164	  x1=0x80004164
       83755000	      8374	00000000	00000013	addi	x0,x0,0	  x0:0x00000000
       83765000	      8375	80004188	00000013	addi	x0,x0,0	  x0:0x00000000
       83775000	      8376	8000418c	010000ef	jal	x1,8000418c	  x1=0x8000418c
       83785000	      8377	00000000	00000013	addi	x0,x0,0	  x0:0x00000000
       83795000	      8378	80004198	00000013	addi	x0,x0,0	  x0:0x00000000
       83805000	      8379	8000419c	fe5ff0ef	jal	x1,8000419c	  x1=0x8000419c
       83815000	      8380	00000000	00000013	addi	x0,x0,0	  x0:0x00000000
       83825000	      8381	8000417c	00000013	addi	x0,x0,0	  x0:0x00000000
       83835000	      8382	80004180	ff5ff36f	jal	x6,80004180	  x6=0x80004180
       83845000	      8383	00000000	00000013	addi	x0,x0,0	  x0:0x00000000
       83855000	      8384	80004170	00000013	addi	x0,x0,0	  x0:0x00000000
       83865000	      8385	80004174	fd9ff0ef	jal	x1,80004174	  x1=0x80004174
       83875000	      8386	00000000	00000013	addi	x0,x0,0	  x0:0x00000000
       83885000	      8387	80004148	00000013	addi	x0,x0,0	  x0:0x00000000
       83895000	      8388	8000414c	0540026f	jal	x4,8000414c	  x4=0x8000414c
       83905000	      8389	00000000	00000013	addi	x0,x0,0	  x0:0x00000000
       83915000	      8390	8000419c	00000013	addi	x0,x0,0	  x0:0x00000000
       83925000	      8391	800041a0	fcdff36f	jal	x6,800041a0	  x6=0x800041a0
       83935000	      8392	00000000	00000013	addi	x0,x0,0	  x0:0x00000000
       83945000	      8393	80004168	00000013	addi	x0,x0,0	  x0:0x00000000
       83955000	      8394	8000416c	fe9ff0ef	jal	x1,8000416c	  x1=0x8000416c
       83965000	      8395	00000000	00000013	addi	x0,x0,0	  x0:0x00000000
       83975000	      8396	80004150	00000013	addi	x0,x0,0	  x0:0x00000000
       83985000	      8397	80004154	0280026f	jal	x4,80004154	  x4=0x80004154
       83995000	      8398	00000000	00000013	addi	x0,x0,0	  x0:0x00000000
       84005000	      8399	80004178	00000013	addi	x0,x0,0	  x0:0x00000000
       84015000	      8400	8000417c	fe1ff0ef	jal	x1,8000417c	  x1=0x8000417c
       84025000	      8401	00000000	00000013	addi	x0,x0,0	  x0:0x00000000
       84035000	      8402	80004158	00000013	addi	x0,x0,0	  x0:0x00000000
       84045000	      8403	8000415c	01c000ef	jal	x1,8000415c	  x1=0x8000415c
       84055000	      8404	00000000	00000013	addi	x0,x0,0	  x0:0x00000000
       84065000	      8405	80004174	00000013	addi	x0,x0,0	  x0:0x00000000
       84075000	      8406	80004178	fe1ffcef	jal	x25,80004178	 x25=0x80004178
       84085000	      8407	00000000	00000013	addi	x0,x0,0	  x0:0x00000000
       84095000	      8408	80004154	00000013	addi	x0,x0,0	  x0:0x00000000
       84105000	      8409	80004158	030000ef	jal	x1,80004158	  x1=0x80004158
       84115000	      8410	00000000	00000013	addi	x0,x0,0	  x0:0x00000000
       84125000	      8411	80004184	00000013	addi	x0,x0,0	  x0:0x00000000
       84135000	      8412	80004188	ffdff0ef	jal	x1,80004188	  x1=0x80004188
       84145000	      8413	00000000	00000013	addi	x0,x0,0	  x0:0x00000000
       84155000	      8414	80004180	00000013	addi	x0,x0,0	  x0:0x00000000
       84165000	      8415	80004184	fcdff0ef	jal	x1,80004184	  x1=0x80004184
       84175000	      8416	00000000	00000013	addi	x0,x0,0	  x0:0x00000000
       84185000	      8417	8000414c	00000013	addi	x0,x0,0	  x0:0x00000000
       84195000	      8418	80004150	018000ef	jal	x1,80004150	  x1=0x80004150
       84205000	      8419	00000000	00000013	addi	x0,x0,0	  x0:0x00000000
       84215000	      8420	80004164	00000013	addi	x0,x0,0	  x0:0x00000000
       84225000	      8421	80004168	028003ef	jal	x7,80004168	  x7=0x80004168
       84235000	      8422	00000000	00000013	addi	x0,x0,0	  x0:0x00000000
       84245000	      8423	8000418c	00000013	addi	x0,x0,0	  x0:0x00000000
       84255000	      8424	80004190	014000ef	jal	x1,80004190	  x1=0x80004190
       84265000	      8425	00000000	00000013	addi	x0,x0,0	  x0:0x00000000
       84275000	      8426	800041a0	00000013	addi	x0,x0,0	  x0:0x00000000
       84285000	      8427	800041a4	fcdff36f	jal	x6,800041a4	  x6=0x800041a4
       84295000	      8428	00000000	00000013	addi	x0,x0,0	  x0:0x00000000
       84305000	      8429	8000416c	00000013	addi	x0,x0,0	  x0:0x00000000
       84315000	      8430	80004170	ff1ff0ef	jal	x1,80004170	  x1=0x80004170
       84325000	      8431	00000000	00000013	addi	x0,x0,0	  x0:0x00000000
       84335000	      8432	8000415c	00000013	addi	x0,x0,0	  x0:0x00000000
       84345000	      8433	80004160	04800e6f	jal	x28,80004160	 x28=0x80004160
       84355000	      8434	00000000	00000013	addi	x0,x0,0	  x0:0x00000000
       84365000	      8435	800041a4	00000013	addi	x0,x0,0	  x0:0x00000000
       84375000	      8436	800041a8	2075aa13	slti	x20,x11,519	 x11:0x80004134 x20=0x00000001
       84385000	      8437	800041ac	0100036f	jal	x6,800041ac	  x6=0x800041ac
       84395000	      8438	00000000	00000013	addi	x0,x0,0	  x0:0x00000000
       84405000	      8439	800041b8	00000013	addi	x0,x0,0	  x0:0x00000000
       84415000	      8440	800041bc	024000ef	jal	x1,800041bc	  x1=0x800041bc
       84425000	      8441	00000000	00000013	addi	x0,x0,0	  x0:0x00000000
       84435000	      8442	800041dc	00000013	addi	x0,x0,0	  x0:0x00000000
       84445000	      8443	800041e0	ff1ff36f	jal	x6,800041e0	  x6=0x800041e0
       84455000	      8444	00000000	00000013	addi	x0,x0,0	  x0:0x00000000
       84465000	      8445	800041cc	00000013	addi	x0,x0,0	  x0:0x00000000
       84475000	      8446	800041d0	fe9ff0ef	jal	x1,800041d0	  x1=0x800041d0
       84485000	      8447	00000000	00000013	addi	x0,x0,0	  x0:0x00000000
       84495000	      8448	800041b4	00000013	addi	x0,x0,0	  x0:0x00000000
       84505000	      8449	800041b8	02c00eef	jal	x29,800041b8	 x29=0x800041b8
       84515000	      8450	00000000	00000013	addi	x0,x0,0	  x0:0x00000000
       84525000	      8451	800041e0	00000013	addi	x0,x0,0	  x0:0x00000000
       84535000	      8452	800041e4	ff1ff16f	jal	x2,800041e4	  x2=0x800041e4
       84545000	      8453	00000000	00000013	addi	x0,x0,0	  x0:0x00000000
       84555000	      8454	800041d0	00000013	addi	x0,x0,0	  x0:0x00000000
       84565000	      8455	800041d4	fddffeef	jal	x29,800041d4	 x29=0x800041d4
       84575000	      8456	00000000	00000013	addi	x0,x0,0	  x0:0x00000000
       84585000	      8457	800041ac	00000013	addi	x0,x0,0	  x0:0x00000000
       84595000	      8458	800041b0	02c0036f	jal	x6,800041b0	  x6=0x800041b0
       84605000	      8459	00000000	00000013	addi	x0,x0,0	  x0:0x00000000
       84615000	      8460	800041d8	00000013	addi	x0,x0,0	  x0:0x00000000
       84625000	      8461	800041dc	ffdff0ef	jal	x1,800041dc	  x1=0x800041dc
       84635000	      8462	00000000	00000013	addi	x0,x0,0	  x0:0x00000000
       84645000	      8463	800041d4	00000013	addi	x0,x0,0	  x0:0x00000000
       84655000	      8464	800041d8	ff1ff0ef	jal	x1,800041d8	  x1=0x800041d8
       84665000	      8465	00000000	00000013	addi	x0,x0,0	  x0:0x00000000
       84675000	      8466	800041c4	00000013	addi	x0,x0,0	  x0:0x00000000
       84685000	      8467	800041c8	fedff36f	jal	x6,800041c8	  x6=0x800041c8
       84695000	      8468	00000000	00000013	addi	x0,x0,0	  x0:0x00000000
       84705000	      8469	800041b0	00000013	addi	x0,x0,0	  x0:0x00000000
       84715000	      8470	800041b4	00c000ef	jal	x1,800041b4	  x1=0x800041b4
       84725000	      8471	00000000	00000013	addi	x0,x0,0	  x0:0x00000000
       84735000	      8472	800041bc	00000013	addi	x0,x0,0	  x0:0x00000000
       84745000	      8473	800041c0	028000ef	jal	x1,800041c0	  x1=0x800041c0
       84755000	      8474	00000000	00000013	addi	x0,x0,0	  x0:0x00000000
       84765000	      8475	800041e4	00000013	addi	x0,x0,0	  x0:0x00000000
       84775000	      8476	800041e8	fddff0ef	jal	x1,800041e8	  x1=0x800041e8
       84785000	      8477	00000000	00000013	addi	x0,x0,0	  x0:0x00000000
       84795000	      8478	800041c0	00000013	addi	x0,x0,0	  x0:0x00000000
       84805000	      8479	800041c4	0080036f	jal	x6,800041c4	  x6=0x800041c4
       84815000	      8480	00000000	00000013	addi	x0,x0,0	  x0:0x00000000
       84825000	      8481	800041c8	00000013	addi	x0,x0,0	  x0:0x00000000
       84835000	      8482	800041cc	0200036f	jal	x6,800041cc	  x6=0x800041cc
       84845000	      8483	00000000	00000013	addi	x0,x0,0	  x0:0x00000000
       84855000	      8484	800041e8	00000013	addi	x0,x0,0	  x0:0x00000000
       84865000	      8485	800041ec	0d75f113	andi	x2,x11,215	 x11:0x80004134  x2=0x00000014
       84875000	      8486	800041f0	031a9c63	bne	x21,x17,80004228	 x21:0x08794400 x17:0x80009fc4
       84885000	      8487	00000000	00000013	addi	x0,x0,0	  x0:0x00000000
       84895000	      8488	80004224	00000013	addi	x0,x0,0	  x0:0x00000000
       84905000	      8489	80004228	07da9863	bne	x21,x29,80004298	 x21:0x08794400 x29:0x800041d4
       84915000	      8490	00000000	00000013	addi	x0,x0,0	  x0:0x00000000
       84925000	      8491	80004294	00000013	addi	x0,x0,0	  x0:0x00000000
       84935000	      8492	80004298	fb9ff5ef	jal	x11,80004298	 x11=0x80004298
       84945000	      8493	00000000	00000013	addi	x0,x0,0	  x0:0x00000000
       84955000	      8494	8000424c	00000013	addi	x0,x0,0	  x0:0x00000000
       84965000	      8495	80004250	030001ef	jal	x3,80004250	  x3=0x80004250
       84975000	      8496	00000000	00000013	addi	x0,x0,0	  x0:0x00000000
       84985000	      8497	8000427c	00000013	addi	x0,x0,0	  x0:0x00000000
       84995000	      8498	80004280	fd9ff0ef	jal	x1,80004280	  x1=0x80004280
       85005000	      8499	00000000	00000013	addi	x0,x0,0	  x0:0x00000000
       85015000	      8500	80004254	00000013	addi	x0,x0,0	  x0:0x00000000
       85025000	      8501	80004258	008000ef	jal	x1,80004258	  x1=0x80004258
       85035000	      8502	00000000	00000013	addi	x0,x0,0	  x0:0x00000000
       85045000	      8503	8000425c	00000013	addi	x0,x0,0	  x0:0x00000000
       85055000	      8504	80004260	ff5ff0ef	jal	x1,80004260	  x1=0x80004260
       85065000	      8505	00000000	00000013	addi	x0,x0,0	  x0:0x00000000
       85075000	      8506	80004250	00000013	addi	x0,x0,0	  x0:0x00000000
       85085000	      8507	80004254	0200016f	jal	x2,80004254	  x2=0x80004254
       85095000	      8508	00000000	00000013	addi	x0,x0,0	  x0:0x00000000
       85105000	      8509	80004270	00000013	addi	x0,x0,0	  x0:0x00000000
       85115000	      8510	80004274	fc5ff1ef	jal	x3,80004274	  x3=0x80004274
       85125000	      8511	00000000	00000013	addi	x0,x0,0	  x0:0x00000000
       85135000	      8512	80004234	00000013	addi	x0,x0,0	  x0:0x00000000
       85145000	      8513	80004238	050000ef	jal	x1,80004238	  x1=0x80004238
       85155000	      8514	00000000	00000013	addi	x0,x0,0	  x0:0x00000000
       85165000	      8515	80004284	00000013	addi	x0,x0,0	  x0:0x00000000
       85175000	      8516	80004288	fadff0ef	jal	x1,80004288	  x1=0x80004288
       85185000	      8517	00000000	00000013	addi	x0,x0,0	  x0:0x00000000
       85195000	      8518	80004230	00000013	addi	x0,x0,0	  x0:0x00000000
       85205000	      8519	80004234	03c00e6f	jal	x28,80004234	 x28=0x80004234
       85215000	      8520	00000000	00000013	addi	x0,x0,0	  x0:0x00000000
       85225000	      8521	8000426c	00000013	addi	x0,x0,0	  x0:0x00000000
       85235000	      8522	80004270	fc1ff16f	jal	x2,80004270	  x2=0x80004270
       85245000	      8523	00000000	00000013	addi	x0,x0,0	  x0:0x00000000
       85255000	      8524	8000422c	00000013	addi	x0,x0,0	  x0:0x00000000
       85265000	      8525	80004230	01c0036f	jal	x6,80004230	  x6=0x80004230
       85275000	      8526	00000000	00000013	addi	x0,x0,0	  x0:0x00000000
       85285000	      8527	80004248	00000013	addi	x0,x0,0	  x0:0x00000000
       85295000	      8528	8000424c	ffdff0ef	jal	x1,8000424c	  x1=0x8000424c
       85305000	      8529	00000000	00000013	addi	x0,x0,0	  x0:0x00000000
       85315000	      8530	80004244	00000013	addi	x0,x0,0	  x0:0x00000000
       85325000	      8531	80004248	ff5ff86f	jal	x16,80004248	 x16=0x80004248
       85335000	      8532	00000000	00000013	addi	x0,x0,0	  x0:0x00000000
       85345000	      8533	80004238	00000013	addi	x0,x0,0	  x0:0x00000000
       85355000	      8534	8000423c	02c000ef	jal	x1,8000423c	  x1=0x8000423c
       85365000	      8535	00000000	00000013	addi	x0,x0,0	  x0:0x00000000
       85375000	      8536	80004264	00000013	addi	x0,x0,0	  x0:0x00000000
       85385000	      8537	80004268	ff5ff0ef	jal	x1,80004268	  x1=0x80004268
       85395000	      8538	00000000	00000013	addi	x0,x0,0	  x0:0x00000000
       85405000	      8539	80004258	00000013	addi	x0,x0,0	  x0:0x00000000
       85415000	      8540	8000425c	0280036f	jal	x6,8000425c	  x6=0x8000425c
       85425000	      8541	00000000	00000013	addi	x0,x0,0	  x0:0x00000000
       85435000	      8542	80004280	00000013	addi	x0,x0,0	  x0:0x00000000
       85445000	      8543	80004284	0180036f	jal	x6,80004284	  x6=0x80004284
       85455000	      8544	00000000	00000013	addi	x0,x0,0	  x0:0x00000000
       85465000	      8545	80004298	00000013	addi	x0,x0,0	  x0:0x00000000
       85475000	      8546	8000429c	fa9ff96f	jal	x18,8000429c	 x18=0x8000429c
       85485000	      8547	00000000	00000013	addi	x0,x0,0	  x0:0x00000000
       85495000	      8548	80004240	00000013	addi	x0,x0,0	  x0:0x00000000
       85505000	      8549	80004244	05c000ef	jal	x1,80004244	  x1=0x80004244
       85515000	      8550	00000000	00000013	addi	x0,x0,0	  x0:0x00000000
       85525000	      8551	8000429c	00000013	addi	x0,x0,0	  x0:0x00000000
       85535000	      8552	800042a0	0dc1f093	andi	x1,x3,220	  x3:0x80004274  x1=0x00000054
       85545000	      8553	800042a4	11e6d717	auipc	x14,0x11e6d	 x14=0x91e712a0
       85555000	      8554	800042a8	68a02f93	slti	x31,x0,1674	  x0:0x00000000 x31=0x00000001
       85565000	      8555	800042ac	40515f93	srai	x31,x2,0x5	  x2:0x80004270 x31=0xfc000213
       85575000	      8556	800042b0	41165013	srai	x0,x12,0x11	 x12:0x00000000
       85585000	      8557	800042b4	03315663	bge	x2,x19,800042e0	  x2:0x80004270 x19:0x0000003f
       85595000	      8558	800042b8	01461833	sll	x16,x12,x20	 x12:0x00000000 x20:0x00000001 x16=0x00000000
       85605000	      8559	800042bc	9d3c6293	ori	x5,x24,-1581	 x24:0x00000000  x5=0xfffff9d3
       85615000	      8560	800042c0	054f1863	bne	x30,x20,80004310	 x30:0x80004130 x20:0x00000001
       85625000	      8561	00000000	00000013	addi	x0,x0,0	  x0:0x00000000
       85635000	      8562	8000430c	00000013	addi	x0,x0,0	  x0:0x00000000
       85645000	      8563	80004310	00000013	addi	x0,x0,0	  x0:0x00000000
       85655000	      8564	80004314	41e85c33	sra	x24,x16,x30	 x16:0x00000000 x30:0x80004130 x24=0x00000000
       85665000	      8565	80004318	c99c3d93	sltiu	x27,x24,-871	 x24:0x00000000 x27=0x00000001
       85675000	      8566	8000431c	01941993	slli	x19,x8,0x19	  x8:0x80004124 x19=0x48000000
       85685000	      8567	80004320	012759b3	srl	x19,x14,x18	 x14:0x91e712a0 x18:0x8000429c x19=0x00000009
       85695000	      8568	80004324	1c3e7713	andi	x14,x28,451	 x28:0x80004234 x14=0x00000000
       85705000	      8569	80004328	00349033	sll	x0,x9,x3	  x9:0x80004108  x3:0x80004274
       85715000	      8570	8000432c	40815193	srai	x3,x2,0x8	  x2:0x80004270  x3=0xff800042
       85725000	      8571	80004330	a3358313	addi	x6,x11,-1485	 x11:0x80004298  x6=0x80003ccb
       85735000	      8572	80004334	0666c913	xori	x18,x13,102	 x13:0x00000000 x18=0x00000066
       85745000	      8573	80004338	edf36b37	lui	x22,0xedf36	 x22=0xedf36000
       85755000	      8574	8000433c	059d9463	bne	x27,x25,80004384	 x27:0x00000001 x25:0x80004178
       85765000	      8575	00000000	00000013	addi	x0,x0,0	  x0:0x00000000
       85775000	      8576	80004380	00000013	addi	x0,x0,0	  x0:0x00000000
       85785000	      8577	80004384	00000013	addi	x0,x0,0	  x0:0x00000000
       85795000	      8578	80004388	006e9463	bne	x29,x6,80004390	 x29:0x800041d4  x6:0x80003ccb
       85805000	      8579	00000000	00000013	addi	x0,x0,0	  x0:0x00000000
       85815000	      8580	8000438c	00000013	addi	x0,x0,0	  x0:0x00000000
       85825000	      8581	80004390	40e75393	srai	x7,x14,0xe	 x14:0x00000000  x7=0x00000000
       85835000	      8582	80004394	a62930b7	lui	x1,0xa6293	  x1=0xa6293000
       85845000	      8583	80004398	00751833	sll	x16,x10,x7	 x10:0x00000000  x7:0x00000000 x16=0x00000000
       85855000	      8584	8000439c	00000013	addi	x0,x0,0	  x0:0x00000000
       85865000	      8585	800043a0	d3814d93	xori	x27,x2,-712	  x2:0x80004270 x27=0x7fffbf48
       85875000	      8586	800043a4	7f286f93	ori	x31,x16,2034	 x16:0x00000000 x31=0x000007f2
       85885000	      8587	800043a8	3ca28c13	addi	x24,x5,970	  x5:0xfffff9d3 x24=0xfffffd9d
       85895000	      8588	800043ac	41205f93	srai	x31,x0,0x12	  x0:0x00000000 x31=0x00000000
       85905000	      8589	800043b0	03f9c263	blt	x19,x31,800043d4	 x19:0x00000009 x31:0x00000000
       85915000	      8590	800043b4	0e7de693	ori	x13,x27,231	 x27:0x7fffbf48 x13=0x7fffbfef
       85925000	      8591	800043b8	00339733	sll	x14,x7,x3	  x7:0x00000000  x3:0xff800042 x14=0x00000000
       85935000	      8592	800043bc	05a45863	bge	x8,x26,8000440c	  x8:0x80004124 x26:0x80009f78
       85945000	      8593	800043c0	00273133	sltu	x2,x14,x2	 x14:0x00000000  x2:0x80004270  x2=0x00000001
       85955000	      8594	800043c4	f4962813	slti	x16,x12,-183	 x12:0x00000000 x16=0x00000000
       85965000	      8595	800043c8	00ab4f33	xor	x30,x22,x10	 x22:0xedf36000 x10:0x00000000 x30=0xedf36000
       85975000	      8596	800043cc	402bd393	srai	x7,x23,0x2	 x23:0xfffffdf8  x7=0xffffff7e
       85985000	      8597	800043d0	01223ab3	sltu	x21,x4,x18	  x4:0x80004154 x18:0x00000066 x21=0x00000000
       85995000	      8598	800043d4	01dc1633	sll	x12,x24,x29	 x24:0xfffffd9d x29:0x800041d4 x12=0xd9d00000
       86005000	      8599	800043d8	014e4663	blt	x28,x20,800043e4	 x28:0x80004234 x20:0x00000001
       86015000	      8600	00000000	00000013	addi	x0,x0,0	  x0:0x00000000
       86025000	      8601	800043e0	00000013	addi	x0,x0,0	  x0:0x00000000
       86035000	      8602	800043e4	0507d463	bge	x15,x16,8000442c	 x15:0xf573b7aa x16:0x00000000
       86045000	      8603	800043e8	386be593	ori	x11,x23,902	 x23:0xfffffdf8 x11=0xfffffffe
       86055000	      8604	800043ec	405a03b3	sub	x7,x20,x5	 x20:0x00000001  x5:0xfffff9d3  x7=0x0000062e
       86065000	      8605	800043f0	915e9297	auipc	x5,0x915e9	  x5=0x115ed3ec
       86075000	      8606	800043f4	444fe993	ori	x19,x31,1092	 x31:0x00000000 x19=0x00000444
       86085000	      8607	800043f8	000d5eb3	srl	x29,x26,x0	 x26:0x80009f78  x0:0x00000000 x29=0x80009f78
       86095000	      8608	800043fc	025ce263	bltu	x25,x5,80004420	 x25:0x80004178  x5:0x115ed3ec
       86105000	      8609	80004400	01ad4e33	xor	x28,x26,x26	 x26:0x80009f78 x26:0x80009f78 x28=0x00000000
       86115000	      8610	80004404	01c515b3	sll	x11,x10,x28	 x10:0x00000000 x28:0x00000000 x11=0x00000000
       86125000	      8611	80004408	41d68133	sub	x2,x13,x29	 x13:0x7fffbfef x29:0x80009f78  x2=0xffff2077
       86135000	      8612	8000440c	01ab7a63	bgeu	x22,x26,80004420	 x22:0xedf36000 x26:0x80009f78
       86145000	      8613	00000000	00000013	addi	x0,x0,0	  x0:0x00000000
       86155000	      8614	8000441c	00000013	addi	x0,x0,0	  x0:0x00000000
       86165000	      8615	80004420	2103fb93	andi	x23,x7,528	  x7:0x0000062e x23=0x00000200
       86175000	      8616	80004424	0009c9b3	xor	x19,x19,x0	 x19:0x00000444  x0:0x00000000 x19=0x00000444
       86185000	      8617	80004428	00000013	addi	x0,x0,0	  x0:0x00000000
       86195000	      8618	8000442c	41388533	sub	x10,x17,x19	 x17:0x80009fc4 x19:0x00000444 x10=0x80009b80
       86205000	      8619	80004430	02dbca63	blt	x23,x13,80004464	 x23:0x00000200 x13:0x7fffbfef
       86215000	      8620	00000000	00000013	addi	x0,x0,0	  x0:0x00000000
       86225000	      8621	80004460	00000013	addi	x0,x0,0	  x0:0x00000000
       86235000	      8622	80004464	03438663	beq	x7,x20,80004490	  x7:0x0000062e x20:0x00000001
       86245000	      8623	80004468	38b96693	ori	x13,x18,907	 x18:0x00000066 x13=0x000003ef
       86255000	      8624	8000446c	019a5193	srli	x3,x20,0x19	 x20:0x00000001  x3=0x00000000
       86265000	      8625	80004470	0025d933	srl	x18,x11,x2	 x11:0x00000000  x2:0xffff2077 x18=0x00000000
       86275000	      8626	80004474	032ee863	bltu	x29,x18,800044a4	 x29:0x80009f78 x18:0x00000000
       86285000	      8627	80004478	63101037	lui	x0,0x63101	
       86295000	      8628	8000447c	01588663	beq	x17,x21,80004488	 x17:0x80009fc4 x21:0x00000000
       86305000	      8629	80004480	4081d5b3	sra	x11,x3,x8	  x3:0x00000000  x8:0x80004124 x11=0x00000000
       86315000	      8630	80004484	004acf33	xor	x30,x21,x4	 x21:0x00000000  x4:0x80004154 x30=0x80004154
       86325000	      8631	80004488	6c0ccf93	xori	x31,x25,1728	 x25:0x80004178 x31=0x800047b8
       86335000	      8632	8000448c	c8743593	sltiu	x11,x8,-889	  x8:0x80004124 x11=0x00000001
       86345000	      8633	80004490	00964e63	blt	x12,x9,800044ac	 x12:0xd9d00000  x9:0x80004108
       86355000	      8634	80004494	00faea63	bltu	x21,x15,800044a8	 x21:0x00000000 x15:0xf573b7aa
       86365000	      8635	00000000	00000013	addi	x0,x0,0	  x0:0x00000000
       86375000	      8636	800044a4	00000013	addi	x0,x0,0	  x0:0x00000000
       86385000	      8637	800044a8	41705c93	srai	x25,x0,0x17	  x0:0x00000000 x25=0x00000000
       86395000	      8638	800044ac	0001adb3	slt	x27,x3,x0	  x3:0x00000000  x0:0x00000000 x27=0x00000000
       86405000	      8639	800044b0	3f356c93	ori	x25,x10,1011	 x10:0x80009b80 x25=0x80009bf3
       86415000	      8640	800044b4	4a8c4f17	auipc	x30,0x4a8c4	 x30=0xca8c84b0
       86425000	      8641	800044b8	0031fbb3	and	x23,x3,x3	  x3:0x00000000  x3:0x00000000 x23=0x00000000
       86435000	      8642	800044bc	4037d033	sra	x0,x15,x3	 x15:0xf573b7aa  x3:0x00000000
       86445000	      8643	800044c0	40455f33	sra	x30,x10,x4	 x10:0x80009b80  x4:0x80004154 x30=0xfffff800
       86455000	      8644	800044c4	023a9663	bne	x21,x3,800044f0	 x21:0x00000000  x3:0x00000000
       86465000	      8645	800044c8	03e40a63	beq	x8,x30,800044fc	  x8:0x80004124 x30:0xfffff800
       86475000	      8646	800044cc	ef4a2113	slti	x2,x20,-268	 x20:0x00000001  x2=0x00000000
       86485000	      8647	800044d0	cf7e2693	slti	x13,x28,-777	 x28:0x00000000 x13=0x00000000
       86495000	      8648	800044d4	017a9693	slli	x13,x21,0x17	 x21:0x00000000 x13=0x00000000
       86505000	      8649	800044d8	00e041b3	xor	x3,x0,x14	  x0:0x00000000 x14:0x00000000  x3=0x00000000
       86515000	      8650	800044dc	40c984b3	sub	x9,x19,x12	 x19:0x00000444 x12:0xd9d00000  x9=0x26300444
       86525000	      8651	800044e0	01d296b3	sll	x13,x5,x29	  x5:0x115ed3ec x29:0x80009f78 x13=0xec000000
       86535000	      8652	800044e4	006d6f33	or	x30,x26,x6	 x26:0x80009f78  x6:0x80003ccb x30=0x8000bffb
       86545000	      8653	800044e8	03346263	bltu	x8,x19,8000450c	  x8:0x80004124 x19:0x00000444
       86555000	      8654	800044ec	002a1213	slli	x4,x20,0x2	 x20:0x00000001  x4=0x00000004
       86565000	      8655	800044f0	003483b3	add	x7,x9,x3	  x9:0x26300444  x3:0x00000000  x7=0x26300444
       86575000	      8656	800044f4	00000013	addi	x0,x0,0	  x0:0x00000000
       86585000	      8657	800044f8	01db4033	xor	x0,x22,x29	 x22:0xedf36000 x29:0x80009f78
       86595000	      8658	800044fc	01c2f863	bgeu	x5,x28,8000450c	  x5:0x115ed3ec x28:0x00000000
       86605000	      8659	00000000	00000013	addi	x0,x0,0	  x0:0x00000000
       86615000	      8660	80004508	00000013	addi	x0,x0,0	  x0:0x00000000
       86625000	      8661	8000450c	af834817	auipc	x16,0xaf834	 x16=0x2f838508
       86635000	      8662	80004510	1edaac13	slti	x24,x21,493	 x21:0x00000000 x24=0x00000001
       86645000	      8663	80004514	00000013	addi	x0,x0,0	  x0:0x00000000
       86655000	      8664	80004518	0098d863	bge	x17,x9,80004528	 x17:0x80009fc4  x9:0x26300444
       86665000	      8665	8000451c	75744e13	xori	x28,x8,1879	  x8:0x80004124 x28=0x80004673
       86675000	      8666	80004520	01375e33	srl	x28,x14,x19	 x14:0x00000000 x19:0x00000444 x28=0x00000000
       86685000	      8667	80004524	41a28cb3	sub	x25,x5,x26	  x5:0x115ed3ec x26:0x80009f78 x25=0x915e3474
       86695000	      8668	80004528	00f7bfb3	sltu	x31,x15,x15	 x15:0xf573b7aa x15:0xf573b7aa x31=0x00000000
       86705000	      8669	8000452c	047e4463	blt	x28,x7,80004574	 x28:0x00000000  x7:0x26300444
       86715000	      8670	00000000	00000013	addi	x0,x0,0	  x0:0x00000000
       86725000	      8671	80004570	00000013	addi	x0,x0,0	  x0:0x00000000
       86735000	      8672	80004574	01c99d93	slli	x27,x19,0x1c	 x19:0x00000444 x27=0x40000000
       86745000	      8673	80004578	c547b493	sltiu	x9,x15,-940	 x15:0xf573b7aa  x9=0x00000001
       86755000	      8674	8000457c	4110db93	srai	x23,x1,0x11	  x1:0xa6293000 x23=0xffffd314
       86765000	      8675	80004580	00675933	srl	x18,x14,x6	 x14:0x00000000  x6:0x80003ccb x18=0x00000000
       86775000	      8676	80004584	105fb093	sltiu	x1,x31,261	 x31:0x00000000  x1=0x00000001
       86785000	      8677	80004588	002e6c63	bltu	x28,x2,800045a0	 x28:0x00000000  x2:0x00000000
       86795000	      8678	8000458c	00d71193	slli	x3,x14,0xd	 x14:0x00000000  x3=0x00000000
       86805000	      8679	80004590	415100b3	sub	x1,x2,x21	  x2:0x00000000 x21:0x00000000  x1=0x00000000
       86815000	      8680	80004594	00650e63	beq	x10,x6,800045b0	 x10:0x80009b80  x6:0x80003ccb
       86825000	      8681	80004598	008b8e33	add	x28,x23,x8	 x23:0xffffd314  x8:0x80004124 x28=0x80001438
       86835000	      8682	8000459c	40695133	sra	x2,x18,x6	 x18:0x00000000  x6:0x80003ccb  x2=0x00000000
       86845000	      8683	800045a0	01b35e93	srli	x29,x6,0x1b	  x6:0x80003ccb x29=0x00000010
       86855000	      8684	800045a4	02f74c63	blt	x14,x15,800045dc	 x14:0x00000000 x15:0xf573b7aa
       86865000	      8685	800045a8	03448a93	addi	x21,x9,52	  x9:0x00000001 x21=0x00000035
       86875000	      8686	800045ac	00e4eab3	or	x21,x9,x14	  x9:0x00000001 x14:0x00000000 x21=0x00000001
       86885000	      8687	800045b0	403c0bb3	sub	x23,x24,x3	 x24:0x00000001  x3:0x00000000 x23=0x00000001
       86895000	      8688	800045b4	00a89433	sll	x8,x17,x10	 x17:0x80009fc4 x10:0x80009b80  x8=0x80009fc4
       86905000	      8689	800045b8	405edb13	srai	x22,x29,0x5	 x29:0x00000010 x22=0x00000000
       86915000	      8690	800045bc	00395e33	srl	x28,x18,x3	 x18:0x00000000  x3:0x00000000 x28=0x00000000
       86925000	      8691	800045c0	3233eb93	ori	x23,x7,803	  x7:0x26300444 x23=0x26300767
       86935000	      8692	800045c4	01c60eb3	add	x29,x12,x28	 x12:0xd9d00000 x28:0x00000000 x29=0xd9d00000
       86945000	      8693	800045c8	00630b33	add	x22,x6,x6	  x6:0x80003ccb  x6:0x80003ccb x22=0x00007996
       86955000	      8694	800045cc	0573e863	bltu	x7,x23,8000461c	  x7:0x26300444 x23:0x26300767
       86965000	      8695	00000000	00000013	addi	x0,x0,0	  x0:0x00000000
       86975000	      8696	80004618	00000013	addi	x0,x0,0	  x0:0x00000000
       86985000	      8697	8000461c	5abfe113	ori	x2,x31,1451	 x31:0x00000000  x2=0x000005ab
       86995000	      8698	80004620	00d45913	srli	x18,x8,0xd	  x8:0x80009fc4 x18=0x00040004
       87005000	      8699	80004624	81d48313	addi	x6,x9,-2019	  x9:0x00000001  x6=0xfffff81e
       87015000	      8700	80004628	018beb33	or	x22,x23,x24	 x23:0x26300767 x24:0x00000001 x22=0x26300767
       87025000	      8701	8000462c	019db9b3	sltu	x19,x27,x25	 x27:0x40000000 x25:0x915e3474 x19=0x00000001
       87035000	      8702	80004630	008a3033	sltu	x0,x20,x8	 x20:0x00000001  x8:0x80009fc4
       87045000	      8703	80004634	41488833	sub	x16,x17,x20	 x17:0x80009fc4 x20:0x00000001 x16=0x80009fc3
       87055000	      8704	80004638	004d2303	lw	x6,4(x26)	 x26:0x80009f78  x6=0x8000017c PA:0x80009f7c
       87065000	      8705	8000463c	972f6013	ori	x0,x30,-1678	 x30:0x8000bffb
       87075000	      8706	80004640	41a25013	srai	x0,x4,0x1a	  x4:0x00000004
       87085000	      8707	80004644	00cd0d13	addi	x26,x26,12	 x26:0x80009f78 x26=0x80009f84
       87095000	      8708	80004648	405f5993	srai	x19,x30,0x5	 x30:0x8000bffb x19=0xfc0005ff
       87105000	      8709	8000464c	00130a93	addi	x21,x6,1	  x6:0x8000017c x21=0x8000017d
       87115000	      8710	80004650	000a8ae7	jalr	x21,x21,0	 x21:0x8000017d x21=0x80004650
       87125000	      8711	00000000	00000013	addi	x0,x0,0	  x0:0x00000000
       87135000	      8712	8000017c	00000013	addi	x0,x0,0	  x0:0x00000000
       87145000	      8713	80000180	0200036f	jal	x6,80000180	  x6=0x80000180
       87155000	      8714	00000000	00000013	addi	x0,x0,0	  x0:0x00000000
       87165000	      8715	8000019c	00000013	addi	x0,x0,0	  x0:0x00000000
       87175000	      8716	800001a0	ff9ff36f	jal	x6,800001a0	  x6=0x800001a0
       87185000	      8717	00000000	00000013	addi	x0,x0,0	  x0:0x00000000
       87195000	      8718	80000194	00000013	addi	x0,x0,0	  x0:0x00000000
       87205000	      8719	80000198	0140096f	jal	x18,80000198	 x18=0x80000198
       87215000	      8720	00000000	00000013	addi	x0,x0,0	  x0:0x00000000
       87225000	      8721	800001a8	00000013	addi	x0,x0,0	  x0:0x00000000
       87235000	      8722	800001ac	fe9ff16f	jal	x2,800001ac	  x2=0x800001ac
       87245000	      8723	00000000	00000013	addi	x0,x0,0	  x0:0x00000000
       87255000	      8724	80000190	00000013	addi	x0,x0,0	  x0:0x00000000
       87265000	      8725	80000194	ff9ff36f	jal	x6,80000194	  x6=0x80000194
       87275000	      8726	00000000	00000013	addi	x0,x0,0	  x0:0x00000000
       87285000	      8727	80000188	00000013	addi	x0,x0,0	  x0:0x00000000
       87295000	      8728	8000018c	01800fef	jal	x31,8000018c	 x31=0x8000018c
       87305000	      8729	00000000	00000013	addi	x0,x0,0	  x0:0x00000000
       87315000	      8730	800001a0	00000013	addi	x0,x0,0	  x0:0x00000000
       87325000	      8731	800001a4	fe1ff0ef	jal	x1,800001a4	  x1=0x800001a4
       87335000	      8732	00000000	00000013	addi	x0,x0,0	  x0:0x00000000
       87345000	      8733	80000180	00000013	addi	x0,x0,0	  x0:0x00000000
       87355000	      8734	80000184	02c000ef	jal	x1,80000184	  x1=0x80000184
       87365000	      8735	00000000	00000013	addi	x0,x0,0	  x0:0x00000000
       87375000	      8736	800001ac	00000013	addi	x0,x0,0	  x0:0x00000000
       87385000	      8737	800001b0	ff9ff36f	jal	x6,800001b0	  x6=0x800001b0
       87395000	      8738	00000000	00000013	addi	x0,x0,0	  x0:0x00000000
       87405000	      8739	800001a4	00000013	addi	x0,x0,0	  x0:0x00000000
       87415000	      8740	800001a8	00c000ef	jal	x1,800001a8	  x1=0x800001a8
       87425000	      8741	00000000	00000013	addi	x0,x0,0	  x0:0x00000000
       87435000	      8742	800001b0	00000013	addi	x0,x0,0	  x0:0x00000000
       87445000	      8743	800001b4	fd5ff0ef	jal	x1,800001b4	  x1=0x800001b4
       87455000	      8744	00000000	00000013	addi	x0,x0,0	  x0:0x00000000
       87465000	      8745	80000184	00000013	addi	x0,x0,0	  x0:0x00000000
       87475000	      8746	80000188	0080016f	jal	x2,80000188	  x2=0x80000188
       87485000	      8747	00000000	00000013	addi	x0,x0,0	  x0:0x00000000
       87495000	      8748	8000018c	00000013	addi	x0,x0,0	  x0:0x00000000
       87505000	      8749	80000190	028000ef	jal	x1,80000190	  x1=0x80000190
       87515000	      8750	00000000	00000013	addi	x0,x0,0	  x0:0x00000000
       87525000	      8751	800001b4	00000013	addi	x0,x0,0	  x0:0x00000000
       87535000	      8752	800001b8	fe5ff0ef	jal	x1,800001b8	  x1=0x800001b8
       87545000	      8753	00000000	00000013	addi	x0,x0,0	  x0:0x00000000
       87555000	      8754	80000198	00000013	addi	x0,x0,0	  x0:0x00000000
       87565000	      8755	8000019c	020000ef	jal	x1,8000019c	  x1=0x8000019c
       87575000	      8756	00000000	00000013	addi	x0,x0,0	  x0:0x00000000
       87585000	      8757	800001b8	00000013	addi	x0,x0,0	  x0:0x00000000
       87595000	      8758	800001bc	41b00ab3	sub	x21,x0,x27	  x0:0x00000000 x27:0x40000000 x21=0xc0000000
       87605000	      8759	800001c0	d1363213	sltiu	x4,x12,-749	 x12:0xd9d00000  x4=0x00000001
       87615000	      8760	800001c4	f73fa493	slti	x9,x31,-141	 x31:0x8000018c  x9=0x00000001
       87625000	      8761	800001c8	41a1dfb3	sra	x31,x3,x26	  x3:0x00000000 x26:0x80009f84 x31=0x00000000
       87635000	      8762	800001cc	01fad393	srli	x7,x21,0x1f	 x21:0xc0000000  x7=0x00000001
       87645000	      8763	800001d0	00606833	or	x16,x0,x6	  x0:0x00000000  x6:0x800001b0 x16=0x800001b0
       87655000	      8764	800001d4	00d7cdb3	xor	x27,x15,x13	 x15:0xf573b7aa x13:0xec000000 x27=0x1973b7aa
       87665000	      8765	800001d8	410086b3	sub	x13,x1,x16	  x1:0x8000019c x16:0x800001b0 x13=0xffffffec
       87675000	      8766	800001dc	004a05b3	add	x11,x20,x4	 x20:0x00000001  x4:0x00000001 x11=0x00000002
       87685000	      8767	800001e0	01331863	bne	x6,x19,800001f0	  x6:0x800001b0 x19:0xfc0005ff
       87695000	      8768	00000000	00000013	addi	x0,x0,0	  x0:0x00000000
       87705000	      8769	800001ec	00000013	addi	x0,x0,0	  x0:0x00000000
       87715000	      8770	800001f0	3988ab93	slti	x23,x17,920	 x17:0x80009fc4 x23=0x00000001
       87725000	      8771	800001f4	0402df97	auipc	x31,0x402d	 x31=0x8402d1f0
       87735000	      8772	800001f8	003baeb3	slt	x29,x23,x3	 x23:0x00000001  x3:0x00000000 x29=0x00000000
       87745000	      8773	800001fc	af564f13	xori	x30,x12,-1291	 x12:0xd9d00000 x30=0x262ffaf5
       87755000	      8774	80000200	002bcdb3	xor	x27,x23,x2	 x23:0x00000001  x2:0x80000188 x27=0x80000189
       87765000	      8775	80000204	f31afe93	andi	x29,x21,-207	 x21:0xc0000000 x29=0xc0000000
       87775000	      8776	80000208	1c078f13	addi	x30,x15,448	 x15:0xf573b7aa x30=0xf573b96a
       87785000	      8777	8000020c	16b9e193	ori	x3,x19,363	 x19:0xfc0005ff  x3=0xfc0005ff
       87795000	      8778	80000210	0144ae33	slt	x28,x9,x20	  x9:0x00000001 x20:0x00000001 x28=0x00000000
       87805000	      8779	80000214	011d4b33	xor	x22,x26,x17	 x26:0x80009f84 x17:0x80009fc4 x22=0x00000040
       87815000	      8780	80000218	2232de97	auipc	x29,0x2232d	 x29=0xa232d214
       87825000	      8781	8000021c	0025cbb3	xor	x23,x11,x2	 x11:0x00000002  x2:0x80000188 x23=0x8000018a
       87835000	      8782	80000220	408383b3	sub	x7,x7,x8	  x7:0x00000001  x8:0x80009fc4  x7=0x7fff603d
       87845000	      8783	80000224	15d54393	xori	x7,x10,349	 x10:0x80009b80  x7=0x80009add
       87855000	      8784	80000228	01fc69b3	or	x19,x24,x31	 x24:0x00000001 x31:0x8402d1f0 x19=0x8402d1f1
       87865000	      8785	8000022c	01e53733	sltu	x14,x10,x30	 x10:0x80009b80 x30:0xf573b96a x14=0x00000001
       87875000	      8786	80000230	03549a63	bne	x9,x21,80000264	  x9:0x00000001 x21:0xc0000000
       87885000	      8787	00000000	00000013	addi	x0,x0,0	  x0:0x00000000
       87895000	      8788	80000260	00000013	addi	x0,x0,0	  x0:0x00000000
       87905000	      8789	80000264	65473413	sltiu	x8,x14,1620	 x14:0x00000001  x8=0x00000001
       87915000	      8790	80000268	00dd1f93	slli	x31,x26,0xd	 x26:0x80009f84 x31=0x13f08000
       87925000	      8791	8000026c	01a17e33	and	x28,x2,x26	  x2:0x80000188 x26:0x80009f84 x28=0x80000180
       87935000	      8792	80000270	03a39863	bne	x7,x26,800002a0	  x7:0x80009add x26:0x80009f84
       87945000	      8793	00000000	00000013	addi	x0,x0,0	  x0:0x00000000
       87955000	      8794	8000029c	00000013	addi	x0,x0,0	  x0:0x00000000
       87965000	      8795	800002a0	000c1a13	slli	x20,x24,0x0	 x24:0x00000001 x20=0x00000001
       87975000	      8796	800002a4	003cafb3	slt	x31,x25,x3	 x25:0x915e3474  x3:0xfc0005ff x31=0x00000001
       87985000	      8797	800002a8	0359c863	blt	x19,x21,800002d8	 x19:0x8402d1f1 x21:0xc0000000
       87995000	      8798	00000000	00000013	addi	x0,x0,0	  x0:0x00000000
       88005000	      8799	800002d4	00000013	addi	x0,x0,0	  x0:0x00000000
       88015000	      8800	800002d8	00984733	xor	x14,x16,x9	 x16:0x800001b0  x9:0x00000001 x14=0x800001b1
       88025000	      8801	800002dc	7cd6c297	auipc	x5,0x7cd6c	  x5=0xfcd6c2d8
       88035000	      8802	800002e0	0057f1b3	and	x3,x15,x5	 x15:0xf573b7aa  x5:0xfcd6c2d8  x3=0xf4528288
       88045000	      8803	800002e4	2b2aa113	slti	x2,x21,690	 x21:0xc0000000  x2=0x00000001
       88055000	      8804	800002e8	02657463	bgeu	x10,x6,80000310	 x10:0x80009b80  x6:0x800001b0
       88065000	      8805	00000000	00000013	addi	x0,x0,0	  x0:0x00000000
       88075000	      8806	8000030c	00000013	addi	x0,x0,0	  x0:0x00000000
       88085000	      8807	80000310	013ac533	xor	x10,x21,x19	 x21:0xc0000000 x19:0x8402d1f1 x10=0x4402d1f1
       88095000	      8808	80000314	00000797	auipc	x15,0x0	 x15=0x80000310
       88105000	      8809	80000318	00c78793	addi	x15,x15,12	 x15:0x80000310 x15=0x8000031c
       88115000	      8810	8000031c	00078067	jalr	x0,x15,0	 x15:0x8000031c
       88125000	      8811	00000000	00000013	addi	x0,x0,0	  x0:0x00000000
       88135000	      8812	8000031c	00000013	addi	x0,x0,0	  x0:0x00000000
       88145000	      8813	80000320	00100193	addi	x3,x0,1	  x0:0x00000000  x3=0x00000001
       88155000	      8814	80000324	00000073	ecall	
       88165000	      8815	80000328	014a3bb3	sltu	x23,x20,x20	 x20:0x00000001 x20:0x00000001 x23=0x00000000
