		Time			Cycle	PC		Insn	Decoded instruction	Register and memory contents
          65000	         5	80000004	00000293	addi	x5,x0,0	  x0:0x00000000  x5=0x00000000
          75000	         6	80000008	00000313	addi	x6,x0,0	  x0:0x00000000  x6=0x00000000
          85000	         7	8000000c	00628263	beq	x5,x6,80000010	  x5:0x00000000  x6:0x00000000
          95000	         8	00000000	00000013	addi	x0,x0,0	  x0:0x00000000
         105000	         9	8000000c	00000013	addi	x0,x0,0	  x0:0x00000000
         115000	        10	80000010	00000617	auipc	x12,0x0	 x12=0x8000000c
         125000	        11	80000014	00c60613	addi	x12,x12,12	 x12:0x8000000c x12=0x80000018
         135000	        12	80000018	00060067	jalr	x0,x12,0	 x12:0x80000018
         145000	        13	00000000	00000013	addi	x0,x0,0	  x0:0x00000000
         155000	        14	80000018	00000013	addi	x0,x0,0	  x0:0x00000000
         165000	        15	8000001c	400008b7	lui	x17,0x40000	 x17=0x40000000
         175000	        16	80000020	10088893	addi	x17,x17,256	 x17:0x40000000 x17=0x40000100
         185000	        17	80000024	00000013	addi	x0,x0,0	  x0:0x00000000
         195000	        18	80000028	0000af17	auipc	x30,0xa	 x30=0x8000a024
         205000	        19	8000002c	fa0f0f13	addi	x30,x30,-96	 x30:0x8000a024 x30=0x80009fc4
         215000	        20	80000030	00004897	auipc	x17,0x4	 x17=0x8000402c
         225000	        21	80000034	65c88893	addi	x17,x17,1628	 x17:0x8000402c x17=0x80004688
         235000	        22	80000038	0008e893	ori	x17,x17,0	 x17:0x80004688 x17=0x80004688
         245000	        23	8000003c	00000013	addi	x0,x0,0	  x0:0x00000000
         255000	        24	80000040	00000897	auipc	x17,0x0	 x17=0x8000003c
         265000	        25	80000044	02088893	addi	x17,x17,32	 x17:0x8000003c x17=0x8000005c
         275000	        26	80000048	00000013	addi	x0,x0,0	  x0:0x00000000
         285000	        27	8000004c	00000013	addi	x0,x0,0	  x0:0x00000000
         295000	        28	80000050	000028b7	lui	x17,0x2	 x17=0x00002000
         305000	        29	80000054	80088893	addi	x17,x17,-2048	 x17:0x00002000 x17=0x00001800
         315000	        30	80000058	00000013	addi	x0,x0,0	  x0:0x00000000
         325000	        31	8000005c	00000013	addi	x0,x0,0	  x0:0x00000000
         335000	        32	80000060	00800013	addi	x0,x0,8	  x0:0x00000000
         345000	        33	80000064	eb6140b7	lui	x1,0xeb614	  x1=0xeb614000
         355000	        34	80000068	77f08093	addi	x1,x1,1919	  x1:0xeb614000  x1=0xeb61477f
         365000	        35	8000006c	00700113	addi	x2,x0,7	  x0:0x00000000  x2=0x00000007
         375000	        36	80000070	f26121b7	lui	x3,0xf2612	  x3=0xf2612000
         385000	        37	80000074	3b818193	addi	x3,x3,952	  x3:0xf2612000  x3=0xf26123b8
         395000	        38	80000078	a95f3237	lui	x4,0xa95f3	  x4=0xa95f3000
         405000	        39	8000007c	9d220213	addi	x4,x4,-1582	  x4:0xa95f3000  x4=0xa95f29d2
         415000	        40	80000080	00000293	addi	x5,x0,0	  x0:0x00000000  x5=0x00000000
         425000	        41	80000084	be33f337	lui	x6,0xbe33f	  x6=0xbe33f000
         435000	        42	80000088	da030313	addi	x6,x6,-608	  x6:0xbe33f000  x6=0xbe33eda0
         445000	        43	8000008c	ab2653b7	lui	x7,0xab265	  x7=0xab265000
         455000	        44	80000090	be738393	addi	x7,x7,-1049	  x7:0xab265000  x7=0xab264be7
         465000	        45	80000094	00000413	addi	x8,x0,0	  x0:0x00000000  x8=0x00000000
         475000	        46	80000098	fac5d4b7	lui	x9,0xfac5d	  x9=0xfac5d000
         485000	        47	8000009c	9a048493	addi	x9,x9,-1632	  x9:0xfac5d000  x9=0xfac5c9a0
         495000	        48	800000a0	80000537	lui	x10,0x80000	 x10=0x80000000
         505000	        49	800000a4	00000593	addi	x11,x0,0	  x0:0x00000000 x11=0x00000000
         515000	        50	800000a8	00000613	addi	x12,x0,0	  x0:0x00000000 x12=0x00000000
         525000	        51	800000ac	800006b7	lui	x13,0x80000	 x13=0x80000000
         535000	        52	800000b0	00300713	addi	x14,x0,3	  x0:0x00000000 x14=0x00000003
         545000	        53	800000b4	1968b7b7	lui	x15,0x1968b	 x15=0x1968b000
         555000	        54	800000b8	ba478793	addi	x15,x15,-1116	 x15:0x1968b000 x15=0x1968aba4
         565000	        55	800000bc	80000837	lui	x16,0x80000	 x16=0x80000000
         575000	        56	800000c0	800008b7	lui	x17,0x80000	 x17=0x80000000
         585000	        57	800000c4	f1219937	lui	x18,0xf1219	 x18=0xf1219000
         595000	        58	800000c8	ed690913	addi	x18,x18,-298	 x18:0xf1219000 x18=0xf1218ed6
         605000	        59	800000cc	800009b7	lui	x19,0x80000	 x19=0x80000000
         615000	        60	800000d0	00400a93	addi	x21,x0,4	  x0:0x00000000 x21=0x00000004
         625000	        61	800000d4	00000b13	addi	x22,x0,0	  x0:0x00000000 x22=0x00000000
         635000	        62	800000d8	93782bb7	lui	x23,0x93782	 x23=0x93782000
         645000	        63	800000dc	ec5b8b93	addi	x23,x23,-315	 x23:0x93782000 x23=0x93781ec5
         655000	        64	800000e0	f16b8c37	lui	x24,0xf16b8	 x24=0xf16b8000
         665000	        65	800000e4	f62c0c13	addi	x24,x24,-158	 x24:0xf16b8000 x24=0xf16b7f62
         675000	        66	800000e8	00500c93	addi	x25,x0,5	  x0:0x00000000 x25=0x00000005
         685000	        67	800000ec	f3cc4d37	lui	x26,0xf3cc4	 x26=0xf3cc4000
         695000	        68	800000f0	75fd0d13	addi	x26,x26,1887	 x26:0xf3cc4000 x26=0xf3cc475f
         705000	        69	800000f4	00000d93	addi	x27,x0,0	  x0:0x00000000 x27=0x00000000
         715000	        70	800000f8	00b00e13	addi	x28,x0,11	  x0:0x00000000 x28=0x0000000b
         725000	        71	800000fc	00000e93	addi	x29,x0,0	  x0:0x00000000 x29=0x00000000
         735000	        72	80000100	f2c9ffb7	lui	x31,0xf2c9f	 x31=0xf2c9f000
         745000	        73	80000104	d7cf8f93	addi	x31,x31,-644	 x31:0xf2c9f000 x31=0xf2c9ed7c
         755000	        74	80000108	0000aa17	auipc	x20,0xa	 x20=0x8000a104
         765000	        75	8000010c	e80a0a13	addi	x20,x20,-384	 x20:0x8000a104 x20=0x80009f84
         775000	        76	80000110	01269013	slli	x0,x13,0x12	 x13:0x80000000
         785000	        77	80000114	015e2833	slt	x16,x28,x21	 x28:0x0000000b x21:0x00000004 x16=0x00000000
         795000	        78	80000118	1acab093	sltiu	x1,x21,428	 x21:0x00000004  x1=0x00000001
         805000	        79	8000011c	60227b93	andi	x23,x4,1538	  x4:0xa95f29d2 x23=0x00000002
         815000	        80	80000120	00002897	auipc	x17,0x2	 x17=0x8000211c
         825000	        81	80000124	23088893	addi	x17,x17,560	 x17:0x8000211c x17=0x8000234c
         835000	        82	80000128	01bef033	and	x0,x29,x27	 x29:0x00000000 x27:0x00000000
         845000	        83	8000012c	ffb88893	addi	x17,x17,-5	 x17:0x8000234c x17=0x80002347
         855000	        84	80000130	00249713	slli	x14,x9,0x2	  x9:0xfac5c9a0 x14=0xeb172680
         865000	        85	80000134	005880e7	jalr	x1,x17,5	 x17:0x80002347  x1=0x80000134
         875000	        86	00000000	00000013	addi	x0,x0,0	  x0:0x00000000
         885000	        87	8000234c	00000013	addi	x0,x0,0	  x0:0x00000000
         895000	        88	80002350	00ce4cb3	xor	x25,x28,x12	 x28:0x0000000b x12:0x00000000 x25=0x0000000b
         905000	        89	80002354	6972a1b7	lui	x3,0x6972a	  x3=0x6972a000
         915000	        90	80002358	e3f4fb37	lui	x22,0xe3f4f	 x22=0xe3f4f000
         925000	        91	8000235c	009f9413	slli	x8,x31,0x9	 x31:0xf2c9ed7c  x8=0x93daf800
         935000	        92	80002360	6506b437	lui	x8,0x6506b	  x8=0x6506b000
         945000	        93	80002364	009fe733	or	x14,x31,x9	 x31:0xf2c9ed7c  x9:0xfac5c9a0 x14=0xfacdedfc
         955000	        94	80002368	00e31463	bne	x6,x14,80002370	  x6:0xbe33eda0 x14:0xfacdedfc
         965000	        95	00000000	00000013	addi	x0,x0,0	  x0:0x00000000
         975000	        96	8000236c	00000013	addi	x0,x0,0	  x0:0x00000000
         985000	        97	80002370	ff4a0a13	addi	x20,x20,-12	 x20:0x80009f84 x20=0x80009f78
         995000	        98	80002374	001a2223	sw	x1,4(x20)	 x20:0x80009f78  x1:0x80000134 PA:0x80009f7c
        1005000	        99	80002378	005c7833	and	x16,x24,x5	 x24:0xf16b7f62  x5:0x00000000 x16=0x00000000
        1015000	       100	8000237c	4132dc33	sra	x24,x5,x19	  x5:0x00000000 x19:0x80000000 x24=0x00000000
        1025000	       101	80002380	2fe12493	slti	x9,x2,766	  x2:0x00000007  x9=0x00000001
        1035000	       102	80002384	01181b93	slli	x23,x16,0x11	 x16:0x00000000 x23=0x00000000
        1045000	       103	80002388	016ef8b3	and	x17,x29,x22	 x29:0x00000000 x22:0xe3f4f000 x17=0x00000000
        1055000	       104	8000238c	004ad393	srli	x7,x21,0x4	 x21:0x00000004  x7=0x00000000
        1065000	       105	80002390	00000013	addi	x0,x0,0	  x0:0x00000000
        1075000	       106	80002394	007a4333	xor	x6,x20,x7	 x20:0x80009f78  x7:0x00000000  x6=0x80009f78
        1085000	       107	80002398	e65fd0ef	jal	x1,80002398	  x1=0x80002398
        1095000	       108	00000000	00000013	addi	x0,x0,0	  x0:0x00000000
        1105000	       109	800001f8	00000013	addi	x0,x0,0	  x0:0x00000000
        1115000	       110	800001fc	0094bbb3	sltu	x23,x9,x9	  x9:0x00000001  x9:0x00000001 x23=0x00000000
        1125000	       111	80000200	017c7533	and	x10,x24,x23	 x24:0x00000000 x23:0x00000000 x10=0x00000000
        1135000	       112	80000204	01bbf733	and	x14,x23,x27	 x23:0x00000000 x27:0x00000000 x14=0x00000000
        1145000	       113	80000208	0092c263	blt	x5,x9,8000020c	  x5:0x00000000  x9:0x00000001
        1155000	       114	00000000	00000013	addi	x0,x0,0	  x0:0x00000000
        1165000	       115	80000208	00000013	addi	x0,x0,0	  x0:0x00000000
        1175000	       116	8000020c	fe4a0a13	addi	x20,x20,-28	 x20:0x80009f78 x20=0x80009f5c
        1185000	       117	80000210	d92a4e93	xori	x29,x20,-622	 x20:0x80009f5c x29=0x7fff62ce
        1195000	       118	80000214	00000013	addi	x0,x0,0	  x0:0x00000000
        1205000	       119	80000218	001a2223	sw	x1,4(x20)	 x20:0x80009f5c  x1:0x80002398 PA:0x80009f60
        1215000	       120	8000021c	41aadfb3	sra	x31,x21,x26	 x21:0x00000004 x26:0xf3cc475f x31=0x00000000
        1225000	       121	80000220	007de1b3	or	x3,x27,x7	 x27:0x00000000  x7:0x00000000  x3=0x00000000
        1235000	       122	80000224	00002e17	auipc	x28,0x2	 x28=0x80002220
        1245000	       123	80000228	07ce0e13	addi	x28,x28,124	 x28:0x80002220 x28=0x8000229c
        1255000	       124	8000022c	005ccb33	xor	x22,x25,x5	 x25:0x0000000b  x5:0x00000000 x22=0x0000000b
        1265000	       125	80000230	40635033	sra	x0,x6,x6	  x6:0x80009f78  x6:0x80009f78
        1275000	       126	80000234	c7de0e13	addi	x28,x28,-899	 x28:0x8000229c x28=0x80001f19
        1285000	       127	80000238	00000013	addi	x0,x0,0	  x0:0x00000000
        1295000	       128	8000023c	002f5d33	srl	x26,x30,x2	 x30:0x80009fc4  x2:0x00000007 x26=0x0100013f
        1305000	       129	80000240	35f2fc13	andi	x24,x5,863	  x5:0x00000000 x24=0x00000000
        1315000	       130	80000244	383e00e7	jalr	x1,x28,899	 x28:0x80001f19  x1=0x80000244
        1325000	       131	00000000	00000013	addi	x0,x0,0	  x0:0x00000000
        1335000	       132	8000229c	00000013	addi	x0,x0,0	  x0:0x00000000
        1345000	       133	800022a0	01962233	slt	x4,x12,x25	 x12:0x00000000 x25:0x0000000b  x4=0x00000001
        1355000	       134	800022a4	01ae0233	add	x4,x28,x26	 x28:0x80001f19 x26:0x0100013f  x4=0x81002058
        1365000	       135	800022a8	fd0a0a13	addi	x20,x20,-48	 x20:0x80009f5c x20=0x80009f2c
        1375000	       136	800022ac	3e9bfe97	auipc	x29,0x3e9bf	 x29=0xbe9c12a8
        1385000	       137	800022b0	001a2223	sw	x1,4(x20)	 x20:0x80009f2c  x1:0x80000244 PA:0x80009f30
        1395000	       138	800022b4	01995e33	srl	x28,x18,x25	 x18:0xf1218ed6 x25:0x0000000b x28=0x001e2431
        1405000	       139	800022b8	dd36bc93	sltiu	x25,x13,-557	 x13:0x80000000 x25=0x00000001
        1415000	       140	800022bc	411ad413	srai	x8,x21,0x11	 x21:0x00000004  x8=0x00000000
        1425000	       141	800022c0	d2828393	addi	x7,x5,-728	  x5:0x00000000  x7=0xfffffd28
        1435000	       142	800022c4	042f4063	blt	x30,x2,80002304	 x30:0x80009fc4  x2:0x00000007
        1445000	       143	00000000	00000013	addi	x0,x0,0	  x0:0x00000000
        1455000	       144	80002300	00000013	addi	x0,x0,0	  x0:0x00000000
        1465000	       145	80002304	017dc7b3	xor	x15,x27,x23	 x27:0x00000000 x23:0x00000000 x15=0x00000000
        1475000	       146	80002308	54587f93	andi	x31,x16,1349	 x16:0x00000000 x31=0x00000000
        1485000	       147	8000230c	f7f77913	andi	x18,x14,-129	 x14:0x00000000 x18=0x00000000
        1495000	       148	80002310	e8a03c93	sltiu	x25,x0,-374	  x0:0x00000000 x25=0x00000001
        1505000	       149	80002314	01a49a63	bne	x9,x26,80002328	  x9:0x00000001 x26:0x0100013f
        1515000	       150	00000000	00000013	addi	x0,x0,0	  x0:0x00000000
        1525000	       151	80002324	00000013	addi	x0,x0,0	  x0:0x00000000
        1535000	       152	80002328	00c449b3	xor	x19,x8,x12	  x8:0x00000000 x12:0x00000000 x19=0x00000000
        1545000	       153	8000232c	f2eebb93	sltiu	x23,x29,-210	 x29:0xbe9c12a8 x23=0x00000001
        1555000	       154	80002330	004a2083	lw	x1,4(x20)	 x20:0x80009f2c  x1=0x80000244 PA:0x80009f30
        1565000	       155	80002334	21617c93	andi	x25,x2,534	  x2:0x00000007 x25=0x00000006
        1575000	       156	80002338	755c0837	lui	x16,0x755c0	 x16=0x755c0000
        1585000	       157	8000233c	030a0a13	addi	x20,x20,48	 x20:0x80009f2c x20=0x80009f5c
        1595000	       158	80002340	012fbf93	sltiu	x31,x31,18	 x31:0x00000000 x31=0x00000001
        1605000	       159	80002344	d94ae693	ori	x13,x21,-620	 x21:0x00000004 x13=0xfffffd94
        1615000	       160	80002348	00008213	addi	x4,x1,0	  x1:0x80000244  x4=0x80000244
        1625000	       161	8000234c	00020267	jalr	x4,x4,0	  x4:0x80000244  x4=0x8000234c
        1635000	       162	00000000	00000013	addi	x0,x0,0	  x0:0x00000000
        1645000	       163	80000244	00000013	addi	x0,x0,0	  x0:0x00000000
        1655000	       164	80000248	018000ef	jal	x1,80000248	  x1=0x80000248
        1665000	       165	00000000	00000013	addi	x0,x0,0	  x0:0x00000000
        1675000	       166	8000025c	00000013	addi	x0,x0,0	  x0:0x00000000
        1685000	       167	80000260	0080096f	jal	x18,80000260	 x18=0x80000260
        1695000	       168	00000000	00000013	addi	x0,x0,0	  x0:0x00000000
        1705000	       169	80000264	00000013	addi	x0,x0,0	  x0:0x00000000
        1715000	       170	80000268	030000ef	jal	x1,80000268	  x1=0x80000268
        1725000	       171	00000000	00000013	addi	x0,x0,0	  x0:0x00000000
        1735000	       172	80000294	00000013	addi	x0,x0,0	  x0:0x00000000
        1745000	       173	80000298	fcdff0ef	jal	x1,80000298	  x1=0x80000298
        1755000	       174	00000000	00000013	addi	x0,x0,0	  x0:0x00000000
        1765000	       175	80000260	00000013	addi	x0,x0,0	  x0:0x00000000
        1775000	       176	80000264	03c000ef	jal	x1,80000264	  x1=0x80000264
        1785000	       177	00000000	00000013	addi	x0,x0,0	  x0:0x00000000
        1795000	       178	8000029c	00000013	addi	x0,x0,0	  x0:0x00000000
        1805000	       179	800002a0	fbdff0ef	jal	x1,800002a0	  x1=0x800002a0
        1815000	       180	00000000	00000013	addi	x0,x0,0	  x0:0x00000000
        1825000	       181	80000258	00000013	addi	x0,x0,0	  x0:0x00000000
        1835000	       182	8000025c	0140036f	jal	x6,8000025c	  x6=0x8000025c
        1845000	       183	00000000	00000013	addi	x0,x0,0	  x0:0x00000000
        1855000	       184	8000026c	00000013	addi	x0,x0,0	  x0:0x00000000
        1865000	       185	80000270	03c0036f	jal	x6,80000270	  x6=0x80000270
        1875000	       186	00000000	00000013	addi	x0,x0,0	  x0:0x00000000
        1885000	       187	800002a8	00000013	addi	x0,x0,0	  x0:0x00000000
        1895000	       188	800002ac	fe1ff0ef	jal	x1,800002ac	  x1=0x800002ac
        1905000	       189	00000000	00000013	addi	x0,x0,0	  x0:0x00000000
        1915000	       190	80000288	00000013	addi	x0,x0,0	  x0:0x00000000
        1925000	       191	8000028c	fedff0ef	jal	x1,8000028c	  x1=0x8000028c
        1935000	       192	00000000	00000013	addi	x0,x0,0	  x0:0x00000000
        1945000	       193	80000274	00000013	addi	x0,x0,0	  x0:0x00000000
        1955000	       194	80000278	00c000ef	jal	x1,80000278	  x1=0x80000278
        1965000	       195	00000000	00000013	addi	x0,x0,0	  x0:0x00000000
        1975000	       196	80000280	00000013	addi	x0,x0,0	  x0:0x00000000
        1985000	       197	80000284	ff1ff36f	jal	x6,80000284	  x6=0x80000284
        1995000	       198	00000000	00000013	addi	x0,x0,0	  x0:0x00000000
        2005000	       199	80000270	00000013	addi	x0,x0,0	  x0:0x00000000
        2015000	       200	80000274	03000bef	jal	x23,80000274	 x23=0x80000274
        2025000	       201	00000000	00000013	addi	x0,x0,0	  x0:0x00000000
        2035000	       202	800002a0	00000013	addi	x0,x0,0	  x0:0x00000000
        2045000	       203	800002a4	fb5ff0ef	jal	x1,800002a4	  x1=0x800002a4
        2055000	       204	00000000	00000013	addi	x0,x0,0	  x0:0x00000000
        2065000	       205	80000254	00000013	addi	x0,x0,0	  x0:0x00000000
        2075000	       206	80000258	ff9ff0ef	jal	x1,80000258	  x1=0x80000258
        2085000	       207	00000000	00000013	addi	x0,x0,0	  x0:0x00000000
        2095000	       208	8000024c	00000013	addi	x0,x0,0	  x0:0x00000000
        2105000	       209	80000250	058003ef	jal	x7,80000250	  x7=0x80000250
        2115000	       210	00000000	00000013	addi	x0,x0,0	  x0:0x00000000
        2125000	       211	800002a4	00000013	addi	x0,x0,0	  x0:0x00000000
        2135000	       212	800002a8	fd5ff0ef	jal	x1,800002a8	  x1=0x800002a8
        2145000	       213	00000000	00000013	addi	x0,x0,0	  x0:0x00000000
        2155000	       214	80000278	00000013	addi	x0,x0,0	  x0:0x00000000
        2165000	       215	8000027c	0140036f	jal	x6,8000027c	  x6=0x8000027c
        2175000	       216	00000000	00000013	addi	x0,x0,0	  x0:0x00000000
        2185000	       217	8000028c	00000013	addi	x0,x0,0	  x0:0x00000000
        2195000	       218	80000290	fbdffb6f	jal	x22,80000290	 x22=0x80000290
        2205000	       219	00000000	00000013	addi	x0,x0,0	  x0:0x00000000
        2215000	       220	80000248	00000013	addi	x0,x0,0	  x0:0x00000000
        2225000	       221	8000024c	008002ef	jal	x5,8000024c	  x5=0x8000024c
        2235000	       222	00000000	00000013	addi	x0,x0,0	  x0:0x00000000
        2245000	       223	80000250	00000013	addi	x0,x0,0	  x0:0x00000000
        2255000	       224	80000254	0400026f	jal	x4,80000254	  x4=0x80000254
        2265000	       225	00000000	00000013	addi	x0,x0,0	  x0:0x00000000
        2275000	       226	80000290	00000013	addi	x0,x0,0	  x0:0x00000000
        2285000	       227	80000294	fd9ff36f	jal	x6,80000294	  x6=0x80000294
        2295000	       228	00000000	00000013	addi	x0,x0,0	  x0:0x00000000
        2305000	       229	80000268	00000013	addi	x0,x0,0	  x0:0x00000000
        2315000	       230	8000026c	01400d6f	jal	x26,8000026c	 x26=0x8000026c
        2325000	       231	00000000	00000013	addi	x0,x0,0	  x0:0x00000000
        2335000	       232	8000027c	00000013	addi	x0,x0,0	  x0:0x00000000
        2345000	       233	80000280	008000ef	jal	x1,80000280	  x1=0x80000280
        2355000	       234	00000000	00000013	addi	x0,x0,0	  x0:0x00000000
        2365000	       235	80000284	00000013	addi	x0,x0,0	  x0:0x00000000
        2375000	       236	80000288	014000ef	jal	x1,80000288	  x1=0x80000288
        2385000	       237	00000000	00000013	addi	x0,x0,0	  x0:0x00000000
        2395000	       238	80000298	00000013	addi	x0,x0,0	  x0:0x00000000
        2405000	       239	8000029c	014009ef	jal	x19,8000029c	 x19=0x8000029c
        2415000	       240	00000000	00000013	addi	x0,x0,0	  x0:0x00000000
        2425000	       241	800002ac	00000013	addi	x0,x0,0	  x0:0x00000000
        2435000	       242	800002b0	7798bb13	sltiu	x22,x17,1913	 x17:0x00000000 x22=0x00000001
        2445000	       243	800002b4	034000ef	jal	x1,800002b4	  x1=0x800002b4
        2455000	       244	00000000	00000013	addi	x0,x0,0	  x0:0x00000000
        2465000	       245	800002e4	00000013	addi	x0,x0,0	  x0:0x00000000
        2475000	       246	800002e8	ffdff0ef	jal	x1,800002e8	  x1=0x800002e8
        2485000	       247	00000000	00000013	addi	x0,x0,0	  x0:0x00000000
        2495000	       248	800002e0	00000013	addi	x0,x0,0	  x0:0x00000000
        2505000	       249	800002e4	01800bef	jal	x23,800002e4	 x23=0x800002e4
        2515000	       250	00000000	00000013	addi	x0,x0,0	  x0:0x00000000
        2525000	       251	800002f8	00000013	addi	x0,x0,0	  x0:0x00000000
        2535000	       252	800002fc	fd5ff0ef	jal	x1,800002fc	  x1=0x800002fc
        2545000	       253	00000000	00000013	addi	x0,x0,0	  x0:0x00000000
        2555000	       254	800002cc	00000013	addi	x0,x0,0	  x0:0x00000000
        2565000	       255	800002d0	ffdff36f	jal	x6,800002d0	  x6=0x800002d0
        2575000	       256	00000000	00000013	addi	x0,x0,0	  x0:0x00000000
        2585000	       257	800002c8	00000013	addi	x0,x0,0	  x0:0x00000000
        2595000	       258	800002cc	034000ef	jal	x1,800002cc	  x1=0x800002cc
        2605000	       259	00000000	00000013	addi	x0,x0,0	  x0:0x00000000
        2615000	       260	800002fc	00000013	addi	x0,x0,0	  x0:0x00000000
        2625000	       261	80000300	004000ef	jal	x1,80000300	  x1=0x80000300
        2635000	       262	00000000	00000013	addi	x0,x0,0	  x0:0x00000000
        2645000	       263	80000300	00000013	addi	x0,x0,0	  x0:0x00000000
        2655000	       264	80000304	fb5ff0ef	jal	x1,80000304	  x1=0x80000304
        2665000	       265	00000000	00000013	addi	x0,x0,0	  x0:0x00000000
        2675000	       266	800002b4	00000013	addi	x0,x0,0	  x0:0x00000000
        2685000	       267	800002b8	028000ef	jal	x1,800002b8	  x1=0x800002b8
        2695000	       268	00000000	00000013	addi	x0,x0,0	  x0:0x00000000
        2705000	       269	800002dc	00000013	addi	x0,x0,0	  x0:0x00000000
        2715000	       270	800002e0	ff5ff16f	jal	x2,800002e0	  x2=0x800002e0
        2725000	       271	00000000	00000013	addi	x0,x0,0	  x0:0x00000000
        2735000	       272	800002d0	00000013	addi	x0,x0,0	  x0:0x00000000
        2745000	       273	800002d4	fe9ff96f	jal	x18,800002d4	 x18=0x800002d4
        2755000	       274	00000000	00000013	addi	x0,x0,0	  x0:0x00000000
        2765000	       275	800002b8	00000013	addi	x0,x0,0	  x0:0x00000000
        2775000	       276	800002bc	004000ef	jal	x1,800002bc	  x1=0x800002bc
        2785000	       277	00000000	00000013	addi	x0,x0,0	  x0:0x00000000
        2795000	       278	800002bc	00000013	addi	x0,x0,0	  x0:0x00000000
        2805000	       279	800002c0	01c0036f	jal	x6,800002c0	  x6=0x800002c0
        2815000	       280	00000000	00000013	addi	x0,x0,0	  x0:0x00000000
        2825000	       281	800002d8	00000013	addi	x0,x0,0	  x0:0x00000000
        2835000	       282	800002dc	010000ef	jal	x1,800002dc	  x1=0x800002dc
        2845000	       283	00000000	00000013	addi	x0,x0,0	  x0:0x00000000
        2855000	       284	800002e8	00000013	addi	x0,x0,0	  x0:0x00000000
        2865000	       285	800002ec	fddff0ef	jal	x1,800002ec	  x1=0x800002ec
        2875000	       286	00000000	00000013	addi	x0,x0,0	  x0:0x00000000
        2885000	       287	800002c4	00000013	addi	x0,x0,0	  x0:0x00000000
        2895000	       288	800002c8	040000ef	jal	x1,800002c8	  x1=0x800002c8
        2905000	       289	00000000	00000013	addi	x0,x0,0	  x0:0x00000000
        2915000	       290	80000304	00000013	addi	x0,x0,0	  x0:0x00000000
        2925000	       291	80000308	fd1ff0ef	jal	x1,80000308	  x1=0x80000308
        2935000	       292	00000000	00000013	addi	x0,x0,0	  x0:0x00000000
        2945000	       293	800002d4	00000013	addi	x0,x0,0	  x0:0x00000000
        2955000	       294	800002d8	0200026f	jal	x4,800002d8	  x4=0x800002d8
        2965000	       295	00000000	00000013	addi	x0,x0,0	  x0:0x00000000
        2975000	       296	800002f4	00000013	addi	x0,x0,0	  x0:0x00000000
        2985000	       297	800002f8	fcdff0ef	jal	x1,800002f8	  x1=0x800002f8
        2995000	       298	00000000	00000013	addi	x0,x0,0	  x0:0x00000000
        3005000	       299	800002c0	00000013	addi	x0,x0,0	  x0:0x00000000
        3015000	       300	800002c4	02c0036f	jal	x6,800002c4	  x6=0x800002c4
        3025000	       301	00000000	00000013	addi	x0,x0,0	  x0:0x00000000
        3035000	       302	800002ec	00000013	addi	x0,x0,0	  x0:0x00000000
        3045000	       303	800002f0	0040036f	jal	x6,800002f0	  x6=0x800002f0
        3055000	       304	00000000	00000013	addi	x0,x0,0	  x0:0x00000000
        3065000	       305	800002f0	00000013	addi	x0,x0,0	  x0:0x00000000
        3075000	       306	800002f4	018000ef	jal	x1,800002f4	  x1=0x800002f4
        3085000	       307	00000000	00000013	addi	x0,x0,0	  x0:0x00000000
        3095000	       308	80000308	00000013	addi	x0,x0,0	  x0:0x00000000
        3105000	       309	8000030c	346d8137	lui	x2,0x346d8	  x2=0x346d8000
        3115000	       310	80000310	018000ef	jal	x1,80000310	  x1=0x80000310
        3125000	       311	00000000	00000013	addi	x0,x0,0	  x0:0x00000000
        3135000	       312	80000324	00000013	addi	x0,x0,0	  x0:0x00000000
        3145000	       313	80000328	ff5ff36f	jal	x6,80000328	  x6=0x80000328
        3155000	       314	00000000	00000013	addi	x0,x0,0	  x0:0x00000000
        3165000	       315	80000318	00000013	addi	x0,x0,0	  x0:0x00000000
        3175000	       316	8000031c	010000ef	jal	x1,8000031c	  x1=0x8000031c
        3185000	       317	00000000	00000013	addi	x0,x0,0	  x0:0x00000000
        3195000	       318	80000328	00000013	addi	x0,x0,0	  x0:0x00000000
        3205000	       319	8000032c	014000ef	jal	x1,8000032c	  x1=0x8000032c
        3215000	       320	00000000	00000013	addi	x0,x0,0	  x0:0x00000000
        3225000	       321	8000033c	00000013	addi	x0,x0,0	  x0:0x00000000
        3235000	       322	80000340	0100036f	jal	x6,80000340	  x6=0x80000340
        3245000	       323	00000000	00000013	addi	x0,x0,0	  x0:0x00000000
        3255000	       324	8000034c	00000013	addi	x0,x0,0	  x0:0x00000000
        3265000	       325	80000350	fd1ff36f	jal	x6,80000350	  x6=0x80000350
        3275000	       326	00000000	00000013	addi	x0,x0,0	  x0:0x00000000
        3285000	       327	8000031c	00000013	addi	x0,x0,0	  x0:0x00000000
        3295000	       328	80000320	0380026f	jal	x4,80000320	  x4=0x80000320
        3305000	       329	00000000	00000013	addi	x0,x0,0	  x0:0x00000000
        3315000	       330	80000354	00000013	addi	x0,x0,0	  x0:0x00000000
        3325000	       331	80000358	fcdff0ef	jal	x1,80000358	  x1=0x80000358
        3335000	       332	00000000	00000013	addi	x0,x0,0	  x0:0x00000000
        3345000	       333	80000320	00000013	addi	x0,x0,0	  x0:0x00000000
        3355000	       334	80000324	0200036f	jal	x6,80000324	  x6=0x80000324
        3365000	       335	00000000	00000013	addi	x0,x0,0	  x0:0x00000000
        3375000	       336	80000340	00000013	addi	x0,x0,0	  x0:0x00000000
        3385000	       337	80000344	ff1ff86f	jal	x16,80000344	 x16=0x80000344
        3395000	       338	00000000	00000013	addi	x0,x0,0	  x0:0x00000000
        3405000	       339	80000330	00000013	addi	x0,x0,0	  x0:0x00000000
        3415000	       340	80000334	0080036f	jal	x6,80000334	  x6=0x80000334
        3425000	       341	00000000	00000013	addi	x0,x0,0	  x0:0x00000000
        3435000	       342	80000338	00000013	addi	x0,x0,0	  x0:0x00000000
        3445000	       343	8000033c	fd9ffaef	jal	x21,8000033c	 x21=0x8000033c
        3455000	       344	00000000	00000013	addi	x0,x0,0	  x0:0x00000000
        3465000	       345	80000310	00000013	addi	x0,x0,0	  x0:0x00000000
        3475000	       346	80000314	0380026f	jal	x4,80000314	  x4=0x80000314
        3485000	       347	00000000	00000013	addi	x0,x0,0	  x0:0x00000000
        3495000	       348	80000348	00000013	addi	x0,x0,0	  x0:0x00000000
        3505000	       349	8000034c	fcdff36f	jal	x6,8000034c	  x6=0x8000034c
        3515000	       350	00000000	00000013	addi	x0,x0,0	  x0:0x00000000
        3525000	       351	80000314	00000013	addi	x0,x0,0	  x0:0x00000000
        3535000	       352	80000318	0200036f	jal	x6,80000318	  x6=0x80000318
        3545000	       353	00000000	00000013	addi	x0,x0,0	  x0:0x00000000
        3555000	       354	80000334	00000013	addi	x0,x0,0	  x0:0x00000000
        3565000	       355	80000338	ff9ff0ef	jal	x1,80000338	  x1=0x80000338
        3575000	       356	00000000	00000013	addi	x0,x0,0	  x0:0x00000000
        3585000	       357	8000032c	00000013	addi	x0,x0,0	  x0:0x00000000
        3595000	       358	80000330	024000ef	jal	x1,80000330	  x1=0x80000330
        3605000	       359	00000000	00000013	addi	x0,x0,0	  x0:0x00000000
        3615000	       360	80000350	00000013	addi	x0,x0,0	  x0:0x00000000
        3625000	       361	80000354	ff5ff2ef	jal	x5,80000354	  x5=0x80000354
        3635000	       362	00000000	00000013	addi	x0,x0,0	  x0:0x00000000
        3645000	       363	80000344	00000013	addi	x0,x0,0	  x0:0x00000000
        3655000	       364	80000348	018002ef	jal	x5,80000348	  x5=0x80000348
        3665000	       365	00000000	00000013	addi	x0,x0,0	  x0:0x00000000
        3675000	       366	8000035c	00000013	addi	x0,x0,0	  x0:0x00000000
        3685000	       367	80000360	ffdff0ef	jal	x1,80000360	  x1=0x80000360
        3695000	       368	00000000	00000013	addi	x0,x0,0	  x0:0x00000000
        3705000	       369	80000358	00000013	addi	x0,x0,0	  x0:0x00000000
        3715000	       370	8000035c	008000ef	jal	x1,8000035c	  x1=0x8000035c
        3725000	       371	00000000	00000013	addi	x0,x0,0	  x0:0x00000000
        3735000	       372	80000360	00000013	addi	x0,x0,0	  x0:0x00000000
        3745000	       373	80000364	412001b3	sub	x3,x0,x18	  x0:0x00000000 x18:0x800002d4  x3=0x7ffffd2c
        3755000	       374	80000368	020000ef	jal	x1,80000368	  x1=0x80000368
        3765000	       375	00000000	00000013	addi	x0,x0,0	  x0:0x00000000
        3775000	       376	80000384	00000013	addi	x0,x0,0	  x0:0x00000000
        3785000	       377	80000388	fedff0ef	jal	x1,80000388	  x1=0x80000388
        3795000	       378	00000000	00000013	addi	x0,x0,0	  x0:0x00000000
        3805000	       379	80000370	00000013	addi	x0,x0,0	  x0:0x00000000
        3815000	       380	80000374	ff9ff36f	jal	x6,80000374	  x6=0x80000374
        3825000	       381	00000000	00000013	addi	x0,x0,0	  x0:0x00000000
        3835000	       382	80000368	00000013	addi	x0,x0,0	  x0:0x00000000
        3845000	       383	8000036c	0200036f	jal	x6,8000036c	  x6=0x8000036c
        3855000	       384	00000000	00000013	addi	x0,x0,0	  x0:0x00000000
        3865000	       385	80000388	00000013	addi	x0,x0,0	  x0:0x00000000
        3875000	       386	8000038c	ff5ff0ef	jal	x1,8000038c	  x1=0x8000038c
        3885000	       387	00000000	00000013	addi	x0,x0,0	  x0:0x00000000
        3895000	       388	8000037c	00000013	addi	x0,x0,0	  x0:0x00000000
        3905000	       389	80000380	004002ef	jal	x5,80000380	  x5=0x80000380
        3915000	       390	00000000	00000013	addi	x0,x0,0	  x0:0x00000000
        3925000	       391	80000380	00000013	addi	x0,x0,0	  x0:0x00000000
        3935000	       392	80000384	00c000ef	jal	x1,80000384	  x1=0x80000384
        3945000	       393	00000000	00000013	addi	x0,x0,0	  x0:0x00000000
        3955000	       394	8000038c	00000013	addi	x0,x0,0	  x0:0x00000000
        3965000	       395	80000390	fe9ff0ef	jal	x1,80000390	  x1=0x80000390
        3975000	       396	00000000	00000013	addi	x0,x0,0	  x0:0x00000000
        3985000	       397	80000374	00000013	addi	x0,x0,0	  x0:0x00000000
        3995000	       398	80000378	01c0036f	jal	x6,80000378	  x6=0x80000378
        4005000	       399	00000000	00000013	addi	x0,x0,0	  x0:0x00000000
        4015000	       400	80000390	00000013	addi	x0,x0,0	  x0:0x00000000
        4025000	       401	80000394	fddff0ef	jal	x1,80000394	  x1=0x80000394
        4035000	       402	00000000	00000013	addi	x0,x0,0	  x0:0x00000000
        4045000	       403	8000036c	00000013	addi	x0,x0,0	  x0:0x00000000
        4055000	       404	80000370	00c000ef	jal	x1,80000370	  x1=0x80000370
        4065000	       405	00000000	00000013	addi	x0,x0,0	  x0:0x00000000
        4075000	       406	80000378	00000013	addi	x0,x0,0	  x0:0x00000000
        4085000	       407	8000037c	01c0086f	jal	x16,8000037c	 x16=0x8000037c
        4095000	       408	00000000	00000013	addi	x0,x0,0	  x0:0x00000000
        4105000	       409	80000394	00000013	addi	x0,x0,0	  x0:0x00000000
        4115000	       410	80000398	cbfa0c93	addi	x25,x20,-833	 x20:0x80009f5c x25=0x80009c1b
        4125000	       411	8000039c	058000ef	jal	x1,8000039c	  x1=0x8000039c
        4135000	       412	00000000	00000013	addi	x0,x0,0	  x0:0x00000000
        4145000	       413	800003f0	00000013	addi	x0,x0,0	  x0:0x00000000
        4155000	       414	800003f4	fe1ff0ef	jal	x1,800003f4	  x1=0x800003f4
        4165000	       415	00000000	00000013	addi	x0,x0,0	  x0:0x00000000
        4175000	       416	800003d0	00000013	addi	x0,x0,0	  x0:0x00000000
        4185000	       417	800003d4	ff9ff36f	jal	x6,800003d4	  x6=0x800003d4
        4195000	       418	00000000	00000013	addi	x0,x0,0	  x0:0x00000000
        4205000	       419	800003c8	00000013	addi	x0,x0,0	  x0:0x00000000
        4215000	       420	800003cc	034000ef	jal	x1,800003cc	  x1=0x800003cc
        4225000	       421	00000000	00000013	addi	x0,x0,0	  x0:0x00000000
        4235000	       422	800003fc	00000013	addi	x0,x0,0	  x0:0x00000000
        4245000	       423	80000400	fa1ff0ef	jal	x1,80000400	  x1=0x80000400
        4255000	       424	00000000	00000013	addi	x0,x0,0	  x0:0x00000000
        4265000	       425	8000039c	00000013	addi	x0,x0,0	  x0:0x00000000
        4275000	       426	800003a0	00c00c6f	jal	x24,800003a0	 x24=0x800003a0
        4285000	       427	00000000	00000013	addi	x0,x0,0	  x0:0x00000000
        4295000	       428	800003a8	00000013	addi	x0,x0,0	  x0:0x00000000
        4305000	       429	800003ac	034007ef	jal	x15,800003ac	 x15=0x800003ac
        4315000	       430	00000000	00000013	addi	x0,x0,0	  x0:0x00000000
        4325000	       431	800003dc	00000013	addi	x0,x0,0	  x0:0x00000000
        4335000	       432	800003e0	010000ef	jal	x1,800003e0	  x1=0x800003e0
        4345000	       433	00000000	00000013	addi	x0,x0,0	  x0:0x00000000
        4355000	       434	800003ec	00000013	addi	x0,x0,0	  x0:0x00000000
        4365000	       435	800003f0	fb5ff0ef	jal	x1,800003f0	  x1=0x800003f0
        4375000	       436	00000000	00000013	addi	x0,x0,0	  x0:0x00000000
        4385000	       437	800003a0	00000013	addi	x0,x0,0	  x0:0x00000000
        4395000	       438	800003a4	024000ef	jal	x1,800003a4	  x1=0x800003a4
        4405000	       439	00000000	00000013	addi	x0,x0,0	  x0:0x00000000
        4415000	       440	800003c4	00000013	addi	x0,x0,0	  x0:0x00000000
        4425000	       441	800003c8	fe1ffd6f	jal	x26,800003c8	 x26=0x800003c8
        4435000	       442	00000000	00000013	addi	x0,x0,0	  x0:0x00000000
        4445000	       443	800003a4	00000013	addi	x0,x0,0	  x0:0x00000000
        4455000	       444	800003a8	05000def	jal	x27,800003a8	 x27=0x800003a8
        4465000	       445	00000000	00000013	addi	x0,x0,0	  x0:0x00000000
        4475000	       446	800003f4	00000013	addi	x0,x0,0	  x0:0x00000000
        4485000	       447	800003f8	fb9ffaef	jal	x21,800003f8	 x21=0x800003f8
        4495000	       448	00000000	00000013	addi	x0,x0,0	  x0:0x00000000
        4505000	       449	800003ac	00000013	addi	x0,x0,0	  x0:0x00000000
        4515000	       450	800003b0	014000ef	jal	x1,800003b0	  x1=0x800003b0
        4525000	       451	00000000	00000013	addi	x0,x0,0	  x0:0x00000000
        4535000	       452	800003c0	00000013	addi	x0,x0,0	  x0:0x00000000
        4545000	       453	800003c4	0380036f	jal	x6,800003c4	  x6=0x800003c4
        4555000	       454	00000000	00000013	addi	x0,x0,0	  x0:0x00000000
        4565000	       455	800003f8	00000013	addi	x0,x0,0	  x0:0x00000000
        4575000	       456	800003fc	fc5ff0ef	jal	x1,800003fc	  x1=0x800003fc
        4585000	       457	00000000	00000013	addi	x0,x0,0	  x0:0x00000000
        4595000	       458	800003bc	00000013	addi	x0,x0,0	  x0:0x00000000
        4605000	       459	800003c0	028001ef	jal	x3,800003c0	  x3=0x800003c0
        4615000	       460	00000000	00000013	addi	x0,x0,0	  x0:0x00000000
        4625000	       461	800003e4	00000013	addi	x0,x0,0	  x0:0x00000000
        4635000	       462	800003e8	ff1ff0ef	jal	x1,800003e8	  x1=0x800003e8
        4645000	       463	00000000	00000013	addi	x0,x0,0	  x0:0x00000000
        4655000	       464	800003d4	00000013	addi	x0,x0,0	  x0:0x00000000
        4665000	       465	800003d8	fe1ff0ef	jal	x1,800003d8	  x1=0x800003d8
        4675000	       466	00000000	00000013	addi	x0,x0,0	  x0:0x00000000
        4685000	       467	800003b4	00000013	addi	x0,x0,0	  x0:0x00000000
        4695000	       468	800003b8	02c000ef	jal	x1,800003b8	  x1=0x800003b8
        4705000	       469	00000000	00000013	addi	x0,x0,0	  x0:0x00000000
        4715000	       470	800003e0	00000013	addi	x0,x0,0	  x0:0x00000000
        4725000	       471	800003e4	fd9ff56f	jal	x10,800003e4	 x10=0x800003e4
        4735000	       472	00000000	00000013	addi	x0,x0,0	  x0:0x00000000
        4745000	       473	800003b8	00000013	addi	x0,x0,0	  x0:0x00000000
        4755000	       474	800003bc	030000ef	jal	x1,800003bc	  x1=0x800003bc
        4765000	       475	00000000	00000013	addi	x0,x0,0	  x0:0x00000000
        4775000	       476	800003e8	00000013	addi	x0,x0,0	  x0:0x00000000
        4785000	       477	800003ec	01c0036f	jal	x6,800003ec	  x6=0x800003ec
        4795000	       478	00000000	00000013	addi	x0,x0,0	  x0:0x00000000
        4805000	       479	80000404	00000013	addi	x0,x0,0	  x0:0x00000000
        4815000	       480	80000408	fadffe6f	jal	x28,80000408	 x28=0x80000408
        4825000	       481	00000000	00000013	addi	x0,x0,0	  x0:0x00000000
        4835000	       482	800003b0	00000013	addi	x0,x0,0	  x0:0x00000000
        4845000	       483	800003b4	01c0036f	jal	x6,800003b4	  x6=0x800003b4
        4855000	       484	00000000	00000013	addi	x0,x0,0	  x0:0x00000000
        4865000	       485	800003cc	00000013	addi	x0,x0,0	  x0:0x00000000
        4875000	       486	800003d0	034000ef	jal	x1,800003d0	  x1=0x800003d0
        4885000	       487	00000000	00000013	addi	x0,x0,0	  x0:0x00000000
        4895000	       488	80000400	00000013	addi	x0,x0,0	  x0:0x00000000
        4905000	       489	80000404	fd9ffdef	jal	x27,80000404	 x27=0x80000404
        4915000	       490	00000000	00000013	addi	x0,x0,0	  x0:0x00000000
        4925000	       491	800003d8	00000013	addi	x0,x0,0	  x0:0x00000000
        4935000	       492	800003dc	030000ef	jal	x1,800003dc	  x1=0x800003dc
        4945000	       493	00000000	00000013	addi	x0,x0,0	  x0:0x00000000
        4955000	       494	80000408	00000013	addi	x0,x0,0	  x0:0x00000000
        4965000	       495	8000040c	0169d333	srl	x6,x19,x22	 x19:0x8000029c x22:0x00000001  x6=0x4000014e
        4975000	       496	80000410	02c000ef	jal	x1,80000410	  x1=0x80000410
        4985000	       497	00000000	00000013	addi	x0,x0,0	  x0:0x00000000
        4995000	       498	80000438	00000013	addi	x0,x0,0	  x0:0x00000000
        5005000	       499	8000043c	fe1ff26f	jal	x4,8000043c	  x4=0x8000043c
        5015000	       500	00000000	00000013	addi	x0,x0,0	  x0:0x00000000
        5025000	       501	80000418	00000013	addi	x0,x0,0	  x0:0x00000000
        5035000	       502	8000041c	014000ef	jal	x1,8000041c	  x1=0x8000041c
        5045000	       503	00000000	00000013	addi	x0,x0,0	  x0:0x00000000
        5055000	       504	8000042c	00000013	addi	x0,x0,0	  x0:0x00000000
        5065000	       505	80000430	038000ef	jal	x1,80000430	  x1=0x80000430
        5075000	       506	00000000	00000013	addi	x0,x0,0	  x0:0x00000000
        5085000	       507	80000464	00000013	addi	x0,x0,0	  x0:0x00000000
        5095000	       508	80000468	fe1ff0ef	jal	x1,80000468	  x1=0x80000468
        5105000	       509	00000000	00000013	addi	x0,x0,0	  x0:0x00000000
        5115000	       510	80000444	00000013	addi	x0,x0,0	  x0:0x00000000
        5125000	       511	80000448	ffdff86f	jal	x16,80000448	 x16=0x80000448
        5135000	       512	00000000	00000013	addi	x0,x0,0	  x0:0x00000000
        5145000	       513	80000440	00000013	addi	x0,x0,0	  x0:0x00000000
        5155000	       514	80000444	fe1ff0ef	jal	x1,80000444	  x1=0x80000444
        5165000	       515	00000000	00000013	addi	x0,x0,0	  x0:0x00000000
        5175000	       516	80000420	00000013	addi	x0,x0,0	  x0:0x00000000
        5185000	       517	80000424	014002ef	jal	x5,80000424	  x5=0x80000424
        5195000	       518	00000000	00000013	addi	x0,x0,0	  x0:0x00000000
        5205000	       519	80000434	00000013	addi	x0,x0,0	  x0:0x00000000
        5215000	       520	80000438	fe1ff0ef	jal	x1,80000438	  x1=0x80000438
        5225000	       521	00000000	00000013	addi	x0,x0,0	  x0:0x00000000
        5235000	       522	80000414	00000013	addi	x0,x0,0	  x0:0x00000000
        5245000	       523	80000418	008001ef	jal	x3,80000418	  x3=0x80000418
        5255000	       524	00000000	00000013	addi	x0,x0,0	  x0:0x00000000
        5265000	       525	8000041c	00000013	addi	x0,x0,0	  x0:0x00000000
        5275000	       526	80000420	020000ef	jal	x1,80000420	  x1=0x80000420
        5285000	       527	00000000	00000013	addi	x0,x0,0	  x0:0x00000000
        5295000	       528	8000043c	00000013	addi	x0,x0,0	  x0:0x00000000
        5305000	       529	80000440	ff5ff0ef	jal	x1,80000440	  x1=0x80000440
        5315000	       530	00000000	00000013	addi	x0,x0,0	  x0:0x00000000
        5325000	       531	80000430	00000013	addi	x0,x0,0	  x0:0x00000000
        5335000	       532	80000434	040000ef	jal	x1,80000434	  x1=0x80000434
        5345000	       533	00000000	00000013	addi	x0,x0,0	  x0:0x00000000
        5355000	       534	80000470	00000013	addi	x0,x0,0	  x0:0x00000000
        5365000	       535	80000474	fddff36f	jal	x6,80000474	  x6=0x80000474
        5375000	       536	00000000	00000013	addi	x0,x0,0	  x0:0x00000000
        5385000	       537	8000044c	00000013	addi	x0,x0,0	  x0:0x00000000
        5395000	       538	80000450	01c002ef	jal	x5,80000450	  x5=0x80000450
        5405000	       539	00000000	00000013	addi	x0,x0,0	  x0:0x00000000
        5415000	       540	80000468	00000013	addi	x0,x0,0	  x0:0x00000000
        5425000	       541	8000046c	ff1ff0ef	jal	x1,8000046c	  x1=0x8000046c
        5435000	       542	00000000	00000013	addi	x0,x0,0	  x0:0x00000000
        5445000	       543	80000458	00000013	addi	x0,x0,0	  x0:0x00000000
        5455000	       544	8000045c	0080076f	jal	x14,8000045c	 x14=0x8000045c
        5465000	       545	00000000	00000013	addi	x0,x0,0	  x0:0x00000000
        5475000	       546	80000460	00000013	addi	x0,x0,0	  x0:0x00000000
        5485000	       547	80000464	00c000ef	jal	x1,80000464	  x1=0x80000464
        5495000	       548	00000000	00000013	addi	x0,x0,0	  x0:0x00000000
        5505000	       549	8000046c	00000013	addi	x0,x0,0	  x0:0x00000000
        5515000	       550	80000470	fddff0ef	jal	x1,80000470	  x1=0x80000470
        5525000	       551	00000000	00000013	addi	x0,x0,0	  x0:0x00000000
        5535000	       552	80000448	00000013	addi	x0,x0,0	  x0:0x00000000
        5545000	       553	8000044c	fddff0ef	jal	x1,8000044c	  x1=0x8000044c
        5555000	       554	00000000	00000013	addi	x0,x0,0	  x0:0x00000000
        5565000	       555	80000424	00000013	addi	x0,x0,0	  x0:0x00000000
        5575000	       556	80000428	030000ef	jal	x1,80000428	  x1=0x80000428
        5585000	       557	00000000	00000013	addi	x0,x0,0	  x0:0x00000000
        5595000	       558	80000454	00000013	addi	x0,x0,0	  x0:0x00000000
        5605000	       559	80000458	fbdff36f	jal	x6,80000458	  x6=0x80000458
        5615000	       560	00000000	00000013	addi	x0,x0,0	  x0:0x00000000
        5625000	       561	80000410	00000013	addi	x0,x0,0	  x0:0x00000000
        5635000	       562	80000414	064000ef	jal	x1,80000414	  x1=0x80000414
        5645000	       563	00000000	00000013	addi	x0,x0,0	  x0:0x00000000
        5655000	       564	80000474	00000013	addi	x0,x0,0	  x0:0x00000000
        5665000	       565	80000478	fb5ff0ef	jal	x1,80000478	  x1=0x80000478
        5675000	       566	00000000	00000013	addi	x0,x0,0	  x0:0x00000000
        5685000	       567	80000428	00000013	addi	x0,x0,0	  x0:0x00000000
        5695000	       568	8000042c	034004ef	jal	x9,8000042c	  x9=0x8000042c
        5705000	       569	00000000	00000013	addi	x0,x0,0	  x0:0x00000000
        5715000	       570	8000045c	00000013	addi	x0,x0,0	  x0:0x00000000
        5725000	       571	80000460	ff5ff0ef	jal	x1,80000460	  x1=0x80000460
        5735000	       572	00000000	00000013	addi	x0,x0,0	  x0:0x00000000
        5745000	       573	80000450	00000013	addi	x0,x0,0	  x0:0x00000000
        5755000	       574	80000454	028000ef	jal	x1,80000454	  x1=0x80000454
        5765000	       575	00000000	00000013	addi	x0,x0,0	  x0:0x00000000
        5775000	       576	80000478	00000013	addi	x0,x0,0	  x0:0x00000000
        5785000	       577	8000047c	418fd413	srai	x8,x31,0x18	 x31:0x00000001  x8=0x00000000
        5795000	       578	80000480	020000ef	jal	x1,80000480	  x1=0x80000480
        5805000	       579	00000000	00000013	addi	x0,x0,0	  x0:0x00000000
        5815000	       580	8000049c	00000013	addi	x0,x0,0	  x0:0x00000000
        5825000	       581	800004a0	fe9ff0ef	jal	x1,800004a0	  x1=0x800004a0
        5835000	       582	00000000	00000013	addi	x0,x0,0	  x0:0x00000000
        5845000	       583	80000484	00000013	addi	x0,x0,0	  x0:0x00000000
        5855000	       584	80000488	010002ef	jal	x5,80000488	  x5=0x80000488
        5865000	       585	00000000	00000013	addi	x0,x0,0	  x0:0x00000000
        5875000	       586	80000494	00000013	addi	x0,x0,0	  x0:0x00000000
        5885000	       587	80000498	024000ef	jal	x1,80000498	  x1=0x80000498
        5895000	       588	00000000	00000013	addi	x0,x0,0	  x0:0x00000000
        5905000	       589	800004b8	00000013	addi	x0,x0,0	  x0:0x00000000
        5915000	       590	800004bc	004000ef	jal	x1,800004bc	  x1=0x800004bc
        5925000	       591	00000000	00000013	addi	x0,x0,0	  x0:0x00000000
        5935000	       592	800004bc	00000013	addi	x0,x0,0	  x0:0x00000000
        5945000	       593	800004c0	fcdff46f	jal	x8,800004c0	  x8=0x800004c0
        5955000	       594	00000000	00000013	addi	x0,x0,0	  x0:0x00000000
        5965000	       595	80000488	00000013	addi	x0,x0,0	  x0:0x00000000
        5975000	       596	8000048c	02c0036f	jal	x6,8000048c	  x6=0x8000048c
        5985000	       597	00000000	00000013	addi	x0,x0,0	  x0:0x00000000
        5995000	       598	800004b4	00000013	addi	x0,x0,0	  x0:0x00000000
        6005000	       599	800004b8	fddff0ef	jal	x1,800004b8	  x1=0x800004b8
        6015000	       600	00000000	00000013	addi	x0,x0,0	  x0:0x00000000
        6025000	       601	80000490	00000013	addi	x0,x0,0	  x0:0x00000000
        6035000	       602	80000494	008000ef	jal	x1,80000494	  x1=0x80000494
        6045000	       603	00000000	00000013	addi	x0,x0,0	  x0:0x00000000
        6055000	       604	80000498	00000013	addi	x0,x0,0	  x0:0x00000000
        6065000	       605	8000049c	00800eef	jal	x29,8000049c	 x29=0x8000049c
        6075000	       606	00000000	00000013	addi	x0,x0,0	  x0:0x00000000
        6085000	       607	800004a0	00000013	addi	x0,x0,0	  x0:0x00000000
        6095000	       608	800004a4	fedff0ef	jal	x1,800004a4	  x1=0x800004a4
        6105000	       609	00000000	00000013	addi	x0,x0,0	  x0:0x00000000
        6115000	       610	8000048c	00000013	addi	x0,x0,0	  x0:0x00000000
        6125000	       611	80000490	0240036f	jal	x6,80000490	  x6=0x80000490
        6135000	       612	00000000	00000013	addi	x0,x0,0	  x0:0x00000000
        6145000	       613	800004b0	00000013	addi	x0,x0,0	  x0:0x00000000
        6155000	       614	800004b4	ffdff36f	jal	x6,800004b4	  x6=0x800004b4
        6165000	       615	00000000	00000013	addi	x0,x0,0	  x0:0x00000000
        6175000	       616	800004ac	00000013	addi	x0,x0,0	  x0:0x00000000
        6185000	       617	800004b0	ffdfffef	jal	x31,800004b0	 x31=0x800004b0
        6195000	       618	00000000	00000013	addi	x0,x0,0	  x0:0x00000000
        6205000	       619	800004a8	00000013	addi	x0,x0,0	  x0:0x00000000
        6215000	       620	800004ac	01c000ef	jal	x1,800004ac	  x1=0x800004ac
        6225000	       621	00000000	00000013	addi	x0,x0,0	  x0:0x00000000
        6235000	       622	800004c4	00000013	addi	x0,x0,0	  x0:0x00000000
        6245000	       623	800004c8	ffdffaef	jal	x21,800004c8	 x21=0x800004c8
        6255000	       624	00000000	00000013	addi	x0,x0,0	  x0:0x00000000
        6265000	       625	800004c0	00000013	addi	x0,x0,0	  x0:0x00000000
        6275000	       626	800004c4	fe5ffcef	jal	x25,800004c4	 x25=0x800004c4
        6285000	       627	00000000	00000013	addi	x0,x0,0	  x0:0x00000000
        6295000	       628	800004a4	00000013	addi	x0,x0,0	  x0:0x00000000
        6305000	       629	800004a8	fddff0ef	jal	x1,800004a8	  x1=0x800004a8
        6315000	       630	00000000	00000013	addi	x0,x0,0	  x0:0x00000000
        6325000	       631	80000480	00000013	addi	x0,x0,0	  x0:0x00000000
        6335000	       632	80000484	0480036f	jal	x6,80000484	  x6=0x80000484
        6345000	       633	00000000	00000013	addi	x0,x0,0	  x0:0x00000000
        6355000	       634	800004c8	00000013	addi	x0,x0,0	  x0:0x00000000
        6365000	       635	800004cc	004007ef	jal	x15,800004cc	 x15=0x800004cc
        6375000	       636	00000000	00000013	addi	x0,x0,0	  x0:0x00000000
        6385000	       637	800004cc	00000013	addi	x0,x0,0	  x0:0x00000000
        6395000	       638	800004d0	1b193513	sltiu	x10,x18,433	 x18:0x800002d4 x10=0x00000000
        6405000	       639	800004d4	014000ef	jal	x1,800004d4	  x1=0x800004d4
        6415000	       640	00000000	00000013	addi	x0,x0,0	  x0:0x00000000
        6425000	       641	800004e4	00000013	addi	x0,x0,0	  x0:0x00000000
        6435000	       642	800004e8	02c0036f	jal	x6,800004e8	  x6=0x800004e8
        6445000	       643	00000000	00000013	addi	x0,x0,0	  x0:0x00000000
        6455000	       644	80000510	00000013	addi	x0,x0,0	  x0:0x00000000
        6465000	       645	80000514	ff1ff36f	jal	x6,80000514	  x6=0x80000514
        6475000	       646	00000000	00000013	addi	x0,x0,0	  x0:0x00000000
        6485000	       647	80000500	00000013	addi	x0,x0,0	  x0:0x00000000
        6495000	       648	80000504	fd9ff2ef	jal	x5,80000504	  x5=0x80000504
        6505000	       649	00000000	00000013	addi	x0,x0,0	  x0:0x00000000
        6515000	       650	800004d8	00000013	addi	x0,x0,0	  x0:0x00000000
        6525000	       651	800004dc	01800b6f	jal	x22,800004dc	 x22=0x800004dc
        6535000	       652	00000000	00000013	addi	x0,x0,0	  x0:0x00000000
        6545000	       653	800004f0	00000013	addi	x0,x0,0	  x0:0x00000000
        6555000	       654	800004f4	0140036f	jal	x6,800004f4	  x6=0x800004f4
        6565000	       655	00000000	00000013	addi	x0,x0,0	  x0:0x00000000
        6575000	       656	80000504	00000013	addi	x0,x0,0	  x0:0x00000000
        6585000	       657	80000508	fd1ff96f	jal	x18,80000508	 x18=0x80000508
        6595000	       658	00000000	00000013	addi	x0,x0,0	  x0:0x00000000
        6605000	       659	800004d4	00000013	addi	x0,x0,0	  x0:0x00000000
        6615000	       660	800004d8	018001ef	jal	x3,800004d8	  x3=0x800004d8
        6625000	       661	00000000	00000013	addi	x0,x0,0	  x0:0x00000000
        6635000	       662	800004ec	00000013	addi	x0,x0,0	  x0:0x00000000
        6645000	       663	800004f0	020000ef	jal	x1,800004f0	  x1=0x800004f0
        6655000	       664	00000000	00000013	addi	x0,x0,0	  x0:0x00000000
        6665000	       665	8000050c	00000013	addi	x0,x0,0	  x0:0x00000000
        6675000	       666	80000510	ffdff0ef	jal	x1,80000510	  x1=0x80000510
        6685000	       667	00000000	00000013	addi	x0,x0,0	  x0:0x00000000
        6695000	       668	80000508	00000013	addi	x0,x0,0	  x0:0x00000000
        6705000	       669	8000050c	fe1ff26f	jal	x4,8000050c	  x4=0x8000050c
        6715000	       670	00000000	00000013	addi	x0,x0,0	  x0:0x00000000
        6725000	       671	800004e8	00000013	addi	x0,x0,0	  x0:0x00000000
        6735000	       672	800004ec	ff9ff76f	jal	x14,800004ec	 x14=0x800004ec
        6745000	       673	00000000	00000013	addi	x0,x0,0	  x0:0x00000000
        6755000	       674	800004e0	00000013	addi	x0,x0,0	  x0:0x00000000
        6765000	       675	800004e4	01c000ef	jal	x1,800004e4	  x1=0x800004e4
        6775000	       676	00000000	00000013	addi	x0,x0,0	  x0:0x00000000
        6785000	       677	800004fc	00000013	addi	x0,x0,0	  x0:0x00000000
        6795000	       678	80000500	fe1ff16f	jal	x2,80000500	  x2=0x80000500
        6805000	       679	00000000	00000013	addi	x0,x0,0	  x0:0x00000000
        6815000	       680	800004dc	00000013	addi	x0,x0,0	  x0:0x00000000
        6825000	       681	800004e0	038000ef	jal	x1,800004e0	  x1=0x800004e0
        6835000	       682	00000000	00000013	addi	x0,x0,0	  x0:0x00000000
        6845000	       683	80000514	00000013	addi	x0,x0,0	  x0:0x00000000
        6855000	       684	80000518	fe1ff0ef	jal	x1,80000518	  x1=0x80000518
        6865000	       685	00000000	00000013	addi	x0,x0,0	  x0:0x00000000
        6875000	       686	800004f4	00000013	addi	x0,x0,0	  x0:0x00000000
        6885000	       687	800004f8	004004ef	jal	x9,800004f8	  x9=0x800004f8
        6895000	       688	00000000	00000013	addi	x0,x0,0	  x0:0x00000000
        6905000	       689	800004f8	00000013	addi	x0,x0,0	  x0:0x00000000
        6915000	       690	800004fc	0200036f	jal	x6,800004fc	  x6=0x800004fc
        6925000	       691	00000000	00000013	addi	x0,x0,0	  x0:0x00000000
        6935000	       692	80000518	00000013	addi	x0,x0,0	  x0:0x00000000
        6945000	       693	8000051c	02063093	sltiu	x1,x12,32	 x12:0x00000000  x1=0x00000001
        6955000	       694	80000520	018000ef	jal	x1,80000520	  x1=0x80000520
        6965000	       695	00000000	00000013	addi	x0,x0,0	  x0:0x00000000
        6975000	       696	80000534	00000013	addi	x0,x0,0	  x0:0x00000000
        6985000	       697	80000538	ff1ff36f	jal	x6,80000538	  x6=0x80000538
        6995000	       698	00000000	00000013	addi	x0,x0,0	  x0:0x00000000
        7005000	       699	80000524	00000013	addi	x0,x0,0	  x0:0x00000000
        7015000	       700	80000528	00c0036f	jal	x6,80000528	  x6=0x80000528
        7025000	       701	00000000	00000013	addi	x0,x0,0	  x0:0x00000000
        7035000	       702	80000530	00000013	addi	x0,x0,0	  x0:0x00000000
        7045000	       703	80000534	04400bef	jal	x23,80000534	 x23=0x80000534
        7055000	       704	00000000	00000013	addi	x0,x0,0	  x0:0x00000000
        7065000	       705	80000574	00000013	addi	x0,x0,0	  x0:0x00000000
        7075000	       706	80000578	fb5ffdef	jal	x27,80000578	 x27=0x80000578
        7085000	       707	00000000	00000013	addi	x0,x0,0	  x0:0x00000000
        7095000	       708	80000528	00000013	addi	x0,x0,0	  x0:0x00000000
        7105000	       709	8000052c	03c004ef	jal	x9,8000052c	  x9=0x8000052c
        7115000	       710	00000000	00000013	addi	x0,x0,0	  x0:0x00000000
        7125000	       711	80000564	00000013	addi	x0,x0,0	  x0:0x00000000
        7135000	       712	80000568	004000ef	jal	x1,80000568	  x1=0x80000568
        7145000	       713	00000000	00000013	addi	x0,x0,0	  x0:0x00000000
        7155000	       714	80000568	00000013	addi	x0,x0,0	  x0:0x00000000
        7165000	       715	8000056c	fe1ff26f	jal	x4,8000056c	  x4=0x8000056c
        7175000	       716	00000000	00000013	addi	x0,x0,0	  x0:0x00000000
        7185000	       717	80000548	00000013	addi	x0,x0,0	  x0:0x00000000
        7195000	       718	8000054c	fe5ff0ef	jal	x1,8000054c	  x1=0x8000054c
        7205000	       719	00000000	00000013	addi	x0,x0,0	  x0:0x00000000
        7215000	       720	8000052c	00000013	addi	x0,x0,0	  x0:0x00000000
        7225000	       721	80000530	040002ef	jal	x5,80000530	  x5=0x80000530
        7235000	       722	00000000	00000013	addi	x0,x0,0	  x0:0x00000000
        7245000	       723	8000056c	00000013	addi	x0,x0,0	  x0:0x00000000
        7255000	       724	80000570	fcdff36f	jal	x6,80000570	  x6=0x80000570
        7265000	       725	00000000	00000013	addi	x0,x0,0	  x0:0x00000000
        7275000	       726	80000538	00000013	addi	x0,x0,0	  x0:0x00000000
        7285000	       727	8000053c	0240046f	jal	x8,8000053c	  x8=0x8000053c
        7295000	       728	00000000	00000013	addi	x0,x0,0	  x0:0x00000000
        7305000	       729	8000055c	00000013	addi	x0,x0,0	  x0:0x00000000
        7315000	       730	80000560	ff1ff0ef	jal	x1,80000560	  x1=0x80000560
        7325000	       731	00000000	00000013	addi	x0,x0,0	  x0:0x00000000
        7335000	       732	8000054c	00000013	addi	x0,x0,0	  x0:0x00000000
        7345000	       733	80000550	ff5ff0ef	jal	x1,80000550	  x1=0x80000550
        7355000	       734	00000000	00000013	addi	x0,x0,0	  x0:0x00000000
        7365000	       735	80000540	00000013	addi	x0,x0,0	  x0:0x00000000
        7375000	       736	80000544	0140036f	jal	x6,80000544	  x6=0x80000544
        7385000	       737	00000000	00000013	addi	x0,x0,0	  x0:0x00000000
        7395000	       738	80000554	00000013	addi	x0,x0,0	  x0:0x00000000
        7405000	       739	80000558	fe9ff46f	jal	x8,80000558	  x8=0x80000558
        7415000	       740	00000000	00000013	addi	x0,x0,0	  x0:0x00000000
        7425000	       741	8000053c	00000013	addi	x0,x0,0	  x0:0x00000000
        7435000	       742	80000540	008000ef	jal	x1,80000540	  x1=0x80000540
        7445000	       743	00000000	00000013	addi	x0,x0,0	  x0:0x00000000
        7455000	       744	80000544	00000013	addi	x0,x0,0	  x0:0x00000000
        7465000	       745	80000548	02c000ef	jal	x1,80000548	  x1=0x80000548
        7475000	       746	00000000	00000013	addi	x0,x0,0	  x0:0x00000000
        7485000	       747	80000570	00000013	addi	x0,x0,0	  x0:0x00000000
        7495000	       748	80000574	fe9ffcef	jal	x25,80000574	 x25=0x80000574
        7505000	       749	00000000	00000013	addi	x0,x0,0	  x0:0x00000000
        7515000	       750	80000558	00000013	addi	x0,x0,0	  x0:0x00000000
        7525000	       751	8000055c	fc9ff0ef	jal	x1,8000055c	  x1=0x8000055c
        7535000	       752	00000000	00000013	addi	x0,x0,0	  x0:0x00000000
        7545000	       753	80000520	00000013	addi	x0,x0,0	  x0:0x00000000
        7555000	       754	80000524	0300036f	jal	x6,80000524	  x6=0x80000524
        7565000	       755	00000000	00000013	addi	x0,x0,0	  x0:0x00000000
        7575000	       756	80000550	00000013	addi	x0,x0,0	  x0:0x00000000
        7585000	       757	80000554	0100036f	jal	x6,80000554	  x6=0x80000554
        7595000	       758	00000000	00000013	addi	x0,x0,0	  x0:0x00000000
        7605000	       759	80000560	00000013	addi	x0,x0,0	  x0:0x00000000
        7615000	       760	80000564	01800cef	jal	x25,80000564	 x25=0x80000564
        7625000	       761	00000000	00000013	addi	x0,x0,0	  x0:0x00000000
        7635000	       762	80000578	00000013	addi	x0,x0,0	  x0:0x00000000
        7645000	       763	8000057c	00900333	add	x6,x0,x9	  x0:0x00000000  x9:0x8000052c  x6=0x8000052c
        7655000	       764	80000580	040000ef	jal	x1,80000580	  x1=0x80000580
        7665000	       765	00000000	00000013	addi	x0,x0,0	  x0:0x00000000
        7675000	       766	800005bc	00000013	addi	x0,x0,0	  x0:0x00000000
        7685000	       767	800005c0	014000ef	jal	x1,800005c0	  x1=0x800005c0
        7695000	       768	00000000	00000013	addi	x0,x0,0	  x0:0x00000000
        7705000	       769	800005d0	00000013	addi	x0,x0,0	  x0:0x00000000
        7715000	       770	800005d4	fe5ff96f	jal	x18,800005d4	 x18=0x800005d4
        7725000	       771	00000000	00000013	addi	x0,x0,0	  x0:0x00000000
        7735000	       772	800005b4	00000013	addi	x0,x0,0	  x0:0x00000000
        7745000	       773	800005b8	0040036f	jal	x6,800005b8	  x6=0x800005b8
        7755000	       774	00000000	00000013	addi	x0,x0,0	  x0:0x00000000
        7765000	       775	800005b8	00000013	addi	x0,x0,0	  x0:0x00000000
        7775000	       776	800005bc	ff5ff36f	jal	x6,800005bc	  x6=0x800005bc
        7785000	       777	00000000	00000013	addi	x0,x0,0	  x0:0x00000000
        7795000	       778	800005ac	00000013	addi	x0,x0,0	  x0:0x00000000
        7805000	       779	800005b0	038002ef	jal	x5,800005b0	  x5=0x800005b0
        7815000	       780	00000000	00000013	addi	x0,x0,0	  x0:0x00000000
        7825000	       781	800005e4	00000013	addi	x0,x0,0	  x0:0x00000000
        7835000	       782	800005e8	fe5ff96f	jal	x18,800005e8	 x18=0x800005e8
        7845000	       783	00000000	00000013	addi	x0,x0,0	  x0:0x00000000
        7855000	       784	800005c8	00000013	addi	x0,x0,0	  x0:0x00000000
        7865000	       785	800005cc	014000ef	jal	x1,800005cc	  x1=0x800005cc
        7875000	       786	00000000	00000013	addi	x0,x0,0	  x0:0x00000000
        7885000	       787	800005dc	00000013	addi	x0,x0,0	  x0:0x00000000
        7895000	       788	800005e0	fbdff0ef	jal	x1,800005e0	  x1=0x800005e0
        7905000	       789	00000000	00000013	addi	x0,x0,0	  x0:0x00000000
        7915000	       790	80000598	00000013	addi	x0,x0,0	  x0:0x00000000
        7925000	       791	8000059c	00c000ef	jal	x1,8000059c	  x1=0x8000059c
        7935000	       792	00000000	00000013	addi	x0,x0,0	  x0:0x00000000
        7945000	       793	800005a4	00000013	addi	x0,x0,0	  x0:0x00000000
        7955000	       794	800005a8	044000ef	jal	x1,800005a8	  x1=0x800005a8
        7965000	       795	00000000	00000013	addi	x0,x0,0	  x0:0x00000000
        7975000	       796	800005e8	00000013	addi	x0,x0,0	  x0:0x00000000
        7985000	       797	800005ec	fc9ffcef	jal	x25,800005ec	 x25=0x800005ec
        7995000	       798	00000000	00000013	addi	x0,x0,0	  x0:0x00000000
        8005000	       799	800005b0	00000013	addi	x0,x0,0	  x0:0x00000000
        8015000	       800	800005b4	fe1ffaef	jal	x21,800005b4	 x21=0x800005b4
        8025000	       801	00000000	00000013	addi	x0,x0,0	  x0:0x00000000
        8035000	       802	80000590	00000013	addi	x0,x0,0	  x0:0x00000000
        8045000	       803	80000594	030000ef	jal	x1,80000594	  x1=0x80000594
        8055000	       804	00000000	00000013	addi	x0,x0,0	  x0:0x00000000
        8065000	       805	800005c0	00000013	addi	x0,x0,0	  x0:0x00000000
        8075000	       806	800005c4	fc5ff0ef	jal	x1,800005c4	  x1=0x800005c4
        8085000	       807	00000000	00000013	addi	x0,x0,0	  x0:0x00000000
        8095000	       808	80000584	00000013	addi	x0,x0,0	  x0:0x00000000
        8105000	       809	80000588	0480036f	jal	x6,80000588	  x6=0x80000588
        8115000	       810	00000000	00000013	addi	x0,x0,0	  x0:0x00000000
        8125000	       811	800005cc	00000013	addi	x0,x0,0	  x0:0x00000000
        8135000	       812	800005d0	fd1ff0ef	jal	x1,800005d0	  x1=0x800005d0
        8145000	       813	00000000	00000013	addi	x0,x0,0	  x0:0x00000000
        8155000	       814	8000059c	00000013	addi	x0,x0,0	  x0:0x00000000
        8165000	       815	800005a0	0440036f	jal	x6,800005a0	  x6=0x800005a0
        8175000	       816	00000000	00000013	addi	x0,x0,0	  x0:0x00000000
        8185000	       817	800005e0	00000013	addi	x0,x0,0	  x0:0x00000000
        8195000	       818	800005e4	fadff0ef	jal	x1,800005e4	  x1=0x800005e4
        8205000	       819	00000000	00000013	addi	x0,x0,0	  x0:0x00000000
        8215000	       820	8000058c	00000013	addi	x0,x0,0	  x0:0x00000000
        8225000	       821	80000590	0140036f	jal	x6,80000590	  x6=0x80000590
        8235000	       822	00000000	00000013	addi	x0,x0,0	  x0:0x00000000
        8245000	       823	800005a0	00000013	addi	x0,x0,0	  x0:0x00000000
        8255000	       824	800005a4	fe1ff26f	jal	x4,800005a4	  x4=0x800005a4
        8265000	       825	00000000	00000013	addi	x0,x0,0	  x0:0x00000000
        8275000	       826	80000580	00000013	addi	x0,x0,0	  x0:0x00000000
        8285000	       827	80000584	008000ef	jal	x1,80000584	  x1=0x80000584
        8295000	       828	00000000	00000013	addi	x0,x0,0	  x0:0x00000000
        8305000	       829	80000588	00000013	addi	x0,x0,0	  x0:0x00000000
        8315000	       830	8000058c	03c0036f	jal	x6,8000058c	  x6=0x8000058c
        8325000	       831	00000000	00000013	addi	x0,x0,0	  x0:0x00000000
        8335000	       832	800005c4	00000013	addi	x0,x0,0	  x0:0x00000000
        8345000	       833	800005c8	fd1ff0ef	jal	x1,800005c8	  x1=0x800005c8
        8355000	       834	00000000	00000013	addi	x0,x0,0	  x0:0x00000000
        8365000	       835	80000594	00000013	addi	x0,x0,0	  x0:0x00000000
        8375000	       836	80000598	0440026f	jal	x4,80000598	  x4=0x80000598
        8385000	       837	00000000	00000013	addi	x0,x0,0	  x0:0x00000000
        8395000	       838	800005d8	00000013	addi	x0,x0,0	  x0:0x00000000
        8405000	       839	800005dc	ffdff0ef	jal	x1,800005dc	  x1=0x800005dc
        8415000	       840	00000000	00000013	addi	x0,x0,0	  x0:0x00000000
        8425000	       841	800005d4	00000013	addi	x0,x0,0	  x0:0x00000000
        8435000	       842	800005d8	fd5ff36f	jal	x6,800005d8	  x6=0x800005d8
        8445000	       843	00000000	00000013	addi	x0,x0,0	  x0:0x00000000
        8455000	       844	800005a8	00000013	addi	x0,x0,0	  x0:0x00000000
        8465000	       845	800005ac	044004ef	jal	x9,800005ac	  x9=0x800005ac
        8475000	       846	00000000	00000013	addi	x0,x0,0	  x0:0x00000000
        8485000	       847	800005ec	00000013	addi	x0,x0,0	  x0:0x00000000
        8495000	       848	800005f0	bf683413	sltiu	x8,x16,-1034	 x16:0x80000448  x8=0x00000001
        8505000	       849	800005f4	01c000ef	jal	x1,800005f4	  x1=0x800005f4
        8515000	       850	00000000	00000013	addi	x0,x0,0	  x0:0x00000000
        8525000	       851	8000060c	00000013	addi	x0,x0,0	  x0:0x00000000
        8535000	       852	80000610	fedffeef	jal	x29,80000610	 x29=0x80000610
        8545000	       853	00000000	00000013	addi	x0,x0,0	  x0:0x00000000
        8555000	       854	800005f8	00000013	addi	x0,x0,0	  x0:0x00000000
        8565000	       855	800005fc	00c000ef	jal	x1,800005fc	  x1=0x800005fc
        8575000	       856	00000000	00000013	addi	x0,x0,0	  x0:0x00000000
        8585000	       857	80000604	00000013	addi	x0,x0,0	  x0:0x00000000
        8595000	       858	80000608	00c0016f	jal	x2,80000608	  x2=0x80000608
        8605000	       859	00000000	00000013	addi	x0,x0,0	  x0:0x00000000
        8615000	       860	80000610	00000013	addi	x0,x0,0	  x0:0x00000000
        8625000	       861	80000614	fe5ff0ef	jal	x1,80000614	  x1=0x80000614
        8635000	       862	00000000	00000013	addi	x0,x0,0	  x0:0x00000000
        8645000	       863	800005f4	00000013	addi	x0,x0,0	  x0:0x00000000
        8655000	       864	800005f8	008000ef	jal	x1,800005f8	  x1=0x800005f8
        8665000	       865	00000000	00000013	addi	x0,x0,0	  x0:0x00000000
        8675000	       866	800005fc	00000013	addi	x0,x0,0	  x0:0x00000000
        8685000	       867	80000600	00c006ef	jal	x13,80000600	 x13=0x80000600
        8695000	       868	00000000	00000013	addi	x0,x0,0	  x0:0x00000000
        8705000	       869	80000608	00000013	addi	x0,x0,0	  x0:0x00000000
        8715000	       870	8000060c	018009ef	jal	x19,8000060c	 x19=0x8000060c
        8725000	       871	00000000	00000013	addi	x0,x0,0	  x0:0x00000000
        8735000	       872	80000620	00000013	addi	x0,x0,0	  x0:0x00000000
        8745000	       873	80000624	ff9ff3ef	jal	x7,80000624	  x7=0x80000624
        8755000	       874	00000000	00000013	addi	x0,x0,0	  x0:0x00000000
        8765000	       875	80000618	00000013	addi	x0,x0,0	  x0:0x00000000
        8775000	       876	8000061c	ffdff0ef	jal	x1,8000061c	  x1=0x8000061c
        8785000	       877	00000000	00000013	addi	x0,x0,0	  x0:0x00000000
        8795000	       878	80000614	00000013	addi	x0,x0,0	  x0:0x00000000
        8805000	       879	80000618	008000ef	jal	x1,80000618	  x1=0x80000618
        8815000	       880	00000000	00000013	addi	x0,x0,0	  x0:0x00000000
        8825000	       881	8000061c	00000013	addi	x0,x0,0	  x0:0x00000000
        8835000	       882	80000620	008000ef	jal	x1,80000620	  x1=0x80000620
        8845000	       883	00000000	00000013	addi	x0,x0,0	  x0:0x00000000
        8855000	       884	80000624	00000013	addi	x0,x0,0	  x0:0x00000000
        8865000	       885	80000628	fddff9ef	jal	x19,80000628	 x19=0x80000628
        8875000	       886	00000000	00000013	addi	x0,x0,0	  x0:0x00000000
        8885000	       887	80000600	00000013	addi	x0,x0,0	  x0:0x00000000
        8895000	       888	80000604	0280016f	jal	x2,80000604	  x2=0x80000604
        8905000	       889	00000000	00000013	addi	x0,x0,0	  x0:0x00000000
        8915000	       890	80000628	00000013	addi	x0,x0,0	  x0:0x00000000
        8925000	       891	8000062c	41e506b3	sub	x13,x10,x30	 x10:0x00000000 x30:0x80009fc4 x13=0x7fff603c
        8935000	       892	80000630	010000ef	jal	x1,80000630	  x1=0x80000630
        8945000	       893	00000000	00000013	addi	x0,x0,0	  x0:0x00000000
        8955000	       894	8000063c	00000013	addi	x0,x0,0	  x0:0x00000000
        8965000	       895	80000640	ffdff26f	jal	x4,80000640	  x4=0x80000640
        8975000	       896	00000000	00000013	addi	x0,x0,0	  x0:0x00000000
        8985000	       897	80000638	00000013	addi	x0,x0,0	  x0:0x00000000
        8995000	       898	8000063c	034000ef	jal	x1,8000063c	  x1=0x8000063c
        9005000	       899	00000000	00000013	addi	x0,x0,0	  x0:0x00000000
        9015000	       900	8000066c	00000013	addi	x0,x0,0	  x0:0x00000000
        9025000	       901	80000670	fd9ff36f	jal	x6,80000670	  x6=0x80000670
        9035000	       902	00000000	00000013	addi	x0,x0,0	  x0:0x00000000
        9045000	       903	80000644	00000013	addi	x0,x0,0	  x0:0x00000000
        9055000	       904	80000648	020007ef	jal	x15,80000648	 x15=0x80000648
        9065000	       905	00000000	00000013	addi	x0,x0,0	  x0:0x00000000
        9075000	       906	80000664	00000013	addi	x0,x0,0	  x0:0x00000000
        9085000	       907	80000668	004008ef	jal	x17,80000668	 x17=0x80000668
        9095000	       908	00000000	00000013	addi	x0,x0,0	  x0:0x00000000
        9105000	       909	80000668	00000013	addi	x0,x0,0	  x0:0x00000000
        9115000	       910	8000066c	024000ef	jal	x1,8000066c	  x1=0x8000066c
        9125000	       911	00000000	00000013	addi	x0,x0,0	  x0:0x00000000
        9135000	       912	8000068c	00000013	addi	x0,x0,0	  x0:0x00000000
        9145000	       913	80000690	fd1ff0ef	jal	x1,80000690	  x1=0x80000690
        9155000	       914	00000000	00000013	addi	x0,x0,0	  x0:0x00000000
        9165000	       915	8000065c	00000013	addi	x0,x0,0	  x0:0x00000000
        9175000	       916	80000660	fd5ff0ef	jal	x1,80000660	  x1=0x80000660
        9185000	       917	00000000	00000013	addi	x0,x0,0	  x0:0x00000000
        9195000	       918	80000630	00000013	addi	x0,x0,0	  x0:0x00000000
        9205000	       919	80000634	06c0036f	jal	x6,80000634	  x6=0x80000634
        9215000	       920	00000000	00000013	addi	x0,x0,0	  x0:0x00000000
        9225000	       921	8000069c	00000013	addi	x0,x0,0	  x0:0x00000000
        9235000	       922	800006a0	fbdff0ef	jal	x1,800006a0	  x1=0x800006a0
        9245000	       923	00000000	00000013	addi	x0,x0,0	  x0:0x00000000
        9255000	       924	80000658	00000013	addi	x0,x0,0	  x0:0x00000000
        9265000	       925	8000065c	03c000ef	jal	x1,8000065c	  x1=0x8000065c
        9275000	       926	00000000	00000013	addi	x0,x0,0	  x0:0x00000000
        9285000	       927	80000694	00000013	addi	x0,x0,0	  x0:0x00000000
        9295000	       928	80000698	00400c6f	jal	x24,80000698	 x24=0x80000698
        9305000	       929	00000000	00000013	addi	x0,x0,0	  x0:0x00000000
        9315000	       930	80000698	00000013	addi	x0,x0,0	  x0:0x00000000
        9325000	       931	8000069c	fddff16f	jal	x2,8000069c	  x2=0x8000069c
        9335000	       932	00000000	00000013	addi	x0,x0,0	  x0:0x00000000
        9345000	       933	80000674	00000013	addi	x0,x0,0	  x0:0x00000000
        9355000	       934	80000678	fedff0ef	jal	x1,80000678	  x1=0x80000678
        9365000	       935	00000000	00000013	addi	x0,x0,0	  x0:0x00000000
        9375000	       936	80000660	00000013	addi	x0,x0,0	  x0:0x00000000
        9385000	       937	80000664	fd5ffcef	jal	x25,80000664	 x25=0x80000664
        9395000	       938	00000000	00000013	addi	x0,x0,0	  x0:0x00000000
        9405000	       939	80000634	00000013	addi	x0,x0,0	  x0:0x00000000
        9415000	       940	80000638	03c000ef	jal	x1,80000638	  x1=0x80000638
        9425000	       941	00000000	00000013	addi	x0,x0,0	  x0:0x00000000
        9435000	       942	80000670	00000013	addi	x0,x0,0	  x0:0x00000000
        9445000	       943	80000674	fd1ff0ef	jal	x1,80000674	  x1=0x80000674
        9455000	       944	00000000	00000013	addi	x0,x0,0	  x0:0x00000000
        9465000	       945	80000640	00000013	addi	x0,x0,0	  x0:0x00000000
        9475000	       946	80000644	0440036f	jal	x6,80000644	  x6=0x80000644
        9485000	       947	00000000	00000013	addi	x0,x0,0	  x0:0x00000000
        9495000	       948	80000684	00000013	addi	x0,x0,0	  x0:0x00000000
        9505000	       949	80000688	fd1ff36f	jal	x6,80000688	  x6=0x80000688
        9515000	       950	00000000	00000013	addi	x0,x0,0	  x0:0x00000000
        9525000	       951	80000654	00000013	addi	x0,x0,0	  x0:0x00000000
        9535000	       952	80000658	ffdff5ef	jal	x11,80000658	 x11=0x80000658
        9545000	       953	00000000	00000013	addi	x0,x0,0	  x0:0x00000000
        9555000	       954	80000650	00000013	addi	x0,x0,0	  x0:0x00000000
        9565000	       955	80000654	038000ef	jal	x1,80000654	  x1=0x80000654
        9575000	       956	00000000	00000013	addi	x0,x0,0	  x0:0x00000000
        9585000	       957	80000688	00000013	addi	x0,x0,0	  x0:0x00000000
        9595000	       958	8000068c	ff1ff8ef	jal	x17,8000068c	 x17=0x8000068c
        9605000	       959	00000000	00000013	addi	x0,x0,0	  x0:0x00000000
        9615000	       960	80000678	00000013	addi	x0,x0,0	  x0:0x00000000
        9625000	       961	8000067c	008005ef	jal	x11,8000067c	 x11=0x8000067c
        9635000	       962	00000000	00000013	addi	x0,x0,0	  x0:0x00000000
        9645000	       963	80000680	00000013	addi	x0,x0,0	  x0:0x00000000
        9655000	       964	80000684	fcdff2ef	jal	x5,80000684	  x5=0x80000684
        9665000	       965	00000000	00000013	addi	x0,x0,0	  x0:0x00000000
        9675000	       966	8000064c	00000013	addi	x0,x0,0	  x0:0x00000000
        9685000	       967	80000650	0440096f	jal	x18,80000650	 x18=0x80000650
        9695000	       968	00000000	00000013	addi	x0,x0,0	  x0:0x00000000
        9705000	       969	80000690	00000013	addi	x0,x0,0	  x0:0x00000000
        9715000	       970	80000694	fb9ff0ef	jal	x1,80000694	  x1=0x80000694
        9725000	       971	00000000	00000013	addi	x0,x0,0	  x0:0x00000000
        9735000	       972	80000648	00000013	addi	x0,x0,0	  x0:0x00000000
        9745000	       973	8000064c	0340036f	jal	x6,8000064c	  x6=0x8000064c
        9755000	       974	00000000	00000013	addi	x0,x0,0	  x0:0x00000000
        9765000	       975	8000067c	00000013	addi	x0,x0,0	  x0:0x00000000
        9775000	       976	80000680	0240076f	jal	x14,80000680	 x14=0x80000680
        9785000	       977	00000000	00000013	addi	x0,x0,0	  x0:0x00000000
        9795000	       978	800006a0	00000013	addi	x0,x0,0	  x0:0x00000000
        9805000	       979	800006a4	57ff5297	auipc	x5,0x57ff5	  x5=0xd7ff56a0
        9815000	       980	800006a8	04c000ef	jal	x1,800006a8	  x1=0x800006a8
        9825000	       981	00000000	00000013	addi	x0,x0,0	  x0:0x00000000
        9835000	       982	800006f0	00000013	addi	x0,x0,0	  x0:0x00000000
        9845000	       983	800006f4	ff9ff9ef	jal	x19,800006f4	 x19=0x800006f4
        9855000	       984	00000000	00000013	addi	x0,x0,0	  x0:0x00000000
        9865000	       985	800006e8	00000013	addi	x0,x0,0	  x0:0x00000000
        9875000	       986	800006ec	fd9ff0ef	jal	x1,800006ec	  x1=0x800006ec
        9885000	       987	00000000	00000013	addi	x0,x0,0	  x0:0x00000000
        9895000	       988	800006c0	00000013	addi	x0,x0,0	  x0:0x00000000
        9905000	       989	800006c4	020000ef	jal	x1,800006c4	  x1=0x800006c4
        9915000	       990	00000000	00000013	addi	x0,x0,0	  x0:0x00000000
        9925000	       991	800006e0	00000013	addi	x0,x0,0	  x0:0x00000000
        9935000	       992	800006e4	020000ef	jal	x1,800006e4	  x1=0x800006e4
        9945000	       993	00000000	00000013	addi	x0,x0,0	  x0:0x00000000
        9955000	       994	80000700	00000013	addi	x0,x0,0	  x0:0x00000000
        9965000	       995	80000704	fc9ff36f	jal	x6,80000704	  x6=0x80000704
        9975000	       996	00000000	00000013	addi	x0,x0,0	  x0:0x00000000
        9985000	       997	800006c8	00000013	addi	x0,x0,0	  x0:0x00000000
        9995000	       998	800006cc	034000ef	jal	x1,800006cc	  x1=0x800006cc
       10005000	       999	00000000	00000013	addi	x0,x0,0	  x0:0x00000000
       10015000	      1000	800006fc	00000013	addi	x0,x0,0	  x0:0x00000000
       10025000	      1001	80000700	ff1ff56f	jal	x10,80000700	 x10=0x80000700
       10035000	      1002	00000000	00000013	addi	x0,x0,0	  x0:0x00000000
       10045000	      1003	800006ec	00000013	addi	x0,x0,0	  x0:0x00000000
       10055000	      1004	800006f0	fc1ffbef	jal	x23,800006f0	 x23=0x800006f0
       10065000	      1005	00000000	00000013	addi	x0,x0,0	  x0:0x00000000
       10075000	      1006	800006ac	00000013	addi	x0,x0,0	  x0:0x00000000
       10085000	      1007	800006b0	04c00aef	jal	x21,800006b0	 x21=0x800006b0
       10095000	      1008	00000000	00000013	addi	x0,x0,0	  x0:0x00000000
       10105000	      1009	800006f8	00000013	addi	x0,x0,0	  x0:0x00000000
       10115000	      1010	800006fc	018000ef	jal	x1,800006fc	  x1=0x800006fc
       10125000	      1011	00000000	00000013	addi	x0,x0,0	  x0:0x00000000
       10135000	      1012	80000710	00000013	addi	x0,x0,0	  x0:0x00000000
       10145000	      1013	80000714	fa1ff36f	jal	x6,80000714	  x6=0x80000714
       10155000	      1014	00000000	00000013	addi	x0,x0,0	  x0:0x00000000
       10165000	      1015	800006b0	00000013	addi	x0,x0,0	  x0:0x00000000
       10175000	      1016	800006b4	01400c6f	jal	x24,800006b4	 x24=0x800006b4
       10185000	      1017	00000000	00000013	addi	x0,x0,0	  x0:0x00000000
       10195000	      1018	800006c4	00000013	addi	x0,x0,0	  x0:0x00000000
       10205000	      1019	800006c8	ff1ff36f	jal	x6,800006c8	  x6=0x800006c8
       10215000	      1020	00000000	00000013	addi	x0,x0,0	  x0:0x00000000
       10225000	      1021	800006b4	00000013	addi	x0,x0,0	  x0:0x00000000
       10235000	      1022	800006b8	068004ef	jal	x9,800006b8	  x9=0x800006b8
       10245000	      1023	00000000	00000013	addi	x0,x0,0	  x0:0x00000000
       10255000	      1024	8000071c	00000013	addi	x0,x0,0	  x0:0x00000000
       10265000	      1025	80000720	fedff0ef	jal	x1,80000720	  x1=0x80000720
       10275000	      1026	00000000	00000013	addi	x0,x0,0	  x0:0x00000000
       10285000	      1027	80000708	00000013	addi	x0,x0,0	  x0:0x00000000
       10295000	      1028	8000070c	00c007ef	jal	x15,8000070c	 x15=0x8000070c
       10305000	      1029	00000000	00000013	addi	x0,x0,0	  x0:0x00000000
       10315000	      1030	80000714	00000013	addi	x0,x0,0	  x0:0x00000000
       10325000	      1031	80000718	fc1ff0ef	jal	x1,80000718	  x1=0x80000718
       10335000	      1032	00000000	00000013	addi	x0,x0,0	  x0:0x00000000
       10345000	      1033	800006d4	00000013	addi	x0,x0,0	  x0:0x00000000
       10355000	      1034	800006d8	fe5ff0ef	jal	x1,800006d8	  x1=0x800006d8
       10365000	      1035	00000000	00000013	addi	x0,x0,0	  x0:0x00000000
       10375000	      1036	800006b8	00000013	addi	x0,x0,0	  x0:0x00000000
       10385000	      1037	800006bc	03c000ef	jal	x1,800006bc	  x1=0x800006bc
       10395000	      1038	00000000	00000013	addi	x0,x0,0	  x0:0x00000000
       10405000	      1039	800006f4	00000013	addi	x0,x0,0	  x0:0x00000000
       10415000	      1040	800006f8	0240036f	jal	x6,800006f8	  x6=0x800006f8
       10425000	      1041	00000000	00000013	addi	x0,x0,0	  x0:0x00000000
       10435000	      1042	80000718	00000013	addi	x0,x0,0	  x0:0x00000000
       10445000	      1043	8000071c	ff5ff0ef	jal	x1,8000071c	  x1=0x8000071c
       10455000	      1044	00000000	00000013	addi	x0,x0,0	  x0:0x00000000
       10465000	      1045	8000070c	00000013	addi	x0,x0,0	  x0:0x00000000
       10475000	      1046	80000710	fc1ff0ef	jal	x1,80000710	  x1=0x80000710
       10485000	      1047	00000000	00000013	addi	x0,x0,0	  x0:0x00000000
       10495000	      1048	800006cc	00000013	addi	x0,x0,0	  x0:0x00000000
       10505000	      1049	800006d0	038000ef	jal	x1,800006d0	  x1=0x800006d0
       10515000	      1050	00000000	00000013	addi	x0,x0,0	  x0:0x00000000
       10525000	      1051	80000704	00000013	addi	x0,x0,0	  x0:0x00000000
       10535000	      1052	80000708	fd5ff0ef	jal	x1,80000708	  x1=0x80000708
       10545000	      1053	00000000	00000013	addi	x0,x0,0	  x0:0x00000000
       10555000	      1054	800006d8	00000013	addi	x0,x0,0	  x0:0x00000000
       10565000	      1055	800006dc	00c0036f	jal	x6,800006dc	  x6=0x800006dc
       10575000	      1056	00000000	00000013	addi	x0,x0,0	  x0:0x00000000
       10585000	      1057	800006e4	00000013	addi	x0,x0,0	  x0:0x00000000
       10595000	      1058	800006e8	fedff0ef	jal	x1,800006e8	  x1=0x800006e8
       10605000	      1059	00000000	00000013	addi	x0,x0,0	  x0:0x00000000
       10615000	      1060	800006d0	00000013	addi	x0,x0,0	  x0:0x00000000
       10625000	      1061	800006d4	fedff0ef	jal	x1,800006d4	  x1=0x800006d4
       10635000	      1062	00000000	00000013	addi	x0,x0,0	  x0:0x00000000
       10645000	      1063	800006bc	00000013	addi	x0,x0,0	  x0:0x00000000
       10655000	      1064	800006c0	020002ef	jal	x5,800006c0	  x5=0x800006c0
       10665000	      1065	00000000	00000013	addi	x0,x0,0	  x0:0x00000000
       10675000	      1066	800006dc	00000013	addi	x0,x0,0	  x0:0x00000000
       10685000	      1067	800006e0	fcdff26f	jal	x4,800006e0	  x4=0x800006e0
       10695000	      1068	00000000	00000013	addi	x0,x0,0	  x0:0x00000000
       10705000	      1069	800006a8	00000013	addi	x0,x0,0	  x0:0x00000000
       10715000	      1070	800006ac	078000ef	jal	x1,800006ac	  x1=0x800006ac
       10725000	      1071	00000000	00000013	addi	x0,x0,0	  x0:0x00000000
       10735000	      1072	80000720	00000013	addi	x0,x0,0	  x0:0x00000000
       10745000	      1073	80000724	01bd1d13	slli	x26,x26,0x1b	 x26:0x800003c8 x26=0x40000000
       10755000	      1074	80000728	004000ef	jal	x1,80000728	  x1=0x80000728
       10765000	      1075	00000000	00000013	addi	x0,x0,0	  x0:0x00000000
       10775000	      1076	80000728	00000013	addi	x0,x0,0	  x0:0x00000000
       10785000	      1077	8000072c	02c000ef	jal	x1,8000072c	  x1=0x8000072c
       10795000	      1078	00000000	00000013	addi	x0,x0,0	  x0:0x00000000
       10805000	      1079	80000754	00000013	addi	x0,x0,0	  x0:0x00000000
       10815000	      1080	80000758	0080046f	jal	x8,80000758	  x8=0x80000758
       10825000	      1081	00000000	00000013	addi	x0,x0,0	  x0:0x00000000
       10835000	      1082	8000075c	00000013	addi	x0,x0,0	  x0:0x00000000
       10845000	      1083	80000760	fd9ff36f	jal	x6,80000760	  x6=0x80000760
       10855000	      1084	00000000	00000013	addi	x0,x0,0	  x0:0x00000000
       10865000	      1085	80000734	00000013	addi	x0,x0,0	  x0:0x00000000
       10875000	      1086	80000738	02c000ef	jal	x1,80000738	  x1=0x80000738
       10885000	      1087	00000000	00000013	addi	x0,x0,0	  x0:0x00000000
       10895000	      1088	80000760	00000013	addi	x0,x0,0	  x0:0x00000000
       10905000	      1089	80000764	fedff36f	jal	x6,80000764	  x6=0x80000764
       10915000	      1090	00000000	00000013	addi	x0,x0,0	  x0:0x00000000
       10925000	      1091	8000074c	00000013	addi	x0,x0,0	  x0:0x00000000
       10935000	      1092	80000750	004000ef	jal	x1,80000750	  x1=0x80000750
       10945000	      1093	00000000	00000013	addi	x0,x0,0	  x0:0x00000000
       10955000	      1094	80000750	00000013	addi	x0,x0,0	  x0:0x00000000
       10965000	      1095	80000754	fe9ff0ef	jal	x1,80000754	  x1=0x80000754
       10975000	      1096	00000000	00000013	addi	x0,x0,0	  x0:0x00000000
       10985000	      1097	80000738	00000013	addi	x0,x0,0	  x0:0x00000000
       10995000	      1098	8000073c	0200036f	jal	x6,8000073c	  x6=0x8000073c
       11005000	      1099	00000000	00000013	addi	x0,x0,0	  x0:0x00000000
       11015000	      1100	80000758	00000013	addi	x0,x0,0	  x0:0x00000000
       11025000	      1101	8000075c	fd5ff0ef	jal	x1,8000075c	  x1=0x8000075c
       11035000	      1102	00000000	00000013	addi	x0,x0,0	  x0:0x00000000
       11045000	      1103	8000072c	00000013	addi	x0,x0,0	  x0:0x00000000
       11055000	      1104	80000730	01400aef	jal	x21,80000730	 x21=0x80000730
       11065000	      1105	00000000	00000013	addi	x0,x0,0	  x0:0x00000000
       11075000	      1106	80000740	00000013	addi	x0,x0,0	  x0:0x00000000
       11085000	      1107	80000744	ff1ff76f	jal	x14,80000744	 x14=0x80000744
       11095000	      1108	00000000	00000013	addi	x0,x0,0	  x0:0x00000000
       11105000	      1109	80000730	00000013	addi	x0,x0,0	  x0:0x00000000
       11115000	      1110	80000734	014000ef	jal	x1,80000734	  x1=0x80000734
       11125000	      1111	00000000	00000013	addi	x0,x0,0	  x0:0x00000000
       11135000	      1112	80000744	00000013	addi	x0,x0,0	  x0:0x00000000
       11145000	      1113	80000748	004007ef	jal	x15,80000748	 x15=0x80000748
       11155000	      1114	00000000	00000013	addi	x0,x0,0	  x0:0x00000000
       11165000	      1115	80000748	00000013	addi	x0,x0,0	  x0:0x00000000
       11175000	      1116	8000074c	ff5ff0ef	jal	x1,8000074c	  x1=0x8000074c
       11185000	      1117	00000000	00000013	addi	x0,x0,0	  x0:0x00000000
       11195000	      1118	8000073c	00000013	addi	x0,x0,0	  x0:0x00000000
       11205000	      1119	80000740	0280036f	jal	x6,80000740	  x6=0x80000740
       11215000	      1120	00000000	00000013	addi	x0,x0,0	  x0:0x00000000
       11225000	      1121	80000764	00000013	addi	x0,x0,0	  x0:0x00000000
       11235000	      1122	80000768	01d43ab3	sltu	x21,x8,x29	  x8:0x80000758 x29:0x80000610 x21=0x00000000
       11245000	      1123	8000076c	028000ef	jal	x1,8000076c	  x1=0x8000076c
       11255000	      1124	00000000	00000013	addi	x0,x0,0	  x0:0x00000000
       11265000	      1125	80000790	00000013	addi	x0,x0,0	  x0:0x00000000
       11275000	      1126	80000794	03c000ef	jal	x1,80000794	  x1=0x80000794
       11285000	      1127	00000000	00000013	addi	x0,x0,0	  x0:0x00000000
       11295000	      1128	800007cc	00000013	addi	x0,x0,0	  x0:0x00000000
       11305000	      1129	800007d0	fe1ff0ef	jal	x1,800007d0	  x1=0x800007d0
       11315000	      1130	00000000	00000013	addi	x0,x0,0	  x0:0x00000000
       11325000	      1131	800007ac	00000013	addi	x0,x0,0	  x0:0x00000000
       11335000	      1132	800007b0	0300016f	jal	x2,800007b0	  x2=0x800007b0
       11345000	      1133	00000000	00000013	addi	x0,x0,0	  x0:0x00000000
       11355000	      1134	800007dc	00000013	addi	x0,x0,0	  x0:0x00000000
       11365000	      1135	800007e0	fadff0ef	jal	x1,800007e0	  x1=0x800007e0
       11375000	      1136	00000000	00000013	addi	x0,x0,0	  x0:0x00000000
       11385000	      1137	80000788	00000013	addi	x0,x0,0	  x0:0x00000000
       11395000	      1138	8000078c	034000ef	jal	x1,8000078c	  x1=0x8000078c
       11405000	      1139	00000000	00000013	addi	x0,x0,0	  x0:0x00000000
       11415000	      1140	800007bc	00000013	addi	x0,x0,0	  x0:0x00000000
       11425000	      1141	800007c0	fd9ffaef	jal	x21,800007c0	 x21=0x800007c0
       11435000	      1142	00000000	00000013	addi	x0,x0,0	  x0:0x00000000
       11445000	      1143	80000794	00000013	addi	x0,x0,0	  x0:0x00000000
       11455000	      1144	80000798	004000ef	jal	x1,80000798	  x1=0x80000798
       11465000	      1145	00000000	00000013	addi	x0,x0,0	  x0:0x00000000
       11475000	      1146	80000798	00000013	addi	x0,x0,0	  x0:0x00000000
       11485000	      1147	8000079c	010000ef	jal	x1,8000079c	  x1=0x8000079c
       11495000	      1148	00000000	00000013	addi	x0,x0,0	  x0:0x00000000
       11505000	      1149	800007a8	00000013	addi	x0,x0,0	  x0:0x00000000
       11515000	      1150	800007ac	fd9ff16f	jal	x2,800007ac	  x2=0x800007ac
       11525000	      1151	00000000	00000013	addi	x0,x0,0	  x0:0x00000000
       11535000	      1152	80000780	00000013	addi	x0,x0,0	  x0:0x00000000
       11545000	      1153	80000784	01c000ef	jal	x1,80000784	  x1=0x80000784
       11555000	      1154	00000000	00000013	addi	x0,x0,0	  x0:0x00000000
       11565000	      1155	8000079c	00000013	addi	x0,x0,0	  x0:0x00000000
       11575000	      1156	800007a0	034000ef	jal	x1,800007a0	  x1=0x800007a0
       11585000	      1157	00000000	00000013	addi	x0,x0,0	  x0:0x00000000
       11595000	      1158	800007d0	00000013	addi	x0,x0,0	  x0:0x00000000
       11605000	      1159	800007d4	fbdff36f	jal	x6,800007d4	  x6=0x800007d4
       11615000	      1160	00000000	00000013	addi	x0,x0,0	  x0:0x00000000
       11625000	      1161	8000078c	00000013	addi	x0,x0,0	  x0:0x00000000
       11635000	      1162	80000790	ff9ff7ef	jal	x15,80000790	 x15=0x80000790
       11645000	      1163	00000000	00000013	addi	x0,x0,0	  x0:0x00000000
       11655000	      1164	80000784	00000013	addi	x0,x0,0	  x0:0x00000000
       11665000	      1165	80000788	030000ef	jal	x1,80000788	  x1=0x80000788
       11675000	      1166	00000000	00000013	addi	x0,x0,0	  x0:0x00000000
       11685000	      1167	800007b4	00000013	addi	x0,x0,0	  x0:0x00000000
       11695000	      1168	800007b8	ff1ff0ef	jal	x1,800007b8	  x1=0x800007b8
       11705000	      1169	00000000	00000013	addi	x0,x0,0	  x0:0x00000000
       11715000	      1170	800007a4	00000013	addi	x0,x0,0	  x0:0x00000000
       11725000	      1171	800007a8	0200026f	jal	x4,800007a8	  x4=0x800007a8
       11735000	      1172	00000000	00000013	addi	x0,x0,0	  x0:0x00000000
       11745000	      1173	800007c4	00000013	addi	x0,x0,0	  x0:0x00000000
       11755000	      1174	800007c8	014000ef	jal	x1,800007c8	  x1=0x800007c8
       11765000	      1175	00000000	00000013	addi	x0,x0,0	  x0:0x00000000
       11775000	      1176	800007d8	00000013	addi	x0,x0,0	  x0:0x00000000
       11785000	      1177	800007dc	f95ff0ef	jal	x1,800007dc	  x1=0x800007dc
       11795000	      1178	00000000	00000013	addi	x0,x0,0	  x0:0x00000000
       11805000	      1179	8000076c	00000013	addi	x0,x0,0	  x0:0x00000000
       11815000	      1180	80000770	0340036f	jal	x6,80000770	  x6=0x80000770
       11825000	      1181	00000000	00000013	addi	x0,x0,0	  x0:0x00000000
       11835000	      1182	800007a0	00000013	addi	x0,x0,0	  x0:0x00000000
       11845000	      1183	800007a4	fd5ff0ef	jal	x1,800007a4	  x1=0x800007a4
       11855000	      1184	00000000	00000013	addi	x0,x0,0	  x0:0x00000000
       11865000	      1185	80000774	00000013	addi	x0,x0,0	  x0:0x00000000
       11875000	      1186	80000778	00800e6f	jal	x28,80000778	 x28=0x80000778
       11885000	      1187	00000000	00000013	addi	x0,x0,0	  x0:0x00000000
       11895000	      1188	8000077c	00000013	addi	x0,x0,0	  x0:0x00000000
       11905000	      1189	80000780	ffdff0ef	jal	x1,80000780	  x1=0x80000780
       11915000	      1190	00000000	00000013	addi	x0,x0,0	  x0:0x00000000
       11925000	      1191	80000778	00000013	addi	x0,x0,0	  x0:0x00000000
       11935000	      1192	8000077c	0400016f	jal	x2,8000077c	  x2=0x8000077c
       11945000	      1193	00000000	00000013	addi	x0,x0,0	  x0:0x00000000
       11955000	      1194	800007b8	00000013	addi	x0,x0,0	  x0:0x00000000
       11965000	      1195	800007bc	0080036f	jal	x6,800007bc	  x6=0x800007bc
       11975000	      1196	00000000	00000013	addi	x0,x0,0	  x0:0x00000000
       11985000	      1197	800007c0	00000013	addi	x0,x0,0	  x0:0x00000000
       11995000	      1198	800007c4	0080076f	jal	x14,800007c4	 x14=0x800007c4
       12005000	      1199	00000000	00000013	addi	x0,x0,0	  x0:0x00000000
       12015000	      1200	800007c8	00000013	addi	x0,x0,0	  x0:0x00000000
       12025000	      1201	800007cc	00c0036f	jal	x6,800007cc	  x6=0x800007cc
       12035000	      1202	00000000	00000013	addi	x0,x0,0	  x0:0x00000000
       12045000	      1203	800007d4	00000013	addi	x0,x0,0	  x0:0x00000000
       12055000	      1204	800007d8	f9dff0ef	jal	x1,800007d8	  x1=0x800007d8
       12065000	      1205	00000000	00000013	addi	x0,x0,0	  x0:0x00000000
       12075000	      1206	80000770	00000013	addi	x0,x0,0	  x0:0x00000000
       12085000	      1207	80000774	04000e6f	jal	x28,80000774	 x28=0x80000774
       12095000	      1208	00000000	00000013	addi	x0,x0,0	  x0:0x00000000
       12105000	      1209	800007b0	00000013	addi	x0,x0,0	  x0:0x00000000
       12115000	      1210	800007b4	03000e6f	jal	x28,800007b4	 x28=0x800007b4
       12125000	      1211	00000000	00000013	addi	x0,x0,0	  x0:0x00000000
       12135000	      1212	800007e0	00000013	addi	x0,x0,0	  x0:0x00000000
       12145000	      1213	800007e4	f2a98097	auipc	x1,0xf2a98	  x1=0x72a987e0
       12155000	      1214	800007e8	018000ef	jal	x1,800007e8	  x1=0x800007e8
       12165000	      1215	00000000	00000013	addi	x0,x0,0	  x0:0x00000000
       12175000	      1216	800007fc	00000013	addi	x0,x0,0	  x0:0x00000000
       12185000	      1217	80000800	ff9ffc6f	jal	x24,80000800	 x24=0x80000800
       12195000	      1218	00000000	00000013	addi	x0,x0,0	  x0:0x00000000
       12205000	      1219	800007f4	00000013	addi	x0,x0,0	  x0:0x00000000
       12215000	      1220	800007f8	ff5ff0ef	jal	x1,800007f8	  x1=0x800007f8
       12225000	      1221	00000000	00000013	addi	x0,x0,0	  x0:0x00000000
       12235000	      1222	800007e8	00000013	addi	x0,x0,0	  x0:0x00000000
       12245000	      1223	800007ec	008000ef	jal	x1,800007ec	  x1=0x800007ec
       12255000	      1224	00000000	00000013	addi	x0,x0,0	  x0:0x00000000
       12265000	      1225	800007f0	00000013	addi	x0,x0,0	  x0:0x00000000
       12275000	      1226	800007f4	01c0026f	jal	x4,800007f4	  x4=0x800007f4
       12285000	      1227	00000000	00000013	addi	x0,x0,0	  x0:0x00000000
       12295000	      1228	8000080c	00000013	addi	x0,x0,0	  x0:0x00000000
       12305000	      1229	80000810	004000ef	jal	x1,80000810	  x1=0x80000810
       12315000	      1230	00000000	00000013	addi	x0,x0,0	  x0:0x00000000
       12325000	      1231	80000810	00000013	addi	x0,x0,0	  x0:0x00000000
       12335000	      1232	80000814	fddff0ef	jal	x1,80000814	  x1=0x80000814
       12345000	      1233	00000000	00000013	addi	x0,x0,0	  x0:0x00000000
       12355000	      1234	800007ec	00000013	addi	x0,x0,0	  x0:0x00000000
       12365000	      1235	800007f0	018000ef	jal	x1,800007f0	  x1=0x800007f0
       12375000	      1236	00000000	00000013	addi	x0,x0,0	  x0:0x00000000
       12385000	      1237	80000804	00000013	addi	x0,x0,0	  x0:0x00000000
       12395000	      1238	80000808	ff5ff36f	jal	x6,80000808	  x6=0x80000808
       12405000	      1239	00000000	00000013	addi	x0,x0,0	  x0:0x00000000
       12415000	      1240	800007f8	00000013	addi	x0,x0,0	  x0:0x00000000
       12425000	      1241	800007fc	010002ef	jal	x5,800007fc	  x5=0x800007fc
       12435000	      1242	00000000	00000013	addi	x0,x0,0	  x0:0x00000000
       12445000	      1243	80000808	00000013	addi	x0,x0,0	  x0:0x00000000
       12455000	      1244	8000080c	ff9ff2ef	jal	x5,8000080c	  x5=0x8000080c
       12465000	      1245	00000000	00000013	addi	x0,x0,0	  x0:0x00000000
       12475000	      1246	80000800	00000013	addi	x0,x0,0	  x0:0x00000000
       12485000	      1247	80000804	014000ef	jal	x1,80000804	  x1=0x80000804
       12495000	      1248	00000000	00000013	addi	x0,x0,0	  x0:0x00000000
       12505000	      1249	80000814	00000013	addi	x0,x0,0	  x0:0x00000000
       12515000	      1250	80000818	e10e0e13	addi	x28,x28,-496	 x28:0x800007b4 x28=0x800005c4
       12525000	      1251	8000081c	034000ef	jal	x1,8000081c	  x1=0x8000081c
       12535000	      1252	00000000	00000013	addi	x0,x0,0	  x0:0x00000000
       12545000	      1253	8000084c	00000013	addi	x0,x0,0	  x0:0x00000000
       12555000	      1254	80000850	fe1ff2ef	jal	x5,80000850	  x5=0x80000850
       12565000	      1255	00000000	00000013	addi	x0,x0,0	  x0:0x00000000
       12575000	      1256	8000082c	00000013	addi	x0,x0,0	  x0:0x00000000
       12585000	      1257	80000830	00c000ef	jal	x1,80000830	  x1=0x80000830
       12595000	      1258	00000000	00000013	addi	x0,x0,0	  x0:0x00000000
       12605000	      1259	80000838	00000013	addi	x0,x0,0	  x0:0x00000000
       12615000	      1260	8000083c	ffdff86f	jal	x16,8000083c	 x16=0x8000083c
       12625000	      1261	00000000	00000013	addi	x0,x0,0	  x0:0x00000000
       12635000	      1262	80000834	00000013	addi	x0,x0,0	  x0:0x00000000
       12645000	      1263	80000838	fedff1ef	jal	x3,80000838	  x3=0x80000838
       12655000	      1264	00000000	00000013	addi	x0,x0,0	  x0:0x00000000
       12665000	      1265	80000820	00000013	addi	x0,x0,0	  x0:0x00000000
       12675000	      1266	80000824	020001ef	jal	x3,80000824	  x3=0x80000824
       12685000	      1267	00000000	00000013	addi	x0,x0,0	  x0:0x00000000
       12695000	      1268	80000840	00000013	addi	x0,x0,0	  x0:0x00000000
       12705000	      1269	80000844	fddff36f	jal	x6,80000844	  x6=0x80000844
       12715000	      1270	00000000	00000013	addi	x0,x0,0	  x0:0x00000000
       12725000	      1271	8000081c	00000013	addi	x0,x0,0	  x0:0x00000000
       12735000	      1272	80000820	008000ef	jal	x1,80000820	  x1=0x80000820
       12745000	      1273	00000000	00000013	addi	x0,x0,0	  x0:0x00000000
       12755000	      1274	80000824	00000013	addi	x0,x0,0	  x0:0x00000000
       12765000	      1275	80000828	00c000ef	jal	x1,80000828	  x1=0x80000828
       12775000	      1276	00000000	00000013	addi	x0,x0,0	  x0:0x00000000
       12785000	      1277	80000830	00000013	addi	x0,x0,0	  x0:0x00000000
       12795000	      1278	80000834	0140036f	jal	x6,80000834	  x6=0x80000834
       12805000	      1279	00000000	00000013	addi	x0,x0,0	  x0:0x00000000
       12815000	      1280	80000844	00000013	addi	x0,x0,0	  x0:0x00000000
       12825000	      1281	80000848	fe5ff46f	jal	x8,80000848	  x8=0x80000848
       12835000	      1282	00000000	00000013	addi	x0,x0,0	  x0:0x00000000
       12845000	      1283	80000828	00000013	addi	x0,x0,0	  x0:0x00000000
       12855000	      1284	8000082c	0200086f	jal	x16,8000082c	 x16=0x8000082c
       12865000	      1285	00000000	00000013	addi	x0,x0,0	  x0:0x00000000
       12875000	      1286	80000848	00000013	addi	x0,x0,0	  x0:0x00000000
       12885000	      1287	8000084c	ff5ff9ef	jal	x19,8000084c	 x19=0x8000084c
       12895000	      1288	00000000	00000013	addi	x0,x0,0	  x0:0x00000000
       12905000	      1289	8000083c	00000013	addi	x0,x0,0	  x0:0x00000000
       12915000	      1290	80000840	0140026f	jal	x4,80000840	  x4=0x80000840
       12925000	      1291	00000000	00000013	addi	x0,x0,0	  x0:0x00000000
       12935000	      1292	80000850	00000013	addi	x0,x0,0	  x0:0x00000000
       12945000	      1293	80000854	013a53b3	srl	x7,x20,x19	 x20:0x80009f5c x19:0x8000084c  x7=0x00080009
       12955000	      1294	80000858	034000ef	jal	x1,80000858	  x1=0x80000858
       12965000	      1295	00000000	00000013	addi	x0,x0,0	  x0:0x00000000
       12975000	      1296	80000888	00000013	addi	x0,x0,0	  x0:0x00000000
       12985000	      1297	8000088c	ffdffbef	jal	x23,8000088c	 x23=0x8000088c
       12995000	      1298	00000000	00000013	addi	x0,x0,0	  x0:0x00000000
       13005000	      1299	80000884	00000013	addi	x0,x0,0	  x0:0x00000000
       13015000	      1300	80000888	ff9ff0ef	jal	x1,80000888	  x1=0x80000888
       13025000	      1301	00000000	00000013	addi	x0,x0,0	  x0:0x00000000
       13035000	      1302	8000087c	00000013	addi	x0,x0,0	  x0:0x00000000
       13045000	      1303	80000880	ff1ff0ef	jal	x1,80000880	  x1=0x80000880
       13055000	      1304	00000000	00000013	addi	x0,x0,0	  x0:0x00000000
       13065000	      1305	8000086c	00000013	addi	x0,x0,0	  x0:0x00000000
       13075000	      1306	80000870	014000ef	jal	x1,80000870	  x1=0x80000870
       13085000	      1307	00000000	00000013	addi	x0,x0,0	  x0:0x00000000
       13095000	      1308	80000880	00000013	addi	x0,x0,0	  x0:0x00000000
       13105000	      1309	80000884	fddff9ef	jal	x19,80000884	 x19=0x80000884
       13115000	      1310	00000000	00000013	addi	x0,x0,0	  x0:0x00000000
       13125000	      1311	8000085c	00000013	addi	x0,x0,0	  x0:0x00000000
       13135000	      1312	80000860	00c0036f	jal	x6,80000860	  x6=0x80000860
       13145000	      1313	00000000	00000013	addi	x0,x0,0	  x0:0x00000000
       13155000	      1314	80000868	00000013	addi	x0,x0,0	  x0:0x00000000
       13165000	      1315	8000086c	00c0016f	jal	x2,8000086c	  x2=0x8000086c
       13175000	      1316	00000000	00000013	addi	x0,x0,0	  x0:0x00000000
       13185000	      1317	80000874	00000013	addi	x0,x0,0	  x0:0x00000000
       13195000	      1318	80000878	fedff36f	jal	x6,80000878	  x6=0x80000878
       13205000	      1319	00000000	00000013	addi	x0,x0,0	  x0:0x00000000
       13215000	      1320	80000860	00000013	addi	x0,x0,0	  x0:0x00000000
       13225000	      1321	80000864	ff9ff16f	jal	x2,80000864	  x2=0x80000864
       13235000	      1322	00000000	00000013	addi	x0,x0,0	  x0:0x00000000
       13245000	      1323	80000858	00000013	addi	x0,x0,0	  x0:0x00000000
       13255000	      1324	8000085c	0180036f	jal	x6,8000085c	  x6=0x8000085c
       13265000	      1325	00000000	00000013	addi	x0,x0,0	  x0:0x00000000
       13275000	      1326	80000870	00000013	addi	x0,x0,0	  x0:0x00000000
       13285000	      1327	80000874	0080036f	jal	x6,80000874	  x6=0x80000874
       13295000	      1328	00000000	00000013	addi	x0,x0,0	  x0:0x00000000
       13305000	      1329	80000878	00000013	addi	x0,x0,0	  x0:0x00000000
       13315000	      1330	8000087c	fedff0ef	jal	x1,8000087c	  x1=0x8000087c
       13325000	      1331	00000000	00000013	addi	x0,x0,0	  x0:0x00000000
       13335000	      1332	80000864	00000013	addi	x0,x0,0	  x0:0x00000000
       13345000	      1333	80000868	028000ef	jal	x1,80000868	  x1=0x80000868
       13355000	      1334	00000000	00000013	addi	x0,x0,0	  x0:0x00000000
       13365000	      1335	8000088c	00000013	addi	x0,x0,0	  x0:0x00000000
       13375000	      1336	80000890	11168793	addi	x15,x13,273	 x13:0x7fff603c x15=0x7fff614d
       13385000	      1337	80000894	074000ef	jal	x1,80000894	  x1=0x80000894
       13395000	      1338	00000000	00000013	addi	x0,x0,0	  x0:0x00000000
       13405000	      1339	80000904	00000013	addi	x0,x0,0	  x0:0x00000000
       13415000	      1340	80000908	ffdff0ef	jal	x1,80000908	  x1=0x80000908
       13425000	      1341	00000000	00000013	addi	x0,x0,0	  x0:0x00000000
       13435000	      1342	80000900	00000013	addi	x0,x0,0	  x0:0x00000000
       13445000	      1343	80000904	fb5ff0ef	jal	x1,80000904	  x1=0x80000904
       13455000	      1344	00000000	00000013	addi	x0,x0,0	  x0:0x00000000
       13465000	      1345	800008b4	00000013	addi	x0,x0,0	  x0:0x00000000
       13475000	      1346	800008b8	ff1ff36f	jal	x6,800008b8	  x6=0x800008b8
       13485000	      1347	00000000	00000013	addi	x0,x0,0	  x0:0x00000000
       13495000	      1348	800008a4	00000013	addi	x0,x0,0	  x0:0x00000000
       13505000	      1349	800008a8	024000ef	jal	x1,800008a8	  x1=0x800008a8
       13515000	      1350	00000000	00000013	addi	x0,x0,0	  x0:0x00000000
       13525000	      1351	800008c8	00000013	addi	x0,x0,0	  x0:0x00000000
       13535000	      1352	800008cc	fcdff26f	jal	x4,800008cc	  x4=0x800008cc
       13545000	      1353	00000000	00000013	addi	x0,x0,0	  x0:0x00000000
       13555000	      1354	80000894	00000013	addi	x0,x0,0	  x0:0x00000000
       13565000	      1355	80000898	068000ef	jal	x1,80000898	  x1=0x80000898
       13575000	      1356	00000000	00000013	addi	x0,x0,0	  x0:0x00000000
       13585000	      1357	800008fc	00000013	addi	x0,x0,0	  x0:0x00000000
       13595000	      1358	80000900	fb1ffb6f	jal	x22,80000900	 x22=0x80000900
       13605000	      1359	00000000	00000013	addi	x0,x0,0	  x0:0x00000000
       13615000	      1360	800008ac	00000013	addi	x0,x0,0	  x0:0x00000000
       13625000	      1361	800008b0	004000ef	jal	x1,800008b0	  x1=0x800008b0
       13635000	      1362	00000000	00000013	addi	x0,x0,0	  x0:0x00000000
       13645000	      1363	800008b0	00000013	addi	x0,x0,0	  x0:0x00000000
       13655000	      1364	800008b4	ff1ff36f	jal	x6,800008b4	  x6=0x800008b4
       13665000	      1365	00000000	00000013	addi	x0,x0,0	  x0:0x00000000
       13675000	      1366	800008a0	00000013	addi	x0,x0,0	  x0:0x00000000
       13685000	      1367	800008a4	0300036f	jal	x6,800008a4	  x6=0x800008a4
       13695000	      1368	00000000	00000013	addi	x0,x0,0	  x0:0x00000000
       13705000	      1369	800008d0	00000013	addi	x0,x0,0	  x0:0x00000000
       13715000	      1370	800008d4	00c000ef	jal	x1,800008d4	  x1=0x800008d4
       13725000	      1371	00000000	00000013	addi	x0,x0,0	  x0:0x00000000
       13735000	      1372	800008dc	00000013	addi	x0,x0,0	  x0:0x00000000
       13745000	      1373	800008e0	01c0036f	jal	x6,800008e0	  x6=0x800008e0
       13755000	      1374	00000000	00000013	addi	x0,x0,0	  x0:0x00000000
       13765000	      1375	800008f8	00000013	addi	x0,x0,0	  x0:0x00000000
       13775000	      1376	800008fc	ffdff0ef	jal	x1,800008fc	  x1=0x800008fc
       13785000	      1377	00000000	00000013	addi	x0,x0,0	  x0:0x00000000
       13795000	      1378	800008f4	00000013	addi	x0,x0,0	  x0:0x00000000
       13805000	      1379	800008f8	fd1ff0ef	jal	x1,800008f8	  x1=0x800008f8
       13815000	      1380	00000000	00000013	addi	x0,x0,0	  x0:0x00000000
       13825000	      1381	800008c4	00000013	addi	x0,x0,0	  x0:0x00000000
       13835000	      1382	800008c8	02c00eef	jal	x29,800008c8	 x29=0x800008c8
       13845000	      1383	00000000	00000013	addi	x0,x0,0	  x0:0x00000000
       13855000	      1384	800008f0	00000013	addi	x0,x0,0	  x0:0x00000000
       13865000	      1385	800008f4	fc9ffbef	jal	x23,800008f4	 x23=0x800008f4
       13875000	      1386	00000000	00000013	addi	x0,x0,0	  x0:0x00000000
       13885000	      1387	800008b8	00000013	addi	x0,x0,0	  x0:0x00000000
       13895000	      1388	800008bc	028000ef	jal	x1,800008bc	  x1=0x800008bc
       13905000	      1389	00000000	00000013	addi	x0,x0,0	  x0:0x00000000
       13915000	      1390	800008e0	00000013	addi	x0,x0,0	  x0:0x00000000
       13925000	      1391	800008e4	fc9ffdef	jal	x27,800008e4	 x27=0x800008e4
       13935000	      1392	00000000	00000013	addi	x0,x0,0	  x0:0x00000000
       13945000	      1393	800008a8	00000013	addi	x0,x0,0	  x0:0x00000000
       13955000	      1394	800008ac	ff1ff0ef	jal	x1,800008ac	  x1=0x800008ac
       13965000	      1395	00000000	00000013	addi	x0,x0,0	  x0:0x00000000
       13975000	      1396	80000898	00000013	addi	x0,x0,0	  x0:0x00000000
       13985000	      1397	8000089c	0240036f	jal	x6,8000089c	  x6=0x8000089c
       13995000	      1398	00000000	00000013	addi	x0,x0,0	  x0:0x00000000
       14005000	      1399	800008bc	00000013	addi	x0,x0,0	  x0:0x00000000
       14015000	      1400	800008c0	018000ef	jal	x1,800008c0	  x1=0x800008c0
       14025000	      1401	00000000	00000013	addi	x0,x0,0	  x0:0x00000000
       14035000	      1402	800008d4	00000013	addi	x0,x0,0	  x0:0x00000000
       14045000	      1403	800008d8	018000ef	jal	x1,800008d8	  x1=0x800008d8
       14055000	      1404	00000000	00000013	addi	x0,x0,0	  x0:0x00000000
       14065000	      1405	800008ec	00000013	addi	x0,x0,0	  x0:0x00000000
       14075000	      1406	800008f0	fb1ff0ef	jal	x1,800008f0	  x1=0x800008f0
       14085000	      1407	00000000	00000013	addi	x0,x0,0	  x0:0x00000000
       14095000	      1408	8000089c	00000013	addi	x0,x0,0	  x0:0x00000000
       14105000	      1409	800008a0	030000ef	jal	x1,800008a0	  x1=0x800008a0
       14115000	      1410	00000000	00000013	addi	x0,x0,0	  x0:0x00000000
       14125000	      1411	800008cc	00000013	addi	x0,x0,0	  x0:0x00000000
       14135000	      1412	800008d0	00c008ef	jal	x17,800008d0	 x17=0x800008d0
       14145000	      1413	00000000	00000013	addi	x0,x0,0	  x0:0x00000000
       14155000	      1414	800008d8	00000013	addi	x0,x0,0	  x0:0x00000000
       14165000	      1415	800008dc	fe9ff0ef	jal	x1,800008dc	  x1=0x800008dc
       14175000	      1416	00000000	00000013	addi	x0,x0,0	  x0:0x00000000
       14185000	      1417	800008c0	00000013	addi	x0,x0,0	  x0:0x00000000
       14195000	      1418	800008c4	0280026f	jal	x4,800008c4	  x4=0x800008c4
       14205000	      1419	00000000	00000013	addi	x0,x0,0	  x0:0x00000000
       14215000	      1420	800008e8	00000013	addi	x0,x0,0	  x0:0x00000000
       14225000	      1421	800008ec	ffdffd6f	jal	x26,800008ec	 x26=0x800008ec
       14235000	      1422	00000000	00000013	addi	x0,x0,0	  x0:0x00000000
       14245000	      1423	800008e4	00000013	addi	x0,x0,0	  x0:0x00000000
       14255000	      1424	800008e8	024001ef	jal	x3,800008e8	  x3=0x800008e8
       14265000	      1425	00000000	00000013	addi	x0,x0,0	  x0:0x00000000
       14275000	      1426	80000908	00000013	addi	x0,x0,0	  x0:0x00000000
       14285000	      1427	8000090c	44a3f417	auipc	x8,0x44a3f	  x8=0xc4a3f908
       14295000	      1428	80000910	028000ef	jal	x1,80000910	  x1=0x80000910
       14305000	      1429	00000000	00000013	addi	x0,x0,0	  x0:0x00000000
       14315000	      1430	80000934	00000013	addi	x0,x0,0	  x0:0x00000000
       14325000	      1431	80000938	fe5ff0ef	jal	x1,80000938	  x1=0x80000938
       14335000	      1432	00000000	00000013	addi	x0,x0,0	  x0:0x00000000
       14345000	      1433	80000918	00000013	addi	x0,x0,0	  x0:0x00000000
       14355000	      1434	8000091c	014000ef	jal	x1,8000091c	  x1=0x8000091c
       14365000	      1435	00000000	00000013	addi	x0,x0,0	  x0:0x00000000
       14375000	      1436	8000092c	00000013	addi	x0,x0,0	  x0:0x00000000
       14385000	      1437	80000930	00c00eef	jal	x29,80000930	 x29=0x80000930
       14395000	      1438	00000000	00000013	addi	x0,x0,0	  x0:0x00000000
       14405000	      1439	80000938	00000013	addi	x0,x0,0	  x0:0x00000000
       14415000	      1440	8000093c	0040016f	jal	x2,8000093c	  x2=0x8000093c
       14425000	      1441	00000000	00000013	addi	x0,x0,0	  x0:0x00000000
       14435000	      1442	8000093c	00000013	addi	x0,x0,0	  x0:0x00000000
       14445000	      1443	80000940	004000ef	jal	x1,80000940	  x1=0x80000940
       14455000	      1444	00000000	00000013	addi	x0,x0,0	  x0:0x00000000
       14465000	      1445	80000940	00000013	addi	x0,x0,0	  x0:0x00000000
       14475000	      1446	80000944	fddff0ef	jal	x1,80000944	  x1=0x80000944
       14485000	      1447	00000000	00000013	addi	x0,x0,0	  x0:0x00000000
       14495000	      1448	8000091c	00000013	addi	x0,x0,0	  x0:0x00000000
       14505000	      1449	80000920	ff9ff56f	jal	x10,80000920	 x10=0x80000920
       14515000	      1450	00000000	00000013	addi	x0,x0,0	  x0:0x00000000
       14525000	      1451	80000914	00000013	addi	x0,x0,0	  x0:0x00000000
       14535000	      1452	80000918	01c00d6f	jal	x26,80000918	 x26=0x80000918
       14545000	      1453	00000000	00000013	addi	x0,x0,0	  x0:0x00000000
       14555000	      1454	80000930	00000013	addi	x0,x0,0	  x0:0x00000000
       14565000	      1455	80000934	ff5ff9ef	jal	x19,80000934	 x19=0x80000934
       14575000	      1456	00000000	00000013	addi	x0,x0,0	  x0:0x00000000
       14585000	      1457	80000924	00000013	addi	x0,x0,0	  x0:0x00000000
       14595000	      1458	80000928	ffdff0ef	jal	x1,80000928	  x1=0x80000928
       14605000	      1459	00000000	00000013	addi	x0,x0,0	  x0:0x00000000
       14615000	      1460	80000920	00000013	addi	x0,x0,0	  x0:0x00000000
       14625000	      1461	80000924	ff1ff0ef	jal	x1,80000924	  x1=0x80000924
       14635000	      1462	00000000	00000013	addi	x0,x0,0	  x0:0x00000000
       14645000	      1463	80000910	00000013	addi	x0,x0,0	  x0:0x00000000
       14655000	      1464	80000914	0180026f	jal	x4,80000914	  x4=0x80000914
       14665000	      1465	00000000	00000013	addi	x0,x0,0	  x0:0x00000000
       14675000	      1466	80000928	00000013	addi	x0,x0,0	  x0:0x00000000
       14685000	      1467	8000092c	01c000ef	jal	x1,8000092c	  x1=0x8000092c
       14695000	      1468	00000000	00000013	addi	x0,x0,0	  x0:0x00000000
       14705000	      1469	80000944	00000013	addi	x0,x0,0	  x0:0x00000000
       14715000	      1470	80000948	00301e13	slli	x28,x0,0x3	  x0:0x00000000 x28=0x00000000
       14725000	      1471	8000094c	040000ef	jal	x1,8000094c	  x1=0x8000094c
       14735000	      1472	00000000	00000013	addi	x0,x0,0	  x0:0x00000000
       14745000	      1473	80000988	00000013	addi	x0,x0,0	  x0:0x00000000
       14755000	      1474	8000098c	0080026f	jal	x4,8000098c	  x4=0x8000098c
       14765000	      1475	00000000	00000013	addi	x0,x0,0	  x0:0x00000000
       14775000	      1476	80000990	00000013	addi	x0,x0,0	  x0:0x00000000
       14785000	      1477	80000994	020000ef	jal	x1,80000994	  x1=0x80000994
       14795000	      1478	00000000	00000013	addi	x0,x0,0	  x0:0x00000000
       14805000	      1479	800009b0	00000013	addi	x0,x0,0	  x0:0x00000000
       14815000	      1480	800009b4	fadff0ef	jal	x1,800009b4	  x1=0x800009b4
       14825000	      1481	00000000	00000013	addi	x0,x0,0	  x0:0x00000000
       14835000	      1482	8000095c	00000013	addi	x0,x0,0	  x0:0x00000000
       14845000	      1483	80000960	04c000ef	jal	x1,80000960	  x1=0x80000960
       14855000	      1484	00000000	00000013	addi	x0,x0,0	  x0:0x00000000
       14865000	      1485	800009a8	00000013	addi	x0,x0,0	  x0:0x00000000
       14875000	      1486	800009ac	fa5ff0ef	jal	x1,800009ac	  x1=0x800009ac
       14885000	      1487	00000000	00000013	addi	x0,x0,0	  x0:0x00000000
       14895000	      1488	8000094c	00000013	addi	x0,x0,0	  x0:0x00000000
       14905000	      1489	80000950	068000ef	jal	x1,80000950	  x1=0x80000950
       14915000	      1490	00000000	00000013	addi	x0,x0,0	  x0:0x00000000
       14925000	      1491	800009b4	00000013	addi	x0,x0,0	  x0:0x00000000
       14935000	      1492	800009b8	fedff0ef	jal	x1,800009b8	  x1=0x800009b8
       14945000	      1493	00000000	00000013	addi	x0,x0,0	  x0:0x00000000
       14955000	      1494	800009a0	00000013	addi	x0,x0,0	  x0:0x00000000
       14965000	      1495	800009a4	ff5ff1ef	jal	x3,800009a4	  x3=0x800009a4
       14975000	      1496	00000000	00000013	addi	x0,x0,0	  x0:0x00000000
       14985000	      1497	80000994	00000013	addi	x0,x0,0	  x0:0x00000000
       14995000	      1498	80000998	fbdff26f	jal	x4,80000998	  x4=0x80000998
       15005000	      1499	00000000	00000013	addi	x0,x0,0	  x0:0x00000000
       15015000	      1500	80000950	00000013	addi	x0,x0,0	  x0:0x00000000
       15025000	      1501	80000954	0100036f	jal	x6,80000954	  x6=0x80000954
       15035000	      1502	00000000	00000013	addi	x0,x0,0	  x0:0x00000000
       15045000	      1503	80000960	00000013	addi	x0,x0,0	  x0:0x00000000
       15055000	      1504	80000964	0240036f	jal	x6,80000964	  x6=0x80000964
       15065000	      1505	00000000	00000013	addi	x0,x0,0	  x0:0x00000000
       15075000	      1506	80000984	00000013	addi	x0,x0,0	  x0:0x00000000
       15085000	      1507	80000988	ff9ffb6f	jal	x22,80000988	 x22=0x80000988
       15095000	      1508	00000000	00000013	addi	x0,x0,0	  x0:0x00000000
       15105000	      1509	8000097c	00000013	addi	x0,x0,0	  x0:0x00000000
       15115000	      1510	80000980	0280036f	jal	x6,80000980	  x6=0x80000980
       15125000	      1511	00000000	00000013	addi	x0,x0,0	  x0:0x00000000
       15135000	      1512	800009a4	00000013	addi	x0,x0,0	  x0:0x00000000
       15145000	      1513	800009a8	fc9ff36f	jal	x6,800009a8	  x6=0x800009a8
       15155000	      1514	00000000	00000013	addi	x0,x0,0	  x0:0x00000000
       15165000	      1515	8000096c	00000013	addi	x0,x0,0	  x0:0x00000000
       15175000	      1516	80000970	020000ef	jal	x1,80000970	  x1=0x80000970
       15185000	      1517	00000000	00000013	addi	x0,x0,0	  x0:0x00000000
       15195000	      1518	8000098c	00000013	addi	x0,x0,0	  x0:0x00000000
       15205000	      1519	80000990	fcdff0ef	jal	x1,80000990	  x1=0x80000990
       15215000	      1520	00000000	00000013	addi	x0,x0,0	  x0:0x00000000
       15225000	      1521	80000958	00000013	addi	x0,x0,0	  x0:0x00000000
       15235000	      1522	8000095c	040000ef	jal	x1,8000095c	  x1=0x8000095c
       15245000	      1523	00000000	00000013	addi	x0,x0,0	  x0:0x00000000
       15255000	      1524	80000998	00000013	addi	x0,x0,0	  x0:0x00000000
       15265000	      1525	8000099c	fcdff36f	jal	x6,8000099c	  x6=0x8000099c
       15275000	      1526	00000000	00000013	addi	x0,x0,0	  x0:0x00000000
       15285000	      1527	80000964	00000013	addi	x0,x0,0	  x0:0x00000000
       15295000	      1528	80000968	014000ef	jal	x1,80000968	  x1=0x80000968
       15305000	      1529	00000000	00000013	addi	x0,x0,0	  x0:0x00000000
       15315000	      1530	80000978	00000013	addi	x0,x0,0	  x0:0x00000000
       15325000	      1531	8000097c	ffdffcef	jal	x25,8000097c	 x25=0x8000097c
       15335000	      1532	00000000	00000013	addi	x0,x0,0	  x0:0x00000000
       15345000	      1533	80000974	00000013	addi	x0,x0,0	  x0:0x00000000
       15355000	      1534	80000978	ffdff36f	jal	x6,80000978	  x6=0x80000978
       15365000	      1535	00000000	00000013	addi	x0,x0,0	  x0:0x00000000
       15375000	      1536	80000970	00000013	addi	x0,x0,0	  x0:0x00000000
       15385000	      1537	80000974	03c0036f	jal	x6,80000974	  x6=0x80000974
       15395000	      1538	00000000	00000013	addi	x0,x0,0	  x0:0x00000000
       15405000	      1539	800009ac	00000013	addi	x0,x0,0	  x0:0x00000000
       15415000	      1540	800009b0	fa9ff36f	jal	x6,800009b0	  x6=0x800009b0
       15425000	      1541	00000000	00000013	addi	x0,x0,0	  x0:0x00000000
       15435000	      1542	80000954	00000013	addi	x0,x0,0	  x0:0x00000000
       15445000	      1543	80000958	02c00fef	jal	x31,80000958	 x31=0x80000958
       15455000	      1544	00000000	00000013	addi	x0,x0,0	  x0:0x00000000
       15465000	      1545	80000980	00000013	addi	x0,x0,0	  x0:0x00000000
       15475000	      1546	80000984	fe9ffb6f	jal	x22,80000984	 x22=0x80000984
       15485000	      1547	00000000	00000013	addi	x0,x0,0	  x0:0x00000000
       15495000	      1548	80000968	00000013	addi	x0,x0,0	  x0:0x00000000
       15505000	      1549	8000096c	0340086f	jal	x16,8000096c	 x16=0x8000096c
       15515000	      1550	00000000	00000013	addi	x0,x0,0	  x0:0x00000000
       15525000	      1551	8000099c	00000013	addi	x0,x0,0	  x0:0x00000000
       15535000	      1552	800009a0	01c000ef	jal	x1,800009a0	  x1=0x800009a0
       15545000	      1553	00000000	00000013	addi	x0,x0,0	  x0:0x00000000
       15555000	      1554	800009b8	00000013	addi	x0,x0,0	  x0:0x00000000
       15565000	      1555	800009bc	00ea1913	slli	x18,x20,0xe	 x20:0x80009f5c x18=0x27d70000
       15575000	      1556	800009c0	02c000ef	jal	x1,800009c0	  x1=0x800009c0
       15585000	      1557	00000000	00000013	addi	x0,x0,0	  x0:0x00000000
       15595000	      1558	800009e8	00000013	addi	x0,x0,0	  x0:0x00000000
       15605000	      1559	800009ec	00c000ef	jal	x1,800009ec	  x1=0x800009ec
       15615000	      1560	00000000	00000013	addi	x0,x0,0	  x0:0x00000000
       15625000	      1561	800009f4	00000013	addi	x0,x0,0	  x0:0x00000000
       15635000	      1562	800009f8	fd9ff36f	jal	x6,800009f8	  x6=0x800009f8
       15645000	      1563	00000000	00000013	addi	x0,x0,0	  x0:0x00000000
       15655000	      1564	800009cc	00000013	addi	x0,x0,0	  x0:0x00000000
       15665000	      1565	800009d0	038000ef	jal	x1,800009d0	  x1=0x800009d0
       15675000	      1566	00000000	00000013	addi	x0,x0,0	  x0:0x00000000
       15685000	      1567	80000a04	00000013	addi	x0,x0,0	  x0:0x00000000
       15695000	      1568	80000a08	020000ef	jal	x1,80000a08	  x1=0x80000a08
       15705000	      1569	00000000	00000013	addi	x0,x0,0	  x0:0x00000000
       15715000	      1570	80000a24	00000013	addi	x0,x0,0	  x0:0x00000000
       15725000	      1571	80000a28	fcdff0ef	jal	x1,80000a28	  x1=0x80000a28
       15735000	      1572	00000000	00000013	addi	x0,x0,0	  x0:0x00000000
       15745000	      1573	800009f0	00000013	addi	x0,x0,0	  x0:0x00000000
       15755000	      1574	800009f4	fe5ff0ef	jal	x1,800009f4	  x1=0x800009f4
       15765000	      1575	00000000	00000013	addi	x0,x0,0	  x0:0x00000000
       15775000	      1576	800009d4	00000013	addi	x0,x0,0	  x0:0x00000000
       15785000	      1577	800009d8	048000ef	jal	x1,800009d8	  x1=0x800009d8
       15795000	      1578	00000000	00000013	addi	x0,x0,0	  x0:0x00000000
       15805000	      1579	80000a1c	00000013	addi	x0,x0,0	  x0:0x00000000
       15815000	      1580	80000a20	fa9ff2ef	jal	x5,80000a20	  x5=0x80000a20
       15825000	      1581	00000000	00000013	addi	x0,x0,0	  x0:0x00000000
       15835000	      1582	800009c4	00000013	addi	x0,x0,0	  x0:0x00000000
       15845000	      1583	800009c8	03c000ef	jal	x1,800009c8	  x1=0x800009c8
       15855000	      1584	00000000	00000013	addi	x0,x0,0	  x0:0x00000000
       15865000	      1585	80000a00	00000013	addi	x0,x0,0	  x0:0x00000000
       15875000	      1586	80000a04	ffdff36f	jal	x6,80000a04	  x6=0x80000a04
       15885000	      1587	00000000	00000013	addi	x0,x0,0	  x0:0x00000000
       15895000	      1588	800009fc	00000013	addi	x0,x0,0	  x0:0x00000000
       15905000	      1589	80000a00	ff1ff0ef	jal	x1,80000a00	  x1=0x80000a00
       15915000	      1590	00000000	00000013	addi	x0,x0,0	  x0:0x00000000
       15925000	      1591	800009ec	00000013	addi	x0,x0,0	  x0:0x00000000
       15935000	      1592	800009f0	020000ef	jal	x1,800009f0	  x1=0x800009f0
       15945000	      1593	00000000	00000013	addi	x0,x0,0	  x0:0x00000000
       15955000	      1594	80000a0c	00000013	addi	x0,x0,0	  x0:0x00000000
       15965000	      1595	80000a10	0040036f	jal	x6,80000a10	  x6=0x80000a10
       15975000	      1596	00000000	00000013	addi	x0,x0,0	  x0:0x00000000
       15985000	      1597	80000a10	00000013	addi	x0,x0,0	  x0:0x00000000
       15995000	      1598	80000a14	004004ef	jal	x9,80000a14	  x9=0x80000a14
       16005000	      1599	00000000	00000013	addi	x0,x0,0	  x0:0x00000000
       16015000	      1600	80000a14	00000013	addi	x0,x0,0	  x0:0x00000000
       16025000	      1601	80000a18	ff5ffb6f	jal	x22,80000a18	 x22=0x80000a18
       16035000	      1602	00000000	00000013	addi	x0,x0,0	  x0:0x00000000
       16045000	      1603	80000a08	00000013	addi	x0,x0,0	  x0:0x00000000
       16055000	      1604	80000a0c	fd9ff6ef	jal	x13,80000a0c	 x13=0x80000a0c
       16065000	      1605	00000000	00000013	addi	x0,x0,0	  x0:0x00000000
       16075000	      1606	800009e0	00000013	addi	x0,x0,0	  x0:0x00000000
       16085000	      1607	800009e4	038001ef	jal	x3,800009e4	  x3=0x800009e4
       16095000	      1608	00000000	00000013	addi	x0,x0,0	  x0:0x00000000
       16105000	      1609	80000a18	00000013	addi	x0,x0,0	  x0:0x00000000
       16115000	      1610	80000a1c	010000ef	jal	x1,80000a1c	  x1=0x80000a1c
       16125000	      1611	00000000	00000013	addi	x0,x0,0	  x0:0x00000000
       16135000	      1612	80000a28	00000013	addi	x0,x0,0	  x0:0x00000000
       16145000	      1613	80000a2c	004000ef	jal	x1,80000a2c	  x1=0x80000a2c
       16155000	      1614	00000000	00000013	addi	x0,x0,0	  x0:0x00000000
       16165000	      1615	80000a2c	00000013	addi	x0,x0,0	  x0:0x00000000
       16175000	      1616	80000a30	004000ef	jal	x1,80000a30	  x1=0x80000a30
       16185000	      1617	00000000	00000013	addi	x0,x0,0	  x0:0x00000000
       16195000	      1618	80000a30	00000013	addi	x0,x0,0	  x0:0x00000000
       16205000	      1619	80000a34	fa1ff0ef	jal	x1,80000a34	  x1=0x80000a34
       16215000	      1620	00000000	00000013	addi	x0,x0,0	  x0:0x00000000
       16225000	      1621	800009d0	00000013	addi	x0,x0,0	  x0:0x00000000
       16235000	      1622	800009d4	0080016f	jal	x2,800009d4	  x2=0x800009d4
       16245000	      1623	00000000	00000013	addi	x0,x0,0	  x0:0x00000000
       16255000	      1624	800009d8	00000013	addi	x0,x0,0	  x0:0x00000000
       16265000	      1625	800009dc	00c000ef	jal	x1,800009dc	  x1=0x800009dc
       16275000	      1626	00000000	00000013	addi	x0,x0,0	  x0:0x00000000
       16285000	      1627	800009e4	00000013	addi	x0,x0,0	  x0:0x00000000
       16295000	      1628	800009e8	03c0026f	jal	x4,800009e8	  x4=0x800009e8
       16305000	      1629	00000000	00000013	addi	x0,x0,0	  x0:0x00000000
       16315000	      1630	80000a20	00000013	addi	x0,x0,0	  x0:0x00000000
       16325000	      1631	80000a24	fa1ffd6f	jal	x26,80000a24	 x26=0x80000a24
       16335000	      1632	00000000	00000013	addi	x0,x0,0	  x0:0x00000000
       16345000	      1633	800009c0	00000013	addi	x0,x0,0	  x0:0x00000000
       16355000	      1634	800009c4	01c000ef	jal	x1,800009c4	  x1=0x800009c4
       16365000	      1635	00000000	00000013	addi	x0,x0,0	  x0:0x00000000
       16375000	      1636	800009dc	00000013	addi	x0,x0,0	  x0:0x00000000
       16385000	      1637	800009e0	fedffb6f	jal	x22,800009e0	 x22=0x800009e0
       16395000	      1638	00000000	00000013	addi	x0,x0,0	  x0:0x00000000
       16405000	      1639	800009c8	00000013	addi	x0,x0,0	  x0:0x00000000
       16415000	      1640	800009cc	030000ef	jal	x1,800009cc	  x1=0x800009cc
       16425000	      1641	00000000	00000013	addi	x0,x0,0	  x0:0x00000000
       16435000	      1642	800009f8	00000013	addi	x0,x0,0	  x0:0x00000000
       16445000	      1643	800009fc	03c0056f	jal	x10,800009fc	 x10=0x800009fc
       16455000	      1644	00000000	00000013	addi	x0,x0,0	  x0:0x00000000
       16465000	      1645	80000a34	00000013	addi	x0,x0,0	  x0:0x00000000
       16475000	      1646	80000a38	b9e52293	slti	x5,x10,-1122	 x10:0x800009fc  x5=0x00000001
       16485000	      1647	80000a3c	04c000ef	jal	x1,80000a3c	  x1=0x80000a3c
       16495000	      1648	00000000	00000013	addi	x0,x0,0	  x0:0x00000000
       16505000	      1649	80000a84	00000013	addi	x0,x0,0	  x0:0x00000000
       16515000	      1650	80000a88	fc9ff0ef	jal	x1,80000a88	  x1=0x80000a88
       16525000	      1651	00000000	00000013	addi	x0,x0,0	  x0:0x00000000
       16535000	      1652	80000a4c	00000013	addi	x0,x0,0	  x0:0x00000000
       16545000	      1653	80000a50	0440026f	jal	x4,80000a50	  x4=0x80000a50
       16555000	      1654	00000000	00000013	addi	x0,x0,0	  x0:0x00000000
       16565000	      1655	80000a90	00000013	addi	x0,x0,0	  x0:0x00000000
       16575000	      1656	80000a94	fc9ff36f	jal	x6,80000a94	  x6=0x80000a94
       16585000	      1657	00000000	00000013	addi	x0,x0,0	  x0:0x00000000
       16595000	      1658	80000a58	00000013	addi	x0,x0,0	  x0:0x00000000
       16605000	      1659	80000a5c	fe5ff16f	jal	x2,80000a5c	  x2=0x80000a5c
       16615000	      1660	00000000	00000013	addi	x0,x0,0	  x0:0x00000000
       16625000	      1661	80000a3c	00000013	addi	x0,x0,0	  x0:0x00000000
       16635000	      1662	80000a40	0200036f	jal	x6,80000a40	  x6=0x80000a40
       16645000	      1663	00000000	00000013	addi	x0,x0,0	  x0:0x00000000
       16655000	      1664	80000a5c	00000013	addi	x0,x0,0	  x0:0x00000000
       16665000	      1665	80000a60	fedff36f	jal	x6,80000a60	  x6=0x80000a60
       16675000	      1666	00000000	00000013	addi	x0,x0,0	  x0:0x00000000
       16685000	      1667	80000a48	00000013	addi	x0,x0,0	  x0:0x00000000
       16695000	      1668	80000a4c	034000ef	jal	x1,80000a4c	  x1=0x80000a4c
       16705000	      1669	00000000	00000013	addi	x0,x0,0	  x0:0x00000000
       16715000	      1670	80000a7c	00000013	addi	x0,x0,0	  x0:0x00000000
       16725000	      1671	80000a80	ff1ff0ef	jal	x1,80000a80	  x1=0x80000a80
       16735000	      1672	00000000	00000013	addi	x0,x0,0	  x0:0x00000000
       16745000	      1673	80000a6c	00000013	addi	x0,x0,0	  x0:0x00000000
       16755000	      1674	80000a70	ffdff0ef	jal	x1,80000a70	  x1=0x80000a70
       16765000	      1675	00000000	00000013	addi	x0,x0,0	  x0:0x00000000
       16775000	      1676	80000a68	00000013	addi	x0,x0,0	  x0:0x00000000
       16785000	      1677	80000a6c	ff9ff0ef	jal	x1,80000a6c	  x1=0x80000a6c
       16795000	      1678	00000000	00000013	addi	x0,x0,0	  x0:0x00000000
       16805000	      1679	80000a60	00000013	addi	x0,x0,0	  x0:0x00000000
       16815000	      1680	80000a64	018000ef	jal	x1,80000a64	  x1=0x80000a64
       16825000	      1681	00000000	00000013	addi	x0,x0,0	  x0:0x00000000
       16835000	      1682	80000a78	00000013	addi	x0,x0,0	  x0:0x00000000
       16845000	      1683	80000a7c	fd9ffbef	jal	x23,80000a7c	 x23=0x80000a7c
       16855000	      1684	00000000	00000013	addi	x0,x0,0	  x0:0x00000000
       16865000	      1685	80000a50	00000013	addi	x0,x0,0	  x0:0x00000000
       16875000	      1686	80000a54	014000ef	jal	x1,80000a54	  x1=0x80000a54
       16885000	      1687	00000000	00000013	addi	x0,x0,0	  x0:0x00000000
       16895000	      1688	80000a64	00000013	addi	x0,x0,0	  x0:0x00000000
       16905000	      1689	80000a68	fddff36f	jal	x6,80000a68	  x6=0x80000a68
       16915000	      1690	00000000	00000013	addi	x0,x0,0	  x0:0x00000000
       16925000	      1691	80000a40	00000013	addi	x0,x0,0	  x0:0x00000000
       16935000	      1692	80000a44	054000ef	jal	x1,80000a44	  x1=0x80000a44
       16945000	      1693	00000000	00000013	addi	x0,x0,0	  x0:0x00000000
       16955000	      1694	80000a94	00000013	addi	x0,x0,0	  x0:0x00000000
       16965000	      1695	80000a98	fe1ff0ef	jal	x1,80000a98	  x1=0x80000a98
       16975000	      1696	00000000	00000013	addi	x0,x0,0	  x0:0x00000000
       16985000	      1697	80000a74	00000013	addi	x0,x0,0	  x0:0x00000000
       16995000	      1698	80000a78	ffdff0ef	jal	x1,80000a78	  x1=0x80000a78
       17005000	      1699	00000000	00000013	addi	x0,x0,0	  x0:0x00000000
       17015000	      1700	80000a70	00000013	addi	x0,x0,0	  x0:0x00000000
       17025000	      1701	80000a74	fe5ff0ef	jal	x1,80000a74	  x1=0x80000a74
       17035000	      1702	00000000	00000013	addi	x0,x0,0	  x0:0x00000000
       17045000	      1703	80000a54	00000013	addi	x0,x0,0	  x0:0x00000000
       17055000	      1704	80000a58	034000ef	jal	x1,80000a58	  x1=0x80000a58
       17065000	      1705	00000000	00000013	addi	x0,x0,0	  x0:0x00000000
       17075000	      1706	80000a88	00000013	addi	x0,x0,0	  x0:0x00000000
       17085000	      1707	80000a8c	ff9ff0ef	jal	x1,80000a8c	  x1=0x80000a8c
       17095000	      1708	00000000	00000013	addi	x0,x0,0	  x0:0x00000000
       17105000	      1709	80000a80	00000013	addi	x0,x0,0	  x0:0x00000000
       17115000	      1710	80000a84	00c00bef	jal	x23,80000a84	 x23=0x80000a84
       17125000	      1711	00000000	00000013	addi	x0,x0,0	  x0:0x00000000
       17135000	      1712	80000a8c	00000013	addi	x0,x0,0	  x0:0x00000000
       17145000	      1713	80000a90	fb9ff0ef	jal	x1,80000a90	  x1=0x80000a90
       17155000	      1714	00000000	00000013	addi	x0,x0,0	  x0:0x00000000
       17165000	      1715	80000a44	00000013	addi	x0,x0,0	  x0:0x00000000
       17175000	      1716	80000a48	054001ef	jal	x3,80000a48	  x3=0x80000a48
       17185000	      1717	00000000	00000013	addi	x0,x0,0	  x0:0x00000000
       17195000	      1718	80000a98	00000013	addi	x0,x0,0	  x0:0x00000000
       17205000	      1719	80000a9c	00000013	addi	x0,x0,0	  x0:0x00000000
       17215000	      1720	80000aa0	038000ef	jal	x1,80000aa0	  x1=0x80000aa0
       17225000	      1721	00000000	00000013	addi	x0,x0,0	  x0:0x00000000
       17235000	      1722	80000ad4	00000013	addi	x0,x0,0	  x0:0x00000000
       17245000	      1723	80000ad8	0080016f	jal	x2,80000ad8	  x2=0x80000ad8
       17255000	      1724	00000000	00000013	addi	x0,x0,0	  x0:0x00000000
       17265000	      1725	80000adc	00000013	addi	x0,x0,0	  x0:0x00000000
       17275000	      1726	80000ae0	0080036f	jal	x6,80000ae0	  x6=0x80000ae0
       17285000	      1727	00000000	00000013	addi	x0,x0,0	  x0:0x00000000
       17295000	      1728	80000ae4	00000013	addi	x0,x0,0	  x0:0x00000000
       17305000	      1729	80000ae8	004000ef	jal	x1,80000ae8	  x1=0x80000ae8
       17315000	      1730	00000000	00000013	addi	x0,x0,0	  x0:0x00000000
       17325000	      1731	80000ae8	00000013	addi	x0,x0,0	  x0:0x00000000
       17335000	      1732	80000aec	004000ef	jal	x1,80000aec	  x1=0x80000aec
       17345000	      1733	00000000	00000013	addi	x0,x0,0	  x0:0x00000000
       17355000	      1734	80000aec	00000013	addi	x0,x0,0	  x0:0x00000000
       17365000	      1735	80000af0	fd1ff9ef	jal	x19,80000af0	 x19=0x80000af0
       17375000	      1736	00000000	00000013	addi	x0,x0,0	  x0:0x00000000
       17385000	      1737	80000abc	00000013	addi	x0,x0,0	  x0:0x00000000
       17395000	      1738	80000ac0	ffdff0ef	jal	x1,80000ac0	  x1=0x80000ac0
       17405000	      1739	00000000	00000013	addi	x0,x0,0	  x0:0x00000000
       17415000	      1740	80000ab8	00000013	addi	x0,x0,0	  x0:0x00000000
       17425000	      1741	80000abc	ff9ff36f	jal	x6,80000abc	  x6=0x80000abc
       17435000	      1742	00000000	00000013	addi	x0,x0,0	  x0:0x00000000
       17445000	      1743	80000ab0	00000013	addi	x0,x0,0	  x0:0x00000000
       17455000	      1744	80000ab4	020000ef	jal	x1,80000ab4	  x1=0x80000ab4
       17465000	      1745	00000000	00000013	addi	x0,x0,0	  x0:0x00000000
       17475000	      1746	80000ad0	00000013	addi	x0,x0,0	  x0:0x00000000
       17485000	      1747	80000ad4	ffdff8ef	jal	x17,80000ad4	 x17=0x80000ad4
       17495000	      1748	00000000	00000013	addi	x0,x0,0	  x0:0x00000000
       17505000	      1749	80000acc	00000013	addi	x0,x0,0	  x0:0x00000000
       17515000	      1750	80000ad0	00c000ef	jal	x1,80000ad0	  x1=0x80000ad0
       17525000	      1751	00000000	00000013	addi	x0,x0,0	  x0:0x00000000
       17535000	      1752	80000ad8	00000013	addi	x0,x0,0	  x0:0x00000000
       17545000	      1753	80000adc	ff1ff36f	jal	x6,80000adc	  x6=0x80000adc
       17555000	      1754	00000000	00000013	addi	x0,x0,0	  x0:0x00000000
       17565000	      1755	80000ac8	00000013	addi	x0,x0,0	  x0:0x00000000
       17575000	      1756	80000acc	fe1ff0ef	jal	x1,80000acc	  x1=0x80000acc
       17585000	      1757	00000000	00000013	addi	x0,x0,0	  x0:0x00000000
       17595000	      1758	80000aa8	00000013	addi	x0,x0,0	  x0:0x00000000
       17605000	      1759	80000aac	038000ef	jal	x1,80000aac	  x1=0x80000aac
       17615000	      1760	00000000	00000013	addi	x0,x0,0	  x0:0x00000000
       17625000	      1761	80000ae0	00000013	addi	x0,x0,0	  x0:0x00000000
       17635000	      1762	80000ae4	fe5ff36f	jal	x6,80000ae4	  x6=0x80000ae4
       17645000	      1763	00000000	00000013	addi	x0,x0,0	  x0:0x00000000
       17655000	      1764	80000ac4	00000013	addi	x0,x0,0	  x0:0x00000000
       17665000	      1765	80000ac8	fddffb6f	jal	x22,80000ac8	 x22=0x80000ac8
       17675000	      1766	00000000	00000013	addi	x0,x0,0	  x0:0x00000000
       17685000	      1767	80000aa0	00000013	addi	x0,x0,0	  x0:0x00000000
       17695000	      1768	80000aa4	00c0036f	jal	x6,80000aa4	  x6=0x80000aa4
       17705000	      1769	00000000	00000013	addi	x0,x0,0	  x0:0x00000000
       17715000	      1770	80000aac	00000013	addi	x0,x0,0	  x0:0x00000000
       17725000	      1771	80000ab0	ff9ff0ef	jal	x1,80000ab0	  x1=0x80000ab0
       17735000	      1772	00000000	00000013	addi	x0,x0,0	  x0:0x00000000
       17745000	      1773	80000aa4	00000013	addi	x0,x0,0	  x0:0x00000000
       17755000	      1774	80000aa8	010000ef	jal	x1,80000aa8	  x1=0x80000aa8
       17765000	      1775	00000000	00000013	addi	x0,x0,0	  x0:0x00000000
       17775000	      1776	80000ab4	00000013	addi	x0,x0,0	  x0:0x00000000
       17785000	      1777	80000ab8	00c005ef	jal	x11,80000ab8	 x11=0x80000ab8
       17795000	      1778	00000000	00000013	addi	x0,x0,0	  x0:0x00000000
       17805000	      1779	80000ac0	00000013	addi	x0,x0,0	  x0:0x00000000
       17815000	      1780	80000ac4	030000ef	jal	x1,80000ac4	  x1=0x80000ac4
       17825000	      1781	00000000	00000013	addi	x0,x0,0	  x0:0x00000000
       17835000	      1782	80000af0	00000013	addi	x0,x0,0	  x0:0x00000000
       17845000	      1783	80000af4	406bd813	srai	x16,x23,0x6	 x23:0x80000a84 x16=0xfe00002a
       17855000	      1784	80000af8	022af663	bgeu	x21,x2,80000b24	 x21:0x800007c0  x2:0x80000ad8
       17865000	      1785	80000afc	41565993	srai	x19,x12,0x15	 x12:0x00000000 x19=0x00000000
       17875000	      1786	80000b00	01c48733	add	x14,x9,x28	  x9:0x80000a14 x28:0x00000000 x14=0x80000a14
       17885000	      1787	80000b04	82168293	addi	x5,x13,-2015	 x13:0x80000a0c  x5=0x8000022d
       17895000	      1788	80000b08	de36e713	ori	x14,x13,-541	 x13:0x80000a0c x14=0xffffffef
       17905000	      1789	80000b0c	03919c63	bne	x3,x25,80000b44	  x3:0x80000a48 x25:0x8000097c
       17915000	      1790	00000000	00000013	addi	x0,x0,0	  x0:0x00000000
       17925000	      1791	80000b40	00000013	addi	x0,x0,0	  x0:0x00000000
       17935000	      1792	80000b44	010df463	bgeu	x27,x16,80000b4c	 x27:0x800008e4 x16:0xfe00002a
       17945000	      1793	80000b48	f0dcad17	auipc	x26,0xf0dca	 x26=0x70dcab44
       17955000	      1794	80000b4c	00000013	addi	x0,x0,0	  x0:0x00000000
       17965000	      1795	80000b50	018f03b3	add	x7,x30,x24	 x30:0x80009fc4 x24:0x80000800  x7=0x0000a7c4
       17975000	      1796	80000b54	ed2e6597	auipc	x11,0xed2e6	 x11=0x6d2e6b50
       17985000	      1797	80000b58	a50c8293	addi	x5,x25,-1456	 x25:0x8000097c  x5=0x800003cc
       17995000	      1798	80000b5c	04576663	bltu	x14,x5,80000ba8	 x14:0xffffffef  x5:0x800003cc
       18005000	      1799	80000b60	0133f2b3	and	x5,x7,x19	  x7:0x0000a7c4 x19:0x00000000  x5=0x00000000
       18015000	      1800	80000b64	007f4863	blt	x30,x7,80000b74	 x30:0x80009fc4  x7:0x0000a7c4
       18025000	      1801	00000000	00000013	addi	x0,x0,0	  x0:0x00000000
       18035000	      1802	80000b70	00000013	addi	x0,x0,0	  x0:0x00000000
       18045000	      1803	80000b74	7f064b13	xori	x22,x12,2032	 x12:0x00000000 x22=0x000007f0
       18055000	      1804	80000b78	01508eb3	add	x29,x1,x21	  x1:0x80000ac4 x21:0x800007c0 x29=0x00001284
       18065000	      1805	80000b7c	c084a7b7	lui	x15,0xc084a	 x15=0xc084a000
       18075000	      1806	80000b80	16ad4413	xori	x8,x26,362	 x26:0x70dcab44  x8=0x70dcaa2e
       18085000	      1807	80000b84	01b7c463	blt	x15,x27,80000b8c	 x15:0xc084a000 x27:0x800008e4
       18095000	      1808	80000b88	00096663	bltu	x18,x0,80000b94	 x18:0x27d70000  x0:0x00000000
       18105000	      1809	80000b8c	013ff663	bgeu	x31,x19,80000b98	 x31:0x80000958 x19:0x00000000
       18115000	      1810	00000000	00000013	addi	x0,x0,0	  x0:0x00000000
       18125000	      1811	80000b94	00000013	addi	x0,x0,0	  x0:0x00000000
       18135000	      1812	80000b98	01156863	bltu	x10,x17,80000ba8	 x10:0x800009fc x17:0x80000ad4
       18145000	      1813	00000000	00000013	addi	x0,x0,0	  x0:0x00000000
       18155000	      1814	80000ba4	00000013	addi	x0,x0,0	  x0:0x00000000
       18165000	      1815	80000ba8	3ade8493	addi	x9,x29,941	 x29:0x00001284  x9=0x00001631
       18175000	      1816	80000bac	000a9e63	bne	x21,x0,80000bc8	 x21:0x800007c0  x0:0x00000000
       18185000	      1817	00000000	00000013	addi	x0,x0,0	  x0:0x00000000
       18195000	      1818	80000bc4	00000013	addi	x0,x0,0	  x0:0x00000000
       18205000	      1819	80000bc8	03b5dc63	bge	x11,x27,80000c00	 x11:0x6d2e6b50 x27:0x800008e4
       18215000	      1820	00000000	00000013	addi	x0,x0,0	  x0:0x00000000
       18225000	      1821	80000bfc	00000013	addi	x0,x0,0	  x0:0x00000000
       18235000	      1822	80000c00	01f30733	add	x14,x6,x31	  x6:0x80000aa4 x31:0x80000958 x14=0x000013fc
       18245000	      1823	80000c04	00a990b3	sll	x1,x19,x10	 x19:0x00000000 x10:0x800009fc  x1=0x00000000
       18255000	      1824	80000c08	00c4dfb3	srl	x31,x9,x12	  x9:0x00001631 x12:0x00000000 x31=0x00001631
       18265000	      1825	80000c0c	41f78db3	sub	x27,x15,x31	 x15:0xc084a000 x31:0x00001631 x27=0xc08489cf
       18275000	      1826	80000c10	418601b3	sub	x3,x12,x24	 x12:0x00000000 x24:0x80000800  x3=0x7ffff800
       18285000	      1827	80000c14	36e34813	xori	x16,x6,878	  x6:0x80000aa4 x16=0x800009ca
       18295000	      1828	80000c18	00c523b3	slt	x7,x10,x12	 x10:0x800009fc x12:0x00000000  x7=0x00000001
       18305000	      1829	80000c1c	01a978b3	and	x17,x18,x26	 x18:0x27d70000 x26:0x70dcab44 x17=0x20d40000
       18315000	      1830	80000c20	00717333	and	x6,x2,x7	  x2:0x80000ad8  x7:0x00000001  x6=0x00000000
       18325000	      1831	80000c24	01ca6c63	bltu	x20,x28,80000c3c	 x20:0x80009f5c x28:0x00000000
       18335000	      1832	80000c28	a215c1b7	lui	x3,0xa215c	  x3=0xa215c000
       18345000	      1833	80000c2c	40165db3	sra	x27,x12,x1	 x12:0x00000000  x1:0x00000000 x27=0x00000000
       18355000	      1834	80000c30	00dd8d33	add	x26,x27,x13	 x27:0x00000000 x13:0x80000a0c x26=0x80000a0c
       18365000	      1835	80000c34	0044de63	bge	x9,x4,80000c50	  x9:0x00001631  x4:0x80000a50
       18375000	      1836	00000000	00000013	addi	x0,x0,0	  x0:0x00000000
       18385000	      1837	80000c4c	00000013	addi	x0,x0,0	  x0:0x00000000
       18395000	      1838	80000c50	00f41463	bne	x8,x15,80000c58	  x8:0x70dcaa2e x15:0xc084a000
       18405000	      1839	00000000	00000013	addi	x0,x0,0	  x0:0x00000000
       18415000	      1840	80000c54	00000013	addi	x0,x0,0	  x0:0x00000000
       18425000	      1841	80000c58	012bf4b3	and	x9,x23,x18	 x23:0x80000a84 x18:0x27d70000  x9=0x00000000
       18435000	      1842	80000c5c	00089513	slli	x10,x17,0x0	 x17:0x20d40000 x10=0x20d40000
       18445000	      1843	80000c60	107da993	slti	x19,x27,263	 x27:0x00000000 x19=0x00000001
       18455000	      1844	80000c64	40c4d213	srai	x4,x9,0xc	  x9:0x00000000  x4=0x00000000
       18465000	      1845	80000c68	022efa63	bgeu	x29,x2,80000c9c	 x29:0x00001284  x2:0x80000ad8
       18475000	      1846	80000c6c	5ffb2c93	slti	x25,x22,1535	 x22:0x000007f0 x25=0x00000000
       18485000	      1847	80000c70	01d072b3	and	x5,x0,x29	  x0:0x00000000 x29:0x00001284  x5=0x00000000
       18495000	      1848	80000c74	1f4a8cb7	lui	x25,0x1f4a8	 x25=0x1f4a8000
       18505000	      1849	80000c78	0263fe63	bgeu	x7,x6,80000cb4	  x7:0x00000001  x6:0x00000000
       18515000	      1850	00000000	00000013	addi	x0,x0,0	  x0:0x00000000
       18525000	      1851	80000cb0	00000013	addi	x0,x0,0	  x0:0x00000000
       18535000	      1852	80000cb4	405306b3	sub	x13,x6,x5	  x6:0x00000000  x5:0x00000000 x13=0x00000000
       18545000	      1853	80000cb8	00b4df93	srli	x31,x9,0xb	  x9:0x00000000 x31=0x00000000
       18555000	      1854	80000cbc	b21a1317	auipc	x6,0xb21a1	  x6=0x321a1cb8
       18565000	      1855	80000cc0	05207663	bgeu	x0,x18,80000d0c	  x0:0x00000000 x18:0x27d70000
       18575000	      1856	80000cc4	01f9ae33	slt	x28,x19,x31	 x19:0x00000001 x31:0x00000000 x28=0x00000000
       18585000	      1857	80000cc8	2829c993	xori	x19,x19,642	 x19:0x00000001 x19=0x00000283
       18595000	      1858	80000ccc	015edc33	srl	x24,x29,x21	 x29:0x00001284 x21:0x800007c0 x24=0x00001284
       18605000	      1859	80000cd0	00a694b3	sll	x9,x13,x10	 x13:0x00000000 x10:0x20d40000  x9=0x00000000
       18615000	      1860	80000cd4	0126b533	sltu	x10,x13,x18	 x13:0x00000000 x18:0x27d70000 x10=0x00000001
       18625000	      1861	80000cd8	00000013	addi	x0,x0,0	  x0:0x00000000
       18635000	      1862	80000cdc	e308b993	sltiu	x19,x17,-464	 x17:0x20d40000 x19=0x00000001
       18645000	      1863	80000ce0	dce47693	andi	x13,x8,-562	  x8:0x70dcaa2e x13=0x70dca80e
       18655000	      1864	80000ce4	a82e3493	sltiu	x9,x28,-1406	 x28:0x00000000  x9=0x00000001
       18665000	      1865	80000ce8	01df46b3	xor	x13,x30,x29	 x30:0x80009fc4 x29:0x00001284 x13=0x80008d40
       18675000	      1866	80000cec	40c45d33	sra	x26,x8,x12	  x8:0x70dcaa2e x12:0x00000000 x26=0x70dcaa2e
       18685000	      1867	80000cf0	c68a7793	andi	x15,x20,-920	 x20:0x80009f5c x15=0x80009c48
       18695000	      1868	80000cf4	26e9f813	andi	x16,x19,622	 x19:0x00000001 x16=0x00000000
       18705000	      1869	80000cf8	44f5c593	xori	x11,x11,1103	 x11:0x6d2e6b50 x11=0x6d2e6f1f
       18715000	      1870	80000cfc	00b72db3	slt	x27,x14,x11	 x14:0x000013fc x11:0x6d2e6f1f x27=0x00000001
       18725000	      1871	80000d00	00dc8d33	add	x26,x25,x13	 x25:0x1f4a8000 x13:0x80008d40 x26=0x9f4b0d40
       18735000	      1872	80000d04	034f4e63	blt	x30,x20,80000d40	 x30:0x80009fc4 x20:0x80009f5c
       18745000	      1873	80000d08	00780663	beq	x16,x7,80000d14	 x16:0x00000000  x7:0x00000001
       18755000	      1874	80000d0c	ff523113	sltiu	x2,x4,-11	  x4:0x00000000  x2=0x00000001
       18765000	      1875	80000d10	00fae263	bltu	x21,x15,80000d14	 x21:0x800007c0 x15:0x80009c48
       18775000	      1876	00000000	00000013	addi	x0,x0,0	  x0:0x00000000
       18785000	      1877	80000d10	00000013	addi	x0,x0,0	  x0:0x00000000
       18795000	      1878	80000d14	007385b3	add	x11,x7,x7	  x7:0x00000001  x7:0x00000001 x11=0x00000002
       18805000	      1879	80000d18	418407b3	sub	x15,x8,x24	  x8:0x70dcaa2e x24:0x00001284 x15=0x70dc97aa
       18815000	      1880	80000d1c	03bb1a63	bne	x22,x27,80000d50	 x22:0x000007f0 x27:0x00000001
       18825000	      1881	00000000	00000013	addi	x0,x0,0	  x0:0x00000000
       18835000	      1882	80000d4c	00000013	addi	x0,x0,0	  x0:0x00000000
       18845000	      1883	80000d50	03308c63	beq	x1,x19,80000d88	  x1:0x00000000 x19:0x00000001
       18855000	      1884	80000d54	009d8433	add	x8,x27,x9	 x27:0x00000001  x9:0x00000001  x8=0x00000002
       18865000	      1885	80000d58	419ed733	sra	x14,x29,x25	 x29:0x00001284 x25:0x1f4a8000 x14=0x00001284
       18875000	      1886	80000d5c	01cfaab3	slt	x21,x31,x28	 x31:0x00000000 x28:0x00000000 x21=0x00000000
       18885000	      1887	80000d60	4adbe793	ori	x15,x23,1197	 x23:0x80000a84 x15=0x80000ead
       18895000	      1888	80000d64	00000013	addi	x0,x0,0	  x0:0x00000000
       18905000	      1889	80000d68	9246fc13	andi	x24,x13,-1756	 x13:0x80008d40 x24=0x80008900
       18915000	      1890	80000d6c	002b8663	beq	x23,x2,80000d78	 x23:0x80000a84  x2:0x00000001
       18925000	      1891	80000d70	40510bb3	sub	x23,x2,x5	  x2:0x00000001  x5:0x00000000 x23=0x00000001
       18935000	      1892	80000d74	b80d6293	ori	x5,x26,-1152	 x26:0x9f4b0d40  x5=0xffffffc0
       18945000	      1893	80000d78	012b0bb3	add	x23,x22,x18	 x22:0x000007f0 x18:0x27d70000 x23=0x27d707f0
       18955000	      1894	80000d7c	00ac5a63	bge	x24,x10,80000d90	 x24:0x80008900 x10:0x00000001
       18965000	      1895	80000d80	41bed8b3	sra	x17,x29,x27	 x29:0x00001284 x27:0x00000001 x17=0x00000942
       18975000	      1896	80000d84	01631393	slli	x7,x6,0x16	  x6:0x321a1cb8  x7=0x2e000000
       18985000	      1897	80000d88	0412d063	bge	x5,x1,80000dc8	  x5:0xffffffc0  x1:0x00000000
       18995000	      1898	80000d8c	a7813d13	sltiu	x26,x2,-1416	  x2:0x00000001 x26=0x00000001
       19005000	      1899	80000d90	e282f697	auipc	x13,0xe282f	 x13=0x6282fd8c
       19015000	      1900	80000d94	ee8ac393	xori	x7,x21,-280	 x21:0x00000000  x7=0xfffffee8
       19025000	      1901	80000d98	0157f7b3	and	x15,x15,x21	 x15:0x80000ead x21:0x00000000 x15=0x00000000
       19035000	      1902	80000d9c	043d8263	beq	x27,x3,80000de0	 x27:0x00000001  x3:0xa215c000
       19045000	      1903	80000da0	41e38b33	sub	x22,x7,x30	  x7:0xfffffee8 x30:0x80009fc4 x22=0x7fff5f24
       19055000	      1904	80000da4	01645593	srli	x11,x8,0x16	  x8:0x00000002 x11=0x00000000
       19065000	      1905	80000da8	0c5b7117	auipc	x2,0xc5b7	  x2=0x8c5b7da4
       19075000	      1906	80000dac	d8c82d13	slti	x26,x16,-628	 x16:0x00000000 x26=0x00000000
       19085000	      1907	80000db0	dcf4a713	slti	x14,x9,-561	  x9:0x00000001 x14=0x00000000
       19095000	      1908	80000db4	15edfc93	andi	x25,x27,350	 x27:0x00000001 x25=0x00000000
       19105000	      1909	80000db8	9ee00113	addi	x2,x0,-1554	  x0:0x00000000  x2=0xfffff9ee
       19115000	      1910	80000dbc	0379c863	blt	x19,x23,80000dec	 x19:0x00000001 x23:0x27d707f0
       19125000	      1911	00000000	00000013	addi	x0,x0,0	  x0:0x00000000
       19135000	      1912	80000de8	00000013	addi	x0,x0,0	  x0:0x00000000
       19145000	      1913	80000dec	d05357b7	lui	x15,0xd0535	 x15=0xd0535000
       19155000	      1914	80000df0	f816ce93	xori	x29,x13,-127	 x13:0x6282fd8c x29=0x9d7d020d
       19165000	      1915	80000df4	00787833	and	x16,x16,x7	 x16:0x00000000  x7:0xfffffee8 x16=0x00000000
       19175000	      1916	80000df8	00073133	sltu	x2,x14,x0	 x14:0x00000000  x0:0x00000000  x2=0x00000000
       19185000	      1917	80000dfc	ee574513	xori	x10,x14,-283	 x14:0x00000000 x10=0xfffffee5
       19195000	      1918	80000e00	52ae3bb7	lui	x23,0x52ae3	 x23=0x52ae3000
       19205000	      1919	80000e04	5ce00e93	addi	x29,x0,1486	  x0:0x00000000 x29=0x000005ce
       19215000	      1920	80000e08	32eedfb7	lui	x31,0x32eed	 x31=0x32eed000
       19225000	      1921	80000e0c	0559d863	bge	x19,x21,80000e5c	 x19:0x00000001 x21:0x00000000
       19235000	      1922	00000000	00000013	addi	x0,x0,0	  x0:0x00000000
       19245000	      1923	80000e58	00000013	addi	x0,x0,0	  x0:0x00000000
       19255000	      1924	80000e5c	6ae2cb93	xori	x23,x5,1710	  x5:0xffffffc0 x23=0xfffff96e
       19265000	      1925	80000e60	413d5cb3	sra	x25,x26,x19	 x26:0x00000000 x19:0x00000001 x25=0x00000000
       19275000	      1926	80000e64	090ef0b7	lui	x1,0x90ef	  x1=0x090ef000
       19285000	      1927	80000e68	01791b93	slli	x23,x18,0x17	 x18:0x27d70000 x23=0x00000000
       19295000	      1928	80000e6c	e8516193	ori	x3,x2,-379	  x2:0x00000000  x3=0xfffffe85
       19305000	      1929	80000e70	9a060513	addi	x10,x12,-1632	 x12:0x00000000 x10=0xfffff9a0
       19315000	      1930	80000e74	004e7263	bgeu	x28,x4,80000e78	 x28:0x00000000  x4:0x00000000
       19325000	      1931	00000000	00000013	addi	x0,x0,0	  x0:0x00000000
       19335000	      1932	80000e74	00000013	addi	x0,x0,0	  x0:0x00000000
       19345000	      1933	80000e78	00f2e233	or	x4,x5,x15	  x5:0xffffffc0 x15:0xd0535000  x4=0xffffffc0
       19355000	      1934	80000e7c	020bc463	blt	x23,x0,80000ea4	 x23:0x00000000  x0:0x00000000
       19365000	      1935	80000e80	419bd233	sra	x4,x23,x25	 x23:0x00000000 x25:0x00000000  x4=0x00000000
       19375000	      1936	80000e84	001ff233	and	x4,x31,x1	 x31:0x32eed000  x1:0x090ef000  x4=0x000ed000
       19385000	      1937	80000e88	4065dd33	sra	x26,x11,x6	 x11:0x00000000  x6:0x321a1cb8 x26=0x00000000
       19395000	      1938	80000e8c	40de8333	sub	x6,x29,x13	 x29:0x000005ce x13:0x6282fd8c  x6=0x9d7d0842
       19405000	      1939	80000e90	51b76093	ori	x1,x14,1307	 x14:0x00000000  x1=0x0000051b
       19415000	      1940	80000e94	400ad013	srai	x0,x21,0x0	 x21:0x00000000
       19425000	      1941	80000e98	009b1463	bne	x22,x9,80000ea0	 x22:0x7fff5f24  x9:0x00000001
       19435000	      1942	00000000	00000013	addi	x0,x0,0	  x0:0x00000000
       19445000	      1943	80000e9c	00000013	addi	x0,x0,0	  x0:0x00000000
       19455000	      1944	80000ea0	03b91c63	bne	x18,x27,80000ed8	 x18:0x27d70000 x27:0x00000001
       19465000	      1945	00000000	00000013	addi	x0,x0,0	  x0:0x00000000
       19475000	      1946	80000ed4	00000013	addi	x0,x0,0	  x0:0x00000000
       19485000	      1947	80000ed8	e677ee93	ori	x29,x15,-409	 x15:0xd0535000 x29=0xfffffe67
       19495000	      1948	80000edc	045fd463	bge	x31,x5,80000f24	 x31:0x32eed000  x5:0xffffffc0
       19505000	      1949	00000000	00000013	addi	x0,x0,0	  x0:0x00000000
       19515000	      1950	80000f20	00000013	addi	x0,x0,0	  x0:0x00000000
       19525000	      1951	80000f24	00204433	xor	x8,x0,x2	  x0:0x00000000  x2:0x00000000  x8=0x00000000
       19535000	      1952	80000f28	017a3933	sltu	x18,x20,x23	 x20:0x80009f5c x23:0x00000000 x18=0x00000000
       19545000	      1953	80000f2c	c2eb6793	ori	x15,x22,-978	 x22:0x7fff5f24 x15=0xffffff2e
       19555000	      1954	80000f30	41d30933	sub	x18,x6,x29	  x6:0x9d7d0842 x29:0xfffffe67 x18=0x9d7d09db
       19565000	      1955	80000f34	60ca6413	ori	x8,x20,1548	 x20:0x80009f5c  x8=0x80009f5c
       19575000	      1956	80000f38	810859b7	lui	x19,0x81085	 x19=0x81085000
       19585000	      1957	80000f3c	03608e63	beq	x1,x22,80000f78	  x1:0x0000051b x22:0x7fff5f24
       19595000	      1958	80000f40	01485463	bge	x16,x20,80000f48	 x16:0x00000000 x20:0x80009f5c
       19605000	      1959	00000000	00000013	addi	x0,x0,0	  x0:0x00000000
       19615000	      1960	80000f44	00000013	addi	x0,x0,0	  x0:0x00000000
       19625000	      1961	80000f48	dae96513	ori	x10,x18,-594	 x18:0x9d7d09db x10=0xfffffdff
       19635000	      1962	80000f4c	6c686313	ori	x6,x16,1734	 x16:0x00000000  x6=0x000006c6
       19645000	      1963	80000f50	0068c9b3	xor	x19,x17,x6	 x17:0x00000942  x6:0x000006c6 x19=0x00000f84
       19655000	      1964	80000f54	00455f93	srli	x31,x10,0x4	 x10:0xfffffdff x31=0x0fffffdf
       19665000	      1965	80000f58	0c396d93	ori	x27,x18,195	 x18:0x9d7d09db x27=0x9d7d09db
       19675000	      1966	80000f5c	0131e833	or	x16,x3,x19	  x3:0xfffffe85 x19:0x00000f84 x16=0xffffff85
       19685000	      1967	80000f60	00000013	addi	x0,x0,0	  x0:0x00000000
       19695000	      1968	80000f64	426aed13	ori	x26,x21,1062	 x21:0x00000000 x26=0x00000426
       19705000	      1969	80000f68	02f68c63	beq	x13,x15,80000fa0	 x13:0x6282fd8c x15:0xffffff2e
       19715000	      1970	80000f6c	01c5fe33	and	x28,x11,x28	 x11:0x00000000 x28:0x00000000 x28=0x00000000
       19725000	      1971	80000f70	0003d1b3	srl	x3,x7,x0	  x7:0xfffffee8  x0:0x00000000  x3=0xfffffee8
       19735000	      1972	80000f74	410b8db3	sub	x27,x23,x16	 x23:0x00000000 x16:0xffffff85 x27=0x0000007b
       19745000	      1973	80000f78	00d47b33	and	x22,x8,x13	  x8:0x80009f5c x13:0x6282fd8c x22=0x00009d0c
       19755000	      1974	80000f7c	6c80cdb7	lui	x27,0x6c80c	 x27=0x6c80c000
       19765000	      1975	80000f80	01e38b33	add	x22,x7,x30	  x7:0xfffffee8 x30:0x80009fc4 x22=0x80009eac
       19775000	      1976	80000f84	00421863	bne	x4,x4,80000f94	  x4:0x000ed000  x4:0x000ed000
       19785000	      1977	80000f88	0162bb33	sltu	x22,x5,x22	  x5:0xffffffc0 x22:0x80009eac x22=0x00000000
       19795000	      1978	80000f8c	000880b3	add	x1,x17,x0	 x17:0x00000942  x0:0x00000000  x1=0x00000942
       19805000	      1979	80000f90	0418c263	blt	x17,x1,80000fd4	 x17:0x00000942  x1:0x00000942
       19815000	      1980	80000f94	06f97063	bgeu	x18,x15,80000ff4	 x18:0x9d7d09db x15:0xffffff2e
       19825000	      1981	80000f98	92b28713	addi	x14,x5,-1749	  x5:0xffffffc0 x14=0xfffff8eb
       19835000	      1982	80000f9c	013761b3	or	x3,x14,x19	 x14:0xfffff8eb x19:0x00000f84  x3=0xffffffef
       19845000	      1983	80000fa0	01abda93	srli	x21,x23,0x1a	 x23:0x00000000 x21=0x00000000
       19855000	      1984	80000fa4	14c34e13	xori	x28,x6,332	  x6:0x000006c6 x28=0x0000078a
       19865000	      1985	80000fa8	40ab00b3	sub	x1,x22,x10	 x22:0x00000000 x10:0xfffffdff  x1=0x00000201
       19875000	      1986	80000fac	404d50b3	sra	x1,x26,x4	 x26:0x00000426  x4:0x000ed000  x1=0x00000426
       19885000	      1987	80000fb0	01851b13	slli	x22,x10,0x18	 x10:0xfffffdff x22=0xff000000
       19895000	      1988	80000fb4	013904b3	add	x9,x18,x19	 x18:0x9d7d09db x19:0x00000f84  x9=0x9d7d195f
       19905000	      1989	80000fb8	00366733	or	x14,x12,x3	 x12:0x00000000  x3:0xffffffef x14=0xffffffef
       19915000	      1990	80000fbc	003c9b33	sll	x22,x25,x3	 x25:0x00000000  x3:0xffffffef x22=0x00000000
       19925000	      1991	80000fc0	ebfa6b93	ori	x23,x20,-321	 x20:0x80009f5c x23=0xffffffff
       19935000	      1992	80000fc4	2b6abc13	sltiu	x24,x21,694	 x21:0x00000000 x24=0x00000001
       19945000	      1993	80000fc8	7b9010ef	jal	x1,80000fc8	  x1=0x80000fc8
       19955000	      1994	00000000	00000013	addi	x0,x0,0	  x0:0x00000000
       19965000	      1995	80002f7c	00000013	addi	x0,x0,0	  x0:0x00000000
       19975000	      1996	80002f80	fd0a0a13	addi	x20,x20,-48	 x20:0x80009f5c x20=0x80009f2c
       19985000	      1997	80002f84	0112ee33	or	x28,x5,x17	  x5:0xffffffc0 x17:0x00000942 x28=0xffffffc2
       19995000	      1998	80002f88	0197bcb3	sltu	x25,x15,x25	 x15:0xffffff2e x25:0x00000000 x25=0x00000000
       20005000	      1999	80002f8c	daa90893	addi	x17,x18,-598	 x18:0x9d7d09db x17=0x9d7d0785
       20015000	      2000	80002f90	013afbb3	and	x23,x21,x19	 x21:0x00000000 x19:0x00000f84 x23=0x00000000
       20025000	      2001	80002f94	001a2223	sw	x1,4(x20)	 x20:0x80009f2c  x1:0x80000fc8 PA:0x80009f30
       20035000	      2002	80002f98	409f02b3	sub	x5,x30,x9	 x30:0x80009fc4  x9:0x9d7d195f  x5=0xe2838665
       20045000	      2003	80002f9c	02c000ef	jal	x1,80002f9c	  x1=0x80002f9c
       20055000	      2004	00000000	00000013	addi	x0,x0,0	  x0:0x00000000
       20065000	      2005	80002fc4	00000013	addi	x0,x0,0	  x0:0x00000000
       20075000	      2006	80002fc8	fd9ff0ef	jal	x1,80002fc8	  x1=0x80002fc8
       20085000	      2007	00000000	00000013	addi	x0,x0,0	  x0:0x00000000
       20095000	      2008	80002f9c	00000013	addi	x0,x0,0	  x0:0x00000000
       20105000	      2009	80002fa0	014000ef	jal	x1,80002fa0	  x1=0x80002fa0
       20115000	      2010	00000000	00000013	addi	x0,x0,0	  x0:0x00000000
       20125000	      2011	80002fb0	00000013	addi	x0,x0,0	  x0:0x00000000
       20135000	      2012	80002fb4	ffdff0ef	jal	x1,80002fb4	  x1=0x80002fb4
       20145000	      2013	00000000	00000013	addi	x0,x0,0	  x0:0x00000000
       20155000	      2014	80002fac	00000013	addi	x0,x0,0	  x0:0x00000000
       20165000	      2015	80002fb0	0200016f	jal	x2,80002fb0	  x2=0x80002fb0
       20175000	      2016	00000000	00000013	addi	x0,x0,0	  x0:0x00000000
       20185000	      2017	80002fcc	00000013	addi	x0,x0,0	  x0:0x00000000
       20195000	      2018	80002fd0	00c000ef	jal	x1,80002fd0	  x1=0x80002fd0
       20205000	      2019	00000000	00000013	addi	x0,x0,0	  x0:0x00000000
       20215000	      2020	80002fd8	00000013	addi	x0,x0,0	  x0:0x00000000
       20225000	      2021	80002fdc	0100076f	jal	x14,80002fdc	 x14=0x80002fdc
       20235000	      2022	00000000	00000013	addi	x0,x0,0	  x0:0x00000000
       20245000	      2023	80002fe8	00000013	addi	x0,x0,0	  x0:0x00000000
       20255000	      2024	80002fec	004000ef	jal	x1,80002fec	  x1=0x80002fec
       20265000	      2025	00000000	00000013	addi	x0,x0,0	  x0:0x00000000
       20275000	      2026	80002fec	00000013	addi	x0,x0,0	  x0:0x00000000
       20285000	      2027	80002ff0	fddff0ef	jal	x1,80002ff0	  x1=0x80002ff0
       20295000	      2028	00000000	00000013	addi	x0,x0,0	  x0:0x00000000
       20305000	      2029	80002fc8	00000013	addi	x0,x0,0	  x0:0x00000000
       20315000	      2030	80002fcc	014000ef	jal	x1,80002fcc	  x1=0x80002fcc
       20325000	      2031	00000000	00000013	addi	x0,x0,0	  x0:0x00000000
       20335000	      2032	80002fdc	00000013	addi	x0,x0,0	  x0:0x00000000
       20345000	      2033	80002fe0	fc5ff36f	jal	x6,80002fe0	  x6=0x80002fe0
       20355000	      2034	00000000	00000013	addi	x0,x0,0	  x0:0x00000000
       20365000	      2035	80002fa0	00000013	addi	x0,x0,0	  x0:0x00000000
       20375000	      2036	80002fa4	020000ef	jal	x1,80002fa4	  x1=0x80002fa4
       20385000	      2037	00000000	00000013	addi	x0,x0,0	  x0:0x00000000
       20395000	      2038	80002fc0	00000013	addi	x0,x0,0	  x0:0x00000000
       20405000	      2039	80002fc4	014000ef	jal	x1,80002fc4	  x1=0x80002fc4
       20415000	      2040	00000000	00000013	addi	x0,x0,0	  x0:0x00000000
       20425000	      2041	80002fd4	00000013	addi	x0,x0,0	  x0:0x00000000
       20435000	      2042	80002fd8	fd5ff0ef	jal	x1,80002fd8	  x1=0x80002fd8
       20445000	      2043	00000000	00000013	addi	x0,x0,0	  x0:0x00000000
       20455000	      2044	80002fa8	00000013	addi	x0,x0,0	  x0:0x00000000
       20465000	      2045	80002fac	03c000ef	jal	x1,80002fac	  x1=0x80002fac
       20475000	      2046	00000000	00000013	addi	x0,x0,0	  x0:0x00000000
       20485000	      2047	80002fe4	00000013	addi	x0,x0,0	  x0:0x00000000
       20495000	      2048	80002fe8	fd5ff16f	jal	x2,80002fe8	  x2=0x80002fe8
       20505000	      2049	00000000	00000013	addi	x0,x0,0	  x0:0x00000000
       20515000	      2050	80002fb8	00000013	addi	x0,x0,0	  x0:0x00000000
       20525000	      2051	80002fbc	0280086f	jal	x16,80002fbc	 x16=0x80002fbc
       20535000	      2052	00000000	00000013	addi	x0,x0,0	  x0:0x00000000
       20545000	      2053	80002fe0	00000013	addi	x0,x0,0	  x0:0x00000000
       20555000	      2054	80002fe4	fddff0ef	jal	x1,80002fe4	  x1=0x80002fe4
       20565000	      2055	00000000	00000013	addi	x0,x0,0	  x0:0x00000000
       20575000	      2056	80002fbc	00000013	addi	x0,x0,0	  x0:0x00000000
       20585000	      2057	80002fc0	ff9ffeef	jal	x29,80002fc0	 x29=0x80002fc0
       20595000	      2058	00000000	00000013	addi	x0,x0,0	  x0:0x00000000
       20605000	      2059	80002fb4	00000013	addi	x0,x0,0	  x0:0x00000000
       20615000	      2060	80002fb8	ff1ff0ef	jal	x1,80002fb8	  x1=0x80002fb8
       20625000	      2061	00000000	00000013	addi	x0,x0,0	  x0:0x00000000
       20635000	      2062	80002fa4	00000013	addi	x0,x0,0	  x0:0x00000000
       20645000	      2063	80002fa8	02c000ef	jal	x1,80002fa8	  x1=0x80002fa8
       20655000	      2064	00000000	00000013	addi	x0,x0,0	  x0:0x00000000
       20665000	      2065	80002fd0	00000013	addi	x0,x0,0	  x0:0x00000000
       20675000	      2066	80002fd4	020000ef	jal	x1,80002fd4	  x1=0x80002fd4
       20685000	      2067	00000000	00000013	addi	x0,x0,0	  x0:0x00000000
       20695000	      2068	80002ff0	00000013	addi	x0,x0,0	  x0:0x00000000
       20705000	      2069	80002ff4	01b87233	and	x4,x16,x27	 x16:0x80002fbc x27:0x6c80c000  x4=0x00000000
       20715000	      2070	80002ff8	054000ef	jal	x1,80002ff8	  x1=0x80002ff8
       20725000	      2071	00000000	00000013	addi	x0,x0,0	  x0:0x00000000
       20735000	      2072	80003048	00000013	addi	x0,x0,0	  x0:0x00000000
       20745000	      2073	8000304c	fe5ff36f	jal	x6,8000304c	  x6=0x8000304c
       20755000	      2074	00000000	00000013	addi	x0,x0,0	  x0:0x00000000
       20765000	      2075	8000302c	00000013	addi	x0,x0,0	  x0:0x00000000
       20775000	      2076	80003030	fd9ff36f	jal	x6,80003030	  x6=0x80003030
       20785000	      2077	00000000	00000013	addi	x0,x0,0	  x0:0x00000000
       20795000	      2078	80003004	00000013	addi	x0,x0,0	  x0:0x00000000
       20805000	      2079	80003008	04000fef	jal	x31,80003008	 x31=0x80003008
       20815000	      2080	00000000	00000013	addi	x0,x0,0	  x0:0x00000000
       20825000	      2081	80003044	00000013	addi	x0,x0,0	  x0:0x00000000
       20835000	      2082	80003048	ff9ff0ef	jal	x1,80003048	  x1=0x80003048
       20845000	      2083	00000000	00000013	addi	x0,x0,0	  x0:0x00000000
       20855000	      2084	8000303c	00000013	addi	x0,x0,0	  x0:0x00000000
       20865000	      2085	80003040	ff9ff0ef	jal	x1,80003040	  x1=0x80003040
       20875000	      2086	00000000	00000013	addi	x0,x0,0	  x0:0x00000000
       20885000	      2087	80003034	00000013	addi	x0,x0,0	  x0:0x00000000
       20895000	      2088	80003038	fd9ff0ef	jal	x1,80003038	  x1=0x80003038
       20905000	      2089	00000000	00000013	addi	x0,x0,0	  x0:0x00000000
       20915000	      2090	8000300c	00000013	addi	x0,x0,0	  x0:0x00000000
       20925000	      2091	80003010	00400def	jal	x27,80003010	 x27=0x80003010
       20935000	      2092	00000000	00000013	addi	x0,x0,0	  x0:0x00000000
       20945000	      2093	80003010	00000013	addi	x0,x0,0	  x0:0x00000000
       20955000	      2094	80003014	008000ef	jal	x1,80003014	  x1=0x80003014
       20965000	      2095	00000000	00000013	addi	x0,x0,0	  x0:0x00000000
       20975000	      2096	80003018	00000013	addi	x0,x0,0	  x0:0x00000000
       20985000	      2097	8000301c	fe1ff0ef	jal	x1,8000301c	  x1=0x8000301c
       20995000	      2098	00000000	00000013	addi	x0,x0,0	  x0:0x00000000
       21005000	      2099	80002ff8	00000013	addi	x0,x0,0	  x0:0x00000000
       21015000	      2100	80002ffc	02c000ef	jal	x1,80002ffc	  x1=0x80002ffc
       21025000	      2101	00000000	00000013	addi	x0,x0,0	  x0:0x00000000
       21035000	      2102	80003024	00000013	addi	x0,x0,0	  x0:0x00000000
       21045000	      2103	80003028	01400fef	jal	x31,80003028	 x31=0x80003028
       21055000	      2104	00000000	00000013	addi	x0,x0,0	  x0:0x00000000
       21065000	      2105	80003038	00000013	addi	x0,x0,0	  x0:0x00000000
       21075000	      2106	8000303c	fc5ff0ef	jal	x1,8000303c	  x1=0x8000303c
       21085000	      2107	00000000	00000013	addi	x0,x0,0	  x0:0x00000000
       21095000	      2108	80002ffc	00000013	addi	x0,x0,0	  x0:0x00000000
       21105000	      2109	80003000	00c0036f	jal	x6,80003000	  x6=0x80003000
       21115000	      2110	00000000	00000013	addi	x0,x0,0	  x0:0x00000000
       21125000	      2111	80003008	00000013	addi	x0,x0,0	  x0:0x00000000
       21135000	      2112	8000300c	038000ef	jal	x1,8000300c	  x1=0x8000300c
       21145000	      2113	00000000	00000013	addi	x0,x0,0	  x0:0x00000000
       21155000	      2114	80003040	00000013	addi	x0,x0,0	  x0:0x00000000
       21165000	      2115	80003044	fddff0ef	jal	x1,80003044	  x1=0x80003044
       21175000	      2116	00000000	00000013	addi	x0,x0,0	  x0:0x00000000
       21185000	      2117	8000301c	00000013	addi	x0,x0,0	  x0:0x00000000
       21195000	      2118	80003020	0300036f	jal	x6,80003020	  x6=0x80003020
       21205000	      2119	00000000	00000013	addi	x0,x0,0	  x0:0x00000000
       21215000	      2120	8000304c	00000013	addi	x0,x0,0	  x0:0x00000000
       21225000	      2121	80003050	fe5ff0ef	jal	x1,80003050	  x1=0x80003050
       21235000	      2122	00000000	00000013	addi	x0,x0,0	  x0:0x00000000
       21245000	      2123	80003030	00000013	addi	x0,x0,0	  x0:0x00000000
       21255000	      2124	80003034	ff9ff36f	jal	x6,80003034	  x6=0x80003034
       21265000	      2125	00000000	00000013	addi	x0,x0,0	  x0:0x00000000
       21275000	      2126	80003028	00000013	addi	x0,x0,0	  x0:0x00000000
       21285000	      2127	8000302c	ff9ff36f	jal	x6,8000302c	  x6=0x8000302c
       21295000	      2128	00000000	00000013	addi	x0,x0,0	  x0:0x00000000
       21305000	      2129	80003020	00000013	addi	x0,x0,0	  x0:0x00000000
       21315000	      2130	80003024	fe1ff0ef	jal	x1,80003024	  x1=0x80003024
       21325000	      2131	00000000	00000013	addi	x0,x0,0	  x0:0x00000000
       21335000	      2132	80003000	00000013	addi	x0,x0,0	  x0:0x00000000
       21345000	      2133	80003004	0140016f	jal	x2,80003004	  x2=0x80003004
       21355000	      2134	00000000	00000013	addi	x0,x0,0	  x0:0x00000000
       21365000	      2135	80003014	00000013	addi	x0,x0,0	  x0:0x00000000
       21375000	      2136	80003018	03c0036f	jal	x6,80003018	  x6=0x80003018
       21385000	      2137	00000000	00000013	addi	x0,x0,0	  x0:0x00000000
       21395000	      2138	80003050	00000013	addi	x0,x0,0	  x0:0x00000000
       21405000	      2139	80003054	8e66c113	xori	x2,x13,-1818	 x13:0x6282fd8c  x2=0x9d7d056a
       21415000	      2140	80003058	010000ef	jal	x1,80003058	  x1=0x80003058
       21425000	      2141	00000000	00000013	addi	x0,x0,0	  x0:0x00000000
       21435000	      2142	80003064	00000013	addi	x0,x0,0	  x0:0x00000000
       21445000	      2143	80003068	ff9ff0ef	jal	x1,80003068	  x1=0x80003068
       21455000	      2144	00000000	00000013	addi	x0,x0,0	  x0:0x00000000
       21465000	      2145	8000305c	00000013	addi	x0,x0,0	  x0:0x00000000
       21475000	      2146	80003060	03c0036f	jal	x6,80003060	  x6=0x80003060
       21485000	      2147	00000000	00000013	addi	x0,x0,0	  x0:0x00000000
       21495000	      2148	80003098	00000013	addi	x0,x0,0	  x0:0x00000000
       21505000	      2149	8000309c	fddff86f	jal	x16,8000309c	 x16=0x8000309c
       21515000	      2150	00000000	00000013	addi	x0,x0,0	  x0:0x00000000
       21525000	      2151	80003074	00000013	addi	x0,x0,0	  x0:0x00000000
       21535000	      2152	80003078	010000ef	jal	x1,80003078	  x1=0x80003078
       21545000	      2153	00000000	00000013	addi	x0,x0,0	  x0:0x00000000
       21555000	      2154	80003084	00000013	addi	x0,x0,0	  x0:0x00000000
       21565000	      2155	80003088	ffdff0ef	jal	x1,80003088	  x1=0x80003088
       21575000	      2156	00000000	00000013	addi	x0,x0,0	  x0:0x00000000
       21585000	      2157	80003080	00000013	addi	x0,x0,0	  x0:0x00000000
       21595000	      2158	80003084	fe9ff0ef	jal	x1,80003084	  x1=0x80003084
       21605000	      2159	00000000	00000013	addi	x0,x0,0	  x0:0x00000000
       21615000	      2160	80003068	00000013	addi	x0,x0,0	  x0:0x00000000
       21625000	      2161	8000306c	024000ef	jal	x1,8000306c	  x1=0x8000306c
       21635000	      2162	00000000	00000013	addi	x0,x0,0	  x0:0x00000000
       21645000	      2163	8000308c	00000013	addi	x0,x0,0	  x0:0x00000000
       21655000	      2164	80003090	fd5ff1ef	jal	x3,80003090	  x3=0x80003090
       21665000	      2165	00000000	00000013	addi	x0,x0,0	  x0:0x00000000
       21675000	      2166	80003060	00000013	addi	x0,x0,0	  x0:0x00000000
       21685000	      2167	80003064	028000ef	jal	x1,80003064	  x1=0x80003064
       21695000	      2168	00000000	00000013	addi	x0,x0,0	  x0:0x00000000
       21705000	      2169	80003088	00000013	addi	x0,x0,0	  x0:0x00000000
       21715000	      2170	8000308c	fd1ff0ef	jal	x1,8000308c	  x1=0x8000308c
       21725000	      2171	00000000	00000013	addi	x0,x0,0	  x0:0x00000000
       21735000	      2172	80003058	00000013	addi	x0,x0,0	  x0:0x00000000
       21745000	      2173	8000305c	0180016f	jal	x2,8000305c	  x2=0x8000305c
       21755000	      2174	00000000	00000013	addi	x0,x0,0	  x0:0x00000000
       21765000	      2175	80003070	00000013	addi	x0,x0,0	  x0:0x00000000
       21775000	      2176	80003074	00c000ef	jal	x1,80003074	  x1=0x80003074
       21785000	      2177	00000000	00000013	addi	x0,x0,0	  x0:0x00000000
       21795000	      2178	8000307c	00000013	addi	x0,x0,0	  x0:0x00000000
       21805000	      2179	80003080	0200036f	jal	x6,80003080	  x6=0x80003080
       21815000	      2180	00000000	00000013	addi	x0,x0,0	  x0:0x00000000
       21825000	      2181	8000309c	00000013	addi	x0,x0,0	  x0:0x00000000
       21835000	      2182	800030a0	fddff36f	jal	x6,800030a0	  x6=0x800030a0
       21845000	      2183	00000000	00000013	addi	x0,x0,0	  x0:0x00000000
       21855000	      2184	80003078	00000013	addi	x0,x0,0	  x0:0x00000000
       21865000	      2185	8000307c	01c00eef	jal	x29,8000307c	 x29=0x8000307c
       21875000	      2186	00000000	00000013	addi	x0,x0,0	  x0:0x00000000
       21885000	      2187	80003094	00000013	addi	x0,x0,0	  x0:0x00000000
       21895000	      2188	80003098	fd9ff36f	jal	x6,80003098	  x6=0x80003098
       21905000	      2189	00000000	00000013	addi	x0,x0,0	  x0:0x00000000
       21915000	      2190	8000306c	00000013	addi	x0,x0,0	  x0:0x00000000
       21925000	      2191	80003070	024000ef	jal	x1,80003070	  x1=0x80003070
       21935000	      2192	00000000	00000013	addi	x0,x0,0	  x0:0x00000000
       21945000	      2193	80003090	00000013	addi	x0,x0,0	  x0:0x00000000
       21955000	      2194	80003094	010000ef	jal	x1,80003094	  x1=0x80003094
       21965000	      2195	00000000	00000013	addi	x0,x0,0	  x0:0x00000000
       21975000	      2196	800030a0	00000013	addi	x0,x0,0	  x0:0x00000000
       21985000	      2197	800030a4	00c55913	srli	x18,x10,0xc	 x10:0xfffffdff x18=0x000fffff
       21995000	      2198	800030a8	014000ef	jal	x1,800030a8	  x1=0x800030a8
       22005000	      2199	00000000	00000013	addi	x0,x0,0	  x0:0x00000000
       22015000	      2200	800030b8	00000013	addi	x0,x0,0	  x0:0x00000000
       22025000	      2201	800030bc	ff5ff0ef	jal	x1,800030bc	  x1=0x800030bc
       22035000	      2202	00000000	00000013	addi	x0,x0,0	  x0:0x00000000
       22045000	      2203	800030ac	00000013	addi	x0,x0,0	  x0:0x00000000
       22055000	      2204	800030b0	010000ef	jal	x1,800030b0	  x1=0x800030b0
       22065000	      2205	00000000	00000013	addi	x0,x0,0	  x0:0x00000000
       22075000	      2206	800030bc	00000013	addi	x0,x0,0	  x0:0x00000000
       22085000	      2207	800030c0	0180046f	jal	x8,800030c0	  x8=0x800030c0
       22095000	      2208	00000000	00000013	addi	x0,x0,0	  x0:0x00000000
       22105000	      2209	800030d4	00000013	addi	x0,x0,0	  x0:0x00000000
       22115000	      2210	800030d8	018000ef	jal	x1,800030d8	  x1=0x800030d8
       22125000	      2211	00000000	00000013	addi	x0,x0,0	  x0:0x00000000
       22135000	      2212	800030ec	00000013	addi	x0,x0,0	  x0:0x00000000
       22145000	      2213	800030f0	fc5ff0ef	jal	x1,800030f0	  x1=0x800030f0
       22155000	      2214	00000000	00000013	addi	x0,x0,0	  x0:0x00000000
       22165000	      2215	800030b0	00000013	addi	x0,x0,0	  x0:0x00000000
       22175000	      2216	800030b4	01400def	jal	x27,800030b4	 x27=0x800030b4
       22185000	      2217	00000000	00000013	addi	x0,x0,0	  x0:0x00000000
       22195000	      2218	800030c4	00000013	addi	x0,x0,0	  x0:0x00000000
       22205000	      2219	800030c8	0300036f	jal	x6,800030c8	  x6=0x800030c8
       22215000	      2220	00000000	00000013	addi	x0,x0,0	  x0:0x00000000
       22225000	      2221	800030f4	00000013	addi	x0,x0,0	  x0:0x00000000
       22235000	      2222	800030f8	fcdff2ef	jal	x5,800030f8	  x5=0x800030f8
       22245000	      2223	00000000	00000013	addi	x0,x0,0	  x0:0x00000000
       22255000	      2224	800030c0	00000013	addi	x0,x0,0	  x0:0x00000000
       22265000	      2225	800030c4	03800def	jal	x27,800030c4	 x27=0x800030c4
       22275000	      2226	00000000	00000013	addi	x0,x0,0	  x0:0x00000000
       22285000	      2227	800030f8	00000013	addi	x0,x0,0	  x0:0x00000000
       22295000	      2228	800030fc	00800eef	jal	x29,800030fc	 x29=0x800030fc
       22305000	      2229	00000000	00000013	addi	x0,x0,0	  x0:0x00000000
       22315000	      2230	80003100	00000013	addi	x0,x0,0	  x0:0x00000000
       22325000	      2231	80003104	ffdff0ef	jal	x1,80003104	  x1=0x80003104
       22335000	      2232	00000000	00000013	addi	x0,x0,0	  x0:0x00000000
       22345000	      2233	800030fc	00000013	addi	x0,x0,0	  x0:0x00000000
       22355000	      2234	80003100	fedff36f	jal	x6,80003100	  x6=0x80003100
       22365000	      2235	00000000	00000013	addi	x0,x0,0	  x0:0x00000000
       22375000	      2236	800030e8	00000013	addi	x0,x0,0	  x0:0x00000000
       22385000	      2237	800030ec	ff9ff0ef	jal	x1,800030ec	  x1=0x800030ec
       22395000	      2238	00000000	00000013	addi	x0,x0,0	  x0:0x00000000
       22405000	      2239	800030e0	00000013	addi	x0,x0,0	  x0:0x00000000
       22415000	      2240	800030e4	0100036f	jal	x6,800030e4	  x6=0x800030e4
       22425000	      2241	00000000	00000013	addi	x0,x0,0	  x0:0x00000000
       22435000	      2242	800030f0	00000013	addi	x0,x0,0	  x0:0x00000000
       22445000	      2243	800030f4	fddff0ef	jal	x1,800030f4	  x1=0x800030f4
       22455000	      2244	00000000	00000013	addi	x0,x0,0	  x0:0x00000000
       22465000	      2245	800030cc	00000013	addi	x0,x0,0	  x0:0x00000000
       22475000	      2246	800030d0	00c008ef	jal	x17,800030d0	 x17=0x800030d0
       22485000	      2247	00000000	00000013	addi	x0,x0,0	  x0:0x00000000
       22495000	      2248	800030d8	00000013	addi	x0,x0,0	  x0:0x00000000
       22505000	      2249	800030dc	004000ef	jal	x1,800030dc	  x1=0x800030dc
       22515000	      2250	00000000	00000013	addi	x0,x0,0	  x0:0x00000000
       22525000	      2251	800030dc	00000013	addi	x0,x0,0	  x0:0x00000000
       22535000	      2252	800030e0	00800cef	jal	x25,800030e0	 x25=0x800030e0
       22545000	      2253	00000000	00000013	addi	x0,x0,0	  x0:0x00000000
       22555000	      2254	800030e4	00000013	addi	x0,x0,0	  x0:0x00000000
       22565000	      2255	800030e8	fe5ff0ef	jal	x1,800030e8	  x1=0x800030e8
       22575000	      2256	00000000	00000013	addi	x0,x0,0	  x0:0x00000000
       22585000	      2257	800030c8	00000013	addi	x0,x0,0	  x0:0x00000000
       22595000	      2258	800030cc	fedff0ef	jal	x1,800030cc	  x1=0x800030cc
       22605000	      2259	00000000	00000013	addi	x0,x0,0	  x0:0x00000000
       22615000	      2260	800030b4	00000013	addi	x0,x0,0	  x0:0x00000000
       22625000	      2261	800030b8	0500036f	jal	x6,800030b8	  x6=0x800030b8
       22635000	      2262	00000000	00000013	addi	x0,x0,0	  x0:0x00000000
       22645000	      2263	80003104	00000013	addi	x0,x0,0	  x0:0x00000000
       22655000	      2264	80003108	fa5ffe6f	jal	x28,80003108	 x28=0x80003108
       22665000	      2265	00000000	00000013	addi	x0,x0,0	  x0:0x00000000
       22675000	      2266	800030a8	00000013	addi	x0,x0,0	  x0:0x00000000
       22685000	      2267	800030ac	0280016f	jal	x2,800030ac	  x2=0x800030ac
       22695000	      2268	00000000	00000013	addi	x0,x0,0	  x0:0x00000000
       22705000	      2269	800030d0	00000013	addi	x0,x0,0	  x0:0x00000000
       22715000	      2270	800030d4	038000ef	jal	x1,800030d4	  x1=0x800030d4
       22725000	      2271	00000000	00000013	addi	x0,x0,0	  x0:0x00000000
       22735000	      2272	80003108	00000013	addi	x0,x0,0	  x0:0x00000000
       22745000	      2273	8000310c	0080c7b3	xor	x15,x1,x8	  x1:0x800030d4  x8:0x800030c0 x15=0x00000014
       22755000	      2274	80003110	00a50133	add	x2,x10,x10	 x10:0xfffffdff x10:0xfffffdff  x2=0xfffffbfe
       22765000	      2275	80003114	ffc28913	addi	x18,x5,-4	  x5:0x800030f8 x18=0x800030f4
       22775000	      2276	80003118	00554ab3	xor	x21,x10,x5	 x10:0xfffffdff  x5:0x800030f8 x21=0x7fffcd07
       22785000	      2277	8000311c	01528e63	beq	x5,x21,80003138	  x5:0x800030f8 x21:0x7fffcd07
       22795000	      2278	80003120	04b27663	bgeu	x4,x11,8000316c	  x4:0x00000000 x11:0x00000000
       22805000	      2279	00000000	00000013	addi	x0,x0,0	  x0:0x00000000
       22815000	      2280	80003168	00000013	addi	x0,x0,0	  x0:0x00000000
       22825000	      2281	8000316c	01c09913	slli	x18,x1,0x1c	  x1:0x800030d4 x18=0x40000000
       22835000	      2282	80003170	013e6db3	or	x27,x28,x19	 x28:0x80003108 x19:0x00000f84 x27=0x80003f8c
       22845000	      2283	80003174	d8b0b513	sltiu	x10,x1,-629	  x1:0x800030d4 x10=0x00000001
       22855000	      2284	80003178	00d6fd33	and	x26,x13,x13	 x13:0x6282fd8c x13:0x6282fd8c x26=0x6282fd8c
       22865000	      2285	8000317c	da6cfb13	andi	x22,x25,-602	 x25:0x800030e0 x22=0x800030a0
       22875000	      2286	80003180	01c07d33	and	x26,x0,x28	  x0:0x00000000 x28:0x80003108 x26=0x00000000
       22885000	      2287	80003184	97b00993	addi	x19,x0,-1669	  x0:0x00000000 x19=0xfffff97b
       22895000	      2288	80003188	0287cc63	blt	x15,x8,800031c0	 x15:0x00000014  x8:0x800030c0
       22905000	      2289	8000318c	4ec8e213	ori	x4,x17,1260	 x17:0x800030d0  x4=0x800034fc
       22915000	      2290	80003190	e1912437	lui	x8,0xe1912	  x8=0xe1912000
       22925000	      2291	80003194	0119b433	sltu	x8,x19,x17	 x19:0xfffff97b x17:0x800030d0  x8=0x00000000
       22935000	      2292	80003198	01fbb6b3	sltu	x13,x23,x31	 x23:0x00000000 x31:0x80003028 x13=0x00000001
       22945000	      2293	8000319c	00669013	slli	x0,x13,0x6	 x13:0x00000001
       22955000	      2294	800031a0	01617463	bgeu	x2,x22,800031a8	  x2:0xfffffbfe x22:0x800030a0
       22965000	      2295	00000000	00000013	addi	x0,x0,0	  x0:0x00000000
       22975000	      2296	800031a4	00000013	addi	x0,x0,0	  x0:0x00000000
       22985000	      2297	800031a8	01fae463	bltu	x21,x31,800031b0	 x21:0x7fffcd07 x31:0x80003028
       22995000	      2298	00000000	00000013	addi	x0,x0,0	  x0:0x00000000
       23005000	      2299	800031ac	00000013	addi	x0,x0,0	  x0:0x00000000
       23015000	      2300	800031b0	015aedb3	or	x27,x21,x21	 x21:0x7fffcd07 x21:0x7fffcd07 x27=0x7fffcd07
       23025000	      2301	800031b4	f0b97b93	andi	x23,x18,-245	 x18:0x40000000 x23=0x40000000
       23035000	      2302	800031b8	02e4c863	blt	x9,x14,800031e8	  x9:0x9d7d195f x14:0x80002fdc
       23045000	      2303	800031bc	41b80033	sub	x0,x16,x27	 x16:0x8000309c x27:0x7fffcd07
       23055000	      2304	800031c0	01841913	slli	x18,x8,0x18	  x8:0x00000000 x18=0x00000000
       23065000	      2305	800031c4	037f9c63	bne	x31,x23,800031fc	 x31:0x80003028 x23:0x40000000
       23075000	      2306	00000000	00000013	addi	x0,x0,0	  x0:0x00000000
       23085000	      2307	800031f8	00000013	addi	x0,x0,0	  x0:0x00000000
       23095000	      2308	800031fc	00c49c33	sll	x24,x9,x12	  x9:0x9d7d195f x12:0x00000000 x24=0x9d7d195f
       23105000	      2309	80003200	9ce8fd13	andi	x26,x17,-1586	 x17:0x800030d0 x26=0x800030c0
       23115000	      2310	80003204	7bee8c93	addi	x25,x29,1982	 x29:0x800030fc x25=0x800038ba
       23125000	      2311	80003208	002418b3	sll	x17,x8,x2	  x8:0x00000000  x2:0xfffffbfe x17=0x00000000
       23135000	      2312	8000320c	54600713	addi	x14,x0,1350	  x0:0x00000000 x14=0x00000546
       23145000	      2313	80003210	27d54893	xori	x17,x10,637	 x10:0x00000001 x17=0x0000027c
       23155000	      2314	80003214	015b8333	add	x6,x23,x21	 x23:0x40000000 x21:0x7fffcd07  x6=0xbfffcd07
       23165000	      2315	80003218	00ca6fb3	or	x31,x20,x12	 x20:0x80009f2c x12:0x00000000 x31=0x80009f2c
       23175000	      2316	8000321c	0091ec63	bltu	x3,x9,80003234	  x3:0x80003090  x9:0x9d7d195f
       23185000	      2317	00000000	00000013	addi	x0,x0,0	  x0:0x00000000
       23195000	      2318	80003230	00000013	addi	x0,x0,0	  x0:0x00000000
       23205000	      2319	80003234	00e38833	add	x16,x7,x14	  x7:0xfffffee8 x14:0x00000546 x16=0x0000042e
       23215000	      2320	80003238	03ccda63	bge	x25,x28,8000326c	 x25:0x800038ba x28:0x80003108
       23225000	      2321	00000000	00000013	addi	x0,x0,0	  x0:0x00000000
       23235000	      2322	80003268	00000013	addi	x0,x0,0	  x0:0x00000000
       23245000	      2323	8000326c	02ea0863	beq	x20,x14,8000329c	 x20:0x80009f2c x14:0x00000546
       23255000	      2324	80003270	41cf0ab3	sub	x21,x30,x28	 x30:0x80009fc4 x28:0x80003108 x21=0x00006ebc
       23265000	      2325	80003274	01391413	slli	x8,x18,0x13	 x18:0x00000000  x8=0x00000000
       23275000	      2326	80003278	42e7ec13	ori	x24,x15,1070	 x15:0x00000014 x24=0x0000043e
       23285000	      2327	8000327c	01d1ed33	or	x26,x3,x29	  x3:0x80003090 x29:0x800030fc x26=0x800030fc
       23295000	      2328	80003280	84838e93	addi	x29,x7,-1976	  x7:0xfffffee8 x29=0xfffff730
       23305000	      2329	80003284	046a1063	bne	x20,x6,800032c4	 x20:0x80009f2c  x6:0xbfffcd07
       23315000	      2330	00000000	00000013	addi	x0,x0,0	  x0:0x00000000
       23325000	      2331	800032c0	00000013	addi	x0,x0,0	  x0:0x00000000
       23335000	      2332	800032c4	cd79c413	xori	x8,x19,-809	 x19:0xfffff97b  x8=0x000005ac
       23345000	      2333	800032c8	d8a60113	addi	x2,x12,-630	 x12:0x00000000  x2=0xfffffd8a
       23355000	      2334	800032cc	050ec413	xori	x8,x29,80	 x29:0xfffff730  x8=0xfffff760
       23365000	      2335	800032d0	08fe6e13	ori	x28,x28,143	 x28:0x80003108 x28=0x8000318f
       23375000	      2336	800032d4	0083e4b3	or	x9,x7,x8	  x7:0xfffffee8  x8:0xfffff760  x9=0xffffffe8
       23385000	      2337	800032d8	05ca8463	beq	x21,x28,80003320	 x21:0x00006ebc x28:0x8000318f
       23395000	      2338	800032dc	41a2ddb3	sra	x27,x5,x26	  x5:0x800030f8 x26:0x800030fc x27=0xfffffff8
       23405000	      2339	800032e0	4267be13	sltiu	x28,x15,1062	 x15:0x00000014 x28=0x00000001
       23415000	      2340	800032e4	4122d1b3	sra	x3,x5,x18	  x5:0x800030f8 x18:0x00000000  x3=0x800030f8
       23425000	      2341	800032e8	00000013	addi	x0,x0,0	  x0:0x00000000
       23435000	      2342	800032ec	0010c463	blt	x1,x1,800032f4	  x1:0x800030d4  x1:0x800030d4
       23445000	      2343	800032f0	0050fbb3	and	x23,x1,x5	  x1:0x800030d4  x5:0x800030f8 x23=0x800030d0
       23455000	      2344	800032f4	00000013	addi	x0,x0,0	  x0:0x00000000
       23465000	      2345	800032f8	23d48713	addi	x14,x9,573	  x9:0xffffffe8 x14=0x00000225
       23475000	      2346	800032fc	12da7c37	lui	x24,0x12da7	 x24=0x12da7000
       23485000	      2347	80003300	01f21b93	slli	x23,x4,0x1f	  x4:0x800034fc x23=0x00000000
       23495000	      2348	80003304	01006c33	or	x24,x0,x16	  x0:0x00000000 x16:0x0000042e x24=0x0000042e
       23505000	      2349	80003308	009ef0b3	and	x1,x29,x9	 x29:0xfffff730  x9:0xffffffe8  x1=0xfffff720
       23515000	      2350	8000330c	56c82a93	slti	x21,x16,1388	 x16:0x0000042e x21=0x00000001
       23525000	      2351	80003310	0084c463	blt	x9,x8,80003318	  x9:0xffffffe8  x8:0xfffff760
       23535000	      2352	80003314	01059a93	slli	x21,x11,0x10	 x11:0x00000000 x21=0x00000000
       23545000	      2353	80003318	05ac8063	beq	x25,x26,80003358	 x25:0x800038ba x26:0x800030fc
       23555000	      2354	8000331c	00acc463	blt	x25,x10,80003324	 x25:0x800038ba x10:0x00000001
       23565000	      2355	00000000	00000013	addi	x0,x0,0	  x0:0x00000000
       23575000	      2356	80003320	00000013	addi	x0,x0,0	  x0:0x00000000
       23585000	      2357	80003324	00c6c6b3	xor	x13,x13,x12	 x13:0x00000001 x12:0x00000000 x13=0x00000001
       23595000	      2358	80003328	c471f513	andi	x10,x3,-953	  x3:0x800030f8 x10=0x80003040
       23605000	      2359	8000332c	0134c533	xor	x10,x9,x19	  x9:0xffffffe8 x19:0xfffff97b x10=0x00000693
       23615000	      2360	80003330	007a3cb3	sltu	x25,x20,x7	 x20:0x80009f2c  x7:0xfffffee8 x25=0x00000001
       23625000	      2361	80003334	00fe6fb3	or	x31,x28,x15	 x28:0x00000001 x15:0x00000014 x31=0x00000015
       23635000	      2362	80003338	f7f2cb17	auipc	x22,0xf7f2c	 x22=0x77f2f334
       23645000	      2363	8000333c	01d7c263	blt	x15,x29,80003340	 x15:0x00000014 x29:0xfffff730
       23655000	      2364	80003340	01bef263	bgeu	x29,x27,80003344	 x29:0xfffff730 x27:0xfffffff8
       23665000	      2365	80003344	06767b13	andi	x22,x12,103	 x12:0x00000000 x22=0x00000000
       23675000	      2366	80003348	00000013	addi	x0,x0,0	  x0:0x00000000
       23685000	      2367	8000334c	00a48813	addi	x16,x9,10	  x9:0xffffffe8 x16=0xfffffff2
       23695000	      2368	80003350	00567263	bgeu	x12,x5,80003354	 x12:0x00000000  x5:0x800030f8
       23705000	      2369	80003354	03491263	bne	x18,x20,80003378	 x18:0x00000000 x20:0x80009f2c
       23715000	      2370	00000000	00000013	addi	x0,x0,0	  x0:0x00000000
       23725000	      2371	80003374	00000013	addi	x0,x0,0	  x0:0x00000000
       23735000	      2372	80003378	014ad9b3	srl	x19,x21,x20	 x21:0x00000000 x20:0x80009f2c x19=0x00000000
       23745000	      2373	8000337c	00d371b3	and	x3,x6,x13	  x6:0xbfffcd07 x13:0x00000001  x3=0x00000001
       23755000	      2374	80003380	41480433	sub	x8,x16,x20	 x16:0xfffffff2 x20:0x80009f2c  x8=0x7fff60c6
       23765000	      2375	80003384	404381b3	sub	x3,x7,x4	  x7:0xfffffee8  x4:0x800034fc  x3=0x7fffc9ec
       23775000	      2376	80003388	0050cab3	xor	x21,x1,x5	  x1:0xfffff720  x5:0x800030f8 x21=0x7fffc7d8
       23785000	      2377	8000338c	01627fb3	and	x31,x4,x22	  x4:0x800034fc x22:0x00000000 x31=0x00000000
       23795000	      2378	80003390	6a3d2713	slti	x14,x26,1699	 x26:0x800030fc x14=0x00000001
       23805000	      2379	80003394	01281263	bne	x16,x18,80003398	 x16:0xfffffff2 x18:0x00000000
       23815000	      2380	00000000	00000013	addi	x0,x0,0	  x0:0x00000000
       23825000	      2381	80003394	00000013	addi	x0,x0,0	  x0:0x00000000
       23835000	      2382	80003398	d4a95997	auipc	x19,0xd4a95	 x19=0x54a98394
       23845000	      2383	8000339c	75afc713	xori	x14,x31,1882	 x31:0x00000000 x14=0x0000075a
       23855000	      2384	800033a0	00da4db3	xor	x27,x20,x13	 x20:0x80009f2c x13:0x00000001 x27=0x80009f2d
       23865000	      2385	800033a4	0085f333	and	x6,x11,x8	 x11:0x00000000  x8:0x7fff60c6  x6=0x00000000
       23875000	      2386	800033a8	01395793	srli	x15,x18,0x13	 x18:0x00000000 x15=0x00000000
       23885000	      2387	800033ac	96999317	auipc	x6,0x96999	  x6=0x1699c3a8
       23895000	      2388	800033b0	e6a3c7b7	lui	x15,0xe6a3c	 x15=0xe6a3c000
       23905000	      2389	800033b4	00476db3	or	x27,x14,x4	 x14:0x0000075a  x4:0x800034fc x27=0x800037fe
       23915000	      2390	800033b8	01d605b3	add	x11,x12,x29	 x12:0x00000000 x29:0xfffff730 x11=0xfffff730
       23925000	      2391	800033bc	88433737	lui	x14,0x88433	 x14=0x88433000
       23935000	      2392	800033c0	00000013	addi	x0,x0,0	  x0:0x00000000
       23945000	      2393	800033c4	75e57f93	andi	x31,x10,1886	 x10:0x00000693 x31=0x00000612
       23955000	      2394	800033c8	24b26e93	ori	x29,x4,587	  x4:0x800034fc x29=0x800036ff
       23965000	      2395	800033cc	37078713	addi	x14,x15,880	 x15:0xe6a3c000 x14=0xe6a3c370
       23975000	      2396	800033d0	ca258093	addi	x1,x11,-862	 x11:0xfffff730  x1=0xfffff3d2
       23985000	      2397	800033d4	014f3733	sltu	x14,x30,x20	 x30:0x80009fc4 x20:0x80009f2c x14=0x00000000
       23995000	      2398	800033d8	01e48333	add	x6,x9,x30	  x9:0xffffffe8 x30:0x80009fc4  x6=0x80009fac
       24005000	      2399	800033dc	028ada63	bge	x21,x8,80003410	 x21:0x7fffc7d8  x8:0x7fff60c6
       24015000	      2400	00000000	00000013	addi	x0,x0,0	  x0:0x00000000
       24025000	      2401	8000340c	00000013	addi	x0,x0,0	  x0:0x00000000
       24035000	      2402	80003410	106068b7	lui	x17,0x10606	 x17=0x10606000
       24045000	      2403	80003414	41fe02b3	sub	x5,x28,x31	 x28:0x00000001 x31:0x00000612  x5=0xfffff9ef
       24055000	      2404	80003418	b9fee013	ori	x0,x29,-1121	 x29:0x800036ff
       24065000	      2405	8000341c	00664a63	blt	x12,x6,80003430	 x12:0x00000000  x6:0x80009fac
       24075000	      2406	80003420	01461293	slli	x5,x12,0x14	 x12:0x00000000  x5=0x00000000
       24085000	      2407	80003424	02d9cc63	blt	x19,x13,8000345c	 x19:0x54a98394 x13:0x00000001
       24095000	      2408	80003428	002ceb33	or	x22,x25,x2	 x25:0x00000001  x2:0xfffffd8a x22=0xfffffd8b
       24105000	      2409	8000342c	0348e463	bltu	x17,x20,80003454	 x17:0x10606000 x20:0x80009f2c
       24115000	      2410	00000000	00000013	addi	x0,x0,0	  x0:0x00000000
       24125000	      2411	80003450	00000013	addi	x0,x0,0	  x0:0x00000000
       24135000	      2412	80003454	0127e263	bltu	x15,x18,80003458	 x15:0xe6a3c000 x18:0x00000000
       24145000	      2413	80003458	004895b3	sll	x11,x17,x4	 x17:0x10606000  x4:0x800034fc x11=0x00000000
       24155000	      2414	8000345c	c683c593	xori	x11,x7,-920	  x7:0xfffffee8 x11=0x00000280
       24165000	      2415	80003460	40c05033	sra	x0,x0,x12	  x0:0x00000000 x12:0x00000000
       24175000	      2416	80003464	036f8463	beq	x31,x22,8000348c	 x31:0x00000612 x22:0xfffffd8b
       24185000	      2417	80003468	017c1f93	slli	x31,x24,0x17	 x24:0x0000042e x31=0x17000000
       24195000	      2418	8000346c	40768fb3	sub	x31,x13,x7	 x13:0x00000001  x7:0xfffffee8 x31=0x00000119
       24205000	      2419	80003470	0080b533	sltu	x10,x1,x8	  x1:0xfffff3d2  x8:0x7fff60c6 x10=0x00000000
       24215000	      2420	80003474	01c7b0b3	sltu	x1,x15,x28	 x15:0xe6a3c000 x28:0x00000001  x1=0x00000000
       24225000	      2421	80003478	00240a63	beq	x8,x2,8000348c	  x8:0x7fff60c6  x2:0xfffffd8a
       24235000	      2422	8000347c	41300d33	sub	x26,x0,x19	  x0:0x00000000 x19:0x54a98394 x26=0xab567c6c
       24245000	      2423	80003480	27386893	ori	x17,x16,627	 x16:0xfffffff2 x17=0xfffffff3
       24255000	      2424	80003484	01376463	bltu	x14,x19,8000348c	 x14:0x00000000 x19:0x54a98394
       24265000	      2425	00000000	00000013	addi	x0,x0,0	  x0:0x00000000
       24275000	      2426	80003488	00000013	addi	x0,x0,0	  x0:0x00000000
       24285000	      2427	8000348c	0043fdb3	and	x27,x7,x4	  x7:0xfffffee8  x4:0x800034fc x27=0x800034e8
       24295000	      2428	80003490	c0e67113	andi	x2,x12,-1010	 x12:0x00000000  x2=0x00000000
       24305000	      2429	80003494	01e988b3	add	x17,x19,x30	 x19:0x54a98394 x30:0x80009fc4 x17=0xd4aa2358
       24315000	      2430	80003498	b5ace313	ori	x6,x25,-1190	 x25:0x00000001  x6=0xfffffb5b
       24325000	      2431	8000349c	004a2083	lw	x1,4(x20)	 x20:0x80009f2c  x1=0x80000fc8 PA:0x80009f30
       24335000	      2432	800034a0	01ff2433	slt	x8,x30,x31	 x30:0x80009fc4 x31:0x00000119  x8=0x00000001
       24345000	      2433	800034a4	66aac117	auipc	x2,0x66aac	  x2=0xe6aaf4a0
       24355000	      2434	800034a8	030a0a13	addi	x20,x20,48	 x20:0x80009f2c x20=0x80009f5c
       24365000	      2435	800034ac	012c7533	and	x10,x24,x18	 x24:0x0000042e x18:0x00000000 x10=0x00000000
       24375000	      2436	800034b0	008dd913	srli	x18,x27,0x8	 x27:0x800034e8 x18=0x00800034
       24385000	      2437	800034b4	00008d93	addi	x27,x1,0	  x1:0x80000fc8 x27=0x80000fc8
       24395000	      2438	800034b8	000d8de7	jalr	x27,x27,0	 x27:0x80000fc8 x27=0x800034b8
       24405000	      2439	00000000	00000013	addi	x0,x0,0	  x0:0x00000000
       24415000	      2440	80000fc8	00000013	addi	x0,x0,0	  x0:0x00000000
       24425000	      2441	80000fcc	40a304b3	sub	x9,x6,x10	  x6:0xfffffb5b x10:0x00000000  x9=0xfffffb5b
       24435000	      2442	80000fd0	dde57413	andi	x8,x10,-546	 x10:0x00000000  x8=0x00000000
       24445000	      2443	80000fd4	03d40663	beq	x8,x29,80001000	  x8:0x00000000 x29:0x800036ff
       24455000	      2444	80000fd8	033abb93	sltiu	x23,x21,51	 x21:0x7fffc7d8 x23=0x00000000
       24465000	      2445	80000fdc	01d8f4b3	and	x9,x17,x29	 x17:0xd4aa2358 x29:0x800036ff  x9=0x80002258
       24475000	      2446	80000fe0	408ad0b3	sra	x1,x21,x8	 x21:0x7fffc7d8  x8:0x00000000  x1=0x7fffc7d8
       24485000	      2447	80000fe4	03859c63	bne	x11,x24,8000101c	 x11:0x00000280 x24:0x0000042e
       24495000	      2448	00000000	00000013	addi	x0,x0,0	  x0:0x00000000
       24505000	      2449	80001018	00000013	addi	x0,x0,0	  x0:0x00000000
       24515000	      2450	8000101c	01c79533	sll	x10,x15,x28	 x15:0xe6a3c000 x28:0x00000001 x10=0xcd478000
       24525000	      2451	80001020	04924263	blt	x4,x9,80001064	  x4:0x800034fc  x9:0x80002258
       24535000	      2452	80001024	001392b3	sll	x5,x7,x1	  x7:0xfffffee8  x1:0x7fffc7d8  x5=0xe8000000
       24545000	      2453	80001028	044a8663	beq	x21,x4,80001074	 x21:0x7fffc7d8  x4:0x800034fc
       24555000	      2454	8000102c	00868863	beq	x13,x8,8000103c	 x13:0x00000001  x8:0x00000000
       24565000	      2455	80001030	0051d433	srl	x8,x3,x5	  x3:0x7fffc9ec  x5:0xe8000000  x8=0x7fffc9ec
       24575000	      2456	80001034	725ff1b7	lui	x3,0x725ff	  x3=0x725ff000
       24585000	      2457	80001038	dcd6ad93	slti	x27,x13,-563	 x13:0x00000001 x27=0x00000000
       24595000	      2458	8000103c	41a1d7b3	sra	x15,x3,x26	  x3:0x725ff000 x26:0xab567c6c x15=0x000725ff
       24605000	      2459	80001040	d9182a93	slti	x21,x16,-623	 x16:0xfffffff2 x21=0x00000000
       24615000	      2460	80001044	00906c33	or	x24,x0,x9	  x0:0x00000000  x9:0x80002258 x24=0x80002258
       24625000	      2461	80001048	00601463	bne	x0,x6,80001050	  x0:0x00000000  x6:0xfffffb5b
       24635000	      2462	00000000	00000013	addi	x0,x0,0	  x0:0x00000000
       24645000	      2463	8000104c	00000013	addi	x0,x0,0	  x0:0x00000000
       24655000	      2464	80001050	41a6d093	srai	x1,x13,0x1a	 x13:0x00000001  x1=0x00000000
       24665000	      2465	80001054	0055ffb3	and	x31,x11,x5	 x11:0x00000280  x5:0xe8000000 x31=0x00000000
       24675000	      2466	80001058	41dcd9b3	sra	x19,x25,x29	 x25:0x00000001 x29:0x800036ff x19=0x00000000
       24685000	      2467	8000105c	49990793	addi	x15,x18,1177	 x18:0x00800034 x15=0x008004cd
       24695000	      2468	80001060	02ab8863	beq	x23,x10,80001090	 x23:0x00000000 x10:0xcd478000
       24705000	      2469	80001064	01f28263	beq	x5,x31,80001068	  x5:0xe8000000 x31:0x00000000
       24715000	      2470	80001068	01446eb3	or	x29,x8,x20	  x8:0x7fffc9ec x20:0x80009f5c x29=0xffffdffc
       24725000	      2471	8000106c	01308663	beq	x1,x19,80001078	  x1:0x00000000 x19:0x00000000
       24735000	      2472	00000000	00000013	addi	x0,x0,0	  x0:0x00000000
       24745000	      2473	80001074	00000013	addi	x0,x0,0	  x0:0x00000000
       24755000	      2474	80001078	8f16e237	lui	x4,0x8f16e	  x4=0x8f16e000
       24765000	      2475	8000107c	008d9d93	slli	x27,x27,0x8	 x27:0x00000000 x27=0x00000000
       24775000	      2476	80001080	015e6263	bltu	x28,x21,80001084	 x28:0x00000001 x21:0x00000000
       24785000	      2477	80001084	00d85313	srli	x6,x16,0xd	 x16:0xfffffff2  x6=0x0007ffff
       24795000	      2478	80001088	00885593	srli	x11,x16,0x8	 x16:0xfffffff2 x11=0x00ffffff
       24805000	      2479	8000108c	45eacc13	xori	x24,x21,1118	 x21:0x00000000 x24=0x0000045e
       24815000	      2480	80001090	03624063	blt	x4,x22,800010b0	  x4:0x8f16e000 x22:0xfffffd8b
       24825000	      2481	00000000	00000013	addi	x0,x0,0	  x0:0x00000000
       24835000	      2482	800010ac	00000013	addi	x0,x0,0	  x0:0x00000000
       24845000	      2483	800010b0	013c34b3	sltu	x9,x24,x19	 x24:0x0000045e x19:0x00000000  x9=0x00000000
       24855000	      2484	800010b4	4290e797	auipc	x15,0x4290e	 x15=0xc290f0b0
       24865000	      2485	800010b8	016deab3	or	x21,x27,x22	 x27:0x00000000 x22:0xfffffd8b x21=0xfffffd8b
       24875000	      2486	800010bc	9f930193	addi	x3,x6,-1543	  x6:0x0007ffff  x3=0x0007f9f8
       24885000	      2487	800010c0	00a3fe63	bgeu	x7,x10,800010dc	  x7:0xfffffee8 x10:0xcd478000
       24895000	      2488	00000000	00000013	addi	x0,x0,0	  x0:0x00000000
       24905000	      2489	800010d8	00000013	addi	x0,x0,0	  x0:0x00000000
       24915000	      2490	800010dc	02f2ea63	bltu	x5,x15,80001110	  x5:0xe8000000 x15:0xc290f0b0
       24925000	      2491	800010e0	005ce2b3	or	x5,x25,x5	 x25:0x00000001  x5:0xe8000000  x5=0xe8000001
       24935000	      2492	800010e4	51010897	auipc	x17,0x51010	 x17=0xd10110e0
       24945000	      2493	800010e8	41ffd9b3	sra	x19,x31,x31	 x31:0x00000000 x31:0x00000000 x19=0x00000000
       24955000	      2494	800010ec	03715e63	bge	x2,x23,80001128	  x2:0xe6aaf4a0 x23:0x00000000
       24965000	      2495	800010f0	04f8c063	blt	x17,x15,80001130	 x17:0xd10110e0 x15:0xc290f0b0
       24975000	      2496	800010f4	a7b9a593	slti	x11,x19,-1413	 x19:0x00000000 x11=0x00000000
       24985000	      2497	800010f8	03b65463	bge	x12,x27,80001120	 x12:0x00000000 x27:0x00000000
       24995000	      2498	00000000	00000013	addi	x0,x0,0	  x0:0x00000000
       25005000	      2499	8000111c	00000013	addi	x0,x0,0	  x0:0x00000000
       25015000	      2500	80001120	00f65d33	srl	x26,x12,x15	 x12:0x00000000 x15:0xc290f0b0 x26=0x00000000
       25025000	      2501	80001124	7ff84313	xori	x6,x16,2047	 x16:0xfffffff2  x6=0xfffff80d
       25035000	      2502	80001128	011941b3	xor	x3,x18,x17	 x18:0x00800034 x17:0xd10110e0  x3=0xd18110d4
       25045000	      2503	8000112c	034b5863	bge	x22,x20,8000115c	 x22:0xfffffd8b x20:0x80009f5c
       25055000	      2504	00000000	00000013	addi	x0,x0,0	  x0:0x00000000
       25065000	      2505	80001158	00000013	addi	x0,x0,0	  x0:0x00000000
       25075000	      2506	8000115c	008ee6b3	or	x13,x29,x8	 x29:0xffffdffc  x8:0x7fffc9ec x13=0xffffdffc
       25085000	      2507	80001160	c1c84b13	xori	x22,x16,-996	 x16:0xfffffff2 x22=0x000003ee
       25095000	      2508	80001164	001c2db3	slt	x27,x24,x1	 x24:0x0000045e  x1:0x00000000 x27=0x00000000
       25105000	      2509	80001168	016106b3	add	x13,x2,x22	  x2:0xe6aaf4a0 x22:0x000003ee x13=0xe6aaf88e
       25115000	      2510	8000116c	00bc75b3	and	x11,x24,x11	 x24:0x0000045e x11:0x00000000 x11=0x00000000
       25125000	      2511	80001170	010934b3	sltu	x9,x18,x16	 x18:0x00800034 x16:0xfffffff2  x9=0x00000001
       25135000	      2512	80001174	4f1e7393	andi	x7,x28,1265	 x28:0x00000001  x7=0x00000001
       25145000	      2513	80001178	00f7e6b3	or	x13,x15,x15	 x15:0xc290f0b0 x15:0xc290f0b0 x13=0xc290f0b0
       25155000	      2514	8000117c	8a514593	xori	x11,x2,-1883	  x2:0xe6aaf4a0 x11=0x19550c05
       25165000	      2515	80001180	04350c63	beq	x10,x3,800011d8	 x10:0xcd478000  x3:0xd18110d4
       25175000	      2516	80001184	05ba7a63	bgeu	x20,x27,800011d8	 x20:0x80009f5c x27:0x00000000
       25185000	      2517	00000000	00000013	addi	x0,x0,0	  x0:0x00000000
       25195000	      2518	800011d4	00000013	addi	x0,x0,0	  x0:0x00000000
       25205000	      2519	800011d8	05e7f063	bgeu	x15,x30,80001218	 x15:0xc290f0b0 x30:0x80009fc4
       25215000	      2520	00000000	00000013	addi	x0,x0,0	  x0:0x00000000
       25225000	      2521	80001214	00000013	addi	x0,x0,0	  x0:0x00000000
       25235000	      2522	80001218	3119bd93	sltiu	x27,x19,785	 x19:0x00000000 x27=0x00000001
       25245000	      2523	8000121c	008c7e63	bgeu	x24,x8,80001238	 x24:0x0000045e  x8:0x7fffc9ec
       25255000	      2524	80001220	051a6263	bltu	x20,x17,80001264	 x20:0x80009f5c x17:0xd10110e0
       25265000	      2525	00000000	00000013	addi	x0,x0,0	  x0:0x00000000
       25275000	      2526	80001260	00000013	addi	x0,x0,0	  x0:0x00000000
       25285000	      2527	80001264	00031863	bne	x6,x0,80001274	  x6:0xfffff80d  x0:0x00000000
       25295000	      2528	00000000	00000013	addi	x0,x0,0	  x0:0x00000000
       25305000	      2529	80001270	00000013	addi	x0,x0,0	  x0:0x00000000
       25315000	      2530	80001274	307bc513	xori	x10,x23,775	 x23:0x00000000 x10=0x00000307
       25325000	      2531	80001278	00ff1433	sll	x8,x30,x15	 x30:0x80009fc4 x15:0xc290f0b0  x8=0x9fc40000
       25335000	      2532	8000127c	016e1693	slli	x13,x28,0x16	 x28:0x00000001 x13=0x00400000
       25345000	      2533	80001280	402e83b3	sub	x7,x29,x2	 x29:0xffffdffc  x2:0xe6aaf4a0  x7=0x1954eb5c
       25355000	      2534	80001284	00c944b3	xor	x9,x18,x12	 x18:0x00800034 x12:0x00000000  x9=0x00800034
       25365000	      2535	80001288	03030463	beq	x6,x16,800012b0	  x6:0xfffff80d x16:0xfffffff2
       25375000	      2536	8000128c	017d4733	xor	x14,x26,x23	 x26:0x00000000 x23:0x00000000 x14=0x00000000
       25385000	      2537	80001290	0112d263	bge	x5,x17,80001294	  x5:0xe8000001 x17:0xd10110e0
       25395000	      2538	00000000	00000013	addi	x0,x0,0	  x0:0x00000000
       25405000	      2539	80001290	00000013	addi	x0,x0,0	  x0:0x00000000
       25415000	      2540	80001294	410f5733	sra	x14,x30,x16	 x30:0x80009fc4 x16:0xfffffff2 x14=0xffffe000
       25425000	      2541	80001298	014ee833	or	x16,x29,x20	 x29:0xffffdffc x20:0x80009f5c x16=0xffffdffc
       25435000	      2542	8000129c	cdcf0a93	addi	x21,x30,-804	 x30:0x80009fc4 x21=0x80009ca0
       25445000	      2543	800012a0	5e6ebb93	sltiu	x23,x29,1510	 x29:0xffffdffc x23=0x00000000
       25455000	      2544	800012a4	016bfa63	bgeu	x23,x22,800012b8	 x23:0x00000000 x22:0x000003ee
       25465000	      2545	800012a8	0034e463	bltu	x9,x3,800012b0	  x9:0x00800034  x3:0xd18110d4
       25475000	      2546	00000000	00000013	addi	x0,x0,0	  x0:0x00000000
       25485000	      2547	800012ac	00000013	addi	x0,x0,0	  x0:0x00000000
       25495000	      2548	800012b0	00000013	addi	x0,x0,0	  x0:0x00000000
       25505000	      2549	800012b4	07462293	slti	x5,x12,116	 x12:0x00000000  x5=0x00000001
       25515000	      2550	800012b8	0d349537	lui	x10,0xd349	 x10=0x0d349000
       25525000	      2551	800012bc	00afb033	sltu	x0,x31,x10	 x31:0x00000000 x10:0x0d349000
       25535000	      2552	800012c0	00335793	srli	x15,x6,0x3	  x6:0xfffff80d x15=0x1fffff01
       25545000	      2553	800012c4	0a746493	ori	x9,x8,167	  x8:0x9fc40000  x9=0x9fc400a7
       25555000	      2554	800012c8	02e99c63	bne	x19,x14,80001300	 x19:0x00000000 x14:0xffffe000
       25565000	      2555	00000000	00000013	addi	x0,x0,0	  x0:0x00000000
       25575000	      2556	800012fc	00000013	addi	x0,x0,0	  x0:0x00000000
       25585000	      2557	80001300	ca70e593	ori	x11,x1,-857	  x1:0x00000000 x11=0xfffffca7
       25595000	      2558	80001304	40225993	srai	x19,x4,0x2	  x4:0x8f16e000 x19=0xe3c5b800
       25605000	      2559	80001308	c07e2193	slti	x3,x28,-1017	 x28:0x00000001  x3=0x00000000
       25615000	      2560	8000130c	01d45b93	srli	x23,x8,0x1d	  x8:0x9fc40000 x23=0x00000004
       25625000	      2561	80001310	01b756b3	srl	x13,x14,x27	 x14:0xffffe000 x27:0x00000001 x13=0x7ffff000
       25635000	      2562	80001314	0164b433	sltu	x8,x9,x22	  x9:0x9fc400a7 x22:0x000003ee  x8=0x00000000
       25645000	      2563	80001318	00366c33	or	x24,x12,x3	 x12:0x00000000  x3:0x00000000 x24=0x00000000
       25655000	      2564	8000131c	40f3da93	srai	x21,x7,0xf	  x7:0x1954eb5c x21=0x000032a9
       25665000	      2565	80001320	f29beb93	ori	x23,x23,-215	 x23:0x00000004 x23=0xffffff2d
       25675000	      2566	80001324	8a40ba97	auipc	x21,0x8a40b	 x21=0x0a40c320
       25685000	      2567	80001328	01409f93	slli	x31,x1,0x14	  x1:0x00000000 x31=0x00000000
       25695000	      2568	8000132c	3dac7793	andi	x15,x24,986	 x24:0x00000000 x15=0x00000000
       25705000	      2569	80001330	01920263	beq	x4,x25,80001334	  x4:0x8f16e000 x25:0x00000001
       25715000	      2570	80001334	01261863	bne	x12,x18,80001344	 x12:0x00000000 x18:0x00800034
       25725000	      2571	00000000	00000013	addi	x0,x0,0	  x0:0x00000000
       25735000	      2572	80001340	00000013	addi	x0,x0,0	  x0:0x00000000
       25745000	      2573	80001344	406a52b3	sra	x5,x20,x6	 x20:0x80009f5c  x6:0xfffff80d  x5=0xfffc0004
       25755000	      2574	80001348	027f6663	bltu	x30,x7,80001374	 x30:0x80009fc4  x7:0x1954eb5c
       25765000	      2575	8000134c	01d1dd33	srl	x26,x3,x29	  x3:0x00000000 x29:0xffffdffc x26=0x00000000
       25775000	      2576	80001350	ec1a7b17	auipc	x22,0xec1a7	 x22=0x6c1a834c
       25785000	      2577	80001354	0257ce63	blt	x15,x5,80001390	 x15:0x00000000  x5:0xfffc0004
       25795000	      2578	80001358	010b1263	bne	x22,x16,8000135c	 x22:0x6c1a834c x16:0xffffdffc
       25805000	      2579	00000000	00000013	addi	x0,x0,0	  x0:0x00000000
       25815000	      2580	80001358	00000013	addi	x0,x0,0	  x0:0x00000000
       25825000	      2581	8000135c	415854b3	sra	x9,x16,x21	 x16:0xffffdffc x21:0x0a40c320  x9=0xffffdffc
       25835000	      2582	80001360	019fdd33	srl	x26,x31,x25	 x31:0x00000000 x25:0x00000001 x26=0x00000000
       25845000	      2583	80001364	007a0933	add	x18,x20,x7	 x20:0x80009f5c  x7:0x1954eb5c x18=0x99558ab8
       25855000	      2584	80001368	00000013	addi	x0,x0,0	  x0:0x00000000
       25865000	      2585	8000136c	4102da93	srai	x21,x5,0x10	  x5:0xfffc0004 x21=0xfffffffc
       25875000	      2586	80001370	006b11b3	sll	x3,x22,x6	 x22:0x6c1a834c  x6:0xfffff80d  x3=0x50698000
       25885000	      2587	80001374	03e94663	blt	x18,x30,800013a0	 x18:0x99558ab8 x30:0x80009fc4
       25895000	      2588	80001378	ec207113	andi	x2,x0,-318	  x0:0x00000000  x2=0x00000000
       25905000	      2589	8000137c	005d98b3	sll	x17,x27,x5	 x27:0x00000001  x5:0xfffc0004 x17=0x00000010
       25915000	      2590	80001380	019d1c63	bne	x26,x25,80001398	 x26:0x00000000 x25:0x00000001
       25925000	      2591	00000000	00000013	addi	x0,x0,0	  x0:0x00000000
       25935000	      2592	80001394	00000013	addi	x0,x0,0	  x0:0x00000000
       25945000	      2593	80001398	03179c63	bne	x15,x17,800013d0	 x15:0x00000000 x17:0x00000010
       25955000	      2594	00000000	00000013	addi	x0,x0,0	  x0:0x00000000
       25965000	      2595	800013cc	00000013	addi	x0,x0,0	  x0:0x00000000
       25975000	      2596	800013d0	878ef093	andi	x1,x29,-1928	 x29:0xffffdffc  x1=0xffffd878
       25985000	      2597	800013d4	00968463	beq	x13,x9,800013dc	 x13:0x7ffff000  x9:0xffffdffc
       25995000	      2598	800013d8	5d54fb17	auipc	x22,0x5d54f	 x22=0xdd5503d4
       26005000	      2599	800013dc	001c16b3	sll	x13,x24,x1	 x24:0x00000000  x1:0xffffd878 x13=0x00000000
       26015000	      2600	800013e0	40ea58b3	sra	x17,x20,x14	 x20:0x80009f5c x14:0xffffe000 x17=0x80009f5c
       26025000	      2601	800013e4	038a8463	beq	x21,x24,8000140c	 x21:0xfffffffc x24:0x00000000
       26035000	      2602	800013e8	00a27e63	bgeu	x4,x10,80001404	  x4:0x8f16e000 x10:0x0d349000
       26045000	      2603	00000000	00000013	addi	x0,x0,0	  x0:0x00000000
       26055000	      2604	80001400	00000013	addi	x0,x0,0	  x0:0x00000000
       26065000	      2605	80001404	041b0263	beq	x22,x1,80001448	 x22:0xdd5503d4  x1:0xffffd878
       26075000	      2606	80001408	004b8d93	addi	x27,x23,4	 x23:0xffffff2d x27=0xffffff31
       26085000	      2607	8000140c	05a25063	bge	x4,x26,8000144c	  x4:0x8f16e000 x26:0x00000000
       26095000	      2608	80001410	412ed733	sra	x14,x29,x18	 x29:0xffffdffc x18:0x99558ab8 x14=0xffffffff
       26105000	      2609	80001414	8a8f8b17	auipc	x22,0x8a8f8	 x22=0x0a8f9410
       26115000	      2610	80001418	7fab7917	auipc	x18,0x7fab7	 x18=0xffab8414
       26125000	      2611	8000141c	7e72be13	sltiu	x28,x5,2023	  x5:0xfffc0004 x28=0x00000000
       26135000	      2612	80001420	007255b3	srl	x11,x4,x7	  x4:0x8f16e000  x7:0x1954eb5c x11=0x00000008
       26145000	      2613	80001424	003b9593	slli	x11,x23,0x3	 x23:0xffffff2d x11=0xfffff968
       26155000	      2614	80001428	00061213	slli	x4,x12,0x0	 x12:0x00000000  x4=0x00000000
       26165000	      2615	8000142c	00645463	bge	x8,x6,80001434	  x8:0x00000000  x6:0xfffff80d
       26175000	      2616	00000000	00000013	addi	x0,x0,0	  x0:0x00000000
       26185000	      2617	80001430	00000013	addi	x0,x0,0	  x0:0x00000000
       26195000	      2618	80001434	0171a133	slt	x2,x3,x23	  x3:0x50698000 x23:0xffffff2d  x2=0x00000000
       26205000	      2619	80001438	0162fe63	bgeu	x5,x22,80001454	  x5:0xfffc0004 x22:0x0a8f9410
       26215000	      2620	00000000	00000013	addi	x0,x0,0	  x0:0x00000000
       26225000	      2621	80001450	00000013	addi	x0,x0,0	  x0:0x00000000
       26235000	      2622	80001454	0139ccb3	xor	x25,x19,x19	 x19:0xe3c5b800 x19:0xe3c5b800 x25=0x00000000
       26245000	      2623	80001458	016c1663	bne	x24,x22,80001464	 x24:0x00000000 x22:0x0a8f9410
       26255000	      2624	00000000	00000013	addi	x0,x0,0	  x0:0x00000000
       26265000	      2625	80001460	00000013	addi	x0,x0,0	  x0:0x00000000
       26275000	      2626	80001464	01d2ccb3	xor	x25,x5,x29	  x5:0xfffc0004 x29:0xffffdffc x25=0x0003dff8
       26285000	      2627	80001468	00699e33	sll	x28,x19,x6	 x19:0xe3c5b800  x6:0xfffff80d x28=0xb7000000
       26295000	      2628	8000146c	40d8d493	srai	x9,x17,0xd	 x17:0x80009f5c  x9=0xfffc0004
       26305000	      2629	80001470	01679a63	bne	x15,x22,80001484	 x15:0x00000000 x22:0x0a8f9410
       26315000	      2630	00000000	00000013	addi	x0,x0,0	  x0:0x00000000
       26325000	      2631	80001480	00000013	addi	x0,x0,0	  x0:0x00000000
       26335000	      2632	80001484	288ed937	lui	x18,0x288ed	 x18=0x288ed000
       26345000	      2633	80001488	edf7a713	slti	x14,x15,-289	 x15:0x00000000 x14=0x00000000
       26355000	      2634	8000148c	01228d33	add	x26,x5,x18	  x5:0xfffc0004 x18:0x288ed000 x26=0x288ad004
       26365000	      2635	80001490	02617c63	bgeu	x2,x6,800014c8	  x2:0x00000000  x6:0xfffff80d
       26375000	      2636	80001494	ad0d3d13	sltiu	x26,x26,-1328	 x26:0x288ad004 x26=0x00000001
       26385000	      2637	80001498	04ba9663	bne	x21,x11,800014e4	 x21:0xfffffffc x11:0xfffff968
       26395000	      2638	00000000	00000013	addi	x0,x0,0	  x0:0x00000000
       26405000	      2639	800014e0	00000013	addi	x0,x0,0	  x0:0x00000000
       26415000	      2640	800014e4	02831063	bne	x6,x8,80001504	  x6:0xfffff80d  x8:0x00000000
       26425000	      2641	00000000	00000013	addi	x0,x0,0	  x0:0x00000000
       26435000	      2642	80001500	00000013	addi	x0,x0,0	  x0:0x00000000
       26445000	      2643	80001504	05ad0063	beq	x26,x26,80001544	 x26:0x00000001 x26:0x00000001
       26455000	      2644	00000000	00000013	addi	x0,x0,0	  x0:0x00000000
       26465000	      2645	80001540	00000013	addi	x0,x0,0	  x0:0x00000000
       26475000	      2646	80001544	00bce463	bltu	x25,x11,8000154c	 x25:0x0003dff8 x11:0xfffff968
       26485000	      2647	00000000	00000013	addi	x0,x0,0	  x0:0x00000000
       26495000	      2648	80001548	00000013	addi	x0,x0,0	  x0:0x00000000
       26505000	      2649	8000154c	015e68b3	or	x17,x28,x21	 x28:0xb7000000 x21:0xfffffffc x17=0xfffffffc
       26515000	      2650	80001550	09980e63	beq	x16,x25,800015ec	 x16:0xffffdffc x25:0x0003dff8
       26525000	      2651	80001554	00bb10b3	sll	x1,x22,x11	 x22:0x0a8f9410 x11:0xfffff968  x1=0x8f941000
       26535000	      2652	80001558	078000ef	jal	x1,80001558	  x1=0x80001558
       26545000	      2653	00000000	00000013	addi	x0,x0,0	  x0:0x00000000
       26555000	      2654	800015cc	00000013	addi	x0,x0,0	  x0:0x00000000
       26565000	      2655	800015d0	fe9ff4ef	jal	x9,800015d0	  x9=0x800015d0
       26575000	      2656	00000000	00000013	addi	x0,x0,0	  x0:0x00000000
       26585000	      2657	800015b4	00000013	addi	x0,x0,0	  x0:0x00000000
       26595000	      2658	800015b8	fbdff36f	jal	x6,800015b8	  x6=0x800015b8
       26605000	      2659	00000000	00000013	addi	x0,x0,0	  x0:0x00000000
       26615000	      2660	80001570	00000013	addi	x0,x0,0	  x0:0x00000000
       26625000	      2661	80001574	038000ef	jal	x1,80001574	  x1=0x80001574
       26635000	      2662	00000000	00000013	addi	x0,x0,0	  x0:0x00000000
       26645000	      2663	800015a8	00000013	addi	x0,x0,0	  x0:0x00000000
       26655000	      2664	800015ac	fd5ff0ef	jal	x1,800015ac	  x1=0x800015ac
       26665000	      2665	00000000	00000013	addi	x0,x0,0	  x0:0x00000000
       26675000	      2666	8000157c	00000013	addi	x0,x0,0	  x0:0x00000000
       26685000	      2667	80001580	0140036f	jal	x6,80001580	  x6=0x80001580
       26695000	      2668	00000000	00000013	addi	x0,x0,0	  x0:0x00000000
       26705000	      2669	80001590	00000013	addi	x0,x0,0	  x0:0x00000000
       26715000	      2670	80001594	fe9ff36f	jal	x6,80001594	  x6=0x80001594
       26725000	      2671	00000000	00000013	addi	x0,x0,0	  x0:0x00000000
       26735000	      2672	80001578	00000013	addi	x0,x0,0	  x0:0x00000000
       26745000	      2673	8000157c	01c0076f	jal	x14,8000157c	 x14=0x8000157c
       26755000	      2674	00000000	00000013	addi	x0,x0,0	  x0:0x00000000
       26765000	      2675	80001594	00000013	addi	x0,x0,0	  x0:0x00000000
       26775000	      2676	80001598	fd1ff0ef	jal	x1,80001598	  x1=0x80001598
       26785000	      2677	00000000	00000013	addi	x0,x0,0	  x0:0x00000000
       26795000	      2678	80001564	00000013	addi	x0,x0,0	  x0:0x00000000
       26805000	      2679	80001568	04c000ef	jal	x1,80001568	  x1=0x80001568
       26815000	      2680	00000000	00000013	addi	x0,x0,0	  x0:0x00000000
       26825000	      2681	800015b0	00000013	addi	x0,x0,0	  x0:0x00000000
       26835000	      2682	800015b4	00c000ef	jal	x1,800015b4	  x1=0x800015b4
       26845000	      2683	00000000	00000013	addi	x0,x0,0	  x0:0x00000000
       26855000	      2684	800015bc	00000013	addi	x0,x0,0	  x0:0x00000000
       26865000	      2685	800015c0	fadffe6f	jal	x28,800015c0	 x28=0x800015c0
       26875000	      2686	00000000	00000013	addi	x0,x0,0	  x0:0x00000000
       26885000	      2687	80001568	00000013	addi	x0,x0,0	  x0:0x00000000
       26895000	      2688	8000156c	0180046f	jal	x8,8000156c	  x8=0x8000156c
       26905000	      2689	00000000	00000013	addi	x0,x0,0	  x0:0x00000000
       26915000	      2690	80001580	00000013	addi	x0,x0,0	  x0:0x00000000
       26925000	      2691	80001584	018000ef	jal	x1,80001584	  x1=0x80001584
       26935000	      2692	00000000	00000013	addi	x0,x0,0	  x0:0x00000000
       26945000	      2693	80001598	00000013	addi	x0,x0,0	  x0:0x00000000
       26955000	      2694	8000159c	00c000ef	jal	x1,8000159c	  x1=0x8000159c
       26965000	      2695	00000000	00000013	addi	x0,x0,0	  x0:0x00000000
       26975000	      2696	800015a4	00000013	addi	x0,x0,0	  x0:0x00000000
       26985000	      2697	800015a8	020000ef	jal	x1,800015a8	  x1=0x800015a8
       26995000	      2698	00000000	00000013	addi	x0,x0,0	  x0:0x00000000
       27005000	      2699	800015c4	00000013	addi	x0,x0,0	  x0:0x00000000
       27015000	      2700	800015c8	fc5ff36f	jal	x6,800015c8	  x6=0x800015c8
       27025000	      2701	00000000	00000013	addi	x0,x0,0	  x0:0x00000000
       27035000	      2702	80001588	00000013	addi	x0,x0,0	  x0:0x00000000
       27045000	      2703	8000158c	fedff0ef	jal	x1,8000158c	  x1=0x8000158c
       27055000	      2704	00000000	00000013	addi	x0,x0,0	  x0:0x00000000
       27065000	      2705	80001574	00000013	addi	x0,x0,0	  x0:0x00000000
       27075000	      2706	80001578	ff9ff0ef	jal	x1,80001578	  x1=0x80001578
       27085000	      2707	00000000	00000013	addi	x0,x0,0	  x0:0x00000000
       27095000	      2708	8000156c	00000013	addi	x0,x0,0	  x0:0x00000000
       27105000	      2709	80001570	054000ef	jal	x1,80001570	  x1=0x80001570
       27115000	      2710	00000000	00000013	addi	x0,x0,0	  x0:0x00000000
       27125000	      2711	800015c0	00000013	addi	x0,x0,0	  x0:0x00000000
       27135000	      2712	800015c4	fc5ff36f	jal	x6,800015c4	  x6=0x800015c4
       27145000	      2713	00000000	00000013	addi	x0,x0,0	  x0:0x00000000
       27155000	      2714	80001584	00000013	addi	x0,x0,0	  x0:0x00000000
       27165000	      2715	80001588	fddff0ef	jal	x1,80001588	  x1=0x80001588
       27175000	      2716	00000000	00000013	addi	x0,x0,0	  x0:0x00000000
       27185000	      2717	80001560	00000013	addi	x0,x0,0	  x0:0x00000000
       27195000	      2718	80001564	04c000ef	jal	x1,80001564	  x1=0x80001564
       27205000	      2719	00000000	00000013	addi	x0,x0,0	  x0:0x00000000
       27215000	      2720	800015ac	00000013	addi	x0,x0,0	  x0:0x00000000
       27225000	      2721	800015b0	00c000ef	jal	x1,800015b0	  x1=0x800015b0
       27235000	      2722	00000000	00000013	addi	x0,x0,0	  x0:0x00000000
       27245000	      2723	800015b8	00000013	addi	x0,x0,0	  x0:0x00000000
       27255000	      2724	800015bc	fa1ff0ef	jal	x1,800015bc	  x1=0x800015bc
       27265000	      2725	00000000	00000013	addi	x0,x0,0	  x0:0x00000000
       27275000	      2726	80001558	00000013	addi	x0,x0,0	  x0:0x00000000
       27285000	      2727	8000155c	070000ef	jal	x1,8000155c	  x1=0x8000155c
       27295000	      2728	00000000	00000013	addi	x0,x0,0	  x0:0x00000000
       27305000	      2729	800015c8	00000013	addi	x0,x0,0	  x0:0x00000000
       27315000	      2730	800015cc	f95ff0ef	jal	x1,800015cc	  x1=0x800015cc
       27325000	      2731	00000000	00000013	addi	x0,x0,0	  x0:0x00000000
       27335000	      2732	8000155c	00000013	addi	x0,x0,0	  x0:0x00000000
       27345000	      2733	80001560	040005ef	jal	x11,80001560	 x11=0x80001560
       27355000	      2734	00000000	00000013	addi	x0,x0,0	  x0:0x00000000
       27365000	      2735	8000159c	00000013	addi	x0,x0,0	  x0:0x00000000
       27375000	      2736	800015a0	004002ef	jal	x5,800015a0	  x5=0x800015a0
       27385000	      2737	00000000	00000013	addi	x0,x0,0	  x0:0x00000000
       27395000	      2738	800015a0	00000013	addi	x0,x0,0	  x0:0x00000000
       27405000	      2739	800015a4	fedff0ef	jal	x1,800015a4	  x1=0x800015a4
       27415000	      2740	00000000	00000013	addi	x0,x0,0	  x0:0x00000000
       27425000	      2741	8000158c	00000013	addi	x0,x0,0	  x0:0x00000000
       27435000	      2742	80001590	0440036f	jal	x6,80001590	  x6=0x80001590
       27445000	      2743	00000000	00000013	addi	x0,x0,0	  x0:0x00000000
       27455000	      2744	800015d0	00000013	addi	x0,x0,0	  x0:0x00000000
       27465000	      2745	800015d4	01cfe0b3	or	x1,x31,x28	 x31:0x00000000 x28:0x800015c0  x1=0x800015c0
       27475000	      2746	800015d8	f5dba213	slti	x4,x23,-163	 x23:0xffffff2d  x4=0x00000001
       27485000	      2747	800015dc	01cb79b3	and	x19,x22,x28	 x22:0x0a8f9410 x28:0x800015c0 x19=0x00001400
       27495000	      2748	800015e0	008345b3	xor	x11,x6,x8	  x6:0x80001590  x8:0x8000156c x11=0x000000fc
       27505000	      2749	800015e4	00e665b3	or	x11,x12,x14	 x12:0x00000000 x14:0x8000157c x11=0x8000157c
       27515000	      2750	800015e8	01b810b3	sll	x1,x16,x27	 x16:0xffffdffc x27:0xffffff31  x1=0xbff80000
       27525000	      2751	800015ec	3326fe13	andi	x28,x13,818	 x13:0x00000000 x28=0x00000000
       27535000	      2752	800015f0	01a2f6b3	and	x13,x5,x26	  x5:0x800015a0 x26:0x00000001 x13=0x00000000
       27545000	      2753	800015f4	419cdd13	srai	x26,x25,0x19	 x25:0x0003dff8 x26=0x00000000
       27555000	      2754	800015f8	7b1b3293	sltiu	x5,x22,1969	 x22:0x0a8f9410  x5=0x00000000
       27565000	      2755	800015fc	fbd34393	xori	x7,x6,-67	  x6:0x80001590  x7=0x7fffea2d
       27575000	      2756	80001600	01930663	beq	x6,x25,8000160c	  x6:0x80001590 x25:0x0003dff8
       27585000	      2757	80001604	3b000397	auipc	x7,0x3b000	  x7=0xbb001600
       27595000	      2758	80001608	0387c863	blt	x15,x24,80001638	 x15:0x00000000 x24:0x00000000
       27605000	      2759	8000160c	013adb33	srl	x22,x21,x19	 x21:0xfffffffc x19:0x00001400 x22=0xfffffffc
       27615000	      2760	80001610	0048c2b3	xor	x5,x17,x4	 x17:0xfffffffc  x4:0x00000001  x5=0xfffffffd
       27625000	      2761	80001614	00e77033	and	x0,x14,x14	 x14:0x8000157c x14:0x8000157c
       27635000	      2762	80001618	02bff663	bgeu	x31,x11,80001644	 x31:0x00000000 x11:0x8000157c
       27645000	      2763	8000161c	040cea63	bltu	x25,x0,80001670	 x25:0x0003dff8  x0:0x00000000
       27655000	      2764	80001620	93fd3593	sltiu	x11,x26,-1729	 x26:0x00000000 x11=0x00000001
       27665000	      2765	80001624	01125233	srl	x4,x4,x17	  x4:0x00000001 x17:0xfffffffc  x4=0x00000000
       27675000	      2766	80001628	05c7c863	blt	x15,x28,80001678	 x15:0x00000000 x28:0x00000000
       27685000	      2767	8000162c	07db6463	bltu	x22,x29,80001694	 x22:0xfffffffc x29:0xffffdffc
       27695000	      2768	80001630	00cafbb3	and	x23,x21,x12	 x21:0xfffffffc x12:0x00000000 x23=0x00000000
       27705000	      2769	80001634	00dd6263	bltu	x26,x13,80001638	 x26:0x00000000 x13:0x00000000
       27715000	      2770	80001638	02a04b13	xori	x22,x0,42	  x0:0x00000000 x22=0x0000002a
       27725000	      2771	8000163c	4040d5b3	sra	x11,x1,x4	  x1:0xbff80000  x4:0x00000000 x11=0xbff80000
       27735000	      2772	80001640	004f2533	slt	x10,x30,x4	 x30:0x80009fc4  x4:0x00000000 x10=0x00000001
       27745000	      2773	80001644	032a0a63	beq	x20,x18,80001678	 x20:0x80009f5c x18:0x288ed000
       27755000	      2774	80001648	e5e21217	auipc	x4,0xe5e21	  x4=0x65e22644
       27765000	      2775	8000164c	0025fc63	bgeu	x11,x2,80001664	 x11:0xbff80000  x2:0x00000000
       27775000	      2776	00000000	00000013	addi	x0,x0,0	  x0:0x00000000
       27785000	      2777	80001660	00000013	addi	x0,x0,0	  x0:0x00000000
       27795000	      2778	80001664	11d010ef	jal	x1,80001664	  x1=0x80001664
       27805000	      2779	00000000	00000013	addi	x0,x0,0	  x0:0x00000000
       27815000	      2780	80002f7c	00000013	addi	x0,x0,0	  x0:0x00000000
       27825000	      2781	80002f80	fd0a0a13	addi	x20,x20,-48	 x20:0x80009f5c x20=0x80009f2c
       27835000	      2782	80002f84	0112ee33	or	x28,x5,x17	  x5:0xfffffffd x17:0xfffffffc x28=0xfffffffd
       27845000	      2783	80002f88	0197bcb3	sltu	x25,x15,x25	 x15:0x00000000 x25:0x0003dff8 x25=0x00000001
       27855000	      2784	80002f8c	daa90893	addi	x17,x18,-598	 x18:0x288ed000 x17=0x288ecdaa
       27865000	      2785	80002f90	013afbb3	and	x23,x21,x19	 x21:0xfffffffc x19:0x00001400 x23=0x00001400
       27875000	      2786	80002f94	001a2223	sw	x1,4(x20)	 x20:0x80009f2c  x1:0x80001664 PA:0x80009f30
       27885000	      2787	80002f98	409f02b3	sub	x5,x30,x9	 x30:0x80009fc4  x9:0x800015d0  x5=0x000089f4
       27895000	      2788	80002f9c	02c000ef	jal	x1,80002f9c	  x1=0x80002f9c
       27905000	      2789	00000000	00000013	addi	x0,x0,0	  x0:0x00000000
       27915000	      2790	80002fc4	00000013	addi	x0,x0,0	  x0:0x00000000
       27925000	      2791	80002fc8	fd9ff0ef	jal	x1,80002fc8	  x1=0x80002fc8
       27935000	      2792	00000000	00000013	addi	x0,x0,0	  x0:0x00000000
       27945000	      2793	80002f9c	00000013	addi	x0,x0,0	  x0:0x00000000
       27955000	      2794	80002fa0	014000ef	jal	x1,80002fa0	  x1=0x80002fa0
       27965000	      2795	00000000	00000013	addi	x0,x0,0	  x0:0x00000000
       27975000	      2796	80002fb0	00000013	addi	x0,x0,0	  x0:0x00000000
       27985000	      2797	80002fb4	ffdff0ef	jal	x1,80002fb4	  x1=0x80002fb4
       27995000	      2798	00000000	00000013	addi	x0,x0,0	  x0:0x00000000
       28005000	      2799	80002fac	00000013	addi	x0,x0,0	  x0:0x00000000
       28015000	      2800	80002fb0	0200016f	jal	x2,80002fb0	  x2=0x80002fb0
       28025000	      2801	00000000	00000013	addi	x0,x0,0	  x0:0x00000000
       28035000	      2802	80002fcc	00000013	addi	x0,x0,0	  x0:0x00000000
       28045000	      2803	80002fd0	00c000ef	jal	x1,80002fd0	  x1=0x80002fd0
       28055000	      2804	00000000	00000013	addi	x0,x0,0	  x0:0x00000000
       28065000	      2805	80002fd8	00000013	addi	x0,x0,0	  x0:0x00000000
       28075000	      2806	80002fdc	0100076f	jal	x14,80002fdc	 x14=0x80002fdc
       28085000	      2807	00000000	00000013	addi	x0,x0,0	  x0:0x00000000
       28095000	      2808	80002fe8	00000013	addi	x0,x0,0	  x0:0x00000000
       28105000	      2809	80002fec	004000ef	jal	x1,80002fec	  x1=0x80002fec
       28115000	      2810	00000000	00000013	addi	x0,x0,0	  x0:0x00000000
       28125000	      2811	80002fec	00000013	addi	x0,x0,0	  x0:0x00000000
       28135000	      2812	80002ff0	fddff0ef	jal	x1,80002ff0	  x1=0x80002ff0
       28145000	      2813	00000000	00000013	addi	x0,x0,0	  x0:0x00000000
       28155000	      2814	80002fc8	00000013	addi	x0,x0,0	  x0:0x00000000
       28165000	      2815	80002fcc	014000ef	jal	x1,80002fcc	  x1=0x80002fcc
       28175000	      2816	00000000	00000013	addi	x0,x0,0	  x0:0x00000000
       28185000	      2817	80002fdc	00000013	addi	x0,x0,0	  x0:0x00000000
       28195000	      2818	80002fe0	fc5ff36f	jal	x6,80002fe0	  x6=0x80002fe0
       28205000	      2819	00000000	00000013	addi	x0,x0,0	  x0:0x00000000
       28215000	      2820	80002fa0	00000013	addi	x0,x0,0	  x0:0x00000000
       28225000	      2821	80002fa4	020000ef	jal	x1,80002fa4	  x1=0x80002fa4
       28235000	      2822	00000000	00000013	addi	x0,x0,0	  x0:0x00000000
       28245000	      2823	80002fc0	00000013	addi	x0,x0,0	  x0:0x00000000
       28255000	      2824	80002fc4	014000ef	jal	x1,80002fc4	  x1=0x80002fc4
       28265000	      2825	00000000	00000013	addi	x0,x0,0	  x0:0x00000000
       28275000	      2826	80002fd4	00000013	addi	x0,x0,0	  x0:0x00000000
       28285000	      2827	80002fd8	fd5ff0ef	jal	x1,80002fd8	  x1=0x80002fd8
       28295000	      2828	00000000	00000013	addi	x0,x0,0	  x0:0x00000000
       28305000	      2829	80002fa8	00000013	addi	x0,x0,0	  x0:0x00000000
       28315000	      2830	80002fac	03c000ef	jal	x1,80002fac	  x1=0x80002fac
       28325000	      2831	00000000	00000013	addi	x0,x0,0	  x0:0x00000000
       28335000	      2832	80002fe4	00000013	addi	x0,x0,0	  x0:0x00000000
       28345000	      2833	80002fe8	fd5ff16f	jal	x2,80002fe8	  x2=0x80002fe8
       28355000	      2834	00000000	00000013	addi	x0,x0,0	  x0:0x00000000
       28365000	      2835	80002fb8	00000013	addi	x0,x0,0	  x0:0x00000000
       28375000	      2836	80002fbc	0280086f	jal	x16,80002fbc	 x16=0x80002fbc
       28385000	      2837	00000000	00000013	addi	x0,x0,0	  x0:0x00000000
       28395000	      2838	80002fe0	00000013	addi	x0,x0,0	  x0:0x00000000
       28405000	      2839	80002fe4	fddff0ef	jal	x1,80002fe4	  x1=0x80002fe4
       28415000	      2840	00000000	00000013	addi	x0,x0,0	  x0:0x00000000
       28425000	      2841	80002fbc	00000013	addi	x0,x0,0	  x0:0x00000000
       28435000	      2842	80002fc0	ff9ffeef	jal	x29,80002fc0	 x29=0x80002fc0
       28445000	      2843	00000000	00000013	addi	x0,x0,0	  x0:0x00000000
       28455000	      2844	80002fb4	00000013	addi	x0,x0,0	  x0:0x00000000
       28465000	      2845	80002fb8	ff1ff0ef	jal	x1,80002fb8	  x1=0x80002fb8
       28475000	      2846	00000000	00000013	addi	x0,x0,0	  x0:0x00000000
       28485000	      2847	80002fa4	00000013	addi	x0,x0,0	  x0:0x00000000
       28495000	      2848	80002fa8	02c000ef	jal	x1,80002fa8	  x1=0x80002fa8
       28505000	      2849	00000000	00000013	addi	x0,x0,0	  x0:0x00000000
       28515000	      2850	80002fd0	00000013	addi	x0,x0,0	  x0:0x00000000
       28525000	      2851	80002fd4	020000ef	jal	x1,80002fd4	  x1=0x80002fd4
       28535000	      2852	00000000	00000013	addi	x0,x0,0	  x0:0x00000000
       28545000	      2853	80002ff0	00000013	addi	x0,x0,0	  x0:0x00000000
       28555000	      2854	80002ff4	01b87233	and	x4,x16,x27	 x16:0x80002fbc x27:0xffffff31  x4=0x80002f30
       28565000	      2855	80002ff8	054000ef	jal	x1,80002ff8	  x1=0x80002ff8
       28575000	      2856	00000000	00000013	addi	x0,x0,0	  x0:0x00000000
       28585000	      2857	80003048	00000013	addi	x0,x0,0	  x0:0x00000000
       28595000	      2858	8000304c	fe5ff36f	jal	x6,8000304c	  x6=0x8000304c
       28605000	      2859	00000000	00000013	addi	x0,x0,0	  x0:0x00000000
       28615000	      2860	8000302c	00000013	addi	x0,x0,0	  x0:0x00000000
       28625000	      2861	80003030	fd9ff36f	jal	x6,80003030	  x6=0x80003030
       28635000	      2862	00000000	00000013	addi	x0,x0,0	  x0:0x00000000
       28645000	      2863	80003004	00000013	addi	x0,x0,0	  x0:0x00000000
       28655000	      2864	80003008	04000fef	jal	x31,80003008	 x31=0x80003008
       28665000	      2865	00000000	00000013	addi	x0,x0,0	  x0:0x00000000
       28675000	      2866	80003044	00000013	addi	x0,x0,0	  x0:0x00000000
       28685000	      2867	80003048	ff9ff0ef	jal	x1,80003048	  x1=0x80003048
       28695000	      2868	00000000	00000013	addi	x0,x0,0	  x0:0x00000000
       28705000	      2869	8000303c	00000013	addi	x0,x0,0	  x0:0x00000000
       28715000	      2870	80003040	ff9ff0ef	jal	x1,80003040	  x1=0x80003040
       28725000	      2871	00000000	00000013	addi	x0,x0,0	  x0:0x00000000
       28735000	      2872	80003034	00000013	addi	x0,x0,0	  x0:0x00000000
       28745000	      2873	80003038	fd9ff0ef	jal	x1,80003038	  x1=0x80003038
       28755000	      2874	00000000	00000013	addi	x0,x0,0	  x0:0x00000000
       28765000	      2875	8000300c	00000013	addi	x0,x0,0	  x0:0x00000000
       28775000	      2876	80003010	00400def	jal	x27,80003010	 x27=0x80003010
       28785000	      2877	00000000	00000013	addi	x0,x0,0	  x0:0x00000000
       28795000	      2878	80003010	00000013	addi	x0,x0,0	  x0:0x00000000
       28805000	      2879	80003014	008000ef	jal	x1,80003014	  x1=0x80003014
       28815000	      2880	00000000	00000013	addi	x0,x0,0	  x0:0x00000000
       28825000	      2881	80003018	00000013	addi	x0,x0,0	  x0:0x00000000
       28835000	      2882	8000301c	fe1ff0ef	jal	x1,8000301c	  x1=0x8000301c
       28845000	      2883	00000000	00000013	addi	x0,x0,0	  x0:0x00000000
       28855000	      2884	80002ff8	00000013	addi	x0,x0,0	  x0:0x00000000
       28865000	      2885	80002ffc	02c000ef	jal	x1,80002ffc	  x1=0x80002ffc
       28875000	      2886	00000000	00000013	addi	x0,x0,0	  x0:0x00000000
       28885000	      2887	80003024	00000013	addi	x0,x0,0	  x0:0x00000000
       28895000	      2888	80003028	01400fef	jal	x31,80003028	 x31=0x80003028
       28905000	      2889	00000000	00000013	addi	x0,x0,0	  x0:0x00000000
       28915000	      2890	80003038	00000013	addi	x0,x0,0	  x0:0x00000000
       28925000	      2891	8000303c	fc5ff0ef	jal	x1,8000303c	  x1=0x8000303c
       28935000	      2892	00000000	00000013	addi	x0,x0,0	  x0:0x00000000
       28945000	      2893	80002ffc	00000013	addi	x0,x0,0	  x0:0x00000000
       28955000	      2894	80003000	00c0036f	jal	x6,80003000	  x6=0x80003000
       28965000	      2895	00000000	00000013	addi	x0,x0,0	  x0:0x00000000
       28975000	      2896	80003008	00000013	addi	x0,x0,0	  x0:0x00000000
       28985000	      2897	8000300c	038000ef	jal	x1,8000300c	  x1=0x8000300c
       28995000	      2898	00000000	00000013	addi	x0,x0,0	  x0:0x00000000
       29005000	      2899	80003040	00000013	addi	x0,x0,0	  x0:0x00000000
       29015000	      2900	80003044	fddff0ef	jal	x1,80003044	  x1=0x80003044
       29025000	      2901	00000000	00000013	addi	x0,x0,0	  x0:0x00000000
       29035000	      2902	8000301c	00000013	addi	x0,x0,0	  x0:0x00000000
       29045000	      2903	80003020	0300036f	jal	x6,80003020	  x6=0x80003020
       29055000	      2904	00000000	00000013	addi	x0,x0,0	  x0:0x00000000
       29065000	      2905	8000304c	00000013	addi	x0,x0,0	  x0:0x00000000
       29075000	      2906	80003050	fe5ff0ef	jal	x1,80003050	  x1=0x80003050
       29085000	      2907	00000000	00000013	addi	x0,x0,0	  x0:0x00000000
       29095000	      2908	80003030	00000013	addi	x0,x0,0	  x0:0x00000000
       29105000	      2909	80003034	ff9ff36f	jal	x6,80003034	  x6=0x80003034
       29115000	      2910	00000000	00000013	addi	x0,x0,0	  x0:0x00000000
       29125000	      2911	80003028	00000013	addi	x0,x0,0	  x0:0x00000000
       29135000	      2912	8000302c	ff9ff36f	jal	x6,8000302c	  x6=0x8000302c
       29145000	      2913	00000000	00000013	addi	x0,x0,0	  x0:0x00000000
       29155000	      2914	80003020	00000013	addi	x0,x0,0	  x0:0x00000000
       29165000	      2915	80003024	fe1ff0ef	jal	x1,80003024	  x1=0x80003024
       29175000	      2916	00000000	00000013	addi	x0,x0,0	  x0:0x00000000
       29185000	      2917	80003000	00000013	addi	x0,x0,0	  x0:0x00000000
       29195000	      2918	80003004	0140016f	jal	x2,80003004	  x2=0x80003004
       29205000	      2919	00000000	00000013	addi	x0,x0,0	  x0:0x00000000
       29215000	      2920	80003014	00000013	addi	x0,x0,0	  x0:0x00000000
       29225000	      2921	80003018	03c0036f	jal	x6,80003018	  x6=0x80003018
       29235000	      2922	00000000	00000013	addi	x0,x0,0	  x0:0x00000000
       29245000	      2923	80003050	00000013	addi	x0,x0,0	  x0:0x00000000
       29255000	      2924	80003054	8e66c113	xori	x2,x13,-1818	 x13:0x00000000  x2=0xfffff8e6
       29265000	      2925	80003058	010000ef	jal	x1,80003058	  x1=0x80003058
       29275000	      2926	00000000	00000013	addi	x0,x0,0	  x0:0x00000000
       29285000	      2927	80003064	00000013	addi	x0,x0,0	  x0:0x00000000
       29295000	      2928	80003068	ff9ff0ef	jal	x1,80003068	  x1=0x80003068
       29305000	      2929	00000000	00000013	addi	x0,x0,0	  x0:0x00000000
       29315000	      2930	8000305c	00000013	addi	x0,x0,0	  x0:0x00000000
       29325000	      2931	80003060	03c0036f	jal	x6,80003060	  x6=0x80003060
       29335000	      2932	00000000	00000013	addi	x0,x0,0	  x0:0x00000000
       29345000	      2933	80003098	00000013	addi	x0,x0,0	  x0:0x00000000
       29355000	      2934	8000309c	fddff86f	jal	x16,8000309c	 x16=0x8000309c
       29365000	      2935	00000000	00000013	addi	x0,x0,0	  x0:0x00000000
       29375000	      2936	80003074	00000013	addi	x0,x0,0	  x0:0x00000000
       29385000	      2937	80003078	010000ef	jal	x1,80003078	  x1=0x80003078
       29395000	      2938	00000000	00000013	addi	x0,x0,0	  x0:0x00000000
       29405000	      2939	80003084	00000013	addi	x0,x0,0	  x0:0x00000000
       29415000	      2940	80003088	ffdff0ef	jal	x1,80003088	  x1=0x80003088
       29425000	      2941	00000000	00000013	addi	x0,x0,0	  x0:0x00000000
       29435000	      2942	80003080	00000013	addi	x0,x0,0	  x0:0x00000000
       29445000	      2943	80003084	fe9ff0ef	jal	x1,80003084	  x1=0x80003084
       29455000	      2944	00000000	00000013	addi	x0,x0,0	  x0:0x00000000
       29465000	      2945	80003068	00000013	addi	x0,x0,0	  x0:0x00000000
       29475000	      2946	8000306c	024000ef	jal	x1,8000306c	  x1=0x8000306c
       29485000	      2947	00000000	00000013	addi	x0,x0,0	  x0:0x00000000
       29495000	      2948	8000308c	00000013	addi	x0,x0,0	  x0:0x00000000
       29505000	      2949	80003090	fd5ff1ef	jal	x3,80003090	  x3=0x80003090
       29515000	      2950	00000000	00000013	addi	x0,x0,0	  x0:0x00000000
       29525000	      2951	80003060	00000013	addi	x0,x0,0	  x0:0x00000000
       29535000	      2952	80003064	028000ef	jal	x1,80003064	  x1=0x80003064
       29545000	      2953	00000000	00000013	addi	x0,x0,0	  x0:0x00000000
       29555000	      2954	80003088	00000013	addi	x0,x0,0	  x0:0x00000000
       29565000	      2955	8000308c	fd1ff0ef	jal	x1,8000308c	  x1=0x8000308c
       29575000	      2956	00000000	00000013	addi	x0,x0,0	  x0:0x00000000
       29585000	      2957	80003058	00000013	addi	x0,x0,0	  x0:0x00000000
       29595000	      2958	8000305c	0180016f	jal	x2,8000305c	  x2=0x8000305c
       29605000	      2959	00000000	00000013	addi	x0,x0,0	  x0:0x00000000
       29615000	      2960	80003070	00000013	addi	x0,x0,0	  x0:0x00000000
       29625000	      2961	80003074	00c000ef	jal	x1,80003074	  x1=0x80003074
       29635000	      2962	00000000	00000013	addi	x0,x0,0	  x0:0x00000000
       29645000	      2963	8000307c	00000013	addi	x0,x0,0	  x0:0x00000000
       29655000	      2964	80003080	0200036f	jal	x6,80003080	  x6=0x80003080
       29665000	      2965	00000000	00000013	addi	x0,x0,0	  x0:0x00000000
       29675000	      2966	8000309c	00000013	addi	x0,x0,0	  x0:0x00000000
       29685000	      2967	800030a0	fddff36f	jal	x6,800030a0	  x6=0x800030a0
       29695000	      2968	00000000	00000013	addi	x0,x0,0	  x0:0x00000000
       29705000	      2969	80003078	00000013	addi	x0,x0,0	  x0:0x00000000
       29715000	      2970	8000307c	01c00eef	jal	x29,8000307c	 x29=0x8000307c
       29725000	      2971	00000000	00000013	addi	x0,x0,0	  x0:0x00000000
       29735000	      2972	80003094	00000013	addi	x0,x0,0	  x0:0x00000000
       29745000	      2973	80003098	fd9ff36f	jal	x6,80003098	  x6=0x80003098
       29755000	      2974	00000000	00000013	addi	x0,x0,0	  x0:0x00000000
       29765000	      2975	8000306c	00000013	addi	x0,x0,0	  x0:0x00000000
       29775000	      2976	80003070	024000ef	jal	x1,80003070	  x1=0x80003070
       29785000	      2977	00000000	00000013	addi	x0,x0,0	  x0:0x00000000
       29795000	      2978	80003090	00000013	addi	x0,x0,0	  x0:0x00000000
       29805000	      2979	80003094	010000ef	jal	x1,80003094	  x1=0x80003094
       29815000	      2980	00000000	00000013	addi	x0,x0,0	  x0:0x00000000
       29825000	      2981	800030a0	00000013	addi	x0,x0,0	  x0:0x00000000
       29835000	      2982	800030a4	00c55913	srli	x18,x10,0xc	 x10:0x00000001 x18=0x00000000
       29845000	      2983	800030a8	014000ef	jal	x1,800030a8	  x1=0x800030a8
       29855000	      2984	00000000	00000013	addi	x0,x0,0	  x0:0x00000000
       29865000	      2985	800030b8	00000013	addi	x0,x0,0	  x0:0x00000000
       29875000	      2986	800030bc	ff5ff0ef	jal	x1,800030bc	  x1=0x800030bc
       29885000	      2987	00000000	00000013	addi	x0,x0,0	  x0:0x00000000
       29895000	      2988	800030ac	00000013	addi	x0,x0,0	  x0:0x00000000
       29905000	      2989	800030b0	010000ef	jal	x1,800030b0	  x1=0x800030b0
       29915000	      2990	00000000	00000013	addi	x0,x0,0	  x0:0x00000000
       29925000	      2991	800030bc	00000013	addi	x0,x0,0	  x0:0x00000000
       29935000	      2992	800030c0	0180046f	jal	x8,800030c0	  x8=0x800030c0
       29945000	      2993	00000000	00000013	addi	x0,x0,0	  x0:0x00000000
       29955000	      2994	800030d4	00000013	addi	x0,x0,0	  x0:0x00000000
       29965000	      2995	800030d8	018000ef	jal	x1,800030d8	  x1=0x800030d8
       29975000	      2996	00000000	00000013	addi	x0,x0,0	  x0:0x00000000
       29985000	      2997	800030ec	00000013	addi	x0,x0,0	  x0:0x00000000
       29995000	      2998	800030f0	fc5ff0ef	jal	x1,800030f0	  x1=0x800030f0
       30005000	      2999	00000000	00000013	addi	x0,x0,0	  x0:0x00000000
       30015000	      3000	800030b0	00000013	addi	x0,x0,0	  x0:0x00000000
       30025000	      3001	800030b4	01400def	jal	x27,800030b4	 x27=0x800030b4
       30035000	      3002	00000000	00000013	addi	x0,x0,0	  x0:0x00000000
       30045000	      3003	800030c4	00000013	addi	x0,x0,0	  x0:0x00000000
       30055000	      3004	800030c8	0300036f	jal	x6,800030c8	  x6=0x800030c8
       30065000	      3005	00000000	00000013	addi	x0,x0,0	  x0:0x00000000
       30075000	      3006	800030f4	00000013	addi	x0,x0,0	  x0:0x00000000
       30085000	      3007	800030f8	fcdff2ef	jal	x5,800030f8	  x5=0x800030f8
       30095000	      3008	00000000	00000013	addi	x0,x0,0	  x0:0x00000000
       30105000	      3009	800030c0	00000013	addi	x0,x0,0	  x0:0x00000000
       30115000	      3010	800030c4	03800def	jal	x27,800030c4	 x27=0x800030c4
       30125000	      3011	00000000	00000013	addi	x0,x0,0	  x0:0x00000000
       30135000	      3012	800030f8	00000013	addi	x0,x0,0	  x0:0x00000000
       30145000	      3013	800030fc	00800eef	jal	x29,800030fc	 x29=0x800030fc
       30155000	      3014	00000000	00000013	addi	x0,x0,0	  x0:0x00000000
       30165000	      3015	80003100	00000013	addi	x0,x0,0	  x0:0x00000000
       30175000	      3016	80003104	ffdff0ef	jal	x1,80003104	  x1=0x80003104
       30185000	      3017	00000000	00000013	addi	x0,x0,0	  x0:0x00000000
       30195000	      3018	800030fc	00000013	addi	x0,x0,0	  x0:0x00000000
       30205000	      3019	80003100	fedff36f	jal	x6,80003100	  x6=0x80003100
       30215000	      3020	00000000	00000013	addi	x0,x0,0	  x0:0x00000000
       30225000	      3021	800030e8	00000013	addi	x0,x0,0	  x0:0x00000000
       30235000	      3022	800030ec	ff9ff0ef	jal	x1,800030ec	  x1=0x800030ec
       30245000	      3023	00000000	00000013	addi	x0,x0,0	  x0:0x00000000
       30255000	      3024	800030e0	00000013	addi	x0,x0,0	  x0:0x00000000
       30265000	      3025	800030e4	0100036f	jal	x6,800030e4	  x6=0x800030e4
       30275000	      3026	00000000	00000013	addi	x0,x0,0	  x0:0x00000000
       30285000	      3027	800030f0	00000013	addi	x0,x0,0	  x0:0x00000000
       30295000	      3028	800030f4	fddff0ef	jal	x1,800030f4	  x1=0x800030f4
       30305000	      3029	00000000	00000013	addi	x0,x0,0	  x0:0x00000000
       30315000	      3030	800030cc	00000013	addi	x0,x0,0	  x0:0x00000000
       30325000	      3031	800030d0	00c008ef	jal	x17,800030d0	 x17=0x800030d0
       30335000	      3032	00000000	00000013	addi	x0,x0,0	  x0:0x00000000
       30345000	      3033	800030d8	00000013	addi	x0,x0,0	  x0:0x00000000
       30355000	      3034	800030dc	004000ef	jal	x1,800030dc	  x1=0x800030dc
       30365000	      3035	00000000	00000013	addi	x0,x0,0	  x0:0x00000000
       30375000	      3036	800030dc	00000013	addi	x0,x0,0	  x0:0x00000000
       30385000	      3037	800030e0	00800cef	jal	x25,800030e0	 x25=0x800030e0
       30395000	      3038	00000000	00000013	addi	x0,x0,0	  x0:0x00000000
       30405000	      3039	800030e4	00000013	addi	x0,x0,0	  x0:0x00000000
       30415000	      3040	800030e8	fe5ff0ef	jal	x1,800030e8	  x1=0x800030e8
       30425000	      3041	00000000	00000013	addi	x0,x0,0	  x0:0x00000000
       30435000	      3042	800030c8	00000013	addi	x0,x0,0	  x0:0x00000000
       30445000	      3043	800030cc	fedff0ef	jal	x1,800030cc	  x1=0x800030cc
       30455000	      3044	00000000	00000013	addi	x0,x0,0	  x0:0x00000000
       30465000	      3045	800030b4	00000013	addi	x0,x0,0	  x0:0x00000000
       30475000	      3046	800030b8	0500036f	jal	x6,800030b8	  x6=0x800030b8
       30485000	      3047	00000000	00000013	addi	x0,x0,0	  x0:0x00000000
       30495000	      3048	80003104	00000013	addi	x0,x0,0	  x0:0x00000000
       30505000	      3049	80003108	fa5ffe6f	jal	x28,80003108	 x28=0x80003108
       30515000	      3050	00000000	00000013	addi	x0,x0,0	  x0:0x00000000
       30525000	      3051	800030a8	00000013	addi	x0,x0,0	  x0:0x00000000
       30535000	      3052	800030ac	0280016f	jal	x2,800030ac	  x2=0x800030ac
       30545000	      3053	00000000	00000013	addi	x0,x0,0	  x0:0x00000000
       30555000	      3054	800030d0	00000013	addi	x0,x0,0	  x0:0x00000000
       30565000	      3055	800030d4	038000ef	jal	x1,800030d4	  x1=0x800030d4
       30575000	      3056	00000000	00000013	addi	x0,x0,0	  x0:0x00000000
       30585000	      3057	80003108	00000013	addi	x0,x0,0	  x0:0x00000000
       30595000	      3058	8000310c	0080c7b3	xor	x15,x1,x8	  x1:0x800030d4  x8:0x800030c0 x15=0x00000014
       30605000	      3059	80003110	00a50133	add	x2,x10,x10	 x10:0x00000001 x10:0x00000001  x2=0x00000002
       30615000	      3060	80003114	ffc28913	addi	x18,x5,-4	  x5:0x800030f8 x18=0x800030f4
       30625000	      3061	80003118	00554ab3	xor	x21,x10,x5	 x10:0x00000001  x5:0x800030f8 x21=0x800030f9
       30635000	      3062	8000311c	01528e63	beq	x5,x21,80003138	  x5:0x800030f8 x21:0x800030f9
       30645000	      3063	80003120	04b27663	bgeu	x4,x11,8000316c	  x4:0x80002f30 x11:0xbff80000
       30655000	      3064	80003124	651d2c17	auipc	x24,0x651d2	 x24=0xe51d5120
       30665000	      3065	80003128	2885d837	lui	x16,0x2885d	 x16=0x2885d000
       30675000	      3066	8000312c	01061d93	slli	x27,x12,0x10	 x12:0x00000000 x27=0x00000000
       30685000	      3067	80003130	2af78093	addi	x1,x15,687	 x15:0x00000014  x1=0x000002c3
       30695000	      3068	80003134	0018b4b3	sltu	x9,x17,x1	 x17:0x800030d0  x1:0x000002c3  x9=0x00000000
       30705000	      3069	80003138	01b3d9b3	srl	x19,x7,x27	  x7:0xbb001600 x27:0x00000000 x19=0xbb001600
       30715000	      3070	8000313c	902d6997	auipc	x19,0x902d6	 x19=0x102d9138
       30725000	      3071	80003140	01bc0fb3	add	x31,x24,x27	 x24:0xe51d5120 x27:0x00000000 x31=0xe51d5120
       30735000	      3072	80003144	41e60eb3	sub	x29,x12,x30	 x12:0x00000000 x30:0x80009fc4 x29=0x7fff603c
       30745000	      3073	80003148	03905463	bge	x0,x25,80003170	  x0:0x00000000 x25:0x800030e0
       30755000	      3074	00000000	00000013	addi	x0,x0,0	  x0:0x00000000
       30765000	      3075	8000316c	00000013	addi	x0,x0,0	  x0:0x00000000
       30775000	      3076	80003170	013e6db3	or	x27,x28,x19	 x28:0x80003108 x19:0x102d9138 x27=0x902db138
       30785000	      3077	80003174	d8b0b513	sltiu	x10,x1,-629	  x1:0x000002c3 x10=0x00000001
       30795000	      3078	80003178	00d6fd33	and	x26,x13,x13	 x13:0x00000000 x13:0x00000000 x26=0x00000000
       30805000	      3079	8000317c	da6cfb13	andi	x22,x25,-602	 x25:0x800030e0 x22=0x800030a0
       30815000	      3080	80003180	01c07d33	and	x26,x0,x28	  x0:0x00000000 x28:0x80003108 x26=0x00000000
       30825000	      3081	80003184	97b00993	addi	x19,x0,-1669	  x0:0x00000000 x19=0xfffff97b
       30835000	      3082	80003188	0287cc63	blt	x15,x8,800031c0	 x15:0x00000014  x8:0x800030c0
       30845000	      3083	8000318c	4ec8e213	ori	x4,x17,1260	 x17:0x800030d0  x4=0x800034fc
       30855000	      3084	80003190	e1912437	lui	x8,0xe1912	  x8=0xe1912000
       30865000	      3085	80003194	0119b433	sltu	x8,x19,x17	 x19:0xfffff97b x17:0x800030d0  x8=0x00000000
       30875000	      3086	80003198	01fbb6b3	sltu	x13,x23,x31	 x23:0x00001400 x31:0xe51d5120 x13=0x00000001
       30885000	      3087	8000319c	00669013	slli	x0,x13,0x6	 x13:0x00000001
       30895000	      3088	800031a0	01617463	bgeu	x2,x22,800031a8	  x2:0x00000002 x22:0x800030a0
       30905000	      3089	800031a4	2a2d6413	ori	x8,x26,674	 x26:0x00000000  x8=0x000002a2
       30915000	      3090	800031a8	01fae463	bltu	x21,x31,800031b0	 x21:0x800030f9 x31:0xe51d5120
       30925000	      3091	00000000	00000013	addi	x0,x0,0	  x0:0x00000000
       30935000	      3092	800031ac	00000013	addi	x0,x0,0	  x0:0x00000000
       30945000	      3093	800031b0	015aedb3	or	x27,x21,x21	 x21:0x800030f9 x21:0x800030f9 x27=0x800030f9
       30955000	      3094	800031b4	f0b97b93	andi	x23,x18,-245	 x18:0x800030f4 x23=0x80003000
       30965000	      3095	800031b8	02e4c863	blt	x9,x14,800031e8	  x9:0x00000000 x14:0x80002fdc
       30975000	      3096	800031bc	41b80033	sub	x0,x16,x27	 x16:0x2885d000 x27:0x800030f9
       30985000	      3097	800031c0	01841913	slli	x18,x8,0x18	  x8:0x000002a2 x18=0xa2000000
       30995000	      3098	800031c4	037f9c63	bne	x31,x23,800031fc	 x31:0xe51d5120 x23:0x80003000
       31005000	      3099	00000000	00000013	addi	x0,x0,0	  x0:0x00000000
       31015000	      3100	800031f8	00000013	addi	x0,x0,0	  x0:0x00000000
       31025000	      3101	800031fc	00c49c33	sll	x24,x9,x12	  x9:0x00000000 x12:0x00000000 x24=0x00000000
       31035000	      3102	80003200	9ce8fd13	andi	x26,x17,-1586	 x17:0x800030d0 x26=0x800030c0
       31045000	      3103	80003204	7bee8c93	addi	x25,x29,1982	 x29:0x7fff603c x25=0x7fff67fa
       31055000	      3104	80003208	002418b3	sll	x17,x8,x2	  x8:0x000002a2  x2:0x00000002 x17=0x00000a88
       31065000	      3105	8000320c	54600713	addi	x14,x0,1350	  x0:0x00000000 x14=0x00000546
       31075000	      3106	80003210	27d54893	xori	x17,x10,637	 x10:0x00000001 x17=0x0000027c
       31085000	      3107	80003214	015b8333	add	x6,x23,x21	 x23:0x80003000 x21:0x800030f9  x6=0x000060f9
       31095000	      3108	80003218	00ca6fb3	or	x31,x20,x12	 x20:0x80009f2c x12:0x00000000 x31=0x80009f2c
       31105000	      3109	8000321c	0091ec63	bltu	x3,x9,80003234	  x3:0x80003090  x9:0x00000000
       31115000	      3110	80003220	408cd593	srai	x11,x25,0x8	 x25:0x7fff67fa x11=0x007fff67
       31125000	      3111	80003224	06da4d13	xori	x26,x20,109	 x20:0x80009f2c x26=0x80009f41
       31135000	      3112	80003228	05c79463	bne	x15,x28,80003270	 x15:0x00000014 x28:0x80003108
       31145000	      3113	00000000	00000013	addi	x0,x0,0	  x0:0x00000000
       31155000	      3114	8000326c	00000013	addi	x0,x0,0	  x0:0x00000000
       31165000	      3115	80003270	41cf0ab3	sub	x21,x30,x28	 x30:0x80009fc4 x28:0x80003108 x21=0x00006ebc
       31175000	      3116	80003274	01391413	slli	x8,x18,0x13	 x18:0xa2000000  x8=0x00000000
       31185000	      3117	80003278	42e7ec13	ori	x24,x15,1070	 x15:0x00000014 x24=0x0000043e
       31195000	      3118	8000327c	01d1ed33	or	x26,x3,x29	  x3:0x80003090 x29:0x7fff603c x26=0xffff70bc
       31205000	      3119	80003280	84838e93	addi	x29,x7,-1976	  x7:0xbb001600 x29=0xbb000e48
       31215000	      3120	80003284	046a1063	bne	x20,x6,800032c4	 x20:0x80009f2c  x6:0x000060f9
       31225000	      3121	00000000	00000013	addi	x0,x0,0	  x0:0x00000000
       31235000	      3122	800032c0	00000013	addi	x0,x0,0	  x0:0x00000000
       31245000	      3123	800032c4	cd79c413	xori	x8,x19,-809	 x19:0xfffff97b  x8=0x000005ac
       31255000	      3124	800032c8	d8a60113	addi	x2,x12,-630	 x12:0x00000000  x2=0xfffffd8a
       31265000	      3125	800032cc	050ec413	xori	x8,x29,80	 x29:0xbb000e48  x8=0xbb000e18
       31275000	      3126	800032d0	08fe6e13	ori	x28,x28,143	 x28:0x80003108 x28=0x8000318f
       31285000	      3127	800032d4	0083e4b3	or	x9,x7,x8	  x7:0xbb001600  x8:0xbb000e18  x9=0xbb001e18
       31295000	      3128	800032d8	05ca8463	beq	x21,x28,80003320	 x21:0x00006ebc x28:0x8000318f
       31305000	      3129	800032dc	41a2ddb3	sra	x27,x5,x26	  x5:0x800030f8 x26:0xffff70bc x27=0xfffffff8
       31315000	      3130	800032e0	4267be13	sltiu	x28,x15,1062	 x15:0x00000014 x28=0x00000001
       31325000	      3131	800032e4	4122d1b3	sra	x3,x5,x18	  x5:0x800030f8 x18:0xa2000000  x3=0x800030f8
       31335000	      3132	800032e8	00000013	addi	x0,x0,0	  x0:0x00000000
       31345000	      3133	800032ec	0010c463	blt	x1,x1,800032f4	  x1:0x000002c3  x1:0x000002c3
       31355000	      3134	800032f0	0050fbb3	and	x23,x1,x5	  x1:0x000002c3  x5:0x800030f8 x23=0x000000c0
       31365000	      3135	800032f4	00000013	addi	x0,x0,0	  x0:0x00000000
       31375000	      3136	800032f8	23d48713	addi	x14,x9,573	  x9:0xbb001e18 x14=0xbb002055
       31385000	      3137	800032fc	12da7c37	lui	x24,0x12da7	 x24=0x12da7000
       31395000	      3138	80003300	01f21b93	slli	x23,x4,0x1f	  x4:0x800034fc x23=0x00000000
       31405000	      3139	80003304	01006c33	or	x24,x0,x16	  x0:0x00000000 x16:0x2885d000 x24=0x2885d000
       31415000	      3140	80003308	009ef0b3	and	x1,x29,x9	 x29:0xbb000e48  x9:0xbb001e18  x1=0xbb000e08
       31425000	      3141	8000330c	56c82a93	slti	x21,x16,1388	 x16:0x2885d000 x21=0x00000000
       31435000	      3142	80003310	0084c463	blt	x9,x8,80003318	  x9:0xbb001e18  x8:0xbb000e18
       31445000	      3143	80003314	01059a93	slli	x21,x11,0x10	 x11:0x007fff67 x21=0xff670000
       31455000	      3144	80003318	05ac8063	beq	x25,x26,80003358	 x25:0x7fff67fa x26:0xffff70bc
       31465000	      3145	8000331c	00acc463	blt	x25,x10,80003324	 x25:0x7fff67fa x10:0x00000001
       31475000	      3146	80003320	3cdd4b93	xori	x23,x26,973	 x26:0xffff70bc x23=0xffff7371
       31485000	      3147	80003324	00c6c6b3	xor	x13,x13,x12	 x13:0x00000001 x12:0x00000000 x13=0x00000001
       31495000	      3148	80003328	c471f513	andi	x10,x3,-953	  x3:0x800030f8 x10=0x80003040
       31505000	      3149	8000332c	0134c533	xor	x10,x9,x19	  x9:0xbb001e18 x19:0xfffff97b x10=0x44ffe763
       31515000	      3150	80003330	007a3cb3	sltu	x25,x20,x7	 x20:0x80009f2c  x7:0xbb001600 x25=0x00000001
       31525000	      3151	80003334	00fe6fb3	or	x31,x28,x15	 x28:0x00000001 x15:0x00000014 x31=0x00000015
       31535000	      3152	80003338	f7f2cb17	auipc	x22,0xf7f2c	 x22=0x77f2f334
       31545000	      3153	8000333c	01d7c263	blt	x15,x29,80003340	 x15:0x00000014 x29:0xbb000e48
       31555000	      3154	80003340	01bef263	bgeu	x29,x27,80003344	 x29:0xbb000e48 x27:0xfffffff8
       31565000	      3155	80003344	06767b13	andi	x22,x12,103	 x12:0x00000000 x22=0x00000000
       31575000	      3156	80003348	00000013	addi	x0,x0,0	  x0:0x00000000
       31585000	      3157	8000334c	00a48813	addi	x16,x9,10	  x9:0xbb001e18 x16=0xbb001e22
       31595000	      3158	80003350	00567263	bgeu	x12,x5,80003354	 x12:0x00000000  x5:0x800030f8
       31605000	      3159	80003354	03491263	bne	x18,x20,80003378	 x18:0xa2000000 x20:0x80009f2c
       31615000	      3160	00000000	00000013	addi	x0,x0,0	  x0:0x00000000
       31625000	      3161	80003374	00000013	addi	x0,x0,0	  x0:0x00000000
       31635000	      3162	80003378	014ad9b3	srl	x19,x21,x20	 x21:0xff670000 x20:0x80009f2c x19=0x000ff670
       31645000	      3163	8000337c	00d371b3	and	x3,x6,x13	  x6:0x000060f9 x13:0x00000001  x3=0x00000001
       31655000	      3164	80003380	41480433	sub	x8,x16,x20	 x16:0xbb001e22 x20:0x80009f2c  x8=0x3aff7ef6
       31665000	      3165	80003384	404381b3	sub	x3,x7,x4	  x7:0xbb001600  x4:0x800034fc  x3=0x3affe104
       31675000	      3166	80003388	0050cab3	xor	x21,x1,x5	  x1:0xbb000e08  x5:0x800030f8 x21=0x3b003ef0
       31685000	      3167	8000338c	01627fb3	and	x31,x4,x22	  x4:0x800034fc x22:0x00000000 x31=0x00000000
       31695000	      3168	80003390	6a3d2713	slti	x14,x26,1699	 x26:0xffff70bc x14=0x00000001
       31705000	      3169	80003394	01281263	bne	x16,x18,80003398	 x16:0xbb001e22 x18:0xa2000000
       31715000	      3170	00000000	00000013	addi	x0,x0,0	  x0:0x00000000
       31725000	      3171	80003394	00000013	addi	x0,x0,0	  x0:0x00000000
       31735000	      3172	80003398	d4a95997	auipc	x19,0xd4a95	 x19=0x54a98394
       31745000	      3173	8000339c	75afc713	xori	x14,x31,1882	 x31:0x00000000 x14=0x0000075a
       31755000	      3174	800033a0	00da4db3	xor	x27,x20,x13	 x20:0x80009f2c x13:0x00000001 x27=0x80009f2d
       31765000	      3175	800033a4	0085f333	and	x6,x11,x8	 x11:0x007fff67  x8:0x3aff7ef6  x6=0x007f7e66
       31775000	      3176	800033a8	01395793	srli	x15,x18,0x13	 x18:0xa2000000 x15=0x00001440
       31785000	      3177	800033ac	96999317	auipc	x6,0x96999	  x6=0x1699c3a8
       31795000	      3178	800033b0	e6a3c7b7	lui	x15,0xe6a3c	 x15=0xe6a3c000
       31805000	      3179	800033b4	00476db3	or	x27,x14,x4	 x14:0x0000075a  x4:0x800034fc x27=0x800037fe
       31815000	      3180	800033b8	01d605b3	add	x11,x12,x29	 x12:0x00000000 x29:0xbb000e48 x11=0xbb000e48
       31825000	      3181	800033bc	88433737	lui	x14,0x88433	 x14=0x88433000
       31835000	      3182	800033c0	00000013	addi	x0,x0,0	  x0:0x00000000
       31845000	      3183	800033c4	75e57f93	andi	x31,x10,1886	 x10:0x44ffe763 x31=0x00000742
       31855000	      3184	800033c8	24b26e93	ori	x29,x4,587	  x4:0x800034fc x29=0x800036ff
       31865000	      3185	800033cc	37078713	addi	x14,x15,880	 x15:0xe6a3c000 x14=0xe6a3c370
       31875000	      3186	800033d0	ca258093	addi	x1,x11,-862	 x11:0xbb000e48  x1=0xbb000aea
       31885000	      3187	800033d4	014f3733	sltu	x14,x30,x20	 x30:0x80009fc4 x20:0x80009f2c x14=0x00000000
       31895000	      3188	800033d8	01e48333	add	x6,x9,x30	  x9:0xbb001e18 x30:0x80009fc4  x6=0x3b00bddc
       31905000	      3189	800033dc	028ada63	bge	x21,x8,80003410	 x21:0x3b003ef0  x8:0x3aff7ef6
       31915000	      3190	00000000	00000013	addi	x0,x0,0	  x0:0x00000000
       31925000	      3191	8000340c	00000013	addi	x0,x0,0	  x0:0x00000000
       31935000	      3192	80003410	106068b7	lui	x17,0x10606	 x17=0x10606000
       31945000	      3193	80003414	41fe02b3	sub	x5,x28,x31	 x28:0x00000001 x31:0x00000742  x5=0xfffff8bf
       31955000	      3194	80003418	b9fee013	ori	x0,x29,-1121	 x29:0x800036ff
       31965000	      3195	8000341c	00664a63	blt	x12,x6,80003430	 x12:0x00000000  x6:0x3b00bddc
       31975000	      3196	00000000	00000013	addi	x0,x0,0	  x0:0x00000000
       31985000	      3197	8000342c	00000013	addi	x0,x0,0	  x0:0x00000000
       31995000	      3198	80003430	2069e093	ori	x1,x19,518	 x19:0x54a98394  x1=0x54a98396
       32005000	      3199	80003434	00e48233	add	x4,x9,x14	  x9:0xbb001e18 x14:0x00000000  x4=0xbb001e18
       32015000	      3200	80003438	009645b3	xor	x11,x12,x9	 x12:0x00000000  x9:0xbb001e18 x11=0xbb001e18
       32025000	      3201	8000343c	0167f433	and	x8,x15,x22	 x15:0xe6a3c000 x22:0x00000000  x8=0x00000000
       32035000	      3202	80003440	01465513	srli	x10,x12,0x14	 x12:0x00000000 x10=0x00000000
       32045000	      3203	80003444	892dad97	auipc	x27,0x892da	 x27=0x092dd440
       32055000	      3204	80003448	820d8193	addi	x3,x27,-2016	 x27:0x092dd440  x3=0x092dcc60
       32065000	      3205	8000344c	00e5dcb3	srl	x25,x11,x14	 x11:0xbb001e18 x14:0x00000000 x25=0xbb001e18
       32075000	      3206	80003450	006eda63	bge	x29,x6,80003464	 x29:0x800036ff  x6:0x3b00bddc
       32085000	      3207	80003454	0127e263	bltu	x15,x18,80003458	 x15:0xe6a3c000 x18:0xa2000000
       32095000	      3208	80003458	004895b3	sll	x11,x17,x4	 x17:0x10606000  x4:0xbb001e18 x11=0x00000000
       32105000	      3209	8000345c	c683c593	xori	x11,x7,-920	  x7:0xbb001600 x11=0x44ffea68
       32115000	      3210	80003460	40c05033	sra	x0,x0,x12	  x0:0x00000000 x12:0x00000000
       32125000	      3211	80003464	036f8463	beq	x31,x22,8000348c	 x31:0x00000742 x22:0x00000000
       32135000	      3212	80003468	017c1f93	slli	x31,x24,0x17	 x24:0x2885d000 x31=0x00000000
       32145000	      3213	8000346c	40768fb3	sub	x31,x13,x7	 x13:0x00000001  x7:0xbb001600 x31=0x44ffea01
       32155000	      3214	80003470	0080b533	sltu	x10,x1,x8	  x1:0x54a98396  x8:0x00000000 x10=0x00000000
       32165000	      3215	80003474	01c7b0b3	sltu	x1,x15,x28	 x15:0xe6a3c000 x28:0x00000001  x1=0x00000000
       32175000	      3216	80003478	00240a63	beq	x8,x2,8000348c	  x8:0x00000000  x2:0xfffffd8a
       32185000	      3217	8000347c	41300d33	sub	x26,x0,x19	  x0:0x00000000 x19:0x54a98394 x26=0xab567c6c
       32195000	      3218	80003480	27386893	ori	x17,x16,627	 x16:0xbb001e22 x17=0xbb001e73
       32205000	      3219	80003484	01376463	bltu	x14,x19,8000348c	 x14:0x00000000 x19:0x54a98394
       32215000	      3220	00000000	00000013	addi	x0,x0,0	  x0:0x00000000
       32225000	      3221	80003488	00000013	addi	x0,x0,0	  x0:0x00000000
       32235000	      3222	8000348c	0043fdb3	and	x27,x7,x4	  x7:0xbb001600  x4:0xbb001e18 x27=0xbb001600
       32245000	      3223	80003490	c0e67113	andi	x2,x12,-1010	 x12:0x00000000  x2=0x00000000
       32255000	      3224	80003494	01e988b3	add	x17,x19,x30	 x19:0x54a98394 x30:0x80009fc4 x17=0xd4aa2358
       32265000	      3225	80003498	b5ace313	ori	x6,x25,-1190	 x25:0xbb001e18  x6=0xffffff5a
       32275000	      3226	8000349c	004a2083	lw	x1,4(x20)	 x20:0x80009f2c  x1=0x80001664 PA:0x80009f30
       32285000	      3227	800034a0	01ff2433	slt	x8,x30,x31	 x30:0x80009fc4 x31:0x44ffea01  x8=0x00000001
       32295000	      3228	800034a4	66aac117	auipc	x2,0x66aac	  x2=0xe6aaf4a0
       32305000	      3229	800034a8	030a0a13	addi	x20,x20,48	 x20:0x80009f2c x20=0x80009f5c
       32315000	      3230	800034ac	012c7533	and	x10,x24,x18	 x24:0x2885d000 x18:0xa2000000 x10=0x20000000
       32325000	      3231	800034b0	008dd913	srli	x18,x27,0x8	 x27:0xbb001600 x18=0x00bb0016
       32335000	      3232	800034b4	00008d93	addi	x27,x1,0	  x1:0x80001664 x27=0x80001664
       32345000	      3233	800034b8	000d8de7	jalr	x27,x27,0	 x27:0x80001664 x27=0x800034b8
       32355000	      3234	00000000	00000013	addi	x0,x0,0	  x0:0x00000000
       32365000	      3235	80001664	00000013	addi	x0,x0,0	  x0:0x00000000
       32375000	      3236	80001668	013dde63	bge	x27,x19,80001684	 x27:0x800034b8 x19:0x54a98394
       32385000	      3237	8000166c	004efa63	bgeu	x29,x4,80001680	 x29:0x800036ff  x4:0xbb001e18
       32395000	      3238	80001670	043fc463	blt	x31,x3,800016b8	 x31:0x44ffea01  x3:0x092dcc60
       32405000	      3239	80001674	d596b493	sltiu	x9,x13,-679	 x13:0x00000001  x9=0x00000001
       32415000	      3240	80001678	007a7463	bgeu	x20,x7,80001680	 x20:0x80009f5c  x7:0xbb001600
       32425000	      3241	8000167c	011d5663	bge	x26,x17,80001688	 x26:0xab567c6c x17:0xd4aa2358
       32435000	      3242	80001680	011f77b3	and	x15,x30,x17	 x30:0x80009fc4 x17:0xd4aa2358 x15=0x80000340
       32445000	      3243	80001684	000f4933	xor	x18,x30,x0	 x30:0x80009fc4  x0:0x00000000 x18=0x80009fc4
       32455000	      3244	80001688	00195933	srl	x18,x18,x1	 x18:0x80009fc4  x1:0x80001664 x18=0x080009fc
       32465000	      3245	8000168c	036bd463	bge	x23,x22,800016b4	 x23:0xffff7371 x22:0x00000000
       32475000	      3246	80001690	6a877e13	andi	x28,x14,1704	 x14:0x00000000 x28=0x00000000
       32485000	      3247	80001694	00a439b3	sltu	x19,x8,x10	  x8:0x00000001 x10:0x20000000 x19=0x00000001
       32495000	      3248	80001698	7dc66813	ori	x16,x12,2012	 x12:0x00000000 x16=0x000007dc
       32505000	      3249	8000169c	01641263	bne	x8,x22,800016a0	  x8:0x00000001 x22:0x00000000
       32515000	      3250	00000000	00000013	addi	x0,x0,0	  x0:0x00000000
       32525000	      3251	8000169c	00000013	addi	x0,x0,0	  x0:0x00000000
       32535000	      3252	800016a0	017cd333	srl	x6,x25,x23	 x25:0xbb001e18 x23:0xffff7371  x6=0x00005d80
       32545000	      3253	800016a4	00000013	addi	x0,x0,0	  x0:0x00000000
       32555000	      3254	800016a8	00765d33	srl	x26,x12,x7	 x12:0x00000000  x7:0xbb001600 x26=0x00000000
       32565000	      3255	800016ac	0150d9b3	srl	x19,x1,x21	  x1:0x80001664 x21:0x3b003ef0 x19=0x00008000
       32575000	      3256	800016b0	041fc263	blt	x31,x1,800016f4	 x31:0x44ffea01  x1:0x80001664
       32585000	      3257	800016b4	0063bdb3	sltu	x27,x7,x6	  x7:0xbb001600  x6:0x00005d80 x27=0x00000000
       32595000	      3258	800016b8	31457d13	andi	x26,x10,788	 x10:0x20000000 x26=0x00000000
       32605000	      3259	800016bc	00000013	addi	x0,x0,0	  x0:0x00000000
       32615000	      3260	800016c0	0068ebb3	or	x23,x17,x6	 x17:0xd4aa2358  x6:0x00005d80 x23=0xd4aa7fd8
       32625000	      3261	800016c4	00c32233	slt	x4,x6,x12	  x6:0x00005d80 x12:0x00000000  x4=0x00000000
       32635000	      3262	800016c8	009da6b3	slt	x13,x27,x9	 x27:0x00000000  x9:0x00000001 x13=0x00000001
       32645000	      3263	800016cc	01f66733	or	x14,x12,x31	 x12:0x00000000 x31:0x44ffea01 x14=0x44ffea01
       32655000	      3264	800016d0	01417eb3	and	x29,x2,x20	  x2:0xe6aaf4a0 x20:0x80009f5c x29=0x80009400
       32665000	      3265	800016d4	00c1e263	bltu	x3,x12,800016d8	  x3:0x092dcc60 x12:0x00000000
       32675000	      3266	800016d8	0228f863	bgeu	x17,x2,80001708	 x17:0xd4aa2358  x2:0xe6aaf4a0
       32685000	      3267	800016dc	0105d733	srl	x14,x11,x16	 x11:0x44ffea68 x16:0x000007dc x14=0x00000004
       32695000	      3268	800016e0	c38e2293	slti	x5,x28,-968	 x28:0x00000000  x5=0x00000000
       32705000	      3269	800016e4	03b64e63	blt	x12,x27,80001720	 x12:0x00000000 x27:0x00000000
       32715000	      3270	800016e8	02896c63	bltu	x18,x8,80001720	 x18:0x080009fc  x8:0x00000001
       32725000	      3271	800016ec	03a12993	slti	x19,x2,58	  x2:0xe6aaf4a0 x19=0x00000001
       32735000	      3272	800016f0	00a13333	sltu	x6,x2,x10	  x2:0xe6aaf4a0 x10:0x20000000  x6=0x00000000
       32745000	      3273	800016f4	2fd46d13	ori	x26,x8,765	  x8:0x00000001 x26=0x000002fd
       32755000	      3274	800016f8	00156733	or	x14,x10,x1	 x10:0x20000000  x1:0x80001664 x14=0xa0001664
       32765000	      3275	800016fc	2bebb713	sltiu	x14,x23,702	 x23:0xd4aa7fd8 x14=0x00000000
       32775000	      3276	80001700	00cb52b3	srl	x5,x22,x12	 x22:0x00000000 x12:0x00000000  x5=0x00000000
       32785000	      3277	80001704	01b03db3	sltu	x27,x0,x27	  x0:0x00000000 x27:0x00000000 x27=0x00000000
       32795000	      3278	80001708	81ce8913	addi	x18,x29,-2020	 x29:0x80009400 x18=0x80008c1c
       32805000	      3279	8000170c	00000013	addi	x0,x0,0	  x0:0x00000000
       32815000	      3280	80001710	5b618793	addi	x15,x3,1462	  x3:0x092dcc60 x15=0x092dd216
       32825000	      3281	80001714	002f4e33	xor	x28,x30,x2	 x30:0x80009fc4  x2:0xe6aaf4a0 x28=0x66aa6b64
       32835000	      3282	80001718	418880b3	sub	x1,x17,x24	 x17:0xd4aa2358 x24:0x2885d000  x1=0xac245358
       32845000	      3283	8000171c	00c75863	bge	x14,x12,8000172c	 x14:0x00000000 x12:0x00000000
       32855000	      3284	00000000	00000013	addi	x0,x0,0	  x0:0x00000000
       32865000	      3285	80001728	00000013	addi	x0,x0,0	  x0:0x00000000
       32875000	      3286	8000172c	01bcd393	srli	x7,x25,0x1b	 x25:0xbb001e18  x7=0x00000017
       32885000	      3287	80001730	01c16113	ori	x2,x2,28	  x2:0xe6aaf4a0  x2=0xe6aaf4bc
       32895000	      3288	80001734	9798a3b7	lui	x7,0x9798a	  x7=0x9798a000
       32905000	      3289	80001738	4137d693	srai	x13,x15,0x13	 x15:0x092dd216 x13=0x00000125
       32915000	      3290	8000173c	01e00e33	add	x28,x0,x30	  x0:0x00000000 x30:0x80009fc4 x28=0x80009fc4
       32925000	      3291	80001740	d68e3e13	sltiu	x28,x28,-664	 x28:0x80009fc4 x28=0x00000001
       32935000	      3292	80001744	01357db3	and	x27,x10,x19	 x10:0x20000000 x19:0x00000001 x27=0x00000000
       32945000	      3293	80001748	01c49c33	sll	x24,x9,x28	  x9:0x00000001 x28:0x00000001 x24=0x00000002
       32955000	      3294	8000174c	00f53fb3	sltu	x31,x10,x15	 x10:0x20000000 x15:0x092dd216 x31=0x00000000
       32965000	      3295	80001750	0031c433	xor	x8,x3,x3	  x3:0x092dcc60  x3:0x092dcc60  x8=0x00000000
       32975000	      3296	80001754	01500233	add	x4,x0,x21	  x0:0x00000000 x21:0x3b003ef0  x4=0x3b003ef0
       32985000	      3297	80001758	00631413	slli	x8,x6,0x6	  x6:0x00000000  x8=0x00000000
       32995000	      3298	8000175c	002b1b93	slli	x23,x22,0x2	 x22:0x00000000 x23=0x00000000
       33005000	      3299	80001760	00000013	addi	x0,x0,0	  x0:0x00000000
       33015000	      3300	80001764	001f1c93	slli	x25,x30,0x1	 x30:0x80009fc4 x25=0x00013f88
       33025000	      3301	80001768	22106113	ori	x2,x0,545	  x0:0x00000000  x2=0x00000221
       33035000	      3302	8000176c	408e54b3	sra	x9,x28,x8	 x28:0x00000001  x8:0x00000000  x9=0x00000001
       33045000	      3303	80001770	012c1263	bne	x24,x18,80001774	 x24:0x00000002 x18:0x80008c1c
       33055000	      3304	00000000	00000013	addi	x0,x0,0	  x0:0x00000000
       33065000	      3305	80001770	00000013	addi	x0,x0,0	  x0:0x00000000
       33075000	      3306	80001774	00150e63	beq	x10,x1,80001790	 x10:0x20000000  x1:0xac245358
       33085000	      3307	80001778	36b97313	andi	x6,x18,875	 x18:0x80008c1c  x6=0x00000008
       33095000	      3308	8000177c	00f1e7b3	or	x15,x3,x15	  x3:0x092dcc60 x15:0x092dd216 x15=0x092dde76
       33105000	      3309	80001780	00e89993	slli	x19,x17,0xe	 x17:0xd4aa2358 x19=0x88d60000
       33115000	      3310	80001784	01be7233	and	x4,x28,x27	 x28:0x00000001 x27:0x00000000  x4=0x00000000
       33125000	      3311	80001788	ba4b2e37	lui	x28,0xba4b2	 x28=0xba4b2000
       33135000	      3312	8000178c	0163d313	srli	x6,x7,0x16	  x7:0x9798a000  x6=0x0000025e
       33145000	      3313	80001790	0d260063	beq	x12,x18,80001850	 x12:0x00000000 x18:0x80008c1c
       33155000	      3314	80001794	008c1493	slli	x9,x24,0x8	 x24:0x00000002  x9=0x00000200
       33165000	      3315	80001798	4156d193	srai	x3,x13,0x15	 x13:0x00000125  x3=0x00000000
       33175000	      3316	8000179c	01a85463	bge	x16,x26,800017a4	 x16:0x000007dc x26:0x000002fd
       33185000	      3317	00000000	00000013	addi	x0,x0,0	  x0:0x00000000
       33195000	      3318	800017a0	00000013	addi	x0,x0,0	  x0:0x00000000
       33205000	      3319	800017a4	a3f8fc13	andi	x24,x17,-1473	 x17:0xd4aa2358 x24=0xd4aa2218
       33215000	      3320	800017a8	00000013	addi	x0,x0,0	  x0:0x00000000
       33225000	      3321	800017ac	ac0de513	ori	x10,x27,-1344	 x27:0x00000000 x10=0xfffffac0
       33235000	      3322	800017b0	0aed8663	beq	x27,x14,8000185c	 x27:0x00000000 x14:0x00000000
       33245000	      3323	00000000	00000013	addi	x0,x0,0	  x0:0x00000000
       33255000	      3324	80001858	00000013	addi	x0,x0,0	  x0:0x00000000
       33265000	      3325	8000185c	326b3c13	sltiu	x24,x22,806	 x22:0x00000000 x24=0x00000001
       33275000	      3326	80001860	401ddd93	srai	x27,x27,0x1	 x27:0x00000000 x27=0x00000000
       33285000	      3327	80001864	03e57e63	bgeu	x10,x30,800018a0	 x10:0xfffffac0 x30:0x80009fc4
       33295000	      3328	00000000	00000013	addi	x0,x0,0	  x0:0x00000000
       33305000	      3329	8000189c	00000013	addi	x0,x0,0	  x0:0x00000000
       33315000	      3330	800018a0	1240c313	xori	x6,x1,292	  x1:0xac245358  x6=0xac24527c
       33325000	      3331	800018a4	41525cb3	sra	x25,x4,x21	  x4:0x00000000 x21:0x3b003ef0 x25=0x00000000
       33335000	      3332	800018a8	035a4e63	blt	x20,x21,800018e4	 x20:0x80009f5c x21:0x3b003ef0
       33345000	      3333	00000000	00000013	addi	x0,x0,0	  x0:0x00000000
       33355000	      3334	800018e0	00000013	addi	x0,x0,0	  x0:0x00000000
       33365000	      3335	800018e4	ed054ab7	lui	x21,0xed054	 x21=0xed054000
       33375000	      3336	800018e8	00699893	slli	x17,x19,0x6	 x19:0x88d60000 x17=0x35800000
       33385000	      3337	800018ec	00371e33	sll	x28,x14,x3	 x14:0x00000000  x3:0x00000000 x28=0x00000000
       33395000	      3338	800018f0	05146863	bltu	x8,x17,80001940	  x8:0x00000000 x17:0x35800000
       33405000	      3339	00000000	00000013	addi	x0,x0,0	  x0:0x00000000
       33415000	      3340	8000193c	00000013	addi	x0,x0,0	  x0:0x00000000
       33425000	      3341	80001940	00000013	addi	x0,x0,0	  x0:0x00000000
       33435000	      3342	80001944	d64d8e93	addi	x29,x27,-668	 x27:0x00000000 x29=0xfffffd64
       33445000	      3343	80001948	470e2db7	lui	x27,0x470e2	 x27=0x470e2000
       33455000	      3344	8000194c	04785263	bge	x16,x7,80001990	 x16:0x000007dc  x7:0x9798a000
       33465000	      3345	00000000	00000013	addi	x0,x0,0	  x0:0x00000000
       33475000	      3346	8000198c	00000013	addi	x0,x0,0	  x0:0x00000000
       33485000	      3347	80001990	a1d98093	addi	x1,x19,-1507	 x19:0x88d60000  x1=0x88d5fa1d
       33495000	      3348	80001994	403c0333	sub	x6,x24,x3	 x24:0x00000001  x3:0x00000000  x6=0x00000001
       33505000	      3349	80001998	01c0de93	srli	x29,x1,0x1c	  x1:0x88d5fa1d x29=0x00000008
       33515000	      3350	8000199c	00edd793	srli	x15,x27,0xe	 x27:0x470e2000 x15=0x00011c38
       33525000	      3351	800019a0	00a27e63	bgeu	x4,x10,800019bc	  x4:0x00000000 x10:0xfffffac0
       33535000	      3352	800019a4	002d5bb3	srl	x23,x26,x2	 x26:0x000002fd  x2:0x00000221 x23=0x0000017e
       33545000	      3353	800019a8	ec546393	ori	x7,x8,-315	  x8:0x00000000  x7=0xfffffec5
       33555000	      3354	800019ac	0068ed33	or	x26,x17,x6	 x17:0x35800000  x6:0x00000001 x26=0x35800001
       33565000	      3355	800019b0	bb192a93	slti	x21,x18,-1103	 x18:0x80008c1c x21=0x00000001
       33575000	      3356	800019b4	006958b3	srl	x17,x18,x6	 x18:0x80008c1c  x6:0x00000001 x17=0x4000460e
       33585000	      3357	800019b8	01554bb3	xor	x23,x10,x21	 x10:0xfffffac0 x21:0x00000001 x23=0xfffffac1
       33595000	      3358	800019bc	01ac11b3	sll	x3,x24,x26	 x24:0x00000001 x26:0x35800001  x3=0x00000002
       33605000	      3359	800019c0	410dd393	srai	x7,x27,0x10	 x27:0x470e2000  x7=0x0000470e
       33615000	      3360	800019c4	01de6263	bltu	x28,x29,800019c8	 x28:0x00000000 x29:0x00000008
       33625000	      3361	00000000	00000013	addi	x0,x0,0	  x0:0x00000000
       33635000	      3362	800019c4	00000013	addi	x0,x0,0	  x0:0x00000000
       33645000	      3363	800019c8	38ca7c93	andi	x25,x20,908	 x20:0x80009f5c x25=0x0000030c
       33655000	      3364	800019cc	0173d663	bge	x7,x23,800019d8	  x7:0x0000470e x23:0xfffffac1
       33665000	      3365	00000000	00000013	addi	x0,x0,0	  x0:0x00000000
       33675000	      3366	800019d4	00000013	addi	x0,x0,0	  x0:0x00000000
       33685000	      3367	800019d8	01a39093	slli	x1,x7,0x1a	  x7:0x0000470e  x1=0x38000000
       33695000	      3368	800019dc	dd840c37	lui	x24,0xdd840	 x24=0xdd840000
       33705000	      3369	800019e0	e1538337	lui	x6,0xe1538	  x6=0xe1538000
       33715000	      3370	800019e4	834fb717	auipc	x14,0x834fb	 x14=0x034fc9e0
       33725000	      3371	800019e8	01795793	srli	x15,x18,0x17	 x18:0x80008c1c x15=0x00000100
       33735000	      3372	800019ec	00000013	addi	x0,x0,0	  x0:0x00000000
       33745000	      3373	800019f0	a3c72b13	slti	x22,x14,-1476	 x14:0x034fc9e0 x22=0x00000000
       33755000	      3374	800019f4	00000013	addi	x0,x0,0	  x0:0x00000000
       33765000	      3375	800019f8	40665093	srai	x1,x12,0x6	 x12:0x00000000  x1=0x00000000
       33775000	      3376	800019fc	0264c063	blt	x9,x6,80001a1c	  x9:0x00000200  x6:0xe1538000
       33785000	      3377	80001a00	03a56c63	bltu	x10,x26,80001a38	 x10:0xfffffac0 x26:0x35800001
       33795000	      3378	80001a04	011c6333	or	x6,x24,x17	 x24:0xdd840000 x17:0x4000460e  x6=0xdd84460e
       33805000	      3379	80001a08	00f67e63	bgeu	x12,x15,80001a24	 x12:0x00000000 x15:0x00000100
       33815000	      3380	80001a0c	05a01063	bne	x0,x26,80001a4c	  x0:0x00000000 x26:0x35800001
       33825000	      3381	00000000	00000013	addi	x0,x0,0	  x0:0x00000000
       33835000	      3382	80001a48	00000013	addi	x0,x0,0	  x0:0x00000000
       33845000	      3383	80001a4c	019da433	slt	x8,x27,x25	 x27:0x470e2000 x25:0x0000030c  x8=0x00000000
       33855000	      3384	80001a50	0039d733	srl	x14,x19,x3	 x19:0x88d60000  x3:0x00000002 x14=0x22358000
       33865000	      3385	80001a54	b2e88213	addi	x4,x17,-1234	 x17:0x4000460e  x4=0x4000413c
       33875000	      3386	80001a58	40b28bb3	sub	x23,x5,x11	  x5:0x00000000 x11:0x44ffea68 x23=0xbb001598
       33885000	      3387	80001a5c	013291b3	sll	x3,x5,x19	  x5:0x00000000 x19:0x88d60000  x3=0x00000000
       33895000	      3388	80001a60	01127863	bgeu	x4,x17,80001a70	  x4:0x4000413c x17:0x4000460e
       33905000	      3389	80001a64	401f5933	sra	x18,x30,x1	 x30:0x80009fc4  x1:0x00000000 x18=0x80009fc4
       33915000	      3390	80001a68	bc4eed93	ori	x27,x29,-1084	 x29:0x00000008 x27=0xfffffbcc
       33925000	      3391	80001a6c	8a6fe837	lui	x16,0x8a6fe	 x16=0x8a6fe000
       33935000	      3392	80001a70	40bc04b3	sub	x9,x24,x11	 x24:0xdd840000 x11:0x44ffea68  x9=0x98841598
       33945000	      3393	80001a74	0112b733	sltu	x14,x5,x17	  x5:0x00000000 x17:0x4000460e x14=0x00000001
       33955000	      3394	80001a78	02234e63	blt	x6,x2,80001ab4	  x6:0xdd84460e  x2:0x00000221
       33965000	      3395	00000000	00000013	addi	x0,x0,0	  x0:0x00000000
       33975000	      3396	80001ab0	00000013	addi	x0,x0,0	  x0:0x00000000
       33985000	      3397	80001ab4	00a8c4b3	xor	x9,x17,x10	 x17:0x4000460e x10:0xfffffac0  x9=0xbfffbcce
       33995000	      3398	80001ab8	011cecb3	or	x25,x25,x17	 x25:0x0000030c x17:0x4000460e x25=0x4000470e
       34005000	      3399	80001abc	59e2ab13	slti	x22,x5,1438	  x5:0x00000000 x22=0x00000001
       34015000	      3400	80001ac0	1239ee13	ori	x28,x19,291	 x19:0x88d60000 x28=0x88d60123
       34025000	      3401	80001ac4	017b1663	bne	x22,x23,80001ad0	 x22:0x00000001 x23:0xbb001598
       34035000	      3402	00000000	00000013	addi	x0,x0,0	  x0:0x00000000
       34045000	      3403	80001acc	00000013	addi	x0,x0,0	  x0:0x00000000
       34055000	      3404	80001ad0	409d5e33	sra	x28,x26,x9	 x26:0x35800001  x9:0xbfffbcce x28=0x0000d600
       34065000	      3405	80001ad4	02dbf863	bgeu	x23,x13,80001b04	 x23:0xbb001598 x13:0x00000125
       34075000	      3406	00000000	00000013	addi	x0,x0,0	  x0:0x00000000
       34085000	      3407	80001b00	00000013	addi	x0,x0,0	  x0:0x00000000
       34095000	      3408	80001b04	403e8d33	sub	x26,x29,x3	 x29:0x00000008  x3:0x00000000 x26=0x00000008
       34105000	      3409	80001b08	0122a433	slt	x8,x5,x18	  x5:0x00000000 x18:0x80009fc4  x8=0x00000000
       34115000	      3410	80001b0c	55ebfd13	andi	x26,x23,1374	 x23:0xbb001598 x26=0x00000518
       34125000	      3411	80001b10	05c66463	bltu	x12,x28,80001b58	 x12:0x00000000 x28:0x0000d600
       34135000	      3412	00000000	00000013	addi	x0,x0,0	  x0:0x00000000
       34145000	      3413	80001b54	00000013	addi	x0,x0,0	  x0:0x00000000
       34155000	      3414	80001b58	fdfe0013	addi	x0,x28,-33	 x28:0x0000d600
       34165000	      3415	80001b5c	40dd5733	sra	x14,x26,x13	 x26:0x00000518 x13:0x00000125 x14=0x00000028
       34175000	      3416	80001b60	00000013	addi	x0,x0,0	  x0:0x00000000
       34185000	      3417	80001b64	40548d33	sub	x26,x9,x5	  x9:0xbfffbcce  x5:0x00000000 x26=0xbfffbcce
       34195000	      3418	80001b68	ecf9c013	xori	x0,x19,-305	 x19:0x88d60000
       34205000	      3419	80001b6c	41af0933	sub	x18,x30,x26	 x30:0x80009fc4 x26:0xbfffbcce x18=0xc000e2f6
       34215000	      3420	80001b70	039c9863	bne	x25,x25,80001ba0	 x25:0x4000470e x25:0x4000470e
       34225000	      3421	80001b74	00a6d4b3	srl	x9,x13,x10	 x13:0x00000125 x10:0xfffffac0  x9=0x00000125
       34235000	      3422	80001b78	cf3cf413	andi	x8,x25,-781	 x25:0x4000470e  x8=0x40004402
       34245000	      3423	80001b7c	00854233	xor	x4,x10,x8	 x10:0xfffffac0  x8:0x40004402  x4=0xbfffbec2
       34255000	      3424	80001b80	a3594117	auipc	x2,0xa3594	  x2=0x23595b7c
       34265000	      3425	80001b84	019e01b3	add	x3,x28,x25	 x28:0x0000d600 x25:0x4000470e  x3=0x40011d0e
       34275000	      3426	80001b88	4d5d16b7	lui	x13,0x4d5d1	 x13=0x4d5d1000
       34285000	      3427	80001b8c	01441863	bne	x8,x20,80001b9c	  x8:0x40004402 x20:0x80009f5c
       34295000	      3428	00000000	00000013	addi	x0,x0,0	  x0:0x00000000
       34305000	      3429	80001b98	00000013	addi	x0,x0,0	  x0:0x00000000
       34315000	      3430	80001b9c	409ed713	srai	x14,x29,0x9	 x29:0x00000008 x14=0x00000000
       34325000	      3431	80001ba0	0011d263	bge	x3,x1,80001ba4	  x3:0x40011d0e  x1:0x00000000
       34335000	      3432	00000000	00000013	addi	x0,x0,0	  x0:0x00000000
       34345000	      3433	80001ba0	00000013	addi	x0,x0,0	  x0:0x00000000
       34355000	      3434	80001ba4	00e95933	srl	x18,x18,x14	 x18:0xc000e2f6 x14:0x00000000 x18=0xc000e2f6
       34365000	      3435	80001ba8	4088d1b3	sra	x3,x17,x8	 x17:0x4000460e  x8:0x40004402  x3=0x10001183
       34375000	      3436	80001bac	00225133	srl	x2,x4,x2	  x4:0xbfffbec2  x2:0x23595b7c  x2=0x0000000b
       34385000	      3437	80001bb0	5a9036b7	lui	x13,0x5a903	 x13=0x5a903000
       34395000	      3438	80001bb4	40cc8433	sub	x8,x25,x12	 x25:0x4000470e x12:0x00000000  x8=0x4000470e
       34405000	      3439	80001bb8	e416ef93	ori	x31,x13,-447	 x13:0x5a903000 x31=0xfffffe41
       34415000	      3440	80001bbc	00da7d33	and	x26,x20,x13	 x20:0x80009f5c x13:0x5a903000 x26=0x00001000
       34425000	      3441	80001bc0	01c51263	bne	x10,x28,80001bc4	 x10:0xfffffac0 x28:0x0000d600
       34435000	      3442	00000000	00000013	addi	x0,x0,0	  x0:0x00000000
       34445000	      3443	80001bc0	00000013	addi	x0,x0,0	  x0:0x00000000
       34455000	      3444	80001bc4	00639c13	slli	x24,x7,0x6	  x7:0x0000470e x24=0x0011c380
       34465000	      3445	80001bc8	016cfd33	and	x26,x25,x22	 x25:0x4000470e x22:0x00000001 x26=0x00000000
       34475000	      3446	80001bcc	00000013	addi	x0,x0,0	  x0:0x00000000
       34485000	      3447	80001bd0	03c12c93	slti	x25,x2,60	  x2:0x0000000b x25=0x00000001
       34495000	      3448	80001bd4	41410eb3	sub	x29,x2,x20	  x2:0x0000000b x20:0x80009f5c x29=0x7fff60af
       34505000	      3449	80001bd8	41af05b3	sub	x11,x30,x26	 x30:0x80009fc4 x26:0x00000000 x11=0x80009fc4
       34515000	      3450	80001bdc	eaf1f213	andi	x4,x3,-337	  x3:0x10001183  x4=0x10001083
       34525000	      3451	80001be0	04b1d263	bge	x3,x11,80001c24	  x3:0x10001183 x11:0x80009fc4
       34535000	      3452	00000000	00000013	addi	x0,x0,0	  x0:0x00000000
       34545000	      3453	80001c20	00000013	addi	x0,x0,0	  x0:0x00000000
       34555000	      3454	80001c24	41d55437	lui	x8,0x41d55	  x8=0x41d55000
       34565000	      3455	80001c28	01518bb3	add	x23,x3,x21	  x3:0x10001183 x21:0x00000001 x23=0x10001184
       34575000	      3456	80001c2c	019d5cb3	srl	x25,x26,x25	 x26:0x00000000 x25:0x00000001 x25=0x00000000
       34585000	      3457	80001c30	01b6e4b3	or	x9,x13,x27	 x13:0x5a903000 x27:0xfffffbcc  x9=0xfffffbcc
       34595000	      3458	80001c34	03f99663	bne	x19,x31,80001c60	 x19:0x88d60000 x31:0xfffffe41
       34605000	      3459	00000000	00000013	addi	x0,x0,0	  x0:0x00000000
       34615000	      3460	80001c5c	00000013	addi	x0,x0,0	  x0:0x00000000
       34625000	      3461	80001c60	00005d93	srli	x27,x0,0x0	  x0:0x00000000 x27=0x00000000
       34635000	      3462	80001c64	02dbde63	bge	x23,x13,80001ca0	 x23:0x10001184 x13:0x5a903000
       34645000	      3463	80001c68	00f00833	add	x16,x0,x15	  x0:0x00000000 x15:0x00000100 x16=0x00000100
       34655000	      3464	80001c6c	0101bc33	sltu	x24,x3,x16	  x3:0x10001183 x16:0x00000100 x24=0x00000000
       34665000	      3465	80001c70	00c9a6b3	slt	x13,x19,x12	 x19:0x88d60000 x12:0x00000000 x13=0x00000001
       34675000	      3466	80001c74	00d98033	add	x0,x19,x13	 x19:0x88d60000 x13:0x00000001
       34685000	      3467	80001c78	2c97e193	ori	x3,x15,713	 x15:0x00000100  x3=0x000003c9
       34695000	      3468	80001c7c	04919063	bne	x3,x9,80001cbc	  x3:0x000003c9  x9:0xfffffbcc
       34705000	      3469	00000000	00000013	addi	x0,x0,0	  x0:0x00000000
       34715000	      3470	80001cb8	00000013	addi	x0,x0,0	  x0:0x00000000
       34725000	      3471	80001cbc	000f49b3	xor	x19,x30,x0	 x30:0x80009fc4  x0:0x00000000 x19=0x80009fc4
       34735000	      3472	80001cc0	010bd413	srli	x8,x23,0x10	 x23:0x10001184  x8=0x00001000
       34745000	      3473	80001cc4	00985d33	srl	x26,x16,x9	 x16:0x00000100  x9:0xfffffbcc x26=0x00000000
       34755000	      3474	80001cc8	03b50e63	beq	x10,x27,80001d04	 x10:0xfffffac0 x27:0x00000000
       34765000	      3475	80001ccc	00968cb3	add	x25,x13,x9	 x13:0x00000001  x9:0xfffffbcc x25=0xfffffbcd
       34775000	      3476	80001cd0	731e6e13	ori	x28,x28,1841	 x28:0x0000d600 x28=0x0000d731
       34785000	      3477	80001cd4	00768933	add	x18,x13,x7	 x13:0x00000001  x7:0x0000470e x18=0x0000470f
       34795000	      3478	80001cd8	01d01c63	bne	x0,x29,80001cf0	  x0:0x00000000 x29:0x7fff60af
       34805000	      3479	00000000	00000013	addi	x0,x0,0	  x0:0x00000000
       34815000	      3480	80001cec	00000013	addi	x0,x0,0	  x0:0x00000000
       34825000	      3481	80001cf0	07eece13	xori	x28,x29,126	 x29:0x7fff60af x28=0x7fff60d1
       34835000	      3482	80001cf4	0140b533	sltu	x10,x1,x20	  x1:0x00000000 x20:0x80009f5c x10=0x00000001
       34845000	      3483	80001cf8	081a7263	bgeu	x20,x1,80001d7c	 x20:0x80009f5c  x1:0x00000000
       34855000	      3484	00000000	00000013	addi	x0,x0,0	  x0:0x00000000
       34865000	      3485	80001d78	00000013	addi	x0,x0,0	  x0:0x00000000
       34875000	      3486	80001d7c	40c453b3	sra	x7,x8,x12	  x8:0x00001000 x12:0x00000000  x7=0x00001000
       34885000	      3487	80001d80	043cd863	bge	x25,x3,80001dd0	 x25:0xfffffbcd  x3:0x000003c9
       34895000	      3488	80001d84	01839463	bne	x7,x24,80001d8c	  x7:0x00001000 x24:0x00000000
       34905000	      3489	00000000	00000013	addi	x0,x0,0	  x0:0x00000000
       34915000	      3490	80001d88	00000013	addi	x0,x0,0	  x0:0x00000000
       34925000	      3491	80001d8c	015dc533	xor	x10,x27,x21	 x27:0x00000000 x21:0x00000001 x10=0x00000001
       34935000	      3492	80001d90	40d05113	srai	x2,x0,0xd	  x0:0x00000000  x2=0x00000000
       34945000	      3493	80001d94	0166c263	blt	x13,x22,80001d98	 x13:0x00000001 x22:0x00000001
       34955000	      3494	80001d98	01469193	slli	x3,x13,0x14	 x13:0x00000001  x3=0x00100000
       34965000	      3495	80001d9c	0980e013	ori	x0,x1,152	  x1:0x00000000
       34975000	      3496	80001da0	e665c013	xori	x0,x11,-410	 x11:0x80009fc4
       34985000	      3497	80001da4	03f4e863	bltu	x9,x31,80001dd4	  x9:0xfffffbcc x31:0xfffffe41
       34995000	      3498	00000000	00000013	addi	x0,x0,0	  x0:0x00000000
       35005000	      3499	80001dd0	00000013	addi	x0,x0,0	  x0:0x00000000
       35015000	      3500	80001dd4	0050a2b3	slt	x5,x1,x5	  x1:0x00000000  x5:0x00000000  x5=0x00000000
       35025000	      3501	80001dd8	00a67e63	bgeu	x12,x10,80001df4	 x12:0x00000000 x10:0x00000001
       35035000	      3502	80001ddc	41f4d813	srai	x16,x9,0x1f	  x9:0xfffffbcc x16=0xffffffff
       35045000	      3503	80001de0	01c9adb3	slt	x27,x19,x28	 x19:0x80009fc4 x28:0x7fff60d1 x27=0x00000001
       35055000	      3504	80001de4	00351d13	slli	x26,x10,0x3	 x10:0x00000001 x26=0x00000008
       35065000	      3505	80001de8	254ce393	ori	x7,x25,596	 x25:0xfffffbcd  x7=0xfffffbdd
       35075000	      3506	80001dec	416fdeb3	sra	x29,x31,x22	 x31:0xfffffe41 x22:0x00000001 x29=0xffffff20
       35085000	      3507	80001df0	00755913	srli	x18,x10,0x7	 x10:0x00000001 x18=0x00000000
       35095000	      3508	80001df4	ee664b93	xori	x23,x12,-282	 x12:0x00000000 x23=0xfffffee6
       35105000	      3509	80001df8	00f6f5b3	and	x11,x13,x15	 x13:0x00000001 x15:0x00000100 x11=0x00000000
       35115000	      3510	80001dfc	40c40e33	sub	x28,x8,x12	  x8:0x00001000 x12:0x00000000 x28=0x00001000
       35125000	      3511	80001e00	00772433	slt	x8,x14,x7	 x14:0x00000000  x7:0xfffffbdd  x8=0x00000000
       35135000	      3512	80001e04	052f6463	bltu	x30,x18,80001e4c	 x30:0x80009fc4 x18:0x00000000
       35145000	      3513	80001e08	00672b33	slt	x22,x14,x6	 x14:0x00000000  x6:0xdd84460e x22=0x00000000
       35155000	      3514	80001e0c	40d5dc13	srai	x24,x11,0xd	 x11:0x00000000 x24=0x00000000
       35165000	      3515	80001e10	00badfb3	srl	x31,x21,x11	 x21:0x00000001 x11:0x00000000 x31=0x00000001
       35175000	      3516	80001e14	01856eb3	or	x29,x10,x24	 x10:0x00000001 x24:0x00000000 x29=0x00000001
       35185000	      3517	80001e18	004a1263	bne	x20,x4,80001e1c	 x20:0x80009f5c  x4:0x10001083
       35195000	      3518	00000000	00000013	addi	x0,x0,0	  x0:0x00000000
       35205000	      3519	80001e18	00000013	addi	x0,x0,0	  x0:0x00000000
       35215000	      3520	80001e1c	004703b3	add	x7,x14,x4	 x14:0x00000000  x4:0x10001083  x7=0x10001083
       35225000	      3521	80001e20	0269c863	blt	x19,x6,80001e50	 x19:0x80009fc4  x6:0xdd84460e
       35235000	      3522	00000000	00000013	addi	x0,x0,0	  x0:0x00000000
       35245000	      3523	80001e4c	00000013	addi	x0,x0,0	  x0:0x00000000
       35255000	      3524	80001e50	00e0f463	bgeu	x1,x14,80001e58	  x1:0x00000000 x14:0x00000000
       35265000	      3525	00000000	00000013	addi	x0,x0,0	  x0:0x00000000
       35275000	      3526	80001e54	00000013	addi	x0,x0,0	  x0:0x00000000
       35285000	      3527	80001e58	413c0cb3	sub	x25,x24,x19	 x24:0x00000000 x19:0x80009fc4 x25=0x7fff603c
       35295000	      3528	80001e5c	8afcef97	auipc	x31,0x8afce	 x31=0x0afcfe58
       35305000	      3529	80001e60	d9a88193	addi	x3,x17,-614	 x17:0x4000460e  x3=0x400043a8
       35315000	      3530	80001e64	00b85693	srli	x13,x16,0xb	 x16:0xffffffff x13=0x001fffff
       35325000	      3531	80001e68	011c2db3	slt	x27,x24,x17	 x24:0x00000000 x17:0x4000460e x27=0x00000001
       35335000	      3532	80001e6c	0003d993	srli	x19,x7,0x0	  x7:0x10001083 x19=0x10001083
       35345000	      3533	80001e70	645eab93	slti	x23,x29,1605	 x29:0x00000001 x23=0x00000001
       35355000	      3534	80001e74	7d703993	sltiu	x19,x0,2007	  x0:0x00000000 x19=0x00000001
       35365000	      3535	80001e78	00be21b3	slt	x3,x28,x11	 x28:0x00001000 x11:0x00000000  x3=0x00000000
       35375000	      3536	80001e7c	006f8e33	add	x28,x31,x6	 x31:0x0afcfe58  x6:0xdd84460e x28=0xe8814466
       35385000	      3537	80001e80	401a0233	sub	x4,x20,x1	 x20:0x80009f5c  x1:0x00000000  x4=0x80009f5c
       35395000	      3538	80001e84	40688d33	sub	x26,x17,x6	 x17:0x4000460e  x6:0xdd84460e x26=0x627c0000
       35405000	      3539	80001e88	00081d33	sll	x26,x16,x0	 x16:0xffffffff  x0:0x00000000 x26=0xffffffff
       35415000	      3540	80001e8c	048ae663	bltu	x21,x8,80001ed8	 x21:0x00000001  x8:0x00000000
       35425000	      3541	80001e90	010a3c33	sltu	x24,x20,x16	 x20:0x80009f5c x16:0xffffffff x24=0x00000001
       35435000	      3542	80001e94	03935c63	bge	x6,x25,80001ecc	  x6:0xdd84460e x25:0x7fff603c
       35445000	      3543	80001e98	563eb213	sltiu	x4,x29,1379	 x29:0x00000001  x4=0x00000001
       35455000	      3544	80001e9c	408083b3	sub	x7,x1,x8	  x1:0x00000000  x8:0x00000000  x7=0x00000000
       35465000	      3545	80001ea0	008cb5b3	sltu	x11,x25,x8	 x25:0x7fff603c  x8:0x00000000 x11=0x00000000
       35475000	      3546	80001ea4	2e612893	slti	x17,x2,742	  x2:0x00000000 x17=0x00000001
       35485000	      3547	80001ea8	002db133	sltu	x2,x27,x2	 x27:0x00000001  x2:0x00000000  x2=0x00000000
       35495000	      3548	80001eac	00369033	sll	x0,x13,x3	 x13:0x001fffff  x3:0x00000000
       35505000	      3549	80001eb0	008cc1b3	xor	x3,x25,x8	 x25:0x7fff603c  x8:0x00000000  x3=0x7fff603c
       35515000	      3550	80001eb4	01190eb3	add	x29,x18,x17	 x18:0x00000000 x17:0x00000001 x29=0x00000001
       35525000	      3551	80001eb8	035ddc63	bge	x27,x21,80001ef0	 x27:0x00000001 x21:0x00000001
       35535000	      3552	00000000	00000013	addi	x0,x0,0	  x0:0x00000000
       35545000	      3553	80001eec	00000013	addi	x0,x0,0	  x0:0x00000000
       35555000	      3554	80001ef0	006c69b3	or	x19,x24,x6	 x24:0x00000001  x6:0xdd84460e x19=0xdd84460f
       35565000	      3555	80001ef4	00000013	addi	x0,x0,0	  x0:0x00000000
       35575000	      3556	80001ef8	004cc433	xor	x8,x25,x4	 x25:0x7fff603c  x4:0x00000001  x8=0x7fff603d
       35585000	      3557	80001efc	00000013	addi	x0,x0,0	  x0:0x00000000
       35595000	      3558	80001f00	01c75933	srl	x18,x14,x28	 x14:0x00000000 x28:0xe8814466 x18=0x00000000
       35605000	      3559	80001f04	00000013	addi	x0,x0,0	  x0:0x00000000
       35615000	      3560	80001f08	058fd463	bge	x31,x24,80001f50	 x31:0x0afcfe58 x24:0x00000001
       35625000	      3561	00000000	00000013	addi	x0,x0,0	  x0:0x00000000
       35635000	      3562	80001f4c	00000013	addi	x0,x0,0	  x0:0x00000000
       35645000	      3563	80001f50	03ab5463	bge	x22,x26,80001f78	 x22:0x00000000 x26:0xffffffff
       35655000	      3564	00000000	00000013	addi	x0,x0,0	  x0:0x00000000
       35665000	      3565	80001f74	00000013	addi	x0,x0,0	  x0:0x00000000
       35675000	      3566	80001f78	41c0dfb3	sra	x31,x1,x28	  x1:0x00000000 x28:0xe8814466 x31=0x00000000
       35685000	      3567	80001f7c	404e5733	sra	x14,x28,x4	 x28:0xe8814466  x4:0x00000001 x14=0xf440a233
       35695000	      3568	80001f80	011d6433	or	x8,x26,x17	 x26:0xffffffff x17:0x00000001  x8=0xffffffff
       35705000	      3569	80001f84	027a1c63	bne	x20,x7,80001fbc	 x20:0x80009f5c  x7:0x00000000
       35715000	      3570	00000000	00000013	addi	x0,x0,0	  x0:0x00000000
       35725000	      3571	80001fb8	00000013	addi	x0,x0,0	  x0:0x00000000
       35735000	      3572	80001fbc	003df133	and	x2,x27,x3	 x27:0x00000001  x3:0x7fff603c  x2=0x00000000
       35745000	      3573	80001fc0	008198b3	sll	x17,x3,x8	  x3:0x7fff603c  x8:0xffffffff x17=0x00000000
       35755000	      3574	80001fc4	01a14933	xor	x18,x2,x26	  x2:0x00000000 x26:0xffffffff x18=0xffffffff
       35765000	      3575	80001fc8	deee1d97	auipc	x27,0xdeee1	 x27=0x5eee2fc4
       35775000	      3576	80001fcc	3574ce13	xori	x28,x9,855	  x9:0xfffffbcc x28=0xfffff89b
       35785000	      3577	80001fd0	75e05fb7	lui	x31,0x75e05	 x31=0x75e05000
       35795000	      3578	80001fd4	41d903b3	sub	x7,x18,x29	 x18:0xffffffff x29:0x00000001  x7=0xfffffffe
       35805000	      3579	80001fd8	01b35313	srli	x6,x6,0x1b	  x6:0xdd84460e  x6=0x0000001b
       35815000	      3580	80001fdc	012d4db3	xor	x27,x26,x18	 x26:0xffffffff x18:0xffffffff x27=0x00000000
       35825000	      3581	80001fe0	9d572537	lui	x10,0x9d572	 x10=0x9d572000
       35835000	      3582	80001fe4	01f87333	and	x6,x16,x31	 x16:0xffffffff x31:0x75e05000  x6=0x75e05000
       35845000	      3583	80001fe8	41a006b3	sub	x13,x0,x26	  x0:0x00000000 x26:0xffffffff x13=0x00000001
       35855000	      3584	80001fec	9b21bb97	auipc	x23,0x9b21b	 x23=0x1b21cfe8
       35865000	      3585	80001ff0	18ae8593	addi	x11,x29,394	 x29:0x00000001 x11=0x0000018b
       35875000	      3586	80001ff4	001c06b3	add	x13,x24,x1	 x24:0x00000001  x1:0x00000000 x13=0x00000001
       35885000	      3587	80001ff8	010956b3	srl	x13,x18,x16	 x18:0xffffffff x16:0xffffffff x13=0x00000001
       35895000	      3588	80001ffc	5b54f693	andi	x13,x9,1461	  x9:0xfffffbcc x13=0x00000184
       35905000	      3589	80002000	28bdbc93	sltiu	x25,x27,651	 x27:0x00000000 x25=0x00000001
       35915000	      3590	80002004	00867933	and	x18,x12,x8	 x12:0x00000000  x8:0xffffffff x18=0x00000000
       35925000	      3591	80002008	01b1ea63	bltu	x3,x27,8000201c	  x3:0x7fff603c x27:0x00000000
       35935000	      3592	8000200c	03e40663	beq	x8,x30,80002038	  x8:0xffffffff x30:0x80009fc4
       35945000	      3593	80002010	01730933	add	x18,x6,x23	  x6:0x75e05000 x23:0x1b21cfe8 x18=0x91021fe8
       35955000	      3594	80002014	03bb1c63	bne	x22,x27,8000204c	 x22:0x00000000 x27:0x00000000
       35965000	      3595	80002018	01d3ddb3	srl	x27,x7,x29	  x7:0xfffffffe x29:0x00000001 x27=0x7fffffff
       35975000	      3596	8000201c	9c5b0237	lui	x4,0x9c5b0	  x4=0x9c5b0000
       35985000	      3597	80002020	05cd7063	bgeu	x26,x28,80002060	 x26:0xffffffff x28:0xfffff89b
       35995000	      3598	00000000	00000013	addi	x0,x0,0	  x0:0x00000000
       36005000	      3599	8000205c	00000013	addi	x0,x0,0	  x0:0x00000000
       36015000	      3600	80002060	00c78db3	add	x27,x15,x12	 x15:0x00000100 x12:0x00000000 x27=0x00000100
       36025000	      3601	80002064	007e1393	slli	x7,x28,0x7	 x28:0xfffff89b  x7=0xfffc4d80
       36035000	      3602	80002068	02ab1c63	bne	x22,x10,800020a0	 x22:0x00000000 x10:0x9d572000
       36045000	      3603	00000000	00000013	addi	x0,x0,0	  x0:0x00000000
       36055000	      3604	8000209c	00000013	addi	x0,x0,0	  x0:0x00000000
       36065000	      3605	800020a0	9441cd93	xori	x27,x3,-1724	  x3:0x7fff603c x27=0x80009978
       36075000	      3606	800020a4	01dc8db3	add	x27,x25,x29	 x25:0x00000001 x29:0x00000001 x27=0x00000002
       36085000	      3607	800020a8	009c0263	beq	x24,x9,800020ac	 x24:0x00000001  x9:0xfffffbcc
       36095000	      3608	800020ac	017f37b3	sltu	x15,x30,x23	 x30:0x80009fc4 x23:0x1b21cfe8 x15=0x00000000
       36105000	      3609	800020b0	34bcac93	slti	x25,x25,843	 x25:0x00000001 x25=0x00000001
       36115000	      3610	800020b4	01971593	slli	x11,x14,0x19	 x14:0xf440a233 x11=0x66000000
       36125000	      3611	800020b8	506e4993	xori	x19,x28,1286	 x28:0xfffff89b x19=0xfffffd9d
       36135000	      3612	800020bc	00811863	bne	x2,x8,800020cc	  x2:0x00000000  x8:0xffffffff
       36145000	      3613	00000000	00000013	addi	x0,x0,0	  x0:0x00000000
       36155000	      3614	800020c8	00000013	addi	x0,x0,0	  x0:0x00000000
       36165000	      3615	800020cc	00536ab3	or	x21,x6,x5	  x6:0x75e05000  x5:0x00000000 x21=0x75e05000
       36175000	      3616	800020d0	4067d093	srai	x1,x15,0x6	 x15:0x00000000  x1=0x00000000
       36185000	      3617	800020d4	91afee93	ori	x29,x31,-1766	 x31:0x75e05000 x29=0xfffff91a
       36195000	      3618	800020d8	413e8733	sub	x14,x29,x19	 x29:0xfffff91a x19:0xfffffd9d x14=0xfffffb7d
       36205000	      3619	800020dc	d194f113	andi	x2,x9,-743	  x9:0xfffffbcc  x2=0xfffff908
       36215000	      3620	800020e0	409a5d13	srai	x26,x20,0x9	 x20:0x80009f5c x26=0xffc0004f
       36225000	      3621	800020e4	00acc433	xor	x8,x25,x10	 x25:0x00000001 x10:0x9d572000  x8=0x9d572001
       36235000	      3622	800020e8	40f4d933	sra	x18,x9,x15	  x9:0xfffffbcc x15:0x00000000 x18=0xfffffbcc
       36245000	      3623	800020ec	01147233	and	x4,x8,x17	  x8:0x9d572001 x17:0x00000000  x4=0x00000000
       36255000	      3624	800020f0	80d6bd93	sltiu	x27,x13,-2035	 x13:0x00000184 x27=0x00000001
       36265000	      3625	800020f4	02fe1863	bne	x28,x15,80002124	 x28:0xfffff89b x15:0x00000000
       36275000	      3626	00000000	00000013	addi	x0,x0,0	  x0:0x00000000
       36285000	      3627	80002120	00000013	addi	x0,x0,0	  x0:0x00000000
       36295000	      3628	80002124	037f0863	beq	x30,x23,80002154	 x30:0x80009fc4 x23:0x1b21cfe8
       36305000	      3629	80002128	0150c4b3	xor	x9,x1,x21	  x1:0x00000000 x21:0x75e05000  x9=0x75e05000
       36315000	      3630	8000212c	6e888293	addi	x5,x17,1768	 x17:0x00000000  x5=0x000006e8
       36325000	      3631	80002130	00bb95b3	sll	x11,x23,x11	 x23:0x1b21cfe8 x11:0x66000000 x11=0x1b21cfe8
       36335000	      3632	80002134	01768033	add	x0,x13,x23	 x13:0x00000184 x23:0x1b21cfe8
       36345000	      3633	80002138	00000013	addi	x0,x0,0	  x0:0x00000000
       36355000	      3634	8000213c	00000013	addi	x0,x0,0	  x0:0x00000000
       36365000	      3635	80002140	07fee493	ori	x9,x29,127	 x29:0xfffff91a  x9=0xfffff97f
       36375000	      3636	80002144	00ad52b3	srl	x5,x26,x10	 x26:0xffc0004f x10:0x9d572000  x5=0xffc0004f
       36385000	      3637	80002148	00000013	addi	x0,x0,0	  x0:0x00000000
       36395000	      3638	8000214c	0bdae293	ori	x5,x21,189	 x21:0x75e05000  x5=0x75e050bd
       36405000	      3639	80002150	042b1063	bne	x22,x2,80002190	 x22:0x00000000  x2:0xfffff908
       36415000	      3640	00000000	00000013	addi	x0,x0,0	  x0:0x00000000
       36425000	      3641	8000218c	00000013	addi	x0,x0,0	  x0:0x00000000
       36435000	      3642	80002190	00000013	addi	x0,x0,0	  x0:0x00000000
       36445000	      3643	80002194	886f4d13	xori	x26,x30,-1914	 x30:0x80009fc4 x26=0x7fff6742
       36455000	      3644	80002198	dae67c17	auipc	x24,0xdae67	 x24=0x5ae69194
       36465000	      3645	8000219c	00cb3233	sltu	x4,x22,x12	 x22:0x00000000 x12:0x00000000  x4=0x00000000
       36475000	      3646	800021a0	fedfbc93	sltiu	x25,x31,-19	 x31:0x75e05000 x25=0x00000001
       36485000	      3647	800021a4	008bf263	bgeu	x23,x8,800021a8	 x23:0x1b21cfe8  x8:0x9d572001
       36495000	      3648	800021a8	551f2393	slti	x7,x30,1361	 x30:0x80009fc4  x7=0x00000001
       36505000	      3649	800021ac	00c8beb3	sltu	x29,x17,x12	 x17:0x00000000 x12:0x00000000 x29=0x00000000
       36515000	      3650	800021b0	006ecc33	xor	x24,x29,x6	 x29:0x00000000  x6:0x75e05000 x24=0x75e05000
       36525000	      3651	800021b4	402f8533	sub	x10,x31,x2	 x31:0x75e05000  x2:0xfffff908 x10=0x75e056f8
       36535000	      3652	800021b8	00249463	bne	x9,x2,800021c0	  x9:0xfffff97f  x2:0xfffff908
       36545000	      3653	00000000	00000013	addi	x0,x0,0	  x0:0x00000000
       36555000	      3654	800021bc	00000013	addi	x0,x0,0	  x0:0x00000000
       36565000	      3655	800021c0	01db8d33	add	x26,x23,x29	 x23:0x1b21cfe8 x29:0x00000000 x26=0x1b21cfe8
       36575000	      3656	800021c4	0173d463	bge	x7,x23,800021cc	  x7:0x00000001 x23:0x1b21cfe8
       36585000	      3657	800021c8	41846b93	ori	x23,x8,1048	  x8:0x9d572001 x23=0x9d572419
       36595000	      3658	800021cc	0108a8b3	slt	x17,x17,x16	 x17:0x00000000 x16:0xffffffff x17=0x00000000
       36605000	      3659	800021d0	00c31813	slli	x16,x6,0xc	  x6:0x75e05000 x16=0x05000000
       36615000	      3660	800021d4	36a06b93	ori	x23,x0,874	  x0:0x00000000 x23=0x0000036a
       36625000	      3661	800021d8	03a7f063	bgeu	x15,x26,800021f8	 x15:0x00000000 x26:0x1b21cfe8
       36635000	      3662	800021dc	04751863	bne	x10,x7,8000222c	 x10:0x75e056f8  x7:0x00000001
       36645000	      3663	00000000	00000013	addi	x0,x0,0	  x0:0x00000000
       36655000	      3664	80002228	00000013	addi	x0,x0,0	  x0:0x00000000
       36665000	      3665	8000222c	01b59193	slli	x3,x11,0x1b	 x11:0x1b21cfe8  x3=0x40000000
       36675000	      3666	80002230	01294e33	xor	x28,x18,x18	 x18:0xfffffbcc x18:0xfffffbcc x28=0x00000000
       36685000	      3667	80002234	01bd6ab3	or	x21,x26,x27	 x26:0x1b21cfe8 x27:0x00000001 x21=0x1b21cfe9
       36695000	      3668	80002238	0044d8b3	srl	x17,x9,x4	  x9:0xfffff97f  x4:0x00000000 x17=0xfffff97f
       36705000	      3669	8000223c	002e0e33	add	x28,x28,x2	 x28:0x00000000  x2:0xfffff908 x28=0xfffff908
       36715000	      3670	80002240	010dda63	bge	x27,x16,80002254	 x27:0x00000001 x16:0x05000000
       36725000	      3671	80002244	0089f263	bgeu	x19,x8,80002248	 x19:0xfffffd9d  x8:0x9d572001
       36735000	      3672	00000000	00000013	addi	x0,x0,0	  x0:0x00000000
       36745000	      3673	80002244	00000013	addi	x0,x0,0	  x0:0x00000000
       36755000	      3674	80002248	b0b47d13	andi	x26,x8,-1269	  x8:0x9d572001 x26=0x9d572001
       36765000	      3675	8000224c	001a1733	sll	x14,x20,x1	 x20:0x80009f5c  x1:0x00000000 x14=0x80009f5c
       36775000	      3676	80002250	00aba0b3	slt	x1,x23,x10	 x23:0x0000036a x10:0x75e056f8  x1=0x00000001
       36785000	      3677	80002254	031c5063	bge	x24,x17,80002274	 x24:0x75e05000 x17:0xfffff97f
       36795000	      3678	00000000	00000013	addi	x0,x0,0	  x0:0x00000000
       36805000	      3679	80002270	00000013	addi	x0,x0,0	  x0:0x00000000
       36815000	      3680	80002274	01dad4b3	srl	x9,x21,x29	 x21:0x1b21cfe9 x29:0x00000000  x9=0x1b21cfe9
       36825000	      3681	80002278	e28c2013	slti	x0,x24,-472	 x24:0x75e05000
       36835000	      3682	8000227c	903ace13	xori	x28,x21,-1789	 x21:0x1b21cfe9 x28=0xe4de36ea
       36845000	      3683	80002280	005d4333	xor	x6,x26,x5	 x26:0x9d572001  x5:0x75e050bd  x6=0xe8b770bc
       36855000	      3684	80002284	00404133	xor	x2,x0,x4	  x0:0x00000000  x4:0x00000000  x2=0x00000000
       36865000	      3685	80002288	00132ab3	slt	x21,x6,x1	  x6:0xe8b770bc  x1:0x00000001 x21=0x00000001
       36875000	      3686	8000228c	004a2083	lw	x1,4(x20)	 x20:0x80009f5c  x1=0x80002398 PA:0x80009f60
       36885000	      3687	80002290	01ca0a13	addi	x20,x20,28	 x20:0x80009f5c x20=0x80009f78
       36895000	      3688	80002294	00000013	addi	x0,x0,0	  x0:0x00000000
       36905000	      3689	80002298	00008e13	addi	x28,x1,0	  x1:0x80002398 x28=0x80002398
       36915000	      3690	8000229c	000e0e67	jalr	x28,x28,0	 x28:0x80002398 x28=0x8000229c
       36925000	      3691	00000000	00000013	addi	x0,x0,0	  x0:0x00000000
       36935000	      3692	80002398	00000013	addi	x0,x0,0	  x0:0x00000000
       36945000	      3693	8000239c	068000ef	jal	x1,8000239c	  x1=0x8000239c
       36955000	      3694	00000000	00000013	addi	x0,x0,0	  x0:0x00000000
       36965000	      3695	80002400	00000013	addi	x0,x0,0	  x0:0x00000000
       36975000	      3696	80002404	fc9ff0ef	jal	x1,80002404	  x1=0x80002404
       36985000	      3697	00000000	00000013	addi	x0,x0,0	  x0:0x00000000
       36995000	      3698	800023c8	00000013	addi	x0,x0,0	  x0:0x00000000
       37005000	      3699	800023cc	020000ef	jal	x1,800023cc	  x1=0x800023cc
       37015000	      3700	00000000	00000013	addi	x0,x0,0	  x0:0x00000000
       37025000	      3701	800023e8	00000013	addi	x0,x0,0	  x0:0x00000000
       37035000	      3702	800023ec	fddff36f	jal	x6,800023ec	  x6=0x800023ec
       37045000	      3703	00000000	00000013	addi	x0,x0,0	  x0:0x00000000
       37055000	      3704	800023c4	00000013	addi	x0,x0,0	  x0:0x00000000
       37065000	      3705	800023c8	ff5ff0ef	jal	x1,800023c8	  x1=0x800023c8
       37075000	      3706	00000000	00000013	addi	x0,x0,0	  x0:0x00000000
       37085000	      3707	800023b8	00000013	addi	x0,x0,0	  x0:0x00000000
       37095000	      3708	800023bc	058000ef	jal	x1,800023bc	  x1=0x800023bc
       37105000	      3709	00000000	00000013	addi	x0,x0,0	  x0:0x00000000
       37115000	      3710	80002410	00000013	addi	x0,x0,0	  x0:0x00000000
       37125000	      3711	80002414	fe1ff36f	jal	x6,80002414	  x6=0x80002414
       37135000	      3712	00000000	00000013	addi	x0,x0,0	  x0:0x00000000
       37145000	      3713	800023f0	00000013	addi	x0,x0,0	  x0:0x00000000
       37155000	      3714	800023f4	fadff96f	jal	x18,800023f4	 x18=0x800023f4
       37165000	      3715	00000000	00000013	addi	x0,x0,0	  x0:0x00000000
       37175000	      3716	8000239c	00000013	addi	x0,x0,0	  x0:0x00000000
       37185000	      3717	800023a0	070000ef	jal	x1,800023a0	  x1=0x800023a0
       37195000	      3718	00000000	00000013	addi	x0,x0,0	  x0:0x00000000
       37205000	      3719	8000240c	00000013	addi	x0,x0,0	  x0:0x00000000
       37215000	      3720	80002410	f95ff0ef	jal	x1,80002410	  x1=0x80002410
       37225000	      3721	00000000	00000013	addi	x0,x0,0	  x0:0x00000000
       37235000	      3722	800023a0	00000013	addi	x0,x0,0	  x0:0x00000000
       37245000	      3723	800023a4	01c000ef	jal	x1,800023a4	  x1=0x800023a4
       37255000	      3724	00000000	00000013	addi	x0,x0,0	  x0:0x00000000
       37265000	      3725	800023bc	00000013	addi	x0,x0,0	  x0:0x00000000
       37275000	      3726	800023c0	03c003ef	jal	x7,800023c0	  x7=0x800023c0
       37285000	      3727	00000000	00000013	addi	x0,x0,0	  x0:0x00000000
       37295000	      3728	800023f8	00000013	addi	x0,x0,0	  x0:0x00000000
       37305000	      3729	800023fc	fbdff0ef	jal	x1,800023fc	  x1=0x800023fc
       37315000	      3730	00000000	00000013	addi	x0,x0,0	  x0:0x00000000
       37325000	      3731	800023b4	00000013	addi	x0,x0,0	  x0:0x00000000
       37335000	      3732	800023b8	0380036f	jal	x6,800023b8	  x6=0x800023b8
       37345000	      3733	00000000	00000013	addi	x0,x0,0	  x0:0x00000000
       37355000	      3734	800023ec	00000013	addi	x0,x0,0	  x0:0x00000000
       37365000	      3735	800023f0	fc5ff36f	jal	x6,800023f0	  x6=0x800023f0
       37375000	      3736	00000000	00000013	addi	x0,x0,0	  x0:0x00000000
       37385000	      3737	800023b0	00000013	addi	x0,x0,0	  x0:0x00000000
       37395000	      3738	800023b4	ff9ff36f	jal	x6,800023b4	  x6=0x800023b4
       37405000	      3739	00000000	00000013	addi	x0,x0,0	  x0:0x00000000
       37415000	      3740	800023a8	00000013	addi	x0,x0,0	  x0:0x00000000
       37425000	      3741	800023ac	0600036f	jal	x6,800023ac	  x6=0x800023ac
       37435000	      3742	00000000	00000013	addi	x0,x0,0	  x0:0x00000000
       37445000	      3743	80002408	00000013	addi	x0,x0,0	  x0:0x00000000
       37455000	      3744	8000240c	ffdff36f	jal	x6,8000240c	  x6=0x8000240c
       37465000	      3745	00000000	00000013	addi	x0,x0,0	  x0:0x00000000
       37475000	      3746	80002404	00000013	addi	x0,x0,0	  x0:0x00000000
       37485000	      3747	80002408	fddffcef	jal	x25,80002408	 x25=0x80002408
       37495000	      3748	00000000	00000013	addi	x0,x0,0	  x0:0x00000000
       37505000	      3749	800023e0	00000013	addi	x0,x0,0	  x0:0x00000000
       37515000	      3750	800023e4	fe1ff0ef	jal	x1,800023e4	  x1=0x800023e4
       37525000	      3751	00000000	00000013	addi	x0,x0,0	  x0:0x00000000
       37535000	      3752	800023c0	00000013	addi	x0,x0,0	  x0:0x00000000
       37545000	      3753	800023c4	014000ef	jal	x1,800023c4	  x1=0x800023c4
       37555000	      3754	00000000	00000013	addi	x0,x0,0	  x0:0x00000000
       37565000	      3755	800023d4	00000013	addi	x0,x0,0	  x0:0x00000000
       37575000	      3756	800023d8	fd1ff36f	jal	x6,800023d8	  x6=0x800023d8
       37585000	      3757	00000000	00000013	addi	x0,x0,0	  x0:0x00000000
       37595000	      3758	800023a4	00000013	addi	x0,x0,0	  x0:0x00000000
       37605000	      3759	800023a8	040000ef	jal	x1,800023a8	  x1=0x800023a8
       37615000	      3760	00000000	00000013	addi	x0,x0,0	  x0:0x00000000
       37625000	      3761	800023e4	00000013	addi	x0,x0,0	  x0:0x00000000
       37635000	      3762	800023e8	ff9ff0ef	jal	x1,800023e8	  x1=0x800023e8
       37645000	      3763	00000000	00000013	addi	x0,x0,0	  x0:0x00000000
       37655000	      3764	800023dc	00000013	addi	x0,x0,0	  x0:0x00000000
       37665000	      3765	800023e0	ff1ff5ef	jal	x11,800023e0	 x11=0x800023e0
       37675000	      3766	00000000	00000013	addi	x0,x0,0	  x0:0x00000000
       37685000	      3767	800023cc	00000013	addi	x0,x0,0	  x0:0x00000000
       37695000	      3768	800023d0	fe1ff0ef	jal	x1,800023d0	  x1=0x800023d0
       37705000	      3769	00000000	00000013	addi	x0,x0,0	  x0:0x00000000
       37715000	      3770	800023ac	00000013	addi	x0,x0,0	  x0:0x00000000
       37725000	      3771	800023b0	050000ef	jal	x1,800023b0	  x1=0x800023b0
       37735000	      3772	00000000	00000013	addi	x0,x0,0	  x0:0x00000000
       37745000	      3773	800023fc	00000013	addi	x0,x0,0	  x0:0x00000000
       37755000	      3774	80002400	fddff0ef	jal	x1,80002400	  x1=0x80002400
       37765000	      3775	00000000	00000013	addi	x0,x0,0	  x0:0x00000000
       37775000	      3776	800023d8	00000013	addi	x0,x0,0	  x0:0x00000000
       37785000	      3777	800023dc	01c0036f	jal	x6,800023dc	  x6=0x800023dc
       37795000	      3778	00000000	00000013	addi	x0,x0,0	  x0:0x00000000
       37805000	      3779	800023f4	00000013	addi	x0,x0,0	  x0:0x00000000
       37815000	      3780	800023f8	fddff0ef	jal	x1,800023f8	  x1=0x800023f8
       37825000	      3781	00000000	00000013	addi	x0,x0,0	  x0:0x00000000
       37835000	      3782	800023d0	00000013	addi	x0,x0,0	  x0:0x00000000
       37845000	      3783	800023d4	044000ef	jal	x1,800023d4	  x1=0x800023d4
       37855000	      3784	00000000	00000013	addi	x0,x0,0	  x0:0x00000000
       37865000	      3785	80002414	00000013	addi	x0,x0,0	  x0:0x00000000
       37875000	      3786	80002418	a0d22097	auipc	x1,0xa0d22	  x1=0x20d24414
       37885000	      3787	8000241c	014000ef	jal	x1,8000241c	  x1=0x8000241c
       37895000	      3788	00000000	00000013	addi	x0,x0,0	  x0:0x00000000
       37905000	      3789	8000242c	00000013	addi	x0,x0,0	  x0:0x00000000
       37915000	      3790	80002430	0040036f	jal	x6,80002430	  x6=0x80002430
       37925000	      3791	00000000	00000013	addi	x0,x0,0	  x0:0x00000000
       37935000	      3792	80002430	00000013	addi	x0,x0,0	  x0:0x00000000
       37945000	      3793	80002434	ff1ff4ef	jal	x9,80002434	  x9=0x80002434
       37955000	      3794	00000000	00000013	addi	x0,x0,0	  x0:0x00000000
       37965000	      3795	80002420	00000013	addi	x0,x0,0	  x0:0x00000000
       37975000	      3796	80002424	01800bef	jal	x23,80002424	 x23=0x80002424
       37985000	      3797	00000000	00000013	addi	x0,x0,0	  x0:0x00000000
       37995000	      3798	80002438	00000013	addi	x0,x0,0	  x0:0x00000000
       38005000	      3799	8000243c	00c000ef	jal	x1,8000243c	  x1=0x8000243c
       38015000	      3800	00000000	00000013	addi	x0,x0,0	  x0:0x00000000
       38025000	      3801	80002444	00000013	addi	x0,x0,0	  x0:0x00000000
       38035000	      3802	80002448	ffdffaef	jal	x21,80002448	 x21=0x80002448
       38045000	      3803	00000000	00000013	addi	x0,x0,0	  x0:0x00000000
       38055000	      3804	80002440	00000013	addi	x0,x0,0	  x0:0x00000000
       38065000	      3805	80002444	fddff0ef	jal	x1,80002444	  x1=0x80002444
       38075000	      3806	00000000	00000013	addi	x0,x0,0	  x0:0x00000000
       38085000	      3807	8000241c	00000013	addi	x0,x0,0	  x0:0x00000000
       38095000	      3808	80002420	018000ef	jal	x1,80002420	  x1=0x80002420
       38105000	      3809	00000000	00000013	addi	x0,x0,0	  x0:0x00000000
       38115000	      3810	80002434	00000013	addi	x0,x0,0	  x0:0x00000000
       38125000	      3811	80002438	0140016f	jal	x2,80002438	  x2=0x80002438
       38135000	      3812	00000000	00000013	addi	x0,x0,0	  x0:0x00000000
       38145000	      3813	80002448	00000013	addi	x0,x0,0	  x0:0x00000000
       38155000	      3814	8000244c	ff5ffd6f	jal	x26,8000244c	 x26=0x8000244c
       38165000	      3815	00000000	00000013	addi	x0,x0,0	  x0:0x00000000
       38175000	      3816	8000243c	00000013	addi	x0,x0,0	  x0:0x00000000
       38185000	      3817	80002440	fe9ff36f	jal	x6,80002440	  x6=0x80002440
       38195000	      3818	00000000	00000013	addi	x0,x0,0	  x0:0x00000000
       38205000	      3819	80002424	00000013	addi	x0,x0,0	  x0:0x00000000
       38215000	      3820	80002428	004000ef	jal	x1,80002428	  x1=0x80002428
       38225000	      3821	00000000	00000013	addi	x0,x0,0	  x0:0x00000000
       38235000	      3822	80002428	00000013	addi	x0,x0,0	  x0:0x00000000
       38245000	      3823	8000242c	024000ef	jal	x1,8000242c	  x1=0x8000242c
       38255000	      3824	00000000	00000013	addi	x0,x0,0	  x0:0x00000000
       38265000	      3825	8000244c	00000013	addi	x0,x0,0	  x0:0x00000000
       38275000	      3826	80002450	01993533	sltu	x10,x18,x25	 x18:0x800023f4 x25:0x80002408 x10=0x00000001
       38285000	      3827	80002454	038000ef	jal	x1,80002454	  x1=0x80002454
       38295000	      3828	00000000	00000013	addi	x0,x0,0	  x0:0x00000000
       38305000	      3829	80002488	00000013	addi	x0,x0,0	  x0:0x00000000
       38315000	      3830	8000248c	fedff0ef	jal	x1,8000248c	  x1=0x8000248c
       38325000	      3831	00000000	00000013	addi	x0,x0,0	  x0:0x00000000
       38335000	      3832	80002474	00000013	addi	x0,x0,0	  x0:0x00000000
       38345000	      3833	80002478	ffdff0ef	jal	x1,80002478	  x1=0x80002478
       38355000	      3834	00000000	00000013	addi	x0,x0,0	  x0:0x00000000
       38365000	      3835	80002470	00000013	addi	x0,x0,0	  x0:0x00000000
       38375000	      3836	80002474	010000ef	jal	x1,80002474	  x1=0x80002474
       38385000	      3837	00000000	00000013	addi	x0,x0,0	  x0:0x00000000
       38395000	      3838	80002480	00000013	addi	x0,x0,0	  x0:0x00000000
       38405000	      3839	80002484	0040036f	jal	x6,80002484	  x6=0x80002484
       38415000	      3840	00000000	00000013	addi	x0,x0,0	  x0:0x00000000
       38425000	      3841	80002484	00000013	addi	x0,x0,0	  x0:0x00000000
       38435000	      3842	80002488	fd5ff0ef	jal	x1,80002488	  x1=0x80002488
       38445000	      3843	00000000	00000013	addi	x0,x0,0	  x0:0x00000000
       38455000	      3844	80002458	00000013	addi	x0,x0,0	  x0:0x00000000
       38465000	      3845	8000245c	0240036f	jal	x6,8000245c	  x6=0x8000245c
       38475000	      3846	00000000	00000013	addi	x0,x0,0	  x0:0x00000000
       38485000	      3847	8000247c	00000013	addi	x0,x0,0	  x0:0x00000000
       38495000	      3848	80002480	fe9ffbef	jal	x23,80002480	 x23=0x80002480
       38505000	      3849	00000000	00000013	addi	x0,x0,0	  x0:0x00000000
       38515000	      3850	80002464	00000013	addi	x0,x0,0	  x0:0x00000000
       38525000	      3851	80002468	0280036f	jal	x6,80002468	  x6=0x80002468
       38535000	      3852	00000000	00000013	addi	x0,x0,0	  x0:0x00000000
       38545000	      3853	8000248c	00000013	addi	x0,x0,0	  x0:0x00000000
       38555000	      3854	80002490	fc9ff26f	jal	x4,80002490	  x4=0x80002490
       38565000	      3855	00000000	00000013	addi	x0,x0,0	  x0:0x00000000
       38575000	      3856	80002454	00000013	addi	x0,x0,0	  x0:0x00000000
       38585000	      3857	80002458	00c000ef	jal	x1,80002458	  x1=0x80002458
       38595000	      3858	00000000	00000013	addi	x0,x0,0	  x0:0x00000000
       38605000	      3859	80002460	00000013	addi	x0,x0,0	  x0:0x00000000
       38615000	      3860	80002464	ffdff36f	jal	x6,80002464	  x6=0x80002464
       38625000	      3861	00000000	00000013	addi	x0,x0,0	  x0:0x00000000
       38635000	      3862	8000245c	00000013	addi	x0,x0,0	  x0:0x00000000
       38645000	      3863	80002460	01c000ef	jal	x1,80002460	  x1=0x80002460
       38655000	      3864	00000000	00000013	addi	x0,x0,0	  x0:0x00000000
       38665000	      3865	80002478	00000013	addi	x0,x0,0	  x0:0x00000000
       38675000	      3866	8000247c	01c000ef	jal	x1,8000247c	  x1=0x8000247c
       38685000	      3867	00000000	00000013	addi	x0,x0,0	  x0:0x00000000
       38695000	      3868	80002494	00000013	addi	x0,x0,0	  x0:0x00000000
       38705000	      3869	80002498	ffdff0ef	jal	x1,80002498	  x1=0x80002498
       38715000	      3870	00000000	00000013	addi	x0,x0,0	  x0:0x00000000
       38725000	      3871	80002490	00000013	addi	x0,x0,0	  x0:0x00000000
       38735000	      3872	80002494	fd9ff0ef	jal	x1,80002494	  x1=0x80002494
       38745000	      3873	00000000	00000013	addi	x0,x0,0	  x0:0x00000000
       38755000	      3874	80002468	00000013	addi	x0,x0,0	  x0:0x00000000
       38765000	      3875	8000246c	004000ef	jal	x1,8000246c	  x1=0x8000246c
       38775000	      3876	00000000	00000013	addi	x0,x0,0	  x0:0x00000000
       38785000	      3877	8000246c	00000013	addi	x0,x0,0	  x0:0x00000000
       38795000	      3878	80002470	02c000ef	jal	x1,80002470	  x1=0x80002470
       38805000	      3879	00000000	00000013	addi	x0,x0,0	  x0:0x00000000
       38815000	      3880	80002498	00000013	addi	x0,x0,0	  x0:0x00000000
       38825000	      3881	8000249c	004000ef	jal	x1,8000249c	  x1=0x8000249c
       38835000	      3882	00000000	00000013	addi	x0,x0,0	  x0:0x00000000
       38845000	      3883	8000249c	00000013	addi	x0,x0,0	  x0:0x00000000
       38855000	      3884	800024a0	407c5513	srai	x10,x24,0x7	 x24:0x75e05000 x10=0x00ebc0a0
       38865000	      3885	800024a4	054000ef	jal	x1,800024a4	  x1=0x800024a4
       38875000	      3886	00000000	00000013	addi	x0,x0,0	  x0:0x00000000
       38885000	      3887	800024f4	00000013	addi	x0,x0,0	  x0:0x00000000
       38895000	      3888	800024f8	fcdff76f	jal	x14,800024f8	 x14=0x800024f8
       38905000	      3889	00000000	00000013	addi	x0,x0,0	  x0:0x00000000
       38915000	      3890	800024c0	00000013	addi	x0,x0,0	  x0:0x00000000
       38925000	      3891	800024c4	ffdff0ef	jal	x1,800024c4	  x1=0x800024c4
       38935000	      3892	00000000	00000013	addi	x0,x0,0	  x0:0x00000000
       38945000	      3893	800024bc	00000013	addi	x0,x0,0	  x0:0x00000000
       38955000	      3894	800024c0	0240036f	jal	x6,800024c0	  x6=0x800024c0
       38965000	      3895	00000000	00000013	addi	x0,x0,0	  x0:0x00000000
       38975000	      3896	800024e0	00000013	addi	x0,x0,0	  x0:0x00000000
       38985000	      3897	800024e4	0040036f	jal	x6,800024e4	  x6=0x800024e4
       38995000	      3898	00000000	00000013	addi	x0,x0,0	  x0:0x00000000
       39005000	      3899	800024e4	00000013	addi	x0,x0,0	  x0:0x00000000
       39015000	      3900	800024e8	fcdff0ef	jal	x1,800024e8	  x1=0x800024e8
       39025000	      3901	00000000	00000013	addi	x0,x0,0	  x0:0x00000000
       39035000	      3902	800024b0	00000013	addi	x0,x0,0	  x0:0x00000000
       39045000	      3903	800024b4	024000ef	jal	x1,800024b4	  x1=0x800024b4
       39055000	      3904	00000000	00000013	addi	x0,x0,0	  x0:0x00000000
       39065000	      3905	800024d4	00000013	addi	x0,x0,0	  x0:0x00000000
       39075000	      3906	800024d8	018000ef	jal	x1,800024d8	  x1=0x800024d8
       39085000	      3907	00000000	00000013	addi	x0,x0,0	  x0:0x00000000
       39095000	      3908	800024ec	00000013	addi	x0,x0,0	  x0:0x00000000
       39105000	      3909	800024f0	fbdff2ef	jal	x5,800024f0	  x5=0x800024f0
       39115000	      3910	00000000	00000013	addi	x0,x0,0	  x0:0x00000000
       39125000	      3911	800024a8	00000013	addi	x0,x0,0	  x0:0x00000000
       39135000	      3912	800024ac	ffdff0ef	jal	x1,800024ac	  x1=0x800024ac
       39145000	      3913	00000000	00000013	addi	x0,x0,0	  x0:0x00000000
       39155000	      3914	800024a4	00000013	addi	x0,x0,0	  x0:0x00000000
       39165000	      3915	800024a8	024000ef	jal	x1,800024a8	  x1=0x800024a8
       39175000	      3916	00000000	00000013	addi	x0,x0,0	  x0:0x00000000
       39185000	      3917	800024c8	00000013	addi	x0,x0,0	  x0:0x00000000
       39195000	      3918	800024cc	ff1ff0ef	jal	x1,800024cc	  x1=0x800024cc
       39205000	      3919	00000000	00000013	addi	x0,x0,0	  x0:0x00000000
       39215000	      3920	800024b8	00000013	addi	x0,x0,0	  x0:0x00000000
       39225000	      3921	800024bc	ffdff0ef	jal	x1,800024bc	  x1=0x800024bc
       39235000	      3922	00000000	00000013	addi	x0,x0,0	  x0:0x00000000
       39245000	      3923	800024b4	00000013	addi	x0,x0,0	  x0:0x00000000
       39255000	      3924	800024b8	034000ef	jal	x1,800024b8	  x1=0x800024b8
       39265000	      3925	00000000	00000013	addi	x0,x0,0	  x0:0x00000000
       39275000	      3926	800024e8	00000013	addi	x0,x0,0	  x0:0x00000000
       39285000	      3927	800024ec	fe5ff86f	jal	x16,800024ec	 x16=0x800024ec
       39295000	      3928	00000000	00000013	addi	x0,x0,0	  x0:0x00000000
       39305000	      3929	800024cc	00000013	addi	x0,x0,0	  x0:0x00000000
       39315000	      3930	800024d0	01000bef	jal	x23,800024d0	 x23=0x800024d0
       39325000	      3931	00000000	00000013	addi	x0,x0,0	  x0:0x00000000
       39335000	      3932	800024dc	00000013	addi	x0,x0,0	  x0:0x00000000
       39345000	      3933	800024e0	ffdff76f	jal	x14,800024e0	 x14=0x800024e0
       39355000	      3934	00000000	00000013	addi	x0,x0,0	  x0:0x00000000
       39365000	      3935	800024d8	00000013	addi	x0,x0,0	  x0:0x00000000
       39375000	      3936	800024dc	0200036f	jal	x6,800024dc	  x6=0x800024dc
       39385000	      3937	00000000	00000013	addi	x0,x0,0	  x0:0x00000000
       39395000	      3938	800024f8	00000013	addi	x0,x0,0	  x0:0x00000000
       39405000	      3939	800024fc	fcdff0ef	jal	x1,800024fc	  x1=0x800024fc
       39415000	      3940	00000000	00000013	addi	x0,x0,0	  x0:0x00000000
       39425000	      3941	800024c4	00000013	addi	x0,x0,0	  x0:0x00000000
       39435000	      3942	800024c8	00c009ef	jal	x19,800024c8	 x19=0x800024c8
       39445000	      3943	00000000	00000013	addi	x0,x0,0	  x0:0x00000000
       39455000	      3944	800024d0	00000013	addi	x0,x0,0	  x0:0x00000000
       39465000	      3945	800024d4	020000ef	jal	x1,800024d4	  x1=0x800024d4
       39475000	      3946	00000000	00000013	addi	x0,x0,0	  x0:0x00000000
       39485000	      3947	800024f0	00000013	addi	x0,x0,0	  x0:0x00000000
       39495000	      3948	800024f4	fbdff0ef	jal	x1,800024f4	  x1=0x800024f4
       39505000	      3949	00000000	00000013	addi	x0,x0,0	  x0:0x00000000
       39515000	      3950	800024ac	00000013	addi	x0,x0,0	  x0:0x00000000
       39525000	      3951	800024b0	050000ef	jal	x1,800024b0	  x1=0x800024b0
       39535000	      3952	00000000	00000013	addi	x0,x0,0	  x0:0x00000000
       39545000	      3953	800024fc	00000013	addi	x0,x0,0	  x0:0x00000000
       39555000	      3954	80002500	00204db3	xor	x27,x0,x2	  x0:0x00000000  x2:0x80002438 x27=0x80002438
       39565000	      3955	80002504	020000ef	jal	x1,80002504	  x1=0x80002504
       39575000	      3956	00000000	00000013	addi	x0,x0,0	  x0:0x00000000
       39585000	      3957	80002520	00000013	addi	x0,x0,0	  x0:0x00000000
       39595000	      3958	80002524	014000ef	jal	x1,80002524	  x1=0x80002524
       39605000	      3959	00000000	00000013	addi	x0,x0,0	  x0:0x00000000
       39615000	      3960	80002534	00000013	addi	x0,x0,0	  x0:0x00000000
       39625000	      3961	80002538	fd5ff0ef	jal	x1,80002538	  x1=0x80002538
       39635000	      3962	00000000	00000013	addi	x0,x0,0	  x0:0x00000000
       39645000	      3963	80002508	00000013	addi	x0,x0,0	  x0:0x00000000
       39655000	      3964	8000250c	054000ef	jal	x1,8000250c	  x1=0x8000250c
       39665000	      3965	00000000	00000013	addi	x0,x0,0	  x0:0x00000000
       39675000	      3966	8000255c	00000013	addi	x0,x0,0	  x0:0x00000000
       39685000	      3967	80002560	ffdff36f	jal	x6,80002560	  x6=0x80002560
       39695000	      3968	00000000	00000013	addi	x0,x0,0	  x0:0x00000000
       39705000	      3969	80002558	00000013	addi	x0,x0,0	  x0:0x00000000
       39715000	      3970	8000255c	fb5ff0ef	jal	x1,8000255c	  x1=0x8000255c
       39725000	      3971	00000000	00000013	addi	x0,x0,0	  x0:0x00000000
       39735000	      3972	8000250c	00000013	addi	x0,x0,0	  x0:0x00000000
       39745000	      3973	80002510	ff9ff6ef	jal	x13,80002510	 x13=0x80002510
       39755000	      3974	00000000	00000013	addi	x0,x0,0	  x0:0x00000000
       39765000	      3975	80002504	00000013	addi	x0,x0,0	  x0:0x00000000
       39775000	      3976	80002508	03c000ef	jal	x1,80002508	  x1=0x80002508
       39785000	      3977	00000000	00000013	addi	x0,x0,0	  x0:0x00000000
       39795000	      3978	80002540	00000013	addi	x0,x0,0	  x0:0x00000000
       39805000	      3979	80002544	ff1ff36f	jal	x6,80002544	  x6=0x80002544
       39815000	      3980	00000000	00000013	addi	x0,x0,0	  x0:0x00000000
       39825000	      3981	80002530	00000013	addi	x0,x0,0	  x0:0x00000000
       39835000	      3982	80002534	024000ef	jal	x1,80002534	  x1=0x80002534
       39845000	      3983	00000000	00000013	addi	x0,x0,0	  x0:0x00000000
       39855000	      3984	80002554	00000013	addi	x0,x0,0	  x0:0x00000000
       39865000	      3985	80002558	ff1ff0ef	jal	x1,80002558	  x1=0x80002558
       39875000	      3986	00000000	00000013	addi	x0,x0,0	  x0:0x00000000
       39885000	      3987	80002544	00000013	addi	x0,x0,0	  x0:0x00000000
       39895000	      3988	80002548	ff9ff76f	jal	x14,80002548	 x14=0x80002548
       39905000	      3989	00000000	00000013	addi	x0,x0,0	  x0:0x00000000
       39915000	      3990	8000253c	00000013	addi	x0,x0,0	  x0:0x00000000
       39925000	      3991	80002540	00c000ef	jal	x1,80002540	  x1=0x80002540
       39935000	      3992	00000000	00000013	addi	x0,x0,0	  x0:0x00000000
       39945000	      3993	80002548	00000013	addi	x0,x0,0	  x0:0x00000000
       39955000	      3994	8000254c	fe5ff0ef	jal	x1,8000254c	  x1=0x8000254c
       39965000	      3995	00000000	00000013	addi	x0,x0,0	  x0:0x00000000
       39975000	      3996	8000252c	00000013	addi	x0,x0,0	  x0:0x00000000
       39985000	      3997	80002530	00c000ef	jal	x1,80002530	  x1=0x80002530
       39995000	      3998	00000000	00000013	addi	x0,x0,0	  x0:0x00000000
       40005000	      3999	80002538	00000013	addi	x0,x0,0	  x0:0x00000000
       40015000	      4000	8000253c	014000ef	jal	x1,8000253c	  x1=0x8000253c
       40025000	      4001	00000000	00000013	addi	x0,x0,0	  x0:0x00000000
       40035000	      4002	8000254c	00000013	addi	x0,x0,0	  x0:0x00000000
       40045000	      4003	80002550	fc9ff1ef	jal	x3,80002550	  x3=0x80002550
       40055000	      4004	00000000	00000013	addi	x0,x0,0	  x0:0x00000000
       40065000	      4005	80002514	00000013	addi	x0,x0,0	  x0:0x00000000
       40075000	      4006	80002518	0080036f	jal	x6,80002518	  x6=0x80002518
       40085000	      4007	00000000	00000013	addi	x0,x0,0	  x0:0x00000000
       40095000	      4008	8000251c	00000013	addi	x0,x0,0	  x0:0x00000000
       40105000	      4009	80002520	ffdff1ef	jal	x3,80002520	  x3=0x80002520
       40115000	      4010	00000000	00000013	addi	x0,x0,0	  x0:0x00000000
       40125000	      4011	80002518	00000013	addi	x0,x0,0	  x0:0x00000000
       40135000	      4012	8000251c	010000ef	jal	x1,8000251c	  x1=0x8000251c
       40145000	      4013	00000000	00000013	addi	x0,x0,0	  x0:0x00000000
       40155000	      4014	80002528	00000013	addi	x0,x0,0	  x0:0x00000000
       40165000	      4015	8000252c	fe9ff0ef	jal	x1,8000252c	  x1=0x8000252c
       40175000	      4016	00000000	00000013	addi	x0,x0,0	  x0:0x00000000
       40185000	      4017	80002510	00000013	addi	x0,x0,0	  x0:0x00000000
       40195000	      4018	80002514	0400036f	jal	x6,80002514	  x6=0x80002514
       40205000	      4019	00000000	00000013	addi	x0,x0,0	  x0:0x00000000
       40215000	      4020	80002550	00000013	addi	x0,x0,0	  x0:0x00000000
       40225000	      4021	80002554	fd5ffb6f	jal	x22,80002554	 x22=0x80002554
       40235000	      4022	00000000	00000013	addi	x0,x0,0	  x0:0x00000000
       40245000	      4023	80002524	00000013	addi	x0,x0,0	  x0:0x00000000
       40255000	      4024	80002528	03c0076f	jal	x14,80002528	 x14=0x80002528
       40265000	      4025	00000000	00000013	addi	x0,x0,0	  x0:0x00000000
       40275000	      4026	80002560	00000013	addi	x0,x0,0	  x0:0x00000000
       40285000	      4027	80002564	09d46513	ori	x10,x8,157	  x8:0x9d572001 x10=0x9d57209d
       40295000	      4028	80002568	030000ef	jal	x1,80002568	  x1=0x80002568
       40305000	      4029	00000000	00000013	addi	x0,x0,0	  x0:0x00000000
       40315000	      4030	80002594	00000013	addi	x0,x0,0	  x0:0x00000000
       40325000	      4031	80002598	fe9ff0ef	jal	x1,80002598	  x1=0x80002598
       40335000	      4032	00000000	00000013	addi	x0,x0,0	  x0:0x00000000
       40345000	      4033	8000257c	00000013	addi	x0,x0,0	  x0:0x00000000
       40355000	      4034	80002580	008002ef	jal	x5,80002580	  x5=0x80002580
       40365000	      4035	00000000	00000013	addi	x0,x0,0	  x0:0x00000000
       40375000	      4036	80002584	00000013	addi	x0,x0,0	  x0:0x00000000
       40385000	      4037	80002588	018000ef	jal	x1,80002588	  x1=0x80002588
       40395000	      4038	00000000	00000013	addi	x0,x0,0	  x0:0x00000000
       40405000	      4039	8000259c	00000013	addi	x0,x0,0	  x0:0x00000000
       40415000	      4040	800025a0	fddff0ef	jal	x1,800025a0	  x1=0x800025a0
       40425000	      4041	00000000	00000013	addi	x0,x0,0	  x0:0x00000000
       40435000	      4042	80002578	00000013	addi	x0,x0,0	  x0:0x00000000
       40445000	      4043	8000257c	008006ef	jal	x13,8000257c	 x13=0x8000257c
       40455000	      4044	00000000	00000013	addi	x0,x0,0	  x0:0x00000000
       40465000	      4045	80002580	00000013	addi	x0,x0,0	  x0:0x00000000
       40475000	      4046	80002584	fedffb6f	jal	x22,80002584	 x22=0x80002584
       40485000	      4047	00000000	00000013	addi	x0,x0,0	  x0:0x00000000
       40495000	      4048	8000256c	00000013	addi	x0,x0,0	  x0:0x00000000
       40505000	      4049	80002570	ffdff0ef	jal	x1,80002570	  x1=0x80002570
       40515000	      4050	00000000	00000013	addi	x0,x0,0	  x0:0x00000000
       40525000	      4051	80002568	00000013	addi	x0,x0,0	  x0:0x00000000
       40535000	      4052	8000256c	0200036f	jal	x6,8000256c	  x6=0x8000256c
       40545000	      4053	00000000	00000013	addi	x0,x0,0	  x0:0x00000000
       40555000	      4054	80002588	00000013	addi	x0,x0,0	  x0:0x00000000
       40565000	      4055	8000258c	004000ef	jal	x1,8000258c	  x1=0x8000258c
       40575000	      4056	00000000	00000013	addi	x0,x0,0	  x0:0x00000000
       40585000	      4057	8000258c	00000013	addi	x0,x0,0	  x0:0x00000000
       40595000	      4058	80002590	fe5ff0ef	jal	x1,80002590	  x1=0x80002590
       40605000	      4059	00000000	00000013	addi	x0,x0,0	  x0:0x00000000
       40615000	      4060	80002570	00000013	addi	x0,x0,0	  x0:0x00000000
       40625000	      4061	80002574	020000ef	jal	x1,80002574	  x1=0x80002574
       40635000	      4062	00000000	00000013	addi	x0,x0,0	  x0:0x00000000
       40645000	      4063	80002590	00000013	addi	x0,x0,0	  x0:0x00000000
       40655000	      4064	80002594	fe5ff0ef	jal	x1,80002594	  x1=0x80002594
       40665000	      4065	00000000	00000013	addi	x0,x0,0	  x0:0x00000000
       40675000	      4066	80002574	00000013	addi	x0,x0,0	  x0:0x00000000
       40685000	      4067	80002578	024000ef	jal	x1,80002578	  x1=0x80002578
       40695000	      4068	00000000	00000013	addi	x0,x0,0	  x0:0x00000000
       40705000	      4069	80002598	00000013	addi	x0,x0,0	  x0:0x00000000
       40715000	      4070	8000259c	0080036f	jal	x6,8000259c	  x6=0x8000259c
       40725000	      4071	00000000	00000013	addi	x0,x0,0	  x0:0x00000000
       40735000	      4072	800025a0	00000013	addi	x0,x0,0	  x0:0x00000000
       40745000	      4073	800025a4	6cc1a893	slti	x17,x3,1740	  x3:0x80002520 x17=0x00000001
       40755000	      4074	800025a8	014000ef	jal	x1,800025a8	  x1=0x800025a8
       40765000	      4075	00000000	00000013	addi	x0,x0,0	  x0:0x00000000
       40775000	      4076	800025b8	00000013	addi	x0,x0,0	  x0:0x00000000
       40785000	      4077	800025bc	03c000ef	jal	x1,800025bc	  x1=0x800025bc
       40795000	      4078	00000000	00000013	addi	x0,x0,0	  x0:0x00000000
       40805000	      4079	800025f4	00000013	addi	x0,x0,0	  x0:0x00000000
       40815000	      4080	800025f8	fd9ff0ef	jal	x1,800025f8	  x1=0x800025f8
       40825000	      4081	00000000	00000013	addi	x0,x0,0	  x0:0x00000000
       40835000	      4082	800025cc	00000013	addi	x0,x0,0	  x0:0x00000000
       40845000	      4083	800025d0	ff5ff36f	jal	x6,800025d0	  x6=0x800025d0
       40855000	      4084	00000000	00000013	addi	x0,x0,0	  x0:0x00000000
       40865000	      4085	800025c0	00000013	addi	x0,x0,0	  x0:0x00000000
       40875000	      4086	800025c4	008000ef	jal	x1,800025c4	  x1=0x800025c4
       40885000	      4087	00000000	00000013	addi	x0,x0,0	  x0:0x00000000
       40895000	      4088	800025c8	00000013	addi	x0,x0,0	  x0:0x00000000
       40905000	      4089	800025cc	024000ef	jal	x1,800025cc	  x1=0x800025cc
       40915000	      4090	00000000	00000013	addi	x0,x0,0	  x0:0x00000000
       40925000	      4091	800025ec	00000013	addi	x0,x0,0	  x0:0x00000000
       40935000	      4092	800025f0	ff1ff36f	jal	x6,800025f0	  x6=0x800025f0
       40945000	      4093	00000000	00000013	addi	x0,x0,0	  x0:0x00000000
       40955000	      4094	800025dc	00000013	addi	x0,x0,0	  x0:0x00000000
       40965000	      4095	800025e0	ff9ff4ef	jal	x9,800025e0	  x9=0x800025e0
       40975000	      4096	00000000	00000013	addi	x0,x0,0	  x0:0x00000000
       40985000	      4097	800025d4	00000013	addi	x0,x0,0	  x0:0x00000000
       40995000	      4098	800025d8	00c000ef	jal	x1,800025d8	  x1=0x800025d8
       41005000	      4099	00000000	00000013	addi	x0,x0,0	  x0:0x00000000
       41015000	      4100	800025e0	00000013	addi	x0,x0,0	  x0:0x00000000
       41025000	      4101	800025e4	018000ef	jal	x1,800025e4	  x1=0x800025e4
       41035000	      4102	00000000	00000013	addi	x0,x0,0	  x0:0x00000000
       41045000	      4103	800025f8	00000013	addi	x0,x0,0	  x0:0x00000000
       41055000	      4104	800025fc	ff9ff0ef	jal	x1,800025fc	  x1=0x800025fc
       41065000	      4105	00000000	00000013	addi	x0,x0,0	  x0:0x00000000
       41075000	      4106	800025f0	00000013	addi	x0,x0,0	  x0:0x00000000
       41085000	      4107	800025f4	fbdff36f	jal	x6,800025f4	  x6=0x800025f4
       41095000	      4108	00000000	00000013	addi	x0,x0,0	  x0:0x00000000
       41105000	      4109	800025ac	00000013	addi	x0,x0,0	  x0:0x00000000
       41115000	      4110	800025b0	0380036f	jal	x6,800025b0	  x6=0x800025b0
       41125000	      4111	00000000	00000013	addi	x0,x0,0	  x0:0x00000000
       41135000	      4112	800025e4	00000013	addi	x0,x0,0	  x0:0x00000000
       41145000	      4113	800025e8	fc5ff6ef	jal	x13,800025e8	 x13=0x800025e8
       41155000	      4114	00000000	00000013	addi	x0,x0,0	  x0:0x00000000
       41165000	      4115	800025a8	00000013	addi	x0,x0,0	  x0:0x00000000
       41175000	      4116	800025ac	0300046f	jal	x8,800025ac	  x8=0x800025ac
       41185000	      4117	00000000	00000013	addi	x0,x0,0	  x0:0x00000000
       41195000	      4118	800025d8	00000013	addi	x0,x0,0	  x0:0x00000000
       41205000	      4119	800025dc	010000ef	jal	x1,800025dc	  x1=0x800025dc
       41215000	      4120	00000000	00000013	addi	x0,x0,0	  x0:0x00000000
       41225000	      4121	800025e8	00000013	addi	x0,x0,0	  x0:0x00000000
       41235000	      4122	800025ec	fd5ff16f	jal	x2,800025ec	  x2=0x800025ec
       41245000	      4123	00000000	00000013	addi	x0,x0,0	  x0:0x00000000
       41255000	      4124	800025bc	00000013	addi	x0,x0,0	  x0:0x00000000
       41265000	      4125	800025c0	0080036f	jal	x6,800025c0	  x6=0x800025c0
       41275000	      4126	00000000	00000013	addi	x0,x0,0	  x0:0x00000000
       41285000	      4127	800025c4	00000013	addi	x0,x0,0	  x0:0x00000000
       41295000	      4128	800025c8	ff1ff0ef	jal	x1,800025c8	  x1=0x800025c8
       41305000	      4129	00000000	00000013	addi	x0,x0,0	  x0:0x00000000
       41315000	      4130	800025b4	00000013	addi	x0,x0,0	  x0:0x00000000
       41325000	      4131	800025b8	01c0026f	jal	x4,800025b8	  x4=0x800025b8
       41335000	      4132	00000000	00000013	addi	x0,x0,0	  x0:0x00000000
       41345000	      4133	800025d0	00000013	addi	x0,x0,0	  x0:0x00000000
       41355000	      4134	800025d4	fe1ff36f	jal	x6,800025d4	  x6=0x800025d4
       41365000	      4135	00000000	00000013	addi	x0,x0,0	  x0:0x00000000
       41375000	      4136	800025b0	00000013	addi	x0,x0,0	  x0:0x00000000
       41385000	      4137	800025b4	04c003ef	jal	x7,800025b4	  x7=0x800025b4
       41395000	      4138	00000000	00000013	addi	x0,x0,0	  x0:0x00000000
       41405000	      4139	800025fc	00000013	addi	x0,x0,0	  x0:0x00000000
       41415000	      4140	80002600	3633ce93	xori	x29,x7,867	  x7:0x800025b4 x29=0x800026d7
       41425000	      4141	80002604	004000ef	jal	x1,80002604	  x1=0x80002604
       41435000	      4142	00000000	00000013	addi	x0,x0,0	  x0:0x00000000
       41445000	      4143	80002604	00000013	addi	x0,x0,0	  x0:0x00000000
       41455000	      4144	80002608	0500036f	jal	x6,80002608	  x6=0x80002608
       41465000	      4145	00000000	00000013	addi	x0,x0,0	  x0:0x00000000
       41475000	      4146	80002654	00000013	addi	x0,x0,0	  x0:0x00000000
       41485000	      4147	80002658	fb5ff2ef	jal	x5,80002658	  x5=0x80002658
       41495000	      4148	00000000	00000013	addi	x0,x0,0	  x0:0x00000000
       41505000	      4149	80002608	00000013	addi	x0,x0,0	  x0:0x00000000
       41515000	      4150	8000260c	0200036f	jal	x6,8000260c	  x6=0x8000260c
       41525000	      4151	00000000	00000013	addi	x0,x0,0	  x0:0x00000000
       41535000	      4152	80002628	00000013	addi	x0,x0,0	  x0:0x00000000
       41545000	      4153	8000262c	ff1ff36f	jal	x6,8000262c	  x6=0x8000262c
       41555000	      4154	00000000	00000013	addi	x0,x0,0	  x0:0x00000000
       41565000	      4155	80002618	00000013	addi	x0,x0,0	  x0:0x00000000
       41575000	      4156	8000261c	01c000ef	jal	x1,8000261c	  x1=0x8000261c
       41585000	      4157	00000000	00000013	addi	x0,x0,0	  x0:0x00000000
       41595000	      4158	80002634	00000013	addi	x0,x0,0	  x0:0x00000000
       41605000	      4159	80002638	fedff0ef	jal	x1,80002638	  x1=0x80002638
       41615000	      4160	00000000	00000013	addi	x0,x0,0	  x0:0x00000000
       41625000	      4161	80002620	00000013	addi	x0,x0,0	  x0:0x00000000
       41635000	      4162	80002624	020000ef	jal	x1,80002624	  x1=0x80002624
       41645000	      4163	00000000	00000013	addi	x0,x0,0	  x0:0x00000000
       41655000	      4164	80002640	00000013	addi	x0,x0,0	  x0:0x00000000
       41665000	      4165	80002644	0100036f	jal	x6,80002644	  x6=0x80002644
       41675000	      4166	00000000	00000013	addi	x0,x0,0	  x0:0x00000000
       41685000	      4167	80002650	00000013	addi	x0,x0,0	  x0:0x00000000
       41695000	      4168	80002654	010000ef	jal	x1,80002654	  x1=0x80002654
       41705000	      4169	00000000	00000013	addi	x0,x0,0	  x0:0x00000000
       41715000	      4170	80002660	00000013	addi	x0,x0,0	  x0:0x00000000
       41725000	      4171	80002664	fd1ff0ef	jal	x1,80002664	  x1=0x80002664
       41735000	      4172	00000000	00000013	addi	x0,x0,0	  x0:0x00000000
       41745000	      4173	80002630	00000013	addi	x0,x0,0	  x0:0x00000000
       41755000	      4174	80002634	02c0036f	jal	x6,80002634	  x6=0x80002634
       41765000	      4175	00000000	00000013	addi	x0,x0,0	  x0:0x00000000
       41775000	      4176	8000265c	00000013	addi	x0,x0,0	  x0:0x00000000
       41785000	      4177	80002660	fb5ff1ef	jal	x3,80002660	  x3=0x80002660
       41795000	      4178	00000000	00000013	addi	x0,x0,0	  x0:0x00000000
       41805000	      4179	80002610	00000013	addi	x0,x0,0	  x0:0x00000000
       41815000	      4180	80002614	00c000ef	jal	x1,80002614	  x1=0x80002614
       41825000	      4181	00000000	00000013	addi	x0,x0,0	  x0:0x00000000
       41835000	      4182	8000261c	00000013	addi	x0,x0,0	  x0:0x00000000
       41845000	      4183	80002620	020000ef	jal	x1,80002620	  x1=0x80002620
       41855000	      4184	00000000	00000013	addi	x0,x0,0	  x0:0x00000000
       41865000	      4185	8000263c	00000013	addi	x0,x0,0	  x0:0x00000000
       41875000	      4186	80002640	00c0036f	jal	x6,80002640	  x6=0x80002640
       41885000	      4187	00000000	00000013	addi	x0,x0,0	  x0:0x00000000
       41895000	      4188	80002648	00000013	addi	x0,x0,0	  x0:0x00000000
       41905000	      4189	8000264c	ff1ff3ef	jal	x7,8000264c	  x7=0x8000264c
       41915000	      4190	00000000	00000013	addi	x0,x0,0	  x0:0x00000000
       41925000	      4191	80002638	00000013	addi	x0,x0,0	  x0:0x00000000
       41935000	      4192	8000263c	ff5ff0ef	jal	x1,8000263c	  x1=0x8000263c
       41945000	      4193	00000000	00000013	addi	x0,x0,0	  x0:0x00000000
       41955000	      4194	8000262c	00000013	addi	x0,x0,0	  x0:0x00000000
       41965000	      4195	80002630	02000def	jal	x27,80002630	 x27=0x80002630
       41975000	      4196	00000000	00000013	addi	x0,x0,0	  x0:0x00000000
       41985000	      4197	8000264c	00000013	addi	x0,x0,0	  x0:0x00000000
       41995000	      4198	80002650	ff9ff0ef	jal	x1,80002650	  x1=0x80002650
       42005000	      4199	00000000	00000013	addi	x0,x0,0	  x0:0x00000000
       42015000	      4200	80002644	00000013	addi	x0,x0,0	  x0:0x00000000
       42025000	      4201	80002648	fd1ff0ef	jal	x1,80002648	  x1=0x80002648
       42035000	      4202	00000000	00000013	addi	x0,x0,0	  x0:0x00000000
       42045000	      4203	80002614	00000013	addi	x0,x0,0	  x0:0x00000000
       42055000	      4204	80002618	044008ef	jal	x17,80002618	 x17=0x80002618
       42065000	      4205	00000000	00000013	addi	x0,x0,0	  x0:0x00000000
       42075000	      4206	80002658	00000013	addi	x0,x0,0	  x0:0x00000000
       42085000	      4207	8000265c	fcdff36f	jal	x6,8000265c	  x6=0x8000265c
       42095000	      4208	00000000	00000013	addi	x0,x0,0	  x0:0x00000000
       42105000	      4209	80002624	00000013	addi	x0,x0,0	  x0:0x00000000
       42115000	      4210	80002628	040000ef	jal	x1,80002628	  x1=0x80002628
       42125000	      4211	00000000	00000013	addi	x0,x0,0	  x0:0x00000000
       42135000	      4212	80002664	00000013	addi	x0,x0,0	  x0:0x00000000
       42145000	      4213	80002668	fa9ffb6f	jal	x22,80002668	 x22=0x80002668
       42155000	      4214	00000000	00000013	addi	x0,x0,0	  x0:0x00000000
       42165000	      4215	8000260c	00000013	addi	x0,x0,0	  x0:0x00000000
       42175000	      4216	80002610	05c004ef	jal	x9,80002610	  x9=0x80002610
       42185000	      4217	00000000	00000013	addi	x0,x0,0	  x0:0x00000000
       42195000	      4218	80002668	00000013	addi	x0,x0,0	  x0:0x00000000
       42205000	      4219	8000266c	00dfe733	or	x14,x31,x13	 x31:0x75e05000 x13:0x800025e8 x14=0xf5e075e8
       42215000	      4220	80002670	054000ef	jal	x1,80002670	  x1=0x80002670
       42225000	      4221	00000000	00000013	addi	x0,x0,0	  x0:0x00000000
       42235000	      4222	800026c0	00000013	addi	x0,x0,0	  x0:0x00000000
       42245000	      4223	800026c4	00c000ef	jal	x1,800026c4	  x1=0x800026c4
       42255000	      4224	00000000	00000013	addi	x0,x0,0	  x0:0x00000000
       42265000	      4225	800026cc	00000013	addi	x0,x0,0	  x0:0x00000000
       42275000	      4226	800026d0	fe9ff0ef	jal	x1,800026d0	  x1=0x800026d0
       42285000	      4227	00000000	00000013	addi	x0,x0,0	  x0:0x00000000
       42295000	      4228	800026b4	00000013	addi	x0,x0,0	  x0:0x00000000
       42305000	      4229	800026b8	fddff0ef	jal	x1,800026b8	  x1=0x800026b8
       42315000	      4230	00000000	00000013	addi	x0,x0,0	  x0:0x00000000
       42325000	      4231	80002690	00000013	addi	x0,x0,0	  x0:0x00000000
       42335000	      4232	80002694	02c006ef	jal	x13,80002694	 x13=0x80002694
       42345000	      4233	00000000	00000013	addi	x0,x0,0	  x0:0x00000000
       42355000	      4234	800026bc	00000013	addi	x0,x0,0	  x0:0x00000000
       42365000	      4235	800026c0	fb9ff0ef	jal	x1,800026c0	  x1=0x800026c0
       42375000	      4236	00000000	00000013	addi	x0,x0,0	  x0:0x00000000
       42385000	      4237	80002674	00000013	addi	x0,x0,0	  x0:0x00000000
       42395000	      4238	80002678	010000ef	jal	x1,80002678	  x1=0x80002678
       42405000	      4239	00000000	00000013	addi	x0,x0,0	  x0:0x00000000
       42415000	      4240	80002684	00000013	addi	x0,x0,0	  x0:0x00000000
       42425000	      4241	80002688	004000ef	jal	x1,80002688	  x1=0x80002688
       42435000	      4242	00000000	00000013	addi	x0,x0,0	  x0:0x00000000
       42445000	      4243	80002688	00000013	addi	x0,x0,0	  x0:0x00000000
       42455000	      4244	8000268c	014000ef	jal	x1,8000268c	  x1=0x8000268c
       42465000	      4245	00000000	00000013	addi	x0,x0,0	  x0:0x00000000
       42475000	      4246	8000269c	00000013	addi	x0,x0,0	  x0:0x00000000
       42485000	      4247	800026a0	0040086f	jal	x16,800026a0	 x16=0x800026a0
       42495000	      4248	00000000	00000013	addi	x0,x0,0	  x0:0x00000000
       42505000	      4249	800026a0	00000013	addi	x0,x0,0	  x0:0x00000000
       42515000	      4250	800026a4	ff9ff36f	jal	x6,800026a4	  x6=0x800026a4
       42525000	      4251	00000000	00000013	addi	x0,x0,0	  x0:0x00000000
       42535000	      4252	80002698	00000013	addi	x0,x0,0	  x0:0x00000000
       42545000	      4253	8000269c	038000ef	jal	x1,8000269c	  x1=0x8000269c
       42555000	      4254	00000000	00000013	addi	x0,x0,0	  x0:0x00000000
       42565000	      4255	800026d0	00000013	addi	x0,x0,0	  x0:0x00000000
       42575000	      4256	800026d4	fe1ff0ef	jal	x1,800026d4	  x1=0x800026d4
       42585000	      4257	00000000	00000013	addi	x0,x0,0	  x0:0x00000000
       42595000	      4258	800026b0	00000013	addi	x0,x0,0	  x0:0x00000000
       42605000	      4259	800026b4	008000ef	jal	x1,800026b4	  x1=0x800026b4
       42615000	      4260	00000000	00000013	addi	x0,x0,0	  x0:0x00000000
       42625000	      4261	800026b8	00000013	addi	x0,x0,0	  x0:0x00000000
       42635000	      4262	800026bc	00c000ef	jal	x1,800026bc	  x1=0x800026bc
       42645000	      4263	00000000	00000013	addi	x0,x0,0	  x0:0x00000000
       42655000	      4264	800026c4	00000013	addi	x0,x0,0	  x0:0x00000000
       42665000	      4265	800026c8	fb9fffef	jal	x31,800026c8	 x31=0x800026c8
       42675000	      4266	00000000	00000013	addi	x0,x0,0	  x0:0x00000000
       42685000	      4267	8000267c	00000013	addi	x0,x0,0	  x0:0x00000000
       42695000	      4268	80002680	028000ef	jal	x1,80002680	  x1=0x80002680
       42705000	      4269	00000000	00000013	addi	x0,x0,0	  x0:0x00000000
       42715000	      4270	800026a4	00000013	addi	x0,x0,0	  x0:0x00000000
       42725000	      4271	800026a8	fe9ff36f	jal	x6,800026a8	  x6=0x800026a8
       42735000	      4272	00000000	00000013	addi	x0,x0,0	  x0:0x00000000
       42745000	      4273	8000268c	00000013	addi	x0,x0,0	  x0:0x00000000
       42755000	      4274	80002690	03c0046f	jal	x8,80002690	  x8=0x80002690
       42765000	      4275	00000000	00000013	addi	x0,x0,0	  x0:0x00000000
       42775000	      4276	800026c8	00000013	addi	x0,x0,0	  x0:0x00000000
       42785000	      4277	800026cc	fe1ff36f	jal	x6,800026cc	  x6=0x800026cc
       42795000	      4278	00000000	00000013	addi	x0,x0,0	  x0:0x00000000
       42805000	      4279	800026a8	00000013	addi	x0,x0,0	  x0:0x00000000
       42815000	      4280	800026ac	fd9ff0ef	jal	x1,800026ac	  x1=0x800026ac
       42825000	      4281	00000000	00000013	addi	x0,x0,0	  x0:0x00000000
       42835000	      4282	80002680	00000013	addi	x0,x0,0	  x0:0x00000000
       42845000	      4283	80002684	014000ef	jal	x1,80002684	  x1=0x80002684
       42855000	      4284	00000000	00000013	addi	x0,x0,0	  x0:0x00000000
       42865000	      4285	80002694	00000013	addi	x0,x0,0	  x0:0x00000000
       42875000	      4286	80002698	fe5fffef	jal	x31,80002698	 x31=0x80002698
       42885000	      4287	00000000	00000013	addi	x0,x0,0	  x0:0x00000000
       42895000	      4288	80002678	00000013	addi	x0,x0,0	  x0:0x00000000
       42905000	      4289	8000267c	034000ef	jal	x1,8000267c	  x1=0x8000267c
       42915000	      4290	00000000	00000013	addi	x0,x0,0	  x0:0x00000000
       42925000	      4291	800026ac	00000013	addi	x0,x0,0	  x0:0x00000000
       42935000	      4292	800026b0	fc5ff0ef	jal	x1,800026b0	  x1=0x800026b0
       42945000	      4293	00000000	00000013	addi	x0,x0,0	  x0:0x00000000
       42955000	      4294	80002670	00000013	addi	x0,x0,0	  x0:0x00000000
       42965000	      4295	80002674	064000ef	jal	x1,80002674	  x1=0x80002674
       42975000	      4296	00000000	00000013	addi	x0,x0,0	  x0:0x00000000
       42985000	      4297	800026d4	00000013	addi	x0,x0,0	  x0:0x00000000
       42995000	      4298	800026d8	015da933	slt	x18,x27,x21	 x27:0x80002630 x21:0x80002448 x18=0x00000000
       43005000	      4299	800026dc	001dbdb3	sltu	x27,x27,x1	 x27:0x80002630  x1:0x80002674 x27=0x00000001
       43015000	      4300	800026e0	0145f833	and	x16,x11,x20	 x11:0x800023e0 x20:0x80009f78 x16=0x80000360
       43025000	      4301	800026e4	01ef9813	slli	x16,x31,0x1e	 x31:0x80002698 x16=0x00000000
       43035000	      4302	800026e8	03179c63	bne	x15,x17,80002720	 x15:0x00000000 x17:0x80002618
       43045000	      4303	00000000	00000013	addi	x0,x0,0	  x0:0x00000000
       43055000	      4304	8000271c	00000013	addi	x0,x0,0	  x0:0x00000000
       43065000	      4305	80002720	027de263	bltu	x27,x7,80002744	 x27:0x00000001  x7:0x8000264c
       43075000	      4306	00000000	00000013	addi	x0,x0,0	  x0:0x00000000
       43085000	      4307	80002740	00000013	addi	x0,x0,0	  x0:0x00000000
       43095000	      4308	80002744	2beafc93	andi	x25,x21,702	 x21:0x80002448 x25=0x00000008
       43105000	      4309	80002748	011f8833	add	x16,x31,x17	 x31:0x80002698 x17:0x80002618 x16=0x00004cb0
       43115000	      4310	8000274c	013e8463	beq	x29,x19,80002754	 x29:0x800026d7 x19:0x800024c8
       43125000	      4311	80002750	279ff4b7	lui	x9,0x279ff	  x9=0x279ff000
       43135000	      4312	80002754	01c8dc63	bge	x17,x28,8000276c	 x17:0x80002618 x28:0x8000229c
       43145000	      4313	00000000	00000013	addi	x0,x0,0	  x0:0x00000000
       43155000	      4314	80002768	00000013	addi	x0,x0,0	  x0:0x00000000
       43165000	      4315	8000276c	0040f733	and	x14,x1,x4	  x1:0x80002674  x4:0x800025b8 x14=0x80002430
       43175000	      4316	80002770	003a2933	slt	x18,x20,x3	 x20:0x80009f78  x3:0x80002660 x18=0x00000000
       43185000	      4317	80002774	4137d1b3	sra	x3,x15,x19	 x15:0x00000000 x19:0x800024c8  x3=0x00000000
       43195000	      4318	80002778	4011d893	srai	x17,x3,0x1	  x3:0x00000000 x17=0x00000000
       43205000	      4319	8000277c	011b9e63	bne	x23,x17,80002798	 x23:0x800024d0 x17:0x00000000
       43215000	      4320	00000000	00000013	addi	x0,x0,0	  x0:0x00000000
       43225000	      4321	80002794	00000013	addi	x0,x0,0	  x0:0x00000000
       43235000	      4322	80002798	00da6333	or	x6,x20,x13	 x20:0x80009f78 x13:0x80002694  x6=0x8000bffc
       43245000	      4323	8000279c	00bf9133	sll	x2,x31,x11	 x31:0x80002698 x11:0x800023e0  x2=0x80002698
       43255000	      4324	800027a0	01c96e63	bltu	x18,x28,800027bc	 x18:0x00000000 x28:0x8000229c
       43265000	      4325	00000000	00000013	addi	x0,x0,0	  x0:0x00000000
       43275000	      4326	800027b8	00000013	addi	x0,x0,0	  x0:0x00000000
       43285000	      4327	800027bc	006a7ab3	and	x21,x20,x6	 x20:0x80009f78  x6:0x8000bffc x21=0x80009f78
       43295000	      4328	800027c0	00621693	slli	x13,x4,0x6	  x4:0x800025b8 x13=0x00096e00
       43305000	      4329	800027c4	00bfa2b3	slt	x5,x31,x11	 x31:0x80002698 x11:0x800023e0  x5=0x00000000
       43315000	      4330	800027c8	56facf93	xori	x31,x21,1391	 x21:0x80009f78 x31=0x80009a17
       43325000	      4331	800027cc	02229e63	bne	x5,x2,80002808	  x5:0x00000000  x2:0x80002698
       43335000	      4332	00000000	00000013	addi	x0,x0,0	  x0:0x00000000
       43345000	      4333	80002804	00000013	addi	x0,x0,0	  x0:0x00000000
       43355000	      4334	80002808	417e5b33	sra	x22,x28,x23	 x28:0x8000229c x23:0x800024d0 x22=0xffff8000
       43365000	      4335	8000280c	04a0d663	bge	x1,x10,80002858	  x1:0x80002674 x10:0x9d57209d
       43375000	      4336	80002810	01958333	add	x6,x11,x25	 x11:0x800023e0 x25:0x00000008  x6=0x800023e8
       43385000	      4337	80002814	dd433e93	sltiu	x29,x6,-556	  x6:0x800023e8 x29=0x00000001
       43395000	      4338	80002818	40b05093	srai	x1,x0,0xb	  x0:0x00000000  x1=0x00000000
       43405000	      4339	8000281c	03785a63	bge	x16,x23,80002850	 x16:0x00004cb0 x23:0x800024d0
       43415000	      4340	00000000	00000013	addi	x0,x0,0	  x0:0x00000000
       43425000	      4341	8000284c	00000013	addi	x0,x0,0	  x0:0x00000000
       43435000	      4342	80002850	4d570493	addi	x9,x14,1237	 x14:0x80002430  x9=0x80002905
       43445000	      4343	80002854	402fd493	srai	x9,x31,0x2	 x31:0x80009a17  x9=0xe0002685
       43455000	      4344	80002858	4a9d8b17	auipc	x22,0x4a9d8	 x22=0xca9da854
       43465000	      4345	8000285c	00390463	beq	x18,x3,80002864	 x18:0x00000000  x3:0x00000000
       43475000	      4346	00000000	00000013	addi	x0,x0,0	  x0:0x00000000
       43485000	      4347	80002860	00000013	addi	x0,x0,0	  x0:0x00000000
       43495000	      4348	80002864	007092b3	sll	x5,x1,x7	  x1:0x00000000  x7:0x8000264c  x5=0x00000000
       43505000	      4349	80002868	c548ca93	xori	x21,x17,-940	 x17:0x00000000 x21=0xfffffc54
       43515000	      4350	8000286c	002380b3	add	x1,x7,x2	  x7:0x8000264c  x2:0x80002698  x1=0x00004ce4
       43525000	      4351	80002870	00f89eb3	sll	x29,x17,x15	 x17:0x00000000 x15:0x00000000 x29=0x00000000
       43535000	      4352	80002874	d9437993	andi	x19,x6,-620	  x6:0x800023e8 x19=0x80002180
       43545000	      4353	80002878	5c41fb37	lui	x22,0x5c41f	 x22=0x5c41f000
       43555000	      4354	8000287c	018caeb3	slt	x29,x25,x24	 x25:0x00000008 x24:0x75e05000 x29=0x00000001
       43565000	      4355	80002880	0164b1b3	sltu	x3,x9,x22	  x9:0xe0002685 x22:0x5c41f000  x3=0x00000000
       43575000	      4356	80002884	00000013	addi	x0,x0,0	  x0:0x00000000
       43585000	      4357	80002888	00990263	beq	x18,x9,8000288c	 x18:0x00000000  x9:0xe0002685
       43595000	      4358	8000288c	00041ab3	sll	x21,x8,x0	  x8:0x80002690  x0:0x00000000 x21=0x80002690
       43605000	      4359	80002890	41b40233	sub	x4,x8,x27	  x8:0x80002690 x27:0x00000001  x4=0x8000268f
       43615000	      4360	80002894	00674863	blt	x14,x6,800028a4	 x14:0x80002430  x6:0x800023e8
       43625000	      4361	80002898	b908cb37	lui	x22,0xb908c	 x22=0xb908c000
       43635000	      4362	8000289c	00000013	addi	x0,x0,0	  x0:0x00000000
       43645000	      4363	800028a0	9ed4dfb7	lui	x31,0x9ed4d	 x31=0x9ed4d000
       43655000	      4364	800028a4	c1fdcc13	xori	x24,x27,-993	 x27:0x00000001 x24=0xfffffc1e
       43665000	      4365	800028a8	01cb7433	and	x8,x22,x28	 x22:0xb908c000 x28:0x8000229c  x8=0x80000000
       43675000	      4366	800028ac	40785193	srai	x3,x16,0x7	 x16:0x00004cb0  x3=0x00000099
       43685000	      4367	800028b0	03c41663	bne	x8,x28,800028dc	  x8:0x80000000 x28:0x8000229c
       43695000	      4368	00000000	00000013	addi	x0,x0,0	  x0:0x00000000
       43705000	      4369	800028d8	00000013	addi	x0,x0,0	  x0:0x00000000
       43715000	      4370	800028dc	02a9f663	bgeu	x19,x10,80002908	 x19:0x80002180 x10:0x9d57209d
       43725000	      4371	800028e0	00618463	beq	x3,x6,800028e8	  x3:0x00000099  x6:0x800023e8
       43735000	      4372	800028e4	211a5db7	lui	x27,0x211a5	 x27=0x211a5000
       43745000	      4373	800028e8	4099d2b3	sra	x5,x19,x9	 x19:0x80002180  x9:0xe0002685  x5=0xfc00010c
       43755000	      4374	800028ec	00000013	addi	x0,x0,0	  x0:0x00000000
       43765000	      4375	800028f0	01de9263	bne	x29,x29,800028f4	 x29:0x00000001 x29:0x00000001
       43775000	      4376	800028f4	01addc13	srli	x24,x27,0x1a	 x27:0x211a5000 x24=0x00000008
       43785000	      4377	800028f8	611c6893	ori	x17,x24,1553	 x24:0x00000008 x17=0x00000619
       43795000	      4378	800028fc	00000013	addi	x0,x0,0	  x0:0x00000000
       43805000	      4379	80002900	02c67063	bgeu	x12,x12,80002920	 x12:0x00000000 x12:0x00000000
       43815000	      4380	00000000	00000013	addi	x0,x0,0	  x0:0x00000000
       43825000	      4381	8000291c	00000013	addi	x0,x0,0	  x0:0x00000000
       43835000	      4382	80002920	01afd4b3	srl	x9,x31,x26	 x31:0x9ed4d000 x26:0x8000244c  x9=0x0009ed4d
       43845000	      4383	80002924	042d1063	bne	x26,x2,80002964	 x26:0x8000244c  x2:0x80002698
       43855000	      4384	00000000	00000013	addi	x0,x0,0	  x0:0x00000000
       43865000	      4385	80002960	00000013	addi	x0,x0,0	  x0:0x00000000
       43875000	      4386	80002964	04436063	bltu	x6,x4,800029a4	  x6:0x800023e8  x4:0x8000268f
       43885000	      4387	00000000	00000013	addi	x0,x0,0	  x0:0x00000000
       43895000	      4388	800029a0	00000013	addi	x0,x0,0	  x0:0x00000000
       43905000	      4389	800029a4	dcd57713	andi	x14,x10,-563	 x10:0x9d57209d x14=0x9d57208d
       43915000	      4390	800029a8	00000013	addi	x0,x0,0	  x0:0x00000000
       43925000	      4391	800029ac	01c0a233	slt	x4,x1,x28	  x1:0x00004ce4 x28:0x8000229c  x4=0x00000000
       43935000	      4392	800029b0	01ea0733	add	x14,x20,x30	 x20:0x80009f78 x30:0x80009fc4 x14=0x00013f3c
       43945000	      4393	800029b4	00bc9593	slli	x11,x25,0xb	 x25:0x00000008 x11=0x00004000
       43955000	      4394	800029b8	40b6d1b3	sra	x3,x13,x11	 x13:0x00096e00 x11:0x00004000  x3=0x00096e00
       43965000	      4395	800029bc	7f7d4713	xori	x14,x26,2039	 x26:0x8000244c x14=0x800023bb
       43975000	      4396	800029c0	012e45b3	xor	x11,x28,x18	 x28:0x8000229c x18:0x00000000 x11=0x8000229c
       43985000	      4397	800029c4	00bb4cb3	xor	x25,x22,x11	 x22:0xb908c000 x11:0x8000229c x25=0x3908e29c
       43995000	      4398	800029c8	01e8f933	and	x18,x17,x30	 x17:0x00000619 x30:0x80009fc4 x18=0x00000600
       44005000	      4399	800029cc	8cb22a97	auipc	x21,0x8cb22	 x21=0x0cb249c8
       44015000	      4400	800029d0	152d8413	addi	x8,x27,338	 x27:0x211a5000  x8=0x211a5152
       44025000	      4401	800029d4	6a3cad93	slti	x27,x25,1699	 x25:0x3908e29c x27=0x00000000
       44035000	      4402	800029d8	6e1da913	slti	x18,x27,1761	 x27:0x00000000 x18=0x00000001
       44045000	      4403	800029dc	006408b3	add	x17,x8,x6	  x8:0x211a5152  x6:0x800023e8 x17=0xa11a753a
       44055000	      4404	800029e0	7b51bf97	auipc	x31,0x7b51b	 x31=0xfb51d9dc
       44065000	      4405	800029e4	00000013	addi	x0,x0,0	  x0:0x00000000
       44075000	      4406	800029e8	02a1f263	bgeu	x3,x10,80002a0c	  x3:0x00096e00 x10:0x9d57209d
       44085000	      4407	800029ec	00ce9013	slli	x0,x29,0xc	 x29:0x00000001
       44095000	      4408	800029f0	019d2033	slt	x0,x26,x25	 x26:0x8000244c x25:0x3908e29c
       44105000	      4409	800029f4	00b3f133	and	x2,x7,x11	  x7:0x8000264c x11:0x8000229c  x2=0x8000220c
       44115000	      4410	800029f8	01a60a63	beq	x12,x26,80002a0c	 x12:0x00000000 x26:0x8000244c
       44125000	      4411	800029fc	0047d113	srli	x2,x15,0x4	 x15:0x00000000  x2=0x00000000
       44135000	      4412	80002a00	060e6c63	bltu	x28,x0,80002a78	 x28:0x8000229c  x0:0x00000000
       44145000	      4413	80002a04	405f51b3	sra	x3,x30,x5	 x30:0x80009fc4  x5:0xfc00010c  x3=0xfff80009
       44155000	      4414	80002a08	40e55433	sra	x8,x10,x14	 x10:0x9d57209d x14:0x800023bb  x8=0xfffffff3
       44165000	      4415	80002a0c	00fd75b3	and	x11,x26,x15	 x26:0x8000244c x15:0x00000000 x11=0x00000000
       44175000	      4416	80002a10	01f38fb3	add	x31,x7,x31	  x7:0x8000264c x31:0xfb51d9dc x31=0x7b520028
       44185000	      4417	80002a14	010b7d33	and	x26,x22,x16	 x22:0xb908c000 x16:0x00004cb0 x26=0x00004000
       44195000	      4418	80002a18	007ed433	srl	x8,x29,x7	 x29:0x00000001  x7:0x8000264c  x8=0x00000000
       44205000	      4419	80002a1c	051d0e63	beq	x26,x17,80002a78	 x26:0x00004000 x17:0xa11a753a
       44215000	      4420	80002a20	e1563493	sltiu	x9,x12,-491	 x12:0x00000000  x9=0x00000001
       44225000	      4421	80002a24	13560a93	addi	x21,x12,309	 x12:0x00000000 x21=0x00000135
       44235000	      4422	80002a28	581da313	slti	x6,x27,1409	 x27:0x00000000  x6=0x00000001
       44245000	      4423	80002a2c	40790533	sub	x10,x18,x7	 x18:0x00000001  x7:0x8000264c x10=0x7fffd9b5
       44255000	      4424	80002a30	0751d463	bge	x3,x21,80002a98	  x3:0xfff80009 x21:0x00000135
       44265000	      4425	80002a34	0134a033	slt	x0,x9,x19	  x9:0x00000001 x19:0x80002180
       44275000	      4426	80002a38	069b9063	bne	x23,x9,80002a98	 x23:0x800024d0  x9:0x00000001
       44285000	      4427	00000000	00000013	addi	x0,x0,0	  x0:0x00000000
       44295000	      4428	80002a94	00000013	addi	x0,x0,0	  x0:0x00000000
       44305000	      4429	80002a98	0194d833	srl	x16,x9,x25	  x9:0x00000001 x25:0x3908e29c x16=0x00000000
       44315000	      4430	80002a9c	04066463	bltu	x12,x0,80002ae4	 x12:0x00000000  x0:0x00000000
       44325000	      4431	80002aa0	01091213	slli	x4,x18,0x10	 x18:0x00000001  x4=0x00010000
       44335000	      4432	80002aa4	019b7e63	bgeu	x22,x25,80002ac0	 x22:0xb908c000 x25:0x3908e29c
       44345000	      4433	00000000	00000013	addi	x0,x0,0	  x0:0x00000000
       44355000	      4434	80002abc	00000013	addi	x0,x0,0	  x0:0x00000000
       44365000	      4435	80002ac0	b9c62e13	slti	x28,x12,-1124	 x12:0x00000000 x28=0x00000000
       44375000	      4436	80002ac4	4ab0eb93	ori	x23,x1,1195	  x1:0x00004ce4 x23=0x00004cef
       44385000	      4437	80002ac8	5108bc37	lui	x24,0x5108b	 x24=0x5108b000
       44395000	      4438	80002acc	40cdd7b3	sra	x15,x27,x12	 x27:0x00000000 x12:0x00000000 x15=0x00000000
       44405000	      4439	80002ad0	00e21493	slli	x9,x4,0xe	  x4:0x00010000  x9=0x40000000
       44415000	      4440	80002ad4	00516e63	bltu	x2,x5,80002af0	  x2:0x00000000  x5:0xfc00010c
       44425000	      4441	00000000	00000013	addi	x0,x0,0	  x0:0x00000000
       44435000	      4442	80002aec	00000013	addi	x0,x0,0	  x0:0x00000000
       44445000	      4443	80002af0	00067c63	bgeu	x12,x0,80002b08	 x12:0x00000000  x0:0x00000000
       44455000	      4444	00000000	00000013	addi	x0,x0,0	  x0:0x00000000
       44465000	      4445	80002b04	00000013	addi	x0,x0,0	  x0:0x00000000
       44475000	      4446	80002b08	010d30b3	sltu	x1,x26,x16	 x26:0x00004000 x16:0x00000000  x1=0x00000000
       44485000	      4447	80002b0c	01344bb3	xor	x23,x8,x19	  x8:0x00000000 x19:0x80002180 x23=0x80002180
       44495000	      4448	80002b10	400e8bb3	sub	x23,x29,x0	 x29:0x00000001  x0:0x00000000 x23=0x00000001
       44505000	      4449	80002b14	010c5263	bge	x24,x16,80002b18	 x24:0x5108b000 x16:0x00000000
       44515000	      4450	00000000	00000013	addi	x0,x0,0	  x0:0x00000000
       44525000	      4451	80002b14	00000013	addi	x0,x0,0	  x0:0x00000000
       44535000	      4452	80002b18	029fd463	bge	x31,x9,80002b40	 x31:0x7b520028  x9:0x40000000
       44545000	      4453	00000000	00000013	addi	x0,x0,0	  x0:0x00000000
       44555000	      4454	80002b3c	00000013	addi	x0,x0,0	  x0:0x00000000
       44565000	      4455	80002b40	01b27cb3	and	x25,x4,x27	  x4:0x00010000 x27:0x00000000 x25=0x00000000
       44575000	      4456	80002b44	88929917	auipc	x18,0x88929	 x18=0x0892bb40
       44585000	      4457	80002b48	010a1863	bne	x20,x16,80002b58	 x20:0x80009f78 x16:0x00000000
       44595000	      4458	00000000	00000013	addi	x0,x0,0	  x0:0x00000000
       44605000	      4459	80002b54	00000013	addi	x0,x0,0	  x0:0x00000000
       44615000	      4460	80002b58	014c0433	add	x8,x24,x20	 x24:0x5108b000 x20:0x80009f78  x8=0xd1094f78
       44625000	      4461	80002b5c	01a8c0b3	xor	x1,x17,x26	 x17:0xa11a753a x26:0x00004000  x1=0xa11a353a
       44635000	      4462	80002b60	41f0d4b3	sra	x9,x1,x31	  x1:0xa11a353a x31:0x7b520028  x9=0xffa11a35
       44645000	      4463	80002b64	de3a7213	andi	x4,x20,-541	 x20:0x80009f78  x4=0x80009d60
       44655000	      4464	80002b68	00000013	addi	x0,x0,0	  x0:0x00000000
       44665000	      4465	80002b6c	7d0aa113	slti	x2,x21,2000	 x21:0x00000135  x2=0x00000001
       44675000	      4466	80002b70	04896863	bltu	x18,x8,80002bc0	 x18:0x0892bb40  x8:0xd1094f78
       44685000	      4467	00000000	00000013	addi	x0,x0,0	  x0:0x00000000
       44695000	      4468	80002bbc	00000013	addi	x0,x0,0	  x0:0x00000000
       44705000	      4469	80002bc0	05a6d063	bge	x13,x26,80002c00	 x13:0x00096e00 x26:0x00004000
       44715000	      4470	00000000	00000013	addi	x0,x0,0	  x0:0x00000000
       44725000	      4471	80002bfc	00000013	addi	x0,x0,0	  x0:0x00000000
       44735000	      4472	80002c00	00000013	addi	x0,x0,0	  x0:0x00000000
       44745000	      4473	80002c04	0161ee33	or	x28,x3,x22	  x3:0xfff80009 x22:0xb908c000 x28=0xfff8c009
       44755000	      4474	80002c08	40ff5cb3	sra	x25,x30,x15	 x30:0x80009fc4 x15:0x00000000 x25=0x80009fc4
       44765000	      4475	80002c0c	41b706b3	sub	x13,x14,x27	 x14:0x800023bb x27:0x00000000 x13=0x800023bb
       44775000	      4476	80002c10	00d20433	add	x8,x4,x13	  x4:0x80009d60 x13:0x800023bb  x8=0x0000c11b
       44785000	      4477	80002c14	938b2413	slti	x8,x22,-1736	 x22:0xb908c000  x8=0x00000001
       44795000	      4478	80002c18	f646c713	xori	x14,x13,-156	 x13:0x800023bb x14=0x7fffdcdf
       44805000	      4479	80002c1c	152e0213	addi	x4,x28,338	 x28:0xfff8c009  x4=0xfff8c15b
       44815000	      4480	80002c20	18243093	sltiu	x1,x8,386	  x8:0x00000001  x1=0x00000001
       44825000	      4481	80002c24	8a5a8293	addi	x5,x21,-1883	 x21:0x00000135  x5=0xfffff9da
       44835000	      4482	80002c28	402ddb33	sra	x22,x27,x2	 x27:0x00000000  x2:0x00000001 x22=0x00000000
       44845000	      4483	80002c2c	01309113	slli	x2,x1,0x13	  x1:0x00000001  x2=0x00080000
       44855000	      4484	80002c30	01ba28b3	slt	x17,x20,x27	 x20:0x80009f78 x27:0x00000000 x17=0x00000001
       44865000	      4485	80002c34	9b33ac13	slti	x24,x7,-1613	  x7:0x8000264c x24=0x00000001
       44875000	      4486	80002c38	00000013	addi	x0,x0,0	  x0:0x00000000
       44885000	      4487	80002c3c	d0964097	auipc	x1,0xd0964	  x1=0x50966c38
       44895000	      4488	80002c40	013b95b3	sll	x11,x23,x19	 x23:0x00000001 x19:0x80002180 x11=0x00000001
       44905000	      4489	80002c44	00000013	addi	x0,x0,0	  x0:0x00000000
       44915000	      4490	80002c48	00b1dc13	srli	x24,x3,0xb	  x3:0xfff80009 x24=0x001fff00
       44925000	      4491	80002c4c	00809493	slli	x9,x1,0x8	  x1:0x50966c38  x9=0x966c3800
       44935000	      4492	80002c50	00000013	addi	x0,x0,0	  x0:0x00000000
       44945000	      4493	80002c54	00000013	addi	x0,x0,0	  x0:0x00000000
       44955000	      4494	80002c58	03b69663	bne	x13,x27,80002c84	 x13:0x800023bb x27:0x00000000
       44965000	      4495	00000000	00000013	addi	x0,x0,0	  x0:0x00000000
       44975000	      4496	80002c80	00000013	addi	x0,x0,0	  x0:0x00000000
       44985000	      4497	80002c84	012f9e93	slli	x29,x31,0x12	 x31:0x7b520028 x29=0x00a00000
       44995000	      4498	80002c88	26548913	addi	x18,x9,613	  x9:0x966c3800 x18=0x966c3a65
       45005000	      4499	80002c8c	8b87fb93	andi	x23,x15,-1864	 x15:0x00000000 x23=0x00000000
       45015000	      4500	80002c90	03bce663	bltu	x25,x27,80002cbc	 x25:0x80009fc4 x27:0x00000000
       45025000	      4501	80002c94	01581313	slli	x6,x16,0x15	 x16:0x00000000  x6=0x00000000
       45035000	      4502	80002c98	e3950f93	addi	x31,x10,-455	 x10:0x7fffd9b5 x31=0x7fffd7ee
       45045000	      4503	80002c9c	01e847b3	xor	x15,x16,x30	 x16:0x00000000 x30:0x80009fc4 x15=0x80009fc4
       45055000	      4504	80002ca0	7fdef713	andi	x14,x29,2045	 x29:0x00a00000 x14=0x00000000
       45065000	      4505	80002ca4	e9476e93	ori	x29,x14,-364	 x14:0x00000000 x29=0xfffffe94
       45075000	      4506	80002ca8	00e159b3	srl	x19,x2,x14	  x2:0x00080000 x14:0x00000000 x19=0x00080000
       45085000	      4507	80002cac	01a9a9b3	slt	x19,x19,x26	 x19:0x00080000 x26:0x00004000 x19=0x00000000
       45095000	      4508	80002cb0	4a3dd4b7	lui	x9,0x4a3dd	  x9=0x4a3dd000
       45105000	      4509	80002cb4	01329b93	slli	x23,x5,0x13	  x5:0xfffff9da x23=0xced00000
       45115000	      4510	80002cb8	f207c093	xori	x1,x15,-224	 x15:0x80009fc4  x1=0x7fff60e4
       45125000	      4511	80002cbc	00560e33	add	x28,x12,x5	 x12:0x00000000  x5:0xfffff9da x28=0xfffff9da
       45135000	      4512	80002cc0	001d0c33	add	x24,x26,x1	 x26:0x00004000  x1:0x7fff60e4 x24=0x7fffa0e4
       45145000	      4513	80002cc4	01e2e533	or	x10,x5,x30	  x5:0xfffff9da x30:0x80009fc4 x10=0xffffffde
       45155000	      4514	80002cc8	40ebdab3	sra	x21,x23,x14	 x23:0xced00000 x14:0x00000000 x21=0xced00000
       45165000	      4515	80002ccc	88433793	sltiu	x15,x6,-1916	  x6:0x00000000 x15=0x00000001
       45175000	      4516	80002cd0	036bd263	bge	x23,x22,80002cf4	 x23:0xced00000 x22:0x00000000
       45185000	      4517	80002cd4	00000013	addi	x0,x0,0	  x0:0x00000000
       45195000	      4518	80002cd8	0031d013	srli	x0,x3,0x3	  x3:0xfff80009
       45205000	      4519	80002cdc	d657bc93	sltiu	x25,x15,-667	 x15:0x00000001 x25=0x00000001
       45215000	      4520	80002ce0	416453b3	sra	x7,x8,x22	  x8:0x00000001 x22:0x00000000  x7=0x00000001
       45225000	      4521	80002ce4	0039b533	sltu	x10,x19,x3	 x19:0x00000000  x3:0xfff80009 x10=0x00000001
       45235000	      4522	80002ce8	40fa0bb3	sub	x23,x20,x15	 x20:0x80009f78 x15:0x00000001 x23=0x80009f77
       45245000	      4523	80002cec	018c4333	xor	x6,x24,x24	 x24:0x7fffa0e4 x24:0x7fffa0e4  x6=0x00000000
       45255000	      4524	80002cf0	411707b3	sub	x15,x14,x17	 x14:0x00000000 x17:0x00000001 x15=0xffffffff
       45265000	      4525	80002cf4	00c69e63	bne	x13,x12,80002d10	 x13:0x800023bb x12:0x00000000
       45275000	      4526	00000000	00000013	addi	x0,x0,0	  x0:0x00000000
       45285000	      4527	80002d0c	00000013	addi	x0,x0,0	  x0:0x00000000
       45295000	      4528	80002d10	883c0c13	addi	x24,x24,-1917	 x24:0x7fffa0e4 x24=0x7fff9967
       45305000	      4529	80002d14	61484593	xori	x11,x16,1556	 x16:0x00000000 x11=0x00000614
       45315000	      4530	80002d18	00d9c0b3	xor	x1,x19,x13	 x19:0x00000000 x13:0x800023bb  x1=0x800023bb
       45325000	      4531	80002d1c	9776e493	ori	x9,x13,-1673	 x13:0x800023bb  x9=0xfffffbff
       45335000	      4532	80002d20	016dc263	blt	x27,x22,80002d24	 x27:0x00000000 x22:0x00000000
       45345000	      4533	80002d24	0103e233	or	x4,x7,x16	  x7:0x00000001 x16:0x00000000  x4=0x00000001
       45355000	      4534	80002d28	00000013	addi	x0,x0,0	  x0:0x00000000
       45365000	      4535	80002d2c	01e84db3	xor	x27,x16,x30	 x16:0x00000000 x30:0x80009fc4 x27=0x80009fc4
       45375000	      4536	80002d30	0143f9b3	and	x19,x7,x20	  x7:0x00000001 x20:0x80009f78 x19=0x00000000
       45385000	      4537	80002d34	01ecb8b3	sltu	x17,x25,x30	 x25:0x00000001 x30:0x80009fc4 x17=0x00000001
       45395000	      4538	80002d38	01871293	slli	x5,x14,0x18	 x14:0x00000000  x5=0x00000000
       45405000	      4539	80002d3c	00bc7bb3	and	x23,x24,x11	 x24:0x7fff9967 x11:0x00000614 x23=0x00000004
       45415000	      4540	80002d40	008d76b3	and	x13,x26,x8	 x26:0x00004000  x8:0x00000001 x13=0x00000000
       45425000	      4541	80002d44	05817463	bgeu	x2,x24,80002d8c	  x2:0x00080000 x24:0x7fff9967
       45435000	      4542	80002d48	01545e63	bge	x8,x21,80002d64	  x8:0x00000001 x21:0xced00000
       45445000	      4543	00000000	00000013	addi	x0,x0,0	  x0:0x00000000
       45455000	      4544	80002d60	00000013	addi	x0,x0,0	  x0:0x00000000
       45465000	      4545	80002d64	402205b3	sub	x11,x4,x2	  x4:0x00000001  x2:0x00080000 x11=0xfff80001
       45475000	      4546	80002d68	022cd463	bge	x25,x2,80002d90	 x25:0x00000001  x2:0x00080000
       45485000	      4547	80002d6c	011d3833	sltu	x16,x26,x17	 x26:0x00004000 x17:0x00000001 x16=0x00000000
       45495000	      4548	80002d70	21e65697	auipc	x13,0x21e65	 x13=0xa1e67d6c
       45505000	      4549	80002d74	00048463	beq	x9,x0,80002d7c	  x9:0xfffffbff  x0:0x00000000
       45515000	      4550	80002d78	40e557b3	sra	x15,x10,x14	 x10:0x00000001 x14:0x00000000 x15=0x00000001
       45525000	      4551	80002d7c	01f2a8b3	slt	x17,x5,x31	  x5:0x00000000 x31:0x7fffd7ee x17=0x00000001
       45535000	      4552	80002d80	00000013	addi	x0,x0,0	  x0:0x00000000
       45545000	      4553	80002d84	40d08ab3	sub	x21,x1,x13	  x1:0x800023bb x13:0xa1e67d6c x21=0xde19a64f
       45555000	      4554	80002d88	00973333	sltu	x6,x14,x9	 x14:0x00000000  x9:0xfffffbff  x6=0x00000001
       45565000	      4555	80002d8c	0336c463	blt	x13,x19,80002db4	 x13:0xa1e67d6c x19:0x00000000
       45575000	      4556	00000000	00000013	addi	x0,x0,0	  x0:0x00000000
       45585000	      4557	80002db0	00000013	addi	x0,x0,0	  x0:0x00000000
       45595000	      4558	80002db4	005c5ab3	srl	x21,x24,x5	 x24:0x7fff9967  x5:0x00000000 x21=0x7fff9967
       45605000	      4559	80002db8	018ee0b3	or	x1,x29,x24	 x29:0xfffffe94 x24:0x7fff9967  x1=0xfffffff7
       45615000	      4560	80002dbc	01577e33	and	x28,x14,x21	 x14:0x00000000 x21:0x7fff9967 x28=0x00000000
       45625000	      4561	80002dc0	02418063	beq	x3,x4,80002de0	  x3:0xfff80009  x4:0x00000001
       45635000	      4562	80002dc4	052ce463	bltu	x25,x18,80002e0c	 x25:0x00000001 x18:0x966c3a65
       45645000	      4563	00000000	00000013	addi	x0,x0,0	  x0:0x00000000
       45655000	      4564	80002e08	00000013	addi	x0,x0,0	  x0:0x00000000
       45665000	      4565	80002e0c	01b35cb3	srl	x25,x6,x27	  x6:0x00000001 x27:0x80009fc4 x25=0x00000000
       45675000	      4566	80002e10	005d1e33	sll	x28,x26,x5	 x26:0x00004000  x5:0x00000000 x28=0x00004000
       45685000	      4567	80002e14	01c7ec63	bltu	x15,x28,80002e2c	 x15:0x00000001 x28:0x00004000
       45695000	      4568	00000000	00000013	addi	x0,x0,0	  x0:0x00000000
       45705000	      4569	80002e28	00000013	addi	x0,x0,0	  x0:0x00000000
       45715000	      4570	80002e2c	a0a74797	auipc	x15,0xa0a74	 x15=0x20a76e28
       45725000	      4571	80002e30	01b71f93	slli	x31,x14,0x1b	 x14:0x00000000 x31=0x00000000
       45735000	      4572	80002e34	06ebbb93	sltiu	x23,x23,110	 x23:0x00000004 x23=0x00000001
       45745000	      4573	80002e38	015b5e63	bge	x22,x21,80002e54	 x22:0x00000000 x21:0x7fff9967
       45755000	      4574	80002e3c	1b19d0b7	lui	x1,0x1b19d	  x1=0x1b19d000
       45765000	      4575	80002e40	65eb7113	andi	x2,x22,1630	 x22:0x00000000  x2=0x00000000
       45775000	      4576	80002e44	3bc32717	auipc	x14,0x3bc32	 x14=0xbbc34e40
       45785000	      4577	80002e48	015c4263	blt	x24,x21,80002e4c	 x24:0x7fff9967 x21:0x7fff9967
       45795000	      4578	80002e4c	eb30af93	slti	x31,x1,-333	  x1:0x1b19d000 x31=0x00000000
       45805000	      4579	80002e50	41e95093	srai	x1,x18,0x1e	 x18:0x966c3a65  x1=0xfffffffe
       45815000	      4580	80002e54	00484bb3	xor	x23,x16,x4	 x16:0x00000000  x4:0x00000001 x23=0x00000001
       45825000	      4581	80002e58	1504b893	sltiu	x17,x9,336	  x9:0xfffffbff x17=0x00000000
       45835000	      4582	80002e5c	851b8513	addi	x10,x23,-1967	 x23:0x00000001 x10=0xfffff852
       45845000	      4583	80002e60	00000013	addi	x0,x0,0	  x0:0x00000000
       45855000	      4584	80002e64	00bc72b3	and	x5,x24,x11	 x24:0x7fff9967 x11:0xfff80001  x5=0x7ff80001
       45865000	      4585	80002e68	00da7db3	and	x27,x20,x13	 x20:0x80009f78 x13:0xa1e67d6c x27=0x80001d68
       45875000	      4586	80002e6c	00e94333	xor	x6,x18,x14	 x18:0x966c3a65 x14:0xbbc34e40  x6=0x2daf7425
       45885000	      4587	80002e70	0ef80d93	addi	x27,x16,239	 x16:0x00000000 x27=0x000000ef
       45895000	      4588	80002e74	01b8d8b3	srl	x17,x17,x27	 x17:0x00000000 x27:0x000000ef x17=0x00000000
       45905000	      4589	80002e78	003fe4b3	or	x9,x31,x3	 x31:0x00000000  x3:0xfff80009  x9=0xfff80009
       45915000	      4590	80002e7c	00650eb3	add	x29,x10,x6	 x10:0xfffff852  x6:0x2daf7425 x29=0x2daf6c77
       45925000	      4591	80002e80	89166393	ori	x7,x12,-1903	 x12:0x00000000  x7=0xfffff891
       45935000	      4592	80002e84	01476033	or	x0,x14,x20	 x14:0xbbc34e40 x20:0x80009f78
       45945000	      4593	80002e88	40468833	sub	x16,x13,x4	 x13:0xa1e67d6c  x4:0x00000001 x16=0xa1e67d6b
       45955000	      4594	80002e8c	026a7a63	bgeu	x20,x6,80002ec0	 x20:0x80009f78  x6:0x2daf7425
       45965000	      4595	00000000	00000013	addi	x0,x0,0	  x0:0x00000000
       45975000	      4596	80002ebc	00000013	addi	x0,x0,0	  x0:0x00000000
       45985000	      4597	80002ec0	da8b0813	addi	x16,x22,-600	 x22:0x00000000 x16=0xfffffda8
       45995000	      4598	80002ec4	408b54b3	sra	x9,x22,x8	 x22:0x00000000  x8:0x00000001  x9=0x00000000
       46005000	      4599	80002ec8	230d3037	lui	x0,0x230d3	
       46015000	      4600	80002ecc	00d2d263	bge	x5,x13,80002ed0	  x5:0x7ff80001 x13:0xa1e67d6c
       46025000	      4601	00000000	00000013	addi	x0,x0,0	  x0:0x00000000
       46035000	      4602	80002ecc	00000013	addi	x0,x0,0	  x0:0x00000000
       46045000	      4603	80002ed0	aefe2e93	slti	x29,x28,-1297	 x28:0x00004000 x29=0x00000000
       46055000	      4604	80002ed4	7b57a493	slti	x9,x15,1973	 x15:0x20a76e28  x9=0x00000000
       46065000	      4605	80002ed8	40c75933	sra	x18,x14,x12	 x14:0xbbc34e40 x12:0x00000000 x18=0xbbc34e40
       46075000	      4606	80002edc	be3f0193	addi	x3,x30,-1053	 x30:0x80009fc4  x3=0x80009ba7
       46085000	      4607	80002ee0	01af8db3	add	x27,x31,x26	 x31:0x00000000 x26:0x00004000 x27=0x00004000
       46095000	      4608	80002ee4	04425063	bge	x4,x4,80002f24	  x4:0x00000001  x4:0x00000001
       46105000	      4609	00000000	00000013	addi	x0,x0,0	  x0:0x00000000
       46115000	      4610	80002f20	00000013	addi	x0,x0,0	  x0:0x00000000
       46125000	      4611	80002f24	01e5d833	srl	x16,x11,x30	 x11:0xfff80001 x30:0x80009fc4 x16=0x0fff8000
       46135000	      4612	80002f28	03114263	blt	x2,x17,80002f4c	  x2:0x00000000 x17:0x00000000
       46145000	      4613	80002f2c	004195b3	sll	x11,x3,x4	  x3:0x80009ba7  x4:0x00000001 x11=0x0001374e
       46155000	      4614	80002f30	c6d5b013	sltiu	x0,x11,-915	 x11:0x0001374e
       46165000	      4615	80002f34	00a73d33	sltu	x26,x14,x10	 x14:0xbbc34e40 x10:0xfffff852 x26=0x00000001
       46175000	      4616	80002f38	01f05a63	bge	x0,x31,80002f4c	  x0:0x00000000 x31:0x00000000
       46185000	      4617	00000000	00000013	addi	x0,x0,0	  x0:0x00000000
       46195000	      4618	80002f48	00000013	addi	x0,x0,0	  x0:0x00000000
       46205000	      4619	80002f4c	c07f2b93	slti	x23,x30,-1017	 x30:0x80009fc4 x23=0x00000001
       46215000	      4620	80002f50	28ddff93	andi	x31,x27,653	 x27:0x00004000 x31=0x00000000
       46225000	      4621	80002f54	00fa86b3	add	x13,x21,x15	 x21:0x7fff9967 x15:0x20a76e28 x13=0xa0a7078f
       46235000	      4622	80002f58	004a2083	lw	x1,4(x20)	 x20:0x80009f78  x1=0x80000134 PA:0x80009f7c
       46245000	      4623	80002f5c	01cf6833	or	x16,x30,x28	 x30:0x80009fc4 x28:0x00004000 x16=0x8000dfc4
       46255000	      4624	80002f60	00bd1693	slli	x13,x26,0xb	 x26:0x00000001 x13=0x00000800
       46265000	      4625	80002f64	01e5d393	srli	x7,x11,0x1e	 x11:0x0001374e  x7=0x00000000
       46275000	      4626	80002f68	01815fb3	srl	x31,x2,x24	  x2:0x00000000 x24:0x7fff9967 x31=0x00000000
       46285000	      4627	80002f6c	01894cb3	xor	x25,x18,x24	 x18:0xbbc34e40 x24:0x7fff9967 x25=0xc43cd727
       46295000	      4628	80002f70	00ca0a13	addi	x20,x20,12	 x20:0x80009f78 x20=0x80009f84
       46305000	      4629	80002f74	015fd933	srl	x18,x31,x21	 x31:0x00000000 x21:0x7fff9967 x18=0x00000000
       46315000	      4630	80002f78	00108313	addi	x6,x1,1	  x1:0x80000134  x6=0x80000135
       46325000	      4631	80002f7c	00030367	jalr	x6,x6,0	  x6:0x80000135  x6=0x80002f7c
       46335000	      4632	00000000	00000013	addi	x0,x0,0	  x0:0x00000000
       46345000	      4633	80000134	00000013	addi	x0,x0,0	  x0:0x00000000
       46355000	      4634	80000138	46f36013	ori	x0,x6,1135	  x6:0x80002f7c
       46365000	      4635	8000013c	00002f97	auipc	x31,0x2	 x31=0x80002138
       46375000	      4636	80000140	214f8f93	addi	x31,x31,532	 x31:0x80002138 x31=0x8000234c
       46385000	      4637	80000144	a2d6f713	andi	x14,x13,-1491	 x13:0x00000800 x14=0x00000800
       46395000	      4638	80000148	c2bf8f93	addi	x31,x31,-981	 x31:0x8000234c x31=0x80001f77
       46405000	      4639	8000014c	00953533	sltu	x10,x10,x9	 x10:0xfffff852  x9:0x00000000 x10=0x00000000
       46415000	      4640	80000150	00512bb3	slt	x23,x2,x5	  x2:0x00000000  x5:0x7ff80001 x23=0x00000001
       46425000	      4641	80000154	0306b213	sltiu	x4,x13,48	 x13:0x00000800  x4=0x00000000
       46435000	      4642	80000158	00d76463	bltu	x14,x13,80000160	 x14:0x00000800 x13:0x00000800
       46445000	      4643	8000015c	0140b4b3	sltu	x9,x1,x20	  x1:0x80000134 x20:0x80009f84  x9=0x00000001
       46455000	      4644	80000160	3d5f80e7	jalr	x1,x31,981	 x31:0x80001f77  x1=0x80000160
       46465000	      4645	00000000	00000013	addi	x0,x0,0	  x0:0x00000000
       46475000	      4646	8000234c	00000013	addi	x0,x0,0	  x0:0x00000000
       46485000	      4647	80002350	00ce4cb3	xor	x25,x28,x12	 x28:0x00004000 x12:0x00000000 x25=0x00004000
       46495000	      4648	80002354	6972a1b7	lui	x3,0x6972a	  x3=0x6972a000
       46505000	      4649	80002358	e3f4fb37	lui	x22,0xe3f4f	 x22=0xe3f4f000
       46515000	      4650	8000235c	009f9413	slli	x8,x31,0x9	 x31:0x80001f77  x8=0x003eee00
       46525000	      4651	80002360	6506b437	lui	x8,0x6506b	  x8=0x6506b000
       46535000	      4652	80002364	009fe733	or	x14,x31,x9	 x31:0x80001f77  x9:0x00000001 x14=0x80001f77
       46545000	      4653	80002368	00e31463	bne	x6,x14,80002370	  x6:0x80002f7c x14:0x80001f77
       46555000	      4654	00000000	00000013	addi	x0,x0,0	  x0:0x00000000
       46565000	      4655	8000236c	00000013	addi	x0,x0,0	  x0:0x00000000
       46575000	      4656	80002370	ff4a0a13	addi	x20,x20,-12	 x20:0x80009f84 x20=0x80009f78
       46585000	      4657	80002374	001a2223	sw	x1,4(x20)	 x20:0x80009f78  x1:0x80000160 PA:0x80009f7c
       46595000	      4658	80002378	005c7833	and	x16,x24,x5	 x24:0x7fff9967  x5:0x7ff80001 x16=0x7ff80001
       46605000	      4659	8000237c	4132dc33	sra	x24,x5,x19	  x5:0x7ff80001 x19:0x00000000 x24=0x7ff80001
       46615000	      4660	80002380	2fe12493	slti	x9,x2,766	  x2:0x00000000  x9=0x00000001
       46625000	      4661	80002384	01181b93	slli	x23,x16,0x11	 x16:0x7ff80001 x23=0x00020000
       46635000	      4662	80002388	016ef8b3	and	x17,x29,x22	 x29:0x00000000 x22:0xe3f4f000 x17=0x00000000
       46645000	      4663	8000238c	004ad393	srli	x7,x21,0x4	 x21:0x7fff9967  x7=0x07fff996
       46655000	      4664	80002390	00000013	addi	x0,x0,0	  x0:0x00000000
       46665000	      4665	80002394	007a4333	xor	x6,x20,x7	 x20:0x80009f78  x7:0x07fff996  x6=0x87ff66ee
       46675000	      4666	80002398	e65fd0ef	jal	x1,80002398	  x1=0x80002398
       46685000	      4667	00000000	00000013	addi	x0,x0,0	  x0:0x00000000
       46695000	      4668	800001f8	00000013	addi	x0,x0,0	  x0:0x00000000
       46705000	      4669	800001fc	0094bbb3	sltu	x23,x9,x9	  x9:0x00000001  x9:0x00000001 x23=0x00000000
       46715000	      4670	80000200	017c7533	and	x10,x24,x23	 x24:0x7ff80001 x23:0x00000000 x10=0x00000000
       46725000	      4671	80000204	01bbf733	and	x14,x23,x27	 x23:0x00000000 x27:0x00004000 x14=0x00000000
       46735000	      4672	80000208	0092c263	blt	x5,x9,8000020c	  x5:0x7ff80001  x9:0x00000001
       46745000	      4673	8000020c	fe4a0a13	addi	x20,x20,-28	 x20:0x80009f78 x20=0x80009f5c
       46755000	      4674	80000210	d92a4e93	xori	x29,x20,-622	 x20:0x80009f5c x29=0x7fff62ce
       46765000	      4675	80000214	00000013	addi	x0,x0,0	  x0:0x00000000
       46775000	      4676	80000218	001a2223	sw	x1,4(x20)	 x20:0x80009f5c  x1:0x80002398 PA:0x80009f60
       46785000	      4677	8000021c	41aadfb3	sra	x31,x21,x26	 x21:0x7fff9967 x26:0x00000001 x31=0x3fffccb3
       46795000	      4678	80000220	007de1b3	or	x3,x27,x7	 x27:0x00004000  x7:0x07fff996  x3=0x07fff996
       46805000	      4679	80000224	00002e17	auipc	x28,0x2	 x28=0x80002220
       46815000	      4680	80000228	07ce0e13	addi	x28,x28,124	 x28:0x80002220 x28=0x8000229c
       46825000	      4681	8000022c	005ccb33	xor	x22,x25,x5	 x25:0x00004000  x5:0x7ff80001 x22=0x7ff84001
       46835000	      4682	80000230	40635033	sra	x0,x6,x6	  x6:0x87ff66ee  x6:0x87ff66ee
       46845000	      4683	80000234	c7de0e13	addi	x28,x28,-899	 x28:0x8000229c x28=0x80001f19
       46855000	      4684	80000238	00000013	addi	x0,x0,0	  x0:0x00000000
       46865000	      4685	8000023c	002f5d33	srl	x26,x30,x2	 x30:0x80009fc4  x2:0x00000000 x26=0x80009fc4
       46875000	      4686	80000240	35f2fc13	andi	x24,x5,863	  x5:0x7ff80001 x24=0x00000001
       46885000	      4687	80000244	383e00e7	jalr	x1,x28,899	 x28:0x80001f19  x1=0x80000244
       46895000	      4688	00000000	00000013	addi	x0,x0,0	  x0:0x00000000
       46905000	      4689	8000229c	00000013	addi	x0,x0,0	  x0:0x00000000
       46915000	      4690	800022a0	01962233	slt	x4,x12,x25	 x12:0x00000000 x25:0x00004000  x4=0x00000001
       46925000	      4691	800022a4	01ae0233	add	x4,x28,x26	 x28:0x80001f19 x26:0x80009fc4  x4=0x0000bedd
       46935000	      4692	800022a8	fd0a0a13	addi	x20,x20,-48	 x20:0x80009f5c x20=0x80009f2c
       46945000	      4693	800022ac	3e9bfe97	auipc	x29,0x3e9bf	 x29=0xbe9c12a8
       46955000	      4694	800022b0	001a2223	sw	x1,4(x20)	 x20:0x80009f2c  x1:0x80000244 PA:0x80009f30
       46965000	      4695	800022b4	01995e33	srl	x28,x18,x25	 x18:0x00000000 x25:0x00004000 x28=0x00000000
       46975000	      4696	800022b8	dd36bc93	sltiu	x25,x13,-557	 x13:0x00000800 x25=0x00000001
       46985000	      4697	800022bc	411ad413	srai	x8,x21,0x11	 x21:0x7fff9967  x8=0x00003fff
       46995000	      4698	800022c0	d2828393	addi	x7,x5,-728	  x5:0x7ff80001  x7=0x7ff7fd29
       47005000	      4699	800022c4	042f4063	blt	x30,x2,80002304	 x30:0x80009fc4  x2:0x00000000
       47015000	      4700	00000000	00000013	addi	x0,x0,0	  x0:0x00000000
       47025000	      4701	80002300	00000013	addi	x0,x0,0	  x0:0x00000000
       47035000	      4702	80002304	017dc7b3	xor	x15,x27,x23	 x27:0x00004000 x23:0x00000000 x15=0x00004000
       47045000	      4703	80002308	54587f93	andi	x31,x16,1349	 x16:0x7ff80001 x31=0x00000001
       47055000	      4704	8000230c	f7f77913	andi	x18,x14,-129	 x14:0x00000000 x18=0x00000000
       47065000	      4705	80002310	e8a03c93	sltiu	x25,x0,-374	  x0:0x00000000 x25=0x00000001
       47075000	      4706	80002314	01a49a63	bne	x9,x26,80002328	  x9:0x00000001 x26:0x80009fc4
       47085000	      4707	00000000	00000013	addi	x0,x0,0	  x0:0x00000000
       47095000	      4708	80002324	00000013	addi	x0,x0,0	  x0:0x00000000
       47105000	      4709	80002328	00c449b3	xor	x19,x8,x12	  x8:0x00003fff x12:0x00000000 x19=0x00003fff
       47115000	      4710	8000232c	f2eebb93	sltiu	x23,x29,-210	 x29:0xbe9c12a8 x23=0x00000001
       47125000	      4711	80002330	004a2083	lw	x1,4(x20)	 x20:0x80009f2c  x1=0x80000244 PA:0x80009f30
       47135000	      4712	80002334	21617c93	andi	x25,x2,534	  x2:0x00000000 x25=0x00000000
       47145000	      4713	80002338	755c0837	lui	x16,0x755c0	 x16=0x755c0000
       47155000	      4714	8000233c	030a0a13	addi	x20,x20,48	 x20:0x80009f2c x20=0x80009f5c
       47165000	      4715	80002340	012fbf93	sltiu	x31,x31,18	 x31:0x00000001 x31=0x00000001
       47175000	      4716	80002344	d94ae693	ori	x13,x21,-620	 x21:0x7fff9967 x13=0xfffffdf7
       47185000	      4717	80002348	00008213	addi	x4,x1,0	  x1:0x80000244  x4=0x80000244
       47195000	      4718	8000234c	00020267	jalr	x4,x4,0	  x4:0x80000244  x4=0x8000234c
       47205000	      4719	00000000	00000013	addi	x0,x0,0	  x0:0x00000000
       47215000	      4720	80000244	00000013	addi	x0,x0,0	  x0:0x00000000
       47225000	      4721	80000248	018000ef	jal	x1,80000248	  x1=0x80000248
       47235000	      4722	00000000	00000013	addi	x0,x0,0	  x0:0x00000000
       47245000	      4723	8000025c	00000013	addi	x0,x0,0	  x0:0x00000000
       47255000	      4724	80000260	0080096f	jal	x18,80000260	 x18=0x80000260
       47265000	      4725	00000000	00000013	addi	x0,x0,0	  x0:0x00000000
       47275000	      4726	80000264	00000013	addi	x0,x0,0	  x0:0x00000000
       47285000	      4727	80000268	030000ef	jal	x1,80000268	  x1=0x80000268
       47295000	      4728	00000000	00000013	addi	x0,x0,0	  x0:0x00000000
       47305000	      4729	80000294	00000013	addi	x0,x0,0	  x0:0x00000000
       47315000	      4730	80000298	fcdff0ef	jal	x1,80000298	  x1=0x80000298
       47325000	      4731	00000000	00000013	addi	x0,x0,0	  x0:0x00000000
       47335000	      4732	80000260	00000013	addi	x0,x0,0	  x0:0x00000000
       47345000	      4733	80000264	03c000ef	jal	x1,80000264	  x1=0x80000264
       47355000	      4734	00000000	00000013	addi	x0,x0,0	  x0:0x00000000
       47365000	      4735	8000029c	00000013	addi	x0,x0,0	  x0:0x00000000
       47375000	      4736	800002a0	fbdff0ef	jal	x1,800002a0	  x1=0x800002a0
       47385000	      4737	00000000	00000013	addi	x0,x0,0	  x0:0x00000000
       47395000	      4738	80000258	00000013	addi	x0,x0,0	  x0:0x00000000
       47405000	      4739	8000025c	0140036f	jal	x6,8000025c	  x6=0x8000025c
       47415000	      4740	00000000	00000013	addi	x0,x0,0	  x0:0x00000000
       47425000	      4741	8000026c	00000013	addi	x0,x0,0	  x0:0x00000000
       47435000	      4742	80000270	03c0036f	jal	x6,80000270	  x6=0x80000270
       47445000	      4743	00000000	00000013	addi	x0,x0,0	  x0:0x00000000
       47455000	      4744	800002a8	00000013	addi	x0,x0,0	  x0:0x00000000
       47465000	      4745	800002ac	fe1ff0ef	jal	x1,800002ac	  x1=0x800002ac
       47475000	      4746	00000000	00000013	addi	x0,x0,0	  x0:0x00000000
       47485000	      4747	80000288	00000013	addi	x0,x0,0	  x0:0x00000000
       47495000	      4748	8000028c	fedff0ef	jal	x1,8000028c	  x1=0x8000028c
       47505000	      4749	00000000	00000013	addi	x0,x0,0	  x0:0x00000000
       47515000	      4750	80000274	00000013	addi	x0,x0,0	  x0:0x00000000
       47525000	      4751	80000278	00c000ef	jal	x1,80000278	  x1=0x80000278
       47535000	      4752	00000000	00000013	addi	x0,x0,0	  x0:0x00000000
       47545000	      4753	80000280	00000013	addi	x0,x0,0	  x0:0x00000000
       47555000	      4754	80000284	ff1ff36f	jal	x6,80000284	  x6=0x80000284
       47565000	      4755	00000000	00000013	addi	x0,x0,0	  x0:0x00000000
       47575000	      4756	80000270	00000013	addi	x0,x0,0	  x0:0x00000000
       47585000	      4757	80000274	03000bef	jal	x23,80000274	 x23=0x80000274
       47595000	      4758	00000000	00000013	addi	x0,x0,0	  x0:0x00000000
       47605000	      4759	800002a0	00000013	addi	x0,x0,0	  x0:0x00000000
       47615000	      4760	800002a4	fb5ff0ef	jal	x1,800002a4	  x1=0x800002a4
       47625000	      4761	00000000	00000013	addi	x0,x0,0	  x0:0x00000000
       47635000	      4762	80000254	00000013	addi	x0,x0,0	  x0:0x00000000
       47645000	      4763	80000258	ff9ff0ef	jal	x1,80000258	  x1=0x80000258
       47655000	      4764	00000000	00000013	addi	x0,x0,0	  x0:0x00000000
       47665000	      4765	8000024c	00000013	addi	x0,x0,0	  x0:0x00000000
       47675000	      4766	80000250	058003ef	jal	x7,80000250	  x7=0x80000250
       47685000	      4767	00000000	00000013	addi	x0,x0,0	  x0:0x00000000
       47695000	      4768	800002a4	00000013	addi	x0,x0,0	  x0:0x00000000
       47705000	      4769	800002a8	fd5ff0ef	jal	x1,800002a8	  x1=0x800002a8
       47715000	      4770	00000000	00000013	addi	x0,x0,0	  x0:0x00000000
       47725000	      4771	80000278	00000013	addi	x0,x0,0	  x0:0x00000000
       47735000	      4772	8000027c	0140036f	jal	x6,8000027c	  x6=0x8000027c
       47745000	      4773	00000000	00000013	addi	x0,x0,0	  x0:0x00000000
       47755000	      4774	8000028c	00000013	addi	x0,x0,0	  x0:0x00000000
       47765000	      4775	80000290	fbdffb6f	jal	x22,80000290	 x22=0x80000290
       47775000	      4776	00000000	00000013	addi	x0,x0,0	  x0:0x00000000
       47785000	      4777	80000248	00000013	addi	x0,x0,0	  x0:0x00000000
       47795000	      4778	8000024c	008002ef	jal	x5,8000024c	  x5=0x8000024c
       47805000	      4779	00000000	00000013	addi	x0,x0,0	  x0:0x00000000
       47815000	      4780	80000250	00000013	addi	x0,x0,0	  x0:0x00000000
       47825000	      4781	80000254	0400026f	jal	x4,80000254	  x4=0x80000254
       47835000	      4782	00000000	00000013	addi	x0,x0,0	  x0:0x00000000
       47845000	      4783	80000290	00000013	addi	x0,x0,0	  x0:0x00000000
       47855000	      4784	80000294	fd9ff36f	jal	x6,80000294	  x6=0x80000294
       47865000	      4785	00000000	00000013	addi	x0,x0,0	  x0:0x00000000
       47875000	      4786	80000268	00000013	addi	x0,x0,0	  x0:0x00000000
       47885000	      4787	8000026c	01400d6f	jal	x26,8000026c	 x26=0x8000026c
       47895000	      4788	00000000	00000013	addi	x0,x0,0	  x0:0x00000000
       47905000	      4789	8000027c	00000013	addi	x0,x0,0	  x0:0x00000000
       47915000	      4790	80000280	008000ef	jal	x1,80000280	  x1=0x80000280
       47925000	      4791	00000000	00000013	addi	x0,x0,0	  x0:0x00000000
       47935000	      4792	80000284	00000013	addi	x0,x0,0	  x0:0x00000000
       47945000	      4793	80000288	014000ef	jal	x1,80000288	  x1=0x80000288
       47955000	      4794	00000000	00000013	addi	x0,x0,0	  x0:0x00000000
       47965000	      4795	80000298	00000013	addi	x0,x0,0	  x0:0x00000000
       47975000	      4796	8000029c	014009ef	jal	x19,8000029c	 x19=0x8000029c
       47985000	      4797	00000000	00000013	addi	x0,x0,0	  x0:0x00000000
       47995000	      4798	800002ac	00000013	addi	x0,x0,0	  x0:0x00000000
       48005000	      4799	800002b0	7798bb13	sltiu	x22,x17,1913	 x17:0x00000000 x22=0x00000001
       48015000	      4800	800002b4	034000ef	jal	x1,800002b4	  x1=0x800002b4
       48025000	      4801	00000000	00000013	addi	x0,x0,0	  x0:0x00000000
       48035000	      4802	800002e4	00000013	addi	x0,x0,0	  x0:0x00000000
       48045000	      4803	800002e8	ffdff0ef	jal	x1,800002e8	  x1=0x800002e8
       48055000	      4804	00000000	00000013	addi	x0,x0,0	  x0:0x00000000
       48065000	      4805	800002e0	00000013	addi	x0,x0,0	  x0:0x00000000
       48075000	      4806	800002e4	01800bef	jal	x23,800002e4	 x23=0x800002e4
       48085000	      4807	00000000	00000013	addi	x0,x0,0	  x0:0x00000000
       48095000	      4808	800002f8	00000013	addi	x0,x0,0	  x0:0x00000000
       48105000	      4809	800002fc	fd5ff0ef	jal	x1,800002fc	  x1=0x800002fc
       48115000	      4810	00000000	00000013	addi	x0,x0,0	  x0:0x00000000
       48125000	      4811	800002cc	00000013	addi	x0,x0,0	  x0:0x00000000
       48135000	      4812	800002d0	ffdff36f	jal	x6,800002d0	  x6=0x800002d0
       48145000	      4813	00000000	00000013	addi	x0,x0,0	  x0:0x00000000
       48155000	      4814	800002c8	00000013	addi	x0,x0,0	  x0:0x00000000
       48165000	      4815	800002cc	034000ef	jal	x1,800002cc	  x1=0x800002cc
       48175000	      4816	00000000	00000013	addi	x0,x0,0	  x0:0x00000000
       48185000	      4817	800002fc	00000013	addi	x0,x0,0	  x0:0x00000000
       48195000	      4818	80000300	004000ef	jal	x1,80000300	  x1=0x80000300
       48205000	      4819	00000000	00000013	addi	x0,x0,0	  x0:0x00000000
       48215000	      4820	80000300	00000013	addi	x0,x0,0	  x0:0x00000000
       48225000	      4821	80000304	fb5ff0ef	jal	x1,80000304	  x1=0x80000304
       48235000	      4822	00000000	00000013	addi	x0,x0,0	  x0:0x00000000
       48245000	      4823	800002b4	00000013	addi	x0,x0,0	  x0:0x00000000
       48255000	      4824	800002b8	028000ef	jal	x1,800002b8	  x1=0x800002b8
       48265000	      4825	00000000	00000013	addi	x0,x0,0	  x0:0x00000000
       48275000	      4826	800002dc	00000013	addi	x0,x0,0	  x0:0x00000000
       48285000	      4827	800002e0	ff5ff16f	jal	x2,800002e0	  x2=0x800002e0
       48295000	      4828	00000000	00000013	addi	x0,x0,0	  x0:0x00000000
       48305000	      4829	800002d0	00000013	addi	x0,x0,0	  x0:0x00000000
       48315000	      4830	800002d4	fe9ff96f	jal	x18,800002d4	 x18=0x800002d4
       48325000	      4831	00000000	00000013	addi	x0,x0,0	  x0:0x00000000
       48335000	      4832	800002b8	00000013	addi	x0,x0,0	  x0:0x00000000
       48345000	      4833	800002bc	004000ef	jal	x1,800002bc	  x1=0x800002bc
       48355000	      4834	00000000	00000013	addi	x0,x0,0	  x0:0x00000000
       48365000	      4835	800002bc	00000013	addi	x0,x0,0	  x0:0x00000000
       48375000	      4836	800002c0	01c0036f	jal	x6,800002c0	  x6=0x800002c0
       48385000	      4837	00000000	00000013	addi	x0,x0,0	  x0:0x00000000
       48395000	      4838	800002d8	00000013	addi	x0,x0,0	  x0:0x00000000
       48405000	      4839	800002dc	010000ef	jal	x1,800002dc	  x1=0x800002dc
       48415000	      4840	00000000	00000013	addi	x0,x0,0	  x0:0x00000000
       48425000	      4841	800002e8	00000013	addi	x0,x0,0	  x0:0x00000000
       48435000	      4842	800002ec	fddff0ef	jal	x1,800002ec	  x1=0x800002ec
       48445000	      4843	00000000	00000013	addi	x0,x0,0	  x0:0x00000000
       48455000	      4844	800002c4	00000013	addi	x0,x0,0	  x0:0x00000000
       48465000	      4845	800002c8	040000ef	jal	x1,800002c8	  x1=0x800002c8
       48475000	      4846	00000000	00000013	addi	x0,x0,0	  x0:0x00000000
       48485000	      4847	80000304	00000013	addi	x0,x0,0	  x0:0x00000000
       48495000	      4848	80000308	fd1ff0ef	jal	x1,80000308	  x1=0x80000308
       48505000	      4849	00000000	00000013	addi	x0,x0,0	  x0:0x00000000
       48515000	      4850	800002d4	00000013	addi	x0,x0,0	  x0:0x00000000
       48525000	      4851	800002d8	0200026f	jal	x4,800002d8	  x4=0x800002d8
       48535000	      4852	00000000	00000013	addi	x0,x0,0	  x0:0x00000000
       48545000	      4853	800002f4	00000013	addi	x0,x0,0	  x0:0x00000000
       48555000	      4854	800002f8	fcdff0ef	jal	x1,800002f8	  x1=0x800002f8
       48565000	      4855	00000000	00000013	addi	x0,x0,0	  x0:0x00000000
       48575000	      4856	800002c0	00000013	addi	x0,x0,0	  x0:0x00000000
       48585000	      4857	800002c4	02c0036f	jal	x6,800002c4	  x6=0x800002c4
       48595000	      4858	00000000	00000013	addi	x0,x0,0	  x0:0x00000000
       48605000	      4859	800002ec	00000013	addi	x0,x0,0	  x0:0x00000000
       48615000	      4860	800002f0	0040036f	jal	x6,800002f0	  x6=0x800002f0
       48625000	      4861	00000000	00000013	addi	x0,x0,0	  x0:0x00000000
       48635000	      4862	800002f0	00000013	addi	x0,x0,0	  x0:0x00000000
       48645000	      4863	800002f4	018000ef	jal	x1,800002f4	  x1=0x800002f4
       48655000	      4864	00000000	00000013	addi	x0,x0,0	  x0:0x00000000
       48665000	      4865	80000308	00000013	addi	x0,x0,0	  x0:0x00000000
       48675000	      4866	8000030c	346d8137	lui	x2,0x346d8	  x2=0x346d8000
       48685000	      4867	80000310	018000ef	jal	x1,80000310	  x1=0x80000310
       48695000	      4868	00000000	00000013	addi	x0,x0,0	  x0:0x00000000
       48705000	      4869	80000324	00000013	addi	x0,x0,0	  x0:0x00000000
       48715000	      4870	80000328	ff5ff36f	jal	x6,80000328	  x6=0x80000328
       48725000	      4871	00000000	00000013	addi	x0,x0,0	  x0:0x00000000
       48735000	      4872	80000318	00000013	addi	x0,x0,0	  x0:0x00000000
       48745000	      4873	8000031c	010000ef	jal	x1,8000031c	  x1=0x8000031c
       48755000	      4874	00000000	00000013	addi	x0,x0,0	  x0:0x00000000
       48765000	      4875	80000328	00000013	addi	x0,x0,0	  x0:0x00000000
       48775000	      4876	8000032c	014000ef	jal	x1,8000032c	  x1=0x8000032c
       48785000	      4877	00000000	00000013	addi	x0,x0,0	  x0:0x00000000
       48795000	      4878	8000033c	00000013	addi	x0,x0,0	  x0:0x00000000
       48805000	      4879	80000340	0100036f	jal	x6,80000340	  x6=0x80000340
       48815000	      4880	00000000	00000013	addi	x0,x0,0	  x0:0x00000000
       48825000	      4881	8000034c	00000013	addi	x0,x0,0	  x0:0x00000000
       48835000	      4882	80000350	fd1ff36f	jal	x6,80000350	  x6=0x80000350
       48845000	      4883	00000000	00000013	addi	x0,x0,0	  x0:0x00000000
       48855000	      4884	8000031c	00000013	addi	x0,x0,0	  x0:0x00000000
       48865000	      4885	80000320	0380026f	jal	x4,80000320	  x4=0x80000320
       48875000	      4886	00000000	00000013	addi	x0,x0,0	  x0:0x00000000
       48885000	      4887	80000354	00000013	addi	x0,x0,0	  x0:0x00000000
       48895000	      4888	80000358	fcdff0ef	jal	x1,80000358	  x1=0x80000358
       48905000	      4889	00000000	00000013	addi	x0,x0,0	  x0:0x00000000
       48915000	      4890	80000320	00000013	addi	x0,x0,0	  x0:0x00000000
       48925000	      4891	80000324	0200036f	jal	x6,80000324	  x6=0x80000324
       48935000	      4892	00000000	00000013	addi	x0,x0,0	  x0:0x00000000
       48945000	      4893	80000340	00000013	addi	x0,x0,0	  x0:0x00000000
       48955000	      4894	80000344	ff1ff86f	jal	x16,80000344	 x16=0x80000344
       48965000	      4895	00000000	00000013	addi	x0,x0,0	  x0:0x00000000
       48975000	      4896	80000330	00000013	addi	x0,x0,0	  x0:0x00000000
       48985000	      4897	80000334	0080036f	jal	x6,80000334	  x6=0x80000334
       48995000	      4898	00000000	00000013	addi	x0,x0,0	  x0:0x00000000
       49005000	      4899	80000338	00000013	addi	x0,x0,0	  x0:0x00000000
       49015000	      4900	8000033c	fd9ffaef	jal	x21,8000033c	 x21=0x8000033c
       49025000	      4901	00000000	00000013	addi	x0,x0,0	  x0:0x00000000
       49035000	      4902	80000310	00000013	addi	x0,x0,0	  x0:0x00000000
       49045000	      4903	80000314	0380026f	jal	x4,80000314	  x4=0x80000314
       49055000	      4904	00000000	00000013	addi	x0,x0,0	  x0:0x00000000
       49065000	      4905	80000348	00000013	addi	x0,x0,0	  x0:0x00000000
       49075000	      4906	8000034c	fcdff36f	jal	x6,8000034c	  x6=0x8000034c
       49085000	      4907	00000000	00000013	addi	x0,x0,0	  x0:0x00000000
       49095000	      4908	80000314	00000013	addi	x0,x0,0	  x0:0x00000000
       49105000	      4909	80000318	0200036f	jal	x6,80000318	  x6=0x80000318
       49115000	      4910	00000000	00000013	addi	x0,x0,0	  x0:0x00000000
       49125000	      4911	80000334	00000013	addi	x0,x0,0	  x0:0x00000000
       49135000	      4912	80000338	ff9ff0ef	jal	x1,80000338	  x1=0x80000338
       49145000	      4913	00000000	00000013	addi	x0,x0,0	  x0:0x00000000
       49155000	      4914	8000032c	00000013	addi	x0,x0,0	  x0:0x00000000
       49165000	      4915	80000330	024000ef	jal	x1,80000330	  x1=0x80000330
       49175000	      4916	00000000	00000013	addi	x0,x0,0	  x0:0x00000000
       49185000	      4917	80000350	00000013	addi	x0,x0,0	  x0:0x00000000
       49195000	      4918	80000354	ff5ff2ef	jal	x5,80000354	  x5=0x80000354
       49205000	      4919	00000000	00000013	addi	x0,x0,0	  x0:0x00000000
       49215000	      4920	80000344	00000013	addi	x0,x0,0	  x0:0x00000000
       49225000	      4921	80000348	018002ef	jal	x5,80000348	  x5=0x80000348
       49235000	      4922	00000000	00000013	addi	x0,x0,0	  x0:0x00000000
       49245000	      4923	8000035c	00000013	addi	x0,x0,0	  x0:0x00000000
       49255000	      4924	80000360	ffdff0ef	jal	x1,80000360	  x1=0x80000360
       49265000	      4925	00000000	00000013	addi	x0,x0,0	  x0:0x00000000
       49275000	      4926	80000358	00000013	addi	x0,x0,0	  x0:0x00000000
       49285000	      4927	8000035c	008000ef	jal	x1,8000035c	  x1=0x8000035c
       49295000	      4928	00000000	00000013	addi	x0,x0,0	  x0:0x00000000
       49305000	      4929	80000360	00000013	addi	x0,x0,0	  x0:0x00000000
       49315000	      4930	80000364	412001b3	sub	x3,x0,x18	  x0:0x00000000 x18:0x800002d4  x3=0x7ffffd2c
       49325000	      4931	80000368	020000ef	jal	x1,80000368	  x1=0x80000368
       49335000	      4932	00000000	00000013	addi	x0,x0,0	  x0:0x00000000
       49345000	      4933	80000384	00000013	addi	x0,x0,0	  x0:0x00000000
       49355000	      4934	80000388	fedff0ef	jal	x1,80000388	  x1=0x80000388
       49365000	      4935	00000000	00000013	addi	x0,x0,0	  x0:0x00000000
       49375000	      4936	80000370	00000013	addi	x0,x0,0	  x0:0x00000000
       49385000	      4937	80000374	ff9ff36f	jal	x6,80000374	  x6=0x80000374
       49395000	      4938	00000000	00000013	addi	x0,x0,0	  x0:0x00000000
       49405000	      4939	80000368	00000013	addi	x0,x0,0	  x0:0x00000000
       49415000	      4940	8000036c	0200036f	jal	x6,8000036c	  x6=0x8000036c
       49425000	      4941	00000000	00000013	addi	x0,x0,0	  x0:0x00000000
       49435000	      4942	80000388	00000013	addi	x0,x0,0	  x0:0x00000000
       49445000	      4943	8000038c	ff5ff0ef	jal	x1,8000038c	  x1=0x8000038c
       49455000	      4944	00000000	00000013	addi	x0,x0,0	  x0:0x00000000
       49465000	      4945	8000037c	00000013	addi	x0,x0,0	  x0:0x00000000
       49475000	      4946	80000380	004002ef	jal	x5,80000380	  x5=0x80000380
       49485000	      4947	00000000	00000013	addi	x0,x0,0	  x0:0x00000000
       49495000	      4948	80000380	00000013	addi	x0,x0,0	  x0:0x00000000
       49505000	      4949	80000384	00c000ef	jal	x1,80000384	  x1=0x80000384
       49515000	      4950	00000000	00000013	addi	x0,x0,0	  x0:0x00000000
       49525000	      4951	8000038c	00000013	addi	x0,x0,0	  x0:0x00000000
       49535000	      4952	80000390	fe9ff0ef	jal	x1,80000390	  x1=0x80000390
       49545000	      4953	00000000	00000013	addi	x0,x0,0	  x0:0x00000000
       49555000	      4954	80000374	00000013	addi	x0,x0,0	  x0:0x00000000
       49565000	      4955	80000378	01c0036f	jal	x6,80000378	  x6=0x80000378
       49575000	      4956	00000000	00000013	addi	x0,x0,0	  x0:0x00000000
       49585000	      4957	80000390	00000013	addi	x0,x0,0	  x0:0x00000000
       49595000	      4958	80000394	fddff0ef	jal	x1,80000394	  x1=0x80000394
       49605000	      4959	00000000	00000013	addi	x0,x0,0	  x0:0x00000000
       49615000	      4960	8000036c	00000013	addi	x0,x0,0	  x0:0x00000000
       49625000	      4961	80000370	00c000ef	jal	x1,80000370	  x1=0x80000370
       49635000	      4962	00000000	00000013	addi	x0,x0,0	  x0:0x00000000
       49645000	      4963	80000378	00000013	addi	x0,x0,0	  x0:0x00000000
       49655000	      4964	8000037c	01c0086f	jal	x16,8000037c	 x16=0x8000037c
       49665000	      4965	00000000	00000013	addi	x0,x0,0	  x0:0x00000000
       49675000	      4966	80000394	00000013	addi	x0,x0,0	  x0:0x00000000
       49685000	      4967	80000398	cbfa0c93	addi	x25,x20,-833	 x20:0x80009f5c x25=0x80009c1b
       49695000	      4968	8000039c	058000ef	jal	x1,8000039c	  x1=0x8000039c
       49705000	      4969	00000000	00000013	addi	x0,x0,0	  x0:0x00000000
       49715000	      4970	800003f0	00000013	addi	x0,x0,0	  x0:0x00000000
       49725000	      4971	800003f4	fe1ff0ef	jal	x1,800003f4	  x1=0x800003f4
       49735000	      4972	00000000	00000013	addi	x0,x0,0	  x0:0x00000000
       49745000	      4973	800003d0	00000013	addi	x0,x0,0	  x0:0x00000000
       49755000	      4974	800003d4	ff9ff36f	jal	x6,800003d4	  x6=0x800003d4
       49765000	      4975	00000000	00000013	addi	x0,x0,0	  x0:0x00000000
       49775000	      4976	800003c8	00000013	addi	x0,x0,0	  x0:0x00000000
       49785000	      4977	800003cc	034000ef	jal	x1,800003cc	  x1=0x800003cc
       49795000	      4978	00000000	00000013	addi	x0,x0,0	  x0:0x00000000
       49805000	      4979	800003fc	00000013	addi	x0,x0,0	  x0:0x00000000
       49815000	      4980	80000400	fa1ff0ef	jal	x1,80000400	  x1=0x80000400
       49825000	      4981	00000000	00000013	addi	x0,x0,0	  x0:0x00000000
       49835000	      4982	8000039c	00000013	addi	x0,x0,0	  x0:0x00000000
       49845000	      4983	800003a0	00c00c6f	jal	x24,800003a0	 x24=0x800003a0
       49855000	      4984	00000000	00000013	addi	x0,x0,0	  x0:0x00000000
       49865000	      4985	800003a8	00000013	addi	x0,x0,0	  x0:0x00000000
       49875000	      4986	800003ac	034007ef	jal	x15,800003ac	 x15=0x800003ac
       49885000	      4987	00000000	00000013	addi	x0,x0,0	  x0:0x00000000
       49895000	      4988	800003dc	00000013	addi	x0,x0,0	  x0:0x00000000
       49905000	      4989	800003e0	010000ef	jal	x1,800003e0	  x1=0x800003e0
       49915000	      4990	00000000	00000013	addi	x0,x0,0	  x0:0x00000000
       49925000	      4991	800003ec	00000013	addi	x0,x0,0	  x0:0x00000000
       49935000	      4992	800003f0	fb5ff0ef	jal	x1,800003f0	  x1=0x800003f0
       49945000	      4993	00000000	00000013	addi	x0,x0,0	  x0:0x00000000
       49955000	      4994	800003a0	00000013	addi	x0,x0,0	  x0:0x00000000
       49965000	      4995	800003a4	024000ef	jal	x1,800003a4	  x1=0x800003a4
       49975000	      4996	00000000	00000013	addi	x0,x0,0	  x0:0x00000000
       49985000	      4997	800003c4	00000013	addi	x0,x0,0	  x0:0x00000000
       49995000	      4998	800003c8	fe1ffd6f	jal	x26,800003c8	 x26=0x800003c8
       50005000	      4999	00000000	00000013	addi	x0,x0,0	  x0:0x00000000
       50015000	      5000	800003a4	00000013	addi	x0,x0,0	  x0:0x00000000
       50025000	      5001	800003a8	05000def	jal	x27,800003a8	 x27=0x800003a8
       50035000	      5002	00000000	00000013	addi	x0,x0,0	  x0:0x00000000
       50045000	      5003	800003f4	00000013	addi	x0,x0,0	  x0:0x00000000
       50055000	      5004	800003f8	fb9ffaef	jal	x21,800003f8	 x21=0x800003f8
       50065000	      5005	00000000	00000013	addi	x0,x0,0	  x0:0x00000000
       50075000	      5006	800003ac	00000013	addi	x0,x0,0	  x0:0x00000000
       50085000	      5007	800003b0	014000ef	jal	x1,800003b0	  x1=0x800003b0
       50095000	      5008	00000000	00000013	addi	x0,x0,0	  x0:0x00000000
       50105000	      5009	800003c0	00000013	addi	x0,x0,0	  x0:0x00000000
       50115000	      5010	800003c4	0380036f	jal	x6,800003c4	  x6=0x800003c4
       50125000	      5011	00000000	00000013	addi	x0,x0,0	  x0:0x00000000
       50135000	      5012	800003f8	00000013	addi	x0,x0,0	  x0:0x00000000
       50145000	      5013	800003fc	fc5ff0ef	jal	x1,800003fc	  x1=0x800003fc
       50155000	      5014	00000000	00000013	addi	x0,x0,0	  x0:0x00000000
       50165000	      5015	800003bc	00000013	addi	x0,x0,0	  x0:0x00000000
       50175000	      5016	800003c0	028001ef	jal	x3,800003c0	  x3=0x800003c0
       50185000	      5017	00000000	00000013	addi	x0,x0,0	  x0:0x00000000
       50195000	      5018	800003e4	00000013	addi	x0,x0,0	  x0:0x00000000
       50205000	      5019	800003e8	ff1ff0ef	jal	x1,800003e8	  x1=0x800003e8
       50215000	      5020	00000000	00000013	addi	x0,x0,0	  x0:0x00000000
       50225000	      5021	800003d4	00000013	addi	x0,x0,0	  x0:0x00000000
       50235000	      5022	800003d8	fe1ff0ef	jal	x1,800003d8	  x1=0x800003d8
       50245000	      5023	00000000	00000013	addi	x0,x0,0	  x0:0x00000000
       50255000	      5024	800003b4	00000013	addi	x0,x0,0	  x0:0x00000000
       50265000	      5025	800003b8	02c000ef	jal	x1,800003b8	  x1=0x800003b8
       50275000	      5026	00000000	00000013	addi	x0,x0,0	  x0:0x00000000
       50285000	      5027	800003e0	00000013	addi	x0,x0,0	  x0:0x00000000
       50295000	      5028	800003e4	fd9ff56f	jal	x10,800003e4	 x10=0x800003e4
       50305000	      5029	00000000	00000013	addi	x0,x0,0	  x0:0x00000000
       50315000	      5030	800003b8	00000013	addi	x0,x0,0	  x0:0x00000000
       50325000	      5031	800003bc	030000ef	jal	x1,800003bc	  x1=0x800003bc
       50335000	      5032	00000000	00000013	addi	x0,x0,0	  x0:0x00000000
       50345000	      5033	800003e8	00000013	addi	x0,x0,0	  x0:0x00000000
       50355000	      5034	800003ec	01c0036f	jal	x6,800003ec	  x6=0x800003ec
       50365000	      5035	00000000	00000013	addi	x0,x0,0	  x0:0x00000000
       50375000	      5036	80000404	00000013	addi	x0,x0,0	  x0:0x00000000
       50385000	      5037	80000408	fadffe6f	jal	x28,80000408	 x28=0x80000408
       50395000	      5038	00000000	00000013	addi	x0,x0,0	  x0:0x00000000
       50405000	      5039	800003b0	00000013	addi	x0,x0,0	  x0:0x00000000
       50415000	      5040	800003b4	01c0036f	jal	x6,800003b4	  x6=0x800003b4
       50425000	      5041	00000000	00000013	addi	x0,x0,0	  x0:0x00000000
       50435000	      5042	800003cc	00000013	addi	x0,x0,0	  x0:0x00000000
       50445000	      5043	800003d0	034000ef	jal	x1,800003d0	  x1=0x800003d0
       50455000	      5044	00000000	00000013	addi	x0,x0,0	  x0:0x00000000
       50465000	      5045	80000400	00000013	addi	x0,x0,0	  x0:0x00000000
       50475000	      5046	80000404	fd9ffdef	jal	x27,80000404	 x27=0x80000404
       50485000	      5047	00000000	00000013	addi	x0,x0,0	  x0:0x00000000
       50495000	      5048	800003d8	00000013	addi	x0,x0,0	  x0:0x00000000
       50505000	      5049	800003dc	030000ef	jal	x1,800003dc	  x1=0x800003dc
       50515000	      5050	00000000	00000013	addi	x0,x0,0	  x0:0x00000000
       50525000	      5051	80000408	00000013	addi	x0,x0,0	  x0:0x00000000
       50535000	      5052	8000040c	0169d333	srl	x6,x19,x22	 x19:0x8000029c x22:0x00000001  x6=0x4000014e
       50545000	      5053	80000410	02c000ef	jal	x1,80000410	  x1=0x80000410
       50555000	      5054	00000000	00000013	addi	x0,x0,0	  x0:0x00000000
       50565000	      5055	80000438	00000013	addi	x0,x0,0	  x0:0x00000000
       50575000	      5056	8000043c	fe1ff26f	jal	x4,8000043c	  x4=0x8000043c
       50585000	      5057	00000000	00000013	addi	x0,x0,0	  x0:0x00000000
       50595000	      5058	80000418	00000013	addi	x0,x0,0	  x0:0x00000000
       50605000	      5059	8000041c	014000ef	jal	x1,8000041c	  x1=0x8000041c
       50615000	      5060	00000000	00000013	addi	x0,x0,0	  x0:0x00000000
       50625000	      5061	8000042c	00000013	addi	x0,x0,0	  x0:0x00000000
       50635000	      5062	80000430	038000ef	jal	x1,80000430	  x1=0x80000430
       50645000	      5063	00000000	00000013	addi	x0,x0,0	  x0:0x00000000
       50655000	      5064	80000464	00000013	addi	x0,x0,0	  x0:0x00000000
       50665000	      5065	80000468	fe1ff0ef	jal	x1,80000468	  x1=0x80000468
       50675000	      5066	00000000	00000013	addi	x0,x0,0	  x0:0x00000000
       50685000	      5067	80000444	00000013	addi	x0,x0,0	  x0:0x00000000
       50695000	      5068	80000448	ffdff86f	jal	x16,80000448	 x16=0x80000448
       50705000	      5069	00000000	00000013	addi	x0,x0,0	  x0:0x00000000
       50715000	      5070	80000440	00000013	addi	x0,x0,0	  x0:0x00000000
       50725000	      5071	80000444	fe1ff0ef	jal	x1,80000444	  x1=0x80000444
       50735000	      5072	00000000	00000013	addi	x0,x0,0	  x0:0x00000000
       50745000	      5073	80000420	00000013	addi	x0,x0,0	  x0:0x00000000
       50755000	      5074	80000424	014002ef	jal	x5,80000424	  x5=0x80000424
       50765000	      5075	00000000	00000013	addi	x0,x0,0	  x0:0x00000000
       50775000	      5076	80000434	00000013	addi	x0,x0,0	  x0:0x00000000
       50785000	      5077	80000438	fe1ff0ef	jal	x1,80000438	  x1=0x80000438
       50795000	      5078	00000000	00000013	addi	x0,x0,0	  x0:0x00000000
       50805000	      5079	80000414	00000013	addi	x0,x0,0	  x0:0x00000000
       50815000	      5080	80000418	008001ef	jal	x3,80000418	  x3=0x80000418
       50825000	      5081	00000000	00000013	addi	x0,x0,0	  x0:0x00000000
       50835000	      5082	8000041c	00000013	addi	x0,x0,0	  x0:0x00000000
       50845000	      5083	80000420	020000ef	jal	x1,80000420	  x1=0x80000420
       50855000	      5084	00000000	00000013	addi	x0,x0,0	  x0:0x00000000
       50865000	      5085	8000043c	00000013	addi	x0,x0,0	  x0:0x00000000
       50875000	      5086	80000440	ff5ff0ef	jal	x1,80000440	  x1=0x80000440
       50885000	      5087	00000000	00000013	addi	x0,x0,0	  x0:0x00000000
       50895000	      5088	80000430	00000013	addi	x0,x0,0	  x0:0x00000000
       50905000	      5089	80000434	040000ef	jal	x1,80000434	  x1=0x80000434
       50915000	      5090	00000000	00000013	addi	x0,x0,0	  x0:0x00000000
       50925000	      5091	80000470	00000013	addi	x0,x0,0	  x0:0x00000000
       50935000	      5092	80000474	fddff36f	jal	x6,80000474	  x6=0x80000474
       50945000	      5093	00000000	00000013	addi	x0,x0,0	  x0:0x00000000
       50955000	      5094	8000044c	00000013	addi	x0,x0,0	  x0:0x00000000
       50965000	      5095	80000450	01c002ef	jal	x5,80000450	  x5=0x80000450
       50975000	      5096	00000000	00000013	addi	x0,x0,0	  x0:0x00000000
       50985000	      5097	80000468	00000013	addi	x0,x0,0	  x0:0x00000000
       50995000	      5098	8000046c	ff1ff0ef	jal	x1,8000046c	  x1=0x8000046c
       51005000	      5099	00000000	00000013	addi	x0,x0,0	  x0:0x00000000
       51015000	      5100	80000458	00000013	addi	x0,x0,0	  x0:0x00000000
       51025000	      5101	8000045c	0080076f	jal	x14,8000045c	 x14=0x8000045c
       51035000	      5102	00000000	00000013	addi	x0,x0,0	  x0:0x00000000
       51045000	      5103	80000460	00000013	addi	x0,x0,0	  x0:0x00000000
       51055000	      5104	80000464	00c000ef	jal	x1,80000464	  x1=0x80000464
       51065000	      5105	00000000	00000013	addi	x0,x0,0	  x0:0x00000000
       51075000	      5106	8000046c	00000013	addi	x0,x0,0	  x0:0x00000000
       51085000	      5107	80000470	fddff0ef	jal	x1,80000470	  x1=0x80000470
       51095000	      5108	00000000	00000013	addi	x0,x0,0	  x0:0x00000000
       51105000	      5109	80000448	00000013	addi	x0,x0,0	  x0:0x00000000
       51115000	      5110	8000044c	fddff0ef	jal	x1,8000044c	  x1=0x8000044c
       51125000	      5111	00000000	00000013	addi	x0,x0,0	  x0:0x00000000
       51135000	      5112	80000424	00000013	addi	x0,x0,0	  x0:0x00000000
       51145000	      5113	80000428	030000ef	jal	x1,80000428	  x1=0x80000428
       51155000	      5114	00000000	00000013	addi	x0,x0,0	  x0:0x00000000
       51165000	      5115	80000454	00000013	addi	x0,x0,0	  x0:0x00000000
       51175000	      5116	80000458	fbdff36f	jal	x6,80000458	  x6=0x80000458
       51185000	      5117	00000000	00000013	addi	x0,x0,0	  x0:0x00000000
       51195000	      5118	80000410	00000013	addi	x0,x0,0	  x0:0x00000000
       51205000	      5119	80000414	064000ef	jal	x1,80000414	  x1=0x80000414
       51215000	      5120	00000000	00000013	addi	x0,x0,0	  x0:0x00000000
       51225000	      5121	80000474	00000013	addi	x0,x0,0	  x0:0x00000000
       51235000	      5122	80000478	fb5ff0ef	jal	x1,80000478	  x1=0x80000478
       51245000	      5123	00000000	00000013	addi	x0,x0,0	  x0:0x00000000
       51255000	      5124	80000428	00000013	addi	x0,x0,0	  x0:0x00000000
       51265000	      5125	8000042c	034004ef	jal	x9,8000042c	  x9=0x8000042c
       51275000	      5126	00000000	00000013	addi	x0,x0,0	  x0:0x00000000
       51285000	      5127	8000045c	00000013	addi	x0,x0,0	  x0:0x00000000
       51295000	      5128	80000460	ff5ff0ef	jal	x1,80000460	  x1=0x80000460
       51305000	      5129	00000000	00000013	addi	x0,x0,0	  x0:0x00000000
       51315000	      5130	80000450	00000013	addi	x0,x0,0	  x0:0x00000000
       51325000	      5131	80000454	028000ef	jal	x1,80000454	  x1=0x80000454
       51335000	      5132	00000000	00000013	addi	x0,x0,0	  x0:0x00000000
       51345000	      5133	80000478	00000013	addi	x0,x0,0	  x0:0x00000000
       51355000	      5134	8000047c	418fd413	srai	x8,x31,0x18	 x31:0x00000001  x8=0x00000000
       51365000	      5135	80000480	020000ef	jal	x1,80000480	  x1=0x80000480
       51375000	      5136	00000000	00000013	addi	x0,x0,0	  x0:0x00000000
       51385000	      5137	8000049c	00000013	addi	x0,x0,0	  x0:0x00000000
       51395000	      5138	800004a0	fe9ff0ef	jal	x1,800004a0	  x1=0x800004a0
       51405000	      5139	00000000	00000013	addi	x0,x0,0	  x0:0x00000000
       51415000	      5140	80000484	00000013	addi	x0,x0,0	  x0:0x00000000
       51425000	      5141	80000488	010002ef	jal	x5,80000488	  x5=0x80000488
       51435000	      5142	00000000	00000013	addi	x0,x0,0	  x0:0x00000000
       51445000	      5143	80000494	00000013	addi	x0,x0,0	  x0:0x00000000
       51455000	      5144	80000498	024000ef	jal	x1,80000498	  x1=0x80000498
       51465000	      5145	00000000	00000013	addi	x0,x0,0	  x0:0x00000000
       51475000	      5146	800004b8	00000013	addi	x0,x0,0	  x0:0x00000000
       51485000	      5147	800004bc	004000ef	jal	x1,800004bc	  x1=0x800004bc
       51495000	      5148	00000000	00000013	addi	x0,x0,0	  x0:0x00000000
       51505000	      5149	800004bc	00000013	addi	x0,x0,0	  x0:0x00000000
       51515000	      5150	800004c0	fcdff46f	jal	x8,800004c0	  x8=0x800004c0
       51525000	      5151	00000000	00000013	addi	x0,x0,0	  x0:0x00000000
       51535000	      5152	80000488	00000013	addi	x0,x0,0	  x0:0x00000000
       51545000	      5153	8000048c	02c0036f	jal	x6,8000048c	  x6=0x8000048c
       51555000	      5154	00000000	00000013	addi	x0,x0,0	  x0:0x00000000
       51565000	      5155	800004b4	00000013	addi	x0,x0,0	  x0:0x00000000
       51575000	      5156	800004b8	fddff0ef	jal	x1,800004b8	  x1=0x800004b8
       51585000	      5157	00000000	00000013	addi	x0,x0,0	  x0:0x00000000
       51595000	      5158	80000490	00000013	addi	x0,x0,0	  x0:0x00000000
       51605000	      5159	80000494	008000ef	jal	x1,80000494	  x1=0x80000494
       51615000	      5160	00000000	00000013	addi	x0,x0,0	  x0:0x00000000
       51625000	      5161	80000498	00000013	addi	x0,x0,0	  x0:0x00000000
       51635000	      5162	8000049c	00800eef	jal	x29,8000049c	 x29=0x8000049c
       51645000	      5163	00000000	00000013	addi	x0,x0,0	  x0:0x00000000
       51655000	      5164	800004a0	00000013	addi	x0,x0,0	  x0:0x00000000
       51665000	      5165	800004a4	fedff0ef	jal	x1,800004a4	  x1=0x800004a4
       51675000	      5166	00000000	00000013	addi	x0,x0,0	  x0:0x00000000
       51685000	      5167	8000048c	00000013	addi	x0,x0,0	  x0:0x00000000
       51695000	      5168	80000490	0240036f	jal	x6,80000490	  x6=0x80000490
       51705000	      5169	00000000	00000013	addi	x0,x0,0	  x0:0x00000000
       51715000	      5170	800004b0	00000013	addi	x0,x0,0	  x0:0x00000000
       51725000	      5171	800004b4	ffdff36f	jal	x6,800004b4	  x6=0x800004b4
       51735000	      5172	00000000	00000013	addi	x0,x0,0	  x0:0x00000000
       51745000	      5173	800004ac	00000013	addi	x0,x0,0	  x0:0x00000000
       51755000	      5174	800004b0	ffdfffef	jal	x31,800004b0	 x31=0x800004b0
       51765000	      5175	00000000	00000013	addi	x0,x0,0	  x0:0x00000000
       51775000	      5176	800004a8	00000013	addi	x0,x0,0	  x0:0x00000000
       51785000	      5177	800004ac	01c000ef	jal	x1,800004ac	  x1=0x800004ac
       51795000	      5178	00000000	00000013	addi	x0,x0,0	  x0:0x00000000
       51805000	      5179	800004c4	00000013	addi	x0,x0,0	  x0:0x00000000
       51815000	      5180	800004c8	ffdffaef	jal	x21,800004c8	 x21=0x800004c8
       51825000	      5181	00000000	00000013	addi	x0,x0,0	  x0:0x00000000
       51835000	      5182	800004c0	00000013	addi	x0,x0,0	  x0:0x00000000
       51845000	      5183	800004c4	fe5ffcef	jal	x25,800004c4	 x25=0x800004c4
       51855000	      5184	00000000	00000013	addi	x0,x0,0	  x0:0x00000000
       51865000	      5185	800004a4	00000013	addi	x0,x0,0	  x0:0x00000000
       51875000	      5186	800004a8	fddff0ef	jal	x1,800004a8	  x1=0x800004a8
       51885000	      5187	00000000	00000013	addi	x0,x0,0	  x0:0x00000000
       51895000	      5188	80000480	00000013	addi	x0,x0,0	  x0:0x00000000
       51905000	      5189	80000484	0480036f	jal	x6,80000484	  x6=0x80000484
       51915000	      5190	00000000	00000013	addi	x0,x0,0	  x0:0x00000000
       51925000	      5191	800004c8	00000013	addi	x0,x0,0	  x0:0x00000000
       51935000	      5192	800004cc	004007ef	jal	x15,800004cc	 x15=0x800004cc
       51945000	      5193	00000000	00000013	addi	x0,x0,0	  x0:0x00000000
       51955000	      5194	800004cc	00000013	addi	x0,x0,0	  x0:0x00000000
       51965000	      5195	800004d0	1b193513	sltiu	x10,x18,433	 x18:0x800002d4 x10=0x00000000
       51975000	      5196	800004d4	014000ef	jal	x1,800004d4	  x1=0x800004d4
       51985000	      5197	00000000	00000013	addi	x0,x0,0	  x0:0x00000000
       51995000	      5198	800004e4	00000013	addi	x0,x0,0	  x0:0x00000000
       52005000	      5199	800004e8	02c0036f	jal	x6,800004e8	  x6=0x800004e8
       52015000	      5200	00000000	00000013	addi	x0,x0,0	  x0:0x00000000
       52025000	      5201	80000510	00000013	addi	x0,x0,0	  x0:0x00000000
       52035000	      5202	80000514	ff1ff36f	jal	x6,80000514	  x6=0x80000514
       52045000	      5203	00000000	00000013	addi	x0,x0,0	  x0:0x00000000
       52055000	      5204	80000500	00000013	addi	x0,x0,0	  x0:0x00000000
       52065000	      5205	80000504	fd9ff2ef	jal	x5,80000504	  x5=0x80000504
       52075000	      5206	00000000	00000013	addi	x0,x0,0	  x0:0x00000000
       52085000	      5207	800004d8	00000013	addi	x0,x0,0	  x0:0x00000000
       52095000	      5208	800004dc	01800b6f	jal	x22,800004dc	 x22=0x800004dc
       52105000	      5209	00000000	00000013	addi	x0,x0,0	  x0:0x00000000
       52115000	      5210	800004f0	00000013	addi	x0,x0,0	  x0:0x00000000
       52125000	      5211	800004f4	0140036f	jal	x6,800004f4	  x6=0x800004f4
       52135000	      5212	00000000	00000013	addi	x0,x0,0	  x0:0x00000000
       52145000	      5213	80000504	00000013	addi	x0,x0,0	  x0:0x00000000
       52155000	      5214	80000508	fd1ff96f	jal	x18,80000508	 x18=0x80000508
       52165000	      5215	00000000	00000013	addi	x0,x0,0	  x0:0x00000000
       52175000	      5216	800004d4	00000013	addi	x0,x0,0	  x0:0x00000000
       52185000	      5217	800004d8	018001ef	jal	x3,800004d8	  x3=0x800004d8
       52195000	      5218	00000000	00000013	addi	x0,x0,0	  x0:0x00000000
       52205000	      5219	800004ec	00000013	addi	x0,x0,0	  x0:0x00000000
       52215000	      5220	800004f0	020000ef	jal	x1,800004f0	  x1=0x800004f0
       52225000	      5221	00000000	00000013	addi	x0,x0,0	  x0:0x00000000
       52235000	      5222	8000050c	00000013	addi	x0,x0,0	  x0:0x00000000
       52245000	      5223	80000510	ffdff0ef	jal	x1,80000510	  x1=0x80000510
       52255000	      5224	00000000	00000013	addi	x0,x0,0	  x0:0x00000000
       52265000	      5225	80000508	00000013	addi	x0,x0,0	  x0:0x00000000
       52275000	      5226	8000050c	fe1ff26f	jal	x4,8000050c	  x4=0x8000050c
       52285000	      5227	00000000	00000013	addi	x0,x0,0	  x0:0x00000000
       52295000	      5228	800004e8	00000013	addi	x0,x0,0	  x0:0x00000000
       52305000	      5229	800004ec	ff9ff76f	jal	x14,800004ec	 x14=0x800004ec
       52315000	      5230	00000000	00000013	addi	x0,x0,0	  x0:0x00000000
       52325000	      5231	800004e0	00000013	addi	x0,x0,0	  x0:0x00000000
       52335000	      5232	800004e4	01c000ef	jal	x1,800004e4	  x1=0x800004e4
       52345000	      5233	00000000	00000013	addi	x0,x0,0	  x0:0x00000000
       52355000	      5234	800004fc	00000013	addi	x0,x0,0	  x0:0x00000000
       52365000	      5235	80000500	fe1ff16f	jal	x2,80000500	  x2=0x80000500
       52375000	      5236	00000000	00000013	addi	x0,x0,0	  x0:0x00000000
       52385000	      5237	800004dc	00000013	addi	x0,x0,0	  x0:0x00000000
       52395000	      5238	800004e0	038000ef	jal	x1,800004e0	  x1=0x800004e0
       52405000	      5239	00000000	00000013	addi	x0,x0,0	  x0:0x00000000
       52415000	      5240	80000514	00000013	addi	x0,x0,0	  x0:0x00000000
       52425000	      5241	80000518	fe1ff0ef	jal	x1,80000518	  x1=0x80000518
       52435000	      5242	00000000	00000013	addi	x0,x0,0	  x0:0x00000000
       52445000	      5243	800004f4	00000013	addi	x0,x0,0	  x0:0x00000000
       52455000	      5244	800004f8	004004ef	jal	x9,800004f8	  x9=0x800004f8
       52465000	      5245	00000000	00000013	addi	x0,x0,0	  x0:0x00000000
       52475000	      5246	800004f8	00000013	addi	x0,x0,0	  x0:0x00000000
       52485000	      5247	800004fc	0200036f	jal	x6,800004fc	  x6=0x800004fc
       52495000	      5248	00000000	00000013	addi	x0,x0,0	  x0:0x00000000
       52505000	      5249	80000518	00000013	addi	x0,x0,0	  x0:0x00000000
       52515000	      5250	8000051c	02063093	sltiu	x1,x12,32	 x12:0x00000000  x1=0x00000001
       52525000	      5251	80000520	018000ef	jal	x1,80000520	  x1=0x80000520
       52535000	      5252	00000000	00000013	addi	x0,x0,0	  x0:0x00000000
       52545000	      5253	80000534	00000013	addi	x0,x0,0	  x0:0x00000000
       52555000	      5254	80000538	ff1ff36f	jal	x6,80000538	  x6=0x80000538
       52565000	      5255	00000000	00000013	addi	x0,x0,0	  x0:0x00000000
       52575000	      5256	80000524	00000013	addi	x0,x0,0	  x0:0x00000000
       52585000	      5257	80000528	00c0036f	jal	x6,80000528	  x6=0x80000528
       52595000	      5258	00000000	00000013	addi	x0,x0,0	  x0:0x00000000
       52605000	      5259	80000530	00000013	addi	x0,x0,0	  x0:0x00000000
       52615000	      5260	80000534	04400bef	jal	x23,80000534	 x23=0x80000534
       52625000	      5261	00000000	00000013	addi	x0,x0,0	  x0:0x00000000
       52635000	      5262	80000574	00000013	addi	x0,x0,0	  x0:0x00000000
       52645000	      5263	80000578	fb5ffdef	jal	x27,80000578	 x27=0x80000578
       52655000	      5264	00000000	00000013	addi	x0,x0,0	  x0:0x00000000
       52665000	      5265	80000528	00000013	addi	x0,x0,0	  x0:0x00000000
       52675000	      5266	8000052c	03c004ef	jal	x9,8000052c	  x9=0x8000052c
       52685000	      5267	00000000	00000013	addi	x0,x0,0	  x0:0x00000000
       52695000	      5268	80000564	00000013	addi	x0,x0,0	  x0:0x00000000
       52705000	      5269	80000568	004000ef	jal	x1,80000568	  x1=0x80000568
       52715000	      5270	00000000	00000013	addi	x0,x0,0	  x0:0x00000000
       52725000	      5271	80000568	00000013	addi	x0,x0,0	  x0:0x00000000
       52735000	      5272	8000056c	fe1ff26f	jal	x4,8000056c	  x4=0x8000056c
       52745000	      5273	00000000	00000013	addi	x0,x0,0	  x0:0x00000000
       52755000	      5274	80000548	00000013	addi	x0,x0,0	  x0:0x00000000
       52765000	      5275	8000054c	fe5ff0ef	jal	x1,8000054c	  x1=0x8000054c
       52775000	      5276	00000000	00000013	addi	x0,x0,0	  x0:0x00000000
       52785000	      5277	8000052c	00000013	addi	x0,x0,0	  x0:0x00000000
       52795000	      5278	80000530	040002ef	jal	x5,80000530	  x5=0x80000530
       52805000	      5279	00000000	00000013	addi	x0,x0,0	  x0:0x00000000
       52815000	      5280	8000056c	00000013	addi	x0,x0,0	  x0:0x00000000
       52825000	      5281	80000570	fcdff36f	jal	x6,80000570	  x6=0x80000570
       52835000	      5282	00000000	00000013	addi	x0,x0,0	  x0:0x00000000
       52845000	      5283	80000538	00000013	addi	x0,x0,0	  x0:0x00000000
       52855000	      5284	8000053c	0240046f	jal	x8,8000053c	  x8=0x8000053c
       52865000	      5285	00000000	00000013	addi	x0,x0,0	  x0:0x00000000
       52875000	      5286	8000055c	00000013	addi	x0,x0,0	  x0:0x00000000
       52885000	      5287	80000560	ff1ff0ef	jal	x1,80000560	  x1=0x80000560
       52895000	      5288	00000000	00000013	addi	x0,x0,0	  x0:0x00000000
       52905000	      5289	8000054c	00000013	addi	x0,x0,0	  x0:0x00000000
       52915000	      5290	80000550	ff5ff0ef	jal	x1,80000550	  x1=0x80000550
       52925000	      5291	00000000	00000013	addi	x0,x0,0	  x0:0x00000000
       52935000	      5292	80000540	00000013	addi	x0,x0,0	  x0:0x00000000
       52945000	      5293	80000544	0140036f	jal	x6,80000544	  x6=0x80000544
       52955000	      5294	00000000	00000013	addi	x0,x0,0	  x0:0x00000000
       52965000	      5295	80000554	00000013	addi	x0,x0,0	  x0:0x00000000
       52975000	      5296	80000558	fe9ff46f	jal	x8,80000558	  x8=0x80000558
       52985000	      5297	00000000	00000013	addi	x0,x0,0	  x0:0x00000000
       52995000	      5298	8000053c	00000013	addi	x0,x0,0	  x0:0x00000000
       53005000	      5299	80000540	008000ef	jal	x1,80000540	  x1=0x80000540
       53015000	      5300	00000000	00000013	addi	x0,x0,0	  x0:0x00000000
       53025000	      5301	80000544	00000013	addi	x0,x0,0	  x0:0x00000000
       53035000	      5302	80000548	02c000ef	jal	x1,80000548	  x1=0x80000548
       53045000	      5303	00000000	00000013	addi	x0,x0,0	  x0:0x00000000
       53055000	      5304	80000570	00000013	addi	x0,x0,0	  x0:0x00000000
       53065000	      5305	80000574	fe9ffcef	jal	x25,80000574	 x25=0x80000574
       53075000	      5306	00000000	00000013	addi	x0,x0,0	  x0:0x00000000
       53085000	      5307	80000558	00000013	addi	x0,x0,0	  x0:0x00000000
       53095000	      5308	8000055c	fc9ff0ef	jal	x1,8000055c	  x1=0x8000055c
       53105000	      5309	00000000	00000013	addi	x0,x0,0	  x0:0x00000000
       53115000	      5310	80000520	00000013	addi	x0,x0,0	  x0:0x00000000
       53125000	      5311	80000524	0300036f	jal	x6,80000524	  x6=0x80000524
       53135000	      5312	00000000	00000013	addi	x0,x0,0	  x0:0x00000000
       53145000	      5313	80000550	00000013	addi	x0,x0,0	  x0:0x00000000
       53155000	      5314	80000554	0100036f	jal	x6,80000554	  x6=0x80000554
       53165000	      5315	00000000	00000013	addi	x0,x0,0	  x0:0x00000000
       53175000	      5316	80000560	00000013	addi	x0,x0,0	  x0:0x00000000
       53185000	      5317	80000564	01800cef	jal	x25,80000564	 x25=0x80000564
       53195000	      5318	00000000	00000013	addi	x0,x0,0	  x0:0x00000000
       53205000	      5319	80000578	00000013	addi	x0,x0,0	  x0:0x00000000
       53215000	      5320	8000057c	00900333	add	x6,x0,x9	  x0:0x00000000  x9:0x8000052c  x6=0x8000052c
       53225000	      5321	80000580	040000ef	jal	x1,80000580	  x1=0x80000580
       53235000	      5322	00000000	00000013	addi	x0,x0,0	  x0:0x00000000
       53245000	      5323	800005bc	00000013	addi	x0,x0,0	  x0:0x00000000
       53255000	      5324	800005c0	014000ef	jal	x1,800005c0	  x1=0x800005c0
       53265000	      5325	00000000	00000013	addi	x0,x0,0	  x0:0x00000000
       53275000	      5326	800005d0	00000013	addi	x0,x0,0	  x0:0x00000000
       53285000	      5327	800005d4	fe5ff96f	jal	x18,800005d4	 x18=0x800005d4
       53295000	      5328	00000000	00000013	addi	x0,x0,0	  x0:0x00000000
       53305000	      5329	800005b4	00000013	addi	x0,x0,0	  x0:0x00000000
       53315000	      5330	800005b8	0040036f	jal	x6,800005b8	  x6=0x800005b8
       53325000	      5331	00000000	00000013	addi	x0,x0,0	  x0:0x00000000
       53335000	      5332	800005b8	00000013	addi	x0,x0,0	  x0:0x00000000
       53345000	      5333	800005bc	ff5ff36f	jal	x6,800005bc	  x6=0x800005bc
       53355000	      5334	00000000	00000013	addi	x0,x0,0	  x0:0x00000000
       53365000	      5335	800005ac	00000013	addi	x0,x0,0	  x0:0x00000000
       53375000	      5336	800005b0	038002ef	jal	x5,800005b0	  x5=0x800005b0
       53385000	      5337	00000000	00000013	addi	x0,x0,0	  x0:0x00000000
       53395000	      5338	800005e4	00000013	addi	x0,x0,0	  x0:0x00000000
       53405000	      5339	800005e8	fe5ff96f	jal	x18,800005e8	 x18=0x800005e8
       53415000	      5340	00000000	00000013	addi	x0,x0,0	  x0:0x00000000
       53425000	      5341	800005c8	00000013	addi	x0,x0,0	  x0:0x00000000
       53435000	      5342	800005cc	014000ef	jal	x1,800005cc	  x1=0x800005cc
       53445000	      5343	00000000	00000013	addi	x0,x0,0	  x0:0x00000000
       53455000	      5344	800005dc	00000013	addi	x0,x0,0	  x0:0x00000000
       53465000	      5345	800005e0	fbdff0ef	jal	x1,800005e0	  x1=0x800005e0
       53475000	      5346	00000000	00000013	addi	x0,x0,0	  x0:0x00000000
       53485000	      5347	80000598	00000013	addi	x0,x0,0	  x0:0x00000000
       53495000	      5348	8000059c	00c000ef	jal	x1,8000059c	  x1=0x8000059c
       53505000	      5349	00000000	00000013	addi	x0,x0,0	  x0:0x00000000
       53515000	      5350	800005a4	00000013	addi	x0,x0,0	  x0:0x00000000
       53525000	      5351	800005a8	044000ef	jal	x1,800005a8	  x1=0x800005a8
       53535000	      5352	00000000	00000013	addi	x0,x0,0	  x0:0x00000000
       53545000	      5353	800005e8	00000013	addi	x0,x0,0	  x0:0x00000000
       53555000	      5354	800005ec	fc9ffcef	jal	x25,800005ec	 x25=0x800005ec
       53565000	      5355	00000000	00000013	addi	x0,x0,0	  x0:0x00000000
       53575000	      5356	800005b0	00000013	addi	x0,x0,0	  x0:0x00000000
       53585000	      5357	800005b4	fe1ffaef	jal	x21,800005b4	 x21=0x800005b4
       53595000	      5358	00000000	00000013	addi	x0,x0,0	  x0:0x00000000
       53605000	      5359	80000590	00000013	addi	x0,x0,0	  x0:0x00000000
       53615000	      5360	80000594	030000ef	jal	x1,80000594	  x1=0x80000594
       53625000	      5361	00000000	00000013	addi	x0,x0,0	  x0:0x00000000
       53635000	      5362	800005c0	00000013	addi	x0,x0,0	  x0:0x00000000
       53645000	      5363	800005c4	fc5ff0ef	jal	x1,800005c4	  x1=0x800005c4
       53655000	      5364	00000000	00000013	addi	x0,x0,0	  x0:0x00000000
       53665000	      5365	80000584	00000013	addi	x0,x0,0	  x0:0x00000000
       53675000	      5366	80000588	0480036f	jal	x6,80000588	  x6=0x80000588
       53685000	      5367	00000000	00000013	addi	x0,x0,0	  x0:0x00000000
       53695000	      5368	800005cc	00000013	addi	x0,x0,0	  x0:0x00000000
       53705000	      5369	800005d0	fd1ff0ef	jal	x1,800005d0	  x1=0x800005d0
       53715000	      5370	00000000	00000013	addi	x0,x0,0	  x0:0x00000000
       53725000	      5371	8000059c	00000013	addi	x0,x0,0	  x0:0x00000000
       53735000	      5372	800005a0	0440036f	jal	x6,800005a0	  x6=0x800005a0
       53745000	      5373	00000000	00000013	addi	x0,x0,0	  x0:0x00000000
       53755000	      5374	800005e0	00000013	addi	x0,x0,0	  x0:0x00000000
       53765000	      5375	800005e4	fadff0ef	jal	x1,800005e4	  x1=0x800005e4
       53775000	      5376	00000000	00000013	addi	x0,x0,0	  x0:0x00000000
       53785000	      5377	8000058c	00000013	addi	x0,x0,0	  x0:0x00000000
       53795000	      5378	80000590	0140036f	jal	x6,80000590	  x6=0x80000590
       53805000	      5379	00000000	00000013	addi	x0,x0,0	  x0:0x00000000
       53815000	      5380	800005a0	00000013	addi	x0,x0,0	  x0:0x00000000
       53825000	      5381	800005a4	fe1ff26f	jal	x4,800005a4	  x4=0x800005a4
       53835000	      5382	00000000	00000013	addi	x0,x0,0	  x0:0x00000000
       53845000	      5383	80000580	00000013	addi	x0,x0,0	  x0:0x00000000
       53855000	      5384	80000584	008000ef	jal	x1,80000584	  x1=0x80000584
       53865000	      5385	00000000	00000013	addi	x0,x0,0	  x0:0x00000000
       53875000	      5386	80000588	00000013	addi	x0,x0,0	  x0:0x00000000
       53885000	      5387	8000058c	03c0036f	jal	x6,8000058c	  x6=0x8000058c
       53895000	      5388	00000000	00000013	addi	x0,x0,0	  x0:0x00000000
       53905000	      5389	800005c4	00000013	addi	x0,x0,0	  x0:0x00000000
       53915000	      5390	800005c8	fd1ff0ef	jal	x1,800005c8	  x1=0x800005c8
       53925000	      5391	00000000	00000013	addi	x0,x0,0	  x0:0x00000000
       53935000	      5392	80000594	00000013	addi	x0,x0,0	  x0:0x00000000
       53945000	      5393	80000598	0440026f	jal	x4,80000598	  x4=0x80000598
       53955000	      5394	00000000	00000013	addi	x0,x0,0	  x0:0x00000000
       53965000	      5395	800005d8	00000013	addi	x0,x0,0	  x0:0x00000000
       53975000	      5396	800005dc	ffdff0ef	jal	x1,800005dc	  x1=0x800005dc
       53985000	      5397	00000000	00000013	addi	x0,x0,0	  x0:0x00000000
       53995000	      5398	800005d4	00000013	addi	x0,x0,0	  x0:0x00000000
       54005000	      5399	800005d8	fd5ff36f	jal	x6,800005d8	  x6=0x800005d8
       54015000	      5400	00000000	00000013	addi	x0,x0,0	  x0:0x00000000
       54025000	      5401	800005a8	00000013	addi	x0,x0,0	  x0:0x00000000
       54035000	      5402	800005ac	044004ef	jal	x9,800005ac	  x9=0x800005ac
       54045000	      5403	00000000	00000013	addi	x0,x0,0	  x0:0x00000000
       54055000	      5404	800005ec	00000013	addi	x0,x0,0	  x0:0x00000000
       54065000	      5405	800005f0	bf683413	sltiu	x8,x16,-1034	 x16:0x80000448  x8=0x00000001
       54075000	      5406	800005f4	01c000ef	jal	x1,800005f4	  x1=0x800005f4
       54085000	      5407	00000000	00000013	addi	x0,x0,0	  x0:0x00000000
       54095000	      5408	8000060c	00000013	addi	x0,x0,0	  x0:0x00000000
       54105000	      5409	80000610	fedffeef	jal	x29,80000610	 x29=0x80000610
       54115000	      5410	00000000	00000013	addi	x0,x0,0	  x0:0x00000000
       54125000	      5411	800005f8	00000013	addi	x0,x0,0	  x0:0x00000000
       54135000	      5412	800005fc	00c000ef	jal	x1,800005fc	  x1=0x800005fc
       54145000	      5413	00000000	00000013	addi	x0,x0,0	  x0:0x00000000
       54155000	      5414	80000604	00000013	addi	x0,x0,0	  x0:0x00000000
       54165000	      5415	80000608	00c0016f	jal	x2,80000608	  x2=0x80000608
       54175000	      5416	00000000	00000013	addi	x0,x0,0	  x0:0x00000000
       54185000	      5417	80000610	00000013	addi	x0,x0,0	  x0:0x00000000
       54195000	      5418	80000614	fe5ff0ef	jal	x1,80000614	  x1=0x80000614
       54205000	      5419	00000000	00000013	addi	x0,x0,0	  x0:0x00000000
       54215000	      5420	800005f4	00000013	addi	x0,x0,0	  x0:0x00000000
       54225000	      5421	800005f8	008000ef	jal	x1,800005f8	  x1=0x800005f8
       54235000	      5422	00000000	00000013	addi	x0,x0,0	  x0:0x00000000
       54245000	      5423	800005fc	00000013	addi	x0,x0,0	  x0:0x00000000
       54255000	      5424	80000600	00c006ef	jal	x13,80000600	 x13=0x80000600
       54265000	      5425	00000000	00000013	addi	x0,x0,0	  x0:0x00000000
       54275000	      5426	80000608	00000013	addi	x0,x0,0	  x0:0x00000000
       54285000	      5427	8000060c	018009ef	jal	x19,8000060c	 x19=0x8000060c
       54295000	      5428	00000000	00000013	addi	x0,x0,0	  x0:0x00000000
       54305000	      5429	80000620	00000013	addi	x0,x0,0	  x0:0x00000000
       54315000	      5430	80000624	ff9ff3ef	jal	x7,80000624	  x7=0x80000624
       54325000	      5431	00000000	00000013	addi	x0,x0,0	  x0:0x00000000
       54335000	      5432	80000618	00000013	addi	x0,x0,0	  x0:0x00000000
       54345000	      5433	8000061c	ffdff0ef	jal	x1,8000061c	  x1=0x8000061c
       54355000	      5434	00000000	00000013	addi	x0,x0,0	  x0:0x00000000
       54365000	      5435	80000614	00000013	addi	x0,x0,0	  x0:0x00000000
       54375000	      5436	80000618	008000ef	jal	x1,80000618	  x1=0x80000618
       54385000	      5437	00000000	00000013	addi	x0,x0,0	  x0:0x00000000
       54395000	      5438	8000061c	00000013	addi	x0,x0,0	  x0:0x00000000
       54405000	      5439	80000620	008000ef	jal	x1,80000620	  x1=0x80000620
       54415000	      5440	00000000	00000013	addi	x0,x0,0	  x0:0x00000000
       54425000	      5441	80000624	00000013	addi	x0,x0,0	  x0:0x00000000
       54435000	      5442	80000628	fddff9ef	jal	x19,80000628	 x19=0x80000628
       54445000	      5443	00000000	00000013	addi	x0,x0,0	  x0:0x00000000
       54455000	      5444	80000600	00000013	addi	x0,x0,0	  x0:0x00000000
       54465000	      5445	80000604	0280016f	jal	x2,80000604	  x2=0x80000604
       54475000	      5446	00000000	00000013	addi	x0,x0,0	  x0:0x00000000
       54485000	      5447	80000628	00000013	addi	x0,x0,0	  x0:0x00000000
       54495000	      5448	8000062c	41e506b3	sub	x13,x10,x30	 x10:0x00000000 x30:0x80009fc4 x13=0x7fff603c
       54505000	      5449	80000630	010000ef	jal	x1,80000630	  x1=0x80000630
       54515000	      5450	00000000	00000013	addi	x0,x0,0	  x0:0x00000000
       54525000	      5451	8000063c	00000013	addi	x0,x0,0	  x0:0x00000000
       54535000	      5452	80000640	ffdff26f	jal	x4,80000640	  x4=0x80000640
       54545000	      5453	00000000	00000013	addi	x0,x0,0	  x0:0x00000000
       54555000	      5454	80000638	00000013	addi	x0,x0,0	  x0:0x00000000
       54565000	      5455	8000063c	034000ef	jal	x1,8000063c	  x1=0x8000063c
       54575000	      5456	00000000	00000013	addi	x0,x0,0	  x0:0x00000000
       54585000	      5457	8000066c	00000013	addi	x0,x0,0	  x0:0x00000000
       54595000	      5458	80000670	fd9ff36f	jal	x6,80000670	  x6=0x80000670
       54605000	      5459	00000000	00000013	addi	x0,x0,0	  x0:0x00000000
       54615000	      5460	80000644	00000013	addi	x0,x0,0	  x0:0x00000000
       54625000	      5461	80000648	020007ef	jal	x15,80000648	 x15=0x80000648
       54635000	      5462	00000000	00000013	addi	x0,x0,0	  x0:0x00000000
       54645000	      5463	80000664	00000013	addi	x0,x0,0	  x0:0x00000000
       54655000	      5464	80000668	004008ef	jal	x17,80000668	 x17=0x80000668
       54665000	      5465	00000000	00000013	addi	x0,x0,0	  x0:0x00000000
       54675000	      5466	80000668	00000013	addi	x0,x0,0	  x0:0x00000000
       54685000	      5467	8000066c	024000ef	jal	x1,8000066c	  x1=0x8000066c
       54695000	      5468	00000000	00000013	addi	x0,x0,0	  x0:0x00000000
       54705000	      5469	8000068c	00000013	addi	x0,x0,0	  x0:0x00000000
       54715000	      5470	80000690	fd1ff0ef	jal	x1,80000690	  x1=0x80000690
       54725000	      5471	00000000	00000013	addi	x0,x0,0	  x0:0x00000000
       54735000	      5472	8000065c	00000013	addi	x0,x0,0	  x0:0x00000000
       54745000	      5473	80000660	fd5ff0ef	jal	x1,80000660	  x1=0x80000660
       54755000	      5474	00000000	00000013	addi	x0,x0,0	  x0:0x00000000
       54765000	      5475	80000630	00000013	addi	x0,x0,0	  x0:0x00000000
       54775000	      5476	80000634	06c0036f	jal	x6,80000634	  x6=0x80000634
       54785000	      5477	00000000	00000013	addi	x0,x0,0	  x0:0x00000000
       54795000	      5478	8000069c	00000013	addi	x0,x0,0	  x0:0x00000000
       54805000	      5479	800006a0	fbdff0ef	jal	x1,800006a0	  x1=0x800006a0
       54815000	      5480	00000000	00000013	addi	x0,x0,0	  x0:0x00000000
       54825000	      5481	80000658	00000013	addi	x0,x0,0	  x0:0x00000000
       54835000	      5482	8000065c	03c000ef	jal	x1,8000065c	  x1=0x8000065c
       54845000	      5483	00000000	00000013	addi	x0,x0,0	  x0:0x00000000
       54855000	      5484	80000694	00000013	addi	x0,x0,0	  x0:0x00000000
       54865000	      5485	80000698	00400c6f	jal	x24,80000698	 x24=0x80000698
       54875000	      5486	00000000	00000013	addi	x0,x0,0	  x0:0x00000000
       54885000	      5487	80000698	00000013	addi	x0,x0,0	  x0:0x00000000
       54895000	      5488	8000069c	fddff16f	jal	x2,8000069c	  x2=0x8000069c
       54905000	      5489	00000000	00000013	addi	x0,x0,0	  x0:0x00000000
       54915000	      5490	80000674	00000013	addi	x0,x0,0	  x0:0x00000000
       54925000	      5491	80000678	fedff0ef	jal	x1,80000678	  x1=0x80000678
       54935000	      5492	00000000	00000013	addi	x0,x0,0	  x0:0x00000000
       54945000	      5493	80000660	00000013	addi	x0,x0,0	  x0:0x00000000
       54955000	      5494	80000664	fd5ffcef	jal	x25,80000664	 x25=0x80000664
       54965000	      5495	00000000	00000013	addi	x0,x0,0	  x0:0x00000000
       54975000	      5496	80000634	00000013	addi	x0,x0,0	  x0:0x00000000
       54985000	      5497	80000638	03c000ef	jal	x1,80000638	  x1=0x80000638
       54995000	      5498	00000000	00000013	addi	x0,x0,0	  x0:0x00000000
       55005000	      5499	80000670	00000013	addi	x0,x0,0	  x0:0x00000000
       55015000	      5500	80000674	fd1ff0ef	jal	x1,80000674	  x1=0x80000674
       55025000	      5501	00000000	00000013	addi	x0,x0,0	  x0:0x00000000
       55035000	      5502	80000640	00000013	addi	x0,x0,0	  x0:0x00000000
       55045000	      5503	80000644	0440036f	jal	x6,80000644	  x6=0x80000644
       55055000	      5504	00000000	00000013	addi	x0,x0,0	  x0:0x00000000
       55065000	      5505	80000684	00000013	addi	x0,x0,0	  x0:0x00000000
       55075000	      5506	80000688	fd1ff36f	jal	x6,80000688	  x6=0x80000688
       55085000	      5507	00000000	00000013	addi	x0,x0,0	  x0:0x00000000
       55095000	      5508	80000654	00000013	addi	x0,x0,0	  x0:0x00000000
       55105000	      5509	80000658	ffdff5ef	jal	x11,80000658	 x11=0x80000658
       55115000	      5510	00000000	00000013	addi	x0,x0,0	  x0:0x00000000
       55125000	      5511	80000650	00000013	addi	x0,x0,0	  x0:0x00000000
       55135000	      5512	80000654	038000ef	jal	x1,80000654	  x1=0x80000654
       55145000	      5513	00000000	00000013	addi	x0,x0,0	  x0:0x00000000
       55155000	      5514	80000688	00000013	addi	x0,x0,0	  x0:0x00000000
       55165000	      5515	8000068c	ff1ff8ef	jal	x17,8000068c	 x17=0x8000068c
       55175000	      5516	00000000	00000013	addi	x0,x0,0	  x0:0x00000000
       55185000	      5517	80000678	00000013	addi	x0,x0,0	  x0:0x00000000
       55195000	      5518	8000067c	008005ef	jal	x11,8000067c	 x11=0x8000067c
       55205000	      5519	00000000	00000013	addi	x0,x0,0	  x0:0x00000000
       55215000	      5520	80000680	00000013	addi	x0,x0,0	  x0:0x00000000
       55225000	      5521	80000684	fcdff2ef	jal	x5,80000684	  x5=0x80000684
       55235000	      5522	00000000	00000013	addi	x0,x0,0	  x0:0x00000000
       55245000	      5523	8000064c	00000013	addi	x0,x0,0	  x0:0x00000000
       55255000	      5524	80000650	0440096f	jal	x18,80000650	 x18=0x80000650
       55265000	      5525	00000000	00000013	addi	x0,x0,0	  x0:0x00000000
       55275000	      5526	80000690	00000013	addi	x0,x0,0	  x0:0x00000000
       55285000	      5527	80000694	fb9ff0ef	jal	x1,80000694	  x1=0x80000694
       55295000	      5528	00000000	00000013	addi	x0,x0,0	  x0:0x00000000
       55305000	      5529	80000648	00000013	addi	x0,x0,0	  x0:0x00000000
       55315000	      5530	8000064c	0340036f	jal	x6,8000064c	  x6=0x8000064c
       55325000	      5531	00000000	00000013	addi	x0,x0,0	  x0:0x00000000
       55335000	      5532	8000067c	00000013	addi	x0,x0,0	  x0:0x00000000
       55345000	      5533	80000680	0240076f	jal	x14,80000680	 x14=0x80000680
       55355000	      5534	00000000	00000013	addi	x0,x0,0	  x0:0x00000000
       55365000	      5535	800006a0	00000013	addi	x0,x0,0	  x0:0x00000000
       55375000	      5536	800006a4	57ff5297	auipc	x5,0x57ff5	  x5=0xd7ff56a0
       55385000	      5537	800006a8	04c000ef	jal	x1,800006a8	  x1=0x800006a8
       55395000	      5538	00000000	00000013	addi	x0,x0,0	  x0:0x00000000
       55405000	      5539	800006f0	00000013	addi	x0,x0,0	  x0:0x00000000
       55415000	      5540	800006f4	ff9ff9ef	jal	x19,800006f4	 x19=0x800006f4
       55425000	      5541	00000000	00000013	addi	x0,x0,0	  x0:0x00000000
       55435000	      5542	800006e8	00000013	addi	x0,x0,0	  x0:0x00000000
       55445000	      5543	800006ec	fd9ff0ef	jal	x1,800006ec	  x1=0x800006ec
       55455000	      5544	00000000	00000013	addi	x0,x0,0	  x0:0x00000000
       55465000	      5545	800006c0	00000013	addi	x0,x0,0	  x0:0x00000000
       55475000	      5546	800006c4	020000ef	jal	x1,800006c4	  x1=0x800006c4
       55485000	      5547	00000000	00000013	addi	x0,x0,0	  x0:0x00000000
       55495000	      5548	800006e0	00000013	addi	x0,x0,0	  x0:0x00000000
       55505000	      5549	800006e4	020000ef	jal	x1,800006e4	  x1=0x800006e4
       55515000	      5550	00000000	00000013	addi	x0,x0,0	  x0:0x00000000
       55525000	      5551	80000700	00000013	addi	x0,x0,0	  x0:0x00000000
       55535000	      5552	80000704	fc9ff36f	jal	x6,80000704	  x6=0x80000704
       55545000	      5553	00000000	00000013	addi	x0,x0,0	  x0:0x00000000
       55555000	      5554	800006c8	00000013	addi	x0,x0,0	  x0:0x00000000
       55565000	      5555	800006cc	034000ef	jal	x1,800006cc	  x1=0x800006cc
       55575000	      5556	00000000	00000013	addi	x0,x0,0	  x0:0x00000000
       55585000	      5557	800006fc	00000013	addi	x0,x0,0	  x0:0x00000000
       55595000	      5558	80000700	ff1ff56f	jal	x10,80000700	 x10=0x80000700
       55605000	      5559	00000000	00000013	addi	x0,x0,0	  x0:0x00000000
       55615000	      5560	800006ec	00000013	addi	x0,x0,0	  x0:0x00000000
       55625000	      5561	800006f0	fc1ffbef	jal	x23,800006f0	 x23=0x800006f0
       55635000	      5562	00000000	00000013	addi	x0,x0,0	  x0:0x00000000
       55645000	      5563	800006ac	00000013	addi	x0,x0,0	  x0:0x00000000
       55655000	      5564	800006b0	04c00aef	jal	x21,800006b0	 x21=0x800006b0
       55665000	      5565	00000000	00000013	addi	x0,x0,0	  x0:0x00000000
       55675000	      5566	800006f8	00000013	addi	x0,x0,0	  x0:0x00000000
       55685000	      5567	800006fc	018000ef	jal	x1,800006fc	  x1=0x800006fc
       55695000	      5568	00000000	00000013	addi	x0,x0,0	  x0:0x00000000
       55705000	      5569	80000710	00000013	addi	x0,x0,0	  x0:0x00000000
       55715000	      5570	80000714	fa1ff36f	jal	x6,80000714	  x6=0x80000714
       55725000	      5571	00000000	00000013	addi	x0,x0,0	  x0:0x00000000
       55735000	      5572	800006b0	00000013	addi	x0,x0,0	  x0:0x00000000
       55745000	      5573	800006b4	01400c6f	jal	x24,800006b4	 x24=0x800006b4
       55755000	      5574	00000000	00000013	addi	x0,x0,0	  x0:0x00000000
       55765000	      5575	800006c4	00000013	addi	x0,x0,0	  x0:0x00000000
       55775000	      5576	800006c8	ff1ff36f	jal	x6,800006c8	  x6=0x800006c8
       55785000	      5577	00000000	00000013	addi	x0,x0,0	  x0:0x00000000
       55795000	      5578	800006b4	00000013	addi	x0,x0,0	  x0:0x00000000
       55805000	      5579	800006b8	068004ef	jal	x9,800006b8	  x9=0x800006b8
       55815000	      5580	00000000	00000013	addi	x0,x0,0	  x0:0x00000000
       55825000	      5581	8000071c	00000013	addi	x0,x0,0	  x0:0x00000000
       55835000	      5582	80000720	fedff0ef	jal	x1,80000720	  x1=0x80000720
       55845000	      5583	00000000	00000013	addi	x0,x0,0	  x0:0x00000000
       55855000	      5584	80000708	00000013	addi	x0,x0,0	  x0:0x00000000
       55865000	      5585	8000070c	00c007ef	jal	x15,8000070c	 x15=0x8000070c
       55875000	      5586	00000000	00000013	addi	x0,x0,0	  x0:0x00000000
       55885000	      5587	80000714	00000013	addi	x0,x0,0	  x0:0x00000000
       55895000	      5588	80000718	fc1ff0ef	jal	x1,80000718	  x1=0x80000718
       55905000	      5589	00000000	00000013	addi	x0,x0,0	  x0:0x00000000
       55915000	      5590	800006d4	00000013	addi	x0,x0,0	  x0:0x00000000
       55925000	      5591	800006d8	fe5ff0ef	jal	x1,800006d8	  x1=0x800006d8
       55935000	      5592	00000000	00000013	addi	x0,x0,0	  x0:0x00000000
       55945000	      5593	800006b8	00000013	addi	x0,x0,0	  x0:0x00000000
       55955000	      5594	800006bc	03c000ef	jal	x1,800006bc	  x1=0x800006bc
       55965000	      5595	00000000	00000013	addi	x0,x0,0	  x0:0x00000000
       55975000	      5596	800006f4	00000013	addi	x0,x0,0	  x0:0x00000000
       55985000	      5597	800006f8	0240036f	jal	x6,800006f8	  x6=0x800006f8
       55995000	      5598	00000000	00000013	addi	x0,x0,0	  x0:0x00000000
       56005000	      5599	80000718	00000013	addi	x0,x0,0	  x0:0x00000000
       56015000	      5600	8000071c	ff5ff0ef	jal	x1,8000071c	  x1=0x8000071c
       56025000	      5601	00000000	00000013	addi	x0,x0,0	  x0:0x00000000
       56035000	      5602	8000070c	00000013	addi	x0,x0,0	  x0:0x00000000
       56045000	      5603	80000710	fc1ff0ef	jal	x1,80000710	  x1=0x80000710
       56055000	      5604	00000000	00000013	addi	x0,x0,0	  x0:0x00000000
       56065000	      5605	800006cc	00000013	addi	x0,x0,0	  x0:0x00000000
       56075000	      5606	800006d0	038000ef	jal	x1,800006d0	  x1=0x800006d0
       56085000	      5607	00000000	00000013	addi	x0,x0,0	  x0:0x00000000
       56095000	      5608	80000704	00000013	addi	x0,x0,0	  x0:0x00000000
       56105000	      5609	80000708	fd5ff0ef	jal	x1,80000708	  x1=0x80000708
       56115000	      5610	00000000	00000013	addi	x0,x0,0	  x0:0x00000000
       56125000	      5611	800006d8	00000013	addi	x0,x0,0	  x0:0x00000000
       56135000	      5612	800006dc	00c0036f	jal	x6,800006dc	  x6=0x800006dc
       56145000	      5613	00000000	00000013	addi	x0,x0,0	  x0:0x00000000
       56155000	      5614	800006e4	00000013	addi	x0,x0,0	  x0:0x00000000
       56165000	      5615	800006e8	fedff0ef	jal	x1,800006e8	  x1=0x800006e8
       56175000	      5616	00000000	00000013	addi	x0,x0,0	  x0:0x00000000
       56185000	      5617	800006d0	00000013	addi	x0,x0,0	  x0:0x00000000
       56195000	      5618	800006d4	fedff0ef	jal	x1,800006d4	  x1=0x800006d4
       56205000	      5619	00000000	00000013	addi	x0,x0,0	  x0:0x00000000
       56215000	      5620	800006bc	00000013	addi	x0,x0,0	  x0:0x00000000
       56225000	      5621	800006c0	020002ef	jal	x5,800006c0	  x5=0x800006c0
       56235000	      5622	00000000	00000013	addi	x0,x0,0	  x0:0x00000000
       56245000	      5623	800006dc	00000013	addi	x0,x0,0	  x0:0x00000000
       56255000	      5624	800006e0	fcdff26f	jal	x4,800006e0	  x4=0x800006e0
       56265000	      5625	00000000	00000013	addi	x0,x0,0	  x0:0x00000000
       56275000	      5626	800006a8	00000013	addi	x0,x0,0	  x0:0x00000000
       56285000	      5627	800006ac	078000ef	jal	x1,800006ac	  x1=0x800006ac
       56295000	      5628	00000000	00000013	addi	x0,x0,0	  x0:0x00000000
       56305000	      5629	80000720	00000013	addi	x0,x0,0	  x0:0x00000000
       56315000	      5630	80000724	01bd1d13	slli	x26,x26,0x1b	 x26:0x800003c8 x26=0x40000000
       56325000	      5631	80000728	004000ef	jal	x1,80000728	  x1=0x80000728
       56335000	      5632	00000000	00000013	addi	x0,x0,0	  x0:0x00000000
       56345000	      5633	80000728	00000013	addi	x0,x0,0	  x0:0x00000000
       56355000	      5634	8000072c	02c000ef	jal	x1,8000072c	  x1=0x8000072c
       56365000	      5635	00000000	00000013	addi	x0,x0,0	  x0:0x00000000
       56375000	      5636	80000754	00000013	addi	x0,x0,0	  x0:0x00000000
       56385000	      5637	80000758	0080046f	jal	x8,80000758	  x8=0x80000758
       56395000	      5638	00000000	00000013	addi	x0,x0,0	  x0:0x00000000
       56405000	      5639	8000075c	00000013	addi	x0,x0,0	  x0:0x00000000
       56415000	      5640	80000760	fd9ff36f	jal	x6,80000760	  x6=0x80000760
       56425000	      5641	00000000	00000013	addi	x0,x0,0	  x0:0x00000000
       56435000	      5642	80000734	00000013	addi	x0,x0,0	  x0:0x00000000
       56445000	      5643	80000738	02c000ef	jal	x1,80000738	  x1=0x80000738
       56455000	      5644	00000000	00000013	addi	x0,x0,0	  x0:0x00000000
       56465000	      5645	80000760	00000013	addi	x0,x0,0	  x0:0x00000000
       56475000	      5646	80000764	fedff36f	jal	x6,80000764	  x6=0x80000764
       56485000	      5647	00000000	00000013	addi	x0,x0,0	  x0:0x00000000
       56495000	      5648	8000074c	00000013	addi	x0,x0,0	  x0:0x00000000
       56505000	      5649	80000750	004000ef	jal	x1,80000750	  x1=0x80000750
       56515000	      5650	00000000	00000013	addi	x0,x0,0	  x0:0x00000000
       56525000	      5651	80000750	00000013	addi	x0,x0,0	  x0:0x00000000
       56535000	      5652	80000754	fe9ff0ef	jal	x1,80000754	  x1=0x80000754
       56545000	      5653	00000000	00000013	addi	x0,x0,0	  x0:0x00000000
       56555000	      5654	80000738	00000013	addi	x0,x0,0	  x0:0x00000000
       56565000	      5655	8000073c	0200036f	jal	x6,8000073c	  x6=0x8000073c
       56575000	      5656	00000000	00000013	addi	x0,x0,0	  x0:0x00000000
       56585000	      5657	80000758	00000013	addi	x0,x0,0	  x0:0x00000000
       56595000	      5658	8000075c	fd5ff0ef	jal	x1,8000075c	  x1=0x8000075c
       56605000	      5659	00000000	00000013	addi	x0,x0,0	  x0:0x00000000
       56615000	      5660	8000072c	00000013	addi	x0,x0,0	  x0:0x00000000
       56625000	      5661	80000730	01400aef	jal	x21,80000730	 x21=0x80000730
       56635000	      5662	00000000	00000013	addi	x0,x0,0	  x0:0x00000000
       56645000	      5663	80000740	00000013	addi	x0,x0,0	  x0:0x00000000
       56655000	      5664	80000744	ff1ff76f	jal	x14,80000744	 x14=0x80000744
       56665000	      5665	00000000	00000013	addi	x0,x0,0	  x0:0x00000000
       56675000	      5666	80000730	00000013	addi	x0,x0,0	  x0:0x00000000
       56685000	      5667	80000734	014000ef	jal	x1,80000734	  x1=0x80000734
       56695000	      5668	00000000	00000013	addi	x0,x0,0	  x0:0x00000000
       56705000	      5669	80000744	00000013	addi	x0,x0,0	  x0:0x00000000
       56715000	      5670	80000748	004007ef	jal	x15,80000748	 x15=0x80000748
       56725000	      5671	00000000	00000013	addi	x0,x0,0	  x0:0x00000000
       56735000	      5672	80000748	00000013	addi	x0,x0,0	  x0:0x00000000
       56745000	      5673	8000074c	ff5ff0ef	jal	x1,8000074c	  x1=0x8000074c
       56755000	      5674	00000000	00000013	addi	x0,x0,0	  x0:0x00000000
       56765000	      5675	8000073c	00000013	addi	x0,x0,0	  x0:0x00000000
       56775000	      5676	80000740	0280036f	jal	x6,80000740	  x6=0x80000740
       56785000	      5677	00000000	00000013	addi	x0,x0,0	  x0:0x00000000
       56795000	      5678	80000764	00000013	addi	x0,x0,0	  x0:0x00000000
       56805000	      5679	80000768	01d43ab3	sltu	x21,x8,x29	  x8:0x80000758 x29:0x80000610 x21=0x00000000
       56815000	      5680	8000076c	028000ef	jal	x1,8000076c	  x1=0x8000076c
       56825000	      5681	00000000	00000013	addi	x0,x0,0	  x0:0x00000000
       56835000	      5682	80000790	00000013	addi	x0,x0,0	  x0:0x00000000
       56845000	      5683	80000794	03c000ef	jal	x1,80000794	  x1=0x80000794
       56855000	      5684	00000000	00000013	addi	x0,x0,0	  x0:0x00000000
       56865000	      5685	800007cc	00000013	addi	x0,x0,0	  x0:0x00000000
       56875000	      5686	800007d0	fe1ff0ef	jal	x1,800007d0	  x1=0x800007d0
       56885000	      5687	00000000	00000013	addi	x0,x0,0	  x0:0x00000000
       56895000	      5688	800007ac	00000013	addi	x0,x0,0	  x0:0x00000000
       56905000	      5689	800007b0	0300016f	jal	x2,800007b0	  x2=0x800007b0
       56915000	      5690	00000000	00000013	addi	x0,x0,0	  x0:0x00000000
       56925000	      5691	800007dc	00000013	addi	x0,x0,0	  x0:0x00000000
       56935000	      5692	800007e0	fadff0ef	jal	x1,800007e0	  x1=0x800007e0
       56945000	      5693	00000000	00000013	addi	x0,x0,0	  x0:0x00000000
       56955000	      5694	80000788	00000013	addi	x0,x0,0	  x0:0x00000000
       56965000	      5695	8000078c	034000ef	jal	x1,8000078c	  x1=0x8000078c
       56975000	      5696	00000000	00000013	addi	x0,x0,0	  x0:0x00000000
       56985000	      5697	800007bc	00000013	addi	x0,x0,0	  x0:0x00000000
       56995000	      5698	800007c0	fd9ffaef	jal	x21,800007c0	 x21=0x800007c0
       57005000	      5699	00000000	00000013	addi	x0,x0,0	  x0:0x00000000
       57015000	      5700	80000794	00000013	addi	x0,x0,0	  x0:0x00000000
       57025000	      5701	80000798	004000ef	jal	x1,80000798	  x1=0x80000798
       57035000	      5702	00000000	00000013	addi	x0,x0,0	  x0:0x00000000
       57045000	      5703	80000798	00000013	addi	x0,x0,0	  x0:0x00000000
       57055000	      5704	8000079c	010000ef	jal	x1,8000079c	  x1=0x8000079c
       57065000	      5705	00000000	00000013	addi	x0,x0,0	  x0:0x00000000
       57075000	      5706	800007a8	00000013	addi	x0,x0,0	  x0:0x00000000
       57085000	      5707	800007ac	fd9ff16f	jal	x2,800007ac	  x2=0x800007ac
       57095000	      5708	00000000	00000013	addi	x0,x0,0	  x0:0x00000000
       57105000	      5709	80000780	00000013	addi	x0,x0,0	  x0:0x00000000
       57115000	      5710	80000784	01c000ef	jal	x1,80000784	  x1=0x80000784
       57125000	      5711	00000000	00000013	addi	x0,x0,0	  x0:0x00000000
       57135000	      5712	8000079c	00000013	addi	x0,x0,0	  x0:0x00000000
       57145000	      5713	800007a0	034000ef	jal	x1,800007a0	  x1=0x800007a0
       57155000	      5714	00000000	00000013	addi	x0,x0,0	  x0:0x00000000
       57165000	      5715	800007d0	00000013	addi	x0,x0,0	  x0:0x00000000
       57175000	      5716	800007d4	fbdff36f	jal	x6,800007d4	  x6=0x800007d4
       57185000	      5717	00000000	00000013	addi	x0,x0,0	  x0:0x00000000
       57195000	      5718	8000078c	00000013	addi	x0,x0,0	  x0:0x00000000
       57205000	      5719	80000790	ff9ff7ef	jal	x15,80000790	 x15=0x80000790
       57215000	      5720	00000000	00000013	addi	x0,x0,0	  x0:0x00000000
       57225000	      5721	80000784	00000013	addi	x0,x0,0	  x0:0x00000000
       57235000	      5722	80000788	030000ef	jal	x1,80000788	  x1=0x80000788
       57245000	      5723	00000000	00000013	addi	x0,x0,0	  x0:0x00000000
       57255000	      5724	800007b4	00000013	addi	x0,x0,0	  x0:0x00000000
       57265000	      5725	800007b8	ff1ff0ef	jal	x1,800007b8	  x1=0x800007b8
       57275000	      5726	00000000	00000013	addi	x0,x0,0	  x0:0x00000000
       57285000	      5727	800007a4	00000013	addi	x0,x0,0	  x0:0x00000000
       57295000	      5728	800007a8	0200026f	jal	x4,800007a8	  x4=0x800007a8
       57305000	      5729	00000000	00000013	addi	x0,x0,0	  x0:0x00000000
       57315000	      5730	800007c4	00000013	addi	x0,x0,0	  x0:0x00000000
       57325000	      5731	800007c8	014000ef	jal	x1,800007c8	  x1=0x800007c8
       57335000	      5732	00000000	00000013	addi	x0,x0,0	  x0:0x00000000
       57345000	      5733	800007d8	00000013	addi	x0,x0,0	  x0:0x00000000
       57355000	      5734	800007dc	f95ff0ef	jal	x1,800007dc	  x1=0x800007dc
       57365000	      5735	00000000	00000013	addi	x0,x0,0	  x0:0x00000000
       57375000	      5736	8000076c	00000013	addi	x0,x0,0	  x0:0x00000000
       57385000	      5737	80000770	0340036f	jal	x6,80000770	  x6=0x80000770
       57395000	      5738	00000000	00000013	addi	x0,x0,0	  x0:0x00000000
       57405000	      5739	800007a0	00000013	addi	x0,x0,0	  x0:0x00000000
       57415000	      5740	800007a4	fd5ff0ef	jal	x1,800007a4	  x1=0x800007a4
       57425000	      5741	00000000	00000013	addi	x0,x0,0	  x0:0x00000000
       57435000	      5742	80000774	00000013	addi	x0,x0,0	  x0:0x00000000
       57445000	      5743	80000778	00800e6f	jal	x28,80000778	 x28=0x80000778
       57455000	      5744	00000000	00000013	addi	x0,x0,0	  x0:0x00000000
       57465000	      5745	8000077c	00000013	addi	x0,x0,0	  x0:0x00000000
       57475000	      5746	80000780	ffdff0ef	jal	x1,80000780	  x1=0x80000780
       57485000	      5747	00000000	00000013	addi	x0,x0,0	  x0:0x00000000
       57495000	      5748	80000778	00000013	addi	x0,x0,0	  x0:0x00000000
       57505000	      5749	8000077c	0400016f	jal	x2,8000077c	  x2=0x8000077c
       57515000	      5750	00000000	00000013	addi	x0,x0,0	  x0:0x00000000
       57525000	      5751	800007b8	00000013	addi	x0,x0,0	  x0:0x00000000
       57535000	      5752	800007bc	0080036f	jal	x6,800007bc	  x6=0x800007bc
       57545000	      5753	00000000	00000013	addi	x0,x0,0	  x0:0x00000000
       57555000	      5754	800007c0	00000013	addi	x0,x0,0	  x0:0x00000000
       57565000	      5755	800007c4	0080076f	jal	x14,800007c4	 x14=0x800007c4
       57575000	      5756	00000000	00000013	addi	x0,x0,0	  x0:0x00000000
       57585000	      5757	800007c8	00000013	addi	x0,x0,0	  x0:0x00000000
       57595000	      5758	800007cc	00c0036f	jal	x6,800007cc	  x6=0x800007cc
       57605000	      5759	00000000	00000013	addi	x0,x0,0	  x0:0x00000000
       57615000	      5760	800007d4	00000013	addi	x0,x0,0	  x0:0x00000000
       57625000	      5761	800007d8	f9dff0ef	jal	x1,800007d8	  x1=0x800007d8
       57635000	      5762	00000000	00000013	addi	x0,x0,0	  x0:0x00000000
       57645000	      5763	80000770	00000013	addi	x0,x0,0	  x0:0x00000000
       57655000	      5764	80000774	04000e6f	jal	x28,80000774	 x28=0x80000774
       57665000	      5765	00000000	00000013	addi	x0,x0,0	  x0:0x00000000
       57675000	      5766	800007b0	00000013	addi	x0,x0,0	  x0:0x00000000
       57685000	      5767	800007b4	03000e6f	jal	x28,800007b4	 x28=0x800007b4
       57695000	      5768	00000000	00000013	addi	x0,x0,0	  x0:0x00000000
       57705000	      5769	800007e0	00000013	addi	x0,x0,0	  x0:0x00000000
       57715000	      5770	800007e4	f2a98097	auipc	x1,0xf2a98	  x1=0x72a987e0
       57725000	      5771	800007e8	018000ef	jal	x1,800007e8	  x1=0x800007e8
       57735000	      5772	00000000	00000013	addi	x0,x0,0	  x0:0x00000000
       57745000	      5773	800007fc	00000013	addi	x0,x0,0	  x0:0x00000000
       57755000	      5774	80000800	ff9ffc6f	jal	x24,80000800	 x24=0x80000800
       57765000	      5775	00000000	00000013	addi	x0,x0,0	  x0:0x00000000
       57775000	      5776	800007f4	00000013	addi	x0,x0,0	  x0:0x00000000
       57785000	      5777	800007f8	ff5ff0ef	jal	x1,800007f8	  x1=0x800007f8
       57795000	      5778	00000000	00000013	addi	x0,x0,0	  x0:0x00000000
       57805000	      5779	800007e8	00000013	addi	x0,x0,0	  x0:0x00000000
       57815000	      5780	800007ec	008000ef	jal	x1,800007ec	  x1=0x800007ec
       57825000	      5781	00000000	00000013	addi	x0,x0,0	  x0:0x00000000
       57835000	      5782	800007f0	00000013	addi	x0,x0,0	  x0:0x00000000
       57845000	      5783	800007f4	01c0026f	jal	x4,800007f4	  x4=0x800007f4
       57855000	      5784	00000000	00000013	addi	x0,x0,0	  x0:0x00000000
       57865000	      5785	8000080c	00000013	addi	x0,x0,0	  x0:0x00000000
       57875000	      5786	80000810	004000ef	jal	x1,80000810	  x1=0x80000810
       57885000	      5787	00000000	00000013	addi	x0,x0,0	  x0:0x00000000
       57895000	      5788	80000810	00000013	addi	x0,x0,0	  x0:0x00000000
       57905000	      5789	80000814	fddff0ef	jal	x1,80000814	  x1=0x80000814
       57915000	      5790	00000000	00000013	addi	x0,x0,0	  x0:0x00000000
       57925000	      5791	800007ec	00000013	addi	x0,x0,0	  x0:0x00000000
       57935000	      5792	800007f0	018000ef	jal	x1,800007f0	  x1=0x800007f0
       57945000	      5793	00000000	00000013	addi	x0,x0,0	  x0:0x00000000
       57955000	      5794	80000804	00000013	addi	x0,x0,0	  x0:0x00000000
       57965000	      5795	80000808	ff5ff36f	jal	x6,80000808	  x6=0x80000808
       57975000	      5796	00000000	00000013	addi	x0,x0,0	  x0:0x00000000
       57985000	      5797	800007f8	00000013	addi	x0,x0,0	  x0:0x00000000
       57995000	      5798	800007fc	010002ef	jal	x5,800007fc	  x5=0x800007fc
       58005000	      5799	00000000	00000013	addi	x0,x0,0	  x0:0x00000000
       58015000	      5800	80000808	00000013	addi	x0,x0,0	  x0:0x00000000
       58025000	      5801	8000080c	ff9ff2ef	jal	x5,8000080c	  x5=0x8000080c
       58035000	      5802	00000000	00000013	addi	x0,x0,0	  x0:0x00000000
       58045000	      5803	80000800	00000013	addi	x0,x0,0	  x0:0x00000000
       58055000	      5804	80000804	014000ef	jal	x1,80000804	  x1=0x80000804
       58065000	      5805	00000000	00000013	addi	x0,x0,0	  x0:0x00000000
       58075000	      5806	80000814	00000013	addi	x0,x0,0	  x0:0x00000000
       58085000	      5807	80000818	e10e0e13	addi	x28,x28,-496	 x28:0x800007b4 x28=0x800005c4
       58095000	      5808	8000081c	034000ef	jal	x1,8000081c	  x1=0x8000081c
       58105000	      5809	00000000	00000013	addi	x0,x0,0	  x0:0x00000000
       58115000	      5810	8000084c	00000013	addi	x0,x0,0	  x0:0x00000000
       58125000	      5811	80000850	fe1ff2ef	jal	x5,80000850	  x5=0x80000850
       58135000	      5812	00000000	00000013	addi	x0,x0,0	  x0:0x00000000
       58145000	      5813	8000082c	00000013	addi	x0,x0,0	  x0:0x00000000
       58155000	      5814	80000830	00c000ef	jal	x1,80000830	  x1=0x80000830
       58165000	      5815	00000000	00000013	addi	x0,x0,0	  x0:0x00000000
       58175000	      5816	80000838	00000013	addi	x0,x0,0	  x0:0x00000000
       58185000	      5817	8000083c	ffdff86f	jal	x16,8000083c	 x16=0x8000083c
       58195000	      5818	00000000	00000013	addi	x0,x0,0	  x0:0x00000000
       58205000	      5819	80000834	00000013	addi	x0,x0,0	  x0:0x00000000
       58215000	      5820	80000838	fedff1ef	jal	x3,80000838	  x3=0x80000838
       58225000	      5821	00000000	00000013	addi	x0,x0,0	  x0:0x00000000
       58235000	      5822	80000820	00000013	addi	x0,x0,0	  x0:0x00000000
       58245000	      5823	80000824	020001ef	jal	x3,80000824	  x3=0x80000824
       58255000	      5824	00000000	00000013	addi	x0,x0,0	  x0:0x00000000
       58265000	      5825	80000840	00000013	addi	x0,x0,0	  x0:0x00000000
       58275000	      5826	80000844	fddff36f	jal	x6,80000844	  x6=0x80000844
       58285000	      5827	00000000	00000013	addi	x0,x0,0	  x0:0x00000000
       58295000	      5828	8000081c	00000013	addi	x0,x0,0	  x0:0x00000000
       58305000	      5829	80000820	008000ef	jal	x1,80000820	  x1=0x80000820
       58315000	      5830	00000000	00000013	addi	x0,x0,0	  x0:0x00000000
       58325000	      5831	80000824	00000013	addi	x0,x0,0	  x0:0x00000000
       58335000	      5832	80000828	00c000ef	jal	x1,80000828	  x1=0x80000828
       58345000	      5833	00000000	00000013	addi	x0,x0,0	  x0:0x00000000
       58355000	      5834	80000830	00000013	addi	x0,x0,0	  x0:0x00000000
       58365000	      5835	80000834	0140036f	jal	x6,80000834	  x6=0x80000834
       58375000	      5836	00000000	00000013	addi	x0,x0,0	  x0:0x00000000
       58385000	      5837	80000844	00000013	addi	x0,x0,0	  x0:0x00000000
       58395000	      5838	80000848	fe5ff46f	jal	x8,80000848	  x8=0x80000848
       58405000	      5839	00000000	00000013	addi	x0,x0,0	  x0:0x00000000
       58415000	      5840	80000828	00000013	addi	x0,x0,0	  x0:0x00000000
       58425000	      5841	8000082c	0200086f	jal	x16,8000082c	 x16=0x8000082c
       58435000	      5842	00000000	00000013	addi	x0,x0,0	  x0:0x00000000
       58445000	      5843	80000848	00000013	addi	x0,x0,0	  x0:0x00000000
       58455000	      5844	8000084c	ff5ff9ef	jal	x19,8000084c	 x19=0x8000084c
       58465000	      5845	00000000	00000013	addi	x0,x0,0	  x0:0x00000000
       58475000	      5846	8000083c	00000013	addi	x0,x0,0	  x0:0x00000000
       58485000	      5847	80000840	0140026f	jal	x4,80000840	  x4=0x80000840
       58495000	      5848	00000000	00000013	addi	x0,x0,0	  x0:0x00000000
       58505000	      5849	80000850	00000013	addi	x0,x0,0	  x0:0x00000000
       58515000	      5850	80000854	013a53b3	srl	x7,x20,x19	 x20:0x80009f5c x19:0x8000084c  x7=0x00080009
       58525000	      5851	80000858	034000ef	jal	x1,80000858	  x1=0x80000858
       58535000	      5852	00000000	00000013	addi	x0,x0,0	  x0:0x00000000
       58545000	      5853	80000888	00000013	addi	x0,x0,0	  x0:0x00000000
       58555000	      5854	8000088c	ffdffbef	jal	x23,8000088c	 x23=0x8000088c
       58565000	      5855	00000000	00000013	addi	x0,x0,0	  x0:0x00000000
       58575000	      5856	80000884	00000013	addi	x0,x0,0	  x0:0x00000000
       58585000	      5857	80000888	ff9ff0ef	jal	x1,80000888	  x1=0x80000888
       58595000	      5858	00000000	00000013	addi	x0,x0,0	  x0:0x00000000
       58605000	      5859	8000087c	00000013	addi	x0,x0,0	  x0:0x00000000
       58615000	      5860	80000880	ff1ff0ef	jal	x1,80000880	  x1=0x80000880
       58625000	      5861	00000000	00000013	addi	x0,x0,0	  x0:0x00000000
       58635000	      5862	8000086c	00000013	addi	x0,x0,0	  x0:0x00000000
       58645000	      5863	80000870	014000ef	jal	x1,80000870	  x1=0x80000870
       58655000	      5864	00000000	00000013	addi	x0,x0,0	  x0:0x00000000
       58665000	      5865	80000880	00000013	addi	x0,x0,0	  x0:0x00000000
       58675000	      5866	80000884	fddff9ef	jal	x19,80000884	 x19=0x80000884
       58685000	      5867	00000000	00000013	addi	x0,x0,0	  x0:0x00000000
       58695000	      5868	8000085c	00000013	addi	x0,x0,0	  x0:0x00000000
       58705000	      5869	80000860	00c0036f	jal	x6,80000860	  x6=0x80000860
       58715000	      5870	00000000	00000013	addi	x0,x0,0	  x0:0x00000000
       58725000	      5871	80000868	00000013	addi	x0,x0,0	  x0:0x00000000
       58735000	      5872	8000086c	00c0016f	jal	x2,8000086c	  x2=0x8000086c
       58745000	      5873	00000000	00000013	addi	x0,x0,0	  x0:0x00000000
       58755000	      5874	80000874	00000013	addi	x0,x0,0	  x0:0x00000000
       58765000	      5875	80000878	fedff36f	jal	x6,80000878	  x6=0x80000878
       58775000	      5876	00000000	00000013	addi	x0,x0,0	  x0:0x00000000
       58785000	      5877	80000860	00000013	addi	x0,x0,0	  x0:0x00000000
       58795000	      5878	80000864	ff9ff16f	jal	x2,80000864	  x2=0x80000864
       58805000	      5879	00000000	00000013	addi	x0,x0,0	  x0:0x00000000
       58815000	      5880	80000858	00000013	addi	x0,x0,0	  x0:0x00000000
       58825000	      5881	8000085c	0180036f	jal	x6,8000085c	  x6=0x8000085c
       58835000	      5882	00000000	00000013	addi	x0,x0,0	  x0:0x00000000
       58845000	      5883	80000870	00000013	addi	x0,x0,0	  x0:0x00000000
       58855000	      5884	80000874	0080036f	jal	x6,80000874	  x6=0x80000874
       58865000	      5885	00000000	00000013	addi	x0,x0,0	  x0:0x00000000
       58875000	      5886	80000878	00000013	addi	x0,x0,0	  x0:0x00000000
       58885000	      5887	8000087c	fedff0ef	jal	x1,8000087c	  x1=0x8000087c
       58895000	      5888	00000000	00000013	addi	x0,x0,0	  x0:0x00000000
       58905000	      5889	80000864	00000013	addi	x0,x0,0	  x0:0x00000000
       58915000	      5890	80000868	028000ef	jal	x1,80000868	  x1=0x80000868
       58925000	      5891	00000000	00000013	addi	x0,x0,0	  x0:0x00000000
       58935000	      5892	8000088c	00000013	addi	x0,x0,0	  x0:0x00000000
       58945000	      5893	80000890	11168793	addi	x15,x13,273	 x13:0x7fff603c x15=0x7fff614d
       58955000	      5894	80000894	074000ef	jal	x1,80000894	  x1=0x80000894
       58965000	      5895	00000000	00000013	addi	x0,x0,0	  x0:0x00000000
       58975000	      5896	80000904	00000013	addi	x0,x0,0	  x0:0x00000000
       58985000	      5897	80000908	ffdff0ef	jal	x1,80000908	  x1=0x80000908
       58995000	      5898	00000000	00000013	addi	x0,x0,0	  x0:0x00000000
       59005000	      5899	80000900	00000013	addi	x0,x0,0	  x0:0x00000000
       59015000	      5900	80000904	fb5ff0ef	jal	x1,80000904	  x1=0x80000904
       59025000	      5901	00000000	00000013	addi	x0,x0,0	  x0:0x00000000
       59035000	      5902	800008b4	00000013	addi	x0,x0,0	  x0:0x00000000
       59045000	      5903	800008b8	ff1ff36f	jal	x6,800008b8	  x6=0x800008b8
       59055000	      5904	00000000	00000013	addi	x0,x0,0	  x0:0x00000000
       59065000	      5905	800008a4	00000013	addi	x0,x0,0	  x0:0x00000000
       59075000	      5906	800008a8	024000ef	jal	x1,800008a8	  x1=0x800008a8
       59085000	      5907	00000000	00000013	addi	x0,x0,0	  x0:0x00000000
       59095000	      5908	800008c8	00000013	addi	x0,x0,0	  x0:0x00000000
       59105000	      5909	800008cc	fcdff26f	jal	x4,800008cc	  x4=0x800008cc
       59115000	      5910	00000000	00000013	addi	x0,x0,0	  x0:0x00000000
       59125000	      5911	80000894	00000013	addi	x0,x0,0	  x0:0x00000000
       59135000	      5912	80000898	068000ef	jal	x1,80000898	  x1=0x80000898
       59145000	      5913	00000000	00000013	addi	x0,x0,0	  x0:0x00000000
       59155000	      5914	800008fc	00000013	addi	x0,x0,0	  x0:0x00000000
       59165000	      5915	80000900	fb1ffb6f	jal	x22,80000900	 x22=0x80000900
       59175000	      5916	00000000	00000013	addi	x0,x0,0	  x0:0x00000000
       59185000	      5917	800008ac	00000013	addi	x0,x0,0	  x0:0x00000000
       59195000	      5918	800008b0	004000ef	jal	x1,800008b0	  x1=0x800008b0
       59205000	      5919	00000000	00000013	addi	x0,x0,0	  x0:0x00000000
       59215000	      5920	800008b0	00000013	addi	x0,x0,0	  x0:0x00000000
       59225000	      5921	800008b4	ff1ff36f	jal	x6,800008b4	  x6=0x800008b4
       59235000	      5922	00000000	00000013	addi	x0,x0,0	  x0:0x00000000
       59245000	      5923	800008a0	00000013	addi	x0,x0,0	  x0:0x00000000
       59255000	      5924	800008a4	0300036f	jal	x6,800008a4	  x6=0x800008a4
       59265000	      5925	00000000	00000013	addi	x0,x0,0	  x0:0x00000000
       59275000	      5926	800008d0	00000013	addi	x0,x0,0	  x0:0x00000000
       59285000	      5927	800008d4	00c000ef	jal	x1,800008d4	  x1=0x800008d4
       59295000	      5928	00000000	00000013	addi	x0,x0,0	  x0:0x00000000
       59305000	      5929	800008dc	00000013	addi	x0,x0,0	  x0:0x00000000
       59315000	      5930	800008e0	01c0036f	jal	x6,800008e0	  x6=0x800008e0
       59325000	      5931	00000000	00000013	addi	x0,x0,0	  x0:0x00000000
       59335000	      5932	800008f8	00000013	addi	x0,x0,0	  x0:0x00000000
       59345000	      5933	800008fc	ffdff0ef	jal	x1,800008fc	  x1=0x800008fc
       59355000	      5934	00000000	00000013	addi	x0,x0,0	  x0:0x00000000
       59365000	      5935	800008f4	00000013	addi	x0,x0,0	  x0:0x00000000
       59375000	      5936	800008f8	fd1ff0ef	jal	x1,800008f8	  x1=0x800008f8
       59385000	      5937	00000000	00000013	addi	x0,x0,0	  x0:0x00000000
       59395000	      5938	800008c4	00000013	addi	x0,x0,0	  x0:0x00000000
       59405000	      5939	800008c8	02c00eef	jal	x29,800008c8	 x29=0x800008c8
       59415000	      5940	00000000	00000013	addi	x0,x0,0	  x0:0x00000000
       59425000	      5941	800008f0	00000013	addi	x0,x0,0	  x0:0x00000000
       59435000	      5942	800008f4	fc9ffbef	jal	x23,800008f4	 x23=0x800008f4
       59445000	      5943	00000000	00000013	addi	x0,x0,0	  x0:0x00000000
       59455000	      5944	800008b8	00000013	addi	x0,x0,0	  x0:0x00000000
       59465000	      5945	800008bc	028000ef	jal	x1,800008bc	  x1=0x800008bc
       59475000	      5946	00000000	00000013	addi	x0,x0,0	  x0:0x00000000
       59485000	      5947	800008e0	00000013	addi	x0,x0,0	  x0:0x00000000
       59495000	      5948	800008e4	fc9ffdef	jal	x27,800008e4	 x27=0x800008e4
       59505000	      5949	00000000	00000013	addi	x0,x0,0	  x0:0x00000000
       59515000	      5950	800008a8	00000013	addi	x0,x0,0	  x0:0x00000000
       59525000	      5951	800008ac	ff1ff0ef	jal	x1,800008ac	  x1=0x800008ac
       59535000	      5952	00000000	00000013	addi	x0,x0,0	  x0:0x00000000
       59545000	      5953	80000898	00000013	addi	x0,x0,0	  x0:0x00000000
       59555000	      5954	8000089c	0240036f	jal	x6,8000089c	  x6=0x8000089c
       59565000	      5955	00000000	00000013	addi	x0,x0,0	  x0:0x00000000
       59575000	      5956	800008bc	00000013	addi	x0,x0,0	  x0:0x00000000
       59585000	      5957	800008c0	018000ef	jal	x1,800008c0	  x1=0x800008c0
       59595000	      5958	00000000	00000013	addi	x0,x0,0	  x0:0x00000000
       59605000	      5959	800008d4	00000013	addi	x0,x0,0	  x0:0x00000000
       59615000	      5960	800008d8	018000ef	jal	x1,800008d8	  x1=0x800008d8
       59625000	      5961	00000000	00000013	addi	x0,x0,0	  x0:0x00000000
       59635000	      5962	800008ec	00000013	addi	x0,x0,0	  x0:0x00000000
       59645000	      5963	800008f0	fb1ff0ef	jal	x1,800008f0	  x1=0x800008f0
       59655000	      5964	00000000	00000013	addi	x0,x0,0	  x0:0x00000000
       59665000	      5965	8000089c	00000013	addi	x0,x0,0	  x0:0x00000000
       59675000	      5966	800008a0	030000ef	jal	x1,800008a0	  x1=0x800008a0
       59685000	      5967	00000000	00000013	addi	x0,x0,0	  x0:0x00000000
       59695000	      5968	800008cc	00000013	addi	x0,x0,0	  x0:0x00000000
       59705000	      5969	800008d0	00c008ef	jal	x17,800008d0	 x17=0x800008d0
       59715000	      5970	00000000	00000013	addi	x0,x0,0	  x0:0x00000000
       59725000	      5971	800008d8	00000013	addi	x0,x0,0	  x0:0x00000000
       59735000	      5972	800008dc	fe9ff0ef	jal	x1,800008dc	  x1=0x800008dc
       59745000	      5973	00000000	00000013	addi	x0,x0,0	  x0:0x00000000
       59755000	      5974	800008c0	00000013	addi	x0,x0,0	  x0:0x00000000
       59765000	      5975	800008c4	0280026f	jal	x4,800008c4	  x4=0x800008c4
       59775000	      5976	00000000	00000013	addi	x0,x0,0	  x0:0x00000000
       59785000	      5977	800008e8	00000013	addi	x0,x0,0	  x0:0x00000000
       59795000	      5978	800008ec	ffdffd6f	jal	x26,800008ec	 x26=0x800008ec
       59805000	      5979	00000000	00000013	addi	x0,x0,0	  x0:0x00000000
       59815000	      5980	800008e4	00000013	addi	x0,x0,0	  x0:0x00000000
       59825000	      5981	800008e8	024001ef	jal	x3,800008e8	  x3=0x800008e8
       59835000	      5982	00000000	00000013	addi	x0,x0,0	  x0:0x00000000
       59845000	      5983	80000908	00000013	addi	x0,x0,0	  x0:0x00000000
       59855000	      5984	8000090c	44a3f417	auipc	x8,0x44a3f	  x8=0xc4a3f908
       59865000	      5985	80000910	028000ef	jal	x1,80000910	  x1=0x80000910
       59875000	      5986	00000000	00000013	addi	x0,x0,0	  x0:0x00000000
       59885000	      5987	80000934	00000013	addi	x0,x0,0	  x0:0x00000000
       59895000	      5988	80000938	fe5ff0ef	jal	x1,80000938	  x1=0x80000938
       59905000	      5989	00000000	00000013	addi	x0,x0,0	  x0:0x00000000
       59915000	      5990	80000918	00000013	addi	x0,x0,0	  x0:0x00000000
       59925000	      5991	8000091c	014000ef	jal	x1,8000091c	  x1=0x8000091c
       59935000	      5992	00000000	00000013	addi	x0,x0,0	  x0:0x00000000
       59945000	      5993	8000092c	00000013	addi	x0,x0,0	  x0:0x00000000
       59955000	      5994	80000930	00c00eef	jal	x29,80000930	 x29=0x80000930
       59965000	      5995	00000000	00000013	addi	x0,x0,0	  x0:0x00000000
       59975000	      5996	80000938	00000013	addi	x0,x0,0	  x0:0x00000000
       59985000	      5997	8000093c	0040016f	jal	x2,8000093c	  x2=0x8000093c
       59995000	      5998	00000000	00000013	addi	x0,x0,0	  x0:0x00000000
       60005000	      5999	8000093c	00000013	addi	x0,x0,0	  x0:0x00000000
       60015000	      6000	80000940	004000ef	jal	x1,80000940	  x1=0x80000940
       60025000	      6001	00000000	00000013	addi	x0,x0,0	  x0:0x00000000
       60035000	      6002	80000940	00000013	addi	x0,x0,0	  x0:0x00000000
       60045000	      6003	80000944	fddff0ef	jal	x1,80000944	  x1=0x80000944
       60055000	      6004	00000000	00000013	addi	x0,x0,0	  x0:0x00000000
       60065000	      6005	8000091c	00000013	addi	x0,x0,0	  x0:0x00000000
       60075000	      6006	80000920	ff9ff56f	jal	x10,80000920	 x10=0x80000920
       60085000	      6007	00000000	00000013	addi	x0,x0,0	  x0:0x00000000
       60095000	      6008	80000914	00000013	addi	x0,x0,0	  x0:0x00000000
       60105000	      6009	80000918	01c00d6f	jal	x26,80000918	 x26=0x80000918
       60115000	      6010	00000000	00000013	addi	x0,x0,0	  x0:0x00000000
       60125000	      6011	80000930	00000013	addi	x0,x0,0	  x0:0x00000000
       60135000	      6012	80000934	ff5ff9ef	jal	x19,80000934	 x19=0x80000934
       60145000	      6013	00000000	00000013	addi	x0,x0,0	  x0:0x00000000
       60155000	      6014	80000924	00000013	addi	x0,x0,0	  x0:0x00000000
       60165000	      6015	80000928	ffdff0ef	jal	x1,80000928	  x1=0x80000928
       60175000	      6016	00000000	00000013	addi	x0,x0,0	  x0:0x00000000
       60185000	      6017	80000920	00000013	addi	x0,x0,0	  x0:0x00000000
       60195000	      6018	80000924	ff1ff0ef	jal	x1,80000924	  x1=0x80000924
       60205000	      6019	00000000	00000013	addi	x0,x0,0	  x0:0x00000000
       60215000	      6020	80000910	00000013	addi	x0,x0,0	  x0:0x00000000
       60225000	      6021	80000914	0180026f	jal	x4,80000914	  x4=0x80000914
       60235000	      6022	00000000	00000013	addi	x0,x0,0	  x0:0x00000000
       60245000	      6023	80000928	00000013	addi	x0,x0,0	  x0:0x00000000
       60255000	      6024	8000092c	01c000ef	jal	x1,8000092c	  x1=0x8000092c
       60265000	      6025	00000000	00000013	addi	x0,x0,0	  x0:0x00000000
       60275000	      6026	80000944	00000013	addi	x0,x0,0	  x0:0x00000000
       60285000	      6027	80000948	00301e13	slli	x28,x0,0x3	  x0:0x00000000 x28=0x00000000
       60295000	      6028	8000094c	040000ef	jal	x1,8000094c	  x1=0x8000094c
       60305000	      6029	00000000	00000013	addi	x0,x0,0	  x0:0x00000000
       60315000	      6030	80000988	00000013	addi	x0,x0,0	  x0:0x00000000
       60325000	      6031	8000098c	0080026f	jal	x4,8000098c	  x4=0x8000098c
       60335000	      6032	00000000	00000013	addi	x0,x0,0	  x0:0x00000000
       60345000	      6033	80000990	00000013	addi	x0,x0,0	  x0:0x00000000
       60355000	      6034	80000994	020000ef	jal	x1,80000994	  x1=0x80000994
       60365000	      6035	00000000	00000013	addi	x0,x0,0	  x0:0x00000000
       60375000	      6036	800009b0	00000013	addi	x0,x0,0	  x0:0x00000000
       60385000	      6037	800009b4	fadff0ef	jal	x1,800009b4	  x1=0x800009b4
       60395000	      6038	00000000	00000013	addi	x0,x0,0	  x0:0x00000000
       60405000	      6039	8000095c	00000013	addi	x0,x0,0	  x0:0x00000000
       60415000	      6040	80000960	04c000ef	jal	x1,80000960	  x1=0x80000960
       60425000	      6041	00000000	00000013	addi	x0,x0,0	  x0:0x00000000
       60435000	      6042	800009a8	00000013	addi	x0,x0,0	  x0:0x00000000
       60445000	      6043	800009ac	fa5ff0ef	jal	x1,800009ac	  x1=0x800009ac
       60455000	      6044	00000000	00000013	addi	x0,x0,0	  x0:0x00000000
       60465000	      6045	8000094c	00000013	addi	x0,x0,0	  x0:0x00000000
       60475000	      6046	80000950	068000ef	jal	x1,80000950	  x1=0x80000950
       60485000	      6047	00000000	00000013	addi	x0,x0,0	  x0:0x00000000
       60495000	      6048	800009b4	00000013	addi	x0,x0,0	  x0:0x00000000
       60505000	      6049	800009b8	fedff0ef	jal	x1,800009b8	  x1=0x800009b8
       60515000	      6050	00000000	00000013	addi	x0,x0,0	  x0:0x00000000
       60525000	      6051	800009a0	00000013	addi	x0,x0,0	  x0:0x00000000
       60535000	      6052	800009a4	ff5ff1ef	jal	x3,800009a4	  x3=0x800009a4
       60545000	      6053	00000000	00000013	addi	x0,x0,0	  x0:0x00000000
       60555000	      6054	80000994	00000013	addi	x0,x0,0	  x0:0x00000000
       60565000	      6055	80000998	fbdff26f	jal	x4,80000998	  x4=0x80000998
       60575000	      6056	00000000	00000013	addi	x0,x0,0	  x0:0x00000000
       60585000	      6057	80000950	00000013	addi	x0,x0,0	  x0:0x00000000
       60595000	      6058	80000954	0100036f	jal	x6,80000954	  x6=0x80000954
       60605000	      6059	00000000	00000013	addi	x0,x0,0	  x0:0x00000000
       60615000	      6060	80000960	00000013	addi	x0,x0,0	  x0:0x00000000
       60625000	      6061	80000964	0240036f	jal	x6,80000964	  x6=0x80000964
       60635000	      6062	00000000	00000013	addi	x0,x0,0	  x0:0x00000000
       60645000	      6063	80000984	00000013	addi	x0,x0,0	  x0:0x00000000
       60655000	      6064	80000988	ff9ffb6f	jal	x22,80000988	 x22=0x80000988
       60665000	      6065	00000000	00000013	addi	x0,x0,0	  x0:0x00000000
       60675000	      6066	8000097c	00000013	addi	x0,x0,0	  x0:0x00000000
       60685000	      6067	80000980	0280036f	jal	x6,80000980	  x6=0x80000980
       60695000	      6068	00000000	00000013	addi	x0,x0,0	  x0:0x00000000
       60705000	      6069	800009a4	00000013	addi	x0,x0,0	  x0:0x00000000
       60715000	      6070	800009a8	fc9ff36f	jal	x6,800009a8	  x6=0x800009a8
       60725000	      6071	00000000	00000013	addi	x0,x0,0	  x0:0x00000000
       60735000	      6072	8000096c	00000013	addi	x0,x0,0	  x0:0x00000000
       60745000	      6073	80000970	020000ef	jal	x1,80000970	  x1=0x80000970
       60755000	      6074	00000000	00000013	addi	x0,x0,0	  x0:0x00000000
       60765000	      6075	8000098c	00000013	addi	x0,x0,0	  x0:0x00000000
       60775000	      6076	80000990	fcdff0ef	jal	x1,80000990	  x1=0x80000990
       60785000	      6077	00000000	00000013	addi	x0,x0,0	  x0:0x00000000
       60795000	      6078	80000958	00000013	addi	x0,x0,0	  x0:0x00000000
       60805000	      6079	8000095c	040000ef	jal	x1,8000095c	  x1=0x8000095c
       60815000	      6080	00000000	00000013	addi	x0,x0,0	  x0:0x00000000
       60825000	      6081	80000998	00000013	addi	x0,x0,0	  x0:0x00000000
       60835000	      6082	8000099c	fcdff36f	jal	x6,8000099c	  x6=0x8000099c
       60845000	      6083	00000000	00000013	addi	x0,x0,0	  x0:0x00000000
       60855000	      6084	80000964	00000013	addi	x0,x0,0	  x0:0x00000000
       60865000	      6085	80000968	014000ef	jal	x1,80000968	  x1=0x80000968
       60875000	      6086	00000000	00000013	addi	x0,x0,0	  x0:0x00000000
       60885000	      6087	80000978	00000013	addi	x0,x0,0	  x0:0x00000000
       60895000	      6088	8000097c	ffdffcef	jal	x25,8000097c	 x25=0x8000097c
       60905000	      6089	00000000	00000013	addi	x0,x0,0	  x0:0x00000000
       60915000	      6090	80000974	00000013	addi	x0,x0,0	  x0:0x00000000
       60925000	      6091	80000978	ffdff36f	jal	x6,80000978	  x6=0x80000978
       60935000	      6092	00000000	00000013	addi	x0,x0,0	  x0:0x00000000
       60945000	      6093	80000970	00000013	addi	x0,x0,0	  x0:0x00000000
       60955000	      6094	80000974	03c0036f	jal	x6,80000974	  x6=0x80000974
       60965000	      6095	00000000	00000013	addi	x0,x0,0	  x0:0x00000000
       60975000	      6096	800009ac	00000013	addi	x0,x0,0	  x0:0x00000000
       60985000	      6097	800009b0	fa9ff36f	jal	x6,800009b0	  x6=0x800009b0
       60995000	      6098	00000000	00000013	addi	x0,x0,0	  x0:0x00000000
       61005000	      6099	80000954	00000013	addi	x0,x0,0	  x0:0x00000000
       61015000	      6100	80000958	02c00fef	jal	x31,80000958	 x31=0x80000958
       61025000	      6101	00000000	00000013	addi	x0,x0,0	  x0:0x00000000
       61035000	      6102	80000980	00000013	addi	x0,x0,0	  x0:0x00000000
       61045000	      6103	80000984	fe9ffb6f	jal	x22,80000984	 x22=0x80000984
       61055000	      6104	00000000	00000013	addi	x0,x0,0	  x0:0x00000000
       61065000	      6105	80000968	00000013	addi	x0,x0,0	  x0:0x00000000
       61075000	      6106	8000096c	0340086f	jal	x16,8000096c	 x16=0x8000096c
       61085000	      6107	00000000	00000013	addi	x0,x0,0	  x0:0x00000000
       61095000	      6108	8000099c	00000013	addi	x0,x0,0	  x0:0x00000000
       61105000	      6109	800009a0	01c000ef	jal	x1,800009a0	  x1=0x800009a0
       61115000	      6110	00000000	00000013	addi	x0,x0,0	  x0:0x00000000
       61125000	      6111	800009b8	00000013	addi	x0,x0,0	  x0:0x00000000
       61135000	      6112	800009bc	00ea1913	slli	x18,x20,0xe	 x20:0x80009f5c x18=0x27d70000
       61145000	      6113	800009c0	02c000ef	jal	x1,800009c0	  x1=0x800009c0
       61155000	      6114	00000000	00000013	addi	x0,x0,0	  x0:0x00000000
       61165000	      6115	800009e8	00000013	addi	x0,x0,0	  x0:0x00000000
       61175000	      6116	800009ec	00c000ef	jal	x1,800009ec	  x1=0x800009ec
       61185000	      6117	00000000	00000013	addi	x0,x0,0	  x0:0x00000000
       61195000	      6118	800009f4	00000013	addi	x0,x0,0	  x0:0x00000000
       61205000	      6119	800009f8	fd9ff36f	jal	x6,800009f8	  x6=0x800009f8
       61215000	      6120	00000000	00000013	addi	x0,x0,0	  x0:0x00000000
       61225000	      6121	800009cc	00000013	addi	x0,x0,0	  x0:0x00000000
       61235000	      6122	800009d0	038000ef	jal	x1,800009d0	  x1=0x800009d0
       61245000	      6123	00000000	00000013	addi	x0,x0,0	  x0:0x00000000
       61255000	      6124	80000a04	00000013	addi	x0,x0,0	  x0:0x00000000
       61265000	      6125	80000a08	020000ef	jal	x1,80000a08	  x1=0x80000a08
       61275000	      6126	00000000	00000013	addi	x0,x0,0	  x0:0x00000000
       61285000	      6127	80000a24	00000013	addi	x0,x0,0	  x0:0x00000000
       61295000	      6128	80000a28	fcdff0ef	jal	x1,80000a28	  x1=0x80000a28
       61305000	      6129	00000000	00000013	addi	x0,x0,0	  x0:0x00000000
       61315000	      6130	800009f0	00000013	addi	x0,x0,0	  x0:0x00000000
       61325000	      6131	800009f4	fe5ff0ef	jal	x1,800009f4	  x1=0x800009f4
       61335000	      6132	00000000	00000013	addi	x0,x0,0	  x0:0x00000000
       61345000	      6133	800009d4	00000013	addi	x0,x0,0	  x0:0x00000000
       61355000	      6134	800009d8	048000ef	jal	x1,800009d8	  x1=0x800009d8
       61365000	      6135	00000000	00000013	addi	x0,x0,0	  x0:0x00000000
       61375000	      6136	80000a1c	00000013	addi	x0,x0,0	  x0:0x00000000
       61385000	      6137	80000a20	fa9ff2ef	jal	x5,80000a20	  x5=0x80000a20
       61395000	      6138	00000000	00000013	addi	x0,x0,0	  x0:0x00000000
       61405000	      6139	800009c4	00000013	addi	x0,x0,0	  x0:0x00000000
       61415000	      6140	800009c8	03c000ef	jal	x1,800009c8	  x1=0x800009c8
       61425000	      6141	00000000	00000013	addi	x0,x0,0	  x0:0x00000000
       61435000	      6142	80000a00	00000013	addi	x0,x0,0	  x0:0x00000000
       61445000	      6143	80000a04	ffdff36f	jal	x6,80000a04	  x6=0x80000a04
       61455000	      6144	00000000	00000013	addi	x0,x0,0	  x0:0x00000000
       61465000	      6145	800009fc	00000013	addi	x0,x0,0	  x0:0x00000000
       61475000	      6146	80000a00	ff1ff0ef	jal	x1,80000a00	  x1=0x80000a00
       61485000	      6147	00000000	00000013	addi	x0,x0,0	  x0:0x00000000
       61495000	      6148	800009ec	00000013	addi	x0,x0,0	  x0:0x00000000
       61505000	      6149	800009f0	020000ef	jal	x1,800009f0	  x1=0x800009f0
       61515000	      6150	00000000	00000013	addi	x0,x0,0	  x0:0x00000000
       61525000	      6151	80000a0c	00000013	addi	x0,x0,0	  x0:0x00000000
       61535000	      6152	80000a10	0040036f	jal	x6,80000a10	  x6=0x80000a10
       61545000	      6153	00000000	00000013	addi	x0,x0,0	  x0:0x00000000
       61555000	      6154	80000a10	00000013	addi	x0,x0,0	  x0:0x00000000
       61565000	      6155	80000a14	004004ef	jal	x9,80000a14	  x9=0x80000a14
       61575000	      6156	00000000	00000013	addi	x0,x0,0	  x0:0x00000000
       61585000	      6157	80000a14	00000013	addi	x0,x0,0	  x0:0x00000000
       61595000	      6158	80000a18	ff5ffb6f	jal	x22,80000a18	 x22=0x80000a18
       61605000	      6159	00000000	00000013	addi	x0,x0,0	  x0:0x00000000
       61615000	      6160	80000a08	00000013	addi	x0,x0,0	  x0:0x00000000
       61625000	      6161	80000a0c	fd9ff6ef	jal	x13,80000a0c	 x13=0x80000a0c
       61635000	      6162	00000000	00000013	addi	x0,x0,0	  x0:0x00000000
       61645000	      6163	800009e0	00000013	addi	x0,x0,0	  x0:0x00000000
       61655000	      6164	800009e4	038001ef	jal	x3,800009e4	  x3=0x800009e4
       61665000	      6165	00000000	00000013	addi	x0,x0,0	  x0:0x00000000
       61675000	      6166	80000a18	00000013	addi	x0,x0,0	  x0:0x00000000
       61685000	      6167	80000a1c	010000ef	jal	x1,80000a1c	  x1=0x80000a1c
       61695000	      6168	00000000	00000013	addi	x0,x0,0	  x0:0x00000000
       61705000	      6169	80000a28	00000013	addi	x0,x0,0	  x0:0x00000000
       61715000	      6170	80000a2c	004000ef	jal	x1,80000a2c	  x1=0x80000a2c
       61725000	      6171	00000000	00000013	addi	x0,x0,0	  x0:0x00000000
       61735000	      6172	80000a2c	00000013	addi	x0,x0,0	  x0:0x00000000
       61745000	      6173	80000a30	004000ef	jal	x1,80000a30	  x1=0x80000a30
       61755000	      6174	00000000	00000013	addi	x0,x0,0	  x0:0x00000000
       61765000	      6175	80000a30	00000013	addi	x0,x0,0	  x0:0x00000000
       61775000	      6176	80000a34	fa1ff0ef	jal	x1,80000a34	  x1=0x80000a34
       61785000	      6177	00000000	00000013	addi	x0,x0,0	  x0:0x00000000
       61795000	      6178	800009d0	00000013	addi	x0,x0,0	  x0:0x00000000
       61805000	      6179	800009d4	0080016f	jal	x2,800009d4	  x2=0x800009d4
       61815000	      6180	00000000	00000013	addi	x0,x0,0	  x0:0x00000000
       61825000	      6181	800009d8	00000013	addi	x0,x0,0	  x0:0x00000000
       61835000	      6182	800009dc	00c000ef	jal	x1,800009dc	  x1=0x800009dc
       61845000	      6183	00000000	00000013	addi	x0,x0,0	  x0:0x00000000
       61855000	      6184	800009e4	00000013	addi	x0,x0,0	  x0:0x00000000
       61865000	      6185	800009e8	03c0026f	jal	x4,800009e8	  x4=0x800009e8
       61875000	      6186	00000000	00000013	addi	x0,x0,0	  x0:0x00000000
       61885000	      6187	80000a20	00000013	addi	x0,x0,0	  x0:0x00000000
       61895000	      6188	80000a24	fa1ffd6f	jal	x26,80000a24	 x26=0x80000a24
       61905000	      6189	00000000	00000013	addi	x0,x0,0	  x0:0x00000000
       61915000	      6190	800009c0	00000013	addi	x0,x0,0	  x0:0x00000000
       61925000	      6191	800009c4	01c000ef	jal	x1,800009c4	  x1=0x800009c4
       61935000	      6192	00000000	00000013	addi	x0,x0,0	  x0:0x00000000
       61945000	      6193	800009dc	00000013	addi	x0,x0,0	  x0:0x00000000
       61955000	      6194	800009e0	fedffb6f	jal	x22,800009e0	 x22=0x800009e0
       61965000	      6195	00000000	00000013	addi	x0,x0,0	  x0:0x00000000
       61975000	      6196	800009c8	00000013	addi	x0,x0,0	  x0:0x00000000
       61985000	      6197	800009cc	030000ef	jal	x1,800009cc	  x1=0x800009cc
       61995000	      6198	00000000	00000013	addi	x0,x0,0	  x0:0x00000000
       62005000	      6199	800009f8	00000013	addi	x0,x0,0	  x0:0x00000000
       62015000	      6200	800009fc	03c0056f	jal	x10,800009fc	 x10=0x800009fc
       62025000	      6201	00000000	00000013	addi	x0,x0,0	  x0:0x00000000
       62035000	      6202	80000a34	00000013	addi	x0,x0,0	  x0:0x00000000
       62045000	      6203	80000a38	b9e52293	slti	x5,x10,-1122	 x10:0x800009fc  x5=0x00000001
       62055000	      6204	80000a3c	04c000ef	jal	x1,80000a3c	  x1=0x80000a3c
       62065000	      6205	00000000	00000013	addi	x0,x0,0	  x0:0x00000000
       62075000	      6206	80000a84	00000013	addi	x0,x0,0	  x0:0x00000000
       62085000	      6207	80000a88	fc9ff0ef	jal	x1,80000a88	  x1=0x80000a88
       62095000	      6208	00000000	00000013	addi	x0,x0,0	  x0:0x00000000
       62105000	      6209	80000a4c	00000013	addi	x0,x0,0	  x0:0x00000000
       62115000	      6210	80000a50	0440026f	jal	x4,80000a50	  x4=0x80000a50
       62125000	      6211	00000000	00000013	addi	x0,x0,0	  x0:0x00000000
       62135000	      6212	80000a90	00000013	addi	x0,x0,0	  x0:0x00000000
       62145000	      6213	80000a94	fc9ff36f	jal	x6,80000a94	  x6=0x80000a94
       62155000	      6214	00000000	00000013	addi	x0,x0,0	  x0:0x00000000
       62165000	      6215	80000a58	00000013	addi	x0,x0,0	  x0:0x00000000
       62175000	      6216	80000a5c	fe5ff16f	jal	x2,80000a5c	  x2=0x80000a5c
       62185000	      6217	00000000	00000013	addi	x0,x0,0	  x0:0x00000000
       62195000	      6218	80000a3c	00000013	addi	x0,x0,0	  x0:0x00000000
       62205000	      6219	80000a40	0200036f	jal	x6,80000a40	  x6=0x80000a40
       62215000	      6220	00000000	00000013	addi	x0,x0,0	  x0:0x00000000
       62225000	      6221	80000a5c	00000013	addi	x0,x0,0	  x0:0x00000000
       62235000	      6222	80000a60	fedff36f	jal	x6,80000a60	  x6=0x80000a60
       62245000	      6223	00000000	00000013	addi	x0,x0,0	  x0:0x00000000
       62255000	      6224	80000a48	00000013	addi	x0,x0,0	  x0:0x00000000
       62265000	      6225	80000a4c	034000ef	jal	x1,80000a4c	  x1=0x80000a4c
       62275000	      6226	00000000	00000013	addi	x0,x0,0	  x0:0x00000000
       62285000	      6227	80000a7c	00000013	addi	x0,x0,0	  x0:0x00000000
       62295000	      6228	80000a80	ff1ff0ef	jal	x1,80000a80	  x1=0x80000a80
       62305000	      6229	00000000	00000013	addi	x0,x0,0	  x0:0x00000000
       62315000	      6230	80000a6c	00000013	addi	x0,x0,0	  x0:0x00000000
       62325000	      6231	80000a70	ffdff0ef	jal	x1,80000a70	  x1=0x80000a70
       62335000	      6232	00000000	00000013	addi	x0,x0,0	  x0:0x00000000
       62345000	      6233	80000a68	00000013	addi	x0,x0,0	  x0:0x00000000
       62355000	      6234	80000a6c	ff9ff0ef	jal	x1,80000a6c	  x1=0x80000a6c
       62365000	      6235	00000000	00000013	addi	x0,x0,0	  x0:0x00000000
       62375000	      6236	80000a60	00000013	addi	x0,x0,0	  x0:0x00000000
       62385000	      6237	80000a64	018000ef	jal	x1,80000a64	  x1=0x80000a64
       62395000	      6238	00000000	00000013	addi	x0,x0,0	  x0:0x00000000
       62405000	      6239	80000a78	00000013	addi	x0,x0,0	  x0:0x00000000
       62415000	      6240	80000a7c	fd9ffbef	jal	x23,80000a7c	 x23=0x80000a7c
       62425000	      6241	00000000	00000013	addi	x0,x0,0	  x0:0x00000000
       62435000	      6242	80000a50	00000013	addi	x0,x0,0	  x0:0x00000000
       62445000	      6243	80000a54	014000ef	jal	x1,80000a54	  x1=0x80000a54
       62455000	      6244	00000000	00000013	addi	x0,x0,0	  x0:0x00000000
       62465000	      6245	80000a64	00000013	addi	x0,x0,0	  x0:0x00000000
       62475000	      6246	80000a68	fddff36f	jal	x6,80000a68	  x6=0x80000a68
       62485000	      6247	00000000	00000013	addi	x0,x0,0	  x0:0x00000000
       62495000	      6248	80000a40	00000013	addi	x0,x0,0	  x0:0x00000000
       62505000	      6249	80000a44	054000ef	jal	x1,80000a44	  x1=0x80000a44
       62515000	      6250	00000000	00000013	addi	x0,x0,0	  x0:0x00000000
       62525000	      6251	80000a94	00000013	addi	x0,x0,0	  x0:0x00000000
       62535000	      6252	80000a98	fe1ff0ef	jal	x1,80000a98	  x1=0x80000a98
       62545000	      6253	00000000	00000013	addi	x0,x0,0	  x0:0x00000000
       62555000	      6254	80000a74	00000013	addi	x0,x0,0	  x0:0x00000000
       62565000	      6255	80000a78	ffdff0ef	jal	x1,80000a78	  x1=0x80000a78
       62575000	      6256	00000000	00000013	addi	x0,x0,0	  x0:0x00000000
       62585000	      6257	80000a70	00000013	addi	x0,x0,0	  x0:0x00000000
       62595000	      6258	80000a74	fe5ff0ef	jal	x1,80000a74	  x1=0x80000a74
       62605000	      6259	00000000	00000013	addi	x0,x0,0	  x0:0x00000000
       62615000	      6260	80000a54	00000013	addi	x0,x0,0	  x0:0x00000000
       62625000	      6261	80000a58	034000ef	jal	x1,80000a58	  x1=0x80000a58
       62635000	      6262	00000000	00000013	addi	x0,x0,0	  x0:0x00000000
       62645000	      6263	80000a88	00000013	addi	x0,x0,0	  x0:0x00000000
       62655000	      6264	80000a8c	ff9ff0ef	jal	x1,80000a8c	  x1=0x80000a8c
       62665000	      6265	00000000	00000013	addi	x0,x0,0	  x0:0x00000000
       62675000	      6266	80000a80	00000013	addi	x0,x0,0	  x0:0x00000000
       62685000	      6267	80000a84	00c00bef	jal	x23,80000a84	 x23=0x80000a84
       62695000	      6268	00000000	00000013	addi	x0,x0,0	  x0:0x00000000
       62705000	      6269	80000a8c	00000013	addi	x0,x0,0	  x0:0x00000000
       62715000	      6270	80000a90	fb9ff0ef	jal	x1,80000a90	  x1=0x80000a90
       62725000	      6271	00000000	00000013	addi	x0,x0,0	  x0:0x00000000
       62735000	      6272	80000a44	00000013	addi	x0,x0,0	  x0:0x00000000
       62745000	      6273	80000a48	054001ef	jal	x3,80000a48	  x3=0x80000a48
       62755000	      6274	00000000	00000013	addi	x0,x0,0	  x0:0x00000000
       62765000	      6275	80000a98	00000013	addi	x0,x0,0	  x0:0x00000000
       62775000	      6276	80000a9c	00000013	addi	x0,x0,0	  x0:0x00000000
       62785000	      6277	80000aa0	038000ef	jal	x1,80000aa0	  x1=0x80000aa0
       62795000	      6278	00000000	00000013	addi	x0,x0,0	  x0:0x00000000
       62805000	      6279	80000ad4	00000013	addi	x0,x0,0	  x0:0x00000000
       62815000	      6280	80000ad8	0080016f	jal	x2,80000ad8	  x2=0x80000ad8
       62825000	      6281	00000000	00000013	addi	x0,x0,0	  x0:0x00000000
       62835000	      6282	80000adc	00000013	addi	x0,x0,0	  x0:0x00000000
       62845000	      6283	80000ae0	0080036f	jal	x6,80000ae0	  x6=0x80000ae0
       62855000	      6284	00000000	00000013	addi	x0,x0,0	  x0:0x00000000
       62865000	      6285	80000ae4	00000013	addi	x0,x0,0	  x0:0x00000000
       62875000	      6286	80000ae8	004000ef	jal	x1,80000ae8	  x1=0x80000ae8
       62885000	      6287	00000000	00000013	addi	x0,x0,0	  x0:0x00000000
       62895000	      6288	80000ae8	00000013	addi	x0,x0,0	  x0:0x00000000
       62905000	      6289	80000aec	004000ef	jal	x1,80000aec	  x1=0x80000aec
       62915000	      6290	00000000	00000013	addi	x0,x0,0	  x0:0x00000000
       62925000	      6291	80000aec	00000013	addi	x0,x0,0	  x0:0x00000000
       62935000	      6292	80000af0	fd1ff9ef	jal	x19,80000af0	 x19=0x80000af0
       62945000	      6293	00000000	00000013	addi	x0,x0,0	  x0:0x00000000
       62955000	      6294	80000abc	00000013	addi	x0,x0,0	  x0:0x00000000
       62965000	      6295	80000ac0	ffdff0ef	jal	x1,80000ac0	  x1=0x80000ac0
       62975000	      6296	00000000	00000013	addi	x0,x0,0	  x0:0x00000000
       62985000	      6297	80000ab8	00000013	addi	x0,x0,0	  x0:0x00000000
       62995000	      6298	80000abc	ff9ff36f	jal	x6,80000abc	  x6=0x80000abc
       63005000	      6299	00000000	00000013	addi	x0,x0,0	  x0:0x00000000
       63015000	      6300	80000ab0	00000013	addi	x0,x0,0	  x0:0x00000000
       63025000	      6301	80000ab4	020000ef	jal	x1,80000ab4	  x1=0x80000ab4
       63035000	      6302	00000000	00000013	addi	x0,x0,0	  x0:0x00000000
       63045000	      6303	80000ad0	00000013	addi	x0,x0,0	  x0:0x00000000
       63055000	      6304	80000ad4	ffdff8ef	jal	x17,80000ad4	 x17=0x80000ad4
       63065000	      6305	00000000	00000013	addi	x0,x0,0	  x0:0x00000000
       63075000	      6306	80000acc	00000013	addi	x0,x0,0	  x0:0x00000000
       63085000	      6307	80000ad0	00c000ef	jal	x1,80000ad0	  x1=0x80000ad0
       63095000	      6308	00000000	00000013	addi	x0,x0,0	  x0:0x00000000
       63105000	      6309	80000ad8	00000013	addi	x0,x0,0	  x0:0x00000000
       63115000	      6310	80000adc	ff1ff36f	jal	x6,80000adc	  x6=0x80000adc
       63125000	      6311	00000000	00000013	addi	x0,x0,0	  x0:0x00000000
       63135000	      6312	80000ac8	00000013	addi	x0,x0,0	  x0:0x00000000
       63145000	      6313	80000acc	fe1ff0ef	jal	x1,80000acc	  x1=0x80000acc
       63155000	      6314	00000000	00000013	addi	x0,x0,0	  x0:0x00000000
       63165000	      6315	80000aa8	00000013	addi	x0,x0,0	  x0:0x00000000
       63175000	      6316	80000aac	038000ef	jal	x1,80000aac	  x1=0x80000aac
       63185000	      6317	00000000	00000013	addi	x0,x0,0	  x0:0x00000000
       63195000	      6318	80000ae0	00000013	addi	x0,x0,0	  x0:0x00000000
       63205000	      6319	80000ae4	fe5ff36f	jal	x6,80000ae4	  x6=0x80000ae4
       63215000	      6320	00000000	00000013	addi	x0,x0,0	  x0:0x00000000
       63225000	      6321	80000ac4	00000013	addi	x0,x0,0	  x0:0x00000000
       63235000	      6322	80000ac8	fddffb6f	jal	x22,80000ac8	 x22=0x80000ac8
       63245000	      6323	00000000	00000013	addi	x0,x0,0	  x0:0x00000000
       63255000	      6324	80000aa0	00000013	addi	x0,x0,0	  x0:0x00000000
       63265000	      6325	80000aa4	00c0036f	jal	x6,80000aa4	  x6=0x80000aa4
       63275000	      6326	00000000	00000013	addi	x0,x0,0	  x0:0x00000000
       63285000	      6327	80000aac	00000013	addi	x0,x0,0	  x0:0x00000000
       63295000	      6328	80000ab0	ff9ff0ef	jal	x1,80000ab0	  x1=0x80000ab0
       63305000	      6329	00000000	00000013	addi	x0,x0,0	  x0:0x00000000
       63315000	      6330	80000aa4	00000013	addi	x0,x0,0	  x0:0x00000000
       63325000	      6331	80000aa8	010000ef	jal	x1,80000aa8	  x1=0x80000aa8
       63335000	      6332	00000000	00000013	addi	x0,x0,0	  x0:0x00000000
       63345000	      6333	80000ab4	00000013	addi	x0,x0,0	  x0:0x00000000
       63355000	      6334	80000ab8	00c005ef	jal	x11,80000ab8	 x11=0x80000ab8
       63365000	      6335	00000000	00000013	addi	x0,x0,0	  x0:0x00000000
       63375000	      6336	80000ac0	00000013	addi	x0,x0,0	  x0:0x00000000
       63385000	      6337	80000ac4	030000ef	jal	x1,80000ac4	  x1=0x80000ac4
       63395000	      6338	00000000	00000013	addi	x0,x0,0	  x0:0x00000000
       63405000	      6339	80000af0	00000013	addi	x0,x0,0	  x0:0x00000000
       63415000	      6340	80000af4	406bd813	srai	x16,x23,0x6	 x23:0x80000a84 x16=0xfe00002a
       63425000	      6341	80000af8	022af663	bgeu	x21,x2,80000b24	 x21:0x800007c0  x2:0x80000ad8
       63435000	      6342	80000afc	41565993	srai	x19,x12,0x15	 x12:0x00000000 x19=0x00000000
       63445000	      6343	80000b00	01c48733	add	x14,x9,x28	  x9:0x80000a14 x28:0x00000000 x14=0x80000a14
       63455000	      6344	80000b04	82168293	addi	x5,x13,-2015	 x13:0x80000a0c  x5=0x8000022d
       63465000	      6345	80000b08	de36e713	ori	x14,x13,-541	 x13:0x80000a0c x14=0xffffffef
       63475000	      6346	80000b0c	03919c63	bne	x3,x25,80000b44	  x3:0x80000a48 x25:0x8000097c
       63485000	      6347	00000000	00000013	addi	x0,x0,0	  x0:0x00000000
       63495000	      6348	80000b40	00000013	addi	x0,x0,0	  x0:0x00000000
       63505000	      6349	80000b44	010df463	bgeu	x27,x16,80000b4c	 x27:0x800008e4 x16:0xfe00002a
       63515000	      6350	80000b48	f0dcad17	auipc	x26,0xf0dca	 x26=0x70dcab44
       63525000	      6351	80000b4c	00000013	addi	x0,x0,0	  x0:0x00000000
       63535000	      6352	80000b50	018f03b3	add	x7,x30,x24	 x30:0x80009fc4 x24:0x80000800  x7=0x0000a7c4
       63545000	      6353	80000b54	ed2e6597	auipc	x11,0xed2e6	 x11=0x6d2e6b50
       63555000	      6354	80000b58	a50c8293	addi	x5,x25,-1456	 x25:0x8000097c  x5=0x800003cc
       63565000	      6355	80000b5c	04576663	bltu	x14,x5,80000ba8	 x14:0xffffffef  x5:0x800003cc
       63575000	      6356	80000b60	0133f2b3	and	x5,x7,x19	  x7:0x0000a7c4 x19:0x00000000  x5=0x00000000
       63585000	      6357	80000b64	007f4863	blt	x30,x7,80000b74	 x30:0x80009fc4  x7:0x0000a7c4
       63595000	      6358	00000000	00000013	addi	x0,x0,0	  x0:0x00000000
       63605000	      6359	80000b70	00000013	addi	x0,x0,0	  x0:0x00000000
       63615000	      6360	80000b74	7f064b13	xori	x22,x12,2032	 x12:0x00000000 x22=0x000007f0
       63625000	      6361	80000b78	01508eb3	add	x29,x1,x21	  x1:0x80000ac4 x21:0x800007c0 x29=0x00001284
       63635000	      6362	80000b7c	c084a7b7	lui	x15,0xc084a	 x15=0xc084a000
       63645000	      6363	80000b80	16ad4413	xori	x8,x26,362	 x26:0x70dcab44  x8=0x70dcaa2e
       63655000	      6364	80000b84	01b7c463	blt	x15,x27,80000b8c	 x15:0xc084a000 x27:0x800008e4
       63665000	      6365	80000b88	00096663	bltu	x18,x0,80000b94	 x18:0x27d70000  x0:0x00000000
       63675000	      6366	80000b8c	013ff663	bgeu	x31,x19,80000b98	 x31:0x80000958 x19:0x00000000
       63685000	      6367	00000000	00000013	addi	x0,x0,0	  x0:0x00000000
       63695000	      6368	80000b94	00000013	addi	x0,x0,0	  x0:0x00000000
       63705000	      6369	80000b98	01156863	bltu	x10,x17,80000ba8	 x10:0x800009fc x17:0x80000ad4
       63715000	      6370	00000000	00000013	addi	x0,x0,0	  x0:0x00000000
       63725000	      6371	80000ba4	00000013	addi	x0,x0,0	  x0:0x00000000
       63735000	      6372	80000ba8	3ade8493	addi	x9,x29,941	 x29:0x00001284  x9=0x00001631
       63745000	      6373	80000bac	000a9e63	bne	x21,x0,80000bc8	 x21:0x800007c0  x0:0x00000000
       63755000	      6374	00000000	00000013	addi	x0,x0,0	  x0:0x00000000
       63765000	      6375	80000bc4	00000013	addi	x0,x0,0	  x0:0x00000000
       63775000	      6376	80000bc8	03b5dc63	bge	x11,x27,80000c00	 x11:0x6d2e6b50 x27:0x800008e4
       63785000	      6377	00000000	00000013	addi	x0,x0,0	  x0:0x00000000
       63795000	      6378	80000bfc	00000013	addi	x0,x0,0	  x0:0x00000000
       63805000	      6379	80000c00	01f30733	add	x14,x6,x31	  x6:0x80000aa4 x31:0x80000958 x14=0x000013fc
       63815000	      6380	80000c04	00a990b3	sll	x1,x19,x10	 x19:0x00000000 x10:0x800009fc  x1=0x00000000
       63825000	      6381	80000c08	00c4dfb3	srl	x31,x9,x12	  x9:0x00001631 x12:0x00000000 x31=0x00001631
       63835000	      6382	80000c0c	41f78db3	sub	x27,x15,x31	 x15:0xc084a000 x31:0x00001631 x27=0xc08489cf
       63845000	      6383	80000c10	418601b3	sub	x3,x12,x24	 x12:0x00000000 x24:0x80000800  x3=0x7ffff800
       63855000	      6384	80000c14	36e34813	xori	x16,x6,878	  x6:0x80000aa4 x16=0x800009ca
       63865000	      6385	80000c18	00c523b3	slt	x7,x10,x12	 x10:0x800009fc x12:0x00000000  x7=0x00000001
       63875000	      6386	80000c1c	01a978b3	and	x17,x18,x26	 x18:0x27d70000 x26:0x70dcab44 x17=0x20d40000
       63885000	      6387	80000c20	00717333	and	x6,x2,x7	  x2:0x80000ad8  x7:0x00000001  x6=0x00000000
       63895000	      6388	80000c24	01ca6c63	bltu	x20,x28,80000c3c	 x20:0x80009f5c x28:0x00000000
       63905000	      6389	80000c28	a215c1b7	lui	x3,0xa215c	  x3=0xa215c000
       63915000	      6390	80000c2c	40165db3	sra	x27,x12,x1	 x12:0x00000000  x1:0x00000000 x27=0x00000000
       63925000	      6391	80000c30	00dd8d33	add	x26,x27,x13	 x27:0x00000000 x13:0x80000a0c x26=0x80000a0c
       63935000	      6392	80000c34	0044de63	bge	x9,x4,80000c50	  x9:0x00001631  x4:0x80000a50
       63945000	      6393	00000000	00000013	addi	x0,x0,0	  x0:0x00000000
       63955000	      6394	80000c4c	00000013	addi	x0,x0,0	  x0:0x00000000
       63965000	      6395	80000c50	00f41463	bne	x8,x15,80000c58	  x8:0x70dcaa2e x15:0xc084a000
       63975000	      6396	00000000	00000013	addi	x0,x0,0	  x0:0x00000000
       63985000	      6397	80000c54	00000013	addi	x0,x0,0	  x0:0x00000000
       63995000	      6398	80000c58	012bf4b3	and	x9,x23,x18	 x23:0x80000a84 x18:0x27d70000  x9=0x00000000
       64005000	      6399	80000c5c	00089513	slli	x10,x17,0x0	 x17:0x20d40000 x10=0x20d40000
       64015000	      6400	80000c60	107da993	slti	x19,x27,263	 x27:0x00000000 x19=0x00000001
       64025000	      6401	80000c64	40c4d213	srai	x4,x9,0xc	  x9:0x00000000  x4=0x00000000
       64035000	      6402	80000c68	022efa63	bgeu	x29,x2,80000c9c	 x29:0x00001284  x2:0x80000ad8
       64045000	      6403	80000c6c	5ffb2c93	slti	x25,x22,1535	 x22:0x000007f0 x25=0x00000000
       64055000	      6404	80000c70	01d072b3	and	x5,x0,x29	  x0:0x00000000 x29:0x00001284  x5=0x00000000
       64065000	      6405	80000c74	1f4a8cb7	lui	x25,0x1f4a8	 x25=0x1f4a8000
       64075000	      6406	80000c78	0263fe63	bgeu	x7,x6,80000cb4	  x7:0x00000001  x6:0x00000000
       64085000	      6407	00000000	00000013	addi	x0,x0,0	  x0:0x00000000
       64095000	      6408	80000cb0	00000013	addi	x0,x0,0	  x0:0x00000000
       64105000	      6409	80000cb4	405306b3	sub	x13,x6,x5	  x6:0x00000000  x5:0x00000000 x13=0x00000000
       64115000	      6410	80000cb8	00b4df93	srli	x31,x9,0xb	  x9:0x00000000 x31=0x00000000
       64125000	      6411	80000cbc	b21a1317	auipc	x6,0xb21a1	  x6=0x321a1cb8
       64135000	      6412	80000cc0	05207663	bgeu	x0,x18,80000d0c	  x0:0x00000000 x18:0x27d70000
       64145000	      6413	80000cc4	01f9ae33	slt	x28,x19,x31	 x19:0x00000001 x31:0x00000000 x28=0x00000000
       64155000	      6414	80000cc8	2829c993	xori	x19,x19,642	 x19:0x00000001 x19=0x00000283
       64165000	      6415	80000ccc	015edc33	srl	x24,x29,x21	 x29:0x00001284 x21:0x800007c0 x24=0x00001284
       64175000	      6416	80000cd0	00a694b3	sll	x9,x13,x10	 x13:0x00000000 x10:0x20d40000  x9=0x00000000
       64185000	      6417	80000cd4	0126b533	sltu	x10,x13,x18	 x13:0x00000000 x18:0x27d70000 x10=0x00000001
       64195000	      6418	80000cd8	00000013	addi	x0,x0,0	  x0:0x00000000
       64205000	      6419	80000cdc	e308b993	sltiu	x19,x17,-464	 x17:0x20d40000 x19=0x00000001
       64215000	      6420	80000ce0	dce47693	andi	x13,x8,-562	  x8:0x70dcaa2e x13=0x70dca80e
       64225000	      6421	80000ce4	a82e3493	sltiu	x9,x28,-1406	 x28:0x00000000  x9=0x00000001
       64235000	      6422	80000ce8	01df46b3	xor	x13,x30,x29	 x30:0x80009fc4 x29:0x00001284 x13=0x80008d40
       64245000	      6423	80000cec	40c45d33	sra	x26,x8,x12	  x8:0x70dcaa2e x12:0x00000000 x26=0x70dcaa2e
       64255000	      6424	80000cf0	c68a7793	andi	x15,x20,-920	 x20:0x80009f5c x15=0x80009c48
       64265000	      6425	80000cf4	26e9f813	andi	x16,x19,622	 x19:0x00000001 x16=0x00000000
       64275000	      6426	80000cf8	44f5c593	xori	x11,x11,1103	 x11:0x6d2e6b50 x11=0x6d2e6f1f
       64285000	      6427	80000cfc	00b72db3	slt	x27,x14,x11	 x14:0x000013fc x11:0x6d2e6f1f x27=0x00000001
       64295000	      6428	80000d00	00dc8d33	add	x26,x25,x13	 x25:0x1f4a8000 x13:0x80008d40 x26=0x9f4b0d40
       64305000	      6429	80000d04	034f4e63	blt	x30,x20,80000d40	 x30:0x80009fc4 x20:0x80009f5c
       64315000	      6430	80000d08	00780663	beq	x16,x7,80000d14	 x16:0x00000000  x7:0x00000001
       64325000	      6431	80000d0c	ff523113	sltiu	x2,x4,-11	  x4:0x00000000  x2=0x00000001
       64335000	      6432	80000d10	00fae263	bltu	x21,x15,80000d14	 x21:0x800007c0 x15:0x80009c48
       64345000	      6433	00000000	00000013	addi	x0,x0,0	  x0:0x00000000
       64355000	      6434	80000d10	00000013	addi	x0,x0,0	  x0:0x00000000
       64365000	      6435	80000d14	007385b3	add	x11,x7,x7	  x7:0x00000001  x7:0x00000001 x11=0x00000002
       64375000	      6436	80000d18	418407b3	sub	x15,x8,x24	  x8:0x70dcaa2e x24:0x00001284 x15=0x70dc97aa
       64385000	      6437	80000d1c	03bb1a63	bne	x22,x27,80000d50	 x22:0x000007f0 x27:0x00000001
       64395000	      6438	00000000	00000013	addi	x0,x0,0	  x0:0x00000000
       64405000	      6439	80000d4c	00000013	addi	x0,x0,0	  x0:0x00000000
       64415000	      6440	80000d50	03308c63	beq	x1,x19,80000d88	  x1:0x00000000 x19:0x00000001
       64425000	      6441	80000d54	009d8433	add	x8,x27,x9	 x27:0x00000001  x9:0x00000001  x8=0x00000002
       64435000	      6442	80000d58	419ed733	sra	x14,x29,x25	 x29:0x00001284 x25:0x1f4a8000 x14=0x00001284
       64445000	      6443	80000d5c	01cfaab3	slt	x21,x31,x28	 x31:0x00000000 x28:0x00000000 x21=0x00000000
       64455000	      6444	80000d60	4adbe793	ori	x15,x23,1197	 x23:0x80000a84 x15=0x80000ead
       64465000	      6445	80000d64	00000013	addi	x0,x0,0	  x0:0x00000000
       64475000	      6446	80000d68	9246fc13	andi	x24,x13,-1756	 x13:0x80008d40 x24=0x80008900
       64485000	      6447	80000d6c	002b8663	beq	x23,x2,80000d78	 x23:0x80000a84  x2:0x00000001
       64495000	      6448	80000d70	40510bb3	sub	x23,x2,x5	  x2:0x00000001  x5:0x00000000 x23=0x00000001
       64505000	      6449	80000d74	b80d6293	ori	x5,x26,-1152	 x26:0x9f4b0d40  x5=0xffffffc0
       64515000	      6450	80000d78	012b0bb3	add	x23,x22,x18	 x22:0x000007f0 x18:0x27d70000 x23=0x27d707f0
       64525000	      6451	80000d7c	00ac5a63	bge	x24,x10,80000d90	 x24:0x80008900 x10:0x00000001
       64535000	      6452	80000d80	41bed8b3	sra	x17,x29,x27	 x29:0x00001284 x27:0x00000001 x17=0x00000942
       64545000	      6453	80000d84	01631393	slli	x7,x6,0x16	  x6:0x321a1cb8  x7=0x2e000000
       64555000	      6454	80000d88	0412d063	bge	x5,x1,80000dc8	  x5:0xffffffc0  x1:0x00000000
       64565000	      6455	80000d8c	a7813d13	sltiu	x26,x2,-1416	  x2:0x00000001 x26=0x00000001
       64575000	      6456	80000d90	e282f697	auipc	x13,0xe282f	 x13=0x6282fd8c
       64585000	      6457	80000d94	ee8ac393	xori	x7,x21,-280	 x21:0x00000000  x7=0xfffffee8
       64595000	      6458	80000d98	0157f7b3	and	x15,x15,x21	 x15:0x80000ead x21:0x00000000 x15=0x00000000
       64605000	      6459	80000d9c	043d8263	beq	x27,x3,80000de0	 x27:0x00000001  x3:0xa215c000
       64615000	      6460	80000da0	41e38b33	sub	x22,x7,x30	  x7:0xfffffee8 x30:0x80009fc4 x22=0x7fff5f24
       64625000	      6461	80000da4	01645593	srli	x11,x8,0x16	  x8:0x00000002 x11=0x00000000
       64635000	      6462	80000da8	0c5b7117	auipc	x2,0xc5b7	  x2=0x8c5b7da4
       64645000	      6463	80000dac	d8c82d13	slti	x26,x16,-628	 x16:0x00000000 x26=0x00000000
       64655000	      6464	80000db0	dcf4a713	slti	x14,x9,-561	  x9:0x00000001 x14=0x00000000
       64665000	      6465	80000db4	15edfc93	andi	x25,x27,350	 x27:0x00000001 x25=0x00000000
       64675000	      6466	80000db8	9ee00113	addi	x2,x0,-1554	  x0:0x00000000  x2=0xfffff9ee
       64685000	      6467	80000dbc	0379c863	blt	x19,x23,80000dec	 x19:0x00000001 x23:0x27d707f0
       64695000	      6468	00000000	00000013	addi	x0,x0,0	  x0:0x00000000
       64705000	      6469	80000de8	00000013	addi	x0,x0,0	  x0:0x00000000
       64715000	      6470	80000dec	d05357b7	lui	x15,0xd0535	 x15=0xd0535000
       64725000	      6471	80000df0	f816ce93	xori	x29,x13,-127	 x13:0x6282fd8c x29=0x9d7d020d
       64735000	      6472	80000df4	00787833	and	x16,x16,x7	 x16:0x00000000  x7:0xfffffee8 x16=0x00000000
       64745000	      6473	80000df8	00073133	sltu	x2,x14,x0	 x14:0x00000000  x0:0x00000000  x2=0x00000000
       64755000	      6474	80000dfc	ee574513	xori	x10,x14,-283	 x14:0x00000000 x10=0xfffffee5
       64765000	      6475	80000e00	52ae3bb7	lui	x23,0x52ae3	 x23=0x52ae3000
       64775000	      6476	80000e04	5ce00e93	addi	x29,x0,1486	  x0:0x00000000 x29=0x000005ce
       64785000	      6477	80000e08	32eedfb7	lui	x31,0x32eed	 x31=0x32eed000
       64795000	      6478	80000e0c	0559d863	bge	x19,x21,80000e5c	 x19:0x00000001 x21:0x00000000
       64805000	      6479	00000000	00000013	addi	x0,x0,0	  x0:0x00000000
       64815000	      6480	80000e58	00000013	addi	x0,x0,0	  x0:0x00000000
       64825000	      6481	80000e5c	6ae2cb93	xori	x23,x5,1710	  x5:0xffffffc0 x23=0xfffff96e
       64835000	      6482	80000e60	413d5cb3	sra	x25,x26,x19	 x26:0x00000000 x19:0x00000001 x25=0x00000000
       64845000	      6483	80000e64	090ef0b7	lui	x1,0x90ef	  x1=0x090ef000
       64855000	      6484	80000e68	01791b93	slli	x23,x18,0x17	 x18:0x27d70000 x23=0x00000000
       64865000	      6485	80000e6c	e8516193	ori	x3,x2,-379	  x2:0x00000000  x3=0xfffffe85
       64875000	      6486	80000e70	9a060513	addi	x10,x12,-1632	 x12:0x00000000 x10=0xfffff9a0
       64885000	      6487	80000e74	004e7263	bgeu	x28,x4,80000e78	 x28:0x00000000  x4:0x00000000
       64895000	      6488	00000000	00000013	addi	x0,x0,0	  x0:0x00000000
       64905000	      6489	80000e74	00000013	addi	x0,x0,0	  x0:0x00000000
       64915000	      6490	80000e78	00f2e233	or	x4,x5,x15	  x5:0xffffffc0 x15:0xd0535000  x4=0xffffffc0
       64925000	      6491	80000e7c	020bc463	blt	x23,x0,80000ea4	 x23:0x00000000  x0:0x00000000
       64935000	      6492	80000e80	419bd233	sra	x4,x23,x25	 x23:0x00000000 x25:0x00000000  x4=0x00000000
       64945000	      6493	80000e84	001ff233	and	x4,x31,x1	 x31:0x32eed000  x1:0x090ef000  x4=0x000ed000
       64955000	      6494	80000e88	4065dd33	sra	x26,x11,x6	 x11:0x00000000  x6:0x321a1cb8 x26=0x00000000
       64965000	      6495	80000e8c	40de8333	sub	x6,x29,x13	 x29:0x000005ce x13:0x6282fd8c  x6=0x9d7d0842
       64975000	      6496	80000e90	51b76093	ori	x1,x14,1307	 x14:0x00000000  x1=0x0000051b
       64985000	      6497	80000e94	400ad013	srai	x0,x21,0x0	 x21:0x00000000
       64995000	      6498	80000e98	009b1463	bne	x22,x9,80000ea0	 x22:0x7fff5f24  x9:0x00000001
       65005000	      6499	00000000	00000013	addi	x0,x0,0	  x0:0x00000000
       65015000	      6500	80000e9c	00000013	addi	x0,x0,0	  x0:0x00000000
       65025000	      6501	80000ea0	03b91c63	bne	x18,x27,80000ed8	 x18:0x27d70000 x27:0x00000001
       65035000	      6502	00000000	00000013	addi	x0,x0,0	  x0:0x00000000
       65045000	      6503	80000ed4	00000013	addi	x0,x0,0	  x0:0x00000000
       65055000	      6504	80000ed8	e677ee93	ori	x29,x15,-409	 x15:0xd0535000 x29=0xfffffe67
       65065000	      6505	80000edc	045fd463	bge	x31,x5,80000f24	 x31:0x32eed000  x5:0xffffffc0
       65075000	      6506	00000000	00000013	addi	x0,x0,0	  x0:0x00000000
       65085000	      6507	80000f20	00000013	addi	x0,x0,0	  x0:0x00000000
       65095000	      6508	80000f24	00204433	xor	x8,x0,x2	  x0:0x00000000  x2:0x00000000  x8=0x00000000
       65105000	      6509	80000f28	017a3933	sltu	x18,x20,x23	 x20:0x80009f5c x23:0x00000000 x18=0x00000000
       65115000	      6510	80000f2c	c2eb6793	ori	x15,x22,-978	 x22:0x7fff5f24 x15=0xffffff2e
       65125000	      6511	80000f30	41d30933	sub	x18,x6,x29	  x6:0x9d7d0842 x29:0xfffffe67 x18=0x9d7d09db
       65135000	      6512	80000f34	60ca6413	ori	x8,x20,1548	 x20:0x80009f5c  x8=0x80009f5c
       65145000	      6513	80000f38	810859b7	lui	x19,0x81085	 x19=0x81085000
       65155000	      6514	80000f3c	03608e63	beq	x1,x22,80000f78	  x1:0x0000051b x22:0x7fff5f24
       65165000	      6515	80000f40	01485463	bge	x16,x20,80000f48	 x16:0x00000000 x20:0x80009f5c
       65175000	      6516	00000000	00000013	addi	x0,x0,0	  x0:0x00000000
       65185000	      6517	80000f44	00000013	addi	x0,x0,0	  x0:0x00000000
       65195000	      6518	80000f48	dae96513	ori	x10,x18,-594	 x18:0x9d7d09db x10=0xfffffdff
       65205000	      6519	80000f4c	6c686313	ori	x6,x16,1734	 x16:0x00000000  x6=0x000006c6
       65215000	      6520	80000f50	0068c9b3	xor	x19,x17,x6	 x17:0x00000942  x6:0x000006c6 x19=0x00000f84
       65225000	      6521	80000f54	00455f93	srli	x31,x10,0x4	 x10:0xfffffdff x31=0x0fffffdf
       65235000	      6522	80000f58	0c396d93	ori	x27,x18,195	 x18:0x9d7d09db x27=0x9d7d09db
       65245000	      6523	80000f5c	0131e833	or	x16,x3,x19	  x3:0xfffffe85 x19:0x00000f84 x16=0xffffff85
       65255000	      6524	80000f60	00000013	addi	x0,x0,0	  x0:0x00000000
       65265000	      6525	80000f64	426aed13	ori	x26,x21,1062	 x21:0x00000000 x26=0x00000426
       65275000	      6526	80000f68	02f68c63	beq	x13,x15,80000fa0	 x13:0x6282fd8c x15:0xffffff2e
       65285000	      6527	80000f6c	01c5fe33	and	x28,x11,x28	 x11:0x00000000 x28:0x00000000 x28=0x00000000
       65295000	      6528	80000f70	0003d1b3	srl	x3,x7,x0	  x7:0xfffffee8  x0:0x00000000  x3=0xfffffee8
       65305000	      6529	80000f74	410b8db3	sub	x27,x23,x16	 x23:0x00000000 x16:0xffffff85 x27=0x0000007b
       65315000	      6530	80000f78	00d47b33	and	x22,x8,x13	  x8:0x80009f5c x13:0x6282fd8c x22=0x00009d0c
       65325000	      6531	80000f7c	6c80cdb7	lui	x27,0x6c80c	 x27=0x6c80c000
       65335000	      6532	80000f80	01e38b33	add	x22,x7,x30	  x7:0xfffffee8 x30:0x80009fc4 x22=0x80009eac
       65345000	      6533	80000f84	00421863	bne	x4,x4,80000f94	  x4:0x000ed000  x4:0x000ed000
       65355000	      6534	80000f88	0162bb33	sltu	x22,x5,x22	  x5:0xffffffc0 x22:0x80009eac x22=0x00000000
       65365000	      6535	80000f8c	000880b3	add	x1,x17,x0	 x17:0x00000942  x0:0x00000000  x1=0x00000942
       65375000	      6536	80000f90	0418c263	blt	x17,x1,80000fd4	 x17:0x00000942  x1:0x00000942
       65385000	      6537	80000f94	06f97063	bgeu	x18,x15,80000ff4	 x18:0x9d7d09db x15:0xffffff2e
       65395000	      6538	80000f98	92b28713	addi	x14,x5,-1749	  x5:0xffffffc0 x14=0xfffff8eb
       65405000	      6539	80000f9c	013761b3	or	x3,x14,x19	 x14:0xfffff8eb x19:0x00000f84  x3=0xffffffef
       65415000	      6540	80000fa0	01abda93	srli	x21,x23,0x1a	 x23:0x00000000 x21=0x00000000
       65425000	      6541	80000fa4	14c34e13	xori	x28,x6,332	  x6:0x000006c6 x28=0x0000078a
       65435000	      6542	80000fa8	40ab00b3	sub	x1,x22,x10	 x22:0x00000000 x10:0xfffffdff  x1=0x00000201
       65445000	      6543	80000fac	404d50b3	sra	x1,x26,x4	 x26:0x00000426  x4:0x000ed000  x1=0x00000426
       65455000	      6544	80000fb0	01851b13	slli	x22,x10,0x18	 x10:0xfffffdff x22=0xff000000
       65465000	      6545	80000fb4	013904b3	add	x9,x18,x19	 x18:0x9d7d09db x19:0x00000f84  x9=0x9d7d195f
       65475000	      6546	80000fb8	00366733	or	x14,x12,x3	 x12:0x00000000  x3:0xffffffef x14=0xffffffef
       65485000	      6547	80000fbc	003c9b33	sll	x22,x25,x3	 x25:0x00000000  x3:0xffffffef x22=0x00000000
       65495000	      6548	80000fc0	ebfa6b93	ori	x23,x20,-321	 x20:0x80009f5c x23=0xffffffff
       65505000	      6549	80000fc4	2b6abc13	sltiu	x24,x21,694	 x21:0x00000000 x24=0x00000001
       65515000	      6550	80000fc8	7b9010ef	jal	x1,80000fc8	  x1=0x80000fc8
       65525000	      6551	00000000	00000013	addi	x0,x0,0	  x0:0x00000000
       65535000	      6552	80002f7c	00000013	addi	x0,x0,0	  x0:0x00000000
       65545000	      6553	80002f80	fd0a0a13	addi	x20,x20,-48	 x20:0x80009f5c x20=0x80009f2c
       65555000	      6554	80002f84	0112ee33	or	x28,x5,x17	  x5:0xffffffc0 x17:0x00000942 x28=0xffffffc2
       65565000	      6555	80002f88	0197bcb3	sltu	x25,x15,x25	 x15:0xffffff2e x25:0x00000000 x25=0x00000000
       65575000	      6556	80002f8c	daa90893	addi	x17,x18,-598	 x18:0x9d7d09db x17=0x9d7d0785
       65585000	      6557	80002f90	013afbb3	and	x23,x21,x19	 x21:0x00000000 x19:0x00000f84 x23=0x00000000
       65595000	      6558	80002f94	001a2223	sw	x1,4(x20)	 x20:0x80009f2c  x1:0x80000fc8 PA:0x80009f30
       65605000	      6559	80002f98	409f02b3	sub	x5,x30,x9	 x30:0x80009fc4  x9:0x9d7d195f  x5=0xe2838665
       65615000	      6560	80002f9c	02c000ef	jal	x1,80002f9c	  x1=0x80002f9c
       65625000	      6561	00000000	00000013	addi	x0,x0,0	  x0:0x00000000
       65635000	      6562	80002fc4	00000013	addi	x0,x0,0	  x0:0x00000000
       65645000	      6563	80002fc8	fd9ff0ef	jal	x1,80002fc8	  x1=0x80002fc8
       65655000	      6564	00000000	00000013	addi	x0,x0,0	  x0:0x00000000
       65665000	      6565	80002f9c	00000013	addi	x0,x0,0	  x0:0x00000000
       65675000	      6566	80002fa0	014000ef	jal	x1,80002fa0	  x1=0x80002fa0
       65685000	      6567	00000000	00000013	addi	x0,x0,0	  x0:0x00000000
       65695000	      6568	80002fb0	00000013	addi	x0,x0,0	  x0:0x00000000
       65705000	      6569	80002fb4	ffdff0ef	jal	x1,80002fb4	  x1=0x80002fb4
       65715000	      6570	00000000	00000013	addi	x0,x0,0	  x0:0x00000000
       65725000	      6571	80002fac	00000013	addi	x0,x0,0	  x0:0x00000000
       65735000	      6572	80002fb0	0200016f	jal	x2,80002fb0	  x2=0x80002fb0
       65745000	      6573	00000000	00000013	addi	x0,x0,0	  x0:0x00000000
       65755000	      6574	80002fcc	00000013	addi	x0,x0,0	  x0:0x00000000
       65765000	      6575	80002fd0	00c000ef	jal	x1,80002fd0	  x1=0x80002fd0
       65775000	      6576	00000000	00000013	addi	x0,x0,0	  x0:0x00000000
       65785000	      6577	80002fd8	00000013	addi	x0,x0,0	  x0:0x00000000
       65795000	      6578	80002fdc	0100076f	jal	x14,80002fdc	 x14=0x80002fdc
       65805000	      6579	00000000	00000013	addi	x0,x0,0	  x0:0x00000000
       65815000	      6580	80002fe8	00000013	addi	x0,x0,0	  x0:0x00000000
       65825000	      6581	80002fec	004000ef	jal	x1,80002fec	  x1=0x80002fec
       65835000	      6582	00000000	00000013	addi	x0,x0,0	  x0:0x00000000
       65845000	      6583	80002fec	00000013	addi	x0,x0,0	  x0:0x00000000
       65855000	      6584	80002ff0	fddff0ef	jal	x1,80002ff0	  x1=0x80002ff0
       65865000	      6585	00000000	00000013	addi	x0,x0,0	  x0:0x00000000
       65875000	      6586	80002fc8	00000013	addi	x0,x0,0	  x0:0x00000000
       65885000	      6587	80002fcc	014000ef	jal	x1,80002fcc	  x1=0x80002fcc
       65895000	      6588	00000000	00000013	addi	x0,x0,0	  x0:0x00000000
       65905000	      6589	80002fdc	00000013	addi	x0,x0,0	  x0:0x00000000
       65915000	      6590	80002fe0	fc5ff36f	jal	x6,80002fe0	  x6=0x80002fe0
       65925000	      6591	00000000	00000013	addi	x0,x0,0	  x0:0x00000000
       65935000	      6592	80002fa0	00000013	addi	x0,x0,0	  x0:0x00000000
       65945000	      6593	80002fa4	020000ef	jal	x1,80002fa4	  x1=0x80002fa4
       65955000	      6594	00000000	00000013	addi	x0,x0,0	  x0:0x00000000
       65965000	      6595	80002fc0	00000013	addi	x0,x0,0	  x0:0x00000000
       65975000	      6596	80002fc4	014000ef	jal	x1,80002fc4	  x1=0x80002fc4
       65985000	      6597	00000000	00000013	addi	x0,x0,0	  x0:0x00000000
       65995000	      6598	80002fd4	00000013	addi	x0,x0,0	  x0:0x00000000
       66005000	      6599	80002fd8	fd5ff0ef	jal	x1,80002fd8	  x1=0x80002fd8
       66015000	      6600	00000000	00000013	addi	x0,x0,0	  x0:0x00000000
       66025000	      6601	80002fa8	00000013	addi	x0,x0,0	  x0:0x00000000
       66035000	      6602	80002fac	03c000ef	jal	x1,80002fac	  x1=0x80002fac
       66045000	      6603	00000000	00000013	addi	x0,x0,0	  x0:0x00000000
       66055000	      6604	80002fe4	00000013	addi	x0,x0,0	  x0:0x00000000
       66065000	      6605	80002fe8	fd5ff16f	jal	x2,80002fe8	  x2=0x80002fe8
       66075000	      6606	00000000	00000013	addi	x0,x0,0	  x0:0x00000000
       66085000	      6607	80002fb8	00000013	addi	x0,x0,0	  x0:0x00000000
       66095000	      6608	80002fbc	0280086f	jal	x16,80002fbc	 x16=0x80002fbc
       66105000	      6609	00000000	00000013	addi	x0,x0,0	  x0:0x00000000
       66115000	      6610	80002fe0	00000013	addi	x0,x0,0	  x0:0x00000000
       66125000	      6611	80002fe4	fddff0ef	jal	x1,80002fe4	  x1=0x80002fe4
       66135000	      6612	00000000	00000013	addi	x0,x0,0	  x0:0x00000000
       66145000	      6613	80002fbc	00000013	addi	x0,x0,0	  x0:0x00000000
       66155000	      6614	80002fc0	ff9ffeef	jal	x29,80002fc0	 x29=0x80002fc0
       66165000	      6615	00000000	00000013	addi	x0,x0,0	  x0:0x00000000
       66175000	      6616	80002fb4	00000013	addi	x0,x0,0	  x0:0x00000000
       66185000	      6617	80002fb8	ff1ff0ef	jal	x1,80002fb8	  x1=0x80002fb8
       66195000	      6618	00000000	00000013	addi	x0,x0,0	  x0:0x00000000
       66205000	      6619	80002fa4	00000013	addi	x0,x0,0	  x0:0x00000000
       66215000	      6620	80002fa8	02c000ef	jal	x1,80002fa8	  x1=0x80002fa8
       66225000	      6621	00000000	00000013	addi	x0,x0,0	  x0:0x00000000
       66235000	      6622	80002fd0	00000013	addi	x0,x0,0	  x0:0x00000000
       66245000	      6623	80002fd4	020000ef	jal	x1,80002fd4	  x1=0x80002fd4
       66255000	      6624	00000000	00000013	addi	x0,x0,0	  x0:0x00000000
       66265000	      6625	80002ff0	00000013	addi	x0,x0,0	  x0:0x00000000
       66275000	      6626	80002ff4	01b87233	and	x4,x16,x27	 x16:0x80002fbc x27:0x6c80c000  x4=0x00000000
       66285000	      6627	80002ff8	054000ef	jal	x1,80002ff8	  x1=0x80002ff8
       66295000	      6628	00000000	00000013	addi	x0,x0,0	  x0:0x00000000
       66305000	      6629	80003048	00000013	addi	x0,x0,0	  x0:0x00000000
       66315000	      6630	8000304c	fe5ff36f	jal	x6,8000304c	  x6=0x8000304c
       66325000	      6631	00000000	00000013	addi	x0,x0,0	  x0:0x00000000
       66335000	      6632	8000302c	00000013	addi	x0,x0,0	  x0:0x00000000
       66345000	      6633	80003030	fd9ff36f	jal	x6,80003030	  x6=0x80003030
       66355000	      6634	00000000	00000013	addi	x0,x0,0	  x0:0x00000000
       66365000	      6635	80003004	00000013	addi	x0,x0,0	  x0:0x00000000
       66375000	      6636	80003008	04000fef	jal	x31,80003008	 x31=0x80003008
       66385000	      6637	00000000	00000013	addi	x0,x0,0	  x0:0x00000000
       66395000	      6638	80003044	00000013	addi	x0,x0,0	  x0:0x00000000
       66405000	      6639	80003048	ff9ff0ef	jal	x1,80003048	  x1=0x80003048
       66415000	      6640	00000000	00000013	addi	x0,x0,0	  x0:0x00000000
       66425000	      6641	8000303c	00000013	addi	x0,x0,0	  x0:0x00000000
       66435000	      6642	80003040	ff9ff0ef	jal	x1,80003040	  x1=0x80003040
       66445000	      6643	00000000	00000013	addi	x0,x0,0	  x0:0x00000000
       66455000	      6644	80003034	00000013	addi	x0,x0,0	  x0:0x00000000
       66465000	      6645	80003038	fd9ff0ef	jal	x1,80003038	  x1=0x80003038
       66475000	      6646	00000000	00000013	addi	x0,x0,0	  x0:0x00000000
       66485000	      6647	8000300c	00000013	addi	x0,x0,0	  x0:0x00000000
       66495000	      6648	80003010	00400def	jal	x27,80003010	 x27=0x80003010
       66505000	      6649	00000000	00000013	addi	x0,x0,0	  x0:0x00000000
       66515000	      6650	80003010	00000013	addi	x0,x0,0	  x0:0x00000000
       66525000	      6651	80003014	008000ef	jal	x1,80003014	  x1=0x80003014
       66535000	      6652	00000000	00000013	addi	x0,x0,0	  x0:0x00000000
       66545000	      6653	80003018	00000013	addi	x0,x0,0	  x0:0x00000000
       66555000	      6654	8000301c	fe1ff0ef	jal	x1,8000301c	  x1=0x8000301c
       66565000	      6655	00000000	00000013	addi	x0,x0,0	  x0:0x00000000
       66575000	      6656	80002ff8	00000013	addi	x0,x0,0	  x0:0x00000000
       66585000	      6657	80002ffc	02c000ef	jal	x1,80002ffc	  x1=0x80002ffc
       66595000	      6658	00000000	00000013	addi	x0,x0,0	  x0:0x00000000
       66605000	      6659	80003024	00000013	addi	x0,x0,0	  x0:0x00000000
       66615000	      6660	80003028	01400fef	jal	x31,80003028	 x31=0x80003028
       66625000	      6661	00000000	00000013	addi	x0,x0,0	  x0:0x00000000
       66635000	      6662	80003038	00000013	addi	x0,x0,0	  x0:0x00000000
       66645000	      6663	8000303c	fc5ff0ef	jal	x1,8000303c	  x1=0x8000303c
       66655000	      6664	00000000	00000013	addi	x0,x0,0	  x0:0x00000000
       66665000	      6665	80002ffc	00000013	addi	x0,x0,0	  x0:0x00000000
       66675000	      6666	80003000	00c0036f	jal	x6,80003000	  x6=0x80003000
       66685000	      6667	00000000	00000013	addi	x0,x0,0	  x0:0x00000000
       66695000	      6668	80003008	00000013	addi	x0,x0,0	  x0:0x00000000
       66705000	      6669	8000300c	038000ef	jal	x1,8000300c	  x1=0x8000300c
       66715000	      6670	00000000	00000013	addi	x0,x0,0	  x0:0x00000000
       66725000	      6671	80003040	00000013	addi	x0,x0,0	  x0:0x00000000
       66735000	      6672	80003044	fddff0ef	jal	x1,80003044	  x1=0x80003044
       66745000	      6673	00000000	00000013	addi	x0,x0,0	  x0:0x00000000
       66755000	      6674	8000301c	00000013	addi	x0,x0,0	  x0:0x00000000
       66765000	      6675	80003020	0300036f	jal	x6,80003020	  x6=0x80003020
       66775000	      6676	00000000	00000013	addi	x0,x0,0	  x0:0x00000000
       66785000	      6677	8000304c	00000013	addi	x0,x0,0	  x0:0x00000000
       66795000	      6678	80003050	fe5ff0ef	jal	x1,80003050	  x1=0x80003050
       66805000	      6679	00000000	00000013	addi	x0,x0,0	  x0:0x00000000
       66815000	      6680	80003030	00000013	addi	x0,x0,0	  x0:0x00000000
       66825000	      6681	80003034	ff9ff36f	jal	x6,80003034	  x6=0x80003034
       66835000	      6682	00000000	00000013	addi	x0,x0,0	  x0:0x00000000
       66845000	      6683	80003028	00000013	addi	x0,x0,0	  x0:0x00000000
       66855000	      6684	8000302c	ff9ff36f	jal	x6,8000302c	  x6=0x8000302c
       66865000	      6685	00000000	00000013	addi	x0,x0,0	  x0:0x00000000
       66875000	      6686	80003020	00000013	addi	x0,x0,0	  x0:0x00000000
       66885000	      6687	80003024	fe1ff0ef	jal	x1,80003024	  x1=0x80003024
       66895000	      6688	00000000	00000013	addi	x0,x0,0	  x0:0x00000000
       66905000	      6689	80003000	00000013	addi	x0,x0,0	  x0:0x00000000
       66915000	      6690	80003004	0140016f	jal	x2,80003004	  x2=0x80003004
       66925000	      6691	00000000	00000013	addi	x0,x0,0	  x0:0x00000000
       66935000	      6692	80003014	00000013	addi	x0,x0,0	  x0:0x00000000
       66945000	      6693	80003018	03c0036f	jal	x6,80003018	  x6=0x80003018
       66955000	      6694	00000000	00000013	addi	x0,x0,0	  x0:0x00000000
       66965000	      6695	80003050	00000013	addi	x0,x0,0	  x0:0x00000000
       66975000	      6696	80003054	8e66c113	xori	x2,x13,-1818	 x13:0x6282fd8c  x2=0x9d7d056a
       66985000	      6697	80003058	010000ef	jal	x1,80003058	  x1=0x80003058
       66995000	      6698	00000000	00000013	addi	x0,x0,0	  x0:0x00000000
       67005000	      6699	80003064	00000013	addi	x0,x0,0	  x0:0x00000000
       67015000	      6700	80003068	ff9ff0ef	jal	x1,80003068	  x1=0x80003068
       67025000	      6701	00000000	00000013	addi	x0,x0,0	  x0:0x00000000
       67035000	      6702	8000305c	00000013	addi	x0,x0,0	  x0:0x00000000
       67045000	      6703	80003060	03c0036f	jal	x6,80003060	  x6=0x80003060
       67055000	      6704	00000000	00000013	addi	x0,x0,0	  x0:0x00000000
       67065000	      6705	80003098	00000013	addi	x0,x0,0	  x0:0x00000000
       67075000	      6706	8000309c	fddff86f	jal	x16,8000309c	 x16=0x8000309c
       67085000	      6707	00000000	00000013	addi	x0,x0,0	  x0:0x00000000
       67095000	      6708	80003074	00000013	addi	x0,x0,0	  x0:0x00000000
       67105000	      6709	80003078	010000ef	jal	x1,80003078	  x1=0x80003078
       67115000	      6710	00000000	00000013	addi	x0,x0,0	  x0:0x00000000
       67125000	      6711	80003084	00000013	addi	x0,x0,0	  x0:0x00000000
       67135000	      6712	80003088	ffdff0ef	jal	x1,80003088	  x1=0x80003088
       67145000	      6713	00000000	00000013	addi	x0,x0,0	  x0:0x00000000
       67155000	      6714	80003080	00000013	addi	x0,x0,0	  x0:0x00000000
       67165000	      6715	80003084	fe9ff0ef	jal	x1,80003084	  x1=0x80003084
       67175000	      6716	00000000	00000013	addi	x0,x0,0	  x0:0x00000000
       67185000	      6717	80003068	00000013	addi	x0,x0,0	  x0:0x00000000
       67195000	      6718	8000306c	024000ef	jal	x1,8000306c	  x1=0x8000306c
       67205000	      6719	00000000	00000013	addi	x0,x0,0	  x0:0x00000000
       67215000	      6720	8000308c	00000013	addi	x0,x0,0	  x0:0x00000000
       67225000	      6721	80003090	fd5ff1ef	jal	x3,80003090	  x3=0x80003090
       67235000	      6722	00000000	00000013	addi	x0,x0,0	  x0:0x00000000
       67245000	      6723	80003060	00000013	addi	x0,x0,0	  x0:0x00000000
       67255000	      6724	80003064	028000ef	jal	x1,80003064	  x1=0x80003064
       67265000	      6725	00000000	00000013	addi	x0,x0,0	  x0:0x00000000
       67275000	      6726	80003088	00000013	addi	x0,x0,0	  x0:0x00000000
       67285000	      6727	8000308c	fd1ff0ef	jal	x1,8000308c	  x1=0x8000308c
       67295000	      6728	00000000	00000013	addi	x0,x0,0	  x0:0x00000000
       67305000	      6729	80003058	00000013	addi	x0,x0,0	  x0:0x00000000
       67315000	      6730	8000305c	0180016f	jal	x2,8000305c	  x2=0x8000305c
       67325000	      6731	00000000	00000013	addi	x0,x0,0	  x0:0x00000000
       67335000	      6732	80003070	00000013	addi	x0,x0,0	  x0:0x00000000
       67345000	      6733	80003074	00c000ef	jal	x1,80003074	  x1=0x80003074
       67355000	      6734	00000000	00000013	addi	x0,x0,0	  x0:0x00000000
       67365000	      6735	8000307c	00000013	addi	x0,x0,0	  x0:0x00000000
       67375000	      6736	80003080	0200036f	jal	x6,80003080	  x6=0x80003080
       67385000	      6737	00000000	00000013	addi	x0,x0,0	  x0:0x00000000
       67395000	      6738	8000309c	00000013	addi	x0,x0,0	  x0:0x00000000
       67405000	      6739	800030a0	fddff36f	jal	x6,800030a0	  x6=0x800030a0
       67415000	      6740	00000000	00000013	addi	x0,x0,0	  x0:0x00000000
       67425000	      6741	80003078	00000013	addi	x0,x0,0	  x0:0x00000000
       67435000	      6742	8000307c	01c00eef	jal	x29,8000307c	 x29=0x8000307c
       67445000	      6743	00000000	00000013	addi	x0,x0,0	  x0:0x00000000
       67455000	      6744	80003094	00000013	addi	x0,x0,0	  x0:0x00000000
       67465000	      6745	80003098	fd9ff36f	jal	x6,80003098	  x6=0x80003098
       67475000	      6746	00000000	00000013	addi	x0,x0,0	  x0:0x00000000
       67485000	      6747	8000306c	00000013	addi	x0,x0,0	  x0:0x00000000
       67495000	      6748	80003070	024000ef	jal	x1,80003070	  x1=0x80003070
       67505000	      6749	00000000	00000013	addi	x0,x0,0	  x0:0x00000000
       67515000	      6750	80003090	00000013	addi	x0,x0,0	  x0:0x00000000
       67525000	      6751	80003094	010000ef	jal	x1,80003094	  x1=0x80003094
       67535000	      6752	00000000	00000013	addi	x0,x0,0	  x0:0x00000000
       67545000	      6753	800030a0	00000013	addi	x0,x0,0	  x0:0x00000000
       67555000	      6754	800030a4	00c55913	srli	x18,x10,0xc	 x10:0xfffffdff x18=0x000fffff
       67565000	      6755	800030a8	014000ef	jal	x1,800030a8	  x1=0x800030a8
       67575000	      6756	00000000	00000013	addi	x0,x0,0	  x0:0x00000000
       67585000	      6757	800030b8	00000013	addi	x0,x0,0	  x0:0x00000000
       67595000	      6758	800030bc	ff5ff0ef	jal	x1,800030bc	  x1=0x800030bc
       67605000	      6759	00000000	00000013	addi	x0,x0,0	  x0:0x00000000
       67615000	      6760	800030ac	00000013	addi	x0,x0,0	  x0:0x00000000
       67625000	      6761	800030b0	010000ef	jal	x1,800030b0	  x1=0x800030b0
       67635000	      6762	00000000	00000013	addi	x0,x0,0	  x0:0x00000000
       67645000	      6763	800030bc	00000013	addi	x0,x0,0	  x0:0x00000000
       67655000	      6764	800030c0	0180046f	jal	x8,800030c0	  x8=0x800030c0
       67665000	      6765	00000000	00000013	addi	x0,x0,0	  x0:0x00000000
       67675000	      6766	800030d4	00000013	addi	x0,x0,0	  x0:0x00000000
       67685000	      6767	800030d8	018000ef	jal	x1,800030d8	  x1=0x800030d8
       67695000	      6768	00000000	00000013	addi	x0,x0,0	  x0:0x00000000
       67705000	      6769	800030ec	00000013	addi	x0,x0,0	  x0:0x00000000
       67715000	      6770	800030f0	fc5ff0ef	jal	x1,800030f0	  x1=0x800030f0
       67725000	      6771	00000000	00000013	addi	x0,x0,0	  x0:0x00000000
       67735000	      6772	800030b0	00000013	addi	x0,x0,0	  x0:0x00000000
       67745000	      6773	800030b4	01400def	jal	x27,800030b4	 x27=0x800030b4
       67755000	      6774	00000000	00000013	addi	x0,x0,0	  x0:0x00000000
       67765000	      6775	800030c4	00000013	addi	x0,x0,0	  x0:0x00000000
       67775000	      6776	800030c8	0300036f	jal	x6,800030c8	  x6=0x800030c8
       67785000	      6777	00000000	00000013	addi	x0,x0,0	  x0:0x00000000
       67795000	      6778	800030f4	00000013	addi	x0,x0,0	  x0:0x00000000
       67805000	      6779	800030f8	fcdff2ef	jal	x5,800030f8	  x5=0x800030f8
       67815000	      6780	00000000	00000013	addi	x0,x0,0	  x0:0x00000000
       67825000	      6781	800030c0	00000013	addi	x0,x0,0	  x0:0x00000000
       67835000	      6782	800030c4	03800def	jal	x27,800030c4	 x27=0x800030c4
       67845000	      6783	00000000	00000013	addi	x0,x0,0	  x0:0x00000000
       67855000	      6784	800030f8	00000013	addi	x0,x0,0	  x0:0x00000000
       67865000	      6785	800030fc	00800eef	jal	x29,800030fc	 x29=0x800030fc
       67875000	      6786	00000000	00000013	addi	x0,x0,0	  x0:0x00000000
       67885000	      6787	80003100	00000013	addi	x0,x0,0	  x0:0x00000000
       67895000	      6788	80003104	ffdff0ef	jal	x1,80003104	  x1=0x80003104
       67905000	      6789	00000000	00000013	addi	x0,x0,0	  x0:0x00000000
       67915000	      6790	800030fc	00000013	addi	x0,x0,0	  x0:0x00000000
       67925000	      6791	80003100	fedff36f	jal	x6,80003100	  x6=0x80003100
       67935000	      6792	00000000	00000013	addi	x0,x0,0	  x0:0x00000000
       67945000	      6793	800030e8	00000013	addi	x0,x0,0	  x0:0x00000000
       67955000	      6794	800030ec	ff9ff0ef	jal	x1,800030ec	  x1=0x800030ec
       67965000	      6795	00000000	00000013	addi	x0,x0,0	  x0:0x00000000
       67975000	      6796	800030e0	00000013	addi	x0,x0,0	  x0:0x00000000
       67985000	      6797	800030e4	0100036f	jal	x6,800030e4	  x6=0x800030e4
       67995000	      6798	00000000	00000013	addi	x0,x0,0	  x0:0x00000000
       68005000	      6799	800030f0	00000013	addi	x0,x0,0	  x0:0x00000000
       68015000	      6800	800030f4	fddff0ef	jal	x1,800030f4	  x1=0x800030f4
       68025000	      6801	00000000	00000013	addi	x0,x0,0	  x0:0x00000000
       68035000	      6802	800030cc	00000013	addi	x0,x0,0	  x0:0x00000000
       68045000	      6803	800030d0	00c008ef	jal	x17,800030d0	 x17=0x800030d0
       68055000	      6804	00000000	00000013	addi	x0,x0,0	  x0:0x00000000
       68065000	      6805	800030d8	00000013	addi	x0,x0,0	  x0:0x00000000
       68075000	      6806	800030dc	004000ef	jal	x1,800030dc	  x1=0x800030dc
       68085000	      6807	00000000	00000013	addi	x0,x0,0	  x0:0x00000000
       68095000	      6808	800030dc	00000013	addi	x0,x0,0	  x0:0x00000000
       68105000	      6809	800030e0	00800cef	jal	x25,800030e0	 x25=0x800030e0
       68115000	      6810	00000000	00000013	addi	x0,x0,0	  x0:0x00000000
       68125000	      6811	800030e4	00000013	addi	x0,x0,0	  x0:0x00000000
       68135000	      6812	800030e8	fe5ff0ef	jal	x1,800030e8	  x1=0x800030e8
       68145000	      6813	00000000	00000013	addi	x0,x0,0	  x0:0x00000000
       68155000	      6814	800030c8	00000013	addi	x0,x0,0	  x0:0x00000000
       68165000	      6815	800030cc	fedff0ef	jal	x1,800030cc	  x1=0x800030cc
       68175000	      6816	00000000	00000013	addi	x0,x0,0	  x0:0x00000000
       68185000	      6817	800030b4	00000013	addi	x0,x0,0	  x0:0x00000000
       68195000	      6818	800030b8	0500036f	jal	x6,800030b8	  x6=0x800030b8
       68205000	      6819	00000000	00000013	addi	x0,x0,0	  x0:0x00000000
       68215000	      6820	80003104	00000013	addi	x0,x0,0	  x0:0x00000000
       68225000	      6821	80003108	fa5ffe6f	jal	x28,80003108	 x28=0x80003108
       68235000	      6822	00000000	00000013	addi	x0,x0,0	  x0:0x00000000
       68245000	      6823	800030a8	00000013	addi	x0,x0,0	  x0:0x00000000
       68255000	      6824	800030ac	0280016f	jal	x2,800030ac	  x2=0x800030ac
       68265000	      6825	00000000	00000013	addi	x0,x0,0	  x0:0x00000000
       68275000	      6826	800030d0	00000013	addi	x0,x0,0	  x0:0x00000000
       68285000	      6827	800030d4	038000ef	jal	x1,800030d4	  x1=0x800030d4
       68295000	      6828	00000000	00000013	addi	x0,x0,0	  x0:0x00000000
       68305000	      6829	80003108	00000013	addi	x0,x0,0	  x0:0x00000000
       68315000	      6830	8000310c	0080c7b3	xor	x15,x1,x8	  x1:0x800030d4  x8:0x800030c0 x15=0x00000014
       68325000	      6831	80003110	00a50133	add	x2,x10,x10	 x10:0xfffffdff x10:0xfffffdff  x2=0xfffffbfe
       68335000	      6832	80003114	ffc28913	addi	x18,x5,-4	  x5:0x800030f8 x18=0x800030f4
       68345000	      6833	80003118	00554ab3	xor	x21,x10,x5	 x10:0xfffffdff  x5:0x800030f8 x21=0x7fffcd07
       68355000	      6834	8000311c	01528e63	beq	x5,x21,80003138	  x5:0x800030f8 x21:0x7fffcd07
       68365000	      6835	80003120	04b27663	bgeu	x4,x11,8000316c	  x4:0x00000000 x11:0x00000000
       68375000	      6836	00000000	00000013	addi	x0,x0,0	  x0:0x00000000
       68385000	      6837	80003168	00000013	addi	x0,x0,0	  x0:0x00000000
       68395000	      6838	8000316c	01c09913	slli	x18,x1,0x1c	  x1:0x800030d4 x18=0x40000000
       68405000	      6839	80003170	013e6db3	or	x27,x28,x19	 x28:0x80003108 x19:0x00000f84 x27=0x80003f8c
       68415000	      6840	80003174	d8b0b513	sltiu	x10,x1,-629	  x1:0x800030d4 x10=0x00000001
       68425000	      6841	80003178	00d6fd33	and	x26,x13,x13	 x13:0x6282fd8c x13:0x6282fd8c x26=0x6282fd8c
       68435000	      6842	8000317c	da6cfb13	andi	x22,x25,-602	 x25:0x800030e0 x22=0x800030a0
       68445000	      6843	80003180	01c07d33	and	x26,x0,x28	  x0:0x00000000 x28:0x80003108 x26=0x00000000
       68455000	      6844	80003184	97b00993	addi	x19,x0,-1669	  x0:0x00000000 x19=0xfffff97b
       68465000	      6845	80003188	0287cc63	blt	x15,x8,800031c0	 x15:0x00000014  x8:0x800030c0
       68475000	      6846	8000318c	4ec8e213	ori	x4,x17,1260	 x17:0x800030d0  x4=0x800034fc
       68485000	      6847	80003190	e1912437	lui	x8,0xe1912	  x8=0xe1912000
       68495000	      6848	80003194	0119b433	sltu	x8,x19,x17	 x19:0xfffff97b x17:0x800030d0  x8=0x00000000
       68505000	      6849	80003198	01fbb6b3	sltu	x13,x23,x31	 x23:0x00000000 x31:0x80003028 x13=0x00000001
       68515000	      6850	8000319c	00669013	slli	x0,x13,0x6	 x13:0x00000001
       68525000	      6851	800031a0	01617463	bgeu	x2,x22,800031a8	  x2:0xfffffbfe x22:0x800030a0
       68535000	      6852	00000000	00000013	addi	x0,x0,0	  x0:0x00000000
       68545000	      6853	800031a4	00000013	addi	x0,x0,0	  x0:0x00000000
       68555000	      6854	800031a8	01fae463	bltu	x21,x31,800031b0	 x21:0x7fffcd07 x31:0x80003028
       68565000	      6855	00000000	00000013	addi	x0,x0,0	  x0:0x00000000
       68575000	      6856	800031ac	00000013	addi	x0,x0,0	  x0:0x00000000
       68585000	      6857	800031b0	015aedb3	or	x27,x21,x21	 x21:0x7fffcd07 x21:0x7fffcd07 x27=0x7fffcd07
       68595000	      6858	800031b4	f0b97b93	andi	x23,x18,-245	 x18:0x40000000 x23=0x40000000
       68605000	      6859	800031b8	02e4c863	blt	x9,x14,800031e8	  x9:0x9d7d195f x14:0x80002fdc
       68615000	      6860	800031bc	41b80033	sub	x0,x16,x27	 x16:0x8000309c x27:0x7fffcd07
       68625000	      6861	800031c0	01841913	slli	x18,x8,0x18	  x8:0x00000000 x18=0x00000000
       68635000	      6862	800031c4	037f9c63	bne	x31,x23,800031fc	 x31:0x80003028 x23:0x40000000
       68645000	      6863	00000000	00000013	addi	x0,x0,0	  x0:0x00000000
       68655000	      6864	800031f8	00000013	addi	x0,x0,0	  x0:0x00000000
       68665000	      6865	800031fc	00c49c33	sll	x24,x9,x12	  x9:0x9d7d195f x12:0x00000000 x24=0x9d7d195f
       68675000	      6866	80003200	9ce8fd13	andi	x26,x17,-1586	 x17:0x800030d0 x26=0x800030c0
       68685000	      6867	80003204	7bee8c93	addi	x25,x29,1982	 x29:0x800030fc x25=0x800038ba
       68695000	      6868	80003208	002418b3	sll	x17,x8,x2	  x8:0x00000000  x2:0xfffffbfe x17=0x00000000
       68705000	      6869	8000320c	54600713	addi	x14,x0,1350	  x0:0x00000000 x14=0x00000546
       68715000	      6870	80003210	27d54893	xori	x17,x10,637	 x10:0x00000001 x17=0x0000027c
       68725000	      6871	80003214	015b8333	add	x6,x23,x21	 x23:0x40000000 x21:0x7fffcd07  x6=0xbfffcd07
       68735000	      6872	80003218	00ca6fb3	or	x31,x20,x12	 x20:0x80009f2c x12:0x00000000 x31=0x80009f2c
       68745000	      6873	8000321c	0091ec63	bltu	x3,x9,80003234	  x3:0x80003090  x9:0x9d7d195f
       68755000	      6874	00000000	00000013	addi	x0,x0,0	  x0:0x00000000
       68765000	      6875	80003230	00000013	addi	x0,x0,0	  x0:0x00000000
       68775000	      6876	80003234	00e38833	add	x16,x7,x14	  x7:0xfffffee8 x14:0x00000546 x16=0x0000042e
       68785000	      6877	80003238	03ccda63	bge	x25,x28,8000326c	 x25:0x800038ba x28:0x80003108
       68795000	      6878	00000000	00000013	addi	x0,x0,0	  x0:0x00000000
       68805000	      6879	80003268	00000013	addi	x0,x0,0	  x0:0x00000000
       68815000	      6880	8000326c	02ea0863	beq	x20,x14,8000329c	 x20:0x80009f2c x14:0x00000546
       68825000	      6881	80003270	41cf0ab3	sub	x21,x30,x28	 x30:0x80009fc4 x28:0x80003108 x21=0x00006ebc
       68835000	      6882	80003274	01391413	slli	x8,x18,0x13	 x18:0x00000000  x8=0x00000000
       68845000	      6883	80003278	42e7ec13	ori	x24,x15,1070	 x15:0x00000014 x24=0x0000043e
       68855000	      6884	8000327c	01d1ed33	or	x26,x3,x29	  x3:0x80003090 x29:0x800030fc x26=0x800030fc
       68865000	      6885	80003280	84838e93	addi	x29,x7,-1976	  x7:0xfffffee8 x29=0xfffff730
       68875000	      6886	80003284	046a1063	bne	x20,x6,800032c4	 x20:0x80009f2c  x6:0xbfffcd07
       68885000	      6887	00000000	00000013	addi	x0,x0,0	  x0:0x00000000
       68895000	      6888	800032c0	00000013	addi	x0,x0,0	  x0:0x00000000
       68905000	      6889	800032c4	cd79c413	xori	x8,x19,-809	 x19:0xfffff97b  x8=0x000005ac
       68915000	      6890	800032c8	d8a60113	addi	x2,x12,-630	 x12:0x00000000  x2=0xfffffd8a
       68925000	      6891	800032cc	050ec413	xori	x8,x29,80	 x29:0xfffff730  x8=0xfffff760
       68935000	      6892	800032d0	08fe6e13	ori	x28,x28,143	 x28:0x80003108 x28=0x8000318f
       68945000	      6893	800032d4	0083e4b3	or	x9,x7,x8	  x7:0xfffffee8  x8:0xfffff760  x9=0xffffffe8
       68955000	      6894	800032d8	05ca8463	beq	x21,x28,80003320	 x21:0x00006ebc x28:0x8000318f
       68965000	      6895	800032dc	41a2ddb3	sra	x27,x5,x26	  x5:0x800030f8 x26:0x800030fc x27=0xfffffff8
       68975000	      6896	800032e0	4267be13	sltiu	x28,x15,1062	 x15:0x00000014 x28=0x00000001
       68985000	      6897	800032e4	4122d1b3	sra	x3,x5,x18	  x5:0x800030f8 x18:0x00000000  x3=0x800030f8
       68995000	      6898	800032e8	00000013	addi	x0,x0,0	  x0:0x00000000
       69005000	      6899	800032ec	0010c463	blt	x1,x1,800032f4	  x1:0x800030d4  x1:0x800030d4
       69015000	      6900	800032f0	0050fbb3	and	x23,x1,x5	  x1:0x800030d4  x5:0x800030f8 x23=0x800030d0
       69025000	      6901	800032f4	00000013	addi	x0,x0,0	  x0:0x00000000
       69035000	      6902	800032f8	23d48713	addi	x14,x9,573	  x9:0xffffffe8 x14=0x00000225
       69045000	      6903	800032fc	12da7c37	lui	x24,0x12da7	 x24=0x12da7000
       69055000	      6904	80003300	01f21b93	slli	x23,x4,0x1f	  x4:0x800034fc x23=0x00000000
       69065000	      6905	80003304	01006c33	or	x24,x0,x16	  x0:0x00000000 x16:0x0000042e x24=0x0000042e
       69075000	      6906	80003308	009ef0b3	and	x1,x29,x9	 x29:0xfffff730  x9:0xffffffe8  x1=0xfffff720
       69085000	      6907	8000330c	56c82a93	slti	x21,x16,1388	 x16:0x0000042e x21=0x00000001
       69095000	      6908	80003310	0084c463	blt	x9,x8,80003318	  x9:0xffffffe8  x8:0xfffff760
       69105000	      6909	80003314	01059a93	slli	x21,x11,0x10	 x11:0x00000000 x21=0x00000000
       69115000	      6910	80003318	05ac8063	beq	x25,x26,80003358	 x25:0x800038ba x26:0x800030fc
       69125000	      6911	8000331c	00acc463	blt	x25,x10,80003324	 x25:0x800038ba x10:0x00000001
       69135000	      6912	00000000	00000013	addi	x0,x0,0	  x0:0x00000000
       69145000	      6913	80003320	00000013	addi	x0,x0,0	  x0:0x00000000
       69155000	      6914	80003324	00c6c6b3	xor	x13,x13,x12	 x13:0x00000001 x12:0x00000000 x13=0x00000001
       69165000	      6915	80003328	c471f513	andi	x10,x3,-953	  x3:0x800030f8 x10=0x80003040
       69175000	      6916	8000332c	0134c533	xor	x10,x9,x19	  x9:0xffffffe8 x19:0xfffff97b x10=0x00000693
       69185000	      6917	80003330	007a3cb3	sltu	x25,x20,x7	 x20:0x80009f2c  x7:0xfffffee8 x25=0x00000001
       69195000	      6918	80003334	00fe6fb3	or	x31,x28,x15	 x28:0x00000001 x15:0x00000014 x31=0x00000015
       69205000	      6919	80003338	f7f2cb17	auipc	x22,0xf7f2c	 x22=0x77f2f334
       69215000	      6920	8000333c	01d7c263	blt	x15,x29,80003340	 x15:0x00000014 x29:0xfffff730
       69225000	      6921	80003340	01bef263	bgeu	x29,x27,80003344	 x29:0xfffff730 x27:0xfffffff8
       69235000	      6922	80003344	06767b13	andi	x22,x12,103	 x12:0x00000000 x22=0x00000000
       69245000	      6923	80003348	00000013	addi	x0,x0,0	  x0:0x00000000
       69255000	      6924	8000334c	00a48813	addi	x16,x9,10	  x9:0xffffffe8 x16=0xfffffff2
       69265000	      6925	80003350	00567263	bgeu	x12,x5,80003354	 x12:0x00000000  x5:0x800030f8
       69275000	      6926	80003354	03491263	bne	x18,x20,80003378	 x18:0x00000000 x20:0x80009f2c
       69285000	      6927	00000000	00000013	addi	x0,x0,0	  x0:0x00000000
       69295000	      6928	80003374	00000013	addi	x0,x0,0	  x0:0x00000000
       69305000	      6929	80003378	014ad9b3	srl	x19,x21,x20	 x21:0x00000000 x20:0x80009f2c x19=0x00000000
       69315000	      6930	8000337c	00d371b3	and	x3,x6,x13	  x6:0xbfffcd07 x13:0x00000001  x3=0x00000001
       69325000	      6931	80003380	41480433	sub	x8,x16,x20	 x16:0xfffffff2 x20:0x80009f2c  x8=0x7fff60c6
       69335000	      6932	80003384	404381b3	sub	x3,x7,x4	  x7:0xfffffee8  x4:0x800034fc  x3=0x7fffc9ec
       69345000	      6933	80003388	0050cab3	xor	x21,x1,x5	  x1:0xfffff720  x5:0x800030f8 x21=0x7fffc7d8
       69355000	      6934	8000338c	01627fb3	and	x31,x4,x22	  x4:0x800034fc x22:0x00000000 x31=0x00000000
       69365000	      6935	80003390	6a3d2713	slti	x14,x26,1699	 x26:0x800030fc x14=0x00000001
       69375000	      6936	80003394	01281263	bne	x16,x18,80003398	 x16:0xfffffff2 x18:0x00000000
       69385000	      6937	00000000	00000013	addi	x0,x0,0	  x0:0x00000000
       69395000	      6938	80003394	00000013	addi	x0,x0,0	  x0:0x00000000
       69405000	      6939	80003398	d4a95997	auipc	x19,0xd4a95	 x19=0x54a98394
       69415000	      6940	8000339c	75afc713	xori	x14,x31,1882	 x31:0x00000000 x14=0x0000075a
       69425000	      6941	800033a0	00da4db3	xor	x27,x20,x13	 x20:0x80009f2c x13:0x00000001 x27=0x80009f2d
       69435000	      6942	800033a4	0085f333	and	x6,x11,x8	 x11:0x00000000  x8:0x7fff60c6  x6=0x00000000
       69445000	      6943	800033a8	01395793	srli	x15,x18,0x13	 x18:0x00000000 x15=0x00000000
       69455000	      6944	800033ac	96999317	auipc	x6,0x96999	  x6=0x1699c3a8
       69465000	      6945	800033b0	e6a3c7b7	lui	x15,0xe6a3c	 x15=0xe6a3c000
       69475000	      6946	800033b4	00476db3	or	x27,x14,x4	 x14:0x0000075a  x4:0x800034fc x27=0x800037fe
       69485000	      6947	800033b8	01d605b3	add	x11,x12,x29	 x12:0x00000000 x29:0xfffff730 x11=0xfffff730
       69495000	      6948	800033bc	88433737	lui	x14,0x88433	 x14=0x88433000
       69505000	      6949	800033c0	00000013	addi	x0,x0,0	  x0:0x00000000
       69515000	      6950	800033c4	75e57f93	andi	x31,x10,1886	 x10:0x00000693 x31=0x00000612
       69525000	      6951	800033c8	24b26e93	ori	x29,x4,587	  x4:0x800034fc x29=0x800036ff
       69535000	      6952	800033cc	37078713	addi	x14,x15,880	 x15:0xe6a3c000 x14=0xe6a3c370
       69545000	      6953	800033d0	ca258093	addi	x1,x11,-862	 x11:0xfffff730  x1=0xfffff3d2
       69555000	      6954	800033d4	014f3733	sltu	x14,x30,x20	 x30:0x80009fc4 x20:0x80009f2c x14=0x00000000
       69565000	      6955	800033d8	01e48333	add	x6,x9,x30	  x9:0xffffffe8 x30:0x80009fc4  x6=0x80009fac
       69575000	      6956	800033dc	028ada63	bge	x21,x8,80003410	 x21:0x7fffc7d8  x8:0x7fff60c6
       69585000	      6957	00000000	00000013	addi	x0,x0,0	  x0:0x00000000
       69595000	      6958	8000340c	00000013	addi	x0,x0,0	  x0:0x00000000
       69605000	      6959	80003410	106068b7	lui	x17,0x10606	 x17=0x10606000
       69615000	      6960	80003414	41fe02b3	sub	x5,x28,x31	 x28:0x00000001 x31:0x00000612  x5=0xfffff9ef
       69625000	      6961	80003418	b9fee013	ori	x0,x29,-1121	 x29:0x800036ff
       69635000	      6962	8000341c	00664a63	blt	x12,x6,80003430	 x12:0x00000000  x6:0x80009fac
       69645000	      6963	80003420	01461293	slli	x5,x12,0x14	 x12:0x00000000  x5=0x00000000
       69655000	      6964	80003424	02d9cc63	blt	x19,x13,8000345c	 x19:0x54a98394 x13:0x00000001
       69665000	      6965	80003428	002ceb33	or	x22,x25,x2	 x25:0x00000001  x2:0xfffffd8a x22=0xfffffd8b
       69675000	      6966	8000342c	0348e463	bltu	x17,x20,80003454	 x17:0x10606000 x20:0x80009f2c
       69685000	      6967	00000000	00000013	addi	x0,x0,0	  x0:0x00000000
       69695000	      6968	80003450	00000013	addi	x0,x0,0	  x0:0x00000000
       69705000	      6969	80003454	0127e263	bltu	x15,x18,80003458	 x15:0xe6a3c000 x18:0x00000000
       69715000	      6970	80003458	004895b3	sll	x11,x17,x4	 x17:0x10606000  x4:0x800034fc x11=0x00000000
       69725000	      6971	8000345c	c683c593	xori	x11,x7,-920	  x7:0xfffffee8 x11=0x00000280
       69735000	      6972	80003460	40c05033	sra	x0,x0,x12	  x0:0x00000000 x12:0x00000000
       69745000	      6973	80003464	036f8463	beq	x31,x22,8000348c	 x31:0x00000612 x22:0xfffffd8b
       69755000	      6974	80003468	017c1f93	slli	x31,x24,0x17	 x24:0x0000042e x31=0x17000000
       69765000	      6975	8000346c	40768fb3	sub	x31,x13,x7	 x13:0x00000001  x7:0xfffffee8 x31=0x00000119
       69775000	      6976	80003470	0080b533	sltu	x10,x1,x8	  x1:0xfffff3d2  x8:0x7fff60c6 x10=0x00000000
       69785000	      6977	80003474	01c7b0b3	sltu	x1,x15,x28	 x15:0xe6a3c000 x28:0x00000001  x1=0x00000000
       69795000	      6978	80003478	00240a63	beq	x8,x2,8000348c	  x8:0x7fff60c6  x2:0xfffffd8a
       69805000	      6979	8000347c	41300d33	sub	x26,x0,x19	  x0:0x00000000 x19:0x54a98394 x26=0xab567c6c
       69815000	      6980	80003480	27386893	ori	x17,x16,627	 x16:0xfffffff2 x17=0xfffffff3
       69825000	      6981	80003484	01376463	bltu	x14,x19,8000348c	 x14:0x00000000 x19:0x54a98394
       69835000	      6982	00000000	00000013	addi	x0,x0,0	  x0:0x00000000
       69845000	      6983	80003488	00000013	addi	x0,x0,0	  x0:0x00000000
       69855000	      6984	8000348c	0043fdb3	and	x27,x7,x4	  x7:0xfffffee8  x4:0x800034fc x27=0x800034e8
       69865000	      6985	80003490	c0e67113	andi	x2,x12,-1010	 x12:0x00000000  x2=0x00000000
       69875000	      6986	80003494	01e988b3	add	x17,x19,x30	 x19:0x54a98394 x30:0x80009fc4 x17=0xd4aa2358
       69885000	      6987	80003498	b5ace313	ori	x6,x25,-1190	 x25:0x00000001  x6=0xfffffb5b
       69895000	      6988	8000349c	004a2083	lw	x1,4(x20)	 x20:0x80009f2c  x1=0x80000fc8 PA:0x80009f30
       69905000	      6989	800034a0	01ff2433	slt	x8,x30,x31	 x30:0x80009fc4 x31:0x00000119  x8=0x00000001
       69915000	      6990	800034a4	66aac117	auipc	x2,0x66aac	  x2=0xe6aaf4a0
       69925000	      6991	800034a8	030a0a13	addi	x20,x20,48	 x20:0x80009f2c x20=0x80009f5c
       69935000	      6992	800034ac	012c7533	and	x10,x24,x18	 x24:0x0000042e x18:0x00000000 x10=0x00000000
       69945000	      6993	800034b0	008dd913	srli	x18,x27,0x8	 x27:0x800034e8 x18=0x00800034
       69955000	      6994	800034b4	00008d93	addi	x27,x1,0	  x1:0x80000fc8 x27=0x80000fc8
       69965000	      6995	800034b8	000d8de7	jalr	x27,x27,0	 x27:0x80000fc8 x27=0x800034b8
       69975000	      6996	00000000	00000013	addi	x0,x0,0	  x0:0x00000000
       69985000	      6997	80000fc8	00000013	addi	x0,x0,0	  x0:0x00000000
       69995000	      6998	80000fcc	40a304b3	sub	x9,x6,x10	  x6:0xfffffb5b x10:0x00000000  x9=0xfffffb5b
       70005000	      6999	80000fd0	dde57413	andi	x8,x10,-546	 x10:0x00000000  x8=0x00000000
       70015000	      7000	80000fd4	03d40663	beq	x8,x29,80001000	  x8:0x00000000 x29:0x800036ff
       70025000	      7001	80000fd8	033abb93	sltiu	x23,x21,51	 x21:0x7fffc7d8 x23=0x00000000
       70035000	      7002	80000fdc	01d8f4b3	and	x9,x17,x29	 x17:0xd4aa2358 x29:0x800036ff  x9=0x80002258
       70045000	      7003	80000fe0	408ad0b3	sra	x1,x21,x8	 x21:0x7fffc7d8  x8:0x00000000  x1=0x7fffc7d8
       70055000	      7004	80000fe4	03859c63	bne	x11,x24,8000101c	 x11:0x00000280 x24:0x0000042e
       70065000	      7005	00000000	00000013	addi	x0,x0,0	  x0:0x00000000
       70075000	      7006	80001018	00000013	addi	x0,x0,0	  x0:0x00000000
       70085000	      7007	8000101c	01c79533	sll	x10,x15,x28	 x15:0xe6a3c000 x28:0x00000001 x10=0xcd478000
       70095000	      7008	80001020	04924263	blt	x4,x9,80001064	  x4:0x800034fc  x9:0x80002258
       70105000	      7009	80001024	001392b3	sll	x5,x7,x1	  x7:0xfffffee8  x1:0x7fffc7d8  x5=0xe8000000
       70115000	      7010	80001028	044a8663	beq	x21,x4,80001074	 x21:0x7fffc7d8  x4:0x800034fc
       70125000	      7011	8000102c	00868863	beq	x13,x8,8000103c	 x13:0x00000001  x8:0x00000000
       70135000	      7012	80001030	0051d433	srl	x8,x3,x5	  x3:0x7fffc9ec  x5:0xe8000000  x8=0x7fffc9ec
       70145000	      7013	80001034	725ff1b7	lui	x3,0x725ff	  x3=0x725ff000
       70155000	      7014	80001038	dcd6ad93	slti	x27,x13,-563	 x13:0x00000001 x27=0x00000000
       70165000	      7015	8000103c	41a1d7b3	sra	x15,x3,x26	  x3:0x725ff000 x26:0xab567c6c x15=0x000725ff
       70175000	      7016	80001040	d9182a93	slti	x21,x16,-623	 x16:0xfffffff2 x21=0x00000000
       70185000	      7017	80001044	00906c33	or	x24,x0,x9	  x0:0x00000000  x9:0x80002258 x24=0x80002258
       70195000	      7018	80001048	00601463	bne	x0,x6,80001050	  x0:0x00000000  x6:0xfffffb5b
       70205000	      7019	00000000	00000013	addi	x0,x0,0	  x0:0x00000000
       70215000	      7020	8000104c	00000013	addi	x0,x0,0	  x0:0x00000000
       70225000	      7021	80001050	41a6d093	srai	x1,x13,0x1a	 x13:0x00000001  x1=0x00000000
       70235000	      7022	80001054	0055ffb3	and	x31,x11,x5	 x11:0x00000280  x5:0xe8000000 x31=0x00000000
       70245000	      7023	80001058	41dcd9b3	sra	x19,x25,x29	 x25:0x00000001 x29:0x800036ff x19=0x00000000
       70255000	      7024	8000105c	49990793	addi	x15,x18,1177	 x18:0x00800034 x15=0x008004cd
       70265000	      7025	80001060	02ab8863	beq	x23,x10,80001090	 x23:0x00000000 x10:0xcd478000
       70275000	      7026	80001064	01f28263	beq	x5,x31,80001068	  x5:0xe8000000 x31:0x00000000
       70285000	      7027	80001068	01446eb3	or	x29,x8,x20	  x8:0x7fffc9ec x20:0x80009f5c x29=0xffffdffc
       70295000	      7028	8000106c	01308663	beq	x1,x19,80001078	  x1:0x00000000 x19:0x00000000
       70305000	      7029	00000000	00000013	addi	x0,x0,0	  x0:0x00000000
       70315000	      7030	80001074	00000013	addi	x0,x0,0	  x0:0x00000000
       70325000	      7031	80001078	8f16e237	lui	x4,0x8f16e	  x4=0x8f16e000
       70335000	      7032	8000107c	008d9d93	slli	x27,x27,0x8	 x27:0x00000000 x27=0x00000000
       70345000	      7033	80001080	015e6263	bltu	x28,x21,80001084	 x28:0x00000001 x21:0x00000000
       70355000	      7034	80001084	00d85313	srli	x6,x16,0xd	 x16:0xfffffff2  x6=0x0007ffff
       70365000	      7035	80001088	00885593	srli	x11,x16,0x8	 x16:0xfffffff2 x11=0x00ffffff
       70375000	      7036	8000108c	45eacc13	xori	x24,x21,1118	 x21:0x00000000 x24=0x0000045e
       70385000	      7037	80001090	03624063	blt	x4,x22,800010b0	  x4:0x8f16e000 x22:0xfffffd8b
       70395000	      7038	00000000	00000013	addi	x0,x0,0	  x0:0x00000000
       70405000	      7039	800010ac	00000013	addi	x0,x0,0	  x0:0x00000000
       70415000	      7040	800010b0	013c34b3	sltu	x9,x24,x19	 x24:0x0000045e x19:0x00000000  x9=0x00000000
       70425000	      7041	800010b4	4290e797	auipc	x15,0x4290e	 x15=0xc290f0b0
       70435000	      7042	800010b8	016deab3	or	x21,x27,x22	 x27:0x00000000 x22:0xfffffd8b x21=0xfffffd8b
       70445000	      7043	800010bc	9f930193	addi	x3,x6,-1543	  x6:0x0007ffff  x3=0x0007f9f8
       70455000	      7044	800010c0	00a3fe63	bgeu	x7,x10,800010dc	  x7:0xfffffee8 x10:0xcd478000
       70465000	      7045	00000000	00000013	addi	x0,x0,0	  x0:0x00000000
       70475000	      7046	800010d8	00000013	addi	x0,x0,0	  x0:0x00000000
       70485000	      7047	800010dc	02f2ea63	bltu	x5,x15,80001110	  x5:0xe8000000 x15:0xc290f0b0
       70495000	      7048	800010e0	005ce2b3	or	x5,x25,x5	 x25:0x00000001  x5:0xe8000000  x5=0xe8000001
       70505000	      7049	800010e4	51010897	auipc	x17,0x51010	 x17=0xd10110e0
       70515000	      7050	800010e8	41ffd9b3	sra	x19,x31,x31	 x31:0x00000000 x31:0x00000000 x19=0x00000000
       70525000	      7051	800010ec	03715e63	bge	x2,x23,80001128	  x2:0xe6aaf4a0 x23:0x00000000
       70535000	      7052	800010f0	04f8c063	blt	x17,x15,80001130	 x17:0xd10110e0 x15:0xc290f0b0
       70545000	      7053	800010f4	a7b9a593	slti	x11,x19,-1413	 x19:0x00000000 x11=0x00000000
       70555000	      7054	800010f8	03b65463	bge	x12,x27,80001120	 x12:0x00000000 x27:0x00000000
       70565000	      7055	00000000	00000013	addi	x0,x0,0	  x0:0x00000000
       70575000	      7056	8000111c	00000013	addi	x0,x0,0	  x0:0x00000000
       70585000	      7057	80001120	00f65d33	srl	x26,x12,x15	 x12:0x00000000 x15:0xc290f0b0 x26=0x00000000
       70595000	      7058	80001124	7ff84313	xori	x6,x16,2047	 x16:0xfffffff2  x6=0xfffff80d
       70605000	      7059	80001128	011941b3	xor	x3,x18,x17	 x18:0x00800034 x17:0xd10110e0  x3=0xd18110d4
       70615000	      7060	8000112c	034b5863	bge	x22,x20,8000115c	 x22:0xfffffd8b x20:0x80009f5c
       70625000	      7061	00000000	00000013	addi	x0,x0,0	  x0:0x00000000
       70635000	      7062	80001158	00000013	addi	x0,x0,0	  x0:0x00000000
       70645000	      7063	8000115c	008ee6b3	or	x13,x29,x8	 x29:0xffffdffc  x8:0x7fffc9ec x13=0xffffdffc
       70655000	      7064	80001160	c1c84b13	xori	x22,x16,-996	 x16:0xfffffff2 x22=0x000003ee
       70665000	      7065	80001164	001c2db3	slt	x27,x24,x1	 x24:0x0000045e  x1:0x00000000 x27=0x00000000
       70675000	      7066	80001168	016106b3	add	x13,x2,x22	  x2:0xe6aaf4a0 x22:0x000003ee x13=0xe6aaf88e
       70685000	      7067	8000116c	00bc75b3	and	x11,x24,x11	 x24:0x0000045e x11:0x00000000 x11=0x00000000
       70695000	      7068	80001170	010934b3	sltu	x9,x18,x16	 x18:0x00800034 x16:0xfffffff2  x9=0x00000001
       70705000	      7069	80001174	4f1e7393	andi	x7,x28,1265	 x28:0x00000001  x7=0x00000001
       70715000	      7070	80001178	00f7e6b3	or	x13,x15,x15	 x15:0xc290f0b0 x15:0xc290f0b0 x13=0xc290f0b0
       70725000	      7071	8000117c	8a514593	xori	x11,x2,-1883	  x2:0xe6aaf4a0 x11=0x19550c05
       70735000	      7072	80001180	04350c63	beq	x10,x3,800011d8	 x10:0xcd478000  x3:0xd18110d4
       70745000	      7073	80001184	05ba7a63	bgeu	x20,x27,800011d8	 x20:0x80009f5c x27:0x00000000
       70755000	      7074	00000000	00000013	addi	x0,x0,0	  x0:0x00000000
       70765000	      7075	800011d4	00000013	addi	x0,x0,0	  x0:0x00000000
       70775000	      7076	800011d8	05e7f063	bgeu	x15,x30,80001218	 x15:0xc290f0b0 x30:0x80009fc4
       70785000	      7077	00000000	00000013	addi	x0,x0,0	  x0:0x00000000
       70795000	      7078	80001214	00000013	addi	x0,x0,0	  x0:0x00000000
       70805000	      7079	80001218	3119bd93	sltiu	x27,x19,785	 x19:0x00000000 x27=0x00000001
       70815000	      7080	8000121c	008c7e63	bgeu	x24,x8,80001238	 x24:0x0000045e  x8:0x7fffc9ec
       70825000	      7081	80001220	051a6263	bltu	x20,x17,80001264	 x20:0x80009f5c x17:0xd10110e0
       70835000	      7082	00000000	00000013	addi	x0,x0,0	  x0:0x00000000
       70845000	      7083	80001260	00000013	addi	x0,x0,0	  x0:0x00000000
       70855000	      7084	80001264	00031863	bne	x6,x0,80001274	  x6:0xfffff80d  x0:0x00000000
       70865000	      7085	00000000	00000013	addi	x0,x0,0	  x0:0x00000000
       70875000	      7086	80001270	00000013	addi	x0,x0,0	  x0:0x00000000
       70885000	      7087	80001274	307bc513	xori	x10,x23,775	 x23:0x00000000 x10=0x00000307
       70895000	      7088	80001278	00ff1433	sll	x8,x30,x15	 x30:0x80009fc4 x15:0xc290f0b0  x8=0x9fc40000
       70905000	      7089	8000127c	016e1693	slli	x13,x28,0x16	 x28:0x00000001 x13=0x00400000
       70915000	      7090	80001280	402e83b3	sub	x7,x29,x2	 x29:0xffffdffc  x2:0xe6aaf4a0  x7=0x1954eb5c
       70925000	      7091	80001284	00c944b3	xor	x9,x18,x12	 x18:0x00800034 x12:0x00000000  x9=0x00800034
       70935000	      7092	80001288	03030463	beq	x6,x16,800012b0	  x6:0xfffff80d x16:0xfffffff2
       70945000	      7093	8000128c	017d4733	xor	x14,x26,x23	 x26:0x00000000 x23:0x00000000 x14=0x00000000
       70955000	      7094	80001290	0112d263	bge	x5,x17,80001294	  x5:0xe8000001 x17:0xd10110e0
       70965000	      7095	00000000	00000013	addi	x0,x0,0	  x0:0x00000000
       70975000	      7096	80001290	00000013	addi	x0,x0,0	  x0:0x00000000
       70985000	      7097	80001294	410f5733	sra	x14,x30,x16	 x30:0x80009fc4 x16:0xfffffff2 x14=0xffffe000
       70995000	      7098	80001298	014ee833	or	x16,x29,x20	 x29:0xffffdffc x20:0x80009f5c x16=0xffffdffc
       71005000	      7099	8000129c	cdcf0a93	addi	x21,x30,-804	 x30:0x80009fc4 x21=0x80009ca0
       71015000	      7100	800012a0	5e6ebb93	sltiu	x23,x29,1510	 x29:0xffffdffc x23=0x00000000
       71025000	      7101	800012a4	016bfa63	bgeu	x23,x22,800012b8	 x23:0x00000000 x22:0x000003ee
       71035000	      7102	800012a8	0034e463	bltu	x9,x3,800012b0	  x9:0x00800034  x3:0xd18110d4
       71045000	      7103	00000000	00000013	addi	x0,x0,0	  x0:0x00000000
       71055000	      7104	800012ac	00000013	addi	x0,x0,0	  x0:0x00000000
       71065000	      7105	800012b0	00000013	addi	x0,x0,0	  x0:0x00000000
       71075000	      7106	800012b4	07462293	slti	x5,x12,116	 x12:0x00000000  x5=0x00000001
       71085000	      7107	800012b8	0d349537	lui	x10,0xd349	 x10=0x0d349000
       71095000	      7108	800012bc	00afb033	sltu	x0,x31,x10	 x31:0x00000000 x10:0x0d349000
       71105000	      7109	800012c0	00335793	srli	x15,x6,0x3	  x6:0xfffff80d x15=0x1fffff01
       71115000	      7110	800012c4	0a746493	ori	x9,x8,167	  x8:0x9fc40000  x9=0x9fc400a7
       71125000	      7111	800012c8	02e99c63	bne	x19,x14,80001300	 x19:0x00000000 x14:0xffffe000
       71135000	      7112	00000000	00000013	addi	x0,x0,0	  x0:0x00000000
       71145000	      7113	800012fc	00000013	addi	x0,x0,0	  x0:0x00000000
       71155000	      7114	80001300	ca70e593	ori	x11,x1,-857	  x1:0x00000000 x11=0xfffffca7
       71165000	      7115	80001304	40225993	srai	x19,x4,0x2	  x4:0x8f16e000 x19=0xe3c5b800
       71175000	      7116	80001308	c07e2193	slti	x3,x28,-1017	 x28:0x00000001  x3=0x00000000
       71185000	      7117	8000130c	01d45b93	srli	x23,x8,0x1d	  x8:0x9fc40000 x23=0x00000004
       71195000	      7118	80001310	01b756b3	srl	x13,x14,x27	 x14:0xffffe000 x27:0x00000001 x13=0x7ffff000
       71205000	      7119	80001314	0164b433	sltu	x8,x9,x22	  x9:0x9fc400a7 x22:0x000003ee  x8=0x00000000
       71215000	      7120	80001318	00366c33	or	x24,x12,x3	 x12:0x00000000  x3:0x00000000 x24=0x00000000
       71225000	      7121	8000131c	40f3da93	srai	x21,x7,0xf	  x7:0x1954eb5c x21=0x000032a9
       71235000	      7122	80001320	f29beb93	ori	x23,x23,-215	 x23:0x00000004 x23=0xffffff2d
       71245000	      7123	80001324	8a40ba97	auipc	x21,0x8a40b	 x21=0x0a40c320
       71255000	      7124	80001328	01409f93	slli	x31,x1,0x14	  x1:0x00000000 x31=0x00000000
       71265000	      7125	8000132c	3dac7793	andi	x15,x24,986	 x24:0x00000000 x15=0x00000000
       71275000	      7126	80001330	01920263	beq	x4,x25,80001334	  x4:0x8f16e000 x25:0x00000001
       71285000	      7127	80001334	01261863	bne	x12,x18,80001344	 x12:0x00000000 x18:0x00800034
       71295000	      7128	00000000	00000013	addi	x0,x0,0	  x0:0x00000000
       71305000	      7129	80001340	00000013	addi	x0,x0,0	  x0:0x00000000
       71315000	      7130	80001344	406a52b3	sra	x5,x20,x6	 x20:0x80009f5c  x6:0xfffff80d  x5=0xfffc0004
       71325000	      7131	80001348	027f6663	bltu	x30,x7,80001374	 x30:0x80009fc4  x7:0x1954eb5c
       71335000	      7132	8000134c	01d1dd33	srl	x26,x3,x29	  x3:0x00000000 x29:0xffffdffc x26=0x00000000
       71345000	      7133	80001350	ec1a7b17	auipc	x22,0xec1a7	 x22=0x6c1a834c
       71355000	      7134	80001354	0257ce63	blt	x15,x5,80001390	 x15:0x00000000  x5:0xfffc0004
       71365000	      7135	80001358	010b1263	bne	x22,x16,8000135c	 x22:0x6c1a834c x16:0xffffdffc
       71375000	      7136	00000000	00000013	addi	x0,x0,0	  x0:0x00000000
       71385000	      7137	80001358	00000013	addi	x0,x0,0	  x0:0x00000000
       71395000	      7138	8000135c	415854b3	sra	x9,x16,x21	 x16:0xffffdffc x21:0x0a40c320  x9=0xffffdffc
       71405000	      7139	80001360	019fdd33	srl	x26,x31,x25	 x31:0x00000000 x25:0x00000001 x26=0x00000000
       71415000	      7140	80001364	007a0933	add	x18,x20,x7	 x20:0x80009f5c  x7:0x1954eb5c x18=0x99558ab8
       71425000	      7141	80001368	00000013	addi	x0,x0,0	  x0:0x00000000
       71435000	      7142	8000136c	4102da93	srai	x21,x5,0x10	  x5:0xfffc0004 x21=0xfffffffc
       71445000	      7143	80001370	006b11b3	sll	x3,x22,x6	 x22:0x6c1a834c  x6:0xfffff80d  x3=0x50698000
       71455000	      7144	80001374	03e94663	blt	x18,x30,800013a0	 x18:0x99558ab8 x30:0x80009fc4
       71465000	      7145	80001378	ec207113	andi	x2,x0,-318	  x0:0x00000000  x2=0x00000000
       71475000	      7146	8000137c	005d98b3	sll	x17,x27,x5	 x27:0x00000001  x5:0xfffc0004 x17=0x00000010
       71485000	      7147	80001380	019d1c63	bne	x26,x25,80001398	 x26:0x00000000 x25:0x00000001
       71495000	      7148	00000000	00000013	addi	x0,x0,0	  x0:0x00000000
       71505000	      7149	80001394	00000013	addi	x0,x0,0	  x0:0x00000000
       71515000	      7150	80001398	03179c63	bne	x15,x17,800013d0	 x15:0x00000000 x17:0x00000010
       71525000	      7151	00000000	00000013	addi	x0,x0,0	  x0:0x00000000
       71535000	      7152	800013cc	00000013	addi	x0,x0,0	  x0:0x00000000
       71545000	      7153	800013d0	878ef093	andi	x1,x29,-1928	 x29:0xffffdffc  x1=0xffffd878
       71555000	      7154	800013d4	00968463	beq	x13,x9,800013dc	 x13:0x7ffff000  x9:0xffffdffc
       71565000	      7155	800013d8	5d54fb17	auipc	x22,0x5d54f	 x22=0xdd5503d4
       71575000	      7156	800013dc	001c16b3	sll	x13,x24,x1	 x24:0x00000000  x1:0xffffd878 x13=0x00000000
       71585000	      7157	800013e0	40ea58b3	sra	x17,x20,x14	 x20:0x80009f5c x14:0xffffe000 x17=0x80009f5c
       71595000	      7158	800013e4	038a8463	beq	x21,x24,8000140c	 x21:0xfffffffc x24:0x00000000
       71605000	      7159	800013e8	00a27e63	bgeu	x4,x10,80001404	  x4:0x8f16e000 x10:0x0d349000
       71615000	      7160	00000000	00000013	addi	x0,x0,0	  x0:0x00000000
       71625000	      7161	80001400	00000013	addi	x0,x0,0	  x0:0x00000000
       71635000	      7162	80001404	041b0263	beq	x22,x1,80001448	 x22:0xdd5503d4  x1:0xffffd878
       71645000	      7163	80001408	004b8d93	addi	x27,x23,4	 x23:0xffffff2d x27=0xffffff31
       71655000	      7164	8000140c	05a25063	bge	x4,x26,8000144c	  x4:0x8f16e000 x26:0x00000000
       71665000	      7165	80001410	412ed733	sra	x14,x29,x18	 x29:0xffffdffc x18:0x99558ab8 x14=0xffffffff
       71675000	      7166	80001414	8a8f8b17	auipc	x22,0x8a8f8	 x22=0x0a8f9410
       71685000	      7167	80001418	7fab7917	auipc	x18,0x7fab7	 x18=0xffab8414
       71695000	      7168	8000141c	7e72be13	sltiu	x28,x5,2023	  x5:0xfffc0004 x28=0x00000000
       71705000	      7169	80001420	007255b3	srl	x11,x4,x7	  x4:0x8f16e000  x7:0x1954eb5c x11=0x00000008
       71715000	      7170	80001424	003b9593	slli	x11,x23,0x3	 x23:0xffffff2d x11=0xfffff968
       71725000	      7171	80001428	00061213	slli	x4,x12,0x0	 x12:0x00000000  x4=0x00000000
       71735000	      7172	8000142c	00645463	bge	x8,x6,80001434	  x8:0x00000000  x6:0xfffff80d
       71745000	      7173	00000000	00000013	addi	x0,x0,0	  x0:0x00000000
       71755000	      7174	80001430	00000013	addi	x0,x0,0	  x0:0x00000000
       71765000	      7175	80001434	0171a133	slt	x2,x3,x23	  x3:0x50698000 x23:0xffffff2d  x2=0x00000000
       71775000	      7176	80001438	0162fe63	bgeu	x5,x22,80001454	  x5:0xfffc0004 x22:0x0a8f9410
       71785000	      7177	00000000	00000013	addi	x0,x0,0	  x0:0x00000000
       71795000	      7178	80001450	00000013	addi	x0,x0,0	  x0:0x00000000
       71805000	      7179	80001454	0139ccb3	xor	x25,x19,x19	 x19:0xe3c5b800 x19:0xe3c5b800 x25=0x00000000
       71815000	      7180	80001458	016c1663	bne	x24,x22,80001464	 x24:0x00000000 x22:0x0a8f9410
       71825000	      7181	00000000	00000013	addi	x0,x0,0	  x0:0x00000000
       71835000	      7182	80001460	00000013	addi	x0,x0,0	  x0:0x00000000
       71845000	      7183	80001464	01d2ccb3	xor	x25,x5,x29	  x5:0xfffc0004 x29:0xffffdffc x25=0x0003dff8
       71855000	      7184	80001468	00699e33	sll	x28,x19,x6	 x19:0xe3c5b800  x6:0xfffff80d x28=0xb7000000
       71865000	      7185	8000146c	40d8d493	srai	x9,x17,0xd	 x17:0x80009f5c  x9=0xfffc0004
       71875000	      7186	80001470	01679a63	bne	x15,x22,80001484	 x15:0x00000000 x22:0x0a8f9410
       71885000	      7187	00000000	00000013	addi	x0,x0,0	  x0:0x00000000
       71895000	      7188	80001480	00000013	addi	x0,x0,0	  x0:0x00000000
       71905000	      7189	80001484	288ed937	lui	x18,0x288ed	 x18=0x288ed000
       71915000	      7190	80001488	edf7a713	slti	x14,x15,-289	 x15:0x00000000 x14=0x00000000
       71925000	      7191	8000148c	01228d33	add	x26,x5,x18	  x5:0xfffc0004 x18:0x288ed000 x26=0x288ad004
       71935000	      7192	80001490	02617c63	bgeu	x2,x6,800014c8	  x2:0x00000000  x6:0xfffff80d
       71945000	      7193	80001494	ad0d3d13	sltiu	x26,x26,-1328	 x26:0x288ad004 x26=0x00000001
       71955000	      7194	80001498	04ba9663	bne	x21,x11,800014e4	 x21:0xfffffffc x11:0xfffff968
       71965000	      7195	00000000	00000013	addi	x0,x0,0	  x0:0x00000000
       71975000	      7196	800014e0	00000013	addi	x0,x0,0	  x0:0x00000000
       71985000	      7197	800014e4	02831063	bne	x6,x8,80001504	  x6:0xfffff80d  x8:0x00000000
       71995000	      7198	00000000	00000013	addi	x0,x0,0	  x0:0x00000000
       72005000	      7199	80001500	00000013	addi	x0,x0,0	  x0:0x00000000
       72015000	      7200	80001504	05ad0063	beq	x26,x26,80001544	 x26:0x00000001 x26:0x00000001
       72025000	      7201	00000000	00000013	addi	x0,x0,0	  x0:0x00000000
       72035000	      7202	80001540	00000013	addi	x0,x0,0	  x0:0x00000000
       72045000	      7203	80001544	00bce463	bltu	x25,x11,8000154c	 x25:0x0003dff8 x11:0xfffff968
       72055000	      7204	00000000	00000013	addi	x0,x0,0	  x0:0x00000000
       72065000	      7205	80001548	00000013	addi	x0,x0,0	  x0:0x00000000
       72075000	      7206	8000154c	015e68b3	or	x17,x28,x21	 x28:0xb7000000 x21:0xfffffffc x17=0xfffffffc
       72085000	      7207	80001550	09980e63	beq	x16,x25,800015ec	 x16:0xffffdffc x25:0x0003dff8
       72095000	      7208	80001554	00bb10b3	sll	x1,x22,x11	 x22:0x0a8f9410 x11:0xfffff968  x1=0x8f941000
       72105000	      7209	80001558	078000ef	jal	x1,80001558	  x1=0x80001558
       72115000	      7210	00000000	00000013	addi	x0,x0,0	  x0:0x00000000
       72125000	      7211	800015cc	00000013	addi	x0,x0,0	  x0:0x00000000
       72135000	      7212	800015d0	fe9ff4ef	jal	x9,800015d0	  x9=0x800015d0
       72145000	      7213	00000000	00000013	addi	x0,x0,0	  x0:0x00000000
       72155000	      7214	800015b4	00000013	addi	x0,x0,0	  x0:0x00000000
       72165000	      7215	800015b8	fbdff36f	jal	x6,800015b8	  x6=0x800015b8
       72175000	      7216	00000000	00000013	addi	x0,x0,0	  x0:0x00000000
       72185000	      7217	80001570	00000013	addi	x0,x0,0	  x0:0x00000000
       72195000	      7218	80001574	038000ef	jal	x1,80001574	  x1=0x80001574
       72205000	      7219	00000000	00000013	addi	x0,x0,0	  x0:0x00000000
       72215000	      7220	800015a8	00000013	addi	x0,x0,0	  x0:0x00000000
       72225000	      7221	800015ac	fd5ff0ef	jal	x1,800015ac	  x1=0x800015ac
       72235000	      7222	00000000	00000013	addi	x0,x0,0	  x0:0x00000000
       72245000	      7223	8000157c	00000013	addi	x0,x0,0	  x0:0x00000000
       72255000	      7224	80001580	0140036f	jal	x6,80001580	  x6=0x80001580
       72265000	      7225	00000000	00000013	addi	x0,x0,0	  x0:0x00000000
       72275000	      7226	80001590	00000013	addi	x0,x0,0	  x0:0x00000000
       72285000	      7227	80001594	fe9ff36f	jal	x6,80001594	  x6=0x80001594
       72295000	      7228	00000000	00000013	addi	x0,x0,0	  x0:0x00000000
       72305000	      7229	80001578	00000013	addi	x0,x0,0	  x0:0x00000000
       72315000	      7230	8000157c	01c0076f	jal	x14,8000157c	 x14=0x8000157c
       72325000	      7231	00000000	00000013	addi	x0,x0,0	  x0:0x00000000
       72335000	      7232	80001594	00000013	addi	x0,x0,0	  x0:0x00000000
       72345000	      7233	80001598	fd1ff0ef	jal	x1,80001598	  x1=0x80001598
       72355000	      7234	00000000	00000013	addi	x0,x0,0	  x0:0x00000000
       72365000	      7235	80001564	00000013	addi	x0,x0,0	  x0:0x00000000
       72375000	      7236	80001568	04c000ef	jal	x1,80001568	  x1=0x80001568
       72385000	      7237	00000000	00000013	addi	x0,x0,0	  x0:0x00000000
       72395000	      7238	800015b0	00000013	addi	x0,x0,0	  x0:0x00000000
       72405000	      7239	800015b4	00c000ef	jal	x1,800015b4	  x1=0x800015b4
       72415000	      7240	00000000	00000013	addi	x0,x0,0	  x0:0x00000000
       72425000	      7241	800015bc	00000013	addi	x0,x0,0	  x0:0x00000000
       72435000	      7242	800015c0	fadffe6f	jal	x28,800015c0	 x28=0x800015c0
       72445000	      7243	00000000	00000013	addi	x0,x0,0	  x0:0x00000000
       72455000	      7244	80001568	00000013	addi	x0,x0,0	  x0:0x00000000
       72465000	      7245	8000156c	0180046f	jal	x8,8000156c	  x8=0x8000156c
       72475000	      7246	00000000	00000013	addi	x0,x0,0	  x0:0x00000000
       72485000	      7247	80001580	00000013	addi	x0,x0,0	  x0:0x00000000
       72495000	      7248	80001584	018000ef	jal	x1,80001584	  x1=0x80001584
       72505000	      7249	00000000	00000013	addi	x0,x0,0	  x0:0x00000000
       72515000	      7250	80001598	00000013	addi	x0,x0,0	  x0:0x00000000
       72525000	      7251	8000159c	00c000ef	jal	x1,8000159c	  x1=0x8000159c
       72535000	      7252	00000000	00000013	addi	x0,x0,0	  x0:0x00000000
       72545000	      7253	800015a4	00000013	addi	x0,x0,0	  x0:0x00000000
       72555000	      7254	800015a8	020000ef	jal	x1,800015a8	  x1=0x800015a8
       72565000	      7255	00000000	00000013	addi	x0,x0,0	  x0:0x00000000
       72575000	      7256	800015c4	00000013	addi	x0,x0,0	  x0:0x00000000
       72585000	      7257	800015c8	fc5ff36f	jal	x6,800015c8	  x6=0x800015c8
       72595000	      7258	00000000	00000013	addi	x0,x0,0	  x0:0x00000000
       72605000	      7259	80001588	00000013	addi	x0,x0,0	  x0:0x00000000
       72615000	      7260	8000158c	fedff0ef	jal	x1,8000158c	  x1=0x8000158c
       72625000	      7261	00000000	00000013	addi	x0,x0,0	  x0:0x00000000
       72635000	      7262	80001574	00000013	addi	x0,x0,0	  x0:0x00000000
       72645000	      7263	80001578	ff9ff0ef	jal	x1,80001578	  x1=0x80001578
       72655000	      7264	00000000	00000013	addi	x0,x0,0	  x0:0x00000000
       72665000	      7265	8000156c	00000013	addi	x0,x0,0	  x0:0x00000000
       72675000	      7266	80001570	054000ef	jal	x1,80001570	  x1=0x80001570
       72685000	      7267	00000000	00000013	addi	x0,x0,0	  x0:0x00000000
       72695000	      7268	800015c0	00000013	addi	x0,x0,0	  x0:0x00000000
       72705000	      7269	800015c4	fc5ff36f	jal	x6,800015c4	  x6=0x800015c4
       72715000	      7270	00000000	00000013	addi	x0,x0,0	  x0:0x00000000
       72725000	      7271	80001584	00000013	addi	x0,x0,0	  x0:0x00000000
       72735000	      7272	80001588	fddff0ef	jal	x1,80001588	  x1=0x80001588
       72745000	      7273	00000000	00000013	addi	x0,x0,0	  x0:0x00000000
       72755000	      7274	80001560	00000013	addi	x0,x0,0	  x0:0x00000000
       72765000	      7275	80001564	04c000ef	jal	x1,80001564	  x1=0x80001564
       72775000	      7276	00000000	00000013	addi	x0,x0,0	  x0:0x00000000
       72785000	      7277	800015ac	00000013	addi	x0,x0,0	  x0:0x00000000
       72795000	      7278	800015b0	00c000ef	jal	x1,800015b0	  x1=0x800015b0
       72805000	      7279	00000000	00000013	addi	x0,x0,0	  x0:0x00000000
       72815000	      7280	800015b8	00000013	addi	x0,x0,0	  x0:0x00000000
       72825000	      7281	800015bc	fa1ff0ef	jal	x1,800015bc	  x1=0x800015bc
       72835000	      7282	00000000	00000013	addi	x0,x0,0	  x0:0x00000000
       72845000	      7283	80001558	00000013	addi	x0,x0,0	  x0:0x00000000
       72855000	      7284	8000155c	070000ef	jal	x1,8000155c	  x1=0x8000155c
       72865000	      7285	00000000	00000013	addi	x0,x0,0	  x0:0x00000000
       72875000	      7286	800015c8	00000013	addi	x0,x0,0	  x0:0x00000000
       72885000	      7287	800015cc	f95ff0ef	jal	x1,800015cc	  x1=0x800015cc
       72895000	      7288	00000000	00000013	addi	x0,x0,0	  x0:0x00000000
       72905000	      7289	8000155c	00000013	addi	x0,x0,0	  x0:0x00000000
       72915000	      7290	80001560	040005ef	jal	x11,80001560	 x11=0x80001560
       72925000	      7291	00000000	00000013	addi	x0,x0,0	  x0:0x00000000
       72935000	      7292	8000159c	00000013	addi	x0,x0,0	  x0:0x00000000
       72945000	      7293	800015a0	004002ef	jal	x5,800015a0	  x5=0x800015a0
       72955000	      7294	00000000	00000013	addi	x0,x0,0	  x0:0x00000000
       72965000	      7295	800015a0	00000013	addi	x0,x0,0	  x0:0x00000000
       72975000	      7296	800015a4	fedff0ef	jal	x1,800015a4	  x1=0x800015a4
       72985000	      7297	00000000	00000013	addi	x0,x0,0	  x0:0x00000000
       72995000	      7298	8000158c	00000013	addi	x0,x0,0	  x0:0x00000000
       73005000	      7299	80001590	0440036f	jal	x6,80001590	  x6=0x80001590
       73015000	      7300	00000000	00000013	addi	x0,x0,0	  x0:0x00000000
       73025000	      7301	800015d0	00000013	addi	x0,x0,0	  x0:0x00000000
       73035000	      7302	800015d4	01cfe0b3	or	x1,x31,x28	 x31:0x00000000 x28:0x800015c0  x1=0x800015c0
       73045000	      7303	800015d8	f5dba213	slti	x4,x23,-163	 x23:0xffffff2d  x4=0x00000001
       73055000	      7304	800015dc	01cb79b3	and	x19,x22,x28	 x22:0x0a8f9410 x28:0x800015c0 x19=0x00001400
       73065000	      7305	800015e0	008345b3	xor	x11,x6,x8	  x6:0x80001590  x8:0x8000156c x11=0x000000fc
       73075000	      7306	800015e4	00e665b3	or	x11,x12,x14	 x12:0x00000000 x14:0x8000157c x11=0x8000157c
       73085000	      7307	800015e8	01b810b3	sll	x1,x16,x27	 x16:0xffffdffc x27:0xffffff31  x1=0xbff80000
       73095000	      7308	800015ec	3326fe13	andi	x28,x13,818	 x13:0x00000000 x28=0x00000000
       73105000	      7309	800015f0	01a2f6b3	and	x13,x5,x26	  x5:0x800015a0 x26:0x00000001 x13=0x00000000
       73115000	      7310	800015f4	419cdd13	srai	x26,x25,0x19	 x25:0x0003dff8 x26=0x00000000
       73125000	      7311	800015f8	7b1b3293	sltiu	x5,x22,1969	 x22:0x0a8f9410  x5=0x00000000
       73135000	      7312	800015fc	fbd34393	xori	x7,x6,-67	  x6:0x80001590  x7=0x7fffea2d
       73145000	      7313	80001600	01930663	beq	x6,x25,8000160c	  x6:0x80001590 x25:0x0003dff8
       73155000	      7314	80001604	3b000397	auipc	x7,0x3b000	  x7=0xbb001600
       73165000	      7315	80001608	0387c863	blt	x15,x24,80001638	 x15:0x00000000 x24:0x00000000
       73175000	      7316	8000160c	013adb33	srl	x22,x21,x19	 x21:0xfffffffc x19:0x00001400 x22=0xfffffffc
       73185000	      7317	80001610	0048c2b3	xor	x5,x17,x4	 x17:0xfffffffc  x4:0x00000001  x5=0xfffffffd
       73195000	      7318	80001614	00e77033	and	x0,x14,x14	 x14:0x8000157c x14:0x8000157c
       73205000	      7319	80001618	02bff663	bgeu	x31,x11,80001644	 x31:0x00000000 x11:0x8000157c
       73215000	      7320	8000161c	040cea63	bltu	x25,x0,80001670	 x25:0x0003dff8  x0:0x00000000
       73225000	      7321	80001620	93fd3593	sltiu	x11,x26,-1729	 x26:0x00000000 x11=0x00000001
       73235000	      7322	80001624	01125233	srl	x4,x4,x17	  x4:0x00000001 x17:0xfffffffc  x4=0x00000000
       73245000	      7323	80001628	05c7c863	blt	x15,x28,80001678	 x15:0x00000000 x28:0x00000000
       73255000	      7324	8000162c	07db6463	bltu	x22,x29,80001694	 x22:0xfffffffc x29:0xffffdffc
       73265000	      7325	80001630	00cafbb3	and	x23,x21,x12	 x21:0xfffffffc x12:0x00000000 x23=0x00000000
       73275000	      7326	80001634	00dd6263	bltu	x26,x13,80001638	 x26:0x00000000 x13:0x00000000
       73285000	      7327	80001638	02a04b13	xori	x22,x0,42	  x0:0x00000000 x22=0x0000002a
       73295000	      7328	8000163c	4040d5b3	sra	x11,x1,x4	  x1:0xbff80000  x4:0x00000000 x11=0xbff80000
       73305000	      7329	80001640	004f2533	slt	x10,x30,x4	 x30:0x80009fc4  x4:0x00000000 x10=0x00000001
       73315000	      7330	80001644	032a0a63	beq	x20,x18,80001678	 x20:0x80009f5c x18:0x288ed000
       73325000	      7331	80001648	e5e21217	auipc	x4,0xe5e21	  x4=0x65e22644
       73335000	      7332	8000164c	0025fc63	bgeu	x11,x2,80001664	 x11:0xbff80000  x2:0x00000000
       73345000	      7333	00000000	00000013	addi	x0,x0,0	  x0:0x00000000
       73355000	      7334	80001660	00000013	addi	x0,x0,0	  x0:0x00000000
       73365000	      7335	80001664	11d010ef	jal	x1,80001664	  x1=0x80001664
       73375000	      7336	00000000	00000013	addi	x0,x0,0	  x0:0x00000000
       73385000	      7337	80002f7c	00000013	addi	x0,x0,0	  x0:0x00000000
       73395000	      7338	80002f80	fd0a0a13	addi	x20,x20,-48	 x20:0x80009f5c x20=0x80009f2c
       73405000	      7339	80002f84	0112ee33	or	x28,x5,x17	  x5:0xfffffffd x17:0xfffffffc x28=0xfffffffd
       73415000	      7340	80002f88	0197bcb3	sltu	x25,x15,x25	 x15:0x00000000 x25:0x0003dff8 x25=0x00000001
       73425000	      7341	80002f8c	daa90893	addi	x17,x18,-598	 x18:0x288ed000 x17=0x288ecdaa
       73435000	      7342	80002f90	013afbb3	and	x23,x21,x19	 x21:0xfffffffc x19:0x00001400 x23=0x00001400
       73445000	      7343	80002f94	001a2223	sw	x1,4(x20)	 x20:0x80009f2c  x1:0x80001664 PA:0x80009f30
       73455000	      7344	80002f98	409f02b3	sub	x5,x30,x9	 x30:0x80009fc4  x9:0x800015d0  x5=0x000089f4
       73465000	      7345	80002f9c	02c000ef	jal	x1,80002f9c	  x1=0x80002f9c
       73475000	      7346	00000000	00000013	addi	x0,x0,0	  x0:0x00000000
       73485000	      7347	80002fc4	00000013	addi	x0,x0,0	  x0:0x00000000
       73495000	      7348	80002fc8	fd9ff0ef	jal	x1,80002fc8	  x1=0x80002fc8
       73505000	      7349	00000000	00000013	addi	x0,x0,0	  x0:0x00000000
       73515000	      7350	80002f9c	00000013	addi	x0,x0,0	  x0:0x00000000
       73525000	      7351	80002fa0	014000ef	jal	x1,80002fa0	  x1=0x80002fa0
       73535000	      7352	00000000	00000013	addi	x0,x0,0	  x0:0x00000000
       73545000	      7353	80002fb0	00000013	addi	x0,x0,0	  x0:0x00000000
       73555000	      7354	80002fb4	ffdff0ef	jal	x1,80002fb4	  x1=0x80002fb4
       73565000	      7355	00000000	00000013	addi	x0,x0,0	  x0:0x00000000
       73575000	      7356	80002fac	00000013	addi	x0,x0,0	  x0:0x00000000
       73585000	      7357	80002fb0	0200016f	jal	x2,80002fb0	  x2=0x80002fb0
       73595000	      7358	00000000	00000013	addi	x0,x0,0	  x0:0x00000000
       73605000	      7359	80002fcc	00000013	addi	x0,x0,0	  x0:0x00000000
       73615000	      7360	80002fd0	00c000ef	jal	x1,80002fd0	  x1=0x80002fd0
       73625000	      7361	00000000	00000013	addi	x0,x0,0	  x0:0x00000000
       73635000	      7362	80002fd8	00000013	addi	x0,x0,0	  x0:0x00000000
       73645000	      7363	80002fdc	0100076f	jal	x14,80002fdc	 x14=0x80002fdc
       73655000	      7364	00000000	00000013	addi	x0,x0,0	  x0:0x00000000
       73665000	      7365	80002fe8	00000013	addi	x0,x0,0	  x0:0x00000000
       73675000	      7366	80002fec	004000ef	jal	x1,80002fec	  x1=0x80002fec
       73685000	      7367	00000000	00000013	addi	x0,x0,0	  x0:0x00000000
       73695000	      7368	80002fec	00000013	addi	x0,x0,0	  x0:0x00000000
       73705000	      7369	80002ff0	fddff0ef	jal	x1,80002ff0	  x1=0x80002ff0
       73715000	      7370	00000000	00000013	addi	x0,x0,0	  x0:0x00000000
       73725000	      7371	80002fc8	00000013	addi	x0,x0,0	  x0:0x00000000
       73735000	      7372	80002fcc	014000ef	jal	x1,80002fcc	  x1=0x80002fcc
       73745000	      7373	00000000	00000013	addi	x0,x0,0	  x0:0x00000000
       73755000	      7374	80002fdc	00000013	addi	x0,x0,0	  x0:0x00000000
       73765000	      7375	80002fe0	fc5ff36f	jal	x6,80002fe0	  x6=0x80002fe0
       73775000	      7376	00000000	00000013	addi	x0,x0,0	  x0:0x00000000
       73785000	      7377	80002fa0	00000013	addi	x0,x0,0	  x0:0x00000000
       73795000	      7378	80002fa4	020000ef	jal	x1,80002fa4	  x1=0x80002fa4
       73805000	      7379	00000000	00000013	addi	x0,x0,0	  x0:0x00000000
       73815000	      7380	80002fc0	00000013	addi	x0,x0,0	  x0:0x00000000
       73825000	      7381	80002fc4	014000ef	jal	x1,80002fc4	  x1=0x80002fc4
       73835000	      7382	00000000	00000013	addi	x0,x0,0	  x0:0x00000000
       73845000	      7383	80002fd4	00000013	addi	x0,x0,0	  x0:0x00000000
       73855000	      7384	80002fd8	fd5ff0ef	jal	x1,80002fd8	  x1=0x80002fd8
       73865000	      7385	00000000	00000013	addi	x0,x0,0	  x0:0x00000000
       73875000	      7386	80002fa8	00000013	addi	x0,x0,0	  x0:0x00000000
       73885000	      7387	80002fac	03c000ef	jal	x1,80002fac	  x1=0x80002fac
       73895000	      7388	00000000	00000013	addi	x0,x0,0	  x0:0x00000000
       73905000	      7389	80002fe4	00000013	addi	x0,x0,0	  x0:0x00000000
       73915000	      7390	80002fe8	fd5ff16f	jal	x2,80002fe8	  x2=0x80002fe8
       73925000	      7391	00000000	00000013	addi	x0,x0,0	  x0:0x00000000
       73935000	      7392	80002fb8	00000013	addi	x0,x0,0	  x0:0x00000000
       73945000	      7393	80002fbc	0280086f	jal	x16,80002fbc	 x16=0x80002fbc
       73955000	      7394	00000000	00000013	addi	x0,x0,0	  x0:0x00000000
       73965000	      7395	80002fe0	00000013	addi	x0,x0,0	  x0:0x00000000
       73975000	      7396	80002fe4	fddff0ef	jal	x1,80002fe4	  x1=0x80002fe4
       73985000	      7397	00000000	00000013	addi	x0,x0,0	  x0:0x00000000
       73995000	      7398	80002fbc	00000013	addi	x0,x0,0	  x0:0x00000000
       74005000	      7399	80002fc0	ff9ffeef	jal	x29,80002fc0	 x29=0x80002fc0
       74015000	      7400	00000000	00000013	addi	x0,x0,0	  x0:0x00000000
       74025000	      7401	80002fb4	00000013	addi	x0,x0,0	  x0:0x00000000
       74035000	      7402	80002fb8	ff1ff0ef	jal	x1,80002fb8	  x1=0x80002fb8
       74045000	      7403	00000000	00000013	addi	x0,x0,0	  x0:0x00000000
       74055000	      7404	80002fa4	00000013	addi	x0,x0,0	  x0:0x00000000
       74065000	      7405	80002fa8	02c000ef	jal	x1,80002fa8	  x1=0x80002fa8
       74075000	      7406	00000000	00000013	addi	x0,x0,0	  x0:0x00000000
       74085000	      7407	80002fd0	00000013	addi	x0,x0,0	  x0:0x00000000
       74095000	      7408	80002fd4	020000ef	jal	x1,80002fd4	  x1=0x80002fd4
       74105000	      7409	00000000	00000013	addi	x0,x0,0	  x0:0x00000000
       74115000	      7410	80002ff0	00000013	addi	x0,x0,0	  x0:0x00000000
       74125000	      7411	80002ff4	01b87233	and	x4,x16,x27	 x16:0x80002fbc x27:0xffffff31  x4=0x80002f30
       74135000	      7412	80002ff8	054000ef	jal	x1,80002ff8	  x1=0x80002ff8
       74145000	      7413	00000000	00000013	addi	x0,x0,0	  x0:0x00000000
       74155000	      7414	80003048	00000013	addi	x0,x0,0	  x0:0x00000000
       74165000	      7415	8000304c	fe5ff36f	jal	x6,8000304c	  x6=0x8000304c
       74175000	      7416	00000000	00000013	addi	x0,x0,0	  x0:0x00000000
       74185000	      7417	8000302c	00000013	addi	x0,x0,0	  x0:0x00000000
       74195000	      7418	80003030	fd9ff36f	jal	x6,80003030	  x6=0x80003030
       74205000	      7419	00000000	00000013	addi	x0,x0,0	  x0:0x00000000
       74215000	      7420	80003004	00000013	addi	x0,x0,0	  x0:0x00000000
       74225000	      7421	80003008	04000fef	jal	x31,80003008	 x31=0x80003008
       74235000	      7422	00000000	00000013	addi	x0,x0,0	  x0:0x00000000
       74245000	      7423	80003044	00000013	addi	x0,x0,0	  x0:0x00000000
       74255000	      7424	80003048	ff9ff0ef	jal	x1,80003048	  x1=0x80003048
       74265000	      7425	00000000	00000013	addi	x0,x0,0	  x0:0x00000000
       74275000	      7426	8000303c	00000013	addi	x0,x0,0	  x0:0x00000000
       74285000	      7427	80003040	ff9ff0ef	jal	x1,80003040	  x1=0x80003040
       74295000	      7428	00000000	00000013	addi	x0,x0,0	  x0:0x00000000
       74305000	      7429	80003034	00000013	addi	x0,x0,0	  x0:0x00000000
       74315000	      7430	80003038	fd9ff0ef	jal	x1,80003038	  x1=0x80003038
       74325000	      7431	00000000	00000013	addi	x0,x0,0	  x0:0x00000000
       74335000	      7432	8000300c	00000013	addi	x0,x0,0	  x0:0x00000000
       74345000	      7433	80003010	00400def	jal	x27,80003010	 x27=0x80003010
       74355000	      7434	00000000	00000013	addi	x0,x0,0	  x0:0x00000000
       74365000	      7435	80003010	00000013	addi	x0,x0,0	  x0:0x00000000
       74375000	      7436	80003014	008000ef	jal	x1,80003014	  x1=0x80003014
       74385000	      7437	00000000	00000013	addi	x0,x0,0	  x0:0x00000000
       74395000	      7438	80003018	00000013	addi	x0,x0,0	  x0:0x00000000
       74405000	      7439	8000301c	fe1ff0ef	jal	x1,8000301c	  x1=0x8000301c
       74415000	      7440	00000000	00000013	addi	x0,x0,0	  x0:0x00000000
       74425000	      7441	80002ff8	00000013	addi	x0,x0,0	  x0:0x00000000
       74435000	      7442	80002ffc	02c000ef	jal	x1,80002ffc	  x1=0x80002ffc
       74445000	      7443	00000000	00000013	addi	x0,x0,0	  x0:0x00000000
       74455000	      7444	80003024	00000013	addi	x0,x0,0	  x0:0x00000000
       74465000	      7445	80003028	01400fef	jal	x31,80003028	 x31=0x80003028
       74475000	      7446	00000000	00000013	addi	x0,x0,0	  x0:0x00000000
       74485000	      7447	80003038	00000013	addi	x0,x0,0	  x0:0x00000000
       74495000	      7448	8000303c	fc5ff0ef	jal	x1,8000303c	  x1=0x8000303c
       74505000	      7449	00000000	00000013	addi	x0,x0,0	  x0:0x00000000
       74515000	      7450	80002ffc	00000013	addi	x0,x0,0	  x0:0x00000000
       74525000	      7451	80003000	00c0036f	jal	x6,80003000	  x6=0x80003000
       74535000	      7452	00000000	00000013	addi	x0,x0,0	  x0:0x00000000
       74545000	      7453	80003008	00000013	addi	x0,x0,0	  x0:0x00000000
       74555000	      7454	8000300c	038000ef	jal	x1,8000300c	  x1=0x8000300c
       74565000	      7455	00000000	00000013	addi	x0,x0,0	  x0:0x00000000
       74575000	      7456	80003040	00000013	addi	x0,x0,0	  x0:0x00000000
       74585000	      7457	80003044	fddff0ef	jal	x1,80003044	  x1=0x80003044
       74595000	      7458	00000000	00000013	addi	x0,x0,0	  x0:0x00000000
       74605000	      7459	8000301c	00000013	addi	x0,x0,0	  x0:0x00000000
       74615000	      7460	80003020	0300036f	jal	x6,80003020	  x6=0x80003020
       74625000	      7461	00000000	00000013	addi	x0,x0,0	  x0:0x00000000
       74635000	      7462	8000304c	00000013	addi	x0,x0,0	  x0:0x00000000
       74645000	      7463	80003050	fe5ff0ef	jal	x1,80003050	  x1=0x80003050
       74655000	      7464	00000000	00000013	addi	x0,x0,0	  x0:0x00000000
       74665000	      7465	80003030	00000013	addi	x0,x0,0	  x0:0x00000000
       74675000	      7466	80003034	ff9ff36f	jal	x6,80003034	  x6=0x80003034
       74685000	      7467	00000000	00000013	addi	x0,x0,0	  x0:0x00000000
       74695000	      7468	80003028	00000013	addi	x0,x0,0	  x0:0x00000000
       74705000	      7469	8000302c	ff9ff36f	jal	x6,8000302c	  x6=0x8000302c
       74715000	      7470	00000000	00000013	addi	x0,x0,0	  x0:0x00000000
       74725000	      7471	80003020	00000013	addi	x0,x0,0	  x0:0x00000000
       74735000	      7472	80003024	fe1ff0ef	jal	x1,80003024	  x1=0x80003024
       74745000	      7473	00000000	00000013	addi	x0,x0,0	  x0:0x00000000
       74755000	      7474	80003000	00000013	addi	x0,x0,0	  x0:0x00000000
       74765000	      7475	80003004	0140016f	jal	x2,80003004	  x2=0x80003004
       74775000	      7476	00000000	00000013	addi	x0,x0,0	  x0:0x00000000
       74785000	      7477	80003014	00000013	addi	x0,x0,0	  x0:0x00000000
       74795000	      7478	80003018	03c0036f	jal	x6,80003018	  x6=0x80003018
       74805000	      7479	00000000	00000013	addi	x0,x0,0	  x0:0x00000000
       74815000	      7480	80003050	00000013	addi	x0,x0,0	  x0:0x00000000
       74825000	      7481	80003054	8e66c113	xori	x2,x13,-1818	 x13:0x00000000  x2=0xfffff8e6
       74835000	      7482	80003058	010000ef	jal	x1,80003058	  x1=0x80003058
       74845000	      7483	00000000	00000013	addi	x0,x0,0	  x0:0x00000000
       74855000	      7484	80003064	00000013	addi	x0,x0,0	  x0:0x00000000
       74865000	      7485	80003068	ff9ff0ef	jal	x1,80003068	  x1=0x80003068
       74875000	      7486	00000000	00000013	addi	x0,x0,0	  x0:0x00000000
       74885000	      7487	8000305c	00000013	addi	x0,x0,0	  x0:0x00000000
       74895000	      7488	80003060	03c0036f	jal	x6,80003060	  x6=0x80003060
       74905000	      7489	00000000	00000013	addi	x0,x0,0	  x0:0x00000000
       74915000	      7490	80003098	00000013	addi	x0,x0,0	  x0:0x00000000
       74925000	      7491	8000309c	fddff86f	jal	x16,8000309c	 x16=0x8000309c
       74935000	      7492	00000000	00000013	addi	x0,x0,0	  x0:0x00000000
       74945000	      7493	80003074	00000013	addi	x0,x0,0	  x0:0x00000000
       74955000	      7494	80003078	010000ef	jal	x1,80003078	  x1=0x80003078
       74965000	      7495	00000000	00000013	addi	x0,x0,0	  x0:0x00000000
       74975000	      7496	80003084	00000013	addi	x0,x0,0	  x0:0x00000000
       74985000	      7497	80003088	ffdff0ef	jal	x1,80003088	  x1=0x80003088
       74995000	      7498	00000000	00000013	addi	x0,x0,0	  x0:0x00000000
       75005000	      7499	80003080	00000013	addi	x0,x0,0	  x0:0x00000000
       75015000	      7500	80003084	fe9ff0ef	jal	x1,80003084	  x1=0x80003084
       75025000	      7501	00000000	00000013	addi	x0,x0,0	  x0:0x00000000
       75035000	      7502	80003068	00000013	addi	x0,x0,0	  x0:0x00000000
       75045000	      7503	8000306c	024000ef	jal	x1,8000306c	  x1=0x8000306c
       75055000	      7504	00000000	00000013	addi	x0,x0,0	  x0:0x00000000
       75065000	      7505	8000308c	00000013	addi	x0,x0,0	  x0:0x00000000
       75075000	      7506	80003090	fd5ff1ef	jal	x3,80003090	  x3=0x80003090
       75085000	      7507	00000000	00000013	addi	x0,x0,0	  x0:0x00000000
       75095000	      7508	80003060	00000013	addi	x0,x0,0	  x0:0x00000000
       75105000	      7509	80003064	028000ef	jal	x1,80003064	  x1=0x80003064
       75115000	      7510	00000000	00000013	addi	x0,x0,0	  x0:0x00000000
       75125000	      7511	80003088	00000013	addi	x0,x0,0	  x0:0x00000000
       75135000	      7512	8000308c	fd1ff0ef	jal	x1,8000308c	  x1=0x8000308c
       75145000	      7513	00000000	00000013	addi	x0,x0,0	  x0:0x00000000
       75155000	      7514	80003058	00000013	addi	x0,x0,0	  x0:0x00000000
       75165000	      7515	8000305c	0180016f	jal	x2,8000305c	  x2=0x8000305c
       75175000	      7516	00000000	00000013	addi	x0,x0,0	  x0:0x00000000
       75185000	      7517	80003070	00000013	addi	x0,x0,0	  x0:0x00000000
       75195000	      7518	80003074	00c000ef	jal	x1,80003074	  x1=0x80003074
       75205000	      7519	00000000	00000013	addi	x0,x0,0	  x0:0x00000000
       75215000	      7520	8000307c	00000013	addi	x0,x0,0	  x0:0x00000000
       75225000	      7521	80003080	0200036f	jal	x6,80003080	  x6=0x80003080
       75235000	      7522	00000000	00000013	addi	x0,x0,0	  x0:0x00000000
       75245000	      7523	8000309c	00000013	addi	x0,x0,0	  x0:0x00000000
       75255000	      7524	800030a0	fddff36f	jal	x6,800030a0	  x6=0x800030a0
       75265000	      7525	00000000	00000013	addi	x0,x0,0	  x0:0x00000000
       75275000	      7526	80003078	00000013	addi	x0,x0,0	  x0:0x00000000
       75285000	      7527	8000307c	01c00eef	jal	x29,8000307c	 x29=0x8000307c
       75295000	      7528	00000000	00000013	addi	x0,x0,0	  x0:0x00000000
       75305000	      7529	80003094	00000013	addi	x0,x0,0	  x0:0x00000000
       75315000	      7530	80003098	fd9ff36f	jal	x6,80003098	  x6=0x80003098
       75325000	      7531	00000000	00000013	addi	x0,x0,0	  x0:0x00000000
       75335000	      7532	8000306c	00000013	addi	x0,x0,0	  x0:0x00000000
       75345000	      7533	80003070	024000ef	jal	x1,80003070	  x1=0x80003070
       75355000	      7534	00000000	00000013	addi	x0,x0,0	  x0:0x00000000
       75365000	      7535	80003090	00000013	addi	x0,x0,0	  x0:0x00000000
       75375000	      7536	80003094	010000ef	jal	x1,80003094	  x1=0x80003094
       75385000	      7537	00000000	00000013	addi	x0,x0,0	  x0:0x00000000
       75395000	      7538	800030a0	00000013	addi	x0,x0,0	  x0:0x00000000
       75405000	      7539	800030a4	00c55913	srli	x18,x10,0xc	 x10:0x00000001 x18=0x00000000
       75415000	      7540	800030a8	014000ef	jal	x1,800030a8	  x1=0x800030a8
       75425000	      7541	00000000	00000013	addi	x0,x0,0	  x0:0x00000000
       75435000	      7542	800030b8	00000013	addi	x0,x0,0	  x0:0x00000000
       75445000	      7543	800030bc	ff5ff0ef	jal	x1,800030bc	  x1=0x800030bc
       75455000	      7544	00000000	00000013	addi	x0,x0,0	  x0:0x00000000
       75465000	      7545	800030ac	00000013	addi	x0,x0,0	  x0:0x00000000
       75475000	      7546	800030b0	010000ef	jal	x1,800030b0	  x1=0x800030b0
       75485000	      7547	00000000	00000013	addi	x0,x0,0	  x0:0x00000000
       75495000	      7548	800030bc	00000013	addi	x0,x0,0	  x0:0x00000000
       75505000	      7549	800030c0	0180046f	jal	x8,800030c0	  x8=0x800030c0
       75515000	      7550	00000000	00000013	addi	x0,x0,0	  x0:0x00000000
       75525000	      7551	800030d4	00000013	addi	x0,x0,0	  x0:0x00000000
       75535000	      7552	800030d8	018000ef	jal	x1,800030d8	  x1=0x800030d8
       75545000	      7553	00000000	00000013	addi	x0,x0,0	  x0:0x00000000
       75555000	      7554	800030ec	00000013	addi	x0,x0,0	  x0:0x00000000
       75565000	      7555	800030f0	fc5ff0ef	jal	x1,800030f0	  x1=0x800030f0
       75575000	      7556	00000000	00000013	addi	x0,x0,0	  x0:0x00000000
       75585000	      7557	800030b0	00000013	addi	x0,x0,0	  x0:0x00000000
       75595000	      7558	800030b4	01400def	jal	x27,800030b4	 x27=0x800030b4
       75605000	      7559	00000000	00000013	addi	x0,x0,0	  x0:0x00000000
       75615000	      7560	800030c4	00000013	addi	x0,x0,0	  x0:0x00000000
       75625000	      7561	800030c8	0300036f	jal	x6,800030c8	  x6=0x800030c8
       75635000	      7562	00000000	00000013	addi	x0,x0,0	  x0:0x00000000
       75645000	      7563	800030f4	00000013	addi	x0,x0,0	  x0:0x00000000
       75655000	      7564	800030f8	fcdff2ef	jal	x5,800030f8	  x5=0x800030f8
       75665000	      7565	00000000	00000013	addi	x0,x0,0	  x0:0x00000000
       75675000	      7566	800030c0	00000013	addi	x0,x0,0	  x0:0x00000000
       75685000	      7567	800030c4	03800def	jal	x27,800030c4	 x27=0x800030c4
       75695000	      7568	00000000	00000013	addi	x0,x0,0	  x0:0x00000000
       75705000	      7569	800030f8	00000013	addi	x0,x0,0	  x0:0x00000000
       75715000	      7570	800030fc	00800eef	jal	x29,800030fc	 x29=0x800030fc
       75725000	      7571	00000000	00000013	addi	x0,x0,0	  x0:0x00000000
       75735000	      7572	80003100	00000013	addi	x0,x0,0	  x0:0x00000000
       75745000	      7573	80003104	ffdff0ef	jal	x1,80003104	  x1=0x80003104
       75755000	      7574	00000000	00000013	addi	x0,x0,0	  x0:0x00000000
       75765000	      7575	800030fc	00000013	addi	x0,x0,0	  x0:0x00000000
       75775000	      7576	80003100	fedff36f	jal	x6,80003100	  x6=0x80003100
       75785000	      7577	00000000	00000013	addi	x0,x0,0	  x0:0x00000000
       75795000	      7578	800030e8	00000013	addi	x0,x0,0	  x0:0x00000000
       75805000	      7579	800030ec	ff9ff0ef	jal	x1,800030ec	  x1=0x800030ec
       75815000	      7580	00000000	00000013	addi	x0,x0,0	  x0:0x00000000
       75825000	      7581	800030e0	00000013	addi	x0,x0,0	  x0:0x00000000
       75835000	      7582	800030e4	0100036f	jal	x6,800030e4	  x6=0x800030e4
       75845000	      7583	00000000	00000013	addi	x0,x0,0	  x0:0x00000000
       75855000	      7584	800030f0	00000013	addi	x0,x0,0	  x0:0x00000000
       75865000	      7585	800030f4	fddff0ef	jal	x1,800030f4	  x1=0x800030f4
       75875000	      7586	00000000	00000013	addi	x0,x0,0	  x0:0x00000000
       75885000	      7587	800030cc	00000013	addi	x0,x0,0	  x0:0x00000000
       75895000	      7588	800030d0	00c008ef	jal	x17,800030d0	 x17=0x800030d0
       75905000	      7589	00000000	00000013	addi	x0,x0,0	  x0:0x00000000
       75915000	      7590	800030d8	00000013	addi	x0,x0,0	  x0:0x00000000
       75925000	      7591	800030dc	004000ef	jal	x1,800030dc	  x1=0x800030dc
       75935000	      7592	00000000	00000013	addi	x0,x0,0	  x0:0x00000000
       75945000	      7593	800030dc	00000013	addi	x0,x0,0	  x0:0x00000000
       75955000	      7594	800030e0	00800cef	jal	x25,800030e0	 x25=0x800030e0
       75965000	      7595	00000000	00000013	addi	x0,x0,0	  x0:0x00000000
       75975000	      7596	800030e4	00000013	addi	x0,x0,0	  x0:0x00000000
       75985000	      7597	800030e8	fe5ff0ef	jal	x1,800030e8	  x1=0x800030e8
       75995000	      7598	00000000	00000013	addi	x0,x0,0	  x0:0x00000000
       76005000	      7599	800030c8	00000013	addi	x0,x0,0	  x0:0x00000000
       76015000	      7600	800030cc	fedff0ef	jal	x1,800030cc	  x1=0x800030cc
       76025000	      7601	00000000	00000013	addi	x0,x0,0	  x0:0x00000000
       76035000	      7602	800030b4	00000013	addi	x0,x0,0	  x0:0x00000000
       76045000	      7603	800030b8	0500036f	jal	x6,800030b8	  x6=0x800030b8
       76055000	      7604	00000000	00000013	addi	x0,x0,0	  x0:0x00000000
       76065000	      7605	80003104	00000013	addi	x0,x0,0	  x0:0x00000000
       76075000	      7606	80003108	fa5ffe6f	jal	x28,80003108	 x28=0x80003108
       76085000	      7607	00000000	00000013	addi	x0,x0,0	  x0:0x00000000
       76095000	      7608	800030a8	00000013	addi	x0,x0,0	  x0:0x00000000
       76105000	      7609	800030ac	0280016f	jal	x2,800030ac	  x2=0x800030ac
       76115000	      7610	00000000	00000013	addi	x0,x0,0	  x0:0x00000000
       76125000	      7611	800030d0	00000013	addi	x0,x0,0	  x0:0x00000000
       76135000	      7612	800030d4	038000ef	jal	x1,800030d4	  x1=0x800030d4
       76145000	      7613	00000000	00000013	addi	x0,x0,0	  x0:0x00000000
       76155000	      7614	80003108	00000013	addi	x0,x0,0	  x0:0x00000000
       76165000	      7615	8000310c	0080c7b3	xor	x15,x1,x8	  x1:0x800030d4  x8:0x800030c0 x15=0x00000014
       76175000	      7616	80003110	00a50133	add	x2,x10,x10	 x10:0x00000001 x10:0x00000001  x2=0x00000002
       76185000	      7617	80003114	ffc28913	addi	x18,x5,-4	  x5:0x800030f8 x18=0x800030f4
       76195000	      7618	80003118	00554ab3	xor	x21,x10,x5	 x10:0x00000001  x5:0x800030f8 x21=0x800030f9
       76205000	      7619	8000311c	01528e63	beq	x5,x21,80003138	  x5:0x800030f8 x21:0x800030f9
       76215000	      7620	80003120	04b27663	bgeu	x4,x11,8000316c	  x4:0x80002f30 x11:0xbff80000
       76225000	      7621	80003124	651d2c17	auipc	x24,0x651d2	 x24=0xe51d5120
       76235000	      7622	80003128	2885d837	lui	x16,0x2885d	 x16=0x2885d000
       76245000	      7623	8000312c	01061d93	slli	x27,x12,0x10	 x12:0x00000000 x27=0x00000000
       76255000	      7624	80003130	2af78093	addi	x1,x15,687	 x15:0x00000014  x1=0x000002c3
       76265000	      7625	80003134	0018b4b3	sltu	x9,x17,x1	 x17:0x800030d0  x1:0x000002c3  x9=0x00000000
       76275000	      7626	80003138	01b3d9b3	srl	x19,x7,x27	  x7:0xbb001600 x27:0x00000000 x19=0xbb001600
       76285000	      7627	8000313c	902d6997	auipc	x19,0x902d6	 x19=0x102d9138
       76295000	      7628	80003140	01bc0fb3	add	x31,x24,x27	 x24:0xe51d5120 x27:0x00000000 x31=0xe51d5120
       76305000	      7629	80003144	41e60eb3	sub	x29,x12,x30	 x12:0x00000000 x30:0x80009fc4 x29=0x7fff603c
       76315000	      7630	80003148	03905463	bge	x0,x25,80003170	  x0:0x00000000 x25:0x800030e0
       76325000	      7631	00000000	00000013	addi	x0,x0,0	  x0:0x00000000
       76335000	      7632	8000316c	00000013	addi	x0,x0,0	  x0:0x00000000
       76345000	      7633	80003170	013e6db3	or	x27,x28,x19	 x28:0x80003108 x19:0x102d9138 x27=0x902db138
       76355000	      7634	80003174	d8b0b513	sltiu	x10,x1,-629	  x1:0x000002c3 x10=0x00000001
       76365000	      7635	80003178	00d6fd33	and	x26,x13,x13	 x13:0x00000000 x13:0x00000000 x26=0x00000000
       76375000	      7636	8000317c	da6cfb13	andi	x22,x25,-602	 x25:0x800030e0 x22=0x800030a0
       76385000	      7637	80003180	01c07d33	and	x26,x0,x28	  x0:0x00000000 x28:0x80003108 x26=0x00000000
       76395000	      7638	80003184	97b00993	addi	x19,x0,-1669	  x0:0x00000000 x19=0xfffff97b
       76405000	      7639	80003188	0287cc63	blt	x15,x8,800031c0	 x15:0x00000014  x8:0x800030c0
       76415000	      7640	8000318c	4ec8e213	ori	x4,x17,1260	 x17:0x800030d0  x4=0x800034fc
       76425000	      7641	80003190	e1912437	lui	x8,0xe1912	  x8=0xe1912000
       76435000	      7642	80003194	0119b433	sltu	x8,x19,x17	 x19:0xfffff97b x17:0x800030d0  x8=0x00000000
       76445000	      7643	80003198	01fbb6b3	sltu	x13,x23,x31	 x23:0x00001400 x31:0xe51d5120 x13=0x00000001
       76455000	      7644	8000319c	00669013	slli	x0,x13,0x6	 x13:0x00000001
       76465000	      7645	800031a0	01617463	bgeu	x2,x22,800031a8	  x2:0x00000002 x22:0x800030a0
       76475000	      7646	800031a4	2a2d6413	ori	x8,x26,674	 x26:0x00000000  x8=0x000002a2
       76485000	      7647	800031a8	01fae463	bltu	x21,x31,800031b0	 x21:0x800030f9 x31:0xe51d5120
       76495000	      7648	00000000	00000013	addi	x0,x0,0	  x0:0x00000000
       76505000	      7649	800031ac	00000013	addi	x0,x0,0	  x0:0x00000000
       76515000	      7650	800031b0	015aedb3	or	x27,x21,x21	 x21:0x800030f9 x21:0x800030f9 x27=0x800030f9
       76525000	      7651	800031b4	f0b97b93	andi	x23,x18,-245	 x18:0x800030f4 x23=0x80003000
       76535000	      7652	800031b8	02e4c863	blt	x9,x14,800031e8	  x9:0x00000000 x14:0x80002fdc
       76545000	      7653	800031bc	41b80033	sub	x0,x16,x27	 x16:0x2885d000 x27:0x800030f9
       76555000	      7654	800031c0	01841913	slli	x18,x8,0x18	  x8:0x000002a2 x18=0xa2000000
       76565000	      7655	800031c4	037f9c63	bne	x31,x23,800031fc	 x31:0xe51d5120 x23:0x80003000
       76575000	      7656	00000000	00000013	addi	x0,x0,0	  x0:0x00000000
       76585000	      7657	800031f8	00000013	addi	x0,x0,0	  x0:0x00000000
       76595000	      7658	800031fc	00c49c33	sll	x24,x9,x12	  x9:0x00000000 x12:0x00000000 x24=0x00000000
       76605000	      7659	80003200	9ce8fd13	andi	x26,x17,-1586	 x17:0x800030d0 x26=0x800030c0
       76615000	      7660	80003204	7bee8c93	addi	x25,x29,1982	 x29:0x7fff603c x25=0x7fff67fa
       76625000	      7661	80003208	002418b3	sll	x17,x8,x2	  x8:0x000002a2  x2:0x00000002 x17=0x00000a88
       76635000	      7662	8000320c	54600713	addi	x14,x0,1350	  x0:0x00000000 x14=0x00000546
       76645000	      7663	80003210	27d54893	xori	x17,x10,637	 x10:0x00000001 x17=0x0000027c
       76655000	      7664	80003214	015b8333	add	x6,x23,x21	 x23:0x80003000 x21:0x800030f9  x6=0x000060f9
       76665000	      7665	80003218	00ca6fb3	or	x31,x20,x12	 x20:0x80009f2c x12:0x00000000 x31=0x80009f2c
       76675000	      7666	8000321c	0091ec63	bltu	x3,x9,80003234	  x3:0x80003090  x9:0x00000000
       76685000	      7667	80003220	408cd593	srai	x11,x25,0x8	 x25:0x7fff67fa x11=0x007fff67
       76695000	      7668	80003224	06da4d13	xori	x26,x20,109	 x20:0x80009f2c x26=0x80009f41
       76705000	      7669	80003228	05c79463	bne	x15,x28,80003270	 x15:0x00000014 x28:0x80003108
       76715000	      7670	00000000	00000013	addi	x0,x0,0	  x0:0x00000000
       76725000	      7671	8000326c	00000013	addi	x0,x0,0	  x0:0x00000000
       76735000	      7672	80003270	41cf0ab3	sub	x21,x30,x28	 x30:0x80009fc4 x28:0x80003108 x21=0x00006ebc
       76745000	      7673	80003274	01391413	slli	x8,x18,0x13	 x18:0xa2000000  x8=0x00000000
       76755000	      7674	80003278	42e7ec13	ori	x24,x15,1070	 x15:0x00000014 x24=0x0000043e
       76765000	      7675	8000327c	01d1ed33	or	x26,x3,x29	  x3:0x80003090 x29:0x7fff603c x26=0xffff70bc
       76775000	      7676	80003280	84838e93	addi	x29,x7,-1976	  x7:0xbb001600 x29=0xbb000e48
       76785000	      7677	80003284	046a1063	bne	x20,x6,800032c4	 x20:0x80009f2c  x6:0x000060f9
       76795000	      7678	00000000	00000013	addi	x0,x0,0	  x0:0x00000000
       76805000	      7679	800032c0	00000013	addi	x0,x0,0	  x0:0x00000000
       76815000	      7680	800032c4	cd79c413	xori	x8,x19,-809	 x19:0xfffff97b  x8=0x000005ac
       76825000	      7681	800032c8	d8a60113	addi	x2,x12,-630	 x12:0x00000000  x2=0xfffffd8a
       76835000	      7682	800032cc	050ec413	xori	x8,x29,80	 x29:0xbb000e48  x8=0xbb000e18
       76845000	      7683	800032d0	08fe6e13	ori	x28,x28,143	 x28:0x80003108 x28=0x8000318f
       76855000	      7684	800032d4	0083e4b3	or	x9,x7,x8	  x7:0xbb001600  x8:0xbb000e18  x9=0xbb001e18
       76865000	      7685	800032d8	05ca8463	beq	x21,x28,80003320	 x21:0x00006ebc x28:0x8000318f
       76875000	      7686	800032dc	41a2ddb3	sra	x27,x5,x26	  x5:0x800030f8 x26:0xffff70bc x27=0xfffffff8
       76885000	      7687	800032e0	4267be13	sltiu	x28,x15,1062	 x15:0x00000014 x28=0x00000001
       76895000	      7688	800032e4	4122d1b3	sra	x3,x5,x18	  x5:0x800030f8 x18:0xa2000000  x3=0x800030f8
       76905000	      7689	800032e8	00000013	addi	x0,x0,0	  x0:0x00000000
       76915000	      7690	800032ec	0010c463	blt	x1,x1,800032f4	  x1:0x000002c3  x1:0x000002c3
       76925000	      7691	800032f0	0050fbb3	and	x23,x1,x5	  x1:0x000002c3  x5:0x800030f8 x23=0x000000c0
       76935000	      7692	800032f4	00000013	addi	x0,x0,0	  x0:0x00000000
       76945000	      7693	800032f8	23d48713	addi	x14,x9,573	  x9:0xbb001e18 x14=0xbb002055
       76955000	      7694	800032fc	12da7c37	lui	x24,0x12da7	 x24=0x12da7000
       76965000	      7695	80003300	01f21b93	slli	x23,x4,0x1f	  x4:0x800034fc x23=0x00000000
       76975000	      7696	80003304	01006c33	or	x24,x0,x16	  x0:0x00000000 x16:0x2885d000 x24=0x2885d000
       76985000	      7697	80003308	009ef0b3	and	x1,x29,x9	 x29:0xbb000e48  x9:0xbb001e18  x1=0xbb000e08
       76995000	      7698	8000330c	56c82a93	slti	x21,x16,1388	 x16:0x2885d000 x21=0x00000000
       77005000	      7699	80003310	0084c463	blt	x9,x8,80003318	  x9:0xbb001e18  x8:0xbb000e18
       77015000	      7700	80003314	01059a93	slli	x21,x11,0x10	 x11:0x007fff67 x21=0xff670000
       77025000	      7701	80003318	05ac8063	beq	x25,x26,80003358	 x25:0x7fff67fa x26:0xffff70bc
       77035000	      7702	8000331c	00acc463	blt	x25,x10,80003324	 x25:0x7fff67fa x10:0x00000001
       77045000	      7703	80003320	3cdd4b93	xori	x23,x26,973	 x26:0xffff70bc x23=0xffff7371
       77055000	      7704	80003324	00c6c6b3	xor	x13,x13,x12	 x13:0x00000001 x12:0x00000000 x13=0x00000001
       77065000	      7705	80003328	c471f513	andi	x10,x3,-953	  x3:0x800030f8 x10=0x80003040
       77075000	      7706	8000332c	0134c533	xor	x10,x9,x19	  x9:0xbb001e18 x19:0xfffff97b x10=0x44ffe763
       77085000	      7707	80003330	007a3cb3	sltu	x25,x20,x7	 x20:0x80009f2c  x7:0xbb001600 x25=0x00000001
       77095000	      7708	80003334	00fe6fb3	or	x31,x28,x15	 x28:0x00000001 x15:0x00000014 x31=0x00000015
       77105000	      7709	80003338	f7f2cb17	auipc	x22,0xf7f2c	 x22=0x77f2f334
       77115000	      7710	8000333c	01d7c263	blt	x15,x29,80003340	 x15:0x00000014 x29:0xbb000e48
       77125000	      7711	80003340	01bef263	bgeu	x29,x27,80003344	 x29:0xbb000e48 x27:0xfffffff8
       77135000	      7712	80003344	06767b13	andi	x22,x12,103	 x12:0x00000000 x22=0x00000000
       77145000	      7713	80003348	00000013	addi	x0,x0,0	  x0:0x00000000
       77155000	      7714	8000334c	00a48813	addi	x16,x9,10	  x9:0xbb001e18 x16=0xbb001e22
       77165000	      7715	80003350	00567263	bgeu	x12,x5,80003354	 x12:0x00000000  x5:0x800030f8
       77175000	      7716	80003354	03491263	bne	x18,x20,80003378	 x18:0xa2000000 x20:0x80009f2c
       77185000	      7717	00000000	00000013	addi	x0,x0,0	  x0:0x00000000
       77195000	      7718	80003374	00000013	addi	x0,x0,0	  x0:0x00000000
       77205000	      7719	80003378	014ad9b3	srl	x19,x21,x20	 x21:0xff670000 x20:0x80009f2c x19=0x000ff670
       77215000	      7720	8000337c	00d371b3	and	x3,x6,x13	  x6:0x000060f9 x13:0x00000001  x3=0x00000001
       77225000	      7721	80003380	41480433	sub	x8,x16,x20	 x16:0xbb001e22 x20:0x80009f2c  x8=0x3aff7ef6
       77235000	      7722	80003384	404381b3	sub	x3,x7,x4	  x7:0xbb001600  x4:0x800034fc  x3=0x3affe104
       77245000	      7723	80003388	0050cab3	xor	x21,x1,x5	  x1:0xbb000e08  x5:0x800030f8 x21=0x3b003ef0
       77255000	      7724	8000338c	01627fb3	and	x31,x4,x22	  x4:0x800034fc x22:0x00000000 x31=0x00000000
       77265000	      7725	80003390	6a3d2713	slti	x14,x26,1699	 x26:0xffff70bc x14=0x00000001
       77275000	      7726	80003394	01281263	bne	x16,x18,80003398	 x16:0xbb001e22 x18:0xa2000000
       77285000	      7727	00000000	00000013	addi	x0,x0,0	  x0:0x00000000
       77295000	      7728	80003394	00000013	addi	x0,x0,0	  x0:0x00000000
       77305000	      7729	80003398	d4a95997	auipc	x19,0xd4a95	 x19=0x54a98394
       77315000	      7730	8000339c	75afc713	xori	x14,x31,1882	 x31:0x00000000 x14=0x0000075a
       77325000	      7731	800033a0	00da4db3	xor	x27,x20,x13	 x20:0x80009f2c x13:0x00000001 x27=0x80009f2d
       77335000	      7732	800033a4	0085f333	and	x6,x11,x8	 x11:0x007fff67  x8:0x3aff7ef6  x6=0x007f7e66
       77345000	      7733	800033a8	01395793	srli	x15,x18,0x13	 x18:0xa2000000 x15=0x00001440
       77355000	      7734	800033ac	96999317	auipc	x6,0x96999	  x6=0x1699c3a8
       77365000	      7735	800033b0	e6a3c7b7	lui	x15,0xe6a3c	 x15=0xe6a3c000
       77375000	      7736	800033b4	00476db3	or	x27,x14,x4	 x14:0x0000075a  x4:0x800034fc x27=0x800037fe
       77385000	      7737	800033b8	01d605b3	add	x11,x12,x29	 x12:0x00000000 x29:0xbb000e48 x11=0xbb000e48
       77395000	      7738	800033bc	88433737	lui	x14,0x88433	 x14=0x88433000
       77405000	      7739	800033c0	00000013	addi	x0,x0,0	  x0:0x00000000
       77415000	      7740	800033c4	75e57f93	andi	x31,x10,1886	 x10:0x44ffe763 x31=0x00000742
       77425000	      7741	800033c8	24b26e93	ori	x29,x4,587	  x4:0x800034fc x29=0x800036ff
       77435000	      7742	800033cc	37078713	addi	x14,x15,880	 x15:0xe6a3c000 x14=0xe6a3c370
       77445000	      7743	800033d0	ca258093	addi	x1,x11,-862	 x11:0xbb000e48  x1=0xbb000aea
       77455000	      7744	800033d4	014f3733	sltu	x14,x30,x20	 x30:0x80009fc4 x20:0x80009f2c x14=0x00000000
       77465000	      7745	800033d8	01e48333	add	x6,x9,x30	  x9:0xbb001e18 x30:0x80009fc4  x6=0x3b00bddc
       77475000	      7746	800033dc	028ada63	bge	x21,x8,80003410	 x21:0x3b003ef0  x8:0x3aff7ef6
       77485000	      7747	00000000	00000013	addi	x0,x0,0	  x0:0x00000000
       77495000	      7748	8000340c	00000013	addi	x0,x0,0	  x0:0x00000000
       77505000	      7749	80003410	106068b7	lui	x17,0x10606	 x17=0x10606000
       77515000	      7750	80003414	41fe02b3	sub	x5,x28,x31	 x28:0x00000001 x31:0x00000742  x5=0xfffff8bf
       77525000	      7751	80003418	b9fee013	ori	x0,x29,-1121	 x29:0x800036ff
       77535000	      7752	8000341c	00664a63	blt	x12,x6,80003430	 x12:0x00000000  x6:0x3b00bddc
       77545000	      7753	00000000	00000013	addi	x0,x0,0	  x0:0x00000000
       77555000	      7754	8000342c	00000013	addi	x0,x0,0	  x0:0x00000000
       77565000	      7755	80003430	2069e093	ori	x1,x19,518	 x19:0x54a98394  x1=0x54a98396
       77575000	      7756	80003434	00e48233	add	x4,x9,x14	  x9:0xbb001e18 x14:0x00000000  x4=0xbb001e18
       77585000	      7757	80003438	009645b3	xor	x11,x12,x9	 x12:0x00000000  x9:0xbb001e18 x11=0xbb001e18
       77595000	      7758	8000343c	0167f433	and	x8,x15,x22	 x15:0xe6a3c000 x22:0x00000000  x8=0x00000000
       77605000	      7759	80003440	01465513	srli	x10,x12,0x14	 x12:0x00000000 x10=0x00000000
       77615000	      7760	80003444	892dad97	auipc	x27,0x892da	 x27=0x092dd440
       77625000	      7761	80003448	820d8193	addi	x3,x27,-2016	 x27:0x092dd440  x3=0x092dcc60
       77635000	      7762	8000344c	00e5dcb3	srl	x25,x11,x14	 x11:0xbb001e18 x14:0x00000000 x25=0xbb001e18
       77645000	      7763	80003450	006eda63	bge	x29,x6,80003464	 x29:0x800036ff  x6:0x3b00bddc
       77655000	      7764	80003454	0127e263	bltu	x15,x18,80003458	 x15:0xe6a3c000 x18:0xa2000000
       77665000	      7765	80003458	004895b3	sll	x11,x17,x4	 x17:0x10606000  x4:0xbb001e18 x11=0x00000000
       77675000	      7766	8000345c	c683c593	xori	x11,x7,-920	  x7:0xbb001600 x11=0x44ffea68
       77685000	      7767	80003460	40c05033	sra	x0,x0,x12	  x0:0x00000000 x12:0x00000000
       77695000	      7768	80003464	036f8463	beq	x31,x22,8000348c	 x31:0x00000742 x22:0x00000000
       77705000	      7769	80003468	017c1f93	slli	x31,x24,0x17	 x24:0x2885d000 x31=0x00000000
       77715000	      7770	8000346c	40768fb3	sub	x31,x13,x7	 x13:0x00000001  x7:0xbb001600 x31=0x44ffea01
       77725000	      7771	80003470	0080b533	sltu	x10,x1,x8	  x1:0x54a98396  x8:0x00000000 x10=0x00000000
       77735000	      7772	80003474	01c7b0b3	sltu	x1,x15,x28	 x15:0xe6a3c000 x28:0x00000001  x1=0x00000000
       77745000	      7773	80003478	00240a63	beq	x8,x2,8000348c	  x8:0x00000000  x2:0xfffffd8a
       77755000	      7774	8000347c	41300d33	sub	x26,x0,x19	  x0:0x00000000 x19:0x54a98394 x26=0xab567c6c
       77765000	      7775	80003480	27386893	ori	x17,x16,627	 x16:0xbb001e22 x17=0xbb001e73
       77775000	      7776	80003484	01376463	bltu	x14,x19,8000348c	 x14:0x00000000 x19:0x54a98394
       77785000	      7777	00000000	00000013	addi	x0,x0,0	  x0:0x00000000
       77795000	      7778	80003488	00000013	addi	x0,x0,0	  x0:0x00000000
       77805000	      7779	8000348c	0043fdb3	and	x27,x7,x4	  x7:0xbb001600  x4:0xbb001e18 x27=0xbb001600
       77815000	      7780	80003490	c0e67113	andi	x2,x12,-1010	 x12:0x00000000  x2=0x00000000
       77825000	      7781	80003494	01e988b3	add	x17,x19,x30	 x19:0x54a98394 x30:0x80009fc4 x17=0xd4aa2358
       77835000	      7782	80003498	b5ace313	ori	x6,x25,-1190	 x25:0xbb001e18  x6=0xffffff5a
       77845000	      7783	8000349c	004a2083	lw	x1,4(x20)	 x20:0x80009f2c  x1=0x80001664 PA:0x80009f30
       77855000	      7784	800034a0	01ff2433	slt	x8,x30,x31	 x30:0x80009fc4 x31:0x44ffea01  x8=0x00000001
       77865000	      7785	800034a4	66aac117	auipc	x2,0x66aac	  x2=0xe6aaf4a0
       77875000	      7786	800034a8	030a0a13	addi	x20,x20,48	 x20:0x80009f2c x20=0x80009f5c
       77885000	      7787	800034ac	012c7533	and	x10,x24,x18	 x24:0x2885d000 x18:0xa2000000 x10=0x20000000
       77895000	      7788	800034b0	008dd913	srli	x18,x27,0x8	 x27:0xbb001600 x18=0x00bb0016
       77905000	      7789	800034b4	00008d93	addi	x27,x1,0	  x1:0x80001664 x27=0x80001664
       77915000	      7790	800034b8	000d8de7	jalr	x27,x27,0	 x27:0x80001664 x27=0x800034b8
       77925000	      7791	00000000	00000013	addi	x0,x0,0	  x0:0x00000000
       77935000	      7792	80001664	00000013	addi	x0,x0,0	  x0:0x00000000
       77945000	      7793	80001668	013dde63	bge	x27,x19,80001684	 x27:0x800034b8 x19:0x54a98394
       77955000	      7794	8000166c	004efa63	bgeu	x29,x4,80001680	 x29:0x800036ff  x4:0xbb001e18
       77965000	      7795	80001670	043fc463	blt	x31,x3,800016b8	 x31:0x44ffea01  x3:0x092dcc60
       77975000	      7796	80001674	d596b493	sltiu	x9,x13,-679	 x13:0x00000001  x9=0x00000001
       77985000	      7797	80001678	007a7463	bgeu	x20,x7,80001680	 x20:0x80009f5c  x7:0xbb001600
       77995000	      7798	8000167c	011d5663	bge	x26,x17,80001688	 x26:0xab567c6c x17:0xd4aa2358
       78005000	      7799	80001680	011f77b3	and	x15,x30,x17	 x30:0x80009fc4 x17:0xd4aa2358 x15=0x80000340
       78015000	      7800	80001684	000f4933	xor	x18,x30,x0	 x30:0x80009fc4  x0:0x00000000 x18=0x80009fc4
       78025000	      7801	80001688	00195933	srl	x18,x18,x1	 x18:0x80009fc4  x1:0x80001664 x18=0x080009fc
       78035000	      7802	8000168c	036bd463	bge	x23,x22,800016b4	 x23:0xffff7371 x22:0x00000000
       78045000	      7803	80001690	6a877e13	andi	x28,x14,1704	 x14:0x00000000 x28=0x00000000
       78055000	      7804	80001694	00a439b3	sltu	x19,x8,x10	  x8:0x00000001 x10:0x20000000 x19=0x00000001
       78065000	      7805	80001698	7dc66813	ori	x16,x12,2012	 x12:0x00000000 x16=0x000007dc
       78075000	      7806	8000169c	01641263	bne	x8,x22,800016a0	  x8:0x00000001 x22:0x00000000
       78085000	      7807	00000000	00000013	addi	x0,x0,0	  x0:0x00000000
       78095000	      7808	8000169c	00000013	addi	x0,x0,0	  x0:0x00000000
       78105000	      7809	800016a0	017cd333	srl	x6,x25,x23	 x25:0xbb001e18 x23:0xffff7371  x6=0x00005d80
       78115000	      7810	800016a4	00000013	addi	x0,x0,0	  x0:0x00000000
       78125000	      7811	800016a8	00765d33	srl	x26,x12,x7	 x12:0x00000000  x7:0xbb001600 x26=0x00000000
       78135000	      7812	800016ac	0150d9b3	srl	x19,x1,x21	  x1:0x80001664 x21:0x3b003ef0 x19=0x00008000
       78145000	      7813	800016b0	041fc263	blt	x31,x1,800016f4	 x31:0x44ffea01  x1:0x80001664
       78155000	      7814	800016b4	0063bdb3	sltu	x27,x7,x6	  x7:0xbb001600  x6:0x00005d80 x27=0x00000000
       78165000	      7815	800016b8	31457d13	andi	x26,x10,788	 x10:0x20000000 x26=0x00000000
       78175000	      7816	800016bc	00000013	addi	x0,x0,0	  x0:0x00000000
       78185000	      7817	800016c0	0068ebb3	or	x23,x17,x6	 x17:0xd4aa2358  x6:0x00005d80 x23=0xd4aa7fd8
       78195000	      7818	800016c4	00c32233	slt	x4,x6,x12	  x6:0x00005d80 x12:0x00000000  x4=0x00000000
       78205000	      7819	800016c8	009da6b3	slt	x13,x27,x9	 x27:0x00000000  x9:0x00000001 x13=0x00000001
       78215000	      7820	800016cc	01f66733	or	x14,x12,x31	 x12:0x00000000 x31:0x44ffea01 x14=0x44ffea01
       78225000	      7821	800016d0	01417eb3	and	x29,x2,x20	  x2:0xe6aaf4a0 x20:0x80009f5c x29=0x80009400
       78235000	      7822	800016d4	00c1e263	bltu	x3,x12,800016d8	  x3:0x092dcc60 x12:0x00000000
       78245000	      7823	800016d8	0228f863	bgeu	x17,x2,80001708	 x17:0xd4aa2358  x2:0xe6aaf4a0
       78255000	      7824	800016dc	0105d733	srl	x14,x11,x16	 x11:0x44ffea68 x16:0x000007dc x14=0x00000004
       78265000	      7825	800016e0	c38e2293	slti	x5,x28,-968	 x28:0x00000000  x5=0x00000000
       78275000	      7826	800016e4	03b64e63	blt	x12,x27,80001720	 x12:0x00000000 x27:0x00000000
       78285000	      7827	800016e8	02896c63	bltu	x18,x8,80001720	 x18:0x080009fc  x8:0x00000001
       78295000	      7828	800016ec	03a12993	slti	x19,x2,58	  x2:0xe6aaf4a0 x19=0x00000001
       78305000	      7829	800016f0	00a13333	sltu	x6,x2,x10	  x2:0xe6aaf4a0 x10:0x20000000  x6=0x00000000
       78315000	      7830	800016f4	2fd46d13	ori	x26,x8,765	  x8:0x00000001 x26=0x000002fd
       78325000	      7831	800016f8	00156733	or	x14,x10,x1	 x10:0x20000000  x1:0x80001664 x14=0xa0001664
       78335000	      7832	800016fc	2bebb713	sltiu	x14,x23,702	 x23:0xd4aa7fd8 x14=0x00000000
       78345000	      7833	80001700	00cb52b3	srl	x5,x22,x12	 x22:0x00000000 x12:0x00000000  x5=0x00000000
       78355000	      7834	80001704	01b03db3	sltu	x27,x0,x27	  x0:0x00000000 x27:0x00000000 x27=0x00000000
       78365000	      7835	80001708	81ce8913	addi	x18,x29,-2020	 x29:0x80009400 x18=0x80008c1c
       78375000	      7836	8000170c	00000013	addi	x0,x0,0	  x0:0x00000000
       78385000	      7837	80001710	5b618793	addi	x15,x3,1462	  x3:0x092dcc60 x15=0x092dd216
       78395000	      7838	80001714	002f4e33	xor	x28,x30,x2	 x30:0x80009fc4  x2:0xe6aaf4a0 x28=0x66aa6b64
       78405000	      7839	80001718	418880b3	sub	x1,x17,x24	 x17:0xd4aa2358 x24:0x2885d000  x1=0xac245358
       78415000	      7840	8000171c	00c75863	bge	x14,x12,8000172c	 x14:0x00000000 x12:0x00000000
       78425000	      7841	00000000	00000013	addi	x0,x0,0	  x0:0x00000000
       78435000	      7842	80001728	00000013	addi	x0,x0,0	  x0:0x00000000
       78445000	      7843	8000172c	01bcd393	srli	x7,x25,0x1b	 x25:0xbb001e18  x7=0x00000017
       78455000	      7844	80001730	01c16113	ori	x2,x2,28	  x2:0xe6aaf4a0  x2=0xe6aaf4bc
       78465000	      7845	80001734	9798a3b7	lui	x7,0x9798a	  x7=0x9798a000
       78475000	      7846	80001738	4137d693	srai	x13,x15,0x13	 x15:0x092dd216 x13=0x00000125
       78485000	      7847	8000173c	01e00e33	add	x28,x0,x30	  x0:0x00000000 x30:0x80009fc4 x28=0x80009fc4
       78495000	      7848	80001740	d68e3e13	sltiu	x28,x28,-664	 x28:0x80009fc4 x28=0x00000001
       78505000	      7849	80001744	01357db3	and	x27,x10,x19	 x10:0x20000000 x19:0x00000001 x27=0x00000000
       78515000	      7850	80001748	01c49c33	sll	x24,x9,x28	  x9:0x00000001 x28:0x00000001 x24=0x00000002
       78525000	      7851	8000174c	00f53fb3	sltu	x31,x10,x15	 x10:0x20000000 x15:0x092dd216 x31=0x00000000
       78535000	      7852	80001750	0031c433	xor	x8,x3,x3	  x3:0x092dcc60  x3:0x092dcc60  x8=0x00000000
       78545000	      7853	80001754	01500233	add	x4,x0,x21	  x0:0x00000000 x21:0x3b003ef0  x4=0x3b003ef0
       78555000	      7854	80001758	00631413	slli	x8,x6,0x6	  x6:0x00000000  x8=0x00000000
       78565000	      7855	8000175c	002b1b93	slli	x23,x22,0x2	 x22:0x00000000 x23=0x00000000
       78575000	      7856	80001760	00000013	addi	x0,x0,0	  x0:0x00000000
       78585000	      7857	80001764	001f1c93	slli	x25,x30,0x1	 x30:0x80009fc4 x25=0x00013f88
       78595000	      7858	80001768	22106113	ori	x2,x0,545	  x0:0x00000000  x2=0x00000221
       78605000	      7859	8000176c	408e54b3	sra	x9,x28,x8	 x28:0x00000001  x8:0x00000000  x9=0x00000001
       78615000	      7860	80001770	012c1263	bne	x24,x18,80001774	 x24:0x00000002 x18:0x80008c1c
       78625000	      7861	00000000	00000013	addi	x0,x0,0	  x0:0x00000000
       78635000	      7862	80001770	00000013	addi	x0,x0,0	  x0:0x00000000
       78645000	      7863	80001774	00150e63	beq	x10,x1,80001790	 x10:0x20000000  x1:0xac245358
       78655000	      7864	80001778	36b97313	andi	x6,x18,875	 x18:0x80008c1c  x6=0x00000008
       78665000	      7865	8000177c	00f1e7b3	or	x15,x3,x15	  x3:0x092dcc60 x15:0x092dd216 x15=0x092dde76
       78675000	      7866	80001780	00e89993	slli	x19,x17,0xe	 x17:0xd4aa2358 x19=0x88d60000
       78685000	      7867	80001784	01be7233	and	x4,x28,x27	 x28:0x00000001 x27:0x00000000  x4=0x00000000
       78695000	      7868	80001788	ba4b2e37	lui	x28,0xba4b2	 x28=0xba4b2000
       78705000	      7869	8000178c	0163d313	srli	x6,x7,0x16	  x7:0x9798a000  x6=0x0000025e
       78715000	      7870	80001790	0d260063	beq	x12,x18,80001850	 x12:0x00000000 x18:0x80008c1c
       78725000	      7871	80001794	008c1493	slli	x9,x24,0x8	 x24:0x00000002  x9=0x00000200
       78735000	      7872	80001798	4156d193	srai	x3,x13,0x15	 x13:0x00000125  x3=0x00000000
       78745000	      7873	8000179c	01a85463	bge	x16,x26,800017a4	 x16:0x000007dc x26:0x000002fd
       78755000	      7874	00000000	00000013	addi	x0,x0,0	  x0:0x00000000
       78765000	      7875	800017a0	00000013	addi	x0,x0,0	  x0:0x00000000
       78775000	      7876	800017a4	a3f8fc13	andi	x24,x17,-1473	 x17:0xd4aa2358 x24=0xd4aa2218
       78785000	      7877	800017a8	00000013	addi	x0,x0,0	  x0:0x00000000
       78795000	      7878	800017ac	ac0de513	ori	x10,x27,-1344	 x27:0x00000000 x10=0xfffffac0
       78805000	      7879	800017b0	0aed8663	beq	x27,x14,8000185c	 x27:0x00000000 x14:0x00000000
       78815000	      7880	00000000	00000013	addi	x0,x0,0	  x0:0x00000000
       78825000	      7881	80001858	00000013	addi	x0,x0,0	  x0:0x00000000
       78835000	      7882	8000185c	326b3c13	sltiu	x24,x22,806	 x22:0x00000000 x24=0x00000001
       78845000	      7883	80001860	401ddd93	srai	x27,x27,0x1	 x27:0x00000000 x27=0x00000000
       78855000	      7884	80001864	03e57e63	bgeu	x10,x30,800018a0	 x10:0xfffffac0 x30:0x80009fc4
       78865000	      7885	00000000	00000013	addi	x0,x0,0	  x0:0x00000000
       78875000	      7886	8000189c	00000013	addi	x0,x0,0	  x0:0x00000000
       78885000	      7887	800018a0	1240c313	xori	x6,x1,292	  x1:0xac245358  x6=0xac24527c
       78895000	      7888	800018a4	41525cb3	sra	x25,x4,x21	  x4:0x00000000 x21:0x3b003ef0 x25=0x00000000
       78905000	      7889	800018a8	035a4e63	blt	x20,x21,800018e4	 x20:0x80009f5c x21:0x3b003ef0
       78915000	      7890	00000000	00000013	addi	x0,x0,0	  x0:0x00000000
       78925000	      7891	800018e0	00000013	addi	x0,x0,0	  x0:0x00000000
       78935000	      7892	800018e4	ed054ab7	lui	x21,0xed054	 x21=0xed054000
       78945000	      7893	800018e8	00699893	slli	x17,x19,0x6	 x19:0x88d60000 x17=0x35800000
       78955000	      7894	800018ec	00371e33	sll	x28,x14,x3	 x14:0x00000000  x3:0x00000000 x28=0x00000000
       78965000	      7895	800018f0	05146863	bltu	x8,x17,80001940	  x8:0x00000000 x17:0x35800000
       78975000	      7896	00000000	00000013	addi	x0,x0,0	  x0:0x00000000
       78985000	      7897	8000193c	00000013	addi	x0,x0,0	  x0:0x00000000
       78995000	      7898	80001940	00000013	addi	x0,x0,0	  x0:0x00000000
       79005000	      7899	80001944	d64d8e93	addi	x29,x27,-668	 x27:0x00000000 x29=0xfffffd64
       79015000	      7900	80001948	470e2db7	lui	x27,0x470e2	 x27=0x470e2000
       79025000	      7901	8000194c	04785263	bge	x16,x7,80001990	 x16:0x000007dc  x7:0x9798a000
       79035000	      7902	00000000	00000013	addi	x0,x0,0	  x0:0x00000000
       79045000	      7903	8000198c	00000013	addi	x0,x0,0	  x0:0x00000000
       79055000	      7904	80001990	a1d98093	addi	x1,x19,-1507	 x19:0x88d60000  x1=0x88d5fa1d
       79065000	      7905	80001994	403c0333	sub	x6,x24,x3	 x24:0x00000001  x3:0x00000000  x6=0x00000001
       79075000	      7906	80001998	01c0de93	srli	x29,x1,0x1c	  x1:0x88d5fa1d x29=0x00000008
       79085000	      7907	8000199c	00edd793	srli	x15,x27,0xe	 x27:0x470e2000 x15=0x00011c38
       79095000	      7908	800019a0	00a27e63	bgeu	x4,x10,800019bc	  x4:0x00000000 x10:0xfffffac0
       79105000	      7909	800019a4	002d5bb3	srl	x23,x26,x2	 x26:0x000002fd  x2:0x00000221 x23=0x0000017e
       79115000	      7910	800019a8	ec546393	ori	x7,x8,-315	  x8:0x00000000  x7=0xfffffec5
       79125000	      7911	800019ac	0068ed33	or	x26,x17,x6	 x17:0x35800000  x6:0x00000001 x26=0x35800001
       79135000	      7912	800019b0	bb192a93	slti	x21,x18,-1103	 x18:0x80008c1c x21=0x00000001
       79145000	      7913	800019b4	006958b3	srl	x17,x18,x6	 x18:0x80008c1c  x6:0x00000001 x17=0x4000460e
       79155000	      7914	800019b8	01554bb3	xor	x23,x10,x21	 x10:0xfffffac0 x21:0x00000001 x23=0xfffffac1
       79165000	      7915	800019bc	01ac11b3	sll	x3,x24,x26	 x24:0x00000001 x26:0x35800001  x3=0x00000002
       79175000	      7916	800019c0	410dd393	srai	x7,x27,0x10	 x27:0x470e2000  x7=0x0000470e
       79185000	      7917	800019c4	01de6263	bltu	x28,x29,800019c8	 x28:0x00000000 x29:0x00000008
       79195000	      7918	00000000	00000013	addi	x0,x0,0	  x0:0x00000000
       79205000	      7919	800019c4	00000013	addi	x0,x0,0	  x0:0x00000000
       79215000	      7920	800019c8	38ca7c93	andi	x25,x20,908	 x20:0x80009f5c x25=0x0000030c
       79225000	      7921	800019cc	0173d663	bge	x7,x23,800019d8	  x7:0x0000470e x23:0xfffffac1
       79235000	      7922	00000000	00000013	addi	x0,x0,0	  x0:0x00000000
       79245000	      7923	800019d4	00000013	addi	x0,x0,0	  x0:0x00000000
       79255000	      7924	800019d8	01a39093	slli	x1,x7,0x1a	  x7:0x0000470e  x1=0x38000000
       79265000	      7925	800019dc	dd840c37	lui	x24,0xdd840	 x24=0xdd840000
       79275000	      7926	800019e0	e1538337	lui	x6,0xe1538	  x6=0xe1538000
       79285000	      7927	800019e4	834fb717	auipc	x14,0x834fb	 x14=0x034fc9e0
       79295000	      7928	800019e8	01795793	srli	x15,x18,0x17	 x18:0x80008c1c x15=0x00000100
       79305000	      7929	800019ec	00000013	addi	x0,x0,0	  x0:0x00000000
       79315000	      7930	800019f0	a3c72b13	slti	x22,x14,-1476	 x14:0x034fc9e0 x22=0x00000000
       79325000	      7931	800019f4	00000013	addi	x0,x0,0	  x0:0x00000000
       79335000	      7932	800019f8	40665093	srai	x1,x12,0x6	 x12:0x00000000  x1=0x00000000
       79345000	      7933	800019fc	0264c063	blt	x9,x6,80001a1c	  x9:0x00000200  x6:0xe1538000
       79355000	      7934	80001a00	03a56c63	bltu	x10,x26,80001a38	 x10:0xfffffac0 x26:0x35800001
       79365000	      7935	80001a04	011c6333	or	x6,x24,x17	 x24:0xdd840000 x17:0x4000460e  x6=0xdd84460e
       79375000	      7936	80001a08	00f67e63	bgeu	x12,x15,80001a24	 x12:0x00000000 x15:0x00000100
       79385000	      7937	80001a0c	05a01063	bne	x0,x26,80001a4c	  x0:0x00000000 x26:0x35800001
       79395000	      7938	00000000	00000013	addi	x0,x0,0	  x0:0x00000000
       79405000	      7939	80001a48	00000013	addi	x0,x0,0	  x0:0x00000000
       79415000	      7940	80001a4c	019da433	slt	x8,x27,x25	 x27:0x470e2000 x25:0x0000030c  x8=0x00000000
       79425000	      7941	80001a50	0039d733	srl	x14,x19,x3	 x19:0x88d60000  x3:0x00000002 x14=0x22358000
       79435000	      7942	80001a54	b2e88213	addi	x4,x17,-1234	 x17:0x4000460e  x4=0x4000413c
       79445000	      7943	80001a58	40b28bb3	sub	x23,x5,x11	  x5:0x00000000 x11:0x44ffea68 x23=0xbb001598
       79455000	      7944	80001a5c	013291b3	sll	x3,x5,x19	  x5:0x00000000 x19:0x88d60000  x3=0x00000000
       79465000	      7945	80001a60	01127863	bgeu	x4,x17,80001a70	  x4:0x4000413c x17:0x4000460e
       79475000	      7946	80001a64	401f5933	sra	x18,x30,x1	 x30:0x80009fc4  x1:0x00000000 x18=0x80009fc4
       79485000	      7947	80001a68	bc4eed93	ori	x27,x29,-1084	 x29:0x00000008 x27=0xfffffbcc
       79495000	      7948	80001a6c	8a6fe837	lui	x16,0x8a6fe	 x16=0x8a6fe000
       79505000	      7949	80001a70	40bc04b3	sub	x9,x24,x11	 x24:0xdd840000 x11:0x44ffea68  x9=0x98841598
       79515000	      7950	80001a74	0112b733	sltu	x14,x5,x17	  x5:0x00000000 x17:0x4000460e x14=0x00000001
       79525000	      7951	80001a78	02234e63	blt	x6,x2,80001ab4	  x6:0xdd84460e  x2:0x00000221
       79535000	      7952	00000000	00000013	addi	x0,x0,0	  x0:0x00000000
       79545000	      7953	80001ab0	00000013	addi	x0,x0,0	  x0:0x00000000
       79555000	      7954	80001ab4	00a8c4b3	xor	x9,x17,x10	 x17:0x4000460e x10:0xfffffac0  x9=0xbfffbcce
       79565000	      7955	80001ab8	011cecb3	or	x25,x25,x17	 x25:0x0000030c x17:0x4000460e x25=0x4000470e
       79575000	      7956	80001abc	59e2ab13	slti	x22,x5,1438	  x5:0x00000000 x22=0x00000001
       79585000	      7957	80001ac0	1239ee13	ori	x28,x19,291	 x19:0x88d60000 x28=0x88d60123
       79595000	      7958	80001ac4	017b1663	bne	x22,x23,80001ad0	 x22:0x00000001 x23:0xbb001598
       79605000	      7959	00000000	00000013	addi	x0,x0,0	  x0:0x00000000
       79615000	      7960	80001acc	00000013	addi	x0,x0,0	  x0:0x00000000
       79625000	      7961	80001ad0	409d5e33	sra	x28,x26,x9	 x26:0x35800001  x9:0xbfffbcce x28=0x0000d600
       79635000	      7962	80001ad4	02dbf863	bgeu	x23,x13,80001b04	 x23:0xbb001598 x13:0x00000125
       79645000	      7963	00000000	00000013	addi	x0,x0,0	  x0:0x00000000
       79655000	      7964	80001b00	00000013	addi	x0,x0,0	  x0:0x00000000
       79665000	      7965	80001b04	403e8d33	sub	x26,x29,x3	 x29:0x00000008  x3:0x00000000 x26=0x00000008
       79675000	      7966	80001b08	0122a433	slt	x8,x5,x18	  x5:0x00000000 x18:0x80009fc4  x8=0x00000000
       79685000	      7967	80001b0c	55ebfd13	andi	x26,x23,1374	 x23:0xbb001598 x26=0x00000518
       79695000	      7968	80001b10	05c66463	bltu	x12,x28,80001b58	 x12:0x00000000 x28:0x0000d600
       79705000	      7969	00000000	00000013	addi	x0,x0,0	  x0:0x00000000
       79715000	      7970	80001b54	00000013	addi	x0,x0,0	  x0:0x00000000
       79725000	      7971	80001b58	fdfe0013	addi	x0,x28,-33	 x28:0x0000d600
       79735000	      7972	80001b5c	40dd5733	sra	x14,x26,x13	 x26:0x00000518 x13:0x00000125 x14=0x00000028
       79745000	      7973	80001b60	00000013	addi	x0,x0,0	  x0:0x00000000
       79755000	      7974	80001b64	40548d33	sub	x26,x9,x5	  x9:0xbfffbcce  x5:0x00000000 x26=0xbfffbcce
       79765000	      7975	80001b68	ecf9c013	xori	x0,x19,-305	 x19:0x88d60000
       79775000	      7976	80001b6c	41af0933	sub	x18,x30,x26	 x30:0x80009fc4 x26:0xbfffbcce x18=0xc000e2f6
       79785000	      7977	80001b70	039c9863	bne	x25,x25,80001ba0	 x25:0x4000470e x25:0x4000470e
       79795000	      7978	80001b74	00a6d4b3	srl	x9,x13,x10	 x13:0x00000125 x10:0xfffffac0  x9=0x00000125
       79805000	      7979	80001b78	cf3cf413	andi	x8,x25,-781	 x25:0x4000470e  x8=0x40004402
       79815000	      7980	80001b7c	00854233	xor	x4,x10,x8	 x10:0xfffffac0  x8:0x40004402  x4=0xbfffbec2
       79825000	      7981	80001b80	a3594117	auipc	x2,0xa3594	  x2=0x23595b7c
       79835000	      7982	80001b84	019e01b3	add	x3,x28,x25	 x28:0x0000d600 x25:0x4000470e  x3=0x40011d0e
       79845000	      7983	80001b88	4d5d16b7	lui	x13,0x4d5d1	 x13=0x4d5d1000
       79855000	      7984	80001b8c	01441863	bne	x8,x20,80001b9c	  x8:0x40004402 x20:0x80009f5c
       79865000	      7985	00000000	00000013	addi	x0,x0,0	  x0:0x00000000
       79875000	      7986	80001b98	00000013	addi	x0,x0,0	  x0:0x00000000
       79885000	      7987	80001b9c	409ed713	srai	x14,x29,0x9	 x29:0x00000008 x14=0x00000000
       79895000	      7988	80001ba0	0011d263	bge	x3,x1,80001ba4	  x3:0x40011d0e  x1:0x00000000
       79905000	      7989	00000000	00000013	addi	x0,x0,0	  x0:0x00000000
       79915000	      7990	80001ba0	00000013	addi	x0,x0,0	  x0:0x00000000
       79925000	      7991	80001ba4	00e95933	srl	x18,x18,x14	 x18:0xc000e2f6 x14:0x00000000 x18=0xc000e2f6
       79935000	      7992	80001ba8	4088d1b3	sra	x3,x17,x8	 x17:0x4000460e  x8:0x40004402  x3=0x10001183
       79945000	      7993	80001bac	00225133	srl	x2,x4,x2	  x4:0xbfffbec2  x2:0x23595b7c  x2=0x0000000b
       79955000	      7994	80001bb0	5a9036b7	lui	x13,0x5a903	 x13=0x5a903000
       79965000	      7995	80001bb4	40cc8433	sub	x8,x25,x12	 x25:0x4000470e x12:0x00000000  x8=0x4000470e
       79975000	      7996	80001bb8	e416ef93	ori	x31,x13,-447	 x13:0x5a903000 x31=0xfffffe41
       79985000	      7997	80001bbc	00da7d33	and	x26,x20,x13	 x20:0x80009f5c x13:0x5a903000 x26=0x00001000
       79995000	      7998	80001bc0	01c51263	bne	x10,x28,80001bc4	 x10:0xfffffac0 x28:0x0000d600
       80005000	      7999	00000000	00000013	addi	x0,x0,0	  x0:0x00000000
       80015000	      8000	80001bc0	00000013	addi	x0,x0,0	  x0:0x00000000
       80025000	      8001	80001bc4	00639c13	slli	x24,x7,0x6	  x7:0x0000470e x24=0x0011c380
       80035000	      8002	80001bc8	016cfd33	and	x26,x25,x22	 x25:0x4000470e x22:0x00000001 x26=0x00000000
       80045000	      8003	80001bcc	00000013	addi	x0,x0,0	  x0:0x00000000
       80055000	      8004	80001bd0	03c12c93	slti	x25,x2,60	  x2:0x0000000b x25=0x00000001
       80065000	      8005	80001bd4	41410eb3	sub	x29,x2,x20	  x2:0x0000000b x20:0x80009f5c x29=0x7fff60af
       80075000	      8006	80001bd8	41af05b3	sub	x11,x30,x26	 x30:0x80009fc4 x26:0x00000000 x11=0x80009fc4
       80085000	      8007	80001bdc	eaf1f213	andi	x4,x3,-337	  x3:0x10001183  x4=0x10001083
       80095000	      8008	80001be0	04b1d263	bge	x3,x11,80001c24	  x3:0x10001183 x11:0x80009fc4
       80105000	      8009	00000000	00000013	addi	x0,x0,0	  x0:0x00000000
       80115000	      8010	80001c20	00000013	addi	x0,x0,0	  x0:0x00000000
       80125000	      8011	80001c24	41d55437	lui	x8,0x41d55	  x8=0x41d55000
       80135000	      8012	80001c28	01518bb3	add	x23,x3,x21	  x3:0x10001183 x21:0x00000001 x23=0x10001184
       80145000	      8013	80001c2c	019d5cb3	srl	x25,x26,x25	 x26:0x00000000 x25:0x00000001 x25=0x00000000
       80155000	      8014	80001c30	01b6e4b3	or	x9,x13,x27	 x13:0x5a903000 x27:0xfffffbcc  x9=0xfffffbcc
       80165000	      8015	80001c34	03f99663	bne	x19,x31,80001c60	 x19:0x88d60000 x31:0xfffffe41
       80175000	      8016	00000000	00000013	addi	x0,x0,0	  x0:0x00000000
       80185000	      8017	80001c5c	00000013	addi	x0,x0,0	  x0:0x00000000
       80195000	      8018	80001c60	00005d93	srli	x27,x0,0x0	  x0:0x00000000 x27=0x00000000
       80205000	      8019	80001c64	02dbde63	bge	x23,x13,80001ca0	 x23:0x10001184 x13:0x5a903000
       80215000	      8020	80001c68	00f00833	add	x16,x0,x15	  x0:0x00000000 x15:0x00000100 x16=0x00000100
       80225000	      8021	80001c6c	0101bc33	sltu	x24,x3,x16	  x3:0x10001183 x16:0x00000100 x24=0x00000000
       80235000	      8022	80001c70	00c9a6b3	slt	x13,x19,x12	 x19:0x88d60000 x12:0x00000000 x13=0x00000001
       80245000	      8023	80001c74	00d98033	add	x0,x19,x13	 x19:0x88d60000 x13:0x00000001
       80255000	      8024	80001c78	2c97e193	ori	x3,x15,713	 x15:0x00000100  x3=0x000003c9
       80265000	      8025	80001c7c	04919063	bne	x3,x9,80001cbc	  x3:0x000003c9  x9:0xfffffbcc
       80275000	      8026	00000000	00000013	addi	x0,x0,0	  x0:0x00000000
       80285000	      8027	80001cb8	00000013	addi	x0,x0,0	  x0:0x00000000
       80295000	      8028	80001cbc	000f49b3	xor	x19,x30,x0	 x30:0x80009fc4  x0:0x00000000 x19=0x80009fc4
       80305000	      8029	80001cc0	010bd413	srli	x8,x23,0x10	 x23:0x10001184  x8=0x00001000
       80315000	      8030	80001cc4	00985d33	srl	x26,x16,x9	 x16:0x00000100  x9:0xfffffbcc x26=0x00000000
       80325000	      8031	80001cc8	03b50e63	beq	x10,x27,80001d04	 x10:0xfffffac0 x27:0x00000000
       80335000	      8032	80001ccc	00968cb3	add	x25,x13,x9	 x13:0x00000001  x9:0xfffffbcc x25=0xfffffbcd
       80345000	      8033	80001cd0	731e6e13	ori	x28,x28,1841	 x28:0x0000d600 x28=0x0000d731
       80355000	      8034	80001cd4	00768933	add	x18,x13,x7	 x13:0x00000001  x7:0x0000470e x18=0x0000470f
       80365000	      8035	80001cd8	01d01c63	bne	x0,x29,80001cf0	  x0:0x00000000 x29:0x7fff60af
       80375000	      8036	00000000	00000013	addi	x0,x0,0	  x0:0x00000000
       80385000	      8037	80001cec	00000013	addi	x0,x0,0	  x0:0x00000000
       80395000	      8038	80001cf0	07eece13	xori	x28,x29,126	 x29:0x7fff60af x28=0x7fff60d1
       80405000	      8039	80001cf4	0140b533	sltu	x10,x1,x20	  x1:0x00000000 x20:0x80009f5c x10=0x00000001
       80415000	      8040	80001cf8	081a7263	bgeu	x20,x1,80001d7c	 x20:0x80009f5c  x1:0x00000000
       80425000	      8041	00000000	00000013	addi	x0,x0,0	  x0:0x00000000
       80435000	      8042	80001d78	00000013	addi	x0,x0,0	  x0:0x00000000
       80445000	      8043	80001d7c	40c453b3	sra	x7,x8,x12	  x8:0x00001000 x12:0x00000000  x7=0x00001000
       80455000	      8044	80001d80	043cd863	bge	x25,x3,80001dd0	 x25:0xfffffbcd  x3:0x000003c9
       80465000	      8045	80001d84	01839463	bne	x7,x24,80001d8c	  x7:0x00001000 x24:0x00000000
       80475000	      8046	00000000	00000013	addi	x0,x0,0	  x0:0x00000000
       80485000	      8047	80001d88	00000013	addi	x0,x0,0	  x0:0x00000000
       80495000	      8048	80001d8c	015dc533	xor	x10,x27,x21	 x27:0x00000000 x21:0x00000001 x10=0x00000001
       80505000	      8049	80001d90	40d05113	srai	x2,x0,0xd	  x0:0x00000000  x2=0x00000000
       80515000	      8050	80001d94	0166c263	blt	x13,x22,80001d98	 x13:0x00000001 x22:0x00000001
       80525000	      8051	80001d98	01469193	slli	x3,x13,0x14	 x13:0x00000001  x3=0x00100000
       80535000	      8052	80001d9c	0980e013	ori	x0,x1,152	  x1:0x00000000
       80545000	      8053	80001da0	e665c013	xori	x0,x11,-410	 x11:0x80009fc4
       80555000	      8054	80001da4	03f4e863	bltu	x9,x31,80001dd4	  x9:0xfffffbcc x31:0xfffffe41
       80565000	      8055	00000000	00000013	addi	x0,x0,0	  x0:0x00000000
       80575000	      8056	80001dd0	00000013	addi	x0,x0,0	  x0:0x00000000
       80585000	      8057	80001dd4	0050a2b3	slt	x5,x1,x5	  x1:0x00000000  x5:0x00000000  x5=0x00000000
       80595000	      8058	80001dd8	00a67e63	bgeu	x12,x10,80001df4	 x12:0x00000000 x10:0x00000001
       80605000	      8059	80001ddc	41f4d813	srai	x16,x9,0x1f	  x9:0xfffffbcc x16=0xffffffff
       80615000	      8060	80001de0	01c9adb3	slt	x27,x19,x28	 x19:0x80009fc4 x28:0x7fff60d1 x27=0x00000001
       80625000	      8061	80001de4	00351d13	slli	x26,x10,0x3	 x10:0x00000001 x26=0x00000008
       80635000	      8062	80001de8	254ce393	ori	x7,x25,596	 x25:0xfffffbcd  x7=0xfffffbdd
       80645000	      8063	80001dec	416fdeb3	sra	x29,x31,x22	 x31:0xfffffe41 x22:0x00000001 x29=0xffffff20
       80655000	      8064	80001df0	00755913	srli	x18,x10,0x7	 x10:0x00000001 x18=0x00000000
       80665000	      8065	80001df4	ee664b93	xori	x23,x12,-282	 x12:0x00000000 x23=0xfffffee6
       80675000	      8066	80001df8	00f6f5b3	and	x11,x13,x15	 x13:0x00000001 x15:0x00000100 x11=0x00000000
       80685000	      8067	80001dfc	40c40e33	sub	x28,x8,x12	  x8:0x00001000 x12:0x00000000 x28=0x00001000
       80695000	      8068	80001e00	00772433	slt	x8,x14,x7	 x14:0x00000000  x7:0xfffffbdd  x8=0x00000000
       80705000	      8069	80001e04	052f6463	bltu	x30,x18,80001e4c	 x30:0x80009fc4 x18:0x00000000
       80715000	      8070	80001e08	00672b33	slt	x22,x14,x6	 x14:0x00000000  x6:0xdd84460e x22=0x00000000
       80725000	      8071	80001e0c	40d5dc13	srai	x24,x11,0xd	 x11:0x00000000 x24=0x00000000
       80735000	      8072	80001e10	00badfb3	srl	x31,x21,x11	 x21:0x00000001 x11:0x00000000 x31=0x00000001
       80745000	      8073	80001e14	01856eb3	or	x29,x10,x24	 x10:0x00000001 x24:0x00000000 x29=0x00000001
       80755000	      8074	80001e18	004a1263	bne	x20,x4,80001e1c	 x20:0x80009f5c  x4:0x10001083
       80765000	      8075	00000000	00000013	addi	x0,x0,0	  x0:0x00000000
       80775000	      8076	80001e18	00000013	addi	x0,x0,0	  x0:0x00000000
       80785000	      8077	80001e1c	004703b3	add	x7,x14,x4	 x14:0x00000000  x4:0x10001083  x7=0x10001083
       80795000	      8078	80001e20	0269c863	blt	x19,x6,80001e50	 x19:0x80009fc4  x6:0xdd84460e
       80805000	      8079	00000000	00000013	addi	x0,x0,0	  x0:0x00000000
       80815000	      8080	80001e4c	00000013	addi	x0,x0,0	  x0:0x00000000
       80825000	      8081	80001e50	00e0f463	bgeu	x1,x14,80001e58	  x1:0x00000000 x14:0x00000000
       80835000	      8082	00000000	00000013	addi	x0,x0,0	  x0:0x00000000
       80845000	      8083	80001e54	00000013	addi	x0,x0,0	  x0:0x00000000
       80855000	      8084	80001e58	413c0cb3	sub	x25,x24,x19	 x24:0x00000000 x19:0x80009fc4 x25=0x7fff603c
       80865000	      8085	80001e5c	8afcef97	auipc	x31,0x8afce	 x31=0x0afcfe58
       80875000	      8086	80001e60	d9a88193	addi	x3,x17,-614	 x17:0x4000460e  x3=0x400043a8
       80885000	      8087	80001e64	00b85693	srli	x13,x16,0xb	 x16:0xffffffff x13=0x001fffff
       80895000	      8088	80001e68	011c2db3	slt	x27,x24,x17	 x24:0x00000000 x17:0x4000460e x27=0x00000001
       80905000	      8089	80001e6c	0003d993	srli	x19,x7,0x0	  x7:0x10001083 x19=0x10001083
       80915000	      8090	80001e70	645eab93	slti	x23,x29,1605	 x29:0x00000001 x23=0x00000001
       80925000	      8091	80001e74	7d703993	sltiu	x19,x0,2007	  x0:0x00000000 x19=0x00000001
       80935000	      8092	80001e78	00be21b3	slt	x3,x28,x11	 x28:0x00001000 x11:0x00000000  x3=0x00000000
       80945000	      8093	80001e7c	006f8e33	add	x28,x31,x6	 x31:0x0afcfe58  x6:0xdd84460e x28=0xe8814466
       80955000	      8094	80001e80	401a0233	sub	x4,x20,x1	 x20:0x80009f5c  x1:0x00000000  x4=0x80009f5c
       80965000	      8095	80001e84	40688d33	sub	x26,x17,x6	 x17:0x4000460e  x6:0xdd84460e x26=0x627c0000
       80975000	      8096	80001e88	00081d33	sll	x26,x16,x0	 x16:0xffffffff  x0:0x00000000 x26=0xffffffff
       80985000	      8097	80001e8c	048ae663	bltu	x21,x8,80001ed8	 x21:0x00000001  x8:0x00000000
       80995000	      8098	80001e90	010a3c33	sltu	x24,x20,x16	 x20:0x80009f5c x16:0xffffffff x24=0x00000001
       81005000	      8099	80001e94	03935c63	bge	x6,x25,80001ecc	  x6:0xdd84460e x25:0x7fff603c
       81015000	      8100	80001e98	563eb213	sltiu	x4,x29,1379	 x29:0x00000001  x4=0x00000001
       81025000	      8101	80001e9c	408083b3	sub	x7,x1,x8	  x1:0x00000000  x8:0x00000000  x7=0x00000000
       81035000	      8102	80001ea0	008cb5b3	sltu	x11,x25,x8	 x25:0x7fff603c  x8:0x00000000 x11=0x00000000
       81045000	      8103	80001ea4	2e612893	slti	x17,x2,742	  x2:0x00000000 x17=0x00000001
       81055000	      8104	80001ea8	002db133	sltu	x2,x27,x2	 x27:0x00000001  x2:0x00000000  x2=0x00000000
       81065000	      8105	80001eac	00369033	sll	x0,x13,x3	 x13:0x001fffff  x3:0x00000000
       81075000	      8106	80001eb0	008cc1b3	xor	x3,x25,x8	 x25:0x7fff603c  x8:0x00000000  x3=0x7fff603c
       81085000	      8107	80001eb4	01190eb3	add	x29,x18,x17	 x18:0x00000000 x17:0x00000001 x29=0x00000001
       81095000	      8108	80001eb8	035ddc63	bge	x27,x21,80001ef0	 x27:0x00000001 x21:0x00000001
       81105000	      8109	00000000	00000013	addi	x0,x0,0	  x0:0x00000000
       81115000	      8110	80001eec	00000013	addi	x0,x0,0	  x0:0x00000000
       81125000	      8111	80001ef0	006c69b3	or	x19,x24,x6	 x24:0x00000001  x6:0xdd84460e x19=0xdd84460f
       81135000	      8112	80001ef4	00000013	addi	x0,x0,0	  x0:0x00000000
       81145000	      8113	80001ef8	004cc433	xor	x8,x25,x4	 x25:0x7fff603c  x4:0x00000001  x8=0x7fff603d
       81155000	      8114	80001efc	00000013	addi	x0,x0,0	  x0:0x00000000
       81165000	      8115	80001f00	01c75933	srl	x18,x14,x28	 x14:0x00000000 x28:0xe8814466 x18=0x00000000
       81175000	      8116	80001f04	00000013	addi	x0,x0,0	  x0:0x00000000
       81185000	      8117	80001f08	058fd463	bge	x31,x24,80001f50	 x31:0x0afcfe58 x24:0x00000001
       81195000	      8118	00000000	00000013	addi	x0,x0,0	  x0:0x00000000
       81205000	      8119	80001f4c	00000013	addi	x0,x0,0	  x0:0x00000000
       81215000	      8120	80001f50	03ab5463	bge	x22,x26,80001f78	 x22:0x00000000 x26:0xffffffff
       81225000	      8121	00000000	00000013	addi	x0,x0,0	  x0:0x00000000
       81235000	      8122	80001f74	00000013	addi	x0,x0,0	  x0:0x00000000
       81245000	      8123	80001f78	41c0dfb3	sra	x31,x1,x28	  x1:0x00000000 x28:0xe8814466 x31=0x00000000
       81255000	      8124	80001f7c	404e5733	sra	x14,x28,x4	 x28:0xe8814466  x4:0x00000001 x14=0xf440a233
       81265000	      8125	80001f80	011d6433	or	x8,x26,x17	 x26:0xffffffff x17:0x00000001  x8=0xffffffff
       81275000	      8126	80001f84	027a1c63	bne	x20,x7,80001fbc	 x20:0x80009f5c  x7:0x00000000
       81285000	      8127	00000000	00000013	addi	x0,x0,0	  x0:0x00000000
       81295000	      8128	80001fb8	00000013	addi	x0,x0,0	  x0:0x00000000
       81305000	      8129	80001fbc	003df133	and	x2,x27,x3	 x27:0x00000001  x3:0x7fff603c  x2=0x00000000
       81315000	      8130	80001fc0	008198b3	sll	x17,x3,x8	  x3:0x7fff603c  x8:0xffffffff x17=0x00000000
       81325000	      8131	80001fc4	01a14933	xor	x18,x2,x26	  x2:0x00000000 x26:0xffffffff x18=0xffffffff
       81335000	      8132	80001fc8	deee1d97	auipc	x27,0xdeee1	 x27=0x5eee2fc4
       81345000	      8133	80001fcc	3574ce13	xori	x28,x9,855	  x9:0xfffffbcc x28=0xfffff89b
       81355000	      8134	80001fd0	75e05fb7	lui	x31,0x75e05	 x31=0x75e05000
       81365000	      8135	80001fd4	41d903b3	sub	x7,x18,x29	 x18:0xffffffff x29:0x00000001  x7=0xfffffffe
       81375000	      8136	80001fd8	01b35313	srli	x6,x6,0x1b	  x6:0xdd84460e  x6=0x0000001b
       81385000	      8137	80001fdc	012d4db3	xor	x27,x26,x18	 x26:0xffffffff x18:0xffffffff x27=0x00000000
       81395000	      8138	80001fe0	9d572537	lui	x10,0x9d572	 x10=0x9d572000
       81405000	      8139	80001fe4	01f87333	and	x6,x16,x31	 x16:0xffffffff x31:0x75e05000  x6=0x75e05000
       81415000	      8140	80001fe8	41a006b3	sub	x13,x0,x26	  x0:0x00000000 x26:0xffffffff x13=0x00000001
       81425000	      8141	80001fec	9b21bb97	auipc	x23,0x9b21b	 x23=0x1b21cfe8
       81435000	      8142	80001ff0	18ae8593	addi	x11,x29,394	 x29:0x00000001 x11=0x0000018b
       81445000	      8143	80001ff4	001c06b3	add	x13,x24,x1	 x24:0x00000001  x1:0x00000000 x13=0x00000001
       81455000	      8144	80001ff8	010956b3	srl	x13,x18,x16	 x18:0xffffffff x16:0xffffffff x13=0x00000001
       81465000	      8145	80001ffc	5b54f693	andi	x13,x9,1461	  x9:0xfffffbcc x13=0x00000184
       81475000	      8146	80002000	28bdbc93	sltiu	x25,x27,651	 x27:0x00000000 x25=0x00000001
       81485000	      8147	80002004	00867933	and	x18,x12,x8	 x12:0x00000000  x8:0xffffffff x18=0x00000000
       81495000	      8148	80002008	01b1ea63	bltu	x3,x27,8000201c	  x3:0x7fff603c x27:0x00000000
       81505000	      8149	8000200c	03e40663	beq	x8,x30,80002038	  x8:0xffffffff x30:0x80009fc4
       81515000	      8150	80002010	01730933	add	x18,x6,x23	  x6:0x75e05000 x23:0x1b21cfe8 x18=0x91021fe8
       81525000	      8151	80002014	03bb1c63	bne	x22,x27,8000204c	 x22:0x00000000 x27:0x00000000
       81535000	      8152	80002018	01d3ddb3	srl	x27,x7,x29	  x7:0xfffffffe x29:0x00000001 x27=0x7fffffff
       81545000	      8153	8000201c	9c5b0237	lui	x4,0x9c5b0	  x4=0x9c5b0000
       81555000	      8154	80002020	05cd7063	bgeu	x26,x28,80002060	 x26:0xffffffff x28:0xfffff89b
       81565000	      8155	00000000	00000013	addi	x0,x0,0	  x0:0x00000000
       81575000	      8156	8000205c	00000013	addi	x0,x0,0	  x0:0x00000000
       81585000	      8157	80002060	00c78db3	add	x27,x15,x12	 x15:0x00000100 x12:0x00000000 x27=0x00000100
       81595000	      8158	80002064	007e1393	slli	x7,x28,0x7	 x28:0xfffff89b  x7=0xfffc4d80
       81605000	      8159	80002068	02ab1c63	bne	x22,x10,800020a0	 x22:0x00000000 x10:0x9d572000
       81615000	      8160	00000000	00000013	addi	x0,x0,0	  x0:0x00000000
       81625000	      8161	8000209c	00000013	addi	x0,x0,0	  x0:0x00000000
       81635000	      8162	800020a0	9441cd93	xori	x27,x3,-1724	  x3:0x7fff603c x27=0x80009978
       81645000	      8163	800020a4	01dc8db3	add	x27,x25,x29	 x25:0x00000001 x29:0x00000001 x27=0x00000002
       81655000	      8164	800020a8	009c0263	beq	x24,x9,800020ac	 x24:0x00000001  x9:0xfffffbcc
       81665000	      8165	800020ac	017f37b3	sltu	x15,x30,x23	 x30:0x80009fc4 x23:0x1b21cfe8 x15=0x00000000
       81675000	      8166	800020b0	34bcac93	slti	x25,x25,843	 x25:0x00000001 x25=0x00000001
       81685000	      8167	800020b4	01971593	slli	x11,x14,0x19	 x14:0xf440a233 x11=0x66000000
       81695000	      8168	800020b8	506e4993	xori	x19,x28,1286	 x28:0xfffff89b x19=0xfffffd9d
       81705000	      8169	800020bc	00811863	bne	x2,x8,800020cc	  x2:0x00000000  x8:0xffffffff
       81715000	      8170	00000000	00000013	addi	x0,x0,0	  x0:0x00000000
       81725000	      8171	800020c8	00000013	addi	x0,x0,0	  x0:0x00000000
       81735000	      8172	800020cc	00536ab3	or	x21,x6,x5	  x6:0x75e05000  x5:0x00000000 x21=0x75e05000
       81745000	      8173	800020d0	4067d093	srai	x1,x15,0x6	 x15:0x00000000  x1=0x00000000
       81755000	      8174	800020d4	91afee93	ori	x29,x31,-1766	 x31:0x75e05000 x29=0xfffff91a
       81765000	      8175	800020d8	413e8733	sub	x14,x29,x19	 x29:0xfffff91a x19:0xfffffd9d x14=0xfffffb7d
       81775000	      8176	800020dc	d194f113	andi	x2,x9,-743	  x9:0xfffffbcc  x2=0xfffff908
       81785000	      8177	800020e0	409a5d13	srai	x26,x20,0x9	 x20:0x80009f5c x26=0xffc0004f
       81795000	      8178	800020e4	00acc433	xor	x8,x25,x10	 x25:0x00000001 x10:0x9d572000  x8=0x9d572001
       81805000	      8179	800020e8	40f4d933	sra	x18,x9,x15	  x9:0xfffffbcc x15:0x00000000 x18=0xfffffbcc
       81815000	      8180	800020ec	01147233	and	x4,x8,x17	  x8:0x9d572001 x17:0x00000000  x4=0x00000000
       81825000	      8181	800020f0	80d6bd93	sltiu	x27,x13,-2035	 x13:0x00000184 x27=0x00000001
       81835000	      8182	800020f4	02fe1863	bne	x28,x15,80002124	 x28:0xfffff89b x15:0x00000000
       81845000	      8183	00000000	00000013	addi	x0,x0,0	  x0:0x00000000
       81855000	      8184	80002120	00000013	addi	x0,x0,0	  x0:0x00000000
       81865000	      8185	80002124	037f0863	beq	x30,x23,80002154	 x30:0x80009fc4 x23:0x1b21cfe8
       81875000	      8186	80002128	0150c4b3	xor	x9,x1,x21	  x1:0x00000000 x21:0x75e05000  x9=0x75e05000
       81885000	      8187	8000212c	6e888293	addi	x5,x17,1768	 x17:0x00000000  x5=0x000006e8
       81895000	      8188	80002130	00bb95b3	sll	x11,x23,x11	 x23:0x1b21cfe8 x11:0x66000000 x11=0x1b21cfe8
       81905000	      8189	80002134	01768033	add	x0,x13,x23	 x13:0x00000184 x23:0x1b21cfe8
       81915000	      8190	80002138	00000013	addi	x0,x0,0	  x0:0x00000000
       81925000	      8191	8000213c	00000013	addi	x0,x0,0	  x0:0x00000000
       81935000	      8192	80002140	07fee493	ori	x9,x29,127	 x29:0xfffff91a  x9=0xfffff97f
       81945000	      8193	80002144	00ad52b3	srl	x5,x26,x10	 x26:0xffc0004f x10:0x9d572000  x5=0xffc0004f
       81955000	      8194	80002148	00000013	addi	x0,x0,0	  x0:0x00000000
       81965000	      8195	8000214c	0bdae293	ori	x5,x21,189	 x21:0x75e05000  x5=0x75e050bd
       81975000	      8196	80002150	042b1063	bne	x22,x2,80002190	 x22:0x00000000  x2:0xfffff908
       81985000	      8197	00000000	00000013	addi	x0,x0,0	  x0:0x00000000
       81995000	      8198	8000218c	00000013	addi	x0,x0,0	  x0:0x00000000
       82005000	      8199	80002190	00000013	addi	x0,x0,0	  x0:0x00000000
       82015000	      8200	80002194	886f4d13	xori	x26,x30,-1914	 x30:0x80009fc4 x26=0x7fff6742
       82025000	      8201	80002198	dae67c17	auipc	x24,0xdae67	 x24=0x5ae69194
       82035000	      8202	8000219c	00cb3233	sltu	x4,x22,x12	 x22:0x00000000 x12:0x00000000  x4=0x00000000
       82045000	      8203	800021a0	fedfbc93	sltiu	x25,x31,-19	 x31:0x75e05000 x25=0x00000001
       82055000	      8204	800021a4	008bf263	bgeu	x23,x8,800021a8	 x23:0x1b21cfe8  x8:0x9d572001
       82065000	      8205	800021a8	551f2393	slti	x7,x30,1361	 x30:0x80009fc4  x7=0x00000001
       82075000	      8206	800021ac	00c8beb3	sltu	x29,x17,x12	 x17:0x00000000 x12:0x00000000 x29=0x00000000
       82085000	      8207	800021b0	006ecc33	xor	x24,x29,x6	 x29:0x00000000  x6:0x75e05000 x24=0x75e05000
       82095000	      8208	800021b4	402f8533	sub	x10,x31,x2	 x31:0x75e05000  x2:0xfffff908 x10=0x75e056f8
       82105000	      8209	800021b8	00249463	bne	x9,x2,800021c0	  x9:0xfffff97f  x2:0xfffff908
       82115000	      8210	00000000	00000013	addi	x0,x0,0	  x0:0x00000000
       82125000	      8211	800021bc	00000013	addi	x0,x0,0	  x0:0x00000000
       82135000	      8212	800021c0	01db8d33	add	x26,x23,x29	 x23:0x1b21cfe8 x29:0x00000000 x26=0x1b21cfe8
       82145000	      8213	800021c4	0173d463	bge	x7,x23,800021cc	  x7:0x00000001 x23:0x1b21cfe8
       82155000	      8214	800021c8	41846b93	ori	x23,x8,1048	  x8:0x9d572001 x23=0x9d572419
       82165000	      8215	800021cc	0108a8b3	slt	x17,x17,x16	 x17:0x00000000 x16:0xffffffff x17=0x00000000
       82175000	      8216	800021d0	00c31813	slli	x16,x6,0xc	  x6:0x75e05000 x16=0x05000000
       82185000	      8217	800021d4	36a06b93	ori	x23,x0,874	  x0:0x00000000 x23=0x0000036a
       82195000	      8218	800021d8	03a7f063	bgeu	x15,x26,800021f8	 x15:0x00000000 x26:0x1b21cfe8
       82205000	      8219	800021dc	04751863	bne	x10,x7,8000222c	 x10:0x75e056f8  x7:0x00000001
       82215000	      8220	00000000	00000013	addi	x0,x0,0	  x0:0x00000000
       82225000	      8221	80002228	00000013	addi	x0,x0,0	  x0:0x00000000
       82235000	      8222	8000222c	01b59193	slli	x3,x11,0x1b	 x11:0x1b21cfe8  x3=0x40000000
       82245000	      8223	80002230	01294e33	xor	x28,x18,x18	 x18:0xfffffbcc x18:0xfffffbcc x28=0x00000000
       82255000	      8224	80002234	01bd6ab3	or	x21,x26,x27	 x26:0x1b21cfe8 x27:0x00000001 x21=0x1b21cfe9
       82265000	      8225	80002238	0044d8b3	srl	x17,x9,x4	  x9:0xfffff97f  x4:0x00000000 x17=0xfffff97f
       82275000	      8226	8000223c	002e0e33	add	x28,x28,x2	 x28:0x00000000  x2:0xfffff908 x28=0xfffff908
       82285000	      8227	80002240	010dda63	bge	x27,x16,80002254	 x27:0x00000001 x16:0x05000000
       82295000	      8228	80002244	0089f263	bgeu	x19,x8,80002248	 x19:0xfffffd9d  x8:0x9d572001
       82305000	      8229	00000000	00000013	addi	x0,x0,0	  x0:0x00000000
       82315000	      8230	80002244	00000013	addi	x0,x0,0	  x0:0x00000000
       82325000	      8231	80002248	b0b47d13	andi	x26,x8,-1269	  x8:0x9d572001 x26=0x9d572001
       82335000	      8232	8000224c	001a1733	sll	x14,x20,x1	 x20:0x80009f5c  x1:0x00000000 x14=0x80009f5c
       82345000	      8233	80002250	00aba0b3	slt	x1,x23,x10	 x23:0x0000036a x10:0x75e056f8  x1=0x00000001
       82355000	      8234	80002254	031c5063	bge	x24,x17,80002274	 x24:0x75e05000 x17:0xfffff97f
       82365000	      8235	00000000	00000013	addi	x0,x0,0	  x0:0x00000000
       82375000	      8236	80002270	00000013	addi	x0,x0,0	  x0:0x00000000
       82385000	      8237	80002274	01dad4b3	srl	x9,x21,x29	 x21:0x1b21cfe9 x29:0x00000000  x9=0x1b21cfe9
       82395000	      8238	80002278	e28c2013	slti	x0,x24,-472	 x24:0x75e05000
       82405000	      8239	8000227c	903ace13	xori	x28,x21,-1789	 x21:0x1b21cfe9 x28=0xe4de36ea
       82415000	      8240	80002280	005d4333	xor	x6,x26,x5	 x26:0x9d572001  x5:0x75e050bd  x6=0xe8b770bc
       82425000	      8241	80002284	00404133	xor	x2,x0,x4	  x0:0x00000000  x4:0x00000000  x2=0x00000000
       82435000	      8242	80002288	00132ab3	slt	x21,x6,x1	  x6:0xe8b770bc  x1:0x00000001 x21=0x00000001
       82445000	      8243	8000228c	004a2083	lw	x1,4(x20)	 x20:0x80009f5c  x1=0x80002398 PA:0x80009f60
       82455000	      8244	80002290	01ca0a13	addi	x20,x20,28	 x20:0x80009f5c x20=0x80009f78
       82465000	      8245	80002294	00000013	addi	x0,x0,0	  x0:0x00000000
       82475000	      8246	80002298	00008e13	addi	x28,x1,0	  x1:0x80002398 x28=0x80002398
       82485000	      8247	8000229c	000e0e67	jalr	x28,x28,0	 x28:0x80002398 x28=0x8000229c
       82495000	      8248	00000000	00000013	addi	x0,x0,0	  x0:0x00000000
       82505000	      8249	80002398	00000013	addi	x0,x0,0	  x0:0x00000000
       82515000	      8250	8000239c	068000ef	jal	x1,8000239c	  x1=0x8000239c
       82525000	      8251	00000000	00000013	addi	x0,x0,0	  x0:0x00000000
       82535000	      8252	80002400	00000013	addi	x0,x0,0	  x0:0x00000000
       82545000	      8253	80002404	fc9ff0ef	jal	x1,80002404	  x1=0x80002404
       82555000	      8254	00000000	00000013	addi	x0,x0,0	  x0:0x00000000
       82565000	      8255	800023c8	00000013	addi	x0,x0,0	  x0:0x00000000
       82575000	      8256	800023cc	020000ef	jal	x1,800023cc	  x1=0x800023cc
       82585000	      8257	00000000	00000013	addi	x0,x0,0	  x0:0x00000000
       82595000	      8258	800023e8	00000013	addi	x0,x0,0	  x0:0x00000000
       82605000	      8259	800023ec	fddff36f	jal	x6,800023ec	  x6=0x800023ec
       82615000	      8260	00000000	00000013	addi	x0,x0,0	  x0:0x00000000
       82625000	      8261	800023c4	00000013	addi	x0,x0,0	  x0:0x00000000
       82635000	      8262	800023c8	ff5ff0ef	jal	x1,800023c8	  x1=0x800023c8
       82645000	      8263	00000000	00000013	addi	x0,x0,0	  x0:0x00000000
       82655000	      8264	800023b8	00000013	addi	x0,x0,0	  x0:0x00000000
       82665000	      8265	800023bc	058000ef	jal	x1,800023bc	  x1=0x800023bc
       82675000	      8266	00000000	00000013	addi	x0,x0,0	  x0:0x00000000
       82685000	      8267	80002410	00000013	addi	x0,x0,0	  x0:0x00000000
       82695000	      8268	80002414	fe1ff36f	jal	x6,80002414	  x6=0x80002414
       82705000	      8269	00000000	00000013	addi	x0,x0,0	  x0:0x00000000
       82715000	      8270	800023f0	00000013	addi	x0,x0,0	  x0:0x00000000
       82725000	      8271	800023f4	fadff96f	jal	x18,800023f4	 x18=0x800023f4
       82735000	      8272	00000000	00000013	addi	x0,x0,0	  x0:0x00000000
       82745000	      8273	8000239c	00000013	addi	x0,x0,0	  x0:0x00000000
       82755000	      8274	800023a0	070000ef	jal	x1,800023a0	  x1=0x800023a0
       82765000	      8275	00000000	00000013	addi	x0,x0,0	  x0:0x00000000
       82775000	      8276	8000240c	00000013	addi	x0,x0,0	  x0:0x00000000
       82785000	      8277	80002410	f95ff0ef	jal	x1,80002410	  x1=0x80002410
       82795000	      8278	00000000	00000013	addi	x0,x0,0	  x0:0x00000000
       82805000	      8279	800023a0	00000013	addi	x0,x0,0	  x0:0x00000000
       82815000	      8280	800023a4	01c000ef	jal	x1,800023a4	  x1=0x800023a4
       82825000	      8281	00000000	00000013	addi	x0,x0,0	  x0:0x00000000
       82835000	      8282	800023bc	00000013	addi	x0,x0,0	  x0:0x00000000
       82845000	      8283	800023c0	03c003ef	jal	x7,800023c0	  x7=0x800023c0
       82855000	      8284	00000000	00000013	addi	x0,x0,0	  x0:0x00000000
       82865000	      8285	800023f8	00000013	addi	x0,x0,0	  x0:0x00000000
       82875000	      8286	800023fc	fbdff0ef	jal	x1,800023fc	  x1=0x800023fc
       82885000	      8287	00000000	00000013	addi	x0,x0,0	  x0:0x00000000
       82895000	      8288	800023b4	00000013	addi	x0,x0,0	  x0:0x00000000
       82905000	      8289	800023b8	0380036f	jal	x6,800023b8	  x6=0x800023b8
       82915000	      8290	00000000	00000013	addi	x0,x0,0	  x0:0x00000000
       82925000	      8291	800023ec	00000013	addi	x0,x0,0	  x0:0x00000000
       82935000	      8292	800023f0	fc5ff36f	jal	x6,800023f0	  x6=0x800023f0
       82945000	      8293	00000000	00000013	addi	x0,x0,0	  x0:0x00000000
       82955000	      8294	800023b0	00000013	addi	x0,x0,0	  x0:0x00000000
       82965000	      8295	800023b4	ff9ff36f	jal	x6,800023b4	  x6=0x800023b4
       82975000	      8296	00000000	00000013	addi	x0,x0,0	  x0:0x00000000
       82985000	      8297	800023a8	00000013	addi	x0,x0,0	  x0:0x00000000
       82995000	      8298	800023ac	0600036f	jal	x6,800023ac	  x6=0x800023ac
       83005000	      8299	00000000	00000013	addi	x0,x0,0	  x0:0x00000000
       83015000	      8300	80002408	00000013	addi	x0,x0,0	  x0:0x00000000
       83025000	      8301	8000240c	ffdff36f	jal	x6,8000240c	  x6=0x8000240c
       83035000	      8302	00000000	00000013	addi	x0,x0,0	  x0:0x00000000
       83045000	      8303	80002404	00000013	addi	x0,x0,0	  x0:0x00000000
       83055000	      8304	80002408	fddffcef	jal	x25,80002408	 x25=0x80002408
       83065000	      8305	00000000	00000013	addi	x0,x0,0	  x0:0x00000000
       83075000	      8306	800023e0	00000013	addi	x0,x0,0	  x0:0x00000000
       83085000	      8307	800023e4	fe1ff0ef	jal	x1,800023e4	  x1=0x800023e4
       83095000	      8308	00000000	00000013	addi	x0,x0,0	  x0:0x00000000
       83105000	      8309	800023c0	00000013	addi	x0,x0,0	  x0:0x00000000
       83115000	      8310	800023c4	014000ef	jal	x1,800023c4	  x1=0x800023c4
       83125000	      8311	00000000	00000013	addi	x0,x0,0	  x0:0x00000000
       83135000	      8312	800023d4	00000013	addi	x0,x0,0	  x0:0x00000000
       83145000	      8313	800023d8	fd1ff36f	jal	x6,800023d8	  x6=0x800023d8
       83155000	      8314	00000000	00000013	addi	x0,x0,0	  x0:0x00000000
       83165000	      8315	800023a4	00000013	addi	x0,x0,0	  x0:0x00000000
       83175000	      8316	800023a8	040000ef	jal	x1,800023a8	  x1=0x800023a8
       83185000	      8317	00000000	00000013	addi	x0,x0,0	  x0:0x00000000
       83195000	      8318	800023e4	00000013	addi	x0,x0,0	  x0:0x00000000
       83205000	      8319	800023e8	ff9ff0ef	jal	x1,800023e8	  x1=0x800023e8
       83215000	      8320	00000000	00000013	addi	x0,x0,0	  x0:0x00000000
       83225000	      8321	800023dc	00000013	addi	x0,x0,0	  x0:0x00000000
       83235000	      8322	800023e0	ff1ff5ef	jal	x11,800023e0	 x11=0x800023e0
       83245000	      8323	00000000	00000013	addi	x0,x0,0	  x0:0x00000000
       83255000	      8324	800023cc	00000013	addi	x0,x0,0	  x0:0x00000000
       83265000	      8325	800023d0	fe1ff0ef	jal	x1,800023d0	  x1=0x800023d0
       83275000	      8326	00000000	00000013	addi	x0,x0,0	  x0:0x00000000
       83285000	      8327	800023ac	00000013	addi	x0,x0,0	  x0:0x00000000
       83295000	      8328	800023b0	050000ef	jal	x1,800023b0	  x1=0x800023b0
       83305000	      8329	00000000	00000013	addi	x0,x0,0	  x0:0x00000000
       83315000	      8330	800023fc	00000013	addi	x0,x0,0	  x0:0x00000000
       83325000	      8331	80002400	fddff0ef	jal	x1,80002400	  x1=0x80002400
       83335000	      8332	00000000	00000013	addi	x0,x0,0	  x0:0x00000000
       83345000	      8333	800023d8	00000013	addi	x0,x0,0	  x0:0x00000000
       83355000	      8334	800023dc	01c0036f	jal	x6,800023dc	  x6=0x800023dc
       83365000	      8335	00000000	00000013	addi	x0,x0,0	  x0:0x00000000
       83375000	      8336	800023f4	00000013	addi	x0,x0,0	  x0:0x00000000
       83385000	      8337	800023f8	fddff0ef	jal	x1,800023f8	  x1=0x800023f8
       83395000	      8338	00000000	00000013	addi	x0,x0,0	  x0:0x00000000
       83405000	      8339	800023d0	00000013	addi	x0,x0,0	  x0:0x00000000
       83415000	      8340	800023d4	044000ef	jal	x1,800023d4	  x1=0x800023d4
       83425000	      8341	00000000	00000013	addi	x0,x0,0	  x0:0x00000000
       83435000	      8342	80002414	00000013	addi	x0,x0,0	  x0:0x00000000
       83445000	      8343	80002418	a0d22097	auipc	x1,0xa0d22	  x1=0x20d24414
       83455000	      8344	8000241c	014000ef	jal	x1,8000241c	  x1=0x8000241c
       83465000	      8345	00000000	00000013	addi	x0,x0,0	  x0:0x00000000
       83475000	      8346	8000242c	00000013	addi	x0,x0,0	  x0:0x00000000
       83485000	      8347	80002430	0040036f	jal	x6,80002430	  x6=0x80002430
       83495000	      8348	00000000	00000013	addi	x0,x0,0	  x0:0x00000000
       83505000	      8349	80002430	00000013	addi	x0,x0,0	  x0:0x00000000
       83515000	      8350	80002434	ff1ff4ef	jal	x9,80002434	  x9=0x80002434
       83525000	      8351	00000000	00000013	addi	x0,x0,0	  x0:0x00000000
       83535000	      8352	80002420	00000013	addi	x0,x0,0	  x0:0x00000000
       83545000	      8353	80002424	01800bef	jal	x23,80002424	 x23=0x80002424
       83555000	      8354	00000000	00000013	addi	x0,x0,0	  x0:0x00000000
       83565000	      8355	80002438	00000013	addi	x0,x0,0	  x0:0x00000000
       83575000	      8356	8000243c	00c000ef	jal	x1,8000243c	  x1=0x8000243c
       83585000	      8357	00000000	00000013	addi	x0,x0,0	  x0:0x00000000
       83595000	      8358	80002444	00000013	addi	x0,x0,0	  x0:0x00000000
       83605000	      8359	80002448	ffdffaef	jal	x21,80002448	 x21=0x80002448
       83615000	      8360	00000000	00000013	addi	x0,x0,0	  x0:0x00000000
       83625000	      8361	80002440	00000013	addi	x0,x0,0	  x0:0x00000000
       83635000	      8362	80002444	fddff0ef	jal	x1,80002444	  x1=0x80002444
       83645000	      8363	00000000	00000013	addi	x0,x0,0	  x0:0x00000000
       83655000	      8364	8000241c	00000013	addi	x0,x0,0	  x0:0x00000000
       83665000	      8365	80002420	018000ef	jal	x1,80002420	  x1=0x80002420
       83675000	      8366	00000000	00000013	addi	x0,x0,0	  x0:0x00000000
       83685000	      8367	80002434	00000013	addi	x0,x0,0	  x0:0x00000000
       83695000	      8368	80002438	0140016f	jal	x2,80002438	  x2=0x80002438
       83705000	      8369	00000000	00000013	addi	x0,x0,0	  x0:0x00000000
       83715000	      8370	80002448	00000013	addi	x0,x0,0	  x0:0x00000000
       83725000	      8371	8000244c	ff5ffd6f	jal	x26,8000244c	 x26=0x8000244c
       83735000	      8372	00000000	00000013	addi	x0,x0,0	  x0:0x00000000
       83745000	      8373	8000243c	00000013	addi	x0,x0,0	  x0:0x00000000
       83755000	      8374	80002440	fe9ff36f	jal	x6,80002440	  x6=0x80002440
       83765000	      8375	00000000	00000013	addi	x0,x0,0	  x0:0x00000000
       83775000	      8376	80002424	00000013	addi	x0,x0,0	  x0:0x00000000
       83785000	      8377	80002428	004000ef	jal	x1,80002428	  x1=0x80002428
       83795000	      8378	00000000	00000013	addi	x0,x0,0	  x0:0x00000000
       83805000	      8379	80002428	00000013	addi	x0,x0,0	  x0:0x00000000
       83815000	      8380	8000242c	024000ef	jal	x1,8000242c	  x1=0x8000242c
       83825000	      8381	00000000	00000013	addi	x0,x0,0	  x0:0x00000000
       83835000	      8382	8000244c	00000013	addi	x0,x0,0	  x0:0x00000000
       83845000	      8383	80002450	01993533	sltu	x10,x18,x25	 x18:0x800023f4 x25:0x80002408 x10=0x00000001
       83855000	      8384	80002454	038000ef	jal	x1,80002454	  x1=0x80002454
       83865000	      8385	00000000	00000013	addi	x0,x0,0	  x0:0x00000000
       83875000	      8386	80002488	00000013	addi	x0,x0,0	  x0:0x00000000
       83885000	      8387	8000248c	fedff0ef	jal	x1,8000248c	  x1=0x8000248c
       83895000	      8388	00000000	00000013	addi	x0,x0,0	  x0:0x00000000
       83905000	      8389	80002474	00000013	addi	x0,x0,0	  x0:0x00000000
       83915000	      8390	80002478	ffdff0ef	jal	x1,80002478	  x1=0x80002478
       83925000	      8391	00000000	00000013	addi	x0,x0,0	  x0:0x00000000
       83935000	      8392	80002470	00000013	addi	x0,x0,0	  x0:0x00000000
       83945000	      8393	80002474	010000ef	jal	x1,80002474	  x1=0x80002474
       83955000	      8394	00000000	00000013	addi	x0,x0,0	  x0:0x00000000
       83965000	      8395	80002480	00000013	addi	x0,x0,0	  x0:0x00000000
       83975000	      8396	80002484	0040036f	jal	x6,80002484	  x6=0x80002484
       83985000	      8397	00000000	00000013	addi	x0,x0,0	  x0:0x00000000
       83995000	      8398	80002484	00000013	addi	x0,x0,0	  x0:0x00000000
       84005000	      8399	80002488	fd5ff0ef	jal	x1,80002488	  x1=0x80002488
       84015000	      8400	00000000	00000013	addi	x0,x0,0	  x0:0x00000000
       84025000	      8401	80002458	00000013	addi	x0,x0,0	  x0:0x00000000
       84035000	      8402	8000245c	0240036f	jal	x6,8000245c	  x6=0x8000245c
       84045000	      8403	00000000	00000013	addi	x0,x0,0	  x0:0x00000000
       84055000	      8404	8000247c	00000013	addi	x0,x0,0	  x0:0x00000000
       84065000	      8405	80002480	fe9ffbef	jal	x23,80002480	 x23=0x80002480
       84075000	      8406	00000000	00000013	addi	x0,x0,0	  x0:0x00000000
       84085000	      8407	80002464	00000013	addi	x0,x0,0	  x0:0x00000000
       84095000	      8408	80002468	0280036f	jal	x6,80002468	  x6=0x80002468
       84105000	      8409	00000000	00000013	addi	x0,x0,0	  x0:0x00000000
       84115000	      8410	8000248c	00000013	addi	x0,x0,0	  x0:0x00000000
       84125000	      8411	80002490	fc9ff26f	jal	x4,80002490	  x4=0x80002490
       84135000	      8412	00000000	00000013	addi	x0,x0,0	  x0:0x00000000
       84145000	      8413	80002454	00000013	addi	x0,x0,0	  x0:0x00000000
       84155000	      8414	80002458	00c000ef	jal	x1,80002458	  x1=0x80002458
       84165000	      8415	00000000	00000013	addi	x0,x0,0	  x0:0x00000000
       84175000	      8416	80002460	00000013	addi	x0,x0,0	  x0:0x00000000
       84185000	      8417	80002464	ffdff36f	jal	x6,80002464	  x6=0x80002464
       84195000	      8418	00000000	00000013	addi	x0,x0,0	  x0:0x00000000
       84205000	      8419	8000245c	00000013	addi	x0,x0,0	  x0:0x00000000
       84215000	      8420	80002460	01c000ef	jal	x1,80002460	  x1=0x80002460
       84225000	      8421	00000000	00000013	addi	x0,x0,0	  x0:0x00000000
       84235000	      8422	80002478	00000013	addi	x0,x0,0	  x0:0x00000000
       84245000	      8423	8000247c	01c000ef	jal	x1,8000247c	  x1=0x8000247c
       84255000	      8424	00000000	00000013	addi	x0,x0,0	  x0:0x00000000
       84265000	      8425	80002494	00000013	addi	x0,x0,0	  x0:0x00000000
       84275000	      8426	80002498	ffdff0ef	jal	x1,80002498	  x1=0x80002498
       84285000	      8427	00000000	00000013	addi	x0,x0,0	  x0:0x00000000
       84295000	      8428	80002490	00000013	addi	x0,x0,0	  x0:0x00000000
       84305000	      8429	80002494	fd9ff0ef	jal	x1,80002494	  x1=0x80002494
       84315000	      8430	00000000	00000013	addi	x0,x0,0	  x0:0x00000000
       84325000	      8431	80002468	00000013	addi	x0,x0,0	  x0:0x00000000
       84335000	      8432	8000246c	004000ef	jal	x1,8000246c	  x1=0x8000246c
       84345000	      8433	00000000	00000013	addi	x0,x0,0	  x0:0x00000000
       84355000	      8434	8000246c	00000013	addi	x0,x0,0	  x0:0x00000000
       84365000	      8435	80002470	02c000ef	jal	x1,80002470	  x1=0x80002470
       84375000	      8436	00000000	00000013	addi	x0,x0,0	  x0:0x00000000
       84385000	      8437	80002498	00000013	addi	x0,x0,0	  x0:0x00000000
       84395000	      8438	8000249c	004000ef	jal	x1,8000249c	  x1=0x8000249c
       84405000	      8439	00000000	00000013	addi	x0,x0,0	  x0:0x00000000
       84415000	      8440	8000249c	00000013	addi	x0,x0,0	  x0:0x00000000
       84425000	      8441	800024a0	407c5513	srai	x10,x24,0x7	 x24:0x75e05000 x10=0x00ebc0a0
       84435000	      8442	800024a4	054000ef	jal	x1,800024a4	  x1=0x800024a4
       84445000	      8443	00000000	00000013	addi	x0,x0,0	  x0:0x00000000
       84455000	      8444	800024f4	00000013	addi	x0,x0,0	  x0:0x00000000
       84465000	      8445	800024f8	fcdff76f	jal	x14,800024f8	 x14=0x800024f8
       84475000	      8446	00000000	00000013	addi	x0,x0,0	  x0:0x00000000
       84485000	      8447	800024c0	00000013	addi	x0,x0,0	  x0:0x00000000
       84495000	      8448	800024c4	ffdff0ef	jal	x1,800024c4	  x1=0x800024c4
       84505000	      8449	00000000	00000013	addi	x0,x0,0	  x0:0x00000000
       84515000	      8450	800024bc	00000013	addi	x0,x0,0	  x0:0x00000000
       84525000	      8451	800024c0	0240036f	jal	x6,800024c0	  x6=0x800024c0
       84535000	      8452	00000000	00000013	addi	x0,x0,0	  x0:0x00000000
       84545000	      8453	800024e0	00000013	addi	x0,x0,0	  x0:0x00000000
       84555000	      8454	800024e4	0040036f	jal	x6,800024e4	  x6=0x800024e4
       84565000	      8455	00000000	00000013	addi	x0,x0,0	  x0:0x00000000
       84575000	      8456	800024e4	00000013	addi	x0,x0,0	  x0:0x00000000
       84585000	      8457	800024e8	fcdff0ef	jal	x1,800024e8	  x1=0x800024e8
       84595000	      8458	00000000	00000013	addi	x0,x0,0	  x0:0x00000000
       84605000	      8459	800024b0	00000013	addi	x0,x0,0	  x0:0x00000000
       84615000	      8460	800024b4	024000ef	jal	x1,800024b4	  x1=0x800024b4
       84625000	      8461	00000000	00000013	addi	x0,x0,0	  x0:0x00000000
       84635000	      8462	800024d4	00000013	addi	x0,x0,0	  x0:0x00000000
       84645000	      8463	800024d8	018000ef	jal	x1,800024d8	  x1=0x800024d8
       84655000	      8464	00000000	00000013	addi	x0,x0,0	  x0:0x00000000
       84665000	      8465	800024ec	00000013	addi	x0,x0,0	  x0:0x00000000
       84675000	      8466	800024f0	fbdff2ef	jal	x5,800024f0	  x5=0x800024f0
       84685000	      8467	00000000	00000013	addi	x0,x0,0	  x0:0x00000000
       84695000	      8468	800024a8	00000013	addi	x0,x0,0	  x0:0x00000000
       84705000	      8469	800024ac	ffdff0ef	jal	x1,800024ac	  x1=0x800024ac
       84715000	      8470	00000000	00000013	addi	x0,x0,0	  x0:0x00000000
       84725000	      8471	800024a4	00000013	addi	x0,x0,0	  x0:0x00000000
       84735000	      8472	800024a8	024000ef	jal	x1,800024a8	  x1=0x800024a8
       84745000	      8473	00000000	00000013	addi	x0,x0,0	  x0:0x00000000
       84755000	      8474	800024c8	00000013	addi	x0,x0,0	  x0:0x00000000
       84765000	      8475	800024cc	ff1ff0ef	jal	x1,800024cc	  x1=0x800024cc
       84775000	      8476	00000000	00000013	addi	x0,x0,0	  x0:0x00000000
       84785000	      8477	800024b8	00000013	addi	x0,x0,0	  x0:0x00000000
       84795000	      8478	800024bc	ffdff0ef	jal	x1,800024bc	  x1=0x800024bc
       84805000	      8479	00000000	00000013	addi	x0,x0,0	  x0:0x00000000
       84815000	      8480	800024b4	00000013	addi	x0,x0,0	  x0:0x00000000
       84825000	      8481	800024b8	034000ef	jal	x1,800024b8	  x1=0x800024b8
       84835000	      8482	00000000	00000013	addi	x0,x0,0	  x0:0x00000000
       84845000	      8483	800024e8	00000013	addi	x0,x0,0	  x0:0x00000000
       84855000	      8484	800024ec	fe5ff86f	jal	x16,800024ec	 x16=0x800024ec
       84865000	      8485	00000000	00000013	addi	x0,x0,0	  x0:0x00000000
       84875000	      8486	800024cc	00000013	addi	x0,x0,0	  x0:0x00000000
       84885000	      8487	800024d0	01000bef	jal	x23,800024d0	 x23=0x800024d0
       84895000	      8488	00000000	00000013	addi	x0,x0,0	  x0:0x00000000
       84905000	      8489	800024dc	00000013	addi	x0,x0,0	  x0:0x00000000
       84915000	      8490	800024e0	ffdff76f	jal	x14,800024e0	 x14=0x800024e0
       84925000	      8491	00000000	00000013	addi	x0,x0,0	  x0:0x00000000
       84935000	      8492	800024d8	00000013	addi	x0,x0,0	  x0:0x00000000
       84945000	      8493	800024dc	0200036f	jal	x6,800024dc	  x6=0x800024dc
       84955000	      8494	00000000	00000013	addi	x0,x0,0	  x0:0x00000000
       84965000	      8495	800024f8	00000013	addi	x0,x0,0	  x0:0x00000000
       84975000	      8496	800024fc	fcdff0ef	jal	x1,800024fc	  x1=0x800024fc
       84985000	      8497	00000000	00000013	addi	x0,x0,0	  x0:0x00000000
       84995000	      8498	800024c4	00000013	addi	x0,x0,0	  x0:0x00000000
       85005000	      8499	800024c8	00c009ef	jal	x19,800024c8	 x19=0x800024c8
       85015000	      8500	00000000	00000013	addi	x0,x0,0	  x0:0x00000000
       85025000	      8501	800024d0	00000013	addi	x0,x0,0	  x0:0x00000000
       85035000	      8502	800024d4	020000ef	jal	x1,800024d4	  x1=0x800024d4
       85045000	      8503	00000000	00000013	addi	x0,x0,0	  x0:0x00000000
       85055000	      8504	800024f0	00000013	addi	x0,x0,0	  x0:0x00000000
       85065000	      8505	800024f4	fbdff0ef	jal	x1,800024f4	  x1=0x800024f4
       85075000	      8506	00000000	00000013	addi	x0,x0,0	  x0:0x00000000
       85085000	      8507	800024ac	00000013	addi	x0,x0,0	  x0:0x00000000
       85095000	      8508	800024b0	050000ef	jal	x1,800024b0	  x1=0x800024b0
       85105000	      8509	00000000	00000013	addi	x0,x0,0	  x0:0x00000000
       85115000	      8510	800024fc	00000013	addi	x0,x0,0	  x0:0x00000000
       85125000	      8511	80002500	00204db3	xor	x27,x0,x2	  x0:0x00000000  x2:0x80002438 x27=0x80002438
       85135000	      8512	80002504	020000ef	jal	x1,80002504	  x1=0x80002504
       85145000	      8513	00000000	00000013	addi	x0,x0,0	  x0:0x00000000
       85155000	      8514	80002520	00000013	addi	x0,x0,0	  x0:0x00000000
       85165000	      8515	80002524	014000ef	jal	x1,80002524	  x1=0x80002524
       85175000	      8516	00000000	00000013	addi	x0,x0,0	  x0:0x00000000
       85185000	      8517	80002534	00000013	addi	x0,x0,0	  x0:0x00000000
       85195000	      8518	80002538	fd5ff0ef	jal	x1,80002538	  x1=0x80002538
       85205000	      8519	00000000	00000013	addi	x0,x0,0	  x0:0x00000000
       85215000	      8520	80002508	00000013	addi	x0,x0,0	  x0:0x00000000
       85225000	      8521	8000250c	054000ef	jal	x1,8000250c	  x1=0x8000250c
       85235000	      8522	00000000	00000013	addi	x0,x0,0	  x0:0x00000000
       85245000	      8523	8000255c	00000013	addi	x0,x0,0	  x0:0x00000000
       85255000	      8524	80002560	ffdff36f	jal	x6,80002560	  x6=0x80002560
       85265000	      8525	00000000	00000013	addi	x0,x0,0	  x0:0x00000000
       85275000	      8526	80002558	00000013	addi	x0,x0,0	  x0:0x00000000
       85285000	      8527	8000255c	fb5ff0ef	jal	x1,8000255c	  x1=0x8000255c
       85295000	      8528	00000000	00000013	addi	x0,x0,0	  x0:0x00000000
       85305000	      8529	8000250c	00000013	addi	x0,x0,0	  x0:0x00000000
       85315000	      8530	80002510	ff9ff6ef	jal	x13,80002510	 x13=0x80002510
       85325000	      8531	00000000	00000013	addi	x0,x0,0	  x0:0x00000000
       85335000	      8532	80002504	00000013	addi	x0,x0,0	  x0:0x00000000
       85345000	      8533	80002508	03c000ef	jal	x1,80002508	  x1=0x80002508
       85355000	      8534	00000000	00000013	addi	x0,x0,0	  x0:0x00000000
       85365000	      8535	80002540	00000013	addi	x0,x0,0	  x0:0x00000000
       85375000	      8536	80002544	ff1ff36f	jal	x6,80002544	  x6=0x80002544
       85385000	      8537	00000000	00000013	addi	x0,x0,0	  x0:0x00000000
       85395000	      8538	80002530	00000013	addi	x0,x0,0	  x0:0x00000000
       85405000	      8539	80002534	024000ef	jal	x1,80002534	  x1=0x80002534
       85415000	      8540	00000000	00000013	addi	x0,x0,0	  x0:0x00000000
       85425000	      8541	80002554	00000013	addi	x0,x0,0	  x0:0x00000000
       85435000	      8542	80002558	ff1ff0ef	jal	x1,80002558	  x1=0x80002558
       85445000	      8543	00000000	00000013	addi	x0,x0,0	  x0:0x00000000
       85455000	      8544	80002544	00000013	addi	x0,x0,0	  x0:0x00000000
       85465000	      8545	80002548	ff9ff76f	jal	x14,80002548	 x14=0x80002548
       85475000	      8546	00000000	00000013	addi	x0,x0,0	  x0:0x00000000
       85485000	      8547	8000253c	00000013	addi	x0,x0,0	  x0:0x00000000
       85495000	      8548	80002540	00c000ef	jal	x1,80002540	  x1=0x80002540
       85505000	      8549	00000000	00000013	addi	x0,x0,0	  x0:0x00000000
       85515000	      8550	80002548	00000013	addi	x0,x0,0	  x0:0x00000000
       85525000	      8551	8000254c	fe5ff0ef	jal	x1,8000254c	  x1=0x8000254c
       85535000	      8552	00000000	00000013	addi	x0,x0,0	  x0:0x00000000
       85545000	      8553	8000252c	00000013	addi	x0,x0,0	  x0:0x00000000
       85555000	      8554	80002530	00c000ef	jal	x1,80002530	  x1=0x80002530
       85565000	      8555	00000000	00000013	addi	x0,x0,0	  x0:0x00000000
       85575000	      8556	80002538	00000013	addi	x0,x0,0	  x0:0x00000000
       85585000	      8557	8000253c	014000ef	jal	x1,8000253c	  x1=0x8000253c
       85595000	      8558	00000000	00000013	addi	x0,x0,0	  x0:0x00000000
       85605000	      8559	8000254c	00000013	addi	x0,x0,0	  x0:0x00000000
       85615000	      8560	80002550	fc9ff1ef	jal	x3,80002550	  x3=0x80002550
       85625000	      8561	00000000	00000013	addi	x0,x0,0	  x0:0x00000000
       85635000	      8562	80002514	00000013	addi	x0,x0,0	  x0:0x00000000
       85645000	      8563	80002518	0080036f	jal	x6,80002518	  x6=0x80002518
       85655000	      8564	00000000	00000013	addi	x0,x0,0	  x0:0x00000000
       85665000	      8565	8000251c	00000013	addi	x0,x0,0	  x0:0x00000000
       85675000	      8566	80002520	ffdff1ef	jal	x3,80002520	  x3=0x80002520
       85685000	      8567	00000000	00000013	addi	x0,x0,0	  x0:0x00000000
       85695000	      8568	80002518	00000013	addi	x0,x0,0	  x0:0x00000000
       85705000	      8569	8000251c	010000ef	jal	x1,8000251c	  x1=0x8000251c
       85715000	      8570	00000000	00000013	addi	x0,x0,0	  x0:0x00000000
       85725000	      8571	80002528	00000013	addi	x0,x0,0	  x0:0x00000000
       85735000	      8572	8000252c	fe9ff0ef	jal	x1,8000252c	  x1=0x8000252c
       85745000	      8573	00000000	00000013	addi	x0,x0,0	  x0:0x00000000
       85755000	      8574	80002510	00000013	addi	x0,x0,0	  x0:0x00000000
       85765000	      8575	80002514	0400036f	jal	x6,80002514	  x6=0x80002514
       85775000	      8576	00000000	00000013	addi	x0,x0,0	  x0:0x00000000
       85785000	      8577	80002550	00000013	addi	x0,x0,0	  x0:0x00000000
       85795000	      8578	80002554	fd5ffb6f	jal	x22,80002554	 x22=0x80002554
       85805000	      8579	00000000	00000013	addi	x0,x0,0	  x0:0x00000000
       85815000	      8580	80002524	00000013	addi	x0,x0,0	  x0:0x00000000
       85825000	      8581	80002528	03c0076f	jal	x14,80002528	 x14=0x80002528
       85835000	      8582	00000000	00000013	addi	x0,x0,0	  x0:0x00000000
       85845000	      8583	80002560	00000013	addi	x0,x0,0	  x0:0x00000000
       85855000	      8584	80002564	09d46513	ori	x10,x8,157	  x8:0x9d572001 x10=0x9d57209d
       85865000	      8585	80002568	030000ef	jal	x1,80002568	  x1=0x80002568
       85875000	      8586	00000000	00000013	addi	x0,x0,0	  x0:0x00000000
       85885000	      8587	80002594	00000013	addi	x0,x0,0	  x0:0x00000000
       85895000	      8588	80002598	fe9ff0ef	jal	x1,80002598	  x1=0x80002598
       85905000	      8589	00000000	00000013	addi	x0,x0,0	  x0:0x00000000
       85915000	      8590	8000257c	00000013	addi	x0,x0,0	  x0:0x00000000
       85925000	      8591	80002580	008002ef	jal	x5,80002580	  x5=0x80002580
       85935000	      8592	00000000	00000013	addi	x0,x0,0	  x0:0x00000000
       85945000	      8593	80002584	00000013	addi	x0,x0,0	  x0:0x00000000
       85955000	      8594	80002588	018000ef	jal	x1,80002588	  x1=0x80002588
       85965000	      8595	00000000	00000013	addi	x0,x0,0	  x0:0x00000000
       85975000	      8596	8000259c	00000013	addi	x0,x0,0	  x0:0x00000000
       85985000	      8597	800025a0	fddff0ef	jal	x1,800025a0	  x1=0x800025a0
       85995000	      8598	00000000	00000013	addi	x0,x0,0	  x0:0x00000000
       86005000	      8599	80002578	00000013	addi	x0,x0,0	  x0:0x00000000
       86015000	      8600	8000257c	008006ef	jal	x13,8000257c	 x13=0x8000257c
       86025000	      8601	00000000	00000013	addi	x0,x0,0	  x0:0x00000000
       86035000	      8602	80002580	00000013	addi	x0,x0,0	  x0:0x00000000
       86045000	      8603	80002584	fedffb6f	jal	x22,80002584	 x22=0x80002584
       86055000	      8604	00000000	00000013	addi	x0,x0,0	  x0:0x00000000
       86065000	      8605	8000256c	00000013	addi	x0,x0,0	  x0:0x00000000
       86075000	      8606	80002570	ffdff0ef	jal	x1,80002570	  x1=0x80002570
       86085000	      8607	00000000	00000013	addi	x0,x0,0	  x0:0x00000000
       86095000	      8608	80002568	00000013	addi	x0,x0,0	  x0:0x00000000
       86105000	      8609	8000256c	0200036f	jal	x6,8000256c	  x6=0x8000256c
       86115000	      8610	00000000	00000013	addi	x0,x0,0	  x0:0x00000000
       86125000	      8611	80002588	00000013	addi	x0,x0,0	  x0:0x00000000
       86135000	      8612	8000258c	004000ef	jal	x1,8000258c	  x1=0x8000258c
       86145000	      8613	00000000	00000013	addi	x0,x0,0	  x0:0x00000000
       86155000	      8614	8000258c	00000013	addi	x0,x0,0	  x0:0x00000000
       86165000	      8615	80002590	fe5ff0ef	jal	x1,80002590	  x1=0x80002590
       86175000	      8616	00000000	00000013	addi	x0,x0,0	  x0:0x00000000
       86185000	      8617	80002570	00000013	addi	x0,x0,0	  x0:0x00000000
       86195000	      8618	80002574	020000ef	jal	x1,80002574	  x1=0x80002574
       86205000	      8619	00000000	00000013	addi	x0,x0,0	  x0:0x00000000
       86215000	      8620	80002590	00000013	addi	x0,x0,0	  x0:0x00000000
       86225000	      8621	80002594	fe5ff0ef	jal	x1,80002594	  x1=0x80002594
       86235000	      8622	00000000	00000013	addi	x0,x0,0	  x0:0x00000000
       86245000	      8623	80002574	00000013	addi	x0,x0,0	  x0:0x00000000
       86255000	      8624	80002578	024000ef	jal	x1,80002578	  x1=0x80002578
       86265000	      8625	00000000	00000013	addi	x0,x0,0	  x0:0x00000000
       86275000	      8626	80002598	00000013	addi	x0,x0,0	  x0:0x00000000
       86285000	      8627	8000259c	0080036f	jal	x6,8000259c	  x6=0x8000259c
       86295000	      8628	00000000	00000013	addi	x0,x0,0	  x0:0x00000000
       86305000	      8629	800025a0	00000013	addi	x0,x0,0	  x0:0x00000000
       86315000	      8630	800025a4	6cc1a893	slti	x17,x3,1740	  x3:0x80002520 x17=0x00000001
       86325000	      8631	800025a8	014000ef	jal	x1,800025a8	  x1=0x800025a8
       86335000	      8632	00000000	00000013	addi	x0,x0,0	  x0:0x00000000
       86345000	      8633	800025b8	00000013	addi	x0,x0,0	  x0:0x00000000
       86355000	      8634	800025bc	03c000ef	jal	x1,800025bc	  x1=0x800025bc
       86365000	      8635	00000000	00000013	addi	x0,x0,0	  x0:0x00000000
       86375000	      8636	800025f4	00000013	addi	x0,x0,0	  x0:0x00000000
       86385000	      8637	800025f8	fd9ff0ef	jal	x1,800025f8	  x1=0x800025f8
       86395000	      8638	00000000	00000013	addi	x0,x0,0	  x0:0x00000000
       86405000	      8639	800025cc	00000013	addi	x0,x0,0	  x0:0x00000000
       86415000	      8640	800025d0	ff5ff36f	jal	x6,800025d0	  x6=0x800025d0
       86425000	      8641	00000000	00000013	addi	x0,x0,0	  x0:0x00000000
       86435000	      8642	800025c0	00000013	addi	x0,x0,0	  x0:0x00000000
       86445000	      8643	800025c4	008000ef	jal	x1,800025c4	  x1=0x800025c4
       86455000	      8644	00000000	00000013	addi	x0,x0,0	  x0:0x00000000
       86465000	      8645	800025c8	00000013	addi	x0,x0,0	  x0:0x00000000
       86475000	      8646	800025cc	024000ef	jal	x1,800025cc	  x1=0x800025cc
       86485000	      8647	00000000	00000013	addi	x0,x0,0	  x0:0x00000000
       86495000	      8648	800025ec	00000013	addi	x0,x0,0	  x0:0x00000000
       86505000	      8649	800025f0	ff1ff36f	jal	x6,800025f0	  x6=0x800025f0
       86515000	      8650	00000000	00000013	addi	x0,x0,0	  x0:0x00000000
       86525000	      8651	800025dc	00000013	addi	x0,x0,0	  x0:0x00000000
       86535000	      8652	800025e0	ff9ff4ef	jal	x9,800025e0	  x9=0x800025e0
       86545000	      8653	00000000	00000013	addi	x0,x0,0	  x0:0x00000000
       86555000	      8654	800025d4	00000013	addi	x0,x0,0	  x0:0x00000000
       86565000	      8655	800025d8	00c000ef	jal	x1,800025d8	  x1=0x800025d8
       86575000	      8656	00000000	00000013	addi	x0,x0,0	  x0:0x00000000
       86585000	      8657	800025e0	00000013	addi	x0,x0,0	  x0:0x00000000
       86595000	      8658	800025e4	018000ef	jal	x1,800025e4	  x1=0x800025e4
       86605000	      8659	00000000	00000013	addi	x0,x0,0	  x0:0x00000000
       86615000	      8660	800025f8	00000013	addi	x0,x0,0	  x0:0x00000000
       86625000	      8661	800025fc	ff9ff0ef	jal	x1,800025fc	  x1=0x800025fc
       86635000	      8662	00000000	00000013	addi	x0,x0,0	  x0:0x00000000
       86645000	      8663	800025f0	00000013	addi	x0,x0,0	  x0:0x00000000
       86655000	      8664	800025f4	fbdff36f	jal	x6,800025f4	  x6=0x800025f4
       86665000	      8665	00000000	00000013	addi	x0,x0,0	  x0:0x00000000
       86675000	      8666	800025ac	00000013	addi	x0,x0,0	  x0:0x00000000
       86685000	      8667	800025b0	0380036f	jal	x6,800025b0	  x6=0x800025b0
       86695000	      8668	00000000	00000013	addi	x0,x0,0	  x0:0x00000000
       86705000	      8669	800025e4	00000013	addi	x0,x0,0	  x0:0x00000000
       86715000	      8670	800025e8	fc5ff6ef	jal	x13,800025e8	 x13=0x800025e8
       86725000	      8671	00000000	00000013	addi	x0,x0,0	  x0:0x00000000
       86735000	      8672	800025a8	00000013	addi	x0,x0,0	  x0:0x00000000
       86745000	      8673	800025ac	0300046f	jal	x8,800025ac	  x8=0x800025ac
       86755000	      8674	00000000	00000013	addi	x0,x0,0	  x0:0x00000000
       86765000	      8675	800025d8	00000013	addi	x0,x0,0	  x0:0x00000000
       86775000	      8676	800025dc	010000ef	jal	x1,800025dc	  x1=0x800025dc
       86785000	      8677	00000000	00000013	addi	x0,x0,0	  x0:0x00000000
       86795000	      8678	800025e8	00000013	addi	x0,x0,0	  x0:0x00000000
       86805000	      8679	800025ec	fd5ff16f	jal	x2,800025ec	  x2=0x800025ec
       86815000	      8680	00000000	00000013	addi	x0,x0,0	  x0:0x00000000
       86825000	      8681	800025bc	00000013	addi	x0,x0,0	  x0:0x00000000
       86835000	      8682	800025c0	0080036f	jal	x6,800025c0	  x6=0x800025c0
       86845000	      8683	00000000	00000013	addi	x0,x0,0	  x0:0x00000000
       86855000	      8684	800025c4	00000013	addi	x0,x0,0	  x0:0x00000000
       86865000	      8685	800025c8	ff1ff0ef	jal	x1,800025c8	  x1=0x800025c8
       86875000	      8686	00000000	00000013	addi	x0,x0,0	  x0:0x00000000
       86885000	      8687	800025b4	00000013	addi	x0,x0,0	  x0:0x00000000
       86895000	      8688	800025b8	01c0026f	jal	x4,800025b8	  x4=0x800025b8
       86905000	      8689	00000000	00000013	addi	x0,x0,0	  x0:0x00000000
       86915000	      8690	800025d0	00000013	addi	x0,x0,0	  x0:0x00000000
       86925000	      8691	800025d4	fe1ff36f	jal	x6,800025d4	  x6=0x800025d4
       86935000	      8692	00000000	00000013	addi	x0,x0,0	  x0:0x00000000
       86945000	      8693	800025b0	00000013	addi	x0,x0,0	  x0:0x00000000
       86955000	      8694	800025b4	04c003ef	jal	x7,800025b4	  x7=0x800025b4
       86965000	      8695	00000000	00000013	addi	x0,x0,0	  x0:0x00000000
       86975000	      8696	800025fc	00000013	addi	x0,x0,0	  x0:0x00000000
       86985000	      8697	80002600	3633ce93	xori	x29,x7,867	  x7:0x800025b4 x29=0x800026d7
       86995000	      8698	80002604	004000ef	jal	x1,80002604	  x1=0x80002604
       87005000	      8699	00000000	00000013	addi	x0,x0,0	  x0:0x00000000
       87015000	      8700	80002604	00000013	addi	x0,x0,0	  x0:0x00000000
       87025000	      8701	80002608	0500036f	jal	x6,80002608	  x6=0x80002608
       87035000	      8702	00000000	00000013	addi	x0,x0,0	  x0:0x00000000
       87045000	      8703	80002654	00000013	addi	x0,x0,0	  x0:0x00000000
       87055000	      8704	80002658	fb5ff2ef	jal	x5,80002658	  x5=0x80002658
       87065000	      8705	00000000	00000013	addi	x0,x0,0	  x0:0x00000000
       87075000	      8706	80002608	00000013	addi	x0,x0,0	  x0:0x00000000
       87085000	      8707	8000260c	0200036f	jal	x6,8000260c	  x6=0x8000260c
       87095000	      8708	00000000	00000013	addi	x0,x0,0	  x0:0x00000000
       87105000	      8709	80002628	00000013	addi	x0,x0,0	  x0:0x00000000
       87115000	      8710	8000262c	ff1ff36f	jal	x6,8000262c	  x6=0x8000262c
       87125000	      8711	00000000	00000013	addi	x0,x0,0	  x0:0x00000000
       87135000	      8712	80002618	00000013	addi	x0,x0,0	  x0:0x00000000
       87145000	      8713	8000261c	01c000ef	jal	x1,8000261c	  x1=0x8000261c
       87155000	      8714	00000000	00000013	addi	x0,x0,0	  x0:0x00000000
       87165000	      8715	80002634	00000013	addi	x0,x0,0	  x0:0x00000000
       87175000	      8716	80002638	fedff0ef	jal	x1,80002638	  x1=0x80002638
       87185000	      8717	00000000	00000013	addi	x0,x0,0	  x0:0x00000000
       87195000	      8718	80002620	00000013	addi	x0,x0,0	  x0:0x00000000
       87205000	      8719	80002624	020000ef	jal	x1,80002624	  x1=0x80002624
       87215000	      8720	00000000	00000013	addi	x0,x0,0	  x0:0x00000000
       87225000	      8721	80002640	00000013	addi	x0,x0,0	  x0:0x00000000
       87235000	      8722	80002644	0100036f	jal	x6,80002644	  x6=0x80002644
       87245000	      8723	00000000	00000013	addi	x0,x0,0	  x0:0x00000000
       87255000	      8724	80002650	00000013	addi	x0,x0,0	  x0:0x00000000
       87265000	      8725	80002654	010000ef	jal	x1,80002654	  x1=0x80002654
       87275000	      8726	00000000	00000013	addi	x0,x0,0	  x0:0x00000000
       87285000	      8727	80002660	00000013	addi	x0,x0,0	  x0:0x00000000
       87295000	      8728	80002664	fd1ff0ef	jal	x1,80002664	  x1=0x80002664
       87305000	      8729	00000000	00000013	addi	x0,x0,0	  x0:0x00000000
       87315000	      8730	80002630	00000013	addi	x0,x0,0	  x0:0x00000000
       87325000	      8731	80002634	02c0036f	jal	x6,80002634	  x6=0x80002634
       87335000	      8732	00000000	00000013	addi	x0,x0,0	  x0:0x00000000
       87345000	      8733	8000265c	00000013	addi	x0,x0,0	  x0:0x00000000
       87355000	      8734	80002660	fb5ff1ef	jal	x3,80002660	  x3=0x80002660
       87365000	      8735	00000000	00000013	addi	x0,x0,0	  x0:0x00000000
       87375000	      8736	80002610	00000013	addi	x0,x0,0	  x0:0x00000000
       87385000	      8737	80002614	00c000ef	jal	x1,80002614	  x1=0x80002614
       87395000	      8738	00000000	00000013	addi	x0,x0,0	  x0:0x00000000
       87405000	      8739	8000261c	00000013	addi	x0,x0,0	  x0:0x00000000
       87415000	      8740	80002620	020000ef	jal	x1,80002620	  x1=0x80002620
       87425000	      8741	00000000	00000013	addi	x0,x0,0	  x0:0x00000000
       87435000	      8742	8000263c	00000013	addi	x0,x0,0	  x0:0x00000000
       87445000	      8743	80002640	00c0036f	jal	x6,80002640	  x6=0x80002640
       87455000	      8744	00000000	00000013	addi	x0,x0,0	  x0:0x00000000
       87465000	      8745	80002648	00000013	addi	x0,x0,0	  x0:0x00000000
       87475000	      8746	8000264c	ff1ff3ef	jal	x7,8000264c	  x7=0x8000264c
       87485000	      8747	00000000	00000013	addi	x0,x0,0	  x0:0x00000000
       87495000	      8748	80002638	00000013	addi	x0,x0,0	  x0:0x00000000
       87505000	      8749	8000263c	ff5ff0ef	jal	x1,8000263c	  x1=0x8000263c
       87515000	      8750	00000000	00000013	addi	x0,x0,0	  x0:0x00000000
       87525000	      8751	8000262c	00000013	addi	x0,x0,0	  x0:0x00000000
       87535000	      8752	80002630	02000def	jal	x27,80002630	 x27=0x80002630
       87545000	      8753	00000000	00000013	addi	x0,x0,0	  x0:0x00000000
       87555000	      8754	8000264c	00000013	addi	x0,x0,0	  x0:0x00000000
       87565000	      8755	80002650	ff9ff0ef	jal	x1,80002650	  x1=0x80002650
       87575000	      8756	00000000	00000013	addi	x0,x0,0	  x0:0x00000000
       87585000	      8757	80002644	00000013	addi	x0,x0,0	  x0:0x00000000
       87595000	      8758	80002648	fd1ff0ef	jal	x1,80002648	  x1=0x80002648
       87605000	      8759	00000000	00000013	addi	x0,x0,0	  x0:0x00000000
       87615000	      8760	80002614	00000013	addi	x0,x0,0	  x0:0x00000000
       87625000	      8761	80002618	044008ef	jal	x17,80002618	 x17=0x80002618
       87635000	      8762	00000000	00000013	addi	x0,x0,0	  x0:0x00000000
       87645000	      8763	80002658	00000013	addi	x0,x0,0	  x0:0x00000000
       87655000	      8764	8000265c	fcdff36f	jal	x6,8000265c	  x6=0x8000265c
       87665000	      8765	00000000	00000013	addi	x0,x0,0	  x0:0x00000000
       87675000	      8766	80002624	00000013	addi	x0,x0,0	  x0:0x00000000
       87685000	      8767	80002628	040000ef	jal	x1,80002628	  x1=0x80002628
       87695000	      8768	00000000	00000013	addi	x0,x0,0	  x0:0x00000000
       87705000	      8769	80002664	00000013	addi	x0,x0,0	  x0:0x00000000
       87715000	      8770	80002668	fa9ffb6f	jal	x22,80002668	 x22=0x80002668
       87725000	      8771	00000000	00000013	addi	x0,x0,0	  x0:0x00000000
       87735000	      8772	8000260c	00000013	addi	x0,x0,0	  x0:0x00000000
       87745000	      8773	80002610	05c004ef	jal	x9,80002610	  x9=0x80002610
       87755000	      8774	00000000	00000013	addi	x0,x0,0	  x0:0x00000000
       87765000	      8775	80002668	00000013	addi	x0,x0,0	  x0:0x00000000
       87775000	      8776	8000266c	00dfe733	or	x14,x31,x13	 x31:0x75e05000 x13:0x800025e8 x14=0xf5e075e8
       87785000	      8777	80002670	054000ef	jal	x1,80002670	  x1=0x80002670
       87795000	      8778	00000000	00000013	addi	x0,x0,0	  x0:0x00000000
       87805000	      8779	800026c0	00000013	addi	x0,x0,0	  x0:0x00000000
       87815000	      8780	800026c4	00c000ef	jal	x1,800026c4	  x1=0x800026c4
       87825000	      8781	00000000	00000013	addi	x0,x0,0	  x0:0x00000000
       87835000	      8782	800026cc	00000013	addi	x0,x0,0	  x0:0x00000000
       87845000	      8783	800026d0	fe9ff0ef	jal	x1,800026d0	  x1=0x800026d0
       87855000	      8784	00000000	00000013	addi	x0,x0,0	  x0:0x00000000
       87865000	      8785	800026b4	00000013	addi	x0,x0,0	  x0:0x00000000
       87875000	      8786	800026b8	fddff0ef	jal	x1,800026b8	  x1=0x800026b8
       87885000	      8787	00000000	00000013	addi	x0,x0,0	  x0:0x00000000
       87895000	      8788	80002690	00000013	addi	x0,x0,0	  x0:0x00000000
       87905000	      8789	80002694	02c006ef	jal	x13,80002694	 x13=0x80002694
       87915000	      8790	00000000	00000013	addi	x0,x0,0	  x0:0x00000000
       87925000	      8791	800026bc	00000013	addi	x0,x0,0	  x0:0x00000000
       87935000	      8792	800026c0	fb9ff0ef	jal	x1,800026c0	  x1=0x800026c0
       87945000	      8793	00000000	00000013	addi	x0,x0,0	  x0:0x00000000
       87955000	      8794	80002674	00000013	addi	x0,x0,0	  x0:0x00000000
       87965000	      8795	80002678	010000ef	jal	x1,80002678	  x1=0x80002678
       87975000	      8796	00000000	00000013	addi	x0,x0,0	  x0:0x00000000
       87985000	      8797	80002684	00000013	addi	x0,x0,0	  x0:0x00000000
       87995000	      8798	80002688	004000ef	jal	x1,80002688	  x1=0x80002688
       88005000	      8799	00000000	00000013	addi	x0,x0,0	  x0:0x00000000
       88015000	      8800	80002688	00000013	addi	x0,x0,0	  x0:0x00000000
       88025000	      8801	8000268c	014000ef	jal	x1,8000268c	  x1=0x8000268c
       88035000	      8802	00000000	00000013	addi	x0,x0,0	  x0:0x00000000
       88045000	      8803	8000269c	00000013	addi	x0,x0,0	  x0:0x00000000
       88055000	      8804	800026a0	0040086f	jal	x16,800026a0	 x16=0x800026a0
       88065000	      8805	00000000	00000013	addi	x0,x0,0	  x0:0x00000000
       88075000	      8806	800026a0	00000013	addi	x0,x0,0	  x0:0x00000000
       88085000	      8807	800026a4	ff9ff36f	jal	x6,800026a4	  x6=0x800026a4
       88095000	      8808	00000000	00000013	addi	x0,x0,0	  x0:0x00000000
       88105000	      8809	80002698	00000013	addi	x0,x0,0	  x0:0x00000000
       88115000	      8810	8000269c	038000ef	jal	x1,8000269c	  x1=0x8000269c
       88125000	      8811	00000000	00000013	addi	x0,x0,0	  x0:0x00000000
       88135000	      8812	800026d0	00000013	addi	x0,x0,0	  x0:0x00000000
       88145000	      8813	800026d4	fe1ff0ef	jal	x1,800026d4	  x1=0x800026d4
       88155000	      8814	00000000	00000013	addi	x0,x0,0	  x0:0x00000000
       88165000	      8815	800026b0	00000013	addi	x0,x0,0	  x0:0x00000000
       88175000	      8816	800026b4	008000ef	jal	x1,800026b4	  x1=0x800026b4
       88185000	      8817	00000000	00000013	addi	x0,x0,0	  x0:0x00000000
       88195000	      8818	800026b8	00000013	addi	x0,x0,0	  x0:0x00000000
       88205000	      8819	800026bc	00c000ef	jal	x1,800026bc	  x1=0x800026bc
       88215000	      8820	00000000	00000013	addi	x0,x0,0	  x0:0x00000000
       88225000	      8821	800026c4	00000013	addi	x0,x0,0	  x0:0x00000000
       88235000	      8822	800026c8	fb9fffef	jal	x31,800026c8	 x31=0x800026c8
       88245000	      8823	00000000	00000013	addi	x0,x0,0	  x0:0x00000000
       88255000	      8824	8000267c	00000013	addi	x0,x0,0	  x0:0x00000000
       88265000	      8825	80002680	028000ef	jal	x1,80002680	  x1=0x80002680
       88275000	      8826	00000000	00000013	addi	x0,x0,0	  x0:0x00000000
       88285000	      8827	800026a4	00000013	addi	x0,x0,0	  x0:0x00000000
       88295000	      8828	800026a8	fe9ff36f	jal	x6,800026a8	  x6=0x800026a8
       88305000	      8829	00000000	00000013	addi	x0,x0,0	  x0:0x00000000
       88315000	      8830	8000268c	00000013	addi	x0,x0,0	  x0:0x00000000
       88325000	      8831	80002690	03c0046f	jal	x8,80002690	  x8=0x80002690
       88335000	      8832	00000000	00000013	addi	x0,x0,0	  x0:0x00000000
       88345000	      8833	800026c8	00000013	addi	x0,x0,0	  x0:0x00000000
       88355000	      8834	800026cc	fe1ff36f	jal	x6,800026cc	  x6=0x800026cc
       88365000	      8835	00000000	00000013	addi	x0,x0,0	  x0:0x00000000
       88375000	      8836	800026a8	00000013	addi	x0,x0,0	  x0:0x00000000
       88385000	      8837	800026ac	fd9ff0ef	jal	x1,800026ac	  x1=0x800026ac
       88395000	      8838	00000000	00000013	addi	x0,x0,0	  x0:0x00000000
       88405000	      8839	80002680	00000013	addi	x0,x0,0	  x0:0x00000000
       88415000	      8840	80002684	014000ef	jal	x1,80002684	  x1=0x80002684
       88425000	      8841	00000000	00000013	addi	x0,x0,0	  x0:0x00000000
       88435000	      8842	80002694	00000013	addi	x0,x0,0	  x0:0x00000000
       88445000	      8843	80002698	fe5fffef	jal	x31,80002698	 x31=0x80002698
       88455000	      8844	00000000	00000013	addi	x0,x0,0	  x0:0x00000000
       88465000	      8845	80002678	00000013	addi	x0,x0,0	  x0:0x00000000
       88475000	      8846	8000267c	034000ef	jal	x1,8000267c	  x1=0x8000267c
       88485000	      8847	00000000	00000013	addi	x0,x0,0	  x0:0x00000000
       88495000	      8848	800026ac	00000013	addi	x0,x0,0	  x0:0x00000000
       88505000	      8849	800026b0	fc5ff0ef	jal	x1,800026b0	  x1=0x800026b0
       88515000	      8850	00000000	00000013	addi	x0,x0,0	  x0:0x00000000
       88525000	      8851	80002670	00000013	addi	x0,x0,0	  x0:0x00000000
       88535000	      8852	80002674	064000ef	jal	x1,80002674	  x1=0x80002674
       88545000	      8853	00000000	00000013	addi	x0,x0,0	  x0:0x00000000
       88555000	      8854	800026d4	00000013	addi	x0,x0,0	  x0:0x00000000
       88565000	      8855	800026d8	015da933	slt	x18,x27,x21	 x27:0x80002630 x21:0x80002448 x18=0x00000000
       88575000	      8856	800026dc	001dbdb3	sltu	x27,x27,x1	 x27:0x80002630  x1:0x80002674 x27=0x00000001
       88585000	      8857	800026e0	0145f833	and	x16,x11,x20	 x11:0x800023e0 x20:0x80009f78 x16=0x80000360
       88595000	      8858	800026e4	01ef9813	slli	x16,x31,0x1e	 x31:0x80002698 x16=0x00000000
       88605000	      8859	800026e8	03179c63	bne	x15,x17,80002720	 x15:0x00000000 x17:0x80002618
       88615000	      8860	00000000	00000013	addi	x0,x0,0	  x0:0x00000000
       88625000	      8861	8000271c	00000013	addi	x0,x0,0	  x0:0x00000000
       88635000	      8862	80002720	027de263	bltu	x27,x7,80002744	 x27:0x00000001  x7:0x8000264c
       88645000	      8863	00000000	00000013	addi	x0,x0,0	  x0:0x00000000
       88655000	      8864	80002740	00000013	addi	x0,x0,0	  x0:0x00000000
       88665000	      8865	80002744	2beafc93	andi	x25,x21,702	 x21:0x80002448 x25=0x00000008
       88675000	      8866	80002748	011f8833	add	x16,x31,x17	 x31:0x80002698 x17:0x80002618 x16=0x00004cb0
       88685000	      8867	8000274c	013e8463	beq	x29,x19,80002754	 x29:0x800026d7 x19:0x800024c8
       88695000	      8868	80002750	279ff4b7	lui	x9,0x279ff	  x9=0x279ff000
       88705000	      8869	80002754	01c8dc63	bge	x17,x28,8000276c	 x17:0x80002618 x28:0x8000229c
       88715000	      8870	00000000	00000013	addi	x0,x0,0	  x0:0x00000000
       88725000	      8871	80002768	00000013	addi	x0,x0,0	  x0:0x00000000
       88735000	      8872	8000276c	0040f733	and	x14,x1,x4	  x1:0x80002674  x4:0x800025b8 x14=0x80002430
       88745000	      8873	80002770	003a2933	slt	x18,x20,x3	 x20:0x80009f78  x3:0x80002660 x18=0x00000000
       88755000	      8874	80002774	4137d1b3	sra	x3,x15,x19	 x15:0x00000000 x19:0x800024c8  x3=0x00000000
       88765000	      8875	80002778	4011d893	srai	x17,x3,0x1	  x3:0x00000000 x17=0x00000000
       88775000	      8876	8000277c	011b9e63	bne	x23,x17,80002798	 x23:0x800024d0 x17:0x00000000
       88785000	      8877	00000000	00000013	addi	x0,x0,0	  x0:0x00000000
       88795000	      8878	80002794	00000013	addi	x0,x0,0	  x0:0x00000000
       88805000	      8879	80002798	00da6333	or	x6,x20,x13	 x20:0x80009f78 x13:0x80002694  x6=0x8000bffc
       88815000	      8880	8000279c	00bf9133	sll	x2,x31,x11	 x31:0x80002698 x11:0x800023e0  x2=0x80002698
       88825000	      8881	800027a0	01c96e63	bltu	x18,x28,800027bc	 x18:0x00000000 x28:0x8000229c
       88835000	      8882	00000000	00000013	addi	x0,x0,0	  x0:0x00000000
       88845000	      8883	800027b8	00000013	addi	x0,x0,0	  x0:0x00000000
       88855000	      8884	800027bc	006a7ab3	and	x21,x20,x6	 x20:0x80009f78  x6:0x8000bffc x21=0x80009f78
       88865000	      8885	800027c0	00621693	slli	x13,x4,0x6	  x4:0x800025b8 x13=0x00096e00
       88875000	      8886	800027c4	00bfa2b3	slt	x5,x31,x11	 x31:0x80002698 x11:0x800023e0  x5=0x00000000
       88885000	      8887	800027c8	56facf93	xori	x31,x21,1391	 x21:0x80009f78 x31=0x80009a17
       88895000	      8888	800027cc	02229e63	bne	x5,x2,80002808	  x5:0x00000000  x2:0x80002698
       88905000	      8889	00000000	00000013	addi	x0,x0,0	  x0:0x00000000
       88915000	      8890	80002804	00000013	addi	x0,x0,0	  x0:0x00000000
       88925000	      8891	80002808	417e5b33	sra	x22,x28,x23	 x28:0x8000229c x23:0x800024d0 x22=0xffff8000
       88935000	      8892	8000280c	04a0d663	bge	x1,x10,80002858	  x1:0x80002674 x10:0x9d57209d
       88945000	      8893	80002810	01958333	add	x6,x11,x25	 x11:0x800023e0 x25:0x00000008  x6=0x800023e8
       88955000	      8894	80002814	dd433e93	sltiu	x29,x6,-556	  x6:0x800023e8 x29=0x00000001
       88965000	      8895	80002818	40b05093	srai	x1,x0,0xb	  x0:0x00000000  x1=0x00000000
       88975000	      8896	8000281c	03785a63	bge	x16,x23,80002850	 x16:0x00004cb0 x23:0x800024d0
       88985000	      8897	00000000	00000013	addi	x0,x0,0	  x0:0x00000000
       88995000	      8898	8000284c	00000013	addi	x0,x0,0	  x0:0x00000000
       89005000	      8899	80002850	4d570493	addi	x9,x14,1237	 x14:0x80002430  x9=0x80002905
       89015000	      8900	80002854	402fd493	srai	x9,x31,0x2	 x31:0x80009a17  x9=0xe0002685
       89025000	      8901	80002858	4a9d8b17	auipc	x22,0x4a9d8	 x22=0xca9da854
       89035000	      8902	8000285c	00390463	beq	x18,x3,80002864	 x18:0x00000000  x3:0x00000000
       89045000	      8903	00000000	00000013	addi	x0,x0,0	  x0:0x00000000
       89055000	      8904	80002860	00000013	addi	x0,x0,0	  x0:0x00000000
       89065000	      8905	80002864	007092b3	sll	x5,x1,x7	  x1:0x00000000  x7:0x8000264c  x5=0x00000000
       89075000	      8906	80002868	c548ca93	xori	x21,x17,-940	 x17:0x00000000 x21=0xfffffc54
       89085000	      8907	8000286c	002380b3	add	x1,x7,x2	  x7:0x8000264c  x2:0x80002698  x1=0x00004ce4
       89095000	      8908	80002870	00f89eb3	sll	x29,x17,x15	 x17:0x00000000 x15:0x00000000 x29=0x00000000
       89105000	      8909	80002874	d9437993	andi	x19,x6,-620	  x6:0x800023e8 x19=0x80002180
       89115000	      8910	80002878	5c41fb37	lui	x22,0x5c41f	 x22=0x5c41f000
       89125000	      8911	8000287c	018caeb3	slt	x29,x25,x24	 x25:0x00000008 x24:0x75e05000 x29=0x00000001
       89135000	      8912	80002880	0164b1b3	sltu	x3,x9,x22	  x9:0xe0002685 x22:0x5c41f000  x3=0x00000000
       89145000	      8913	80002884	00000013	addi	x0,x0,0	  x0:0x00000000
       89155000	      8914	80002888	00990263	beq	x18,x9,8000288c	 x18:0x00000000  x9:0xe0002685
       89165000	      8915	8000288c	00041ab3	sll	x21,x8,x0	  x8:0x80002690  x0:0x00000000 x21=0x80002690
       89175000	      8916	80002890	41b40233	sub	x4,x8,x27	  x8:0x80002690 x27:0x00000001  x4=0x8000268f
       89185000	      8917	80002894	00674863	blt	x14,x6,800028a4	 x14:0x80002430  x6:0x800023e8
       89195000	      8918	80002898	b908cb37	lui	x22,0xb908c	 x22=0xb908c000
       89205000	      8919	8000289c	00000013	addi	x0,x0,0	  x0:0x00000000
       89215000	      8920	800028a0	9ed4dfb7	lui	x31,0x9ed4d	 x31=0x9ed4d000
       89225000	      8921	800028a4	c1fdcc13	xori	x24,x27,-993	 x27:0x00000001 x24=0xfffffc1e
       89235000	      8922	800028a8	01cb7433	and	x8,x22,x28	 x22:0xb908c000 x28:0x8000229c  x8=0x80000000
       89245000	      8923	800028ac	40785193	srai	x3,x16,0x7	 x16:0x00004cb0  x3=0x00000099
       89255000	      8924	800028b0	03c41663	bne	x8,x28,800028dc	  x8:0x80000000 x28:0x8000229c
       89265000	      8925	00000000	00000013	addi	x0,x0,0	  x0:0x00000000
       89275000	      8926	800028d8	00000013	addi	x0,x0,0	  x0:0x00000000
       89285000	      8927	800028dc	02a9f663	bgeu	x19,x10,80002908	 x19:0x80002180 x10:0x9d57209d
       89295000	      8928	800028e0	00618463	beq	x3,x6,800028e8	  x3:0x00000099  x6:0x800023e8
       89305000	      8929	800028e4	211a5db7	lui	x27,0x211a5	 x27=0x211a5000
       89315000	      8930	800028e8	4099d2b3	sra	x5,x19,x9	 x19:0x80002180  x9:0xe0002685  x5=0xfc00010c
       89325000	      8931	800028ec	00000013	addi	x0,x0,0	  x0:0x00000000
       89335000	      8932	800028f0	01de9263	bne	x29,x29,800028f4	 x29:0x00000001 x29:0x00000001
       89345000	      8933	800028f4	01addc13	srli	x24,x27,0x1a	 x27:0x211a5000 x24=0x00000008
       89355000	      8934	800028f8	611c6893	ori	x17,x24,1553	 x24:0x00000008 x17=0x00000619
       89365000	      8935	800028fc	00000013	addi	x0,x0,0	  x0:0x00000000
       89375000	      8936	80002900	02c67063	bgeu	x12,x12,80002920	 x12:0x00000000 x12:0x00000000
       89385000	      8937	00000000	00000013	addi	x0,x0,0	  x0:0x00000000
       89395000	      8938	8000291c	00000013	addi	x0,x0,0	  x0:0x00000000
       89405000	      8939	80002920	01afd4b3	srl	x9,x31,x26	 x31:0x9ed4d000 x26:0x8000244c  x9=0x0009ed4d
       89415000	      8940	80002924	042d1063	bne	x26,x2,80002964	 x26:0x8000244c  x2:0x80002698
       89425000	      8941	00000000	00000013	addi	x0,x0,0	  x0:0x00000000
       89435000	      8942	80002960	00000013	addi	x0,x0,0	  x0:0x00000000
       89445000	      8943	80002964	04436063	bltu	x6,x4,800029a4	  x6:0x800023e8  x4:0x8000268f
       89455000	      8944	00000000	00000013	addi	x0,x0,0	  x0:0x00000000
       89465000	      8945	800029a0	00000013	addi	x0,x0,0	  x0:0x00000000
       89475000	      8946	800029a4	dcd57713	andi	x14,x10,-563	 x10:0x9d57209d x14=0x9d57208d
       89485000	      8947	800029a8	00000013	addi	x0,x0,0	  x0:0x00000000
       89495000	      8948	800029ac	01c0a233	slt	x4,x1,x28	  x1:0x00004ce4 x28:0x8000229c  x4=0x00000000
       89505000	      8949	800029b0	01ea0733	add	x14,x20,x30	 x20:0x80009f78 x30:0x80009fc4 x14=0x00013f3c
       89515000	      8950	800029b4	00bc9593	slli	x11,x25,0xb	 x25:0x00000008 x11=0x00004000
       89525000	      8951	800029b8	40b6d1b3	sra	x3,x13,x11	 x13:0x00096e00 x11:0x00004000  x3=0x00096e00
       89535000	      8952	800029bc	7f7d4713	xori	x14,x26,2039	 x26:0x8000244c x14=0x800023bb
       89545000	      8953	800029c0	012e45b3	xor	x11,x28,x18	 x28:0x8000229c x18:0x00000000 x11=0x8000229c
       89555000	      8954	800029c4	00bb4cb3	xor	x25,x22,x11	 x22:0xb908c000 x11:0x8000229c x25=0x3908e29c
       89565000	      8955	800029c8	01e8f933	and	x18,x17,x30	 x17:0x00000619 x30:0x80009fc4 x18=0x00000600
       89575000	      8956	800029cc	8cb22a97	auipc	x21,0x8cb22	 x21=0x0cb249c8
       89585000	      8957	800029d0	152d8413	addi	x8,x27,338	 x27:0x211a5000  x8=0x211a5152
       89595000	      8958	800029d4	6a3cad93	slti	x27,x25,1699	 x25:0x3908e29c x27=0x00000000
       89605000	      8959	800029d8	6e1da913	slti	x18,x27,1761	 x27:0x00000000 x18=0x00000001
       89615000	      8960	800029dc	006408b3	add	x17,x8,x6	  x8:0x211a5152  x6:0x800023e8 x17=0xa11a753a
       89625000	      8961	800029e0	7b51bf97	auipc	x31,0x7b51b	 x31=0xfb51d9dc
       89635000	      8962	800029e4	00000013	addi	x0,x0,0	  x0:0x00000000
       89645000	      8963	800029e8	02a1f263	bgeu	x3,x10,80002a0c	  x3:0x00096e00 x10:0x9d57209d
       89655000	      8964	800029ec	00ce9013	slli	x0,x29,0xc	 x29:0x00000001
       89665000	      8965	800029f0	019d2033	slt	x0,x26,x25	 x26:0x8000244c x25:0x3908e29c
       89675000	      8966	800029f4	00b3f133	and	x2,x7,x11	  x7:0x8000264c x11:0x8000229c  x2=0x8000220c
       89685000	      8967	800029f8	01a60a63	beq	x12,x26,80002a0c	 x12:0x00000000 x26:0x8000244c
       89695000	      8968	800029fc	0047d113	srli	x2,x15,0x4	 x15:0x00000000  x2=0x00000000
       89705000	      8969	80002a00	060e6c63	bltu	x28,x0,80002a78	 x28:0x8000229c  x0:0x00000000
       89715000	      8970	80002a04	405f51b3	sra	x3,x30,x5	 x30:0x80009fc4  x5:0xfc00010c  x3=0xfff80009
       89725000	      8971	80002a08	40e55433	sra	x8,x10,x14	 x10:0x9d57209d x14:0x800023bb  x8=0xfffffff3
       89735000	      8972	80002a0c	00fd75b3	and	x11,x26,x15	 x26:0x8000244c x15:0x00000000 x11=0x00000000
       89745000	      8973	80002a10	01f38fb3	add	x31,x7,x31	  x7:0x8000264c x31:0xfb51d9dc x31=0x7b520028
       89755000	      8974	80002a14	010b7d33	and	x26,x22,x16	 x22:0xb908c000 x16:0x00004cb0 x26=0x00004000
       89765000	      8975	80002a18	007ed433	srl	x8,x29,x7	 x29:0x00000001  x7:0x8000264c  x8=0x00000000
       89775000	      8976	80002a1c	051d0e63	beq	x26,x17,80002a78	 x26:0x00004000 x17:0xa11a753a
       89785000	      8977	80002a20	e1563493	sltiu	x9,x12,-491	 x12:0x00000000  x9=0x00000001
       89795000	      8978	80002a24	13560a93	addi	x21,x12,309	 x12:0x00000000 x21=0x00000135
       89805000	      8979	80002a28	581da313	slti	x6,x27,1409	 x27:0x00000000  x6=0x00000001
       89815000	      8980	80002a2c	40790533	sub	x10,x18,x7	 x18:0x00000001  x7:0x8000264c x10=0x7fffd9b5
       89825000	      8981	80002a30	0751d463	bge	x3,x21,80002a98	  x3:0xfff80009 x21:0x00000135
       89835000	      8982	80002a34	0134a033	slt	x0,x9,x19	  x9:0x00000001 x19:0x80002180
       89845000	      8983	80002a38	069b9063	bne	x23,x9,80002a98	 x23:0x800024d0  x9:0x00000001
       89855000	      8984	00000000	00000013	addi	x0,x0,0	  x0:0x00000000
       89865000	      8985	80002a94	00000013	addi	x0,x0,0	  x0:0x00000000
       89875000	      8986	80002a98	0194d833	srl	x16,x9,x25	  x9:0x00000001 x25:0x3908e29c x16=0x00000000
       89885000	      8987	80002a9c	04066463	bltu	x12,x0,80002ae4	 x12:0x00000000  x0:0x00000000
       89895000	      8988	80002aa0	01091213	slli	x4,x18,0x10	 x18:0x00000001  x4=0x00010000
       89905000	      8989	80002aa4	019b7e63	bgeu	x22,x25,80002ac0	 x22:0xb908c000 x25:0x3908e29c
       89915000	      8990	00000000	00000013	addi	x0,x0,0	  x0:0x00000000
       89925000	      8991	80002abc	00000013	addi	x0,x0,0	  x0:0x00000000
       89935000	      8992	80002ac0	b9c62e13	slti	x28,x12,-1124	 x12:0x00000000 x28=0x00000000
       89945000	      8993	80002ac4	4ab0eb93	ori	x23,x1,1195	  x1:0x00004ce4 x23=0x00004cef
       89955000	      8994	80002ac8	5108bc37	lui	x24,0x5108b	 x24=0x5108b000
       89965000	      8995	80002acc	40cdd7b3	sra	x15,x27,x12	 x27:0x00000000 x12:0x00000000 x15=0x00000000
       89975000	      8996	80002ad0	00e21493	slli	x9,x4,0xe	  x4:0x00010000  x9=0x40000000
       89985000	      8997	80002ad4	00516e63	bltu	x2,x5,80002af0	  x2:0x00000000  x5:0xfc00010c
       89995000	      8998	00000000	00000013	addi	x0,x0,0	  x0:0x00000000
       90005000	      8999	80002aec	00000013	addi	x0,x0,0	  x0:0x00000000
       90015000	      9000	80002af0	00067c63	bgeu	x12,x0,80002b08	 x12:0x00000000  x0:0x00000000
       90025000	      9001	00000000	00000013	addi	x0,x0,0	  x0:0x00000000
       90035000	      9002	80002b04	00000013	addi	x0,x0,0	  x0:0x00000000
       90045000	      9003	80002b08	010d30b3	sltu	x1,x26,x16	 x26:0x00004000 x16:0x00000000  x1=0x00000000
       90055000	      9004	80002b0c	01344bb3	xor	x23,x8,x19	  x8:0x00000000 x19:0x80002180 x23=0x80002180
       90065000	      9005	80002b10	400e8bb3	sub	x23,x29,x0	 x29:0x00000001  x0:0x00000000 x23=0x00000001
       90075000	      9006	80002b14	010c5263	bge	x24,x16,80002b18	 x24:0x5108b000 x16:0x00000000
       90085000	      9007	00000000	00000013	addi	x0,x0,0	  x0:0x00000000
       90095000	      9008	80002b14	00000013	addi	x0,x0,0	  x0:0x00000000
       90105000	      9009	80002b18	029fd463	bge	x31,x9,80002b40	 x31:0x7b520028  x9:0x40000000
       90115000	      9010	00000000	00000013	addi	x0,x0,0	  x0:0x00000000
       90125000	      9011	80002b3c	00000013	addi	x0,x0,0	  x0:0x00000000
       90135000	      9012	80002b40	01b27cb3	and	x25,x4,x27	  x4:0x00010000 x27:0x00000000 x25=0x00000000
       90145000	      9013	80002b44	88929917	auipc	x18,0x88929	 x18=0x0892bb40
       90155000	      9014	80002b48	010a1863	bne	x20,x16,80002b58	 x20:0x80009f78 x16:0x00000000
       90165000	      9015	00000000	00000013	addi	x0,x0,0	  x0:0x00000000
       90175000	      9016	80002b54	00000013	addi	x0,x0,0	  x0:0x00000000
       90185000	      9017	80002b58	014c0433	add	x8,x24,x20	 x24:0x5108b000 x20:0x80009f78  x8=0xd1094f78
       90195000	      9018	80002b5c	01a8c0b3	xor	x1,x17,x26	 x17:0xa11a753a x26:0x00004000  x1=0xa11a353a
       90205000	      9019	80002b60	41f0d4b3	sra	x9,x1,x31	  x1:0xa11a353a x31:0x7b520028  x9=0xffa11a35
       90215000	      9020	80002b64	de3a7213	andi	x4,x20,-541	 x20:0x80009f78  x4=0x80009d60
       90225000	      9021	80002b68	00000013	addi	x0,x0,0	  x0:0x00000000
       90235000	      9022	80002b6c	7d0aa113	slti	x2,x21,2000	 x21:0x00000135  x2=0x00000001
       90245000	      9023	80002b70	04896863	bltu	x18,x8,80002bc0	 x18:0x0892bb40  x8:0xd1094f78
       90255000	      9024	00000000	00000013	addi	x0,x0,0	  x0:0x00000000
       90265000	      9025	80002bbc	00000013	addi	x0,x0,0	  x0:0x00000000
       90275000	      9026	80002bc0	05a6d063	bge	x13,x26,80002c00	 x13:0x00096e00 x26:0x00004000
       90285000	      9027	00000000	00000013	addi	x0,x0,0	  x0:0x00000000
       90295000	      9028	80002bfc	00000013	addi	x0,x0,0	  x0:0x00000000
       90305000	      9029	80002c00	00000013	addi	x0,x0,0	  x0:0x00000000
       90315000	      9030	80002c04	0161ee33	or	x28,x3,x22	  x3:0xfff80009 x22:0xb908c000 x28=0xfff8c009
       90325000	      9031	80002c08	40ff5cb3	sra	x25,x30,x15	 x30:0x80009fc4 x15:0x00000000 x25=0x80009fc4
       90335000	      9032	80002c0c	41b706b3	sub	x13,x14,x27	 x14:0x800023bb x27:0x00000000 x13=0x800023bb
       90345000	      9033	80002c10	00d20433	add	x8,x4,x13	  x4:0x80009d60 x13:0x800023bb  x8=0x0000c11b
       90355000	      9034	80002c14	938b2413	slti	x8,x22,-1736	 x22:0xb908c000  x8=0x00000001
       90365000	      9035	80002c18	f646c713	xori	x14,x13,-156	 x13:0x800023bb x14=0x7fffdcdf
       90375000	      9036	80002c1c	152e0213	addi	x4,x28,338	 x28:0xfff8c009  x4=0xfff8c15b
       90385000	      9037	80002c20	18243093	sltiu	x1,x8,386	  x8:0x00000001  x1=0x00000001
       90395000	      9038	80002c24	8a5a8293	addi	x5,x21,-1883	 x21:0x00000135  x5=0xfffff9da
       90405000	      9039	80002c28	402ddb33	sra	x22,x27,x2	 x27:0x00000000  x2:0x00000001 x22=0x00000000
       90415000	      9040	80002c2c	01309113	slli	x2,x1,0x13	  x1:0x00000001  x2=0x00080000
       90425000	      9041	80002c30	01ba28b3	slt	x17,x20,x27	 x20:0x80009f78 x27:0x00000000 x17=0x00000001
       90435000	      9042	80002c34	9b33ac13	slti	x24,x7,-1613	  x7:0x8000264c x24=0x00000001
       90445000	      9043	80002c38	00000013	addi	x0,x0,0	  x0:0x00000000
       90455000	      9044	80002c3c	d0964097	auipc	x1,0xd0964	  x1=0x50966c38
       90465000	      9045	80002c40	013b95b3	sll	x11,x23,x19	 x23:0x00000001 x19:0x80002180 x11=0x00000001
       90475000	      9046	80002c44	00000013	addi	x0,x0,0	  x0:0x00000000
       90485000	      9047	80002c48	00b1dc13	srli	x24,x3,0xb	  x3:0xfff80009 x24=0x001fff00
       90495000	      9048	80002c4c	00809493	slli	x9,x1,0x8	  x1:0x50966c38  x9=0x966c3800
       90505000	      9049	80002c50	00000013	addi	x0,x0,0	  x0:0x00000000
       90515000	      9050	80002c54	00000013	addi	x0,x0,0	  x0:0x00000000
       90525000	      9051	80002c58	03b69663	bne	x13,x27,80002c84	 x13:0x800023bb x27:0x00000000
       90535000	      9052	00000000	00000013	addi	x0,x0,0	  x0:0x00000000
       90545000	      9053	80002c80	00000013	addi	x0,x0,0	  x0:0x00000000
       90555000	      9054	80002c84	012f9e93	slli	x29,x31,0x12	 x31:0x7b520028 x29=0x00a00000
       90565000	      9055	80002c88	26548913	addi	x18,x9,613	  x9:0x966c3800 x18=0x966c3a65
       90575000	      9056	80002c8c	8b87fb93	andi	x23,x15,-1864	 x15:0x00000000 x23=0x00000000
       90585000	      9057	80002c90	03bce663	bltu	x25,x27,80002cbc	 x25:0x80009fc4 x27:0x00000000
       90595000	      9058	80002c94	01581313	slli	x6,x16,0x15	 x16:0x00000000  x6=0x00000000
       90605000	      9059	80002c98	e3950f93	addi	x31,x10,-455	 x10:0x7fffd9b5 x31=0x7fffd7ee
       90615000	      9060	80002c9c	01e847b3	xor	x15,x16,x30	 x16:0x00000000 x30:0x80009fc4 x15=0x80009fc4
       90625000	      9061	80002ca0	7fdef713	andi	x14,x29,2045	 x29:0x00a00000 x14=0x00000000
       90635000	      9062	80002ca4	e9476e93	ori	x29,x14,-364	 x14:0x00000000 x29=0xfffffe94
       90645000	      9063	80002ca8	00e159b3	srl	x19,x2,x14	  x2:0x00080000 x14:0x00000000 x19=0x00080000
       90655000	      9064	80002cac	01a9a9b3	slt	x19,x19,x26	 x19:0x00080000 x26:0x00004000 x19=0x00000000
       90665000	      9065	80002cb0	4a3dd4b7	lui	x9,0x4a3dd	  x9=0x4a3dd000
       90675000	      9066	80002cb4	01329b93	slli	x23,x5,0x13	  x5:0xfffff9da x23=0xced00000
       90685000	      9067	80002cb8	f207c093	xori	x1,x15,-224	 x15:0x80009fc4  x1=0x7fff60e4
       90695000	      9068	80002cbc	00560e33	add	x28,x12,x5	 x12:0x00000000  x5:0xfffff9da x28=0xfffff9da
       90705000	      9069	80002cc0	001d0c33	add	x24,x26,x1	 x26:0x00004000  x1:0x7fff60e4 x24=0x7fffa0e4
       90715000	      9070	80002cc4	01e2e533	or	x10,x5,x30	  x5:0xfffff9da x30:0x80009fc4 x10=0xffffffde
       90725000	      9071	80002cc8	40ebdab3	sra	x21,x23,x14	 x23:0xced00000 x14:0x00000000 x21=0xced00000
       90735000	      9072	80002ccc	88433793	sltiu	x15,x6,-1916	  x6:0x00000000 x15=0x00000001
       90745000	      9073	80002cd0	036bd263	bge	x23,x22,80002cf4	 x23:0xced00000 x22:0x00000000
       90755000	      9074	80002cd4	00000013	addi	x0,x0,0	  x0:0x00000000
       90765000	      9075	80002cd8	0031d013	srli	x0,x3,0x3	  x3:0xfff80009
       90775000	      9076	80002cdc	d657bc93	sltiu	x25,x15,-667	 x15:0x00000001 x25=0x00000001
       90785000	      9077	80002ce0	416453b3	sra	x7,x8,x22	  x8:0x00000001 x22:0x00000000  x7=0x00000001
       90795000	      9078	80002ce4	0039b533	sltu	x10,x19,x3	 x19:0x00000000  x3:0xfff80009 x10=0x00000001
       90805000	      9079	80002ce8	40fa0bb3	sub	x23,x20,x15	 x20:0x80009f78 x15:0x00000001 x23=0x80009f77
       90815000	      9080	80002cec	018c4333	xor	x6,x24,x24	 x24:0x7fffa0e4 x24:0x7fffa0e4  x6=0x00000000
       90825000	      9081	80002cf0	411707b3	sub	x15,x14,x17	 x14:0x00000000 x17:0x00000001 x15=0xffffffff
       90835000	      9082	80002cf4	00c69e63	bne	x13,x12,80002d10	 x13:0x800023bb x12:0x00000000
       90845000	      9083	00000000	00000013	addi	x0,x0,0	  x0:0x00000000
       90855000	      9084	80002d0c	00000013	addi	x0,x0,0	  x0:0x00000000
       90865000	      9085	80002d10	883c0c13	addi	x24,x24,-1917	 x24:0x7fffa0e4 x24=0x7fff9967
       90875000	      9086	80002d14	61484593	xori	x11,x16,1556	 x16:0x00000000 x11=0x00000614
       90885000	      9087	80002d18	00d9c0b3	xor	x1,x19,x13	 x19:0x00000000 x13:0x800023bb  x1=0x800023bb
       90895000	      9088	80002d1c	9776e493	ori	x9,x13,-1673	 x13:0x800023bb  x9=0xfffffbff
       90905000	      9089	80002d20	016dc263	blt	x27,x22,80002d24	 x27:0x00000000 x22:0x00000000
       90915000	      9090	80002d24	0103e233	or	x4,x7,x16	  x7:0x00000001 x16:0x00000000  x4=0x00000001
       90925000	      9091	80002d28	00000013	addi	x0,x0,0	  x0:0x00000000
       90935000	      9092	80002d2c	01e84db3	xor	x27,x16,x30	 x16:0x00000000 x30:0x80009fc4 x27=0x80009fc4
       90945000	      9093	80002d30	0143f9b3	and	x19,x7,x20	  x7:0x00000001 x20:0x80009f78 x19=0x00000000
       90955000	      9094	80002d34	01ecb8b3	sltu	x17,x25,x30	 x25:0x00000001 x30:0x80009fc4 x17=0x00000001
       90965000	      9095	80002d38	01871293	slli	x5,x14,0x18	 x14:0x00000000  x5=0x00000000
       90975000	      9096	80002d3c	00bc7bb3	and	x23,x24,x11	 x24:0x7fff9967 x11:0x00000614 x23=0x00000004
       90985000	      9097	80002d40	008d76b3	and	x13,x26,x8	 x26:0x00004000  x8:0x00000001 x13=0x00000000
       90995000	      9098	80002d44	05817463	bgeu	x2,x24,80002d8c	  x2:0x00080000 x24:0x7fff9967
       91005000	      9099	80002d48	01545e63	bge	x8,x21,80002d64	  x8:0x00000001 x21:0xced00000
       91015000	      9100	00000000	00000013	addi	x0,x0,0	  x0:0x00000000
       91025000	      9101	80002d60	00000013	addi	x0,x0,0	  x0:0x00000000
       91035000	      9102	80002d64	402205b3	sub	x11,x4,x2	  x4:0x00000001  x2:0x00080000 x11=0xfff80001
       91045000	      9103	80002d68	022cd463	bge	x25,x2,80002d90	 x25:0x00000001  x2:0x00080000
       91055000	      9104	80002d6c	011d3833	sltu	x16,x26,x17	 x26:0x00004000 x17:0x00000001 x16=0x00000000
       91065000	      9105	80002d70	21e65697	auipc	x13,0x21e65	 x13=0xa1e67d6c
       91075000	      9106	80002d74	00048463	beq	x9,x0,80002d7c	  x9:0xfffffbff  x0:0x00000000
       91085000	      9107	80002d78	40e557b3	sra	x15,x10,x14	 x10:0x00000001 x14:0x00000000 x15=0x00000001
       91095000	      9108	80002d7c	01f2a8b3	slt	x17,x5,x31	  x5:0x00000000 x31:0x7fffd7ee x17=0x00000001
       91105000	      9109	80002d80	00000013	addi	x0,x0,0	  x0:0x00000000
       91115000	      9110	80002d84	40d08ab3	sub	x21,x1,x13	  x1:0x800023bb x13:0xa1e67d6c x21=0xde19a64f
       91125000	      9111	80002d88	00973333	sltu	x6,x14,x9	 x14:0x00000000  x9:0xfffffbff  x6=0x00000001
       91135000	      9112	80002d8c	0336c463	blt	x13,x19,80002db4	 x13:0xa1e67d6c x19:0x00000000
       91145000	      9113	00000000	00000013	addi	x0,x0,0	  x0:0x00000000
       91155000	      9114	80002db0	00000013	addi	x0,x0,0	  x0:0x00000000
       91165000	      9115	80002db4	005c5ab3	srl	x21,x24,x5	 x24:0x7fff9967  x5:0x00000000 x21=0x7fff9967
       91175000	      9116	80002db8	018ee0b3	or	x1,x29,x24	 x29:0xfffffe94 x24:0x7fff9967  x1=0xfffffff7
       91185000	      9117	80002dbc	01577e33	and	x28,x14,x21	 x14:0x00000000 x21:0x7fff9967 x28=0x00000000
       91195000	      9118	80002dc0	02418063	beq	x3,x4,80002de0	  x3:0xfff80009  x4:0x00000001
       91205000	      9119	80002dc4	052ce463	bltu	x25,x18,80002e0c	 x25:0x00000001 x18:0x966c3a65
       91215000	      9120	00000000	00000013	addi	x0,x0,0	  x0:0x00000000
       91225000	      9121	80002e08	00000013	addi	x0,x0,0	  x0:0x00000000
       91235000	      9122	80002e0c	01b35cb3	srl	x25,x6,x27	  x6:0x00000001 x27:0x80009fc4 x25=0x00000000
       91245000	      9123	80002e10	005d1e33	sll	x28,x26,x5	 x26:0x00004000  x5:0x00000000 x28=0x00004000
       91255000	      9124	80002e14	01c7ec63	bltu	x15,x28,80002e2c	 x15:0x00000001 x28:0x00004000
       91265000	      9125	00000000	00000013	addi	x0,x0,0	  x0:0x00000000
       91275000	      9126	80002e28	00000013	addi	x0,x0,0	  x0:0x00000000
       91285000	      9127	80002e2c	a0a74797	auipc	x15,0xa0a74	 x15=0x20a76e28
       91295000	      9128	80002e30	01b71f93	slli	x31,x14,0x1b	 x14:0x00000000 x31=0x00000000
       91305000	      9129	80002e34	06ebbb93	sltiu	x23,x23,110	 x23:0x00000004 x23=0x00000001
       91315000	      9130	80002e38	015b5e63	bge	x22,x21,80002e54	 x22:0x00000000 x21:0x7fff9967
       91325000	      9131	80002e3c	1b19d0b7	lui	x1,0x1b19d	  x1=0x1b19d000
       91335000	      9132	80002e40	65eb7113	andi	x2,x22,1630	 x22:0x00000000  x2=0x00000000
       91345000	      9133	80002e44	3bc32717	auipc	x14,0x3bc32	 x14=0xbbc34e40
       91355000	      9134	80002e48	015c4263	blt	x24,x21,80002e4c	 x24:0x7fff9967 x21:0x7fff9967
       91365000	      9135	80002e4c	eb30af93	slti	x31,x1,-333	  x1:0x1b19d000 x31=0x00000000
       91375000	      9136	80002e50	41e95093	srai	x1,x18,0x1e	 x18:0x966c3a65  x1=0xfffffffe
       91385000	      9137	80002e54	00484bb3	xor	x23,x16,x4	 x16:0x00000000  x4:0x00000001 x23=0x00000001
       91395000	      9138	80002e58	1504b893	sltiu	x17,x9,336	  x9:0xfffffbff x17=0x00000000
       91405000	      9139	80002e5c	851b8513	addi	x10,x23,-1967	 x23:0x00000001 x10=0xfffff852
       91415000	      9140	80002e60	00000013	addi	x0,x0,0	  x0:0x00000000
       91425000	      9141	80002e64	00bc72b3	and	x5,x24,x11	 x24:0x7fff9967 x11:0xfff80001  x5=0x7ff80001
       91435000	      9142	80002e68	00da7db3	and	x27,x20,x13	 x20:0x80009f78 x13:0xa1e67d6c x27=0x80001d68
       91445000	      9143	80002e6c	00e94333	xor	x6,x18,x14	 x18:0x966c3a65 x14:0xbbc34e40  x6=0x2daf7425
       91455000	      9144	80002e70	0ef80d93	addi	x27,x16,239	 x16:0x00000000 x27=0x000000ef
       91465000	      9145	80002e74	01b8d8b3	srl	x17,x17,x27	 x17:0x00000000 x27:0x000000ef x17=0x00000000
       91475000	      9146	80002e78	003fe4b3	or	x9,x31,x3	 x31:0x00000000  x3:0xfff80009  x9=0xfff80009
       91485000	      9147	80002e7c	00650eb3	add	x29,x10,x6	 x10:0xfffff852  x6:0x2daf7425 x29=0x2daf6c77
       91495000	      9148	80002e80	89166393	ori	x7,x12,-1903	 x12:0x00000000  x7=0xfffff891
       91505000	      9149	80002e84	01476033	or	x0,x14,x20	 x14:0xbbc34e40 x20:0x80009f78
       91515000	      9150	80002e88	40468833	sub	x16,x13,x4	 x13:0xa1e67d6c  x4:0x00000001 x16=0xa1e67d6b
       91525000	      9151	80002e8c	026a7a63	bgeu	x20,x6,80002ec0	 x20:0x80009f78  x6:0x2daf7425
       91535000	      9152	00000000	00000013	addi	x0,x0,0	  x0:0x00000000
       91545000	      9153	80002ebc	00000013	addi	x0,x0,0	  x0:0x00000000
       91555000	      9154	80002ec0	da8b0813	addi	x16,x22,-600	 x22:0x00000000 x16=0xfffffda8
       91565000	      9155	80002ec4	408b54b3	sra	x9,x22,x8	 x22:0x00000000  x8:0x00000001  x9=0x00000000
       91575000	      9156	80002ec8	230d3037	lui	x0,0x230d3	
       91585000	      9157	80002ecc	00d2d263	bge	x5,x13,80002ed0	  x5:0x7ff80001 x13:0xa1e67d6c
       91595000	      9158	00000000	00000013	addi	x0,x0,0	  x0:0x00000000
       91605000	      9159	80002ecc	00000013	addi	x0,x0,0	  x0:0x00000000
       91615000	      9160	80002ed0	aefe2e93	slti	x29,x28,-1297	 x28:0x00004000 x29=0x00000000
       91625000	      9161	80002ed4	7b57a493	slti	x9,x15,1973	 x15:0x20a76e28  x9=0x00000000
       91635000	      9162	80002ed8	40c75933	sra	x18,x14,x12	 x14:0xbbc34e40 x12:0x00000000 x18=0xbbc34e40
       91645000	      9163	80002edc	be3f0193	addi	x3,x30,-1053	 x30:0x80009fc4  x3=0x80009ba7
       91655000	      9164	80002ee0	01af8db3	add	x27,x31,x26	 x31:0x00000000 x26:0x00004000 x27=0x00004000
       91665000	      9165	80002ee4	04425063	bge	x4,x4,80002f24	  x4:0x00000001  x4:0x00000001
       91675000	      9166	00000000	00000013	addi	x0,x0,0	  x0:0x00000000
       91685000	      9167	80002f20	00000013	addi	x0,x0,0	  x0:0x00000000
       91695000	      9168	80002f24	01e5d833	srl	x16,x11,x30	 x11:0xfff80001 x30:0x80009fc4 x16=0x0fff8000
       91705000	      9169	80002f28	03114263	blt	x2,x17,80002f4c	  x2:0x00000000 x17:0x00000000
       91715000	      9170	80002f2c	004195b3	sll	x11,x3,x4	  x3:0x80009ba7  x4:0x00000001 x11=0x0001374e
       91725000	      9171	80002f30	c6d5b013	sltiu	x0,x11,-915	 x11:0x0001374e
       91735000	      9172	80002f34	00a73d33	sltu	x26,x14,x10	 x14:0xbbc34e40 x10:0xfffff852 x26=0x00000001
       91745000	      9173	80002f38	01f05a63	bge	x0,x31,80002f4c	  x0:0x00000000 x31:0x00000000
       91755000	      9174	00000000	00000013	addi	x0,x0,0	  x0:0x00000000
       91765000	      9175	80002f48	00000013	addi	x0,x0,0	  x0:0x00000000
       91775000	      9176	80002f4c	c07f2b93	slti	x23,x30,-1017	 x30:0x80009fc4 x23=0x00000001
       91785000	      9177	80002f50	28ddff93	andi	x31,x27,653	 x27:0x00004000 x31=0x00000000
       91795000	      9178	80002f54	00fa86b3	add	x13,x21,x15	 x21:0x7fff9967 x15:0x20a76e28 x13=0xa0a7078f
       91805000	      9179	80002f58	004a2083	lw	x1,4(x20)	 x20:0x80009f78  x1=0x80000160 PA:0x80009f7c
       91815000	      9180	80002f5c	01cf6833	or	x16,x30,x28	 x30:0x80009fc4 x28:0x00004000 x16=0x8000dfc4
       91825000	      9181	80002f60	00bd1693	slli	x13,x26,0xb	 x26:0x00000001 x13=0x00000800
       91835000	      9182	80002f64	01e5d393	srli	x7,x11,0x1e	 x11:0x0001374e  x7=0x00000000
       91845000	      9183	80002f68	01815fb3	srl	x31,x2,x24	  x2:0x00000000 x24:0x7fff9967 x31=0x00000000
       91855000	      9184	80002f6c	01894cb3	xor	x25,x18,x24	 x18:0xbbc34e40 x24:0x7fff9967 x25=0xc43cd727
       91865000	      9185	80002f70	00ca0a13	addi	x20,x20,12	 x20:0x80009f78 x20=0x80009f84
       91875000	      9186	80002f74	015fd933	srl	x18,x31,x21	 x31:0x00000000 x21:0x7fff9967 x18=0x00000000
       91885000	      9187	80002f78	00108313	addi	x6,x1,1	  x1:0x80000160  x6=0x80000161
       91895000	      9188	80002f7c	00030367	jalr	x6,x6,0	  x6:0x80000161  x6=0x80002f7c
       91905000	      9189	00000000	00000013	addi	x0,x0,0	  x0:0x00000000
       91915000	      9190	80000160	00000013	addi	x0,x0,0	  x0:0x00000000
       91925000	      9191	80000164	008000ef	jal	x1,80000164	  x1=0x80000164
       91935000	      9192	00000000	00000013	addi	x0,x0,0	  x0:0x00000000
       91945000	      9193	80000168	00000013	addi	x0,x0,0	  x0:0x00000000
       91955000	      9194	8000016c	014000ef	jal	x1,8000016c	  x1=0x8000016c
       91965000	      9195	00000000	00000013	addi	x0,x0,0	  x0:0x00000000
       91975000	      9196	8000017c	00000013	addi	x0,x0,0	  x0:0x00000000
       91985000	      9197	80000180	ff1ff0ef	jal	x1,80000180	  x1=0x80000180
       91995000	      9198	00000000	00000013	addi	x0,x0,0	  x0:0x00000000
       92005000	      9199	8000016c	00000013	addi	x0,x0,0	  x0:0x00000000
       92015000	      9200	80000170	ff9ff0ef	jal	x1,80000170	  x1=0x80000170
       92025000	      9201	00000000	00000013	addi	x0,x0,0	  x0:0x00000000
       92035000	      9202	80000164	00000013	addi	x0,x0,0	  x0:0x00000000
       92045000	      9203	80000168	04800fef	jal	x31,80000168	 x31=0x80000168
       92055000	      9204	00000000	00000013	addi	x0,x0,0	  x0:0x00000000
       92065000	      9205	800001ac	00000013	addi	x0,x0,0	  x0:0x00000000
       92075000	      9206	800001b0	fe1ff26f	jal	x4,800001b0	  x4=0x800001b0
       92085000	      9207	00000000	00000013	addi	x0,x0,0	  x0:0x00000000
       92095000	      9208	8000018c	00000013	addi	x0,x0,0	  x0:0x00000000
       92105000	      9209	80000190	010000ef	jal	x1,80000190	  x1=0x80000190
       92115000	      9210	00000000	00000013	addi	x0,x0,0	  x0:0x00000000
       92125000	      9211	8000019c	00000013	addi	x0,x0,0	  x0:0x00000000
       92135000	      9212	800001a0	0140016f	jal	x2,800001a0	  x2=0x800001a0
       92145000	      9213	00000000	00000013	addi	x0,x0,0	  x0:0x00000000
       92155000	      9214	800001b0	00000013	addi	x0,x0,0	  x0:0x00000000
       92165000	      9215	800001b4	ff9ff0ef	jal	x1,800001b4	  x1=0x800001b4
       92175000	      9216	00000000	00000013	addi	x0,x0,0	  x0:0x00000000
       92185000	      9217	800001a8	00000013	addi	x0,x0,0	  x0:0x00000000
       92195000	      9218	800001ac	ff1ffd6f	jal	x26,800001ac	 x26=0x800001ac
       92205000	      9219	00000000	00000013	addi	x0,x0,0	  x0:0x00000000
       92215000	      9220	80000198	00000013	addi	x0,x0,0	  x0:0x00000000
       92225000	      9221	8000019c	008000ef	jal	x1,8000019c	  x1=0x8000019c
       92235000	      9222	00000000	00000013	addi	x0,x0,0	  x0:0x00000000
       92245000	      9223	800001a0	00000013	addi	x0,x0,0	  x0:0x00000000
       92255000	      9224	800001a4	fe1ff0ef	jal	x1,800001a4	  x1=0x800001a4
       92265000	      9225	00000000	00000013	addi	x0,x0,0	  x0:0x00000000
       92275000	      9226	80000180	00000013	addi	x0,x0,0	  x0:0x00000000
       92285000	      9227	80000184	0340036f	jal	x6,80000184	  x6=0x80000184
       92295000	      9228	00000000	00000013	addi	x0,x0,0	  x0:0x00000000
       92305000	      9229	800001b4	00000013	addi	x0,x0,0	  x0:0x00000000
       92315000	      9230	800001b8	fddff36f	jal	x6,800001b8	  x6=0x800001b8
       92325000	      9231	00000000	00000013	addi	x0,x0,0	  x0:0x00000000
       92335000	      9232	80000190	00000013	addi	x0,x0,0	  x0:0x00000000
       92345000	      9233	80000194	004000ef	jal	x1,80000194	  x1=0x80000194
       92355000	      9234	00000000	00000013	addi	x0,x0,0	  x0:0x00000000
       92365000	      9235	80000194	00000013	addi	x0,x0,0	  x0:0x00000000
       92375000	      9236	80000198	fe5ff36f	jal	x6,80000198	  x6=0x80000198
       92385000	      9237	00000000	00000013	addi	x0,x0,0	  x0:0x00000000
       92395000	      9238	80000178	00000013	addi	x0,x0,0	  x0:0x00000000
       92405000	      9239	8000017c	0100036f	jal	x6,8000017c	  x6=0x8000017c
       92415000	      9240	00000000	00000013	addi	x0,x0,0	  x0:0x00000000
       92425000	      9241	80000188	00000013	addi	x0,x0,0	  x0:0x00000000
       92435000	      9242	8000018c	01c0026f	jal	x4,8000018c	  x4=0x8000018c
       92445000	      9243	00000000	00000013	addi	x0,x0,0	  x0:0x00000000
       92455000	      9244	800001a4	00000013	addi	x0,x0,0	  x0:0x00000000
       92465000	      9245	800001a8	fcdff0ef	jal	x1,800001a8	  x1=0x800001a8
       92475000	      9246	00000000	00000013	addi	x0,x0,0	  x0:0x00000000
       92485000	      9247	80000170	00000013	addi	x0,x0,0	  x0:0x00000000
       92495000	      9248	80000174	0040026f	jal	x4,80000174	  x4=0x80000174
       92505000	      9249	00000000	00000013	addi	x0,x0,0	  x0:0x00000000
       92515000	      9250	80000174	00000013	addi	x0,x0,0	  x0:0x00000000
       92525000	      9251	80000178	010000ef	jal	x1,80000178	  x1=0x80000178
       92535000	      9252	00000000	00000013	addi	x0,x0,0	  x0:0x00000000
       92545000	      9253	80000184	00000013	addi	x0,x0,0	  x0:0x00000000
       92555000	      9254	80000188	034005ef	jal	x11,80000188	 x11=0x80000188
       92565000	      9255	00000000	00000013	addi	x0,x0,0	  x0:0x00000000
       92575000	      9256	800001b8	00000013	addi	x0,x0,0	  x0:0x00000000
       92585000	      9257	800001bc	ec0b6713	ori	x14,x22,-320	 x22:0x00000000 x14=0xfffffec0
       92595000	      9258	800001c0	00f8c2b3	xor	x5,x17,x15	 x17:0x00000000 x15:0x20a76e28  x5=0x20a76e28
       92605000	      9259	800001c4	40575293	srai	x5,x14,0x5	 x14:0xfffffec0  x5=0xfffffff6
       92615000	      9260	800001c8	01a6ee63	bltu	x13,x26,800001e4	 x13:0x00000800 x26:0x800001ac
       92625000	      9261	00000000	00000013	addi	x0,x0,0	  x0:0x00000000
       92635000	      9262	800001e0	00000013	addi	x0,x0,0	  x0:0x00000000
       92645000	      9263	800001e4	d96e2c13	slti	x24,x28,-618	 x28:0x00004000 x24=0x00000000
       92655000	      9264	800001e8	00000617	auipc	x12,0x0	 x12=0x800001e4
       92665000	      9265	800001ec	00c60613	addi	x12,x12,12	 x12:0x800001e4 x12=0x800001f0
       92675000	      9266	800001f0	00060067	jalr	x0,x12,0	 x12:0x800001f0
       92685000	      9267	00000000	00000013	addi	x0,x0,0	  x0:0x00000000
       92695000	      9268	800001f0	00000013	addi	x0,x0,0	  x0:0x00000000
       92705000	      9269	800001f4	00100193	addi	x3,x0,1	  x0:0x00000000  x3=0x00000001
       92715000	      9270	800001f8	00000073	ecall	
       92725000	      9271	800001fc	0094bbb3	sltu	x23,x9,x9	  x9:0x00000000  x9:0x00000000 x23=0x00000000
