		Time			Cycle	PC		Insn	Decoded instruction	Register and memory contents
          65000	         5	80000004	00000293	addi	x5,x0,0	  x0:0x00000000  x5=0x00000000
          75000	         6	80000008	00000313	addi	x6,x0,0	  x0:0x00000000  x6=0x00000000
          85000	         7	8000000c	00628263	beq	x5,x6,80000010	  x5:0x00000000  x6:0x00000000
          95000	         8	00000000	00000013	addi	x0,x0,0	  x0:0x00000000
         105000	         9	8000000c	00000013	addi	x0,x0,0	  x0:0x00000000
         115000	        10	80000010	00000a17	auipc	x20,0x0	 x20=0x8000000c
         125000	        11	80000014	00ca0a13	addi	x20,x20,12	 x20:0x8000000c x20=0x80000018
         135000	        12	80000018	000a0067	jalr	x0,x20,0	 x20:0x80000018
         145000	        13	00000000	00000013	addi	x0,x0,0	  x0:0x00000000
         155000	        14	80000018	00000013	addi	x0,x0,0	  x0:0x00000000
         165000	        15	8000001c	40000f37	lui	x30,0x40000	 x30=0x40000000
         175000	        16	80000020	100f0f13	addi	x30,x30,256	 x30:0x40000000 x30=0x40000100
         185000	        17	80000024	00000013	addi	x0,x0,0	  x0:0x00000000
         195000	        18	80000028	0000a917	auipc	x18,0xa	 x18=0x8000a024
         205000	        19	8000002c	fa090913	addi	x18,x18,-96	 x18:0x8000a024 x18=0x80009fc4
         215000	        20	80000030	00005f17	auipc	x30,0x5	 x30=0x8000502c
         225000	        21	80000034	f14f0f13	addi	x30,x30,-236	 x30:0x8000502c x30=0x80004f40
         235000	        22	80000038	001f6f13	ori	x30,x30,1	 x30:0x80004f40 x30=0x80004f41
         245000	        23	8000003c	00000013	addi	x0,x0,0	  x0:0x00000000
         255000	        24	80000040	00000f17	auipc	x30,0x0	 x30=0x8000003c
         265000	        25	80000044	020f0f13	addi	x30,x30,32	 x30:0x8000003c x30=0x8000005c
         275000	        26	80000048	00000013	addi	x0,x0,0	  x0:0x00000000
         285000	        27	8000004c	00000013	addi	x0,x0,0	  x0:0x00000000
         295000	        28	80000050	00002f37	lui	x30,0x2	 x30=0x00002000
         305000	        29	80000054	800f0f13	addi	x30,x30,-2048	 x30:0x00002000 x30=0x00001800
         315000	        30	80000058	00000013	addi	x0,x0,0	  x0:0x00000000
         325000	        31	8000005c	00000013	addi	x0,x0,0	  x0:0x00000000
         335000	        32	80000060	00200013	addi	x0,x0,2	  x0:0x00000000
         345000	        33	80000064	f27bf0b7	lui	x1,0xf27bf	  x1=0xf27bf000
         355000	        34	80000068	12d08093	addi	x1,x1,301	  x1:0xf27bf000  x1=0xf27bf12d
         365000	        35	8000006c	00000113	addi	x2,x0,0	  x0:0x00000000  x2=0x00000000
         375000	        36	80000070	00e00193	addi	x3,x0,14	  x0:0x00000000  x3=0x0000000e
         385000	        37	80000074	00200213	addi	x4,x0,2	  x0:0x00000000  x4=0x00000002
         395000	        38	80000078	430802b7	lui	x5,0x43080	  x5=0x43080000
         405000	        39	8000007c	12828293	addi	x5,x5,296	  x5:0x43080000  x5=0x43080128
         415000	        40	80000080	80000337	lui	x6,0x80000	  x6=0x80000000
         425000	        41	80000084	800003b7	lui	x7,0x80000	  x7=0x80000000
         435000	        42	80000088	fa65c437	lui	x8,0xfa65c	  x8=0xfa65c000
         445000	        43	8000008c	80c40413	addi	x8,x8,-2036	  x8:0xfa65c000  x8=0xfa65b80c
         455000	        44	80000090	0bb924b7	lui	x9,0xbb92	  x9=0x0bb92000
         465000	        45	80000094	93248493	addi	x9,x9,-1742	  x9:0x0bb92000  x9=0x0bb91932
         475000	        46	80000098	00a00513	addi	x10,x0,10	  x0:0x00000000 x10=0x0000000a
         485000	        47	8000009c	f02325b7	lui	x11,0xf0232	 x11=0xf0232000
         495000	        48	800000a0	aa258593	addi	x11,x11,-1374	 x11:0xf0232000 x11=0xf0231aa2
         505000	        49	800000a4	00100613	addi	x12,x0,1	  x0:0x00000000 x12=0x00000001
         515000	        50	800000a8	800006b7	lui	x13,0x80000	 x13=0x80000000
         525000	        51	800000ac	80000737	lui	x14,0x80000	 x14=0x80000000
         535000	        52	800000b0	00700793	addi	x15,x0,7	  x0:0x00000000 x15=0x00000007
         545000	        53	800000b4	00000813	addi	x16,x0,0	  x0:0x00000000 x16=0x00000000
         555000	        54	800000b8	ff7eb8b7	lui	x17,0xff7eb	 x17=0xff7eb000
         565000	        55	800000bc	31788893	addi	x17,x17,791	 x17:0xff7eb000 x17=0xff7eb317
         575000	        56	800000c0	00000993	addi	x19,x0,0	  x0:0x00000000 x19=0x00000000
         585000	        57	800000c4	00900a13	addi	x20,x0,9	  x0:0x00000000 x20=0x00000009
         595000	        58	800000c8	00000a93	addi	x21,x0,0	  x0:0x00000000 x21=0x00000000
         605000	        59	800000cc	681b3b37	lui	x22,0x681b3	 x22=0x681b3000
         615000	        60	800000d0	686b0b13	addi	x22,x22,1670	 x22:0x681b3000 x22=0x681b3686
         625000	        61	800000d4	80000bb7	lui	x23,0x80000	 x23=0x80000000
         635000	        62	800000d8	f3b0acb7	lui	x25,0xf3b0a	 x25=0xf3b0a000
         645000	        63	800000dc	3e5c8c93	addi	x25,x25,997	 x25:0xf3b0a000 x25=0xf3b0a3e5
         655000	        64	800000e0	f4671d37	lui	x26,0xf4671	 x26=0xf4671000
         665000	        65	800000e4	bd8d0d13	addi	x26,x26,-1064	 x26:0xf4671000 x26=0xf4670bd8
         675000	        66	800000e8	00d00d93	addi	x27,x0,13	  x0:0x00000000 x27=0x0000000d
         685000	        67	800000ec	80000e37	lui	x28,0x80000	 x28=0x80000000
         695000	        68	800000f0	fe269eb7	lui	x29,0xfe269	 x29=0xfe269000
         705000	        69	800000f4	280e8e93	addi	x29,x29,640	 x29:0xfe269000 x29=0xfe269280
         715000	        70	800000f8	80000f37	lui	x30,0x80000	 x30=0x80000000
         725000	        71	800000fc	b1744fb7	lui	x31,0xb1744	 x31=0xb1744000
         735000	        72	80000100	caef8f93	addi	x31,x31,-850	 x31:0xb1744000 x31=0xb1743cae
         745000	        73	80000104	0000ac17	auipc	x24,0xa	 x24=0x8000a100
         755000	        74	80000108	e84c0c13	addi	x24,x24,-380	 x24:0x8000a100 x24=0x80009f84
         765000	        75	8000010c	03c006ef	jal	x13,8000010c	 x13=0x8000010c
         775000	        76	00000000	00000013	addi	x0,x0,0	  x0:0x00000000
         785000	        77	80000144	00000013	addi	x0,x0,0	  x0:0x00000000
         795000	        78	80000148	00400b6f	jal	x22,80000148	 x22=0x80000148
         805000	        79	00000000	00000013	addi	x0,x0,0	  x0:0x00000000
         815000	        80	80000148	00000013	addi	x0,x0,0	  x0:0x00000000
         825000	        81	8000014c	fc5ff36f	jal	x6,8000014c	  x6=0x8000014c
         835000	        82	00000000	00000013	addi	x0,x0,0	  x0:0x00000000
         845000	        83	8000010c	00000013	addi	x0,x0,0	  x0:0x00000000
         855000	        84	80000110	010000ef	jal	x1,80000110	  x1=0x80000110
         865000	        85	00000000	00000013	addi	x0,x0,0	  x0:0x00000000
         875000	        86	8000011c	00000013	addi	x0,x0,0	  x0:0x00000000
         885000	        87	80000120	00800def	jal	x27,80000120	 x27=0x80000120
         895000	        88	00000000	00000013	addi	x0,x0,0	  x0:0x00000000
         905000	        89	80000124	00000013	addi	x0,x0,0	  x0:0x00000000
         915000	        90	80000128	00c002ef	jal	x5,80000128	  x5=0x80000128
         925000	        91	00000000	00000013	addi	x0,x0,0	  x0:0x00000000
         935000	        92	80000130	00000013	addi	x0,x0,0	  x0:0x00000000
         945000	        93	80000134	020009ef	jal	x19,80000134	 x19=0x80000134
         955000	        94	00000000	00000013	addi	x0,x0,0	  x0:0x00000000
         965000	        95	80000150	00000013	addi	x0,x0,0	  x0:0x00000000
         975000	        96	80000154	fc9ff0ef	jal	x1,80000154	  x1=0x80000154
         985000	        97	00000000	00000013	addi	x0,x0,0	  x0:0x00000000
         995000	        98	80000118	00000013	addi	x0,x0,0	  x0:0x00000000
        1005000	        99	8000011c	ffdff0ef	jal	x1,8000011c	  x1=0x8000011c
        1015000	       100	00000000	00000013	addi	x0,x0,0	  x0:0x00000000
        1025000	       101	80000114	00000013	addi	x0,x0,0	  x0:0x00000000
        1035000	       102	80000118	00c0036f	jal	x6,80000118	  x6=0x80000118
        1045000	       103	00000000	00000013	addi	x0,x0,0	  x0:0x00000000
        1055000	       104	80000120	00000013	addi	x0,x0,0	  x0:0x00000000
        1065000	       105	80000124	ff1ff36f	jal	x6,80000124	  x6=0x80000124
        1075000	       106	00000000	00000013	addi	x0,x0,0	  x0:0x00000000
        1085000	       107	80000110	00000013	addi	x0,x0,0	  x0:0x00000000
        1095000	       108	80000114	03c0036f	jal	x6,80000114	  x6=0x80000114
        1105000	       109	00000000	00000013	addi	x0,x0,0	  x0:0x00000000
        1115000	       110	8000014c	00000013	addi	x0,x0,0	  x0:0x00000000
        1125000	       111	80000150	fe1ff0ef	jal	x1,80000150	  x1=0x80000150
        1135000	       112	00000000	00000013	addi	x0,x0,0	  x0:0x00000000
        1145000	       113	8000012c	00000013	addi	x0,x0,0	  x0:0x00000000
        1155000	       114	80000130	028000ef	jal	x1,80000130	  x1=0x80000130
        1165000	       115	00000000	00000013	addi	x0,x0,0	  x0:0x00000000
        1175000	       116	80000154	00000013	addi	x0,x0,0	  x0:0x00000000
        1185000	       117	80000158	fd5ff0ef	jal	x1,80000158	  x1=0x80000158
        1195000	       118	00000000	00000013	addi	x0,x0,0	  x0:0x00000000
        1205000	       119	80000128	00000013	addi	x0,x0,0	  x0:0x00000000
        1215000	       120	8000012c	01800def	jal	x27,8000012c	 x27=0x8000012c
        1225000	       121	00000000	00000013	addi	x0,x0,0	  x0:0x00000000
        1235000	       122	80000140	00000013	addi	x0,x0,0	  x0:0x00000000
        1245000	       123	80000144	ffdff26f	jal	x4,80000144	  x4=0x80000144
        1255000	       124	00000000	00000013	addi	x0,x0,0	  x0:0x00000000
        1265000	       125	8000013c	00000013	addi	x0,x0,0	  x0:0x00000000
        1275000	       126	80000140	ffdff0ef	jal	x1,80000140	  x1=0x80000140
        1285000	       127	00000000	00000013	addi	x0,x0,0	  x0:0x00000000
        1295000	       128	80000138	00000013	addi	x0,x0,0	  x0:0x00000000
        1305000	       129	8000013c	ffdff36f	jal	x6,8000013c	  x6=0x8000013c
        1315000	       130	00000000	00000013	addi	x0,x0,0	  x0:0x00000000
        1325000	       131	80000134	00000013	addi	x0,x0,0	  x0:0x00000000
        1335000	       132	80000138	0240036f	jal	x6,80000138	  x6=0x80000138
        1345000	       133	00000000	00000013	addi	x0,x0,0	  x0:0x00000000
        1355000	       134	80000158	00000013	addi	x0,x0,0	  x0:0x00000000
        1365000	       135	8000015c	00b13e33	sltu	x28,x2,x11	  x2:0x00000000 x11:0xf0231aa2 x28=0x00000001
        1375000	       136	80000160	018006ef	jal	x13,80000160	 x13=0x80000160
        1385000	       137	00000000	00000013	addi	x0,x0,0	  x0:0x00000000
        1395000	       138	80000174	00000013	addi	x0,x0,0	  x0:0x00000000
        1405000	       139	80000178	014000ef	jal	x1,80000178	  x1=0x80000178
        1415000	       140	00000000	00000013	addi	x0,x0,0	  x0:0x00000000
        1425000	       141	80000188	00000013	addi	x0,x0,0	  x0:0x00000000
        1435000	       142	8000018c	fd9ff0ef	jal	x1,8000018c	  x1=0x8000018c
        1445000	       143	00000000	00000013	addi	x0,x0,0	  x0:0x00000000
        1455000	       144	80000160	00000013	addi	x0,x0,0	  x0:0x00000000
        1465000	       145	80000164	020000ef	jal	x1,80000164	  x1=0x80000164
        1475000	       146	00000000	00000013	addi	x0,x0,0	  x0:0x00000000
        1485000	       147	80000180	00000013	addi	x0,x0,0	  x0:0x00000000
        1495000	       148	80000184	00c0036f	jal	x6,80000184	  x6=0x80000184
        1505000	       149	00000000	00000013	addi	x0,x0,0	  x0:0x00000000
        1515000	       150	8000018c	00000013	addi	x0,x0,0	  x0:0x00000000
        1525000	       151	80000190	fddffaef	jal	x21,80000190	 x21=0x80000190
        1535000	       152	00000000	00000013	addi	x0,x0,0	  x0:0x00000000
        1545000	       153	80000168	00000013	addi	x0,x0,0	  x0:0x00000000
        1555000	       154	8000016c	004000ef	jal	x1,8000016c	  x1=0x8000016c
        1565000	       155	00000000	00000013	addi	x0,x0,0	  x0:0x00000000
        1575000	       156	8000016c	00000013	addi	x0,x0,0	  x0:0x00000000
        1585000	       157	80000170	028000ef	jal	x1,80000170	  x1=0x80000170
        1595000	       158	00000000	00000013	addi	x0,x0,0	  x0:0x00000000
        1605000	       159	80000194	00000013	addi	x0,x0,0	  x0:0x00000000
        1615000	       160	80000198	fe5ff0ef	jal	x1,80000198	  x1=0x80000198
        1625000	       161	00000000	00000013	addi	x0,x0,0	  x0:0x00000000
        1635000	       162	80000178	00000013	addi	x0,x0,0	  x0:0x00000000
        1645000	       163	8000017c	018003ef	jal	x7,8000017c	  x7=0x8000017c
        1655000	       164	00000000	00000013	addi	x0,x0,0	  x0:0x00000000
        1665000	       165	80000190	00000013	addi	x0,x0,0	  x0:0x00000000
        1675000	       166	80000194	fe1ff36f	jal	x6,80000194	  x6=0x80000194
        1685000	       167	00000000	00000013	addi	x0,x0,0	  x0:0x00000000
        1695000	       168	80000170	00000013	addi	x0,x0,0	  x0:0x00000000
        1705000	       169	80000174	00c000ef	jal	x1,80000174	  x1=0x80000174
        1715000	       170	00000000	00000013	addi	x0,x0,0	  x0:0x00000000
        1725000	       171	8000017c	00000013	addi	x0,x0,0	  x0:0x00000000
        1735000	       172	80000180	fe9ff36f	jal	x6,80000180	  x6=0x80000180
        1745000	       173	00000000	00000013	addi	x0,x0,0	  x0:0x00000000
        1755000	       174	80000164	00000013	addi	x0,x0,0	  x0:0x00000000
        1765000	       175	80000168	0200036f	jal	x6,80000168	  x6=0x80000168
        1775000	       176	00000000	00000013	addi	x0,x0,0	  x0:0x00000000
        1785000	       177	80000184	00000013	addi	x0,x0,0	  x0:0x00000000
        1795000	       178	80000188	014000ef	jal	x1,80000188	  x1=0x80000188
        1805000	       179	00000000	00000013	addi	x0,x0,0	  x0:0x00000000
        1815000	       180	80000198	00000013	addi	x0,x0,0	  x0:0x00000000
        1825000	       181	8000019c	4fcad017	auipc	x0,0x4fcad	
        1835000	       182	800001a0	024006ef	jal	x13,800001a0	 x13=0x800001a0
        1845000	       183	00000000	00000013	addi	x0,x0,0	  x0:0x00000000
        1855000	       184	800001c0	00000013	addi	x0,x0,0	  x0:0x00000000
        1865000	       185	800001c4	fe9ff0ef	jal	x1,800001c4	  x1=0x800001c4
        1875000	       186	00000000	00000013	addi	x0,x0,0	  x0:0x00000000
        1885000	       187	800001a8	00000013	addi	x0,x0,0	  x0:0x00000000
        1895000	       188	800001ac	01c000ef	jal	x1,800001ac	  x1=0x800001ac
        1905000	       189	00000000	00000013	addi	x0,x0,0	  x0:0x00000000
        1915000	       190	800001c4	00000013	addi	x0,x0,0	  x0:0x00000000
        1925000	       191	800001c8	ff9ff0ef	jal	x1,800001c8	  x1=0x800001c8
        1935000	       192	00000000	00000013	addi	x0,x0,0	  x0:0x00000000
        1945000	       193	800001bc	00000013	addi	x0,x0,0	  x0:0x00000000
        1955000	       194	800001c0	fe5ff26f	jal	x4,800001c0	  x4=0x800001c0
        1965000	       195	00000000	00000013	addi	x0,x0,0	  x0:0x00000000
        1975000	       196	800001a0	00000013	addi	x0,x0,0	  x0:0x00000000
        1985000	       197	800001a4	0140036f	jal	x6,800001a4	  x6=0x800001a4
        1995000	       198	00000000	00000013	addi	x0,x0,0	  x0:0x00000000
        2005000	       199	800001b4	00000013	addi	x0,x0,0	  x0:0x00000000
        2015000	       200	800001b8	ff9ff0ef	jal	x1,800001b8	  x1=0x800001b8
        2025000	       201	00000000	00000013	addi	x0,x0,0	  x0:0x00000000
        2035000	       202	800001ac	00000013	addi	x0,x0,0	  x0:0x00000000
        2045000	       203	800001b0	004000ef	jal	x1,800001b0	  x1=0x800001b0
        2055000	       204	00000000	00000013	addi	x0,x0,0	  x0:0x00000000
        2065000	       205	800001b0	00000013	addi	x0,x0,0	  x0:0x00000000
        2075000	       206	800001b4	ff5ff36f	jal	x6,800001b4	  x6=0x800001b4
        2085000	       207	00000000	00000013	addi	x0,x0,0	  x0:0x00000000
        2095000	       208	800001a4	00000013	addi	x0,x0,0	  x0:0x00000000
        2105000	       209	800001a8	014000ef	jal	x1,800001a8	  x1=0x800001a8
        2115000	       210	00000000	00000013	addi	x0,x0,0	  x0:0x00000000
        2125000	       211	800001b8	00000013	addi	x0,x0,0	  x0:0x00000000
        2135000	       212	800001bc	0100036f	jal	x6,800001bc	  x6=0x800001bc
        2145000	       213	00000000	00000013	addi	x0,x0,0	  x0:0x00000000
        2155000	       214	800001c8	00000013	addi	x0,x0,0	  x0:0x00000000
        2165000	       215	800001cc	017c0733	add	x14,x24,x23	 x24:0x80009f84 x23:0x80000000 x14=0x00009f84
        2175000	       216	800001d0	050006ef	jal	x13,800001d0	 x13=0x800001d0
        2185000	       217	00000000	00000013	addi	x0,x0,0	  x0:0x00000000
        2195000	       218	8000021c	00000013	addi	x0,x0,0	  x0:0x00000000
        2205000	       219	80000220	fe5ff0ef	jal	x1,80000220	  x1=0x80000220
        2215000	       220	00000000	00000013	addi	x0,x0,0	  x0:0x00000000
        2225000	       221	80000200	00000013	addi	x0,x0,0	  x0:0x00000000
        2235000	       222	80000204	0280036f	jal	x6,80000204	  x6=0x80000204
        2245000	       223	00000000	00000013	addi	x0,x0,0	  x0:0x00000000
        2255000	       224	80000228	00000013	addi	x0,x0,0	  x0:0x00000000
        2265000	       225	8000022c	fc5ff0ef	jal	x1,8000022c	  x1=0x8000022c
        2275000	       226	00000000	00000013	addi	x0,x0,0	  x0:0x00000000
        2285000	       227	800001ec	00000013	addi	x0,x0,0	  x0:0x00000000
        2295000	       228	800001f0	040000ef	jal	x1,800001f0	  x1=0x800001f0
        2305000	       229	00000000	00000013	addi	x0,x0,0	  x0:0x00000000
        2315000	       230	8000022c	00000013	addi	x0,x0,0	  x0:0x00000000
        2325000	       231	80000230	ff5ffb6f	jal	x22,80000230	 x22=0x80000230
        2335000	       232	00000000	00000013	addi	x0,x0,0	  x0:0x00000000
        2345000	       233	80000220	00000013	addi	x0,x0,0	  x0:0x00000000
        2355000	       234	80000224	ff1ff0ef	jal	x1,80000224	  x1=0x80000224
        2365000	       235	00000000	00000013	addi	x0,x0,0	  x0:0x00000000
        2375000	       236	80000210	00000013	addi	x0,x0,0	  x0:0x00000000
        2385000	       237	80000214	ffdff0ef	jal	x1,80000214	  x1=0x80000214
        2395000	       238	00000000	00000013	addi	x0,x0,0	  x0:0x00000000
        2405000	       239	8000020c	00000013	addi	x0,x0,0	  x0:0x00000000
        2415000	       240	80000210	fc5ff0ef	jal	x1,80000210	  x1=0x80000210
        2425000	       241	00000000	00000013	addi	x0,x0,0	  x0:0x00000000
        2435000	       242	800001d0	00000013	addi	x0,x0,0	  x0:0x00000000
        2445000	       243	800001d4	02400d6f	jal	x26,800001d4	 x26=0x800001d4
        2455000	       244	00000000	00000013	addi	x0,x0,0	  x0:0x00000000
        2465000	       245	800001f4	00000013	addi	x0,x0,0	  x0:0x00000000
        2475000	       246	800001f8	0080036f	jal	x6,800001f8	  x6=0x800001f8
        2485000	       247	00000000	00000013	addi	x0,x0,0	  x0:0x00000000
        2495000	       248	800001fc	00000013	addi	x0,x0,0	  x0:0x00000000
        2505000	       249	80000200	fddff26f	jal	x4,80000200	  x4=0x80000200
        2515000	       250	00000000	00000013	addi	x0,x0,0	  x0:0x00000000
        2525000	       251	800001d8	00000013	addi	x0,x0,0	  x0:0x00000000
        2535000	       252	800001dc	0180036f	jal	x6,800001dc	  x6=0x800001dc
        2545000	       253	00000000	00000013	addi	x0,x0,0	  x0:0x00000000
        2555000	       254	800001f0	00000013	addi	x0,x0,0	  x0:0x00000000
        2565000	       255	800001f4	014000ef	jal	x1,800001f4	  x1=0x800001f4
        2575000	       256	00000000	00000013	addi	x0,x0,0	  x0:0x00000000
        2585000	       257	80000204	00000013	addi	x0,x0,0	  x0:0x00000000
        2595000	       258	80000208	ff5ff0ef	jal	x1,80000208	  x1=0x80000208
        2605000	       259	00000000	00000013	addi	x0,x0,0	  x0:0x00000000
        2615000	       260	800001f8	00000013	addi	x0,x0,0	  x0:0x00000000
        2625000	       261	800001fc	fedff36f	jal	x6,800001fc	  x6=0x800001fc
        2635000	       262	00000000	00000013	addi	x0,x0,0	  x0:0x00000000
        2645000	       263	800001e4	00000013	addi	x0,x0,0	  x0:0x00000000
        2655000	       264	800001e8	ff1ff0ef	jal	x1,800001e8	  x1=0x800001e8
        2665000	       265	00000000	00000013	addi	x0,x0,0	  x0:0x00000000
        2675000	       266	800001d4	00000013	addi	x0,x0,0	  x0:0x00000000
        2685000	       267	800001d8	034000ef	jal	x1,800001d8	  x1=0x800001d8
        2695000	       268	00000000	00000013	addi	x0,x0,0	  x0:0x00000000
        2705000	       269	80000208	00000013	addi	x0,x0,0	  x0:0x00000000
        2715000	       270	8000020c	010000ef	jal	x1,8000020c	  x1=0x8000020c
        2725000	       271	00000000	00000013	addi	x0,x0,0	  x0:0x00000000
        2735000	       272	80000218	00000013	addi	x0,x0,0	  x0:0x00000000
        2745000	       273	8000021c	0180036f	jal	x6,8000021c	  x6=0x8000021c
        2755000	       274	00000000	00000013	addi	x0,x0,0	  x0:0x00000000
        2765000	       275	80000230	00000013	addi	x0,x0,0	  x0:0x00000000
        2775000	       276	80000234	fb9ff0ef	jal	x1,80000234	  x1=0x80000234
        2785000	       277	00000000	00000013	addi	x0,x0,0	  x0:0x00000000
        2795000	       278	800001e8	00000013	addi	x0,x0,0	  x0:0x00000000
        2805000	       279	800001ec	ff9ff0ef	jal	x1,800001ec	  x1=0x800001ec
        2815000	       280	00000000	00000013	addi	x0,x0,0	  x0:0x00000000
        2825000	       281	800001e0	00000013	addi	x0,x0,0	  x0:0x00000000
        2835000	       282	800001e4	034000ef	jal	x1,800001e4	  x1=0x800001e4
        2845000	       283	00000000	00000013	addi	x0,x0,0	  x0:0x00000000
        2855000	       284	80000214	00000013	addi	x0,x0,0	  x0:0x00000000
        2865000	       285	80000218	fc9ff0ef	jal	x1,80000218	  x1=0x80000218
        2875000	       286	00000000	00000013	addi	x0,x0,0	  x0:0x00000000
        2885000	       287	800001dc	00000013	addi	x0,x0,0	  x0:0x00000000
        2895000	       288	800001e0	048000ef	jal	x1,800001e0	  x1=0x800001e0
        2905000	       289	00000000	00000013	addi	x0,x0,0	  x0:0x00000000
        2915000	       290	80000224	00000013	addi	x0,x0,0	  x0:0x00000000
        2925000	       291	80000228	010000ef	jal	x1,80000228	  x1=0x80000228
        2935000	       292	00000000	00000013	addi	x0,x0,0	  x0:0x00000000
        2945000	       293	80000234	00000013	addi	x0,x0,0	  x0:0x00000000
        2955000	       294	80000238	eb7d2f17	auipc	x30,0xeb7d2	 x30=0x6b7d2234
        2965000	       295	8000023c	020006ef	jal	x13,8000023c	 x13=0x8000023c
        2975000	       296	00000000	00000013	addi	x0,x0,0	  x0:0x00000000
        2985000	       297	80000258	00000013	addi	x0,x0,0	  x0:0x00000000
        2995000	       298	8000025c	014009ef	jal	x19,8000025c	 x19=0x8000025c
        3005000	       299	00000000	00000013	addi	x0,x0,0	  x0:0x00000000
        3015000	       300	8000026c	00000013	addi	x0,x0,0	  x0:0x00000000
        3025000	       301	80000270	ffdff8ef	jal	x17,80000270	 x17=0x80000270
        3035000	       302	00000000	00000013	addi	x0,x0,0	  x0:0x00000000
        3045000	       303	80000268	00000013	addi	x0,x0,0	  x0:0x00000000
        3055000	       304	8000026c	ffdff36f	jal	x6,8000026c	  x6=0x8000026c
        3065000	       305	00000000	00000013	addi	x0,x0,0	  x0:0x00000000
        3075000	       306	80000264	00000013	addi	x0,x0,0	  x0:0x00000000
        3085000	       307	80000268	ff9ff36f	jal	x6,80000268	  x6=0x80000268
        3095000	       308	00000000	00000013	addi	x0,x0,0	  x0:0x00000000
        3105000	       309	8000025c	00000013	addi	x0,x0,0	  x0:0x00000000
        3115000	       310	80000260	004000ef	jal	x1,80000260	  x1=0x80000260
        3125000	       311	00000000	00000013	addi	x0,x0,0	  x0:0x00000000
        3135000	       312	80000260	00000013	addi	x0,x0,0	  x0:0x00000000
        3145000	       313	80000264	01c0036f	jal	x6,80000264	  x6=0x80000264
        3155000	       314	00000000	00000013	addi	x0,x0,0	  x0:0x00000000
        3165000	       315	8000027c	00000013	addi	x0,x0,0	  x0:0x00000000
        3175000	       316	80000280	004000ef	jal	x1,80000280	  x1=0x80000280
        3185000	       317	00000000	00000013	addi	x0,x0,0	  x0:0x00000000
        3195000	       318	80000280	00000013	addi	x0,x0,0	  x0:0x00000000
        3205000	       319	80000284	ff1ff0ef	jal	x1,80000284	  x1=0x80000284
        3215000	       320	00000000	00000013	addi	x0,x0,0	  x0:0x00000000
        3225000	       321	80000270	00000013	addi	x0,x0,0	  x0:0x00000000
        3235000	       322	80000274	fd5ff0ef	jal	x1,80000274	  x1=0x80000274
        3245000	       323	00000000	00000013	addi	x0,x0,0	  x0:0x00000000
        3255000	       324	80000244	00000013	addi	x0,x0,0	  x0:0x00000000
        3265000	       325	80000248	ff9ff36f	jal	x6,80000248	  x6=0x80000248
        3275000	       326	00000000	00000013	addi	x0,x0,0	  x0:0x00000000
        3285000	       327	8000023c	00000013	addi	x0,x0,0	  x0:0x00000000
        3295000	       328	80000240	03c000ef	jal	x1,80000240	  x1=0x80000240
        3305000	       329	00000000	00000013	addi	x0,x0,0	  x0:0x00000000
        3315000	       330	80000278	00000013	addi	x0,x0,0	  x0:0x00000000
        3325000	       331	8000027c	fd1ff0ef	jal	x1,8000027c	  x1=0x8000027c
        3335000	       332	00000000	00000013	addi	x0,x0,0	  x0:0x00000000
        3345000	       333	80000248	00000013	addi	x0,x0,0	  x0:0x00000000
        3355000	       334	8000024c	00c000ef	jal	x1,8000024c	  x1=0x8000024c
        3365000	       335	00000000	00000013	addi	x0,x0,0	  x0:0x00000000
        3375000	       336	80000254	00000013	addi	x0,x0,0	  x0:0x00000000
        3385000	       337	80000258	0200086f	jal	x16,80000258	 x16=0x80000258
        3395000	       338	00000000	00000013	addi	x0,x0,0	  x0:0x00000000
        3405000	       339	80000274	00000013	addi	x0,x0,0	  x0:0x00000000
        3415000	       340	80000278	fddff0ef	jal	x1,80000278	  x1=0x80000278
        3425000	       341	00000000	00000013	addi	x0,x0,0	  x0:0x00000000
        3435000	       342	80000250	00000013	addi	x0,x0,0	  x0:0x00000000
        3445000	       343	80000254	ff1ff0ef	jal	x1,80000254	  x1=0x80000254
        3455000	       344	00000000	00000013	addi	x0,x0,0	  x0:0x00000000
        3465000	       345	80000240	00000013	addi	x0,x0,0	  x0:0x00000000
        3475000	       346	80000244	00c000ef	jal	x1,80000244	  x1=0x80000244
        3485000	       347	00000000	00000013	addi	x0,x0,0	  x0:0x00000000
        3495000	       348	8000024c	00000013	addi	x0,x0,0	  x0:0x00000000
        3505000	       349	80000250	03800d6f	jal	x26,80000250	 x26=0x80000250
        3515000	       350	00000000	00000013	addi	x0,x0,0	  x0:0x00000000
        3525000	       351	80000284	00000013	addi	x0,x0,0	  x0:0x00000000
        3535000	       352	80000288	a603f593	andi	x11,x7,-1440	  x7:0x8000017c x11=0x80000060
        3545000	       353	8000028c	e9530013	addi	x0,x6,-363	  x6:0x80000248
        3555000	       354	80000290	015a5613	srli	x12,x20,0x15	 x20:0x00000009 x12=0x00000000
        3565000	       355	80000294	00fc41b3	xor	x3,x24,x15	 x24:0x80009f84 x15:0x00000007  x3=0x80009f83
        3575000	       356	80000298	4112d013	srai	x0,x5,0x11	  x5:0x80000128
        3585000	       357	8000029c	00a455b3	srl	x11,x8,x10	  x8:0xfa65b80c x10:0x0000000a x11=0x003e996e
        3595000	       358	800002a0	4184df13	srai	x30,x9,0x18	  x9:0x0bb91932 x30=0x0000000b
        3605000	       359	800002a4	dba4b793	sltiu	x15,x9,-582	  x9:0x0bb91932 x15=0x00000001
        3615000	       360	800002a8	01585093	srli	x1,x16,0x15	 x16:0x80000258  x1=0x00000400
        3625000	       361	800002ac	40ccd6b3	sra	x13,x25,x12	 x25:0xf3b0a3e5 x12:0x00000000 x13=0xf3b0a3e5
        3635000	       362	800002b0	017384b3	add	x9,x7,x23	  x7:0x8000017c x23:0x80000000  x9=0x0000017c
        3645000	       363	800002b4	0188d993	srli	x19,x17,0x18	 x17:0x80000270 x19=0x00000080
        3655000	       364	800002b8	58b7c593	xori	x11,x15,1419	 x15:0x00000001 x11=0x0000058a
        3665000	       365	800002bc	7e764593	xori	x11,x12,2023	 x12:0x00000000 x11=0x000007e7
        3675000	       366	800002c0	0058f333	and	x6,x17,x5	 x17:0x80000270  x5:0x80000128  x6=0x80000020
        3685000	       367	800002c4	00004b97	auipc	x23,0x4	 x23=0x800042c0
        3695000	       368	800002c8	22cb8b93	addi	x23,x23,556	 x23:0x800042c0 x23=0x800044ec
        3705000	       369	800002cc	0041aeb3	slt	x29,x3,x4	  x3:0x80009f83  x4:0x80000200 x29=0x00000000
        3715000	       370	800002d0	faf8c113	xori	x2,x17,-81	 x17:0x80000270  x2=0x7ffffddf
        3725000	       371	800002d4	412800b3	sub	x1,x16,x18	 x16:0x80000258 x18:0x80009fc4  x1=0xffff6294
        3735000	       372	800002d8	015ab133	sltu	x2,x21,x21	 x21:0x80000190 x21:0x80000190  x2=0x00000000
        3745000	       373	800002dc	0112edb3	or	x27,x5,x17	  x5:0x80000128 x17:0x80000270 x27=0x80000378
        3755000	       374	800002e0	01c31413	slli	x8,x6,0x1c	  x6:0x80000020  x8=0x00000000
        3765000	       375	800002e4	e26b8b93	addi	x23,x23,-474	 x23:0x800044ec x23=0x80004312
        3775000	       376	800002e8	c7815117	auipc	x2,0xc7815	  x2=0x478152e4
        3785000	       377	800002ec	1dbb86e7	jalr	x13,x23,475	 x23:0x80004312 x13=0x800002ec
        3795000	       378	00000000	00000013	addi	x0,x0,0	  x0:0x00000000
        3805000	       379	800044ec	00000013	addi	x0,x0,0	  x0:0x00000000
        3815000	       380	800044f0	0136b033	sltu	x0,x13,x19	 x13:0x800002ec x19:0x00000080
        3825000	       381	800044f4	00d3edb3	or	x27,x7,x13	  x7:0x8000017c x13:0x800002ec x27=0x800003fc
        3835000	       382	800044f8	00000013	addi	x0,x0,0	  x0:0x00000000
        3845000	       383	800044fc	00890733	add	x14,x18,x8	 x18:0x80009fc4  x8:0x00000000 x14=0x80009fc4
        3855000	       384	80004500	00c4c663	blt	x9,x12,8000450c	  x9:0x0000017c x12:0x00000000
        3865000	       385	80004504	001690b3	sll	x1,x13,x1	 x13:0x800002ec  x1:0xffff6294  x1=0x2ec00000
        3875000	       386	80004508	01cfaf33	slt	x30,x31,x28	 x31:0xb1743cae x28:0x00000001 x30=0x00000001
        3885000	       387	8000450c	ff0c0c13	addi	x24,x24,-16	 x24:0x80009f84 x24=0x80009f74
        3895000	       388	80004510	00dc2223	sw	x13,4(x24)	 x24:0x80009f74 x13:0x800002ec PA:0x80009f78
        3905000	       389	80004514	00a232b3	sltu	x5,x4,x10	  x4:0x80000200 x10:0x0000000a  x5=0x00000000
        3915000	       390	80004518	009f14b3	sll	x9,x30,x9	 x30:0x00000001  x9:0x0000017c  x9=0x10000000
        3925000	       391	8000451c	9cbf4713	xori	x14,x30,-1589	 x30:0x00000001 x14=0xfffff9ca
        3935000	       392	80004520	ba1d6493	ori	x9,x26,-1119	 x26:0x80000250  x9=0xfffffbf1
        3945000	       393	80004524	40655213	srai	x4,x10,0x6	 x10:0x0000000a  x4=0x00000000
        3955000	       394	80004528	412a5b93	srai	x23,x20,0x12	 x20:0x00000009 x23=0x00000000
        3965000	       395	8000452c	ffffed97	auipc	x27,0xffffe	 x27=0x80002528
        3975000	       396	80004530	058d8d93	addi	x27,x27,88	 x27:0x80002528 x27=0x80002580
        3985000	       397	80004534	dbc6b893	sltiu	x17,x13,-580	 x13:0x800002ec x17=0x00000001
        3995000	       398	80004538	c7137313	andi	x6,x6,-911	  x6:0x80000020  x6=0x80000020
        4005000	       399	8000453c	fa5d8d93	addi	x27,x27,-91	 x27:0x80002580 x27=0x80002525
        4015000	       400	80004540	007e7663	bgeu	x28,x7,8000454c	 x28:0x00000001  x7:0x8000017c
        4025000	       401	80004544	8880ff13	andi	x30,x1,-1912	  x1:0x2ec00000 x30=0x2ec00000
        4035000	       402	80004548	44172b13	slti	x22,x14,1089	 x14:0xfffff9ca x22=0x00000001
        4045000	       403	8000454c	05bd86e7	jalr	x13,x27,91	 x27:0x80002525 x13=0x8000454c
        4055000	       404	00000000	00000013	addi	x0,x0,0	  x0:0x00000000
        4065000	       405	80002580	00000013	addi	x0,x0,0	  x0:0x00000000
        4075000	       406	80002584	01a05093	srli	x1,x0,0x1a	  x0:0x00000000  x1=0x00000000
        4085000	       407	80002588	4169dd33	sra	x26,x19,x22	 x19:0x00000080 x22:0x00000001 x26=0x00000040
        4095000	       408	8000258c	fd8c0c13	addi	x24,x24,-40	 x24:0x80009f74 x24=0x80009f4c
        4105000	       409	80002590	00000013	addi	x0,x0,0	  x0:0x00000000
        4115000	       410	80002594	0161d333	srl	x6,x3,x22	  x3:0x80009f83 x22:0x00000001  x6=0x40004fc1
        4125000	       411	80002598	00dc2223	sw	x13,4(x24)	 x24:0x80009f4c x13:0x8000454c PA:0x80009f50
        4135000	       412	8000259c	00e442b3	xor	x5,x8,x14	  x8:0x00000000 x14:0xfffff9ca  x5=0xfffff9ca
        4145000	       413	800025a0	024006ef	jal	x13,800025a0	 x13=0x800025a0
        4155000	       414	00000000	00000013	addi	x0,x0,0	  x0:0x00000000
        4165000	       415	800025c0	00000013	addi	x0,x0,0	  x0:0x00000000
        4175000	       416	800025c4	fe5ffb6f	jal	x22,800025c4	 x22=0x800025c4
        4185000	       417	00000000	00000013	addi	x0,x0,0	  x0:0x00000000
        4195000	       418	800025a4	00000013	addi	x0,x0,0	  x0:0x00000000
        4205000	       419	800025a8	0080036f	jal	x6,800025a8	  x6=0x800025a8
        4215000	       420	00000000	00000013	addi	x0,x0,0	  x0:0x00000000
        4225000	       421	800025ac	00000013	addi	x0,x0,0	  x0:0x00000000
        4235000	       422	800025b0	0040026f	jal	x4,800025b0	  x4=0x800025b0
        4245000	       423	00000000	00000013	addi	x0,x0,0	  x0:0x00000000
        4255000	       424	800025b0	00000013	addi	x0,x0,0	  x0:0x00000000
        4265000	       425	800025b4	ff9ffaef	jal	x21,800025b4	 x21=0x800025b4
        4275000	       426	00000000	00000013	addi	x0,x0,0	  x0:0x00000000
        4285000	       427	800025a8	00000013	addi	x0,x0,0	  x0:0x00000000
        4295000	       428	800025ac	ff9ff6ef	jal	x13,800025ac	 x13=0x800025ac
        4305000	       429	00000000	00000013	addi	x0,x0,0	  x0:0x00000000
        4315000	       430	800025a0	00000013	addi	x0,x0,0	  x0:0x00000000
        4325000	       431	800025a4	014000ef	jal	x1,800025a4	  x1=0x800025a4
        4335000	       432	00000000	00000013	addi	x0,x0,0	  x0:0x00000000
        4345000	       433	800025b4	00000013	addi	x0,x0,0	  x0:0x00000000
        4355000	       434	800025b8	010000ef	jal	x1,800025b8	  x1=0x800025b8
        4365000	       435	00000000	00000013	addi	x0,x0,0	  x0:0x00000000
        4375000	       436	800025c4	00000013	addi	x0,x0,0	  x0:0x00000000
        4385000	       437	800025c8	ff5ff36f	jal	x6,800025c8	  x6=0x800025c8
        4395000	       438	00000000	00000013	addi	x0,x0,0	  x0:0x00000000
        4405000	       439	800025b8	00000013	addi	x0,x0,0	  x0:0x00000000
        4415000	       440	800025bc	0040036f	jal	x6,800025bc	  x6=0x800025bc
        4425000	       441	00000000	00000013	addi	x0,x0,0	  x0:0x00000000
        4435000	       442	800025bc	00000013	addi	x0,x0,0	  x0:0x00000000
        4445000	       443	800025c0	00c000ef	jal	x1,800025c0	  x1=0x800025c0
        4455000	       444	00000000	00000013	addi	x0,x0,0	  x0:0x00000000
        4465000	       445	800025c8	00000013	addi	x0,x0,0	  x0:0x00000000
        4475000	       446	800025cc	00515f13	srli	x30,x2,0x5	  x2:0x478152e4 x30=0x023c0a97
        4485000	       447	800025d0	01c006ef	jal	x13,800025d0	 x13=0x800025d0
        4495000	       448	00000000	00000013	addi	x0,x0,0	  x0:0x00000000
        4505000	       449	800025e8	00000013	addi	x0,x0,0	  x0:0x00000000
        4515000	       450	800025ec	030000ef	jal	x1,800025ec	  x1=0x800025ec
        4525000	       451	00000000	00000013	addi	x0,x0,0	  x0:0x00000000
        4535000	       452	80002618	00000013	addi	x0,x0,0	  x0:0x00000000
        4545000	       453	8000261c	fbdff2ef	jal	x5,8000261c	  x5=0x8000261c
        4555000	       454	00000000	00000013	addi	x0,x0,0	  x0:0x00000000
        4565000	       455	800025d4	00000013	addi	x0,x0,0	  x0:0x00000000
        4575000	       456	800025d8	ffdff0ef	jal	x1,800025d8	  x1=0x800025d8
        4585000	       457	00000000	00000013	addi	x0,x0,0	  x0:0x00000000
        4595000	       458	800025d0	00000013	addi	x0,x0,0	  x0:0x00000000
        4605000	       459	800025d4	04c002ef	jal	x5,800025d4	  x5=0x800025d4
        4615000	       460	00000000	00000013	addi	x0,x0,0	  x0:0x00000000
        4625000	       461	8000261c	00000013	addi	x0,x0,0	  x0:0x00000000
        4635000	       462	80002620	00c000ef	jal	x1,80002620	  x1=0x80002620
        4645000	       463	00000000	00000013	addi	x0,x0,0	  x0:0x00000000
        4655000	       464	80002628	00000013	addi	x0,x0,0	  x0:0x00000000
        4665000	       465	8000262c	fd9ff0ef	jal	x1,8000262c	  x1=0x8000262c
        4675000	       466	00000000	00000013	addi	x0,x0,0	  x0:0x00000000
        4685000	       467	80002600	00000013	addi	x0,x0,0	  x0:0x00000000
        4695000	       468	80002604	fe1ff0ef	jal	x1,80002604	  x1=0x80002604
        4705000	       469	00000000	00000013	addi	x0,x0,0	  x0:0x00000000
        4715000	       470	800025e0	00000013	addi	x0,x0,0	  x0:0x00000000
        4725000	       471	800025e4	0040036f	jal	x6,800025e4	  x6=0x800025e4
        4735000	       472	00000000	00000013	addi	x0,x0,0	  x0:0x00000000
        4745000	       473	800025e4	00000013	addi	x0,x0,0	  x0:0x00000000
        4755000	       474	800025e8	03c002ef	jal	x5,800025e8	  x5=0x800025e8
        4765000	       475	00000000	00000013	addi	x0,x0,0	  x0:0x00000000
        4775000	       476	80002620	00000013	addi	x0,x0,0	  x0:0x00000000
        4785000	       477	80002624	fd1ff36f	jal	x6,80002624	  x6=0x80002624
        4795000	       478	00000000	00000013	addi	x0,x0,0	  x0:0x00000000
        4805000	       479	800025f0	00000013	addi	x0,x0,0	  x0:0x00000000
        4815000	       480	800025f4	fe9ff36f	jal	x6,800025f4	  x6=0x800025f4
        4825000	       481	00000000	00000013	addi	x0,x0,0	  x0:0x00000000
        4835000	       482	800025d8	00000013	addi	x0,x0,0	  x0:0x00000000
        4845000	       483	800025dc	03c006ef	jal	x13,800025dc	 x13=0x800025dc
        4855000	       484	00000000	00000013	addi	x0,x0,0	  x0:0x00000000
        4865000	       485	80002614	00000013	addi	x0,x0,0	  x0:0x00000000
        4875000	       486	80002618	ff9ff8ef	jal	x17,80002618	 x17=0x80002618
        4885000	       487	00000000	00000013	addi	x0,x0,0	  x0:0x00000000
        4895000	       488	8000260c	00000013	addi	x0,x0,0	  x0:0x00000000
        4905000	       489	80002610	ffdff0ef	jal	x1,80002610	  x1=0x80002610
        4915000	       490	00000000	00000013	addi	x0,x0,0	  x0:0x00000000
        4925000	       491	80002608	00000013	addi	x0,x0,0	  x0:0x00000000
        4935000	       492	8000260c	ff5ff0ef	jal	x1,8000260c	  x1=0x8000260c
        4945000	       493	00000000	00000013	addi	x0,x0,0	  x0:0x00000000
        4955000	       494	800025fc	00000013	addi	x0,x0,0	  x0:0x00000000
        4965000	       495	80002600	ffdff0ef	jal	x1,80002600	  x1=0x80002600
        4975000	       496	00000000	00000013	addi	x0,x0,0	  x0:0x00000000
        4985000	       497	800025f8	00000013	addi	x0,x0,0	  x0:0x00000000
        4995000	       498	800025fc	ff5ff0ef	jal	x1,800025fc	  x1=0x800025fc
        5005000	       499	00000000	00000013	addi	x0,x0,0	  x0:0x00000000
        5015000	       500	800025ec	00000013	addi	x0,x0,0	  x0:0x00000000
        5025000	       501	800025f0	038000ef	jal	x1,800025f0	  x1=0x800025f0
        5035000	       502	00000000	00000013	addi	x0,x0,0	  x0:0x00000000
        5045000	       503	80002624	00000013	addi	x0,x0,0	  x0:0x00000000
        5055000	       504	80002628	fb9ff0ef	jal	x1,80002628	  x1=0x80002628
        5065000	       505	00000000	00000013	addi	x0,x0,0	  x0:0x00000000
        5075000	       506	800025dc	00000013	addi	x0,x0,0	  x0:0x00000000
        5085000	       507	800025e0	028000ef	jal	x1,800025e0	  x1=0x800025e0
        5095000	       508	00000000	00000013	addi	x0,x0,0	  x0:0x00000000
        5105000	       509	80002604	00000013	addi	x0,x0,0	  x0:0x00000000
        5115000	       510	80002608	00c000ef	jal	x1,80002608	  x1=0x80002608
        5125000	       511	00000000	00000013	addi	x0,x0,0	  x0:0x00000000
        5135000	       512	80002610	00000013	addi	x0,x0,0	  x0:0x00000000
        5145000	       513	80002614	fe5ff36f	jal	x6,80002614	  x6=0x80002614
        5155000	       514	00000000	00000013	addi	x0,x0,0	  x0:0x00000000
        5165000	       515	800025f4	00000013	addi	x0,x0,0	  x0:0x00000000
        5175000	       516	800025f8	03800f6f	jal	x30,800025f8	 x30=0x800025f8
        5185000	       517	00000000	00000013	addi	x0,x0,0	  x0:0x00000000
        5195000	       518	8000262c	00000013	addi	x0,x0,0	  x0:0x00000000
        5205000	       519	80002630	01b43e33	sltu	x28,x8,x27	  x8:0x00000000 x27:0x80002525 x28=0x00000001
        5215000	       520	80002634	034006ef	jal	x13,80002634	 x13=0x80002634
        5225000	       521	00000000	00000013	addi	x0,x0,0	  x0:0x00000000
        5235000	       522	80002664	00000013	addi	x0,x0,0	  x0:0x00000000
        5245000	       523	80002668	fe9ff16f	jal	x2,80002668	  x2=0x80002668
        5255000	       524	00000000	00000013	addi	x0,x0,0	  x0:0x00000000
        5265000	       525	8000264c	00000013	addi	x0,x0,0	  x0:0x00000000
        5275000	       526	80002650	014007ef	jal	x15,80002650	 x15=0x80002650
        5285000	       527	00000000	00000013	addi	x0,x0,0	  x0:0x00000000
        5295000	       528	80002660	00000013	addi	x0,x0,0	  x0:0x00000000
        5305000	       529	80002664	024000ef	jal	x1,80002664	  x1=0x80002664
        5315000	       530	00000000	00000013	addi	x0,x0,0	  x0:0x00000000
        5325000	       531	80002684	00000013	addi	x0,x0,0	  x0:0x00000000
        5335000	       532	80002688	fd9ffb6f	jal	x22,80002688	 x22=0x80002688
        5345000	       533	00000000	00000013	addi	x0,x0,0	  x0:0x00000000
        5355000	       534	8000265c	00000013	addi	x0,x0,0	  x0:0x00000000
        5365000	       535	80002660	038000ef	jal	x1,80002660	  x1=0x80002660
        5375000	       536	00000000	00000013	addi	x0,x0,0	  x0:0x00000000
        5385000	       537	80002694	00000013	addi	x0,x0,0	  x0:0x00000000
        5395000	       538	80002698	fe5ff0ef	jal	x1,80002698	  x1=0x80002698
        5405000	       539	00000000	00000013	addi	x0,x0,0	  x0:0x00000000
        5415000	       540	80002678	00000013	addi	x0,x0,0	  x0:0x00000000
        5425000	       541	8000267c	fc9ff0ef	jal	x1,8000267c	  x1=0x8000267c
        5435000	       542	00000000	00000013	addi	x0,x0,0	  x0:0x00000000
        5445000	       543	80002640	00000013	addi	x0,x0,0	  x0:0x00000000
        5455000	       544	80002644	04c000ef	jal	x1,80002644	  x1=0x80002644
        5465000	       545	00000000	00000013	addi	x0,x0,0	  x0:0x00000000
        5475000	       546	8000268c	00000013	addi	x0,x0,0	  x0:0x00000000
        5485000	       547	80002690	fa9ff36f	jal	x6,80002690	  x6=0x80002690
        5495000	       548	00000000	00000013	addi	x0,x0,0	  x0:0x00000000
        5505000	       549	80002634	00000013	addi	x0,x0,0	  x0:0x00000000
        5515000	       550	80002638	0100076f	jal	x14,80002638	 x14=0x80002638
        5525000	       551	00000000	00000013	addi	x0,x0,0	  x0:0x00000000
        5535000	       552	80002644	00000013	addi	x0,x0,0	  x0:0x00000000
        5545000	       553	80002648	0280036f	jal	x6,80002648	  x6=0x80002648
        5555000	       554	00000000	00000013	addi	x0,x0,0	  x0:0x00000000
        5565000	       555	8000266c	00000013	addi	x0,x0,0	  x0:0x00000000
        5575000	       556	80002670	014000ef	jal	x1,80002670	  x1=0x80002670
        5585000	       557	00000000	00000013	addi	x0,x0,0	  x0:0x00000000
        5595000	       558	80002680	00000013	addi	x0,x0,0	  x0:0x00000000
        5605000	       559	80002684	ff1ff2ef	jal	x5,80002684	  x5=0x80002684
        5615000	       560	00000000	00000013	addi	x0,x0,0	  x0:0x00000000
        5625000	       561	80002670	00000013	addi	x0,x0,0	  x0:0x00000000
        5635000	       562	80002674	018002ef	jal	x5,80002674	  x5=0x80002674
        5645000	       563	00000000	00000013	addi	x0,x0,0	  x0:0x00000000
        5655000	       564	80002688	00000013	addi	x0,x0,0	  x0:0x00000000
        5665000	       565	8000268c	fd1ff1ef	jal	x3,8000268c	  x3=0x8000268c
        5675000	       566	00000000	00000013	addi	x0,x0,0	  x0:0x00000000
        5685000	       567	80002658	00000013	addi	x0,x0,0	  x0:0x00000000
        5695000	       568	8000265c	fe5ff0ef	jal	x1,8000265c	  x1=0x8000265c
        5705000	       569	00000000	00000013	addi	x0,x0,0	  x0:0x00000000
        5715000	       570	8000263c	00000013	addi	x0,x0,0	  x0:0x00000000
        5725000	       571	80002640	00c000ef	jal	x1,80002640	  x1=0x80002640
        5735000	       572	00000000	00000013	addi	x0,x0,0	  x0:0x00000000
        5745000	       573	80002648	00000013	addi	x0,x0,0	  x0:0x00000000
        5755000	       574	8000264c	050000ef	jal	x1,8000264c	  x1=0x8000264c
        5765000	       575	00000000	00000013	addi	x0,x0,0	  x0:0x00000000
        5775000	       576	80002698	00000013	addi	x0,x0,0	  x0:0x00000000
        5785000	       577	8000269c	fbdfffef	jal	x31,8000269c	 x31=0x8000269c
        5795000	       578	00000000	00000013	addi	x0,x0,0	  x0:0x00000000
        5805000	       579	80002654	00000013	addi	x0,x0,0	  x0:0x00000000
        5815000	       580	80002658	03c00fef	jal	x31,80002658	 x31=0x80002658
        5825000	       581	00000000	00000013	addi	x0,x0,0	  x0:0x00000000
        5835000	       582	80002690	00000013	addi	x0,x0,0	  x0:0x00000000
        5845000	       583	80002694	fe5ff16f	jal	x2,80002694	  x2=0x80002694
        5855000	       584	00000000	00000013	addi	x0,x0,0	  x0:0x00000000
        5865000	       585	80002674	00000013	addi	x0,x0,0	  x0:0x00000000
        5875000	       586	80002678	fddff36f	jal	x6,80002678	  x6=0x80002678
        5885000	       587	00000000	00000013	addi	x0,x0,0	  x0:0x00000000
        5895000	       588	80002650	00000013	addi	x0,x0,0	  x0:0x00000000
        5905000	       589	80002654	02c000ef	jal	x1,80002654	  x1=0x80002654
        5915000	       590	00000000	00000013	addi	x0,x0,0	  x0:0x00000000
        5925000	       591	8000267c	00000013	addi	x0,x0,0	  x0:0x00000000
        5935000	       592	80002680	fedff0ef	jal	x1,80002680	  x1=0x80002680
        5945000	       593	00000000	00000013	addi	x0,x0,0	  x0:0x00000000
        5955000	       594	80002668	00000013	addi	x0,x0,0	  x0:0x00000000
        5965000	       595	8000266c	fd1ff36f	jal	x6,8000266c	  x6=0x8000266c
        5975000	       596	00000000	00000013	addi	x0,x0,0	  x0:0x00000000
        5985000	       597	80002638	00000013	addi	x0,x0,0	  x0:0x00000000
        5995000	       598	8000263c	0640036f	jal	x6,8000263c	  x6=0x8000263c
        6005000	       599	00000000	00000013	addi	x0,x0,0	  x0:0x00000000
        6015000	       600	8000269c	00000013	addi	x0,x0,0	  x0:0x00000000
        6025000	       601	800026a0	01864333	xor	x6,x12,x24	 x12:0x00000000 x24:0x80009f4c  x6=0x80009f4c
        6035000	       602	800026a4	020006ef	jal	x13,800026a4	 x13=0x800026a4
        6045000	       603	00000000	00000013	addi	x0,x0,0	  x0:0x00000000
        6055000	       604	800026c0	00000013	addi	x0,x0,0	  x0:0x00000000
        6065000	       605	800026c4	ff1ff0ef	jal	x1,800026c4	  x1=0x800026c4
        6075000	       606	00000000	00000013	addi	x0,x0,0	  x0:0x00000000
        6085000	       607	800026b0	00000013	addi	x0,x0,0	  x0:0x00000000
        6095000	       608	800026b4	0140046f	jal	x8,800026b4	  x8=0x800026b4
        6105000	       609	00000000	00000013	addi	x0,x0,0	  x0:0x00000000
        6115000	       610	800026c4	00000013	addi	x0,x0,0	  x0:0x00000000
        6125000	       611	800026c8	fe5ff0ef	jal	x1,800026c8	  x1=0x800026c8
        6135000	       612	00000000	00000013	addi	x0,x0,0	  x0:0x00000000
        6145000	       613	800026a8	00000013	addi	x0,x0,0	  x0:0x00000000
        6155000	       614	800026ac	0140036f	jal	x6,800026ac	  x6=0x800026ac
        6165000	       615	00000000	00000013	addi	x0,x0,0	  x0:0x00000000
        6175000	       616	800026bc	00000013	addi	x0,x0,0	  x0:0x00000000
        6185000	       617	800026c0	fe9ff0ef	jal	x1,800026c0	  x1=0x800026c0
        6195000	       618	00000000	00000013	addi	x0,x0,0	  x0:0x00000000
        6205000	       619	800026a4	00000013	addi	x0,x0,0	  x0:0x00000000
        6215000	       620	800026a8	024000ef	jal	x1,800026a8	  x1=0x800026a8
        6225000	       621	00000000	00000013	addi	x0,x0,0	  x0:0x00000000
        6235000	       622	800026c8	00000013	addi	x0,x0,0	  x0:0x00000000
        6245000	       623	800026cc	fedff0ef	jal	x1,800026cc	  x1=0x800026cc
        6255000	       624	00000000	00000013	addi	x0,x0,0	  x0:0x00000000
        6265000	       625	800026b4	00000013	addi	x0,x0,0	  x0:0x00000000
        6275000	       626	800026b8	ff9ff36f	jal	x6,800026b8	  x6=0x800026b8
        6285000	       627	00000000	00000013	addi	x0,x0,0	  x0:0x00000000
        6295000	       628	800026ac	00000013	addi	x0,x0,0	  x0:0x00000000
        6305000	       629	800026b0	00c0036f	jal	x6,800026b0	  x6=0x800026b0
        6315000	       630	00000000	00000013	addi	x0,x0,0	  x0:0x00000000
        6325000	       631	800026b8	00000013	addi	x0,x0,0	  x0:0x00000000
        6335000	       632	800026bc	014000ef	jal	x1,800026bc	  x1=0x800026bc
        6345000	       633	00000000	00000013	addi	x0,x0,0	  x0:0x00000000
        6355000	       634	800026cc	00000013	addi	x0,x0,0	  x0:0x00000000
        6365000	       635	800026d0	010b40b3	xor	x1,x22,x16	 x22:0x80002688 x16:0x80000258  x1=0x000024d0
        6375000	       636	800026d4	01c006ef	jal	x13,800026d4	 x13=0x800026d4
        6385000	       637	00000000	00000013	addi	x0,x0,0	  x0:0x00000000
        6395000	       638	800026ec	00000013	addi	x0,x0,0	  x0:0x00000000
        6405000	       639	800026f0	0100036f	jal	x6,800026f0	  x6=0x800026f0
        6415000	       640	00000000	00000013	addi	x0,x0,0	  x0:0x00000000
        6425000	       641	800026fc	00000013	addi	x0,x0,0	  x0:0x00000000
        6435000	       642	80002700	fe1ff0ef	jal	x1,80002700	  x1=0x80002700
        6445000	       643	00000000	00000013	addi	x0,x0,0	  x0:0x00000000
        6455000	       644	800026dc	00000013	addi	x0,x0,0	  x0:0x00000000
        6465000	       645	800026e0	024000ef	jal	x1,800026e0	  x1=0x800026e0
        6475000	       646	00000000	00000013	addi	x0,x0,0	  x0:0x00000000
        6485000	       647	80002700	00000013	addi	x0,x0,0	  x0:0x00000000
        6495000	       648	80002704	fe1ff0ef	jal	x1,80002704	  x1=0x80002704
        6505000	       649	00000000	00000013	addi	x0,x0,0	  x0:0x00000000
        6515000	       650	800026e0	00000013	addi	x0,x0,0	  x0:0x00000000
        6525000	       651	800026e4	004009ef	jal	x19,800026e4	 x19=0x800026e4
        6535000	       652	00000000	00000013	addi	x0,x0,0	  x0:0x00000000
        6545000	       653	800026e4	00000013	addi	x0,x0,0	  x0:0x00000000
        6555000	       654	800026e8	010000ef	jal	x1,800026e8	  x1=0x800026e8
        6565000	       655	00000000	00000013	addi	x0,x0,0	  x0:0x00000000
        6575000	       656	800026f4	00000013	addi	x0,x0,0	  x0:0x00000000
        6585000	       657	800026f8	fe1ff0ef	jal	x1,800026f8	  x1=0x800026f8
        6595000	       658	00000000	00000013	addi	x0,x0,0	  x0:0x00000000
        6605000	       659	800026d4	00000013	addi	x0,x0,0	  x0:0x00000000
        6615000	       660	800026d8	01c000ef	jal	x1,800026d8	  x1=0x800026d8
        6625000	       661	00000000	00000013	addi	x0,x0,0	  x0:0x00000000
        6635000	       662	800026f0	00000013	addi	x0,x0,0	  x0:0x00000000
        6645000	       663	800026f4	ff9ff0ef	jal	x1,800026f4	  x1=0x800026f4
        6655000	       664	00000000	00000013	addi	x0,x0,0	  x0:0x00000000
        6665000	       665	800026e8	00000013	addi	x0,x0,0	  x0:0x00000000
        6675000	       666	800026ec	ff1ff0ef	jal	x1,800026ec	  x1=0x800026ec
        6685000	       667	00000000	00000013	addi	x0,x0,0	  x0:0x00000000
        6695000	       668	800026d8	00000013	addi	x0,x0,0	  x0:0x00000000
        6705000	       669	800026dc	0200036f	jal	x6,800026dc	  x6=0x800026dc
        6715000	       670	00000000	00000013	addi	x0,x0,0	  x0:0x00000000
        6725000	       671	800026f8	00000013	addi	x0,x0,0	  x0:0x00000000
        6735000	       672	800026fc	00c00fef	jal	x31,800026fc	 x31=0x800026fc
        6745000	       673	00000000	00000013	addi	x0,x0,0	  x0:0x00000000
        6755000	       674	80002704	00000013	addi	x0,x0,0	  x0:0x00000000
        6765000	       675	80002708	82f7ef93	ori	x31,x15,-2001	 x15:0x80002650 x31=0xfffffe7f
        6775000	       676	8000270c	01c006ef	jal	x13,8000270c	 x13=0x8000270c
        6785000	       677	00000000	00000013	addi	x0,x0,0	  x0:0x00000000
        6795000	       678	80002724	00000013	addi	x0,x0,0	  x0:0x00000000
        6805000	       679	80002728	0040036f	jal	x6,80002728	  x6=0x80002728
        6815000	       680	00000000	00000013	addi	x0,x0,0	  x0:0x00000000
        6825000	       681	80002728	00000013	addi	x0,x0,0	  x0:0x00000000
        6835000	       682	8000272c	ff1ff0ef	jal	x1,8000272c	  x1=0x8000272c
        6845000	       683	00000000	00000013	addi	x0,x0,0	  x0:0x00000000
        6855000	       684	80002718	00000013	addi	x0,x0,0	  x0:0x00000000
        6865000	       685	8000271c	ff9ff0ef	jal	x1,8000271c	  x1=0x8000271c
        6875000	       686	00000000	00000013	addi	x0,x0,0	  x0:0x00000000
        6885000	       687	80002710	00000013	addi	x0,x0,0	  x0:0x00000000
        6895000	       688	80002714	ffdff0ef	jal	x1,80002714	  x1=0x80002714
        6905000	       689	00000000	00000013	addi	x0,x0,0	  x0:0x00000000
        6915000	       690	8000270c	00000013	addi	x0,x0,0	  x0:0x00000000
        6925000	       691	80002710	0280016f	jal	x2,80002710	  x2=0x80002710
        6935000	       692	00000000	00000013	addi	x0,x0,0	  x0:0x00000000
        6945000	       693	80002734	00000013	addi	x0,x0,0	  x0:0x00000000
        6955000	       694	80002738	0040036f	jal	x6,80002738	  x6=0x80002738
        6965000	       695	00000000	00000013	addi	x0,x0,0	  x0:0x00000000
        6975000	       696	80002738	00000013	addi	x0,x0,0	  x0:0x00000000
        6985000	       697	8000273c	ff9ff2ef	jal	x5,8000273c	  x5=0x8000273c
        6995000	       698	00000000	00000013	addi	x0,x0,0	  x0:0x00000000
        7005000	       699	80002730	00000013	addi	x0,x0,0	  x0:0x00000000
        7015000	       700	80002734	00c006ef	jal	x13,80002734	 x13=0x80002734
        7025000	       701	00000000	00000013	addi	x0,x0,0	  x0:0x00000000
        7035000	       702	8000273c	00000013	addi	x0,x0,0	  x0:0x00000000
        7045000	       703	80002740	fe5ff0ef	jal	x1,80002740	  x1=0x80002740
        7055000	       704	00000000	00000013	addi	x0,x0,0	  x0:0x00000000
        7065000	       705	80002720	00000013	addi	x0,x0,0	  x0:0x00000000
        7075000	       706	80002724	00c000ef	jal	x1,80002724	  x1=0x80002724
        7085000	       707	00000000	00000013	addi	x0,x0,0	  x0:0x00000000
        7095000	       708	8000272c	00000013	addi	x0,x0,0	  x0:0x00000000
        7105000	       709	80002730	fe9ff0ef	jal	x1,80002730	  x1=0x80002730
        7115000	       710	00000000	00000013	addi	x0,x0,0	  x0:0x00000000
        7125000	       711	80002714	00000013	addi	x0,x0,0	  x0:0x00000000
        7135000	       712	80002718	008000ef	jal	x1,80002718	  x1=0x80002718
        7145000	       713	00000000	00000013	addi	x0,x0,0	  x0:0x00000000
        7155000	       714	8000271c	00000013	addi	x0,x0,0	  x0:0x00000000
        7165000	       715	80002720	0240036f	jal	x6,80002720	  x6=0x80002720
        7175000	       716	00000000	00000013	addi	x0,x0,0	  x0:0x00000000
        7185000	       717	80002740	00000013	addi	x0,x0,0	  x0:0x00000000
        7195000	       718	80002744	000568b3	or	x17,x10,x0	 x10:0x0000000a  x0:0x00000000 x17=0x0000000a
        7205000	       719	80002748	038006ef	jal	x13,80002748	 x13=0x80002748
        7215000	       720	00000000	00000013	addi	x0,x0,0	  x0:0x00000000
        7225000	       721	8000277c	00000013	addi	x0,x0,0	  x0:0x00000000
        7235000	       722	80002780	fd9ffe6f	jal	x28,80002780	 x28=0x80002780
        7245000	       723	00000000	00000013	addi	x0,x0,0	  x0:0x00000000
        7255000	       724	80002754	00000013	addi	x0,x0,0	  x0:0x00000000
        7265000	       725	80002758	030000ef	jal	x1,80002758	  x1=0x80002758
        7275000	       726	00000000	00000013	addi	x0,x0,0	  x0:0x00000000
        7285000	       727	80002784	00000013	addi	x0,x0,0	  x0:0x00000000
        7295000	       728	80002788	fe5ff0ef	jal	x1,80002788	  x1=0x80002788
        7305000	       729	00000000	00000013	addi	x0,x0,0	  x0:0x00000000
        7315000	       730	80002768	00000013	addi	x0,x0,0	  x0:0x00000000
        7325000	       731	8000276c	034000ef	jal	x1,8000276c	  x1=0x8000276c
        7335000	       732	00000000	00000013	addi	x0,x0,0	  x0:0x00000000
        7345000	       733	8000279c	00000013	addi	x0,x0,0	  x0:0x00000000
        7355000	       734	800027a0	fd9ffeef	jal	x29,800027a0	 x29=0x800027a0
        7365000	       735	00000000	00000013	addi	x0,x0,0	  x0:0x00000000
        7375000	       736	80002774	00000013	addi	x0,x0,0	  x0:0x00000000
        7385000	       737	80002778	fddff36f	jal	x6,80002778	  x6=0x80002778
        7395000	       738	00000000	00000013	addi	x0,x0,0	  x0:0x00000000
        7405000	       739	80002750	00000013	addi	x0,x0,0	  x0:0x00000000
        7415000	       740	80002754	0140056f	jal	x10,80002754	 x10=0x80002754
        7425000	       741	00000000	00000013	addi	x0,x0,0	  x0:0x00000000
        7435000	       742	80002764	00000013	addi	x0,x0,0	  x0:0x00000000
        7445000	       743	80002768	fe5ff0ef	jal	x1,80002768	  x1=0x80002768
        7455000	       744	00000000	00000013	addi	x0,x0,0	  x0:0x00000000
        7465000	       745	80002748	00000013	addi	x0,x0,0	  x0:0x00000000
        7475000	       746	8000274c	01400e6f	jal	x28,8000274c	 x28=0x8000274c
        7485000	       747	00000000	00000013	addi	x0,x0,0	  x0:0x00000000
        7495000	       748	8000275c	00000013	addi	x0,x0,0	  x0:0x00000000
        7505000	       749	80002760	048000ef	jal	x1,80002760	  x1=0x80002760
        7515000	       750	00000000	00000013	addi	x0,x0,0	  x0:0x00000000
        7525000	       751	800027a4	00000013	addi	x0,x0,0	  x0:0x00000000
        7535000	       752	800027a8	fa9ff16f	jal	x2,800027a8	  x2=0x800027a8
        7545000	       753	00000000	00000013	addi	x0,x0,0	  x0:0x00000000
        7555000	       754	8000274c	00000013	addi	x0,x0,0	  x0:0x00000000
        7565000	       755	80002750	06000e6f	jal	x28,80002750	 x28=0x80002750
        7575000	       756	00000000	00000013	addi	x0,x0,0	  x0:0x00000000
        7585000	       757	800027ac	00000013	addi	x0,x0,0	  x0:0x00000000
        7595000	       758	800027b0	fddff2ef	jal	x5,800027b0	  x5=0x800027b0
        7605000	       759	00000000	00000013	addi	x0,x0,0	  x0:0x00000000
        7615000	       760	80002788	00000013	addi	x0,x0,0	  x0:0x00000000
        7625000	       761	8000278c	018000ef	jal	x1,8000278c	  x1=0x8000278c
        7635000	       762	00000000	00000013	addi	x0,x0,0	  x0:0x00000000
        7645000	       763	800027a0	00000013	addi	x0,x0,0	  x0:0x00000000
        7655000	       764	800027a4	010000ef	jal	x1,800027a4	  x1=0x800027a4
        7665000	       765	00000000	00000013	addi	x0,x0,0	  x0:0x00000000
        7675000	       766	800027b0	00000013	addi	x0,x0,0	  x0:0x00000000
        7685000	       767	800027b4	fd1ff0ef	jal	x1,800027b4	  x1=0x800027b4
        7695000	       768	00000000	00000013	addi	x0,x0,0	  x0:0x00000000
        7705000	       769	80002780	00000013	addi	x0,x0,0	  x0:0x00000000
        7715000	       770	80002784	ff1ffbef	jal	x23,80002784	 x23=0x80002784
        7725000	       771	00000000	00000013	addi	x0,x0,0	  x0:0x00000000
        7735000	       772	80002770	00000013	addi	x0,x0,0	  x0:0x00000000
        7745000	       773	80002774	fe9ff2ef	jal	x5,80002774	  x5=0x80002774
        7755000	       774	00000000	00000013	addi	x0,x0,0	  x0:0x00000000
        7765000	       775	80002758	00000013	addi	x0,x0,0	  x0:0x00000000
        7775000	       776	8000275c	038000ef	jal	x1,8000275c	  x1=0x8000275c
        7785000	       777	00000000	00000013	addi	x0,x0,0	  x0:0x00000000
        7795000	       778	80002790	00000013	addi	x0,x0,0	  x0:0x00000000
        7805000	       779	80002794	fd1ff0ef	jal	x1,80002794	  x1=0x80002794
        7815000	       780	00000000	00000013	addi	x0,x0,0	  x0:0x00000000
        7825000	       781	80002760	00000013	addi	x0,x0,0	  x0:0x00000000
        7835000	       782	80002764	018000ef	jal	x1,80002764	  x1=0x80002764
        7845000	       783	00000000	00000013	addi	x0,x0,0	  x0:0x00000000
        7855000	       784	80002778	00000013	addi	x0,x0,0	  x0:0x00000000
        7865000	       785	8000277c	0200036f	jal	x6,8000277c	  x6=0x8000277c
        7875000	       786	00000000	00000013	addi	x0,x0,0	  x0:0x00000000
        7885000	       787	80002798	00000013	addi	x0,x0,0	  x0:0x00000000
        7895000	       788	8000279c	ff5ff0ef	jal	x1,8000279c	  x1=0x8000279c
        7905000	       789	00000000	00000013	addi	x0,x0,0	  x0:0x00000000
        7915000	       790	8000278c	00000013	addi	x0,x0,0	  x0:0x00000000
        7925000	       791	80002790	008000ef	jal	x1,80002790	  x1=0x80002790
        7935000	       792	00000000	00000013	addi	x0,x0,0	  x0:0x00000000
        7945000	       793	80002794	00000013	addi	x0,x0,0	  x0:0x00000000
        7955000	       794	80002798	fd9ff7ef	jal	x15,80002798	 x15=0x80002798
        7965000	       795	00000000	00000013	addi	x0,x0,0	  x0:0x00000000
        7975000	       796	8000276c	00000013	addi	x0,x0,0	  x0:0x00000000
        7985000	       797	80002770	03c0036f	jal	x6,80002770	  x6=0x80002770
        7995000	       798	00000000	00000013	addi	x0,x0,0	  x0:0x00000000
        8005000	       799	800027a8	00000013	addi	x0,x0,0	  x0:0x00000000
        8015000	       800	800027ac	00c001ef	jal	x3,800027ac	  x3=0x800027ac
        8025000	       801	00000000	00000013	addi	x0,x0,0	  x0:0x00000000
        8035000	       802	800027b4	00000013	addi	x0,x0,0	  x0:0x00000000
        8045000	       803	800027b8	d7a74813	xori	x16,x14,-646	 x14:0x80002638 x16=0x7fffdb42
        8055000	       804	800027bc	014006ef	jal	x13,800027bc	 x13=0x800027bc
        8065000	       805	00000000	00000013	addi	x0,x0,0	  x0:0x00000000
        8075000	       806	800027cc	00000013	addi	x0,x0,0	  x0:0x00000000
        8085000	       807	800027d0	0080036f	jal	x6,800027d0	  x6=0x800027d0
        8095000	       808	00000000	00000013	addi	x0,x0,0	  x0:0x00000000
        8105000	       809	800027d4	00000013	addi	x0,x0,0	  x0:0x00000000
        8115000	       810	800027d8	0080036f	jal	x6,800027d8	  x6=0x800027d8
        8125000	       811	00000000	00000013	addi	x0,x0,0	  x0:0x00000000
        8135000	       812	800027dc	00000013	addi	x0,x0,0	  x0:0x00000000
        8145000	       813	800027e0	008000ef	jal	x1,800027e0	  x1=0x800027e0
        8155000	       814	00000000	00000013	addi	x0,x0,0	  x0:0x00000000
        8165000	       815	800027e4	00000013	addi	x0,x0,0	  x0:0x00000000
        8175000	       816	800027e8	ffdff36f	jal	x6,800027e8	  x6=0x800027e8
        8185000	       817	00000000	00000013	addi	x0,x0,0	  x0:0x00000000
        8195000	       818	800027e0	00000013	addi	x0,x0,0	  x0:0x00000000
        8205000	       819	800027e4	fddff5ef	jal	x11,800027e4	 x11=0x800027e4
        8215000	       820	00000000	00000013	addi	x0,x0,0	  x0:0x00000000
        8225000	       821	800027bc	00000013	addi	x0,x0,0	  x0:0x00000000
        8235000	       822	800027c0	01400d6f	jal	x26,800027c0	 x26=0x800027c0
        8245000	       823	00000000	00000013	addi	x0,x0,0	  x0:0x00000000
        8255000	       824	800027d0	00000013	addi	x0,x0,0	  x0:0x00000000
        8265000	       825	800027d4	018000ef	jal	x1,800027d4	  x1=0x800027d4
        8275000	       826	00000000	00000013	addi	x0,x0,0	  x0:0x00000000
        8285000	       827	800027e8	00000013	addi	x0,x0,0	  x0:0x00000000
        8295000	       828	800027ec	fe1ff0ef	jal	x1,800027ec	  x1=0x800027ec
        8305000	       829	00000000	00000013	addi	x0,x0,0	  x0:0x00000000
        8315000	       830	800027c8	00000013	addi	x0,x0,0	  x0:0x00000000
        8325000	       831	800027cc	010000ef	jal	x1,800027cc	  x1=0x800027cc
        8335000	       832	00000000	00000013	addi	x0,x0,0	  x0:0x00000000
        8345000	       833	800027d8	00000013	addi	x0,x0,0	  x0:0x00000000
        8355000	       834	800027dc	fedff0ef	jal	x1,800027dc	  x1=0x800027dc
        8365000	       835	00000000	00000013	addi	x0,x0,0	  x0:0x00000000
        8375000	       836	800027c4	00000013	addi	x0,x0,0	  x0:0x00000000
        8385000	       837	800027c8	ffdfff6f	jal	x30,800027c8	 x30=0x800027c8
        8395000	       838	00000000	00000013	addi	x0,x0,0	  x0:0x00000000
        8405000	       839	800027c0	00000013	addi	x0,x0,0	  x0:0x00000000
        8415000	       840	800027c4	02c00e6f	jal	x28,800027c4	 x28=0x800027c4
        8425000	       841	00000000	00000013	addi	x0,x0,0	  x0:0x00000000
        8435000	       842	800027ec	00000013	addi	x0,x0,0	  x0:0x00000000
        8445000	       843	800027f0	99c1bb13	sltiu	x22,x3,-1636	  x3:0x800027ac x22=0x00000001
        8455000	       844	800027f4	024006ef	jal	x13,800027f4	 x13=0x800027f4
        8465000	       845	00000000	00000013	addi	x0,x0,0	  x0:0x00000000
        8475000	       846	80002814	00000013	addi	x0,x0,0	  x0:0x00000000
        8485000	       847	80002818	ff9ffeef	jal	x29,80002818	 x29=0x80002818
        8495000	       848	00000000	00000013	addi	x0,x0,0	  x0:0x00000000
        8505000	       849	8000280c	00000013	addi	x0,x0,0	  x0:0x00000000
        8515000	       850	80002810	ff5ff0ef	jal	x1,80002810	  x1=0x80002810
        8525000	       851	00000000	00000013	addi	x0,x0,0	  x0:0x00000000
        8535000	       852	80002800	00000013	addi	x0,x0,0	  x0:0x00000000
        8545000	       853	80002804	024000ef	jal	x1,80002804	  x1=0x80002804
        8555000	       854	00000000	00000013	addi	x0,x0,0	  x0:0x00000000
        8565000	       855	80002824	00000013	addi	x0,x0,0	  x0:0x00000000
        8575000	       856	80002828	fedff66f	jal	x12,80002828	 x12=0x80002828
        8585000	       857	00000000	00000013	addi	x0,x0,0	  x0:0x00000000
        8595000	       858	80002810	00000013	addi	x0,x0,0	  x0:0x00000000
        8605000	       859	80002814	fe5ff2ef	jal	x5,80002814	  x5=0x80002814
        8615000	       860	00000000	00000013	addi	x0,x0,0	  x0:0x00000000
        8625000	       861	800027f4	00000013	addi	x0,x0,0	  x0:0x00000000
        8635000	       862	800027f8	008001ef	jal	x3,800027f8	  x3=0x800027f8
        8645000	       863	00000000	00000013	addi	x0,x0,0	  x0:0x00000000
        8655000	       864	800027fc	00000013	addi	x0,x0,0	  x0:0x00000000
        8665000	       865	80002800	01c0036f	jal	x6,80002800	  x6=0x80002800
        8675000	       866	00000000	00000013	addi	x0,x0,0	  x0:0x00000000
        8685000	       867	80002818	00000013	addi	x0,x0,0	  x0:0x00000000
        8695000	       868	8000281c	004000ef	jal	x1,8000281c	  x1=0x8000281c
        8705000	       869	00000000	00000013	addi	x0,x0,0	  x0:0x00000000
        8715000	       870	8000281c	00000013	addi	x0,x0,0	  x0:0x00000000
        8725000	       871	80002820	0040036f	jal	x6,80002820	  x6=0x80002820
        8735000	       872	00000000	00000013	addi	x0,x0,0	  x0:0x00000000
        8745000	       873	80002820	00000013	addi	x0,x0,0	  x0:0x00000000
        8755000	       874	80002824	fe9ff2ef	jal	x5,80002824	  x5=0x80002824
        8765000	       875	00000000	00000013	addi	x0,x0,0	  x0:0x00000000
        8775000	       876	80002808	00000013	addi	x0,x0,0	  x0:0x00000000
        8785000	       877	8000280c	ffdff5ef	jal	x11,8000280c	 x11=0x8000280c
        8795000	       878	00000000	00000013	addi	x0,x0,0	  x0:0x00000000
        8805000	       879	80002804	00000013	addi	x0,x0,0	  x0:0x00000000
        8815000	       880	80002808	ff5ff0ef	jal	x1,80002808	  x1=0x80002808
        8825000	       881	00000000	00000013	addi	x0,x0,0	  x0:0x00000000
        8835000	       882	800027f8	00000013	addi	x0,x0,0	  x0:0x00000000
        8845000	       883	800027fc	030000ef	jal	x1,800027fc	  x1=0x800027fc
        8855000	       884	00000000	00000013	addi	x0,x0,0	  x0:0x00000000
        8865000	       885	80002828	00000013	addi	x0,x0,0	  x0:0x00000000
        8875000	       886	8000282c	01e670b3	and	x1,x12,x30	 x12:0x80002828 x30:0x800027c8  x1=0x80002008
        8885000	       887	80002830	044006ef	jal	x13,80002830	 x13=0x80002830
        8895000	       888	00000000	00000013	addi	x0,x0,0	  x0:0x00000000
        8905000	       889	80002870	00000013	addi	x0,x0,0	  x0:0x00000000
        8915000	       890	80002874	ff5ff0ef	jal	x1,80002874	  x1=0x80002874
        8925000	       891	00000000	00000013	addi	x0,x0,0	  x0:0x00000000
        8935000	       892	80002864	00000013	addi	x0,x0,0	  x0:0x00000000
        8945000	       893	80002868	ff9ff0ef	jal	x1,80002868	  x1=0x80002868
        8955000	       894	00000000	00000013	addi	x0,x0,0	  x0:0x00000000
        8965000	       895	8000285c	00000013	addi	x0,x0,0	  x0:0x00000000
        8975000	       896	80002860	038000ef	jal	x1,80002860	  x1=0x80002860
        8985000	       897	00000000	00000013	addi	x0,x0,0	  x0:0x00000000
        8995000	       898	80002894	00000013	addi	x0,x0,0	  x0:0x00000000
        9005000	       899	80002898	fadff0ef	jal	x1,80002898	  x1=0x80002898
        9015000	       900	00000000	00000013	addi	x0,x0,0	  x0:0x00000000
        9025000	       901	80002840	00000013	addi	x0,x0,0	  x0:0x00000000
        9035000	       902	80002844	034006ef	jal	x13,80002844	 x13=0x80002844
        9045000	       903	00000000	00000013	addi	x0,x0,0	  x0:0x00000000
        9055000	       904	80002874	00000013	addi	x0,x0,0	  x0:0x00000000
        9065000	       905	80002878	fd5ff36f	jal	x6,80002878	  x6=0x80002878
        9075000	       906	00000000	00000013	addi	x0,x0,0	  x0:0x00000000
        9085000	       907	80002848	00000013	addi	x0,x0,0	  x0:0x00000000
        9095000	       908	8000284c	0480036f	jal	x6,8000284c	  x6=0x8000284c
        9105000	       909	00000000	00000013	addi	x0,x0,0	  x0:0x00000000
        9115000	       910	80002890	00000013	addi	x0,x0,0	  x0:0x00000000
        9125000	       911	80002894	fddff0ef	jal	x1,80002894	  x1=0x80002894
        9135000	       912	00000000	00000013	addi	x0,x0,0	  x0:0x00000000
        9145000	       913	8000286c	00000013	addi	x0,x0,0	  x0:0x00000000
        9155000	       914	80002870	00c0036f	jal	x6,80002870	  x6=0x80002870
        9165000	       915	00000000	00000013	addi	x0,x0,0	  x0:0x00000000
        9175000	       916	80002878	00000013	addi	x0,x0,0	  x0:0x00000000
        9185000	       917	8000287c	fddffd6f	jal	x26,8000287c	 x26=0x8000287c
        9195000	       918	00000000	00000013	addi	x0,x0,0	  x0:0x00000000
        9205000	       919	80002854	00000013	addi	x0,x0,0	  x0:0x00000000
        9215000	       920	80002858	00c00aef	jal	x21,80002858	 x21=0x80002858
        9225000	       921	00000000	00000013	addi	x0,x0,0	  x0:0x00000000
        9235000	       922	80002860	00000013	addi	x0,x0,0	  x0:0x00000000
        9245000	       923	80002864	0200036f	jal	x6,80002864	  x6=0x80002864
        9255000	       924	00000000	00000013	addi	x0,x0,0	  x0:0x00000000
        9265000	       925	80002880	00000013	addi	x0,x0,0	  x0:0x00000000
        9275000	       926	80002884	fb1ff0ef	jal	x1,80002884	  x1=0x80002884
        9285000	       927	00000000	00000013	addi	x0,x0,0	  x0:0x00000000
        9295000	       928	80002830	00000013	addi	x0,x0,0	  x0:0x00000000
        9305000	       929	80002834	01400eef	jal	x29,80002834	 x29=0x80002834
        9315000	       930	00000000	00000013	addi	x0,x0,0	  x0:0x00000000
        9325000	       931	80002844	00000013	addi	x0,x0,0	  x0:0x00000000
        9335000	       932	80002848	048006ef	jal	x13,80002848	 x13=0x80002848
        9345000	       933	00000000	00000013	addi	x0,x0,0	  x0:0x00000000
        9355000	       934	8000288c	00000013	addi	x0,x0,0	  x0:0x00000000
        9365000	       935	80002890	fa9ff0ef	jal	x1,80002890	  x1=0x80002890
        9375000	       936	00000000	00000013	addi	x0,x0,0	  x0:0x00000000
        9385000	       937	80002834	00000013	addi	x0,x0,0	  x0:0x00000000
        9395000	       938	80002838	0180086f	jal	x16,80002838	 x16=0x80002838
        9405000	       939	00000000	00000013	addi	x0,x0,0	  x0:0x00000000
        9415000	       940	8000284c	00000013	addi	x0,x0,0	  x0:0x00000000
        9425000	       941	80002850	038000ef	jal	x1,80002850	  x1=0x80002850
        9435000	       942	00000000	00000013	addi	x0,x0,0	  x0:0x00000000
        9445000	       943	80002884	00000013	addi	x0,x0,0	  x0:0x00000000
        9455000	       944	80002888	004002ef	jal	x5,80002888	  x5=0x80002888
        9465000	       945	00000000	00000013	addi	x0,x0,0	  x0:0x00000000
        9475000	       946	80002888	00000013	addi	x0,x0,0	  x0:0x00000000
        9485000	       947	8000288c	fc9ff0ef	jal	x1,8000288c	  x1=0x8000288c
        9495000	       948	00000000	00000013	addi	x0,x0,0	  x0:0x00000000
        9505000	       949	80002850	00000013	addi	x0,x0,0	  x0:0x00000000
        9515000	       950	80002854	fedff0ef	jal	x1,80002854	  x1=0x80002854
        9525000	       951	00000000	00000013	addi	x0,x0,0	  x0:0x00000000
        9535000	       952	8000283c	00000013	addi	x0,x0,0	  x0:0x00000000
        9545000	       953	80002840	ffdff0ef	jal	x1,80002840	  x1=0x80002840
        9555000	       954	00000000	00000013	addi	x0,x0,0	  x0:0x00000000
        9565000	       955	80002838	00000013	addi	x0,x0,0	  x0:0x00000000
        9575000	       956	8000283c	044000ef	jal	x1,8000283c	  x1=0x8000283c
        9585000	       957	00000000	00000013	addi	x0,x0,0	  x0:0x00000000
        9595000	       958	8000287c	00000013	addi	x0,x0,0	  x0:0x00000000
        9605000	       959	80002880	fedff0ef	jal	x1,80002880	  x1=0x80002880
        9615000	       960	00000000	00000013	addi	x0,x0,0	  x0:0x00000000
        9625000	       961	80002868	00000013	addi	x0,x0,0	  x0:0x00000000
        9635000	       962	8000286c	ff1ff0ef	jal	x1,8000286c	  x1=0x8000286c
        9645000	       963	00000000	00000013	addi	x0,x0,0	  x0:0x00000000
        9655000	       964	80002858	00000013	addi	x0,x0,0	  x0:0x00000000
        9665000	       965	8000285c	0400036f	jal	x6,8000285c	  x6=0x8000285c
        9675000	       966	00000000	00000013	addi	x0,x0,0	  x0:0x00000000
        9685000	       967	80002898	00000013	addi	x0,x0,0	  x0:0x00000000
        9695000	       968	8000289c	007a3633	sltu	x12,x20,x7	 x20:0x00000009  x7:0x8000017c x12=0x00000001
        9705000	       969	800028a0	028006ef	jal	x13,800028a0	 x13=0x800028a0
        9715000	       970	00000000	00000013	addi	x0,x0,0	  x0:0x00000000
        9725000	       971	800028c4	00000013	addi	x0,x0,0	  x0:0x00000000
        9735000	       972	800028c8	014001ef	jal	x3,800028c8	  x3=0x800028c8
        9745000	       973	00000000	00000013	addi	x0,x0,0	  x0:0x00000000
        9755000	       974	800028d8	00000013	addi	x0,x0,0	  x0:0x00000000
        9765000	       975	800028dc	ff5ff0ef	jal	x1,800028dc	  x1=0x800028dc
        9775000	       976	00000000	00000013	addi	x0,x0,0	  x0:0x00000000
        9785000	       977	800028cc	00000013	addi	x0,x0,0	  x0:0x00000000
        9795000	       978	800028d0	040000ef	jal	x1,800028d0	  x1=0x800028d0
        9805000	       979	00000000	00000013	addi	x0,x0,0	  x0:0x00000000
        9815000	       980	8000290c	00000013	addi	x0,x0,0	  x0:0x00000000
        9825000	       981	80002910	fb1ff0ef	jal	x1,80002910	  x1=0x80002910
        9835000	       982	00000000	00000013	addi	x0,x0,0	  x0:0x00000000
        9845000	       983	800028bc	00000013	addi	x0,x0,0	  x0:0x00000000
        9855000	       984	800028c0	ff5ff0ef	jal	x1,800028c0	  x1=0x800028c0
        9865000	       985	00000000	00000013	addi	x0,x0,0	  x0:0x00000000
        9875000	       986	800028b0	00000013	addi	x0,x0,0	  x0:0x00000000
        9885000	       987	800028b4	03800eef	jal	x29,800028b4	 x29=0x800028b4
        9895000	       988	00000000	00000013	addi	x0,x0,0	  x0:0x00000000
        9905000	       989	800028e8	00000013	addi	x0,x0,0	  x0:0x00000000
        9915000	       990	800028ec	fedff16f	jal	x2,800028ec	  x2=0x800028ec
        9925000	       991	00000000	00000013	addi	x0,x0,0	  x0:0x00000000
        9935000	       992	800028d4	00000013	addi	x0,x0,0	  x0:0x00000000
        9945000	       993	800028d8	fd9ffeef	jal	x29,800028d8	 x29=0x800028d8
        9955000	       994	00000000	00000013	addi	x0,x0,0	  x0:0x00000000
        9965000	       995	800028ac	00000013	addi	x0,x0,0	  x0:0x00000000
        9975000	       996	800028b0	038002ef	jal	x5,800028b0	  x5=0x800028b0
        9985000	       997	00000000	00000013	addi	x0,x0,0	  x0:0x00000000
        9995000	       998	800028e4	00000013	addi	x0,x0,0	  x0:0x00000000
       10005000	       999	800028e8	018000ef	jal	x1,800028e8	  x1=0x800028e8
       10015000	      1000	00000000	00000013	addi	x0,x0,0	  x0:0x00000000
       10025000	      1001	800028fc	00000013	addi	x0,x0,0	  x0:0x00000000
       10035000	      1002	80002900	ffdff0ef	jal	x1,80002900	  x1=0x80002900
       10045000	      1003	00000000	00000013	addi	x0,x0,0	  x0:0x00000000
       10055000	      1004	800028f8	00000013	addi	x0,x0,0	  x0:0x00000000
       10065000	      1005	800028fc	0080036f	jal	x6,800028fc	  x6=0x800028fc
       10075000	      1006	00000000	00000013	addi	x0,x0,0	  x0:0x00000000
       10085000	      1007	80002900	00000013	addi	x0,x0,0	  x0:0x00000000
       10095000	      1008	80002904	fa1ff36f	jal	x6,80002904	  x6=0x80002904
       10105000	      1009	00000000	00000013	addi	x0,x0,0	  x0:0x00000000
       10115000	      1010	800028a0	00000013	addi	x0,x0,0	  x0:0x00000000
       10125000	      1011	800028a4	018002ef	jal	x5,800028a4	  x5=0x800028a4
       10135000	      1012	00000000	00000013	addi	x0,x0,0	  x0:0x00000000
       10145000	      1013	800028b8	00000013	addi	x0,x0,0	  x0:0x00000000
       10155000	      1014	800028bc	ffdff36f	jal	x6,800028bc	  x6=0x800028bc
       10165000	      1015	00000000	00000013	addi	x0,x0,0	  x0:0x00000000
       10175000	      1016	800028b4	00000013	addi	x0,x0,0	  x0:0x00000000
       10185000	      1017	800028b8	ff1ff1ef	jal	x3,800028b8	  x3=0x800028b8
       10195000	      1018	00000000	00000013	addi	x0,x0,0	  x0:0x00000000
       10205000	      1019	800028a4	00000013	addi	x0,x0,0	  x0:0x00000000
       10215000	      1020	800028a8	04c0036f	jal	x6,800028a8	  x6=0x800028a8
       10225000	      1021	00000000	00000013	addi	x0,x0,0	  x0:0x00000000
       10235000	      1022	800028f0	00000013	addi	x0,x0,0	  x0:0x00000000
       10245000	      1023	800028f4	fb9ff1ef	jal	x3,800028f4	  x3=0x800028f4
       10255000	      1024	00000000	00000013	addi	x0,x0,0	  x0:0x00000000
       10265000	      1025	800028a8	00000013	addi	x0,x0,0	  x0:0x00000000
       10275000	      1026	800028ac	05c000ef	jal	x1,800028ac	  x1=0x800028ac
       10285000	      1027	00000000	00000013	addi	x0,x0,0	  x0:0x00000000
       10295000	      1028	80002904	00000013	addi	x0,x0,0	  x0:0x00000000
       10305000	      1029	80002908	fcdff0ef	jal	x1,80002908	  x1=0x80002908
       10315000	      1030	00000000	00000013	addi	x0,x0,0	  x0:0x00000000
       10325000	      1031	800028d0	00000013	addi	x0,x0,0	  x0:0x00000000
       10335000	      1032	800028d4	010000ef	jal	x1,800028d4	  x1=0x800028d4
       10345000	      1033	00000000	00000013	addi	x0,x0,0	  x0:0x00000000
       10355000	      1034	800028e0	00000013	addi	x0,x0,0	  x0:0x00000000
       10365000	      1035	800028e4	00c0036f	jal	x6,800028e4	  x6=0x800028e4
       10375000	      1036	00000000	00000013	addi	x0,x0,0	  x0:0x00000000
       10385000	      1037	800028ec	00000013	addi	x0,x0,0	  x0:0x00000000
       10395000	      1038	800028f0	01c000ef	jal	x1,800028f0	  x1=0x800028f0
       10405000	      1039	00000000	00000013	addi	x0,x0,0	  x0:0x00000000
       10415000	      1040	80002908	00000013	addi	x0,x0,0	  x0:0x00000000
       10425000	      1041	8000290c	fd5ff36f	jal	x6,8000290c	  x6=0x8000290c
       10435000	      1042	00000000	00000013	addi	x0,x0,0	  x0:0x00000000
       10445000	      1043	800028dc	00000013	addi	x0,x0,0	  x0:0x00000000
       10455000	      1044	800028e0	018000ef	jal	x1,800028e0	  x1=0x800028e0
       10465000	      1045	00000000	00000013	addi	x0,x0,0	  x0:0x00000000
       10475000	      1046	800028f4	00000013	addi	x0,x0,0	  x0:0x00000000
       10485000	      1047	800028f8	fcdff36f	jal	x6,800028f8	  x6=0x800028f8
       10495000	      1048	00000000	00000013	addi	x0,x0,0	  x0:0x00000000
       10505000	      1049	800028c0	00000013	addi	x0,x0,0	  x0:0x00000000
       10515000	      1050	800028c4	008000ef	jal	x1,800028c4	  x1=0x800028c4
       10525000	      1051	00000000	00000013	addi	x0,x0,0	  x0:0x00000000
       10535000	      1052	800028c8	00000013	addi	x0,x0,0	  x0:0x00000000
       10545000	      1053	800028cc	048000ef	jal	x1,800028cc	  x1=0x800028cc
       10555000	      1054	00000000	00000013	addi	x0,x0,0	  x0:0x00000000
       10565000	      1055	80002910	00000013	addi	x0,x0,0	  x0:0x00000000
       10575000	      1056	80002914	0135d893	srli	x17,x11,0x13	 x11:0x8000280c x17=0x00001000
       10585000	      1057	80002918	01c006ef	jal	x13,80002918	 x13=0x80002918
       10595000	      1058	00000000	00000013	addi	x0,x0,0	  x0:0x00000000
       10605000	      1059	80002930	00000013	addi	x0,x0,0	  x0:0x00000000
       10615000	      1060	80002934	ff1ff0ef	jal	x1,80002934	  x1=0x80002934
       10625000	      1061	00000000	00000013	addi	x0,x0,0	  x0:0x00000000
       10635000	      1062	80002920	00000013	addi	x0,x0,0	  x0:0x00000000
       10645000	      1063	80002924	01c000ef	jal	x1,80002924	  x1=0x80002924
       10655000	      1064	00000000	00000013	addi	x0,x0,0	  x0:0x00000000
       10665000	      1065	8000293c	00000013	addi	x0,x0,0	  x0:0x00000000
       10675000	      1066	80002940	ffdff0ef	jal	x1,80002940	  x1=0x80002940
       10685000	      1067	00000000	00000013	addi	x0,x0,0	  x0:0x00000000
       10695000	      1068	80002938	00000013	addi	x0,x0,0	  x0:0x00000000
       10705000	      1069	8000293c	008000ef	jal	x1,8000293c	  x1=0x8000293c
       10715000	      1070	00000000	00000013	addi	x0,x0,0	  x0:0x00000000
       10725000	      1071	80002940	00000013	addi	x0,x0,0	  x0:0x00000000
       10735000	      1072	80002944	ff5ff46f	jal	x8,80002944	  x8=0x80002944
       10745000	      1073	00000000	00000013	addi	x0,x0,0	  x0:0x00000000
       10755000	      1074	80002934	00000013	addi	x0,x0,0	  x0:0x00000000
       10765000	      1075	80002938	ff1ff36f	jal	x6,80002938	  x6=0x80002938
       10775000	      1076	00000000	00000013	addi	x0,x0,0	  x0:0x00000000
       10785000	      1077	80002924	00000013	addi	x0,x0,0	  x0:0x00000000
       10795000	      1078	80002928	0340036f	jal	x6,80002928	  x6=0x80002928
       10805000	      1079	00000000	00000013	addi	x0,x0,0	  x0:0x00000000
       10815000	      1080	80002958	00000013	addi	x0,x0,0	  x0:0x00000000
       10825000	      1081	8000295c	fd1ff36f	jal	x6,8000295c	  x6=0x8000295c
       10835000	      1082	00000000	00000013	addi	x0,x0,0	  x0:0x00000000
       10845000	      1083	80002928	00000013	addi	x0,x0,0	  x0:0x00000000
       10855000	      1084	8000292c	01c000ef	jal	x1,8000292c	  x1=0x8000292c
       10865000	      1085	00000000	00000013	addi	x0,x0,0	  x0:0x00000000
       10875000	      1086	80002944	00000013	addi	x0,x0,0	  x0:0x00000000
       10885000	      1087	80002948	fd5ffaef	jal	x21,80002948	 x21=0x80002948
       10895000	      1088	00000000	00000013	addi	x0,x0,0	  x0:0x00000000
       10905000	      1089	80002918	00000013	addi	x0,x0,0	  x0:0x00000000
       10915000	      1090	8000291c	014000ef	jal	x1,8000291c	  x1=0x8000291c
       10925000	      1091	00000000	00000013	addi	x0,x0,0	  x0:0x00000000
       10935000	      1092	8000292c	00000013	addi	x0,x0,0	  x0:0x00000000
       10945000	      1093	80002930	02800cef	jal	x25,80002930	 x25=0x80002930
       10955000	      1094	00000000	00000013	addi	x0,x0,0	  x0:0x00000000
       10965000	      1095	80002954	00000013	addi	x0,x0,0	  x0:0x00000000
       10975000	      1096	80002958	ff5ff0ef	jal	x1,80002958	  x1=0x80002958
       10985000	      1097	00000000	00000013	addi	x0,x0,0	  x0:0x00000000
       10995000	      1098	80002948	00000013	addi	x0,x0,0	  x0:0x00000000
       11005000	      1099	8000294c	fd5ff0ef	jal	x1,8000294c	  x1=0x8000294c
       11015000	      1100	00000000	00000013	addi	x0,x0,0	  x0:0x00000000
       11025000	      1101	8000291c	00000013	addi	x0,x0,0	  x0:0x00000000
       11035000	      1102	80002920	0300066f	jal	x12,80002920	 x12=0x80002920
       11045000	      1103	00000000	00000013	addi	x0,x0,0	  x0:0x00000000
       11055000	      1104	8000294c	00000013	addi	x0,x0,0	  x0:0x00000000
       11065000	      1105	80002950	0040036f	jal	x6,80002950	  x6=0x80002950
       11075000	      1106	00000000	00000013	addi	x0,x0,0	  x0:0x00000000
       11085000	      1107	80002950	00000013	addi	x0,x0,0	  x0:0x00000000
       11095000	      1108	80002954	00c0036f	jal	x6,80002954	  x6=0x80002954
       11105000	      1109	00000000	00000013	addi	x0,x0,0	  x0:0x00000000
       11115000	      1110	8000295c	00000013	addi	x0,x0,0	  x0:0x00000000
       11125000	      1111	80002960	40b184b3	sub	x9,x3,x11	  x3:0x800028f4 x11:0x8000280c  x9=0x000000e8
       11135000	      1112	80002964	008006ef	jal	x13,80002964	 x13=0x80002964
       11145000	      1113	00000000	00000013	addi	x0,x0,0	  x0:0x00000000
       11155000	      1114	80002968	00000013	addi	x0,x0,0	  x0:0x00000000
       11165000	      1115	8000296c	0680026f	jal	x4,8000296c	  x4=0x8000296c
       11175000	      1116	00000000	00000013	addi	x0,x0,0	  x0:0x00000000
       11185000	      1117	800029d0	00000013	addi	x0,x0,0	  x0:0x00000000
       11195000	      1118	800029d4	00800fef	jal	x31,800029d4	 x31=0x800029d4
       11205000	      1119	00000000	00000013	addi	x0,x0,0	  x0:0x00000000
       11215000	      1120	800029d8	00000013	addi	x0,x0,0	  x0:0x00000000
       11225000	      1121	800029dc	f8dff0ef	jal	x1,800029dc	  x1=0x800029dc
       11235000	      1122	00000000	00000013	addi	x0,x0,0	  x0:0x00000000
       11245000	      1123	80002964	00000013	addi	x0,x0,0	  x0:0x00000000
       11255000	      1124	80002968	0240036f	jal	x6,80002968	  x6=0x80002968
       11265000	      1125	00000000	00000013	addi	x0,x0,0	  x0:0x00000000
       11275000	      1126	80002988	00000013	addi	x0,x0,0	  x0:0x00000000
       11285000	      1127	8000298c	0240026f	jal	x4,8000298c	  x4=0x8000298c
       11295000	      1128	00000000	00000013	addi	x0,x0,0	  x0:0x00000000
       11305000	      1129	800029ac	00000013	addi	x0,x0,0	  x0:0x00000000
       11315000	      1130	800029b0	0100036f	jal	x6,800029b0	  x6=0x800029b0
       11325000	      1131	00000000	00000013	addi	x0,x0,0	  x0:0x00000000
       11335000	      1132	800029bc	00000013	addi	x0,x0,0	  x0:0x00000000
       11345000	      1133	800029c0	fd5ff0ef	jal	x1,800029c0	  x1=0x800029c0
       11355000	      1134	00000000	00000013	addi	x0,x0,0	  x0:0x00000000
       11365000	      1135	80002990	00000013	addi	x0,x0,0	  x0:0x00000000
       11375000	      1136	80002994	ff1ff0ef	jal	x1,80002994	  x1=0x80002994
       11385000	      1137	00000000	00000013	addi	x0,x0,0	  x0:0x00000000
       11395000	      1138	80002980	00000013	addi	x0,x0,0	  x0:0x00000000
       11405000	      1139	80002984	04c001ef	jal	x3,80002984	  x3=0x80002984
       11415000	      1140	00000000	00000013	addi	x0,x0,0	  x0:0x00000000
       11425000	      1141	800029cc	00000013	addi	x0,x0,0	  x0:0x00000000
       11435000	      1142	800029d0	fddff56f	jal	x10,800029d0	 x10=0x800029d0
       11445000	      1143	00000000	00000013	addi	x0,x0,0	  x0:0x00000000
       11455000	      1144	800029a8	00000013	addi	x0,x0,0	  x0:0x00000000
       11465000	      1145	800029ac	00c000ef	jal	x1,800029ac	  x1=0x800029ac
       11475000	      1146	00000000	00000013	addi	x0,x0,0	  x0:0x00000000
       11485000	      1147	800029b4	00000013	addi	x0,x0,0	  x0:0x00000000
       11495000	      1148	800029b8	fbdff0ef	jal	x1,800029b8	  x1=0x800029b8
       11505000	      1149	00000000	00000013	addi	x0,x0,0	  x0:0x00000000
       11515000	      1150	80002970	00000013	addi	x0,x0,0	  x0:0x00000000
       11525000	      1151	80002974	034000ef	jal	x1,80002974	  x1=0x80002974
       11535000	      1152	00000000	00000013	addi	x0,x0,0	  x0:0x00000000
       11545000	      1153	800029a4	00000013	addi	x0,x0,0	  x0:0x00000000
       11555000	      1154	800029a8	0240036f	jal	x6,800029a8	  x6=0x800029a8
       11565000	      1155	00000000	00000013	addi	x0,x0,0	  x0:0x00000000
       11575000	      1156	800029c8	00000013	addi	x0,x0,0	  x0:0x00000000
       11585000	      1157	800029cc	ff1ff9ef	jal	x19,800029cc	 x19=0x800029cc
       11595000	      1158	00000000	00000013	addi	x0,x0,0	  x0:0x00000000
       11605000	      1159	800029b8	00000013	addi	x0,x0,0	  x0:0x00000000
       11615000	      1160	800029bc	fc5ff0ef	jal	x1,800029bc	  x1=0x800029bc
       11625000	      1161	00000000	00000013	addi	x0,x0,0	  x0:0x00000000
       11635000	      1162	8000297c	00000013	addi	x0,x0,0	  x0:0x00000000
       11645000	      1163	80002980	044000ef	jal	x1,80002980	  x1=0x80002980
       11655000	      1164	00000000	00000013	addi	x0,x0,0	  x0:0x00000000
       11665000	      1165	800029c0	00000013	addi	x0,x0,0	  x0:0x00000000
       11675000	      1166	800029c4	0040036f	jal	x6,800029c4	  x6=0x800029c4
       11685000	      1167	00000000	00000013	addi	x0,x0,0	  x0:0x00000000
       11695000	      1168	800029c4	00000013	addi	x0,x0,0	  x0:0x00000000
       11705000	      1169	800029c8	fd1ff26f	jal	x4,800029c8	  x4=0x800029c8
       11715000	      1170	00000000	00000013	addi	x0,x0,0	  x0:0x00000000
       11725000	      1171	80002994	00000013	addi	x0,x0,0	  x0:0x00000000
       11735000	      1172	80002998	fd9ff0ef	jal	x1,80002998	  x1=0x80002998
       11745000	      1173	00000000	00000013	addi	x0,x0,0	  x0:0x00000000
       11755000	      1174	8000296c	00000013	addi	x0,x0,0	  x0:0x00000000
       11765000	      1175	80002970	034000ef	jal	x1,80002970	  x1=0x80002970
       11775000	      1176	00000000	00000013	addi	x0,x0,0	  x0:0x00000000
       11785000	      1177	800029a0	00000013	addi	x0,x0,0	  x0:0x00000000
       11795000	      1178	800029a4	ff9ff0ef	jal	x1,800029a4	  x1=0x800029a4
       11805000	      1179	00000000	00000013	addi	x0,x0,0	  x0:0x00000000
       11815000	      1180	80002998	00000013	addi	x0,x0,0	  x0:0x00000000
       11825000	      1181	8000299c	ff5ff66f	jal	x12,8000299c	 x12=0x8000299c
       11835000	      1182	00000000	00000013	addi	x0,x0,0	  x0:0x00000000
       11845000	      1183	8000298c	00000013	addi	x0,x0,0	  x0:0x00000000
       11855000	      1184	80002990	fe9ff86f	jal	x16,80002990	 x16=0x80002990
       11865000	      1185	00000000	00000013	addi	x0,x0,0	  x0:0x00000000
       11875000	      1186	80002974	00000013	addi	x0,x0,0	  x0:0x00000000
       11885000	      1187	80002978	060000ef	jal	x1,80002978	  x1=0x80002978
       11895000	      1188	00000000	00000013	addi	x0,x0,0	  x0:0x00000000
       11905000	      1189	800029d4	00000013	addi	x0,x0,0	  x0:0x00000000
       11915000	      1190	800029d8	fc9ff0ef	jal	x1,800029d8	  x1=0x800029d8
       11925000	      1191	00000000	00000013	addi	x0,x0,0	  x0:0x00000000
       11935000	      1192	8000299c	00000013	addi	x0,x0,0	  x0:0x00000000
       11945000	      1193	800029a0	0140046f	jal	x8,800029a0	  x8=0x800029a0
       11955000	      1194	00000000	00000013	addi	x0,x0,0	  x0:0x00000000
       11965000	      1195	800029b0	00000013	addi	x0,x0,0	  x0:0x00000000
       11975000	      1196	800029b4	fc9ff1ef	jal	x3,800029b4	  x3=0x800029b4
       11985000	      1197	00000000	00000013	addi	x0,x0,0	  x0:0x00000000
       11995000	      1198	80002978	00000013	addi	x0,x0,0	  x0:0x00000000
       12005000	      1199	8000297c	00c0036f	jal	x6,8000297c	  x6=0x8000297c
       12015000	      1200	00000000	00000013	addi	x0,x0,0	  x0:0x00000000
       12025000	      1201	80002984	00000013	addi	x0,x0,0	  x0:0x00000000
       12035000	      1202	80002988	058000ef	jal	x1,80002988	  x1=0x80002988
       12045000	      1203	00000000	00000013	addi	x0,x0,0	  x0:0x00000000
       12055000	      1204	800029dc	00000013	addi	x0,x0,0	  x0:0x00000000
       12065000	      1205	800029e0	f2c2a513	slti	x10,x5,-212	  x5:0x800028a4 x10=0x00000001
       12075000	      1206	800029e4	050006ef	jal	x13,800029e4	 x13=0x800029e4
       12085000	      1207	00000000	00000013	addi	x0,x0,0	  x0:0x00000000
       12095000	      1208	80002a30	00000013	addi	x0,x0,0	  x0:0x00000000
       12105000	      1209	80002a34	fc9ff0ef	jal	x1,80002a34	  x1=0x80002a34
       12115000	      1210	00000000	00000013	addi	x0,x0,0	  x0:0x00000000
       12125000	      1211	800029f8	00000013	addi	x0,x0,0	  x0:0x00000000
       12135000	      1212	800029fc	014000ef	jal	x1,800029fc	  x1=0x800029fc
       12145000	      1213	00000000	00000013	addi	x0,x0,0	  x0:0x00000000
       12155000	      1214	80002a0c	00000013	addi	x0,x0,0	  x0:0x00000000
       12165000	      1215	80002a10	ffdff0ef	jal	x1,80002a10	  x1=0x80002a10
       12175000	      1216	00000000	00000013	addi	x0,x0,0	  x0:0x00000000
       12185000	      1217	80002a08	00000013	addi	x0,x0,0	  x0:0x00000000
       12195000	      1218	80002a0c	00c000ef	jal	x1,80002a0c	  x1=0x80002a0c
       12205000	      1219	00000000	00000013	addi	x0,x0,0	  x0:0x00000000
       12215000	      1220	80002a14	00000013	addi	x0,x0,0	  x0:0x00000000
       12225000	      1221	80002a18	0200036f	jal	x6,80002a18	  x6=0x80002a18
       12235000	      1222	00000000	00000013	addi	x0,x0,0	  x0:0x00000000
       12245000	      1223	80002a34	00000013	addi	x0,x0,0	  x0:0x00000000
       12255000	      1224	80002a38	fddff66f	jal	x12,80002a38	 x12=0x80002a38
       12265000	      1225	00000000	00000013	addi	x0,x0,0	  x0:0x00000000
       12275000	      1226	80002a10	00000013	addi	x0,x0,0	  x0:0x00000000
       12285000	      1227	80002a14	01c0036f	jal	x6,80002a14	  x6=0x80002a14
       12295000	      1228	00000000	00000013	addi	x0,x0,0	  x0:0x00000000
       12305000	      1229	80002a2c	00000013	addi	x0,x0,0	  x0:0x00000000
       12315000	      1230	80002a30	ff5ff5ef	jal	x11,80002a30	 x11=0x80002a30
       12325000	      1231	00000000	00000013	addi	x0,x0,0	  x0:0x00000000
       12335000	      1232	80002a20	00000013	addi	x0,x0,0	  x0:0x00000000
       12345000	      1233	80002a24	fc5ff0ef	jal	x1,80002a24	  x1=0x80002a24
       12355000	      1234	00000000	00000013	addi	x0,x0,0	  x0:0x00000000
       12365000	      1235	800029e4	00000013	addi	x0,x0,0	  x0:0x00000000
       12375000	      1236	800029e8	034000ef	jal	x1,800029e8	  x1=0x800029e8
       12385000	      1237	00000000	00000013	addi	x0,x0,0	  x0:0x00000000
       12395000	      1238	80002a18	00000013	addi	x0,x0,0	  x0:0x00000000
       12405000	      1239	80002a1c	004001ef	jal	x3,80002a1c	  x3=0x80002a1c
       12415000	      1240	00000000	00000013	addi	x0,x0,0	  x0:0x00000000
       12425000	      1241	80002a1c	00000013	addi	x0,x0,0	  x0:0x00000000
       12435000	      1242	80002a20	fd9ff36f	jal	x6,80002a20	  x6=0x80002a20
       12445000	      1243	00000000	00000013	addi	x0,x0,0	  x0:0x00000000
       12455000	      1244	800029f4	00000013	addi	x0,x0,0	  x0:0x00000000
       12465000	      1245	800029f8	0100016f	jal	x2,800029f8	  x2=0x800029f8
       12475000	      1246	00000000	00000013	addi	x0,x0,0	  x0:0x00000000
       12485000	      1247	80002a04	00000013	addi	x0,x0,0	  x0:0x00000000
       12495000	      1248	80002a08	fedff0ef	jal	x1,80002a08	  x1=0x80002a08
       12505000	      1249	00000000	00000013	addi	x0,x0,0	  x0:0x00000000
       12515000	      1250	800029f0	00000013	addi	x0,x0,0	  x0:0x00000000
       12525000	      1251	800029f4	038000ef	jal	x1,800029f4	  x1=0x800029f4
       12535000	      1252	00000000	00000013	addi	x0,x0,0	  x0:0x00000000
       12545000	      1253	80002a28	00000013	addi	x0,x0,0	  x0:0x00000000
       12555000	      1254	80002a2c	fd5ff36f	jal	x6,80002a2c	  x6=0x80002a2c
       12565000	      1255	00000000	00000013	addi	x0,x0,0	  x0:0x00000000
       12575000	      1256	800029fc	00000013	addi	x0,x0,0	  x0:0x00000000
       12585000	      1257	80002a00	fedff36f	jal	x6,80002a00	  x6=0x80002a00
       12595000	      1258	00000000	00000013	addi	x0,x0,0	  x0:0x00000000
       12605000	      1259	800029e8	00000013	addi	x0,x0,0	  x0:0x00000000
       12615000	      1260	800029ec	0040036f	jal	x6,800029ec	  x6=0x800029ec
       12625000	      1261	00000000	00000013	addi	x0,x0,0	  x0:0x00000000
       12635000	      1262	800029ec	00000013	addi	x0,x0,0	  x0:0x00000000
       12645000	      1263	800029f0	014000ef	jal	x1,800029f0	  x1=0x800029f0
       12655000	      1264	00000000	00000013	addi	x0,x0,0	  x0:0x00000000
       12665000	      1265	80002a00	00000013	addi	x0,x0,0	  x0:0x00000000
       12675000	      1266	80002a04	02400bef	jal	x23,80002a04	 x23=0x80002a04
       12685000	      1267	00000000	00000013	addi	x0,x0,0	  x0:0x00000000
       12695000	      1268	80002a24	00000013	addi	x0,x0,0	  x0:0x00000000
       12705000	      1269	80002a28	014000ef	jal	x1,80002a28	  x1=0x80002a28
       12715000	      1270	00000000	00000013	addi	x0,x0,0	  x0:0x00000000
       12725000	      1271	80002a38	00000013	addi	x0,x0,0	  x0:0x00000000
       12735000	      1272	80002a3c	00eb87b3	add	x15,x23,x14	 x23:0x80002a04 x14:0x80002638 x15=0x0000503c
       12745000	      1273	80002a40	050006ef	jal	x13,80002a40	 x13=0x80002a40
       12755000	      1274	00000000	00000013	addi	x0,x0,0	  x0:0x00000000
       12765000	      1275	80002a8c	00000013	addi	x0,x0,0	  x0:0x00000000
       12775000	      1276	80002a90	0040036f	jal	x6,80002a90	  x6=0x80002a90
       12785000	      1277	00000000	00000013	addi	x0,x0,0	  x0:0x00000000
       12795000	      1278	80002a90	00000013	addi	x0,x0,0	  x0:0x00000000
       12805000	      1279	80002a94	fc1ff0ef	jal	x1,80002a94	  x1=0x80002a94
       12815000	      1280	00000000	00000013	addi	x0,x0,0	  x0:0x00000000
       12825000	      1281	80002a50	00000013	addi	x0,x0,0	  x0:0x00000000
       12835000	      1282	80002a54	ff5ff0ef	jal	x1,80002a54	  x1=0x80002a54
       12845000	      1283	00000000	00000013	addi	x0,x0,0	  x0:0x00000000
       12855000	      1284	80002a44	00000013	addi	x0,x0,0	  x0:0x00000000
       12865000	      1285	80002a48	0400016f	jal	x2,80002a48	  x2=0x80002a48
       12875000	      1286	00000000	00000013	addi	x0,x0,0	  x0:0x00000000
       12885000	      1287	80002a84	00000013	addi	x0,x0,0	  x0:0x00000000
       12895000	      1288	80002a88	ff9ff6ef	jal	x13,80002a88	 x13=0x80002a88
       12905000	      1289	00000000	00000013	addi	x0,x0,0	  x0:0x00000000
       12915000	      1290	80002a7c	00000013	addi	x0,x0,0	  x0:0x00000000
       12925000	      1291	80002a80	ffdff36f	jal	x6,80002a80	  x6=0x80002a80
       12935000	      1292	00000000	00000013	addi	x0,x0,0	  x0:0x00000000
       12945000	      1293	80002a78	00000013	addi	x0,x0,0	  x0:0x00000000
       12955000	      1294	80002a7c	ff9ff0ef	jal	x1,80002a7c	  x1=0x80002a7c
       12965000	      1295	00000000	00000013	addi	x0,x0,0	  x0:0x00000000
       12975000	      1296	80002a70	00000013	addi	x0,x0,0	  x0:0x00000000
       12985000	      1297	80002a74	018007ef	jal	x15,80002a74	 x15=0x80002a74
       12995000	      1298	00000000	00000013	addi	x0,x0,0	  x0:0x00000000
       13005000	      1299	80002a88	00000013	addi	x0,x0,0	  x0:0x00000000
       13015000	      1300	80002a8c	00c000ef	jal	x1,80002a8c	  x1=0x80002a8c
       13025000	      1301	00000000	00000013	addi	x0,x0,0	  x0:0x00000000
       13035000	      1302	80002a94	00000013	addi	x0,x0,0	  x0:0x00000000
       13045000	      1303	80002a98	01c000ef	jal	x1,80002a98	  x1=0x80002a98
       13055000	      1304	00000000	00000013	addi	x0,x0,0	  x0:0x00000000
       13065000	      1305	80002ab0	00000013	addi	x0,x0,0	  x0:0x00000000
       13075000	      1306	80002ab4	ff5ff0ef	jal	x1,80002ab4	  x1=0x80002ab4
       13085000	      1307	00000000	00000013	addi	x0,x0,0	  x0:0x00000000
       13095000	      1308	80002aa4	00000013	addi	x0,x0,0	  x0:0x00000000
       13105000	      1309	80002aa8	fc9ff36f	jal	x6,80002aa8	  x6=0x80002aa8
       13115000	      1310	00000000	00000013	addi	x0,x0,0	  x0:0x00000000
       13125000	      1311	80002a6c	00000013	addi	x0,x0,0	  x0:0x00000000
       13135000	      1312	80002a70	ff9ff0ef	jal	x1,80002a70	  x1=0x80002a70
       13145000	      1313	00000000	00000013	addi	x0,x0,0	  x0:0x00000000
       13155000	      1314	80002a64	00000013	addi	x0,x0,0	  x0:0x00000000
       13165000	      1315	80002a68	034000ef	jal	x1,80002a68	  x1=0x80002a68
       13175000	      1316	00000000	00000013	addi	x0,x0,0	  x0:0x00000000
       13185000	      1317	80002a98	00000013	addi	x0,x0,0	  x0:0x00000000
       13195000	      1318	80002a9c	fbdfffef	jal	x31,80002a9c	 x31=0x80002a9c
       13205000	      1319	00000000	00000013	addi	x0,x0,0	  x0:0x00000000
       13215000	      1320	80002a54	00000013	addi	x0,x0,0	  x0:0x00000000
       13225000	      1321	80002a58	048000ef	jal	x1,80002a58	  x1=0x80002a58
       13235000	      1322	00000000	00000013	addi	x0,x0,0	  x0:0x00000000
       13245000	      1323	80002a9c	00000013	addi	x0,x0,0	  x0:0x00000000
       13255000	      1324	80002aa0	010000ef	jal	x1,80002aa0	  x1=0x80002aa0
       13265000	      1325	00000000	00000013	addi	x0,x0,0	  x0:0x00000000
       13275000	      1326	80002aac	00000013	addi	x0,x0,0	  x0:0x00000000
       13285000	      1327	80002ab0	fbdff0ef	jal	x1,80002ab0	  x1=0x80002ab0
       13295000	      1328	00000000	00000013	addi	x0,x0,0	  x0:0x00000000
       13305000	      1329	80002a68	00000013	addi	x0,x0,0	  x0:0x00000000
       13315000	      1330	80002a6c	04000d6f	jal	x26,80002a6c	 x26=0x80002a6c
       13325000	      1331	00000000	00000013	addi	x0,x0,0	  x0:0x00000000
       13335000	      1332	80002aa8	00000013	addi	x0,x0,0	  x0:0x00000000
       13345000	      1333	80002aac	fb5ff0ef	jal	x1,80002aac	  x1=0x80002aac
       13355000	      1334	00000000	00000013	addi	x0,x0,0	  x0:0x00000000
       13365000	      1335	80002a5c	00000013	addi	x0,x0,0	  x0:0x00000000
       13375000	      1336	80002a60	fedff26f	jal	x4,80002a60	  x4=0x80002a60
       13385000	      1337	00000000	00000013	addi	x0,x0,0	  x0:0x00000000
       13395000	      1338	80002a48	00000013	addi	x0,x0,0	  x0:0x00000000
       13405000	      1339	80002a4c	0380036f	jal	x6,80002a4c	  x6=0x80002a4c
       13415000	      1340	00000000	00000013	addi	x0,x0,0	  x0:0x00000000
       13425000	      1341	80002a80	00000013	addi	x0,x0,0	  x0:0x00000000
       13435000	      1342	80002a84	fd9ff0ef	jal	x1,80002a84	  x1=0x80002a84
       13445000	      1343	00000000	00000013	addi	x0,x0,0	  x0:0x00000000
       13455000	      1344	80002a58	00000013	addi	x0,x0,0	  x0:0x00000000
       13465000	      1345	80002a5c	0080086f	jal	x16,80002a5c	 x16=0x80002a5c
       13475000	      1346	00000000	00000013	addi	x0,x0,0	  x0:0x00000000
       13485000	      1347	80002a60	00000013	addi	x0,x0,0	  x0:0x00000000
       13495000	      1348	80002a64	fedff0ef	jal	x1,80002a64	  x1=0x80002a64
       13505000	      1349	00000000	00000013	addi	x0,x0,0	  x0:0x00000000
       13515000	      1350	80002a4c	00000013	addi	x0,x0,0	  x0:0x00000000
       13525000	      1351	80002a50	054001ef	jal	x3,80002a50	  x3=0x80002a50
       13535000	      1352	00000000	00000013	addi	x0,x0,0	  x0:0x00000000
       13545000	      1353	80002aa0	00000013	addi	x0,x0,0	  x0:0x00000000
       13555000	      1354	80002aa4	fd5ff0ef	jal	x1,80002aa4	  x1=0x80002aa4
       13565000	      1355	00000000	00000013	addi	x0,x0,0	  x0:0x00000000
       13575000	      1356	80002a74	00000013	addi	x0,x0,0	  x0:0x00000000
       13585000	      1357	80002a78	fcdff0ef	jal	x1,80002a78	  x1=0x80002a78
       13595000	      1358	00000000	00000013	addi	x0,x0,0	  x0:0x00000000
       13605000	      1359	80002a40	00000013	addi	x0,x0,0	  x0:0x00000000
       13615000	      1360	80002a44	074000ef	jal	x1,80002a44	  x1=0x80002a44
       13625000	      1361	00000000	00000013	addi	x0,x0,0	  x0:0x00000000
       13635000	      1362	80002ab4	00000013	addi	x0,x0,0	  x0:0x00000000
       13645000	      1363	80002ab8	006c5b33	srl	x22,x24,x6	 x24:0x80009f4c  x6:0x80002a4c x22=0x00080009
       13655000	      1364	80002abc	004006ef	jal	x13,80002abc	 x13=0x80002abc
       13665000	      1365	00000000	00000013	addi	x0,x0,0	  x0:0x00000000
       13675000	      1366	80002abc	00000013	addi	x0,x0,0	  x0:0x00000000
       13685000	      1367	80002ac0	01c0036f	jal	x6,80002ac0	  x6=0x80002ac0
       13695000	      1368	00000000	00000013	addi	x0,x0,0	  x0:0x00000000
       13705000	      1369	80002ad8	00000013	addi	x0,x0,0	  x0:0x00000000
       13715000	      1370	80002adc	0100036f	jal	x6,80002adc	  x6=0x80002adc
       13725000	      1371	00000000	00000013	addi	x0,x0,0	  x0:0x00000000
       13735000	      1372	80002ae8	00000013	addi	x0,x0,0	  x0:0x00000000
       13745000	      1373	80002aec	00c000ef	jal	x1,80002aec	  x1=0x80002aec
       13755000	      1374	00000000	00000013	addi	x0,x0,0	  x0:0x00000000
       13765000	      1375	80002af4	00000013	addi	x0,x0,0	  x0:0x00000000
       13775000	      1376	80002af8	018007ef	jal	x15,80002af8	 x15=0x80002af8
       13785000	      1377	00000000	00000013	addi	x0,x0,0	  x0:0x00000000
       13795000	      1378	80002b0c	00000013	addi	x0,x0,0	  x0:0x00000000
       13805000	      1379	80002b10	fc5ff36f	jal	x6,80002b10	  x6=0x80002b10
       13815000	      1380	00000000	00000013	addi	x0,x0,0	  x0:0x00000000
       13825000	      1381	80002ad0	00000013	addi	x0,x0,0	  x0:0x00000000
       13835000	      1382	80002ad4	028000ef	jal	x1,80002ad4	  x1=0x80002ad4
       13845000	      1383	00000000	00000013	addi	x0,x0,0	  x0:0x00000000
       13855000	      1384	80002af8	00000013	addi	x0,x0,0	  x0:0x00000000
       13865000	      1385	80002afc	0040036f	jal	x6,80002afc	  x6=0x80002afc
       13875000	      1386	00000000	00000013	addi	x0,x0,0	  x0:0x00000000
       13885000	      1387	80002afc	00000013	addi	x0,x0,0	  x0:0x00000000
       13895000	      1388	80002b00	ff5ff0ef	jal	x1,80002b00	  x1=0x80002b00
       13905000	      1389	00000000	00000013	addi	x0,x0,0	  x0:0x00000000
       13915000	      1390	80002af0	00000013	addi	x0,x0,0	  x0:0x00000000
       13925000	      1391	80002af4	fd9ff4ef	jal	x9,80002af4	  x9=0x80002af4
       13935000	      1392	00000000	00000013	addi	x0,x0,0	  x0:0x00000000
       13945000	      1393	80002ac8	00000013	addi	x0,x0,0	  x0:0x00000000
       13955000	      1394	80002acc	00c0036f	jal	x6,80002acc	  x6=0x80002acc
       13965000	      1395	00000000	00000013	addi	x0,x0,0	  x0:0x00000000
       13975000	      1396	80002ad4	00000013	addi	x0,x0,0	  x0:0x00000000
       13985000	      1397	80002ad8	0400036f	jal	x6,80002ad8	  x6=0x80002ad8
       13995000	      1398	00000000	00000013	addi	x0,x0,0	  x0:0x00000000
       14005000	      1399	80002b14	00000013	addi	x0,x0,0	  x0:0x00000000
       14015000	      1400	80002b18	008000ef	jal	x1,80002b18	  x1=0x80002b18
       14025000	      1401	00000000	00000013	addi	x0,x0,0	  x0:0x00000000
       14035000	      1402	80002b1c	00000013	addi	x0,x0,0	  x0:0x00000000
       14045000	      1403	80002b20	fa9ff36f	jal	x6,80002b20	  x6=0x80002b20
       14055000	      1404	00000000	00000013	addi	x0,x0,0	  x0:0x00000000
       14065000	      1405	80002ac4	00000013	addi	x0,x0,0	  x0:0x00000000
       14075000	      1406	80002ac8	ffdff0ef	jal	x1,80002ac8	  x1=0x80002ac8
       14085000	      1407	00000000	00000013	addi	x0,x0,0	  x0:0x00000000
       14095000	      1408	80002ac0	00000013	addi	x0,x0,0	  x0:0x00000000
       14105000	      1409	80002ac4	01c00d6f	jal	x26,80002ac4	 x26=0x80002ac4
       14115000	      1410	00000000	00000013	addi	x0,x0,0	  x0:0x00000000
       14125000	      1411	80002adc	00000013	addi	x0,x0,0	  x0:0x00000000
       14135000	      1412	80002ae0	0080036f	jal	x6,80002ae0	  x6=0x80002ae0
       14145000	      1413	00000000	00000013	addi	x0,x0,0	  x0:0x00000000
       14155000	      1414	80002ae4	00000013	addi	x0,x0,0	  x0:0x00000000
       14165000	      1415	80002ae8	02c005ef	jal	x11,80002ae8	 x11=0x80002ae8
       14175000	      1416	00000000	00000013	addi	x0,x0,0	  x0:0x00000000
       14185000	      1417	80002b10	00000013	addi	x0,x0,0	  x0:0x00000000
       14195000	      1418	80002b14	0080036f	jal	x6,80002b14	  x6=0x80002b14
       14205000	      1419	00000000	00000013	addi	x0,x0,0	  x0:0x00000000
       14215000	      1420	80002b18	00000013	addi	x0,x0,0	  x0:0x00000000
       14225000	      1421	80002b1c	ff1ff16f	jal	x2,80002b1c	  x2=0x80002b1c
       14235000	      1422	00000000	00000013	addi	x0,x0,0	  x0:0x00000000
       14245000	      1423	80002b08	00000013	addi	x0,x0,0	  x0:0x00000000
       14255000	      1424	80002b0c	ffdff0ef	jal	x1,80002b0c	  x1=0x80002b0c
       14265000	      1425	00000000	00000013	addi	x0,x0,0	  x0:0x00000000
       14275000	      1426	80002b04	00000013	addi	x0,x0,0	  x0:0x00000000
       14285000	      1427	80002b08	fddff36f	jal	x6,80002b08	  x6=0x80002b08
       14295000	      1428	00000000	00000013	addi	x0,x0,0	  x0:0x00000000
       14305000	      1429	80002ae0	00000013	addi	x0,x0,0	  x0:0x00000000
       14315000	      1430	80002ae4	fedff0ef	jal	x1,80002ae4	  x1=0x80002ae4
       14325000	      1431	00000000	00000013	addi	x0,x0,0	  x0:0x00000000
       14335000	      1432	80002acc	00000013	addi	x0,x0,0	  x0:0x00000000
       14345000	      1433	80002ad0	034000ef	jal	x1,80002ad0	  x1=0x80002ad0
       14355000	      1434	00000000	00000013	addi	x0,x0,0	  x0:0x00000000
       14365000	      1435	80002b00	00000013	addi	x0,x0,0	  x0:0x00000000
       14375000	      1436	80002b04	fedffbef	jal	x23,80002b04	 x23=0x80002b04
       14385000	      1437	00000000	00000013	addi	x0,x0,0	  x0:0x00000000
       14395000	      1438	80002aec	00000013	addi	x0,x0,0	  x0:0x00000000
       14405000	      1439	80002af0	034000ef	jal	x1,80002af0	  x1=0x80002af0
       14415000	      1440	00000000	00000013	addi	x0,x0,0	  x0:0x00000000
       14425000	      1441	80002b20	00000013	addi	x0,x0,0	  x0:0x00000000
       14435000	      1442	80002b24	017860b3	or	x1,x16,x23	 x16:0x80002a5c x23:0x80002b04  x1=0x80002b5c
       14445000	      1443	80002b28	028006ef	jal	x13,80002b28	 x13=0x80002b28
       14455000	      1444	00000000	00000013	addi	x0,x0,0	  x0:0x00000000
       14465000	      1445	80002b4c	00000013	addi	x0,x0,0	  x0:0x00000000
       14475000	      1446	80002b50	fedff0ef	jal	x1,80002b50	  x1=0x80002b50
       14485000	      1447	00000000	00000013	addi	x0,x0,0	  x0:0x00000000
       14495000	      1448	80002b38	00000013	addi	x0,x0,0	  x0:0x00000000
       14505000	      1449	80002b3c	00c007ef	jal	x15,80002b3c	 x15=0x80002b3c
       14515000	      1450	00000000	00000013	addi	x0,x0,0	  x0:0x00000000
       14525000	      1451	80002b44	00000013	addi	x0,x0,0	  x0:0x00000000
       14535000	      1452	80002b48	010000ef	jal	x1,80002b48	  x1=0x80002b48
       14545000	      1453	00000000	00000013	addi	x0,x0,0	  x0:0x00000000
       14555000	      1454	80002b54	00000013	addi	x0,x0,0	  x0:0x00000000
       14565000	      1455	80002b58	00c000ef	jal	x1,80002b58	  x1=0x80002b58
       14575000	      1456	00000000	00000013	addi	x0,x0,0	  x0:0x00000000
       14585000	      1457	80002b60	00000013	addi	x0,x0,0	  x0:0x00000000
       14595000	      1458	80002b64	0100016f	jal	x2,80002b64	  x2=0x80002b64
       14605000	      1459	00000000	00000013	addi	x0,x0,0	  x0:0x00000000
       14615000	      1460	80002b70	00000013	addi	x0,x0,0	  x0:0x00000000
       14625000	      1461	80002b74	fd1ff8ef	jal	x17,80002b74	 x17=0x80002b74
       14635000	      1462	00000000	00000013	addi	x0,x0,0	  x0:0x00000000
       14645000	      1463	80002b40	00000013	addi	x0,x0,0	  x0:0x00000000
       14655000	      1464	80002b44	03c000ef	jal	x1,80002b44	  x1=0x80002b44
       14665000	      1465	00000000	00000013	addi	x0,x0,0	  x0:0x00000000
       14675000	      1466	80002b7c	00000013	addi	x0,x0,0	  x0:0x00000000
       14685000	      1467	80002b80	fc1ff36f	jal	x6,80002b80	  x6=0x80002b80
       14695000	      1468	00000000	00000013	addi	x0,x0,0	  x0:0x00000000
       14705000	      1469	80002b3c	00000013	addi	x0,x0,0	  x0:0x00000000
       14715000	      1470	80002b40	03c000ef	jal	x1,80002b40	  x1=0x80002b40
       14725000	      1471	00000000	00000013	addi	x0,x0,0	  x0:0x00000000
       14735000	      1472	80002b78	00000013	addi	x0,x0,0	  x0:0x00000000
       14745000	      1473	80002b7c	fd1ff0ef	jal	x1,80002b7c	  x1=0x80002b7c
       14755000	      1474	00000000	00000013	addi	x0,x0,0	  x0:0x00000000
       14765000	      1475	80002b48	00000013	addi	x0,x0,0	  x0:0x00000000
       14775000	      1476	80002b4c	02c009ef	jal	x19,80002b4c	 x19=0x80002b4c
       14785000	      1477	00000000	00000013	addi	x0,x0,0	  x0:0x00000000
       14795000	      1478	80002b74	00000013	addi	x0,x0,0	  x0:0x00000000
       14805000	      1479	80002b78	fbdff8ef	jal	x17,80002b78	 x17=0x80002b78
       14815000	      1480	00000000	00000013	addi	x0,x0,0	  x0:0x00000000
       14825000	      1481	80002b30	00000013	addi	x0,x0,0	  x0:0x00000000
       14835000	      1482	80002b34	03c000ef	jal	x1,80002b34	  x1=0x80002b34
       14845000	      1483	00000000	00000013	addi	x0,x0,0	  x0:0x00000000
       14855000	      1484	80002b6c	00000013	addi	x0,x0,0	  x0:0x00000000
       14865000	      1485	80002b70	fedff36f	jal	x6,80002b70	  x6=0x80002b70
       14875000	      1486	00000000	00000013	addi	x0,x0,0	  x0:0x00000000
       14885000	      1487	80002b58	00000013	addi	x0,x0,0	  x0:0x00000000
       14895000	      1488	80002b5c	ff9ff0ef	jal	x1,80002b5c	  x1=0x80002b5c
       14905000	      1489	00000000	00000013	addi	x0,x0,0	  x0:0x00000000
       14915000	      1490	80002b50	00000013	addi	x0,x0,0	  x0:0x00000000
       14925000	      1491	80002b54	fddff1ef	jal	x3,80002b54	  x3=0x80002b54
       14935000	      1492	00000000	00000013	addi	x0,x0,0	  x0:0x00000000
       14945000	      1493	80002b2c	00000013	addi	x0,x0,0	  x0:0x00000000
       14955000	      1494	80002b30	030002ef	jal	x5,80002b30	  x5=0x80002b30
       14965000	      1495	00000000	00000013	addi	x0,x0,0	  x0:0x00000000
       14975000	      1496	80002b5c	00000013	addi	x0,x0,0	  x0:0x00000000
       14985000	      1497	80002b60	00c00b6f	jal	x22,80002b60	 x22=0x80002b60
       14995000	      1498	00000000	00000013	addi	x0,x0,0	  x0:0x00000000
       15005000	      1499	80002b68	00000013	addi	x0,x0,0	  x0:0x00000000
       15015000	      1500	80002b6c	ffdff36f	jal	x6,80002b6c	  x6=0x80002b6c
       15025000	      1501	00000000	00000013	addi	x0,x0,0	  x0:0x00000000
       15035000	      1502	80002b64	00000013	addi	x0,x0,0	  x0:0x00000000
       15045000	      1503	80002b68	fd1ff0ef	jal	x1,80002b68	  x1=0x80002b68
       15055000	      1504	00000000	00000013	addi	x0,x0,0	  x0:0x00000000
       15065000	      1505	80002b34	00000013	addi	x0,x0,0	  x0:0x00000000
       15075000	      1506	80002b38	ff5ff0ef	jal	x1,80002b38	  x1=0x80002b38
       15085000	      1507	00000000	00000013	addi	x0,x0,0	  x0:0x00000000
       15095000	      1508	80002b28	00000013	addi	x0,x0,0	  x0:0x00000000
       15105000	      1509	80002b2c	0580086f	jal	x16,80002b2c	 x16=0x80002b2c
       15115000	      1510	00000000	00000013	addi	x0,x0,0	  x0:0x00000000
       15125000	      1511	80002b80	00000013	addi	x0,x0,0	  x0:0x00000000
       15135000	      1512	80002b84	015f9693	slli	x13,x31,0x15	 x31:0x80002a9c x13=0x53800000
       15145000	      1513	80002b88	020006ef	jal	x13,80002b88	 x13=0x80002b88
       15155000	      1514	00000000	00000013	addi	x0,x0,0	  x0:0x00000000
       15165000	      1515	80002ba4	00000013	addi	x0,x0,0	  x0:0x00000000
       15175000	      1516	80002ba8	004000ef	jal	x1,80002ba8	  x1=0x80002ba8
       15185000	      1517	00000000	00000013	addi	x0,x0,0	  x0:0x00000000
       15195000	      1518	80002ba8	00000013	addi	x0,x0,0	  x0:0x00000000
       15205000	      1519	80002bac	0080036f	jal	x6,80002bac	  x6=0x80002bac
       15215000	      1520	00000000	00000013	addi	x0,x0,0	  x0:0x00000000
       15225000	      1521	80002bb0	00000013	addi	x0,x0,0	  x0:0x00000000
       15235000	      1522	80002bb4	fe9ff26f	jal	x4,80002bb4	  x4=0x80002bb4
       15245000	      1523	00000000	00000013	addi	x0,x0,0	  x0:0x00000000
       15255000	      1524	80002b98	00000013	addi	x0,x0,0	  x0:0x00000000
       15265000	      1525	80002b9c	014000ef	jal	x1,80002b9c	  x1=0x80002b9c
       15275000	      1526	00000000	00000013	addi	x0,x0,0	  x0:0x00000000
       15285000	      1527	80002bac	00000013	addi	x0,x0,0	  x0:0x00000000
       15295000	      1528	80002bb0	fe1ff2ef	jal	x5,80002bb0	  x5=0x80002bb0
       15305000	      1529	00000000	00000013	addi	x0,x0,0	  x0:0x00000000
       15315000	      1530	80002b8c	00000013	addi	x0,x0,0	  x0:0x00000000
       15325000	      1531	80002b90	008000ef	jal	x1,80002b90	  x1=0x80002b90
       15335000	      1532	00000000	00000013	addi	x0,x0,0	  x0:0x00000000
       15345000	      1533	80002b94	00000013	addi	x0,x0,0	  x0:0x00000000
       15355000	      1534	80002b98	ff5ffdef	jal	x27,80002b98	 x27=0x80002b98
       15365000	      1535	00000000	00000013	addi	x0,x0,0	  x0:0x00000000
       15375000	      1536	80002b88	00000013	addi	x0,x0,0	  x0:0x00000000
       15385000	      1537	80002b8c	02c0036f	jal	x6,80002b8c	  x6=0x80002b8c
       15395000	      1538	00000000	00000013	addi	x0,x0,0	  x0:0x00000000
       15405000	      1539	80002bb4	00000013	addi	x0,x0,0	  x0:0x00000000
       15415000	      1540	80002bb8	fedff0ef	jal	x1,80002bb8	  x1=0x80002bb8
       15425000	      1541	00000000	00000013	addi	x0,x0,0	  x0:0x00000000
       15435000	      1542	80002ba0	00000013	addi	x0,x0,0	  x0:0x00000000
       15445000	      1543	80002ba4	ffdff0ef	jal	x1,80002ba4	  x1=0x80002ba4
       15455000	      1544	00000000	00000013	addi	x0,x0,0	  x0:0x00000000
       15465000	      1545	80002b9c	00000013	addi	x0,x0,0	  x0:0x00000000
       15475000	      1546	80002ba0	ff5ff36f	jal	x6,80002ba0	  x6=0x80002ba0
       15485000	      1547	00000000	00000013	addi	x0,x0,0	  x0:0x00000000
       15495000	      1548	80002b90	00000013	addi	x0,x0,0	  x0:0x00000000
       15505000	      1549	80002b94	028000ef	jal	x1,80002b94	  x1=0x80002b94
       15515000	      1550	00000000	00000013	addi	x0,x0,0	  x0:0x00000000
       15525000	      1551	80002bb8	00000013	addi	x0,x0,0	  x0:0x00000000
       15535000	      1552	80002bbc	00a6b333	sltu	x6,x13,x10	 x13:0x80002b88 x10:0x00000001  x6=0x00000000
       15545000	      1553	80002bc0	024006ef	jal	x13,80002bc0	 x13=0x80002bc0
       15555000	      1554	00000000	00000013	addi	x0,x0,0	  x0:0x00000000
       15565000	      1555	80002be0	00000013	addi	x0,x0,0	  x0:0x00000000
       15575000	      1556	80002be4	044000ef	jal	x1,80002be4	  x1=0x80002be4
       15585000	      1557	00000000	00000013	addi	x0,x0,0	  x0:0x00000000
       15595000	      1558	80002c24	00000013	addi	x0,x0,0	  x0:0x00000000
       15605000	      1559	80002c28	004000ef	jal	x1,80002c28	  x1=0x80002c28
       15615000	      1560	00000000	00000013	addi	x0,x0,0	  x0:0x00000000
       15625000	      1561	80002c28	00000013	addi	x0,x0,0	  x0:0x00000000
       15635000	      1562	80002c2c	fa1ffbef	jal	x23,80002c2c	 x23=0x80002c2c
       15645000	      1563	00000000	00000013	addi	x0,x0,0	  x0:0x00000000
       15655000	      1564	80002bc8	00000013	addi	x0,x0,0	  x0:0x00000000
       15665000	      1565	80002bcc	00c001ef	jal	x3,80002bcc	  x3=0x80002bcc
       15675000	      1566	00000000	00000013	addi	x0,x0,0	  x0:0x00000000
       15685000	      1567	80002bd4	00000013	addi	x0,x0,0	  x0:0x00000000
       15695000	      1568	80002bd8	014001ef	jal	x3,80002bd8	  x3=0x80002bd8
       15705000	      1569	00000000	00000013	addi	x0,x0,0	  x0:0x00000000
       15715000	      1570	80002be8	00000013	addi	x0,x0,0	  x0:0x00000000
       15725000	      1571	80002bec	028000ef	jal	x1,80002bec	  x1=0x80002bec
       15735000	      1572	00000000	00000013	addi	x0,x0,0	  x0:0x00000000
       15745000	      1573	80002c10	00000013	addi	x0,x0,0	  x0:0x00000000
       15755000	      1574	80002c14	ff9ff36f	jal	x6,80002c14	  x6=0x80002c14
       15765000	      1575	00000000	00000013	addi	x0,x0,0	  x0:0x00000000
       15775000	      1576	80002c08	00000013	addi	x0,x0,0	  x0:0x00000000
       15785000	      1577	80002c0c	fc5ff2ef	jal	x5,80002c0c	  x5=0x80002c0c
       15795000	      1578	00000000	00000013	addi	x0,x0,0	  x0:0x00000000
       15805000	      1579	80002bcc	00000013	addi	x0,x0,0	  x0:0x00000000
       15815000	      1580	80002bd0	0600036f	jal	x6,80002bd0	  x6=0x80002bd0
       15825000	      1581	00000000	00000013	addi	x0,x0,0	  x0:0x00000000
       15835000	      1582	80002c2c	00000013	addi	x0,x0,0	  x0:0x00000000
       15845000	      1583	80002c30	ff1ff0ef	jal	x1,80002c30	  x1=0x80002c30
       15855000	      1584	00000000	00000013	addi	x0,x0,0	  x0:0x00000000
       15865000	      1585	80002c1c	00000013	addi	x0,x0,0	  x0:0x00000000
       15875000	      1586	80002c20	fa5ff0ef	jal	x1,80002c20	  x1=0x80002c20
       15885000	      1587	00000000	00000013	addi	x0,x0,0	  x0:0x00000000
       15895000	      1588	80002bc0	00000013	addi	x0,x0,0	  x0:0x00000000
       15905000	      1589	80002bc4	0440056f	jal	x10,80002bc4	 x10=0x80002bc4
       15915000	      1590	00000000	00000013	addi	x0,x0,0	  x0:0x00000000
       15925000	      1591	80002c04	00000013	addi	x0,x0,0	  x0:0x00000000
       15935000	      1592	80002c08	fcdff0ef	jal	x1,80002c08	  x1=0x80002c08
       15945000	      1593	00000000	00000013	addi	x0,x0,0	  x0:0x00000000
       15955000	      1594	80002bd0	00000013	addi	x0,x0,0	  x0:0x00000000
       15965000	      1595	80002bd4	01c004ef	jal	x9,80002bd4	  x9=0x80002bd4
       15975000	      1596	00000000	00000013	addi	x0,x0,0	  x0:0x00000000
       15985000	      1597	80002bec	00000013	addi	x0,x0,0	  x0:0x00000000
       15995000	      1598	80002bf0	0440026f	jal	x4,80002bf0	  x4=0x80002bf0
       16005000	      1599	00000000	00000013	addi	x0,x0,0	  x0:0x00000000
       16015000	      1600	80002c30	00000013	addi	x0,x0,0	  x0:0x00000000
       16025000	      1601	80002c34	fe5ff36f	jal	x6,80002c34	  x6=0x80002c34
       16035000	      1602	00000000	00000013	addi	x0,x0,0	  x0:0x00000000
       16045000	      1603	80002c14	00000013	addi	x0,x0,0	  x0:0x00000000
       16055000	      1604	80002c18	fedffb6f	jal	x22,80002c18	 x22=0x80002c18
       16065000	      1605	00000000	00000013	addi	x0,x0,0	  x0:0x00000000
       16075000	      1606	80002c00	00000013	addi	x0,x0,0	  x0:0x00000000
       16085000	      1607	80002c04	fc5ff36f	jal	x6,80002c04	  x6=0x80002c04
       16095000	      1608	00000000	00000013	addi	x0,x0,0	  x0:0x00000000
       16105000	      1609	80002bc4	00000013	addi	x0,x0,0	  x0:0x00000000
       16115000	      1610	80002bc8	020000ef	jal	x1,80002bc8	  x1=0x80002bc8
       16125000	      1611	00000000	00000013	addi	x0,x0,0	  x0:0x00000000
       16135000	      1612	80002be4	00000013	addi	x0,x0,0	  x0:0x00000000
       16145000	      1613	80002be8	00c000ef	jal	x1,80002be8	  x1=0x80002be8
       16155000	      1614	00000000	00000013	addi	x0,x0,0	  x0:0x00000000
       16165000	      1615	80002bf0	00000013	addi	x0,x0,0	  x0:0x00000000
       16175000	      1616	80002bf4	008000ef	jal	x1,80002bf4	  x1=0x80002bf4
       16185000	      1617	00000000	00000013	addi	x0,x0,0	  x0:0x00000000
       16195000	      1618	80002bf8	00000013	addi	x0,x0,0	  x0:0x00000000
       16205000	      1619	80002bfc	ffdff0ef	jal	x1,80002bfc	  x1=0x80002bfc
       16215000	      1620	00000000	00000013	addi	x0,x0,0	  x0:0x00000000
       16225000	      1621	80002bf4	00000013	addi	x0,x0,0	  x0:0x00000000
       16235000	      1622	80002bf8	fe5ff0ef	jal	x1,80002bf8	  x1=0x80002bf8
       16245000	      1623	00000000	00000013	addi	x0,x0,0	  x0:0x00000000
       16255000	      1624	80002bd8	00000013	addi	x0,x0,0	  x0:0x00000000
       16265000	      1625	80002bdc	0040076f	jal	x14,80002bdc	 x14=0x80002bdc
       16275000	      1626	00000000	00000013	addi	x0,x0,0	  x0:0x00000000
       16285000	      1627	80002bdc	00000013	addi	x0,x0,0	  x0:0x00000000
       16295000	      1628	80002be0	044000ef	jal	x1,80002be0	  x1=0x80002be0
       16305000	      1629	00000000	00000013	addi	x0,x0,0	  x0:0x00000000
       16315000	      1630	80002c20	00000013	addi	x0,x0,0	  x0:0x00000000
       16325000	      1631	80002c24	ff9ff0ef	jal	x1,80002c24	  x1=0x80002c24
       16335000	      1632	00000000	00000013	addi	x0,x0,0	  x0:0x00000000
       16345000	      1633	80002c18	00000013	addi	x0,x0,0	  x0:0x00000000
       16355000	      1634	80002c1c	ff5ff0ef	jal	x1,80002c1c	  x1=0x80002c1c
       16365000	      1635	00000000	00000013	addi	x0,x0,0	  x0:0x00000000
       16375000	      1636	80002c0c	00000013	addi	x0,x0,0	  x0:0x00000000
       16385000	      1637	80002c10	ff1ff36f	jal	x6,80002c10	  x6=0x80002c10
       16395000	      1638	00000000	00000013	addi	x0,x0,0	  x0:0x00000000
       16405000	      1639	80002bfc	00000013	addi	x0,x0,0	  x0:0x00000000
       16415000	      1640	80002c00	038000ef	jal	x1,80002c00	  x1=0x80002c00
       16425000	      1641	00000000	00000013	addi	x0,x0,0	  x0:0x00000000
       16435000	      1642	80002c34	00000013	addi	x0,x0,0	  x0:0x00000000
       16445000	      1643	80002c38	7eb48293	addi	x5,x9,2027	  x9:0x80002bd4  x5=0x800033bf
       16455000	      1644	80002c3c	018006ef	jal	x13,80002c3c	 x13=0x80002c3c
       16465000	      1645	00000000	00000013	addi	x0,x0,0	  x0:0x00000000
       16475000	      1646	80002c50	00000013	addi	x0,x0,0	  x0:0x00000000
       16485000	      1647	80002c54	01c000ef	jal	x1,80002c54	  x1=0x80002c54
       16495000	      1648	00000000	00000013	addi	x0,x0,0	  x0:0x00000000
       16505000	      1649	80002c6c	00000013	addi	x0,x0,0	  x0:0x00000000
       16515000	      1650	80002c70	ff9ff0ef	jal	x1,80002c70	  x1=0x80002c70
       16525000	      1651	00000000	00000013	addi	x0,x0,0	  x0:0x00000000
       16535000	      1652	80002c64	00000013	addi	x0,x0,0	  x0:0x00000000
       16545000	      1653	80002c68	ff5ff0ef	jal	x1,80002c68	  x1=0x80002c68
       16555000	      1654	00000000	00000013	addi	x0,x0,0	  x0:0x00000000
       16565000	      1655	80002c58	00000013	addi	x0,x0,0	  x0:0x00000000
       16575000	      1656	80002c5c	004001ef	jal	x3,80002c5c	  x3=0x80002c5c
       16585000	      1657	00000000	00000013	addi	x0,x0,0	  x0:0x00000000
       16595000	      1658	80002c5c	00000013	addi	x0,x0,0	  x0:0x00000000
       16605000	      1659	80002c60	fe9ffbef	jal	x23,80002c60	 x23=0x80002c60
       16615000	      1660	00000000	00000013	addi	x0,x0,0	  x0:0x00000000
       16625000	      1661	80002c44	00000013	addi	x0,x0,0	  x0:0x00000000
       16635000	      1662	80002c48	01c000ef	jal	x1,80002c48	  x1=0x80002c48
       16645000	      1663	00000000	00000013	addi	x0,x0,0	  x0:0x00000000
       16655000	      1664	80002c60	00000013	addi	x0,x0,0	  x0:0x00000000
       16665000	      1665	80002c64	fedff36f	jal	x6,80002c64	  x6=0x80002c64
       16675000	      1666	00000000	00000013	addi	x0,x0,0	  x0:0x00000000
       16685000	      1667	80002c4c	00000013	addi	x0,x0,0	  x0:0x00000000
       16695000	      1668	80002c50	ff5ffd6f	jal	x26,80002c50	 x26=0x80002c50
       16705000	      1669	00000000	00000013	addi	x0,x0,0	  x0:0x00000000
       16715000	      1670	80002c40	00000013	addi	x0,x0,0	  x0:0x00000000
       16725000	      1671	80002c44	0280016f	jal	x2,80002c44	  x2=0x80002c44
       16735000	      1672	00000000	00000013	addi	x0,x0,0	  x0:0x00000000
       16745000	      1673	80002c68	00000013	addi	x0,x0,0	  x0:0x00000000
       16755000	      1674	80002c6c	fd5ff0ef	jal	x1,80002c6c	  x1=0x80002c6c
       16765000	      1675	00000000	00000013	addi	x0,x0,0	  x0:0x00000000
       16775000	      1676	80002c3c	00000013	addi	x0,x0,0	  x0:0x00000000
       16785000	      1677	80002c40	00c000ef	jal	x1,80002c40	  x1=0x80002c40
       16795000	      1678	00000000	00000013	addi	x0,x0,0	  x0:0x00000000
       16805000	      1679	80002c48	00000013	addi	x0,x0,0	  x0:0x00000000
       16815000	      1680	80002c4c	00c0036f	jal	x6,80002c4c	  x6=0x80002c4c
       16825000	      1681	00000000	00000013	addi	x0,x0,0	  x0:0x00000000
       16835000	      1682	80002c54	00000013	addi	x0,x0,0	  x0:0x00000000
       16845000	      1683	80002c58	01c0036f	jal	x6,80002c58	  x6=0x80002c58
       16855000	      1684	00000000	00000013	addi	x0,x0,0	  x0:0x00000000
       16865000	      1685	80002c70	00000013	addi	x0,x0,0	  x0:0x00000000
       16875000	      1686	80002c74	f33641b7	lui	x3,0xf3364	  x3=0xf3364000
       16885000	      1687	80002c78	048006ef	jal	x13,80002c78	 x13=0x80002c78
       16895000	      1688	00000000	00000013	addi	x0,x0,0	  x0:0x00000000
       16905000	      1689	80002cbc	00000013	addi	x0,x0,0	  x0:0x00000000
       16915000	      1690	80002cc0	fd1ff0ef	jal	x1,80002cc0	  x1=0x80002cc0
       16925000	      1691	00000000	00000013	addi	x0,x0,0	  x0:0x00000000
       16935000	      1692	80002c8c	00000013	addi	x0,x0,0	  x0:0x00000000
       16945000	      1693	80002c90	0140036f	jal	x6,80002c90	  x6=0x80002c90
       16955000	      1694	00000000	00000013	addi	x0,x0,0	  x0:0x00000000
       16965000	      1695	80002ca0	00000013	addi	x0,x0,0	  x0:0x00000000
       16975000	      1696	80002ca4	fe1ff0ef	jal	x1,80002ca4	  x1=0x80002ca4
       16985000	      1697	00000000	00000013	addi	x0,x0,0	  x0:0x00000000
       16995000	      1698	80002c80	00000013	addi	x0,x0,0	  x0:0x00000000
       17005000	      1699	80002c84	ff9ff0ef	jal	x1,80002c84	  x1=0x80002c84
       17015000	      1700	00000000	00000013	addi	x0,x0,0	  x0:0x00000000
       17025000	      1701	80002c78	00000013	addi	x0,x0,0	  x0:0x00000000
       17035000	      1702	80002c7c	048001ef	jal	x3,80002c7c	  x3=0x80002c7c
       17045000	      1703	00000000	00000013	addi	x0,x0,0	  x0:0x00000000
       17055000	      1704	80002cc0	00000013	addi	x0,x0,0	  x0:0x00000000
       17065000	      1705	80002cc4	fd1ff0ef	jal	x1,80002cc4	  x1=0x80002cc4
       17075000	      1706	00000000	00000013	addi	x0,x0,0	  x0:0x00000000
       17085000	      1707	80002c90	00000013	addi	x0,x0,0	  x0:0x00000000
       17095000	      1708	80002c94	034004ef	jal	x9,80002c94	  x9=0x80002c94
       17105000	      1709	00000000	00000013	addi	x0,x0,0	  x0:0x00000000
       17115000	      1710	80002cc4	00000013	addi	x0,x0,0	  x0:0x00000000
       17125000	      1711	80002cc8	fc5ff0ef	jal	x1,80002cc8	  x1=0x80002cc8
       17135000	      1712	00000000	00000013	addi	x0,x0,0	  x0:0x00000000
       17145000	      1713	80002c88	00000013	addi	x0,x0,0	  x0:0x00000000
       17155000	      1714	80002c8c	0200066f	jal	x12,80002c8c	 x12=0x80002c8c
       17165000	      1715	00000000	00000013	addi	x0,x0,0	  x0:0x00000000
       17175000	      1716	80002ca8	00000013	addi	x0,x0,0	  x0:0x00000000
       17185000	      1717	80002cac	0040036f	jal	x6,80002cac	  x6=0x80002cac
       17195000	      1718	00000000	00000013	addi	x0,x0,0	  x0:0x00000000
       17205000	      1719	80002cac	00000013	addi	x0,x0,0	  x0:0x00000000
       17215000	      1720	80002cb0	008000ef	jal	x1,80002cb0	  x1=0x80002cb0
       17225000	      1721	00000000	00000013	addi	x0,x0,0	  x0:0x00000000
       17235000	      1722	80002cb4	00000013	addi	x0,x0,0	  x0:0x00000000
       17245000	      1723	80002cb8	fd1ff36f	jal	x6,80002cb8	  x6=0x80002cb8
       17255000	      1724	00000000	00000013	addi	x0,x0,0	  x0:0x00000000
       17265000	      1725	80002c84	00000013	addi	x0,x0,0	  x0:0x00000000
       17275000	      1726	80002c88	0200056f	jal	x10,80002c88	 x10=0x80002c88
       17285000	      1727	00000000	00000013	addi	x0,x0,0	  x0:0x00000000
       17295000	      1728	80002ca4	00000013	addi	x0,x0,0	  x0:0x00000000
       17305000	      1729	80002ca8	0140036f	jal	x6,80002ca8	  x6=0x80002ca8
       17315000	      1730	00000000	00000013	addi	x0,x0,0	  x0:0x00000000
       17325000	      1731	80002cb8	00000013	addi	x0,x0,0	  x0:0x00000000
       17335000	      1732	80002cbc	fe5ffbef	jal	x23,80002cbc	 x23=0x80002cbc
       17345000	      1733	00000000	00000013	addi	x0,x0,0	  x0:0x00000000
       17355000	      1734	80002c9c	00000013	addi	x0,x0,0	  x0:0x00000000
       17365000	      1735	80002ca0	014000ef	jal	x1,80002ca0	  x1=0x80002ca0
       17375000	      1736	00000000	00000013	addi	x0,x0,0	  x0:0x00000000
       17385000	      1737	80002cb0	00000013	addi	x0,x0,0	  x0:0x00000000
       17395000	      1738	80002cb4	fe5ff4ef	jal	x9,80002cb4	  x9=0x80002cb4
       17405000	      1739	00000000	00000013	addi	x0,x0,0	  x0:0x00000000
       17415000	      1740	80002c94	00000013	addi	x0,x0,0	  x0:0x00000000
       17425000	      1741	80002c98	fe9ff0ef	jal	x1,80002c98	  x1=0x80002c98
       17435000	      1742	00000000	00000013	addi	x0,x0,0	  x0:0x00000000
       17445000	      1743	80002c7c	00000013	addi	x0,x0,0	  x0:0x00000000
       17455000	      1744	80002c80	01c001ef	jal	x3,80002c80	  x3=0x80002c80
       17465000	      1745	00000000	00000013	addi	x0,x0,0	  x0:0x00000000
       17475000	      1746	80002c98	00000013	addi	x0,x0,0	  x0:0x00000000
       17485000	      1747	80002c9c	0300066f	jal	x12,80002c9c	 x12=0x80002c9c
       17495000	      1748	00000000	00000013	addi	x0,x0,0	  x0:0x00000000
       17505000	      1749	80002cc8	00000013	addi	x0,x0,0	  x0:0x00000000
       17515000	      1750	80002ccc	d0f88693	addi	x13,x17,-753	 x17:0x80002b78 x13=0x80002887
       17525000	      1751	80002cd0	018e12b3	sll	x5,x28,x24	 x28:0x800027c4 x24:0x80009f4c  x5=0x027c4000
       17535000	      1752	80002cd4	a8374f97	auipc	x31,0xa8374	 x31=0x28376cd0
       17545000	      1753	80002cd8	3df6e113	ori	x2,x13,991	 x13:0x80002887  x2=0x80002bdf
       17555000	      1754	80002cdc	00f3d463	bge	x7,x15,80002ce4	  x7:0x8000017c x15:0x80002b3c
       17565000	      1755	80002ce0	19f4c613	xori	x12,x9,415	  x9:0x80002cb4 x12=0x80002d2b
       17575000	      1756	80002ce4	309d6f93	ori	x31,x26,777	 x26:0x80002c50 x31=0x80002f59
       17585000	      1757	80002ce8	a427e137	lui	x2,0xa427e	  x2=0xa427e000
       17595000	      1758	80002cec	4beca117	auipc	x2,0x4beca	  x2=0xcbeccce8
       17605000	      1759	80002cf0	01b0b533	sltu	x10,x1,x27	  x1:0x80002c98 x27:0x80002b98 x10=0x00000000
       17615000	      1760	80002cf4	00000013	addi	x0,x0,0	  x0:0x00000000
       17625000	      1761	80002cf8	54652b97	auipc	x23,0x54652	 x23=0xd4654cf4
       17635000	      1762	80002cfc	035f1063	bne	x30,x21,80002d1c	 x30:0x800027c8 x21:0x80002948
       17645000	      1763	00000000	00000013	addi	x0,x0,0	  x0:0x00000000
       17655000	      1764	80002d18	00000013	addi	x0,x0,0	  x0:0x00000000
       17665000	      1765	80002d1c	01507fb3	and	x31,x0,x21	  x0:0x00000000 x21:0x80002948 x31=0x00000000
       17675000	      1766	80002d20	02286663	bltu	x16,x2,80002d4c	 x16:0x80002b2c  x2:0xcbeccce8
       17685000	      1767	00000000	00000013	addi	x0,x0,0	  x0:0x00000000
       17695000	      1768	80002d48	00000013	addi	x0,x0,0	  x0:0x00000000
       17705000	      1769	80002d4c	0044a1b3	slt	x3,x9,x4	  x9:0x80002cb4  x4:0x80002bf0  x3=0x00000000
       17715000	      1770	80002d50	012e9bb3	sll	x23,x29,x18	 x29:0x800028d8 x18:0x80009fc4 x23=0x00028d80
       17725000	      1771	80002d54	019c63b3	or	x7,x24,x25	 x24:0x80009f4c x25:0x80002930  x7=0x8000bf7c
       17735000	      1772	80002d58	00000013	addi	x0,x0,0	  x0:0x00000000
       17745000	      1773	80002d5c	51b77513	andi	x10,x14,1307	 x14:0x80002bdc x10=0x00000118
       17755000	      1774	80002d60	027cf463	bgeu	x25,x7,80002d88	 x25:0x80002930  x7:0x8000bf7c
       17765000	      1775	80002d64	40448133	sub	x2,x9,x4	  x9:0x80002cb4  x4:0x80002bf0  x2=0x000000c4
       17775000	      1776	80002d68	01c5d013	srli	x0,x11,0x1c	 x11:0x80002ae8
       17785000	      1777	80002d6c	01805293	srli	x5,x0,0x18	  x0:0x00000000  x5=0x00000000
       17795000	      1778	80002d70	28b9c713	xori	x14,x19,651	 x19:0x80002b4c x14=0x800029c7
       17805000	      1779	80002d74	7a146d13	ori	x26,x8,1953	  x8:0x800029a0 x26=0x80002fa1
       17815000	      1780	80002d78	4d17b793	sltiu	x15,x15,1233	 x15:0x80002b3c x15=0x00000000
       17825000	      1781	80002d7c	05054663	blt	x10,x16,80002dc8	 x10:0x00000118 x16:0x80002b2c
       17835000	      1782	80002d80	005b9d93	slli	x27,x23,0x5	 x23:0x00028d80 x27=0x0051b000
       17845000	      1783	80002d84	017bef33	or	x30,x23,x23	 x23:0x00028d80 x23:0x00028d80 x30=0x00028d80
       17855000	      1784	80002d88	09814693	xori	x13,x2,152	  x2:0x000000c4 x13=0x0000005c
       17865000	      1785	80002d8c	3c536613	ori	x12,x6,965	  x6:0x80002ca8 x12=0x80002fed
       17875000	      1786	80002d90	00841a63	bne	x8,x8,80002da4	  x8:0x800029a0  x8:0x800029a0
       17885000	      1787	80002d94	004b0263	beq	x22,x4,80002d98	 x22:0x80002c18  x4:0x80002bf0
       17895000	      1788	80002d98	01baa833	slt	x16,x21,x27	 x21:0x80002948 x27:0x0051b000 x16=0x00000001
       17905000	      1789	80002d9c	01d15f13	srli	x30,x2,0x1d	  x2:0x000000c4 x30=0x00000000
       17915000	      1790	80002da0	011d1a93	slli	x21,x26,0x11	 x26:0x80002fa1 x21=0x5f420000
       17925000	      1791	80002da4	00f157b3	srl	x15,x2,x15	  x2:0x000000c4 x15:0x00000000 x15=0x000000c4
       17935000	      1792	80002da8	0537e663	bltu	x15,x19,80002df4	 x15:0x000000c4 x19:0x80002b4c
       17945000	      1793	00000000	00000013	addi	x0,x0,0	  x0:0x00000000
       17955000	      1794	80002df0	00000013	addi	x0,x0,0	  x0:0x00000000
       17965000	      1795	80002df4	05276863	bltu	x14,x18,80002e44	 x14:0x800029c7 x18:0x80009fc4
       17975000	      1796	00000000	00000013	addi	x0,x0,0	  x0:0x00000000
       17985000	      1797	80002e40	00000013	addi	x0,x0,0	  x0:0x00000000
       17995000	      1798	80002e44	012fcf33	xor	x30,x31,x18	 x31:0x00000000 x18:0x80009fc4 x30=0x80009fc4
       18005000	      1799	80002e48	4c47ae13	slti	x28,x15,1220	 x15:0x000000c4 x28=0x00000001
       18015000	      1800	80002e4c	04dbc263	blt	x23,x13,80002e90	 x23:0x00028d80 x13:0x0000005c
       18025000	      1801	80002e50	25fd4193	xori	x3,x26,607	 x26:0x80002fa1  x3=0x80002dfe
       18035000	      1802	80002e54	418b5213	srai	x4,x22,0x18	 x22:0x80002c18  x4=0xffffff80
       18045000	      1803	80002e58	418ad393	srai	x7,x21,0x18	 x21:0x5f420000  x7=0x0000005f
       18055000	      1804	80002e5c	00000013	addi	x0,x0,0	  x0:0x00000000
       18065000	      1805	80002e60	56592113	slti	x2,x18,1381	 x18:0x80009fc4  x2=0x00000001
       18075000	      1806	80002e64	0131cfb3	xor	x31,x3,x19	  x3:0x80002dfe x19:0x80002b4c x31=0x000006b2
       18085000	      1807	80002e68	ddb588b7	lui	x17,0xddb58	 x17=0xddb58000
       18095000	      1808	80002e6c	0365fe63	bgeu	x11,x22,80002ea8	 x11:0x80002ae8 x22:0x80002c18
       18105000	      1809	80002e70	00cc5b13	srli	x22,x24,0xc	 x24:0x80009f4c x22=0x00080009
       18115000	      1810	80002e74	40015d13	srai	x26,x2,0x0	  x2:0x00000001 x26=0x00000001
       18125000	      1811	80002e78	00099833	sll	x16,x19,x0	 x19:0x80002b4c  x0:0x00000000 x16=0x80002b4c
       18135000	      1812	80002e7c	03198863	beq	x19,x17,80002eac	 x19:0x80002b4c x17:0xddb58000
       18145000	      1813	80002e80	0496d663	bge	x13,x9,80002ecc	 x13:0x0000005c  x9:0x80002cb4
       18155000	      1814	00000000	00000013	addi	x0,x0,0	  x0:0x00000000
       18165000	      1815	80002ec8	00000013	addi	x0,x0,0	  x0:0x00000000
       18175000	      1816	80002ecc	00c0b3b3	sltu	x7,x1,x12	  x1:0x80002c98 x12:0x80002fed  x7=0x00000001
       18185000	      1817	80002ed0	04b84663	blt	x16,x11,80002f1c	 x16:0x80002b4c x11:0x80002ae8
       18195000	      1818	80002ed4	0310e463	bltu	x1,x17,80002efc	  x1:0x80002c98 x17:0xddb58000
       18205000	      1819	00000000	00000013	addi	x0,x0,0	  x0:0x00000000
       18215000	      1820	80002ef8	00000013	addi	x0,x0,0	  x0:0x00000000
       18225000	      1821	80002efc	01375a63	bge	x14,x19,80002f10	 x14:0x800029c7 x19:0x80002b4c
       18235000	      1822	80002f00	b8c0ed93	ori	x27,x1,-1140	  x1:0x80002c98 x27=0xffffff9c
       18245000	      1823	80002f04	00759633	sll	x12,x11,x7	 x11:0x80002ae8  x7:0x00000001 x12=0x000055d0
       18255000	      1824	80002f08	00e21013	slli	x0,x4,0xe	  x4:0xffffff80
       18265000	      1825	80002f0c	00d535b3	sltu	x11,x10,x13	 x10:0x00000118 x13:0x0000005c x11=0x00000000
       18275000	      1826	80002f10	40c7d733	sra	x14,x15,x12	 x15:0x000000c4 x12:0x000055d0 x14=0x00000000
       18285000	      1827	80002f14	4f71e413	ori	x8,x3,1271	  x3:0x80002dfe  x8=0x80002dff
       18295000	      1828	80002f18	00694463	blt	x18,x6,80002f20	 x18:0x80009fc4  x6:0x80002ca8
       18305000	      1829	80002f1c	dfe98893	addi	x17,x19,-514	 x19:0x80002b4c x17=0x8000294a
       18315000	      1830	80002f20	030f7463	bgeu	x30,x16,80002f48	 x30:0x80009fc4 x16:0x80002b4c
       18325000	      1831	00000000	00000013	addi	x0,x0,0	  x0:0x00000000
       18335000	      1832	80002f44	00000013	addi	x0,x0,0	  x0:0x00000000
       18345000	      1833	80002f48	008d00b3	add	x1,x26,x8	 x26:0x00000001  x8:0x80002dff  x1=0x80002e00
       18355000	      1834	80002f4c	dcad2297	auipc	x5,0xdcad2	  x5=0x5cad4f48
       18365000	      1835	80002f50	00000013	addi	x0,x0,0	  x0:0x00000000
       18375000	      1836	80002f54	00e24133	xor	x2,x4,x14	  x4:0xffffff80 x14:0x00000000  x2=0xffffff80
       18385000	      1837	80002f58	85e57413	andi	x8,x10,-1954	 x10:0x00000118  x8=0x00000018
       18395000	      1838	80002f5c	07604663	blt	x0,x22,80002fc8	  x0:0x00000000 x22:0x00080009
       18405000	      1839	00000000	00000013	addi	x0,x0,0	  x0:0x00000000
       18415000	      1840	80002fc4	00000013	addi	x0,x0,0	  x0:0x00000000
       18425000	      1841	80002fc8	01158833	add	x16,x11,x17	 x11:0x00000000 x17:0x8000294a x16=0x8000294a
       18435000	      1842	80002fcc	00971263	bne	x14,x9,80002fd0	 x14:0x00000000  x9:0x80002cb4
       18445000	      1843	00000000	00000013	addi	x0,x0,0	  x0:0x00000000
       18455000	      1844	80002fcc	00000013	addi	x0,x0,0	  x0:0x00000000
       18465000	      1845	80002fd0	006f1033	sll	x0,x30,x6	 x30:0x80009fc4  x6:0x80002ca8
       18475000	      1846	80002fd4	01354433	xor	x8,x10,x19	 x10:0x00000118 x19:0x80002b4c  x8=0x80002a54
       18485000	      1847	80002fd8	00c4e9b3	or	x19,x9,x12	  x9:0x80002cb4 x12:0x000055d0 x19=0x80007df4
       18495000	      1848	80002fdc	03d25c63	bge	x4,x29,80003014	  x4:0xffffff80 x29:0x800028d8
       18505000	      1849	00000000	00000013	addi	x0,x0,0	  x0:0x00000000
       18515000	      1850	80003010	00000013	addi	x0,x0,0	  x0:0x00000000
       18525000	      1851	80003014	0147f4b3	and	x9,x15,x20	 x15:0x000000c4 x20:0x00000009  x9=0x00000000
       18535000	      1852	80003018	00f1f1b3	and	x3,x3,x15	  x3:0x80002dfe x15:0x000000c4  x3=0x000000c4
       18545000	      1853	8000301c	01405a63	bge	x0,x20,80003030	  x0:0x00000000 x20:0x00000009
       18555000	      1854	80003020	e98483b7	lui	x7,0xe9848	  x7=0xe9848000
       18565000	      1855	80003024	019ea6b3	slt	x13,x29,x25	 x29:0x800028d8 x25:0x80002930 x13=0x00000001
       18575000	      1856	80003028	40410f33	sub	x30,x2,x4	  x2:0xffffff80  x4:0xffffff80 x30=0x00000000
       18585000	      1857	8000302c	b31a8617	auipc	x12,0xb31a8	 x12=0x331ab028
       18595000	      1858	80003030	04125863	bge	x4,x1,80003080	  x4:0xffffff80  x1:0x80002e00
       18605000	      1859	00000000	00000013	addi	x0,x0,0	  x0:0x00000000
       18615000	      1860	8000307c	00000013	addi	x0,x0,0	  x0:0x00000000
       18625000	      1861	80003080	038d7463	bgeu	x26,x24,800030a8	 x26:0x00000001 x24:0x80009f4c
       18635000	      1862	80003084	042e6463	bltu	x28,x2,800030cc	 x28:0x00000001  x2:0xffffff80
       18645000	      1863	00000000	00000013	addi	x0,x0,0	  x0:0x00000000
       18655000	      1864	800030c8	00000013	addi	x0,x0,0	  x0:0x00000000
       18665000	      1865	800030cc	0008b833	sltu	x16,x17,x0	 x17:0x8000294a  x0:0x00000000 x16=0x00000000
       18675000	      1866	800030d0	40655513	srai	x10,x10,0x6	 x10:0x00000118 x10=0x00000004
       18685000	      1867	800030d4	02f7e063	bltu	x15,x15,800030f4	 x15:0x000000c4 x15:0x000000c4
       18695000	      1868	800030d8	019fceb3	xor	x29,x31,x25	 x31:0x000006b2 x25:0x80002930 x29=0x80002f82
       18705000	      1869	800030dc	0006b3b3	sltu	x7,x13,x0	 x13:0x00000001  x0:0x00000000  x7=0x00000000
       18715000	      1870	800030e0	00000013	addi	x0,x0,0	  x0:0x00000000
       18725000	      1871	800030e4	01fcd233	srl	x4,x25,x31	 x25:0x80002930 x31:0x000006b2  x4=0x00002000
       18735000	      1872	800030e8	010e7033	and	x0,x28,x16	 x28:0x00000001 x16:0x00000000
       18745000	      1873	800030ec	53fa7813	andi	x16,x20,1343	 x20:0x00000009 x16=0x00000009
       18755000	      1874	800030f0	01c7d213	srli	x4,x15,0x1c	 x15:0x000000c4  x4=0x00000000
       18765000	      1875	800030f4	004c75b3	and	x11,x24,x4	 x24:0x80009f4c  x4:0x00000000 x11=0x00000000
       18775000	      1876	800030f8	fa920fb7	lui	x31,0xfa920	 x31=0xfa920000
       18785000	      1877	800030fc	017edb33	srl	x22,x29,x23	 x29:0x80002f82 x23:0x00028d80 x22=0x80002f82
       18795000	      1878	80003100	00274433	xor	x8,x14,x2	 x14:0x00000000  x2:0xffffff80  x8=0xffffff80
       18805000	      1879	80003104	41a4d513	srai	x10,x9,0x1a	  x9:0x00000000 x10=0x00000000
       18815000	      1880	80003108	01301293	slli	x5,x0,0x13	  x0:0x00000000  x5=0x00000000
       18825000	      1881	8000310c	011392b3	sll	x5,x7,x17	  x7:0x00000000 x17:0x8000294a  x5=0x00000000
       18835000	      1882	80003110	7ce14e93	xori	x29,x2,1998	  x2:0xffffff80 x29=0xfffff84e
       18845000	      1883	80003114	16d5b313	sltiu	x6,x11,365	 x11:0x00000000  x6=0x00000001
       18855000	      1884	80003118	03e8e063	bltu	x17,x30,80003138	 x17:0x8000294a x30:0x00000000
       18865000	      1885	8000311c	02d6ce63	blt	x13,x13,80003158	 x13:0x00000001 x13:0x00000001
       18875000	      1886	80003120	001e5eb3	srl	x29,x28,x1	 x28:0x00000001  x1:0x80002e00 x29=0x00000001
       18885000	      1887	80003124	040a1463	bne	x20,x0,8000316c	 x20:0x00000009  x0:0x00000000
       18895000	      1888	00000000	00000013	addi	x0,x0,0	  x0:0x00000000
       18905000	      1889	80003168	00000013	addi	x0,x0,0	  x0:0x00000000
       18915000	      1890	8000316c	007abcb3	sltu	x25,x21,x7	 x21:0x5f420000  x7:0x00000000 x25=0x00000000
       18925000	      1891	80003170	07de0a63	beq	x28,x29,800031e4	 x28:0x00000001 x29:0x00000001
       18935000	      1892	00000000	00000013	addi	x0,x0,0	  x0:0x00000000
       18945000	      1893	800031e0	00000013	addi	x0,x0,0	  x0:0x00000000
       18955000	      1894	800031e4	0058db93	srli	x23,x17,0x5	 x17:0x8000294a x23=0x0400014a
       18965000	      1895	800031e8	d059eb93	ori	x23,x19,-763	 x19:0x80007df4 x23=0xfffffdf5
       18975000	      1896	800031ec	57e92b13	slti	x22,x18,1406	 x18:0x80009fc4 x22=0x00000001
       18985000	      1897	800031f0	415201b3	sub	x3,x4,x21	  x4:0x00000000 x21:0x5f420000  x3=0xa0be0000
       18995000	      1898	800031f4	03af6463	bltu	x30,x26,8000321c	 x30:0x00000000 x26:0x00000001
       19005000	      1899	00000000	00000013	addi	x0,x0,0	  x0:0x00000000
       19015000	      1900	80003218	00000013	addi	x0,x0,0	  x0:0x00000000
       19025000	      1901	8000321c	0025b433	sltu	x8,x11,x2	 x11:0x00000000  x2:0xffffff80  x8=0x00000001
       19035000	      1902	80003220	018133b3	sltu	x7,x2,x24	  x2:0xffffff80 x24:0x80009f4c  x7=0x00000000
       19045000	      1903	80003224	004006ef	jal	x13,80003224	 x13=0x80003224
       19055000	      1904	00000000	00000013	addi	x0,x0,0	  x0:0x00000000
       19065000	      1905	80003224	00000013	addi	x0,x0,0	  x0:0x00000000
       19075000	      1906	80003228	018000ef	jal	x1,80003228	  x1=0x80003228
       19085000	      1907	00000000	00000013	addi	x0,x0,0	  x0:0x00000000
       19095000	      1908	8000323c	00000013	addi	x0,x0,0	  x0:0x00000000
       19105000	      1909	80003240	0080036f	jal	x6,80003240	  x6=0x80003240
       19115000	      1910	00000000	00000013	addi	x0,x0,0	  x0:0x00000000
       19125000	      1911	80003244	00000013	addi	x0,x0,0	  x0:0x00000000
       19135000	      1912	80003248	fe5ff0ef	jal	x1,80003248	  x1=0x80003248
       19145000	      1913	00000000	00000013	addi	x0,x0,0	  x0:0x00000000
       19155000	      1914	80003228	00000013	addi	x0,x0,0	  x0:0x00000000
       19165000	      1915	8000322c	008000ef	jal	x1,8000322c	  x1=0x8000322c
       19175000	      1916	00000000	00000013	addi	x0,x0,0	  x0:0x00000000
       19185000	      1917	80003230	00000013	addi	x0,x0,0	  x0:0x00000000
       19195000	      1918	80003234	0100036f	jal	x6,80003234	  x6=0x80003234
       19205000	      1919	00000000	00000013	addi	x0,x0,0	  x0:0x00000000
       19215000	      1920	80003240	00000013	addi	x0,x0,0	  x0:0x00000000
       19225000	      1921	80003244	008000ef	jal	x1,80003244	  x1=0x80003244
       19235000	      1922	00000000	00000013	addi	x0,x0,0	  x0:0x00000000
       19245000	      1923	80003248	00000013	addi	x0,x0,0	  x0:0x00000000
       19255000	      1924	8000324c	fe5ff0ef	jal	x1,8000324c	  x1=0x8000324c
       19265000	      1925	00000000	00000013	addi	x0,x0,0	  x0:0x00000000
       19275000	      1926	8000322c	00000013	addi	x0,x0,0	  x0:0x00000000
       19285000	      1927	80003230	00c000ef	jal	x1,80003230	  x1=0x80003230
       19295000	      1928	00000000	00000013	addi	x0,x0,0	  x0:0x00000000
       19305000	      1929	80003238	00000013	addi	x0,x0,0	  x0:0x00000000
       19315000	      1930	8000323c	ffdff9ef	jal	x19,8000323c	 x19=0x8000323c
       19325000	      1931	00000000	00000013	addi	x0,x0,0	  x0:0x00000000
       19335000	      1932	80003234	00000013	addi	x0,x0,0	  x0:0x00000000
       19345000	      1933	80003238	018006ef	jal	x13,80003238	 x13=0x80003238
       19355000	      1934	00000000	00000013	addi	x0,x0,0	  x0:0x00000000
       19365000	      1935	8000324c	00000013	addi	x0,x0,0	  x0:0x00000000
       19375000	      1936	80003250	403a0533	sub	x10,x20,x3	 x20:0x00000009  x3:0xa0be0000 x10=0x5f420009
       19385000	      1937	80003254	01715fb3	srl	x31,x2,x23	  x2:0xffffff80 x23:0xfffffdf5 x31=0x000007ff
       19395000	      1938	80003258	012a9c93	slli	x25,x21,0x12	 x21:0x5f420000 x25=0x00000000
       19405000	      1939	8000325c	01044433	xor	x8,x8,x16	  x8:0x00000001 x16:0x00000009  x8=0x00000008
       19415000	      1940	80003260	01b28263	beq	x5,x27,80003264	  x5:0x00000000 x27:0xffffff9c
       19425000	      1941	80003264	e4d43d93	sltiu	x27,x8,-435	  x8:0x00000008 x27=0x00000001
       19435000	      1942	80003268	01938a63	beq	x7,x25,8000327c	  x7:0x00000000 x25:0x00000000
       19445000	      1943	00000000	00000013	addi	x0,x0,0	  x0:0x00000000
       19455000	      1944	80003278	00000013	addi	x0,x0,0	  x0:0x00000000
       19465000	      1945	8000327c	3370bdb7	lui	x27,0x3370b	 x27=0x3370b000
       19475000	      1946	80003280	00000013	addi	x0,x0,0	  x0:0x00000000
       19485000	      1947	80003284	05ffc263	blt	x31,x31,800032c8	 x31:0x000007ff x31:0x000007ff
       19495000	      1948	80003288	05aa4863	blt	x20,x26,800032d8	 x20:0x00000009 x26:0x00000001
       19505000	      1949	8000328c	0192d5b3	srl	x11,x5,x25	  x5:0x00000000 x25:0x00000000 x11=0x00000000
       19515000	      1950	80003290	004c1793	slli	x15,x24,0x4	 x24:0x80009f4c x15=0x0009f4c0
       19525000	      1951	80003294	0312dc63	bge	x5,x17,800032cc	  x5:0x00000000 x17:0x8000294a
       19535000	      1952	00000000	00000013	addi	x0,x0,0	  x0:0x00000000
       19545000	      1953	800032c8	00000013	addi	x0,x0,0	  x0:0x00000000
       19555000	      1954	800032cc	012b65b3	or	x11,x22,x18	 x22:0x00000001 x18:0x80009fc4 x11=0x80009fc5
       19565000	      1955	800032d0	00760833	add	x16,x12,x7	 x12:0x331ab028  x7:0x00000000 x16=0x331ab028
       19575000	      1956	800032d4	e6c8a793	slti	x15,x17,-404	 x17:0x8000294a x15=0x00000001
       19585000	      1957	800032d8	01db9613	slli	x12,x23,0x1d	 x23:0xfffffdf5 x12=0xa0000000
       19595000	      1958	800032dc	015aab33	slt	x22,x21,x21	 x21:0x5f420000 x21:0x5f420000 x22=0x00000000
       19605000	      1959	800032e0	016d0cb3	add	x25,x26,x22	 x26:0x00000001 x22:0x00000000 x25=0x00000001
       19615000	      1960	800032e4	01692433	slt	x8,x18,x22	 x18:0x80009fc4 x22:0x00000000  x8=0x00000001
       19625000	      1961	800032e8	059a1263	bne	x20,x25,8000332c	 x20:0x00000009 x25:0x00000001
       19635000	      1962	00000000	00000013	addi	x0,x0,0	  x0:0x00000000
       19645000	      1963	80003328	00000013	addi	x0,x0,0	  x0:0x00000000
       19655000	      1964	8000332c	00000013	addi	x0,x0,0	  x0:0x00000000
       19665000	      1965	80003330	02320ab7	lui	x21,0x2320	 x21=0x02320000
       19675000	      1966	80003334	80c92c97	auipc	x25,0x80c92	 x25=0x00c95330
       19685000	      1967	80003338	007b5bb3	srl	x23,x22,x7	 x22:0x00000000  x7:0x00000000 x23=0x00000000
       19695000	      1968	8000333c	545efb93	andi	x23,x29,1349	 x29:0x00000001 x23=0x00000001
       19705000	      1969	80003340	0279c463	blt	x19,x7,80003368	 x19:0x8000323c  x7:0x00000000
       19715000	      1970	00000000	00000013	addi	x0,x0,0	  x0:0x00000000
       19725000	      1971	80003364	00000013	addi	x0,x0,0	  x0:0x00000000
       19735000	      1972	80003368	01011293	slli	x5,x2,0x10	  x2:0xffffff80  x5=0xff800000
       19745000	      1973	8000336c	000ebdb3	sltu	x27,x29,x0	 x29:0x00000001  x0:0x00000000 x27=0x00000000
       19755000	      1974	80003370	052c8113	addi	x2,x25,82	 x25:0x00c95330  x2=0x00c95382
       19765000	      1975	80003374	01e29193	slli	x3,x5,0x1e	  x5:0xff800000  x3=0x00000000
       19775000	      1976	80003378	009b8d33	add	x26,x23,x9	 x23:0x00000001  x9:0x00000000 x26=0x00000001
       19785000	      1977	8000337c	0501f663	bgeu	x3,x16,800033c8	  x3:0x00000000 x16:0x331ab028
       19795000	      1978	80003380	02840063	beq	x8,x8,800033a0	  x8:0x00000001  x8:0x00000001
       19805000	      1979	00000000	00000013	addi	x0,x0,0	  x0:0x00000000
       19815000	      1980	8000339c	00000013	addi	x0,x0,0	  x0:0x00000000
       19825000	      1981	800033a0	96c6fb97	auipc	x23,0x96c6f	 x23=0x16c7239c
       19835000	      1982	800033a4	402001b3	sub	x3,x0,x2	  x0:0x00000000  x2:0x00c95382  x3=0xff36ac7e
       19845000	      1983	800033a8	01a95333	srl	x6,x18,x26	 x18:0x80009fc4 x26:0x00000001  x6=0x40004fe2
       19855000	      1984	800033ac	355bb093	sltiu	x1,x23,853	 x23:0x16c7239c  x1=0x00000000
       19865000	      1985	800033b0	00665313	srli	x6,x12,0x6	 x12:0xa0000000  x6=0x02800000
       19875000	      1986	800033b4	46257637	lui	x12,0x46257	 x12=0x46257000
       19885000	      1987	800033b8	01ce77b3	and	x15,x28,x28	 x28:0x00000001 x28:0x00000001 x15=0x00000001
       19895000	      1988	800033bc	007fd313	srli	x6,x31,0x7	 x31:0x000007ff  x6=0x0000000f
       19905000	      1989	800033c0	00eddb33	srl	x22,x27,x14	 x27:0x00000000 x14:0x00000000 x22=0x00000000
       19915000	      1990	800033c4	018b38b3	sltu	x17,x22,x24	 x22:0x00000000 x24:0x80009f4c x17=0x00000001
       19925000	      1991	800033c8	40825533	sra	x10,x4,x8	  x4:0x00000000  x8:0x00000001 x10=0x00000000
       19935000	      1992	800033cc	313d8f13	addi	x30,x27,787	 x27:0x00000000 x30=0x00000313
       19945000	      1993	800033d0	024fd063	bge	x31,x4,800033f0	 x31:0x000007ff  x4:0x00000000
       19955000	      1994	00000000	00000013	addi	x0,x0,0	  x0:0x00000000
       19965000	      1995	800033ec	00000013	addi	x0,x0,0	  x0:0x00000000
       19975000	      1996	800033f0	0087c5b3	xor	x11,x15,x8	 x15:0x00000001  x8:0x00000001 x11=0x00000000
       19985000	      1997	800033f4	00ad1113	slli	x2,x26,0xa	 x26:0x00000001  x2=0x00000400
       19995000	      1998	800033f8	41cc5233	sra	x4,x24,x28	 x24:0x80009f4c x28:0x00000001  x4=0xc0004fa6
       20005000	      1999	800033fc	a08ae793	ori	x15,x21,-1528	 x21:0x02320000 x15=0xfffffa08
       20015000	      2000	80003400	00e9f833	and	x16,x19,x14	 x19:0x8000323c x14:0x00000000 x16=0x00000000
       20025000	      2001	80003404	02864663	blt	x12,x8,80003430	 x12:0x46257000  x8:0x00000001
       20035000	      2002	80003408	00b5d193	srli	x3,x11,0xb	 x11:0x00000000  x3=0x00000000
       20045000	      2003	8000340c	0314ce63	blt	x9,x17,80003448	  x9:0x00000000 x17:0x00000001
       20055000	      2004	00000000	00000013	addi	x0,x0,0	  x0:0x00000000
       20065000	      2005	80003444	00000013	addi	x0,x0,0	  x0:0x00000000
       20075000	      2006	80003448	014b9093	slli	x1,x23,0x14	 x23:0x16c7239c  x1=0x39c00000
       20085000	      2007	8000344c	27dce893	ori	x17,x25,637	 x25:0x00c95330 x17=0x00c9537d
       20095000	      2008	80003450	04265863	bge	x12,x2,800034a0	 x12:0x46257000  x2:0x00000400
       20105000	      2009	00000000	00000013	addi	x0,x0,0	  x0:0x00000000
       20115000	      2010	8000349c	00000013	addi	x0,x0,0	  x0:0x00000000
       20125000	      2011	800034a0	013169b3	or	x19,x2,x19	  x2:0x00000400 x19:0x8000323c x19=0x8000363c
       20135000	      2012	800034a4	00000013	addi	x0,x0,0	  x0:0x00000000
       20145000	      2013	800034a8	01b19d33	sll	x26,x3,x27	  x3:0x00000000 x27:0x00000000 x26=0x00000000
       20155000	      2014	800034ac	41f55d93	srai	x27,x10,0x1f	 x10:0x00000000 x27=0x00000000
       20165000	      2015	800034b0	0113bf33	sltu	x30,x7,x17	  x7:0x00000000 x17:0x00c9537d x30=0x00000001
       20175000	      2016	800034b4	4050d5b3	sra	x11,x1,x5	  x1:0x39c00000  x5:0xff800000 x11=0x39c00000
       20185000	      2017	800034b8	01c3eab3	or	x21,x7,x28	  x7:0x00000000 x28:0x00000001 x21=0x00000001
       20195000	      2018	800034bc	41ae5633	sra	x12,x28,x26	 x28:0x00000001 x26:0x00000000 x12=0x00000001
       20205000	      2019	800034c0	01049f13	slli	x30,x9,0x10	  x9:0x00000000 x30=0x00000000
       20215000	      2020	800034c4	0071d213	srli	x4,x3,0x7	  x3:0x00000000  x4=0x00000000
       20225000	      2021	800034c8	379ef113	andi	x2,x29,889	 x29:0x00000001  x2=0x00000001
       20235000	      2022	800034cc	01d0c233	xor	x4,x1,x29	  x1:0x39c00000 x29:0x00000001  x4=0x39c00001
       20245000	      2023	800034d0	040d9663	bne	x27,x0,8000351c	 x27:0x00000000  x0:0x00000000
       20255000	      2024	800034d4	00a57ab3	and	x21,x10,x10	 x10:0x00000000 x10:0x00000000 x21=0x00000000
       20265000	      2025	800034d8	fb4cb393	sltiu	x7,x25,-76	 x25:0x00c95330  x7=0x00000001
       20275000	      2026	800034dc	3aeba017	auipc	x0,0x3aeba	
       20285000	      2027	800034e0	0107c333	xor	x6,x15,x16	 x15:0xfffffa08 x16:0x00000000  x6=0xfffffa08
       20295000	      2028	800034e4	02b71463	bne	x14,x11,8000350c	 x14:0x00000000 x11:0x39c00000
       20305000	      2029	00000000	00000013	addi	x0,x0,0	  x0:0x00000000
       20315000	      2030	80003508	00000013	addi	x0,x0,0	  x0:0x00000000
       20325000	      2031	8000350c	007d1cb3	sll	x25,x26,x7	 x26:0x00000000  x7:0x00000001 x25=0x00000000
       20335000	      2032	80003510	541c6713	ori	x14,x24,1345	 x24:0x80009f4c x14=0x80009f4d
       20345000	      2033	80003514	85b72237	lui	x4,0x85b72	  x4=0x85b72000
       20355000	      2034	80003518	01975213	srli	x4,x14,0x19	 x14:0x80009f4d  x4=0x00000040
       20365000	      2035	8000351c	013a2fb3	slt	x31,x20,x19	 x20:0x00000009 x19:0x8000363c x31=0x00000000
       20375000	      2036	80003520	020d9063	bne	x27,x0,80003540	 x27:0x00000000  x0:0x00000000
       20385000	      2037	80003524	018e6263	bltu	x28,x24,80003528	 x28:0x00000001 x24:0x80009f4c
       20395000	      2038	00000000	00000013	addi	x0,x0,0	  x0:0x00000000
       20405000	      2039	80003524	00000013	addi	x0,x0,0	  x0:0x00000000
       20415000	      2040	80003528	03171863	bne	x14,x17,80003558	 x14:0x80009f4d x17:0x00c9537d
       20425000	      2041	00000000	00000013	addi	x0,x0,0	  x0:0x00000000
       20435000	      2042	80003554	00000013	addi	x0,x0,0	  x0:0x00000000
       20445000	      2043	80003558	00eb8533	add	x10,x23,x14	 x23:0x16c7239c x14:0x80009f4d x10=0x96c7c2e9
       20455000	      2044	8000355c	03558c63	beq	x11,x21,80003594	 x11:0x39c00000 x21:0x00000000
       20465000	      2045	80003560	005ab5b3	sltu	x11,x21,x5	 x21:0x00000000  x5:0xff800000 x11=0x00000001
       20475000	      2046	80003564	c9794113	xori	x2,x18,-873	 x18:0x80009fc4  x2=0x7fff6353
       20485000	      2047	80003568	00784ab3	xor	x21,x16,x7	 x16:0x00000000  x7:0x00000001 x21=0x00000001
       20495000	      2048	8000356c	01156cb3	or	x25,x10,x17	 x10:0x96c7c2e9 x17:0x00c9537d x25=0x96cfd3fd
       20505000	      2049	80003570	05086863	bltu	x16,x16,800035c0	 x16:0x00000000 x16:0x00000000
       20515000	      2050	80003574	417a8333	sub	x6,x21,x23	 x21:0x00000001 x23:0x16c7239c  x6=0xe938dc65
       20525000	      2051	80003578	01b09463	bne	x1,x27,80003580	  x1:0x39c00000 x27:0x00000000
       20535000	      2052	00000000	00000013	addi	x0,x0,0	  x0:0x00000000
       20545000	      2053	8000357c	00000013	addi	x0,x0,0	  x0:0x00000000
       20555000	      2054	80003580	00685d33	srl	x26,x16,x6	 x16:0x00000000  x6:0xe938dc65 x26=0x00000000
       20565000	      2055	80003584	026c4a63	blt	x24,x6,800035b8	 x24:0x80009f4c  x6:0xe938dc65
       20575000	      2056	00000000	00000013	addi	x0,x0,0	  x0:0x00000000
       20585000	      2057	800035b4	00000013	addi	x0,x0,0	  x0:0x00000000
       20595000	      2058	800035b8	40e152b3	sra	x5,x2,x14	  x2:0x7fff6353 x14:0x80009f4d  x5=0x0003fffb
       20605000	      2059	800035bc	0039deb3	srl	x29,x19,x3	 x19:0x8000363c  x3:0x00000000 x29=0x8000363c
       20615000	      2060	800035c0	40210ab3	sub	x21,x2,x2	  x2:0x7fff6353  x2:0x7fff6353 x21=0x00000000
       20625000	      2061	800035c4	00711a63	bne	x2,x7,800035d8	  x2:0x7fff6353  x7:0x00000001
       20635000	      2062	00000000	00000013	addi	x0,x0,0	  x0:0x00000000
       20645000	      2063	800035d4	00000013	addi	x0,x0,0	  x0:0x00000000
       20655000	      2064	800035d8	0159ee63	bltu	x19,x21,800035f4	 x19:0x8000363c x21:0x00000000
       20665000	      2065	800035dc	9f417837	lui	x16,0x9f417	 x16=0x9f417000
       20675000	      2066	800035e0	02bd8463	beq	x27,x11,80003608	 x27:0x00000000 x11:0x00000001
       20685000	      2067	800035e4	0319e063	bltu	x19,x17,80003604	 x19:0x8000363c x17:0x00c9537d
       20695000	      2068	800035e8	00916633	or	x12,x2,x9	  x2:0x7fff6353  x9:0x00000000 x12=0x7fff6353
       20705000	      2069	800035ec	f9ca13b7	lui	x7,0xf9ca1	  x7=0xf9ca1000
       20715000	      2070	800035f0	40a80733	sub	x14,x16,x10	 x16:0x9f417000 x10:0x96c7c2e9 x14=0x0879ad17
       20725000	      2071	800035f4	00b3d213	srli	x4,x7,0xb	  x7:0xf9ca1000  x4=0x001f3942
       20735000	      2072	800035f8	03ea9863	bne	x21,x30,80003628	 x21:0x00000000 x30:0x00000000
       20745000	      2073	800035fc	40ccd113	srai	x2,x25,0xc	 x25:0x96cfd3fd  x2=0xfff96cfd
       20755000	      2074	80003600	00b76cb3	or	x25,x14,x11	 x14:0x0879ad17 x11:0x00000001 x25=0x0879ad17
       20765000	      2075	80003604	400fd093	srai	x1,x31,0x0	 x31:0x00000000  x1=0x00000000
       20775000	      2076	80003608	04600663	beq	x0,x6,80003654	  x0:0x00000000  x6:0xe938dc65
       20785000	      2077	8000360c	02f80c63	beq	x16,x15,80003644	 x16:0x9f417000 x15:0xfffffa08
       20795000	      2078	80003610	00000013	addi	x0,x0,0	  x0:0x00000000
       20805000	      2079	80003614	00000013	addi	x0,x0,0	  x0:0x00000000
       20815000	      2080	80003618	00e79ab3	sll	x21,x15,x14	 x15:0xfffffa08 x14:0x0879ad17 x21=0x04000000
       20825000	      2081	8000361c	f1f26393	ori	x7,x4,-225	  x4:0x001f3942  x7=0xffffff5f
       20835000	      2082	80003620	007c20b3	slt	x1,x24,x7	 x24:0x80009f4c  x7:0xffffff5f  x1=0x00000001
       20845000	      2083	80003624	41c2d793	srai	x15,x5,0x1c	  x5:0x0003fffb x15=0x00000000
       20855000	      2084	80003628	40a60033	sub	x0,x12,x10	 x12:0x7fff6353 x10:0x96c7c2e9
       20865000	      2085	8000362c	ccf83493	sltiu	x9,x16,-817	 x16:0x9f417000  x9=0x00000001
       20875000	      2086	80003630	03c24063	blt	x4,x28,80003650	  x4:0x001f3942 x28:0x00000001
       20885000	      2087	80003634	00d55513	srli	x10,x10,0xd	 x10:0x96c7c2e9 x10=0x0004b63e
       20895000	      2088	80003638	8899cc93	xori	x25,x19,-1911	 x19:0x8000363c x25=0x7fffceb5
       20905000	      2089	8000363c	aab3c293	xori	x5,x7,-1365	  x7:0xffffff5f  x5=0x000005f4
       20915000	      2090	80003640	01b734b3	sltu	x9,x14,x27	 x14:0x0879ad17 x27:0x00000000  x9=0x00000000
       20925000	      2091	80003644	01b2f333	and	x6,x5,x27	  x5:0x000005f4 x27:0x00000000  x6=0x00000000
       20935000	      2092	80003648	d3a98ab7	lui	x21,0xd3a98	 x21=0xd3a98000
       20945000	      2093	8000364c	01800833	add	x16,x0,x24	  x0:0x00000000 x24:0x80009f4c x16=0x80009f4c
       20955000	      2094	80003650	01866733	or	x14,x12,x24	 x12:0x7fff6353 x24:0x80009f4c x14=0xffffff5f
       20965000	      2095	80003654	0265fc63	bgeu	x11,x6,8000368c	 x11:0x00000001  x6:0x00000000
       20975000	      2096	00000000	00000013	addi	x0,x0,0	  x0:0x00000000
       20985000	      2097	80003688	00000013	addi	x0,x0,0	  x0:0x00000000
       20995000	      2098	8000368c	2a089f37	lui	x30,0x2a089	 x30=0x2a089000
       21005000	      2099	80003690	00000013	addi	x0,x0,0	  x0:0x00000000
       21015000	      2100	80003694	c1180393	addi	x7,x16,-1007	 x16:0x80009f4c  x7=0x80009b5d
       21025000	      2101	80003698	92e90d93	addi	x27,x18,-1746	 x18:0x80009fc4 x27=0x800098f2
       21035000	      2102	8000369c	01325313	srli	x6,x4,0x13	  x4:0x001f3942  x6=0x00000003
       21045000	      2103	800036a0	266cba93	sltiu	x21,x25,614	 x25:0x7fffceb5 x21=0x00000000
       21055000	      2104	800036a4	00aa9b93	slli	x23,x21,0xa	 x21:0x00000000 x23=0x00000000
       21065000	      2105	800036a8	52d1ea93	ori	x21,x3,1325	  x3:0x00000000 x21=0x0000052d
       21075000	      2106	800036ac	e94fc313	xori	x6,x31,-364	 x31:0x00000000  x6=0xfffffe94
       21085000	      2107	800036b0	012e7db3	and	x27,x28,x18	 x28:0x00000001 x18:0x80009fc4 x27=0x00000000
       21095000	      2108	800036b4	f5916d13	ori	x26,x2,-167	  x2:0xfff96cfd x26=0xfffffffd
       21105000	      2109	800036b8	016fd193	srli	x3,x31,0x16	 x31:0x00000000  x3=0x00000000
       21115000	      2110	800036bc	418a8ab3	sub	x21,x21,x24	 x21:0x0000052d x24:0x80009f4c x21=0x7fff65e1
       21125000	      2111	800036c0	03414263	blt	x2,x20,800036e4	  x2:0xfff96cfd x20:0x00000009
       21135000	      2112	00000000	00000013	addi	x0,x0,0	  x0:0x00000000
       21145000	      2113	800036e0	00000013	addi	x0,x0,0	  x0:0x00000000
       21155000	      2114	800036e4	00f10263	beq	x2,x15,800036e8	  x2:0xfff96cfd x15:0x00000000
       21165000	      2115	800036e8	0063fd33	and	x26,x7,x6	  x7:0x80009b5d  x6:0xfffffe94 x26=0x80009a14
       21175000	      2116	800036ec	00f46263	bltu	x8,x15,800036f0	  x8:0x00000001 x15:0x00000000
       21185000	      2117	800036f0	05c54493	xori	x9,x10,92	 x10:0x0004b63e  x9=0x0004b662
       21195000	      2118	800036f4	0d7b8f37	lui	x30,0xd7b8	 x30=0x0d7b8000
       21205000	      2119	800036f8	000451b3	srl	x3,x8,x0	  x8:0x00000001  x0:0x00000000  x3=0x00000001
       21215000	      2120	800036fc	e2dccb93	xori	x23,x25,-467	 x25:0x7fffceb5 x23=0x80003098
       21225000	      2121	80003700	a2f58013	addi	x0,x11,-1489	 x11:0x00000001
       21235000	      2122	80003704	0075a7b3	slt	x15,x11,x7	 x11:0x00000001  x7:0x80009b5d x15=0x00000000
       21245000	      2123	80003708	002d7a63	bgeu	x26,x2,8000371c	 x26:0x80009a14  x2:0xfff96cfd
       21255000	      2124	8000370c	40938f33	sub	x30,x7,x9	  x7:0x80009b5d  x9:0x0004b662 x30=0x7ffbe4fb
       21265000	      2125	80003710	b27b3493	sltiu	x9,x22,-1241	 x22:0x00000000  x9=0x00000001
       21275000	      2126	80003714	00a65ab3	srl	x21,x12,x10	 x12:0x7fff6353 x10:0x0004b63e x21=0x00000001
       21285000	      2127	80003718	008d68b3	or	x17,x26,x8	 x26:0x80009a14  x8:0x00000001 x17=0x80009a15
       21295000	      2128	8000371c	089b8a63	beq	x23,x9,800037b0	 x23:0x80003098  x9:0x00000001
       21305000	      2129	80003720	4192d733	sra	x14,x5,x25	  x5:0x000005f4 x25:0x7fffceb5 x14=0x00000000
       21315000	      2130	80003724	0cb0f463	bgeu	x1,x11,800037ec	  x1:0x00000001 x11:0x00000001
       21325000	      2131	00000000	00000013	addi	x0,x0,0	  x0:0x00000000
       21335000	      2132	800037e8	00000013	addi	x0,x0,0	  x0:0x00000000
       21345000	      2133	800037ec	01e18233	add	x4,x3,x30	  x3:0x00000001 x30:0x7ffbe4fb  x4=0x7ffbe4fc
       21355000	      2134	800037f0	26f04c93	xori	x25,x0,623	  x0:0x00000000 x25=0x0000026f
       21365000	      2135	800037f4	4040d7b3	sra	x15,x1,x4	  x1:0x00000001  x4:0x7ffbe4fc x15=0x00000000
       21375000	      2136	800037f8	004a9213	slli	x4,x21,0x4	 x21:0x00000001  x4=0x00000010
       21385000	      2137	800037fc	79824a93	xori	x21,x4,1944	  x4:0x00000010 x21=0x00000788
       21395000	      2138	80003800	05e65663	bge	x12,x30,8000384c	 x12:0x7fff6353 x30:0x7ffbe4fb
       21405000	      2139	00000000	00000013	addi	x0,x0,0	  x0:0x00000000
       21415000	      2140	80003848	00000013	addi	x0,x0,0	  x0:0x00000000
       21425000	      2141	8000384c	9b98c213	xori	x4,x17,-1607	 x17:0x80009a15  x4=0x7fff63ac
       21435000	      2142	80003850	016446b3	xor	x13,x8,x22	  x8:0x00000001 x22:0x00000000 x13=0x00000001
       21445000	      2143	80003854	00000013	addi	x0,x0,0	  x0:0x00000000
       21455000	      2144	80003858	00000013	addi	x0,x0,0	  x0:0x00000000
       21465000	      2145	8000385c	00ba44b3	xor	x9,x20,x11	 x20:0x00000009 x11:0x00000001  x9=0x00000008
       21475000	      2146	80003860	650f7513	andi	x10,x30,1616	 x30:0x7ffbe4fb x10=0x00000450
       21485000	      2147	80003864	8d8a8337	lui	x6,0x8d8a8	  x6=0x8d8a8000
       21495000	      2148	80003868	41cf5633	sra	x12,x30,x28	 x30:0x7ffbe4fb x28:0x00000001 x12=0x3ffdf27d
       21505000	      2149	8000386c	404f8333	sub	x6,x31,x4	 x31:0x00000000  x4:0x7fff63ac  x6=0x80009c54
       21515000	      2150	80003870	f876ce93	xori	x29,x13,-121	 x13:0x00000001 x29=0xffffff86
       21525000	      2151	80003874	05908663	beq	x1,x25,800038c0	  x1:0x00000001 x25:0x0000026f
       21535000	      2152	80003878	019ff3b3	and	x7,x31,x25	 x31:0x00000000 x25:0x0000026f  x7=0x00000000
       21545000	      2153	8000387c	03da5597	auipc	x11,0x3da5	 x11=0x83da8878
       21555000	      2154	80003880	af233e13	sltiu	x28,x6,-1294	  x6:0x80009c54 x28=0x00000001
       21565000	      2155	80003884	01085493	srli	x9,x16,0x10	 x16:0x80009f4c  x9=0x00008000
       21575000	      2156	80003888	543b6d93	ori	x27,x22,1347	 x22:0x00000000 x27=0x00000543
       21585000	      2157	8000388c	1fbd0713	addi	x14,x26,507	 x26:0x80009a14 x14=0x80009c0f
       21595000	      2158	80003890	01540263	beq	x8,x21,80003894	  x8:0x00000001 x21:0x00000788
       21605000	      2159	80003894	01a26463	bltu	x4,x26,8000389c	  x4:0x7fff63ac x26:0x80009a14
       21615000	      2160	00000000	00000013	addi	x0,x0,0	  x0:0x00000000
       21625000	      2161	80003898	00000013	addi	x0,x0,0	  x0:0x00000000
       21635000	      2162	8000389c	01449ab3	sll	x21,x9,x20	  x9:0x00008000 x20:0x00000009 x21=0x01000000
       21645000	      2163	800038a0	01c2f3b3	and	x7,x5,x28	  x5:0x000005f4 x28:0x00000001  x7=0x00000000
       21655000	      2164	800038a4	0027d013	srli	x0,x15,0x2	 x15:0x00000000
       21665000	      2165	800038a8	4018d0b3	sra	x1,x17,x1	 x17:0x80009a15  x1:0x00000001  x1=0xc0004d0a
       21675000	      2166	800038ac	0068eeb3	or	x29,x17,x6	 x17:0x80009a15  x6:0x80009c54 x29=0x80009e55
       21685000	      2167	800038b0	00d4c863	blt	x9,x13,800038c0	  x9:0x00008000 x13:0x00000001
       21695000	      2168	800038b4	4035d033	sra	x0,x11,x3	 x11:0x83da8878  x3:0x00000001
       21705000	      2169	800038b8	001c62b3	or	x5,x24,x1	 x24:0x80009f4c  x1:0xc0004d0a  x5=0xc000df4e
       21715000	      2170	800038bc	6f1fe113	ori	x2,x31,1777	 x31:0x00000000  x2=0x000006f1
       21725000	      2171	800038c0	00000013	addi	x0,x0,0	  x0:0x00000000
       21735000	      2172	800038c4	008aca63	blt	x21,x8,800038d8	 x21:0x01000000  x8:0x00000001
       21745000	      2173	800038c8	0ced97b7	lui	x15,0xced9	 x15=0x0ced9000
       21755000	      2174	800038cc	7e31b493	sltiu	x9,x3,2019	  x3:0x00000001  x9=0x00000001
       21765000	      2175	800038d0	04cb6263	bltu	x22,x12,80003914	 x22:0x00000000 x12:0x3ffdf27d
       21775000	      2176	00000000	00000013	addi	x0,x0,0	  x0:0x00000000
       21785000	      2177	80003910	00000013	addi	x0,x0,0	  x0:0x00000000
       21795000	      2178	80003914	509a3613	sltiu	x12,x20,1289	 x20:0x00000009 x12=0x00000001
       21805000	      2179	80003918	00000013	addi	x0,x0,0	  x0:0x00000000
       21815000	      2180	8000391c	e2f73693	sltiu	x13,x14,-465	 x14:0x80009c0f x13=0x00000001
       21825000	      2181	80003920	01972b33	slt	x22,x14,x25	 x14:0x80009c0f x25:0x0000026f x22=0x00000001
       21835000	      2182	80003924	dfab2e93	slti	x29,x22,-518	 x22:0x00000001 x29=0x00000000
       21845000	      2183	80003928	2d102493	slti	x9,x0,721	  x0:0x00000000  x9=0x00000001
       21855000	      2184	8000392c	00000013	addi	x0,x0,0	  x0:0x00000000
       21865000	      2185	80003930	0149b2b3	sltu	x5,x19,x20	 x19:0x8000363c x20:0x00000009  x5=0x00000000
       21875000	      2186	80003934	b015aa93	slti	x21,x11,-1279	 x11:0x83da8878 x21=0x00000001
       21885000	      2187	80003938	0350e863	bltu	x1,x21,80003968	  x1:0xc0004d0a x21:0x00000001
       21895000	      2188	8000393c	4130db93	srai	x23,x1,0x13	  x1:0xc0004d0a x23=0xfffff800
       21905000	      2189	80003940	01608ab3	add	x21,x1,x22	  x1:0xc0004d0a x22:0x00000001 x21=0xc0004d0b
       21915000	      2190	80003944	0526c863	blt	x13,x18,80003994	 x13:0x00000001 x18:0x80009fc4
       21925000	      2191	80003948	01e59813	slli	x16,x11,0x1e	 x11:0x83da8878 x16=0x00000000
       21935000	      2192	8000394c	01aef133	and	x2,x29,x26	 x29:0x00000000 x26:0x80009a14  x2=0x00000000
       21945000	      2193	80003950	004449b3	xor	x19,x8,x4	  x8:0x00000001  x4:0x7fff63ac x19=0x7fff63ad
       21955000	      2194	80003954	a2beb417	auipc	x8,0xa2beb	  x8=0x22bee950
       21965000	      2195	80003958	419d05b3	sub	x11,x26,x25	 x26:0x80009a14 x25:0x0000026f x11=0x800097a5
       21975000	      2196	8000395c	010b2433	slt	x8,x22,x16	 x22:0x00000001 x16:0x00000000  x8=0x00000000
       21985000	      2197	80003960	01d034b3	sltu	x9,x0,x29	  x0:0x00000000 x29:0x00000000  x9=0x00000000
       21995000	      2198	80003964	01ca6333	or	x6,x20,x28	 x20:0x00000009 x28:0x00000001  x6=0x00000009
       22005000	      2199	80003968	40eb8eb3	sub	x29,x23,x14	 x23:0xfffff800 x14:0x80009c0f x29=0x7fff5bf1
       22015000	      2200	8000396c	0140ab33	slt	x22,x1,x20	  x1:0xc0004d0a x20:0x00000009 x22=0x00000001
       22025000	      2201	80003970	05d50663	beq	x10,x29,800039bc	 x10:0x00000450 x29:0x7fff5bf1
       22035000	      2202	80003974	40340033	sub	x0,x8,x3	  x8:0x00000000  x3:0x00000001
       22045000	      2203	80003978	03f64063	blt	x12,x31,80003998	 x12:0x00000001 x31:0x00000000
       22055000	      2204	8000397c	41e3dd93	srai	x27,x7,0x1e	  x7:0x00000000 x27=0x00000000
       22065000	      2205	80003980	01975f93	srli	x31,x14,0x19	 x14:0x80009c0f x31=0x00000040
       22075000	      2206	80003984	019c03b3	add	x7,x24,x25	 x24:0x80009f4c x25:0x0000026f  x7=0x8000a1bb
       22085000	      2207	80003988	01ff03b3	add	x7,x30,x31	 x30:0x7ffbe4fb x31:0x00000040  x7=0x7ffbe53b
       22095000	      2208	8000398c	fab32b93	slti	x23,x6,-85	  x6:0x00000009 x23=0x00000000
       22105000	      2209	80003990	00617263	bgeu	x2,x6,80003994	  x2:0x00000000  x6:0x00000009
       22115000	      2210	80003994	000370b3	and	x1,x6,x0	  x6:0x00000009  x0:0x00000000  x1=0x00000000
       22125000	      2211	80003998	03eb8263	beq	x23,x30,800039bc	 x23:0x00000000 x30:0x7ffbe4fb
       22135000	      2212	8000399c	415e5313	srai	x6,x28,0x15	 x28:0x00000001  x6=0x00000000
       22145000	      2213	800039a0	5bcbb713	sltiu	x14,x23,1468	 x23:0x00000000 x14=0x00000001
       22155000	      2214	800039a4	002a8e63	beq	x21,x2,800039c0	 x21:0xc0004d0b  x2:0x00000000
       22165000	      2215	800039a8	411450b3	sra	x1,x8,x17	  x8:0x00000000 x17:0x80009a15  x1=0x00000000
       22175000	      2216	800039ac	01246463	bltu	x8,x18,800039b4	  x8:0x00000000 x18:0x80009fc4
       22185000	      2217	00000000	00000013	addi	x0,x0,0	  x0:0x00000000
       22195000	      2218	800039b0	00000013	addi	x0,x0,0	  x0:0x00000000
       22205000	      2219	800039b4	00599f93	slli	x31,x19,0x5	 x19:0x7fff63ad x31=0xffec75a0
       22215000	      2220	800039b8	03549a63	bne	x9,x21,800039ec	  x9:0x00000000 x21:0xc0004d0b
       22225000	      2221	00000000	00000013	addi	x0,x0,0	  x0:0x00000000
       22235000	      2222	800039e8	00000013	addi	x0,x0,0	  x0:0x00000000
       22245000	      2223	800039ec	00f12033	slt	x0,x2,x15	  x2:0x00000000 x15:0x0ced9000
       22255000	      2224	800039f0	3aed8e93	addi	x29,x27,942	 x27:0x00000000 x29=0x000003ae
       22265000	      2225	800039f4	7034bb13	sltiu	x22,x9,1795	  x9:0x00000000 x22=0x00000001
       22275000	      2226	800039f8	b67e2093	slti	x1,x28,-1177	 x28:0x00000001  x1=0x00000000
       22285000	      2227	800039fc	00000013	addi	x0,x0,0	  x0:0x00000000
       22295000	      2228	80003a00	00c54533	xor	x10,x10,x12	 x10:0x00000450 x12:0x00000001 x10=0x00000451
       22305000	      2229	80003a04	000533b3	sltu	x7,x10,x0	 x10:0x00000451  x0:0x00000000  x7=0x00000000
       22315000	      2230	80003a08	0277f063	bgeu	x15,x7,80003a28	 x15:0x0ced9000  x7:0x00000000
       22325000	      2231	00000000	00000013	addi	x0,x0,0	  x0:0x00000000
       22335000	      2232	80003a24	00000013	addi	x0,x0,0	  x0:0x00000000
       22345000	      2233	80003a28	00e1de93	srli	x29,x3,0xe	  x3:0x00000001 x29=0x00000000
       22355000	      2234	80003a2c	a40eb713	sltiu	x14,x29,-1472	 x29:0x00000000 x14=0x00000001
       22365000	      2235	80003a30	08b7ec63	bltu	x15,x11,80003ac8	 x15:0x0ced9000 x11:0x800097a5
       22375000	      2236	00000000	00000013	addi	x0,x0,0	  x0:0x00000000
       22385000	      2237	80003ac4	00000013	addi	x0,x0,0	  x0:0x00000000
       22395000	      2238	80003ac8	b030ad13	slti	x26,x1,-1277	  x1:0x00000000 x26=0x00000000
       22405000	      2239	80003acc	00a91413	slli	x8,x18,0xa	 x18:0x80009fc4  x8=0x027f1000
       22415000	      2240	80003ad0	14742513	slti	x10,x8,327	  x8:0x027f1000 x10=0x00000000
       22425000	      2241	80003ad4	417787b3	sub	x15,x15,x23	 x15:0x0ced9000 x23:0x00000000 x15=0x0ced9000
       22435000	      2242	80003ad8	00543d33	sltu	x26,x8,x5	  x8:0x027f1000  x5:0x00000000 x26=0x00000000
       22445000	      2243	80003adc	2c26c793	xori	x15,x13,706	 x13:0x00000001 x15=0x000002c3
       22455000	      2244	80003ae0	017c9d33	sll	x26,x25,x23	 x25:0x0000026f x23:0x00000000 x26=0x0000026f
       22465000	      2245	80003ae4	402f0133	sub	x2,x30,x2	 x30:0x7ffbe4fb  x2:0x00000000  x2=0x7ffbe4fb
       22475000	      2246	80003ae8	00261863	bne	x12,x2,80003af8	 x12:0x00000001  x2:0x7ffbe4fb
       22485000	      2247	00000000	00000013	addi	x0,x0,0	  x0:0x00000000
       22495000	      2248	80003af4	00000013	addi	x0,x0,0	  x0:0x00000000
       22505000	      2249	80003af8	00000013	addi	x0,x0,0	  x0:0x00000000
       22515000	      2250	80003afc	01cb56b3	srl	x13,x22,x28	 x22:0x00000001 x28:0x00000001 x13=0x00000000
       22525000	      2251	80003b00	0180fdb3	and	x27,x1,x24	  x1:0x00000000 x24:0x80009f4c x27=0x00000000
       22535000	      2252	80003b04	020aee63	bltu	x21,x0,80003b40	 x21:0xc0004d0b  x0:0x00000000
       22545000	      2253	80003b08	001abbb3	sltu	x23,x21,x1	 x21:0xc0004d0b  x1:0x00000000 x23=0x00000000
       22555000	      2254	80003b0c	014f2bb3	slt	x23,x30,x20	 x30:0x7ffbe4fb x20:0x00000009 x23=0x00000000
       22565000	      2255	80003b10	019c5d13	srli	x26,x24,0x19	 x24:0x80009f4c x26=0x00000040
       22575000	      2256	80003b14	014956b3	srl	x13,x18,x20	 x18:0x80009fc4 x20:0x00000009 x13=0x0040004f
       22585000	      2257	80003b18	e660ff93	andi	x31,x1,-410	  x1:0x00000000 x31=0x00000000
       22595000	      2258	80003b1c	00ba7133	and	x2,x20,x11	 x20:0x00000009 x11:0x800097a5  x2=0x00000001
       22605000	      2259	80003b20	6cded617	auipc	x12,0x6cded	 x12=0xecdf0b1c
       22615000	      2260	80003b24	40cf8533	sub	x10,x31,x12	 x31:0x00000000 x12:0xecdf0b1c x10=0x1320f4e4
       22625000	      2261	80003b28	c82a4513	xori	x10,x20,-894	 x20:0x00000009 x10=0xfffffc8b
       22635000	      2262	80003b2c	019e68b3	or	x17,x28,x25	 x28:0x00000001 x25:0x0000026f x17=0x0000026f
       22645000	      2263	80003b30	003d96b3	sll	x13,x27,x3	 x27:0x00000000  x3:0x00000001 x13=0x00000000
       22655000	      2264	80003b34	02fb5a63	bge	x22,x15,80003b68	 x22:0x00000001 x15:0x000002c3
       22665000	      2265	80003b38	0015beb3	sltu	x29,x11,x1	 x11:0x800097a5  x1:0x00000000 x29=0x00000000
       22675000	      2266	80003b3c	0108f433	and	x8,x17,x16	 x17:0x0000026f x16:0x00000000  x8=0x00000000
       22685000	      2267	80003b40	042a8263	beq	x21,x2,80003b84	 x21:0xc0004d0b  x2:0x00000001
       22695000	      2268	80003b44	0082da63	bge	x5,x8,80003b58	  x5:0x00000000  x8:0x00000000
       22705000	      2269	00000000	00000013	addi	x0,x0,0	  x0:0x00000000
       22715000	      2270	80003b54	00000013	addi	x0,x0,0	  x0:0x00000000
       22725000	      2271	80003b58	41a754b3	sra	x9,x14,x26	 x14:0x00000001 x26:0x00000040  x9=0x00000001
       22735000	      2272	80003b5c	00187733	and	x14,x16,x1	 x16:0x00000000  x1:0x00000000 x14=0x00000000
       22745000	      2273	80003b60	002b1393	slli	x7,x22,0x2	 x22:0x00000001  x7=0x00000004
       22755000	      2274	80003b64	00302333	slt	x6,x0,x3	  x0:0x00000000  x3:0x00000001  x6=0x00000001
       22765000	      2275	80003b68	0114de93	srli	x29,x9,0x11	  x9:0x00000001 x29=0x00000000
       22775000	      2276	80003b6c	0018fa63	bgeu	x17,x1,80003b80	 x17:0x0000026f  x1:0x00000000
       22785000	      2277	00000000	00000013	addi	x0,x0,0	  x0:0x00000000
       22795000	      2278	80003b7c	00000013	addi	x0,x0,0	  x0:0x00000000
       22805000	      2279	80003b80	0158ccb3	xor	x25,x17,x21	 x17:0x0000026f x21:0xc0004d0b x25=0xc0004f64
       22815000	      2280	80003b84	019c7333	and	x6,x24,x25	 x24:0x80009f4c x25:0xc0004f64  x6=0x80000f44
       22825000	      2281	80003b88	02c8e213	ori	x4,x17,44	 x17:0x0000026f  x4=0x0000026f
       22835000	      2282	80003b8c	05686463	bltu	x16,x22,80003bd4	 x16:0x00000000 x22:0x00000001
       22845000	      2283	00000000	00000013	addi	x0,x0,0	  x0:0x00000000
       22855000	      2284	80003bd0	00000013	addi	x0,x0,0	  x0:0x00000000
       22865000	      2285	80003bd4	00e9db13	srli	x22,x19,0xe	 x19:0x7fff63ad x22=0x0001fffd
       22875000	      2286	80003bd8	00223833	sltu	x16,x4,x2	  x4:0x0000026f  x2:0x00000001 x16=0x00000000
       22885000	      2287	80003bdc	01e2d733	srl	x14,x5,x30	  x5:0x00000000 x30:0x7ffbe4fb x14=0x00000000
       22895000	      2288	80003be0	00f27263	bgeu	x4,x15,80003be4	  x4:0x0000026f x15:0x000002c3
       22905000	      2289	80003be4	01e9a033	slt	x0,x19,x30	 x19:0x7fff63ad x30:0x7ffbe4fb
       22915000	      2290	80003be8	dbd8a4b7	lui	x9,0xdbd8a	  x9=0xdbd8a000
       22925000	      2291	80003bec	03420663	beq	x4,x20,80003c18	  x4:0x0000026f x20:0x00000009
       22935000	      2292	80003bf0	dff36a93	ori	x21,x6,-513	  x6:0x80000f44 x21=0xffffffff
       22945000	      2293	80003bf4	01eae5b3	or	x11,x21,x30	 x21:0xffffffff x30:0x7ffbe4fb x11=0xffffffff
       22955000	      2294	80003bf8	878fe193	ori	x3,x31,-1928	 x31:0x00000000  x3=0xfffff878
       22965000	      2295	80003bfc	1d7ee113	ori	x2,x29,471	 x29:0x00000000  x2=0x000001d7
       22975000	      2296	80003c00	036cec63	bltu	x25,x22,80003c38	 x25:0xc0004f64 x22:0x0001fffd
       22985000	      2297	80003c04	402357b3	sra	x15,x6,x2	  x6:0x80000f44  x2:0x000001d7 x15=0xffffff00
       22995000	      2298	80003c08	010c9193	slli	x3,x25,0x10	 x25:0xc0004f64  x3=0x4f640000
       23005000	      2299	80003c0c	411205b3	sub	x11,x4,x17	  x4:0x0000026f x17:0x0000026f x11=0x00000000
       23015000	      2300	80003c10	00c6aab3	slt	x21,x13,x12	 x13:0x00000000 x12:0xecdf0b1c x21=0x00000000
       23025000	      2301	80003c14	fa4deb93	ori	x23,x27,-92	 x27:0x00000000 x23=0xffffffa4
       23035000	      2302	80003c18	41bed413	srai	x8,x29,0x1b	 x29:0x00000000  x8=0x00000000
       23045000	      2303	80003c1c	0350e463	bltu	x1,x21,80003c44	  x1:0x00000000 x21:0x00000000
       23055000	      2304	80003c20	02ebfc63	bgeu	x23,x14,80003c58	 x23:0xffffffa4 x14:0x00000000
       23065000	      2305	00000000	00000013	addi	x0,x0,0	  x0:0x00000000
       23075000	      2306	80003c54	00000013	addi	x0,x0,0	  x0:0x00000000
       23085000	      2307	80003c58	3f40e993	ori	x19,x1,1012	  x1:0x00000000 x19=0x000003f4
       23095000	      2308	80003c5c	276abf93	sltiu	x31,x21,630	 x21:0x00000000 x31=0x00000001
       23105000	      2309	80003c60	00423b33	sltu	x22,x4,x4	  x4:0x0000026f  x4:0x0000026f x22=0x00000000
       23115000	      2310	80003c64	8cb7a313	slti	x6,x15,-1845	 x15:0xffffff00  x6=0x00000000
       23125000	      2311	80003c68	7083eb93	ori	x23,x7,1800	  x7:0x00000004 x23=0x0000070c
       23135000	      2312	80003c6c	00892533	slt	x10,x18,x8	 x18:0x80009fc4  x8:0x00000000 x10=0x00000001
       23145000	      2313	80003c70	01a335b3	sltu	x11,x6,x26	  x6:0x00000000 x26:0x00000040 x11=0x00000001
       23155000	      2314	80003c74	020a9663	bne	x21,x0,80003ca0	 x21:0x00000000  x0:0x00000000
       23165000	      2315	80003c78	0d23f693	andi	x13,x7,210	  x7:0x00000004 x13=0x00000000
       23175000	      2316	80003c7c	01a1a0b3	slt	x1,x3,x26	  x3:0x4f640000 x26:0x00000040  x1=0x00000000
       23185000	      2317	80003c80	051ed663	bge	x29,x17,80003ccc	 x29:0x00000000 x17:0x0000026f
       23195000	      2318	80003c84	00d2d693	srli	x13,x5,0xd	  x5:0x00000000 x13=0x00000000
       23205000	      2319	80003c88	03ae5863	bge	x28,x26,80003cb8	 x28:0x00000001 x26:0x00000040
       23215000	      2320	80003c8c	0146ddb3	srl	x27,x13,x20	 x13:0x00000000 x20:0x00000009 x27=0x00000000
       23225000	      2321	80003c90	9faebd93	sltiu	x27,x29,-1542	 x29:0x00000000 x27=0x00000001
       23235000	      2322	80003c94	f01cce13	xori	x28,x25,-255	 x25:0xc0004f64 x28=0x3fffb065
       23245000	      2323	80003c98	8b204d13	xori	x26,x0,-1870	  x0:0x00000000 x26=0xfffff8b2
       23255000	      2324	80003c9c	cc632313	slti	x6,x6,-826	  x6:0x00000000  x6=0x00000000
       23265000	      2325	80003ca0	8987f713	andi	x14,x15,-1896	 x15:0xffffff00 x14=0xfffff800
       23275000	      2326	80003ca4	0218c263	blt	x17,x1,80003cc8	 x17:0x0000026f  x1:0x00000000
       23285000	      2327	80003ca8	0119ee63	bltu	x19,x17,80003cc4	 x19:0x000003f4 x17:0x0000026f
       23295000	      2328	80003cac	0101aeb3	slt	x29,x3,x16	  x3:0x4f640000 x16:0x00000000 x29=0x00000000
       23305000	      2329	80003cb0	01545b13	srli	x22,x8,0x15	  x8:0x00000000 x22=0x00000000
       23315000	      2330	80003cb4	40b78633	sub	x12,x15,x11	 x15:0xffffff00 x11:0x00000001 x12=0xfffffeff
       23325000	      2331	80003cb8	011541b3	xor	x3,x10,x17	 x10:0x00000001 x17:0x0000026f  x3=0x0000026e
       23335000	      2332	80003cbc	0149c033	xor	x0,x19,x20	 x19:0x000003f4 x20:0x00000009
       23345000	      2333	80003cc0	0148ecb3	or	x25,x17,x20	 x17:0x0000026f x20:0x00000009 x25=0x0000026f
       23355000	      2334	80003cc4	05b66863	bltu	x12,x27,80003d14	 x12:0xfffffeff x27:0x00000001
       23365000	      2335	80003cc8	0005c3b3	xor	x7,x11,x0	 x11:0x00000001  x0:0x00000000  x7=0x00000001
       23375000	      2336	80003ccc	01f0dfb3	srl	x31,x1,x31	  x1:0x00000000 x31:0x00000001 x31=0x00000000
       23385000	      2337	80003cd0	ab0a2093	slti	x1,x20,-1360	 x20:0x00000009  x1=0x00000000
       23395000	      2338	80003cd4	008617b3	sll	x15,x12,x8	 x12:0xfffffeff  x8:0x00000000 x15=0xfffffeff
       23405000	      2339	80003cd8	be029317	auipc	x6,0xbe029	  x6=0x3e02ccd4
       23415000	      2340	80003cdc	412c8533	sub	x10,x25,x18	 x25:0x0000026f x18:0x80009fc4 x10=0x7fff62ab
       23425000	      2341	80003ce0	0128ebb3	or	x23,x17,x18	 x17:0x0000026f x18:0x80009fc4 x23=0x80009fef
       23435000	      2342	80003ce4	0559c863	blt	x19,x21,80003d34	 x19:0x000003f4 x21:0x00000000
       23445000	      2343	80003ce8	0155c0b3	xor	x1,x11,x21	 x11:0x00000001 x21:0x00000000  x1=0x00000001
       23455000	      2344	80003cec	001dc7b3	xor	x15,x27,x1	 x27:0x00000001  x1:0x00000001 x15=0x00000000
       23465000	      2345	80003cf0	0021cf33	xor	x30,x3,x2	  x3:0x0000026e  x2:0x000001d7 x30=0x000003b9
       23475000	      2346	80003cf4	41a8d893	srai	x17,x17,0x1a	 x17:0x0000026f x17=0x00000000
       23485000	      2347	80003cf8	4e274e13	xori	x28,x14,1250	 x14:0xfffff800 x28=0xfffffce2
       23495000	      2348	80003cfc	aa654893	xori	x17,x10,-1370	 x10:0x7fff62ab x17=0x8000980d
       23505000	      2349	80003d00	92e2a513	slti	x10,x5,-1746	  x5:0x00000000 x10=0x00000000
       23515000	      2350	80003d04	002b2733	slt	x14,x22,x2	 x22:0x00000000  x2:0x000001d7 x14=0x00000001
       23525000	      2351	80003d08	00601213	slli	x4,x0,0x6	  x0:0x00000000  x4=0x00000000
       23535000	      2352	80003d0c	003894b3	sll	x9,x17,x3	 x17:0x8000980d  x3:0x0000026e  x9=0x26034000
       23545000	      2353	80003d10	00e54eb3	xor	x29,x10,x14	 x10:0x00000000 x14:0x00000001 x29=0x00000001
       23555000	      2354	80003d14	5c449797	auipc	x15,0x5c449	 x15=0xdc44cd10
       23565000	      2355	80003d18	039a9063	bne	x21,x25,80003d38	 x21:0x00000000 x25:0x0000026f
       23575000	      2356	00000000	00000013	addi	x0,x0,0	  x0:0x00000000
       23585000	      2357	80003d34	00000013	addi	x0,x0,0	  x0:0x00000000
       23595000	      2358	80003d38	14c1e437	lui	x8,0x14c1e	  x8=0x14c1e000
       23605000	      2359	80003d3c	010f1993	slli	x19,x30,0x10	 x30:0x000003b9 x19=0x03b90000
       23615000	      2360	80003d40	01658eb3	add	x29,x11,x22	 x11:0x00000001 x22:0x00000000 x29=0x00000001
       23625000	      2361	80003d44	d01c7013	andi	x0,x24,-767	 x24:0x80009f4c
       23635000	      2362	80003d48	cedcaf93	slti	x31,x25,-787	 x25:0x0000026f x31=0x00000000
       23645000	      2363	80003d4c	40b3d893	srai	x17,x7,0xb	  x7:0x00000001 x17=0x00000000
       23655000	      2364	80003d50	01605a63	bge	x0,x22,80003d64	  x0:0x00000000 x22:0x00000000
       23665000	      2365	00000000	00000013	addi	x0,x0,0	  x0:0x00000000
       23675000	      2366	80003d60	00000013	addi	x0,x0,0	  x0:0x00000000
       23685000	      2367	80003d64	00e47e33	and	x28,x8,x14	  x8:0x14c1e000 x14:0x00000001 x28=0x00000000
       23695000	      2368	80003d68	00a2c463	blt	x5,x10,80003d70	  x5:0x00000000 x10:0x00000000
       23705000	      2369	80003d6c	4c3ce013	ori	x0,x25,1219	 x25:0x0000026f
       23715000	      2370	80003d70	012883b3	add	x7,x17,x18	 x17:0x00000000 x18:0x80009fc4  x7=0x80009fc4
       23725000	      2371	80003d74	4160d4b7	lui	x9,0x4160d	  x9=0x4160d000
       23735000	      2372	80003d78	03779c63	bne	x15,x23,80003db0	 x15:0xdc44cd10 x23:0x80009fef
       23745000	      2373	00000000	00000013	addi	x0,x0,0	  x0:0x00000000
       23755000	      2374	80003dac	00000013	addi	x0,x0,0	  x0:0x00000000
       23765000	      2375	80003db0	00978033	add	x0,x15,x9	 x15:0xdc44cd10  x9:0x4160d000
       23775000	      2376	80003db4	007019b3	sll	x19,x0,x7	  x0:0x00000000  x7:0x80009fc4 x19=0x00000000
       23785000	      2377	80003db8	0063e733	or	x14,x7,x6	  x7:0x80009fc4  x6:0x3e02ccd4 x14=0xbe02dfd4
       23795000	      2378	80003dbc	661ab293	sltiu	x5,x21,1633	 x21:0x00000000  x5=0x00000001
       23805000	      2379	80003dc0	3662e113	ori	x2,x5,870	  x5:0x00000001  x2=0x00000367
       23815000	      2380	80003dc4	05297663	bgeu	x18,x18,80003e10	 x18:0x80009fc4 x18:0x80009fc4
       23825000	      2381	00000000	00000013	addi	x0,x0,0	  x0:0x00000000
       23835000	      2382	80003e0c	00000013	addi	x0,x0,0	  x0:0x00000000
       23845000	      2383	80003e10	0103e333	or	x6,x7,x16	  x7:0x80009fc4 x16:0x00000000  x6=0x80009fc4
       23855000	      2384	80003e14	012cce63	blt	x25,x18,80003e30	 x25:0x0000026f x18:0x80009fc4
       23865000	      2385	80003e18	01724433	xor	x8,x4,x23	  x4:0x00000000 x23:0x80009fef  x8=0x80009fef
       23875000	      2386	80003e1c	00aeb033	sltu	x0,x29,x10	 x29:0x00000001 x10:0x00000000
       23885000	      2387	80003e20	4129a313	slti	x6,x19,1042	 x19:0x00000000  x6=0x00000001
       23895000	      2388	80003e24	41790fb3	sub	x31,x18,x23	 x18:0x80009fc4 x23:0x80009fef x31=0xffffffd5
       23905000	      2389	80003e28	00d05713	srli	x14,x0,0xd	  x0:0x00000000 x14=0x00000000
       23915000	      2390	80003e2c	04456463	bltu	x10,x4,80003e74	 x10:0x00000000  x4:0x00000000
       23925000	      2391	80003e30	04444263	blt	x8,x4,80003e74	  x8:0x80009fef  x4:0x00000000
       23935000	      2392	00000000	00000013	addi	x0,x0,0	  x0:0x00000000
       23945000	      2393	80003e70	00000013	addi	x0,x0,0	  x0:0x00000000
       23955000	      2394	80003e74	0120d863	bge	x1,x18,80003e84	  x1:0x00000001 x18:0x80009fc4
       23965000	      2395	00000000	00000013	addi	x0,x0,0	  x0:0x00000000
       23975000	      2396	80003e80	00000013	addi	x0,x0,0	  x0:0x00000000
       23985000	      2397	80003e84	0176be33	sltu	x28,x13,x23	 x13:0x00000000 x23:0x80009fef x28=0x00000001
       23995000	      2398	80003e88	0176df93	srli	x31,x13,0x17	 x13:0x00000000 x31=0x00000000
       24005000	      2399	80003e8c	007dfb33	and	x22,x27,x7	 x27:0x00000001  x7:0x80009fc4 x22=0x00000000
       24015000	      2400	80003e90	f7a77e13	andi	x28,x14,-134	 x14:0x00000000 x28=0x00000000
       24025000	      2401	80003e94	00581593	slli	x11,x16,0x5	 x16:0x00000000 x11=0x00000000
       24035000	      2402	80003e98	0058fbb3	and	x23,x17,x5	 x17:0x00000000  x5:0x00000001 x23=0x00000000
       24045000	      2403	80003e9c	00000013	addi	x0,x0,0	  x0:0x00000000
       24055000	      2404	80003ea0	51b74d93	xori	x27,x14,1307	 x14:0x00000000 x27=0x0000051b
       24065000	      2405	80003ea4	40f25813	srai	x16,x4,0xf	  x4:0x00000000 x16=0x00000000
       24075000	      2406	80003ea8	fc4d8013	addi	x0,x27,-60	 x27:0x0000051b
       24085000	      2407	80003eac	40ad5813	srai	x16,x26,0xa	 x26:0xfffff8b2 x16=0xfffffffe
       24095000	      2408	80003eb0	00d95c93	srli	x25,x18,0xd	 x18:0x80009fc4 x25=0x00040004
       24105000	      2409	80003eb4	bd567797	auipc	x15,0xbd567	 x15=0x3d56aeb0
       24115000	      2410	80003eb8	411bde13	srai	x28,x23,0x11	 x23:0x00000000 x28=0x00000000
       24125000	      2411	80003ebc	00f89fb3	sll	x31,x17,x15	 x17:0x00000000 x15:0x3d56aeb0 x31=0x00000000
       24135000	      2412	80003ec0	40c88633	sub	x12,x17,x12	 x17:0x00000000 x12:0xfffffeff x12=0x00000101
       24145000	      2413	80003ec4	418589b3	sub	x19,x11,x24	 x11:0x00000000 x24:0x80009f4c x19=0x7fff60b4
       24155000	      2414	80003ec8	a269b893	sltiu	x17,x19,-1498	 x19:0x7fff60b4 x17=0x00000001
       24165000	      2415	80003ecc	e86ab613	sltiu	x12,x21,-378	 x21:0x00000000 x12=0x00000001
       24175000	      2416	80003ed0	e6298d17	auipc	x26,0xe6298	 x26=0x6629becc
       24185000	      2417	80003ed4	0156cbb3	xor	x23,x13,x21	 x13:0x00000000 x21:0x00000000 x23=0x00000000
       24195000	      2418	80003ed8	00bd70b3	and	x1,x26,x11	 x26:0x6629becc x11:0x00000000  x1=0x00000000
       24205000	      2419	80003edc	03256c63	bltu	x10,x18,80003f14	 x10:0x00000000 x18:0x80009fc4
       24215000	      2420	00000000	00000013	addi	x0,x0,0	  x0:0x00000000
       24225000	      2421	80003f10	00000013	addi	x0,x0,0	  x0:0x00000000
       24235000	      2422	80003f14	008cdc93	srli	x25,x25,0x8	 x25:0x00040004 x25=0x00000400
       24245000	      2423	80003f18	d3198613	addi	x12,x19,-719	 x19:0x7fff60b4 x12=0x7fff5de5
       24255000	      2424	80003f1c	00000013	addi	x0,x0,0	  x0:0x00000000
       24265000	      2425	80003f20	00d27ab3	and	x21,x4,x13	  x4:0x00000000 x13:0x00000000 x21=0x00000000
       24275000	      2426	80003f24	0115d113	srli	x2,x11,0x11	 x11:0x00000000  x2=0x00000000
       24285000	      2427	80003f28	022dd063	bge	x27,x2,80003f48	 x27:0x0000051b  x2:0x00000000
       24295000	      2428	00000000	00000013	addi	x0,x0,0	  x0:0x00000000
       24305000	      2429	80003f44	00000013	addi	x0,x0,0	  x0:0x00000000
       24315000	      2430	80003f48	00000013	addi	x0,x0,0	  x0:0x00000000
       24325000	      2431	80003f4c	449b0813	addi	x16,x22,1097	 x22:0x00000000 x16=0x00000449
       24335000	      2432	80003f50	01b65733	srl	x14,x12,x27	 x12:0x7fff5de5 x27:0x0000051b x14=0x0000000f
       24345000	      2433	80003f54	6f7d3313	sltiu	x6,x26,1783	 x26:0x6629becc  x6=0x00000000
       24355000	      2434	80003f58	011dd7b3	srl	x15,x27,x17	 x27:0x0000051b x17:0x00000001 x15=0x0000028d
       24365000	      2435	80003f5c	001c7493	andi	x9,x24,1	 x24:0x80009f4c  x9=0x00000000
       24375000	      2436	80003f60	018ac7b3	xor	x15,x21,x24	 x21:0x00000000 x24:0x80009f4c x15=0x80009f4c
       24385000	      2437	80003f64	001395b3	sll	x11,x7,x1	  x7:0x80009fc4  x1:0x00000000 x11=0x80009fc4
       24395000	      2438	80003f68	003fb5b3	sltu	x11,x31,x3	 x31:0x00000000  x3:0x0000026e x11=0x00000001
       24405000	      2439	80003f6c	658beb93	ori	x23,x23,1624	 x23:0x00000000 x23=0x00000658
       24415000	      2440	80003f70	01be6db3	or	x27,x28,x27	 x28:0x00000000 x27:0x0000051b x27=0x0000051b
       24425000	      2441	80003f74	02241063	bne	x8,x2,80003f94	  x8:0x80009fef  x2:0x00000000
       24435000	      2442	00000000	00000013	addi	x0,x0,0	  x0:0x00000000
       24445000	      2443	80003f90	00000013	addi	x0,x0,0	  x0:0x00000000
       24455000	      2444	80003f94	405d5d93	srai	x27,x26,0x5	 x26:0x6629becc x27=0x03314df6
       24465000	      2445	80003f98	00bcd463	bge	x25,x11,80003fa0	 x25:0x00000400 x11:0x00000001
       24475000	      2446	00000000	00000013	addi	x0,x0,0	  x0:0x00000000
       24485000	      2447	80003f9c	00000013	addi	x0,x0,0	  x0:0x00000000
       24495000	      2448	80003fa0	12862193	slti	x3,x12,296	 x12:0x7fff5de5  x3=0x00000000
       24505000	      2449	80003fa4	e017cb13	xori	x22,x15,-511	 x15:0x80009f4c x22=0x7fff614d
       24515000	      2450	80003fa8	eceaf413	andi	x8,x21,-306	 x21:0x00000000  x8=0x00000000
       24525000	      2451	80003fac	00869313	slli	x6,x13,0x8	 x13:0x00000000  x6=0x00000000
       24535000	      2452	80003fb0	012713b3	sll	x7,x14,x18	 x14:0x0000000f x18:0x80009fc4  x7=0x000000f0
       24545000	      2453	80003fb4	01cf9863	bne	x31,x28,80003fc4	 x31:0x00000000 x28:0x00000000
       24555000	      2454	80003fb8	00000013	addi	x0,x0,0	  x0:0x00000000
       24565000	      2455	80003fbc	c3bd7413	andi	x8,x26,-965	 x26:0x6629becc  x8=0x6629bc08
       24575000	      2456	80003fc0	010b5e93	srli	x29,x22,0x10	 x22:0x7fff614d x29=0x00007fff
       24585000	      2457	80003fc4	05cc8663	beq	x25,x28,80004010	 x25:0x00000400 x28:0x00000000
       24595000	      2458	80003fc8	00ddd733	srl	x14,x27,x13	 x27:0x03314df6 x13:0x00000000 x14=0x03314df6
       24605000	      2459	80003fcc	41fd8e33	sub	x28,x27,x31	 x27:0x03314df6 x31:0x00000000 x28=0x03314df6
       24615000	      2460	80003fd0	7cec7613	andi	x12,x24,1998	 x24:0x80009f4c x12=0x0000074c
       24625000	      2461	80003fd4	de29f293	andi	x5,x19,-542	 x19:0x7fff60b4  x5=0x7fff60a0
       24635000	      2462	80003fd8	02c31463	bne	x6,x12,80004000	  x6:0x00000000 x12:0x0000074c
       24645000	      2463	00000000	00000013	addi	x0,x0,0	  x0:0x00000000
       24655000	      2464	80003ffc	00000013	addi	x0,x0,0	  x0:0x00000000
       24665000	      2465	80004000	caac7d93	andi	x27,x24,-854	 x24:0x80009f4c x27=0x80009c08
       24675000	      2466	80004004	96b62a93	slti	x21,x12,-1685	 x12:0x0000074c x21=0x00000000
       24685000	      2467	80004008	00eada93	srli	x21,x21,0xe	 x21:0x00000000 x21=0x00000000
       24695000	      2468	8000400c	00000013	addi	x0,x0,0	  x0:0x00000000
       24705000	      2469	80004010	00ec0a63	beq	x24,x14,80004024	 x24:0x80009f4c x14:0x03314df6
       24715000	      2470	80004014	00110263	beq	x2,x1,80004018	  x2:0x00000000  x1:0x00000000
       24725000	      2471	00000000	00000013	addi	x0,x0,0	  x0:0x00000000
       24735000	      2472	80004014	00000013	addi	x0,x0,0	  x0:0x00000000
       24745000	      2473	80004018	0237f863	bgeu	x15,x3,80004048	 x15:0x80009f4c  x3:0x00000000
       24755000	      2474	00000000	00000013	addi	x0,x0,0	  x0:0x00000000
       24765000	      2475	80004044	00000013	addi	x0,x0,0	  x0:0x00000000
       24775000	      2476	80004048	41dc8b33	sub	x22,x25,x29	 x25:0x00000400 x29:0x00007fff x22=0xffff8401
       24785000	      2477	8000404c	f5a6ae13	slti	x28,x13,-166	 x13:0x00000000 x28=0x00000000
       24795000	      2478	80004050	0b4cd263	bge	x25,x20,800040f4	 x25:0x00000400 x20:0x00000009
       24805000	      2479	00000000	00000013	addi	x0,x0,0	  x0:0x00000000
       24815000	      2480	800040f0	00000013	addi	x0,x0,0	  x0:0x00000000
       24825000	      2481	800040f4	41615a93	srai	x21,x2,0x16	  x2:0x00000000 x21=0x00000000
       24835000	      2482	800040f8	0085fdb3	and	x27,x11,x8	 x11:0x00000001  x8:0x6629bc08 x27=0x00000000
       24845000	      2483	800040fc	cc02cf13	xori	x30,x5,-832	  x5:0x7fff60a0 x30=0x80009c60
       24855000	      2484	80004100	414d05b3	sub	x11,x26,x20	 x26:0x6629becc x20:0x00000009 x11=0x6629bec3
       24865000	      2485	80004104	01d28333	add	x6,x5,x29	  x5:0x7fff60a0 x29:0x00007fff  x6=0x7fffe09f
       24875000	      2486	80004108	01310a63	beq	x2,x19,8000411c	  x2:0x00000000 x19:0x7fff60b4
       24885000	      2487	8000410c	015214b3	sll	x9,x4,x21	  x4:0x00000000 x21:0x00000000  x9=0x00000000
       24895000	      2488	80004110	00000013	addi	x0,x0,0	  x0:0x00000000
       24905000	      2489	80004114	05900863	beq	x0,x25,80004164	  x0:0x00000000 x25:0x00000400
       24915000	      2490	80004118	2fb17293	andi	x5,x2,763	  x2:0x00000000  x5=0x00000000
       24925000	      2491	8000411c	22284813	xori	x16,x16,546	 x16:0x00000449 x16=0x0000066b
       24935000	      2492	80004120	417a5d33	sra	x26,x20,x23	 x20:0x00000009 x23:0x00000658 x26=0x00000000
       24945000	      2493	80004124	00fdd093	srli	x1,x27,0xf	 x27:0x00000000  x1=0x00000000
       24955000	      2494	80004128	2e46b437	lui	x8,0x2e46b	  x8=0x2e46b000
       24965000	      2495	8000412c	409b8ab3	sub	x21,x23,x9	 x23:0x00000658  x9:0x00000000 x21=0x00000658
       24975000	      2496	80004130	0032f233	and	x4,x5,x3	  x5:0x00000000  x3:0x00000000  x4=0x00000000
       24985000	      2497	80004134	01271e13	slli	x28,x14,0x12	 x14:0x03314df6 x28=0x37d80000
       24995000	      2498	80004138	00cdd013	srli	x0,x27,0xc	 x27:0x00000000
       25005000	      2499	8000413c	00000013	addi	x0,x0,0	  x0:0x00000000
       25015000	      2500	80004140	055ac863	blt	x21,x21,80004190	 x21:0x00000658 x21:0x00000658
       25025000	      2501	80004144	015752b3	srl	x5,x14,x21	 x14:0x03314df6 x21:0x00000658  x5=0x00000003
       25035000	      2502	80004148	00b81c93	slli	x25,x16,0xb	 x16:0x0000066b x25=0x00335800
       25045000	      2503	8000414c	019fe733	or	x14,x31,x25	 x31:0x00000000 x25:0x00335800 x14=0x00335800
       25055000	      2504	80004150	00769263	bne	x13,x7,80004154	 x13:0x00000000  x7:0x000000f0
       25065000	      2505	00000000	00000013	addi	x0,x0,0	  x0:0x00000000
       25075000	      2506	80004150	00000013	addi	x0,x0,0	  x0:0x00000000
       25085000	      2507	80004154	00000013	addi	x0,x0,0	  x0:0x00000000
       25095000	      2508	80004158	40fd8e33	sub	x28,x27,x15	 x27:0x00000000 x15:0x80009f4c x28=0x7fff60b4
       25105000	      2509	8000415c	187ffb93	andi	x23,x31,391	 x31:0x00000000 x23=0x00000000
       25115000	      2510	80004160	41d0d1b3	sra	x3,x1,x29	  x1:0x00000000 x29:0x00007fff  x3=0x00000000
       25125000	      2511	80004164	d4a08493	addi	x9,x1,-694	  x1:0x00000000  x9=0xfffffd4a
       25135000	      2512	80004168	3bda2813	slti	x16,x20,957	 x20:0x00000009 x16=0x00000001
       25145000	      2513	8000416c	018fa833	slt	x16,x31,x24	 x31:0x00000000 x24:0x80009f4c x16=0x00000000
       25155000	      2514	80004170	00000013	addi	x0,x0,0	  x0:0x00000000
       25165000	      2515	80004174	0303c663	blt	x7,x16,800041a0	  x7:0x000000f0 x16:0x00000000
       25175000	      2516	80004178	01e337b3	sltu	x15,x6,x30	  x6:0x7fffe09f x30:0x80009c60 x15=0x00000001
       25185000	      2517	8000417c	02039c63	bne	x7,x0,800041b4	  x7:0x000000f0  x0:0x00000000
       25195000	      2518	00000000	00000013	addi	x0,x0,0	  x0:0x00000000
       25205000	      2519	800041b0	00000013	addi	x0,x0,0	  x0:0x00000000
       25215000	      2520	800041b4	0046bd33	sltu	x26,x13,x4	 x13:0x00000000  x4:0x00000000 x26=0x00000000
       25225000	      2521	800041b8	00a42233	slt	x4,x8,x10	  x8:0x2e46b000 x10:0x00000000  x4=0x00000000
       25235000	      2522	800041bc	005b0333	add	x6,x22,x5	 x22:0xffff8401  x5:0x00000003  x6=0xffff8404
       25245000	      2523	800041c0	0595f863	bgeu	x11,x25,80004210	 x11:0x6629bec3 x25:0x00335800
       25255000	      2524	00000000	00000013	addi	x0,x0,0	  x0:0x00000000
       25265000	      2525	8000420c	00000013	addi	x0,x0,0	  x0:0x00000000
       25275000	      2526	80004210	02121663	bne	x4,x1,8000423c	  x4:0x00000000  x1:0x00000000
       25285000	      2527	80004214	84cc2b37	lui	x22,0x84cc2	 x22=0x84cc2000
       25295000	      2528	80004218	0a84f193	andi	x3,x9,168	  x9:0xfffffd4a  x3=0x00000008
       25305000	      2529	8000421c	018d5333	srl	x6,x26,x24	 x26:0x00000000 x24:0x80009f4c  x6=0x00000000
       25315000	      2530	80004220	00a224b3	slt	x9,x4,x10	  x4:0x00000000 x10:0x00000000  x9=0x00000000
       25325000	      2531	80004224	951f0537	lui	x10,0x951f0	 x10=0x951f0000
       25335000	      2532	80004228	00c8ebb3	or	x23,x17,x12	 x17:0x00000001 x12:0x0000074c x23=0x0000074d
       25345000	      2533	8000422c	001f7433	and	x8,x30,x1	 x30:0x80009c60  x1:0x00000000  x8=0x00000000
       25355000	      2534	80004230	012bce63	blt	x23,x18,8000424c	 x23:0x0000074d x18:0x80009fc4
       25365000	      2535	80004234	ffd47f93	andi	x31,x8,-3	  x8:0x00000000 x31=0x00000000
       25375000	      2536	80004238	c31ff093	andi	x1,x31,-975	 x31:0x00000000  x1=0x00000000
       25385000	      2537	8000423c	016cbb33	sltu	x22,x25,x22	 x25:0x00335800 x22:0x84cc2000 x22=0x00000001
       25395000	      2538	80004240	3bf2bb13	sltiu	x22,x5,959	  x5:0x00000003 x22=0x00000001
       25405000	      2539	80004244	010d9533	sll	x10,x27,x16	 x27:0x00000000 x16:0x00000000 x10=0x00000000
       25415000	      2540	80004248	407ddeb3	sra	x29,x27,x7	 x27:0x00000000  x7:0x000000f0 x29=0x00000000
       25425000	      2541	8000424c	005f55b3	srl	x11,x30,x5	 x30:0x80009c60  x5:0x00000003 x11=0x1000138c
       25435000	      2542	80004250	012f8eb3	add	x29,x31,x18	 x31:0x00000000 x18:0x80009fc4 x29=0x80009fc4
       25445000	      2543	80004254	016d53b3	srl	x7,x26,x22	 x26:0x00000000 x22:0x00000001  x7=0x00000000
       25455000	      2544	80004258	002fa0b3	slt	x1,x31,x2	 x31:0x00000000  x2:0x00000000  x1=0x00000000
       25465000	      2545	8000425c	415551b3	sra	x3,x10,x21	 x10:0x00000000 x21:0x00000658  x3=0x00000000
       25475000	      2546	80004260	40e454b3	sra	x9,x8,x14	  x8:0x00000000 x14:0x00335800  x9=0x00000000
       25485000	      2547	80004264	05696463	bltu	x18,x22,800042ac	 x18:0x80009fc4 x22:0x00000001
       25495000	      2548	80004268	000d7463	bgeu	x26,x0,80004270	 x26:0x00000000  x0:0x00000000
       25505000	      2549	00000000	00000013	addi	x0,x0,0	  x0:0x00000000
       25515000	      2550	8000426c	00000013	addi	x0,x0,0	  x0:0x00000000
       25525000	      2551	80004270	175cfd13	andi	x26,x25,373	 x25:0x00335800 x26=0x00000000
       25535000	      2552	80004274	18cf36b7	lui	x13,0x18cf3	 x13=0x18cf3000
       25545000	      2553	80004278	0012d1b3	srl	x3,x5,x1	  x5:0x00000003  x1:0x00000000  x3=0x00000003
       25555000	      2554	8000427c	019fe463	bltu	x31,x25,80004284	 x31:0x00000000 x25:0x00335800
       25565000	      2555	00000000	00000013	addi	x0,x0,0	  x0:0x00000000
       25575000	      2556	80004280	00000013	addi	x0,x0,0	  x0:0x00000000
       25585000	      2557	80004284	01ec6033	or	x0,x24,x30	 x24:0x80009f4c x30:0x80009c60
       25595000	      2558	80004288	416e8233	sub	x4,x29,x22	 x29:0x80009fc4 x22:0x00000001  x4=0x80009fc3
       25605000	      2559	8000428c	412f5493	srai	x9,x30,0x12	 x30:0x80009c60  x9=0xffffe000
       25615000	      2560	80004290	016171b3	and	x3,x2,x22	  x2:0x00000000 x22:0x00000001  x3=0x00000000
       25625000	      2561	80004294	00d1d733	srl	x14,x3,x13	  x3:0x00000000 x13:0x18cf3000 x14=0x00000000
       25635000	      2562	80004298	403f03b3	sub	x7,x30,x3	 x30:0x80009c60  x3:0x00000000  x7=0x80009c60
       25645000	      2563	8000429c	00000013	addi	x0,x0,0	  x0:0x00000000
       25655000	      2564	800042a0	04b28863	beq	x5,x11,800042f0	  x5:0x00000003 x11:0x1000138c
       25665000	      2565	800042a4	00344bb3	xor	x23,x8,x3	  x8:0x00000000  x3:0x00000000 x23=0x00000000
       25675000	      2566	800042a8	0457c863	blt	x15,x5,800042f8	 x15:0x00000001  x5:0x00000003
       25685000	      2567	00000000	00000013	addi	x0,x0,0	  x0:0x00000000
       25695000	      2568	800042f4	00000013	addi	x0,x0,0	  x0:0x00000000
       25705000	      2569	800042f8	00f021b3	slt	x3,x0,x15	  x0:0x00000000 x15:0x00000001  x3=0x00000001
       25715000	      2570	800042fc	00d6bbb3	sltu	x23,x13,x13	 x13:0x18cf3000 x13:0x18cf3000 x23=0x00000000
       25725000	      2571	80004300	0198de93	srli	x29,x17,0x19	 x17:0x00000001 x29=0x00000000
       25735000	      2572	80004304	007181b3	add	x3,x3,x7	  x3:0x00000001  x7:0x80009c60  x3=0x80009c61
       25745000	      2573	80004308	04dc4463	blt	x24,x13,80004350	 x24:0x80009f4c x13:0x18cf3000
       25755000	      2574	00000000	00000013	addi	x0,x0,0	  x0:0x00000000
       25765000	      2575	8000434c	00000013	addi	x0,x0,0	  x0:0x00000000
       25775000	      2576	80004350	f7370d13	addi	x26,x14,-141	 x14:0x00000000 x26=0xffffff73
       25785000	      2577	80004354	016fd193	srli	x3,x31,0x16	 x31:0x00000000  x3=0x00000000
       25795000	      2578	80004358	4078df33	sra	x30,x17,x7	 x17:0x00000001  x7:0x80009c60 x30=0x00000001
       25805000	      2579	8000435c	01cb55b3	srl	x11,x22,x28	 x22:0x00000001 x28:0x7fff60b4 x11=0x00000000
       25815000	      2580	80004360	01549d13	slli	x26,x9,0x15	  x9:0xffffe000 x26=0x00000000
       25825000	      2581	80004364	00000013	addi	x0,x0,0	  x0:0x00000000
       25835000	      2582	80004368	015201b3	add	x3,x4,x21	  x4:0x80009fc3 x21:0x00000658  x3=0x8000a61b
       25845000	      2583	8000436c	0173e533	or	x10,x7,x23	  x7:0x80009c60 x23:0x00000000 x10=0x80009c60
       25855000	      2584	80004370	02d31263	bne	x6,x13,80004394	  x6:0x00000000 x13:0x18cf3000
       25865000	      2585	00000000	00000013	addi	x0,x0,0	  x0:0x00000000
       25875000	      2586	80004390	00000013	addi	x0,x0,0	  x0:0x00000000
       25885000	      2587	80004394	a686b213	sltiu	x4,x13,-1432	 x13:0x18cf3000  x4=0x00000001
       25895000	      2588	80004398	40d6d613	srai	x12,x13,0xd	 x13:0x18cf3000 x12=0x0000c679
       25905000	      2589	8000439c	2ebd2e13	slti	x28,x26,747	 x26:0x00000000 x28=0x00000001
       25915000	      2590	800043a0	004cc2b3	xor	x5,x25,x4	 x25:0x00335800  x4:0x00000001  x5=0x00335801
       25925000	      2591	800043a4	002ddd93	srli	x27,x27,0x2	 x27:0x00000000 x27=0x00000000
       25935000	      2592	800043a8	cdd8b013	sltiu	x0,x17,-803	 x17:0x00000001
       25945000	      2593	800043ac	00fd5db3	srl	x27,x26,x15	 x26:0x00000000 x15:0x00000001 x27=0x00000000
       25955000	      2594	800043b0	6e3e6713	ori	x14,x28,1763	 x28:0x00000001 x14=0x000006e3
       25965000	      2595	800043b4	018ed033	srl	x0,x29,x24	 x29:0x00000000 x24:0x80009f4c
       25975000	      2596	800043b8	4055dbb3	sra	x23,x11,x5	 x11:0x00000000  x5:0x00335801 x23=0x00000000
       25985000	      2597	800043bc	413b5e93	srai	x29,x22,0x13	 x22:0x00000001 x29=0x00000000
       25995000	      2598	800043c0	0050d293	srli	x5,x1,0x5	  x1:0x00000000  x5=0x00000000
       26005000	      2599	800043c4	0834f663	bgeu	x9,x3,80004450	  x9:0xffffe000  x3:0x8000a61b
       26015000	      2600	00000000	00000013	addi	x0,x0,0	  x0:0x00000000
       26025000	      2601	8000444c	00000013	addi	x0,x0,0	  x0:0x00000000
       26035000	      2602	80004450	c08c7d37	lui	x26,0xc08c7	 x26=0xc08c7000
       26045000	      2603	80004454	042a7463	bgeu	x20,x2,8000449c	 x20:0x00000009  x2:0x00000000
       26055000	      2604	00000000	00000013	addi	x0,x0,0	  x0:0x00000000
       26065000	      2605	80004498	00000013	addi	x0,x0,0	  x0:0x00000000
       26075000	      2606	8000449c	0f58a793	slti	x15,x17,245	 x17:0x00000001 x15=0x00000001
       26085000	      2607	800044a0	40d1dc93	srai	x25,x3,0xd	  x3:0x8000a61b x25=0xfffc0005
       26095000	      2608	800044a4	02365063	bge	x12,x3,800044c4	 x12:0x0000c679  x3:0x8000a61b
       26105000	      2609	00000000	00000013	addi	x0,x0,0	  x0:0x00000000
       26115000	      2610	800044c0	00000013	addi	x0,x0,0	  x0:0x00000000
       26125000	      2611	800044c4	00a86f33	or	x30,x16,x10	 x16:0x00000000 x10:0x80009c60 x30=0x80009c60
       26135000	      2612	800044c8	01149e93	slli	x29,x9,0x11	  x9:0xffffe000 x29=0xc0000000
       26145000	      2613	800044cc	00000013	addi	x0,x0,0	  x0:0x00000000
       26155000	      2614	800044d0	004c2683	lw	x13,4(x24)	 x24:0x80009f4c x13=0x8000454c PA:0x80009f50
       26165000	      2615	800044d4	00e4de33	srl	x28,x9,x14	  x9:0xffffe000 x14:0x000006e3 x28=0x1ffffc00
       26175000	      2616	800044d8	028c0c13	addi	x24,x24,40	 x24:0x80009f4c x24=0x80009f74
       26185000	      2617	800044dc	006758b3	srl	x17,x14,x6	 x14:0x000006e3  x6:0x00000000 x17=0x000006e3
       26195000	      2618	800044e0	002af133	and	x2,x21,x2	 x21:0x00000658  x2:0x00000000  x2=0x00000000
       26205000	      2619	800044e4	ea199437	lui	x8,0xea199	  x8=0xea199000
       26215000	      2620	800044e8	00168c93	addi	x25,x13,1	 x13:0x8000454c x25=0x8000454d
       26225000	      2621	800044ec	000c8ce7	jalr	x25,x25,0	 x25:0x8000454d x25=0x800044ec
       26235000	      2622	00000000	00000013	addi	x0,x0,0	  x0:0x00000000
       26245000	      2623	8000454c	00000013	addi	x0,x0,0	  x0:0x00000000
       26255000	      2624	80004550	47187f93	andi	x31,x16,1137	 x16:0x00000000 x31=0x00000000
       26265000	      2625	80004554	00c37c63	bgeu	x6,x12,8000456c	  x6:0x00000000 x12:0x0000c679
       26275000	      2626	80004558	d16b6713	ori	x14,x22,-746	 x22:0x00000001 x14=0xfffffd17
       26285000	      2627	8000455c	47d38d17	auipc	x26,0x47d38	 x26=0xc7d3c558
       26295000	      2628	80004560	015294b3	sll	x9,x5,x21	  x5:0x00000000 x21:0x00000658  x9=0x00000000
       26305000	      2629	80004564	01d6d3b3	srl	x7,x13,x29	 x13:0x8000454c x29:0xc0000000  x7=0x8000454c
       26315000	      2630	80004568	406d8733	sub	x14,x27,x6	 x27:0x00000000  x6:0x00000000 x14=0x00000000
       26325000	      2631	8000456c	818fe6ef	jal	x13,8000456c	 x13=0x8000456c
       26335000	      2632	00000000	00000013	addi	x0,x0,0	  x0:0x00000000
       26345000	      2633	80002580	00000013	addi	x0,x0,0	  x0:0x00000000
       26355000	      2634	80002584	01a05093	srli	x1,x0,0x1a	  x0:0x00000000  x1=0x00000000
       26365000	      2635	80002588	4169dd33	sra	x26,x19,x22	 x19:0x7fff60b4 x22:0x00000001 x26=0x3fffb05a
       26375000	      2636	8000258c	fd8c0c13	addi	x24,x24,-40	 x24:0x80009f74 x24=0x80009f4c
       26385000	      2637	80002590	00000013	addi	x0,x0,0	  x0:0x00000000
       26395000	      2638	80002594	0161d333	srl	x6,x3,x22	  x3:0x8000a61b x22:0x00000001  x6=0x4000530d
       26405000	      2639	80002598	00dc2223	sw	x13,4(x24)	 x24:0x80009f4c x13:0x8000456c PA:0x80009f50
       26415000	      2640	8000259c	00e442b3	xor	x5,x8,x14	  x8:0xea199000 x14:0x00000000  x5=0xea199000
       26425000	      2641	800025a0	024006ef	jal	x13,800025a0	 x13=0x800025a0
       26435000	      2642	00000000	00000013	addi	x0,x0,0	  x0:0x00000000
       26445000	      2643	800025c0	00000013	addi	x0,x0,0	  x0:0x00000000
       26455000	      2644	800025c4	fe5ffb6f	jal	x22,800025c4	 x22=0x800025c4
       26465000	      2645	00000000	00000013	addi	x0,x0,0	  x0:0x00000000
       26475000	      2646	800025a4	00000013	addi	x0,x0,0	  x0:0x00000000
       26485000	      2647	800025a8	0080036f	jal	x6,800025a8	  x6=0x800025a8
       26495000	      2648	00000000	00000013	addi	x0,x0,0	  x0:0x00000000
       26505000	      2649	800025ac	00000013	addi	x0,x0,0	  x0:0x00000000
       26515000	      2650	800025b0	0040026f	jal	x4,800025b0	  x4=0x800025b0
       26525000	      2651	00000000	00000013	addi	x0,x0,0	  x0:0x00000000
       26535000	      2652	800025b0	00000013	addi	x0,x0,0	  x0:0x00000000
       26545000	      2653	800025b4	ff9ffaef	jal	x21,800025b4	 x21=0x800025b4
       26555000	      2654	00000000	00000013	addi	x0,x0,0	  x0:0x00000000
       26565000	      2655	800025a8	00000013	addi	x0,x0,0	  x0:0x00000000
       26575000	      2656	800025ac	ff9ff6ef	jal	x13,800025ac	 x13=0x800025ac
       26585000	      2657	00000000	00000013	addi	x0,x0,0	  x0:0x00000000
       26595000	      2658	800025a0	00000013	addi	x0,x0,0	  x0:0x00000000
       26605000	      2659	800025a4	014000ef	jal	x1,800025a4	  x1=0x800025a4
       26615000	      2660	00000000	00000013	addi	x0,x0,0	  x0:0x00000000
       26625000	      2661	800025b4	00000013	addi	x0,x0,0	  x0:0x00000000
       26635000	      2662	800025b8	010000ef	jal	x1,800025b8	  x1=0x800025b8
       26645000	      2663	00000000	00000013	addi	x0,x0,0	  x0:0x00000000
       26655000	      2664	800025c4	00000013	addi	x0,x0,0	  x0:0x00000000
       26665000	      2665	800025c8	ff5ff36f	jal	x6,800025c8	  x6=0x800025c8
       26675000	      2666	00000000	00000013	addi	x0,x0,0	  x0:0x00000000
       26685000	      2667	800025b8	00000013	addi	x0,x0,0	  x0:0x00000000
       26695000	      2668	800025bc	0040036f	jal	x6,800025bc	  x6=0x800025bc
       26705000	      2669	00000000	00000013	addi	x0,x0,0	  x0:0x00000000
       26715000	      2670	800025bc	00000013	addi	x0,x0,0	  x0:0x00000000
       26725000	      2671	800025c0	00c000ef	jal	x1,800025c0	  x1=0x800025c0
       26735000	      2672	00000000	00000013	addi	x0,x0,0	  x0:0x00000000
       26745000	      2673	800025c8	00000013	addi	x0,x0,0	  x0:0x00000000
       26755000	      2674	800025cc	00515f13	srli	x30,x2,0x5	  x2:0x00000000 x30=0x00000000
       26765000	      2675	800025d0	01c006ef	jal	x13,800025d0	 x13=0x800025d0
       26775000	      2676	00000000	00000013	addi	x0,x0,0	  x0:0x00000000
       26785000	      2677	800025e8	00000013	addi	x0,x0,0	  x0:0x00000000
       26795000	      2678	800025ec	030000ef	jal	x1,800025ec	  x1=0x800025ec
       26805000	      2679	00000000	00000013	addi	x0,x0,0	  x0:0x00000000
       26815000	      2680	80002618	00000013	addi	x0,x0,0	  x0:0x00000000
       26825000	      2681	8000261c	fbdff2ef	jal	x5,8000261c	  x5=0x8000261c
       26835000	      2682	00000000	00000013	addi	x0,x0,0	  x0:0x00000000
       26845000	      2683	800025d4	00000013	addi	x0,x0,0	  x0:0x00000000
       26855000	      2684	800025d8	ffdff0ef	jal	x1,800025d8	  x1=0x800025d8
       26865000	      2685	00000000	00000013	addi	x0,x0,0	  x0:0x00000000
       26875000	      2686	800025d0	00000013	addi	x0,x0,0	  x0:0x00000000
       26885000	      2687	800025d4	04c002ef	jal	x5,800025d4	  x5=0x800025d4
       26895000	      2688	00000000	00000013	addi	x0,x0,0	  x0:0x00000000
       26905000	      2689	8000261c	00000013	addi	x0,x0,0	  x0:0x00000000
       26915000	      2690	80002620	00c000ef	jal	x1,80002620	  x1=0x80002620
       26925000	      2691	00000000	00000013	addi	x0,x0,0	  x0:0x00000000
       26935000	      2692	80002628	00000013	addi	x0,x0,0	  x0:0x00000000
       26945000	      2693	8000262c	fd9ff0ef	jal	x1,8000262c	  x1=0x8000262c
       26955000	      2694	00000000	00000013	addi	x0,x0,0	  x0:0x00000000
       26965000	      2695	80002600	00000013	addi	x0,x0,0	  x0:0x00000000
       26975000	      2696	80002604	fe1ff0ef	jal	x1,80002604	  x1=0x80002604
       26985000	      2697	00000000	00000013	addi	x0,x0,0	  x0:0x00000000
       26995000	      2698	800025e0	00000013	addi	x0,x0,0	  x0:0x00000000
       27005000	      2699	800025e4	0040036f	jal	x6,800025e4	  x6=0x800025e4
       27015000	      2700	00000000	00000013	addi	x0,x0,0	  x0:0x00000000
       27025000	      2701	800025e4	00000013	addi	x0,x0,0	  x0:0x00000000
       27035000	      2702	800025e8	03c002ef	jal	x5,800025e8	  x5=0x800025e8
       27045000	      2703	00000000	00000013	addi	x0,x0,0	  x0:0x00000000
       27055000	      2704	80002620	00000013	addi	x0,x0,0	  x0:0x00000000
       27065000	      2705	80002624	fd1ff36f	jal	x6,80002624	  x6=0x80002624
       27075000	      2706	00000000	00000013	addi	x0,x0,0	  x0:0x00000000
       27085000	      2707	800025f0	00000013	addi	x0,x0,0	  x0:0x00000000
       27095000	      2708	800025f4	fe9ff36f	jal	x6,800025f4	  x6=0x800025f4
       27105000	      2709	00000000	00000013	addi	x0,x0,0	  x0:0x00000000
       27115000	      2710	800025d8	00000013	addi	x0,x0,0	  x0:0x00000000
       27125000	      2711	800025dc	03c006ef	jal	x13,800025dc	 x13=0x800025dc
       27135000	      2712	00000000	00000013	addi	x0,x0,0	  x0:0x00000000
       27145000	      2713	80002614	00000013	addi	x0,x0,0	  x0:0x00000000
       27155000	      2714	80002618	ff9ff8ef	jal	x17,80002618	 x17=0x80002618
       27165000	      2715	00000000	00000013	addi	x0,x0,0	  x0:0x00000000
       27175000	      2716	8000260c	00000013	addi	x0,x0,0	  x0:0x00000000
       27185000	      2717	80002610	ffdff0ef	jal	x1,80002610	  x1=0x80002610
       27195000	      2718	00000000	00000013	addi	x0,x0,0	  x0:0x00000000
       27205000	      2719	80002608	00000013	addi	x0,x0,0	  x0:0x00000000
       27215000	      2720	8000260c	ff5ff0ef	jal	x1,8000260c	  x1=0x8000260c
       27225000	      2721	00000000	00000013	addi	x0,x0,0	  x0:0x00000000
       27235000	      2722	800025fc	00000013	addi	x0,x0,0	  x0:0x00000000
       27245000	      2723	80002600	ffdff0ef	jal	x1,80002600	  x1=0x80002600
       27255000	      2724	00000000	00000013	addi	x0,x0,0	  x0:0x00000000
       27265000	      2725	800025f8	00000013	addi	x0,x0,0	  x0:0x00000000
       27275000	      2726	800025fc	ff5ff0ef	jal	x1,800025fc	  x1=0x800025fc
       27285000	      2727	00000000	00000013	addi	x0,x0,0	  x0:0x00000000
       27295000	      2728	800025ec	00000013	addi	x0,x0,0	  x0:0x00000000
       27305000	      2729	800025f0	038000ef	jal	x1,800025f0	  x1=0x800025f0
       27315000	      2730	00000000	00000013	addi	x0,x0,0	  x0:0x00000000
       27325000	      2731	80002624	00000013	addi	x0,x0,0	  x0:0x00000000
       27335000	      2732	80002628	fb9ff0ef	jal	x1,80002628	  x1=0x80002628
       27345000	      2733	00000000	00000013	addi	x0,x0,0	  x0:0x00000000
       27355000	      2734	800025dc	00000013	addi	x0,x0,0	  x0:0x00000000
       27365000	      2735	800025e0	028000ef	jal	x1,800025e0	  x1=0x800025e0
       27375000	      2736	00000000	00000013	addi	x0,x0,0	  x0:0x00000000
       27385000	      2737	80002604	00000013	addi	x0,x0,0	  x0:0x00000000
       27395000	      2738	80002608	00c000ef	jal	x1,80002608	  x1=0x80002608
       27405000	      2739	00000000	00000013	addi	x0,x0,0	  x0:0x00000000
       27415000	      2740	80002610	00000013	addi	x0,x0,0	  x0:0x00000000
       27425000	      2741	80002614	fe5ff36f	jal	x6,80002614	  x6=0x80002614
       27435000	      2742	00000000	00000013	addi	x0,x0,0	  x0:0x00000000
       27445000	      2743	800025f4	00000013	addi	x0,x0,0	  x0:0x00000000
       27455000	      2744	800025f8	03800f6f	jal	x30,800025f8	 x30=0x800025f8
       27465000	      2745	00000000	00000013	addi	x0,x0,0	  x0:0x00000000
       27475000	      2746	8000262c	00000013	addi	x0,x0,0	  x0:0x00000000
       27485000	      2747	80002630	01b43e33	sltu	x28,x8,x27	  x8:0xea199000 x27:0x00000000 x28=0x00000000
       27495000	      2748	80002634	034006ef	jal	x13,80002634	 x13=0x80002634
       27505000	      2749	00000000	00000013	addi	x0,x0,0	  x0:0x00000000
       27515000	      2750	80002664	00000013	addi	x0,x0,0	  x0:0x00000000
       27525000	      2751	80002668	fe9ff16f	jal	x2,80002668	  x2=0x80002668
       27535000	      2752	00000000	00000013	addi	x0,x0,0	  x0:0x00000000
       27545000	      2753	8000264c	00000013	addi	x0,x0,0	  x0:0x00000000
       27555000	      2754	80002650	014007ef	jal	x15,80002650	 x15=0x80002650
       27565000	      2755	00000000	00000013	addi	x0,x0,0	  x0:0x00000000
       27575000	      2756	80002660	00000013	addi	x0,x0,0	  x0:0x00000000
       27585000	      2757	80002664	024000ef	jal	x1,80002664	  x1=0x80002664
       27595000	      2758	00000000	00000013	addi	x0,x0,0	  x0:0x00000000
       27605000	      2759	80002684	00000013	addi	x0,x0,0	  x0:0x00000000
       27615000	      2760	80002688	fd9ffb6f	jal	x22,80002688	 x22=0x80002688
       27625000	      2761	00000000	00000013	addi	x0,x0,0	  x0:0x00000000
       27635000	      2762	8000265c	00000013	addi	x0,x0,0	  x0:0x00000000
       27645000	      2763	80002660	038000ef	jal	x1,80002660	  x1=0x80002660
       27655000	      2764	00000000	00000013	addi	x0,x0,0	  x0:0x00000000
       27665000	      2765	80002694	00000013	addi	x0,x0,0	  x0:0x00000000
       27675000	      2766	80002698	fe5ff0ef	jal	x1,80002698	  x1=0x80002698
       27685000	      2767	00000000	00000013	addi	x0,x0,0	  x0:0x00000000
       27695000	      2768	80002678	00000013	addi	x0,x0,0	  x0:0x00000000
       27705000	      2769	8000267c	fc9ff0ef	jal	x1,8000267c	  x1=0x8000267c
       27715000	      2770	00000000	00000013	addi	x0,x0,0	  x0:0x00000000
       27725000	      2771	80002640	00000013	addi	x0,x0,0	  x0:0x00000000
       27735000	      2772	80002644	04c000ef	jal	x1,80002644	  x1=0x80002644
       27745000	      2773	00000000	00000013	addi	x0,x0,0	  x0:0x00000000
       27755000	      2774	8000268c	00000013	addi	x0,x0,0	  x0:0x00000000
       27765000	      2775	80002690	fa9ff36f	jal	x6,80002690	  x6=0x80002690
       27775000	      2776	00000000	00000013	addi	x0,x0,0	  x0:0x00000000
       27785000	      2777	80002634	00000013	addi	x0,x0,0	  x0:0x00000000
       27795000	      2778	80002638	0100076f	jal	x14,80002638	 x14=0x80002638
       27805000	      2779	00000000	00000013	addi	x0,x0,0	  x0:0x00000000
       27815000	      2780	80002644	00000013	addi	x0,x0,0	  x0:0x00000000
       27825000	      2781	80002648	0280036f	jal	x6,80002648	  x6=0x80002648
       27835000	      2782	00000000	00000013	addi	x0,x0,0	  x0:0x00000000
       27845000	      2783	8000266c	00000013	addi	x0,x0,0	  x0:0x00000000
       27855000	      2784	80002670	014000ef	jal	x1,80002670	  x1=0x80002670
       27865000	      2785	00000000	00000013	addi	x0,x0,0	  x0:0x00000000
       27875000	      2786	80002680	00000013	addi	x0,x0,0	  x0:0x00000000
       27885000	      2787	80002684	ff1ff2ef	jal	x5,80002684	  x5=0x80002684
       27895000	      2788	00000000	00000013	addi	x0,x0,0	  x0:0x00000000
       27905000	      2789	80002670	00000013	addi	x0,x0,0	  x0:0x00000000
       27915000	      2790	80002674	018002ef	jal	x5,80002674	  x5=0x80002674
       27925000	      2791	00000000	00000013	addi	x0,x0,0	  x0:0x00000000
       27935000	      2792	80002688	00000013	addi	x0,x0,0	  x0:0x00000000
       27945000	      2793	8000268c	fd1ff1ef	jal	x3,8000268c	  x3=0x8000268c
       27955000	      2794	00000000	00000013	addi	x0,x0,0	  x0:0x00000000
       27965000	      2795	80002658	00000013	addi	x0,x0,0	  x0:0x00000000
       27975000	      2796	8000265c	fe5ff0ef	jal	x1,8000265c	  x1=0x8000265c
       27985000	      2797	00000000	00000013	addi	x0,x0,0	  x0:0x00000000
       27995000	      2798	8000263c	00000013	addi	x0,x0,0	  x0:0x00000000
       28005000	      2799	80002640	00c000ef	jal	x1,80002640	  x1=0x80002640
       28015000	      2800	00000000	00000013	addi	x0,x0,0	  x0:0x00000000
       28025000	      2801	80002648	00000013	addi	x0,x0,0	  x0:0x00000000
       28035000	      2802	8000264c	050000ef	jal	x1,8000264c	  x1=0x8000264c
       28045000	      2803	00000000	00000013	addi	x0,x0,0	  x0:0x00000000
       28055000	      2804	80002698	00000013	addi	x0,x0,0	  x0:0x00000000
       28065000	      2805	8000269c	fbdfffef	jal	x31,8000269c	 x31=0x8000269c
       28075000	      2806	00000000	00000013	addi	x0,x0,0	  x0:0x00000000
       28085000	      2807	80002654	00000013	addi	x0,x0,0	  x0:0x00000000
       28095000	      2808	80002658	03c00fef	jal	x31,80002658	 x31=0x80002658
       28105000	      2809	00000000	00000013	addi	x0,x0,0	  x0:0x00000000
       28115000	      2810	80002690	00000013	addi	x0,x0,0	  x0:0x00000000
       28125000	      2811	80002694	fe5ff16f	jal	x2,80002694	  x2=0x80002694
       28135000	      2812	00000000	00000013	addi	x0,x0,0	  x0:0x00000000
       28145000	      2813	80002674	00000013	addi	x0,x0,0	  x0:0x00000000
       28155000	      2814	80002678	fddff36f	jal	x6,80002678	  x6=0x80002678
       28165000	      2815	00000000	00000013	addi	x0,x0,0	  x0:0x00000000
       28175000	      2816	80002650	00000013	addi	x0,x0,0	  x0:0x00000000
       28185000	      2817	80002654	02c000ef	jal	x1,80002654	  x1=0x80002654
       28195000	      2818	00000000	00000013	addi	x0,x0,0	  x0:0x00000000
       28205000	      2819	8000267c	00000013	addi	x0,x0,0	  x0:0x00000000
       28215000	      2820	80002680	fedff0ef	jal	x1,80002680	  x1=0x80002680
       28225000	      2821	00000000	00000013	addi	x0,x0,0	  x0:0x00000000
       28235000	      2822	80002668	00000013	addi	x0,x0,0	  x0:0x00000000
       28245000	      2823	8000266c	fd1ff36f	jal	x6,8000266c	  x6=0x8000266c
       28255000	      2824	00000000	00000013	addi	x0,x0,0	  x0:0x00000000
       28265000	      2825	80002638	00000013	addi	x0,x0,0	  x0:0x00000000
       28275000	      2826	8000263c	0640036f	jal	x6,8000263c	  x6=0x8000263c
       28285000	      2827	00000000	00000013	addi	x0,x0,0	  x0:0x00000000
       28295000	      2828	8000269c	00000013	addi	x0,x0,0	  x0:0x00000000
       28305000	      2829	800026a0	01864333	xor	x6,x12,x24	 x12:0x0000c679 x24:0x80009f4c  x6=0x80005935
       28315000	      2830	800026a4	020006ef	jal	x13,800026a4	 x13=0x800026a4
       28325000	      2831	00000000	00000013	addi	x0,x0,0	  x0:0x00000000
       28335000	      2832	800026c0	00000013	addi	x0,x0,0	  x0:0x00000000
       28345000	      2833	800026c4	ff1ff0ef	jal	x1,800026c4	  x1=0x800026c4
       28355000	      2834	00000000	00000013	addi	x0,x0,0	  x0:0x00000000
       28365000	      2835	800026b0	00000013	addi	x0,x0,0	  x0:0x00000000
       28375000	      2836	800026b4	0140046f	jal	x8,800026b4	  x8=0x800026b4
       28385000	      2837	00000000	00000013	addi	x0,x0,0	  x0:0x00000000
       28395000	      2838	800026c4	00000013	addi	x0,x0,0	  x0:0x00000000
       28405000	      2839	800026c8	fe5ff0ef	jal	x1,800026c8	  x1=0x800026c8
       28415000	      2840	00000000	00000013	addi	x0,x0,0	  x0:0x00000000
       28425000	      2841	800026a8	00000013	addi	x0,x0,0	  x0:0x00000000
       28435000	      2842	800026ac	0140036f	jal	x6,800026ac	  x6=0x800026ac
       28445000	      2843	00000000	00000013	addi	x0,x0,0	  x0:0x00000000
       28455000	      2844	800026bc	00000013	addi	x0,x0,0	  x0:0x00000000
       28465000	      2845	800026c0	fe9ff0ef	jal	x1,800026c0	  x1=0x800026c0
       28475000	      2846	00000000	00000013	addi	x0,x0,0	  x0:0x00000000
       28485000	      2847	800026a4	00000013	addi	x0,x0,0	  x0:0x00000000
       28495000	      2848	800026a8	024000ef	jal	x1,800026a8	  x1=0x800026a8
       28505000	      2849	00000000	00000013	addi	x0,x0,0	  x0:0x00000000
       28515000	      2850	800026c8	00000013	addi	x0,x0,0	  x0:0x00000000
       28525000	      2851	800026cc	fedff0ef	jal	x1,800026cc	  x1=0x800026cc
       28535000	      2852	00000000	00000013	addi	x0,x0,0	  x0:0x00000000
       28545000	      2853	800026b4	00000013	addi	x0,x0,0	  x0:0x00000000
       28555000	      2854	800026b8	ff9ff36f	jal	x6,800026b8	  x6=0x800026b8
       28565000	      2855	00000000	00000013	addi	x0,x0,0	  x0:0x00000000
       28575000	      2856	800026ac	00000013	addi	x0,x0,0	  x0:0x00000000
       28585000	      2857	800026b0	00c0036f	jal	x6,800026b0	  x6=0x800026b0
       28595000	      2858	00000000	00000013	addi	x0,x0,0	  x0:0x00000000
       28605000	      2859	800026b8	00000013	addi	x0,x0,0	  x0:0x00000000
       28615000	      2860	800026bc	014000ef	jal	x1,800026bc	  x1=0x800026bc
       28625000	      2861	00000000	00000013	addi	x0,x0,0	  x0:0x00000000
       28635000	      2862	800026cc	00000013	addi	x0,x0,0	  x0:0x00000000
       28645000	      2863	800026d0	010b40b3	xor	x1,x22,x16	 x22:0x80002688 x16:0x00000000  x1=0x80002688
       28655000	      2864	800026d4	01c006ef	jal	x13,800026d4	 x13=0x800026d4
       28665000	      2865	00000000	00000013	addi	x0,x0,0	  x0:0x00000000
       28675000	      2866	800026ec	00000013	addi	x0,x0,0	  x0:0x00000000
       28685000	      2867	800026f0	0100036f	jal	x6,800026f0	  x6=0x800026f0
       28695000	      2868	00000000	00000013	addi	x0,x0,0	  x0:0x00000000
       28705000	      2869	800026fc	00000013	addi	x0,x0,0	  x0:0x00000000
       28715000	      2870	80002700	fe1ff0ef	jal	x1,80002700	  x1=0x80002700
       28725000	      2871	00000000	00000013	addi	x0,x0,0	  x0:0x00000000
       28735000	      2872	800026dc	00000013	addi	x0,x0,0	  x0:0x00000000
       28745000	      2873	800026e0	024000ef	jal	x1,800026e0	  x1=0x800026e0
       28755000	      2874	00000000	00000013	addi	x0,x0,0	  x0:0x00000000
       28765000	      2875	80002700	00000013	addi	x0,x0,0	  x0:0x00000000
       28775000	      2876	80002704	fe1ff0ef	jal	x1,80002704	  x1=0x80002704
       28785000	      2877	00000000	00000013	addi	x0,x0,0	  x0:0x00000000
       28795000	      2878	800026e0	00000013	addi	x0,x0,0	  x0:0x00000000
       28805000	      2879	800026e4	004009ef	jal	x19,800026e4	 x19=0x800026e4
       28815000	      2880	00000000	00000013	addi	x0,x0,0	  x0:0x00000000
       28825000	      2881	800026e4	00000013	addi	x0,x0,0	  x0:0x00000000
       28835000	      2882	800026e8	010000ef	jal	x1,800026e8	  x1=0x800026e8
       28845000	      2883	00000000	00000013	addi	x0,x0,0	  x0:0x00000000
       28855000	      2884	800026f4	00000013	addi	x0,x0,0	  x0:0x00000000
       28865000	      2885	800026f8	fe1ff0ef	jal	x1,800026f8	  x1=0x800026f8
       28875000	      2886	00000000	00000013	addi	x0,x0,0	  x0:0x00000000
       28885000	      2887	800026d4	00000013	addi	x0,x0,0	  x0:0x00000000
       28895000	      2888	800026d8	01c000ef	jal	x1,800026d8	  x1=0x800026d8
       28905000	      2889	00000000	00000013	addi	x0,x0,0	  x0:0x00000000
       28915000	      2890	800026f0	00000013	addi	x0,x0,0	  x0:0x00000000
       28925000	      2891	800026f4	ff9ff0ef	jal	x1,800026f4	  x1=0x800026f4
       28935000	      2892	00000000	00000013	addi	x0,x0,0	  x0:0x00000000
       28945000	      2893	800026e8	00000013	addi	x0,x0,0	  x0:0x00000000
       28955000	      2894	800026ec	ff1ff0ef	jal	x1,800026ec	  x1=0x800026ec
       28965000	      2895	00000000	00000013	addi	x0,x0,0	  x0:0x00000000
       28975000	      2896	800026d8	00000013	addi	x0,x0,0	  x0:0x00000000
       28985000	      2897	800026dc	0200036f	jal	x6,800026dc	  x6=0x800026dc
       28995000	      2898	00000000	00000013	addi	x0,x0,0	  x0:0x00000000
       29005000	      2899	800026f8	00000013	addi	x0,x0,0	  x0:0x00000000
       29015000	      2900	800026fc	00c00fef	jal	x31,800026fc	 x31=0x800026fc
       29025000	      2901	00000000	00000013	addi	x0,x0,0	  x0:0x00000000
       29035000	      2902	80002704	00000013	addi	x0,x0,0	  x0:0x00000000
       29045000	      2903	80002708	82f7ef93	ori	x31,x15,-2001	 x15:0x80002650 x31=0xfffffe7f
       29055000	      2904	8000270c	01c006ef	jal	x13,8000270c	 x13=0x8000270c
       29065000	      2905	00000000	00000013	addi	x0,x0,0	  x0:0x00000000
       29075000	      2906	80002724	00000013	addi	x0,x0,0	  x0:0x00000000
       29085000	      2907	80002728	0040036f	jal	x6,80002728	  x6=0x80002728
       29095000	      2908	00000000	00000013	addi	x0,x0,0	  x0:0x00000000
       29105000	      2909	80002728	00000013	addi	x0,x0,0	  x0:0x00000000
       29115000	      2910	8000272c	ff1ff0ef	jal	x1,8000272c	  x1=0x8000272c
       29125000	      2911	00000000	00000013	addi	x0,x0,0	  x0:0x00000000
       29135000	      2912	80002718	00000013	addi	x0,x0,0	  x0:0x00000000
       29145000	      2913	8000271c	ff9ff0ef	jal	x1,8000271c	  x1=0x8000271c
       29155000	      2914	00000000	00000013	addi	x0,x0,0	  x0:0x00000000
       29165000	      2915	80002710	00000013	addi	x0,x0,0	  x0:0x00000000
       29175000	      2916	80002714	ffdff0ef	jal	x1,80002714	  x1=0x80002714
       29185000	      2917	00000000	00000013	addi	x0,x0,0	  x0:0x00000000
       29195000	      2918	8000270c	00000013	addi	x0,x0,0	  x0:0x00000000
       29205000	      2919	80002710	0280016f	jal	x2,80002710	  x2=0x80002710
       29215000	      2920	00000000	00000013	addi	x0,x0,0	  x0:0x00000000
       29225000	      2921	80002734	00000013	addi	x0,x0,0	  x0:0x00000000
       29235000	      2922	80002738	0040036f	jal	x6,80002738	  x6=0x80002738
       29245000	      2923	00000000	00000013	addi	x0,x0,0	  x0:0x00000000
       29255000	      2924	80002738	00000013	addi	x0,x0,0	  x0:0x00000000
       29265000	      2925	8000273c	ff9ff2ef	jal	x5,8000273c	  x5=0x8000273c
       29275000	      2926	00000000	00000013	addi	x0,x0,0	  x0:0x00000000
       29285000	      2927	80002730	00000013	addi	x0,x0,0	  x0:0x00000000
       29295000	      2928	80002734	00c006ef	jal	x13,80002734	 x13=0x80002734
       29305000	      2929	00000000	00000013	addi	x0,x0,0	  x0:0x00000000
       29315000	      2930	8000273c	00000013	addi	x0,x0,0	  x0:0x00000000
       29325000	      2931	80002740	fe5ff0ef	jal	x1,80002740	  x1=0x80002740
       29335000	      2932	00000000	00000013	addi	x0,x0,0	  x0:0x00000000
       29345000	      2933	80002720	00000013	addi	x0,x0,0	  x0:0x00000000
       29355000	      2934	80002724	00c000ef	jal	x1,80002724	  x1=0x80002724
       29365000	      2935	00000000	00000013	addi	x0,x0,0	  x0:0x00000000
       29375000	      2936	8000272c	00000013	addi	x0,x0,0	  x0:0x00000000
       29385000	      2937	80002730	fe9ff0ef	jal	x1,80002730	  x1=0x80002730
       29395000	      2938	00000000	00000013	addi	x0,x0,0	  x0:0x00000000
       29405000	      2939	80002714	00000013	addi	x0,x0,0	  x0:0x00000000
       29415000	      2940	80002718	008000ef	jal	x1,80002718	  x1=0x80002718
       29425000	      2941	00000000	00000013	addi	x0,x0,0	  x0:0x00000000
       29435000	      2942	8000271c	00000013	addi	x0,x0,0	  x0:0x00000000
       29445000	      2943	80002720	0240036f	jal	x6,80002720	  x6=0x80002720
       29455000	      2944	00000000	00000013	addi	x0,x0,0	  x0:0x00000000
       29465000	      2945	80002740	00000013	addi	x0,x0,0	  x0:0x00000000
       29475000	      2946	80002744	000568b3	or	x17,x10,x0	 x10:0x80009c60  x0:0x00000000 x17=0x80009c60
       29485000	      2947	80002748	038006ef	jal	x13,80002748	 x13=0x80002748
       29495000	      2948	00000000	00000013	addi	x0,x0,0	  x0:0x00000000
       29505000	      2949	8000277c	00000013	addi	x0,x0,0	  x0:0x00000000
       29515000	      2950	80002780	fd9ffe6f	jal	x28,80002780	 x28=0x80002780
       29525000	      2951	00000000	00000013	addi	x0,x0,0	  x0:0x00000000
       29535000	      2952	80002754	00000013	addi	x0,x0,0	  x0:0x00000000
       29545000	      2953	80002758	030000ef	jal	x1,80002758	  x1=0x80002758
       29555000	      2954	00000000	00000013	addi	x0,x0,0	  x0:0x00000000
       29565000	      2955	80002784	00000013	addi	x0,x0,0	  x0:0x00000000
       29575000	      2956	80002788	fe5ff0ef	jal	x1,80002788	  x1=0x80002788
       29585000	      2957	00000000	00000013	addi	x0,x0,0	  x0:0x00000000
       29595000	      2958	80002768	00000013	addi	x0,x0,0	  x0:0x00000000
       29605000	      2959	8000276c	034000ef	jal	x1,8000276c	  x1=0x8000276c
       29615000	      2960	00000000	00000013	addi	x0,x0,0	  x0:0x00000000
       29625000	      2961	8000279c	00000013	addi	x0,x0,0	  x0:0x00000000
       29635000	      2962	800027a0	fd9ffeef	jal	x29,800027a0	 x29=0x800027a0
       29645000	      2963	00000000	00000013	addi	x0,x0,0	  x0:0x00000000
       29655000	      2964	80002774	00000013	addi	x0,x0,0	  x0:0x00000000
       29665000	      2965	80002778	fddff36f	jal	x6,80002778	  x6=0x80002778
       29675000	      2966	00000000	00000013	addi	x0,x0,0	  x0:0x00000000
       29685000	      2967	80002750	00000013	addi	x0,x0,0	  x0:0x00000000
       29695000	      2968	80002754	0140056f	jal	x10,80002754	 x10=0x80002754
       29705000	      2969	00000000	00000013	addi	x0,x0,0	  x0:0x00000000
       29715000	      2970	80002764	00000013	addi	x0,x0,0	  x0:0x00000000
       29725000	      2971	80002768	fe5ff0ef	jal	x1,80002768	  x1=0x80002768
       29735000	      2972	00000000	00000013	addi	x0,x0,0	  x0:0x00000000
       29745000	      2973	80002748	00000013	addi	x0,x0,0	  x0:0x00000000
       29755000	      2974	8000274c	01400e6f	jal	x28,8000274c	 x28=0x8000274c
       29765000	      2975	00000000	00000013	addi	x0,x0,0	  x0:0x00000000
       29775000	      2976	8000275c	00000013	addi	x0,x0,0	  x0:0x00000000
       29785000	      2977	80002760	048000ef	jal	x1,80002760	  x1=0x80002760
       29795000	      2978	00000000	00000013	addi	x0,x0,0	  x0:0x00000000
       29805000	      2979	800027a4	00000013	addi	x0,x0,0	  x0:0x00000000
       29815000	      2980	800027a8	fa9ff16f	jal	x2,800027a8	  x2=0x800027a8
       29825000	      2981	00000000	00000013	addi	x0,x0,0	  x0:0x00000000
       29835000	      2982	8000274c	00000013	addi	x0,x0,0	  x0:0x00000000
       29845000	      2983	80002750	06000e6f	jal	x28,80002750	 x28=0x80002750
       29855000	      2984	00000000	00000013	addi	x0,x0,0	  x0:0x00000000
       29865000	      2985	800027ac	00000013	addi	x0,x0,0	  x0:0x00000000
       29875000	      2986	800027b0	fddff2ef	jal	x5,800027b0	  x5=0x800027b0
       29885000	      2987	00000000	00000013	addi	x0,x0,0	  x0:0x00000000
       29895000	      2988	80002788	00000013	addi	x0,x0,0	  x0:0x00000000
       29905000	      2989	8000278c	018000ef	jal	x1,8000278c	  x1=0x8000278c
       29915000	      2990	00000000	00000013	addi	x0,x0,0	  x0:0x00000000
       29925000	      2991	800027a0	00000013	addi	x0,x0,0	  x0:0x00000000
       29935000	      2992	800027a4	010000ef	jal	x1,800027a4	  x1=0x800027a4
       29945000	      2993	00000000	00000013	addi	x0,x0,0	  x0:0x00000000
       29955000	      2994	800027b0	00000013	addi	x0,x0,0	  x0:0x00000000
       29965000	      2995	800027b4	fd1ff0ef	jal	x1,800027b4	  x1=0x800027b4
       29975000	      2996	00000000	00000013	addi	x0,x0,0	  x0:0x00000000
       29985000	      2997	80002780	00000013	addi	x0,x0,0	  x0:0x00000000
       29995000	      2998	80002784	ff1ffbef	jal	x23,80002784	 x23=0x80002784
       30005000	      2999	00000000	00000013	addi	x0,x0,0	  x0:0x00000000
       30015000	      3000	80002770	00000013	addi	x0,x0,0	  x0:0x00000000
       30025000	      3001	80002774	fe9ff2ef	jal	x5,80002774	  x5=0x80002774
       30035000	      3002	00000000	00000013	addi	x0,x0,0	  x0:0x00000000
       30045000	      3003	80002758	00000013	addi	x0,x0,0	  x0:0x00000000
       30055000	      3004	8000275c	038000ef	jal	x1,8000275c	  x1=0x8000275c
       30065000	      3005	00000000	00000013	addi	x0,x0,0	  x0:0x00000000
       30075000	      3006	80002790	00000013	addi	x0,x0,0	  x0:0x00000000
       30085000	      3007	80002794	fd1ff0ef	jal	x1,80002794	  x1=0x80002794
       30095000	      3008	00000000	00000013	addi	x0,x0,0	  x0:0x00000000
       30105000	      3009	80002760	00000013	addi	x0,x0,0	  x0:0x00000000
       30115000	      3010	80002764	018000ef	jal	x1,80002764	  x1=0x80002764
       30125000	      3011	00000000	00000013	addi	x0,x0,0	  x0:0x00000000
       30135000	      3012	80002778	00000013	addi	x0,x0,0	  x0:0x00000000
       30145000	      3013	8000277c	0200036f	jal	x6,8000277c	  x6=0x8000277c
       30155000	      3014	00000000	00000013	addi	x0,x0,0	  x0:0x00000000
       30165000	      3015	80002798	00000013	addi	x0,x0,0	  x0:0x00000000
       30175000	      3016	8000279c	ff5ff0ef	jal	x1,8000279c	  x1=0x8000279c
       30185000	      3017	00000000	00000013	addi	x0,x0,0	  x0:0x00000000
       30195000	      3018	8000278c	00000013	addi	x0,x0,0	  x0:0x00000000
       30205000	      3019	80002790	008000ef	jal	x1,80002790	  x1=0x80002790
       30215000	      3020	00000000	00000013	addi	x0,x0,0	  x0:0x00000000
       30225000	      3021	80002794	00000013	addi	x0,x0,0	  x0:0x00000000
       30235000	      3022	80002798	fd9ff7ef	jal	x15,80002798	 x15=0x80002798
       30245000	      3023	00000000	00000013	addi	x0,x0,0	  x0:0x00000000
       30255000	      3024	8000276c	00000013	addi	x0,x0,0	  x0:0x00000000
       30265000	      3025	80002770	03c0036f	jal	x6,80002770	  x6=0x80002770
       30275000	      3026	00000000	00000013	addi	x0,x0,0	  x0:0x00000000
       30285000	      3027	800027a8	00000013	addi	x0,x0,0	  x0:0x00000000
       30295000	      3028	800027ac	00c001ef	jal	x3,800027ac	  x3=0x800027ac
       30305000	      3029	00000000	00000013	addi	x0,x0,0	  x0:0x00000000
       30315000	      3030	800027b4	00000013	addi	x0,x0,0	  x0:0x00000000
       30325000	      3031	800027b8	d7a74813	xori	x16,x14,-646	 x14:0x80002638 x16=0x7fffdb42
       30335000	      3032	800027bc	014006ef	jal	x13,800027bc	 x13=0x800027bc
       30345000	      3033	00000000	00000013	addi	x0,x0,0	  x0:0x00000000
       30355000	      3034	800027cc	00000013	addi	x0,x0,0	  x0:0x00000000
       30365000	      3035	800027d0	0080036f	jal	x6,800027d0	  x6=0x800027d0
       30375000	      3036	00000000	00000013	addi	x0,x0,0	  x0:0x00000000
       30385000	      3037	800027d4	00000013	addi	x0,x0,0	  x0:0x00000000
       30395000	      3038	800027d8	0080036f	jal	x6,800027d8	  x6=0x800027d8
       30405000	      3039	00000000	00000013	addi	x0,x0,0	  x0:0x00000000
       30415000	      3040	800027dc	00000013	addi	x0,x0,0	  x0:0x00000000
       30425000	      3041	800027e0	008000ef	jal	x1,800027e0	  x1=0x800027e0
       30435000	      3042	00000000	00000013	addi	x0,x0,0	  x0:0x00000000
       30445000	      3043	800027e4	00000013	addi	x0,x0,0	  x0:0x00000000
       30455000	      3044	800027e8	ffdff36f	jal	x6,800027e8	  x6=0x800027e8
       30465000	      3045	00000000	00000013	addi	x0,x0,0	  x0:0x00000000
       30475000	      3046	800027e0	00000013	addi	x0,x0,0	  x0:0x00000000
       30485000	      3047	800027e4	fddff5ef	jal	x11,800027e4	 x11=0x800027e4
       30495000	      3048	00000000	00000013	addi	x0,x0,0	  x0:0x00000000
       30505000	      3049	800027bc	00000013	addi	x0,x0,0	  x0:0x00000000
       30515000	      3050	800027c0	01400d6f	jal	x26,800027c0	 x26=0x800027c0
       30525000	      3051	00000000	00000013	addi	x0,x0,0	  x0:0x00000000
       30535000	      3052	800027d0	00000013	addi	x0,x0,0	  x0:0x00000000
       30545000	      3053	800027d4	018000ef	jal	x1,800027d4	  x1=0x800027d4
       30555000	      3054	00000000	00000013	addi	x0,x0,0	  x0:0x00000000
       30565000	      3055	800027e8	00000013	addi	x0,x0,0	  x0:0x00000000
       30575000	      3056	800027ec	fe1ff0ef	jal	x1,800027ec	  x1=0x800027ec
       30585000	      3057	00000000	00000013	addi	x0,x0,0	  x0:0x00000000
       30595000	      3058	800027c8	00000013	addi	x0,x0,0	  x0:0x00000000
       30605000	      3059	800027cc	010000ef	jal	x1,800027cc	  x1=0x800027cc
       30615000	      3060	00000000	00000013	addi	x0,x0,0	  x0:0x00000000
       30625000	      3061	800027d8	00000013	addi	x0,x0,0	  x0:0x00000000
       30635000	      3062	800027dc	fedff0ef	jal	x1,800027dc	  x1=0x800027dc
       30645000	      3063	00000000	00000013	addi	x0,x0,0	  x0:0x00000000
       30655000	      3064	800027c4	00000013	addi	x0,x0,0	  x0:0x00000000
       30665000	      3065	800027c8	ffdfff6f	jal	x30,800027c8	 x30=0x800027c8
       30675000	      3066	00000000	00000013	addi	x0,x0,0	  x0:0x00000000
       30685000	      3067	800027c0	00000013	addi	x0,x0,0	  x0:0x00000000
       30695000	      3068	800027c4	02c00e6f	jal	x28,800027c4	 x28=0x800027c4
       30705000	      3069	00000000	00000013	addi	x0,x0,0	  x0:0x00000000
       30715000	      3070	800027ec	00000013	addi	x0,x0,0	  x0:0x00000000
       30725000	      3071	800027f0	99c1bb13	sltiu	x22,x3,-1636	  x3:0x800027ac x22=0x00000001
       30735000	      3072	800027f4	024006ef	jal	x13,800027f4	 x13=0x800027f4
       30745000	      3073	00000000	00000013	addi	x0,x0,0	  x0:0x00000000
       30755000	      3074	80002814	00000013	addi	x0,x0,0	  x0:0x00000000
       30765000	      3075	80002818	ff9ffeef	jal	x29,80002818	 x29=0x80002818
       30775000	      3076	00000000	00000013	addi	x0,x0,0	  x0:0x00000000
       30785000	      3077	8000280c	00000013	addi	x0,x0,0	  x0:0x00000000
       30795000	      3078	80002810	ff5ff0ef	jal	x1,80002810	  x1=0x80002810
       30805000	      3079	00000000	00000013	addi	x0,x0,0	  x0:0x00000000
       30815000	      3080	80002800	00000013	addi	x0,x0,0	  x0:0x00000000
       30825000	      3081	80002804	024000ef	jal	x1,80002804	  x1=0x80002804
       30835000	      3082	00000000	00000013	addi	x0,x0,0	  x0:0x00000000
       30845000	      3083	80002824	00000013	addi	x0,x0,0	  x0:0x00000000
       30855000	      3084	80002828	fedff66f	jal	x12,80002828	 x12=0x80002828
       30865000	      3085	00000000	00000013	addi	x0,x0,0	  x0:0x00000000
       30875000	      3086	80002810	00000013	addi	x0,x0,0	  x0:0x00000000
       30885000	      3087	80002814	fe5ff2ef	jal	x5,80002814	  x5=0x80002814
       30895000	      3088	00000000	00000013	addi	x0,x0,0	  x0:0x00000000
       30905000	      3089	800027f4	00000013	addi	x0,x0,0	  x0:0x00000000
       30915000	      3090	800027f8	008001ef	jal	x3,800027f8	  x3=0x800027f8
       30925000	      3091	00000000	00000013	addi	x0,x0,0	  x0:0x00000000
       30935000	      3092	800027fc	00000013	addi	x0,x0,0	  x0:0x00000000
       30945000	      3093	80002800	01c0036f	jal	x6,80002800	  x6=0x80002800
       30955000	      3094	00000000	00000013	addi	x0,x0,0	  x0:0x00000000
       30965000	      3095	80002818	00000013	addi	x0,x0,0	  x0:0x00000000
       30975000	      3096	8000281c	004000ef	jal	x1,8000281c	  x1=0x8000281c
       30985000	      3097	00000000	00000013	addi	x0,x0,0	  x0:0x00000000
       30995000	      3098	8000281c	00000013	addi	x0,x0,0	  x0:0x00000000
       31005000	      3099	80002820	0040036f	jal	x6,80002820	  x6=0x80002820
       31015000	      3100	00000000	00000013	addi	x0,x0,0	  x0:0x00000000
       31025000	      3101	80002820	00000013	addi	x0,x0,0	  x0:0x00000000
       31035000	      3102	80002824	fe9ff2ef	jal	x5,80002824	  x5=0x80002824
       31045000	      3103	00000000	00000013	addi	x0,x0,0	  x0:0x00000000
       31055000	      3104	80002808	00000013	addi	x0,x0,0	  x0:0x00000000
       31065000	      3105	8000280c	ffdff5ef	jal	x11,8000280c	 x11=0x8000280c
       31075000	      3106	00000000	00000013	addi	x0,x0,0	  x0:0x00000000
       31085000	      3107	80002804	00000013	addi	x0,x0,0	  x0:0x00000000
       31095000	      3108	80002808	ff5ff0ef	jal	x1,80002808	  x1=0x80002808
       31105000	      3109	00000000	00000013	addi	x0,x0,0	  x0:0x00000000
       31115000	      3110	800027f8	00000013	addi	x0,x0,0	  x0:0x00000000
       31125000	      3111	800027fc	030000ef	jal	x1,800027fc	  x1=0x800027fc
       31135000	      3112	00000000	00000013	addi	x0,x0,0	  x0:0x00000000
       31145000	      3113	80002828	00000013	addi	x0,x0,0	  x0:0x00000000
       31155000	      3114	8000282c	01e670b3	and	x1,x12,x30	 x12:0x80002828 x30:0x800027c8  x1=0x80002008
       31165000	      3115	80002830	044006ef	jal	x13,80002830	 x13=0x80002830
       31175000	      3116	00000000	00000013	addi	x0,x0,0	  x0:0x00000000
       31185000	      3117	80002870	00000013	addi	x0,x0,0	  x0:0x00000000
       31195000	      3118	80002874	ff5ff0ef	jal	x1,80002874	  x1=0x80002874
       31205000	      3119	00000000	00000013	addi	x0,x0,0	  x0:0x00000000
       31215000	      3120	80002864	00000013	addi	x0,x0,0	  x0:0x00000000
       31225000	      3121	80002868	ff9ff0ef	jal	x1,80002868	  x1=0x80002868
       31235000	      3122	00000000	00000013	addi	x0,x0,0	  x0:0x00000000
       31245000	      3123	8000285c	00000013	addi	x0,x0,0	  x0:0x00000000
       31255000	      3124	80002860	038000ef	jal	x1,80002860	  x1=0x80002860
       31265000	      3125	00000000	00000013	addi	x0,x0,0	  x0:0x00000000
       31275000	      3126	80002894	00000013	addi	x0,x0,0	  x0:0x00000000
       31285000	      3127	80002898	fadff0ef	jal	x1,80002898	  x1=0x80002898
       31295000	      3128	00000000	00000013	addi	x0,x0,0	  x0:0x00000000
       31305000	      3129	80002840	00000013	addi	x0,x0,0	  x0:0x00000000
       31315000	      3130	80002844	034006ef	jal	x13,80002844	 x13=0x80002844
       31325000	      3131	00000000	00000013	addi	x0,x0,0	  x0:0x00000000
       31335000	      3132	80002874	00000013	addi	x0,x0,0	  x0:0x00000000
       31345000	      3133	80002878	fd5ff36f	jal	x6,80002878	  x6=0x80002878
       31355000	      3134	00000000	00000013	addi	x0,x0,0	  x0:0x00000000
       31365000	      3135	80002848	00000013	addi	x0,x0,0	  x0:0x00000000
       31375000	      3136	8000284c	0480036f	jal	x6,8000284c	  x6=0x8000284c
       31385000	      3137	00000000	00000013	addi	x0,x0,0	  x0:0x00000000
       31395000	      3138	80002890	00000013	addi	x0,x0,0	  x0:0x00000000
       31405000	      3139	80002894	fddff0ef	jal	x1,80002894	  x1=0x80002894
       31415000	      3140	00000000	00000013	addi	x0,x0,0	  x0:0x00000000
       31425000	      3141	8000286c	00000013	addi	x0,x0,0	  x0:0x00000000
       31435000	      3142	80002870	00c0036f	jal	x6,80002870	  x6=0x80002870
       31445000	      3143	00000000	00000013	addi	x0,x0,0	  x0:0x00000000
       31455000	      3144	80002878	00000013	addi	x0,x0,0	  x0:0x00000000
       31465000	      3145	8000287c	fddffd6f	jal	x26,8000287c	 x26=0x8000287c
       31475000	      3146	00000000	00000013	addi	x0,x0,0	  x0:0x00000000
       31485000	      3147	80002854	00000013	addi	x0,x0,0	  x0:0x00000000
       31495000	      3148	80002858	00c00aef	jal	x21,80002858	 x21=0x80002858
       31505000	      3149	00000000	00000013	addi	x0,x0,0	  x0:0x00000000
       31515000	      3150	80002860	00000013	addi	x0,x0,0	  x0:0x00000000
       31525000	      3151	80002864	0200036f	jal	x6,80002864	  x6=0x80002864
       31535000	      3152	00000000	00000013	addi	x0,x0,0	  x0:0x00000000
       31545000	      3153	80002880	00000013	addi	x0,x0,0	  x0:0x00000000
       31555000	      3154	80002884	fb1ff0ef	jal	x1,80002884	  x1=0x80002884
       31565000	      3155	00000000	00000013	addi	x0,x0,0	  x0:0x00000000
       31575000	      3156	80002830	00000013	addi	x0,x0,0	  x0:0x00000000
       31585000	      3157	80002834	01400eef	jal	x29,80002834	 x29=0x80002834
       31595000	      3158	00000000	00000013	addi	x0,x0,0	  x0:0x00000000
       31605000	      3159	80002844	00000013	addi	x0,x0,0	  x0:0x00000000
       31615000	      3160	80002848	048006ef	jal	x13,80002848	 x13=0x80002848
       31625000	      3161	00000000	00000013	addi	x0,x0,0	  x0:0x00000000
       31635000	      3162	8000288c	00000013	addi	x0,x0,0	  x0:0x00000000
       31645000	      3163	80002890	fa9ff0ef	jal	x1,80002890	  x1=0x80002890
       31655000	      3164	00000000	00000013	addi	x0,x0,0	  x0:0x00000000
       31665000	      3165	80002834	00000013	addi	x0,x0,0	  x0:0x00000000
       31675000	      3166	80002838	0180086f	jal	x16,80002838	 x16=0x80002838
       31685000	      3167	00000000	00000013	addi	x0,x0,0	  x0:0x00000000
       31695000	      3168	8000284c	00000013	addi	x0,x0,0	  x0:0x00000000
       31705000	      3169	80002850	038000ef	jal	x1,80002850	  x1=0x80002850
       31715000	      3170	00000000	00000013	addi	x0,x0,0	  x0:0x00000000
       31725000	      3171	80002884	00000013	addi	x0,x0,0	  x0:0x00000000
       31735000	      3172	80002888	004002ef	jal	x5,80002888	  x5=0x80002888
       31745000	      3173	00000000	00000013	addi	x0,x0,0	  x0:0x00000000
       31755000	      3174	80002888	00000013	addi	x0,x0,0	  x0:0x00000000
       31765000	      3175	8000288c	fc9ff0ef	jal	x1,8000288c	  x1=0x8000288c
       31775000	      3176	00000000	00000013	addi	x0,x0,0	  x0:0x00000000
       31785000	      3177	80002850	00000013	addi	x0,x0,0	  x0:0x00000000
       31795000	      3178	80002854	fedff0ef	jal	x1,80002854	  x1=0x80002854
       31805000	      3179	00000000	00000013	addi	x0,x0,0	  x0:0x00000000
       31815000	      3180	8000283c	00000013	addi	x0,x0,0	  x0:0x00000000
       31825000	      3181	80002840	ffdff0ef	jal	x1,80002840	  x1=0x80002840
       31835000	      3182	00000000	00000013	addi	x0,x0,0	  x0:0x00000000
       31845000	      3183	80002838	00000013	addi	x0,x0,0	  x0:0x00000000
       31855000	      3184	8000283c	044000ef	jal	x1,8000283c	  x1=0x8000283c
       31865000	      3185	00000000	00000013	addi	x0,x0,0	  x0:0x00000000
       31875000	      3186	8000287c	00000013	addi	x0,x0,0	  x0:0x00000000
       31885000	      3187	80002880	fedff0ef	jal	x1,80002880	  x1=0x80002880
       31895000	      3188	00000000	00000013	addi	x0,x0,0	  x0:0x00000000
       31905000	      3189	80002868	00000013	addi	x0,x0,0	  x0:0x00000000
       31915000	      3190	8000286c	ff1ff0ef	jal	x1,8000286c	  x1=0x8000286c
       31925000	      3191	00000000	00000013	addi	x0,x0,0	  x0:0x00000000
       31935000	      3192	80002858	00000013	addi	x0,x0,0	  x0:0x00000000
       31945000	      3193	8000285c	0400036f	jal	x6,8000285c	  x6=0x8000285c
       31955000	      3194	00000000	00000013	addi	x0,x0,0	  x0:0x00000000
       31965000	      3195	80002898	00000013	addi	x0,x0,0	  x0:0x00000000
       31975000	      3196	8000289c	007a3633	sltu	x12,x20,x7	 x20:0x00000009  x7:0x8000454c x12=0x00000001
       31985000	      3197	800028a0	028006ef	jal	x13,800028a0	 x13=0x800028a0
       31995000	      3198	00000000	00000013	addi	x0,x0,0	  x0:0x00000000
       32005000	      3199	800028c4	00000013	addi	x0,x0,0	  x0:0x00000000
       32015000	      3200	800028c8	014001ef	jal	x3,800028c8	  x3=0x800028c8
       32025000	      3201	00000000	00000013	addi	x0,x0,0	  x0:0x00000000
       32035000	      3202	800028d8	00000013	addi	x0,x0,0	  x0:0x00000000
       32045000	      3203	800028dc	ff5ff0ef	jal	x1,800028dc	  x1=0x800028dc
       32055000	      3204	00000000	00000013	addi	x0,x0,0	  x0:0x00000000
       32065000	      3205	800028cc	00000013	addi	x0,x0,0	  x0:0x00000000
       32075000	      3206	800028d0	040000ef	jal	x1,800028d0	  x1=0x800028d0
       32085000	      3207	00000000	00000013	addi	x0,x0,0	  x0:0x00000000
       32095000	      3208	8000290c	00000013	addi	x0,x0,0	  x0:0x00000000
       32105000	      3209	80002910	fb1ff0ef	jal	x1,80002910	  x1=0x80002910
       32115000	      3210	00000000	00000013	addi	x0,x0,0	  x0:0x00000000
       32125000	      3211	800028bc	00000013	addi	x0,x0,0	  x0:0x00000000
       32135000	      3212	800028c0	ff5ff0ef	jal	x1,800028c0	  x1=0x800028c0
       32145000	      3213	00000000	00000013	addi	x0,x0,0	  x0:0x00000000
       32155000	      3214	800028b0	00000013	addi	x0,x0,0	  x0:0x00000000
       32165000	      3215	800028b4	03800eef	jal	x29,800028b4	 x29=0x800028b4
       32175000	      3216	00000000	00000013	addi	x0,x0,0	  x0:0x00000000
       32185000	      3217	800028e8	00000013	addi	x0,x0,0	  x0:0x00000000
       32195000	      3218	800028ec	fedff16f	jal	x2,800028ec	  x2=0x800028ec
       32205000	      3219	00000000	00000013	addi	x0,x0,0	  x0:0x00000000
       32215000	      3220	800028d4	00000013	addi	x0,x0,0	  x0:0x00000000
       32225000	      3221	800028d8	fd9ffeef	jal	x29,800028d8	 x29=0x800028d8
       32235000	      3222	00000000	00000013	addi	x0,x0,0	  x0:0x00000000
       32245000	      3223	800028ac	00000013	addi	x0,x0,0	  x0:0x00000000
       32255000	      3224	800028b0	038002ef	jal	x5,800028b0	  x5=0x800028b0
       32265000	      3225	00000000	00000013	addi	x0,x0,0	  x0:0x00000000
       32275000	      3226	800028e4	00000013	addi	x0,x0,0	  x0:0x00000000
       32285000	      3227	800028e8	018000ef	jal	x1,800028e8	  x1=0x800028e8
       32295000	      3228	00000000	00000013	addi	x0,x0,0	  x0:0x00000000
       32305000	      3229	800028fc	00000013	addi	x0,x0,0	  x0:0x00000000
       32315000	      3230	80002900	ffdff0ef	jal	x1,80002900	  x1=0x80002900
       32325000	      3231	00000000	00000013	addi	x0,x0,0	  x0:0x00000000
       32335000	      3232	800028f8	00000013	addi	x0,x0,0	  x0:0x00000000
       32345000	      3233	800028fc	0080036f	jal	x6,800028fc	  x6=0x800028fc
       32355000	      3234	00000000	00000013	addi	x0,x0,0	  x0:0x00000000
       32365000	      3235	80002900	00000013	addi	x0,x0,0	  x0:0x00000000
       32375000	      3236	80002904	fa1ff36f	jal	x6,80002904	  x6=0x80002904
       32385000	      3237	00000000	00000013	addi	x0,x0,0	  x0:0x00000000
       32395000	      3238	800028a0	00000013	addi	x0,x0,0	  x0:0x00000000
       32405000	      3239	800028a4	018002ef	jal	x5,800028a4	  x5=0x800028a4
       32415000	      3240	00000000	00000013	addi	x0,x0,0	  x0:0x00000000
       32425000	      3241	800028b8	00000013	addi	x0,x0,0	  x0:0x00000000
       32435000	      3242	800028bc	ffdff36f	jal	x6,800028bc	  x6=0x800028bc
       32445000	      3243	00000000	00000013	addi	x0,x0,0	  x0:0x00000000
       32455000	      3244	800028b4	00000013	addi	x0,x0,0	  x0:0x00000000
       32465000	      3245	800028b8	ff1ff1ef	jal	x3,800028b8	  x3=0x800028b8
       32475000	      3246	00000000	00000013	addi	x0,x0,0	  x0:0x00000000
       32485000	      3247	800028a4	00000013	addi	x0,x0,0	  x0:0x00000000
       32495000	      3248	800028a8	04c0036f	jal	x6,800028a8	  x6=0x800028a8
       32505000	      3249	00000000	00000013	addi	x0,x0,0	  x0:0x00000000
       32515000	      3250	800028f0	00000013	addi	x0,x0,0	  x0:0x00000000
       32525000	      3251	800028f4	fb9ff1ef	jal	x3,800028f4	  x3=0x800028f4
       32535000	      3252	00000000	00000013	addi	x0,x0,0	  x0:0x00000000
       32545000	      3253	800028a8	00000013	addi	x0,x0,0	  x0:0x00000000
       32555000	      3254	800028ac	05c000ef	jal	x1,800028ac	  x1=0x800028ac
       32565000	      3255	00000000	00000013	addi	x0,x0,0	  x0:0x00000000
       32575000	      3256	80002904	00000013	addi	x0,x0,0	  x0:0x00000000
       32585000	      3257	80002908	fcdff0ef	jal	x1,80002908	  x1=0x80002908
       32595000	      3258	00000000	00000013	addi	x0,x0,0	  x0:0x00000000
       32605000	      3259	800028d0	00000013	addi	x0,x0,0	  x0:0x00000000
       32615000	      3260	800028d4	010000ef	jal	x1,800028d4	  x1=0x800028d4
       32625000	      3261	00000000	00000013	addi	x0,x0,0	  x0:0x00000000
       32635000	      3262	800028e0	00000013	addi	x0,x0,0	  x0:0x00000000
       32645000	      3263	800028e4	00c0036f	jal	x6,800028e4	  x6=0x800028e4
       32655000	      3264	00000000	00000013	addi	x0,x0,0	  x0:0x00000000
       32665000	      3265	800028ec	00000013	addi	x0,x0,0	  x0:0x00000000
       32675000	      3266	800028f0	01c000ef	jal	x1,800028f0	  x1=0x800028f0
       32685000	      3267	00000000	00000013	addi	x0,x0,0	  x0:0x00000000
       32695000	      3268	80002908	00000013	addi	x0,x0,0	  x0:0x00000000
       32705000	      3269	8000290c	fd5ff36f	jal	x6,8000290c	  x6=0x8000290c
       32715000	      3270	00000000	00000013	addi	x0,x0,0	  x0:0x00000000
       32725000	      3271	800028dc	00000013	addi	x0,x0,0	  x0:0x00000000
       32735000	      3272	800028e0	018000ef	jal	x1,800028e0	  x1=0x800028e0
       32745000	      3273	00000000	00000013	addi	x0,x0,0	  x0:0x00000000
       32755000	      3274	800028f4	00000013	addi	x0,x0,0	  x0:0x00000000
       32765000	      3275	800028f8	fcdff36f	jal	x6,800028f8	  x6=0x800028f8
       32775000	      3276	00000000	00000013	addi	x0,x0,0	  x0:0x00000000
       32785000	      3277	800028c0	00000013	addi	x0,x0,0	  x0:0x00000000
       32795000	      3278	800028c4	008000ef	jal	x1,800028c4	  x1=0x800028c4
       32805000	      3279	00000000	00000013	addi	x0,x0,0	  x0:0x00000000
       32815000	      3280	800028c8	00000013	addi	x0,x0,0	  x0:0x00000000
       32825000	      3281	800028cc	048000ef	jal	x1,800028cc	  x1=0x800028cc
       32835000	      3282	00000000	00000013	addi	x0,x0,0	  x0:0x00000000
       32845000	      3283	80002910	00000013	addi	x0,x0,0	  x0:0x00000000
       32855000	      3284	80002914	0135d893	srli	x17,x11,0x13	 x11:0x8000280c x17=0x00001000
       32865000	      3285	80002918	01c006ef	jal	x13,80002918	 x13=0x80002918
       32875000	      3286	00000000	00000013	addi	x0,x0,0	  x0:0x00000000
       32885000	      3287	80002930	00000013	addi	x0,x0,0	  x0:0x00000000
       32895000	      3288	80002934	ff1ff0ef	jal	x1,80002934	  x1=0x80002934
       32905000	      3289	00000000	00000013	addi	x0,x0,0	  x0:0x00000000
       32915000	      3290	80002920	00000013	addi	x0,x0,0	  x0:0x00000000
       32925000	      3291	80002924	01c000ef	jal	x1,80002924	  x1=0x80002924
       32935000	      3292	00000000	00000013	addi	x0,x0,0	  x0:0x00000000
       32945000	      3293	8000293c	00000013	addi	x0,x0,0	  x0:0x00000000
       32955000	      3294	80002940	ffdff0ef	jal	x1,80002940	  x1=0x80002940
       32965000	      3295	00000000	00000013	addi	x0,x0,0	  x0:0x00000000
       32975000	      3296	80002938	00000013	addi	x0,x0,0	  x0:0x00000000
       32985000	      3297	8000293c	008000ef	jal	x1,8000293c	  x1=0x8000293c
       32995000	      3298	00000000	00000013	addi	x0,x0,0	  x0:0x00000000
       33005000	      3299	80002940	00000013	addi	x0,x0,0	  x0:0x00000000
       33015000	      3300	80002944	ff5ff46f	jal	x8,80002944	  x8=0x80002944
       33025000	      3301	00000000	00000013	addi	x0,x0,0	  x0:0x00000000
       33035000	      3302	80002934	00000013	addi	x0,x0,0	  x0:0x00000000
       33045000	      3303	80002938	ff1ff36f	jal	x6,80002938	  x6=0x80002938
       33055000	      3304	00000000	00000013	addi	x0,x0,0	  x0:0x00000000
       33065000	      3305	80002924	00000013	addi	x0,x0,0	  x0:0x00000000
       33075000	      3306	80002928	0340036f	jal	x6,80002928	  x6=0x80002928
       33085000	      3307	00000000	00000013	addi	x0,x0,0	  x0:0x00000000
       33095000	      3308	80002958	00000013	addi	x0,x0,0	  x0:0x00000000
       33105000	      3309	8000295c	fd1ff36f	jal	x6,8000295c	  x6=0x8000295c
       33115000	      3310	00000000	00000013	addi	x0,x0,0	  x0:0x00000000
       33125000	      3311	80002928	00000013	addi	x0,x0,0	  x0:0x00000000
       33135000	      3312	8000292c	01c000ef	jal	x1,8000292c	  x1=0x8000292c
       33145000	      3313	00000000	00000013	addi	x0,x0,0	  x0:0x00000000
       33155000	      3314	80002944	00000013	addi	x0,x0,0	  x0:0x00000000
       33165000	      3315	80002948	fd5ffaef	jal	x21,80002948	 x21=0x80002948
       33175000	      3316	00000000	00000013	addi	x0,x0,0	  x0:0x00000000
       33185000	      3317	80002918	00000013	addi	x0,x0,0	  x0:0x00000000
       33195000	      3318	8000291c	014000ef	jal	x1,8000291c	  x1=0x8000291c
       33205000	      3319	00000000	00000013	addi	x0,x0,0	  x0:0x00000000
       33215000	      3320	8000292c	00000013	addi	x0,x0,0	  x0:0x00000000
       33225000	      3321	80002930	02800cef	jal	x25,80002930	 x25=0x80002930
       33235000	      3322	00000000	00000013	addi	x0,x0,0	  x0:0x00000000
       33245000	      3323	80002954	00000013	addi	x0,x0,0	  x0:0x00000000
       33255000	      3324	80002958	ff5ff0ef	jal	x1,80002958	  x1=0x80002958
       33265000	      3325	00000000	00000013	addi	x0,x0,0	  x0:0x00000000
       33275000	      3326	80002948	00000013	addi	x0,x0,0	  x0:0x00000000
       33285000	      3327	8000294c	fd5ff0ef	jal	x1,8000294c	  x1=0x8000294c
       33295000	      3328	00000000	00000013	addi	x0,x0,0	  x0:0x00000000
       33305000	      3329	8000291c	00000013	addi	x0,x0,0	  x0:0x00000000
       33315000	      3330	80002920	0300066f	jal	x12,80002920	 x12=0x80002920
       33325000	      3331	00000000	00000013	addi	x0,x0,0	  x0:0x00000000
       33335000	      3332	8000294c	00000013	addi	x0,x0,0	  x0:0x00000000
       33345000	      3333	80002950	0040036f	jal	x6,80002950	  x6=0x80002950
       33355000	      3334	00000000	00000013	addi	x0,x0,0	  x0:0x00000000
       33365000	      3335	80002950	00000013	addi	x0,x0,0	  x0:0x00000000
       33375000	      3336	80002954	00c0036f	jal	x6,80002954	  x6=0x80002954
       33385000	      3337	00000000	00000013	addi	x0,x0,0	  x0:0x00000000
       33395000	      3338	8000295c	00000013	addi	x0,x0,0	  x0:0x00000000
       33405000	      3339	80002960	40b184b3	sub	x9,x3,x11	  x3:0x800028f4 x11:0x8000280c  x9=0x000000e8
       33415000	      3340	80002964	008006ef	jal	x13,80002964	 x13=0x80002964
       33425000	      3341	00000000	00000013	addi	x0,x0,0	  x0:0x00000000
       33435000	      3342	80002968	00000013	addi	x0,x0,0	  x0:0x00000000
       33445000	      3343	8000296c	0680026f	jal	x4,8000296c	  x4=0x8000296c
       33455000	      3344	00000000	00000013	addi	x0,x0,0	  x0:0x00000000
       33465000	      3345	800029d0	00000013	addi	x0,x0,0	  x0:0x00000000
       33475000	      3346	800029d4	00800fef	jal	x31,800029d4	 x31=0x800029d4
       33485000	      3347	00000000	00000013	addi	x0,x0,0	  x0:0x00000000
       33495000	      3348	800029d8	00000013	addi	x0,x0,0	  x0:0x00000000
       33505000	      3349	800029dc	f8dff0ef	jal	x1,800029dc	  x1=0x800029dc
       33515000	      3350	00000000	00000013	addi	x0,x0,0	  x0:0x00000000
       33525000	      3351	80002964	00000013	addi	x0,x0,0	  x0:0x00000000
       33535000	      3352	80002968	0240036f	jal	x6,80002968	  x6=0x80002968
       33545000	      3353	00000000	00000013	addi	x0,x0,0	  x0:0x00000000
       33555000	      3354	80002988	00000013	addi	x0,x0,0	  x0:0x00000000
       33565000	      3355	8000298c	0240026f	jal	x4,8000298c	  x4=0x8000298c
       33575000	      3356	00000000	00000013	addi	x0,x0,0	  x0:0x00000000
       33585000	      3357	800029ac	00000013	addi	x0,x0,0	  x0:0x00000000
       33595000	      3358	800029b0	0100036f	jal	x6,800029b0	  x6=0x800029b0
       33605000	      3359	00000000	00000013	addi	x0,x0,0	  x0:0x00000000
       33615000	      3360	800029bc	00000013	addi	x0,x0,0	  x0:0x00000000
       33625000	      3361	800029c0	fd5ff0ef	jal	x1,800029c0	  x1=0x800029c0
       33635000	      3362	00000000	00000013	addi	x0,x0,0	  x0:0x00000000
       33645000	      3363	80002990	00000013	addi	x0,x0,0	  x0:0x00000000
       33655000	      3364	80002994	ff1ff0ef	jal	x1,80002994	  x1=0x80002994
       33665000	      3365	00000000	00000013	addi	x0,x0,0	  x0:0x00000000
       33675000	      3366	80002980	00000013	addi	x0,x0,0	  x0:0x00000000
       33685000	      3367	80002984	04c001ef	jal	x3,80002984	  x3=0x80002984
       33695000	      3368	00000000	00000013	addi	x0,x0,0	  x0:0x00000000
       33705000	      3369	800029cc	00000013	addi	x0,x0,0	  x0:0x00000000
       33715000	      3370	800029d0	fddff56f	jal	x10,800029d0	 x10=0x800029d0
       33725000	      3371	00000000	00000013	addi	x0,x0,0	  x0:0x00000000
       33735000	      3372	800029a8	00000013	addi	x0,x0,0	  x0:0x00000000
       33745000	      3373	800029ac	00c000ef	jal	x1,800029ac	  x1=0x800029ac
       33755000	      3374	00000000	00000013	addi	x0,x0,0	  x0:0x00000000
       33765000	      3375	800029b4	00000013	addi	x0,x0,0	  x0:0x00000000
       33775000	      3376	800029b8	fbdff0ef	jal	x1,800029b8	  x1=0x800029b8
       33785000	      3377	00000000	00000013	addi	x0,x0,0	  x0:0x00000000
       33795000	      3378	80002970	00000013	addi	x0,x0,0	  x0:0x00000000
       33805000	      3379	80002974	034000ef	jal	x1,80002974	  x1=0x80002974
       33815000	      3380	00000000	00000013	addi	x0,x0,0	  x0:0x00000000
       33825000	      3381	800029a4	00000013	addi	x0,x0,0	  x0:0x00000000
       33835000	      3382	800029a8	0240036f	jal	x6,800029a8	  x6=0x800029a8
       33845000	      3383	00000000	00000013	addi	x0,x0,0	  x0:0x00000000
       33855000	      3384	800029c8	00000013	addi	x0,x0,0	  x0:0x00000000
       33865000	      3385	800029cc	ff1ff9ef	jal	x19,800029cc	 x19=0x800029cc
       33875000	      3386	00000000	00000013	addi	x0,x0,0	  x0:0x00000000
       33885000	      3387	800029b8	00000013	addi	x0,x0,0	  x0:0x00000000
       33895000	      3388	800029bc	fc5ff0ef	jal	x1,800029bc	  x1=0x800029bc
       33905000	      3389	00000000	00000013	addi	x0,x0,0	  x0:0x00000000
       33915000	      3390	8000297c	00000013	addi	x0,x0,0	  x0:0x00000000
       33925000	      3391	80002980	044000ef	jal	x1,80002980	  x1=0x80002980
       33935000	      3392	00000000	00000013	addi	x0,x0,0	  x0:0x00000000
       33945000	      3393	800029c0	00000013	addi	x0,x0,0	  x0:0x00000000
       33955000	      3394	800029c4	0040036f	jal	x6,800029c4	  x6=0x800029c4
       33965000	      3395	00000000	00000013	addi	x0,x0,0	  x0:0x00000000
       33975000	      3396	800029c4	00000013	addi	x0,x0,0	  x0:0x00000000
       33985000	      3397	800029c8	fd1ff26f	jal	x4,800029c8	  x4=0x800029c8
       33995000	      3398	00000000	00000013	addi	x0,x0,0	  x0:0x00000000
       34005000	      3399	80002994	00000013	addi	x0,x0,0	  x0:0x00000000
       34015000	      3400	80002998	fd9ff0ef	jal	x1,80002998	  x1=0x80002998
       34025000	      3401	00000000	00000013	addi	x0,x0,0	  x0:0x00000000
       34035000	      3402	8000296c	00000013	addi	x0,x0,0	  x0:0x00000000
       34045000	      3403	80002970	034000ef	jal	x1,80002970	  x1=0x80002970
       34055000	      3404	00000000	00000013	addi	x0,x0,0	  x0:0x00000000
       34065000	      3405	800029a0	00000013	addi	x0,x0,0	  x0:0x00000000
       34075000	      3406	800029a4	ff9ff0ef	jal	x1,800029a4	  x1=0x800029a4
       34085000	      3407	00000000	00000013	addi	x0,x0,0	  x0:0x00000000
       34095000	      3408	80002998	00000013	addi	x0,x0,0	  x0:0x00000000
       34105000	      3409	8000299c	ff5ff66f	jal	x12,8000299c	 x12=0x8000299c
       34115000	      3410	00000000	00000013	addi	x0,x0,0	  x0:0x00000000
       34125000	      3411	8000298c	00000013	addi	x0,x0,0	  x0:0x00000000
       34135000	      3412	80002990	fe9ff86f	jal	x16,80002990	 x16=0x80002990
       34145000	      3413	00000000	00000013	addi	x0,x0,0	  x0:0x00000000
       34155000	      3414	80002974	00000013	addi	x0,x0,0	  x0:0x00000000
       34165000	      3415	80002978	060000ef	jal	x1,80002978	  x1=0x80002978
       34175000	      3416	00000000	00000013	addi	x0,x0,0	  x0:0x00000000
       34185000	      3417	800029d4	00000013	addi	x0,x0,0	  x0:0x00000000
       34195000	      3418	800029d8	fc9ff0ef	jal	x1,800029d8	  x1=0x800029d8
       34205000	      3419	00000000	00000013	addi	x0,x0,0	  x0:0x00000000
       34215000	      3420	8000299c	00000013	addi	x0,x0,0	  x0:0x00000000
       34225000	      3421	800029a0	0140046f	jal	x8,800029a0	  x8=0x800029a0
       34235000	      3422	00000000	00000013	addi	x0,x0,0	  x0:0x00000000
       34245000	      3423	800029b0	00000013	addi	x0,x0,0	  x0:0x00000000
       34255000	      3424	800029b4	fc9ff1ef	jal	x3,800029b4	  x3=0x800029b4
       34265000	      3425	00000000	00000013	addi	x0,x0,0	  x0:0x00000000
       34275000	      3426	80002978	00000013	addi	x0,x0,0	  x0:0x00000000
       34285000	      3427	8000297c	00c0036f	jal	x6,8000297c	  x6=0x8000297c
       34295000	      3428	00000000	00000013	addi	x0,x0,0	  x0:0x00000000
       34305000	      3429	80002984	00000013	addi	x0,x0,0	  x0:0x00000000
       34315000	      3430	80002988	058000ef	jal	x1,80002988	  x1=0x80002988
       34325000	      3431	00000000	00000013	addi	x0,x0,0	  x0:0x00000000
       34335000	      3432	800029dc	00000013	addi	x0,x0,0	  x0:0x00000000
       34345000	      3433	800029e0	f2c2a513	slti	x10,x5,-212	  x5:0x800028a4 x10=0x00000001
       34355000	      3434	800029e4	050006ef	jal	x13,800029e4	 x13=0x800029e4
       34365000	      3435	00000000	00000013	addi	x0,x0,0	  x0:0x00000000
       34375000	      3436	80002a30	00000013	addi	x0,x0,0	  x0:0x00000000
       34385000	      3437	80002a34	fc9ff0ef	jal	x1,80002a34	  x1=0x80002a34
       34395000	      3438	00000000	00000013	addi	x0,x0,0	  x0:0x00000000
       34405000	      3439	800029f8	00000013	addi	x0,x0,0	  x0:0x00000000
       34415000	      3440	800029fc	014000ef	jal	x1,800029fc	  x1=0x800029fc
       34425000	      3441	00000000	00000013	addi	x0,x0,0	  x0:0x00000000
       34435000	      3442	80002a0c	00000013	addi	x0,x0,0	  x0:0x00000000
       34445000	      3443	80002a10	ffdff0ef	jal	x1,80002a10	  x1=0x80002a10
       34455000	      3444	00000000	00000013	addi	x0,x0,0	  x0:0x00000000
       34465000	      3445	80002a08	00000013	addi	x0,x0,0	  x0:0x00000000
       34475000	      3446	80002a0c	00c000ef	jal	x1,80002a0c	  x1=0x80002a0c
       34485000	      3447	00000000	00000013	addi	x0,x0,0	  x0:0x00000000
       34495000	      3448	80002a14	00000013	addi	x0,x0,0	  x0:0x00000000
       34505000	      3449	80002a18	0200036f	jal	x6,80002a18	  x6=0x80002a18
       34515000	      3450	00000000	00000013	addi	x0,x0,0	  x0:0x00000000
       34525000	      3451	80002a34	00000013	addi	x0,x0,0	  x0:0x00000000
       34535000	      3452	80002a38	fddff66f	jal	x12,80002a38	 x12=0x80002a38
       34545000	      3453	00000000	00000013	addi	x0,x0,0	  x0:0x00000000
       34555000	      3454	80002a10	00000013	addi	x0,x0,0	  x0:0x00000000
       34565000	      3455	80002a14	01c0036f	jal	x6,80002a14	  x6=0x80002a14
       34575000	      3456	00000000	00000013	addi	x0,x0,0	  x0:0x00000000
       34585000	      3457	80002a2c	00000013	addi	x0,x0,0	  x0:0x00000000
       34595000	      3458	80002a30	ff5ff5ef	jal	x11,80002a30	 x11=0x80002a30
       34605000	      3459	00000000	00000013	addi	x0,x0,0	  x0:0x00000000
       34615000	      3460	80002a20	00000013	addi	x0,x0,0	  x0:0x00000000
       34625000	      3461	80002a24	fc5ff0ef	jal	x1,80002a24	  x1=0x80002a24
       34635000	      3462	00000000	00000013	addi	x0,x0,0	  x0:0x00000000
       34645000	      3463	800029e4	00000013	addi	x0,x0,0	  x0:0x00000000
       34655000	      3464	800029e8	034000ef	jal	x1,800029e8	  x1=0x800029e8
       34665000	      3465	00000000	00000013	addi	x0,x0,0	  x0:0x00000000
       34675000	      3466	80002a18	00000013	addi	x0,x0,0	  x0:0x00000000
       34685000	      3467	80002a1c	004001ef	jal	x3,80002a1c	  x3=0x80002a1c
       34695000	      3468	00000000	00000013	addi	x0,x0,0	  x0:0x00000000
       34705000	      3469	80002a1c	00000013	addi	x0,x0,0	  x0:0x00000000
       34715000	      3470	80002a20	fd9ff36f	jal	x6,80002a20	  x6=0x80002a20
       34725000	      3471	00000000	00000013	addi	x0,x0,0	  x0:0x00000000
       34735000	      3472	800029f4	00000013	addi	x0,x0,0	  x0:0x00000000
       34745000	      3473	800029f8	0100016f	jal	x2,800029f8	  x2=0x800029f8
       34755000	      3474	00000000	00000013	addi	x0,x0,0	  x0:0x00000000
       34765000	      3475	80002a04	00000013	addi	x0,x0,0	  x0:0x00000000
       34775000	      3476	80002a08	fedff0ef	jal	x1,80002a08	  x1=0x80002a08
       34785000	      3477	00000000	00000013	addi	x0,x0,0	  x0:0x00000000
       34795000	      3478	800029f0	00000013	addi	x0,x0,0	  x0:0x00000000
       34805000	      3479	800029f4	038000ef	jal	x1,800029f4	  x1=0x800029f4
       34815000	      3480	00000000	00000013	addi	x0,x0,0	  x0:0x00000000
       34825000	      3481	80002a28	00000013	addi	x0,x0,0	  x0:0x00000000
       34835000	      3482	80002a2c	fd5ff36f	jal	x6,80002a2c	  x6=0x80002a2c
       34845000	      3483	00000000	00000013	addi	x0,x0,0	  x0:0x00000000
       34855000	      3484	800029fc	00000013	addi	x0,x0,0	  x0:0x00000000
       34865000	      3485	80002a00	fedff36f	jal	x6,80002a00	  x6=0x80002a00
       34875000	      3486	00000000	00000013	addi	x0,x0,0	  x0:0x00000000
       34885000	      3487	800029e8	00000013	addi	x0,x0,0	  x0:0x00000000
       34895000	      3488	800029ec	0040036f	jal	x6,800029ec	  x6=0x800029ec
       34905000	      3489	00000000	00000013	addi	x0,x0,0	  x0:0x00000000
       34915000	      3490	800029ec	00000013	addi	x0,x0,0	  x0:0x00000000
       34925000	      3491	800029f0	014000ef	jal	x1,800029f0	  x1=0x800029f0
       34935000	      3492	00000000	00000013	addi	x0,x0,0	  x0:0x00000000
       34945000	      3493	80002a00	00000013	addi	x0,x0,0	  x0:0x00000000
       34955000	      3494	80002a04	02400bef	jal	x23,80002a04	 x23=0x80002a04
       34965000	      3495	00000000	00000013	addi	x0,x0,0	  x0:0x00000000
       34975000	      3496	80002a24	00000013	addi	x0,x0,0	  x0:0x00000000
       34985000	      3497	80002a28	014000ef	jal	x1,80002a28	  x1=0x80002a28
       34995000	      3498	00000000	00000013	addi	x0,x0,0	  x0:0x00000000
       35005000	      3499	80002a38	00000013	addi	x0,x0,0	  x0:0x00000000
       35015000	      3500	80002a3c	00eb87b3	add	x15,x23,x14	 x23:0x80002a04 x14:0x80002638 x15=0x0000503c
       35025000	      3501	80002a40	050006ef	jal	x13,80002a40	 x13=0x80002a40
       35035000	      3502	00000000	00000013	addi	x0,x0,0	  x0:0x00000000
       35045000	      3503	80002a8c	00000013	addi	x0,x0,0	  x0:0x00000000
       35055000	      3504	80002a90	0040036f	jal	x6,80002a90	  x6=0x80002a90
       35065000	      3505	00000000	00000013	addi	x0,x0,0	  x0:0x00000000
       35075000	      3506	80002a90	00000013	addi	x0,x0,0	  x0:0x00000000
       35085000	      3507	80002a94	fc1ff0ef	jal	x1,80002a94	  x1=0x80002a94
       35095000	      3508	00000000	00000013	addi	x0,x0,0	  x0:0x00000000
       35105000	      3509	80002a50	00000013	addi	x0,x0,0	  x0:0x00000000
       35115000	      3510	80002a54	ff5ff0ef	jal	x1,80002a54	  x1=0x80002a54
       35125000	      3511	00000000	00000013	addi	x0,x0,0	  x0:0x00000000
       35135000	      3512	80002a44	00000013	addi	x0,x0,0	  x0:0x00000000
       35145000	      3513	80002a48	0400016f	jal	x2,80002a48	  x2=0x80002a48
       35155000	      3514	00000000	00000013	addi	x0,x0,0	  x0:0x00000000
       35165000	      3515	80002a84	00000013	addi	x0,x0,0	  x0:0x00000000
       35175000	      3516	80002a88	ff9ff6ef	jal	x13,80002a88	 x13=0x80002a88
       35185000	      3517	00000000	00000013	addi	x0,x0,0	  x0:0x00000000
       35195000	      3518	80002a7c	00000013	addi	x0,x0,0	  x0:0x00000000
       35205000	      3519	80002a80	ffdff36f	jal	x6,80002a80	  x6=0x80002a80
       35215000	      3520	00000000	00000013	addi	x0,x0,0	  x0:0x00000000
       35225000	      3521	80002a78	00000013	addi	x0,x0,0	  x0:0x00000000
       35235000	      3522	80002a7c	ff9ff0ef	jal	x1,80002a7c	  x1=0x80002a7c
       35245000	      3523	00000000	00000013	addi	x0,x0,0	  x0:0x00000000
       35255000	      3524	80002a70	00000013	addi	x0,x0,0	  x0:0x00000000
       35265000	      3525	80002a74	018007ef	jal	x15,80002a74	 x15=0x80002a74
       35275000	      3526	00000000	00000013	addi	x0,x0,0	  x0:0x00000000
       35285000	      3527	80002a88	00000013	addi	x0,x0,0	  x0:0x00000000
       35295000	      3528	80002a8c	00c000ef	jal	x1,80002a8c	  x1=0x80002a8c
       35305000	      3529	00000000	00000013	addi	x0,x0,0	  x0:0x00000000
       35315000	      3530	80002a94	00000013	addi	x0,x0,0	  x0:0x00000000
       35325000	      3531	80002a98	01c000ef	jal	x1,80002a98	  x1=0x80002a98
       35335000	      3532	00000000	00000013	addi	x0,x0,0	  x0:0x00000000
       35345000	      3533	80002ab0	00000013	addi	x0,x0,0	  x0:0x00000000
       35355000	      3534	80002ab4	ff5ff0ef	jal	x1,80002ab4	  x1=0x80002ab4
       35365000	      3535	00000000	00000013	addi	x0,x0,0	  x0:0x00000000
       35375000	      3536	80002aa4	00000013	addi	x0,x0,0	  x0:0x00000000
       35385000	      3537	80002aa8	fc9ff36f	jal	x6,80002aa8	  x6=0x80002aa8
       35395000	      3538	00000000	00000013	addi	x0,x0,0	  x0:0x00000000
       35405000	      3539	80002a6c	00000013	addi	x0,x0,0	  x0:0x00000000
       35415000	      3540	80002a70	ff9ff0ef	jal	x1,80002a70	  x1=0x80002a70
       35425000	      3541	00000000	00000013	addi	x0,x0,0	  x0:0x00000000
       35435000	      3542	80002a64	00000013	addi	x0,x0,0	  x0:0x00000000
       35445000	      3543	80002a68	034000ef	jal	x1,80002a68	  x1=0x80002a68
       35455000	      3544	00000000	00000013	addi	x0,x0,0	  x0:0x00000000
       35465000	      3545	80002a98	00000013	addi	x0,x0,0	  x0:0x00000000
       35475000	      3546	80002a9c	fbdfffef	jal	x31,80002a9c	 x31=0x80002a9c
       35485000	      3547	00000000	00000013	addi	x0,x0,0	  x0:0x00000000
       35495000	      3548	80002a54	00000013	addi	x0,x0,0	  x0:0x00000000
       35505000	      3549	80002a58	048000ef	jal	x1,80002a58	  x1=0x80002a58
       35515000	      3550	00000000	00000013	addi	x0,x0,0	  x0:0x00000000
       35525000	      3551	80002a9c	00000013	addi	x0,x0,0	  x0:0x00000000
       35535000	      3552	80002aa0	010000ef	jal	x1,80002aa0	  x1=0x80002aa0
       35545000	      3553	00000000	00000013	addi	x0,x0,0	  x0:0x00000000
       35555000	      3554	80002aac	00000013	addi	x0,x0,0	  x0:0x00000000
       35565000	      3555	80002ab0	fbdff0ef	jal	x1,80002ab0	  x1=0x80002ab0
       35575000	      3556	00000000	00000013	addi	x0,x0,0	  x0:0x00000000
       35585000	      3557	80002a68	00000013	addi	x0,x0,0	  x0:0x00000000
       35595000	      3558	80002a6c	04000d6f	jal	x26,80002a6c	 x26=0x80002a6c
       35605000	      3559	00000000	00000013	addi	x0,x0,0	  x0:0x00000000
       35615000	      3560	80002aa8	00000013	addi	x0,x0,0	  x0:0x00000000
       35625000	      3561	80002aac	fb5ff0ef	jal	x1,80002aac	  x1=0x80002aac
       35635000	      3562	00000000	00000013	addi	x0,x0,0	  x0:0x00000000
       35645000	      3563	80002a5c	00000013	addi	x0,x0,0	  x0:0x00000000
       35655000	      3564	80002a60	fedff26f	jal	x4,80002a60	  x4=0x80002a60
       35665000	      3565	00000000	00000013	addi	x0,x0,0	  x0:0x00000000
       35675000	      3566	80002a48	00000013	addi	x0,x0,0	  x0:0x00000000
       35685000	      3567	80002a4c	0380036f	jal	x6,80002a4c	  x6=0x80002a4c
       35695000	      3568	00000000	00000013	addi	x0,x0,0	  x0:0x00000000
       35705000	      3569	80002a80	00000013	addi	x0,x0,0	  x0:0x00000000
       35715000	      3570	80002a84	fd9ff0ef	jal	x1,80002a84	  x1=0x80002a84
       35725000	      3571	00000000	00000013	addi	x0,x0,0	  x0:0x00000000
       35735000	      3572	80002a58	00000013	addi	x0,x0,0	  x0:0x00000000
       35745000	      3573	80002a5c	0080086f	jal	x16,80002a5c	 x16=0x80002a5c
       35755000	      3574	00000000	00000013	addi	x0,x0,0	  x0:0x00000000
       35765000	      3575	80002a60	00000013	addi	x0,x0,0	  x0:0x00000000
       35775000	      3576	80002a64	fedff0ef	jal	x1,80002a64	  x1=0x80002a64
       35785000	      3577	00000000	00000013	addi	x0,x0,0	  x0:0x00000000
       35795000	      3578	80002a4c	00000013	addi	x0,x0,0	  x0:0x00000000
       35805000	      3579	80002a50	054001ef	jal	x3,80002a50	  x3=0x80002a50
       35815000	      3580	00000000	00000013	addi	x0,x0,0	  x0:0x00000000
       35825000	      3581	80002aa0	00000013	addi	x0,x0,0	  x0:0x00000000
       35835000	      3582	80002aa4	fd5ff0ef	jal	x1,80002aa4	  x1=0x80002aa4
       35845000	      3583	00000000	00000013	addi	x0,x0,0	  x0:0x00000000
       35855000	      3584	80002a74	00000013	addi	x0,x0,0	  x0:0x00000000
       35865000	      3585	80002a78	fcdff0ef	jal	x1,80002a78	  x1=0x80002a78
       35875000	      3586	00000000	00000013	addi	x0,x0,0	  x0:0x00000000
       35885000	      3587	80002a40	00000013	addi	x0,x0,0	  x0:0x00000000
       35895000	      3588	80002a44	074000ef	jal	x1,80002a44	  x1=0x80002a44
       35905000	      3589	00000000	00000013	addi	x0,x0,0	  x0:0x00000000
       35915000	      3590	80002ab4	00000013	addi	x0,x0,0	  x0:0x00000000
       35925000	      3591	80002ab8	006c5b33	srl	x22,x24,x6	 x24:0x80009f4c  x6:0x80002a4c x22=0x00080009
       35935000	      3592	80002abc	004006ef	jal	x13,80002abc	 x13=0x80002abc
       35945000	      3593	00000000	00000013	addi	x0,x0,0	  x0:0x00000000
       35955000	      3594	80002abc	00000013	addi	x0,x0,0	  x0:0x00000000
       35965000	      3595	80002ac0	01c0036f	jal	x6,80002ac0	  x6=0x80002ac0
       35975000	      3596	00000000	00000013	addi	x0,x0,0	  x0:0x00000000
       35985000	      3597	80002ad8	00000013	addi	x0,x0,0	  x0:0x00000000
       35995000	      3598	80002adc	0100036f	jal	x6,80002adc	  x6=0x80002adc
       36005000	      3599	00000000	00000013	addi	x0,x0,0	  x0:0x00000000
       36015000	      3600	80002ae8	00000013	addi	x0,x0,0	  x0:0x00000000
       36025000	      3601	80002aec	00c000ef	jal	x1,80002aec	  x1=0x80002aec
       36035000	      3602	00000000	00000013	addi	x0,x0,0	  x0:0x00000000
       36045000	      3603	80002af4	00000013	addi	x0,x0,0	  x0:0x00000000
       36055000	      3604	80002af8	018007ef	jal	x15,80002af8	 x15=0x80002af8
       36065000	      3605	00000000	00000013	addi	x0,x0,0	  x0:0x00000000
       36075000	      3606	80002b0c	00000013	addi	x0,x0,0	  x0:0x00000000
       36085000	      3607	80002b10	fc5ff36f	jal	x6,80002b10	  x6=0x80002b10
       36095000	      3608	00000000	00000013	addi	x0,x0,0	  x0:0x00000000
       36105000	      3609	80002ad0	00000013	addi	x0,x0,0	  x0:0x00000000
       36115000	      3610	80002ad4	028000ef	jal	x1,80002ad4	  x1=0x80002ad4
       36125000	      3611	00000000	00000013	addi	x0,x0,0	  x0:0x00000000
       36135000	      3612	80002af8	00000013	addi	x0,x0,0	  x0:0x00000000
       36145000	      3613	80002afc	0040036f	jal	x6,80002afc	  x6=0x80002afc
       36155000	      3614	00000000	00000013	addi	x0,x0,0	  x0:0x00000000
       36165000	      3615	80002afc	00000013	addi	x0,x0,0	  x0:0x00000000
       36175000	      3616	80002b00	ff5ff0ef	jal	x1,80002b00	  x1=0x80002b00
       36185000	      3617	00000000	00000013	addi	x0,x0,0	  x0:0x00000000
       36195000	      3618	80002af0	00000013	addi	x0,x0,0	  x0:0x00000000
       36205000	      3619	80002af4	fd9ff4ef	jal	x9,80002af4	  x9=0x80002af4
       36215000	      3620	00000000	00000013	addi	x0,x0,0	  x0:0x00000000
       36225000	      3621	80002ac8	00000013	addi	x0,x0,0	  x0:0x00000000
       36235000	      3622	80002acc	00c0036f	jal	x6,80002acc	  x6=0x80002acc
       36245000	      3623	00000000	00000013	addi	x0,x0,0	  x0:0x00000000
       36255000	      3624	80002ad4	00000013	addi	x0,x0,0	  x0:0x00000000
       36265000	      3625	80002ad8	0400036f	jal	x6,80002ad8	  x6=0x80002ad8
       36275000	      3626	00000000	00000013	addi	x0,x0,0	  x0:0x00000000
       36285000	      3627	80002b14	00000013	addi	x0,x0,0	  x0:0x00000000
       36295000	      3628	80002b18	008000ef	jal	x1,80002b18	  x1=0x80002b18
       36305000	      3629	00000000	00000013	addi	x0,x0,0	  x0:0x00000000
       36315000	      3630	80002b1c	00000013	addi	x0,x0,0	  x0:0x00000000
       36325000	      3631	80002b20	fa9ff36f	jal	x6,80002b20	  x6=0x80002b20
       36335000	      3632	00000000	00000013	addi	x0,x0,0	  x0:0x00000000
       36345000	      3633	80002ac4	00000013	addi	x0,x0,0	  x0:0x00000000
       36355000	      3634	80002ac8	ffdff0ef	jal	x1,80002ac8	  x1=0x80002ac8
       36365000	      3635	00000000	00000013	addi	x0,x0,0	  x0:0x00000000
       36375000	      3636	80002ac0	00000013	addi	x0,x0,0	  x0:0x00000000
       36385000	      3637	80002ac4	01c00d6f	jal	x26,80002ac4	 x26=0x80002ac4
       36395000	      3638	00000000	00000013	addi	x0,x0,0	  x0:0x00000000
       36405000	      3639	80002adc	00000013	addi	x0,x0,0	  x0:0x00000000
       36415000	      3640	80002ae0	0080036f	jal	x6,80002ae0	  x6=0x80002ae0
       36425000	      3641	00000000	00000013	addi	x0,x0,0	  x0:0x00000000
       36435000	      3642	80002ae4	00000013	addi	x0,x0,0	  x0:0x00000000
       36445000	      3643	80002ae8	02c005ef	jal	x11,80002ae8	 x11=0x80002ae8
       36455000	      3644	00000000	00000013	addi	x0,x0,0	  x0:0x00000000
       36465000	      3645	80002b10	00000013	addi	x0,x0,0	  x0:0x00000000
       36475000	      3646	80002b14	0080036f	jal	x6,80002b14	  x6=0x80002b14
       36485000	      3647	00000000	00000013	addi	x0,x0,0	  x0:0x00000000
       36495000	      3648	80002b18	00000013	addi	x0,x0,0	  x0:0x00000000
       36505000	      3649	80002b1c	ff1ff16f	jal	x2,80002b1c	  x2=0x80002b1c
       36515000	      3650	00000000	00000013	addi	x0,x0,0	  x0:0x00000000
       36525000	      3651	80002b08	00000013	addi	x0,x0,0	  x0:0x00000000
       36535000	      3652	80002b0c	ffdff0ef	jal	x1,80002b0c	  x1=0x80002b0c
       36545000	      3653	00000000	00000013	addi	x0,x0,0	  x0:0x00000000
       36555000	      3654	80002b04	00000013	addi	x0,x0,0	  x0:0x00000000
       36565000	      3655	80002b08	fddff36f	jal	x6,80002b08	  x6=0x80002b08
       36575000	      3656	00000000	00000013	addi	x0,x0,0	  x0:0x00000000
       36585000	      3657	80002ae0	00000013	addi	x0,x0,0	  x0:0x00000000
       36595000	      3658	80002ae4	fedff0ef	jal	x1,80002ae4	  x1=0x80002ae4
       36605000	      3659	00000000	00000013	addi	x0,x0,0	  x0:0x00000000
       36615000	      3660	80002acc	00000013	addi	x0,x0,0	  x0:0x00000000
       36625000	      3661	80002ad0	034000ef	jal	x1,80002ad0	  x1=0x80002ad0
       36635000	      3662	00000000	00000013	addi	x0,x0,0	  x0:0x00000000
       36645000	      3663	80002b00	00000013	addi	x0,x0,0	  x0:0x00000000
       36655000	      3664	80002b04	fedffbef	jal	x23,80002b04	 x23=0x80002b04
       36665000	      3665	00000000	00000013	addi	x0,x0,0	  x0:0x00000000
       36675000	      3666	80002aec	00000013	addi	x0,x0,0	  x0:0x00000000
       36685000	      3667	80002af0	034000ef	jal	x1,80002af0	  x1=0x80002af0
       36695000	      3668	00000000	00000013	addi	x0,x0,0	  x0:0x00000000
       36705000	      3669	80002b20	00000013	addi	x0,x0,0	  x0:0x00000000
       36715000	      3670	80002b24	017860b3	or	x1,x16,x23	 x16:0x80002a5c x23:0x80002b04  x1=0x80002b5c
       36725000	      3671	80002b28	028006ef	jal	x13,80002b28	 x13=0x80002b28
       36735000	      3672	00000000	00000013	addi	x0,x0,0	  x0:0x00000000
       36745000	      3673	80002b4c	00000013	addi	x0,x0,0	  x0:0x00000000
       36755000	      3674	80002b50	fedff0ef	jal	x1,80002b50	  x1=0x80002b50
       36765000	      3675	00000000	00000013	addi	x0,x0,0	  x0:0x00000000
       36775000	      3676	80002b38	00000013	addi	x0,x0,0	  x0:0x00000000
       36785000	      3677	80002b3c	00c007ef	jal	x15,80002b3c	 x15=0x80002b3c
       36795000	      3678	00000000	00000013	addi	x0,x0,0	  x0:0x00000000
       36805000	      3679	80002b44	00000013	addi	x0,x0,0	  x0:0x00000000
       36815000	      3680	80002b48	010000ef	jal	x1,80002b48	  x1=0x80002b48
       36825000	      3681	00000000	00000013	addi	x0,x0,0	  x0:0x00000000
       36835000	      3682	80002b54	00000013	addi	x0,x0,0	  x0:0x00000000
       36845000	      3683	80002b58	00c000ef	jal	x1,80002b58	  x1=0x80002b58
       36855000	      3684	00000000	00000013	addi	x0,x0,0	  x0:0x00000000
       36865000	      3685	80002b60	00000013	addi	x0,x0,0	  x0:0x00000000
       36875000	      3686	80002b64	0100016f	jal	x2,80002b64	  x2=0x80002b64
       36885000	      3687	00000000	00000013	addi	x0,x0,0	  x0:0x00000000
       36895000	      3688	80002b70	00000013	addi	x0,x0,0	  x0:0x00000000
       36905000	      3689	80002b74	fd1ff8ef	jal	x17,80002b74	 x17=0x80002b74
       36915000	      3690	00000000	00000013	addi	x0,x0,0	  x0:0x00000000
       36925000	      3691	80002b40	00000013	addi	x0,x0,0	  x0:0x00000000
       36935000	      3692	80002b44	03c000ef	jal	x1,80002b44	  x1=0x80002b44
       36945000	      3693	00000000	00000013	addi	x0,x0,0	  x0:0x00000000
       36955000	      3694	80002b7c	00000013	addi	x0,x0,0	  x0:0x00000000
       36965000	      3695	80002b80	fc1ff36f	jal	x6,80002b80	  x6=0x80002b80
       36975000	      3696	00000000	00000013	addi	x0,x0,0	  x0:0x00000000
       36985000	      3697	80002b3c	00000013	addi	x0,x0,0	  x0:0x00000000
       36995000	      3698	80002b40	03c000ef	jal	x1,80002b40	  x1=0x80002b40
       37005000	      3699	00000000	00000013	addi	x0,x0,0	  x0:0x00000000
       37015000	      3700	80002b78	00000013	addi	x0,x0,0	  x0:0x00000000
       37025000	      3701	80002b7c	fd1ff0ef	jal	x1,80002b7c	  x1=0x80002b7c
       37035000	      3702	00000000	00000013	addi	x0,x0,0	  x0:0x00000000
       37045000	      3703	80002b48	00000013	addi	x0,x0,0	  x0:0x00000000
       37055000	      3704	80002b4c	02c009ef	jal	x19,80002b4c	 x19=0x80002b4c
       37065000	      3705	00000000	00000013	addi	x0,x0,0	  x0:0x00000000
       37075000	      3706	80002b74	00000013	addi	x0,x0,0	  x0:0x00000000
       37085000	      3707	80002b78	fbdff8ef	jal	x17,80002b78	 x17=0x80002b78
       37095000	      3708	00000000	00000013	addi	x0,x0,0	  x0:0x00000000
       37105000	      3709	80002b30	00000013	addi	x0,x0,0	  x0:0x00000000
       37115000	      3710	80002b34	03c000ef	jal	x1,80002b34	  x1=0x80002b34
       37125000	      3711	00000000	00000013	addi	x0,x0,0	  x0:0x00000000
       37135000	      3712	80002b6c	00000013	addi	x0,x0,0	  x0:0x00000000
       37145000	      3713	80002b70	fedff36f	jal	x6,80002b70	  x6=0x80002b70
       37155000	      3714	00000000	00000013	addi	x0,x0,0	  x0:0x00000000
       37165000	      3715	80002b58	00000013	addi	x0,x0,0	  x0:0x00000000
       37175000	      3716	80002b5c	ff9ff0ef	jal	x1,80002b5c	  x1=0x80002b5c
       37185000	      3717	00000000	00000013	addi	x0,x0,0	  x0:0x00000000
       37195000	      3718	80002b50	00000013	addi	x0,x0,0	  x0:0x00000000
       37205000	      3719	80002b54	fddff1ef	jal	x3,80002b54	  x3=0x80002b54
       37215000	      3720	00000000	00000013	addi	x0,x0,0	  x0:0x00000000
       37225000	      3721	80002b2c	00000013	addi	x0,x0,0	  x0:0x00000000
       37235000	      3722	80002b30	030002ef	jal	x5,80002b30	  x5=0x80002b30
       37245000	      3723	00000000	00000013	addi	x0,x0,0	  x0:0x00000000
       37255000	      3724	80002b5c	00000013	addi	x0,x0,0	  x0:0x00000000
       37265000	      3725	80002b60	00c00b6f	jal	x22,80002b60	 x22=0x80002b60
       37275000	      3726	00000000	00000013	addi	x0,x0,0	  x0:0x00000000
       37285000	      3727	80002b68	00000013	addi	x0,x0,0	  x0:0x00000000
       37295000	      3728	80002b6c	ffdff36f	jal	x6,80002b6c	  x6=0x80002b6c
       37305000	      3729	00000000	00000013	addi	x0,x0,0	  x0:0x00000000
       37315000	      3730	80002b64	00000013	addi	x0,x0,0	  x0:0x00000000
       37325000	      3731	80002b68	fd1ff0ef	jal	x1,80002b68	  x1=0x80002b68
       37335000	      3732	00000000	00000013	addi	x0,x0,0	  x0:0x00000000
       37345000	      3733	80002b34	00000013	addi	x0,x0,0	  x0:0x00000000
       37355000	      3734	80002b38	ff5ff0ef	jal	x1,80002b38	  x1=0x80002b38
       37365000	      3735	00000000	00000013	addi	x0,x0,0	  x0:0x00000000
       37375000	      3736	80002b28	00000013	addi	x0,x0,0	  x0:0x00000000
       37385000	      3737	80002b2c	0580086f	jal	x16,80002b2c	 x16=0x80002b2c
       37395000	      3738	00000000	00000013	addi	x0,x0,0	  x0:0x00000000
       37405000	      3739	80002b80	00000013	addi	x0,x0,0	  x0:0x00000000
       37415000	      3740	80002b84	015f9693	slli	x13,x31,0x15	 x31:0x80002a9c x13=0x53800000
       37425000	      3741	80002b88	020006ef	jal	x13,80002b88	 x13=0x80002b88
       37435000	      3742	00000000	00000013	addi	x0,x0,0	  x0:0x00000000
       37445000	      3743	80002ba4	00000013	addi	x0,x0,0	  x0:0x00000000
       37455000	      3744	80002ba8	004000ef	jal	x1,80002ba8	  x1=0x80002ba8
       37465000	      3745	00000000	00000013	addi	x0,x0,0	  x0:0x00000000
       37475000	      3746	80002ba8	00000013	addi	x0,x0,0	  x0:0x00000000
       37485000	      3747	80002bac	0080036f	jal	x6,80002bac	  x6=0x80002bac
       37495000	      3748	00000000	00000013	addi	x0,x0,0	  x0:0x00000000
       37505000	      3749	80002bb0	00000013	addi	x0,x0,0	  x0:0x00000000
       37515000	      3750	80002bb4	fe9ff26f	jal	x4,80002bb4	  x4=0x80002bb4
       37525000	      3751	00000000	00000013	addi	x0,x0,0	  x0:0x00000000
       37535000	      3752	80002b98	00000013	addi	x0,x0,0	  x0:0x00000000
       37545000	      3753	80002b9c	014000ef	jal	x1,80002b9c	  x1=0x80002b9c
       37555000	      3754	00000000	00000013	addi	x0,x0,0	  x0:0x00000000
       37565000	      3755	80002bac	00000013	addi	x0,x0,0	  x0:0x00000000
       37575000	      3756	80002bb0	fe1ff2ef	jal	x5,80002bb0	  x5=0x80002bb0
       37585000	      3757	00000000	00000013	addi	x0,x0,0	  x0:0x00000000
       37595000	      3758	80002b8c	00000013	addi	x0,x0,0	  x0:0x00000000
       37605000	      3759	80002b90	008000ef	jal	x1,80002b90	  x1=0x80002b90
       37615000	      3760	00000000	00000013	addi	x0,x0,0	  x0:0x00000000
       37625000	      3761	80002b94	00000013	addi	x0,x0,0	  x0:0x00000000
       37635000	      3762	80002b98	ff5ffdef	jal	x27,80002b98	 x27=0x80002b98
       37645000	      3763	00000000	00000013	addi	x0,x0,0	  x0:0x00000000
       37655000	      3764	80002b88	00000013	addi	x0,x0,0	  x0:0x00000000
       37665000	      3765	80002b8c	02c0036f	jal	x6,80002b8c	  x6=0x80002b8c
       37675000	      3766	00000000	00000013	addi	x0,x0,0	  x0:0x00000000
       37685000	      3767	80002bb4	00000013	addi	x0,x0,0	  x0:0x00000000
       37695000	      3768	80002bb8	fedff0ef	jal	x1,80002bb8	  x1=0x80002bb8
       37705000	      3769	00000000	00000013	addi	x0,x0,0	  x0:0x00000000
       37715000	      3770	80002ba0	00000013	addi	x0,x0,0	  x0:0x00000000
       37725000	      3771	80002ba4	ffdff0ef	jal	x1,80002ba4	  x1=0x80002ba4
       37735000	      3772	00000000	00000013	addi	x0,x0,0	  x0:0x00000000
       37745000	      3773	80002b9c	00000013	addi	x0,x0,0	  x0:0x00000000
       37755000	      3774	80002ba0	ff5ff36f	jal	x6,80002ba0	  x6=0x80002ba0
       37765000	      3775	00000000	00000013	addi	x0,x0,0	  x0:0x00000000
       37775000	      3776	80002b90	00000013	addi	x0,x0,0	  x0:0x00000000
       37785000	      3777	80002b94	028000ef	jal	x1,80002b94	  x1=0x80002b94
       37795000	      3778	00000000	00000013	addi	x0,x0,0	  x0:0x00000000
       37805000	      3779	80002bb8	00000013	addi	x0,x0,0	  x0:0x00000000
       37815000	      3780	80002bbc	00a6b333	sltu	x6,x13,x10	 x13:0x80002b88 x10:0x00000001  x6=0x00000000
       37825000	      3781	80002bc0	024006ef	jal	x13,80002bc0	 x13=0x80002bc0
       37835000	      3782	00000000	00000013	addi	x0,x0,0	  x0:0x00000000
       37845000	      3783	80002be0	00000013	addi	x0,x0,0	  x0:0x00000000
       37855000	      3784	80002be4	044000ef	jal	x1,80002be4	  x1=0x80002be4
       37865000	      3785	00000000	00000013	addi	x0,x0,0	  x0:0x00000000
       37875000	      3786	80002c24	00000013	addi	x0,x0,0	  x0:0x00000000
       37885000	      3787	80002c28	004000ef	jal	x1,80002c28	  x1=0x80002c28
       37895000	      3788	00000000	00000013	addi	x0,x0,0	  x0:0x00000000
       37905000	      3789	80002c28	00000013	addi	x0,x0,0	  x0:0x00000000
       37915000	      3790	80002c2c	fa1ffbef	jal	x23,80002c2c	 x23=0x80002c2c
       37925000	      3791	00000000	00000013	addi	x0,x0,0	  x0:0x00000000
       37935000	      3792	80002bc8	00000013	addi	x0,x0,0	  x0:0x00000000
       37945000	      3793	80002bcc	00c001ef	jal	x3,80002bcc	  x3=0x80002bcc
       37955000	      3794	00000000	00000013	addi	x0,x0,0	  x0:0x00000000
       37965000	      3795	80002bd4	00000013	addi	x0,x0,0	  x0:0x00000000
       37975000	      3796	80002bd8	014001ef	jal	x3,80002bd8	  x3=0x80002bd8
       37985000	      3797	00000000	00000013	addi	x0,x0,0	  x0:0x00000000
       37995000	      3798	80002be8	00000013	addi	x0,x0,0	  x0:0x00000000
       38005000	      3799	80002bec	028000ef	jal	x1,80002bec	  x1=0x80002bec
       38015000	      3800	00000000	00000013	addi	x0,x0,0	  x0:0x00000000
       38025000	      3801	80002c10	00000013	addi	x0,x0,0	  x0:0x00000000
       38035000	      3802	80002c14	ff9ff36f	jal	x6,80002c14	  x6=0x80002c14
       38045000	      3803	00000000	00000013	addi	x0,x0,0	  x0:0x00000000
       38055000	      3804	80002c08	00000013	addi	x0,x0,0	  x0:0x00000000
       38065000	      3805	80002c0c	fc5ff2ef	jal	x5,80002c0c	  x5=0x80002c0c
       38075000	      3806	00000000	00000013	addi	x0,x0,0	  x0:0x00000000
       38085000	      3807	80002bcc	00000013	addi	x0,x0,0	  x0:0x00000000
       38095000	      3808	80002bd0	0600036f	jal	x6,80002bd0	  x6=0x80002bd0
       38105000	      3809	00000000	00000013	addi	x0,x0,0	  x0:0x00000000
       38115000	      3810	80002c2c	00000013	addi	x0,x0,0	  x0:0x00000000
       38125000	      3811	80002c30	ff1ff0ef	jal	x1,80002c30	  x1=0x80002c30
       38135000	      3812	00000000	00000013	addi	x0,x0,0	  x0:0x00000000
       38145000	      3813	80002c1c	00000013	addi	x0,x0,0	  x0:0x00000000
       38155000	      3814	80002c20	fa5ff0ef	jal	x1,80002c20	  x1=0x80002c20
       38165000	      3815	00000000	00000013	addi	x0,x0,0	  x0:0x00000000
       38175000	      3816	80002bc0	00000013	addi	x0,x0,0	  x0:0x00000000
       38185000	      3817	80002bc4	0440056f	jal	x10,80002bc4	 x10=0x80002bc4
       38195000	      3818	00000000	00000013	addi	x0,x0,0	  x0:0x00000000
       38205000	      3819	80002c04	00000013	addi	x0,x0,0	  x0:0x00000000
       38215000	      3820	80002c08	fcdff0ef	jal	x1,80002c08	  x1=0x80002c08
       38225000	      3821	00000000	00000013	addi	x0,x0,0	  x0:0x00000000
       38235000	      3822	80002bd0	00000013	addi	x0,x0,0	  x0:0x00000000
       38245000	      3823	80002bd4	01c004ef	jal	x9,80002bd4	  x9=0x80002bd4
       38255000	      3824	00000000	00000013	addi	x0,x0,0	  x0:0x00000000
       38265000	      3825	80002bec	00000013	addi	x0,x0,0	  x0:0x00000000
       38275000	      3826	80002bf0	0440026f	jal	x4,80002bf0	  x4=0x80002bf0
       38285000	      3827	00000000	00000013	addi	x0,x0,0	  x0:0x00000000
       38295000	      3828	80002c30	00000013	addi	x0,x0,0	  x0:0x00000000
       38305000	      3829	80002c34	fe5ff36f	jal	x6,80002c34	  x6=0x80002c34
       38315000	      3830	00000000	00000013	addi	x0,x0,0	  x0:0x00000000
       38325000	      3831	80002c14	00000013	addi	x0,x0,0	  x0:0x00000000
       38335000	      3832	80002c18	fedffb6f	jal	x22,80002c18	 x22=0x80002c18
       38345000	      3833	00000000	00000013	addi	x0,x0,0	  x0:0x00000000
       38355000	      3834	80002c00	00000013	addi	x0,x0,0	  x0:0x00000000
       38365000	      3835	80002c04	fc5ff36f	jal	x6,80002c04	  x6=0x80002c04
       38375000	      3836	00000000	00000013	addi	x0,x0,0	  x0:0x00000000
       38385000	      3837	80002bc4	00000013	addi	x0,x0,0	  x0:0x00000000
       38395000	      3838	80002bc8	020000ef	jal	x1,80002bc8	  x1=0x80002bc8
       38405000	      3839	00000000	00000013	addi	x0,x0,0	  x0:0x00000000
       38415000	      3840	80002be4	00000013	addi	x0,x0,0	  x0:0x00000000
       38425000	      3841	80002be8	00c000ef	jal	x1,80002be8	  x1=0x80002be8
       38435000	      3842	00000000	00000013	addi	x0,x0,0	  x0:0x00000000
       38445000	      3843	80002bf0	00000013	addi	x0,x0,0	  x0:0x00000000
       38455000	      3844	80002bf4	008000ef	jal	x1,80002bf4	  x1=0x80002bf4
       38465000	      3845	00000000	00000013	addi	x0,x0,0	  x0:0x00000000
       38475000	      3846	80002bf8	00000013	addi	x0,x0,0	  x0:0x00000000
       38485000	      3847	80002bfc	ffdff0ef	jal	x1,80002bfc	  x1=0x80002bfc
       38495000	      3848	00000000	00000013	addi	x0,x0,0	  x0:0x00000000
       38505000	      3849	80002bf4	00000013	addi	x0,x0,0	  x0:0x00000000
       38515000	      3850	80002bf8	fe5ff0ef	jal	x1,80002bf8	  x1=0x80002bf8
       38525000	      3851	00000000	00000013	addi	x0,x0,0	  x0:0x00000000
       38535000	      3852	80002bd8	00000013	addi	x0,x0,0	  x0:0x00000000
       38545000	      3853	80002bdc	0040076f	jal	x14,80002bdc	 x14=0x80002bdc
       38555000	      3854	00000000	00000013	addi	x0,x0,0	  x0:0x00000000
       38565000	      3855	80002bdc	00000013	addi	x0,x0,0	  x0:0x00000000
       38575000	      3856	80002be0	044000ef	jal	x1,80002be0	  x1=0x80002be0
       38585000	      3857	00000000	00000013	addi	x0,x0,0	  x0:0x00000000
       38595000	      3858	80002c20	00000013	addi	x0,x0,0	  x0:0x00000000
       38605000	      3859	80002c24	ff9ff0ef	jal	x1,80002c24	  x1=0x80002c24
       38615000	      3860	00000000	00000013	addi	x0,x0,0	  x0:0x00000000
       38625000	      3861	80002c18	00000013	addi	x0,x0,0	  x0:0x00000000
       38635000	      3862	80002c1c	ff5ff0ef	jal	x1,80002c1c	  x1=0x80002c1c
       38645000	      3863	00000000	00000013	addi	x0,x0,0	  x0:0x00000000
       38655000	      3864	80002c0c	00000013	addi	x0,x0,0	  x0:0x00000000
       38665000	      3865	80002c10	ff1ff36f	jal	x6,80002c10	  x6=0x80002c10
       38675000	      3866	00000000	00000013	addi	x0,x0,0	  x0:0x00000000
       38685000	      3867	80002bfc	00000013	addi	x0,x0,0	  x0:0x00000000
       38695000	      3868	80002c00	038000ef	jal	x1,80002c00	  x1=0x80002c00
       38705000	      3869	00000000	00000013	addi	x0,x0,0	  x0:0x00000000
       38715000	      3870	80002c34	00000013	addi	x0,x0,0	  x0:0x00000000
       38725000	      3871	80002c38	7eb48293	addi	x5,x9,2027	  x9:0x80002bd4  x5=0x800033bf
       38735000	      3872	80002c3c	018006ef	jal	x13,80002c3c	 x13=0x80002c3c
       38745000	      3873	00000000	00000013	addi	x0,x0,0	  x0:0x00000000
       38755000	      3874	80002c50	00000013	addi	x0,x0,0	  x0:0x00000000
       38765000	      3875	80002c54	01c000ef	jal	x1,80002c54	  x1=0x80002c54
       38775000	      3876	00000000	00000013	addi	x0,x0,0	  x0:0x00000000
       38785000	      3877	80002c6c	00000013	addi	x0,x0,0	  x0:0x00000000
       38795000	      3878	80002c70	ff9ff0ef	jal	x1,80002c70	  x1=0x80002c70
       38805000	      3879	00000000	00000013	addi	x0,x0,0	  x0:0x00000000
       38815000	      3880	80002c64	00000013	addi	x0,x0,0	  x0:0x00000000
       38825000	      3881	80002c68	ff5ff0ef	jal	x1,80002c68	  x1=0x80002c68
       38835000	      3882	00000000	00000013	addi	x0,x0,0	  x0:0x00000000
       38845000	      3883	80002c58	00000013	addi	x0,x0,0	  x0:0x00000000
       38855000	      3884	80002c5c	004001ef	jal	x3,80002c5c	  x3=0x80002c5c
       38865000	      3885	00000000	00000013	addi	x0,x0,0	  x0:0x00000000
       38875000	      3886	80002c5c	00000013	addi	x0,x0,0	  x0:0x00000000
       38885000	      3887	80002c60	fe9ffbef	jal	x23,80002c60	 x23=0x80002c60
       38895000	      3888	00000000	00000013	addi	x0,x0,0	  x0:0x00000000
       38905000	      3889	80002c44	00000013	addi	x0,x0,0	  x0:0x00000000
       38915000	      3890	80002c48	01c000ef	jal	x1,80002c48	  x1=0x80002c48
       38925000	      3891	00000000	00000013	addi	x0,x0,0	  x0:0x00000000
       38935000	      3892	80002c60	00000013	addi	x0,x0,0	  x0:0x00000000
       38945000	      3893	80002c64	fedff36f	jal	x6,80002c64	  x6=0x80002c64
       38955000	      3894	00000000	00000013	addi	x0,x0,0	  x0:0x00000000
       38965000	      3895	80002c4c	00000013	addi	x0,x0,0	  x0:0x00000000
       38975000	      3896	80002c50	ff5ffd6f	jal	x26,80002c50	 x26=0x80002c50
       38985000	      3897	00000000	00000013	addi	x0,x0,0	  x0:0x00000000
       38995000	      3898	80002c40	00000013	addi	x0,x0,0	  x0:0x00000000
       39005000	      3899	80002c44	0280016f	jal	x2,80002c44	  x2=0x80002c44
       39015000	      3900	00000000	00000013	addi	x0,x0,0	  x0:0x00000000
       39025000	      3901	80002c68	00000013	addi	x0,x0,0	  x0:0x00000000
       39035000	      3902	80002c6c	fd5ff0ef	jal	x1,80002c6c	  x1=0x80002c6c
       39045000	      3903	00000000	00000013	addi	x0,x0,0	  x0:0x00000000
       39055000	      3904	80002c3c	00000013	addi	x0,x0,0	  x0:0x00000000
       39065000	      3905	80002c40	00c000ef	jal	x1,80002c40	  x1=0x80002c40
       39075000	      3906	00000000	00000013	addi	x0,x0,0	  x0:0x00000000
       39085000	      3907	80002c48	00000013	addi	x0,x0,0	  x0:0x00000000
       39095000	      3908	80002c4c	00c0036f	jal	x6,80002c4c	  x6=0x80002c4c
       39105000	      3909	00000000	00000013	addi	x0,x0,0	  x0:0x00000000
       39115000	      3910	80002c54	00000013	addi	x0,x0,0	  x0:0x00000000
       39125000	      3911	80002c58	01c0036f	jal	x6,80002c58	  x6=0x80002c58
       39135000	      3912	00000000	00000013	addi	x0,x0,0	  x0:0x00000000
       39145000	      3913	80002c70	00000013	addi	x0,x0,0	  x0:0x00000000
       39155000	      3914	80002c74	f33641b7	lui	x3,0xf3364	  x3=0xf3364000
       39165000	      3915	80002c78	048006ef	jal	x13,80002c78	 x13=0x80002c78
       39175000	      3916	00000000	00000013	addi	x0,x0,0	  x0:0x00000000
       39185000	      3917	80002cbc	00000013	addi	x0,x0,0	  x0:0x00000000
       39195000	      3918	80002cc0	fd1ff0ef	jal	x1,80002cc0	  x1=0x80002cc0
       39205000	      3919	00000000	00000013	addi	x0,x0,0	  x0:0x00000000
       39215000	      3920	80002c8c	00000013	addi	x0,x0,0	  x0:0x00000000
       39225000	      3921	80002c90	0140036f	jal	x6,80002c90	  x6=0x80002c90
       39235000	      3922	00000000	00000013	addi	x0,x0,0	  x0:0x00000000
       39245000	      3923	80002ca0	00000013	addi	x0,x0,0	  x0:0x00000000
       39255000	      3924	80002ca4	fe1ff0ef	jal	x1,80002ca4	  x1=0x80002ca4
       39265000	      3925	00000000	00000013	addi	x0,x0,0	  x0:0x00000000
       39275000	      3926	80002c80	00000013	addi	x0,x0,0	  x0:0x00000000
       39285000	      3927	80002c84	ff9ff0ef	jal	x1,80002c84	  x1=0x80002c84
       39295000	      3928	00000000	00000013	addi	x0,x0,0	  x0:0x00000000
       39305000	      3929	80002c78	00000013	addi	x0,x0,0	  x0:0x00000000
       39315000	      3930	80002c7c	048001ef	jal	x3,80002c7c	  x3=0x80002c7c
       39325000	      3931	00000000	00000013	addi	x0,x0,0	  x0:0x00000000
       39335000	      3932	80002cc0	00000013	addi	x0,x0,0	  x0:0x00000000
       39345000	      3933	80002cc4	fd1ff0ef	jal	x1,80002cc4	  x1=0x80002cc4
       39355000	      3934	00000000	00000013	addi	x0,x0,0	  x0:0x00000000
       39365000	      3935	80002c90	00000013	addi	x0,x0,0	  x0:0x00000000
       39375000	      3936	80002c94	034004ef	jal	x9,80002c94	  x9=0x80002c94
       39385000	      3937	00000000	00000013	addi	x0,x0,0	  x0:0x00000000
       39395000	      3938	80002cc4	00000013	addi	x0,x0,0	  x0:0x00000000
       39405000	      3939	80002cc8	fc5ff0ef	jal	x1,80002cc8	  x1=0x80002cc8
       39415000	      3940	00000000	00000013	addi	x0,x0,0	  x0:0x00000000
       39425000	      3941	80002c88	00000013	addi	x0,x0,0	  x0:0x00000000
       39435000	      3942	80002c8c	0200066f	jal	x12,80002c8c	 x12=0x80002c8c
       39445000	      3943	00000000	00000013	addi	x0,x0,0	  x0:0x00000000
       39455000	      3944	80002ca8	00000013	addi	x0,x0,0	  x0:0x00000000
       39465000	      3945	80002cac	0040036f	jal	x6,80002cac	  x6=0x80002cac
       39475000	      3946	00000000	00000013	addi	x0,x0,0	  x0:0x00000000
       39485000	      3947	80002cac	00000013	addi	x0,x0,0	  x0:0x00000000
       39495000	      3948	80002cb0	008000ef	jal	x1,80002cb0	  x1=0x80002cb0
       39505000	      3949	00000000	00000013	addi	x0,x0,0	  x0:0x00000000
       39515000	      3950	80002cb4	00000013	addi	x0,x0,0	  x0:0x00000000
       39525000	      3951	80002cb8	fd1ff36f	jal	x6,80002cb8	  x6=0x80002cb8
       39535000	      3952	00000000	00000013	addi	x0,x0,0	  x0:0x00000000
       39545000	      3953	80002c84	00000013	addi	x0,x0,0	  x0:0x00000000
       39555000	      3954	80002c88	0200056f	jal	x10,80002c88	 x10=0x80002c88
       39565000	      3955	00000000	00000013	addi	x0,x0,0	  x0:0x00000000
       39575000	      3956	80002ca4	00000013	addi	x0,x0,0	  x0:0x00000000
       39585000	      3957	80002ca8	0140036f	jal	x6,80002ca8	  x6=0x80002ca8
       39595000	      3958	00000000	00000013	addi	x0,x0,0	  x0:0x00000000
       39605000	      3959	80002cb8	00000013	addi	x0,x0,0	  x0:0x00000000
       39615000	      3960	80002cbc	fe5ffbef	jal	x23,80002cbc	 x23=0x80002cbc
       39625000	      3961	00000000	00000013	addi	x0,x0,0	  x0:0x00000000
       39635000	      3962	80002c9c	00000013	addi	x0,x0,0	  x0:0x00000000
       39645000	      3963	80002ca0	014000ef	jal	x1,80002ca0	  x1=0x80002ca0
       39655000	      3964	00000000	00000013	addi	x0,x0,0	  x0:0x00000000
       39665000	      3965	80002cb0	00000013	addi	x0,x0,0	  x0:0x00000000
       39675000	      3966	80002cb4	fe5ff4ef	jal	x9,80002cb4	  x9=0x80002cb4
       39685000	      3967	00000000	00000013	addi	x0,x0,0	  x0:0x00000000
       39695000	      3968	80002c94	00000013	addi	x0,x0,0	  x0:0x00000000
       39705000	      3969	80002c98	fe9ff0ef	jal	x1,80002c98	  x1=0x80002c98
       39715000	      3970	00000000	00000013	addi	x0,x0,0	  x0:0x00000000
       39725000	      3971	80002c7c	00000013	addi	x0,x0,0	  x0:0x00000000
       39735000	      3972	80002c80	01c001ef	jal	x3,80002c80	  x3=0x80002c80
       39745000	      3973	00000000	00000013	addi	x0,x0,0	  x0:0x00000000
       39755000	      3974	80002c98	00000013	addi	x0,x0,0	  x0:0x00000000
       39765000	      3975	80002c9c	0300066f	jal	x12,80002c9c	 x12=0x80002c9c
       39775000	      3976	00000000	00000013	addi	x0,x0,0	  x0:0x00000000
       39785000	      3977	80002cc8	00000013	addi	x0,x0,0	  x0:0x00000000
       39795000	      3978	80002ccc	d0f88693	addi	x13,x17,-753	 x17:0x80002b78 x13=0x80002887
       39805000	      3979	80002cd0	018e12b3	sll	x5,x28,x24	 x28:0x800027c4 x24:0x80009f4c  x5=0x027c4000
       39815000	      3980	80002cd4	a8374f97	auipc	x31,0xa8374	 x31=0x28376cd0
       39825000	      3981	80002cd8	3df6e113	ori	x2,x13,991	 x13:0x80002887  x2=0x80002bdf
       39835000	      3982	80002cdc	00f3d463	bge	x7,x15,80002ce4	  x7:0x8000454c x15:0x80002b3c
       39845000	      3983	00000000	00000013	addi	x0,x0,0	  x0:0x00000000
       39855000	      3984	80002ce0	00000013	addi	x0,x0,0	  x0:0x00000000
       39865000	      3985	80002ce4	309d6f93	ori	x31,x26,777	 x26:0x80002c50 x31=0x80002f59
       39875000	      3986	80002ce8	a427e137	lui	x2,0xa427e	  x2=0xa427e000
       39885000	      3987	80002cec	4beca117	auipc	x2,0x4beca	  x2=0xcbeccce8
       39895000	      3988	80002cf0	01b0b533	sltu	x10,x1,x27	  x1:0x80002c98 x27:0x80002b98 x10=0x00000000
       39905000	      3989	80002cf4	00000013	addi	x0,x0,0	  x0:0x00000000
       39915000	      3990	80002cf8	54652b97	auipc	x23,0x54652	 x23=0xd4654cf4
       39925000	      3991	80002cfc	035f1063	bne	x30,x21,80002d1c	 x30:0x800027c8 x21:0x80002948
       39935000	      3992	00000000	00000013	addi	x0,x0,0	  x0:0x00000000
       39945000	      3993	80002d18	00000013	addi	x0,x0,0	  x0:0x00000000
       39955000	      3994	80002d1c	01507fb3	and	x31,x0,x21	  x0:0x00000000 x21:0x80002948 x31=0x00000000
       39965000	      3995	80002d20	02286663	bltu	x16,x2,80002d4c	 x16:0x80002b2c  x2:0xcbeccce8
       39975000	      3996	00000000	00000013	addi	x0,x0,0	  x0:0x00000000
       39985000	      3997	80002d48	00000013	addi	x0,x0,0	  x0:0x00000000
       39995000	      3998	80002d4c	0044a1b3	slt	x3,x9,x4	  x9:0x80002cb4  x4:0x80002bf0  x3=0x00000000
       40005000	      3999	80002d50	012e9bb3	sll	x23,x29,x18	 x29:0x800028d8 x18:0x80009fc4 x23=0x00028d80
       40015000	      4000	80002d54	019c63b3	or	x7,x24,x25	 x24:0x80009f4c x25:0x80002930  x7=0x8000bf7c
       40025000	      4001	80002d58	00000013	addi	x0,x0,0	  x0:0x00000000
       40035000	      4002	80002d5c	51b77513	andi	x10,x14,1307	 x14:0x80002bdc x10=0x00000118
       40045000	      4003	80002d60	027cf463	bgeu	x25,x7,80002d88	 x25:0x80002930  x7:0x8000bf7c
       40055000	      4004	80002d64	40448133	sub	x2,x9,x4	  x9:0x80002cb4  x4:0x80002bf0  x2=0x000000c4
       40065000	      4005	80002d68	01c5d013	srli	x0,x11,0x1c	 x11:0x80002ae8
       40075000	      4006	80002d6c	01805293	srli	x5,x0,0x18	  x0:0x00000000  x5=0x00000000
       40085000	      4007	80002d70	28b9c713	xori	x14,x19,651	 x19:0x80002b4c x14=0x800029c7
       40095000	      4008	80002d74	7a146d13	ori	x26,x8,1953	  x8:0x800029a0 x26=0x80002fa1
       40105000	      4009	80002d78	4d17b793	sltiu	x15,x15,1233	 x15:0x80002b3c x15=0x00000000
       40115000	      4010	80002d7c	05054663	blt	x10,x16,80002dc8	 x10:0x00000118 x16:0x80002b2c
       40125000	      4011	80002d80	005b9d93	slli	x27,x23,0x5	 x23:0x00028d80 x27=0x0051b000
       40135000	      4012	80002d84	017bef33	or	x30,x23,x23	 x23:0x00028d80 x23:0x00028d80 x30=0x00028d80
       40145000	      4013	80002d88	09814693	xori	x13,x2,152	  x2:0x000000c4 x13=0x0000005c
       40155000	      4014	80002d8c	3c536613	ori	x12,x6,965	  x6:0x80002ca8 x12=0x80002fed
       40165000	      4015	80002d90	00841a63	bne	x8,x8,80002da4	  x8:0x800029a0  x8:0x800029a0
       40175000	      4016	80002d94	004b0263	beq	x22,x4,80002d98	 x22:0x80002c18  x4:0x80002bf0
       40185000	      4017	80002d98	01baa833	slt	x16,x21,x27	 x21:0x80002948 x27:0x0051b000 x16=0x00000001
       40195000	      4018	80002d9c	01d15f13	srli	x30,x2,0x1d	  x2:0x000000c4 x30=0x00000000
       40205000	      4019	80002da0	011d1a93	slli	x21,x26,0x11	 x26:0x80002fa1 x21=0x5f420000
       40215000	      4020	80002da4	00f157b3	srl	x15,x2,x15	  x2:0x000000c4 x15:0x00000000 x15=0x000000c4
       40225000	      4021	80002da8	0537e663	bltu	x15,x19,80002df4	 x15:0x000000c4 x19:0x80002b4c
       40235000	      4022	00000000	00000013	addi	x0,x0,0	  x0:0x00000000
       40245000	      4023	80002df0	00000013	addi	x0,x0,0	  x0:0x00000000
       40255000	      4024	80002df4	05276863	bltu	x14,x18,80002e44	 x14:0x800029c7 x18:0x80009fc4
       40265000	      4025	00000000	00000013	addi	x0,x0,0	  x0:0x00000000
       40275000	      4026	80002e40	00000013	addi	x0,x0,0	  x0:0x00000000
       40285000	      4027	80002e44	012fcf33	xor	x30,x31,x18	 x31:0x00000000 x18:0x80009fc4 x30=0x80009fc4
       40295000	      4028	80002e48	4c47ae13	slti	x28,x15,1220	 x15:0x000000c4 x28=0x00000001
       40305000	      4029	80002e4c	04dbc263	blt	x23,x13,80002e90	 x23:0x00028d80 x13:0x0000005c
       40315000	      4030	80002e50	25fd4193	xori	x3,x26,607	 x26:0x80002fa1  x3=0x80002dfe
       40325000	      4031	80002e54	418b5213	srai	x4,x22,0x18	 x22:0x80002c18  x4=0xffffff80
       40335000	      4032	80002e58	418ad393	srai	x7,x21,0x18	 x21:0x5f420000  x7=0x0000005f
       40345000	      4033	80002e5c	00000013	addi	x0,x0,0	  x0:0x00000000
       40355000	      4034	80002e60	56592113	slti	x2,x18,1381	 x18:0x80009fc4  x2=0x00000001
       40365000	      4035	80002e64	0131cfb3	xor	x31,x3,x19	  x3:0x80002dfe x19:0x80002b4c x31=0x000006b2
       40375000	      4036	80002e68	ddb588b7	lui	x17,0xddb58	 x17=0xddb58000
       40385000	      4037	80002e6c	0365fe63	bgeu	x11,x22,80002ea8	 x11:0x80002ae8 x22:0x80002c18
       40395000	      4038	80002e70	00cc5b13	srli	x22,x24,0xc	 x24:0x80009f4c x22=0x00080009
       40405000	      4039	80002e74	40015d13	srai	x26,x2,0x0	  x2:0x00000001 x26=0x00000001
       40415000	      4040	80002e78	00099833	sll	x16,x19,x0	 x19:0x80002b4c  x0:0x00000000 x16=0x80002b4c
       40425000	      4041	80002e7c	03198863	beq	x19,x17,80002eac	 x19:0x80002b4c x17:0xddb58000
       40435000	      4042	80002e80	0496d663	bge	x13,x9,80002ecc	 x13:0x0000005c  x9:0x80002cb4
       40445000	      4043	00000000	00000013	addi	x0,x0,0	  x0:0x00000000
       40455000	      4044	80002ec8	00000013	addi	x0,x0,0	  x0:0x00000000
       40465000	      4045	80002ecc	00c0b3b3	sltu	x7,x1,x12	  x1:0x80002c98 x12:0x80002fed  x7=0x00000001
       40475000	      4046	80002ed0	04b84663	blt	x16,x11,80002f1c	 x16:0x80002b4c x11:0x80002ae8
       40485000	      4047	80002ed4	0310e463	bltu	x1,x17,80002efc	  x1:0x80002c98 x17:0xddb58000
       40495000	      4048	00000000	00000013	addi	x0,x0,0	  x0:0x00000000
       40505000	      4049	80002ef8	00000013	addi	x0,x0,0	  x0:0x00000000
       40515000	      4050	80002efc	01375a63	bge	x14,x19,80002f10	 x14:0x800029c7 x19:0x80002b4c
       40525000	      4051	80002f00	b8c0ed93	ori	x27,x1,-1140	  x1:0x80002c98 x27=0xffffff9c
       40535000	      4052	80002f04	00759633	sll	x12,x11,x7	 x11:0x80002ae8  x7:0x00000001 x12=0x000055d0
       40545000	      4053	80002f08	00e21013	slli	x0,x4,0xe	  x4:0xffffff80
       40555000	      4054	80002f0c	00d535b3	sltu	x11,x10,x13	 x10:0x00000118 x13:0x0000005c x11=0x00000000
       40565000	      4055	80002f10	40c7d733	sra	x14,x15,x12	 x15:0x000000c4 x12:0x000055d0 x14=0x00000000
       40575000	      4056	80002f14	4f71e413	ori	x8,x3,1271	  x3:0x80002dfe  x8=0x80002dff
       40585000	      4057	80002f18	00694463	blt	x18,x6,80002f20	 x18:0x80009fc4  x6:0x80002ca8
       40595000	      4058	80002f1c	dfe98893	addi	x17,x19,-514	 x19:0x80002b4c x17=0x8000294a
       40605000	      4059	80002f20	030f7463	bgeu	x30,x16,80002f48	 x30:0x80009fc4 x16:0x80002b4c
       40615000	      4060	00000000	00000013	addi	x0,x0,0	  x0:0x00000000
       40625000	      4061	80002f44	00000013	addi	x0,x0,0	  x0:0x00000000
       40635000	      4062	80002f48	008d00b3	add	x1,x26,x8	 x26:0x00000001  x8:0x80002dff  x1=0x80002e00
       40645000	      4063	80002f4c	dcad2297	auipc	x5,0xdcad2	  x5=0x5cad4f48
       40655000	      4064	80002f50	00000013	addi	x0,x0,0	  x0:0x00000000
       40665000	      4065	80002f54	00e24133	xor	x2,x4,x14	  x4:0xffffff80 x14:0x00000000  x2=0xffffff80
       40675000	      4066	80002f58	85e57413	andi	x8,x10,-1954	 x10:0x00000118  x8=0x00000018
       40685000	      4067	80002f5c	07604663	blt	x0,x22,80002fc8	  x0:0x00000000 x22:0x00080009
       40695000	      4068	00000000	00000013	addi	x0,x0,0	  x0:0x00000000
       40705000	      4069	80002fc4	00000013	addi	x0,x0,0	  x0:0x00000000
       40715000	      4070	80002fc8	01158833	add	x16,x11,x17	 x11:0x00000000 x17:0x8000294a x16=0x8000294a
       40725000	      4071	80002fcc	00971263	bne	x14,x9,80002fd0	 x14:0x00000000  x9:0x80002cb4
       40735000	      4072	00000000	00000013	addi	x0,x0,0	  x0:0x00000000
       40745000	      4073	80002fcc	00000013	addi	x0,x0,0	  x0:0x00000000
       40755000	      4074	80002fd0	006f1033	sll	x0,x30,x6	 x30:0x80009fc4  x6:0x80002ca8
       40765000	      4075	80002fd4	01354433	xor	x8,x10,x19	 x10:0x00000118 x19:0x80002b4c  x8=0x80002a54
       40775000	      4076	80002fd8	00c4e9b3	or	x19,x9,x12	  x9:0x80002cb4 x12:0x000055d0 x19=0x80007df4
       40785000	      4077	80002fdc	03d25c63	bge	x4,x29,80003014	  x4:0xffffff80 x29:0x800028d8
       40795000	      4078	00000000	00000013	addi	x0,x0,0	  x0:0x00000000
       40805000	      4079	80003010	00000013	addi	x0,x0,0	  x0:0x00000000
       40815000	      4080	80003014	0147f4b3	and	x9,x15,x20	 x15:0x000000c4 x20:0x00000009  x9=0x00000000
       40825000	      4081	80003018	00f1f1b3	and	x3,x3,x15	  x3:0x80002dfe x15:0x000000c4  x3=0x000000c4
       40835000	      4082	8000301c	01405a63	bge	x0,x20,80003030	  x0:0x00000000 x20:0x00000009
       40845000	      4083	80003020	e98483b7	lui	x7,0xe9848	  x7=0xe9848000
       40855000	      4084	80003024	019ea6b3	slt	x13,x29,x25	 x29:0x800028d8 x25:0x80002930 x13=0x00000001
       40865000	      4085	80003028	40410f33	sub	x30,x2,x4	  x2:0xffffff80  x4:0xffffff80 x30=0x00000000
       40875000	      4086	8000302c	b31a8617	auipc	x12,0xb31a8	 x12=0x331ab028
       40885000	      4087	80003030	04125863	bge	x4,x1,80003080	  x4:0xffffff80  x1:0x80002e00
       40895000	      4088	00000000	00000013	addi	x0,x0,0	  x0:0x00000000
       40905000	      4089	8000307c	00000013	addi	x0,x0,0	  x0:0x00000000
       40915000	      4090	80003080	038d7463	bgeu	x26,x24,800030a8	 x26:0x00000001 x24:0x80009f4c
       40925000	      4091	80003084	042e6463	bltu	x28,x2,800030cc	 x28:0x00000001  x2:0xffffff80
       40935000	      4092	00000000	00000013	addi	x0,x0,0	  x0:0x00000000
       40945000	      4093	800030c8	00000013	addi	x0,x0,0	  x0:0x00000000
       40955000	      4094	800030cc	0008b833	sltu	x16,x17,x0	 x17:0x8000294a  x0:0x00000000 x16=0x00000000
       40965000	      4095	800030d0	40655513	srai	x10,x10,0x6	 x10:0x00000118 x10=0x00000004
       40975000	      4096	800030d4	02f7e063	bltu	x15,x15,800030f4	 x15:0x000000c4 x15:0x000000c4
       40985000	      4097	800030d8	019fceb3	xor	x29,x31,x25	 x31:0x000006b2 x25:0x80002930 x29=0x80002f82
       40995000	      4098	800030dc	0006b3b3	sltu	x7,x13,x0	 x13:0x00000001  x0:0x00000000  x7=0x00000000
       41005000	      4099	800030e0	00000013	addi	x0,x0,0	  x0:0x00000000
       41015000	      4100	800030e4	01fcd233	srl	x4,x25,x31	 x25:0x80002930 x31:0x000006b2  x4=0x00002000
       41025000	      4101	800030e8	010e7033	and	x0,x28,x16	 x28:0x00000001 x16:0x00000000
       41035000	      4102	800030ec	53fa7813	andi	x16,x20,1343	 x20:0x00000009 x16=0x00000009
       41045000	      4103	800030f0	01c7d213	srli	x4,x15,0x1c	 x15:0x000000c4  x4=0x00000000
       41055000	      4104	800030f4	004c75b3	and	x11,x24,x4	 x24:0x80009f4c  x4:0x00000000 x11=0x00000000
       41065000	      4105	800030f8	fa920fb7	lui	x31,0xfa920	 x31=0xfa920000
       41075000	      4106	800030fc	017edb33	srl	x22,x29,x23	 x29:0x80002f82 x23:0x00028d80 x22=0x80002f82
       41085000	      4107	80003100	00274433	xor	x8,x14,x2	 x14:0x00000000  x2:0xffffff80  x8=0xffffff80
       41095000	      4108	80003104	41a4d513	srai	x10,x9,0x1a	  x9:0x00000000 x10=0x00000000
       41105000	      4109	80003108	01301293	slli	x5,x0,0x13	  x0:0x00000000  x5=0x00000000
       41115000	      4110	8000310c	011392b3	sll	x5,x7,x17	  x7:0x00000000 x17:0x8000294a  x5=0x00000000
       41125000	      4111	80003110	7ce14e93	xori	x29,x2,1998	  x2:0xffffff80 x29=0xfffff84e
       41135000	      4112	80003114	16d5b313	sltiu	x6,x11,365	 x11:0x00000000  x6=0x00000001
       41145000	      4113	80003118	03e8e063	bltu	x17,x30,80003138	 x17:0x8000294a x30:0x00000000
       41155000	      4114	8000311c	02d6ce63	blt	x13,x13,80003158	 x13:0x00000001 x13:0x00000001
       41165000	      4115	80003120	001e5eb3	srl	x29,x28,x1	 x28:0x00000001  x1:0x80002e00 x29=0x00000001
       41175000	      4116	80003124	040a1463	bne	x20,x0,8000316c	 x20:0x00000009  x0:0x00000000
       41185000	      4117	00000000	00000013	addi	x0,x0,0	  x0:0x00000000
       41195000	      4118	80003168	00000013	addi	x0,x0,0	  x0:0x00000000
       41205000	      4119	8000316c	007abcb3	sltu	x25,x21,x7	 x21:0x5f420000  x7:0x00000000 x25=0x00000000
       41215000	      4120	80003170	07de0a63	beq	x28,x29,800031e4	 x28:0x00000001 x29:0x00000001
       41225000	      4121	00000000	00000013	addi	x0,x0,0	  x0:0x00000000
       41235000	      4122	800031e0	00000013	addi	x0,x0,0	  x0:0x00000000
       41245000	      4123	800031e4	0058db93	srli	x23,x17,0x5	 x17:0x8000294a x23=0x0400014a
       41255000	      4124	800031e8	d059eb93	ori	x23,x19,-763	 x19:0x80007df4 x23=0xfffffdf5
       41265000	      4125	800031ec	57e92b13	slti	x22,x18,1406	 x18:0x80009fc4 x22=0x00000001
       41275000	      4126	800031f0	415201b3	sub	x3,x4,x21	  x4:0x00000000 x21:0x5f420000  x3=0xa0be0000
       41285000	      4127	800031f4	03af6463	bltu	x30,x26,8000321c	 x30:0x00000000 x26:0x00000001
       41295000	      4128	00000000	00000013	addi	x0,x0,0	  x0:0x00000000
       41305000	      4129	80003218	00000013	addi	x0,x0,0	  x0:0x00000000
       41315000	      4130	8000321c	0025b433	sltu	x8,x11,x2	 x11:0x00000000  x2:0xffffff80  x8=0x00000001
       41325000	      4131	80003220	018133b3	sltu	x7,x2,x24	  x2:0xffffff80 x24:0x80009f4c  x7=0x00000000
       41335000	      4132	80003224	004006ef	jal	x13,80003224	 x13=0x80003224
       41345000	      4133	00000000	00000013	addi	x0,x0,0	  x0:0x00000000
       41355000	      4134	80003224	00000013	addi	x0,x0,0	  x0:0x00000000
       41365000	      4135	80003228	018000ef	jal	x1,80003228	  x1=0x80003228
       41375000	      4136	00000000	00000013	addi	x0,x0,0	  x0:0x00000000
       41385000	      4137	8000323c	00000013	addi	x0,x0,0	  x0:0x00000000
       41395000	      4138	80003240	0080036f	jal	x6,80003240	  x6=0x80003240
       41405000	      4139	00000000	00000013	addi	x0,x0,0	  x0:0x00000000
       41415000	      4140	80003244	00000013	addi	x0,x0,0	  x0:0x00000000
       41425000	      4141	80003248	fe5ff0ef	jal	x1,80003248	  x1=0x80003248
       41435000	      4142	00000000	00000013	addi	x0,x0,0	  x0:0x00000000
       41445000	      4143	80003228	00000013	addi	x0,x0,0	  x0:0x00000000
       41455000	      4144	8000322c	008000ef	jal	x1,8000322c	  x1=0x8000322c
       41465000	      4145	00000000	00000013	addi	x0,x0,0	  x0:0x00000000
       41475000	      4146	80003230	00000013	addi	x0,x0,0	  x0:0x00000000
       41485000	      4147	80003234	0100036f	jal	x6,80003234	  x6=0x80003234
       41495000	      4148	00000000	00000013	addi	x0,x0,0	  x0:0x00000000
       41505000	      4149	80003240	00000013	addi	x0,x0,0	  x0:0x00000000
       41515000	      4150	80003244	008000ef	jal	x1,80003244	  x1=0x80003244
       41525000	      4151	00000000	00000013	addi	x0,x0,0	  x0:0x00000000
       41535000	      4152	80003248	00000013	addi	x0,x0,0	  x0:0x00000000
       41545000	      4153	8000324c	fe5ff0ef	jal	x1,8000324c	  x1=0x8000324c
       41555000	      4154	00000000	00000013	addi	x0,x0,0	  x0:0x00000000
       41565000	      4155	8000322c	00000013	addi	x0,x0,0	  x0:0x00000000
       41575000	      4156	80003230	00c000ef	jal	x1,80003230	  x1=0x80003230
       41585000	      4157	00000000	00000013	addi	x0,x0,0	  x0:0x00000000
       41595000	      4158	80003238	00000013	addi	x0,x0,0	  x0:0x00000000
       41605000	      4159	8000323c	ffdff9ef	jal	x19,8000323c	 x19=0x8000323c
       41615000	      4160	00000000	00000013	addi	x0,x0,0	  x0:0x00000000
       41625000	      4161	80003234	00000013	addi	x0,x0,0	  x0:0x00000000
       41635000	      4162	80003238	018006ef	jal	x13,80003238	 x13=0x80003238
       41645000	      4163	00000000	00000013	addi	x0,x0,0	  x0:0x00000000
       41655000	      4164	8000324c	00000013	addi	x0,x0,0	  x0:0x00000000
       41665000	      4165	80003250	403a0533	sub	x10,x20,x3	 x20:0x00000009  x3:0xa0be0000 x10=0x5f420009
       41675000	      4166	80003254	01715fb3	srl	x31,x2,x23	  x2:0xffffff80 x23:0xfffffdf5 x31=0x000007ff
       41685000	      4167	80003258	012a9c93	slli	x25,x21,0x12	 x21:0x5f420000 x25=0x00000000
       41695000	      4168	8000325c	01044433	xor	x8,x8,x16	  x8:0x00000001 x16:0x00000009  x8=0x00000008
       41705000	      4169	80003260	01b28263	beq	x5,x27,80003264	  x5:0x00000000 x27:0xffffff9c
       41715000	      4170	80003264	e4d43d93	sltiu	x27,x8,-435	  x8:0x00000008 x27=0x00000001
       41725000	      4171	80003268	01938a63	beq	x7,x25,8000327c	  x7:0x00000000 x25:0x00000000
       41735000	      4172	00000000	00000013	addi	x0,x0,0	  x0:0x00000000
       41745000	      4173	80003278	00000013	addi	x0,x0,0	  x0:0x00000000
       41755000	      4174	8000327c	3370bdb7	lui	x27,0x3370b	 x27=0x3370b000
       41765000	      4175	80003280	00000013	addi	x0,x0,0	  x0:0x00000000
       41775000	      4176	80003284	05ffc263	blt	x31,x31,800032c8	 x31:0x000007ff x31:0x000007ff
       41785000	      4177	80003288	05aa4863	blt	x20,x26,800032d8	 x20:0x00000009 x26:0x00000001
       41795000	      4178	8000328c	0192d5b3	srl	x11,x5,x25	  x5:0x00000000 x25:0x00000000 x11=0x00000000
       41805000	      4179	80003290	004c1793	slli	x15,x24,0x4	 x24:0x80009f4c x15=0x0009f4c0
       41815000	      4180	80003294	0312dc63	bge	x5,x17,800032cc	  x5:0x00000000 x17:0x8000294a
       41825000	      4181	00000000	00000013	addi	x0,x0,0	  x0:0x00000000
       41835000	      4182	800032c8	00000013	addi	x0,x0,0	  x0:0x00000000
       41845000	      4183	800032cc	012b65b3	or	x11,x22,x18	 x22:0x00000001 x18:0x80009fc4 x11=0x80009fc5
       41855000	      4184	800032d0	00760833	add	x16,x12,x7	 x12:0x331ab028  x7:0x00000000 x16=0x331ab028
       41865000	      4185	800032d4	e6c8a793	slti	x15,x17,-404	 x17:0x8000294a x15=0x00000001
       41875000	      4186	800032d8	01db9613	slli	x12,x23,0x1d	 x23:0xfffffdf5 x12=0xa0000000
       41885000	      4187	800032dc	015aab33	slt	x22,x21,x21	 x21:0x5f420000 x21:0x5f420000 x22=0x00000000
       41895000	      4188	800032e0	016d0cb3	add	x25,x26,x22	 x26:0x00000001 x22:0x00000000 x25=0x00000001
       41905000	      4189	800032e4	01692433	slt	x8,x18,x22	 x18:0x80009fc4 x22:0x00000000  x8=0x00000001
       41915000	      4190	800032e8	059a1263	bne	x20,x25,8000332c	 x20:0x00000009 x25:0x00000001
       41925000	      4191	00000000	00000013	addi	x0,x0,0	  x0:0x00000000
       41935000	      4192	80003328	00000013	addi	x0,x0,0	  x0:0x00000000
       41945000	      4193	8000332c	00000013	addi	x0,x0,0	  x0:0x00000000
       41955000	      4194	80003330	02320ab7	lui	x21,0x2320	 x21=0x02320000
       41965000	      4195	80003334	80c92c97	auipc	x25,0x80c92	 x25=0x00c95330
       41975000	      4196	80003338	007b5bb3	srl	x23,x22,x7	 x22:0x00000000  x7:0x00000000 x23=0x00000000
       41985000	      4197	8000333c	545efb93	andi	x23,x29,1349	 x29:0x00000001 x23=0x00000001
       41995000	      4198	80003340	0279c463	blt	x19,x7,80003368	 x19:0x8000323c  x7:0x00000000
       42005000	      4199	00000000	00000013	addi	x0,x0,0	  x0:0x00000000
       42015000	      4200	80003364	00000013	addi	x0,x0,0	  x0:0x00000000
       42025000	      4201	80003368	01011293	slli	x5,x2,0x10	  x2:0xffffff80  x5=0xff800000
       42035000	      4202	8000336c	000ebdb3	sltu	x27,x29,x0	 x29:0x00000001  x0:0x00000000 x27=0x00000000
       42045000	      4203	80003370	052c8113	addi	x2,x25,82	 x25:0x00c95330  x2=0x00c95382
       42055000	      4204	80003374	01e29193	slli	x3,x5,0x1e	  x5:0xff800000  x3=0x00000000
       42065000	      4205	80003378	009b8d33	add	x26,x23,x9	 x23:0x00000001  x9:0x00000000 x26=0x00000001
       42075000	      4206	8000337c	0501f663	bgeu	x3,x16,800033c8	  x3:0x00000000 x16:0x331ab028
       42085000	      4207	80003380	02840063	beq	x8,x8,800033a0	  x8:0x00000001  x8:0x00000001
       42095000	      4208	00000000	00000013	addi	x0,x0,0	  x0:0x00000000
       42105000	      4209	8000339c	00000013	addi	x0,x0,0	  x0:0x00000000
       42115000	      4210	800033a0	96c6fb97	auipc	x23,0x96c6f	 x23=0x16c7239c
       42125000	      4211	800033a4	402001b3	sub	x3,x0,x2	  x0:0x00000000  x2:0x00c95382  x3=0xff36ac7e
       42135000	      4212	800033a8	01a95333	srl	x6,x18,x26	 x18:0x80009fc4 x26:0x00000001  x6=0x40004fe2
       42145000	      4213	800033ac	355bb093	sltiu	x1,x23,853	 x23:0x16c7239c  x1=0x00000000
       42155000	      4214	800033b0	00665313	srli	x6,x12,0x6	 x12:0xa0000000  x6=0x02800000
       42165000	      4215	800033b4	46257637	lui	x12,0x46257	 x12=0x46257000
       42175000	      4216	800033b8	01ce77b3	and	x15,x28,x28	 x28:0x00000001 x28:0x00000001 x15=0x00000001
       42185000	      4217	800033bc	007fd313	srli	x6,x31,0x7	 x31:0x000007ff  x6=0x0000000f
       42195000	      4218	800033c0	00eddb33	srl	x22,x27,x14	 x27:0x00000000 x14:0x00000000 x22=0x00000000
       42205000	      4219	800033c4	018b38b3	sltu	x17,x22,x24	 x22:0x00000000 x24:0x80009f4c x17=0x00000001
       42215000	      4220	800033c8	40825533	sra	x10,x4,x8	  x4:0x00000000  x8:0x00000001 x10=0x00000000
       42225000	      4221	800033cc	313d8f13	addi	x30,x27,787	 x27:0x00000000 x30=0x00000313
       42235000	      4222	800033d0	024fd063	bge	x31,x4,800033f0	 x31:0x000007ff  x4:0x00000000
       42245000	      4223	00000000	00000013	addi	x0,x0,0	  x0:0x00000000
       42255000	      4224	800033ec	00000013	addi	x0,x0,0	  x0:0x00000000
       42265000	      4225	800033f0	0087c5b3	xor	x11,x15,x8	 x15:0x00000001  x8:0x00000001 x11=0x00000000
       42275000	      4226	800033f4	00ad1113	slli	x2,x26,0xa	 x26:0x00000001  x2=0x00000400
       42285000	      4227	800033f8	41cc5233	sra	x4,x24,x28	 x24:0x80009f4c x28:0x00000001  x4=0xc0004fa6
       42295000	      4228	800033fc	a08ae793	ori	x15,x21,-1528	 x21:0x02320000 x15=0xfffffa08
       42305000	      4229	80003400	00e9f833	and	x16,x19,x14	 x19:0x8000323c x14:0x00000000 x16=0x00000000
       42315000	      4230	80003404	02864663	blt	x12,x8,80003430	 x12:0x46257000  x8:0x00000001
       42325000	      4231	80003408	00b5d193	srli	x3,x11,0xb	 x11:0x00000000  x3=0x00000000
       42335000	      4232	8000340c	0314ce63	blt	x9,x17,80003448	  x9:0x00000000 x17:0x00000001
       42345000	      4233	00000000	00000013	addi	x0,x0,0	  x0:0x00000000
       42355000	      4234	80003444	00000013	addi	x0,x0,0	  x0:0x00000000
       42365000	      4235	80003448	014b9093	slli	x1,x23,0x14	 x23:0x16c7239c  x1=0x39c00000
       42375000	      4236	8000344c	27dce893	ori	x17,x25,637	 x25:0x00c95330 x17=0x00c9537d
       42385000	      4237	80003450	04265863	bge	x12,x2,800034a0	 x12:0x46257000  x2:0x00000400
       42395000	      4238	00000000	00000013	addi	x0,x0,0	  x0:0x00000000
       42405000	      4239	8000349c	00000013	addi	x0,x0,0	  x0:0x00000000
       42415000	      4240	800034a0	013169b3	or	x19,x2,x19	  x2:0x00000400 x19:0x8000323c x19=0x8000363c
       42425000	      4241	800034a4	00000013	addi	x0,x0,0	  x0:0x00000000
       42435000	      4242	800034a8	01b19d33	sll	x26,x3,x27	  x3:0x00000000 x27:0x00000000 x26=0x00000000
       42445000	      4243	800034ac	41f55d93	srai	x27,x10,0x1f	 x10:0x00000000 x27=0x00000000
       42455000	      4244	800034b0	0113bf33	sltu	x30,x7,x17	  x7:0x00000000 x17:0x00c9537d x30=0x00000001
       42465000	      4245	800034b4	4050d5b3	sra	x11,x1,x5	  x1:0x39c00000  x5:0xff800000 x11=0x39c00000
       42475000	      4246	800034b8	01c3eab3	or	x21,x7,x28	  x7:0x00000000 x28:0x00000001 x21=0x00000001
       42485000	      4247	800034bc	41ae5633	sra	x12,x28,x26	 x28:0x00000001 x26:0x00000000 x12=0x00000001
       42495000	      4248	800034c0	01049f13	slli	x30,x9,0x10	  x9:0x00000000 x30=0x00000000
       42505000	      4249	800034c4	0071d213	srli	x4,x3,0x7	  x3:0x00000000  x4=0x00000000
       42515000	      4250	800034c8	379ef113	andi	x2,x29,889	 x29:0x00000001  x2=0x00000001
       42525000	      4251	800034cc	01d0c233	xor	x4,x1,x29	  x1:0x39c00000 x29:0x00000001  x4=0x39c00001
       42535000	      4252	800034d0	040d9663	bne	x27,x0,8000351c	 x27:0x00000000  x0:0x00000000
       42545000	      4253	800034d4	00a57ab3	and	x21,x10,x10	 x10:0x00000000 x10:0x00000000 x21=0x00000000
       42555000	      4254	800034d8	fb4cb393	sltiu	x7,x25,-76	 x25:0x00c95330  x7=0x00000001
       42565000	      4255	800034dc	3aeba017	auipc	x0,0x3aeba	
       42575000	      4256	800034e0	0107c333	xor	x6,x15,x16	 x15:0xfffffa08 x16:0x00000000  x6=0xfffffa08
       42585000	      4257	800034e4	02b71463	bne	x14,x11,8000350c	 x14:0x00000000 x11:0x39c00000
       42595000	      4258	00000000	00000013	addi	x0,x0,0	  x0:0x00000000
       42605000	      4259	80003508	00000013	addi	x0,x0,0	  x0:0x00000000
       42615000	      4260	8000350c	007d1cb3	sll	x25,x26,x7	 x26:0x00000000  x7:0x00000001 x25=0x00000000
       42625000	      4261	80003510	541c6713	ori	x14,x24,1345	 x24:0x80009f4c x14=0x80009f4d
       42635000	      4262	80003514	85b72237	lui	x4,0x85b72	  x4=0x85b72000
       42645000	      4263	80003518	01975213	srli	x4,x14,0x19	 x14:0x80009f4d  x4=0x00000040
       42655000	      4264	8000351c	013a2fb3	slt	x31,x20,x19	 x20:0x00000009 x19:0x8000363c x31=0x00000000
       42665000	      4265	80003520	020d9063	bne	x27,x0,80003540	 x27:0x00000000  x0:0x00000000
       42675000	      4266	80003524	018e6263	bltu	x28,x24,80003528	 x28:0x00000001 x24:0x80009f4c
       42685000	      4267	00000000	00000013	addi	x0,x0,0	  x0:0x00000000
       42695000	      4268	80003524	00000013	addi	x0,x0,0	  x0:0x00000000
       42705000	      4269	80003528	03171863	bne	x14,x17,80003558	 x14:0x80009f4d x17:0x00c9537d
       42715000	      4270	00000000	00000013	addi	x0,x0,0	  x0:0x00000000
       42725000	      4271	80003554	00000013	addi	x0,x0,0	  x0:0x00000000
       42735000	      4272	80003558	00eb8533	add	x10,x23,x14	 x23:0x16c7239c x14:0x80009f4d x10=0x96c7c2e9
       42745000	      4273	8000355c	03558c63	beq	x11,x21,80003594	 x11:0x39c00000 x21:0x00000000
       42755000	      4274	80003560	005ab5b3	sltu	x11,x21,x5	 x21:0x00000000  x5:0xff800000 x11=0x00000001
       42765000	      4275	80003564	c9794113	xori	x2,x18,-873	 x18:0x80009fc4  x2=0x7fff6353
       42775000	      4276	80003568	00784ab3	xor	x21,x16,x7	 x16:0x00000000  x7:0x00000001 x21=0x00000001
       42785000	      4277	8000356c	01156cb3	or	x25,x10,x17	 x10:0x96c7c2e9 x17:0x00c9537d x25=0x96cfd3fd
       42795000	      4278	80003570	05086863	bltu	x16,x16,800035c0	 x16:0x00000000 x16:0x00000000
       42805000	      4279	80003574	417a8333	sub	x6,x21,x23	 x21:0x00000001 x23:0x16c7239c  x6=0xe938dc65
       42815000	      4280	80003578	01b09463	bne	x1,x27,80003580	  x1:0x39c00000 x27:0x00000000
       42825000	      4281	00000000	00000013	addi	x0,x0,0	  x0:0x00000000
       42835000	      4282	8000357c	00000013	addi	x0,x0,0	  x0:0x00000000
       42845000	      4283	80003580	00685d33	srl	x26,x16,x6	 x16:0x00000000  x6:0xe938dc65 x26=0x00000000
       42855000	      4284	80003584	026c4a63	blt	x24,x6,800035b8	 x24:0x80009f4c  x6:0xe938dc65
       42865000	      4285	00000000	00000013	addi	x0,x0,0	  x0:0x00000000
       42875000	      4286	800035b4	00000013	addi	x0,x0,0	  x0:0x00000000
       42885000	      4287	800035b8	40e152b3	sra	x5,x2,x14	  x2:0x7fff6353 x14:0x80009f4d  x5=0x0003fffb
       42895000	      4288	800035bc	0039deb3	srl	x29,x19,x3	 x19:0x8000363c  x3:0x00000000 x29=0x8000363c
       42905000	      4289	800035c0	40210ab3	sub	x21,x2,x2	  x2:0x7fff6353  x2:0x7fff6353 x21=0x00000000
       42915000	      4290	800035c4	00711a63	bne	x2,x7,800035d8	  x2:0x7fff6353  x7:0x00000001
       42925000	      4291	00000000	00000013	addi	x0,x0,0	  x0:0x00000000
       42935000	      4292	800035d4	00000013	addi	x0,x0,0	  x0:0x00000000
       42945000	      4293	800035d8	0159ee63	bltu	x19,x21,800035f4	 x19:0x8000363c x21:0x00000000
       42955000	      4294	800035dc	9f417837	lui	x16,0x9f417	 x16=0x9f417000
       42965000	      4295	800035e0	02bd8463	beq	x27,x11,80003608	 x27:0x00000000 x11:0x00000001
       42975000	      4296	800035e4	0319e063	bltu	x19,x17,80003604	 x19:0x8000363c x17:0x00c9537d
       42985000	      4297	800035e8	00916633	or	x12,x2,x9	  x2:0x7fff6353  x9:0x00000000 x12=0x7fff6353
       42995000	      4298	800035ec	f9ca13b7	lui	x7,0xf9ca1	  x7=0xf9ca1000
       43005000	      4299	800035f0	40a80733	sub	x14,x16,x10	 x16:0x9f417000 x10:0x96c7c2e9 x14=0x0879ad17
       43015000	      4300	800035f4	00b3d213	srli	x4,x7,0xb	  x7:0xf9ca1000  x4=0x001f3942
       43025000	      4301	800035f8	03ea9863	bne	x21,x30,80003628	 x21:0x00000000 x30:0x00000000
       43035000	      4302	800035fc	40ccd113	srai	x2,x25,0xc	 x25:0x96cfd3fd  x2=0xfff96cfd
       43045000	      4303	80003600	00b76cb3	or	x25,x14,x11	 x14:0x0879ad17 x11:0x00000001 x25=0x0879ad17
       43055000	      4304	80003604	400fd093	srai	x1,x31,0x0	 x31:0x00000000  x1=0x00000000
       43065000	      4305	80003608	04600663	beq	x0,x6,80003654	  x0:0x00000000  x6:0xe938dc65
       43075000	      4306	8000360c	02f80c63	beq	x16,x15,80003644	 x16:0x9f417000 x15:0xfffffa08
       43085000	      4307	80003610	00000013	addi	x0,x0,0	  x0:0x00000000
       43095000	      4308	80003614	00000013	addi	x0,x0,0	  x0:0x00000000
       43105000	      4309	80003618	00e79ab3	sll	x21,x15,x14	 x15:0xfffffa08 x14:0x0879ad17 x21=0x04000000
       43115000	      4310	8000361c	f1f26393	ori	x7,x4,-225	  x4:0x001f3942  x7=0xffffff5f
       43125000	      4311	80003620	007c20b3	slt	x1,x24,x7	 x24:0x80009f4c  x7:0xffffff5f  x1=0x00000001
       43135000	      4312	80003624	41c2d793	srai	x15,x5,0x1c	  x5:0x0003fffb x15=0x00000000
       43145000	      4313	80003628	40a60033	sub	x0,x12,x10	 x12:0x7fff6353 x10:0x96c7c2e9
       43155000	      4314	8000362c	ccf83493	sltiu	x9,x16,-817	 x16:0x9f417000  x9=0x00000001
       43165000	      4315	80003630	03c24063	blt	x4,x28,80003650	  x4:0x001f3942 x28:0x00000001
       43175000	      4316	80003634	00d55513	srli	x10,x10,0xd	 x10:0x96c7c2e9 x10=0x0004b63e
       43185000	      4317	80003638	8899cc93	xori	x25,x19,-1911	 x19:0x8000363c x25=0x7fffceb5
       43195000	      4318	8000363c	aab3c293	xori	x5,x7,-1365	  x7:0xffffff5f  x5=0x000005f4
       43205000	      4319	80003640	01b734b3	sltu	x9,x14,x27	 x14:0x0879ad17 x27:0x00000000  x9=0x00000000
       43215000	      4320	80003644	01b2f333	and	x6,x5,x27	  x5:0x000005f4 x27:0x00000000  x6=0x00000000
       43225000	      4321	80003648	d3a98ab7	lui	x21,0xd3a98	 x21=0xd3a98000
       43235000	      4322	8000364c	01800833	add	x16,x0,x24	  x0:0x00000000 x24:0x80009f4c x16=0x80009f4c
       43245000	      4323	80003650	01866733	or	x14,x12,x24	 x12:0x7fff6353 x24:0x80009f4c x14=0xffffff5f
       43255000	      4324	80003654	0265fc63	bgeu	x11,x6,8000368c	 x11:0x00000001  x6:0x00000000
       43265000	      4325	00000000	00000013	addi	x0,x0,0	  x0:0x00000000
       43275000	      4326	80003688	00000013	addi	x0,x0,0	  x0:0x00000000
       43285000	      4327	8000368c	2a089f37	lui	x30,0x2a089	 x30=0x2a089000
       43295000	      4328	80003690	00000013	addi	x0,x0,0	  x0:0x00000000
       43305000	      4329	80003694	c1180393	addi	x7,x16,-1007	 x16:0x80009f4c  x7=0x80009b5d
       43315000	      4330	80003698	92e90d93	addi	x27,x18,-1746	 x18:0x80009fc4 x27=0x800098f2
       43325000	      4331	8000369c	01325313	srli	x6,x4,0x13	  x4:0x001f3942  x6=0x00000003
       43335000	      4332	800036a0	266cba93	sltiu	x21,x25,614	 x25:0x7fffceb5 x21=0x00000000
       43345000	      4333	800036a4	00aa9b93	slli	x23,x21,0xa	 x21:0x00000000 x23=0x00000000
       43355000	      4334	800036a8	52d1ea93	ori	x21,x3,1325	  x3:0x00000000 x21=0x0000052d
       43365000	      4335	800036ac	e94fc313	xori	x6,x31,-364	 x31:0x00000000  x6=0xfffffe94
       43375000	      4336	800036b0	012e7db3	and	x27,x28,x18	 x28:0x00000001 x18:0x80009fc4 x27=0x00000000
       43385000	      4337	800036b4	f5916d13	ori	x26,x2,-167	  x2:0xfff96cfd x26=0xfffffffd
       43395000	      4338	800036b8	016fd193	srli	x3,x31,0x16	 x31:0x00000000  x3=0x00000000
       43405000	      4339	800036bc	418a8ab3	sub	x21,x21,x24	 x21:0x0000052d x24:0x80009f4c x21=0x7fff65e1
       43415000	      4340	800036c0	03414263	blt	x2,x20,800036e4	  x2:0xfff96cfd x20:0x00000009
       43425000	      4341	00000000	00000013	addi	x0,x0,0	  x0:0x00000000
       43435000	      4342	800036e0	00000013	addi	x0,x0,0	  x0:0x00000000
       43445000	      4343	800036e4	00f10263	beq	x2,x15,800036e8	  x2:0xfff96cfd x15:0x00000000
       43455000	      4344	800036e8	0063fd33	and	x26,x7,x6	  x7:0x80009b5d  x6:0xfffffe94 x26=0x80009a14
       43465000	      4345	800036ec	00f46263	bltu	x8,x15,800036f0	  x8:0x00000001 x15:0x00000000
       43475000	      4346	800036f0	05c54493	xori	x9,x10,92	 x10:0x0004b63e  x9=0x0004b662
       43485000	      4347	800036f4	0d7b8f37	lui	x30,0xd7b8	 x30=0x0d7b8000
       43495000	      4348	800036f8	000451b3	srl	x3,x8,x0	  x8:0x00000001  x0:0x00000000  x3=0x00000001
       43505000	      4349	800036fc	e2dccb93	xori	x23,x25,-467	 x25:0x7fffceb5 x23=0x80003098
       43515000	      4350	80003700	a2f58013	addi	x0,x11,-1489	 x11:0x00000001
       43525000	      4351	80003704	0075a7b3	slt	x15,x11,x7	 x11:0x00000001  x7:0x80009b5d x15=0x00000000
       43535000	      4352	80003708	002d7a63	bgeu	x26,x2,8000371c	 x26:0x80009a14  x2:0xfff96cfd
       43545000	      4353	8000370c	40938f33	sub	x30,x7,x9	  x7:0x80009b5d  x9:0x0004b662 x30=0x7ffbe4fb
       43555000	      4354	80003710	b27b3493	sltiu	x9,x22,-1241	 x22:0x00000000  x9=0x00000001
       43565000	      4355	80003714	00a65ab3	srl	x21,x12,x10	 x12:0x7fff6353 x10:0x0004b63e x21=0x00000001
       43575000	      4356	80003718	008d68b3	or	x17,x26,x8	 x26:0x80009a14  x8:0x00000001 x17=0x80009a15
       43585000	      4357	8000371c	089b8a63	beq	x23,x9,800037b0	 x23:0x80003098  x9:0x00000001
       43595000	      4358	80003720	4192d733	sra	x14,x5,x25	  x5:0x000005f4 x25:0x7fffceb5 x14=0x00000000
       43605000	      4359	80003724	0cb0f463	bgeu	x1,x11,800037ec	  x1:0x00000001 x11:0x00000001
       43615000	      4360	00000000	00000013	addi	x0,x0,0	  x0:0x00000000
       43625000	      4361	800037e8	00000013	addi	x0,x0,0	  x0:0x00000000
       43635000	      4362	800037ec	01e18233	add	x4,x3,x30	  x3:0x00000001 x30:0x7ffbe4fb  x4=0x7ffbe4fc
       43645000	      4363	800037f0	26f04c93	xori	x25,x0,623	  x0:0x00000000 x25=0x0000026f
       43655000	      4364	800037f4	4040d7b3	sra	x15,x1,x4	  x1:0x00000001  x4:0x7ffbe4fc x15=0x00000000
       43665000	      4365	800037f8	004a9213	slli	x4,x21,0x4	 x21:0x00000001  x4=0x00000010
       43675000	      4366	800037fc	79824a93	xori	x21,x4,1944	  x4:0x00000010 x21=0x00000788
       43685000	      4367	80003800	05e65663	bge	x12,x30,8000384c	 x12:0x7fff6353 x30:0x7ffbe4fb
       43695000	      4368	00000000	00000013	addi	x0,x0,0	  x0:0x00000000
       43705000	      4369	80003848	00000013	addi	x0,x0,0	  x0:0x00000000
       43715000	      4370	8000384c	9b98c213	xori	x4,x17,-1607	 x17:0x80009a15  x4=0x7fff63ac
       43725000	      4371	80003850	016446b3	xor	x13,x8,x22	  x8:0x00000001 x22:0x00000000 x13=0x00000001
       43735000	      4372	80003854	00000013	addi	x0,x0,0	  x0:0x00000000
       43745000	      4373	80003858	00000013	addi	x0,x0,0	  x0:0x00000000
       43755000	      4374	8000385c	00ba44b3	xor	x9,x20,x11	 x20:0x00000009 x11:0x00000001  x9=0x00000008
       43765000	      4375	80003860	650f7513	andi	x10,x30,1616	 x30:0x7ffbe4fb x10=0x00000450
       43775000	      4376	80003864	8d8a8337	lui	x6,0x8d8a8	  x6=0x8d8a8000
       43785000	      4377	80003868	41cf5633	sra	x12,x30,x28	 x30:0x7ffbe4fb x28:0x00000001 x12=0x3ffdf27d
       43795000	      4378	8000386c	404f8333	sub	x6,x31,x4	 x31:0x00000000  x4:0x7fff63ac  x6=0x80009c54
       43805000	      4379	80003870	f876ce93	xori	x29,x13,-121	 x13:0x00000001 x29=0xffffff86
       43815000	      4380	80003874	05908663	beq	x1,x25,800038c0	  x1:0x00000001 x25:0x0000026f
       43825000	      4381	80003878	019ff3b3	and	x7,x31,x25	 x31:0x00000000 x25:0x0000026f  x7=0x00000000
       43835000	      4382	8000387c	03da5597	auipc	x11,0x3da5	 x11=0x83da8878
       43845000	      4383	80003880	af233e13	sltiu	x28,x6,-1294	  x6:0x80009c54 x28=0x00000001
       43855000	      4384	80003884	01085493	srli	x9,x16,0x10	 x16:0x80009f4c  x9=0x00008000
       43865000	      4385	80003888	543b6d93	ori	x27,x22,1347	 x22:0x00000000 x27=0x00000543
       43875000	      4386	8000388c	1fbd0713	addi	x14,x26,507	 x26:0x80009a14 x14=0x80009c0f
       43885000	      4387	80003890	01540263	beq	x8,x21,80003894	  x8:0x00000001 x21:0x00000788
       43895000	      4388	80003894	01a26463	bltu	x4,x26,8000389c	  x4:0x7fff63ac x26:0x80009a14
       43905000	      4389	00000000	00000013	addi	x0,x0,0	  x0:0x00000000
       43915000	      4390	80003898	00000013	addi	x0,x0,0	  x0:0x00000000
       43925000	      4391	8000389c	01449ab3	sll	x21,x9,x20	  x9:0x00008000 x20:0x00000009 x21=0x01000000
       43935000	      4392	800038a0	01c2f3b3	and	x7,x5,x28	  x5:0x000005f4 x28:0x00000001  x7=0x00000000
       43945000	      4393	800038a4	0027d013	srli	x0,x15,0x2	 x15:0x00000000
       43955000	      4394	800038a8	4018d0b3	sra	x1,x17,x1	 x17:0x80009a15  x1:0x00000001  x1=0xc0004d0a
       43965000	      4395	800038ac	0068eeb3	or	x29,x17,x6	 x17:0x80009a15  x6:0x80009c54 x29=0x80009e55
       43975000	      4396	800038b0	00d4c863	blt	x9,x13,800038c0	  x9:0x00008000 x13:0x00000001
       43985000	      4397	800038b4	4035d033	sra	x0,x11,x3	 x11:0x83da8878  x3:0x00000001
       43995000	      4398	800038b8	001c62b3	or	x5,x24,x1	 x24:0x80009f4c  x1:0xc0004d0a  x5=0xc000df4e
       44005000	      4399	800038bc	6f1fe113	ori	x2,x31,1777	 x31:0x00000000  x2=0x000006f1
       44015000	      4400	800038c0	00000013	addi	x0,x0,0	  x0:0x00000000
       44025000	      4401	800038c4	008aca63	blt	x21,x8,800038d8	 x21:0x01000000  x8:0x00000001
       44035000	      4402	800038c8	0ced97b7	lui	x15,0xced9	 x15=0x0ced9000
       44045000	      4403	800038cc	7e31b493	sltiu	x9,x3,2019	  x3:0x00000001  x9=0x00000001
       44055000	      4404	800038d0	04cb6263	bltu	x22,x12,80003914	 x22:0x00000000 x12:0x3ffdf27d
       44065000	      4405	00000000	00000013	addi	x0,x0,0	  x0:0x00000000
       44075000	      4406	80003910	00000013	addi	x0,x0,0	  x0:0x00000000
       44085000	      4407	80003914	509a3613	sltiu	x12,x20,1289	 x20:0x00000009 x12=0x00000001
       44095000	      4408	80003918	00000013	addi	x0,x0,0	  x0:0x00000000
       44105000	      4409	8000391c	e2f73693	sltiu	x13,x14,-465	 x14:0x80009c0f x13=0x00000001
       44115000	      4410	80003920	01972b33	slt	x22,x14,x25	 x14:0x80009c0f x25:0x0000026f x22=0x00000001
       44125000	      4411	80003924	dfab2e93	slti	x29,x22,-518	 x22:0x00000001 x29=0x00000000
       44135000	      4412	80003928	2d102493	slti	x9,x0,721	  x0:0x00000000  x9=0x00000001
       44145000	      4413	8000392c	00000013	addi	x0,x0,0	  x0:0x00000000
       44155000	      4414	80003930	0149b2b3	sltu	x5,x19,x20	 x19:0x8000363c x20:0x00000009  x5=0x00000000
       44165000	      4415	80003934	b015aa93	slti	x21,x11,-1279	 x11:0x83da8878 x21=0x00000001
       44175000	      4416	80003938	0350e863	bltu	x1,x21,80003968	  x1:0xc0004d0a x21:0x00000001
       44185000	      4417	8000393c	4130db93	srai	x23,x1,0x13	  x1:0xc0004d0a x23=0xfffff800
       44195000	      4418	80003940	01608ab3	add	x21,x1,x22	  x1:0xc0004d0a x22:0x00000001 x21=0xc0004d0b
       44205000	      4419	80003944	0526c863	blt	x13,x18,80003994	 x13:0x00000001 x18:0x80009fc4
       44215000	      4420	80003948	01e59813	slli	x16,x11,0x1e	 x11:0x83da8878 x16=0x00000000
       44225000	      4421	8000394c	01aef133	and	x2,x29,x26	 x29:0x00000000 x26:0x80009a14  x2=0x00000000
       44235000	      4422	80003950	004449b3	xor	x19,x8,x4	  x8:0x00000001  x4:0x7fff63ac x19=0x7fff63ad
       44245000	      4423	80003954	a2beb417	auipc	x8,0xa2beb	  x8=0x22bee950
       44255000	      4424	80003958	419d05b3	sub	x11,x26,x25	 x26:0x80009a14 x25:0x0000026f x11=0x800097a5
       44265000	      4425	8000395c	010b2433	slt	x8,x22,x16	 x22:0x00000001 x16:0x00000000  x8=0x00000000
       44275000	      4426	80003960	01d034b3	sltu	x9,x0,x29	  x0:0x00000000 x29:0x00000000  x9=0x00000000
       44285000	      4427	80003964	01ca6333	or	x6,x20,x28	 x20:0x00000009 x28:0x00000001  x6=0x00000009
       44295000	      4428	80003968	40eb8eb3	sub	x29,x23,x14	 x23:0xfffff800 x14:0x80009c0f x29=0x7fff5bf1
       44305000	      4429	8000396c	0140ab33	slt	x22,x1,x20	  x1:0xc0004d0a x20:0x00000009 x22=0x00000001
       44315000	      4430	80003970	05d50663	beq	x10,x29,800039bc	 x10:0x00000450 x29:0x7fff5bf1
       44325000	      4431	80003974	40340033	sub	x0,x8,x3	  x8:0x00000000  x3:0x00000001
       44335000	      4432	80003978	03f64063	blt	x12,x31,80003998	 x12:0x00000001 x31:0x00000000
       44345000	      4433	8000397c	41e3dd93	srai	x27,x7,0x1e	  x7:0x00000000 x27=0x00000000
       44355000	      4434	80003980	01975f93	srli	x31,x14,0x19	 x14:0x80009c0f x31=0x00000040
       44365000	      4435	80003984	019c03b3	add	x7,x24,x25	 x24:0x80009f4c x25:0x0000026f  x7=0x8000a1bb
       44375000	      4436	80003988	01ff03b3	add	x7,x30,x31	 x30:0x7ffbe4fb x31:0x00000040  x7=0x7ffbe53b
       44385000	      4437	8000398c	fab32b93	slti	x23,x6,-85	  x6:0x00000009 x23=0x00000000
       44395000	      4438	80003990	00617263	bgeu	x2,x6,80003994	  x2:0x00000000  x6:0x00000009
       44405000	      4439	80003994	000370b3	and	x1,x6,x0	  x6:0x00000009  x0:0x00000000  x1=0x00000000
       44415000	      4440	80003998	03eb8263	beq	x23,x30,800039bc	 x23:0x00000000 x30:0x7ffbe4fb
       44425000	      4441	8000399c	415e5313	srai	x6,x28,0x15	 x28:0x00000001  x6=0x00000000
       44435000	      4442	800039a0	5bcbb713	sltiu	x14,x23,1468	 x23:0x00000000 x14=0x00000001
       44445000	      4443	800039a4	002a8e63	beq	x21,x2,800039c0	 x21:0xc0004d0b  x2:0x00000000
       44455000	      4444	800039a8	411450b3	sra	x1,x8,x17	  x8:0x00000000 x17:0x80009a15  x1=0x00000000
       44465000	      4445	800039ac	01246463	bltu	x8,x18,800039b4	  x8:0x00000000 x18:0x80009fc4
       44475000	      4446	00000000	00000013	addi	x0,x0,0	  x0:0x00000000
       44485000	      4447	800039b0	00000013	addi	x0,x0,0	  x0:0x00000000
       44495000	      4448	800039b4	00599f93	slli	x31,x19,0x5	 x19:0x7fff63ad x31=0xffec75a0
       44505000	      4449	800039b8	03549a63	bne	x9,x21,800039ec	  x9:0x00000000 x21:0xc0004d0b
       44515000	      4450	00000000	00000013	addi	x0,x0,0	  x0:0x00000000
       44525000	      4451	800039e8	00000013	addi	x0,x0,0	  x0:0x00000000
       44535000	      4452	800039ec	00f12033	slt	x0,x2,x15	  x2:0x00000000 x15:0x0ced9000
       44545000	      4453	800039f0	3aed8e93	addi	x29,x27,942	 x27:0x00000000 x29=0x000003ae
       44555000	      4454	800039f4	7034bb13	sltiu	x22,x9,1795	  x9:0x00000000 x22=0x00000001
       44565000	      4455	800039f8	b67e2093	slti	x1,x28,-1177	 x28:0x00000001  x1=0x00000000
       44575000	      4456	800039fc	00000013	addi	x0,x0,0	  x0:0x00000000
       44585000	      4457	80003a00	00c54533	xor	x10,x10,x12	 x10:0x00000450 x12:0x00000001 x10=0x00000451
       44595000	      4458	80003a04	000533b3	sltu	x7,x10,x0	 x10:0x00000451  x0:0x00000000  x7=0x00000000
       44605000	      4459	80003a08	0277f063	bgeu	x15,x7,80003a28	 x15:0x0ced9000  x7:0x00000000
       44615000	      4460	00000000	00000013	addi	x0,x0,0	  x0:0x00000000
       44625000	      4461	80003a24	00000013	addi	x0,x0,0	  x0:0x00000000
       44635000	      4462	80003a28	00e1de93	srli	x29,x3,0xe	  x3:0x00000001 x29=0x00000000
       44645000	      4463	80003a2c	a40eb713	sltiu	x14,x29,-1472	 x29:0x00000000 x14=0x00000001
       44655000	      4464	80003a30	08b7ec63	bltu	x15,x11,80003ac8	 x15:0x0ced9000 x11:0x800097a5
       44665000	      4465	00000000	00000013	addi	x0,x0,0	  x0:0x00000000
       44675000	      4466	80003ac4	00000013	addi	x0,x0,0	  x0:0x00000000
       44685000	      4467	80003ac8	b030ad13	slti	x26,x1,-1277	  x1:0x00000000 x26=0x00000000
       44695000	      4468	80003acc	00a91413	slli	x8,x18,0xa	 x18:0x80009fc4  x8=0x027f1000
       44705000	      4469	80003ad0	14742513	slti	x10,x8,327	  x8:0x027f1000 x10=0x00000000
       44715000	      4470	80003ad4	417787b3	sub	x15,x15,x23	 x15:0x0ced9000 x23:0x00000000 x15=0x0ced9000
       44725000	      4471	80003ad8	00543d33	sltu	x26,x8,x5	  x8:0x027f1000  x5:0x00000000 x26=0x00000000
       44735000	      4472	80003adc	2c26c793	xori	x15,x13,706	 x13:0x00000001 x15=0x000002c3
       44745000	      4473	80003ae0	017c9d33	sll	x26,x25,x23	 x25:0x0000026f x23:0x00000000 x26=0x0000026f
       44755000	      4474	80003ae4	402f0133	sub	x2,x30,x2	 x30:0x7ffbe4fb  x2:0x00000000  x2=0x7ffbe4fb
       44765000	      4475	80003ae8	00261863	bne	x12,x2,80003af8	 x12:0x00000001  x2:0x7ffbe4fb
       44775000	      4476	00000000	00000013	addi	x0,x0,0	  x0:0x00000000
       44785000	      4477	80003af4	00000013	addi	x0,x0,0	  x0:0x00000000
       44795000	      4478	80003af8	00000013	addi	x0,x0,0	  x0:0x00000000
       44805000	      4479	80003afc	01cb56b3	srl	x13,x22,x28	 x22:0x00000001 x28:0x00000001 x13=0x00000000
       44815000	      4480	80003b00	0180fdb3	and	x27,x1,x24	  x1:0x00000000 x24:0x80009f4c x27=0x00000000
       44825000	      4481	80003b04	020aee63	bltu	x21,x0,80003b40	 x21:0xc0004d0b  x0:0x00000000
       44835000	      4482	80003b08	001abbb3	sltu	x23,x21,x1	 x21:0xc0004d0b  x1:0x00000000 x23=0x00000000
       44845000	      4483	80003b0c	014f2bb3	slt	x23,x30,x20	 x30:0x7ffbe4fb x20:0x00000009 x23=0x00000000
       44855000	      4484	80003b10	019c5d13	srli	x26,x24,0x19	 x24:0x80009f4c x26=0x00000040
       44865000	      4485	80003b14	014956b3	srl	x13,x18,x20	 x18:0x80009fc4 x20:0x00000009 x13=0x0040004f
       44875000	      4486	80003b18	e660ff93	andi	x31,x1,-410	  x1:0x00000000 x31=0x00000000
       44885000	      4487	80003b1c	00ba7133	and	x2,x20,x11	 x20:0x00000009 x11:0x800097a5  x2=0x00000001
       44895000	      4488	80003b20	6cded617	auipc	x12,0x6cded	 x12=0xecdf0b1c
       44905000	      4489	80003b24	40cf8533	sub	x10,x31,x12	 x31:0x00000000 x12:0xecdf0b1c x10=0x1320f4e4
       44915000	      4490	80003b28	c82a4513	xori	x10,x20,-894	 x20:0x00000009 x10=0xfffffc8b
       44925000	      4491	80003b2c	019e68b3	or	x17,x28,x25	 x28:0x00000001 x25:0x0000026f x17=0x0000026f
       44935000	      4492	80003b30	003d96b3	sll	x13,x27,x3	 x27:0x00000000  x3:0x00000001 x13=0x00000000
       44945000	      4493	80003b34	02fb5a63	bge	x22,x15,80003b68	 x22:0x00000001 x15:0x000002c3
       44955000	      4494	80003b38	0015beb3	sltu	x29,x11,x1	 x11:0x800097a5  x1:0x00000000 x29=0x00000000
       44965000	      4495	80003b3c	0108f433	and	x8,x17,x16	 x17:0x0000026f x16:0x00000000  x8=0x00000000
       44975000	      4496	80003b40	042a8263	beq	x21,x2,80003b84	 x21:0xc0004d0b  x2:0x00000001
       44985000	      4497	80003b44	0082da63	bge	x5,x8,80003b58	  x5:0x00000000  x8:0x00000000
       44995000	      4498	00000000	00000013	addi	x0,x0,0	  x0:0x00000000
       45005000	      4499	80003b54	00000013	addi	x0,x0,0	  x0:0x00000000
       45015000	      4500	80003b58	41a754b3	sra	x9,x14,x26	 x14:0x00000001 x26:0x00000040  x9=0x00000001
       45025000	      4501	80003b5c	00187733	and	x14,x16,x1	 x16:0x00000000  x1:0x00000000 x14=0x00000000
       45035000	      4502	80003b60	002b1393	slli	x7,x22,0x2	 x22:0x00000001  x7=0x00000004
       45045000	      4503	80003b64	00302333	slt	x6,x0,x3	  x0:0x00000000  x3:0x00000001  x6=0x00000001
       45055000	      4504	80003b68	0114de93	srli	x29,x9,0x11	  x9:0x00000001 x29=0x00000000
       45065000	      4505	80003b6c	0018fa63	bgeu	x17,x1,80003b80	 x17:0x0000026f  x1:0x00000000
       45075000	      4506	00000000	00000013	addi	x0,x0,0	  x0:0x00000000
       45085000	      4507	80003b7c	00000013	addi	x0,x0,0	  x0:0x00000000
       45095000	      4508	80003b80	0158ccb3	xor	x25,x17,x21	 x17:0x0000026f x21:0xc0004d0b x25=0xc0004f64
       45105000	      4509	80003b84	019c7333	and	x6,x24,x25	 x24:0x80009f4c x25:0xc0004f64  x6=0x80000f44
       45115000	      4510	80003b88	02c8e213	ori	x4,x17,44	 x17:0x0000026f  x4=0x0000026f
       45125000	      4511	80003b8c	05686463	bltu	x16,x22,80003bd4	 x16:0x00000000 x22:0x00000001
       45135000	      4512	00000000	00000013	addi	x0,x0,0	  x0:0x00000000
       45145000	      4513	80003bd0	00000013	addi	x0,x0,0	  x0:0x00000000
       45155000	      4514	80003bd4	00e9db13	srli	x22,x19,0xe	 x19:0x7fff63ad x22=0x0001fffd
       45165000	      4515	80003bd8	00223833	sltu	x16,x4,x2	  x4:0x0000026f  x2:0x00000001 x16=0x00000000
       45175000	      4516	80003bdc	01e2d733	srl	x14,x5,x30	  x5:0x00000000 x30:0x7ffbe4fb x14=0x00000000
       45185000	      4517	80003be0	00f27263	bgeu	x4,x15,80003be4	  x4:0x0000026f x15:0x000002c3
       45195000	      4518	80003be4	01e9a033	slt	x0,x19,x30	 x19:0x7fff63ad x30:0x7ffbe4fb
       45205000	      4519	80003be8	dbd8a4b7	lui	x9,0xdbd8a	  x9=0xdbd8a000
       45215000	      4520	80003bec	03420663	beq	x4,x20,80003c18	  x4:0x0000026f x20:0x00000009
       45225000	      4521	80003bf0	dff36a93	ori	x21,x6,-513	  x6:0x80000f44 x21=0xffffffff
       45235000	      4522	80003bf4	01eae5b3	or	x11,x21,x30	 x21:0xffffffff x30:0x7ffbe4fb x11=0xffffffff
       45245000	      4523	80003bf8	878fe193	ori	x3,x31,-1928	 x31:0x00000000  x3=0xfffff878
       45255000	      4524	80003bfc	1d7ee113	ori	x2,x29,471	 x29:0x00000000  x2=0x000001d7
       45265000	      4525	80003c00	036cec63	bltu	x25,x22,80003c38	 x25:0xc0004f64 x22:0x0001fffd
       45275000	      4526	80003c04	402357b3	sra	x15,x6,x2	  x6:0x80000f44  x2:0x000001d7 x15=0xffffff00
       45285000	      4527	80003c08	010c9193	slli	x3,x25,0x10	 x25:0xc0004f64  x3=0x4f640000
       45295000	      4528	80003c0c	411205b3	sub	x11,x4,x17	  x4:0x0000026f x17:0x0000026f x11=0x00000000
       45305000	      4529	80003c10	00c6aab3	slt	x21,x13,x12	 x13:0x00000000 x12:0xecdf0b1c x21=0x00000000
       45315000	      4530	80003c14	fa4deb93	ori	x23,x27,-92	 x27:0x00000000 x23=0xffffffa4
       45325000	      4531	80003c18	41bed413	srai	x8,x29,0x1b	 x29:0x00000000  x8=0x00000000
       45335000	      4532	80003c1c	0350e463	bltu	x1,x21,80003c44	  x1:0x00000000 x21:0x00000000
       45345000	      4533	80003c20	02ebfc63	bgeu	x23,x14,80003c58	 x23:0xffffffa4 x14:0x00000000
       45355000	      4534	00000000	00000013	addi	x0,x0,0	  x0:0x00000000
       45365000	      4535	80003c54	00000013	addi	x0,x0,0	  x0:0x00000000
       45375000	      4536	80003c58	3f40e993	ori	x19,x1,1012	  x1:0x00000000 x19=0x000003f4
       45385000	      4537	80003c5c	276abf93	sltiu	x31,x21,630	 x21:0x00000000 x31=0x00000001
       45395000	      4538	80003c60	00423b33	sltu	x22,x4,x4	  x4:0x0000026f  x4:0x0000026f x22=0x00000000
       45405000	      4539	80003c64	8cb7a313	slti	x6,x15,-1845	 x15:0xffffff00  x6=0x00000000
       45415000	      4540	80003c68	7083eb93	ori	x23,x7,1800	  x7:0x00000004 x23=0x0000070c
       45425000	      4541	80003c6c	00892533	slt	x10,x18,x8	 x18:0x80009fc4  x8:0x00000000 x10=0x00000001
       45435000	      4542	80003c70	01a335b3	sltu	x11,x6,x26	  x6:0x00000000 x26:0x00000040 x11=0x00000001
       45445000	      4543	80003c74	020a9663	bne	x21,x0,80003ca0	 x21:0x00000000  x0:0x00000000
       45455000	      4544	80003c78	0d23f693	andi	x13,x7,210	  x7:0x00000004 x13=0x00000000
       45465000	      4545	80003c7c	01a1a0b3	slt	x1,x3,x26	  x3:0x4f640000 x26:0x00000040  x1=0x00000000
       45475000	      4546	80003c80	051ed663	bge	x29,x17,80003ccc	 x29:0x00000000 x17:0x0000026f
       45485000	      4547	80003c84	00d2d693	srli	x13,x5,0xd	  x5:0x00000000 x13=0x00000000
       45495000	      4548	80003c88	03ae5863	bge	x28,x26,80003cb8	 x28:0x00000001 x26:0x00000040
       45505000	      4549	80003c8c	0146ddb3	srl	x27,x13,x20	 x13:0x00000000 x20:0x00000009 x27=0x00000000
       45515000	      4550	80003c90	9faebd93	sltiu	x27,x29,-1542	 x29:0x00000000 x27=0x00000001
       45525000	      4551	80003c94	f01cce13	xori	x28,x25,-255	 x25:0xc0004f64 x28=0x3fffb065
       45535000	      4552	80003c98	8b204d13	xori	x26,x0,-1870	  x0:0x00000000 x26=0xfffff8b2
       45545000	      4553	80003c9c	cc632313	slti	x6,x6,-826	  x6:0x00000000  x6=0x00000000
       45555000	      4554	80003ca0	8987f713	andi	x14,x15,-1896	 x15:0xffffff00 x14=0xfffff800
       45565000	      4555	80003ca4	0218c263	blt	x17,x1,80003cc8	 x17:0x0000026f  x1:0x00000000
       45575000	      4556	80003ca8	0119ee63	bltu	x19,x17,80003cc4	 x19:0x000003f4 x17:0x0000026f
       45585000	      4557	80003cac	0101aeb3	slt	x29,x3,x16	  x3:0x4f640000 x16:0x00000000 x29=0x00000000
       45595000	      4558	80003cb0	01545b13	srli	x22,x8,0x15	  x8:0x00000000 x22=0x00000000
       45605000	      4559	80003cb4	40b78633	sub	x12,x15,x11	 x15:0xffffff00 x11:0x00000001 x12=0xfffffeff
       45615000	      4560	80003cb8	011541b3	xor	x3,x10,x17	 x10:0x00000001 x17:0x0000026f  x3=0x0000026e
       45625000	      4561	80003cbc	0149c033	xor	x0,x19,x20	 x19:0x000003f4 x20:0x00000009
       45635000	      4562	80003cc0	0148ecb3	or	x25,x17,x20	 x17:0x0000026f x20:0x00000009 x25=0x0000026f
       45645000	      4563	80003cc4	05b66863	bltu	x12,x27,80003d14	 x12:0xfffffeff x27:0x00000001
       45655000	      4564	80003cc8	0005c3b3	xor	x7,x11,x0	 x11:0x00000001  x0:0x00000000  x7=0x00000001
       45665000	      4565	80003ccc	01f0dfb3	srl	x31,x1,x31	  x1:0x00000000 x31:0x00000001 x31=0x00000000
       45675000	      4566	80003cd0	ab0a2093	slti	x1,x20,-1360	 x20:0x00000009  x1=0x00000000
       45685000	      4567	80003cd4	008617b3	sll	x15,x12,x8	 x12:0xfffffeff  x8:0x00000000 x15=0xfffffeff
       45695000	      4568	80003cd8	be029317	auipc	x6,0xbe029	  x6=0x3e02ccd4
       45705000	      4569	80003cdc	412c8533	sub	x10,x25,x18	 x25:0x0000026f x18:0x80009fc4 x10=0x7fff62ab
       45715000	      4570	80003ce0	0128ebb3	or	x23,x17,x18	 x17:0x0000026f x18:0x80009fc4 x23=0x80009fef
       45725000	      4571	80003ce4	0559c863	blt	x19,x21,80003d34	 x19:0x000003f4 x21:0x00000000
       45735000	      4572	80003ce8	0155c0b3	xor	x1,x11,x21	 x11:0x00000001 x21:0x00000000  x1=0x00000001
       45745000	      4573	80003cec	001dc7b3	xor	x15,x27,x1	 x27:0x00000001  x1:0x00000001 x15=0x00000000
       45755000	      4574	80003cf0	0021cf33	xor	x30,x3,x2	  x3:0x0000026e  x2:0x000001d7 x30=0x000003b9
       45765000	      4575	80003cf4	41a8d893	srai	x17,x17,0x1a	 x17:0x0000026f x17=0x00000000
       45775000	      4576	80003cf8	4e274e13	xori	x28,x14,1250	 x14:0xfffff800 x28=0xfffffce2
       45785000	      4577	80003cfc	aa654893	xori	x17,x10,-1370	 x10:0x7fff62ab x17=0x8000980d
       45795000	      4578	80003d00	92e2a513	slti	x10,x5,-1746	  x5:0x00000000 x10=0x00000000
       45805000	      4579	80003d04	002b2733	slt	x14,x22,x2	 x22:0x00000000  x2:0x000001d7 x14=0x00000001
       45815000	      4580	80003d08	00601213	slli	x4,x0,0x6	  x0:0x00000000  x4=0x00000000
       45825000	      4581	80003d0c	003894b3	sll	x9,x17,x3	 x17:0x8000980d  x3:0x0000026e  x9=0x26034000
       45835000	      4582	80003d10	00e54eb3	xor	x29,x10,x14	 x10:0x00000000 x14:0x00000001 x29=0x00000001
       45845000	      4583	80003d14	5c449797	auipc	x15,0x5c449	 x15=0xdc44cd10
       45855000	      4584	80003d18	039a9063	bne	x21,x25,80003d38	 x21:0x00000000 x25:0x0000026f
       45865000	      4585	00000000	00000013	addi	x0,x0,0	  x0:0x00000000
       45875000	      4586	80003d34	00000013	addi	x0,x0,0	  x0:0x00000000
       45885000	      4587	80003d38	14c1e437	lui	x8,0x14c1e	  x8=0x14c1e000
       45895000	      4588	80003d3c	010f1993	slli	x19,x30,0x10	 x30:0x000003b9 x19=0x03b90000
       45905000	      4589	80003d40	01658eb3	add	x29,x11,x22	 x11:0x00000001 x22:0x00000000 x29=0x00000001
       45915000	      4590	80003d44	d01c7013	andi	x0,x24,-767	 x24:0x80009f4c
       45925000	      4591	80003d48	cedcaf93	slti	x31,x25,-787	 x25:0x0000026f x31=0x00000000
       45935000	      4592	80003d4c	40b3d893	srai	x17,x7,0xb	  x7:0x00000001 x17=0x00000000
       45945000	      4593	80003d50	01605a63	bge	x0,x22,80003d64	  x0:0x00000000 x22:0x00000000
       45955000	      4594	00000000	00000013	addi	x0,x0,0	  x0:0x00000000
       45965000	      4595	80003d60	00000013	addi	x0,x0,0	  x0:0x00000000
       45975000	      4596	80003d64	00e47e33	and	x28,x8,x14	  x8:0x14c1e000 x14:0x00000001 x28=0x00000000
       45985000	      4597	80003d68	00a2c463	blt	x5,x10,80003d70	  x5:0x00000000 x10:0x00000000
       45995000	      4598	80003d6c	4c3ce013	ori	x0,x25,1219	 x25:0x0000026f
       46005000	      4599	80003d70	012883b3	add	x7,x17,x18	 x17:0x00000000 x18:0x80009fc4  x7=0x80009fc4
       46015000	      4600	80003d74	4160d4b7	lui	x9,0x4160d	  x9=0x4160d000
       46025000	      4601	80003d78	03779c63	bne	x15,x23,80003db0	 x15:0xdc44cd10 x23:0x80009fef
       46035000	      4602	00000000	00000013	addi	x0,x0,0	  x0:0x00000000
       46045000	      4603	80003dac	00000013	addi	x0,x0,0	  x0:0x00000000
       46055000	      4604	80003db0	00978033	add	x0,x15,x9	 x15:0xdc44cd10  x9:0x4160d000
       46065000	      4605	80003db4	007019b3	sll	x19,x0,x7	  x0:0x00000000  x7:0x80009fc4 x19=0x00000000
       46075000	      4606	80003db8	0063e733	or	x14,x7,x6	  x7:0x80009fc4  x6:0x3e02ccd4 x14=0xbe02dfd4
       46085000	      4607	80003dbc	661ab293	sltiu	x5,x21,1633	 x21:0x00000000  x5=0x00000001
       46095000	      4608	80003dc0	3662e113	ori	x2,x5,870	  x5:0x00000001  x2=0x00000367
       46105000	      4609	80003dc4	05297663	bgeu	x18,x18,80003e10	 x18:0x80009fc4 x18:0x80009fc4
       46115000	      4610	00000000	00000013	addi	x0,x0,0	  x0:0x00000000
       46125000	      4611	80003e0c	00000013	addi	x0,x0,0	  x0:0x00000000
       46135000	      4612	80003e10	0103e333	or	x6,x7,x16	  x7:0x80009fc4 x16:0x00000000  x6=0x80009fc4
       46145000	      4613	80003e14	012cce63	blt	x25,x18,80003e30	 x25:0x0000026f x18:0x80009fc4
       46155000	      4614	80003e18	01724433	xor	x8,x4,x23	  x4:0x00000000 x23:0x80009fef  x8=0x80009fef
       46165000	      4615	80003e1c	00aeb033	sltu	x0,x29,x10	 x29:0x00000001 x10:0x00000000
       46175000	      4616	80003e20	4129a313	slti	x6,x19,1042	 x19:0x00000000  x6=0x00000001
       46185000	      4617	80003e24	41790fb3	sub	x31,x18,x23	 x18:0x80009fc4 x23:0x80009fef x31=0xffffffd5
       46195000	      4618	80003e28	00d05713	srli	x14,x0,0xd	  x0:0x00000000 x14=0x00000000
       46205000	      4619	80003e2c	04456463	bltu	x10,x4,80003e74	 x10:0x00000000  x4:0x00000000
       46215000	      4620	80003e30	04444263	blt	x8,x4,80003e74	  x8:0x80009fef  x4:0x00000000
       46225000	      4621	00000000	00000013	addi	x0,x0,0	  x0:0x00000000
       46235000	      4622	80003e70	00000013	addi	x0,x0,0	  x0:0x00000000
       46245000	      4623	80003e74	0120d863	bge	x1,x18,80003e84	  x1:0x00000001 x18:0x80009fc4
       46255000	      4624	00000000	00000013	addi	x0,x0,0	  x0:0x00000000
       46265000	      4625	80003e80	00000013	addi	x0,x0,0	  x0:0x00000000
       46275000	      4626	80003e84	0176be33	sltu	x28,x13,x23	 x13:0x00000000 x23:0x80009fef x28=0x00000001
       46285000	      4627	80003e88	0176df93	srli	x31,x13,0x17	 x13:0x00000000 x31=0x00000000
       46295000	      4628	80003e8c	007dfb33	and	x22,x27,x7	 x27:0x00000001  x7:0x80009fc4 x22=0x00000000
       46305000	      4629	80003e90	f7a77e13	andi	x28,x14,-134	 x14:0x00000000 x28=0x00000000
       46315000	      4630	80003e94	00581593	slli	x11,x16,0x5	 x16:0x00000000 x11=0x00000000
       46325000	      4631	80003e98	0058fbb3	and	x23,x17,x5	 x17:0x00000000  x5:0x00000001 x23=0x00000000
       46335000	      4632	80003e9c	00000013	addi	x0,x0,0	  x0:0x00000000
       46345000	      4633	80003ea0	51b74d93	xori	x27,x14,1307	 x14:0x00000000 x27=0x0000051b
       46355000	      4634	80003ea4	40f25813	srai	x16,x4,0xf	  x4:0x00000000 x16=0x00000000
       46365000	      4635	80003ea8	fc4d8013	addi	x0,x27,-60	 x27:0x0000051b
       46375000	      4636	80003eac	40ad5813	srai	x16,x26,0xa	 x26:0xfffff8b2 x16=0xfffffffe
       46385000	      4637	80003eb0	00d95c93	srli	x25,x18,0xd	 x18:0x80009fc4 x25=0x00040004
       46395000	      4638	80003eb4	bd567797	auipc	x15,0xbd567	 x15=0x3d56aeb0
       46405000	      4639	80003eb8	411bde13	srai	x28,x23,0x11	 x23:0x00000000 x28=0x00000000
       46415000	      4640	80003ebc	00f89fb3	sll	x31,x17,x15	 x17:0x00000000 x15:0x3d56aeb0 x31=0x00000000
       46425000	      4641	80003ec0	40c88633	sub	x12,x17,x12	 x17:0x00000000 x12:0xfffffeff x12=0x00000101
       46435000	      4642	80003ec4	418589b3	sub	x19,x11,x24	 x11:0x00000000 x24:0x80009f4c x19=0x7fff60b4
       46445000	      4643	80003ec8	a269b893	sltiu	x17,x19,-1498	 x19:0x7fff60b4 x17=0x00000001
       46455000	      4644	80003ecc	e86ab613	sltiu	x12,x21,-378	 x21:0x00000000 x12=0x00000001
       46465000	      4645	80003ed0	e6298d17	auipc	x26,0xe6298	 x26=0x6629becc
       46475000	      4646	80003ed4	0156cbb3	xor	x23,x13,x21	 x13:0x00000000 x21:0x00000000 x23=0x00000000
       46485000	      4647	80003ed8	00bd70b3	and	x1,x26,x11	 x26:0x6629becc x11:0x00000000  x1=0x00000000
       46495000	      4648	80003edc	03256c63	bltu	x10,x18,80003f14	 x10:0x00000000 x18:0x80009fc4
       46505000	      4649	00000000	00000013	addi	x0,x0,0	  x0:0x00000000
       46515000	      4650	80003f10	00000013	addi	x0,x0,0	  x0:0x00000000
       46525000	      4651	80003f14	008cdc93	srli	x25,x25,0x8	 x25:0x00040004 x25=0x00000400
       46535000	      4652	80003f18	d3198613	addi	x12,x19,-719	 x19:0x7fff60b4 x12=0x7fff5de5
       46545000	      4653	80003f1c	00000013	addi	x0,x0,0	  x0:0x00000000
       46555000	      4654	80003f20	00d27ab3	and	x21,x4,x13	  x4:0x00000000 x13:0x00000000 x21=0x00000000
       46565000	      4655	80003f24	0115d113	srli	x2,x11,0x11	 x11:0x00000000  x2=0x00000000
       46575000	      4656	80003f28	022dd063	bge	x27,x2,80003f48	 x27:0x0000051b  x2:0x00000000
       46585000	      4657	00000000	00000013	addi	x0,x0,0	  x0:0x00000000
       46595000	      4658	80003f44	00000013	addi	x0,x0,0	  x0:0x00000000
       46605000	      4659	80003f48	00000013	addi	x0,x0,0	  x0:0x00000000
       46615000	      4660	80003f4c	449b0813	addi	x16,x22,1097	 x22:0x00000000 x16=0x00000449
       46625000	      4661	80003f50	01b65733	srl	x14,x12,x27	 x12:0x7fff5de5 x27:0x0000051b x14=0x0000000f
       46635000	      4662	80003f54	6f7d3313	sltiu	x6,x26,1783	 x26:0x6629becc  x6=0x00000000
       46645000	      4663	80003f58	011dd7b3	srl	x15,x27,x17	 x27:0x0000051b x17:0x00000001 x15=0x0000028d
       46655000	      4664	80003f5c	001c7493	andi	x9,x24,1	 x24:0x80009f4c  x9=0x00000000
       46665000	      4665	80003f60	018ac7b3	xor	x15,x21,x24	 x21:0x00000000 x24:0x80009f4c x15=0x80009f4c
       46675000	      4666	80003f64	001395b3	sll	x11,x7,x1	  x7:0x80009fc4  x1:0x00000000 x11=0x80009fc4
       46685000	      4667	80003f68	003fb5b3	sltu	x11,x31,x3	 x31:0x00000000  x3:0x0000026e x11=0x00000001
       46695000	      4668	80003f6c	658beb93	ori	x23,x23,1624	 x23:0x00000000 x23=0x00000658
       46705000	      4669	80003f70	01be6db3	or	x27,x28,x27	 x28:0x00000000 x27:0x0000051b x27=0x0000051b
       46715000	      4670	80003f74	02241063	bne	x8,x2,80003f94	  x8:0x80009fef  x2:0x00000000
       46725000	      4671	00000000	00000013	addi	x0,x0,0	  x0:0x00000000
       46735000	      4672	80003f90	00000013	addi	x0,x0,0	  x0:0x00000000
       46745000	      4673	80003f94	405d5d93	srai	x27,x26,0x5	 x26:0x6629becc x27=0x03314df6
       46755000	      4674	80003f98	00bcd463	bge	x25,x11,80003fa0	 x25:0x00000400 x11:0x00000001
       46765000	      4675	00000000	00000013	addi	x0,x0,0	  x0:0x00000000
       46775000	      4676	80003f9c	00000013	addi	x0,x0,0	  x0:0x00000000
       46785000	      4677	80003fa0	12862193	slti	x3,x12,296	 x12:0x7fff5de5  x3=0x00000000
       46795000	      4678	80003fa4	e017cb13	xori	x22,x15,-511	 x15:0x80009f4c x22=0x7fff614d
       46805000	      4679	80003fa8	eceaf413	andi	x8,x21,-306	 x21:0x00000000  x8=0x00000000
       46815000	      4680	80003fac	00869313	slli	x6,x13,0x8	 x13:0x00000000  x6=0x00000000
       46825000	      4681	80003fb0	012713b3	sll	x7,x14,x18	 x14:0x0000000f x18:0x80009fc4  x7=0x000000f0
       46835000	      4682	80003fb4	01cf9863	bne	x31,x28,80003fc4	 x31:0x00000000 x28:0x00000000
       46845000	      4683	80003fb8	00000013	addi	x0,x0,0	  x0:0x00000000
       46855000	      4684	80003fbc	c3bd7413	andi	x8,x26,-965	 x26:0x6629becc  x8=0x6629bc08
       46865000	      4685	80003fc0	010b5e93	srli	x29,x22,0x10	 x22:0x7fff614d x29=0x00007fff
       46875000	      4686	80003fc4	05cc8663	beq	x25,x28,80004010	 x25:0x00000400 x28:0x00000000
       46885000	      4687	80003fc8	00ddd733	srl	x14,x27,x13	 x27:0x03314df6 x13:0x00000000 x14=0x03314df6
       46895000	      4688	80003fcc	41fd8e33	sub	x28,x27,x31	 x27:0x03314df6 x31:0x00000000 x28=0x03314df6
       46905000	      4689	80003fd0	7cec7613	andi	x12,x24,1998	 x24:0x80009f4c x12=0x0000074c
       46915000	      4690	80003fd4	de29f293	andi	x5,x19,-542	 x19:0x7fff60b4  x5=0x7fff60a0
       46925000	      4691	80003fd8	02c31463	bne	x6,x12,80004000	  x6:0x00000000 x12:0x0000074c
       46935000	      4692	00000000	00000013	addi	x0,x0,0	  x0:0x00000000
       46945000	      4693	80003ffc	00000013	addi	x0,x0,0	  x0:0x00000000
       46955000	      4694	80004000	caac7d93	andi	x27,x24,-854	 x24:0x80009f4c x27=0x80009c08
       46965000	      4695	80004004	96b62a93	slti	x21,x12,-1685	 x12:0x0000074c x21=0x00000000
       46975000	      4696	80004008	00eada93	srli	x21,x21,0xe	 x21:0x00000000 x21=0x00000000
       46985000	      4697	8000400c	00000013	addi	x0,x0,0	  x0:0x00000000
       46995000	      4698	80004010	00ec0a63	beq	x24,x14,80004024	 x24:0x80009f4c x14:0x03314df6
       47005000	      4699	80004014	00110263	beq	x2,x1,80004018	  x2:0x00000000  x1:0x00000000
       47015000	      4700	00000000	00000013	addi	x0,x0,0	  x0:0x00000000
       47025000	      4701	80004014	00000013	addi	x0,x0,0	  x0:0x00000000
       47035000	      4702	80004018	0237f863	bgeu	x15,x3,80004048	 x15:0x80009f4c  x3:0x00000000
       47045000	      4703	00000000	00000013	addi	x0,x0,0	  x0:0x00000000
       47055000	      4704	80004044	00000013	addi	x0,x0,0	  x0:0x00000000
       47065000	      4705	80004048	41dc8b33	sub	x22,x25,x29	 x25:0x00000400 x29:0x00007fff x22=0xffff8401
       47075000	      4706	8000404c	f5a6ae13	slti	x28,x13,-166	 x13:0x00000000 x28=0x00000000
       47085000	      4707	80004050	0b4cd263	bge	x25,x20,800040f4	 x25:0x00000400 x20:0x00000009
       47095000	      4708	00000000	00000013	addi	x0,x0,0	  x0:0x00000000
       47105000	      4709	800040f0	00000013	addi	x0,x0,0	  x0:0x00000000
       47115000	      4710	800040f4	41615a93	srai	x21,x2,0x16	  x2:0x00000000 x21=0x00000000
       47125000	      4711	800040f8	0085fdb3	and	x27,x11,x8	 x11:0x00000001  x8:0x6629bc08 x27=0x00000000
       47135000	      4712	800040fc	cc02cf13	xori	x30,x5,-832	  x5:0x7fff60a0 x30=0x80009c60
       47145000	      4713	80004100	414d05b3	sub	x11,x26,x20	 x26:0x6629becc x20:0x00000009 x11=0x6629bec3
       47155000	      4714	80004104	01d28333	add	x6,x5,x29	  x5:0x7fff60a0 x29:0x00007fff  x6=0x7fffe09f
       47165000	      4715	80004108	01310a63	beq	x2,x19,8000411c	  x2:0x00000000 x19:0x7fff60b4
       47175000	      4716	8000410c	015214b3	sll	x9,x4,x21	  x4:0x00000000 x21:0x00000000  x9=0x00000000
       47185000	      4717	80004110	00000013	addi	x0,x0,0	  x0:0x00000000
       47195000	      4718	80004114	05900863	beq	x0,x25,80004164	  x0:0x00000000 x25:0x00000400
       47205000	      4719	80004118	2fb17293	andi	x5,x2,763	  x2:0x00000000  x5=0x00000000
       47215000	      4720	8000411c	22284813	xori	x16,x16,546	 x16:0x00000449 x16=0x0000066b
       47225000	      4721	80004120	417a5d33	sra	x26,x20,x23	 x20:0x00000009 x23:0x00000658 x26=0x00000000
       47235000	      4722	80004124	00fdd093	srli	x1,x27,0xf	 x27:0x00000000  x1=0x00000000
       47245000	      4723	80004128	2e46b437	lui	x8,0x2e46b	  x8=0x2e46b000
       47255000	      4724	8000412c	409b8ab3	sub	x21,x23,x9	 x23:0x00000658  x9:0x00000000 x21=0x00000658
       47265000	      4725	80004130	0032f233	and	x4,x5,x3	  x5:0x00000000  x3:0x00000000  x4=0x00000000
       47275000	      4726	80004134	01271e13	slli	x28,x14,0x12	 x14:0x03314df6 x28=0x37d80000
       47285000	      4727	80004138	00cdd013	srli	x0,x27,0xc	 x27:0x00000000
       47295000	      4728	8000413c	00000013	addi	x0,x0,0	  x0:0x00000000
       47305000	      4729	80004140	055ac863	blt	x21,x21,80004190	 x21:0x00000658 x21:0x00000658
       47315000	      4730	80004144	015752b3	srl	x5,x14,x21	 x14:0x03314df6 x21:0x00000658  x5=0x00000003
       47325000	      4731	80004148	00b81c93	slli	x25,x16,0xb	 x16:0x0000066b x25=0x00335800
       47335000	      4732	8000414c	019fe733	or	x14,x31,x25	 x31:0x00000000 x25:0x00335800 x14=0x00335800
       47345000	      4733	80004150	00769263	bne	x13,x7,80004154	 x13:0x00000000  x7:0x000000f0
       47355000	      4734	00000000	00000013	addi	x0,x0,0	  x0:0x00000000
       47365000	      4735	80004150	00000013	addi	x0,x0,0	  x0:0x00000000
       47375000	      4736	80004154	00000013	addi	x0,x0,0	  x0:0x00000000
       47385000	      4737	80004158	40fd8e33	sub	x28,x27,x15	 x27:0x00000000 x15:0x80009f4c x28=0x7fff60b4
       47395000	      4738	8000415c	187ffb93	andi	x23,x31,391	 x31:0x00000000 x23=0x00000000
       47405000	      4739	80004160	41d0d1b3	sra	x3,x1,x29	  x1:0x00000000 x29:0x00007fff  x3=0x00000000
       47415000	      4740	80004164	d4a08493	addi	x9,x1,-694	  x1:0x00000000  x9=0xfffffd4a
       47425000	      4741	80004168	3bda2813	slti	x16,x20,957	 x20:0x00000009 x16=0x00000001
       47435000	      4742	8000416c	018fa833	slt	x16,x31,x24	 x31:0x00000000 x24:0x80009f4c x16=0x00000000
       47445000	      4743	80004170	00000013	addi	x0,x0,0	  x0:0x00000000
       47455000	      4744	80004174	0303c663	blt	x7,x16,800041a0	  x7:0x000000f0 x16:0x00000000
       47465000	      4745	80004178	01e337b3	sltu	x15,x6,x30	  x6:0x7fffe09f x30:0x80009c60 x15=0x00000001
       47475000	      4746	8000417c	02039c63	bne	x7,x0,800041b4	  x7:0x000000f0  x0:0x00000000
       47485000	      4747	00000000	00000013	addi	x0,x0,0	  x0:0x00000000
       47495000	      4748	800041b0	00000013	addi	x0,x0,0	  x0:0x00000000
       47505000	      4749	800041b4	0046bd33	sltu	x26,x13,x4	 x13:0x00000000  x4:0x00000000 x26=0x00000000
       47515000	      4750	800041b8	00a42233	slt	x4,x8,x10	  x8:0x2e46b000 x10:0x00000000  x4=0x00000000
       47525000	      4751	800041bc	005b0333	add	x6,x22,x5	 x22:0xffff8401  x5:0x00000003  x6=0xffff8404
       47535000	      4752	800041c0	0595f863	bgeu	x11,x25,80004210	 x11:0x6629bec3 x25:0x00335800
       47545000	      4753	00000000	00000013	addi	x0,x0,0	  x0:0x00000000
       47555000	      4754	8000420c	00000013	addi	x0,x0,0	  x0:0x00000000
       47565000	      4755	80004210	02121663	bne	x4,x1,8000423c	  x4:0x00000000  x1:0x00000000
       47575000	      4756	80004214	84cc2b37	lui	x22,0x84cc2	 x22=0x84cc2000
       47585000	      4757	80004218	0a84f193	andi	x3,x9,168	  x9:0xfffffd4a  x3=0x00000008
       47595000	      4758	8000421c	018d5333	srl	x6,x26,x24	 x26:0x00000000 x24:0x80009f4c  x6=0x00000000
       47605000	      4759	80004220	00a224b3	slt	x9,x4,x10	  x4:0x00000000 x10:0x00000000  x9=0x00000000
       47615000	      4760	80004224	951f0537	lui	x10,0x951f0	 x10=0x951f0000
       47625000	      4761	80004228	00c8ebb3	or	x23,x17,x12	 x17:0x00000001 x12:0x0000074c x23=0x0000074d
       47635000	      4762	8000422c	001f7433	and	x8,x30,x1	 x30:0x80009c60  x1:0x00000000  x8=0x00000000
       47645000	      4763	80004230	012bce63	blt	x23,x18,8000424c	 x23:0x0000074d x18:0x80009fc4
       47655000	      4764	80004234	ffd47f93	andi	x31,x8,-3	  x8:0x00000000 x31=0x00000000
       47665000	      4765	80004238	c31ff093	andi	x1,x31,-975	 x31:0x00000000  x1=0x00000000
       47675000	      4766	8000423c	016cbb33	sltu	x22,x25,x22	 x25:0x00335800 x22:0x84cc2000 x22=0x00000001
       47685000	      4767	80004240	3bf2bb13	sltiu	x22,x5,959	  x5:0x00000003 x22=0x00000001
       47695000	      4768	80004244	010d9533	sll	x10,x27,x16	 x27:0x00000000 x16:0x00000000 x10=0x00000000
       47705000	      4769	80004248	407ddeb3	sra	x29,x27,x7	 x27:0x00000000  x7:0x000000f0 x29=0x00000000
       47715000	      4770	8000424c	005f55b3	srl	x11,x30,x5	 x30:0x80009c60  x5:0x00000003 x11=0x1000138c
       47725000	      4771	80004250	012f8eb3	add	x29,x31,x18	 x31:0x00000000 x18:0x80009fc4 x29=0x80009fc4
       47735000	      4772	80004254	016d53b3	srl	x7,x26,x22	 x26:0x00000000 x22:0x00000001  x7=0x00000000
       47745000	      4773	80004258	002fa0b3	slt	x1,x31,x2	 x31:0x00000000  x2:0x00000000  x1=0x00000000
       47755000	      4774	8000425c	415551b3	sra	x3,x10,x21	 x10:0x00000000 x21:0x00000658  x3=0x00000000
       47765000	      4775	80004260	40e454b3	sra	x9,x8,x14	  x8:0x00000000 x14:0x00335800  x9=0x00000000
       47775000	      4776	80004264	05696463	bltu	x18,x22,800042ac	 x18:0x80009fc4 x22:0x00000001
       47785000	      4777	80004268	000d7463	bgeu	x26,x0,80004270	 x26:0x00000000  x0:0x00000000
       47795000	      4778	00000000	00000013	addi	x0,x0,0	  x0:0x00000000
       47805000	      4779	8000426c	00000013	addi	x0,x0,0	  x0:0x00000000
       47815000	      4780	80004270	175cfd13	andi	x26,x25,373	 x25:0x00335800 x26=0x00000000
       47825000	      4781	80004274	18cf36b7	lui	x13,0x18cf3	 x13=0x18cf3000
       47835000	      4782	80004278	0012d1b3	srl	x3,x5,x1	  x5:0x00000003  x1:0x00000000  x3=0x00000003
       47845000	      4783	8000427c	019fe463	bltu	x31,x25,80004284	 x31:0x00000000 x25:0x00335800
       47855000	      4784	00000000	00000013	addi	x0,x0,0	  x0:0x00000000
       47865000	      4785	80004280	00000013	addi	x0,x0,0	  x0:0x00000000
       47875000	      4786	80004284	01ec6033	or	x0,x24,x30	 x24:0x80009f4c x30:0x80009c60
       47885000	      4787	80004288	416e8233	sub	x4,x29,x22	 x29:0x80009fc4 x22:0x00000001  x4=0x80009fc3
       47895000	      4788	8000428c	412f5493	srai	x9,x30,0x12	 x30:0x80009c60  x9=0xffffe000
       47905000	      4789	80004290	016171b3	and	x3,x2,x22	  x2:0x00000000 x22:0x00000001  x3=0x00000000
       47915000	      4790	80004294	00d1d733	srl	x14,x3,x13	  x3:0x00000000 x13:0x18cf3000 x14=0x00000000
       47925000	      4791	80004298	403f03b3	sub	x7,x30,x3	 x30:0x80009c60  x3:0x00000000  x7=0x80009c60
       47935000	      4792	8000429c	00000013	addi	x0,x0,0	  x0:0x00000000
       47945000	      4793	800042a0	04b28863	beq	x5,x11,800042f0	  x5:0x00000003 x11:0x1000138c
       47955000	      4794	800042a4	00344bb3	xor	x23,x8,x3	  x8:0x00000000  x3:0x00000000 x23=0x00000000
       47965000	      4795	800042a8	0457c863	blt	x15,x5,800042f8	 x15:0x00000001  x5:0x00000003
       47975000	      4796	00000000	00000013	addi	x0,x0,0	  x0:0x00000000
       47985000	      4797	800042f4	00000013	addi	x0,x0,0	  x0:0x00000000
       47995000	      4798	800042f8	00f021b3	slt	x3,x0,x15	  x0:0x00000000 x15:0x00000001  x3=0x00000001
       48005000	      4799	800042fc	00d6bbb3	sltu	x23,x13,x13	 x13:0x18cf3000 x13:0x18cf3000 x23=0x00000000
       48015000	      4800	80004300	0198de93	srli	x29,x17,0x19	 x17:0x00000001 x29=0x00000000
       48025000	      4801	80004304	007181b3	add	x3,x3,x7	  x3:0x00000001  x7:0x80009c60  x3=0x80009c61
       48035000	      4802	80004308	04dc4463	blt	x24,x13,80004350	 x24:0x80009f4c x13:0x18cf3000
       48045000	      4803	00000000	00000013	addi	x0,x0,0	  x0:0x00000000
       48055000	      4804	8000434c	00000013	addi	x0,x0,0	  x0:0x00000000
       48065000	      4805	80004350	f7370d13	addi	x26,x14,-141	 x14:0x00000000 x26=0xffffff73
       48075000	      4806	80004354	016fd193	srli	x3,x31,0x16	 x31:0x00000000  x3=0x00000000
       48085000	      4807	80004358	4078df33	sra	x30,x17,x7	 x17:0x00000001  x7:0x80009c60 x30=0x00000001
       48095000	      4808	8000435c	01cb55b3	srl	x11,x22,x28	 x22:0x00000001 x28:0x7fff60b4 x11=0x00000000
       48105000	      4809	80004360	01549d13	slli	x26,x9,0x15	  x9:0xffffe000 x26=0x00000000
       48115000	      4810	80004364	00000013	addi	x0,x0,0	  x0:0x00000000
       48125000	      4811	80004368	015201b3	add	x3,x4,x21	  x4:0x80009fc3 x21:0x00000658  x3=0x8000a61b
       48135000	      4812	8000436c	0173e533	or	x10,x7,x23	  x7:0x80009c60 x23:0x00000000 x10=0x80009c60
       48145000	      4813	80004370	02d31263	bne	x6,x13,80004394	  x6:0x00000000 x13:0x18cf3000
       48155000	      4814	00000000	00000013	addi	x0,x0,0	  x0:0x00000000
       48165000	      4815	80004390	00000013	addi	x0,x0,0	  x0:0x00000000
       48175000	      4816	80004394	a686b213	sltiu	x4,x13,-1432	 x13:0x18cf3000  x4=0x00000001
       48185000	      4817	80004398	40d6d613	srai	x12,x13,0xd	 x13:0x18cf3000 x12=0x0000c679
       48195000	      4818	8000439c	2ebd2e13	slti	x28,x26,747	 x26:0x00000000 x28=0x00000001
       48205000	      4819	800043a0	004cc2b3	xor	x5,x25,x4	 x25:0x00335800  x4:0x00000001  x5=0x00335801
       48215000	      4820	800043a4	002ddd93	srli	x27,x27,0x2	 x27:0x00000000 x27=0x00000000
       48225000	      4821	800043a8	cdd8b013	sltiu	x0,x17,-803	 x17:0x00000001
       48235000	      4822	800043ac	00fd5db3	srl	x27,x26,x15	 x26:0x00000000 x15:0x00000001 x27=0x00000000
       48245000	      4823	800043b0	6e3e6713	ori	x14,x28,1763	 x28:0x00000001 x14=0x000006e3
       48255000	      4824	800043b4	018ed033	srl	x0,x29,x24	 x29:0x00000000 x24:0x80009f4c
       48265000	      4825	800043b8	4055dbb3	sra	x23,x11,x5	 x11:0x00000000  x5:0x00335801 x23=0x00000000
       48275000	      4826	800043bc	413b5e93	srai	x29,x22,0x13	 x22:0x00000001 x29=0x00000000
       48285000	      4827	800043c0	0050d293	srli	x5,x1,0x5	  x1:0x00000000  x5=0x00000000
       48295000	      4828	800043c4	0834f663	bgeu	x9,x3,80004450	  x9:0xffffe000  x3:0x8000a61b
       48305000	      4829	00000000	00000013	addi	x0,x0,0	  x0:0x00000000
       48315000	      4830	8000444c	00000013	addi	x0,x0,0	  x0:0x00000000
       48325000	      4831	80004450	c08c7d37	lui	x26,0xc08c7	 x26=0xc08c7000
       48335000	      4832	80004454	042a7463	bgeu	x20,x2,8000449c	 x20:0x00000009  x2:0x00000000
       48345000	      4833	00000000	00000013	addi	x0,x0,0	  x0:0x00000000
       48355000	      4834	80004498	00000013	addi	x0,x0,0	  x0:0x00000000
       48365000	      4835	8000449c	0f58a793	slti	x15,x17,245	 x17:0x00000001 x15=0x00000001
       48375000	      4836	800044a0	40d1dc93	srai	x25,x3,0xd	  x3:0x8000a61b x25=0xfffc0005
       48385000	      4837	800044a4	02365063	bge	x12,x3,800044c4	 x12:0x0000c679  x3:0x8000a61b
       48395000	      4838	00000000	00000013	addi	x0,x0,0	  x0:0x00000000
       48405000	      4839	800044c0	00000013	addi	x0,x0,0	  x0:0x00000000
       48415000	      4840	800044c4	00a86f33	or	x30,x16,x10	 x16:0x00000000 x10:0x80009c60 x30=0x80009c60
       48425000	      4841	800044c8	01149e93	slli	x29,x9,0x11	  x9:0xffffe000 x29=0xc0000000
       48435000	      4842	800044cc	00000013	addi	x0,x0,0	  x0:0x00000000
       48445000	      4843	800044d0	004c2683	lw	x13,4(x24)	 x24:0x80009f4c x13=0x8000456c PA:0x80009f50
       48455000	      4844	800044d4	00e4de33	srl	x28,x9,x14	  x9:0xffffe000 x14:0x000006e3 x28=0x1ffffc00
       48465000	      4845	800044d8	028c0c13	addi	x24,x24,40	 x24:0x80009f4c x24=0x80009f74
       48475000	      4846	800044dc	006758b3	srl	x17,x14,x6	 x14:0x000006e3  x6:0x00000000 x17=0x000006e3
       48485000	      4847	800044e0	002af133	and	x2,x21,x2	 x21:0x00000658  x2:0x00000000  x2=0x00000000
       48495000	      4848	800044e4	ea199437	lui	x8,0xea199	  x8=0xea199000
       48505000	      4849	800044e8	00168c93	addi	x25,x13,1	 x13:0x8000456c x25=0x8000456d
       48515000	      4850	800044ec	000c8ce7	jalr	x25,x25,0	 x25:0x8000456d x25=0x800044ec
       48525000	      4851	00000000	00000013	addi	x0,x0,0	  x0:0x00000000
       48535000	      4852	8000456c	00000013	addi	x0,x0,0	  x0:0x00000000
       48545000	      4853	80004570	00139bb3	sll	x23,x7,x1	  x7:0x80009c60  x1:0x00000000 x23=0x80009c60
       48555000	      4854	80004574	0384e063	bltu	x9,x24,80004594	  x9:0xffffe000 x24:0x80009f74
       48565000	      4855	80004578	01971f33	sll	x30,x14,x25	 x14:0x000006e3 x25:0x800044ec x30=0x006e3000
       48575000	      4856	8000457c	00288263	beq	x17,x2,80004580	 x17:0x000006e3  x2:0x00000000
       48585000	      4857	80004580	01f2e463	bltu	x5,x31,80004588	  x5:0x00000000 x31:0x00000000
       48595000	      4858	80004584	00fb6f33	or	x30,x22,x15	 x22:0x00000001 x15:0x00000001 x30=0x00000001
       48605000	      4859	80004588	5003b5b7	lui	x11,0x5003b	 x11=0x5003b000
       48615000	      4860	8000458c	01489db3	sll	x27,x17,x20	 x17:0x000006e3 x20:0x00000009 x27=0x000dc600
       48625000	      4861	80004590	33aaa513	slti	x10,x21,826	 x21:0x00000658 x10=0x00000000
       48635000	      4862	80004594	0183cf33	xor	x30,x7,x24	  x7:0x80009c60 x24:0x80009f74 x30=0x00000314
       48645000	      4863	80004598	00c875b3	and	x11,x16,x12	 x16:0x00000000 x12:0x0000c679 x11=0x00000000
       48655000	      4864	8000459c	05072e13	slti	x28,x14,80	 x14:0x000006e3 x28=0x00000000
       48665000	      4865	800045a0	004c2683	lw	x13,4(x24)	 x24:0x80009f74 x13=0x800002ec PA:0x80009f78
       48675000	      4866	800045a4	55b8c813	xori	x16,x17,1371	 x17:0x000006e3 x16=0x000003b8
       48685000	      4867	800045a8	01ab1233	sll	x4,x22,x26	 x22:0x00000001 x26:0xc08c7000  x4=0x00000001
       48695000	      4868	800045ac	0183d533	srl	x10,x7,x24	  x7:0x80009c60 x24:0x80009f74 x10=0x00000800
       48705000	      4869	800045b0	01c42b33	slt	x22,x8,x28	  x8:0xea199000 x28:0x00000000 x22=0x00000001
       48715000	      4870	800045b4	d8cacf13	xori	x30,x21,-628	 x21:0x00000658 x30=0xfffffbd4
       48725000	      4871	800045b8	010c0c13	addi	x24,x24,16	 x24:0x80009f74 x24=0x80009f84
       48735000	      4872	800045bc	0021fab3	and	x21,x3,x2	  x3:0x8000a61b  x2:0x00000000 x21=0x00000000
       48745000	      4873	800045c0	30597213	andi	x4,x18,773	 x18:0x80009fc4  x4=0x00000304
       48755000	      4874	800045c4	413cdb33	sra	x22,x25,x19	 x25:0x800044ec x19:0x7fff60b4 x22=0xfffff800
       48765000	      4875	800045c8	00068593	addi	x11,x13,0	 x13:0x800002ec x11=0x800002ec
       48775000	      4876	800045cc	000585e7	jalr	x11,x11,0	 x11:0x800002ec x11=0x800045cc
       48785000	      4877	00000000	00000013	addi	x0,x0,0	  x0:0x00000000
       48795000	      4878	800002ec	00000013	addi	x0,x0,0	  x0:0x00000000
       48805000	      4879	800002f0	79a8e293	ori	x5,x17,1946	 x17:0x000006e3  x5=0x000007fb
       48815000	      4880	800002f4	00000013	addi	x0,x0,0	  x0:0x00000000
       48825000	      4881	800002f8	00eb7433	and	x8,x22,x14	 x22:0xfffff800 x14:0x000006e3  x8=0x00000000
       48835000	      4882	800002fc	00b433b3	sltu	x7,x8,x11	  x8:0x00000000 x11:0x800045cc  x7=0x00000001
       48845000	      4883	80000300	953bb993	sltiu	x19,x23,-1709	 x23:0x80009c60 x19=0x00000001
       48855000	      4884	80000304	0180cfb3	xor	x31,x1,x24	  x1:0x00000000 x24:0x80009f84 x31=0x80009f84
       48865000	      4885	80000308	cf49bf93	sltiu	x31,x19,-780	 x19:0x00000001 x31=0x00000001
       48875000	      4886	8000030c	84804d93	xori	x27,x0,-1976	  x0:0x00000000 x27=0xfffff848
       48885000	      4887	80000310	410e01b3	sub	x3,x28,x16	 x28:0x00000000 x16:0x000003b8  x3=0xfffffc48
       48895000	      4888	80000314	14338317	auipc	x6,0x14338	  x6=0x94338310
       48905000	      4889	80000318	40fbd813	srai	x16,x23,0xf	 x23:0x80009c60 x16=0xffff0001
       48915000	      4890	8000031c	05bfe463	bltu	x31,x27,80000364	 x31:0x00000001 x27:0xfffff848
       48925000	      4891	00000000	00000013	addi	x0,x0,0	  x0:0x00000000
       48935000	      4892	80000360	00000013	addi	x0,x0,0	  x0:0x00000000
       48945000	      4893	80000364	09a03313	sltiu	x6,x0,154	  x0:0x00000000  x6=0x00000001
       48955000	      4894	80000368	24448993	addi	x19,x9,580	  x9:0xffffe000 x19=0xffffe244
       48965000	      4895	8000036c	00d97633	and	x12,x18,x13	 x18:0x80009fc4 x13:0x800002ec x12=0x800002c4
       48975000	      4896	80000370	e7ca6613	ori	x12,x20,-388	 x20:0x00000009 x12=0xfffffe7d
       48985000	      4897	80000374	011de833	or	x16,x27,x17	 x27:0xfffff848 x17:0x000006e3 x16=0xfffffeeb
       48995000	      4898	80000378	02866063	bltu	x12,x8,80000398	 x12:0xfffffe7d  x8:0x00000000
       49005000	      4899	8000037c	01ea6033	or	x0,x20,x30	 x20:0x00000009 x30:0xfffffbd4
       49015000	      4900	80000380	54896493	ori	x9,x18,1352	 x18:0x80009fc4  x9=0x80009fcc
       49025000	      4901	80000384	00a1d513	srli	x10,x3,0xa	  x3:0xfffffc48 x10=0x003fffff
       49035000	      4902	80000388	01c0e333	or	x6,x1,x28	  x1:0x00000000 x28:0x00000000  x6=0x00000000
       49045000	      4903	8000038c	5b32fb13	andi	x22,x5,1459	  x5:0x000007fb x22=0x000005b3
       49055000	      4904	80000390	5a539db7	lui	x27,0x5a539	 x27=0x5a539000
       49065000	      4905	80000394	01f062b3	or	x5,x0,x31	  x0:0x00000000 x31:0x00000001  x5=0x00000001
       49075000	      4906	80000398	00e20463	beq	x4,x14,800003a0	  x4:0x00000304 x14:0x000006e3
       49085000	      4907	8000039c	0115cbb3	xor	x23,x11,x17	 x11:0x800045cc x17:0x000006e3 x23=0x8000432f
       49095000	      4908	800003a0	0179edb3	or	x27,x19,x23	 x19:0xffffe244 x23:0x8000432f x27=0xffffe36f
       49105000	      4909	800003a4	002e65b3	or	x11,x28,x2	 x28:0x00000000  x2:0x00000000 x11=0x00000000
       49115000	      4910	800003a8	006bc1b3	xor	x3,x23,x6	 x23:0x8000432f  x6:0x00000000  x3=0x8000432f
       49125000	      4911	800003ac	07b1ea63	bltu	x3,x27,80000420	  x3:0x8000432f x27:0xffffe36f
       49135000	      4912	00000000	00000013	addi	x0,x0,0	  x0:0x00000000
       49145000	      4913	8000041c	00000013	addi	x0,x0,0	  x0:0x00000000
       49155000	      4914	80000420	01c51f13	slli	x30,x10,0x1c	 x10:0x003fffff x30=0xf0000000
       49165000	      4915	80000424	409c8fb3	sub	x31,x25,x9	 x25:0x800044ec  x9:0x80009fcc x31=0xffffa520
       49175000	      4916	80000428	67405d37	lui	x26,0x67405	 x26=0x67405000
       49185000	      4917	8000042c	001c5bb3	srl	x23,x24,x1	 x24:0x80009f84  x1:0x00000000 x23=0x80009f84
       49195000	      4918	80000430	1bc48c93	addi	x25,x9,444	  x9:0x80009fcc x25=0x8000a188
       49205000	      4919	80000434	01209db3	sll	x27,x1,x18	  x1:0x00000000 x18:0x80009fc4 x27=0x00000000
       49215000	      4920	80000438	04c71463	bne	x14,x12,80000480	 x14:0x000006e3 x12:0xfffffe7d
       49225000	      4921	00000000	00000013	addi	x0,x0,0	  x0:0x00000000
       49235000	      4922	8000047c	00000013	addi	x0,x0,0	  x0:0x00000000
       49245000	      4923	80000480	8f2b8d97	auipc	x27,0x8f2b8	 x27=0x0f2b847c
       49255000	      4924	80000484	01205713	srli	x14,x0,0x12	  x0:0x00000000 x14=0x00000000
       49265000	      4925	80000488	40190433	sub	x8,x18,x1	 x18:0x80009fc4  x1:0x00000000  x8=0x80009fc4
       49275000	      4926	8000048c	f13af993	andi	x19,x21,-237	 x21:0x00000000 x19=0x00000000
       49285000	      4927	80000490	401fd193	srai	x3,x31,0x1	 x31:0xffffa520  x3=0xffffd290
       49295000	      4928	80000494	00a01133	sll	x2,x0,x10	  x0:0x00000000 x10:0x003fffff  x2=0x00000000
       49305000	      4929	80000498	003cee63	bltu	x25,x3,800004b4	 x25:0x8000a188  x3:0xffffd290
       49315000	      4930	00000000	00000013	addi	x0,x0,0	  x0:0x00000000
       49325000	      4931	800004b0	00000013	addi	x0,x0,0	  x0:0x00000000
       49335000	      4932	800004b4	10507793	andi	x15,x0,261	  x0:0x00000000 x15=0x00000000
       49345000	      4933	800004b8	01bc2fb3	slt	x31,x24,x27	 x24:0x80009f84 x27:0x0f2b847c x31=0x00000001
       49355000	      4934	800004bc	04b3f663	bgeu	x7,x11,80000508	  x7:0x00000001 x11:0x00000000
       49365000	      4935	00000000	00000013	addi	x0,x0,0	  x0:0x00000000
       49375000	      4936	80000504	00000013	addi	x0,x0,0	  x0:0x00000000
       49385000	      4937	80000508	03c18e63	beq	x3,x28,80000544	  x3:0xffffd290 x28:0x00000000
       49395000	      4938	8000050c	05381863	bne	x16,x19,8000055c	 x16:0xfffffeeb x19:0x00000000
       49405000	      4939	00000000	00000013	addi	x0,x0,0	  x0:0x00000000
       49415000	      4940	80000558	00000013	addi	x0,x0,0	  x0:0x00000000
       49425000	      4941	8000055c	014fb133	sltu	x2,x31,x20	 x31:0x00000001 x20:0x00000009  x2=0x00000001
       49435000	      4942	80000560	40eddfb3	sra	x31,x27,x14	 x27:0x0f2b847c x14:0x00000000 x31=0x0f2b847c
       49445000	      4943	80000564	00000013	addi	x0,x0,0	  x0:0x00000000
       49455000	      4944	80000568	01f534b3	sltu	x9,x10,x31	 x10:0x003fffff x31:0x0f2b847c  x9=0x00000001
       49465000	      4945	8000056c	01e45f33	srl	x30,x8,x30	  x8:0x80009fc4 x30:0xf0000000 x30=0x80009fc4
       49475000	      4946	80000570	407d5133	sra	x2,x26,x7	 x26:0x67405000  x7:0x00000001  x2=0x33a02800
       49485000	      4947	80000574	a27d8813	addi	x16,x27,-1497	 x27:0x0f2b847c x16=0x0f2b7ea3
       49495000	      4948	80000578	04597063	bgeu	x18,x5,800005b8	 x18:0x80009fc4  x5:0x00000001
       49505000	      4949	00000000	00000013	addi	x0,x0,0	  x0:0x00000000
       49515000	      4950	800005b4	00000013	addi	x0,x0,0	  x0:0x00000000
       49525000	      4951	800005b8	046d9063	bne	x27,x6,800005f8	 x27:0x0f2b847c  x6:0x00000000
       49535000	      4952	00000000	00000013	addi	x0,x0,0	  x0:0x00000000
       49545000	      4953	800005f4	00000013	addi	x0,x0,0	  x0:0x00000000
       49555000	      4954	800005f8	4976fa93	andi	x21,x13,1175	 x13:0x800002ec x21=0x00000084
       49565000	      4955	800005fc	00ee5c63	bge	x28,x14,80000614	 x28:0x00000000 x14:0x00000000
       49575000	      4956	00000000	00000013	addi	x0,x0,0	  x0:0x00000000
       49585000	      4957	80000610	00000013	addi	x0,x0,0	  x0:0x00000000
       49595000	      4958	80000614	0053db13	srli	x22,x7,0x5	  x7:0x00000001 x22=0x00000000
       49605000	      4959	80000618	00231fb3	sll	x31,x6,x2	  x6:0x00000000  x2:0x33a02800 x31=0x00000000
       49615000	      4960	8000061c	d82bbf93	sltiu	x31,x23,-638	 x23:0x80009f84 x31=0x00000001
       49625000	      4961	80000620	33c94493	xori	x9,x18,828	 x18:0x80009fc4  x9=0x80009cf8
       49635000	      4962	80000624	03164e63	blt	x12,x17,80000660	 x12:0xfffffe7d x17:0x000006e3
       49645000	      4963	00000000	00000013	addi	x0,x0,0	  x0:0x00000000
       49655000	      4964	8000065c	00000013	addi	x0,x0,0	  x0:0x00000000
       49665000	      4965	80000660	5ee3ad93	slti	x27,x7,1518	  x7:0x00000001 x27=0x00000001
       49675000	      4966	80000664	4069d4b3	sra	x9,x19,x6	 x19:0x00000000  x6:0x00000000  x9=0x00000000
       49685000	      4967	80000668	01d0a8b3	slt	x17,x1,x29	  x1:0x00000000 x29:0xc0000000 x17=0x00000000
       49695000	      4968	8000066c	05ef4663	blt	x30,x30,800006b8	 x30:0x80009fc4 x30:0x80009fc4
       49705000	      4969	80000670	00000013	addi	x0,x0,0	  x0:0x00000000
       49715000	      4970	80000674	81deb493	sltiu	x9,x29,-2019	 x29:0xc0000000  x9=0x00000001
       49725000	      4971	80000678	0398e063	bltu	x17,x25,80000698	 x17:0x00000000 x25:0x8000a188
       49735000	      4972	00000000	00000013	addi	x0,x0,0	  x0:0x00000000
       49745000	      4973	80000694	00000013	addi	x0,x0,0	  x0:0x00000000
       49755000	      4974	80000698	5c18a617	auipc	x12,0x5c18a	 x12=0xdc18a694
       49765000	      4975	8000069c	98d28a93	addi	x21,x5,-1651	  x5:0x00000001 x21=0xfffff98e
       49775000	      4976	800006a0	05ce7663	bgeu	x28,x28,800006ec	 x28:0x00000000 x28:0x00000000
       49785000	      4977	00000000	00000013	addi	x0,x0,0	  x0:0x00000000
       49795000	      4978	800006e8	00000013	addi	x0,x0,0	  x0:0x00000000
       49805000	      4979	800006ec	0027d8b3	srl	x17,x15,x2	 x15:0x00000000  x2:0x33a02800 x17=0x00000000
       49815000	      4980	800006f0	00735b13	srli	x22,x6,0x7	  x6:0x00000000 x22=0x00000000
       49825000	      4981	800006f4	00594233	xor	x4,x18,x5	 x18:0x80009fc4  x5:0x00000001  x4=0x80009fc5
       49835000	      4982	800006f8	05aa5863	bge	x20,x26,80000748	 x20:0x00000009 x26:0x67405000
       49845000	      4983	800006fc	00c05113	srli	x2,x0,0xc	  x0:0x00000000  x2=0x00000000
       49855000	      4984	80000700	012dde63	bge	x27,x18,8000071c	 x27:0x00000001 x18:0x80009fc4
       49865000	      4985	00000000	00000013	addi	x0,x0,0	  x0:0x00000000
       49875000	      4986	80000718	00000013	addi	x0,x0,0	  x0:0x00000000
       49885000	      4987	8000071c	41084093	xori	x1,x16,1040	 x16:0x0f2b7ea3  x1=0x0f2b7ab3
       49895000	      4988	80000720	01a68ab3	add	x21,x13,x26	 x13:0x800002ec x26:0x67405000 x21=0xe74052ec
       49905000	      4989	80000724	01132f33	slt	x30,x6,x17	  x6:0x00000000 x17:0x00000000 x30=0x00000000
       49915000	      4990	80000728	4140d433	sra	x8,x1,x20	  x1:0x0f2b7ab3 x20:0x00000009  x8=0x000795bd
       49925000	      4991	8000072c	00ce30b3	sltu	x1,x28,x12	 x28:0x00000000 x12:0xdc18a694  x1=0x00000001
       49935000	      4992	80000730	02da8263	beq	x21,x13,80000754	 x21:0xe74052ec x13:0x800002ec
       49945000	      4993	80000734	4167ddb3	sra	x27,x15,x22	 x15:0x00000000 x22:0x00000000 x27=0x00000000
       49955000	      4994	80000738	40aed533	sra	x10,x29,x10	 x29:0xc0000000 x10:0x003fffff x10=0xffffffff
       49965000	      4995	8000073c	e660ed37	lui	x26,0xe660e	 x26=0xe660e000
       49975000	      4996	80000740	00c3b533	sltu	x10,x7,x12	  x7:0x00000001 x12:0xdc18a694 x10=0x00000001
       49985000	      4997	80000744	026b0463	beq	x22,x6,8000076c	 x22:0x00000000  x6:0x00000000
       49995000	      4998	00000000	00000013	addi	x0,x0,0	  x0:0x00000000
       50005000	      4999	80000768	00000013	addi	x0,x0,0	  x0:0x00000000
       50015000	      5000	8000076c	00aafe63	bgeu	x21,x10,80000788	 x21:0xe74052ec x10:0x00000001
       50025000	      5001	00000000	00000013	addi	x0,x0,0	  x0:0x00000000
       50035000	      5002	80000784	00000013	addi	x0,x0,0	  x0:0x00000000
       50045000	      5003	80000788	b4addab7	lui	x21,0xb4add	 x21=0xb4add000
       50055000	      5004	8000078c	00000a17	auipc	x20,0x0	 x20=0x80000788
       50065000	      5005	80000790	00ca0a13	addi	x20,x20,12	 x20:0x80000788 x20=0x80000794
       50075000	      5006	80000794	000a0067	jalr	x0,x20,0	 x20:0x80000794
       50085000	      5007	00000000	00000013	addi	x0,x0,0	  x0:0x00000000
       50095000	      5008	80000794	00000013	addi	x0,x0,0	  x0:0x00000000
       50105000	      5009	80000798	00100193	addi	x3,x0,1	  x0:0x00000000  x3=0x00000001
       50115000	      5010	8000079c	00000073	ecall	
       50125000	      5011	800007a0	0173e463	bltu	x7,x23,800007a8	  x7:0x00000001 x23:0x80009f84
