		Time			Cycle	PC		Insn	Decoded instruction	Register and memory contents
          65000	         5	80000004	00000293	addi	x5,x0,0	  x0:0x00000000  x5=0x00000000
          75000	         6	80000008	00000313	addi	x6,x0,0	  x0:0x00000000  x6=0x00000000
          85000	         7	8000000c	00628263	beq	x5,x6,80000010	  x5:0x00000000  x6:0x00000000
          95000	         8	00000000	00000013	addi	x0,x0,0	  x0:0x00000000
         105000	         9	8000000c	00000013	addi	x0,x0,0	  x0:0x00000000
         115000	        10	80000010	00000297	auipc	x5,0x0	  x5=0x8000000c
         125000	        11	80000014	00c28293	addi	x5,x5,12	  x5:0x8000000c  x5=0x80000018
         135000	        12	80000018	00028067	jalr	x0,x5,0	  x5:0x80000018
         145000	        13	00000000	00000013	addi	x0,x0,0	  x0:0x00000000
         155000	        14	80000018	00000013	addi	x0,x0,0	  x0:0x00000000
         165000	        15	8000001c	40000ab7	lui	x21,0x40000	 x21=0x40000000
         175000	        16	80000020	100a8a93	addi	x21,x21,256	 x21:0x40000000 x21=0x40000100
         185000	        17	80000024	00000013	addi	x0,x0,0	  x0:0x00000000
         195000	        18	80000028	0000af17	auipc	x30,0xa	 x30=0x8000a024
         205000	        19	8000002c	fa0f0f13	addi	x30,x30,-96	 x30:0x8000a024 x30=0x80009fc4
         215000	        20	80000030	00005a97	auipc	x21,0x5	 x21=0x8000502c
         225000	        21	80000034	0d4a8a93	addi	x21,x21,212	 x21:0x8000502c x21=0x80005100
         235000	        22	80000038	001aea93	ori	x21,x21,1	 x21:0x80005100 x21=0x80005101
         245000	        23	8000003c	00000013	addi	x0,x0,0	  x0:0x00000000
         255000	        24	80000040	00000a97	auipc	x21,0x0	 x21=0x8000003c
         265000	        25	80000044	020a8a93	addi	x21,x21,32	 x21:0x8000003c x21=0x8000005c
         275000	        26	80000048	00000013	addi	x0,x0,0	  x0:0x00000000
         285000	        27	8000004c	00000013	addi	x0,x0,0	  x0:0x00000000
         295000	        28	80000050	00002ab7	lui	x21,0x2	 x21=0x00002000
         305000	        29	80000054	800a8a93	addi	x21,x21,-2048	 x21:0x00002000 x21=0x00001800
         315000	        30	80000058	00000013	addi	x0,x0,0	  x0:0x00000000
         325000	        31	8000005c	00000013	addi	x0,x0,0	  x0:0x00000000
         335000	        32	80000060	4dc2e037	lui	x0,0x4dc2e	
         345000	        33	80000064	0e300013	addi	x0,x0,227	  x0:0x00000000
         355000	        34	80000068	00900093	addi	x1,x0,9	  x0:0x00000000  x1=0x00000009
         365000	        35	8000006c	fdd7b137	lui	x2,0xfdd7b	  x2=0xfdd7b000
         375000	        36	80000070	5eb10113	addi	x2,x2,1515	  x2:0xfdd7b000  x2=0xfdd7b5eb
         385000	        37	80000074	f5a591b7	lui	x3,0xf5a59	  x3=0xf5a59000
         395000	        38	80000078	f4b18193	addi	x3,x3,-181	  x3:0xf5a59000  x3=0xf5a58f4b
         405000	        39	8000007c	00000293	addi	x5,x0,0	  x0:0x00000000  x5=0x00000000
         415000	        40	80000080	735a3337	lui	x6,0x735a3	  x6=0x735a3000
         425000	        41	80000084	73230313	addi	x6,x6,1842	  x6:0x735a3000  x6=0x735a3732
         435000	        42	80000088	800003b7	lui	x7,0x80000	  x7=0x80000000
         445000	        43	8000008c	00000413	addi	x8,x0,0	  x0:0x00000000  x8=0x00000000
         455000	        44	80000090	00000493	addi	x9,x0,0	  x0:0x00000000  x9=0x00000000
         465000	        45	80000094	00300513	addi	x10,x0,3	  x0:0x00000000 x10=0x00000003
         475000	        46	80000098	800005b7	lui	x11,0x80000	 x11=0x80000000
         485000	        47	8000009c	00500613	addi	x12,x0,5	  x0:0x00000000 x12=0x00000005
         495000	        48	800000a0	800006b7	lui	x13,0x80000	 x13=0x80000000
         505000	        49	800000a4	00000713	addi	x14,x0,0	  x0:0x00000000 x14=0x00000000
         515000	        50	800000a8	00a00793	addi	x15,x0,10	  x0:0x00000000 x15=0x0000000a
         525000	        51	800000ac	f3d6c837	lui	x16,0xf3d6c	 x16=0xf3d6c000
         535000	        52	800000b0	68d80813	addi	x16,x16,1677	 x16:0xf3d6c000 x16=0xf3d6c68d
         545000	        53	800000b4	b8fe88b7	lui	x17,0xb8fe8	 x17=0xb8fe8000
         555000	        54	800000b8	88b88893	addi	x17,x17,-1909	 x17:0xb8fe8000 x17=0xb8fe788b
         565000	        55	800000bc	f8f9a937	lui	x18,0xf8f9a	 x18=0xf8f9a000
         575000	        56	800000c0	e8f90913	addi	x18,x18,-369	 x18:0xf8f9a000 x18=0xf8f99e8f
         585000	        57	800000c4	800009b7	lui	x19,0x80000	 x19=0x80000000
         595000	        58	800000c8	f2deca37	lui	x20,0xf2dec	 x20=0xf2dec000
         605000	        59	800000cc	88ea0a13	addi	x20,x20,-1906	 x20:0xf2dec000 x20=0xf2deb88e
         615000	        60	800000d0	ffd47ab7	lui	x21,0xffd47	 x21=0xffd47000
         625000	        61	800000d4	4daa8a93	addi	x21,x21,1242	 x21:0xffd47000 x21=0xffd474da
         635000	        62	800000d8	00000b13	addi	x22,x0,0	  x0:0x00000000 x22=0x00000000
         645000	        63	800000dc	80000bb7	lui	x23,0x80000	 x23=0x80000000
         655000	        64	800000e0	f389ac37	lui	x24,0xf389a	 x24=0xf389a000
         665000	        65	800000e4	e75c0c13	addi	x24,x24,-395	 x24:0xf389a000 x24=0xf3899e75
         675000	        66	800000e8	0714ccb7	lui	x25,0x714c	 x25=0x0714c000
         685000	        67	800000ec	959c8c93	addi	x25,x25,-1703	 x25:0x0714c000 x25=0x0714b959
         695000	        68	800000f0	00000d13	addi	x26,x0,0	  x0:0x00000000 x26=0x00000000
         705000	        69	800000f4	f4eeadb7	lui	x27,0xf4eea	 x27=0xf4eea000
         715000	        70	800000f8	49ad8d93	addi	x27,x27,1178	 x27:0xf4eea000 x27=0xf4eea49a
         725000	        71	800000fc	f10f8e37	lui	x28,0xf10f8	 x28=0xf10f8000
         735000	        72	80000100	433e0e13	addi	x28,x28,1075	 x28:0xf10f8000 x28=0xf10f8433
         745000	        73	80000104	2c282eb7	lui	x29,0x2c282	 x29=0x2c282000
         755000	        74	80000108	63ce8e93	addi	x29,x29,1596	 x29:0x2c282000 x29=0x2c28263c
         765000	        75	8000010c	9a1d5fb7	lui	x31,0x9a1d5	 x31=0x9a1d5000
         775000	        76	80000110	805f8f93	addi	x31,x31,-2043	 x31:0x9a1d5000 x31=0x9a1d4805
         785000	        77	80000114	0000a217	auipc	x4,0xa	  x4=0x8000a110
         795000	        78	80000118	e7420213	addi	x4,x4,-396	  x4:0x8000a110  x4=0x80009f84
         805000	        79	8000011c	04c000ef	jal	x1,8000011c	  x1=0x8000011c
         815000	        80	00000000	00000013	addi	x0,x0,0	  x0:0x00000000
         825000	        81	80000164	00000013	addi	x0,x0,0	  x0:0x00000000
         835000	        82	80000168	fe5ff36f	jal	x6,80000168	  x6=0x80000168
         845000	        83	00000000	00000013	addi	x0,x0,0	  x0:0x00000000
         855000	        84	80000148	00000013	addi	x0,x0,0	  x0:0x00000000
         865000	        85	8000014c	02c0016f	jal	x2,8000014c	  x2=0x8000014c
         875000	        86	00000000	00000013	addi	x0,x0,0	  x0:0x00000000
         885000	        87	80000174	00000013	addi	x0,x0,0	  x0:0x00000000
         895000	        88	80000178	fc5ff0ef	jal	x1,80000178	  x1=0x80000178
         905000	        89	00000000	00000013	addi	x0,x0,0	  x0:0x00000000
         915000	        90	80000138	00000013	addi	x0,x0,0	  x0:0x00000000
         925000	        91	8000013c	030000ef	jal	x1,8000013c	  x1=0x8000013c
         935000	        92	00000000	00000013	addi	x0,x0,0	  x0:0x00000000
         945000	        93	80000168	00000013	addi	x0,x0,0	  x0:0x00000000
         955000	        94	8000016c	ff9ff1ef	jal	x3,8000016c	  x3=0x8000016c
         965000	        95	00000000	00000013	addi	x0,x0,0	  x0:0x00000000
         975000	        96	80000160	00000013	addi	x0,x0,0	  x0:0x00000000
         985000	        97	80000164	01000fef	jal	x31,80000164	 x31=0x80000164
         995000	        98	00000000	00000013	addi	x0,x0,0	  x0:0x00000000
        1005000	        99	80000170	00000013	addi	x0,x0,0	  x0:0x00000000
        1015000	       100	80000174	fcdff36f	jal	x6,80000174	  x6=0x80000174
        1025000	       101	00000000	00000013	addi	x0,x0,0	  x0:0x00000000
        1035000	       102	8000013c	00000013	addi	x0,x0,0	  x0:0x00000000
        1045000	       103	80000140	040000ef	jal	x1,80000140	  x1=0x80000140
        1055000	       104	00000000	00000013	addi	x0,x0,0	  x0:0x00000000
        1065000	       105	8000017c	00000013	addi	x0,x0,0	  x0:0x00000000
        1075000	       106	80000180	fb1ff0ef	jal	x1,80000180	  x1=0x80000180
        1085000	       107	00000000	00000013	addi	x0,x0,0	  x0:0x00000000
        1095000	       108	8000012c	00000013	addi	x0,x0,0	  x0:0x00000000
        1105000	       109	80000130	05c0036f	jal	x6,80000130	  x6=0x80000130
        1115000	       110	00000000	00000013	addi	x0,x0,0	  x0:0x00000000
        1125000	       111	80000188	00000013	addi	x0,x0,0	  x0:0x00000000
        1135000	       112	8000018c	0080036f	jal	x6,8000018c	  x6=0x8000018c
        1145000	       113	00000000	00000013	addi	x0,x0,0	  x0:0x00000000
        1155000	       114	80000190	00000013	addi	x0,x0,0	  x0:0x00000000
        1165000	       115	80000194	fe9ff36f	jal	x6,80000194	  x6=0x80000194
        1175000	       116	00000000	00000013	addi	x0,x0,0	  x0:0x00000000
        1185000	       117	80000178	00000013	addi	x0,x0,0	  x0:0x00000000
        1195000	       118	8000017c	fbdff36f	jal	x6,8000017c	  x6=0x8000017c
        1205000	       119	00000000	00000013	addi	x0,x0,0	  x0:0x00000000
        1215000	       120	80000134	00000013	addi	x0,x0,0	  x0:0x00000000
        1225000	       121	80000138	0100016f	jal	x2,80000138	  x2=0x80000138
        1235000	       122	00000000	00000013	addi	x0,x0,0	  x0:0x00000000
        1245000	       123	80000144	00000013	addi	x0,x0,0	  x0:0x00000000
        1255000	       124	80000148	fe1ff96f	jal	x18,80000148	 x18=0x80000148
        1265000	       125	00000000	00000013	addi	x0,x0,0	  x0:0x00000000
        1275000	       126	80000124	00000013	addi	x0,x0,0	  x0:0x00000000
        1285000	       127	80000128	00c0036f	jal	x6,80000128	  x6=0x80000128
        1295000	       128	00000000	00000013	addi	x0,x0,0	  x0:0x00000000
        1305000	       129	80000130	00000013	addi	x0,x0,0	  x0:0x00000000
        1315000	       130	80000134	020000ef	jal	x1,80000134	  x1=0x80000134
        1325000	       131	00000000	00000013	addi	x0,x0,0	  x0:0x00000000
        1335000	       132	80000150	00000013	addi	x0,x0,0	  x0:0x00000000
        1345000	       133	80000154	ffdff0ef	jal	x1,80000154	  x1=0x80000154
        1355000	       134	00000000	00000013	addi	x0,x0,0	  x0:0x00000000
        1365000	       135	8000014c	00000013	addi	x0,x0,0	  x0:0x00000000
        1375000	       136	80000150	0380036f	jal	x6,80000150	  x6=0x80000150
        1385000	       137	00000000	00000013	addi	x0,x0,0	  x0:0x00000000
        1395000	       138	80000184	00000013	addi	x0,x0,0	  x0:0x00000000
        1405000	       139	80000188	ffdff5ef	jal	x11,80000188	 x11=0x80000188
        1415000	       140	00000000	00000013	addi	x0,x0,0	  x0:0x00000000
        1425000	       141	80000180	00000013	addi	x0,x0,0	  x0:0x00000000
        1435000	       142	80000184	fddff36f	jal	x6,80000184	  x6=0x80000184
        1445000	       143	00000000	00000013	addi	x0,x0,0	  x0:0x00000000
        1455000	       144	8000015c	00000013	addi	x0,x0,0	  x0:0x00000000
        1465000	       145	80000160	030000ef	jal	x1,80000160	  x1=0x80000160
        1475000	       146	00000000	00000013	addi	x0,x0,0	  x0:0x00000000
        1485000	       147	8000018c	00000013	addi	x0,x0,0	  x0:0x00000000
        1495000	       148	80000190	f95ff16f	jal	x2,80000190	  x2=0x80000190
        1505000	       149	00000000	00000013	addi	x0,x0,0	  x0:0x00000000
        1515000	       150	80000120	00000013	addi	x0,x0,0	  x0:0x00000000
        1525000	       151	80000124	0340036f	jal	x6,80000124	  x6=0x80000124
        1535000	       152	00000000	00000013	addi	x0,x0,0	  x0:0x00000000
        1545000	       153	80000154	00000013	addi	x0,x0,0	  x0:0x00000000
        1555000	       154	80000158	004000ef	jal	x1,80000158	  x1=0x80000158
        1565000	       155	00000000	00000013	addi	x0,x0,0	  x0:0x00000000
        1575000	       156	80000158	00000013	addi	x0,x0,0	  x0:0x00000000
        1585000	       157	8000015c	fe9ff0ef	jal	x1,8000015c	  x1=0x8000015c
        1595000	       158	00000000	00000013	addi	x0,x0,0	  x0:0x00000000
        1605000	       159	80000140	00000013	addi	x0,x0,0	  x0:0x00000000
        1615000	       160	80000144	02c000ef	jal	x1,80000144	  x1=0x80000144
        1625000	       161	00000000	00000013	addi	x0,x0,0	  x0:0x00000000
        1635000	       162	8000016c	00000013	addi	x0,x0,0	  x0:0x00000000
        1645000	       163	80000170	fb1ff0ef	jal	x1,80000170	  x1=0x80000170
        1655000	       164	00000000	00000013	addi	x0,x0,0	  x0:0x00000000
        1665000	       165	8000011c	00000013	addi	x0,x0,0	  x0:0x00000000
        1675000	       166	80000120	00c001ef	jal	x3,80000120	  x3=0x80000120
        1685000	       167	00000000	00000013	addi	x0,x0,0	  x0:0x00000000
        1695000	       168	80000128	00000013	addi	x0,x0,0	  x0:0x00000000
        1705000	       169	8000012c	06c000ef	jal	x1,8000012c	  x1=0x8000012c
        1715000	       170	00000000	00000013	addi	x0,x0,0	  x0:0x00000000
        1725000	       171	80000194	00000013	addi	x0,x0,0	  x0:0x00000000
        1735000	       172	80000198	40305193	srai	x3,x0,0x3	  x0:0x00000000  x3=0x00000000
        1745000	       173	8000019c	040000ef	jal	x1,8000019c	  x1=0x8000019c
        1755000	       174	00000000	00000013	addi	x0,x0,0	  x0:0x00000000
        1765000	       175	800001d8	00000013	addi	x0,x0,0	  x0:0x00000000
        1775000	       176	800001dc	ffdff36f	jal	x6,800001dc	  x6=0x800001dc
        1785000	       177	00000000	00000013	addi	x0,x0,0	  x0:0x00000000
        1795000	       178	800001d4	00000013	addi	x0,x0,0	  x0:0x00000000
        1805000	       179	800001d8	00800bef	jal	x23,800001d8	 x23=0x800001d8
        1815000	       180	00000000	00000013	addi	x0,x0,0	  x0:0x00000000
        1825000	       181	800001dc	00000013	addi	x0,x0,0	  x0:0x00000000
        1835000	       182	800001e0	fd5ff0ef	jal	x1,800001e0	  x1=0x800001e0
        1845000	       183	00000000	00000013	addi	x0,x0,0	  x0:0x00000000
        1855000	       184	800001b0	00000013	addi	x0,x0,0	  x0:0x00000000
        1865000	       185	800001b4	0200036f	jal	x6,800001b4	  x6=0x800001b4
        1875000	       186	00000000	00000013	addi	x0,x0,0	  x0:0x00000000
        1885000	       187	800001d0	00000013	addi	x0,x0,0	  x0:0x00000000
        1895000	       188	800001d4	fe9ff0ef	jal	x1,800001d4	  x1=0x800001d4
        1905000	       189	00000000	00000013	addi	x0,x0,0	  x0:0x00000000
        1915000	       190	800001b8	00000013	addi	x0,x0,0	  x0:0x00000000
        1925000	       191	800001bc	008000ef	jal	x1,800001bc	  x1=0x800001bc
        1935000	       192	00000000	00000013	addi	x0,x0,0	  x0:0x00000000
        1945000	       193	800001c0	00000013	addi	x0,x0,0	  x0:0x00000000
        1955000	       194	800001c4	ff5ff0ef	jal	x1,800001c4	  x1=0x800001c4
        1965000	       195	00000000	00000013	addi	x0,x0,0	  x0:0x00000000
        1975000	       196	800001b4	00000013	addi	x0,x0,0	  x0:0x00000000
        1985000	       197	800001b8	fe9ffcef	jal	x25,800001b8	 x25=0x800001b8
        1995000	       198	00000000	00000013	addi	x0,x0,0	  x0:0x00000000
        2005000	       199	8000019c	00000013	addi	x0,x0,0	  x0:0x00000000
        2015000	       200	800001a0	0440036f	jal	x6,800001a0	  x6=0x800001a0
        2025000	       201	00000000	00000013	addi	x0,x0,0	  x0:0x00000000
        2035000	       202	800001e0	00000013	addi	x0,x0,0	  x0:0x00000000
        2045000	       203	800001e4	fcdff36f	jal	x6,800001e4	  x6=0x800001e4
        2055000	       204	00000000	00000013	addi	x0,x0,0	  x0:0x00000000
        2065000	       205	800001ac	00000013	addi	x0,x0,0	  x0:0x00000000
        2075000	       206	800001b0	ff9ff0ef	jal	x1,800001b0	  x1=0x800001b0
        2085000	       207	00000000	00000013	addi	x0,x0,0	  x0:0x00000000
        2095000	       208	800001a4	00000013	addi	x0,x0,0	  x0:0x00000000
        2105000	       209	800001a8	02400e6f	jal	x28,800001a8	 x28=0x800001a8
        2115000	       210	00000000	00000013	addi	x0,x0,0	  x0:0x00000000
        2125000	       211	800001c8	00000013	addi	x0,x0,0	  x0:0x00000000
        2135000	       212	800001cc	ff5ff0ef	jal	x1,800001cc	  x1=0x800001cc
        2145000	       213	00000000	00000013	addi	x0,x0,0	  x0:0x00000000
        2155000	       214	800001bc	00000013	addi	x0,x0,0	  x0:0x00000000
        2165000	       215	800001c0	00800e6f	jal	x28,800001c0	 x28=0x800001c0
        2175000	       216	00000000	00000013	addi	x0,x0,0	  x0:0x00000000
        2185000	       217	800001c4	00000013	addi	x0,x0,0	  x0:0x00000000
        2195000	       218	800001c8	008001ef	jal	x3,800001c8	  x3=0x800001c8
        2205000	       219	00000000	00000013	addi	x0,x0,0	  x0:0x00000000
        2215000	       220	800001cc	00000013	addi	x0,x0,0	  x0:0x00000000
        2225000	       221	800001d0	fd5ff36f	jal	x6,800001d0	  x6=0x800001d0
        2235000	       222	00000000	00000013	addi	x0,x0,0	  x0:0x00000000
        2245000	       223	800001a0	00000013	addi	x0,x0,0	  x0:0x00000000
        2255000	       224	800001a4	008000ef	jal	x1,800001a4	  x1=0x800001a4
        2265000	       225	00000000	00000013	addi	x0,x0,0	  x0:0x00000000
        2275000	       226	800001a8	00000013	addi	x0,x0,0	  x0:0x00000000
        2285000	       227	800001ac	03c000ef	jal	x1,800001ac	  x1=0x800001ac
        2295000	       228	00000000	00000013	addi	x0,x0,0	  x0:0x00000000
        2305000	       229	800001e4	00000013	addi	x0,x0,0	  x0:0x00000000
        2315000	       230	800001e8	40675113	srai	x2,x14,0x6	 x14:0x00000000  x2=0x00000000
        2325000	       231	800001ec	01c000ef	jal	x1,800001ec	  x1=0x800001ec
        2335000	       232	00000000	00000013	addi	x0,x0,0	  x0:0x00000000
        2345000	       233	80000204	00000013	addi	x0,x0,0	  x0:0x00000000
        2355000	       234	80000208	ff9ff0ef	jal	x1,80000208	  x1=0x80000208
        2365000	       235	00000000	00000013	addi	x0,x0,0	  x0:0x00000000
        2375000	       236	800001fc	00000013	addi	x0,x0,0	  x0:0x00000000
        2385000	       237	80000200	004000ef	jal	x1,80000200	  x1=0x80000200
        2395000	       238	00000000	00000013	addi	x0,x0,0	  x0:0x00000000
        2405000	       239	80000200	00000013	addi	x0,x0,0	  x0:0x00000000
        2415000	       240	80000204	fedff0ef	jal	x1,80000204	  x1=0x80000204
        2425000	       241	00000000	00000013	addi	x0,x0,0	  x0:0x00000000
        2435000	       242	800001ec	00000013	addi	x0,x0,0	  x0:0x00000000
        2445000	       243	800001f0	02000bef	jal	x23,800001f0	 x23=0x800001f0
        2455000	       244	00000000	00000013	addi	x0,x0,0	  x0:0x00000000
        2465000	       245	8000020c	00000013	addi	x0,x0,0	  x0:0x00000000
        2475000	       246	80000210	030000ef	jal	x1,80000210	  x1=0x80000210
        2485000	       247	00000000	00000013	addi	x0,x0,0	  x0:0x00000000
        2495000	       248	8000023c	00000013	addi	x0,x0,0	  x0:0x00000000
        2505000	       249	80000240	fb9ff0ef	jal	x1,80000240	  x1=0x80000240
        2515000	       250	00000000	00000013	addi	x0,x0,0	  x0:0x00000000
        2525000	       251	800001f4	00000013	addi	x0,x0,0	  x0:0x00000000
        2535000	       252	800001f8	0240016f	jal	x2,800001f8	  x2=0x800001f8
        2545000	       253	00000000	00000013	addi	x0,x0,0	  x0:0x00000000
        2555000	       254	80000218	00000013	addi	x0,x0,0	  x0:0x00000000
        2565000	       255	8000021c	028000ef	jal	x1,8000021c	  x1=0x8000021c
        2575000	       256	00000000	00000013	addi	x0,x0,0	  x0:0x00000000
        2585000	       257	80000240	00000013	addi	x0,x0,0	  x0:0x00000000
        2595000	       258	80000244	fb1ff0ef	jal	x1,80000244	  x1=0x80000244
        2605000	       259	00000000	00000013	addi	x0,x0,0	  x0:0x00000000
        2615000	       260	800001f0	00000013	addi	x0,x0,0	  x0:0x00000000
        2625000	       261	800001f4	03c0036f	jal	x6,800001f4	  x6=0x800001f4
        2635000	       262	00000000	00000013	addi	x0,x0,0	  x0:0x00000000
        2645000	       263	8000022c	00000013	addi	x0,x0,0	  x0:0x00000000
        2655000	       264	80000230	fddff0ef	jal	x1,80000230	  x1=0x80000230
        2665000	       265	00000000	00000013	addi	x0,x0,0	  x0:0x00000000
        2675000	       266	80000208	00000013	addi	x0,x0,0	  x0:0x00000000
        2685000	       267	8000020c	008000ef	jal	x1,8000020c	  x1=0x8000020c
        2695000	       268	00000000	00000013	addi	x0,x0,0	  x0:0x00000000
        2705000	       269	80000210	00000013	addi	x0,x0,0	  x0:0x00000000
        2715000	       270	80000214	014008ef	jal	x17,80000214	 x17=0x80000214
        2725000	       271	00000000	00000013	addi	x0,x0,0	  x0:0x00000000
        2735000	       272	80000224	00000013	addi	x0,x0,0	  x0:0x00000000
        2745000	       273	80000228	ffdff36f	jal	x6,80000228	  x6=0x80000228
        2755000	       274	00000000	00000013	addi	x0,x0,0	  x0:0x00000000
        2765000	       275	80000220	00000013	addi	x0,x0,0	  x0:0x00000000
        2775000	       276	80000224	0100046f	jal	x8,80000224	  x8=0x80000224
        2785000	       277	00000000	00000013	addi	x0,x0,0	  x0:0x00000000
        2795000	       278	80000230	00000013	addi	x0,x0,0	  x0:0x00000000
        2805000	       279	80000234	fedff0ef	jal	x1,80000234	  x1=0x80000234
        2815000	       280	00000000	00000013	addi	x0,x0,0	  x0:0x00000000
        2825000	       281	8000021c	00000013	addi	x0,x0,0	  x0:0x00000000
        2835000	       282	80000220	ff9ff36f	jal	x6,80000220	  x6=0x80000220
        2845000	       283	00000000	00000013	addi	x0,x0,0	  x0:0x00000000
        2855000	       284	80000214	00000013	addi	x0,x0,0	  x0:0x00000000
        2865000	       285	80000218	020000ef	jal	x1,80000218	  x1=0x80000218
        2875000	       286	00000000	00000013	addi	x0,x0,0	  x0:0x00000000
        2885000	       287	80000234	00000013	addi	x0,x0,0	  x0:0x00000000
        2895000	       288	80000238	fc5ff96f	jal	x18,80000238	 x18=0x80000238
        2905000	       289	00000000	00000013	addi	x0,x0,0	  x0:0x00000000
        2915000	       290	800001f8	00000013	addi	x0,x0,0	  x0:0x00000000
        2925000	       291	800001fc	030000ef	jal	x1,800001fc	  x1=0x800001fc
        2935000	       292	00000000	00000013	addi	x0,x0,0	  x0:0x00000000
        2945000	       293	80000228	00000013	addi	x0,x0,0	  x0:0x00000000
        2955000	       294	8000022c	010000ef	jal	x1,8000022c	  x1=0x8000022c
        2965000	       295	00000000	00000013	addi	x0,x0,0	  x0:0x00000000
        2975000	       296	80000238	00000013	addi	x0,x0,0	  x0:0x00000000
        2985000	       297	8000023c	00c0036f	jal	x6,8000023c	  x6=0x8000023c
        2995000	       298	00000000	00000013	addi	x0,x0,0	  x0:0x00000000
        3005000	       299	80000244	00000013	addi	x0,x0,0	  x0:0x00000000
        3015000	       300	80000248	01053cb3	sltu	x25,x10,x16	 x10:0x00000003 x16:0xf3d6c68d x25=0x00000001
        3025000	       301	8000024c	040000ef	jal	x1,8000024c	  x1=0x8000024c
        3035000	       302	00000000	00000013	addi	x0,x0,0	  x0:0x00000000
        3045000	       303	80000288	00000013	addi	x0,x0,0	  x0:0x00000000
        3055000	       304	8000028c	ff9ffdef	jal	x27,8000028c	 x27=0x8000028c
        3065000	       305	00000000	00000013	addi	x0,x0,0	  x0:0x00000000
        3075000	       306	80000280	00000013	addi	x0,x0,0	  x0:0x00000000
        3085000	       307	80000284	024000ef	jal	x1,80000284	  x1=0x80000284
        3095000	       308	00000000	00000013	addi	x0,x0,0	  x0:0x00000000
        3105000	       309	800002a4	00000013	addi	x0,x0,0	  x0:0x00000000
        3115000	       310	800002a8	00400e6f	jal	x28,800002a8	 x28=0x800002a8
        3125000	       311	00000000	00000013	addi	x0,x0,0	  x0:0x00000000
        3135000	       312	800002a8	00000013	addi	x0,x0,0	  x0:0x00000000
        3145000	       313	800002ac	004000ef	jal	x1,800002ac	  x1=0x800002ac
        3155000	       314	00000000	00000013	addi	x0,x0,0	  x0:0x00000000
        3165000	       315	800002ac	00000013	addi	x0,x0,0	  x0:0x00000000
        3175000	       316	800002b0	fe5ff0ef	jal	x1,800002b0	  x1=0x800002b0
        3185000	       317	00000000	00000013	addi	x0,x0,0	  x0:0x00000000
        3195000	       318	80000290	00000013	addi	x0,x0,0	  x0:0x00000000
        3205000	       319	80000294	0200036f	jal	x6,80000294	  x6=0x80000294
        3215000	       320	00000000	00000013	addi	x0,x0,0	  x0:0x00000000
        3225000	       321	800002b0	00000013	addi	x0,x0,0	  x0:0x00000000
        3235000	       322	800002b4	0040036f	jal	x6,800002b4	  x6=0x800002b4
        3245000	       323	00000000	00000013	addi	x0,x0,0	  x0:0x00000000
        3255000	       324	800002b4	00000013	addi	x0,x0,0	  x0:0x00000000
        3265000	       325	800002b8	f9dff0ef	jal	x1,800002b8	  x1=0x800002b8
        3275000	       326	00000000	00000013	addi	x0,x0,0	  x0:0x00000000
        3285000	       327	80000250	00000013	addi	x0,x0,0	  x0:0x00000000
        3295000	       328	80000254	004000ef	jal	x1,80000254	  x1=0x80000254
        3305000	       329	00000000	00000013	addi	x0,x0,0	  x0:0x00000000
        3315000	       330	80000254	00000013	addi	x0,x0,0	  x0:0x00000000
        3325000	       331	80000258	0140016f	jal	x2,80000258	  x2=0x80000258
        3335000	       332	00000000	00000013	addi	x0,x0,0	  x0:0x00000000
        3345000	       333	80000268	00000013	addi	x0,x0,0	  x0:0x00000000
        3355000	       334	8000026c	ffdff0ef	jal	x1,8000026c	  x1=0x8000026c
        3365000	       335	00000000	00000013	addi	x0,x0,0	  x0:0x00000000
        3375000	       336	80000264	00000013	addi	x0,x0,0	  x0:0x00000000
        3385000	       337	80000268	034000ef	jal	x1,80000268	  x1=0x80000268
        3395000	       338	00000000	00000013	addi	x0,x0,0	  x0:0x00000000
        3405000	       339	80000298	00000013	addi	x0,x0,0	  x0:0x00000000
        3415000	       340	8000029c	fd5ff0ef	jal	x1,8000029c	  x1=0x8000029c
        3425000	       341	00000000	00000013	addi	x0,x0,0	  x0:0x00000000
        3435000	       342	8000026c	00000013	addi	x0,x0,0	  x0:0x00000000
        3445000	       343	80000270	020000ef	jal	x1,80000270	  x1=0x80000270
        3455000	       344	00000000	00000013	addi	x0,x0,0	  x0:0x00000000
        3465000	       345	8000028c	00000013	addi	x0,x0,0	  x0:0x00000000
        3475000	       346	80000290	fcdff0ef	jal	x1,80000290	  x1=0x80000290
        3485000	       347	00000000	00000013	addi	x0,x0,0	  x0:0x00000000
        3495000	       348	80000258	00000013	addi	x0,x0,0	  x0:0x00000000
        3505000	       349	8000025c	01c0036f	jal	x6,8000025c	  x6=0x8000025c
        3515000	       350	00000000	00000013	addi	x0,x0,0	  x0:0x00000000
        3525000	       351	80000274	00000013	addi	x0,x0,0	  x0:0x00000000
        3535000	       352	80000278	fedff4ef	jal	x9,80000278	  x9=0x80000278
        3545000	       353	00000000	00000013	addi	x0,x0,0	  x0:0x00000000
        3555000	       354	80000260	00000013	addi	x0,x0,0	  x0:0x00000000
        3565000	       355	80000264	0400036f	jal	x6,80000264	  x6=0x80000264
        3575000	       356	00000000	00000013	addi	x0,x0,0	  x0:0x00000000
        3585000	       357	800002a0	00000013	addi	x0,x0,0	  x0:0x00000000
        3595000	       358	800002a4	fddff1ef	jal	x3,800002a4	  x3=0x800002a4
        3605000	       359	00000000	00000013	addi	x0,x0,0	  x0:0x00000000
        3615000	       360	8000027c	00000013	addi	x0,x0,0	  x0:0x00000000
        3625000	       361	80000280	008000ef	jal	x1,80000280	  x1=0x80000280
        3635000	       362	00000000	00000013	addi	x0,x0,0	  x0:0x00000000
        3645000	       363	80000284	00000013	addi	x0,x0,0	  x0:0x00000000
        3655000	       364	80000288	fc9ff36f	jal	x6,80000288	  x6=0x80000288
        3665000	       365	00000000	00000013	addi	x0,x0,0	  x0:0x00000000
        3675000	       366	8000024c	00000013	addi	x0,x0,0	  x0:0x00000000
        3685000	       367	80000250	010001ef	jal	x3,80000250	  x3=0x80000250
        3695000	       368	00000000	00000013	addi	x0,x0,0	  x0:0x00000000
        3705000	       369	8000025c	00000013	addi	x0,x0,0	  x0:0x00000000
        3715000	       370	80000260	014009ef	jal	x19,80000260	 x19=0x80000260
        3725000	       371	00000000	00000013	addi	x0,x0,0	  x0:0x00000000
        3735000	       372	80000270	00000013	addi	x0,x0,0	  x0:0x00000000
        3745000	       373	80000274	02c0016f	jal	x2,80000274	  x2=0x80000274
        3755000	       374	00000000	00000013	addi	x0,x0,0	  x0:0x00000000
        3765000	       375	8000029c	00000013	addi	x0,x0,0	  x0:0x00000000
        3775000	       376	800002a0	ff9ff0ef	jal	x1,800002a0	  x1=0x800002a0
        3785000	       377	00000000	00000013	addi	x0,x0,0	  x0:0x00000000
        3795000	       378	80000294	00000013	addi	x0,x0,0	  x0:0x00000000
        3805000	       379	80000298	fe5ff96f	jal	x18,80000298	 x18=0x80000298
        3815000	       380	00000000	00000013	addi	x0,x0,0	  x0:0x00000000
        3825000	       381	80000278	00000013	addi	x0,x0,0	  x0:0x00000000
        3835000	       382	8000027c	040000ef	jal	x1,8000027c	  x1=0x8000027c
        3845000	       383	00000000	00000013	addi	x0,x0,0	  x0:0x00000000
        3855000	       384	800002b8	00000013	addi	x0,x0,0	  x0:0x00000000
        3865000	       385	800002bc	01ef8a33	add	x20,x31,x30	 x31:0x80000164 x30:0x80009fc4 x20=0x0000a128
        3875000	       386	800002c0	010000ef	jal	x1,800002c0	  x1=0x800002c0
        3885000	       387	00000000	00000013	addi	x0,x0,0	  x0:0x00000000
        3895000	       388	800002cc	00000013	addi	x0,x0,0	  x0:0x00000000
        3905000	       389	800002d0	0340066f	jal	x12,800002d0	 x12=0x800002d0
        3915000	       390	00000000	00000013	addi	x0,x0,0	  x0:0x00000000
        3925000	       391	80000300	00000013	addi	x0,x0,0	  x0:0x00000000
        3935000	       392	80000304	ff9ff1ef	jal	x3,80000304	  x3=0x80000304
        3945000	       393	00000000	00000013	addi	x0,x0,0	  x0:0x00000000
        3955000	       394	800002f8	00000013	addi	x0,x0,0	  x0:0x00000000
        3965000	       395	800002fc	0100036f	jal	x6,800002fc	  x6=0x800002fc
        3975000	       396	00000000	00000013	addi	x0,x0,0	  x0:0x00000000
        3985000	       397	80000308	00000013	addi	x0,x0,0	  x0:0x00000000
        3995000	       398	8000030c	fd1ff0ef	jal	x1,8000030c	  x1=0x8000030c
        4005000	       399	00000000	00000013	addi	x0,x0,0	  x0:0x00000000
        4015000	       400	800002d8	00000013	addi	x0,x0,0	  x0:0x00000000
        4025000	       401	800002dc	008000ef	jal	x1,800002dc	  x1=0x800002dc
        4035000	       402	00000000	00000013	addi	x0,x0,0	  x0:0x00000000
        4045000	       403	800002e0	00000013	addi	x0,x0,0	  x0:0x00000000
        4055000	       404	800002e4	00c00fef	jal	x31,800002e4	 x31=0x800002e4
        4065000	       405	00000000	00000013	addi	x0,x0,0	  x0:0x00000000
        4075000	       406	800002ec	00000013	addi	x0,x0,0	  x0:0x00000000
        4085000	       407	800002f0	ffdff0ef	jal	x1,800002f0	  x1=0x800002f0
        4095000	       408	00000000	00000013	addi	x0,x0,0	  x0:0x00000000
        4105000	       409	800002e8	00000013	addi	x0,x0,0	  x0:0x00000000
        4115000	       410	800002ec	01c0046f	jal	x8,800002ec	  x8=0x800002ec
        4125000	       411	00000000	00000013	addi	x0,x0,0	  x0:0x00000000
        4135000	       412	80000304	00000013	addi	x0,x0,0	  x0:0x00000000
        4145000	       413	80000308	ff9ff16f	jal	x2,80000308	  x2=0x80000308
        4155000	       414	00000000	00000013	addi	x0,x0,0	  x0:0x00000000
        4165000	       415	800002fc	00000013	addi	x0,x0,0	  x0:0x00000000
        4175000	       416	80000300	fd5ffdef	jal	x27,80000300	 x27=0x80000300
        4185000	       417	00000000	00000013	addi	x0,x0,0	  x0:0x00000000
        4195000	       418	800002d0	00000013	addi	x0,x0,0	  x0:0x00000000
        4205000	       419	800002d4	0240036f	jal	x6,800002d4	  x6=0x800002d4
        4215000	       420	00000000	00000013	addi	x0,x0,0	  x0:0x00000000
        4225000	       421	800002f4	00000013	addi	x0,x0,0	  x0:0x00000000
        4235000	       422	800002f8	ffdffaef	jal	x21,800002f8	 x21=0x800002f8
        4245000	       423	00000000	00000013	addi	x0,x0,0	  x0:0x00000000
        4255000	       424	800002f0	00000013	addi	x0,x0,0	  x0:0x00000000
        4265000	       425	800002f4	fd9ff36f	jal	x6,800002f4	  x6=0x800002f4
        4275000	       426	00000000	00000013	addi	x0,x0,0	  x0:0x00000000
        4285000	       427	800002c8	00000013	addi	x0,x0,0	  x0:0x00000000
        4295000	       428	800002cc	014000ef	jal	x1,800002cc	  x1=0x800002cc
        4305000	       429	00000000	00000013	addi	x0,x0,0	  x0:0x00000000
        4315000	       430	800002dc	00000013	addi	x0,x0,0	  x0:0x00000000
        4325000	       431	800002e0	ff9ff0ef	jal	x1,800002e0	  x1=0x800002e0
        4335000	       432	00000000	00000013	addi	x0,x0,0	  x0:0x00000000
        4345000	       433	800002d4	00000013	addi	x0,x0,0	  x0:0x00000000
        4355000	       434	800002d8	fedff0ef	jal	x1,800002d8	  x1=0x800002d8
        4365000	       435	00000000	00000013	addi	x0,x0,0	  x0:0x00000000
        4375000	       436	800002c0	00000013	addi	x0,x0,0	  x0:0x00000000
        4385000	       437	800002c4	02400cef	jal	x25,800002c4	 x25=0x800002c4
        4395000	       438	00000000	00000013	addi	x0,x0,0	  x0:0x00000000
        4405000	       439	800002e4	00000013	addi	x0,x0,0	  x0:0x00000000
        4415000	       440	800002e8	fe1ff36f	jal	x6,800002e8	  x6=0x800002e8
        4425000	       441	00000000	00000013	addi	x0,x0,0	  x0:0x00000000
        4435000	       442	800002c4	00000013	addi	x0,x0,0	  x0:0x00000000
        4445000	       443	800002c8	048000ef	jal	x1,800002c8	  x1=0x800002c8
        4455000	       444	00000000	00000013	addi	x0,x0,0	  x0:0x00000000
        4465000	       445	8000030c	00000013	addi	x0,x0,0	  x0:0x00000000
        4475000	       446	80000310	c808f1b7	lui	x3,0xc808f	  x3=0xc808f000
        4485000	       447	80000314	02c000ef	jal	x1,80000314	  x1=0x80000314
        4495000	       448	00000000	00000013	addi	x0,x0,0	  x0:0x00000000
        4505000	       449	8000033c	00000013	addi	x0,x0,0	  x0:0x00000000
        4515000	       450	80000340	ff1ff0ef	jal	x1,80000340	  x1=0x80000340
        4525000	       451	00000000	00000013	addi	x0,x0,0	  x0:0x00000000
        4535000	       452	8000032c	00000013	addi	x0,x0,0	  x0:0x00000000
        4545000	       453	80000330	fe9ff0ef	jal	x1,80000330	  x1=0x80000330
        4555000	       454	00000000	00000013	addi	x0,x0,0	  x0:0x00000000
        4565000	       455	80000314	00000013	addi	x0,x0,0	  x0:0x00000000
        4575000	       456	80000318	008000ef	jal	x1,80000318	  x1=0x80000318
        4585000	       457	00000000	00000013	addi	x0,x0,0	  x0:0x00000000
        4595000	       458	8000031c	00000013	addi	x0,x0,0	  x0:0x00000000
        4605000	       459	80000320	014000ef	jal	x1,80000320	  x1=0x80000320
        4615000	       460	00000000	00000013	addi	x0,x0,0	  x0:0x00000000
        4625000	       461	80000330	00000013	addi	x0,x0,0	  x0:0x00000000
        4635000	       462	80000334	ff9ff5ef	jal	x11,80000334	 x11=0x80000334
        4645000	       463	00000000	00000013	addi	x0,x0,0	  x0:0x00000000
        4655000	       464	80000328	00000013	addi	x0,x0,0	  x0:0x00000000
        4665000	       465	8000032c	ff1ff16f	jal	x2,8000032c	  x2=0x8000032c
        4675000	       466	00000000	00000013	addi	x0,x0,0	  x0:0x00000000
        4685000	       467	80000318	00000013	addi	x0,x0,0	  x0:0x00000000
        4695000	       468	8000031c	00c000ef	jal	x1,8000031c	  x1=0x8000031c
        4705000	       469	00000000	00000013	addi	x0,x0,0	  x0:0x00000000
        4715000	       470	80000324	00000013	addi	x0,x0,0	  x0:0x00000000
        4725000	       471	80000328	ffdff16f	jal	x2,80000328	  x2=0x80000328
        4735000	       472	00000000	00000013	addi	x0,x0,0	  x0:0x00000000
        4745000	       473	80000320	00000013	addi	x0,x0,0	  x0:0x00000000
        4755000	       474	80000324	01400eef	jal	x29,80000324	 x29=0x80000324
        4765000	       475	00000000	00000013	addi	x0,x0,0	  x0:0x00000000
        4775000	       476	80000334	00000013	addi	x0,x0,0	  x0:0x00000000
        4785000	       477	80000338	0040016f	jal	x2,80000338	  x2=0x80000338
        4795000	       478	00000000	00000013	addi	x0,x0,0	  x0:0x00000000
        4805000	       479	80000338	00000013	addi	x0,x0,0	  x0:0x00000000
        4815000	       480	8000033c	008000ef	jal	x1,8000033c	  x1=0x8000033c
        4825000	       481	00000000	00000013	addi	x0,x0,0	  x0:0x00000000
        4835000	       482	80000340	00000013	addi	x0,x0,0	  x0:0x00000000
        4845000	       483	80000344	00400b6f	jal	x22,80000344	 x22=0x80000344
        4855000	       484	00000000	00000013	addi	x0,x0,0	  x0:0x00000000
        4865000	       485	80000344	00000013	addi	x0,x0,0	  x0:0x00000000
        4875000	       486	80000348	10362813	slti	x16,x12,259	 x12:0x800002d0 x16=0x00000001
        4885000	       487	8000034c	008000ef	jal	x1,8000034c	  x1=0x8000034c
        4895000	       488	00000000	00000013	addi	x0,x0,0	  x0:0x00000000
        4905000	       489	80000350	00000013	addi	x0,x0,0	  x0:0x00000000
        4915000	       490	80000354	014000ef	jal	x1,80000354	  x1=0x80000354
        4925000	       491	00000000	00000013	addi	x0,x0,0	  x0:0x00000000
        4935000	       492	80000364	00000013	addi	x0,x0,0	  x0:0x00000000
        4945000	       493	80000368	00c000ef	jal	x1,80000368	  x1=0x80000368
        4955000	       494	00000000	00000013	addi	x0,x0,0	  x0:0x00000000
        4965000	       495	80000370	00000013	addi	x0,x0,0	  x0:0x00000000
        4975000	       496	80000374	034001ef	jal	x3,80000374	  x3=0x80000374
        4985000	       497	00000000	00000013	addi	x0,x0,0	  x0:0x00000000
        4995000	       498	800003a4	00000013	addi	x0,x0,0	  x0:0x00000000
        5005000	       499	800003a8	fedff36f	jal	x6,800003a8	  x6=0x800003a8
        5015000	       500	00000000	00000013	addi	x0,x0,0	  x0:0x00000000
        5025000	       501	80000390	00000013	addi	x0,x0,0	  x0:0x00000000
        5035000	       502	80000394	0200036f	jal	x6,80000394	  x6=0x80000394
        5045000	       503	00000000	00000013	addi	x0,x0,0	  x0:0x00000000
        5055000	       504	800003b0	00000013	addi	x0,x0,0	  x0:0x00000000
        5065000	       505	800003b4	fc9ff0ef	jal	x1,800003b4	  x1=0x800003b4
        5075000	       506	00000000	00000013	addi	x0,x0,0	  x0:0x00000000
        5085000	       507	80000378	00000013	addi	x0,x0,0	  x0:0x00000000
        5095000	       508	8000037c	fddff3ef	jal	x7,8000037c	  x7=0x8000037c
        5105000	       509	00000000	00000013	addi	x0,x0,0	  x0:0x00000000
        5115000	       510	80000354	00000013	addi	x0,x0,0	  x0:0x00000000
        5125000	       511	80000358	0440016f	jal	x2,80000358	  x2=0x80000358
        5135000	       512	00000000	00000013	addi	x0,x0,0	  x0:0x00000000
        5145000	       513	80000398	00000013	addi	x0,x0,0	  x0:0x00000000
        5155000	       514	8000039c	ff5ff46f	jal	x8,8000039c	  x8=0x8000039c
        5165000	       515	00000000	00000013	addi	x0,x0,0	  x0:0x00000000
        5175000	       516	8000038c	00000013	addi	x0,x0,0	  x0:0x00000000
        5185000	       517	80000390	01c000ef	jal	x1,80000390	  x1=0x80000390
        5195000	       518	00000000	00000013	addi	x0,x0,0	  x0:0x00000000
        5205000	       519	800003a8	00000013	addi	x0,x0,0	  x0:0x00000000
        5215000	       520	800003ac	fa5ff36f	jal	x6,800003ac	  x6=0x800003ac
        5225000	       521	00000000	00000013	addi	x0,x0,0	  x0:0x00000000
        5235000	       522	8000034c	00000013	addi	x0,x0,0	  x0:0x00000000
        5245000	       523	80000350	01000d6f	jal	x26,80000350	 x26=0x80000350
        5255000	       524	00000000	00000013	addi	x0,x0,0	  x0:0x00000000
        5265000	       525	8000035c	00000013	addi	x0,x0,0	  x0:0x00000000
        5275000	       526	80000360	040000ef	jal	x1,80000360	  x1=0x80000360
        5285000	       527	00000000	00000013	addi	x0,x0,0	  x0:0x00000000
        5295000	       528	8000039c	00000013	addi	x0,x0,0	  x0:0x00000000
        5305000	       529	800003a0	ff9ff0ef	jal	x1,800003a0	  x1=0x800003a0
        5315000	       530	00000000	00000013	addi	x0,x0,0	  x0:0x00000000
        5325000	       531	80000394	00000013	addi	x0,x0,0	  x0:0x00000000
        5335000	       532	80000398	fcdff36f	jal	x6,80000398	  x6=0x80000398
        5345000	       533	00000000	00000013	addi	x0,x0,0	  x0:0x00000000
        5355000	       534	80000360	00000013	addi	x0,x0,0	  x0:0x00000000
        5365000	       535	80000364	01c000ef	jal	x1,80000364	  x1=0x80000364
        5375000	       536	00000000	00000013	addi	x0,x0,0	  x0:0x00000000
        5385000	       537	8000037c	00000013	addi	x0,x0,0	  x0:0x00000000
        5395000	       538	80000380	fedff0ef	jal	x1,80000380	  x1=0x80000380
        5405000	       539	00000000	00000013	addi	x0,x0,0	  x0:0x00000000
        5415000	       540	80000368	00000013	addi	x0,x0,0	  x0:0x00000000
        5425000	       541	8000036c	01c00c6f	jal	x24,8000036c	 x24=0x8000036c
        5435000	       542	00000000	00000013	addi	x0,x0,0	  x0:0x00000000
        5445000	       543	80000384	00000013	addi	x0,x0,0	  x0:0x00000000
        5455000	       544	80000388	0300016f	jal	x2,80000388	  x2=0x80000388
        5465000	       545	00000000	00000013	addi	x0,x0,0	  x0:0x00000000
        5475000	       546	800003b4	00000013	addi	x0,x0,0	  x0:0x00000000
        5485000	       547	800003b8	fd5ff0ef	jal	x1,800003b8	  x1=0x800003b8
        5495000	       548	00000000	00000013	addi	x0,x0,0	  x0:0x00000000
        5505000	       549	80000388	00000013	addi	x0,x0,0	  x0:0x00000000
        5515000	       550	8000038c	fe5ff8ef	jal	x17,8000038c	 x17=0x8000038c
        5525000	       551	00000000	00000013	addi	x0,x0,0	  x0:0x00000000
        5535000	       552	8000036c	00000013	addi	x0,x0,0	  x0:0x00000000
        5545000	       553	80000370	014000ef	jal	x1,80000370	  x1=0x80000370
        5555000	       554	00000000	00000013	addi	x0,x0,0	  x0:0x00000000
        5565000	       555	80000380	00000013	addi	x0,x0,0	  x0:0x00000000
        5575000	       556	80000384	ff5ff0ef	jal	x1,80000384	  x1=0x80000384
        5585000	       557	00000000	00000013	addi	x0,x0,0	  x0:0x00000000
        5595000	       558	80000374	00000013	addi	x0,x0,0	  x0:0x00000000
        5605000	       559	80000378	038000ef	jal	x1,80000378	  x1=0x80000378
        5615000	       560	00000000	00000013	addi	x0,x0,0	  x0:0x00000000
        5625000	       561	800003ac	00000013	addi	x0,x0,0	  x0:0x00000000
        5635000	       562	800003b0	ff5ff0ef	jal	x1,800003b0	  x1=0x800003b0
        5645000	       563	00000000	00000013	addi	x0,x0,0	  x0:0x00000000
        5655000	       564	800003a0	00000013	addi	x0,x0,0	  x0:0x00000000
        5665000	       565	800003a4	fb9ff0ef	jal	x1,800003a4	  x1=0x800003a4
        5675000	       566	00000000	00000013	addi	x0,x0,0	  x0:0x00000000
        5685000	       567	80000358	00000013	addi	x0,x0,0	  x0:0x00000000
        5695000	       568	8000035c	06000def	jal	x27,8000035c	 x27=0x8000035c
        5705000	       569	00000000	00000013	addi	x0,x0,0	  x0:0x00000000
        5715000	       570	800003b8	00000013	addi	x0,x0,0	  x0:0x00000000
        5725000	       571	800003bc	00749693	slli	x13,x9,0x7	  x9:0x80000278 x13=0x00013c00
        5735000	       572	800003c0	024000ef	jal	x1,800003c0	  x1=0x800003c0
        5745000	       573	00000000	00000013	addi	x0,x0,0	  x0:0x00000000
        5755000	       574	800003e0	00000013	addi	x0,x0,0	  x0:0x00000000
        5765000	       575	800003e4	01c0076f	jal	x14,800003e4	 x14=0x800003e4
        5775000	       576	00000000	00000013	addi	x0,x0,0	  x0:0x00000000
        5785000	       577	800003fc	00000013	addi	x0,x0,0	  x0:0x00000000
        5795000	       578	80000400	00c006ef	jal	x13,80000400	 x13=0x80000400
        5805000	       579	00000000	00000013	addi	x0,x0,0	  x0:0x00000000
        5815000	       580	80000408	00000013	addi	x0,x0,0	  x0:0x00000000
        5825000	       581	8000040c	fbdff0ef	jal	x1,8000040c	  x1=0x8000040c
        5835000	       582	00000000	00000013	addi	x0,x0,0	  x0:0x00000000
        5845000	       583	800003c4	00000013	addi	x0,x0,0	  x0:0x00000000
        5855000	       584	800003c8	050000ef	jal	x1,800003c8	  x1=0x800003c8
        5865000	       585	00000000	00000013	addi	x0,x0,0	  x0:0x00000000
        5875000	       586	80000414	00000013	addi	x0,x0,0	  x0:0x00000000
        5885000	       587	80000418	fedff1ef	jal	x3,80000418	  x3=0x80000418
        5895000	       588	00000000	00000013	addi	x0,x0,0	  x0:0x00000000
        5905000	       589	80000400	00000013	addi	x0,x0,0	  x0:0x00000000
        5915000	       590	80000404	fd9ff0ef	jal	x1,80000404	  x1=0x80000404
        5925000	       591	00000000	00000013	addi	x0,x0,0	  x0:0x00000000
        5935000	       592	800003d8	00000013	addi	x0,x0,0	  x0:0x00000000
        5945000	       593	800003dc	0540036f	jal	x6,800003dc	  x6=0x800003dc
        5955000	       594	00000000	00000013	addi	x0,x0,0	  x0:0x00000000
        5965000	       595	8000042c	00000013	addi	x0,x0,0	  x0:0x00000000
        5975000	       596	80000430	fbdffaef	jal	x21,80000430	 x21=0x80000430
        5985000	       597	00000000	00000013	addi	x0,x0,0	  x0:0x00000000
        5995000	       598	800003e8	00000013	addi	x0,x0,0	  x0:0x00000000
        6005000	       599	800003ec	0300036f	jal	x6,800003ec	  x6=0x800003ec
        6015000	       600	00000000	00000013	addi	x0,x0,0	  x0:0x00000000
        6025000	       601	80000418	00000013	addi	x0,x0,0	  x0:0x00000000
        6035000	       602	8000041c	fc5ff16f	jal	x2,8000041c	  x2=0x8000041c
        6045000	       603	00000000	00000013	addi	x0,x0,0	  x0:0x00000000
        6055000	       604	800003dc	00000013	addi	x0,x0,0	  x0:0x00000000
        6065000	       605	800003e0	0280036f	jal	x6,800003e0	  x6=0x800003e0
        6075000	       606	00000000	00000013	addi	x0,x0,0	  x0:0x00000000
        6085000	       607	80000404	00000013	addi	x0,x0,0	  x0:0x00000000
        6095000	       608	80000408	00c000ef	jal	x1,80000408	  x1=0x80000408
        6105000	       609	00000000	00000013	addi	x0,x0,0	  x0:0x00000000
        6115000	       610	80000410	00000013	addi	x0,x0,0	  x0:0x00000000
        6125000	       611	80000414	010000ef	jal	x1,80000414	  x1=0x80000414
        6135000	       612	00000000	00000013	addi	x0,x0,0	  x0:0x00000000
        6145000	       613	80000420	00000013	addi	x0,x0,0	  x0:0x00000000
        6155000	       614	80000424	fadff36f	jal	x6,80000424	  x6=0x80000424
        6165000	       615	00000000	00000013	addi	x0,x0,0	  x0:0x00000000
        6175000	       616	800003cc	00000013	addi	x0,x0,0	  x0:0x00000000
        6185000	       617	800003d0	05c001ef	jal	x3,800003d0	  x3=0x800003d0
        6195000	       618	00000000	00000013	addi	x0,x0,0	  x0:0x00000000
        6205000	       619	80000428	00000013	addi	x0,x0,0	  x0:0x00000000
        6215000	       620	8000042c	fadff0ef	jal	x1,8000042c	  x1=0x8000042c
        6225000	       621	00000000	00000013	addi	x0,x0,0	  x0:0x00000000
        6235000	       622	800003d4	00000013	addi	x0,x0,0	  x0:0x00000000
        6245000	       623	800003d8	050000ef	jal	x1,800003d8	  x1=0x800003d8
        6255000	       624	00000000	00000013	addi	x0,x0,0	  x0:0x00000000
        6265000	       625	80000424	00000013	addi	x0,x0,0	  x0:0x00000000
        6275000	       626	80000428	ff9ff0ef	jal	x1,80000428	  x1=0x80000428
        6285000	       627	00000000	00000013	addi	x0,x0,0	  x0:0x00000000
        6295000	       628	8000041c	00000013	addi	x0,x0,0	  x0:0x00000000
        6305000	       629	80000420	fd1ff0ef	jal	x1,80000420	  x1=0x80000420
        6315000	       630	00000000	00000013	addi	x0,x0,0	  x0:0x00000000
        6325000	       631	800003ec	00000013	addi	x0,x0,0	  x0:0x00000000
        6335000	       632	800003f0	fddff0ef	jal	x1,800003f0	  x1=0x800003f0
        6345000	       633	00000000	00000013	addi	x0,x0,0	  x0:0x00000000
        6355000	       634	800003c8	00000013	addi	x0,x0,0	  x0:0x00000000
        6365000	       635	800003cc	008000ef	jal	x1,800003cc	  x1=0x800003cc
        6375000	       636	00000000	00000013	addi	x0,x0,0	  x0:0x00000000
        6385000	       637	800003d0	00000013	addi	x0,x0,0	  x0:0x00000000
        6395000	       638	800003d4	03c000ef	jal	x1,800003d4	  x1=0x800003d4
        6405000	       639	00000000	00000013	addi	x0,x0,0	  x0:0x00000000
        6415000	       640	8000040c	00000013	addi	x0,x0,0	  x0:0x00000000
        6425000	       641	80000410	028000ef	jal	x1,80000410	  x1=0x80000410
        6435000	       642	00000000	00000013	addi	x0,x0,0	  x0:0x00000000
        6445000	       643	80000434	00000013	addi	x0,x0,0	  x0:0x00000000
        6455000	       644	80000438	fbdffe6f	jal	x28,80000438	 x28=0x80000438
        6465000	       645	00000000	00000013	addi	x0,x0,0	  x0:0x00000000
        6475000	       646	800003f0	00000013	addi	x0,x0,0	  x0:0x00000000
        6485000	       647	800003f4	04000b6f	jal	x22,800003f4	 x22=0x800003f4
        6495000	       648	00000000	00000013	addi	x0,x0,0	  x0:0x00000000
        6505000	       649	80000430	00000013	addi	x0,x0,0	  x0:0x00000000
        6515000	       650	80000434	fc5ffcef	jal	x25,80000434	 x25=0x80000434
        6525000	       651	00000000	00000013	addi	x0,x0,0	  x0:0x00000000
        6535000	       652	800003f4	00000013	addi	x0,x0,0	  x0:0x00000000
        6545000	       653	800003f8	004007ef	jal	x15,800003f8	 x15=0x800003f8
        6555000	       654	00000000	00000013	addi	x0,x0,0	  x0:0x00000000
        6565000	       655	800003f8	00000013	addi	x0,x0,0	  x0:0x00000000
        6575000	       656	800003fc	fedff0ef	jal	x1,800003fc	  x1=0x800003fc
        6585000	       657	00000000	00000013	addi	x0,x0,0	  x0:0x00000000
        6595000	       658	800003e4	00000013	addi	x0,x0,0	  x0:0x00000000
        6605000	       659	800003e8	fddff36f	jal	x6,800003e8	  x6=0x800003e8
        6615000	       660	00000000	00000013	addi	x0,x0,0	  x0:0x00000000
        6625000	       661	800003c0	00000013	addi	x0,x0,0	  x0:0x00000000
        6635000	       662	800003c4	0780056f	jal	x10,800003c4	 x10=0x800003c4
        6645000	       663	00000000	00000013	addi	x0,x0,0	  x0:0x00000000
        6655000	       664	80000438	00000013	addi	x0,x0,0	  x0:0x00000000
        6665000	       665	8000043c	40fa5eb3	sra	x29,x20,x15	 x20:0x0000a128 x15:0x800003f8 x29=0x00000000
        6675000	       666	80000440	060000ef	jal	x1,80000440	  x1=0x80000440
        6685000	       667	00000000	00000013	addi	x0,x0,0	  x0:0x00000000
        6695000	       668	8000049c	00000013	addi	x0,x0,0	  x0:0x00000000
        6705000	       669	800004a0	ffdff0ef	jal	x1,800004a0	  x1=0x800004a0
        6715000	       670	00000000	00000013	addi	x0,x0,0	  x0:0x00000000
        6725000	       671	80000498	00000013	addi	x0,x0,0	  x0:0x00000000
        6735000	       672	8000049c	fc9ff36f	jal	x6,8000049c	  x6=0x8000049c
        6745000	       673	00000000	00000013	addi	x0,x0,0	  x0:0x00000000
        6755000	       674	80000460	00000013	addi	x0,x0,0	  x0:0x00000000
        6765000	       675	80000464	ff1ff0ef	jal	x1,80000464	  x1=0x80000464
        6775000	       676	00000000	00000013	addi	x0,x0,0	  x0:0x00000000
        6785000	       677	80000450	00000013	addi	x0,x0,0	  x0:0x00000000
        6795000	       678	80000454	024000ef	jal	x1,80000454	  x1=0x80000454
        6805000	       679	00000000	00000013	addi	x0,x0,0	  x0:0x00000000
        6815000	       680	80000474	00000013	addi	x0,x0,0	  x0:0x00000000
        6825000	       681	80000478	fe1ff8ef	jal	x17,80000478	 x17=0x80000478
        6835000	       682	00000000	00000013	addi	x0,x0,0	  x0:0x00000000
        6845000	       683	80000454	00000013	addi	x0,x0,0	  x0:0x00000000
        6855000	       684	80000458	0040056f	jal	x10,80000458	 x10=0x80000458
        6865000	       685	00000000	00000013	addi	x0,x0,0	  x0:0x00000000
        6875000	       686	80000458	00000013	addi	x0,x0,0	  x0:0x00000000
        6885000	       687	8000045c	00c000ef	jal	x1,8000045c	  x1=0x8000045c
        6895000	       688	00000000	00000013	addi	x0,x0,0	  x0:0x00000000
        6905000	       689	80000464	00000013	addi	x0,x0,0	  x0:0x00000000
        6915000	       690	80000468	040000ef	jal	x1,80000468	  x1=0x80000468
        6925000	       691	00000000	00000013	addi	x0,x0,0	  x0:0x00000000
        6935000	       692	800004a4	00000013	addi	x0,x0,0	  x0:0x00000000
        6945000	       693	800004a8	fa9ff0ef	jal	x1,800004a8	  x1=0x800004a8
        6955000	       694	00000000	00000013	addi	x0,x0,0	  x0:0x00000000
        6965000	       695	8000044c	00000013	addi	x0,x0,0	  x0:0x00000000
        6975000	       696	80000450	010000ef	jal	x1,80000450	  x1=0x80000450
        6985000	       697	00000000	00000013	addi	x0,x0,0	  x0:0x00000000
        6995000	       698	8000045c	00000013	addi	x0,x0,0	  x0:0x00000000
        7005000	       699	80000460	044000ef	jal	x1,80000460	  x1=0x80000460
        7015000	       700	00000000	00000013	addi	x0,x0,0	  x0:0x00000000
        7025000	       701	800004a0	00000013	addi	x0,x0,0	  x0:0x00000000
        7035000	       702	800004a4	fc9ff36f	jal	x6,800004a4	  x6=0x800004a4
        7045000	       703	00000000	00000013	addi	x0,x0,0	  x0:0x00000000
        7055000	       704	80000468	00000013	addi	x0,x0,0	  x0:0x00000000
        7065000	       705	8000046c	020000ef	jal	x1,8000046c	  x1=0x8000046c
        7075000	       706	00000000	00000013	addi	x0,x0,0	  x0:0x00000000
        7085000	       707	80000488	00000013	addi	x0,x0,0	  x0:0x00000000
        7095000	       708	8000048c	00c0086f	jal	x16,8000048c	 x16=0x8000048c
        7105000	       709	00000000	00000013	addi	x0,x0,0	  x0:0x00000000
        7115000	       710	80000494	00000013	addi	x0,x0,0	  x0:0x00000000
        7125000	       711	80000498	fb1ff86f	jal	x16,80000498	 x16=0x80000498
        7135000	       712	00000000	00000013	addi	x0,x0,0	  x0:0x00000000
        7145000	       713	80000444	00000013	addi	x0,x0,0	  x0:0x00000000
        7155000	       714	80000448	02800c6f	jal	x24,80000448	 x24=0x80000448
        7165000	       715	00000000	00000013	addi	x0,x0,0	  x0:0x00000000
        7175000	       716	8000046c	00000013	addi	x0,x0,0	  x0:0x00000000
        7185000	       717	80000470	fd5ff0ef	jal	x1,80000470	  x1=0x80000470
        7195000	       718	00000000	00000013	addi	x0,x0,0	  x0:0x00000000
        7205000	       719	80000440	00000013	addi	x0,x0,0	  x0:0x00000000
        7215000	       720	80000444	03c000ef	jal	x1,80000444	  x1=0x80000444
        7225000	       721	00000000	00000013	addi	x0,x0,0	  x0:0x00000000
        7235000	       722	8000047c	00000013	addi	x0,x0,0	  x0:0x00000000
        7245000	       723	80000480	010004ef	jal	x9,80000480	  x9=0x80000480
        7255000	       724	00000000	00000013	addi	x0,x0,0	  x0:0x00000000
        7265000	       725	8000048c	00000013	addi	x0,x0,0	  x0:0x00000000
        7275000	       726	80000490	ff9ff0ef	jal	x1,80000490	  x1=0x80000490
        7285000	       727	00000000	00000013	addi	x0,x0,0	  x0:0x00000000
        7295000	       728	80000484	00000013	addi	x0,x0,0	  x0:0x00000000
        7305000	       729	80000488	00c0036f	jal	x6,80000488	  x6=0x80000488
        7315000	       730	00000000	00000013	addi	x0,x0,0	  x0:0x00000000
        7325000	       731	80000490	00000013	addi	x0,x0,0	  x0:0x00000000
        7335000	       732	80000494	fe1ff8ef	jal	x17,80000494	 x17=0x80000494
        7345000	       733	00000000	00000013	addi	x0,x0,0	  x0:0x00000000
        7355000	       734	80000470	00000013	addi	x0,x0,0	  x0:0x00000000
        7365000	       735	80000474	fd9ff1ef	jal	x3,80000474	  x3=0x80000474
        7375000	       736	00000000	00000013	addi	x0,x0,0	  x0:0x00000000
        7385000	       737	80000448	00000013	addi	x0,x0,0	  x0:0x00000000
        7395000	       738	8000044c	0380056f	jal	x10,8000044c	 x10=0x8000044c
        7405000	       739	00000000	00000013	addi	x0,x0,0	  x0:0x00000000
        7415000	       740	80000480	00000013	addi	x0,x0,0	  x0:0x00000000
        7425000	       741	80000484	ff9ff0ef	jal	x1,80000484	  x1=0x80000484
        7435000	       742	00000000	00000013	addi	x0,x0,0	  x0:0x00000000
        7445000	       743	80000478	00000013	addi	x0,x0,0	  x0:0x00000000
        7455000	       744	8000047c	030000ef	jal	x1,8000047c	  x1=0x8000047c
        7465000	       745	00000000	00000013	addi	x0,x0,0	  x0:0x00000000
        7475000	       746	800004a8	00000013	addi	x0,x0,0	  x0:0x00000000
        7485000	       747	800004ac	00000013	addi	x0,x0,0	  x0:0x00000000
        7495000	       748	800004b0	044000ef	jal	x1,800004b0	  x1=0x800004b0
        7505000	       749	00000000	00000013	addi	x0,x0,0	  x0:0x00000000
        7515000	       750	800004f0	00000013	addi	x0,x0,0	  x0:0x00000000
        7525000	       751	800004f4	fd1ff0ef	jal	x1,800004f4	  x1=0x800004f4
        7535000	       752	00000000	00000013	addi	x0,x0,0	  x0:0x00000000
        7545000	       753	800004c0	00000013	addi	x0,x0,0	  x0:0x00000000
        7555000	       754	800004c4	020000ef	jal	x1,800004c4	  x1=0x800004c4
        7565000	       755	00000000	00000013	addi	x0,x0,0	  x0:0x00000000
        7575000	       756	800004e0	00000013	addi	x0,x0,0	  x0:0x00000000
        7585000	       757	800004e4	fd9ff36f	jal	x6,800004e4	  x6=0x800004e4
        7595000	       758	00000000	00000013	addi	x0,x0,0	  x0:0x00000000
        7605000	       759	800004b8	00000013	addi	x0,x0,0	  x0:0x00000000
        7615000	       760	800004bc	004001ef	jal	x3,800004bc	  x3=0x800004bc
        7625000	       761	00000000	00000013	addi	x0,x0,0	  x0:0x00000000
        7635000	       762	800004bc	00000013	addi	x0,x0,0	  x0:0x00000000
        7645000	       763	800004c0	028000ef	jal	x1,800004c0	  x1=0x800004c0
        7655000	       764	00000000	00000013	addi	x0,x0,0	  x0:0x00000000
        7665000	       765	800004e4	00000013	addi	x0,x0,0	  x0:0x00000000
        7675000	       766	800004e8	ff5ff36f	jal	x6,800004e8	  x6=0x800004e8
        7685000	       767	00000000	00000013	addi	x0,x0,0	  x0:0x00000000
        7695000	       768	800004d8	00000013	addi	x0,x0,0	  x0:0x00000000
        7705000	       769	800004dc	ff9ff0ef	jal	x1,800004dc	  x1=0x800004dc
        7715000	       770	00000000	00000013	addi	x0,x0,0	  x0:0x00000000
        7725000	       771	800004d0	00000013	addi	x0,x0,0	  x0:0x00000000
        7735000	       772	800004d4	ffdff36f	jal	x6,800004d4	  x6=0x800004d4
        7745000	       773	00000000	00000013	addi	x0,x0,0	  x0:0x00000000
        7755000	       774	800004cc	00000013	addi	x0,x0,0	  x0:0x00000000
        7765000	       775	800004d0	008000ef	jal	x1,800004d0	  x1=0x800004d0
        7775000	       776	00000000	00000013	addi	x0,x0,0	  x0:0x00000000
        7785000	       777	800004d4	00000013	addi	x0,x0,0	  x0:0x00000000
        7795000	       778	800004d8	fe1ff9ef	jal	x19,800004d8	 x19=0x800004d8
        7805000	       779	00000000	00000013	addi	x0,x0,0	  x0:0x00000000
        7815000	       780	800004b4	00000013	addi	x0,x0,0	  x0:0x00000000
        7825000	       781	800004b8	0340036f	jal	x6,800004b8	  x6=0x800004b8
        7835000	       782	00000000	00000013	addi	x0,x0,0	  x0:0x00000000
        7845000	       783	800004e8	00000013	addi	x0,x0,0	  x0:0x00000000
        7855000	       784	800004ec	ff5ff36f	jal	x6,800004ec	  x6=0x800004ec
        7865000	       785	00000000	00000013	addi	x0,x0,0	  x0:0x00000000
        7875000	       786	800004dc	00000013	addi	x0,x0,0	  x0:0x00000000
        7885000	       787	800004e0	fedff0ef	jal	x1,800004e0	  x1=0x800004e0
        7895000	       788	00000000	00000013	addi	x0,x0,0	  x0:0x00000000
        7905000	       789	800004c8	00000013	addi	x0,x0,0	  x0:0x00000000
        7915000	       790	800004cc	02c000ef	jal	x1,800004cc	  x1=0x800004cc
        7925000	       791	00000000	00000013	addi	x0,x0,0	  x0:0x00000000
        7935000	       792	800004f4	00000013	addi	x0,x0,0	  x0:0x00000000
        7945000	       793	800004f8	fd1ffa6f	jal	x20,800004f8	 x20=0x800004f8
        7955000	       794	00000000	00000013	addi	x0,x0,0	  x0:0x00000000
        7965000	       795	800004c4	00000013	addi	x0,x0,0	  x0:0x00000000
        7975000	       796	800004c8	fedff0ef	jal	x1,800004c8	  x1=0x800004c8
        7985000	       797	00000000	00000013	addi	x0,x0,0	  x0:0x00000000
        7995000	       798	800004b0	00000013	addi	x0,x0,0	  x0:0x00000000
        8005000	       799	800004b4	03c0036f	jal	x6,800004b4	  x6=0x800004b4
        8015000	       800	00000000	00000013	addi	x0,x0,0	  x0:0x00000000
        8025000	       801	800004ec	00000013	addi	x0,x0,0	  x0:0x00000000
        8035000	       802	800004f0	00c0036f	jal	x6,800004f0	  x6=0x800004f0
        8045000	       803	00000000	00000013	addi	x0,x0,0	  x0:0x00000000
        8055000	       804	800004f8	00000013	addi	x0,x0,0	  x0:0x00000000
        8065000	       805	800004fc	018353b3	srl	x7,x6,x24	  x6:0x800004f0 x24:0x80000448  x7=0x00800004
        8075000	       806	80000500	00c000ef	jal	x1,80000500	  x1=0x80000500
        8085000	       807	00000000	00000013	addi	x0,x0,0	  x0:0x00000000
        8095000	       808	80000508	00000013	addi	x0,x0,0	  x0:0x00000000
        8105000	       809	8000050c	018000ef	jal	x1,8000050c	  x1=0x8000050c
        8115000	       810	00000000	00000013	addi	x0,x0,0	  x0:0x00000000
        8125000	       811	80000520	00000013	addi	x0,x0,0	  x0:0x00000000
        8135000	       812	80000524	ff1ff0ef	jal	x1,80000524	  x1=0x80000524
        8145000	       813	00000000	00000013	addi	x0,x0,0	  x0:0x00000000
        8155000	       814	80000510	00000013	addi	x0,x0,0	  x0:0x00000000
        8165000	       815	80000514	02c0036f	jal	x6,80000514	  x6=0x80000514
        8175000	       816	00000000	00000013	addi	x0,x0,0	  x0:0x00000000
        8185000	       817	8000053c	00000013	addi	x0,x0,0	  x0:0x00000000
        8195000	       818	80000540	fc5ff0ef	jal	x1,80000540	  x1=0x80000540
        8205000	       819	00000000	00000013	addi	x0,x0,0	  x0:0x00000000
        8215000	       820	80000500	00000013	addi	x0,x0,0	  x0:0x00000000
        8225000	       821	80000504	024000ef	jal	x1,80000504	  x1=0x80000504
        8235000	       822	00000000	00000013	addi	x0,x0,0	  x0:0x00000000
        8245000	       823	80000524	00000013	addi	x0,x0,0	  x0:0x00000000
        8255000	       824	80000528	008003ef	jal	x7,80000528	  x7=0x80000528
        8265000	       825	00000000	00000013	addi	x0,x0,0	  x0:0x00000000
        8275000	       826	8000052c	00000013	addi	x0,x0,0	  x0:0x00000000
        8285000	       827	80000530	0180036f	jal	x6,80000530	  x6=0x80000530
        8295000	       828	00000000	00000013	addi	x0,x0,0	  x0:0x00000000
        8305000	       829	80000544	00000013	addi	x0,x0,0	  x0:0x00000000
        8315000	       830	80000548	ffdff0ef	jal	x1,80000548	  x1=0x80000548
        8325000	       831	00000000	00000013	addi	x0,x0,0	  x0:0x00000000
        8335000	       832	80000540	00000013	addi	x0,x0,0	  x0:0x00000000
        8345000	       833	80000544	ff1ff36f	jal	x6,80000544	  x6=0x80000544
        8355000	       834	00000000	00000013	addi	x0,x0,0	  x0:0x00000000
        8365000	       835	80000530	00000013	addi	x0,x0,0	  x0:0x00000000
        8375000	       836	80000534	fddff0ef	jal	x1,80000534	  x1=0x80000534
        8385000	       837	00000000	00000013	addi	x0,x0,0	  x0:0x00000000
        8395000	       838	8000050c	00000013	addi	x0,x0,0	  x0:0x00000000
        8405000	       839	80000510	0280016f	jal	x2,80000510	  x2=0x80000510
        8415000	       840	00000000	00000013	addi	x0,x0,0	  x0:0x00000000
        8425000	       841	80000534	00000013	addi	x0,x0,0	  x0:0x00000000
        8435000	       842	80000538	fe9ff0ef	jal	x1,80000538	  x1=0x80000538
        8445000	       843	00000000	00000013	addi	x0,x0,0	  x0:0x00000000
        8455000	       844	8000051c	00000013	addi	x0,x0,0	  x0:0x00000000
        8465000	       845	80000520	02c000ef	jal	x1,80000520	  x1=0x80000520
        8475000	       846	00000000	00000013	addi	x0,x0,0	  x0:0x00000000
        8485000	       847	80000548	00000013	addi	x0,x0,0	  x0:0x00000000
        8495000	       848	8000054c	ff1ff0ef	jal	x1,8000054c	  x1=0x8000054c
        8505000	       849	00000000	00000013	addi	x0,x0,0	  x0:0x00000000
        8515000	       850	80000538	00000013	addi	x0,x0,0	  x0:0x00000000
        8525000	       851	8000053c	014000ef	jal	x1,8000053c	  x1=0x8000053c
        8535000	       852	00000000	00000013	addi	x0,x0,0	  x0:0x00000000
        8545000	       853	8000054c	00000013	addi	x0,x0,0	  x0:0x00000000
        8555000	       854	80000550	fc9ff36f	jal	x6,80000550	  x6=0x80000550
        8565000	       855	00000000	00000013	addi	x0,x0,0	  x0:0x00000000
        8575000	       856	80000514	00000013	addi	x0,x0,0	  x0:0x00000000
        8585000	       857	80000518	ff1ff76f	jal	x14,80000518	 x14=0x80000518
        8595000	       858	00000000	00000013	addi	x0,x0,0	  x0:0x00000000
        8605000	       859	80000504	00000013	addi	x0,x0,0	  x0:0x00000000
        8615000	       860	80000508	02400a6f	jal	x20,80000508	 x20=0x80000508
        8625000	       861	00000000	00000013	addi	x0,x0,0	  x0:0x00000000
        8635000	       862	80000528	00000013	addi	x0,x0,0	  x0:0x00000000
        8645000	       863	8000052c	ff1ff0ef	jal	x1,8000052c	  x1=0x8000052c
        8655000	       864	00000000	00000013	addi	x0,x0,0	  x0:0x00000000
        8665000	       865	80000518	00000013	addi	x0,x0,0	  x0:0x00000000
        8675000	       866	8000051c	038000ef	jal	x1,8000051c	  x1=0x8000051c
        8685000	       867	00000000	00000013	addi	x0,x0,0	  x0:0x00000000
        8695000	       868	80000550	00000013	addi	x0,x0,0	  x0:0x00000000
        8705000	       869	80000554	00ff9b93	slli	x23,x31,0xf	 x31:0x800002e4 x23=0x01720000
        8715000	       870	80000558	054000ef	jal	x1,80000558	  x1=0x80000558
        8725000	       871	00000000	00000013	addi	x0,x0,0	  x0:0x00000000
        8735000	       872	800005a8	00000013	addi	x0,x0,0	  x0:0x00000000
        8745000	       873	800005ac	fd5ff8ef	jal	x17,800005ac	 x17=0x800005ac
        8755000	       874	00000000	00000013	addi	x0,x0,0	  x0:0x00000000
        8765000	       875	8000057c	00000013	addi	x0,x0,0	  x0:0x00000000
        8775000	       876	80000580	fe5ff6ef	jal	x13,80000580	 x13=0x80000580
        8785000	       877	00000000	00000013	addi	x0,x0,0	  x0:0x00000000
        8795000	       878	80000560	00000013	addi	x0,x0,0	  x0:0x00000000
        8805000	       879	80000564	040000ef	jal	x1,80000564	  x1=0x80000564
        8815000	       880	00000000	00000013	addi	x0,x0,0	  x0:0x00000000
        8825000	       881	800005a0	00000013	addi	x0,x0,0	  x0:0x00000000
        8835000	       882	800005a4	ff1ff16f	jal	x2,800005a4	  x2=0x800005a4
        8845000	       883	00000000	00000013	addi	x0,x0,0	  x0:0x00000000
        8855000	       884	80000590	00000013	addi	x0,x0,0	  x0:0x00000000
        8865000	       885	80000594	fcdff36f	jal	x6,80000594	  x6=0x80000594
        8875000	       886	00000000	00000013	addi	x0,x0,0	  x0:0x00000000
        8885000	       887	8000055c	00000013	addi	x0,x0,0	  x0:0x00000000
        8895000	       888	80000560	ffdff0ef	jal	x1,80000560	  x1=0x80000560
        8905000	       889	00000000	00000013	addi	x0,x0,0	  x0:0x00000000
        8915000	       890	80000558	00000013	addi	x0,x0,0	  x0:0x00000000
        8925000	       891	8000055c	034000ef	jal	x1,8000055c	  x1=0x8000055c
        8935000	       892	00000000	00000013	addi	x0,x0,0	  x0:0x00000000
        8945000	       893	8000058c	00000013	addi	x0,x0,0	  x0:0x00000000
        8955000	       894	80000590	fe1ff0ef	jal	x1,80000590	  x1=0x80000590
        8965000	       895	00000000	00000013	addi	x0,x0,0	  x0:0x00000000
        8975000	       896	8000056c	00000013	addi	x0,x0,0	  x0:0x00000000
        8985000	       897	80000570	02c0016f	jal	x2,80000570	  x2=0x80000570
        8995000	       898	00000000	00000013	addi	x0,x0,0	  x0:0x00000000
        9005000	       899	80000598	00000013	addi	x0,x0,0	  x0:0x00000000
        9015000	       900	8000059c	004000ef	jal	x1,8000059c	  x1=0x8000059c
        9025000	       901	00000000	00000013	addi	x0,x0,0	  x0:0x00000000
        9035000	       902	8000059c	00000013	addi	x0,x0,0	  x0:0x00000000
        9045000	       903	800005a0	fd5ff9ef	jal	x19,800005a0	 x19=0x800005a0
        9055000	       904	00000000	00000013	addi	x0,x0,0	  x0:0x00000000
        9065000	       905	80000570	00000013	addi	x0,x0,0	  x0:0x00000000
        9075000	       906	80000574	010001ef	jal	x3,80000574	  x3=0x80000574
        9085000	       907	00000000	00000013	addi	x0,x0,0	  x0:0x00000000
        9095000	       908	80000580	00000013	addi	x0,x0,0	  x0:0x00000000
        9105000	       909	80000584	ff9ff0ef	jal	x1,80000584	  x1=0x80000584
        9115000	       910	00000000	00000013	addi	x0,x0,0	  x0:0x00000000
        9125000	       911	80000578	00000013	addi	x0,x0,0	  x0:0x00000000
        9135000	       912	8000057c	ffdff0ef	jal	x1,8000057c	  x1=0x8000057c
        9145000	       913	00000000	00000013	addi	x0,x0,0	  x0:0x00000000
        9155000	       914	80000574	00000013	addi	x0,x0,0	  x0:0x00000000
        9165000	       915	80000578	020000ef	jal	x1,80000578	  x1=0x80000578
        9175000	       916	00000000	00000013	addi	x0,x0,0	  x0:0x00000000
        9185000	       917	80000594	00000013	addi	x0,x0,0	  x0:0x00000000
        9195000	       918	80000598	ff5ff0ef	jal	x1,80000598	  x1=0x80000598
        9205000	       919	00000000	00000013	addi	x0,x0,0	  x0:0x00000000
        9215000	       920	80000588	00000013	addi	x0,x0,0	  x0:0x00000000
        9225000	       921	8000058c	fe1ff36f	jal	x6,8000058c	  x6=0x8000058c
        9235000	       922	00000000	00000013	addi	x0,x0,0	  x0:0x00000000
        9245000	       923	80000568	00000013	addi	x0,x0,0	  x0:0x00000000
        9255000	       924	8000056c	03c000ef	jal	x1,8000056c	  x1=0x8000056c
        9265000	       925	00000000	00000013	addi	x0,x0,0	  x0:0x00000000
        9275000	       926	800005a4	00000013	addi	x0,x0,0	  x0:0x00000000
        9285000	       927	800005a8	fc1ff1ef	jal	x3,800005a8	  x3=0x800005a8
        9295000	       928	00000000	00000013	addi	x0,x0,0	  x0:0x00000000
        9305000	       929	80000564	00000013	addi	x0,x0,0	  x0:0x00000000
        9315000	       930	80000568	0200036f	jal	x6,80000568	  x6=0x80000568
        9325000	       931	00000000	00000013	addi	x0,x0,0	  x0:0x00000000
        9335000	       932	80000584	00000013	addi	x0,x0,0	  x0:0x00000000
        9345000	       933	80000588	0280036f	jal	x6,80000588	  x6=0x80000588
        9355000	       934	00000000	00000013	addi	x0,x0,0	  x0:0x00000000
        9365000	       935	800005ac	00000013	addi	x0,x0,0	  x0:0x00000000
        9375000	       936	800005b0	b6bba493	slti	x9,x23,-1173	 x23:0x01720000  x9=0x00000000
        9385000	       937	800005b4	014000ef	jal	x1,800005b4	  x1=0x800005b4
        9395000	       938	00000000	00000013	addi	x0,x0,0	  x0:0x00000000
        9405000	       939	800005c4	00000013	addi	x0,x0,0	  x0:0x00000000
        9415000	       940	800005c8	010000ef	jal	x1,800005c8	  x1=0x800005c8
        9425000	       941	00000000	00000013	addi	x0,x0,0	  x0:0x00000000
        9435000	       942	800005d4	00000013	addi	x0,x0,0	  x0:0x00000000
        9445000	       943	800005d8	fe9ff1ef	jal	x3,800005d8	  x3=0x800005d8
        9455000	       944	00000000	00000013	addi	x0,x0,0	  x0:0x00000000
        9465000	       945	800005bc	00000013	addi	x0,x0,0	  x0:0x00000000
        9475000	       946	800005c0	01c000ef	jal	x1,800005c0	  x1=0x800005c0
        9485000	       947	00000000	00000013	addi	x0,x0,0	  x0:0x00000000
        9495000	       948	800005d8	00000013	addi	x0,x0,0	  x0:0x00000000
        9505000	       949	800005dc	ff9ff0ef	jal	x1,800005dc	  x1=0x800005dc
        9515000	       950	00000000	00000013	addi	x0,x0,0	  x0:0x00000000
        9525000	       951	800005d0	00000013	addi	x0,x0,0	  x0:0x00000000
        9535000	       952	800005d4	ffdff1ef	jal	x3,800005d4	  x3=0x800005d4
        9545000	       953	00000000	00000013	addi	x0,x0,0	  x0:0x00000000
        9555000	       954	800005cc	00000013	addi	x0,x0,0	  x0:0x00000000
        9565000	       955	800005d0	ffdff0ef	jal	x1,800005d0	  x1=0x800005d0
        9575000	       956	00000000	00000013	addi	x0,x0,0	  x0:0x00000000
        9585000	       957	800005c8	00000013	addi	x0,x0,0	  x0:0x00000000
        9595000	       958	800005cc	ff1ff0ef	jal	x1,800005cc	  x1=0x800005cc
        9605000	       959	00000000	00000013	addi	x0,x0,0	  x0:0x00000000
        9615000	       960	800005b8	00000013	addi	x0,x0,0	  x0:0x00000000
        9625000	       961	800005bc	ffdff9ef	jal	x19,800005bc	 x19=0x800005bc
        9635000	       962	00000000	00000013	addi	x0,x0,0	  x0:0x00000000
        9645000	       963	800005b4	00000013	addi	x0,x0,0	  x0:0x00000000
        9655000	       964	800005b8	00c00eef	jal	x29,800005b8	 x29=0x800005b8
        9665000	       965	00000000	00000013	addi	x0,x0,0	  x0:0x00000000
        9675000	       966	800005c0	00000013	addi	x0,x0,0	  x0:0x00000000
        9685000	       967	800005c4	01c0036f	jal	x6,800005c4	  x6=0x800005c4
        9695000	       968	00000000	00000013	addi	x0,x0,0	  x0:0x00000000
        9705000	       969	800005dc	00000013	addi	x0,x0,0	  x0:0x00000000
        9715000	       970	800005e0	0035c6b3	xor	x13,x11,x3	 x11:0x80000334  x3:0x800005d4 x13=0x000006e0
        9725000	       971	800005e4	004000ef	jal	x1,800005e4	  x1=0x800005e4
        9735000	       972	00000000	00000013	addi	x0,x0,0	  x0:0x00000000
        9745000	       973	800005e4	00000013	addi	x0,x0,0	  x0:0x00000000
        9755000	       974	800005e8	04800e6f	jal	x28,800005e8	 x28=0x800005e8
        9765000	       975	00000000	00000013	addi	x0,x0,0	  x0:0x00000000
        9775000	       976	8000062c	00000013	addi	x0,x0,0	  x0:0x00000000
        9785000	       977	80000630	fc5ff66f	jal	x12,80000630	 x12=0x80000630
        9795000	       978	00000000	00000013	addi	x0,x0,0	  x0:0x00000000
        9805000	       979	800005f0	00000013	addi	x0,x0,0	  x0:0x00000000
        9815000	       980	800005f4	0200056f	jal	x10,800005f4	 x10=0x800005f4
        9825000	       981	00000000	00000013	addi	x0,x0,0	  x0:0x00000000
        9835000	       982	80000610	00000013	addi	x0,x0,0	  x0:0x00000000
        9845000	       983	80000614	020000ef	jal	x1,80000614	  x1=0x80000614
        9855000	       984	00000000	00000013	addi	x0,x0,0	  x0:0x00000000
        9865000	       985	80000630	00000013	addi	x0,x0,0	  x0:0x00000000
        9875000	       986	80000634	fd5ff0ef	jal	x1,80000634	  x1=0x80000634
        9885000	       987	00000000	00000013	addi	x0,x0,0	  x0:0x00000000
        9895000	       988	80000604	00000013	addi	x0,x0,0	  x0:0x00000000
        9905000	       989	80000608	ff5ff0ef	jal	x1,80000608	  x1=0x80000608
        9915000	       990	00000000	00000013	addi	x0,x0,0	  x0:0x00000000
        9925000	       991	800005f8	00000013	addi	x0,x0,0	  x0:0x00000000
        9935000	       992	800005fc	014000ef	jal	x1,800005fc	  x1=0x800005fc
        9945000	       993	00000000	00000013	addi	x0,x0,0	  x0:0x00000000
        9955000	       994	8000060c	00000013	addi	x0,x0,0	  x0:0x00000000
        9965000	       995	80000610	014001ef	jal	x3,80000610	  x3=0x80000610
        9975000	       996	00000000	00000013	addi	x0,x0,0	  x0:0x00000000
        9985000	       997	80000620	00000013	addi	x0,x0,0	  x0:0x00000000
        9995000	       998	80000624	fc9ff0ef	jal	x1,80000624	  x1=0x80000624
       10005000	       999	00000000	00000013	addi	x0,x0,0	  x0:0x00000000
       10015000	      1000	800005e8	00000013	addi	x0,x0,0	  x0:0x00000000
       10025000	      1001	800005ec	0140036f	jal	x6,800005ec	  x6=0x800005ec
       10035000	      1002	00000000	00000013	addi	x0,x0,0	  x0:0x00000000
       10045000	      1003	800005fc	00000013	addi	x0,x0,0	  x0:0x00000000
       10055000	      1004	80000600	02800b6f	jal	x22,80000600	 x22=0x80000600
       10065000	      1005	00000000	00000013	addi	x0,x0,0	  x0:0x00000000
       10075000	      1006	80000624	00000013	addi	x0,x0,0	  x0:0x00000000
       10085000	      1007	80000628	fddff0ef	jal	x1,80000628	  x1=0x80000628
       10095000	      1008	00000000	00000013	addi	x0,x0,0	  x0:0x00000000
       10105000	      1009	80000600	00000013	addi	x0,x0,0	  x0:0x00000000
       10115000	      1010	80000604	028000ef	jal	x1,80000604	  x1=0x80000604
       10125000	      1011	00000000	00000013	addi	x0,x0,0	  x0:0x00000000
       10135000	      1012	80000628	00000013	addi	x0,x0,0	  x0:0x00000000
       10145000	      1013	8000062c	fcdff36f	jal	x6,8000062c	  x6=0x8000062c
       10155000	      1014	00000000	00000013	addi	x0,x0,0	  x0:0x00000000
       10165000	      1015	800005f4	00000013	addi	x0,x0,0	  x0:0x00000000
       10175000	      1016	800005f8	014000ef	jal	x1,800005f8	  x1=0x800005f8
       10185000	      1017	00000000	00000013	addi	x0,x0,0	  x0:0x00000000
       10195000	      1018	80000608	00000013	addi	x0,x0,0	  x0:0x00000000
       10205000	      1019	8000060c	02c00c6f	jal	x24,8000060c	 x24=0x8000060c
       10215000	      1020	00000000	00000013	addi	x0,x0,0	  x0:0x00000000
       10225000	      1021	80000634	00000013	addi	x0,x0,0	  x0:0x00000000
       10235000	      1022	80000638	fe1ff0ef	jal	x1,80000638	  x1=0x80000638
       10245000	      1023	00000000	00000013	addi	x0,x0,0	  x0:0x00000000
       10255000	      1024	80000614	00000013	addi	x0,x0,0	  x0:0x00000000
       10265000	      1025	80000618	008000ef	jal	x1,80000618	  x1=0x80000618
       10275000	      1026	00000000	00000013	addi	x0,x0,0	  x0:0x00000000
       10285000	      1027	8000061c	00000013	addi	x0,x0,0	  x0:0x00000000
       10295000	      1028	80000620	fd1ff0ef	jal	x1,80000620	  x1=0x80000620
       10305000	      1029	00000000	00000013	addi	x0,x0,0	  x0:0x00000000
       10315000	      1030	800005ec	00000013	addi	x0,x0,0	  x0:0x00000000
       10325000	      1031	800005f0	02c000ef	jal	x1,800005f0	  x1=0x800005f0
       10335000	      1032	00000000	00000013	addi	x0,x0,0	  x0:0x00000000
       10345000	      1033	80000618	00000013	addi	x0,x0,0	  x0:0x00000000
       10355000	      1034	8000061c	0200036f	jal	x6,8000061c	  x6=0x8000061c
       10365000	      1035	00000000	00000013	addi	x0,x0,0	  x0:0x00000000
       10375000	      1036	80000638	00000013	addi	x0,x0,0	  x0:0x00000000
       10385000	      1037	8000063c	d9a2c917	auipc	x18,0xd9a2c	 x18=0x59a2c638
       10395000	      1038	80000640	030000ef	jal	x1,80000640	  x1=0x80000640
       10405000	      1039	00000000	00000013	addi	x0,x0,0	  x0:0x00000000
       10415000	      1040	8000066c	00000013	addi	x0,x0,0	  x0:0x00000000
       10425000	      1041	80000670	ff9ff0ef	jal	x1,80000670	  x1=0x80000670
       10435000	      1042	00000000	00000013	addi	x0,x0,0	  x0:0x00000000
       10445000	      1043	80000664	00000013	addi	x0,x0,0	  x0:0x00000000
       10455000	      1044	80000668	004009ef	jal	x19,80000668	 x19=0x80000668
       10465000	      1045	00000000	00000013	addi	x0,x0,0	  x0:0x00000000
       10475000	      1046	80000668	00000013	addi	x0,x0,0	  x0:0x00000000
       10485000	      1047	8000066c	fe1ff0ef	jal	x1,8000066c	  x1=0x8000066c
       10495000	      1048	00000000	00000013	addi	x0,x0,0	  x0:0x00000000
       10505000	      1049	80000648	00000013	addi	x0,x0,0	  x0:0x00000000
       10515000	      1050	8000064c	004000ef	jal	x1,8000064c	  x1=0x8000064c
       10525000	      1051	00000000	00000013	addi	x0,x0,0	  x0:0x00000000
       10535000	      1052	8000064c	00000013	addi	x0,x0,0	  x0:0x00000000
       10545000	      1053	80000650	00800aef	jal	x21,80000650	 x21=0x80000650
       10555000	      1054	00000000	00000013	addi	x0,x0,0	  x0:0x00000000
       10565000	      1055	80000654	00000013	addi	x0,x0,0	  x0:0x00000000
       10575000	      1056	80000658	ff1ff6ef	jal	x13,80000658	 x13=0x80000658
       10585000	      1057	00000000	00000013	addi	x0,x0,0	  x0:0x00000000
       10595000	      1058	80000644	00000013	addi	x0,x0,0	  x0:0x00000000
       10605000	      1059	80000648	00c000ef	jal	x1,80000648	  x1=0x80000648
       10615000	      1060	00000000	00000013	addi	x0,x0,0	  x0:0x00000000
       10625000	      1061	80000650	00000013	addi	x0,x0,0	  x0:0x00000000
       10635000	      1062	80000654	010000ef	jal	x1,80000654	  x1=0x80000654
       10645000	      1063	00000000	00000013	addi	x0,x0,0	  x0:0x00000000
       10655000	      1064	80000660	00000013	addi	x0,x0,0	  x0:0x00000000
       10665000	      1065	80000664	fe1ff0ef	jal	x1,80000664	  x1=0x80000664
       10675000	      1066	00000000	00000013	addi	x0,x0,0	  x0:0x00000000
       10685000	      1067	80000640	00000013	addi	x0,x0,0	  x0:0x00000000
       10695000	      1068	80000644	01c000ef	jal	x1,80000644	  x1=0x80000644
       10705000	      1069	00000000	00000013	addi	x0,x0,0	  x0:0x00000000
       10715000	      1070	8000065c	00000013	addi	x0,x0,0	  x0:0x00000000
       10725000	      1071	80000660	014000ef	jal	x1,80000660	  x1=0x80000660
       10735000	      1072	00000000	00000013	addi	x0,x0,0	  x0:0x00000000
       10745000	      1073	80000670	00000013	addi	x0,x0,0	  x0:0x00000000
       10755000	      1074	80000674	fe9ff36f	jal	x6,80000674	  x6=0x80000674
       10765000	      1075	00000000	00000013	addi	x0,x0,0	  x0:0x00000000
       10775000	      1076	80000658	00000013	addi	x0,x0,0	  x0:0x00000000
       10785000	      1077	8000065c	01c000ef	jal	x1,8000065c	  x1=0x8000065c
       10795000	      1078	00000000	00000013	addi	x0,x0,0	  x0:0x00000000
       10805000	      1079	80000674	00000013	addi	x0,x0,0	  x0:0x00000000
       10815000	      1080	80000678	5483ce93	xori	x29,x7,1352	  x7:0x80000528 x29=0x80000060
       10825000	      1081	8000067c	030000ef	jal	x1,8000067c	  x1=0x8000067c
       10835000	      1082	00000000	00000013	addi	x0,x0,0	  x0:0x00000000
       10845000	      1083	800006a8	00000013	addi	x0,x0,0	  x0:0x00000000
       10855000	      1084	800006ac	fe9ff46f	jal	x8,800006ac	  x8=0x800006ac
       10865000	      1085	00000000	00000013	addi	x0,x0,0	  x0:0x00000000
       10875000	      1086	80000690	00000013	addi	x0,x0,0	  x0:0x00000000
       10885000	      1087	80000694	028000ef	jal	x1,80000694	  x1=0x80000694
       10895000	      1088	00000000	00000013	addi	x0,x0,0	  x0:0x00000000
       10905000	      1089	800006b8	00000013	addi	x0,x0,0	  x0:0x00000000
       10915000	      1090	800006bc	fddff0ef	jal	x1,800006bc	  x1=0x800006bc
       10925000	      1091	00000000	00000013	addi	x0,x0,0	  x0:0x00000000
       10935000	      1092	80000694	00000013	addi	x0,x0,0	  x0:0x00000000
       10945000	      1093	80000698	010000ef	jal	x1,80000698	  x1=0x80000698
       10955000	      1094	00000000	00000013	addi	x0,x0,0	  x0:0x00000000
       10965000	      1095	800006a4	00000013	addi	x0,x0,0	  x0:0x00000000
       10975000	      1096	800006a8	fe1ffdef	jal	x27,800006a8	 x27=0x800006a8
       10985000	      1097	00000000	00000013	addi	x0,x0,0	  x0:0x00000000
       10995000	      1098	80000684	00000013	addi	x0,x0,0	  x0:0x00000000
       11005000	      1099	80000688	018001ef	jal	x3,80000688	  x3=0x80000688
       11015000	      1100	00000000	00000013	addi	x0,x0,0	  x0:0x00000000
       11025000	      1101	8000069c	00000013	addi	x0,x0,0	  x0:0x00000000
       11035000	      1102	800006a0	fe1ff36f	jal	x6,800006a0	  x6=0x800006a0
       11045000	      1103	00000000	00000013	addi	x0,x0,0	  x0:0x00000000
       11055000	      1104	8000067c	00000013	addi	x0,x0,0	  x0:0x00000000
       11065000	      1105	80000680	004000ef	jal	x1,80000680	  x1=0x80000680
       11075000	      1106	00000000	00000013	addi	x0,x0,0	  x0:0x00000000
       11085000	      1107	80000680	00000013	addi	x0,x0,0	  x0:0x00000000
       11095000	      1108	80000684	0180036f	jal	x6,80000684	  x6=0x80000684
       11105000	      1109	00000000	00000013	addi	x0,x0,0	  x0:0x00000000
       11115000	      1110	80000698	00000013	addi	x0,x0,0	  x0:0x00000000
       11125000	      1111	8000069c	0080036f	jal	x6,8000069c	  x6=0x8000069c
       11135000	      1112	00000000	00000013	addi	x0,x0,0	  x0:0x00000000
       11145000	      1113	800006a0	00000013	addi	x0,x0,0	  x0:0x00000000
       11155000	      1114	800006a4	014000ef	jal	x1,800006a4	  x1=0x800006a4
       11165000	      1115	00000000	00000013	addi	x0,x0,0	  x0:0x00000000
       11175000	      1116	800006b4	00000013	addi	x0,x0,0	  x0:0x00000000
       11185000	      1117	800006b8	fd5ff36f	jal	x6,800006b8	  x6=0x800006b8
       11195000	      1118	00000000	00000013	addi	x0,x0,0	  x0:0x00000000
       11205000	      1119	80000688	00000013	addi	x0,x0,0	  x0:0x00000000
       11215000	      1120	8000068c	0280096f	jal	x18,8000068c	 x18=0x8000068c
       11225000	      1121	00000000	00000013	addi	x0,x0,0	  x0:0x00000000
       11235000	      1122	800006b0	00000013	addi	x0,x0,0	  x0:0x00000000
       11245000	      1123	800006b4	ffdff0ef	jal	x1,800006b4	  x1=0x800006b4
       11255000	      1124	00000000	00000013	addi	x0,x0,0	  x0:0x00000000
       11265000	      1125	800006ac	00000013	addi	x0,x0,0	  x0:0x00000000
       11275000	      1126	800006b0	fe1ff0ef	jal	x1,800006b0	  x1=0x800006b0
       11285000	      1127	00000000	00000013	addi	x0,x0,0	  x0:0x00000000
       11295000	      1128	8000068c	00000013	addi	x0,x0,0	  x0:0x00000000
       11305000	      1129	80000690	030000ef	jal	x1,80000690	  x1=0x80000690
       11315000	      1130	00000000	00000013	addi	x0,x0,0	  x0:0x00000000
       11325000	      1131	800006bc	00000013	addi	x0,x0,0	  x0:0x00000000
       11335000	      1132	800006c0	01c4dcb3	srl	x25,x9,x28	  x9:0x00000000 x28:0x800005e8 x25=0x00000000
       11345000	      1133	800006c4	048000ef	jal	x1,800006c4	  x1=0x800006c4
       11355000	      1134	00000000	00000013	addi	x0,x0,0	  x0:0x00000000
       11365000	      1135	80000708	00000013	addi	x0,x0,0	  x0:0x00000000
       11375000	      1136	8000070c	fe5ff0ef	jal	x1,8000070c	  x1=0x8000070c
       11385000	      1137	00000000	00000013	addi	x0,x0,0	  x0:0x00000000
       11395000	      1138	800006ec	00000013	addi	x0,x0,0	  x0:0x00000000
       11405000	      1139	800006f0	034000ef	jal	x1,800006f0	  x1=0x800006f0
       11415000	      1140	00000000	00000013	addi	x0,x0,0	  x0:0x00000000
       11425000	      1141	80000720	00000013	addi	x0,x0,0	  x0:0x00000000
       11435000	      1142	80000724	fd1ff0ef	jal	x1,80000724	  x1=0x80000724
       11445000	      1143	00000000	00000013	addi	x0,x0,0	  x0:0x00000000
       11455000	      1144	800006f0	00000013	addi	x0,x0,0	  x0:0x00000000
       11465000	      1145	800006f4	034000ef	jal	x1,800006f4	  x1=0x800006f4
       11475000	      1146	00000000	00000013	addi	x0,x0,0	  x0:0x00000000
       11485000	      1147	80000724	00000013	addi	x0,x0,0	  x0:0x00000000
       11495000	      1148	80000728	fd1ff0ef	jal	x1,80000728	  x1=0x80000728
       11505000	      1149	00000000	00000013	addi	x0,x0,0	  x0:0x00000000
       11515000	      1150	800006f4	00000013	addi	x0,x0,0	  x0:0x00000000
       11525000	      1151	800006f8	fd5ff0ef	jal	x1,800006f8	  x1=0x800006f8
       11535000	      1152	00000000	00000013	addi	x0,x0,0	  x0:0x00000000
       11545000	      1153	800006c8	00000013	addi	x0,x0,0	  x0:0x00000000
       11555000	      1154	800006cc	030000ef	jal	x1,800006cc	  x1=0x800006cc
       11565000	      1155	00000000	00000013	addi	x0,x0,0	  x0:0x00000000
       11575000	      1156	800006f8	00000013	addi	x0,x0,0	  x0:0x00000000
       11585000	      1157	800006fc	ff1ff0ef	jal	x1,800006fc	  x1=0x800006fc
       11595000	      1158	00000000	00000013	addi	x0,x0,0	  x0:0x00000000
       11605000	      1159	800006e8	00000013	addi	x0,x0,0	  x0:0x00000000
       11615000	      1160	800006ec	01c000ef	jal	x1,800006ec	  x1=0x800006ec
       11625000	      1161	00000000	00000013	addi	x0,x0,0	  x0:0x00000000
       11635000	      1162	80000704	00000013	addi	x0,x0,0	  x0:0x00000000
       11645000	      1163	80000708	024000ef	jal	x1,80000708	  x1=0x80000708
       11655000	      1164	00000000	00000013	addi	x0,x0,0	  x0:0x00000000
       11665000	      1165	80000728	00000013	addi	x0,x0,0	  x0:0x00000000
       11675000	      1166	8000072c	fd9ff36f	jal	x6,8000072c	  x6=0x8000072c
       11685000	      1167	00000000	00000013	addi	x0,x0,0	  x0:0x00000000
       11695000	      1168	80000700	00000013	addi	x0,x0,0	  x0:0x00000000
       11705000	      1169	80000704	01c0016f	jal	x2,80000704	  x2=0x80000704
       11715000	      1170	00000000	00000013	addi	x0,x0,0	  x0:0x00000000
       11725000	      1171	8000071c	00000013	addi	x0,x0,0	  x0:0x00000000
       11735000	      1172	80000720	fe1ff0ef	jal	x1,80000720	  x1=0x80000720
       11745000	      1173	00000000	00000013	addi	x0,x0,0	  x0:0x00000000
       11755000	      1174	800006fc	00000013	addi	x0,x0,0	  x0:0x00000000
       11765000	      1175	80000700	fc9ff0ef	jal	x1,80000700	  x1=0x80000700
       11775000	      1176	00000000	00000013	addi	x0,x0,0	  x0:0x00000000
       11785000	      1177	800006c4	00000013	addi	x0,x0,0	  x0:0x00000000
       11795000	      1178	800006c8	008001ef	jal	x3,800006c8	  x3=0x800006c8
       11805000	      1179	00000000	00000013	addi	x0,x0,0	  x0:0x00000000
       11815000	      1180	800006cc	00000013	addi	x0,x0,0	  x0:0x00000000
       11825000	      1181	800006d0	010000ef	jal	x1,800006d0	  x1=0x800006d0
       11835000	      1182	00000000	00000013	addi	x0,x0,0	  x0:0x00000000
       11845000	      1183	800006dc	00000013	addi	x0,x0,0	  x0:0x00000000
       11855000	      1184	800006e0	03c000ef	jal	x1,800006e0	  x1=0x800006e0
       11865000	      1185	00000000	00000013	addi	x0,x0,0	  x0:0x00000000
       11875000	      1186	80000718	00000013	addi	x0,x0,0	  x0:0x00000000
       11885000	      1187	8000071c	fc9ff36f	jal	x6,8000071c	  x6=0x8000071c
       11895000	      1188	00000000	00000013	addi	x0,x0,0	  x0:0x00000000
       11905000	      1189	800006e0	00000013	addi	x0,x0,0	  x0:0x00000000
       11915000	      1190	800006e4	ff9ff0ef	jal	x1,800006e4	  x1=0x800006e4
       11925000	      1191	00000000	00000013	addi	x0,x0,0	  x0:0x00000000
       11935000	      1192	800006d8	00000013	addi	x0,x0,0	  x0:0x00000000
       11945000	      1193	800006dc	ff9ffc6f	jal	x24,800006dc	 x24=0x800006dc
       11955000	      1194	00000000	00000013	addi	x0,x0,0	  x0:0x00000000
       11965000	      1195	800006d0	00000013	addi	x0,x0,0	  x0:0x00000000
       11975000	      1196	800006d4	0440036f	jal	x6,800006d4	  x6=0x800006d4
       11985000	      1197	00000000	00000013	addi	x0,x0,0	  x0:0x00000000
       11995000	      1198	80000714	00000013	addi	x0,x0,0	  x0:0x00000000
       12005000	      1199	80000718	ff9ff16f	jal	x2,80000718	  x2=0x80000718
       12015000	      1200	00000000	00000013	addi	x0,x0,0	  x0:0x00000000
       12025000	      1201	8000070c	00000013	addi	x0,x0,0	  x0:0x00000000
       12035000	      1202	80000710	004000ef	jal	x1,80000710	  x1=0x80000710
       12045000	      1203	00000000	00000013	addi	x0,x0,0	  x0:0x00000000
       12055000	      1204	80000710	00000013	addi	x0,x0,0	  x0:0x00000000
       12065000	      1205	80000714	fc5ff0ef	jal	x1,80000714	  x1=0x80000714
       12075000	      1206	00000000	00000013	addi	x0,x0,0	  x0:0x00000000
       12085000	      1207	800006d4	00000013	addi	x0,x0,0	  x0:0x00000000
       12095000	      1208	800006d8	010000ef	jal	x1,800006d8	  x1=0x800006d8
       12105000	      1209	00000000	00000013	addi	x0,x0,0	  x0:0x00000000
       12115000	      1210	800006e4	00000013	addi	x0,x0,0	  x0:0x00000000
       12125000	      1211	800006e8	0480016f	jal	x2,800006e8	  x2=0x800006e8
       12135000	      1212	00000000	00000013	addi	x0,x0,0	  x0:0x00000000
       12145000	      1213	8000072c	00000013	addi	x0,x0,0	  x0:0x00000000
       12155000	      1214	80000730	00b1c033	xor	x0,x3,x11	  x3:0x800006c8 x11:0x80000334
       12165000	      1215	80000734	41325833	sra	x16,x4,x19	  x4:0x80009f84 x19:0x80000668 x16=0xff80009f
       12175000	      1216	80000738	292e3e93	sltiu	x29,x28,658	 x28:0x800005e8 x29=0x00000000
       12185000	      1217	8000073c	004a8033	add	x0,x21,x4	 x21:0x80000650  x4:0x80009f84
       12195000	      1218	80000740	00419c63	bne	x3,x4,80000758	  x3:0x800006c8  x4:0x80009f84
       12205000	      1219	00000000	00000013	addi	x0,x0,0	  x0:0x00000000
       12215000	      1220	80000754	00000013	addi	x0,x0,0	  x0:0x00000000
       12225000	      1221	80000758	c860dbb7	lui	x23,0xc860d	 x23=0xc860d000
       12235000	      1222	8000075c	05b3c063	blt	x7,x27,8000079c	  x7:0x80000528 x27:0x800006a8
       12245000	      1223	00000000	00000013	addi	x0,x0,0	  x0:0x00000000
       12255000	      1224	80000798	00000013	addi	x0,x0,0	  x0:0x00000000
       12265000	      1225	8000079c	01239b13	slli	x22,x7,0x12	  x7:0x80000528 x22=0x14a00000
       12275000	      1226	800007a0	01b78463	beq	x15,x27,800007a8	 x15:0x800003f8 x27:0x800006a8
       12285000	      1227	800007a4	01fa85b3	add	x11,x21,x31	 x21:0x80000650 x31:0x800002e4 x11=0x00000934
       12295000	      1228	800007a8	01cdebb3	or	x23,x27,x28	 x27:0x800006a8 x28:0x800005e8 x23=0x800007e8
       12305000	      1229	800007ac	40c556b3	sra	x13,x10,x12	 x10:0x800005f4 x12:0x80000630 x13=0xffff8000
       12315000	      1230	800007b0	00000013	addi	x0,x0,0	  x0:0x00000000
       12325000	      1231	800007b4	00229633	sll	x12,x5,x2	  x5:0x00000000  x2:0x800006e8 x12=0x00000000
       12335000	      1232	800007b8	004847b3	xor	x15,x16,x4	 x16:0xff80009f  x4:0x80009f84 x15=0x7f809f1b
       12345000	      1233	800007bc	efc0ab93	slti	x23,x1,-260	  x1:0x800006d8 x23=0x00000001
       12355000	      1234	800007c0	010ab5b3	sltu	x11,x21,x16	 x21:0x80000650 x16:0xff80009f x11=0x00000001
       12365000	      1235	800007c4	34d94a93	xori	x21,x18,845	 x18:0x8000068c x21=0x800005c1
       12375000	      1236	800007c8	01571a63	bne	x14,x21,800007dc	 x14:0x80000518 x21:0x800005c1
       12385000	      1237	00000000	00000013	addi	x0,x0,0	  x0:0x00000000
       12395000	      1238	800007d8	00000013	addi	x0,x0,0	  x0:0x00000000
       12405000	      1239	800007dc	037bf263	bgeu	x23,x23,80000800	 x23:0x00000001 x23:0x00000001
       12415000	      1240	00000000	00000013	addi	x0,x0,0	  x0:0x00000000
       12425000	      1241	800007fc	00000013	addi	x0,x0,0	  x0:0x00000000
       12435000	      1242	80000800	01b1d813	srli	x16,x3,0x1b	  x3:0x800006c8 x16=0x00000010
       12445000	      1243	80000804	e3680693	addi	x13,x16,-458	 x16:0x00000010 x13=0xfffffe46
       12455000	      1244	80000808	00b949b3	xor	x19,x18,x11	 x18:0x8000068c x11:0x00000001 x19=0x8000068d
       12465000	      1245	8000080c	013d76b3	and	x13,x26,x19	 x26:0x80000350 x19:0x8000068d x13=0x80000200
       12475000	      1246	80000810	008568b3	or	x17,x10,x8	 x10:0x800005f4  x8:0x800006ac x17=0x800007fc
       12485000	      1247	80000814	01d66133	or	x2,x12,x29	 x12:0x00000000 x29:0x00000000  x2=0x00000000
       12495000	      1248	80000818	408e84b3	sub	x9,x29,x8	 x29:0x00000000  x8:0x800006ac  x9=0x7ffff954
       12505000	      1249	8000081c	0040db13	srli	x22,x1,0x4	  x1:0x800006d8 x22=0x0800006d
       12515000	      1250	80000820	0103e0b3	or	x1,x7,x16	  x7:0x80000528 x16:0x00000010  x1=0x80000538
       12525000	      1251	80000824	095be463	bltu	x23,x21,800008ac	 x23:0x00000001 x21:0x800005c1
       12535000	      1252	00000000	00000013	addi	x0,x0,0	  x0:0x00000000
       12545000	      1253	800008a8	00000013	addi	x0,x0,0	  x0:0x00000000
       12555000	      1254	800008ac	994cc697	auipc	x13,0x994cc	 x13=0x194cc8a8
       12565000	      1255	800008b0	00bad193	srli	x3,x21,0xb	 x21:0x800005c1  x3=0x00100000
       12575000	      1256	800008b4	00000013	addi	x0,x0,0	  x0:0x00000000
       12585000	      1257	800008b8	403b8333	sub	x6,x23,x3	 x23:0x00000001  x3:0x00100000  x6=0xfff00001
       12595000	      1258	800008bc	ed9b8093	addi	x1,x23,-295	 x23:0x00000001  x1=0xfffffeda
       12605000	      1259	800008c0	41855cb3	sra	x25,x10,x24	 x10:0x800005f4 x24:0x800006dc x25=0xfffffff8
       12615000	      1260	800008c4	00000013	addi	x0,x0,0	  x0:0x00000000
       12625000	      1261	800008c8	400adeb3	sra	x29,x21,x0	 x21:0x800005c1  x0:0x00000000 x29=0x800005c1
       12635000	      1262	800008cc	041e7663	bgeu	x28,x1,80000918	 x28:0x800005e8  x1:0xfffffeda
       12645000	      1263	800008d0	62433513	sltiu	x10,x6,1572	  x6:0xfff00001 x10=0x00000000
       12655000	      1264	800008d4	40b98fb3	sub	x31,x19,x11	 x19:0x8000068d x11:0x00000001 x31=0x8000068c
       12665000	      1265	800008d8	003eee63	bltu	x29,x3,800008f4	 x29:0x800005c1  x3:0x00100000
       12675000	      1266	800008dc	5dffcf93	xori	x31,x31,1503	 x31:0x8000068c x31=0x80000353
       12685000	      1267	800008e0	01d7b333	sltu	x6,x15,x29	 x15:0x7f809f1b x29:0x800005c1  x6=0x00000001
       12695000	      1268	800008e4	0068f263	bgeu	x17,x6,800008e8	 x17:0x800007fc  x6:0x00000001
       12705000	      1269	00000000	00000013	addi	x0,x0,0	  x0:0x00000000
       12715000	      1270	800008e4	00000013	addi	x0,x0,0	  x0:0x00000000
       12725000	      1271	800008e8	01bd01b3	add	x3,x26,x27	 x26:0x80000350 x27:0x800006a8  x3=0x000009f8
       12735000	      1272	800008ec	01de90b3	sll	x1,x29,x29	 x29:0x800005c1 x29:0x800005c1  x1=0x00000b82
       12745000	      1273	800008f0	41f204b3	sub	x9,x4,x31	  x4:0x80009f84 x31:0x80000353  x9=0x00009c31
       12755000	      1274	800008f4	212a9117	auipc	x2,0x212a9	  x2=0xa12a98f0
       12765000	      1275	800008f8	417880b3	sub	x1,x17,x23	 x17:0x800007fc x23:0x00000001  x1=0x800007fb
       12775000	      1276	800008fc	41715bb3	sra	x23,x2,x23	  x2:0xa12a98f0 x23:0x00000001 x23=0xd0954c78
       12785000	      1277	80000900	00000013	addi	x0,x0,0	  x0:0x00000000
       12795000	      1278	80000904	41585893	srai	x17,x16,0x15	 x16:0x00000010 x17=0x00000000
       12805000	      1279	80000908	03e21c63	bne	x4,x30,80000940	  x4:0x80009f84 x30:0x80009fc4
       12815000	      1280	00000000	00000013	addi	x0,x0,0	  x0:0x00000000
       12825000	      1281	8000093c	00000013	addi	x0,x0,0	  x0:0x00000000
       12835000	      1282	80000940	01312b33	slt	x22,x2,x19	  x2:0xa12a98f0 x19:0x8000068d x22=0x00000000
       12845000	      1283	80000944	00170263	beq	x14,x1,80000948	 x14:0x80000518  x1:0x800007fb
       12855000	      1284	80000948	01be9393	slli	x7,x29,0x1b	 x29:0x800005c1  x7=0x08000000
       12865000	      1285	8000094c	a17f7893	andi	x17,x30,-1513	 x30:0x80009fc4 x17=0x80009a04
       12875000	      1286	80000950	01438cb3	add	x25,x7,x20	  x7:0x08000000 x20:0x80000508 x25=0x88000508
       12885000	      1287	80000954	351c2e13	slti	x28,x24,849	 x24:0x800006dc x28=0x00000001
       12895000	      1288	80000958	00ed9533	sll	x10,x27,x14	 x27:0x800006a8 x14:0x80000518 x10=0xa8000000
       12905000	      1289	8000095c	00b1ceb3	xor	x29,x3,x11	  x3:0x000009f8 x11:0x00000001 x29=0x000009f9
       12915000	      1290	80000960	00549a93	slli	x21,x9,0x5	  x9:0x00009c31 x21=0x00138620
       12925000	      1291	80000964	00496333	or	x6,x18,x4	 x18:0x8000068c  x4:0x80009f84  x6=0x80009f8c
       12935000	      1292	80000968	0234de63	bge	x9,x3,800009a4	  x9:0x00009c31  x3:0x000009f8
       12945000	      1293	00000000	00000013	addi	x0,x0,0	  x0:0x00000000
       12955000	      1294	800009a0	00000013	addi	x0,x0,0	  x0:0x00000000
       12965000	      1295	800009a4	c803ed13	ori	x26,x7,-896	  x7:0x08000000 x26=0xfffffc80
       12975000	      1296	800009a8	04be1263	bne	x28,x11,800009ec	 x28:0x00000001 x11:0x00000001
       12985000	      1297	800009ac	00000013	addi	x0,x0,0	  x0:0x00000000
       12995000	      1298	800009b0	ff524e13	xori	x28,x4,-11	  x4:0x80009f84 x28=0x7fff6071
       13005000	      1299	800009b4	40aad9b3	sra	x19,x21,x10	 x21:0x00138620 x10:0xa8000000 x19=0x00138620
       13015000	      1300	800009b8	017a5fb3	srl	x31,x20,x23	 x20:0x80000508 x23:0xd0954c78 x31=0x00000080
       13025000	      1301	800009bc	00f42c33	slt	x24,x8,x15	  x8:0x800006ac x15:0x7f809f1b x24=0x00000001
       13035000	      1302	800009c0	002cd1b3	srl	x3,x25,x2	 x25:0x88000508  x2:0xa12a98f0  x3=0x00008800
       13045000	      1303	800009c4	05d92393	slti	x7,x18,93	 x18:0x8000068c  x7=0x00000001
       13055000	      1304	800009c8	00000013	addi	x0,x0,0	  x0:0x00000000
       13065000	      1305	800009cc	40c85793	srai	x15,x16,0xc	 x16:0x00000010 x15=0x00000000
       13075000	      1306	800009d0	00da4833	xor	x16,x20,x13	 x20:0x80000508 x13:0x194cc8a8 x16=0x994ccda0
       13085000	      1307	800009d4	e4228d13	addi	x26,x5,-446	  x5:0x00000000 x26=0xfffffe42
       13095000	      1308	800009d8	00000013	addi	x0,x0,0	  x0:0x00000000
       13105000	      1309	800009dc	00000013	addi	x0,x0,0	  x0:0x00000000
       13115000	      1310	800009e0	406d8a33	sub	x20,x27,x6	 x27:0x800006a8  x6:0x80009f8c x20=0xffff671c
       13125000	      1311	800009e4	0435f263	bgeu	x11,x3,80000a28	 x11:0x00000001  x3:0x00008800
       13135000	      1312	800009e8	014bfc33	and	x24,x23,x20	 x23:0xd0954c78 x20:0xffff671c x24=0xd0954418
       13145000	      1313	800009ec	05f7e093	ori	x1,x15,95	 x15:0x00000000  x1=0x0000005f
       13155000	      1314	800009f0	40405193	srai	x3,x0,0x4	  x0:0x00000000  x3=0x00000000
       13165000	      1315	800009f4	007ffbb3	and	x23,x31,x7	 x31:0x00000080  x7:0x00000001 x23=0x00000000
       13175000	      1316	800009f8	00000013	addi	x0,x0,0	  x0:0x00000000
       13185000	      1317	800009fc	8be88713	addi	x14,x17,-1858	 x17:0x80009a04 x14=0x800092c2
       13195000	      1318	80000a00	41295533	sra	x10,x18,x18	 x18:0x8000068c x18:0x8000068c x10=0xfff80000
       13205000	      1319	80000a04	00b60b33	add	x22,x12,x11	 x12:0x00000000 x11:0x00000001 x22=0x00000001
       13215000	      1320	80000a08	01b83133	sltu	x2,x16,x27	 x16:0x994ccda0 x27:0x800006a8  x2=0x00000000
       13225000	      1321	80000a0c	41c25e93	srai	x29,x4,0x1c	  x4:0x80009f84 x29=0xfffffff8
       13235000	      1322	80000a10	ae316eb7	lui	x29,0xae316	 x29=0xae316000
       13245000	      1323	80000a14	9ce94993	xori	x19,x18,-1586	 x18:0x8000068c x19=0x7fffff42
       13255000	      1324	80000a18	0546f063	bgeu	x13,x20,80000a58	 x13:0x194cc8a8 x20:0xffff671c
       13265000	      1325	80000a1c	00da60b3	or	x1,x20,x13	 x20:0xffff671c x13:0x194cc8a8  x1=0xffffefbc
       13275000	      1326	80000a20	03a6fc63	bgeu	x13,x26,80000a58	 x13:0x194cc8a8 x26:0xfffffe42
       13285000	      1327	80000a24	01f8b9b3	sltu	x19,x17,x31	 x17:0x80009a04 x31:0x00000080 x19=0x00000000
       13295000	      1328	80000a28	00e69c33	sll	x24,x13,x14	 x13:0x194cc8a8 x14:0x800092c2 x24=0x653322a0
       13305000	      1329	80000a2c	52f8b093	sltiu	x1,x17,1327	 x17:0x80009a04  x1=0x00000000
       13315000	      1330	80000a30	01a7cab3	xor	x21,x15,x26	 x15:0x00000000 x26:0xfffffe42 x21=0xfffffe42
       13325000	      1331	80000a34	02452013	slti	x0,x10,36	 x10:0xfff80000
       13335000	      1332	80000a38	02fd1e63	bne	x26,x15,80000a74	 x26:0xfffffe42 x15:0x00000000
       13345000	      1333	00000000	00000013	addi	x0,x0,0	  x0:0x00000000
       13355000	      1334	80000a70	00000013	addi	x0,x0,0	  x0:0x00000000
       13365000	      1335	80000a74	deb8e017	auipc	x0,0xdeb8e	
       13375000	      1336	80000a78	01e39c93	slli	x25,x7,0x1e	  x7:0x00000001 x25=0x40000000
       13385000	      1337	80000a7c	0245ec63	bltu	x11,x4,80000ab4	 x11:0x00000001  x4:0x80009f84
       13395000	      1338	00000000	00000013	addi	x0,x0,0	  x0:0x00000000
       13405000	      1339	80000ab0	00000013	addi	x0,x0,0	  x0:0x00000000
       13415000	      1340	80000ab4	08228c93	addi	x25,x5,130	  x5:0x00000000 x25=0x00000082
       13425000	      1341	80000ab8	c2feaf93	slti	x31,x29,-977	 x29:0xae316000 x31=0x00000001
       13435000	      1342	80000abc	01c0c3b3	xor	x7,x1,x28	  x1:0x00000000 x28:0x7fff6071  x7=0x7fff6071
       13445000	      1343	80000ac0	01a65263	bge	x12,x26,80000ac4	 x12:0x00000000 x26:0xfffffe42
       13455000	      1344	00000000	00000013	addi	x0,x0,0	  x0:0x00000000
       13465000	      1345	80000ac0	00000013	addi	x0,x0,0	  x0:0x00000000
       13475000	      1346	80000ac4	404f85b3	sub	x11,x31,x4	 x31:0x00000001  x4:0x80009f84 x11=0x7fff607d
       13485000	      1347	80000ac8	13bc6a93	ori	x21,x24,315	 x24:0x653322a0 x21=0x653323bb
       13495000	      1348	80000acc	8df5e117	auipc	x2,0x8df5e	  x2=0x0df5eac8
       13505000	      1349	80000ad0	00001d17	auipc	x26,0x1	 x26=0x80001acc
       13515000	      1350	80000ad4	744d0d13	addi	x26,x26,1860	 x26:0x80001acc x26=0x80002210
       13525000	      1351	80000ad8	fe2d0d13	addi	x26,x26,-30	 x26:0x80002210 x26=0x800021f2
       13535000	      1352	80000adc	a9452c93	slti	x25,x10,-1388	 x10:0xfff80000 x25=0x00000001
       13545000	      1353	80000ae0	00adc633	xor	x12,x27,x10	 x27:0x800006a8 x10:0xfff80000 x12=0x7ff806a8
       13555000	      1354	80000ae4	aa34f817	auipc	x16,0xaa34f	 x16=0x2a34fae0
       13565000	      1355	80000ae8	01ab67b3	or	x15,x22,x26	 x22:0x00000001 x26:0x800021f2 x15=0x800021f3
       13575000	      1356	80000aec	41c55413	srai	x8,x10,0x1c	 x10:0xfff80000  x8=0xffffffff
       13585000	      1357	80000af0	2fa63e93	sltiu	x29,x12,762	 x12:0x7ff806a8 x29=0x00000000
       13595000	      1358	80000af4	00b2e633	or	x12,x5,x11	  x5:0x00000000 x11:0x7fff607d x12=0x7fff607d
       13605000	      1359	80000af8	01ed00e7	jalr	x1,x26,30	 x26:0x800021f2  x1=0x80000af8
       13615000	      1360	00000000	00000013	addi	x0,x0,0	  x0:0x00000000
       13625000	      1361	80002210	00000013	addi	x0,x0,0	  x0:0x00000000
       13635000	      1362	80002214	00a391b3	sll	x3,x7,x10	  x7:0x7fff6071 x10:0xfff80000  x3=0x7fff6071
       13645000	      1363	80002218	005a64b3	or	x9,x20,x5	 x20:0xffff671c  x5:0x00000000  x9=0xffff671c
       13655000	      1364	8000221c	7783be93	sltiu	x29,x7,1912	  x7:0x7fff6071 x29=0x00000000
       13665000	      1365	80002220	4016de93	srai	x29,x13,0x1	 x13:0x194cc8a8 x29=0x0ca66454
       13675000	      1366	80002224	ff420213	addi	x4,x4,-12	  x4:0x80009f84  x4=0x80009f78
       13685000	      1367	80002228	008b77b3	and	x15,x22,x8	 x22:0x00000001  x8:0xffffffff x15=0x00000001
       13695000	      1368	8000222c	01671193	slli	x3,x14,0x16	 x14:0x800092c2  x3=0xb0800000
       13705000	      1369	80002230	00122223	sw	x1,4(x4)	  x4:0x80009f78  x1:0x80000af8 PA:0x80009f7c
       13715000	      1370	80002234	00a5df93	srli	x31,x11,0xa	 x11:0x7fff607d x31=0x001fffd8
       13725000	      1371	80002238	41f05b33	sra	x22,x0,x31	  x0:0x00000000 x31:0x001fffd8 x22=0x00000000
       13735000	      1372	8000223c	6f3b7f97	auipc	x31,0x6f3b7	 x31=0xef3b9238
       13745000	      1373	80002240	00f85013	srli	x0,x16,0xf	 x16:0x2a34fae0
       13755000	      1374	80002244	00a4da63	bge	x9,x10,80002258	  x9:0xffff671c x10:0xfff80000
       13765000	      1375	00000000	00000013	addi	x0,x0,0	  x0:0x00000000
       13775000	      1376	80002254	00000013	addi	x0,x0,0	  x0:0x00000000
       13785000	      1377	80002258	01a21593	slli	x11,x4,0x1a	  x4:0x80009f78 x11=0xe0000000
       13795000	      1378	8000225c	40038eb3	sub	x29,x7,x0	  x7:0x7fff6071  x0:0x00000000 x29=0x7fff6071
       13805000	      1379	80002260	75e1c593	xori	x11,x3,1886	  x3:0xb0800000 x11=0xb080075e
       13815000	      1380	80002264	9b547193	andi	x3,x8,-1611	  x8:0xffffffff  x3=0xfffff9b5
       13825000	      1381	80002268	01f47d33	and	x26,x8,x31	  x8:0xffffffff x31:0xef3b9238 x26=0xef3b9238
       13835000	      1382	8000226c	020c7e63	bgeu	x24,x0,800022a8	 x24:0x653322a0  x0:0x00000000
       13845000	      1383	00000000	00000013	addi	x0,x0,0	  x0:0x00000000
       13855000	      1384	800022a4	00000013	addi	x0,x0,0	  x0:0x00000000
       13865000	      1385	800022a8	00921033	sll	x0,x4,x9	  x4:0x80009f78  x9:0xffff671c
       13875000	      1386	800022ac	bf23a4b7	lui	x9,0xbf23a	  x9=0xbf23a000
       13885000	      1387	800022b0	5e29bb13	sltiu	x22,x19,1506	 x19:0x00000000 x22=0x00000001
       13895000	      1388	800022b4	00422083	lw	x1,4(x4)	  x4:0x80009f78  x1=0x80000af8 PA:0x80009f7c
       13905000	      1389	800022b8	d5ed4a13	xori	x20,x26,-674	 x26:0xef3b9238 x20=0x10c46f66
       13915000	      1390	800022bc	402b5d13	srai	x26,x22,0x2	 x22:0x00000001 x26=0x00000000
       13925000	      1391	800022c0	00c20213	addi	x4,x4,12	  x4:0x80009f78  x4=0x80009f84
       13935000	      1392	800022c4	00000013	addi	x0,x0,0	  x0:0x00000000
       13945000	      1393	800022c8	00b8f333	and	x6,x17,x11	 x17:0x80009a04 x11:0xb080075e  x6=0x80000204
       13955000	      1394	800022cc	01569e13	slli	x28,x13,0x15	 x13:0x194cc8a8 x28=0x15000000
       13965000	      1395	800022d0	00008093	addi	x1,x1,0	  x1:0x80000af8  x1=0x80000af8
       13975000	      1396	800022d4	000080e7	jalr	x1,x1,0	  x1:0x80000af8  x1=0x800022d4
       13985000	      1397	00000000	00000013	addi	x0,x0,0	  x0:0x00000000
       13995000	      1398	80000af8	00000013	addi	x0,x0,0	  x0:0x00000000
       14005000	      1399	80000afc	037f8263	beq	x31,x23,80000b20	 x31:0xef3b9238 x23:0x00000000
       14015000	      1400	80000b00	ccb10393	addi	x7,x2,-821	  x2:0x0df5eac8  x7=0x0df5e793
       14025000	      1401	80000b04	0186a0b3	slt	x1,x13,x24	 x13:0x194cc8a8 x24:0x653322a0  x1=0x00000001
       14035000	      1402	80000b08	ef6eaa13	slti	x20,x29,-266	 x29:0x7fff6071 x20=0x00000000
       14045000	      1403	80000b0c	00000013	addi	x0,x0,0	  x0:0x00000000
       14055000	      1404	80000b10	cbcb4c13	xori	x24,x22,-836	 x22:0x00000001 x24=0xfffffcbd
       14065000	      1405	80000b14	01f9b5b3	sltu	x11,x19,x31	 x19:0x00000000 x31:0xef3b9238 x11=0x00000001
       14075000	      1406	80000b18	7bd6a793	slti	x15,x13,1981	 x13:0x194cc8a8 x15=0x00000000
       14085000	      1407	80000b1c	01c37733	and	x14,x6,x28	  x6:0x80000204 x28:0x15000000 x14=0x00000000
       14095000	      1408	80000b20	015709b3	add	x19,x14,x21	 x14:0x00000000 x21:0x653323bb x19=0x653323bb
       14105000	      1409	80000b24	41f95eb3	sra	x29,x18,x31	 x18:0x8000068c x31:0xef3b9238 x29=0xffffff80
       14115000	      1410	80000b28	010d0bb3	add	x23,x26,x16	 x26:0x00000000 x16:0x2a34fae0 x23=0x2a34fae0
       14125000	      1411	80000b2c	146a5f97	auipc	x31,0x146a5	 x31=0x946a5b28
       14135000	      1412	80000b30	01d87133	and	x2,x16,x29	 x16:0x2a34fae0 x29:0xffffff80  x2=0x2a34fa80
       14145000	      1413	80000b34	08191c63	bne	x18,x1,80000bcc	 x18:0x8000068c  x1:0x00000001
       14155000	      1414	00000000	00000013	addi	x0,x0,0	  x0:0x00000000
       14165000	      1415	80000bc8	00000013	addi	x0,x0,0	  x0:0x00000000
       14175000	      1416	80000bcc	0135a133	slt	x2,x11,x19	 x11:0x00000001 x19:0x653323bb  x2=0x00000001
       14185000	      1417	80000bd0	aa8aca93	xori	x21,x21,-1368	 x21:0x653323bb x21=0x9accd913
       14195000	      1418	80000bd4	003a43b3	xor	x7,x20,x3	 x20:0x00000000  x3:0xfffff9b5  x7=0xfffff9b5
       14205000	      1419	80000bd8	7d06eb93	ori	x23,x13,2000	 x13:0x194cc8a8 x23=0x194ccff8
       14215000	      1420	80000bdc	003ce9b3	or	x19,x25,x3	 x25:0x00000001  x3:0xfffff9b5 x19=0xfffff9b5
       14225000	      1421	80000be0	01457663	bgeu	x10,x20,80000bec	 x10:0xfff80000 x20:0x00000000
       14235000	      1422	00000000	00000013	addi	x0,x0,0	  x0:0x00000000
       14245000	      1423	80000be8	00000013	addi	x0,x0,0	  x0:0x00000000
       14255000	      1424	80000bec	002cffb3	and	x31,x25,x2	 x25:0x00000001  x2:0x00000001 x31=0x00000001
       14265000	      1425	80000bf0	00000013	addi	x0,x0,0	  x0:0x00000000
       14275000	      1426	80000bf4	0139fc33	and	x24,x19,x19	 x19:0xfffff9b5 x19:0xfffff9b5 x24=0xfffff9b5
       14285000	      1427	80000bf8	41d487b3	sub	x15,x9,x29	  x9:0xbf23a000 x29:0xffffff80 x15=0xbf23a080
       14295000	      1428	80000bfc	b7f03d13	sltiu	x26,x0,-1153	  x0:0x00000000 x26=0x00000001
       14305000	      1429	80000c00	004a1c63	bne	x20,x4,80000c18	 x20:0x00000000  x4:0x80009f84
       14315000	      1430	00000000	00000013	addi	x0,x0,0	  x0:0x00000000
       14325000	      1431	80000c14	00000013	addi	x0,x0,0	  x0:0x00000000
       14335000	      1432	80000c18	018c9263	bne	x25,x24,80000c1c	 x25:0x00000001 x24:0xfffff9b5
       14345000	      1433	00000000	00000013	addi	x0,x0,0	  x0:0x00000000
       14355000	      1434	80000c18	00000013	addi	x0,x0,0	  x0:0x00000000
       14365000	      1435	80000c1c	002a2bb3	slt	x23,x20,x2	 x20:0x00000000  x2:0x00000001 x23=0x00000001
       14375000	      1436	80000c20	009eee63	bltu	x29,x9,80000c3c	 x29:0xffffff80  x9:0xbf23a000
       14385000	      1437	80000c24	40f35133	sra	x2,x6,x15	  x6:0x80000204 x15:0xbf23a080  x2=0x80000204
       14395000	      1438	80000c28	01155263	bge	x10,x17,80000c2c	 x10:0xfff80000 x17:0x80009a04
       14405000	      1439	00000000	00000013	addi	x0,x0,0	  x0:0x00000000
       14415000	      1440	80000c28	00000013	addi	x0,x0,0	  x0:0x00000000
       14425000	      1441	80000c2c	006bb733	sltu	x14,x23,x6	 x23:0x00000001  x6:0x80000204 x14=0x00000001
       14435000	      1442	80000c30	4aea8b13	addi	x22,x21,1198	 x21:0x9accd913 x22=0x9accddc1
       14445000	      1443	80000c34	014cd713	srli	x14,x25,0x14	 x25:0x00000001 x14=0x00000000
       14455000	      1444	80000c38	43f56713	ori	x14,x10,1087	 x10:0xfff80000 x14=0xfff8043f
       14465000	      1445	80000c3c	8f46fb93	andi	x23,x13,-1804	 x13:0x194cc8a8 x23=0x194cc8a0
       14475000	      1446	80000c40	012f4a63	blt	x30,x18,80000c54	 x30:0x80009fc4 x18:0x8000068c
       14485000	      1447	80000c44	00900c63	beq	x0,x9,80000c5c	  x0:0x00000000  x9:0xbf23a000
       14495000	      1448	80000c48	01b49a93	slli	x21,x9,0x1b	  x9:0xbf23a000 x21=0x00000000
       14505000	      1449	80000c4c	af4a0537	lui	x10,0xaf4a0	 x10=0xaf4a0000
       14515000	      1450	80000c50	00be8833	add	x16,x29,x11	 x29:0xffffff80 x11:0x00000001 x16=0xffffff81
       14525000	      1451	80000c54	010f1463	bne	x30,x16,80000c5c	 x30:0x80009fc4 x16:0xffffff81
       14535000	      1452	00000000	00000013	addi	x0,x0,0	  x0:0x00000000
       14545000	      1453	80000c58	00000013	addi	x0,x0,0	  x0:0x00000000
       14555000	      1454	80000c5c	04ae7863	bgeu	x28,x10,80000cac	 x28:0x15000000 x10:0xaf4a0000
       14565000	      1455	80000c60	00a430b3	sltu	x1,x8,x10	  x8:0xffffffff x10:0xaf4a0000  x1=0x00000000
       14575000	      1456	80000c64	01722d33	slt	x26,x4,x23	  x4:0x80009f84 x23:0x194cc8a0 x26=0x00000001
       14585000	      1457	80000c68	0079dd93	srli	x27,x19,0x7	 x19:0xfffff9b5 x27=0x01fffff3
       14595000	      1458	80000c6c	01a95793	srli	x15,x18,0x1a	 x18:0x8000068c x15=0x00000020
       14605000	      1459	80000c70	da197d13	andi	x26,x18,-607	 x18:0x8000068c x26=0x80000480
       14615000	      1460	80000c74	a0cf6313	ori	x6,x30,-1524	 x30:0x80009fc4  x6=0xffffffcc
       14625000	      1461	80000c78	00064833	xor	x16,x12,x0	 x12:0x7fff607d  x0:0x00000000 x16=0x7fff607d
       14635000	      1462	80000c7c	004487b3	add	x15,x9,x4	  x9:0xbf23a000  x4:0x80009f84 x15=0x3f243f84
       14645000	      1463	80000c80	4092d393	srai	x7,x5,0x9	  x5:0x00000000  x7=0x00000000
       14655000	      1464	80000c84	25b5f413	andi	x8,x11,603	 x11:0x00000001  x8=0x00000001
       14665000	      1465	80000c88	05b95863	bge	x18,x27,80000cd8	 x18:0x8000068c x27:0x01fffff3
       14675000	      1466	80000c8c	5ba9af93	slti	x31,x19,1466	 x19:0xfffff9b5 x31=0x00000001
       14685000	      1467	80000c90	00d57833	and	x16,x10,x13	 x10:0xaf4a0000 x13:0x194cc8a8 x16=0x09480000
       14695000	      1468	80000c94	00000013	addi	x0,x0,0	  x0:0x00000000
       14705000	      1469	80000c98	044a1863	bne	x20,x4,80000ce8	 x20:0x00000000  x4:0x80009f84
       14715000	      1470	00000000	00000013	addi	x0,x0,0	  x0:0x00000000
       14725000	      1471	80000ce4	00000013	addi	x0,x0,0	  x0:0x00000000
       14735000	      1472	80000ce8	00081c63	bne	x16,x0,80000d00	 x16:0x09480000  x0:0x00000000
       14745000	      1473	00000000	00000013	addi	x0,x0,0	  x0:0x00000000
       14755000	      1474	80000cfc	00000013	addi	x0,x0,0	  x0:0x00000000
       14765000	      1475	80000d00	00f42bb3	slt	x23,x8,x15	  x8:0x00000001 x15:0x3f243f84 x23=0x00000001
       14775000	      1476	80000d04	00bb9193	slli	x3,x23,0xb	 x23:0x00000001  x3=0x00000800
       14785000	      1477	80000d08	01cb1bb3	sll	x23,x22,x28	 x22:0x9accddc1 x28:0x15000000 x23=0x9accddc1
       14795000	      1478	80000d0c	41995013	srai	x0,x18,0x19	 x18:0x8000068c
       14805000	      1479	80000d10	01d5acb3	slt	x25,x11,x29	 x11:0x00000001 x29:0xffffff80 x25=0x00000000
       14815000	      1480	80000d14	415b89b3	sub	x19,x23,x21	 x23:0x9accddc1 x21:0x00000000 x19=0x9accddc1
       14825000	      1481	80000d18	41375993	srai	x19,x14,0x13	 x14:0xfff8043f x19=0xffffffff
       14835000	      1482	80000d1c	01426663	bltu	x4,x20,80000d28	  x4:0x80009f84 x20:0x00000000
       14845000	      1483	80000d20	00799a63	bne	x19,x7,80000d34	 x19:0xffffffff  x7:0x00000000
       14855000	      1484	00000000	00000013	addi	x0,x0,0	  x0:0x00000000
       14865000	      1485	80000d30	00000013	addi	x0,x0,0	  x0:0x00000000
       14875000	      1486	80000d34	006fde93	srli	x29,x31,0x6	 x31:0x00000001 x29=0x00000000
       14885000	      1487	80000d38	0448e063	bltu	x17,x4,80000d78	 x17:0x80009a04  x4:0x80009f84
       14895000	      1488	00000000	00000013	addi	x0,x0,0	  x0:0x00000000
       14905000	      1489	80000d74	00000013	addi	x0,x0,0	  x0:0x00000000
       14915000	      1490	80000d78	018f58b3	srl	x17,x30,x24	 x30:0x80009fc4 x24:0xfffff9b5 x17=0x00000400
       14925000	      1491	80000d7c	004bedb3	or	x27,x23,x4	 x23:0x9accddc1  x4:0x80009f84 x27=0x9accdfc5
       14935000	      1492	80000d80	0006c333	xor	x6,x13,x0	 x13:0x194cc8a8  x0:0x00000000  x6=0x194cc8a8
       14945000	      1493	80000d84	00b75413	srli	x8,x14,0xb	 x14:0xfff8043f  x8=0x001fff00
       14955000	      1494	80000d88	26527c93	andi	x25,x4,613	  x4:0x80009f84 x25=0x00000204
       14965000	      1495	80000d8c	8f826f93	ori	x31,x4,-1800	  x4:0x80009f84 x31=0xfffffffc
       14975000	      1496	80000d90	01bd0db3	add	x27,x26,x27	 x26:0x80000480 x27:0x9accdfc5 x27=0x1acce445
       14985000	      1497	80000d94	00ddbc33	sltu	x24,x27,x13	 x27:0x1acce445 x13:0x194cc8a8 x24=0x00000000
       14995000	      1498	80000d98	408ed633	sra	x12,x29,x8	 x29:0x00000000  x8:0x001fff00 x12=0x00000000
       15005000	      1499	80000d9c	017f2cb3	slt	x25,x30,x23	 x30:0x80009fc4 x23:0x9accddc1 x25=0x00000001
       15015000	      1500	80000da0	00319833	sll	x16,x3,x3	  x3:0x00000800  x3:0x00000800 x16=0x00000800
       15025000	      1501	80000da4	01a85d93	srli	x27,x16,0x1a	 x16:0x00000800 x27=0x00000000
       15035000	      1502	80000da8	1bf57c13	andi	x24,x10,447	 x10:0xaf4a0000 x24=0x00000000
       15045000	      1503	80000dac	03e75c63	bge	x14,x30,80000de4	 x14:0xfff8043f x30:0x80009fc4
       15055000	      1504	00000000	00000013	addi	x0,x0,0	  x0:0x00000000
       15065000	      1505	80000de0	00000013	addi	x0,x0,0	  x0:0x00000000
       15075000	      1506	80000de4	fe116493	ori	x9,x2,-31	  x2:0x80000204  x9=0xffffffe5
       15085000	      1507	80000de8	413a8bb3	sub	x23,x21,x19	 x21:0x00000000 x19:0xffffffff x23=0x00000001
       15095000	      1508	80000dec	01091a93	slli	x21,x18,0x10	 x18:0x8000068c x21=0x068c0000
       15105000	      1509	80000df0	29ab6d93	ori	x27,x22,666	 x22:0x9accddc1 x27=0x9accdfdb
       15115000	      1510	80000df4	e56b7d13	andi	x26,x22,-426	 x22:0x9accddc1 x26=0x9accdc40
       15125000	      1511	80000df8	02de5263	bge	x28,x13,80000e1c	 x28:0x15000000 x13:0x194cc8a8
       15135000	      1512	80000dfc	41ef5093	srai	x1,x30,0x1e	 x30:0x80009fc4  x1=0xfffffffe
       15145000	      1513	80000e00	fd9d3593	sltiu	x11,x26,-39	 x26:0x9accdc40 x11=0x00000001
       15155000	      1514	80000e04	2b004193	xori	x3,x0,688	  x0:0x00000000  x3=0x000002b0
       15165000	      1515	80000e08	758b7613	andi	x12,x22,1880	 x22:0x9accddc1 x12=0x00000540
       15175000	      1516	80000e0c	41340ab3	sub	x21,x8,x19	  x8:0x001fff00 x19:0xffffffff x21=0x001fff01
       15185000	      1517	80000e10	01c7de93	srli	x29,x15,0x1c	 x15:0x3f243f84 x29=0x00000003
       15195000	      1518	80000e14	00382533	slt	x10,x16,x3	 x16:0x00000800  x3:0x000002b0 x10=0x00000000
       15205000	      1519	80000e18	00ad9093	slli	x1,x27,0xa	 x27:0x9accdfdb  x1=0x337f6c00
       15215000	      1520	80000e1c	013fb6b3	sltu	x13,x31,x19	 x31:0xfffffffc x19:0xffffffff x13=0x00000001
       15225000	      1521	80000e20	5024cb13	xori	x22,x9,1282	  x9:0xffffffe5 x22=0xfffffae7
       15235000	      1522	80000e24	00a6f3b3	and	x7,x13,x10	 x13:0x00000001 x10:0x00000000  x7=0x00000000
       15245000	      1523	80000e28	002a47b3	xor	x15,x20,x2	 x20:0x00000000  x2:0x80000204 x15=0x80000204
       15255000	      1524	80000e2c	00007833	and	x16,x0,x0	  x0:0x00000000  x0:0x00000000 x16=0x00000000
       15265000	      1525	80000e30	00a45eb3	srl	x29,x8,x10	  x8:0x001fff00 x10:0x00000000 x29=0x001fff00
       15275000	      1526	80000e34	132c3393	sltiu	x7,x24,306	 x24:0x00000000  x7=0x00000001
       15285000	      1527	80000e38	415b5fb3	sra	x31,x22,x21	 x22:0xfffffae7 x21:0x001fff01 x31=0xfffffd73
       15295000	      1528	80000e3c	41bb81b3	sub	x3,x23,x27	 x23:0x00000001 x27:0x9accdfdb  x3=0x65332026
       15305000	      1529	80000e40	001d88b3	add	x17,x27,x1	 x27:0x9accdfdb  x1:0x337f6c00 x17=0xce4c4bdb
       15315000	      1530	80000e44	00598733	add	x14,x19,x5	 x19:0xffffffff  x5:0x00000000 x14=0xffffffff
       15325000	      1531	80000e48	00e4e8b3	or	x17,x9,x14	  x9:0xffffffe5 x14:0xffffffff x17=0xffffffff
       15335000	      1532	80000e4c	003ac633	xor	x12,x21,x3	 x21:0x001fff01  x3:0x65332026 x12=0x652cdf27
       15345000	      1533	80000e50	31b7f613	andi	x12,x15,795	 x15:0x80000204 x12=0x00000200
       15355000	      1534	80000e54	01f7fd33	and	x26,x15,x31	 x15:0x80000204 x31:0xfffffd73 x26=0x80000000
       15365000	      1535	80000e58	01abfeb3	and	x29,x23,x26	 x23:0x00000001 x26:0x80000000 x29=0x00000000
       15375000	      1536	80000e5c	08a41463	bne	x8,x10,80000ee4	  x8:0x001fff00 x10:0x00000000
       15385000	      1537	00000000	00000013	addi	x0,x0,0	  x0:0x00000000
       15395000	      1538	80000ee0	00000013	addi	x0,x0,0	  x0:0x00000000
       15405000	      1539	80000ee4	00000013	addi	x0,x0,0	  x0:0x00000000
       15415000	      1540	80000ee8	00f39bb3	sll	x23,x7,x15	  x7:0x00000001 x15:0x80000204 x23=0x00000010
       15425000	      1541	80000eec	012677b3	and	x15,x12,x18	 x12:0x00000200 x18:0x8000068c x15=0x00000200
       15435000	      1542	80000ef0	b8f86013	ori	x0,x16,-1137	 x16:0x00000000
       15445000	      1543	80000ef4	00000013	addi	x0,x0,0	  x0:0x00000000
       15455000	      1544	80000ef8	00e99e93	slli	x29,x19,0xe	 x19:0xffffffff x29=0xffffc000
       15465000	      1545	80000efc	a8c12c93	slti	x25,x2,-1396	  x2:0x80000204 x25=0x00000001
       15475000	      1546	80000f00	0085c633	xor	x12,x11,x8	 x11:0x00000001  x8:0x001fff00 x12=0x001fff01
       15485000	      1547	80000f04	40820cb3	sub	x25,x4,x8	  x4:0x80009f84  x8:0x001fff00 x25=0x7fe0a084
       15495000	      1548	80000f08	006ecc63	blt	x29,x6,80000f20	 x29:0xffffc000  x6:0x194cc8a8
       15505000	      1549	00000000	00000013	addi	x0,x0,0	  x0:0x00000000
       15515000	      1550	80000f1c	00000013	addi	x0,x0,0	  x0:0x00000000
       15525000	      1551	80000f20	81346793	ori	x15,x8,-2029	  x8:0x001fff00 x15=0xffffff13
       15535000	      1552	80000f24	005cda93	srli	x21,x25,0x5	 x25:0x7fe0a084 x21=0x03ff0504
       15545000	      1553	80000f28	af0ce113	ori	x2,x25,-1296	 x25:0x7fe0a084  x2=0xfffffaf4
       15555000	      1554	80000f2c	00370a33	add	x20,x14,x3	 x14:0xffffffff  x3:0x65332026 x20=0x65332025
       15565000	      1555	80000f30	00cc6933	or	x18,x24,x12	 x24:0x00000000 x12:0x001fff01 x18=0x001fff01
       15575000	      1556	80000f34	f923c913	xori	x18,x7,-110	  x7:0x00000001 x18=0xffffff93
       15585000	      1557	80000f38	419a8cb3	sub	x25,x21,x25	 x21:0x03ff0504 x25:0x7fe0a084 x25=0x841e6480
       15595000	      1558	80000f3c	01dbedb3	or	x27,x23,x29	 x23:0x00000010 x29:0xffffc000 x27=0xffffc010
       15605000	      1559	80000f40	4907a393	slti	x7,x15,1168	 x15:0xffffff13  x7=0x00000001
       15615000	      1560	80000f44	623fc993	xori	x19,x31,1571	 x31:0xfffffd73 x19=0xfffffb50
       15625000	      1561	80000f48	a72a8f93	addi	x31,x21,-1422	 x21:0x03ff0504 x31=0x03feff76
       15635000	      1562	80000f4c	00491513	slli	x10,x18,0x4	 x18:0xffffff93 x10=0xfffff930
       15645000	      1563	80000f50	4175dc13	srai	x24,x11,0x17	 x11:0x00000001 x24=0x00000000
       15655000	      1564	80000f54	005897b3	sll	x15,x17,x5	 x17:0xffffffff  x5:0x00000000 x15=0xffffffff
       15665000	      1565	80000f58	18447193	andi	x3,x8,388	  x8:0x001fff00  x3=0x00000100
       15675000	      1566	80000f5c	010e9bb3	sll	x23,x29,x16	 x29:0xffffc000 x16:0x00000000 x23=0xffffc000
       15685000	      1567	80000f60	006b27b3	slt	x15,x22,x6	 x22:0xfffffae7  x6:0x194cc8a8 x15=0x00000001
       15695000	      1568	80000f64	005f3693	sltiu	x13,x30,5	 x30:0x80009fc4 x13=0x00000000
       15705000	      1569	80000f68	2c060817	auipc	x16,0x2c060	 x16=0xac060f64
       15715000	      1570	80000f6c	00000013	addi	x0,x0,0	  x0:0x00000000
       15725000	      1571	80000f70	01225c93	srli	x25,x4,0x12	  x4:0x80009f84 x25=0x00002000
       15735000	      1572	80000f74	05fa7063	bgeu	x20,x31,80000fb4	 x20:0x65332025 x31:0x03feff76
       15745000	      1573	00000000	00000013	addi	x0,x0,0	  x0:0x00000000
       15755000	      1574	80000fb0	00000013	addi	x0,x0,0	  x0:0x00000000
       15765000	      1575	80000fb4	01279613	slli	x12,x15,0x12	 x15:0x00000001 x12=0x00040000
       15775000	      1576	80000fb8	03578c63	beq	x15,x21,80000ff0	 x15:0x00000001 x21:0x03ff0504
       15785000	      1577	80000fbc	0d887e13	andi	x28,x16,216	 x16:0xac060f64 x28=0x00000040
       15795000	      1578	80000fc0	00b349b3	xor	x19,x6,x11	  x6:0x194cc8a8 x11:0x00000001 x19=0x194cc8a9
       15805000	      1579	80000fc4	0170ccb3	xor	x25,x1,x23	  x1:0x337f6c00 x23:0xffffc000 x25=0xcc80ac00
       15815000	      1580	80000fc8	017230b3	sltu	x1,x4,x23	  x4:0x80009f84 x23:0xffffc000  x1=0x00000001
       15825000	      1581	80000fcc	00b81413	slli	x8,x16,0xb	 x16:0xac060f64  x8=0x307b2000
       15835000	      1582	80000fd0	9b414793	xori	x15,x2,-1612	  x2:0xfffffaf4 x15=0x00000340
       15845000	      1583	80000fd4	28432e93	slti	x29,x6,644	  x6:0x194cc8a8 x29=0x00000000
       15855000	      1584	80000fd8	01341d93	slli	x27,x8,0x13	  x8:0x307b2000 x27=0x00000000
       15865000	      1585	80000fdc	41ec5db3	sra	x27,x24,x30	 x24:0x00000000 x30:0x80009fc4 x27=0x00000000
       15875000	      1586	80000fe0	5a152313	slti	x6,x10,1441	 x10:0xfffff930  x6=0x00000001
       15885000	      1587	80000fe4	00d61793	slli	x15,x12,0xd	 x12:0x00040000 x15=0x80000000
       15895000	      1588	80000fe8	0099ddb3	srl	x27,x19,x9	 x19:0x194cc8a9  x9:0xffffffe5 x27=0x00ca6645
       15905000	      1589	80000fec	fc00a417	auipc	x8,0xfc00a	  x8=0x7c00afe8
       15915000	      1590	80000ff0	01d40c63	beq	x8,x29,80001008	  x8:0x7c00afe8 x29:0x00000000
       15925000	      1591	80000ff4	00798263	beq	x19,x7,80000ff8	 x19:0x194cc8a9  x7:0x00000001
       15935000	      1592	80000ff8	01d80733	add	x14,x16,x29	 x16:0xac060f64 x29:0x00000000 x14=0xac060f64
       15945000	      1593	80000ffc	7c0a4c13	xori	x24,x20,1984	 x20:0x65332025 x24=0x653327e5
       15955000	      1594	80001000	dd21a017	auipc	x0,0xdd21a	
       15965000	      1595	80001004	89480c13	addi	x24,x16,-1900	 x16:0xac060f64 x24=0xac0607f8
       15975000	      1596	80001008	05d45663	bge	x8,x29,80001054	  x8:0x7c00afe8 x29:0x00000000
       15985000	      1597	00000000	00000013	addi	x0,x0,0	  x0:0x00000000
       15995000	      1598	80001050	00000013	addi	x0,x0,0	  x0:0x00000000
       16005000	      1599	80001054	021b9e63	bne	x23,x1,80001090	 x23:0xffffc000  x1:0x00000001
       16015000	      1600	00000000	00000013	addi	x0,x0,0	  x0:0x00000000
       16025000	      1601	8000108c	00000013	addi	x0,x0,0	  x0:0x00000000
       16035000	      1602	80001090	0011ea33	or	x20,x3,x1	  x3:0x00000100  x1:0x00000001 x20=0x00000101
       16045000	      1603	80001094	004bb1b3	sltu	x3,x23,x4	 x23:0xffffc000  x4:0x80009f84  x3=0x00000000
       16055000	      1604	80001098	019dac33	slt	x24,x27,x25	 x27:0x00ca6645 x25:0xcc80ac00 x24=0x00000000
       16065000	      1605	8000109c	01816bb3	or	x23,x2,x24	  x2:0xfffffaf4 x24:0x00000000 x23=0xfffffaf4
       16075000	      1606	800010a0	845e4893	xori	x17,x28,-1979	 x28:0x00000040 x17=0xfffff805
       16085000	      1607	800010a4	0068fa33	and	x20,x17,x6	 x17:0xfffff805  x6:0x00000001 x20=0x00000001
       16095000	      1608	800010a8	407a2793	slti	x15,x20,1031	 x20:0x00000001 x15=0x00000001
       16105000	      1609	800010ac	29bca4b7	lui	x9,0x29bca	  x9=0x29bca000
       16115000	      1610	800010b0	028b5c63	bge	x22,x8,800010e8	 x22:0xfffffae7  x8:0x7c00afe8
       16125000	      1611	800010b4	03447663	bgeu	x8,x20,800010e0	  x8:0x7c00afe8 x20:0x00000001
       16135000	      1612	00000000	00000013	addi	x0,x0,0	  x0:0x00000000
       16145000	      1613	800010dc	00000013	addi	x0,x0,0	  x0:0x00000000
       16155000	      1614	800010e0	4144d933	sra	x18,x9,x20	  x9:0x29bca000 x20:0x00000001 x18=0x14de5000
       16165000	      1615	800010e4	6077b693	sltiu	x13,x15,1543	 x15:0x00000001 x13=0x00000001
       16175000	      1616	800010e8	0500f263	bgeu	x1,x16,8000112c	  x1:0x00000001 x16:0xac060f64
       16185000	      1617	800010ec	00000013	addi	x0,x0,0	  x0:0x00000000
       16195000	      1618	800010f0	c538ac13	slti	x24,x17,-941	 x17:0xfffff805 x24=0x00000001
       16205000	      1619	800010f4	00f7cbb3	xor	x23,x15,x15	 x15:0x00000001 x15:0x00000001 x23=0x00000000
       16215000	      1620	800010f8	006e50b3	srl	x1,x28,x6	 x28:0x00000040  x6:0x00000001  x1=0x00000020
       16225000	      1621	800010fc	0093f033	and	x0,x7,x9	  x7:0x00000001  x9:0x29bca000
       16235000	      1622	80001100	009d1eb3	sll	x29,x26,x9	 x26:0x80000000  x9:0x29bca000 x29=0x80000000
       16245000	      1623	80001104	dd78e713	ori	x14,x17,-553	 x17:0xfffff805 x14=0xfffffdd7
       16255000	      1624	80001108	00831993	slli	x19,x6,0x8	  x6:0x00000001 x19=0x00000100
       16265000	      1625	8000110c	00b7d263	bge	x15,x11,80001110	 x15:0x00000001 x11:0x00000001
       16275000	      1626	00000000	00000013	addi	x0,x0,0	  x0:0x00000000
       16285000	      1627	8000110c	00000013	addi	x0,x0,0	  x0:0x00000000
       16295000	      1628	80001110	aa3e1b17	auipc	x22,0xaa3e1	 x22=0x2a3e210c
       16305000	      1629	80001114	015cdf93	srli	x31,x25,0x15	 x25:0xcc80ac00 x31=0x00000664
       16315000	      1630	80001118	413889b3	sub	x19,x17,x19	 x17:0xfffff805 x19:0x00000100 x19=0xfffff705
       16325000	      1631	8000111c	41ba5b33	sra	x22,x20,x27	 x20:0x00000001 x27:0x00ca6645 x22=0x00000000
       16335000	      1632	80001120	8e986513	ori	x10,x16,-1815	 x16:0xac060f64 x10=0xffffffed
       16345000	      1633	80001124	40f8d393	srai	x7,x17,0xf	 x17:0xfffff805  x7=0xffffffff
       16355000	      1634	80001128	04e89063	bne	x17,x14,80001168	 x17:0xfffff805 x14:0xfffffdd7
       16365000	      1635	00000000	00000013	addi	x0,x0,0	  x0:0x00000000
       16375000	      1636	80001164	00000013	addi	x0,x0,0	  x0:0x00000000
       16385000	      1637	80001168	23143813	sltiu	x16,x8,561	  x8:0x7c00afe8 x16=0x00000000
       16395000	      1638	8000116c	09d38863	beq	x7,x29,800011fc	  x7:0xffffffff x29:0x80000000
       16405000	      1639	80001170	044000ef	jal	x1,80001170	  x1=0x80001170
       16415000	      1640	00000000	00000013	addi	x0,x0,0	  x0:0x00000000
       16425000	      1641	800011b0	00000013	addi	x0,x0,0	  x0:0x00000000
       16435000	      1642	800011b4	010000ef	jal	x1,800011b4	  x1=0x800011b4
       16445000	      1643	00000000	00000013	addi	x0,x0,0	  x0:0x00000000
       16455000	      1644	800011c0	00000013	addi	x0,x0,0	  x0:0x00000000
       16465000	      1645	800011c4	fddff0ef	jal	x1,800011c4	  x1=0x800011c4
       16475000	      1646	00000000	00000013	addi	x0,x0,0	  x0:0x00000000
       16485000	      1647	8000119c	00000013	addi	x0,x0,0	  x0:0x00000000
       16495000	      1648	800011a0	01800b6f	jal	x22,800011a0	 x22=0x800011a0
       16505000	      1649	00000000	00000013	addi	x0,x0,0	  x0:0x00000000
       16515000	      1650	800011b4	00000013	addi	x0,x0,0	  x0:0x00000000
       16525000	      1651	800011b8	fd1ff0ef	jal	x1,800011b8	  x1=0x800011b8
       16535000	      1652	00000000	00000013	addi	x0,x0,0	  x0:0x00000000
       16545000	      1653	80001184	00000013	addi	x0,x0,0	  x0:0x00000000
       16555000	      1654	80001188	02800def	jal	x27,80001188	 x27=0x80001188
       16565000	      1655	00000000	00000013	addi	x0,x0,0	  x0:0x00000000
       16575000	      1656	800011ac	00000013	addi	x0,x0,0	  x0:0x00000000
       16585000	      1657	800011b0	ff9ff56f	jal	x10,800011b0	 x10=0x800011b0
       16595000	      1658	00000000	00000013	addi	x0,x0,0	  x0:0x00000000
       16605000	      1659	800011a4	00000013	addi	x0,x0,0	  x0:0x00000000
       16615000	      1660	800011a8	fd1ff0ef	jal	x1,800011a8	  x1=0x800011a8
       16625000	      1661	00000000	00000013	addi	x0,x0,0	  x0:0x00000000
       16635000	      1662	80001174	00000013	addi	x0,x0,0	  x0:0x00000000
       16645000	      1663	80001178	0240056f	jal	x10,80001178	 x10=0x80001178
       16655000	      1664	00000000	00000013	addi	x0,x0,0	  x0:0x00000000
       16665000	      1665	80001198	00000013	addi	x0,x0,0	  x0:0x00000000
       16675000	      1666	8000119c	020001ef	jal	x3,8000119c	  x3=0x8000119c
       16685000	      1667	00000000	00000013	addi	x0,x0,0	  x0:0x00000000
       16695000	      1668	800011b8	00000013	addi	x0,x0,0	  x0:0x00000000
       16705000	      1669	800011bc	fe9ff36f	jal	x6,800011bc	  x6=0x800011bc
       16715000	      1670	00000000	00000013	addi	x0,x0,0	  x0:0x00000000
       16725000	      1671	800011a0	00000013	addi	x0,x0,0	  x0:0x00000000
       16735000	      1672	800011a4	fe9ff5ef	jal	x11,800011a4	 x11=0x800011a4
       16745000	      1673	00000000	00000013	addi	x0,x0,0	  x0:0x00000000
       16755000	      1674	80001188	00000013	addi	x0,x0,0	  x0:0x00000000
       16765000	      1675	8000118c	034000ef	jal	x1,8000118c	  x1=0x8000118c
       16775000	      1676	00000000	00000013	addi	x0,x0,0	  x0:0x00000000
       16785000	      1677	800011bc	00000013	addi	x0,x0,0	  x0:0x00000000
       16795000	      1678	800011c0	fd5ff36f	jal	x6,800011c0	  x6=0x800011c0
       16805000	      1679	00000000	00000013	addi	x0,x0,0	  x0:0x00000000
       16815000	      1680	80001190	00000013	addi	x0,x0,0	  x0:0x00000000
       16825000	      1681	80001194	ff1ff86f	jal	x16,80001194	 x16=0x80001194
       16835000	      1682	00000000	00000013	addi	x0,x0,0	  x0:0x00000000
       16845000	      1683	80001180	00000013	addi	x0,x0,0	  x0:0x00000000
       16855000	      1684	80001184	ffdff36f	jal	x6,80001184	  x6=0x80001184
       16865000	      1685	00000000	00000013	addi	x0,x0,0	  x0:0x00000000
       16875000	      1686	8000117c	00000013	addi	x0,x0,0	  x0:0x00000000
       16885000	      1687	80001180	ffdff7ef	jal	x15,80001180	 x15=0x80001180
       16895000	      1688	00000000	00000013	addi	x0,x0,0	  x0:0x00000000
       16905000	      1689	80001178	00000013	addi	x0,x0,0	  x0:0x00000000
       16915000	      1690	8000117c	04c000ef	jal	x1,8000117c	  x1=0x8000117c
       16925000	      1691	00000000	00000013	addi	x0,x0,0	  x0:0x00000000
       16935000	      1692	800011c4	00000013	addi	x0,x0,0	  x0:0x00000000
       16945000	      1693	800011c8	fd1ff0ef	jal	x1,800011c8	  x1=0x800011c8
       16955000	      1694	00000000	00000013	addi	x0,x0,0	  x0:0x00000000
       16965000	      1695	80001194	00000013	addi	x0,x0,0	  x0:0x00000000
       16975000	      1696	80001198	0140036f	jal	x6,80001198	  x6=0x80001198
       16985000	      1697	00000000	00000013	addi	x0,x0,0	  x0:0x00000000
       16995000	      1698	800011a8	00000013	addi	x0,x0,0	  x0:0x00000000
       17005000	      1699	800011ac	fe5ff36f	jal	x6,800011ac	  x6=0x800011ac
       17015000	      1700	00000000	00000013	addi	x0,x0,0	  x0:0x00000000
       17025000	      1701	8000118c	00000013	addi	x0,x0,0	  x0:0x00000000
       17035000	      1702	80001190	fe5ff16f	jal	x2,80001190	  x2=0x80001190
       17045000	      1703	00000000	00000013	addi	x0,x0,0	  x0:0x00000000
       17055000	      1704	80001170	00000013	addi	x0,x0,0	  x0:0x00000000
       17065000	      1705	80001174	058000ef	jal	x1,80001174	  x1=0x80001174
       17075000	      1706	00000000	00000013	addi	x0,x0,0	  x0:0x00000000
       17085000	      1707	800011c8	00000013	addi	x0,x0,0	  x0:0x00000000
       17095000	      1708	800011cc	00000013	addi	x0,x0,0	  x0:0x00000000
       17105000	      1709	800011d0	0060f433	and	x8,x1,x6	  x1:0x80001174  x6:0x800011ac  x8=0x80001124
       17115000	      1710	800011d4	0cd6c793	xori	x15,x13,205	 x13:0x00000001 x15=0x000000cc
       17125000	      1711	800011d8	03e6ce63	blt	x13,x30,80001214	 x13:0x00000001 x30:0x80009fc4
       17135000	      1712	800011dc	0059c1b3	xor	x3,x19,x5	 x19:0xfffff705  x5:0x00000000  x3=0xfffff705
       17145000	      1713	800011e0	00000013	addi	x0,x0,0	  x0:0x00000000
       17155000	      1714	800011e4	01749e33	sll	x28,x9,x23	  x9:0x29bca000 x23:0x00000000 x28=0x29bca000
       17165000	      1715	800011e8	0522e263	bltu	x5,x18,8000122c	  x5:0x00000000 x18:0x14de5000
       17175000	      1716	00000000	00000013	addi	x0,x0,0	  x0:0x00000000
       17185000	      1717	80001228	00000013	addi	x0,x0,0	  x0:0x00000000
       17195000	      1718	8000122c	0016d263	bge	x13,x1,80001230	 x13:0x00000001  x1:0x80001174
       17205000	      1719	00000000	00000013	addi	x0,x0,0	  x0:0x00000000
       17215000	      1720	8000122c	00000013	addi	x0,x0,0	  x0:0x00000000
       17225000	      1721	80001230	00a50cb3	add	x25,x10,x10	 x10:0x80001178 x10:0x80001178 x25=0x000022f0
       17235000	      1722	80001234	0121fd33	and	x26,x3,x18	  x3:0xfffff705 x18:0x14de5000 x26=0x14de5000
       17245000	      1723	80001238	fa62b937	lui	x18,0xfa62b	 x18=0xfa62b000
       17255000	      1724	8000123c	04708263	beq	x1,x7,80001280	  x1:0x80001174  x7:0xffffffff
       17265000	      1725	80001240	40d48c33	sub	x24,x9,x13	  x9:0x29bca000 x13:0x00000001 x24=0x29bc9fff
       17275000	      1726	80001244	dddbc993	xori	x19,x23,-547	 x23:0x00000000 x19=0xfffffddd
       17285000	      1727	80001248	40368533	sub	x10,x13,x3	 x13:0x00000001  x3:0xfffff705 x10=0x000008fc
       17295000	      1728	8000124c	0073efb3	or	x31,x7,x7	  x7:0xffffffff  x7:0xffffffff x31=0xffffffff
       17305000	      1729	80001250	13a98493	addi	x9,x19,314	 x19:0xfffffddd  x9=0xffffff17
       17315000	      1730	80001254	01a776b3	and	x13,x14,x26	 x14:0xfffffdd7 x26:0x14de5000 x13=0x14de5000
       17325000	      1731	80001258	00cd5793	srli	x15,x26,0xc	 x26:0x14de5000 x15=0x00014de5
       17335000	      1732	8000125c	01a15663	bge	x2,x26,80001268	  x2:0x80001190 x26:0x14de5000
       17345000	      1733	80001260	671cb697	auipc	x13,0x671cb	 x13=0xe71cc25c
       17355000	      1734	80001264	00000013	addi	x0,x0,0	  x0:0x00000000
       17365000	      1735	80001268	00c78c63	beq	x15,x12,80001280	 x15:0x00014de5 x12:0x00040000
       17375000	      1736	8000126c	00fa9fb3	sll	x31,x21,x15	 x21:0x03ff0504 x15:0x00014de5 x31=0x7fe0a080
       17385000	      1737	80001270	00000013	addi	x0,x0,0	  x0:0x00000000
       17395000	      1738	80001274	89436113	ori	x2,x6,-1900	  x6:0x800011ac  x2=0xfffff9bc
       17405000	      1739	80001278	a5dc2e93	slti	x29,x24,-1443	 x24:0x29bc9fff x29=0x00000000
       17415000	      1740	8000127c	41605eb3	sra	x29,x0,x22	  x0:0x00000000 x22:0x800011a0 x29=0x00000000
       17425000	      1741	80001280	05504263	blt	x0,x21,800012c4	  x0:0x00000000 x21:0x03ff0504
       17435000	      1742	00000000	00000013	addi	x0,x0,0	  x0:0x00000000
       17445000	      1743	800012c0	00000013	addi	x0,x0,0	  x0:0x00000000
       17455000	      1744	800012c4	4071d7b3	sra	x15,x3,x7	  x3:0xfffff705  x7:0xffffffff x15=0xffffffff
       17465000	      1745	800012c8	a7ec7a13	andi	x20,x24,-1410	 x24:0x29bc9fff x20=0x29bc9a7e
       17475000	      1746	800012cc	418dd1b3	sra	x3,x27,x24	 x27:0x80001188 x24:0x29bc9fff  x3=0xffffffff
       17485000	      1747	800012d0	ebe27993	andi	x19,x4,-322	  x4:0x80009f84 x19=0x80009e84
       17495000	      1748	800012d4	91603393	sltiu	x7,x0,-1770	  x0:0x00000000  x7=0x00000001
       17505000	      1749	800012d8	00a41263	bne	x8,x10,800012dc	  x8:0x80001124 x10:0x000008fc
       17515000	      1750	00000000	00000013	addi	x0,x0,0	  x0:0x00000000
       17525000	      1751	800012d8	00000013	addi	x0,x0,0	  x0:0x00000000
       17535000	      1752	800012dc	01791a63	bne	x18,x23,800012f0	 x18:0xfa62b000 x23:0x00000000
       17545000	      1753	00000000	00000013	addi	x0,x0,0	  x0:0x00000000
       17555000	      1754	800012ec	00000013	addi	x0,x0,0	  x0:0x00000000
       17565000	      1755	800012f0	c0710b93	addi	x23,x2,-1017	  x2:0xfffff9bc x23=0xfffff5c3
       17575000	      1756	800012f4	02ca0e63	beq	x20,x12,80001330	 x20:0x29bc9a7e x12:0x00040000
       17585000	      1757	800012f8	0a793613	sltiu	x12,x18,167	 x18:0xfa62b000 x12=0x00000000
       17595000	      1758	800012fc	00029e13	slli	x28,x5,0x0	  x5:0x00000000 x28=0x00000000
       17605000	      1759	80001300	01191263	bne	x18,x17,80001304	 x18:0xfa62b000 x17:0xfffff805
       17615000	      1760	00000000	00000013	addi	x0,x0,0	  x0:0x00000000
       17625000	      1761	80001300	00000013	addi	x0,x0,0	  x0:0x00000000
       17635000	      1762	80001304	1644e393	ori	x7,x9,356	  x9:0xffffff17  x7=0xffffff77
       17645000	      1763	80001308	018378b3	and	x17,x6,x24	  x6:0x800011ac x24:0x29bc9fff x17=0x000011ac
       17655000	      1764	8000130c	0169dc93	srli	x25,x19,0x16	 x19:0x80009e84 x25=0x00000200
       17665000	      1765	80001310	03fd7663	bgeu	x26,x31,8000133c	 x26:0x14de5000 x31:0x7fe0a080
       17675000	      1766	80001314	80329eb7	lui	x29,0x80329	 x29=0x80329000
       17685000	      1767	80001318	00519d33	sll	x26,x3,x5	  x3:0xffffffff  x5:0x00000000 x26=0xffffffff
       17695000	      1768	8000131c	01fdcd33	xor	x26,x27,x31	 x27:0x80001188 x31:0x7fe0a080 x26=0xffe0b108
       17705000	      1769	80001320	00de6a63	bltu	x28,x13,80001334	 x28:0x00000000 x13:0xe71cc25c
       17715000	      1770	00000000	00000013	addi	x0,x0,0	  x0:0x00000000
       17725000	      1771	80001330	00000013	addi	x0,x0,0	  x0:0x00000000
       17735000	      1772	80001334	41058a33	sub	x20,x11,x16	 x11:0x800011a4 x16:0x80001194 x20=0x00000010
       17745000	      1773	80001338	d070dfb7	lui	x31,0xd070d	 x31=0xd070d000
       17755000	      1774	8000133c	49ddbe93	sltiu	x29,x27,1181	 x27:0x80001188 x29=0x00000000
       17765000	      1775	80001340	0037ba33	sltu	x20,x15,x3	 x15:0xffffffff  x3:0xffffffff x20=0x00000000
       17775000	      1776	80001344	016a7833	and	x16,x20,x22	 x20:0x00000000 x22:0x800011a0 x16=0x00000000
       17785000	      1777	80001348	00003517	auipc	x10,0x3	 x10=0x80004344
       17795000	      1778	8000134c	30050513	addi	x10,x10,768	 x10:0x80004344 x10=0x80004644
       17805000	      1779	80001350	19003413	sltiu	x8,x0,400	  x0:0x00000000  x8=0x00000001
       17815000	      1780	80001354	45668c37	lui	x24,0x45668	 x24=0x45668000
       17825000	      1781	80001358	000f1333	sll	x6,x30,x0	 x30:0x80009fc4  x0:0x00000000  x6=0x80009fc4
       17835000	      1782	8000135c	ca950513	addi	x10,x10,-855	 x10:0x80004644 x10=0x800042ed
       17845000	      1783	80001360	00000013	addi	x0,x0,0	  x0:0x00000000
       17855000	      1784	80001364	01591eb3	sll	x29,x18,x21	 x18:0xfa62b000 x21:0x03ff0504 x29=0xa62b0000
       17865000	      1785	80001368	01a26a63	bltu	x4,x26,8000137c	  x4:0x80009f84 x26:0xffe0b108
       17875000	      1786	00000000	00000013	addi	x0,x0,0	  x0:0x00000000
       17885000	      1787	80001378	00000013	addi	x0,x0,0	  x0:0x00000000
       17895000	      1788	8000137c	358500e7	jalr	x1,x10,856	 x10:0x800042ed  x1=0x8000137c
       17905000	      1789	00000000	00000013	addi	x0,x0,0	  x0:0x00000000
       17915000	      1790	80004644	00000013	addi	x0,x0,0	  x0:0x00000000
       17925000	      1791	80004648	0199d4b3	srl	x9,x19,x25	 x19:0x80009e84 x25:0x00000200  x9=0x80009e84
       17935000	      1792	8000464c	01c94663	blt	x18,x28,80004658	 x18:0xfa62b000 x28:0x00000000
       17945000	      1793	00000000	00000013	addi	x0,x0,0	  x0:0x00000000
       17955000	      1794	80004654	00000013	addi	x0,x0,0	  x0:0x00000000
       17965000	      1795	80004658	fcc20213	addi	x4,x4,-52	  x4:0x80009f84  x4=0x80009f50
       17975000	      1796	8000465c	408b8b33	sub	x22,x23,x8	 x23:0xfffff5c3  x8:0x00000001 x22=0xfffff5c2
       17985000	      1797	80004660	0015ca33	xor	x20,x11,x1	 x11:0x800011a4  x1:0x8000137c x20=0x000002d8
       17995000	      1798	80004664	00122223	sw	x1,4(x4)	  x4:0x80009f50  x1:0x8000137c PA:0x80009f54
       18005000	      1799	80004668	828f8913	addi	x18,x31,-2008	 x31:0xd070d000 x18=0xd070c828
       18015000	      1800	8000466c	01b43033	sltu	x0,x8,x27	  x8:0x00000001 x27:0x80001188
       18025000	      1801	80004670	01504633	xor	x12,x0,x21	  x0:0x00000000 x21:0x03ff0504 x12=0x03ff0504
       18035000	      1802	80004674	4105de33	sra	x28,x11,x16	 x11:0x800011a4 x16:0x00000000 x28=0x800011a4
       18045000	      1803	80004678	018d49b3	xor	x19,x26,x24	 x26:0xffe0b108 x24:0x45668000 x19=0xba863108
       18055000	      1804	8000467c	00000c17	auipc	x24,0x0	 x24=0x80004678
       18065000	      1805	80004680	b64c0c13	addi	x24,x24,-1180	 x24:0x80004678 x24=0x800041dc
       18075000	      1806	80004684	0fec0c13	addi	x24,x24,254	 x24:0x800041dc x24=0x800042da
       18085000	      1807	80004688	010d9993	slli	x19,x27,0x10	 x27:0x80001188 x19=0x11880000
       18095000	      1808	8000468c	01f459b3	srl	x19,x8,x31	  x8:0x00000001 x31:0xd070d000 x19=0x00000001
       18105000	      1809	80004690	41a703b3	sub	x7,x14,x26	 x14:0xfffffdd7 x26:0xffe0b108  x7=0x001f4ccf
       18115000	      1810	80004694	00cf3733	sltu	x14,x30,x12	 x30:0x80009fc4 x12:0x03ff0504 x14=0x00000000
       18125000	      1811	80004698	f02c00e7	jalr	x1,x24,-254	 x24:0x800042da  x1=0x80004698
       18135000	      1812	00000000	00000013	addi	x0,x0,0	  x0:0x00000000
       18145000	      1813	800041dc	00000013	addi	x0,x0,0	  x0:0x00000000
       18155000	      1814	800041e0	2f29f993	andi	x19,x19,754	 x19:0x00000001 x19=0x00000000
       18165000	      1815	800041e4	017c1663	bne	x24,x23,800041f0	 x24:0x800042da x23:0xfffff5c3
       18175000	      1816	00000000	00000013	addi	x0,x0,0	  x0:0x00000000
       18185000	      1817	800041ec	00000013	addi	x0,x0,0	  x0:0x00000000
       18195000	      1818	800041f0	fc820213	addi	x4,x4,-56	  x4:0x80009f50  x4=0x80009f18
       18205000	      1819	800041f4	4675bf97	auipc	x31,0x4675b	 x31=0xc675f1f0
       18215000	      1820	800041f8	0019e433	or	x8,x19,x1	 x19:0x00000000  x1:0x80004698  x8=0x80004698
       18225000	      1821	800041fc	00122223	sw	x1,4(x4)	  x4:0x80009f18  x1:0x80004698 PA:0x80009f1c
       18235000	      1822	80004200	017cae33	slt	x28,x25,x23	 x25:0x00000200 x23:0xfffff5c3 x28=0x00000000
       18245000	      1823	80004204	e59d0c13	addi	x24,x26,-423	 x26:0xffe0b108 x24=0xffe0af61
       18255000	      1824	80004208	417ede33	sra	x28,x29,x23	 x29:0xa62b0000 x23:0xfffff5c3 x28=0xf4c56000
       18265000	      1825	8000420c	01535133	srl	x2,x6,x21	  x6:0x80009fc4 x21:0x03ff0504  x2=0x080009fc
       18275000	      1826	80004210	b42a6e13	ori	x28,x20,-1214	 x20:0x000002d8 x28=0xfffffbda
       18285000	      1827	80004214	ffffdd97	auipc	x27,0xffffd	 x27=0x80001210
       18295000	      1828	80004218	60cd8d93	addi	x27,x27,1548	 x27:0x80001210 x27=0x8000181c
       18305000	      1829	8000421c	2b2a8e93	addi	x29,x21,690	 x21:0x03ff0504 x29=0x03ff07b6
       18315000	      1830	80004220	fdfd7693	andi	x13,x26,-33	 x26:0xffe0b108 x13=0xffe0b108
       18325000	      1831	80004224	15ad8d93	addi	x27,x27,346	 x27:0x8000181c x27=0x80001976
       18335000	      1832	80004228	09e56393	ori	x7,x10,158	 x10:0x800042ed  x7=0x800042ff
       18345000	      1833	8000422c	0001ea63	bltu	x3,x0,80004240	  x3:0xffffffff  x0:0x00000000
       18355000	      1834	80004230	83093c13	sltiu	x24,x18,-2000	 x18:0xd070c828 x24=0x00000001
       18365000	      1835	80004234	ab254e93	xori	x29,x10,-1358	 x10:0x800042ed x29=0x7fffb85f
       18375000	      1836	80004238	40855e13	srai	x28,x10,0x8	 x10:0x800042ed x28=0xff800042
       18385000	      1837	8000423c	796ffb93	andi	x23,x31,1942	 x31:0xc675f1f0 x23=0x00000190
       18395000	      1838	80004240	ea6d80e7	jalr	x1,x27,-346	 x27:0x80001976  x1=0x80004240
       18405000	      1839	00000000	00000013	addi	x0,x0,0	  x0:0x00000000
       18415000	      1840	8000181c	00000013	addi	x0,x0,0	  x0:0x00000000
       18425000	      1841	80001820	01e6d463	bge	x13,x30,80001828	 x13:0xffe0b108 x30:0x80009fc4
       18435000	      1842	00000000	00000013	addi	x0,x0,0	  x0:0x00000000
       18445000	      1843	80001824	00000013	addi	x0,x0,0	  x0:0x00000000
       18455000	      1844	80001828	fdc20213	addi	x4,x4,-36	  x4:0x80009f18  x4=0x80009ef4
       18465000	      1845	8000182c	019fd993	srli	x19,x31,0x19	 x31:0xc675f1f0 x19=0x00000063
       18475000	      1846	80001830	00122223	sw	x1,4(x4)	  x4:0x80009ef4  x1:0x80004240 PA:0x80009ef8
       18485000	      1847	80001834	40300eb3	sub	x29,x0,x3	  x0:0x00000000  x3:0xffffffff x29=0x00000001
       18495000	      1848	80001838	c07b7bb7	lui	x23,0xc07b7	 x23=0xc07b7000
       18505000	      1849	8000183c	014000ef	jal	x1,8000183c	  x1=0x8000183c
       18515000	      1850	00000000	00000013	addi	x0,x0,0	  x0:0x00000000
       18525000	      1851	8000184c	00000013	addi	x0,x0,0	  x0:0x00000000
       18535000	      1852	80001850	010000ef	jal	x1,80001850	  x1=0x80001850
       18545000	      1853	00000000	00000013	addi	x0,x0,0	  x0:0x00000000
       18555000	      1854	8000185c	00000013	addi	x0,x0,0	  x0:0x00000000
       18565000	      1855	80001860	fe1ff0ef	jal	x1,80001860	  x1=0x80001860
       18575000	      1856	00000000	00000013	addi	x0,x0,0	  x0:0x00000000
       18585000	      1857	8000183c	00000013	addi	x0,x0,0	  x0:0x00000000
       18595000	      1858	80001840	00c000ef	jal	x1,80001840	  x1=0x80001840
       18605000	      1859	00000000	00000013	addi	x0,x0,0	  x0:0x00000000
       18615000	      1860	80001848	00000013	addi	x0,x0,0	  x0:0x00000000
       18625000	      1861	8000184c	018000ef	jal	x1,8000184c	  x1=0x8000184c
       18635000	      1862	00000000	00000013	addi	x0,x0,0	  x0:0x00000000
       18645000	      1863	80001860	00000013	addi	x0,x0,0	  x0:0x00000000
       18655000	      1864	80001864	004000ef	jal	x1,80001864	  x1=0x80001864
       18665000	      1865	00000000	00000013	addi	x0,x0,0	  x0:0x00000000
       18675000	      1866	80001864	00000013	addi	x0,x0,0	  x0:0x00000000
       18685000	      1867	80001868	fddff0ef	jal	x1,80001868	  x1=0x80001868
       18695000	      1868	00000000	00000013	addi	x0,x0,0	  x0:0x00000000
       18705000	      1869	80001840	00000013	addi	x0,x0,0	  x0:0x00000000
       18715000	      1870	80001844	0040036f	jal	x6,80001844	  x6=0x80001844
       18725000	      1871	00000000	00000013	addi	x0,x0,0	  x0:0x00000000
       18735000	      1872	80001844	00000013	addi	x0,x0,0	  x0:0x00000000
       18745000	      1873	80001848	024000ef	jal	x1,80001848	  x1=0x80001848
       18755000	      1874	00000000	00000013	addi	x0,x0,0	  x0:0x00000000
       18765000	      1875	80001868	00000013	addi	x0,x0,0	  x0:0x00000000
       18775000	      1876	8000186c	fedff0ef	jal	x1,8000186c	  x1=0x8000186c
       18785000	      1877	00000000	00000013	addi	x0,x0,0	  x0:0x00000000
       18795000	      1878	80001854	00000013	addi	x0,x0,0	  x0:0x00000000
       18805000	      1879	80001858	ffdff36f	jal	x6,80001858	  x6=0x80001858
       18815000	      1880	00000000	00000013	addi	x0,x0,0	  x0:0x00000000
       18825000	      1881	80001850	00000013	addi	x0,x0,0	  x0:0x00000000
       18835000	      1882	80001854	008000ef	jal	x1,80001854	  x1=0x80001854
       18845000	      1883	00000000	00000013	addi	x0,x0,0	  x0:0x00000000
       18855000	      1884	80001858	00000013	addi	x0,x0,0	  x0:0x00000000
       18865000	      1885	8000185c	014000ef	jal	x1,8000185c	  x1=0x8000185c
       18875000	      1886	00000000	00000013	addi	x0,x0,0	  x0:0x00000000
       18885000	      1887	8000186c	00000013	addi	x0,x0,0	  x0:0x00000000
       18895000	      1888	80001870	009157b3	srl	x15,x2,x9	  x2:0x080009fc  x9:0x80009e84 x15=0x0080009f
       18905000	      1889	80001874	018000ef	jal	x1,80001874	  x1=0x80001874
       18915000	      1890	00000000	00000013	addi	x0,x0,0	  x0:0x00000000
       18925000	      1891	80001888	00000013	addi	x0,x0,0	  x0:0x00000000
       18935000	      1892	8000188c	ff5ff0ef	jal	x1,8000188c	  x1=0x8000188c
       18945000	      1893	00000000	00000013	addi	x0,x0,0	  x0:0x00000000
       18955000	      1894	8000187c	00000013	addi	x0,x0,0	  x0:0x00000000
       18965000	      1895	80001880	060000ef	jal	x1,80001880	  x1=0x80001880
       18975000	      1896	00000000	00000013	addi	x0,x0,0	  x0:0x00000000
       18985000	      1897	800018dc	00000013	addi	x0,x0,0	  x0:0x00000000
       18995000	      1898	800018e0	fc9ff0ef	jal	x1,800018e0	  x1=0x800018e0
       19005000	      1899	00000000	00000013	addi	x0,x0,0	  x0:0x00000000
       19015000	      1900	800018a4	00000013	addi	x0,x0,0	  x0:0x00000000
       19025000	      1901	800018a8	fd1ff36f	jal	x6,800018a8	  x6=0x800018a8
       19035000	      1902	00000000	00000013	addi	x0,x0,0	  x0:0x00000000
       19045000	      1903	80001874	00000013	addi	x0,x0,0	  x0:0x00000000
       19055000	      1904	80001878	05c000ef	jal	x1,80001878	  x1=0x80001878
       19065000	      1905	00000000	00000013	addi	x0,x0,0	  x0:0x00000000
       19075000	      1906	800018d0	00000013	addi	x0,x0,0	  x0:0x00000000
       19085000	      1907	800018d4	fb1ff36f	jal	x6,800018d4	  x6=0x800018d4
       19095000	      1908	00000000	00000013	addi	x0,x0,0	  x0:0x00000000
       19105000	      1909	80001880	00000013	addi	x0,x0,0	  x0:0x00000000
       19115000	      1910	80001884	010000ef	jal	x1,80001884	  x1=0x80001884
       19125000	      1911	00000000	00000013	addi	x0,x0,0	  x0:0x00000000
       19135000	      1912	80001890	00000013	addi	x0,x0,0	  x0:0x00000000
       19145000	      1913	80001894	030000ef	jal	x1,80001894	  x1=0x80001894
       19155000	      1914	00000000	00000013	addi	x0,x0,0	  x0:0x00000000
       19165000	      1915	800018c0	00000013	addi	x0,x0,0	  x0:0x00000000
       19175000	      1916	800018c4	020000ef	jal	x1,800018c4	  x1=0x800018c4
       19185000	      1917	00000000	00000013	addi	x0,x0,0	  x0:0x00000000
       19195000	      1918	800018e0	00000013	addi	x0,x0,0	  x0:0x00000000
       19205000	      1919	800018e4	fadff0ef	jal	x1,800018e4	  x1=0x800018e4
       19215000	      1920	00000000	00000013	addi	x0,x0,0	  x0:0x00000000
       19225000	      1921	8000188c	00000013	addi	x0,x0,0	  x0:0x00000000
       19235000	      1922	80001890	038000ef	jal	x1,80001890	  x1=0x80001890
       19245000	      1923	00000000	00000013	addi	x0,x0,0	  x0:0x00000000
       19255000	      1924	800018c4	00000013	addi	x0,x0,0	  x0:0x00000000
       19265000	      1925	800018c8	fd5ff36f	jal	x6,800018c8	  x6=0x800018c8
       19275000	      1926	00000000	00000013	addi	x0,x0,0	  x0:0x00000000
       19285000	      1927	80001898	00000013	addi	x0,x0,0	  x0:0x00000000
       19295000	      1928	8000189c	014000ef	jal	x1,8000189c	  x1=0x8000189c
       19305000	      1929	00000000	00000013	addi	x0,x0,0	  x0:0x00000000
       19315000	      1930	800018ac	00000013	addi	x0,x0,0	  x0:0x00000000
       19325000	      1931	800018b0	fe9ff0ef	jal	x1,800018b0	  x1=0x800018b0
       19335000	      1932	00000000	00000013	addi	x0,x0,0	  x0:0x00000000
       19345000	      1933	80001894	00000013	addi	x0,x0,0	  x0:0x00000000
       19355000	      1934	80001898	038000ef	jal	x1,80001898	  x1=0x80001898
       19365000	      1935	00000000	00000013	addi	x0,x0,0	  x0:0x00000000
       19375000	      1936	800018cc	00000013	addi	x0,x0,0	  x0:0x00000000
       19385000	      1937	800018d0	fe5ff96f	jal	x18,800018d0	 x18=0x800018d0
       19395000	      1938	00000000	00000013	addi	x0,x0,0	  x0:0x00000000
       19405000	      1939	800018b0	00000013	addi	x0,x0,0	  x0:0x00000000
       19415000	      1940	800018b4	fc9ff0ef	jal	x1,800018b4	  x1=0x800018b4
       19425000	      1941	00000000	00000013	addi	x0,x0,0	  x0:0x00000000
       19435000	      1942	80001878	00000013	addi	x0,x0,0	  x0:0x00000000
       19445000	      1943	8000187c	050000ef	jal	x1,8000187c	  x1=0x8000187c
       19455000	      1944	00000000	00000013	addi	x0,x0,0	  x0:0x00000000
       19465000	      1945	800018c8	00000013	addi	x0,x0,0	  x0:0x00000000
       19475000	      1946	800018cc	fbdff36f	jal	x6,800018cc	  x6=0x800018cc
       19485000	      1947	00000000	00000013	addi	x0,x0,0	  x0:0x00000000
       19495000	      1948	80001884	00000013	addi	x0,x0,0	  x0:0x00000000
       19505000	      1949	80001888	01c0096f	jal	x18,80001888	 x18=0x80001888
       19515000	      1950	00000000	00000013	addi	x0,x0,0	  x0:0x00000000
       19525000	      1951	800018a0	00000013	addi	x0,x0,0	  x0:0x00000000
       19535000	      1952	800018a4	018000ef	jal	x1,800018a4	  x1=0x800018a4
       19545000	      1953	00000000	00000013	addi	x0,x0,0	  x0:0x00000000
       19555000	      1954	800018b8	00000013	addi	x0,x0,0	  x0:0x00000000
       19565000	      1955	800018bc	00400aef	jal	x21,800018bc	 x21=0x800018bc
       19575000	      1956	00000000	00000013	addi	x0,x0,0	  x0:0x00000000
       19585000	      1957	800018bc	00000013	addi	x0,x0,0	  x0:0x00000000
       19595000	      1958	800018c0	fe1ff0ef	jal	x1,800018c0	  x1=0x800018c0
       19605000	      1959	00000000	00000013	addi	x0,x0,0	  x0:0x00000000
       19615000	      1960	8000189c	00000013	addi	x0,x0,0	  x0:0x00000000
       19625000	      1961	800018a0	00c000ef	jal	x1,800018a0	  x1=0x800018a0
       19635000	      1962	00000000	00000013	addi	x0,x0,0	  x0:0x00000000
       19645000	      1963	800018a8	00000013	addi	x0,x0,0	  x0:0x00000000
       19655000	      1964	800018ac	0300036f	jal	x6,800018ac	  x6=0x800018ac
       19665000	      1965	00000000	00000013	addi	x0,x0,0	  x0:0x00000000
       19675000	      1966	800018d8	00000013	addi	x0,x0,0	  x0:0x00000000
       19685000	      1967	800018dc	fddff0ef	jal	x1,800018dc	  x1=0x800018dc
       19695000	      1968	00000000	00000013	addi	x0,x0,0	  x0:0x00000000
       19705000	      1969	800018b4	00000013	addi	x0,x0,0	  x0:0x00000000
       19715000	      1970	800018b8	020003ef	jal	x7,800018b8	  x7=0x800018b8
       19725000	      1971	00000000	00000013	addi	x0,x0,0	  x0:0x00000000
       19735000	      1972	800018d4	00000013	addi	x0,x0,0	  x0:0x00000000
       19745000	      1973	800018d8	010000ef	jal	x1,800018d8	  x1=0x800018d8
       19755000	      1974	00000000	00000013	addi	x0,x0,0	  x0:0x00000000
       19765000	      1975	800018e4	00000013	addi	x0,x0,0	  x0:0x00000000
       19775000	      1976	800018e8	07b98e13	addi	x28,x19,123	 x19:0x00000063 x28=0x000000de
       19785000	      1977	800018ec	050000ef	jal	x1,800018ec	  x1=0x800018ec
       19795000	      1978	00000000	00000013	addi	x0,x0,0	  x0:0x00000000
       19805000	      1979	80001938	00000013	addi	x0,x0,0	  x0:0x00000000
       19815000	      1980	8000193c	fc9ff0ef	jal	x1,8000193c	  x1=0x8000193c
       19825000	      1981	00000000	00000013	addi	x0,x0,0	  x0:0x00000000
       19835000	      1982	80001900	00000013	addi	x0,x0,0	  x0:0x00000000
       19845000	      1983	80001904	03c000ef	jal	x1,80001904	  x1=0x80001904
       19855000	      1984	00000000	00000013	addi	x0,x0,0	  x0:0x00000000
       19865000	      1985	8000193c	00000013	addi	x0,x0,0	  x0:0x00000000
       19875000	      1986	80001940	fd5ff0ef	jal	x1,80001940	  x1=0x80001940
       19885000	      1987	00000000	00000013	addi	x0,x0,0	  x0:0x00000000
       19895000	      1988	80001910	00000013	addi	x0,x0,0	  x0:0x00000000
       19905000	      1989	80001914	0240036f	jal	x6,80001914	  x6=0x80001914
       19915000	      1990	00000000	00000013	addi	x0,x0,0	  x0:0x00000000
       19925000	      1991	80001934	00000013	addi	x0,x0,0	  x0:0x00000000
       19935000	      1992	80001938	fd1ff1ef	jal	x3,80001938	  x3=0x80001938
       19945000	      1993	00000000	00000013	addi	x0,x0,0	  x0:0x00000000
       19955000	      1994	80001904	00000013	addi	x0,x0,0	  x0:0x00000000
       19965000	      1995	80001908	ff5ff4ef	jal	x9,80001908	  x9=0x80001908
       19975000	      1996	00000000	00000013	addi	x0,x0,0	  x0:0x00000000
       19985000	      1997	800018f8	00000013	addi	x0,x0,0	  x0:0x00000000
       19995000	      1998	800018fc	0540086f	jal	x16,800018fc	 x16=0x800018fc
       20005000	      1999	00000000	00000013	addi	x0,x0,0	  x0:0x00000000
       20015000	      2000	8000194c	00000013	addi	x0,x0,0	  x0:0x00000000
       20025000	      2001	80001950	fb1ff66f	jal	x12,80001950	 x12=0x80001950
       20035000	      2002	00000000	00000013	addi	x0,x0,0	  x0:0x00000000
       20045000	      2003	800018fc	00000013	addi	x0,x0,0	  x0:0x00000000
       20055000	      2004	80001900	044004ef	jal	x9,80001900	  x9=0x80001900
       20065000	      2005	00000000	00000013	addi	x0,x0,0	  x0:0x00000000
       20075000	      2006	80001940	00000013	addi	x0,x0,0	  x0:0x00000000
       20085000	      2007	80001944	ff1ff36f	jal	x6,80001944	  x6=0x80001944
       20095000	      2008	00000000	00000013	addi	x0,x0,0	  x0:0x00000000
       20105000	      2009	80001930	00000013	addi	x0,x0,0	  x0:0x00000000
       20115000	      2010	80001934	fbdff0ef	jal	x1,80001934	  x1=0x80001934
       20125000	      2011	00000000	00000013	addi	x0,x0,0	  x0:0x00000000
       20135000	      2012	800018ec	00000013	addi	x0,x0,0	  x0:0x00000000
       20145000	      2013	800018f0	0380036f	jal	x6,800018f0	  x6=0x800018f0
       20155000	      2014	00000000	00000013	addi	x0,x0,0	  x0:0x00000000
       20165000	      2015	80001924	00000013	addi	x0,x0,0	  x0:0x00000000
       20175000	      2016	80001928	0200036f	jal	x6,80001928	  x6=0x80001928
       20185000	      2017	00000000	00000013	addi	x0,x0,0	  x0:0x00000000
       20195000	      2018	80001944	00000013	addi	x0,x0,0	  x0:0x00000000
       20205000	      2019	80001948	0040036f	jal	x6,80001948	  x6=0x80001948
       20215000	      2020	00000000	00000013	addi	x0,x0,0	  x0:0x00000000
       20225000	      2021	80001948	00000013	addi	x0,x0,0	  x0:0x00000000
       20235000	      2022	8000194c	fc5ff36f	jal	x6,8000194c	  x6=0x8000194c
       20245000	      2023	00000000	00000013	addi	x0,x0,0	  x0:0x00000000
       20255000	      2024	8000190c	00000013	addi	x0,x0,0	  x0:0x00000000
       20265000	      2025	80001910	0200016f	jal	x2,80001910	  x2=0x80001910
       20275000	      2026	00000000	00000013	addi	x0,x0,0	  x0:0x00000000
       20285000	      2027	8000192c	00000013	addi	x0,x0,0	  x0:0x00000000
       20295000	      2028	80001930	fc5ff36f	jal	x6,80001930	  x6=0x80001930
       20305000	      2029	00000000	00000013	addi	x0,x0,0	  x0:0x00000000
       20315000	      2030	800018f0	00000013	addi	x0,x0,0	  x0:0x00000000
       20325000	      2031	800018f4	02c000ef	jal	x1,800018f4	  x1=0x800018f4
       20335000	      2032	00000000	00000013	addi	x0,x0,0	  x0:0x00000000
       20345000	      2033	8000191c	00000013	addi	x0,x0,0	  x0:0x00000000
       20355000	      2034	80001920	fd9ffcef	jal	x25,80001920	 x25=0x80001920
       20365000	      2035	00000000	00000013	addi	x0,x0,0	  x0:0x00000000
       20375000	      2036	800018f4	00000013	addi	x0,x0,0	  x0:0x00000000
       20385000	      2037	800018f8	0200036f	jal	x6,800018f8	  x6=0x800018f8
       20395000	      2038	00000000	00000013	addi	x0,x0,0	  x0:0x00000000
       20405000	      2039	80001914	00000013	addi	x0,x0,0	  x0:0x00000000
       20415000	      2040	80001918	ff5ff3ef	jal	x7,80001918	  x7=0x80001918
       20425000	      2041	00000000	00000013	addi	x0,x0,0	  x0:0x00000000
       20435000	      2042	80001908	00000013	addi	x0,x0,0	  x0:0x00000000
       20445000	      2043	8000190c	01800aef	jal	x21,8000190c	 x21=0x8000190c
       20455000	      2044	00000000	00000013	addi	x0,x0,0	  x0:0x00000000
       20465000	      2045	80001920	00000013	addi	x0,x0,0	  x0:0x00000000
       20475000	      2046	80001924	03000a6f	jal	x20,80001924	 x20=0x80001924
       20485000	      2047	00000000	00000013	addi	x0,x0,0	  x0:0x00000000
       20495000	      2048	80001950	00000013	addi	x0,x0,0	  x0:0x00000000
       20505000	      2049	80001954	fc9ff0ef	jal	x1,80001954	  x1=0x80001954
       20515000	      2050	00000000	00000013	addi	x0,x0,0	  x0:0x00000000
       20525000	      2051	80001918	00000013	addi	x0,x0,0	  x0:0x00000000
       20535000	      2052	8000191c	0100036f	jal	x6,8000191c	  x6=0x8000191c
       20545000	      2053	00000000	00000013	addi	x0,x0,0	  x0:0x00000000
       20555000	      2054	80001928	00000013	addi	x0,x0,0	  x0:0x00000000
       20565000	      2055	8000192c	02c000ef	jal	x1,8000192c	  x1=0x8000192c
       20575000	      2056	00000000	00000013	addi	x0,x0,0	  x0:0x00000000
       20585000	      2057	80001954	00000013	addi	x0,x0,0	  x0:0x00000000
       20595000	      2058	80001958	929bb017	auipc	x0,0x929bb	
       20605000	      2059	8000195c	058000ef	jal	x1,8000195c	  x1=0x8000195c
       20615000	      2060	00000000	00000013	addi	x0,x0,0	  x0:0x00000000
       20625000	      2061	800019b0	00000013	addi	x0,x0,0	  x0:0x00000000
       20635000	      2062	800019b4	fc9ff36f	jal	x6,800019b4	  x6=0x800019b4
       20645000	      2063	00000000	00000013	addi	x0,x0,0	  x0:0x00000000
       20655000	      2064	80001978	00000013	addi	x0,x0,0	  x0:0x00000000
       20665000	      2065	8000197c	00c000ef	jal	x1,8000197c	  x1=0x8000197c
       20675000	      2066	00000000	00000013	addi	x0,x0,0	  x0:0x00000000
       20685000	      2067	80001984	00000013	addi	x0,x0,0	  x0:0x00000000
       20695000	      2068	80001988	008000ef	jal	x1,80001988	  x1=0x80001988
       20705000	      2069	00000000	00000013	addi	x0,x0,0	  x0:0x00000000
       20715000	      2070	8000198c	00000013	addi	x0,x0,0	  x0:0x00000000
       20725000	      2071	80001990	010000ef	jal	x1,80001990	  x1=0x80001990
       20735000	      2072	00000000	00000013	addi	x0,x0,0	  x0:0x00000000
       20745000	      2073	8000199c	00000013	addi	x0,x0,0	  x0:0x00000000
       20755000	      2074	800019a0	fd5ff36f	jal	x6,800019a0	  x6=0x800019a0
       20765000	      2075	00000000	00000013	addi	x0,x0,0	  x0:0x00000000
       20775000	      2076	80001970	00000013	addi	x0,x0,0	  x0:0x00000000
       20785000	      2077	80001974	0340016f	jal	x2,80001974	  x2=0x80001974
       20795000	      2078	00000000	00000013	addi	x0,x0,0	  x0:0x00000000
       20805000	      2079	800019a4	00000013	addi	x0,x0,0	  x0:0x00000000
       20815000	      2080	800019a8	fc1ff5ef	jal	x11,800019a8	 x11=0x800019a8
       20825000	      2081	00000000	00000013	addi	x0,x0,0	  x0:0x00000000
       20835000	      2082	80001964	00000013	addi	x0,x0,0	  x0:0x00000000
       20845000	      2083	80001968	02c006ef	jal	x13,80001968	 x13=0x80001968
       20855000	      2084	00000000	00000013	addi	x0,x0,0	  x0:0x00000000
       20865000	      2085	80001990	00000013	addi	x0,x0,0	  x0:0x00000000
       20875000	      2086	80001994	ff9ff0ef	jal	x1,80001994	  x1=0x80001994
       20885000	      2087	00000000	00000013	addi	x0,x0,0	  x0:0x00000000
       20895000	      2088	80001988	00000013	addi	x0,x0,0	  x0:0x00000000
       20905000	      2089	8000198c	ff9ff0ef	jal	x1,8000198c	  x1=0x8000198c
       20915000	      2090	00000000	00000013	addi	x0,x0,0	  x0:0x00000000
       20925000	      2091	80001980	00000013	addi	x0,x0,0	  x0:0x00000000
       20935000	      2092	80001984	0180036f	jal	x6,80001984	  x6=0x80001984
       20945000	      2093	00000000	00000013	addi	x0,x0,0	  x0:0x00000000
       20955000	      2094	80001998	00000013	addi	x0,x0,0	  x0:0x00000000
       20965000	      2095	8000199c	fd5ff0ef	jal	x1,8000199c	  x1=0x8000199c
       20975000	      2096	00000000	00000013	addi	x0,x0,0	  x0:0x00000000
       20985000	      2097	8000196c	00000013	addi	x0,x0,0	  x0:0x00000000
       20995000	      2098	80001970	03400fef	jal	x31,80001970	 x31=0x80001970
       21005000	      2099	00000000	00000013	addi	x0,x0,0	  x0:0x00000000
       21015000	      2100	800019a0	00000013	addi	x0,x0,0	  x0:0x00000000
       21025000	      2101	800019a4	fddff36f	jal	x6,800019a4	  x6=0x800019a4
       21035000	      2102	00000000	00000013	addi	x0,x0,0	  x0:0x00000000
       21045000	      2103	8000197c	00000013	addi	x0,x0,0	  x0:0x00000000
       21055000	      2104	80001980	02c0036f	jal	x6,80001980	  x6=0x80001980
       21065000	      2105	00000000	00000013	addi	x0,x0,0	  x0:0x00000000
       21075000	      2106	800019a8	00000013	addi	x0,x0,0	  x0:0x00000000
       21085000	      2107	800019ac	0040036f	jal	x6,800019ac	  x6=0x800019ac
       21095000	      2108	00000000	00000013	addi	x0,x0,0	  x0:0x00000000
       21105000	      2109	800019ac	00000013	addi	x0,x0,0	  x0:0x00000000
       21115000	      2110	800019b0	fe9ff36f	jal	x6,800019b0	  x6=0x800019b0
       21125000	      2111	00000000	00000013	addi	x0,x0,0	  x0:0x00000000
       21135000	      2112	80001994	00000013	addi	x0,x0,0	  x0:0x00000000
       21145000	      2113	80001998	fd5ffeef	jal	x29,80001998	 x29=0x80001998
       21155000	      2114	00000000	00000013	addi	x0,x0,0	  x0:0x00000000
       21165000	      2115	80001968	00000013	addi	x0,x0,0	  x0:0x00000000
       21175000	      2116	8000196c	ff5ff0ef	jal	x1,8000196c	  x1=0x8000196c
       21185000	      2117	00000000	00000013	addi	x0,x0,0	  x0:0x00000000
       21195000	      2118	8000195c	00000013	addi	x0,x0,0	  x0:0x00000000
       21205000	      2119	80001960	018001ef	jal	x3,80001960	  x3=0x80001960
       21215000	      2120	00000000	00000013	addi	x0,x0,0	  x0:0x00000000
       21225000	      2121	80001974	00000013	addi	x0,x0,0	  x0:0x00000000
       21235000	      2122	80001978	fedff0ef	jal	x1,80001978	  x1=0x80001978
       21245000	      2123	00000000	00000013	addi	x0,x0,0	  x0:0x00000000
       21255000	      2124	80001960	00000013	addi	x0,x0,0	  x0:0x00000000
       21265000	      2125	80001964	0540036f	jal	x6,80001964	  x6=0x80001964
       21275000	      2126	00000000	00000013	addi	x0,x0,0	  x0:0x00000000
       21285000	      2127	800019b4	00000013	addi	x0,x0,0	  x0:0x00000000
       21295000	      2128	800019b8	01fcad33	slt	x26,x25,x31	 x25:0x80001920 x31:0x80001970 x26=0x00000001
       21305000	      2129	800019bc	014000ef	jal	x1,800019bc	  x1=0x800019bc
       21315000	      2130	00000000	00000013	addi	x0,x0,0	  x0:0x00000000
       21325000	      2131	800019cc	00000013	addi	x0,x0,0	  x0:0x00000000
       21335000	      2132	800019d0	ff5ff36f	jal	x6,800019d0	  x6=0x800019d0
       21345000	      2133	00000000	00000013	addi	x0,x0,0	  x0:0x00000000
       21355000	      2134	800019c0	00000013	addi	x0,x0,0	  x0:0x00000000
       21365000	      2135	800019c4	024000ef	jal	x1,800019c4	  x1=0x800019c4
       21375000	      2136	00000000	00000013	addi	x0,x0,0	  x0:0x00000000
       21385000	      2137	800019e4	00000013	addi	x0,x0,0	  x0:0x00000000
       21395000	      2138	800019e8	00c000ef	jal	x1,800019e8	  x1=0x800019e8
       21405000	      2139	00000000	00000013	addi	x0,x0,0	  x0:0x00000000
       21415000	      2140	800019f0	00000013	addi	x0,x0,0	  x0:0x00000000
       21425000	      2141	800019f4	ff9ff0ef	jal	x1,800019f4	  x1=0x800019f4
       21435000	      2142	00000000	00000013	addi	x0,x0,0	  x0:0x00000000
       21445000	      2143	800019e8	00000013	addi	x0,x0,0	  x0:0x00000000
       21455000	      2144	800019ec	020000ef	jal	x1,800019ec	  x1=0x800019ec
       21465000	      2145	00000000	00000013	addi	x0,x0,0	  x0:0x00000000
       21475000	      2146	80001a08	00000013	addi	x0,x0,0	  x0:0x00000000
       21485000	      2147	80001a0c	ff5ffeef	jal	x29,80001a0c	 x29=0x80001a0c
       21495000	      2148	00000000	00000013	addi	x0,x0,0	  x0:0x00000000
       21505000	      2149	800019fc	00000013	addi	x0,x0,0	  x0:0x00000000
       21515000	      2150	80001a00	ff1ff36f	jal	x6,80001a00	  x6=0x80001a00
       21525000	      2151	00000000	00000013	addi	x0,x0,0	  x0:0x00000000
       21535000	      2152	800019ec	00000013	addi	x0,x0,0	  x0:0x00000000
       21545000	      2153	800019f0	018000ef	jal	x1,800019f0	  x1=0x800019f0
       21555000	      2154	00000000	00000013	addi	x0,x0,0	  x0:0x00000000
       21565000	      2155	80001a04	00000013	addi	x0,x0,0	  x0:0x00000000
       21575000	      2156	80001a08	014000ef	jal	x1,80001a08	  x1=0x80001a08
       21585000	      2157	00000000	00000013	addi	x0,x0,0	  x0:0x00000000
       21595000	      2158	80001a18	00000013	addi	x0,x0,0	  x0:0x00000000
       21605000	      2159	80001a1c	fadff1ef	jal	x3,80001a1c	  x3=0x80001a1c
       21615000	      2160	00000000	00000013	addi	x0,x0,0	  x0:0x00000000
       21625000	      2161	800019c4	00000013	addi	x0,x0,0	  x0:0x00000000
       21635000	      2162	800019c8	034000ef	jal	x1,800019c8	  x1=0x800019c8
       21645000	      2163	00000000	00000013	addi	x0,x0,0	  x0:0x00000000
       21655000	      2164	800019f8	00000013	addi	x0,x0,0	  x0:0x00000000
       21665000	      2165	800019fc	fddff4ef	jal	x9,800019fc	  x9=0x800019fc
       21675000	      2166	00000000	00000013	addi	x0,x0,0	  x0:0x00000000
       21685000	      2167	800019d4	00000013	addi	x0,x0,0	  x0:0x00000000
       21695000	      2168	800019d8	004000ef	jal	x1,800019d8	  x1=0x800019d8
       21705000	      2169	00000000	00000013	addi	x0,x0,0	  x0:0x00000000
       21715000	      2170	800019d8	00000013	addi	x0,x0,0	  x0:0x00000000
       21725000	      2171	800019dc	01c0036f	jal	x6,800019dc	  x6=0x800019dc
       21735000	      2172	00000000	00000013	addi	x0,x0,0	  x0:0x00000000
       21745000	      2173	800019f4	00000013	addi	x0,x0,0	  x0:0x00000000
       21755000	      2174	800019f8	fe9ff0ef	jal	x1,800019f8	  x1=0x800019f8
       21765000	      2175	00000000	00000013	addi	x0,x0,0	  x0:0x00000000
       21775000	      2176	800019dc	00000013	addi	x0,x0,0	  x0:0x00000000
       21785000	      2177	800019e0	ff5ff4ef	jal	x9,800019e0	  x9=0x800019e0
       21795000	      2178	00000000	00000013	addi	x0,x0,0	  x0:0x00000000
       21805000	      2179	800019d0	00000013	addi	x0,x0,0	  x0:0x00000000
       21815000	      2180	800019d4	030000ef	jal	x1,800019d4	  x1=0x800019d4
       21825000	      2181	00000000	00000013	addi	x0,x0,0	  x0:0x00000000
       21835000	      2182	80001a00	00000013	addi	x0,x0,0	  x0:0x00000000
       21845000	      2183	80001a04	fbdff1ef	jal	x3,80001a04	  x3=0x80001a04
       21855000	      2184	00000000	00000013	addi	x0,x0,0	  x0:0x00000000
       21865000	      2185	800019bc	00000013	addi	x0,x0,0	  x0:0x00000000
       21875000	      2186	800019c0	00c0016f	jal	x2,800019c0	  x2=0x800019c0
       21885000	      2187	00000000	00000013	addi	x0,x0,0	  x0:0x00000000
       21895000	      2188	800019c8	00000013	addi	x0,x0,0	  x0:0x00000000
       21905000	      2189	800019cc	048000ef	jal	x1,800019cc	  x1=0x800019cc
       21915000	      2190	00000000	00000013	addi	x0,x0,0	  x0:0x00000000
       21925000	      2191	80001a10	00000013	addi	x0,x0,0	  x0:0x00000000
       21935000	      2192	80001a14	fd1ff0ef	jal	x1,80001a14	  x1=0x80001a14
       21945000	      2193	00000000	00000013	addi	x0,x0,0	  x0:0x00000000
       21955000	      2194	800019e0	00000013	addi	x0,x0,0	  x0:0x00000000
       21965000	      2195	800019e4	034000ef	jal	x1,800019e4	  x1=0x800019e4
       21975000	      2196	00000000	00000013	addi	x0,x0,0	  x0:0x00000000
       21985000	      2197	80001a14	00000013	addi	x0,x0,0	  x0:0x00000000
       21995000	      2198	80001a18	ff9ff36f	jal	x6,80001a18	  x6=0x80001a18
       22005000	      2199	00000000	00000013	addi	x0,x0,0	  x0:0x00000000
       22015000	      2200	80001a0c	00000013	addi	x0,x0,0	  x0:0x00000000
       22025000	      2201	80001a10	0100036f	jal	x6,80001a10	  x6=0x80001a10
       22035000	      2202	00000000	00000013	addi	x0,x0,0	  x0:0x00000000
       22045000	      2203	80001a1c	00000013	addi	x0,x0,0	  x0:0x00000000
       22055000	      2204	80001a20	019d2cb3	slt	x25,x26,x25	 x26:0x00000001 x25:0x80001920 x25=0x00000000
       22065000	      2205	80001a24	018000ef	jal	x1,80001a24	  x1=0x80001a24
       22075000	      2206	00000000	00000013	addi	x0,x0,0	  x0:0x00000000
       22085000	      2207	80001a38	00000013	addi	x0,x0,0	  x0:0x00000000
       22095000	      2208	80001a3c	01c000ef	jal	x1,80001a3c	  x1=0x80001a3c
       22105000	      2209	00000000	00000013	addi	x0,x0,0	  x0:0x00000000
       22115000	      2210	80001a54	00000013	addi	x0,x0,0	  x0:0x00000000
       22125000	      2211	80001a58	fd1ff36f	jal	x6,80001a58	  x6=0x80001a58
       22135000	      2212	00000000	00000013	addi	x0,x0,0	  x0:0x00000000
       22145000	      2213	80001a24	00000013	addi	x0,x0,0	  x0:0x00000000
       22155000	      2214	80001a28	064000ef	jal	x1,80001a28	  x1=0x80001a28
       22165000	      2215	00000000	00000013	addi	x0,x0,0	  x0:0x00000000
       22175000	      2216	80001a88	00000013	addi	x0,x0,0	  x0:0x00000000
       22185000	      2217	80001a8c	fe1ff36f	jal	x6,80001a8c	  x6=0x80001a8c
       22195000	      2218	00000000	00000013	addi	x0,x0,0	  x0:0x00000000
       22205000	      2219	80001a68	00000013	addi	x0,x0,0	  x0:0x00000000
       22215000	      2220	80001a6c	fddff46f	jal	x8,80001a6c	  x8=0x80001a6c
       22225000	      2221	00000000	00000013	addi	x0,x0,0	  x0:0x00000000
       22235000	      2222	80001a44	00000013	addi	x0,x0,0	  x0:0x00000000
       22245000	      2223	80001a48	ff9ff36f	jal	x6,80001a48	  x6=0x80001a48
       22255000	      2224	00000000	00000013	addi	x0,x0,0	  x0:0x00000000
       22265000	      2225	80001a3c	00000013	addi	x0,x0,0	  x0:0x00000000
       22275000	      2226	80001a40	ff9ff36f	jal	x6,80001a40	  x6=0x80001a40
       22285000	      2227	00000000	00000013	addi	x0,x0,0	  x0:0x00000000
       22295000	      2228	80001a34	00000013	addi	x0,x0,0	  x0:0x00000000
       22305000	      2229	80001a38	ffdff0ef	jal	x1,80001a38	  x1=0x80001a38
       22315000	      2230	00000000	00000013	addi	x0,x0,0	  x0:0x00000000
       22325000	      2231	80001a30	00000013	addi	x0,x0,0	  x0:0x00000000
       22335000	      2232	80001a34	05400e6f	jal	x28,80001a34	 x28=0x80001a34
       22345000	      2233	00000000	00000013	addi	x0,x0,0	  x0:0x00000000
       22355000	      2234	80001a84	00000013	addi	x0,x0,0	  x0:0x00000000
       22365000	      2235	80001a88	ff1ff36f	jal	x6,80001a88	  x6=0x80001a88
       22375000	      2236	00000000	00000013	addi	x0,x0,0	  x0:0x00000000
       22385000	      2237	80001a74	00000013	addi	x0,x0,0	  x0:0x00000000
       22395000	      2238	80001a78	fe5ff0ef	jal	x1,80001a78	  x1=0x80001a78
       22405000	      2239	00000000	00000013	addi	x0,x0,0	  x0:0x00000000
       22415000	      2240	80001a58	00000013	addi	x0,x0,0	  x0:0x00000000
       22425000	      2241	80001a5c	034001ef	jal	x3,80001a5c	  x3=0x80001a5c
       22435000	      2242	00000000	00000013	addi	x0,x0,0	  x0:0x00000000
       22445000	      2243	80001a8c	00000013	addi	x0,x0,0	  x0:0x00000000
       22455000	      2244	80001a90	ff1ff0ef	jal	x1,80001a90	  x1=0x80001a90
       22465000	      2245	00000000	00000013	addi	x0,x0,0	  x0:0x00000000
       22475000	      2246	80001a7c	00000013	addi	x0,x0,0	  x0:0x00000000
       22485000	      2247	80001a80	ff1ff0ef	jal	x1,80001a80	  x1=0x80001a80
       22495000	      2248	00000000	00000013	addi	x0,x0,0	  x0:0x00000000
       22505000	      2249	80001a6c	00000013	addi	x0,x0,0	  x0:0x00000000
       22515000	      2250	80001a70	014000ef	jal	x1,80001a70	  x1=0x80001a70
       22525000	      2251	00000000	00000013	addi	x0,x0,0	  x0:0x00000000
       22535000	      2252	80001a80	00000013	addi	x0,x0,0	  x0:0x00000000
       22545000	      2253	80001a84	fa9ffb6f	jal	x22,80001a84	 x22=0x80001a84
       22555000	      2254	00000000	00000013	addi	x0,x0,0	  x0:0x00000000
       22565000	      2255	80001a28	00000013	addi	x0,x0,0	  x0:0x00000000
       22575000	      2256	80001a2c	0480036f	jal	x6,80001a2c	  x6=0x80001a2c
       22585000	      2257	00000000	00000013	addi	x0,x0,0	  x0:0x00000000
       22595000	      2258	80001a70	00000013	addi	x0,x0,0	  x0:0x00000000
       22605000	      2259	80001a74	fedff16f	jal	x2,80001a74	  x2=0x80001a74
       22615000	      2260	00000000	00000013	addi	x0,x0,0	  x0:0x00000000
       22625000	      2261	80001a5c	00000013	addi	x0,x0,0	  x0:0x00000000
       22635000	      2262	80001a60	fd1ff0ef	jal	x1,80001a60	  x1=0x80001a60
       22645000	      2263	00000000	00000013	addi	x0,x0,0	  x0:0x00000000
       22655000	      2264	80001a2c	00000013	addi	x0,x0,0	  x0:0x00000000
       22665000	      2265	80001a30	024000ef	jal	x1,80001a30	  x1=0x80001a30
       22675000	      2266	00000000	00000013	addi	x0,x0,0	  x0:0x00000000
       22685000	      2267	80001a50	00000013	addi	x0,x0,0	  x0:0x00000000
       22695000	      2268	80001a54	ffdff0ef	jal	x1,80001a54	  x1=0x80001a54
       22705000	      2269	00000000	00000013	addi	x0,x0,0	  x0:0x00000000
       22715000	      2270	80001a4c	00000013	addi	x0,x0,0	  x0:0x00000000
       22725000	      2271	80001a50	0480036f	jal	x6,80001a50	  x6=0x80001a50
       22735000	      2272	00000000	00000013	addi	x0,x0,0	  x0:0x00000000
       22745000	      2273	80001a94	00000013	addi	x0,x0,0	  x0:0x00000000
       22755000	      2274	80001a98	fb5ff1ef	jal	x3,80001a98	  x3=0x80001a98
       22765000	      2275	00000000	00000013	addi	x0,x0,0	  x0:0x00000000
       22775000	      2276	80001a48	00000013	addi	x0,x0,0	  x0:0x00000000
       22785000	      2277	80001a4c	0180036f	jal	x6,80001a4c	  x6=0x80001a4c
       22795000	      2278	00000000	00000013	addi	x0,x0,0	  x0:0x00000000
       22805000	      2279	80001a60	00000013	addi	x0,x0,0	  x0:0x00000000
       22815000	      2280	80001a64	fe1ff0ef	jal	x1,80001a64	  x1=0x80001a64
       22825000	      2281	00000000	00000013	addi	x0,x0,0	  x0:0x00000000
       22835000	      2282	80001a40	00000013	addi	x0,x0,0	  x0:0x00000000
       22845000	      2283	80001a44	024000ef	jal	x1,80001a44	  x1=0x80001a44
       22855000	      2284	00000000	00000013	addi	x0,x0,0	  x0:0x00000000
       22865000	      2285	80001a64	00000013	addi	x0,x0,0	  x0:0x00000000
       22875000	      2286	80001a68	02c000ef	jal	x1,80001a68	  x1=0x80001a68
       22885000	      2287	00000000	00000013	addi	x0,x0,0	  x0:0x00000000
       22895000	      2288	80001a90	00000013	addi	x0,x0,0	  x0:0x00000000
       22905000	      2289	80001a94	fe9ff76f	jal	x14,80001a94	 x14=0x80001a94
       22915000	      2290	00000000	00000013	addi	x0,x0,0	  x0:0x00000000
       22925000	      2291	80001a78	00000013	addi	x0,x0,0	  x0:0x00000000
       22935000	      2292	80001a7c	0200016f	jal	x2,80001a7c	  x2=0x80001a7c
       22945000	      2293	00000000	00000013	addi	x0,x0,0	  x0:0x00000000
       22955000	      2294	80001a98	00000013	addi	x0,x0,0	  x0:0x00000000
       22965000	      2295	80001a9c	73e2bb13	sltiu	x22,x5,1854	  x5:0x00000000 x22=0x00000001
       22975000	      2296	80001aa0	048000ef	jal	x1,80001aa0	  x1=0x80001aa0
       22985000	      2297	00000000	00000013	addi	x0,x0,0	  x0:0x00000000
       22995000	      2298	80001ae4	00000013	addi	x0,x0,0	  x0:0x00000000
       23005000	      2299	80001ae8	fc1ff3ef	jal	x7,80001ae8	  x7=0x80001ae8
       23015000	      2300	00000000	00000013	addi	x0,x0,0	  x0:0x00000000
       23025000	      2301	80001aa4	00000013	addi	x0,x0,0	  x0:0x00000000
       23035000	      2302	80001aa8	048001ef	jal	x3,80001aa8	  x3=0x80001aa8
       23045000	      2303	00000000	00000013	addi	x0,x0,0	  x0:0x00000000
       23055000	      2304	80001aec	00000013	addi	x0,x0,0	  x0:0x00000000
       23065000	      2305	80001af0	0140036f	jal	x6,80001af0	  x6=0x80001af0
       23075000	      2306	00000000	00000013	addi	x0,x0,0	  x0:0x00000000
       23085000	      2307	80001b00	00000013	addi	x0,x0,0	  x0:0x00000000
       23095000	      2308	80001b04	fadff0ef	jal	x1,80001b04	  x1=0x80001b04
       23105000	      2309	00000000	00000013	addi	x0,x0,0	  x0:0x00000000
       23115000	      2310	80001aac	00000013	addi	x0,x0,0	  x0:0x00000000
       23125000	      2311	80001ab0	01c000ef	jal	x1,80001ab0	  x1=0x80001ab0
       23135000	      2312	00000000	00000013	addi	x0,x0,0	  x0:0x00000000
       23145000	      2313	80001ac8	00000013	addi	x0,x0,0	  x0:0x00000000
       23155000	      2314	80001acc	ff9ff6ef	jal	x13,80001acc	 x13=0x80001acc
       23165000	      2315	00000000	00000013	addi	x0,x0,0	  x0:0x00000000
       23175000	      2316	80001ac0	00000013	addi	x0,x0,0	  x0:0x00000000
       23185000	      2317	80001ac4	fe9ff9ef	jal	x19,80001ac4	 x19=0x80001ac4
       23195000	      2318	00000000	00000013	addi	x0,x0,0	  x0:0x00000000
       23205000	      2319	80001aa8	00000013	addi	x0,x0,0	  x0:0x00000000
       23215000	      2320	80001aac	038000ef	jal	x1,80001aac	  x1=0x80001aac
       23225000	      2321	00000000	00000013	addi	x0,x0,0	  x0:0x00000000
       23235000	      2322	80001ae0	00000013	addi	x0,x0,0	  x0:0x00000000
       23245000	      2323	80001ae4	ffdff36f	jal	x6,80001ae4	  x6=0x80001ae4
       23255000	      2324	00000000	00000013	addi	x0,x0,0	  x0:0x00000000
       23265000	      2325	80001adc	00000013	addi	x0,x0,0	  x0:0x00000000
       23275000	      2326	80001ae0	fc5ff36f	jal	x6,80001ae0	  x6=0x80001ae0
       23285000	      2327	00000000	00000013	addi	x0,x0,0	  x0:0x00000000
       23295000	      2328	80001aa0	00000013	addi	x0,x0,0	  x0:0x00000000
       23305000	      2329	80001aa4	0300036f	jal	x6,80001aa4	  x6=0x80001aa4
       23315000	      2330	00000000	00000013	addi	x0,x0,0	  x0:0x00000000
       23325000	      2331	80001ad0	00000013	addi	x0,x0,0	  x0:0x00000000
       23335000	      2332	80001ad4	0080016f	jal	x2,80001ad4	  x2=0x80001ad4
       23345000	      2333	00000000	00000013	addi	x0,x0,0	  x0:0x00000000
       23355000	      2334	80001ad8	00000013	addi	x0,x0,0	  x0:0x00000000
       23365000	      2335	80001adc	fddff0ef	jal	x1,80001adc	  x1=0x80001adc
       23375000	      2336	00000000	00000013	addi	x0,x0,0	  x0:0x00000000
       23385000	      2337	80001ab4	00000013	addi	x0,x0,0	  x0:0x00000000
       23395000	      2338	80001ab8	ffdff0ef	jal	x1,80001ab8	  x1=0x80001ab8
       23405000	      2339	00000000	00000013	addi	x0,x0,0	  x0:0x00000000
       23415000	      2340	80001ab0	00000013	addi	x0,x0,0	  x0:0x00000000
       23425000	      2341	80001ab4	0140036f	jal	x6,80001ab4	  x6=0x80001ab4
       23435000	      2342	00000000	00000013	addi	x0,x0,0	  x0:0x00000000
       23445000	      2343	80001ac4	00000013	addi	x0,x0,0	  x0:0x00000000
       23455000	      2344	80001ac8	024000ef	jal	x1,80001ac8	  x1=0x80001ac8
       23465000	      2345	00000000	00000013	addi	x0,x0,0	  x0:0x00000000
       23475000	      2346	80001ae8	00000013	addi	x0,x0,0	  x0:0x00000000
       23485000	      2347	80001aec	00c000ef	jal	x1,80001aec	  x1=0x80001aec
       23495000	      2348	00000000	00000013	addi	x0,x0,0	  x0:0x00000000
       23505000	      2349	80001af4	00000013	addi	x0,x0,0	  x0:0x00000000
       23515000	      2350	80001af8	fc9ff0ef	jal	x1,80001af8	  x1=0x80001af8
       23525000	      2351	00000000	00000013	addi	x0,x0,0	  x0:0x00000000
       23535000	      2352	80001abc	00000013	addi	x0,x0,0	  x0:0x00000000
       23545000	      2353	80001ac0	018004ef	jal	x9,80001ac0	  x9=0x80001ac0
       23555000	      2354	00000000	00000013	addi	x0,x0,0	  x0:0x00000000
       23565000	      2355	80001ad4	00000013	addi	x0,x0,0	  x0:0x00000000
       23575000	      2356	80001ad8	028000ef	jal	x1,80001ad8	  x1=0x80001ad8
       23585000	      2357	00000000	00000013	addi	x0,x0,0	  x0:0x00000000
       23595000	      2358	80001afc	00000013	addi	x0,x0,0	  x0:0x00000000
       23605000	      2359	80001b00	fbdff0ef	jal	x1,80001b00	  x1=0x80001b00
       23615000	      2360	00000000	00000013	addi	x0,x0,0	  x0:0x00000000
       23625000	      2361	80001ab8	00000013	addi	x0,x0,0	  x0:0x00000000
       23635000	      2362	80001abc	0400056f	jal	x10,80001abc	 x10=0x80001abc
       23645000	      2363	00000000	00000013	addi	x0,x0,0	  x0:0x00000000
       23655000	      2364	80001af8	00000013	addi	x0,x0,0	  x0:0x00000000
       23665000	      2365	80001afc	ff9ff0ef	jal	x1,80001afc	  x1=0x80001afc
       23675000	      2366	00000000	00000013	addi	x0,x0,0	  x0:0x00000000
       23685000	      2367	80001af0	00000013	addi	x0,x0,0	  x0:0x00000000
       23695000	      2368	80001af4	014000ef	jal	x1,80001af4	  x1=0x80001af4
       23705000	      2369	00000000	00000013	addi	x0,x0,0	  x0:0x00000000
       23715000	      2370	80001b04	00000013	addi	x0,x0,0	  x0:0x00000000
       23725000	      2371	80001b08	fc9ff0ef	jal	x1,80001b08	  x1=0x80001b08
       23735000	      2372	00000000	00000013	addi	x0,x0,0	  x0:0x00000000
       23745000	      2373	80001acc	00000013	addi	x0,x0,0	  x0:0x00000000
       23755000	      2374	80001ad0	03c000ef	jal	x1,80001ad0	  x1=0x80001ad0
       23765000	      2375	00000000	00000013	addi	x0,x0,0	  x0:0x00000000
       23775000	      2376	80001b08	00000013	addi	x0,x0,0	  x0:0x00000000
       23785000	      2377	80001b0c	004000ef	jal	x1,80001b0c	  x1=0x80001b0c
       23795000	      2378	00000000	00000013	addi	x0,x0,0	  x0:0x00000000
       23805000	      2379	80001b0c	00000013	addi	x0,x0,0	  x0:0x00000000
       23815000	      2380	80001b10	5bebcc93	xori	x25,x23,1470	 x23:0xc07b7000 x25=0xc07b75be
       23825000	      2381	80001b14	018000ef	jal	x1,80001b14	  x1=0x80001b14
       23835000	      2382	00000000	00000013	addi	x0,x0,0	  x0:0x00000000
       23845000	      2383	80001b28	00000013	addi	x0,x0,0	  x0:0x00000000
       23855000	      2384	80001b2c	00c005ef	jal	x11,80001b2c	 x11=0x80001b2c
       23865000	      2385	00000000	00000013	addi	x0,x0,0	  x0:0x00000000
       23875000	      2386	80001b34	00000013	addi	x0,x0,0	  x0:0x00000000
       23885000	      2387	80001b38	00c000ef	jal	x1,80001b38	  x1=0x80001b38
       23895000	      2388	00000000	00000013	addi	x0,x0,0	  x0:0x00000000
       23905000	      2389	80001b40	00000013	addi	x0,x0,0	  x0:0x00000000
       23915000	      2390	80001b44	0080016f	jal	x2,80001b44	  x2=0x80001b44
       23925000	      2391	00000000	00000013	addi	x0,x0,0	  x0:0x00000000
       23935000	      2392	80001b48	00000013	addi	x0,x0,0	  x0:0x00000000
       23945000	      2393	80001b4c	fe9ff0ef	jal	x1,80001b4c	  x1=0x80001b4c
       23955000	      2394	00000000	00000013	addi	x0,x0,0	  x0:0x00000000
       23965000	      2395	80001b30	00000013	addi	x0,x0,0	  x0:0x00000000
       23975000	      2396	80001b34	00c0036f	jal	x6,80001b34	  x6=0x80001b34
       23985000	      2397	00000000	00000013	addi	x0,x0,0	  x0:0x00000000
       23995000	      2398	80001b3c	00000013	addi	x0,x0,0	  x0:0x00000000
       24005000	      2399	80001b40	fd9ff36f	jal	x6,80001b40	  x6=0x80001b40
       24015000	      2400	00000000	00000013	addi	x0,x0,0	  x0:0x00000000
       24025000	      2401	80001b14	00000013	addi	x0,x0,0	  x0:0x00000000
       24035000	      2402	80001b18	0180036f	jal	x6,80001b18	  x6=0x80001b18
       24045000	      2403	00000000	00000013	addi	x0,x0,0	  x0:0x00000000
       24055000	      2404	80001b2c	00000013	addi	x0,x0,0	  x0:0x00000000
       24065000	      2405	80001b30	ff5ff0ef	jal	x1,80001b30	  x1=0x80001b30
       24075000	      2406	00000000	00000013	addi	x0,x0,0	  x0:0x00000000
       24085000	      2407	80001b20	00000013	addi	x0,x0,0	  x0:0x00000000
       24095000	      2408	80001b24	ff9ff66f	jal	x12,80001b24	 x12=0x80001b24
       24105000	      2409	00000000	00000013	addi	x0,x0,0	  x0:0x00000000
       24115000	      2410	80001b18	00000013	addi	x0,x0,0	  x0:0x00000000
       24125000	      2411	80001b1c	02c000ef	jal	x1,80001b1c	  x1=0x80001b1c
       24135000	      2412	00000000	00000013	addi	x0,x0,0	  x0:0x00000000
       24145000	      2413	80001b44	00000013	addi	x0,x0,0	  x0:0x00000000
       24155000	      2414	80001b48	fe1ff0ef	jal	x1,80001b48	  x1=0x80001b48
       24165000	      2415	00000000	00000013	addi	x0,x0,0	  x0:0x00000000
       24175000	      2416	80001b24	00000013	addi	x0,x0,0	  x0:0x00000000
       24185000	      2417	80001b28	ff9ff0ef	jal	x1,80001b28	  x1=0x80001b28
       24195000	      2418	00000000	00000013	addi	x0,x0,0	  x0:0x00000000
       24205000	      2419	80001b1c	00000013	addi	x0,x0,0	  x0:0x00000000
       24215000	      2420	80001b20	01c0036f	jal	x6,80001b20	  x6=0x80001b20
       24225000	      2421	00000000	00000013	addi	x0,x0,0	  x0:0x00000000
       24235000	      2422	80001b38	00000013	addi	x0,x0,0	  x0:0x00000000
       24245000	      2423	80001b3c	0140016f	jal	x2,80001b3c	  x2=0x80001b3c
       24255000	      2424	00000000	00000013	addi	x0,x0,0	  x0:0x00000000
       24265000	      2425	80001b4c	00000013	addi	x0,x0,0	  x0:0x00000000
       24275000	      2426	80001b50	018a5313	srli	x6,x20,0x18	 x20:0x80001924  x6=0x00000080
       24285000	      2427	80001b54	00d72133	slt	x2,x14,x13	 x14:0x80001a94 x13:0x80001acc  x2=0x00000001
       24295000	      2428	80001b58	008ac5b3	xor	x11,x21,x8	 x21:0x8000190c  x8:0x80001a6c x11=0x00000360
       24305000	      2429	80001b5c	c4382193	slti	x3,x16,-957	 x16:0x800018fc  x3=0x00000001
       24315000	      2430	80001b60	0053a833	slt	x16,x7,x5	  x7:0x80001ae8  x5:0x00000000 x16=0x00000001
       24325000	      2431	80001b64	41815693	srai	x13,x2,0x18	  x2:0x00000001 x13=0x00000000
       24335000	      2432	80001b68	2bdccd13	xori	x26,x25,701	 x25:0xc07b75be x26=0xc07b7703
       24345000	      2433	80001b6c	1fb5cc13	xori	x24,x11,507	 x11:0x00000360 x24=0x0000029b
       24355000	      2434	80001b70	005fe5b3	or	x11,x31,x5	 x31:0x80001970  x5:0x00000000 x11=0x80001970
       24365000	      2435	80001b74	0294da63	bge	x9,x9,80001ba8	  x9:0x80001ac0  x9:0x80001ac0
       24375000	      2436	00000000	00000013	addi	x0,x0,0	  x0:0x00000000
       24385000	      2437	80001ba4	00000013	addi	x0,x0,0	  x0:0x00000000
       24395000	      2438	80001ba8	00b7de93	srli	x29,x15,0xb	 x15:0x0080009f x29=0x00001000
       24405000	      2439	80001bac	353b3393	sltiu	x7,x22,851	 x22:0x00000001  x7=0x00000001
       24415000	      2440	80001bb0	053c6863	bltu	x24,x19,80001c00	 x24:0x0000029b x19:0x80001ac4
       24425000	      2441	00000000	00000013	addi	x0,x0,0	  x0:0x00000000
       24435000	      2442	80001bfc	00000013	addi	x0,x0,0	  x0:0x00000000
       24445000	      2443	80001c00	0063feb3	and	x29,x7,x6	  x7:0x00000001  x6:0x00000080 x29=0x00000000
       24455000	      2444	80001c04	00000013	addi	x0,x0,0	  x0:0x00000000
       24465000	      2445	80001c08	f266af93	slti	x31,x13,-218	 x13:0x00000000 x31=0x00000000
       24475000	      2446	80001c0c	01955463	bge	x10,x25,80001c14	 x10:0x80001abc x25:0xc07b75be
       24485000	      2447	80001c10	001c4eb3	xor	x29,x24,x1	 x24:0x0000029b  x1:0x80001b28 x29=0x800019b3
       24495000	      2448	80001c14	a75fad13	slti	x26,x31,-1419	 x31:0x00000000 x26=0x00000000
       24505000	      2449	80001c18	6dbffc13	andi	x24,x31,1755	 x31:0x00000000 x24=0x00000000
       24515000	      2450	80001c1c	d228d9b7	lui	x19,0xd228d	 x19=0xd228d000
       24525000	      2451	80001c20	009a77b3	and	x15,x20,x9	 x20:0x80001924  x9:0x80001ac0 x15=0x80001800
       24535000	      2452	80001c24	0049dd13	srli	x26,x19,0x4	 x19:0xd228d000 x26=0x0d228d00
       24545000	      2453	80001c28	357b9c17	auipc	x24,0x357b9	 x24=0xb57bac24
       24555000	      2454	80001c2c	a1606bb7	lui	x23,0xa1606	 x23=0xa1606000
       24565000	      2455	80001c30	00c33433	sltu	x8,x6,x12	  x6:0x00000080 x12:0x80001b24  x8=0x00000001
       24575000	      2456	80001c34	015a1513	slli	x10,x20,0x15	 x20:0x80001924 x10=0x24800000
       24585000	      2457	80001c38	06f3b913	sltiu	x18,x7,111	  x7:0x00000001 x18=0x00000001
       24595000	      2458	80001c3c	40bede33	sra	x28,x29,x11	 x29:0x800019b3 x11:0x80001970 x28=0xffff8000
       24605000	      2459	80001c40	01d9ac33	slt	x24,x19,x29	 x19:0xd228d000 x29:0x800019b3 x24=0x00000000
       24615000	      2460	80001c44	00d09e93	slli	x29,x1,0xd	  x1:0x80001b28 x29=0x03650000
       24625000	      2461	80001c48	0124d3b3	srl	x7,x9,x18	  x9:0x80001ac0 x18:0x00000001  x7=0x40000d60
       24635000	      2462	80001c4c	0563f463	bgeu	x7,x22,80001c94	  x7:0x40000d60 x22:0x00000001
       24645000	      2463	00000000	00000013	addi	x0,x0,0	  x0:0x00000000
       24655000	      2464	80001c90	00000013	addi	x0,x0,0	  x0:0x00000000
       24665000	      2465	80001c94	410859b3	sra	x19,x16,x16	 x16:0x00000001 x16:0x00000001 x19=0x00000000
       24675000	      2466	80001c98	40f4d193	srai	x3,x9,0xf	  x9:0x80001ac0  x3=0xffff0000
       24685000	      2467	80001c9c	01054333	xor	x6,x10,x16	 x10:0x24800000 x16:0x00000001  x6=0x24800001
       24695000	      2468	80001ca0	40f6dbb3	sra	x23,x13,x15	 x13:0x00000000 x15:0x80001800 x23=0x00000000
       24705000	      2469	80001ca4	70c94a13	xori	x20,x18,1804	 x18:0x00000001 x20=0x0000070d
       24715000	      2470	80001ca8	00000013	addi	x0,x0,0	  x0:0x00000000
       24725000	      2471	80001cac	5a2e9717	auipc	x14,0x5a2e9	 x14=0xda2eaca8
       24735000	      2472	80001cb0	d4fca117	auipc	x2,0xd4fca	  x2=0x54fcbcac
       24745000	      2473	80001cb4	0085f633	and	x12,x11,x8	 x11:0x80001970  x8:0x00000001 x12=0x00000000
       24755000	      2474	80001cb8	05d74263	blt	x14,x29,80001cfc	 x14:0xda2eaca8 x29:0x03650000
       24765000	      2475	00000000	00000013	addi	x0,x0,0	  x0:0x00000000
       24775000	      2476	80001cf8	00000013	addi	x0,x0,0	  x0:0x00000000
       24785000	      2477	80001cfc	01afc8b3	xor	x17,x31,x26	 x31:0x00000000 x26:0x0d228d00 x17=0x0d228d00
       24795000	      2478	80001d00	a5928193	addi	x3,x5,-1447	  x5:0x00000000  x3=0xfffffa59
       24805000	      2479	80001d04	00ccb833	sltu	x16,x25,x12	 x25:0xc07b75be x12:0x00000000 x16=0x00000000
       24815000	      2480	80001d08	08d68693	addi	x13,x13,141	 x13:0x00000000 x13=0x0000008d
       24825000	      2481	80001d0c	4100da33	sra	x20,x1,x16	  x1:0x80001b28 x16:0x00000000 x20=0x80001b28
       24835000	      2482	80001d10	d4222713	slti	x14,x4,-702	  x4:0x80009ef4 x14=0x00000001
       24845000	      2483	80001d14	02d10a63	beq	x2,x13,80001d48	  x2:0x54fcbcac x13:0x0000008d
       24855000	      2484	80001d18	057e0863	beq	x28,x23,80001d68	 x28:0xffff8000 x23:0x00000000
       24865000	      2485	80001d1c	009d71b3	and	x3,x26,x9	 x26:0x0d228d00  x9:0x80001ac0  x3=0x00000800
       24875000	      2486	80001d20	bd762db7	lui	x27,0xbd762	 x27=0xbd762000
       24885000	      2487	80001d24	01939693	slli	x13,x7,0x19	  x7:0x40000d60 x13=0xc0000000
       24895000	      2488	80001d28	00599863	bne	x19,x5,80001d38	 x19:0x00000000  x5:0x00000000
       24905000	      2489	80001d2c	34f1f093	andi	x1,x3,847	  x3:0x00000800  x1=0x00000000
       24915000	      2490	80001d30	0444f863	bgeu	x9,x4,80001d80	  x9:0x80001ac0  x4:0x80009ef4
       24925000	      2491	80001d34	5633f837	lui	x16,0x5633f	 x16=0x5633f000
       24935000	      2492	80001d38	0061dd13	srli	x26,x3,0x6	  x3:0x00000800 x26=0x00000020
       24945000	      2493	80001d3c	00f3fb33	and	x22,x7,x15	  x7:0x40000d60 x15:0x80001800 x22=0x00000800
       24955000	      2494	80001d40	0066e833	or	x16,x13,x6	 x13:0xc0000000  x6:0x24800001 x16=0xe4800001
       24965000	      2495	80001d44	011b9d13	slli	x26,x23,0x11	 x23:0x00000000 x26=0x00000000
       24975000	      2496	80001d48	00273fb3	sltu	x31,x14,x2	 x14:0x00000001  x2:0x54fcbcac x31=0x00000001
       24985000	      2497	80001d4c	55968013	addi	x0,x13,1369	 x13:0xc0000000
       24995000	      2498	80001d50	04c97063	bgeu	x18,x12,80001d90	 x18:0x00000001 x12:0x00000000
       25005000	      2499	00000000	00000013	addi	x0,x0,0	  x0:0x00000000
       25015000	      2500	80001d8c	00000013	addi	x0,x0,0	  x0:0x00000000
       25025000	      2501	80001d90	0122b1b3	sltu	x3,x5,x18	  x5:0x00000000 x18:0x00000001  x3=0x00000001
       25035000	      2502	80001d94	57fd6c13	ori	x24,x26,1407	 x26:0x00000000 x24=0x0000057f
       25045000	      2503	80001d98	608b6d93	ori	x27,x22,1544	 x22:0x00000800 x27=0x00000e08
       25055000	      2504	80001d9c	2b6cca13	xori	x20,x25,694	 x25:0xc07b75be x20=0xc07b7708
       25065000	      2505	80001da0	00cd5b93	srli	x23,x26,0xc	 x26:0x00000000 x23=0x00000000
       25075000	      2506	80001da4	aa0f7393	andi	x7,x30,-1376	 x30:0x80009fc4  x7=0x80009a80
       25085000	      2507	80001da8	152e8913	addi	x18,x29,338	 x29:0x03650000 x18=0x03650152
       25095000	      2508	80001dac	01ef8663	beq	x31,x30,80001db8	 x31:0x00000001 x30:0x80009fc4
       25105000	      2509	80001db0	ae6e8393	addi	x7,x29,-1306	 x29:0x03650000  x7=0x0364fae6
       25115000	      2510	80001db4	77c4ad93	slti	x27,x9,1916	  x9:0x80001ac0 x27=0x00000001
       25125000	      2511	80001db8	01a54933	xor	x18,x10,x26	 x10:0x24800000 x26:0x00000000 x18=0x24800000
       25135000	      2512	80001dbc	037a7c63	bgeu	x20,x23,80001df4	 x20:0xc07b7708 x23:0x00000000
       25145000	      2513	00000000	00000013	addi	x0,x0,0	  x0:0x00000000
       25155000	      2514	80001df0	00000013	addi	x0,x0,0	  x0:0x00000000
       25165000	      2515	80001df4	00000013	addi	x0,x0,0	  x0:0x00000000
       25175000	      2516	80001df8	018ce933	or	x18,x25,x24	 x25:0xc07b75be x24:0x0000057f x18=0xc07b75ff
       25185000	      2517	80001dfc	052e4263	blt	x28,x18,80001e40	 x28:0xffff8000 x18:0xc07b75ff
       25195000	      2518	80001e00	bd3efb13	andi	x22,x29,-1069	 x29:0x03650000 x22=0x03650000
       25205000	      2519	80001e04	a4e5c897	auipc	x17,0xa4e5c	 x17=0x24e5de00
       25215000	      2520	80001e08	00c77cb3	and	x25,x14,x12	 x14:0x00000001 x12:0x00000000 x25=0x00000000
       25225000	      2521	80001e0c	555e7037	lui	x0,0x555e7	
       25235000	      2522	80001e10	01024663	blt	x4,x16,80001e1c	  x4:0x80009ef4 x16:0xe4800001
       25245000	      2523	00000000	00000013	addi	x0,x0,0	  x0:0x00000000
       25255000	      2524	80001e18	00000013	addi	x0,x0,0	  x0:0x00000000
       25265000	      2525	80001e1c	c123fa13	andi	x20,x7,-1006	  x7:0x0364fae6 x20=0x0364f802
       25275000	      2526	80001e20	0036d593	srli	x11,x13,0x3	 x13:0xc0000000 x11=0x18000000
       25285000	      2527	80001e24	7db60597	auipc	x11,0x7db60	 x11=0xfdb61e20
       25295000	      2528	80001e28	036e8a63	beq	x29,x22,80001e5c	 x29:0x03650000 x22:0x03650000
       25305000	      2529	00000000	00000013	addi	x0,x0,0	  x0:0x00000000
       25315000	      2530	80001e58	00000013	addi	x0,x0,0	  x0:0x00000000
       25325000	      2531	80001e5c	b20d8d13	addi	x26,x27,-1248	 x27:0x00000001 x26=0xfffffb21
       25335000	      2532	80001e60	019ff5b3	and	x11,x31,x25	 x31:0x00000001 x25:0x00000000 x11=0x00000000
       25345000	      2533	80001e64	0568f863	bgeu	x17,x22,80001eb4	 x17:0x24e5de00 x22:0x03650000
       25355000	      2534	00000000	00000013	addi	x0,x0,0	  x0:0x00000000
       25365000	      2535	80001eb0	00000013	addi	x0,x0,0	  x0:0x00000000
       25375000	      2536	80001eb4	00809793	slli	x15,x1,0x8	  x1:0x00000000 x15=0x00000000
       25385000	      2537	80001eb8	00befbb3	and	x23,x29,x11	 x29:0x03650000 x11:0x00000000 x23=0x00000000
       25395000	      2538	80001ebc	00535433	srl	x8,x6,x5	  x6:0x24800001  x5:0x00000000  x8=0x24800001
       25405000	      2539	80001ec0	85784c13	xori	x24,x16,-1961	 x16:0xe4800001 x24=0x1b7ff856
       25415000	      2540	80001ec4	40a1d333	sra	x6,x3,x10	  x3:0x00000001 x10:0x24800000  x6=0x00000001
       25425000	      2541	80001ec8	f93ff737	lui	x14,0xf93ff	 x14=0xf93ff000
       25435000	      2542	80001ecc	00334c63	blt	x6,x3,80001ee4	  x6:0x00000001  x3:0x00000001
       25445000	      2543	80001ed0	00ca7893	andi	x17,x20,12	 x20:0x0364f802 x17=0x00000000
       25455000	      2544	80001ed4	01f95a63	bge	x18,x31,80001ee8	 x18:0xc07b75ff x31:0x00000001
       25465000	      2545	80001ed8	e4b33b93	sltiu	x23,x6,-437	  x6:0x00000001 x23=0x00000001
       25475000	      2546	80001edc	01f6ec33	or	x24,x13,x31	 x13:0xc0000000 x31:0x00000001 x24=0xc0000001
       25485000	      2547	80001ee0	0102beb3	sltu	x29,x5,x16	  x5:0x00000000 x16:0xe4800001 x29=0x00000001
       25495000	      2548	80001ee4	e7395397	auipc	x7,0xe7395	  x7=0x67396ee0
       25505000	      2549	80001ee8	022a0c63	beq	x20,x2,80001f20	 x20:0x0364f802  x2:0x54fcbcac
       25515000	      2550	80001eec	41b45893	srai	x17,x8,0x1b	  x8:0x24800001 x17=0x00000004
       25525000	      2551	80001ef0	01fe1e63	bne	x28,x31,80001f0c	 x28:0xffff8000 x31:0x00000001
       25535000	      2552	00000000	00000013	addi	x0,x0,0	  x0:0x00000000
       25545000	      2553	80001f08	00000013	addi	x0,x0,0	  x0:0x00000000
       25555000	      2554	80001f0c	00000013	addi	x0,x0,0	  x0:0x00000000
       25565000	      2555	80001f10	4c6eea13	ori	x20,x29,1222	 x29:0x00000001 x20=0x000004c7
       25575000	      2556	80001f14	002435b3	sltu	x11,x8,x2	  x8:0x24800001  x2:0x54fcbcac x11=0x00000001
       25585000	      2557	80001f18	00df4a63	blt	x30,x13,80001f2c	 x30:0x80009fc4 x13:0xc0000000
       25595000	      2558	00000000	00000013	addi	x0,x0,0	  x0:0x00000000
       25605000	      2559	80001f28	00000013	addi	x0,x0,0	  x0:0x00000000
       25615000	      2560	80001f2c	008b5263	bge	x22,x8,80001f30	 x22:0x03650000  x8:0x24800001
       25625000	      2561	80001f30	408d53b3	sra	x7,x26,x8	 x26:0xfffffb21  x8:0x24800001  x7=0xfffffd90
       25635000	      2562	80001f34	40d4d933	sra	x18,x9,x13	  x9:0x80001ac0 x13:0xc0000000 x18=0x80001ac0
       25645000	      2563	80001f38	00942e33	slt	x28,x8,x9	  x8:0x24800001  x9:0x80001ac0 x28=0x00000000
       25655000	      2564	80001f3c	004b7db3	and	x27,x22,x4	 x22:0x03650000  x4:0x80009ef4 x27=0x00000000
       25665000	      2565	80001f40	234afd13	andi	x26,x21,564	 x21:0x8000190c x26=0x00000004
       25675000	      2566	80001f44	01c37463	bgeu	x6,x28,80001f4c	  x6:0x00000001 x28:0x00000000
       25685000	      2567	00000000	00000013	addi	x0,x0,0	  x0:0x00000000
       25695000	      2568	80001f48	00000013	addi	x0,x0,0	  x0:0x00000000
       25705000	      2569	80001f4c	018db333	sltu	x6,x27,x24	 x27:0x00000000 x24:0xc0000001  x6=0x00000001
       25715000	      2570	80001f50	50347a93	andi	x21,x8,1283	  x8:0x24800001 x21=0x00000001
       25725000	      2571	80001f54	013a5663	bge	x20,x19,80001f60	 x20:0x000004c7 x19:0x00000000
       25735000	      2572	00000000	00000013	addi	x0,x0,0	  x0:0x00000000
       25745000	      2573	80001f5c	00000013	addi	x0,x0,0	  x0:0x00000000
       25755000	      2574	80001f60	00f496b7	lui	x13,0xf49	 x13=0x00f49000
       25765000	      2575	80001f64	00a0d6b3	srl	x13,x1,x10	  x1:0x00000000 x10:0x24800000 x13=0x00000000
       25775000	      2576	80001f68	0007c833	xor	x16,x15,x0	 x15:0x00000000  x0:0x00000000 x16=0x00000000
       25785000	      2577	80001f6c	818dd537	lui	x10,0x818dd	 x10=0x818dd000
       25795000	      2578	80001f70	415b0013	addi	x0,x22,1045	 x22:0x03650000
       25805000	      2579	80001f74	cec40913	addi	x18,x8,-788	  x8:0x24800001 x18=0x247ffced
       25815000	      2580	80001f78	01ac1b33	sll	x22,x24,x26	 x24:0xc0000001 x26:0x00000004 x22=0x00000010
       25825000	      2581	80001f7c	02346a63	bltu	x8,x3,80001fb0	  x8:0x24800001  x3:0x00000001
       25835000	      2582	80001f80	01623033	sltu	x0,x4,x22	  x4:0x80009ef4 x22:0x00000010
       25845000	      2583	80001f84	94c13193	sltiu	x3,x2,-1716	  x2:0x54fcbcac  x3=0x00000001
       25855000	      2584	80001f88	01be1c63	bne	x28,x27,80001fa0	 x28:0x00000000 x27:0x00000000
       25865000	      2585	80001f8c	00885693	srli	x13,x16,0x8	 x16:0x00000000 x13=0x00000000
       25875000	      2586	80001f90	011ceb33	or	x22,x25,x17	 x25:0x00000000 x17:0x00000004 x22=0x00000004
       25885000	      2587	80001f94	012f0a33	add	x20,x30,x18	 x30:0x80009fc4 x18:0x247ffced x20=0xa4809cb1
       25895000	      2588	80001f98	c83b3513	sltiu	x10,x22,-893	 x22:0x00000004 x10=0x00000001
       25905000	      2589	80001f9c	3e44bd17	auipc	x26,0x3e44b	 x26=0xbe44cf98
       25915000	      2590	80001fa0	db0be097	auipc	x1,0xdb0be	  x1=0x5b0bff9c
       25925000	      2591	80001fa4	334d6093	ori	x1,x26,820	 x26:0xbe44cf98  x1=0xbe44cfbc
       25935000	      2592	80001fa8	04586463	bltu	x16,x5,80001ff0	 x16:0x00000000  x5:0x00000000
       25945000	      2593	80001fac	018bd133	srl	x2,x23,x24	 x23:0x00000001 x24:0xc0000001  x2=0x00000000
       25955000	      2594	80001fb0	01080c63	beq	x16,x16,80001fc8	 x16:0x00000000 x16:0x00000000
       25965000	      2595	00000000	00000013	addi	x0,x0,0	  x0:0x00000000
       25975000	      2596	80001fc4	00000013	addi	x0,x0,0	  x0:0x00000000
       25985000	      2597	80001fc8	01c10133	add	x2,x2,x28	  x2:0x00000000 x28:0x00000000  x2=0x00000000
       25995000	      2598	80001fcc	0897b937	lui	x18,0x897b	 x18=0x0897b000
       26005000	      2599	80001fd0	7df87e93	andi	x29,x16,2015	 x16:0x00000000 x29=0x00000000
       26015000	      2600	80001fd4	b670a513	slti	x10,x1,-1177	  x1:0xbe44cfbc x10=0x00000001
       26025000	      2601	80001fd8	415bf393	andi	x7,x23,1045	 x23:0x00000001  x7=0x00000001
       26035000	      2602	80001fdc	412954b3	sra	x9,x18,x18	 x18:0x0897b000 x18:0x0897b000  x9=0x0897b000
       26045000	      2603	80001fe0	6ffbf793	andi	x15,x23,1791	 x23:0x00000001 x15=0x00000001
       26055000	      2604	80001fe4	01f0e0b3	or	x1,x1,x31	  x1:0xbe44cfbc x31:0x00000001  x1=0xbe44cfbd
       26065000	      2605	80001fe8	e806ba13	sltiu	x20,x13,-384	 x13:0x00000000 x20=0x00000001
       26075000	      2606	80001fec	f008d6b7	lui	x13,0xf008d	 x13=0xf008d000
       26085000	      2607	80001ff0	24843313	sltiu	x6,x8,584	  x8:0x24800001  x6=0x00000000
       26095000	      2608	80001ff4	01cd1cb3	sll	x25,x26,x28	 x26:0xbe44cf98 x28:0x00000000 x25=0xbe44cf98
       26105000	      2609	80001ff8	019511b3	sll	x3,x10,x25	 x10:0x00000001 x25:0xbe44cf98  x3=0x01000000
       26115000	      2610	80001ffc	a46a8493	addi	x9,x21,-1466	 x21:0x00000001  x9=0xfffffa47
       26125000	      2611	80002000	01c7f133	and	x2,x15,x28	 x15:0x00000001 x28:0x00000000  x2=0x00000000
       26135000	      2612	80002004	01d101b3	add	x3,x2,x29	  x2:0x00000000 x29:0x00000000  x3=0x00000000
       26145000	      2613	80002008	afb10d93	addi	x27,x2,-1285	  x2:0x00000000 x27=0xfffffafb
       26155000	      2614	8000200c	05dd6863	bltu	x26,x29,8000205c	 x26:0xbe44cf98 x29:0x00000000
       26165000	      2615	80002010	00aad893	srli	x17,x21,0xa	 x21:0x00000001 x17=0x00000000
       26175000	      2616	80002014	40010cb3	sub	x25,x2,x0	  x2:0x00000000  x0:0x00000000 x25=0x00000000
       26185000	      2617	80002018	034bda63	bge	x23,x20,8000204c	 x23:0x00000001 x20:0x00000001
       26195000	      2618	00000000	00000013	addi	x0,x0,0	  x0:0x00000000
       26205000	      2619	80002048	00000013	addi	x0,x0,0	  x0:0x00000000
       26215000	      2620	8000204c	04984063	blt	x16,x9,8000208c	 x16:0x00000000  x9:0xfffffa47
       26225000	      2621	80002050	41bfd893	srai	x17,x31,0x1b	 x31:0x00000001 x17=0x00000000
       26235000	      2622	80002054	8f02e497	auipc	x9,0x8f02e	  x9=0x0f030050
       26245000	      2623	80002058	410a89b3	sub	x19,x21,x16	 x21:0x00000001 x16:0x00000000 x19=0x00000001
       26255000	      2624	8000205c	0105e263	bltu	x11,x16,80002060	 x11:0x00000001 x16:0x00000000
       26265000	      2625	80002060	01f01633	sll	x12,x0,x31	  x0:0x00000000 x31:0x00000001 x12=0x00000000
       26275000	      2626	80002064	019ada93	srli	x21,x21,0x19	 x21:0x00000001 x21=0x00000000
       26285000	      2627	80002068	018f5db3	srl	x27,x30,x24	 x30:0x80009fc4 x24:0xc0000001 x27=0x40004fe2
       26295000	      2628	8000206c	01418eb3	add	x29,x3,x20	  x3:0x00000000 x20:0x00000001 x29=0x00000001
       26305000	      2629	80002070	41f55a33	sra	x20,x10,x31	 x10:0x00000001 x31:0x00000001 x20=0x00000000
       26315000	      2630	80002074	02de8c63	beq	x29,x13,800020ac	 x29:0x00000001 x13:0xf008d000
       26325000	      2631	80002078	8bce8a93	addi	x21,x29,-1860	 x29:0x00000001 x21=0xfffff8bd
       26335000	      2632	8000207c	00461663	bne	x12,x4,80002088	 x12:0x00000000  x4:0x80009ef4
       26345000	      2633	00000000	00000013	addi	x0,x0,0	  x0:0x00000000
       26355000	      2634	80002084	00000013	addi	x0,x0,0	  x0:0x00000000
       26365000	      2635	80002088	40068133	sub	x2,x13,x0	 x13:0xf008d000  x0:0x00000000  x2=0xf008d000
       26375000	      2636	8000208c	4162d1b3	sra	x3,x5,x22	  x5:0x00000000 x22:0x00000004  x3=0x00000000
       26385000	      2637	80002090	01d19a63	bne	x3,x29,800020a4	  x3:0x00000000 x29:0x00000001
       26395000	      2638	00000000	00000013	addi	x0,x0,0	  x0:0x00000000
       26405000	      2639	800020a0	00000013	addi	x0,x0,0	  x0:0x00000000
       26415000	      2640	800020a4	e8526d13	ori	x26,x4,-379	  x4:0x80009ef4 x26=0xfffffef5
       26425000	      2641	800020a8	418bd113	srai	x2,x23,0x18	 x23:0x00000001  x2=0x00000000
       26435000	      2642	800020ac	033bc063	blt	x23,x19,800020cc	 x23:0x00000001 x19:0x00000001
       26445000	      2643	800020b0	02057c63	bgeu	x10,x0,800020e8	 x10:0x00000001  x0:0x00000000
       26455000	      2644	00000000	00000013	addi	x0,x0,0	  x0:0x00000000
       26465000	      2645	800020e4	00000013	addi	x0,x0,0	  x0:0x00000000
       26475000	      2646	800020e8	01e67e63	bgeu	x12,x30,80002104	 x12:0x00000000 x30:0x80009fc4
       26485000	      2647	800020ec	01d8bcb3	sltu	x25,x17,x29	 x17:0x00000000 x29:0x00000001 x25=0x00000001
       26495000	      2648	800020f0	0152f733	and	x14,x5,x21	  x5:0x00000000 x21:0xfffff8bd x14=0x00000000
       26505000	      2649	800020f4	00bbc8b3	xor	x17,x23,x11	 x23:0x00000001 x11:0x00000001 x17=0x00000000
       26515000	      2650	800020f8	016adc13	srli	x24,x21,0x16	 x21:0xfffff8bd x24=0x000003ff
       26525000	      2651	800020fc	00d585b3	add	x11,x11,x13	 x11:0x00000001 x13:0xf008d000 x11=0xf008d001
       26535000	      2652	80002100	08e4e117	auipc	x2,0x8e4e	  x2=0x88e500fc
       26545000	      2653	80002104	8eea4413	xori	x8,x20,-1810	 x20:0x00000000  x8=0xfffff8ee
       26555000	      2654	80002108	01645393	srli	x7,x8,0x16	  x8:0xfffff8ee  x7=0x000003ff
       26565000	      2655	8000210c	000f1f93	slli	x31,x30,0x0	 x30:0x80009fc4 x31=0x80009fc4
       26575000	      2656	80002110	000f9793	slli	x15,x31,0x0	 x31:0x80009fc4 x15=0x80009fc4
       26585000	      2657	80002114	003866b3	or	x13,x16,x3	 x16:0x00000000  x3:0x00000000 x13=0x00000000
       26595000	      2658	80002118	01233a33	sltu	x20,x6,x18	  x6:0x00000000 x18:0x0897b000 x20=0x00000001
       26605000	      2659	8000211c	0133c1b3	xor	x3,x7,x19	  x7:0x000003ff x19:0x00000001  x3=0x000003fe
       26615000	      2660	80002120	c51c6397	auipc	x7,0xc51c6	  x7=0x451c811c
       26625000	      2661	80002124	40d80133	sub	x2,x16,x13	 x16:0x00000000 x13:0x00000000  x2=0x00000000
       26635000	      2662	80002128	40dfdcb3	sra	x25,x31,x13	 x31:0x80009fc4 x13:0x00000000 x25=0x80009fc4
       26645000	      2663	8000212c	0193ecb3	or	x25,x7,x25	  x7:0x451c811c x25:0x80009fc4 x25=0xc51c9fdc
       26655000	      2664	80002130	019ec7b3	xor	x15,x29,x25	 x29:0x00000001 x25:0xc51c9fdc x15=0xc51c9fdd
       26665000	      2665	80002134	04d37463	bgeu	x6,x13,8000217c	  x6:0x00000000 x13:0x00000000
       26675000	      2666	00000000	00000013	addi	x0,x0,0	  x0:0x00000000
       26685000	      2667	80002178	00000013	addi	x0,x0,0	  x0:0x00000000
       26695000	      2668	8000217c	04e20863	beq	x4,x14,800021cc	  x4:0x80009ef4 x14:0x00000000
       26705000	      2669	80002180	bfae2913	slti	x18,x28,-1030	 x28:0x00000000 x18=0x00000000
       26715000	      2670	80002184	00d31c33	sll	x24,x6,x13	  x6:0x00000000 x13:0x00000000 x24=0x00000000
       26725000	      2671	80002188	05c91463	bne	x18,x28,800021d0	 x18:0x00000000 x28:0x00000000
       26735000	      2672	8000218c	c08feab7	lui	x21,0xc08fe	 x21=0xc08fe000
       26745000	      2673	80002190	05698863	beq	x19,x22,800021e0	 x19:0x00000001 x22:0x00000004
       26755000	      2674	80002194	404f0db3	sub	x27,x30,x4	 x30:0x80009fc4  x4:0x80009ef4 x27=0x000000d0
       26765000	      2675	80002198	0181f663	bgeu	x3,x24,800021a4	  x3:0x000003fe x24:0x00000000
       26775000	      2676	00000000	00000013	addi	x0,x0,0	  x0:0x00000000
       26785000	      2677	800021a0	00000013	addi	x0,x0,0	  x0:0x00000000
       26795000	      2678	800021a4	411254b3	sra	x9,x4,x17	  x4:0x80009ef4 x17:0x00000000  x9=0x80009ef4
       26805000	      2679	800021a8	03d9d063	bge	x19,x29,800021c8	 x19:0x00000001 x29:0x00000001
       26815000	      2680	00000000	00000013	addi	x0,x0,0	  x0:0x00000000
       26825000	      2681	800021c4	00000013	addi	x0,x0,0	  x0:0x00000000
       26835000	      2682	800021c8	22954b13	xori	x22,x10,553	 x10:0x00000001 x22=0x00000228
       26845000	      2683	800021cc	4554ca93	xori	x21,x9,1109	  x9:0x80009ef4 x21=0x80009aa1
       26855000	      2684	800021d0	00c5d863	bge	x11,x12,800021e0	 x11:0xf008d001 x12:0x00000000
       26865000	      2685	800021d4	00e28a63	beq	x5,x14,800021e8	  x5:0x00000000 x14:0x00000000
       26875000	      2686	00000000	00000013	addi	x0,x0,0	  x0:0x00000000
       26885000	      2687	800021e4	00000013	addi	x0,x0,0	  x0:0x00000000
       26895000	      2688	800021e8	f4c63b97	auipc	x23,0xf4c63	 x23=0x74c651e4
       26905000	      2689	800021ec	00000013	addi	x0,x0,0	  x0:0x00000000
       26915000	      2690	800021f0	5ecc0e13	addi	x28,x24,1516	 x24:0x00000000 x28=0x000005ec
       26925000	      2691	800021f4	9ad28793	addi	x15,x5,-1619	  x5:0x00000000 x15=0xfffff9ad
       26935000	      2692	800021f8	2ff5c793	xori	x15,x11,767	 x11:0xf008d001 x15=0xf008d2fe
       26945000	      2693	800021fc	01382333	slt	x6,x16,x19	 x16:0x00000000 x19:0x00000001  x6=0x00000001
       26955000	      2694	80002200	00422083	lw	x1,4(x4)	  x4:0x80009ef4  x1=0x80004240 PA:0x80009ef8
       26965000	      2695	80002204	02420213	addi	x4,x4,36	  x4:0x80009ef4  x4=0x80009f18
       26975000	      2696	80002208	01e21513	slli	x10,x4,0x1e	  x4:0x80009f18 x10=0x00000000
       26985000	      2697	8000220c	00108d93	addi	x27,x1,1	  x1:0x80004240 x27=0x80004241
       26995000	      2698	80002210	000d8de7	jalr	x27,x27,0	 x27:0x80004241 x27=0x80002210
       27005000	      2699	00000000	00000013	addi	x0,x0,0	  x0:0x00000000
       27015000	      2700	80004240	00000013	addi	x0,x0,0	  x0:0x00000000
       27025000	      2701	80004244	024000ef	jal	x1,80004244	  x1=0x80004244
       27035000	      2702	00000000	00000013	addi	x0,x0,0	  x0:0x00000000
       27045000	      2703	80004264	00000013	addi	x0,x0,0	  x0:0x00000000
       27055000	      2704	80004268	00c00e6f	jal	x28,80004268	 x28=0x80004268
       27065000	      2705	00000000	00000013	addi	x0,x0,0	  x0:0x00000000
       27075000	      2706	80004270	00000013	addi	x0,x0,0	  x0:0x00000000
       27085000	      2707	80004274	fe1ffb6f	jal	x22,80004274	 x22=0x80004274
       27095000	      2708	00000000	00000013	addi	x0,x0,0	  x0:0x00000000
       27105000	      2709	80004250	00000013	addi	x0,x0,0	  x0:0x00000000
       27115000	      2710	80004254	ff5ff0ef	jal	x1,80004254	  x1=0x80004254
       27125000	      2711	00000000	00000013	addi	x0,x0,0	  x0:0x00000000
       27135000	      2712	80004244	00000013	addi	x0,x0,0	  x0:0x00000000
       27145000	      2713	80004248	010000ef	jal	x1,80004248	  x1=0x80004248
       27155000	      2714	00000000	00000013	addi	x0,x0,0	  x0:0x00000000
       27165000	      2715	80004254	00000013	addi	x0,x0,0	  x0:0x00000000
       27175000	      2716	80004258	00c000ef	jal	x1,80004258	  x1=0x80004258
       27185000	      2717	00000000	00000013	addi	x0,x0,0	  x0:0x00000000
       27195000	      2718	80004260	00000013	addi	x0,x0,0	  x0:0x00000000
       27205000	      2719	80004264	fedff0ef	jal	x1,80004264	  x1=0x80004264
       27215000	      2720	00000000	00000013	addi	x0,x0,0	  x0:0x00000000
       27225000	      2721	8000424c	00000013	addi	x0,x0,0	  x0:0x00000000
       27235000	      2722	80004250	028000ef	jal	x1,80004250	  x1=0x80004250
       27245000	      2723	00000000	00000013	addi	x0,x0,0	  x0:0x00000000
       27255000	      2724	80004274	00000013	addi	x0,x0,0	  x0:0x00000000
       27265000	      2725	80004278	ff9ff9ef	jal	x19,80004278	 x19=0x80004278
       27275000	      2726	00000000	00000013	addi	x0,x0,0	  x0:0x00000000
       27285000	      2727	8000426c	00000013	addi	x0,x0,0	  x0:0x00000000
       27295000	      2728	80004270	00c008ef	jal	x17,80004270	 x17=0x80004270
       27305000	      2729	00000000	00000013	addi	x0,x0,0	  x0:0x00000000
       27315000	      2730	80004278	00000013	addi	x0,x0,0	  x0:0x00000000
       27325000	      2731	8000427c	fe5ff0ef	jal	x1,8000427c	  x1=0x8000427c
       27335000	      2732	00000000	00000013	addi	x0,x0,0	  x0:0x00000000
       27345000	      2733	8000425c	00000013	addi	x0,x0,0	  x0:0x00000000
       27355000	      2734	80004260	ffdff36f	jal	x6,80004260	  x6=0x80004260
       27365000	      2735	00000000	00000013	addi	x0,x0,0	  x0:0x00000000
       27375000	      2736	80004258	00000013	addi	x0,x0,0	  x0:0x00000000
       27385000	      2737	8000425c	ff1ff36f	jal	x6,8000425c	  x6=0x8000425c
       27395000	      2738	00000000	00000013	addi	x0,x0,0	  x0:0x00000000
       27405000	      2739	80004248	00000013	addi	x0,x0,0	  x0:0x00000000
       27415000	      2740	8000424c	034000ef	jal	x1,8000424c	  x1=0x8000424c
       27425000	      2741	00000000	00000013	addi	x0,x0,0	  x0:0x00000000
       27435000	      2742	8000427c	00000013	addi	x0,x0,0	  x0:0x00000000
       27445000	      2743	80004280	fedff1ef	jal	x3,80004280	  x3=0x80004280
       27455000	      2744	00000000	00000013	addi	x0,x0,0	  x0:0x00000000
       27465000	      2745	80004268	00000013	addi	x0,x0,0	  x0:0x00000000
       27475000	      2746	8000426c	018000ef	jal	x1,8000426c	  x1=0x8000426c
       27485000	      2747	00000000	00000013	addi	x0,x0,0	  x0:0x00000000
       27495000	      2748	80004280	00000013	addi	x0,x0,0	  x0:0x00000000
       27505000	      2749	80004284	00338133	add	x2,x7,x3	  x7:0x451c811c  x3:0x80004280  x2=0xc51cc39c
       27515000	      2750	80004288	02c000ef	jal	x1,80004288	  x1=0x80004288
       27525000	      2751	00000000	00000013	addi	x0,x0,0	  x0:0x00000000
       27535000	      2752	800042b0	00000013	addi	x0,x0,0	  x0:0x00000000
       27545000	      2753	800042b4	fe5ff0ef	jal	x1,800042b4	  x1=0x800042b4
       27555000	      2754	00000000	00000013	addi	x0,x0,0	  x0:0x00000000
       27565000	      2755	80004294	00000013	addi	x0,x0,0	  x0:0x00000000
       27575000	      2756	80004298	030000ef	jal	x1,80004298	  x1=0x80004298
       27585000	      2757	00000000	00000013	addi	x0,x0,0	  x0:0x00000000
       27595000	      2758	800042c4	00000013	addi	x0,x0,0	  x0:0x00000000
       27605000	      2759	800042c8	fe9ff36f	jal	x6,800042c8	  x6=0x800042c8
       27615000	      2760	00000000	00000013	addi	x0,x0,0	  x0:0x00000000
       27625000	      2761	800042ac	00000013	addi	x0,x0,0	  x0:0x00000000
       27635000	      2762	800042b0	ff1ff0ef	jal	x1,800042b0	  x1=0x800042b0
       27645000	      2763	00000000	00000013	addi	x0,x0,0	  x0:0x00000000
       27655000	      2764	8000429c	00000013	addi	x0,x0,0	  x0:0x00000000
       27665000	      2765	800042a0	fedff0ef	jal	x1,800042a0	  x1=0x800042a0
       27675000	      2766	00000000	00000013	addi	x0,x0,0	  x0:0x00000000
       27685000	      2767	80004288	00000013	addi	x0,x0,0	  x0:0x00000000
       27695000	      2768	8000428c	010000ef	jal	x1,8000428c	  x1=0x8000428c
       27705000	      2769	00000000	00000013	addi	x0,x0,0	  x0:0x00000000
       27715000	      2770	80004298	00000013	addi	x0,x0,0	  x0:0x00000000
       27725000	      2771	8000429c	ff5ff0ef	jal	x1,8000429c	  x1=0x8000429c
       27735000	      2772	00000000	00000013	addi	x0,x0,0	  x0:0x00000000
       27745000	      2773	8000428c	00000013	addi	x0,x0,0	  x0:0x00000000
       27755000	      2774	80004290	03c0036f	jal	x6,80004290	  x6=0x80004290
       27765000	      2775	00000000	00000013	addi	x0,x0,0	  x0:0x00000000
       27775000	      2776	800042c8	00000013	addi	x0,x0,0	  x0:0x00000000
       27785000	      2777	800042cc	fd9ffb6f	jal	x22,800042cc	 x22=0x800042cc
       27795000	      2778	00000000	00000013	addi	x0,x0,0	  x0:0x00000000
       27805000	      2779	800042a0	00000013	addi	x0,x0,0	  x0:0x00000000
       27815000	      2780	800042a4	01c000ef	jal	x1,800042a4	  x1=0x800042a4
       27825000	      2781	00000000	00000013	addi	x0,x0,0	  x0:0x00000000
       27835000	      2782	800042bc	00000013	addi	x0,x0,0	  x0:0x00000000
       27845000	      2783	800042c0	010000ef	jal	x1,800042c0	  x1=0x800042c0
       27855000	      2784	00000000	00000013	addi	x0,x0,0	  x0:0x00000000
       27865000	      2785	800042cc	00000013	addi	x0,x0,0	  x0:0x00000000
       27875000	      2786	800042d0	008000ef	jal	x1,800042d0	  x1=0x800042d0
       27885000	      2787	00000000	00000013	addi	x0,x0,0	  x0:0x00000000
       27895000	      2788	800042d4	00000013	addi	x0,x0,0	  x0:0x00000000
       27905000	      2789	800042d8	ffdff66f	jal	x12,800042d8	 x12=0x800042d8
       27915000	      2790	00000000	00000013	addi	x0,x0,0	  x0:0x00000000
       27925000	      2791	800042d0	00000013	addi	x0,x0,0	  x0:0x00000000
       27935000	      2792	800042d4	fe5ff36f	jal	x6,800042d4	  x6=0x800042d4
       27945000	      2793	00000000	00000013	addi	x0,x0,0	  x0:0x00000000
       27955000	      2794	800042b4	00000013	addi	x0,x0,0	  x0:0x00000000
       27965000	      2795	800042b8	ff5ff46f	jal	x8,800042b8	  x8=0x800042b8
       27975000	      2796	00000000	00000013	addi	x0,x0,0	  x0:0x00000000
       27985000	      2797	800042a8	00000013	addi	x0,x0,0	  x0:0x00000000
       27995000	      2798	800042ac	ffdff0ef	jal	x1,800042ac	  x1=0x800042ac
       28005000	      2799	00000000	00000013	addi	x0,x0,0	  x0:0x00000000
       28015000	      2800	800042a4	00000013	addi	x0,x0,0	  x0:0x00000000
       28025000	      2801	800042a8	fedff36f	jal	x6,800042a8	  x6=0x800042a8
       28035000	      2802	00000000	00000013	addi	x0,x0,0	  x0:0x00000000
       28045000	      2803	80004290	00000013	addi	x0,x0,0	  x0:0x00000000
       28055000	      2804	80004294	0300076f	jal	x14,80004294	 x14=0x80004294
       28065000	      2805	00000000	00000013	addi	x0,x0,0	  x0:0x00000000
       28075000	      2806	800042c0	00000013	addi	x0,x0,0	  x0:0x00000000
       28085000	      2807	800042c4	ff9ffcef	jal	x25,800042c4	 x25=0x800042c4
       28095000	      2808	00000000	00000013	addi	x0,x0,0	  x0:0x00000000
       28105000	      2809	800042b8	00000013	addi	x0,x0,0	  x0:0x00000000
       28115000	      2810	800042bc	020000ef	jal	x1,800042bc	  x1=0x800042bc
       28125000	      2811	00000000	00000013	addi	x0,x0,0	  x0:0x00000000
       28135000	      2812	800042d8	00000013	addi	x0,x0,0	  x0:0x00000000
       28145000	      2813	800042dc	38754713	xori	x14,x10,903	 x10:0x00000000 x14=0x00000387
       28155000	      2814	800042e0	064000ef	jal	x1,800042e0	  x1=0x800042e0
       28165000	      2815	00000000	00000013	addi	x0,x0,0	  x0:0x00000000
       28175000	      2816	80004340	00000013	addi	x0,x0,0	  x0:0x00000000
       28185000	      2817	80004344	fe9ff0ef	jal	x1,80004344	  x1=0x80004344
       28195000	      2818	00000000	00000013	addi	x0,x0,0	  x0:0x00000000
       28205000	      2819	80004328	00000013	addi	x0,x0,0	  x0:0x00000000
       28215000	      2820	8000432c	fc1ff0ef	jal	x1,8000432c	  x1=0x8000432c
       28225000	      2821	00000000	00000013	addi	x0,x0,0	  x0:0x00000000
       28235000	      2822	800042e8	00000013	addi	x0,x0,0	  x0:0x00000000
       28245000	      2823	800042ec	004000ef	jal	x1,800042ec	  x1=0x800042ec
       28255000	      2824	00000000	00000013	addi	x0,x0,0	  x0:0x00000000
       28265000	      2825	800042ec	00000013	addi	x0,x0,0	  x0:0x00000000
       28275000	      2826	800042f0	024000ef	jal	x1,800042f0	  x1=0x800042f0
       28285000	      2827	00000000	00000013	addi	x0,x0,0	  x0:0x00000000
       28295000	      2828	80004310	00000013	addi	x0,x0,0	  x0:0x00000000
       28305000	      2829	80004314	fe1ff0ef	jal	x1,80004314	  x1=0x80004314
       28315000	      2830	00000000	00000013	addi	x0,x0,0	  x0:0x00000000
       28325000	      2831	800042f0	00000013	addi	x0,x0,0	  x0:0x00000000
       28335000	      2832	800042f4	0480036f	jal	x6,800042f4	  x6=0x800042f4
       28345000	      2833	00000000	00000013	addi	x0,x0,0	  x0:0x00000000
       28355000	      2834	80004338	00000013	addi	x0,x0,0	  x0:0x00000000
       28365000	      2835	8000433c	fbdff0ef	jal	x1,8000433c	  x1=0x8000433c
       28375000	      2836	00000000	00000013	addi	x0,x0,0	  x0:0x00000000
       28385000	      2837	800042f4	00000013	addi	x0,x0,0	  x0:0x00000000
       28395000	      2838	800042f8	054000ef	jal	x1,800042f8	  x1=0x800042f8
       28405000	      2839	00000000	00000013	addi	x0,x0,0	  x0:0x00000000
       28415000	      2840	80004348	00000013	addi	x0,x0,0	  x0:0x00000000
       28425000	      2841	8000434c	fe9ff36f	jal	x6,8000434c	  x6=0x8000434c
       28435000	      2842	00000000	00000013	addi	x0,x0,0	  x0:0x00000000
       28445000	      2843	80004330	00000013	addi	x0,x0,0	  x0:0x00000000
       28455000	      2844	80004334	01400a6f	jal	x20,80004334	 x20=0x80004334
       28465000	      2845	00000000	00000013	addi	x0,x0,0	  x0:0x00000000
       28475000	      2846	80004344	00000013	addi	x0,x0,0	  x0:0x00000000
       28485000	      2847	80004348	fc9ff0ef	jal	x1,80004348	  x1=0x80004348
       28495000	      2848	00000000	00000013	addi	x0,x0,0	  x0:0x00000000
       28505000	      2849	8000430c	00000013	addi	x0,x0,0	  x0:0x00000000
       28515000	      2850	80004310	0300016f	jal	x2,80004310	  x2=0x80004310
       28525000	      2851	00000000	00000013	addi	x0,x0,0	  x0:0x00000000
       28535000	      2852	8000433c	00000013	addi	x0,x0,0	  x0:0x00000000
       28545000	      2853	80004340	fa9ff16f	jal	x2,80004340	  x2=0x80004340
       28555000	      2854	00000000	00000013	addi	x0,x0,0	  x0:0x00000000
       28565000	      2855	800042e4	00000013	addi	x0,x0,0	  x0:0x00000000
       28575000	      2856	800042e8	018001ef	jal	x3,800042e8	  x3=0x800042e8
       28585000	      2857	00000000	00000013	addi	x0,x0,0	  x0:0x00000000
       28595000	      2858	800042fc	00000013	addi	x0,x0,0	  x0:0x00000000
       28605000	      2859	80004300	0180016f	jal	x2,80004300	  x2=0x80004300
       28615000	      2860	00000000	00000013	addi	x0,x0,0	  x0:0x00000000
       28625000	      2861	80004314	00000013	addi	x0,x0,0	  x0:0x00000000
       28635000	      2862	80004318	0040036f	jal	x6,80004318	  x6=0x80004318
       28645000	      2863	00000000	00000013	addi	x0,x0,0	  x0:0x00000000
       28655000	      2864	80004318	00000013	addi	x0,x0,0	  x0:0x00000000
       28665000	      2865	8000431c	fedffe6f	jal	x28,8000431c	 x28=0x8000431c
       28675000	      2866	00000000	00000013	addi	x0,x0,0	  x0:0x00000000
       28685000	      2867	80004304	00000013	addi	x0,x0,0	  x0:0x00000000
       28695000	      2868	80004308	fddff0ef	jal	x1,80004308	  x1=0x80004308
       28705000	      2869	00000000	00000013	addi	x0,x0,0	  x0:0x00000000
       28715000	      2870	800042e0	00000013	addi	x0,x0,0	  x0:0x00000000
       28725000	      2871	800042e4	040000ef	jal	x1,800042e4	  x1=0x800042e4
       28735000	      2872	00000000	00000013	addi	x0,x0,0	  x0:0x00000000
       28745000	      2873	80004320	00000013	addi	x0,x0,0	  x0:0x00000000
       28755000	      2874	80004324	fe9ffbef	jal	x23,80004324	 x23=0x80004324
       28765000	      2875	00000000	00000013	addi	x0,x0,0	  x0:0x00000000
       28775000	      2876	80004308	00000013	addi	x0,x0,0	  x0:0x00000000
       28785000	      2877	8000430c	ff9ff0ef	jal	x1,8000430c	  x1=0x8000430c
       28795000	      2878	00000000	00000013	addi	x0,x0,0	  x0:0x00000000
       28805000	      2879	80004300	00000013	addi	x0,x0,0	  x0:0x00000000
       28815000	      2880	80004304	034001ef	jal	x3,80004304	  x3=0x80004304
       28825000	      2881	00000000	00000013	addi	x0,x0,0	  x0:0x00000000
       28835000	      2882	80004334	00000013	addi	x0,x0,0	  x0:0x00000000
       28845000	      2883	80004338	fe9ff0ef	jal	x1,80004338	  x1=0x80004338
       28855000	      2884	00000000	00000013	addi	x0,x0,0	  x0:0x00000000
       28865000	      2885	8000431c	00000013	addi	x0,x0,0	  x0:0x00000000
       28875000	      2886	80004320	fddff36f	jal	x6,80004320	  x6=0x80004320
       28885000	      2887	00000000	00000013	addi	x0,x0,0	  x0:0x00000000
       28895000	      2888	800042f8	00000013	addi	x0,x0,0	  x0:0x00000000
       28905000	      2889	800042fc	034001ef	jal	x3,800042fc	  x3=0x800042fc
       28915000	      2890	00000000	00000013	addi	x0,x0,0	  x0:0x00000000
       28925000	      2891	8000432c	00000013	addi	x0,x0,0	  x0:0x00000000
       28935000	      2892	80004330	ff9ff0ef	jal	x1,80004330	  x1=0x80004330
       28945000	      2893	00000000	00000013	addi	x0,x0,0	  x0:0x00000000
       28955000	      2894	80004324	00000013	addi	x0,x0,0	  x0:0x00000000
       28965000	      2895	80004328	028000ef	jal	x1,80004328	  x1=0x80004328
       28975000	      2896	00000000	00000013	addi	x0,x0,0	  x0:0x00000000
       28985000	      2897	8000434c	00000013	addi	x0,x0,0	  x0:0x00000000
       28995000	      2898	80004350	40c7d513	srai	x10,x15,0xc	 x15:0xf008d2fe x10=0xffff008d
       29005000	      2899	80004354	00edc7b3	xor	x15,x27,x14	 x27:0x80002210 x14:0x00000387 x15=0x80002197
       29015000	      2900	80004358	00a59433	sll	x8,x11,x10	 x11:0xf008d001 x10:0xffff008d  x8=0x1a002000
       29025000	      2901	8000435c	0017bc33	sltu	x24,x15,x1	 x15:0x80002197  x1:0x80004328 x24=0x00000001
       29035000	      2902	80004360	00000013	addi	x0,x0,0	  x0:0x00000000
       29045000	      2903	80004364	ff3ca313	slti	x6,x25,-13	 x25:0x800042c4  x6=0x00000001
       29055000	      2904	80004368	01a31463	bne	x6,x26,80004370	  x6:0x00000001 x26:0xfffffef5
       29065000	      2905	00000000	00000013	addi	x0,x0,0	  x0:0x00000000
       29075000	      2906	8000436c	00000013	addi	x0,x0,0	  x0:0x00000000
       29085000	      2907	80004370	407cdfb3	sra	x31,x25,x7	 x25:0x800042c4  x7:0x451c811c x31=0xfffffff8
       29095000	      2908	80004374	00ae9db3	sll	x27,x29,x10	 x29:0x00000001 x10:0xffff008d x27=0x00002000
       29105000	      2909	80004378	01e54263	blt	x10,x30,8000437c	 x10:0xffff008d x30:0x80009fc4
       29115000	      2910	8000437c	01507133	and	x2,x0,x21	  x0:0x00000000 x21:0x80009aa1  x2=0x00000000
       29125000	      2911	80004380	5ba47593	andi	x11,x8,1466	  x8:0x1a002000 x11=0x00000000
       29135000	      2912	80004384	01e2ec33	or	x24,x5,x30	  x5:0x00000000 x30:0x80009fc4 x24=0x80009fc4
       29145000	      2913	80004388	eed8fb93	andi	x23,x17,-275	 x17:0x80004270 x23=0x80004260
       29155000	      2914	8000438c	01ab5013	srli	x0,x22,0x1a	 x22:0x800042cc
       29165000	      2915	80004390	00000013	addi	x0,x0,0	  x0:0x00000000
       29175000	      2916	80004394	00000013	addi	x0,x0,0	  x0:0x00000000
       29185000	      2917	80004398	4065dd93	srai	x27,x11,0x6	 x11:0x00000000 x27=0x00000000
       29195000	      2918	8000439c	034e8c63	beq	x29,x20,800043d4	 x29:0x00000001 x20:0x80004334
       29205000	      2919	800043a0	410808b3	sub	x17,x16,x16	 x16:0x00000000 x16:0x00000000 x17=0x00000000
       29215000	      2920	800043a4	40a209b3	sub	x19,x4,x10	  x4:0x80009f18 x10:0xffff008d x19=0x80019e8b
       29225000	      2921	800043a8	0348ec63	bltu	x17,x20,800043e0	 x17:0x00000000 x20:0x80004334
       29235000	      2922	00000000	00000013	addi	x0,x0,0	  x0:0x00000000
       29245000	      2923	800043dc	00000013	addi	x0,x0,0	  x0:0x00000000
       29255000	      2924	800043e0	000b99b3	sll	x19,x23,x0	 x23:0x80004260  x0:0x00000000 x19=0x80004260
       29265000	      2925	800043e4	018c9463	bne	x25,x24,800043ec	 x25:0x800042c4 x24:0x80009fc4
       29275000	      2926	00000000	00000013	addi	x0,x0,0	  x0:0x00000000
       29285000	      2927	800043e8	00000013	addi	x0,x0,0	  x0:0x00000000
       29295000	      2928	800043ec	012b15b3	sll	x11,x22,x18	 x22:0x800042cc x18:0x00000000 x11=0x800042cc
       29305000	      2929	800043f0	00bc1793	slli	x15,x24,0xb	 x24:0x80009fc4 x15=0x04fe2000
       29315000	      2930	800043f4	015a5413	srli	x8,x20,0x15	 x20:0x80004334  x8=0x00000400
       29325000	      2931	800043f8	025f9463	bne	x31,x5,80004420	 x31:0xfffffff8  x5:0x00000000
       29335000	      2932	00000000	00000013	addi	x0,x0,0	  x0:0x00000000
       29345000	      2933	8000441c	00000013	addi	x0,x0,0	  x0:0x00000000
       29355000	      2934	80004420	00000013	addi	x0,x0,0	  x0:0x00000000
       29365000	      2935	80004424	01335e63	bge	x6,x19,80004440	  x6:0x00000001 x19:0x80004260
       29375000	      2936	00000000	00000013	addi	x0,x0,0	  x0:0x00000000
       29385000	      2937	8000443c	00000013	addi	x0,x0,0	  x0:0x00000000
       29395000	      2938	80004440	01f0c463	blt	x1,x31,80004448	  x1:0x80004328 x31:0xfffffff8
       29405000	      2939	00000000	00000013	addi	x0,x0,0	  x0:0x00000000
       29415000	      2940	80004444	00000013	addi	x0,x0,0	  x0:0x00000000
       29425000	      2941	80004448	f1844013	xori	x0,x8,-232	  x8:0x00000400
       29435000	      2942	8000444c	01179463	bne	x15,x17,80004454	 x15:0x04fe2000 x17:0x00000000
       29445000	      2943	00000000	00000013	addi	x0,x0,0	  x0:0x00000000
       29455000	      2944	80004450	00000013	addi	x0,x0,0	  x0:0x00000000
       29465000	      2945	80004454	000971b3	and	x3,x18,x0	 x18:0x00000000  x0:0x00000000  x3=0x00000000
       29475000	      2946	80004458	2f06ba97	auipc	x21,0x2f06b	 x21=0xaf06f454
       29485000	      2947	8000445c	3c98ee97	auipc	x29,0x3c98e	 x29=0xbc992458
       29495000	      2948	80004460	35a8ad13	slti	x26,x17,858	 x17:0x00000000 x26=0x00000001
       29505000	      2949	80004464	00a928b3	slt	x17,x18,x10	 x18:0x00000000 x10:0xffff008d x17=0x00000000
       29515000	      2950	80004468	62967313	andi	x6,x12,1577	 x12:0x800042d8  x6=0x00000208
       29525000	      2951	8000446c	04f3f663	bgeu	x7,x15,800044b8	  x7:0x451c811c x15:0x04fe2000
       29535000	      2952	00000000	00000013	addi	x0,x0,0	  x0:0x00000000
       29545000	      2953	800044b4	00000013	addi	x0,x0,0	  x0:0x00000000
       29555000	      2954	800044b8	002f9993	slli	x19,x31,0x2	 x31:0xfffffff8 x19=0xffffffe0
       29565000	      2955	800044bc	003a8933	add	x18,x21,x3	 x21:0xaf06f454  x3:0x00000000 x18=0xaf06f454
       29575000	      2956	800044c0	014b1d13	slli	x26,x22,0x14	 x22:0x800042cc x26=0x2cc00000
       29585000	      2957	800044c4	e941ae37	lui	x28,0xe941a	 x28=0xe941a000
       29595000	      2958	800044c8	f815c9b7	lui	x19,0xf815c	 x19=0xf815c000
       29605000	      2959	800044cc	009f3db3	sltu	x27,x30,x9	 x30:0x80009fc4  x9:0x80009ef4 x27=0x00000000
       29615000	      2960	800044d0	004401b3	add	x3,x8,x4	  x8:0x00000400  x4:0x80009f18  x3=0x8000a318
       29625000	      2961	800044d4	02195663	bge	x18,x1,80004500	 x18:0xaf06f454  x1:0x80004328
       29635000	      2962	00000000	00000013	addi	x0,x0,0	  x0:0x00000000
       29645000	      2963	800044fc	00000013	addi	x0,x0,0	  x0:0x00000000
       29655000	      2964	80004500	0a527013	andi	x0,x4,165	  x4:0x80009f18
       29665000	      2965	80004504	0049e633	or	x12,x19,x4	 x19:0xf815c000  x4:0x80009f18 x12=0xf815df18
       29675000	      2966	80004508	03a1d463	bge	x3,x26,80004530	  x3:0x8000a318 x26:0x2cc00000
       29685000	      2967	8000450c	41dd5113	srai	x2,x26,0x1d	 x26:0x2cc00000  x2=0x00000001
       29695000	      2968	80004510	01315993	srli	x19,x2,0x13	  x2:0x00000001 x19=0x00000000
       29705000	      2969	80004514	03836463	bltu	x6,x24,8000453c	  x6:0x00000208 x24:0x80009fc4
       29715000	      2970	00000000	00000013	addi	x0,x0,0	  x0:0x00000000
       29725000	      2971	80004538	00000013	addi	x0,x0,0	  x0:0x00000000
       29735000	      2972	8000453c	1fd38d93	addi	x27,x7,509	  x7:0x451c811c x27=0x451c8319
       29745000	      2973	80004540	04e21063	bne	x4,x14,80004580	  x4:0x80009f18 x14:0x00000387
       29755000	      2974	00000000	00000013	addi	x0,x0,0	  x0:0x00000000
       29765000	      2975	8000457c	00000013	addi	x0,x0,0	  x0:0x00000000
       29775000	      2976	80004580	403b5593	srai	x11,x22,0x3	 x22:0x800042cc x11=0xf0000859
       29785000	      2977	80004584	94210013	addi	x0,x2,-1726	  x2:0x00000001
       29795000	      2978	80004588	07687463	bgeu	x16,x22,800045f0	 x16:0x00000000 x22:0x800042cc
       29805000	      2979	8000458c	01ccf5b3	and	x11,x25,x28	 x25:0x800042c4 x28:0xe941a000 x11=0x80000000
       29815000	      2980	80004590	0179e6b3	or	x13,x19,x23	 x19:0x00000000 x23:0x80004260 x13=0x80004260
       29825000	      2981	80004594	017ced33	or	x26,x25,x23	 x25:0x800042c4 x23:0x80004260 x26=0x800042e4
       29835000	      2982	80004598	0236cfb7	lui	x31,0x236c	 x31=0x0236c000
       29845000	      2983	8000459c	0163fe63	bgeu	x7,x22,800045b8	  x7:0x451c811c x22:0x800042cc
       29855000	      2984	800045a0	53517393	andi	x7,x2,1333	  x2:0x00000001  x7=0x00000001
       29865000	      2985	800045a4	011e9193	slli	x3,x29,0x11	 x29:0xbc992458  x3=0x48b00000
       29875000	      2986	800045a8	0090bab3	sltu	x21,x1,x9	  x1:0x80004328  x9:0x80009ef4 x21=0x00000001
       29885000	      2987	800045ac	4022db93	srai	x23,x5,0x2	  x5:0x00000000 x23=0x00000000
       29895000	      2988	800045b0	59108013	addi	x0,x1,1425	  x1:0x80004328
       29905000	      2989	800045b4	4185dcb3	sra	x25,x11,x24	 x11:0x80000000 x24:0x80009fc4 x25=0xf8000000
       29915000	      2990	800045b8	a68fd0ef	jal	x1,800045b8	  x1=0x800045b8
       29925000	      2991	00000000	00000013	addi	x0,x0,0	  x0:0x00000000
       29935000	      2992	8000181c	00000013	addi	x0,x0,0	  x0:0x00000000
       29945000	      2993	80001820	01e6d463	bge	x13,x30,80001828	 x13:0x80004260 x30:0x80009fc4
       29955000	      2994	80001824	01fef6b3	and	x13,x29,x31	 x29:0xbc992458 x31:0x0236c000 x13=0x00100000
       29965000	      2995	80001828	fdc20213	addi	x4,x4,-36	  x4:0x80009f18  x4=0x80009ef4
       29975000	      2996	8000182c	019fd993	srli	x19,x31,0x19	 x31:0x0236c000 x19=0x00000001
       29985000	      2997	80001830	00122223	sw	x1,4(x4)	  x4:0x80009ef4  x1:0x800045b8 PA:0x80009ef8
       29995000	      2998	80001834	40300eb3	sub	x29,x0,x3	  x0:0x00000000  x3:0x48b00000 x29=0xb7500000
       30005000	      2999	80001838	c07b7bb7	lui	x23,0xc07b7	 x23=0xc07b7000
       30015000	      3000	8000183c	014000ef	jal	x1,8000183c	  x1=0x8000183c
       30025000	      3001	00000000	00000013	addi	x0,x0,0	  x0:0x00000000
       30035000	      3002	8000184c	00000013	addi	x0,x0,0	  x0:0x00000000
       30045000	      3003	80001850	010000ef	jal	x1,80001850	  x1=0x80001850
       30055000	      3004	00000000	00000013	addi	x0,x0,0	  x0:0x00000000
       30065000	      3005	8000185c	00000013	addi	x0,x0,0	  x0:0x00000000
       30075000	      3006	80001860	fe1ff0ef	jal	x1,80001860	  x1=0x80001860
       30085000	      3007	00000000	00000013	addi	x0,x0,0	  x0:0x00000000
       30095000	      3008	8000183c	00000013	addi	x0,x0,0	  x0:0x00000000
       30105000	      3009	80001840	00c000ef	jal	x1,80001840	  x1=0x80001840
       30115000	      3010	00000000	00000013	addi	x0,x0,0	  x0:0x00000000
       30125000	      3011	80001848	00000013	addi	x0,x0,0	  x0:0x00000000
       30135000	      3012	8000184c	018000ef	jal	x1,8000184c	  x1=0x8000184c
       30145000	      3013	00000000	00000013	addi	x0,x0,0	  x0:0x00000000
       30155000	      3014	80001860	00000013	addi	x0,x0,0	  x0:0x00000000
       30165000	      3015	80001864	004000ef	jal	x1,80001864	  x1=0x80001864
       30175000	      3016	00000000	00000013	addi	x0,x0,0	  x0:0x00000000
       30185000	      3017	80001864	00000013	addi	x0,x0,0	  x0:0x00000000
       30195000	      3018	80001868	fddff0ef	jal	x1,80001868	  x1=0x80001868
       30205000	      3019	00000000	00000013	addi	x0,x0,0	  x0:0x00000000
       30215000	      3020	80001840	00000013	addi	x0,x0,0	  x0:0x00000000
       30225000	      3021	80001844	0040036f	jal	x6,80001844	  x6=0x80001844
       30235000	      3022	00000000	00000013	addi	x0,x0,0	  x0:0x00000000
       30245000	      3023	80001844	00000013	addi	x0,x0,0	  x0:0x00000000
       30255000	      3024	80001848	024000ef	jal	x1,80001848	  x1=0x80001848
       30265000	      3025	00000000	00000013	addi	x0,x0,0	  x0:0x00000000
       30275000	      3026	80001868	00000013	addi	x0,x0,0	  x0:0x00000000
       30285000	      3027	8000186c	fedff0ef	jal	x1,8000186c	  x1=0x8000186c
       30295000	      3028	00000000	00000013	addi	x0,x0,0	  x0:0x00000000
       30305000	      3029	80001854	00000013	addi	x0,x0,0	  x0:0x00000000
       30315000	      3030	80001858	ffdff36f	jal	x6,80001858	  x6=0x80001858
       30325000	      3031	00000000	00000013	addi	x0,x0,0	  x0:0x00000000
       30335000	      3032	80001850	00000013	addi	x0,x0,0	  x0:0x00000000
       30345000	      3033	80001854	008000ef	jal	x1,80001854	  x1=0x80001854
       30355000	      3034	00000000	00000013	addi	x0,x0,0	  x0:0x00000000
       30365000	      3035	80001858	00000013	addi	x0,x0,0	  x0:0x00000000
       30375000	      3036	8000185c	014000ef	jal	x1,8000185c	  x1=0x8000185c
       30385000	      3037	00000000	00000013	addi	x0,x0,0	  x0:0x00000000
       30395000	      3038	8000186c	00000013	addi	x0,x0,0	  x0:0x00000000
       30405000	      3039	80001870	009157b3	srl	x15,x2,x9	  x2:0x00000001  x9:0x80009ef4 x15=0x00000000
       30415000	      3040	80001874	018000ef	jal	x1,80001874	  x1=0x80001874
       30425000	      3041	00000000	00000013	addi	x0,x0,0	  x0:0x00000000
       30435000	      3042	80001888	00000013	addi	x0,x0,0	  x0:0x00000000
       30445000	      3043	8000188c	ff5ff0ef	jal	x1,8000188c	  x1=0x8000188c
       30455000	      3044	00000000	00000013	addi	x0,x0,0	  x0:0x00000000
       30465000	      3045	8000187c	00000013	addi	x0,x0,0	  x0:0x00000000
       30475000	      3046	80001880	060000ef	jal	x1,80001880	  x1=0x80001880
       30485000	      3047	00000000	00000013	addi	x0,x0,0	  x0:0x00000000
       30495000	      3048	800018dc	00000013	addi	x0,x0,0	  x0:0x00000000
       30505000	      3049	800018e0	fc9ff0ef	jal	x1,800018e0	  x1=0x800018e0
       30515000	      3050	00000000	00000013	addi	x0,x0,0	  x0:0x00000000
       30525000	      3051	800018a4	00000013	addi	x0,x0,0	  x0:0x00000000
       30535000	      3052	800018a8	fd1ff36f	jal	x6,800018a8	  x6=0x800018a8
       30545000	      3053	00000000	00000013	addi	x0,x0,0	  x0:0x00000000
       30555000	      3054	80001874	00000013	addi	x0,x0,0	  x0:0x00000000
       30565000	      3055	80001878	05c000ef	jal	x1,80001878	  x1=0x80001878
       30575000	      3056	00000000	00000013	addi	x0,x0,0	  x0:0x00000000
       30585000	      3057	800018d0	00000013	addi	x0,x0,0	  x0:0x00000000
       30595000	      3058	800018d4	fb1ff36f	jal	x6,800018d4	  x6=0x800018d4
       30605000	      3059	00000000	00000013	addi	x0,x0,0	  x0:0x00000000
       30615000	      3060	80001880	00000013	addi	x0,x0,0	  x0:0x00000000
       30625000	      3061	80001884	010000ef	jal	x1,80001884	  x1=0x80001884
       30635000	      3062	00000000	00000013	addi	x0,x0,0	  x0:0x00000000
       30645000	      3063	80001890	00000013	addi	x0,x0,0	  x0:0x00000000
       30655000	      3064	80001894	030000ef	jal	x1,80001894	  x1=0x80001894
       30665000	      3065	00000000	00000013	addi	x0,x0,0	  x0:0x00000000
       30675000	      3066	800018c0	00000013	addi	x0,x0,0	  x0:0x00000000
       30685000	      3067	800018c4	020000ef	jal	x1,800018c4	  x1=0x800018c4
       30695000	      3068	00000000	00000013	addi	x0,x0,0	  x0:0x00000000
       30705000	      3069	800018e0	00000013	addi	x0,x0,0	  x0:0x00000000
       30715000	      3070	800018e4	fadff0ef	jal	x1,800018e4	  x1=0x800018e4
       30725000	      3071	00000000	00000013	addi	x0,x0,0	  x0:0x00000000
       30735000	      3072	8000188c	00000013	addi	x0,x0,0	  x0:0x00000000
       30745000	      3073	80001890	038000ef	jal	x1,80001890	  x1=0x80001890
       30755000	      3074	00000000	00000013	addi	x0,x0,0	  x0:0x00000000
       30765000	      3075	800018c4	00000013	addi	x0,x0,0	  x0:0x00000000
       30775000	      3076	800018c8	fd5ff36f	jal	x6,800018c8	  x6=0x800018c8
       30785000	      3077	00000000	00000013	addi	x0,x0,0	  x0:0x00000000
       30795000	      3078	80001898	00000013	addi	x0,x0,0	  x0:0x00000000
       30805000	      3079	8000189c	014000ef	jal	x1,8000189c	  x1=0x8000189c
       30815000	      3080	00000000	00000013	addi	x0,x0,0	  x0:0x00000000
       30825000	      3081	800018ac	00000013	addi	x0,x0,0	  x0:0x00000000
       30835000	      3082	800018b0	fe9ff0ef	jal	x1,800018b0	  x1=0x800018b0
       30845000	      3083	00000000	00000013	addi	x0,x0,0	  x0:0x00000000
       30855000	      3084	80001894	00000013	addi	x0,x0,0	  x0:0x00000000
       30865000	      3085	80001898	038000ef	jal	x1,80001898	  x1=0x80001898
       30875000	      3086	00000000	00000013	addi	x0,x0,0	  x0:0x00000000
       30885000	      3087	800018cc	00000013	addi	x0,x0,0	  x0:0x00000000
       30895000	      3088	800018d0	fe5ff96f	jal	x18,800018d0	 x18=0x800018d0
       30905000	      3089	00000000	00000013	addi	x0,x0,0	  x0:0x00000000
       30915000	      3090	800018b0	00000013	addi	x0,x0,0	  x0:0x00000000
       30925000	      3091	800018b4	fc9ff0ef	jal	x1,800018b4	  x1=0x800018b4
       30935000	      3092	00000000	00000013	addi	x0,x0,0	  x0:0x00000000
       30945000	      3093	80001878	00000013	addi	x0,x0,0	  x0:0x00000000
       30955000	      3094	8000187c	050000ef	jal	x1,8000187c	  x1=0x8000187c
       30965000	      3095	00000000	00000013	addi	x0,x0,0	  x0:0x00000000
       30975000	      3096	800018c8	00000013	addi	x0,x0,0	  x0:0x00000000
       30985000	      3097	800018cc	fbdff36f	jal	x6,800018cc	  x6=0x800018cc
       30995000	      3098	00000000	00000013	addi	x0,x0,0	  x0:0x00000000
       31005000	      3099	80001884	00000013	addi	x0,x0,0	  x0:0x00000000
       31015000	      3100	80001888	01c0096f	jal	x18,80001888	 x18=0x80001888
       31025000	      3101	00000000	00000013	addi	x0,x0,0	  x0:0x00000000
       31035000	      3102	800018a0	00000013	addi	x0,x0,0	  x0:0x00000000
       31045000	      3103	800018a4	018000ef	jal	x1,800018a4	  x1=0x800018a4
       31055000	      3104	00000000	00000013	addi	x0,x0,0	  x0:0x00000000
       31065000	      3105	800018b8	00000013	addi	x0,x0,0	  x0:0x00000000
       31075000	      3106	800018bc	00400aef	jal	x21,800018bc	 x21=0x800018bc
       31085000	      3107	00000000	00000013	addi	x0,x0,0	  x0:0x00000000
       31095000	      3108	800018bc	00000013	addi	x0,x0,0	  x0:0x00000000
       31105000	      3109	800018c0	fe1ff0ef	jal	x1,800018c0	  x1=0x800018c0
       31115000	      3110	00000000	00000013	addi	x0,x0,0	  x0:0x00000000
       31125000	      3111	8000189c	00000013	addi	x0,x0,0	  x0:0x00000000
       31135000	      3112	800018a0	00c000ef	jal	x1,800018a0	  x1=0x800018a0
       31145000	      3113	00000000	00000013	addi	x0,x0,0	  x0:0x00000000
       31155000	      3114	800018a8	00000013	addi	x0,x0,0	  x0:0x00000000
       31165000	      3115	800018ac	0300036f	jal	x6,800018ac	  x6=0x800018ac
       31175000	      3116	00000000	00000013	addi	x0,x0,0	  x0:0x00000000
       31185000	      3117	800018d8	00000013	addi	x0,x0,0	  x0:0x00000000
       31195000	      3118	800018dc	fddff0ef	jal	x1,800018dc	  x1=0x800018dc
       31205000	      3119	00000000	00000013	addi	x0,x0,0	  x0:0x00000000
       31215000	      3120	800018b4	00000013	addi	x0,x0,0	  x0:0x00000000
       31225000	      3121	800018b8	020003ef	jal	x7,800018b8	  x7=0x800018b8
       31235000	      3122	00000000	00000013	addi	x0,x0,0	  x0:0x00000000
       31245000	      3123	800018d4	00000013	addi	x0,x0,0	  x0:0x00000000
       31255000	      3124	800018d8	010000ef	jal	x1,800018d8	  x1=0x800018d8
       31265000	      3125	00000000	00000013	addi	x0,x0,0	  x0:0x00000000
       31275000	      3126	800018e4	00000013	addi	x0,x0,0	  x0:0x00000000
       31285000	      3127	800018e8	07b98e13	addi	x28,x19,123	 x19:0x00000001 x28=0x0000007c
       31295000	      3128	800018ec	050000ef	jal	x1,800018ec	  x1=0x800018ec
       31305000	      3129	00000000	00000013	addi	x0,x0,0	  x0:0x00000000
       31315000	      3130	80001938	00000013	addi	x0,x0,0	  x0:0x00000000
       31325000	      3131	8000193c	fc9ff0ef	jal	x1,8000193c	  x1=0x8000193c
       31335000	      3132	00000000	00000013	addi	x0,x0,0	  x0:0x00000000
       31345000	      3133	80001900	00000013	addi	x0,x0,0	  x0:0x00000000
       31355000	      3134	80001904	03c000ef	jal	x1,80001904	  x1=0x80001904
       31365000	      3135	00000000	00000013	addi	x0,x0,0	  x0:0x00000000
       31375000	      3136	8000193c	00000013	addi	x0,x0,0	  x0:0x00000000
       31385000	      3137	80001940	fd5ff0ef	jal	x1,80001940	  x1=0x80001940
       31395000	      3138	00000000	00000013	addi	x0,x0,0	  x0:0x00000000
       31405000	      3139	80001910	00000013	addi	x0,x0,0	  x0:0x00000000
       31415000	      3140	80001914	0240036f	jal	x6,80001914	  x6=0x80001914
       31425000	      3141	00000000	00000013	addi	x0,x0,0	  x0:0x00000000
       31435000	      3142	80001934	00000013	addi	x0,x0,0	  x0:0x00000000
       31445000	      3143	80001938	fd1ff1ef	jal	x3,80001938	  x3=0x80001938
       31455000	      3144	00000000	00000013	addi	x0,x0,0	  x0:0x00000000
       31465000	      3145	80001904	00000013	addi	x0,x0,0	  x0:0x00000000
       31475000	      3146	80001908	ff5ff4ef	jal	x9,80001908	  x9=0x80001908
       31485000	      3147	00000000	00000013	addi	x0,x0,0	  x0:0x00000000
       31495000	      3148	800018f8	00000013	addi	x0,x0,0	  x0:0x00000000
       31505000	      3149	800018fc	0540086f	jal	x16,800018fc	 x16=0x800018fc
       31515000	      3150	00000000	00000013	addi	x0,x0,0	  x0:0x00000000
       31525000	      3151	8000194c	00000013	addi	x0,x0,0	  x0:0x00000000
       31535000	      3152	80001950	fb1ff66f	jal	x12,80001950	 x12=0x80001950
       31545000	      3153	00000000	00000013	addi	x0,x0,0	  x0:0x00000000
       31555000	      3154	800018fc	00000013	addi	x0,x0,0	  x0:0x00000000
       31565000	      3155	80001900	044004ef	jal	x9,80001900	  x9=0x80001900
       31575000	      3156	00000000	00000013	addi	x0,x0,0	  x0:0x00000000
       31585000	      3157	80001940	00000013	addi	x0,x0,0	  x0:0x00000000
       31595000	      3158	80001944	ff1ff36f	jal	x6,80001944	  x6=0x80001944
       31605000	      3159	00000000	00000013	addi	x0,x0,0	  x0:0x00000000
       31615000	      3160	80001930	00000013	addi	x0,x0,0	  x0:0x00000000
       31625000	      3161	80001934	fbdff0ef	jal	x1,80001934	  x1=0x80001934
       31635000	      3162	00000000	00000013	addi	x0,x0,0	  x0:0x00000000
       31645000	      3163	800018ec	00000013	addi	x0,x0,0	  x0:0x00000000
       31655000	      3164	800018f0	0380036f	jal	x6,800018f0	  x6=0x800018f0
       31665000	      3165	00000000	00000013	addi	x0,x0,0	  x0:0x00000000
       31675000	      3166	80001924	00000013	addi	x0,x0,0	  x0:0x00000000
       31685000	      3167	80001928	0200036f	jal	x6,80001928	  x6=0x80001928
       31695000	      3168	00000000	00000013	addi	x0,x0,0	  x0:0x00000000
       31705000	      3169	80001944	00000013	addi	x0,x0,0	  x0:0x00000000
       31715000	      3170	80001948	0040036f	jal	x6,80001948	  x6=0x80001948
       31725000	      3171	00000000	00000013	addi	x0,x0,0	  x0:0x00000000
       31735000	      3172	80001948	00000013	addi	x0,x0,0	  x0:0x00000000
       31745000	      3173	8000194c	fc5ff36f	jal	x6,8000194c	  x6=0x8000194c
       31755000	      3174	00000000	00000013	addi	x0,x0,0	  x0:0x00000000
       31765000	      3175	8000190c	00000013	addi	x0,x0,0	  x0:0x00000000
       31775000	      3176	80001910	0200016f	jal	x2,80001910	  x2=0x80001910
       31785000	      3177	00000000	00000013	addi	x0,x0,0	  x0:0x00000000
       31795000	      3178	8000192c	00000013	addi	x0,x0,0	  x0:0x00000000
       31805000	      3179	80001930	fc5ff36f	jal	x6,80001930	  x6=0x80001930
       31815000	      3180	00000000	00000013	addi	x0,x0,0	  x0:0x00000000
       31825000	      3181	800018f0	00000013	addi	x0,x0,0	  x0:0x00000000
       31835000	      3182	800018f4	02c000ef	jal	x1,800018f4	  x1=0x800018f4
       31845000	      3183	00000000	00000013	addi	x0,x0,0	  x0:0x00000000
       31855000	      3184	8000191c	00000013	addi	x0,x0,0	  x0:0x00000000
       31865000	      3185	80001920	fd9ffcef	jal	x25,80001920	 x25=0x80001920
       31875000	      3186	00000000	00000013	addi	x0,x0,0	  x0:0x00000000
       31885000	      3187	800018f4	00000013	addi	x0,x0,0	  x0:0x00000000
       31895000	      3188	800018f8	0200036f	jal	x6,800018f8	  x6=0x800018f8
       31905000	      3189	00000000	00000013	addi	x0,x0,0	  x0:0x00000000
       31915000	      3190	80001914	00000013	addi	x0,x0,0	  x0:0x00000000
       31925000	      3191	80001918	ff5ff3ef	jal	x7,80001918	  x7=0x80001918
       31935000	      3192	00000000	00000013	addi	x0,x0,0	  x0:0x00000000
       31945000	      3193	80001908	00000013	addi	x0,x0,0	  x0:0x00000000
       31955000	      3194	8000190c	01800aef	jal	x21,8000190c	 x21=0x8000190c
       31965000	      3195	00000000	00000013	addi	x0,x0,0	  x0:0x00000000
       31975000	      3196	80001920	00000013	addi	x0,x0,0	  x0:0x00000000
       31985000	      3197	80001924	03000a6f	jal	x20,80001924	 x20=0x80001924
       31995000	      3198	00000000	00000013	addi	x0,x0,0	  x0:0x00000000
       32005000	      3199	80001950	00000013	addi	x0,x0,0	  x0:0x00000000
       32015000	      3200	80001954	fc9ff0ef	jal	x1,80001954	  x1=0x80001954
       32025000	      3201	00000000	00000013	addi	x0,x0,0	  x0:0x00000000
       32035000	      3202	80001918	00000013	addi	x0,x0,0	  x0:0x00000000
       32045000	      3203	8000191c	0100036f	jal	x6,8000191c	  x6=0x8000191c
       32055000	      3204	00000000	00000013	addi	x0,x0,0	  x0:0x00000000
       32065000	      3205	80001928	00000013	addi	x0,x0,0	  x0:0x00000000
       32075000	      3206	8000192c	02c000ef	jal	x1,8000192c	  x1=0x8000192c
       32085000	      3207	00000000	00000013	addi	x0,x0,0	  x0:0x00000000
       32095000	      3208	80001954	00000013	addi	x0,x0,0	  x0:0x00000000
       32105000	      3209	80001958	929bb017	auipc	x0,0x929bb	
       32115000	      3210	8000195c	058000ef	jal	x1,8000195c	  x1=0x8000195c
       32125000	      3211	00000000	00000013	addi	x0,x0,0	  x0:0x00000000
       32135000	      3212	800019b0	00000013	addi	x0,x0,0	  x0:0x00000000
       32145000	      3213	800019b4	fc9ff36f	jal	x6,800019b4	  x6=0x800019b4
       32155000	      3214	00000000	00000013	addi	x0,x0,0	  x0:0x00000000
       32165000	      3215	80001978	00000013	addi	x0,x0,0	  x0:0x00000000
       32175000	      3216	8000197c	00c000ef	jal	x1,8000197c	  x1=0x8000197c
       32185000	      3217	00000000	00000013	addi	x0,x0,0	  x0:0x00000000
       32195000	      3218	80001984	00000013	addi	x0,x0,0	  x0:0x00000000
       32205000	      3219	80001988	008000ef	jal	x1,80001988	  x1=0x80001988
       32215000	      3220	00000000	00000013	addi	x0,x0,0	  x0:0x00000000
       32225000	      3221	8000198c	00000013	addi	x0,x0,0	  x0:0x00000000
       32235000	      3222	80001990	010000ef	jal	x1,80001990	  x1=0x80001990
       32245000	      3223	00000000	00000013	addi	x0,x0,0	  x0:0x00000000
       32255000	      3224	8000199c	00000013	addi	x0,x0,0	  x0:0x00000000
       32265000	      3225	800019a0	fd5ff36f	jal	x6,800019a0	  x6=0x800019a0
       32275000	      3226	00000000	00000013	addi	x0,x0,0	  x0:0x00000000
       32285000	      3227	80001970	00000013	addi	x0,x0,0	  x0:0x00000000
       32295000	      3228	80001974	0340016f	jal	x2,80001974	  x2=0x80001974
       32305000	      3229	00000000	00000013	addi	x0,x0,0	  x0:0x00000000
       32315000	      3230	800019a4	00000013	addi	x0,x0,0	  x0:0x00000000
       32325000	      3231	800019a8	fc1ff5ef	jal	x11,800019a8	 x11=0x800019a8
       32335000	      3232	00000000	00000013	addi	x0,x0,0	  x0:0x00000000
       32345000	      3233	80001964	00000013	addi	x0,x0,0	  x0:0x00000000
       32355000	      3234	80001968	02c006ef	jal	x13,80001968	 x13=0x80001968
       32365000	      3235	00000000	00000013	addi	x0,x0,0	  x0:0x00000000
       32375000	      3236	80001990	00000013	addi	x0,x0,0	  x0:0x00000000
       32385000	      3237	80001994	ff9ff0ef	jal	x1,80001994	  x1=0x80001994
       32395000	      3238	00000000	00000013	addi	x0,x0,0	  x0:0x00000000
       32405000	      3239	80001988	00000013	addi	x0,x0,0	  x0:0x00000000
       32415000	      3240	8000198c	ff9ff0ef	jal	x1,8000198c	  x1=0x8000198c
       32425000	      3241	00000000	00000013	addi	x0,x0,0	  x0:0x00000000
       32435000	      3242	80001980	00000013	addi	x0,x0,0	  x0:0x00000000
       32445000	      3243	80001984	0180036f	jal	x6,80001984	  x6=0x80001984
       32455000	      3244	00000000	00000013	addi	x0,x0,0	  x0:0x00000000
       32465000	      3245	80001998	00000013	addi	x0,x0,0	  x0:0x00000000
       32475000	      3246	8000199c	fd5ff0ef	jal	x1,8000199c	  x1=0x8000199c
       32485000	      3247	00000000	00000013	addi	x0,x0,0	  x0:0x00000000
       32495000	      3248	8000196c	00000013	addi	x0,x0,0	  x0:0x00000000
       32505000	      3249	80001970	03400fef	jal	x31,80001970	 x31=0x80001970
       32515000	      3250	00000000	00000013	addi	x0,x0,0	  x0:0x00000000
       32525000	      3251	800019a0	00000013	addi	x0,x0,0	  x0:0x00000000
       32535000	      3252	800019a4	fddff36f	jal	x6,800019a4	  x6=0x800019a4
       32545000	      3253	00000000	00000013	addi	x0,x0,0	  x0:0x00000000
       32555000	      3254	8000197c	00000013	addi	x0,x0,0	  x0:0x00000000
       32565000	      3255	80001980	02c0036f	jal	x6,80001980	  x6=0x80001980
       32575000	      3256	00000000	00000013	addi	x0,x0,0	  x0:0x00000000
       32585000	      3257	800019a8	00000013	addi	x0,x0,0	  x0:0x00000000
       32595000	      3258	800019ac	0040036f	jal	x6,800019ac	  x6=0x800019ac
       32605000	      3259	00000000	00000013	addi	x0,x0,0	  x0:0x00000000
       32615000	      3260	800019ac	00000013	addi	x0,x0,0	  x0:0x00000000
       32625000	      3261	800019b0	fe9ff36f	jal	x6,800019b0	  x6=0x800019b0
       32635000	      3262	00000000	00000013	addi	x0,x0,0	  x0:0x00000000
       32645000	      3263	80001994	00000013	addi	x0,x0,0	  x0:0x00000000
       32655000	      3264	80001998	fd5ffeef	jal	x29,80001998	 x29=0x80001998
       32665000	      3265	00000000	00000013	addi	x0,x0,0	  x0:0x00000000
       32675000	      3266	80001968	00000013	addi	x0,x0,0	  x0:0x00000000
       32685000	      3267	8000196c	ff5ff0ef	jal	x1,8000196c	  x1=0x8000196c
       32695000	      3268	00000000	00000013	addi	x0,x0,0	  x0:0x00000000
       32705000	      3269	8000195c	00000013	addi	x0,x0,0	  x0:0x00000000
       32715000	      3270	80001960	018001ef	jal	x3,80001960	  x3=0x80001960
       32725000	      3271	00000000	00000013	addi	x0,x0,0	  x0:0x00000000
       32735000	      3272	80001974	00000013	addi	x0,x0,0	  x0:0x00000000
       32745000	      3273	80001978	fedff0ef	jal	x1,80001978	  x1=0x80001978
       32755000	      3274	00000000	00000013	addi	x0,x0,0	  x0:0x00000000
       32765000	      3275	80001960	00000013	addi	x0,x0,0	  x0:0x00000000
       32775000	      3276	80001964	0540036f	jal	x6,80001964	  x6=0x80001964
       32785000	      3277	00000000	00000013	addi	x0,x0,0	  x0:0x00000000
       32795000	      3278	800019b4	00000013	addi	x0,x0,0	  x0:0x00000000
       32805000	      3279	800019b8	01fcad33	slt	x26,x25,x31	 x25:0x80001920 x31:0x80001970 x26=0x00000001
       32815000	      3280	800019bc	014000ef	jal	x1,800019bc	  x1=0x800019bc
       32825000	      3281	00000000	00000013	addi	x0,x0,0	  x0:0x00000000
       32835000	      3282	800019cc	00000013	addi	x0,x0,0	  x0:0x00000000
       32845000	      3283	800019d0	ff5ff36f	jal	x6,800019d0	  x6=0x800019d0
       32855000	      3284	00000000	00000013	addi	x0,x0,0	  x0:0x00000000
       32865000	      3285	800019c0	00000013	addi	x0,x0,0	  x0:0x00000000
       32875000	      3286	800019c4	024000ef	jal	x1,800019c4	  x1=0x800019c4
       32885000	      3287	00000000	00000013	addi	x0,x0,0	  x0:0x00000000
       32895000	      3288	800019e4	00000013	addi	x0,x0,0	  x0:0x00000000
       32905000	      3289	800019e8	00c000ef	jal	x1,800019e8	  x1=0x800019e8
       32915000	      3290	00000000	00000013	addi	x0,x0,0	  x0:0x00000000
       32925000	      3291	800019f0	00000013	addi	x0,x0,0	  x0:0x00000000
       32935000	      3292	800019f4	ff9ff0ef	jal	x1,800019f4	  x1=0x800019f4
       32945000	      3293	00000000	00000013	addi	x0,x0,0	  x0:0x00000000
       32955000	      3294	800019e8	00000013	addi	x0,x0,0	  x0:0x00000000
       32965000	      3295	800019ec	020000ef	jal	x1,800019ec	  x1=0x800019ec
       32975000	      3296	00000000	00000013	addi	x0,x0,0	  x0:0x00000000
       32985000	      3297	80001a08	00000013	addi	x0,x0,0	  x0:0x00000000
       32995000	      3298	80001a0c	ff5ffeef	jal	x29,80001a0c	 x29=0x80001a0c
       33005000	      3299	00000000	00000013	addi	x0,x0,0	  x0:0x00000000
       33015000	      3300	800019fc	00000013	addi	x0,x0,0	  x0:0x00000000
       33025000	      3301	80001a00	ff1ff36f	jal	x6,80001a00	  x6=0x80001a00
       33035000	      3302	00000000	00000013	addi	x0,x0,0	  x0:0x00000000
       33045000	      3303	800019ec	00000013	addi	x0,x0,0	  x0:0x00000000
       33055000	      3304	800019f0	018000ef	jal	x1,800019f0	  x1=0x800019f0
       33065000	      3305	00000000	00000013	addi	x0,x0,0	  x0:0x00000000
       33075000	      3306	80001a04	00000013	addi	x0,x0,0	  x0:0x00000000
       33085000	      3307	80001a08	014000ef	jal	x1,80001a08	  x1=0x80001a08
       33095000	      3308	00000000	00000013	addi	x0,x0,0	  x0:0x00000000
       33105000	      3309	80001a18	00000013	addi	x0,x0,0	  x0:0x00000000
       33115000	      3310	80001a1c	fadff1ef	jal	x3,80001a1c	  x3=0x80001a1c
       33125000	      3311	00000000	00000013	addi	x0,x0,0	  x0:0x00000000
       33135000	      3312	800019c4	00000013	addi	x0,x0,0	  x0:0x00000000
       33145000	      3313	800019c8	034000ef	jal	x1,800019c8	  x1=0x800019c8
       33155000	      3314	00000000	00000013	addi	x0,x0,0	  x0:0x00000000
       33165000	      3315	800019f8	00000013	addi	x0,x0,0	  x0:0x00000000
       33175000	      3316	800019fc	fddff4ef	jal	x9,800019fc	  x9=0x800019fc
       33185000	      3317	00000000	00000013	addi	x0,x0,0	  x0:0x00000000
       33195000	      3318	800019d4	00000013	addi	x0,x0,0	  x0:0x00000000
       33205000	      3319	800019d8	004000ef	jal	x1,800019d8	  x1=0x800019d8
       33215000	      3320	00000000	00000013	addi	x0,x0,0	  x0:0x00000000
       33225000	      3321	800019d8	00000013	addi	x0,x0,0	  x0:0x00000000
       33235000	      3322	800019dc	01c0036f	jal	x6,800019dc	  x6=0x800019dc
       33245000	      3323	00000000	00000013	addi	x0,x0,0	  x0:0x00000000
       33255000	      3324	800019f4	00000013	addi	x0,x0,0	  x0:0x00000000
       33265000	      3325	800019f8	fe9ff0ef	jal	x1,800019f8	  x1=0x800019f8
       33275000	      3326	00000000	00000013	addi	x0,x0,0	  x0:0x00000000
       33285000	      3327	800019dc	00000013	addi	x0,x0,0	  x0:0x00000000
       33295000	      3328	800019e0	ff5ff4ef	jal	x9,800019e0	  x9=0x800019e0
       33305000	      3329	00000000	00000013	addi	x0,x0,0	  x0:0x00000000
       33315000	      3330	800019d0	00000013	addi	x0,x0,0	  x0:0x00000000
       33325000	      3331	800019d4	030000ef	jal	x1,800019d4	  x1=0x800019d4
       33335000	      3332	00000000	00000013	addi	x0,x0,0	  x0:0x00000000
       33345000	      3333	80001a00	00000013	addi	x0,x0,0	  x0:0x00000000
       33355000	      3334	80001a04	fbdff1ef	jal	x3,80001a04	  x3=0x80001a04
       33365000	      3335	00000000	00000013	addi	x0,x0,0	  x0:0x00000000
       33375000	      3336	800019bc	00000013	addi	x0,x0,0	  x0:0x00000000
       33385000	      3337	800019c0	00c0016f	jal	x2,800019c0	  x2=0x800019c0
       33395000	      3338	00000000	00000013	addi	x0,x0,0	  x0:0x00000000
       33405000	      3339	800019c8	00000013	addi	x0,x0,0	  x0:0x00000000
       33415000	      3340	800019cc	048000ef	jal	x1,800019cc	  x1=0x800019cc
       33425000	      3341	00000000	00000013	addi	x0,x0,0	  x0:0x00000000
       33435000	      3342	80001a10	00000013	addi	x0,x0,0	  x0:0x00000000
       33445000	      3343	80001a14	fd1ff0ef	jal	x1,80001a14	  x1=0x80001a14
       33455000	      3344	00000000	00000013	addi	x0,x0,0	  x0:0x00000000
       33465000	      3345	800019e0	00000013	addi	x0,x0,0	  x0:0x00000000
       33475000	      3346	800019e4	034000ef	jal	x1,800019e4	  x1=0x800019e4
       33485000	      3347	00000000	00000013	addi	x0,x0,0	  x0:0x00000000
       33495000	      3348	80001a14	00000013	addi	x0,x0,0	  x0:0x00000000
       33505000	      3349	80001a18	ff9ff36f	jal	x6,80001a18	  x6=0x80001a18
       33515000	      3350	00000000	00000013	addi	x0,x0,0	  x0:0x00000000
       33525000	      3351	80001a0c	00000013	addi	x0,x0,0	  x0:0x00000000
       33535000	      3352	80001a10	0100036f	jal	x6,80001a10	  x6=0x80001a10
       33545000	      3353	00000000	00000013	addi	x0,x0,0	  x0:0x00000000
       33555000	      3354	80001a1c	00000013	addi	x0,x0,0	  x0:0x00000000
       33565000	      3355	80001a20	019d2cb3	slt	x25,x26,x25	 x26:0x00000001 x25:0x80001920 x25=0x00000000
       33575000	      3356	80001a24	018000ef	jal	x1,80001a24	  x1=0x80001a24
       33585000	      3357	00000000	00000013	addi	x0,x0,0	  x0:0x00000000
       33595000	      3358	80001a38	00000013	addi	x0,x0,0	  x0:0x00000000
       33605000	      3359	80001a3c	01c000ef	jal	x1,80001a3c	  x1=0x80001a3c
       33615000	      3360	00000000	00000013	addi	x0,x0,0	  x0:0x00000000
       33625000	      3361	80001a54	00000013	addi	x0,x0,0	  x0:0x00000000
       33635000	      3362	80001a58	fd1ff36f	jal	x6,80001a58	  x6=0x80001a58
       33645000	      3363	00000000	00000013	addi	x0,x0,0	  x0:0x00000000
       33655000	      3364	80001a24	00000013	addi	x0,x0,0	  x0:0x00000000
       33665000	      3365	80001a28	064000ef	jal	x1,80001a28	  x1=0x80001a28
       33675000	      3366	00000000	00000013	addi	x0,x0,0	  x0:0x00000000
       33685000	      3367	80001a88	00000013	addi	x0,x0,0	  x0:0x00000000
       33695000	      3368	80001a8c	fe1ff36f	jal	x6,80001a8c	  x6=0x80001a8c
       33705000	      3369	00000000	00000013	addi	x0,x0,0	  x0:0x00000000
       33715000	      3370	80001a68	00000013	addi	x0,x0,0	  x0:0x00000000
       33725000	      3371	80001a6c	fddff46f	jal	x8,80001a6c	  x8=0x80001a6c
       33735000	      3372	00000000	00000013	addi	x0,x0,0	  x0:0x00000000
       33745000	      3373	80001a44	00000013	addi	x0,x0,0	  x0:0x00000000
       33755000	      3374	80001a48	ff9ff36f	jal	x6,80001a48	  x6=0x80001a48
       33765000	      3375	00000000	00000013	addi	x0,x0,0	  x0:0x00000000
       33775000	      3376	80001a3c	00000013	addi	x0,x0,0	  x0:0x00000000
       33785000	      3377	80001a40	ff9ff36f	jal	x6,80001a40	  x6=0x80001a40
       33795000	      3378	00000000	00000013	addi	x0,x0,0	  x0:0x00000000
       33805000	      3379	80001a34	00000013	addi	x0,x0,0	  x0:0x00000000
       33815000	      3380	80001a38	ffdff0ef	jal	x1,80001a38	  x1=0x80001a38
       33825000	      3381	00000000	00000013	addi	x0,x0,0	  x0:0x00000000
       33835000	      3382	80001a30	00000013	addi	x0,x0,0	  x0:0x00000000
       33845000	      3383	80001a34	05400e6f	jal	x28,80001a34	 x28=0x80001a34
       33855000	      3384	00000000	00000013	addi	x0,x0,0	  x0:0x00000000
       33865000	      3385	80001a84	00000013	addi	x0,x0,0	  x0:0x00000000
       33875000	      3386	80001a88	ff1ff36f	jal	x6,80001a88	  x6=0x80001a88
       33885000	      3387	00000000	00000013	addi	x0,x0,0	  x0:0x00000000
       33895000	      3388	80001a74	00000013	addi	x0,x0,0	  x0:0x00000000
       33905000	      3389	80001a78	fe5ff0ef	jal	x1,80001a78	  x1=0x80001a78
       33915000	      3390	00000000	00000013	addi	x0,x0,0	  x0:0x00000000
       33925000	      3391	80001a58	00000013	addi	x0,x0,0	  x0:0x00000000
       33935000	      3392	80001a5c	034001ef	jal	x3,80001a5c	  x3=0x80001a5c
       33945000	      3393	00000000	00000013	addi	x0,x0,0	  x0:0x00000000
       33955000	      3394	80001a8c	00000013	addi	x0,x0,0	  x0:0x00000000
       33965000	      3395	80001a90	ff1ff0ef	jal	x1,80001a90	  x1=0x80001a90
       33975000	      3396	00000000	00000013	addi	x0,x0,0	  x0:0x00000000
       33985000	      3397	80001a7c	00000013	addi	x0,x0,0	  x0:0x00000000
       33995000	      3398	80001a80	ff1ff0ef	jal	x1,80001a80	  x1=0x80001a80
       34005000	      3399	00000000	00000013	addi	x0,x0,0	  x0:0x00000000
       34015000	      3400	80001a6c	00000013	addi	x0,x0,0	  x0:0x00000000
       34025000	      3401	80001a70	014000ef	jal	x1,80001a70	  x1=0x80001a70
       34035000	      3402	00000000	00000013	addi	x0,x0,0	  x0:0x00000000
       34045000	      3403	80001a80	00000013	addi	x0,x0,0	  x0:0x00000000
       34055000	      3404	80001a84	fa9ffb6f	jal	x22,80001a84	 x22=0x80001a84
       34065000	      3405	00000000	00000013	addi	x0,x0,0	  x0:0x00000000
       34075000	      3406	80001a28	00000013	addi	x0,x0,0	  x0:0x00000000
       34085000	      3407	80001a2c	0480036f	jal	x6,80001a2c	  x6=0x80001a2c
       34095000	      3408	00000000	00000013	addi	x0,x0,0	  x0:0x00000000
       34105000	      3409	80001a70	00000013	addi	x0,x0,0	  x0:0x00000000
       34115000	      3410	80001a74	fedff16f	jal	x2,80001a74	  x2=0x80001a74
       34125000	      3411	00000000	00000013	addi	x0,x0,0	  x0:0x00000000
       34135000	      3412	80001a5c	00000013	addi	x0,x0,0	  x0:0x00000000
       34145000	      3413	80001a60	fd1ff0ef	jal	x1,80001a60	  x1=0x80001a60
       34155000	      3414	00000000	00000013	addi	x0,x0,0	  x0:0x00000000
       34165000	      3415	80001a2c	00000013	addi	x0,x0,0	  x0:0x00000000
       34175000	      3416	80001a30	024000ef	jal	x1,80001a30	  x1=0x80001a30
       34185000	      3417	00000000	00000013	addi	x0,x0,0	  x0:0x00000000
       34195000	      3418	80001a50	00000013	addi	x0,x0,0	  x0:0x00000000
       34205000	      3419	80001a54	ffdff0ef	jal	x1,80001a54	  x1=0x80001a54
       34215000	      3420	00000000	00000013	addi	x0,x0,0	  x0:0x00000000
       34225000	      3421	80001a4c	00000013	addi	x0,x0,0	  x0:0x00000000
       34235000	      3422	80001a50	0480036f	jal	x6,80001a50	  x6=0x80001a50
       34245000	      3423	00000000	00000013	addi	x0,x0,0	  x0:0x00000000
       34255000	      3424	80001a94	00000013	addi	x0,x0,0	  x0:0x00000000
       34265000	      3425	80001a98	fb5ff1ef	jal	x3,80001a98	  x3=0x80001a98
       34275000	      3426	00000000	00000013	addi	x0,x0,0	  x0:0x00000000
       34285000	      3427	80001a48	00000013	addi	x0,x0,0	  x0:0x00000000
       34295000	      3428	80001a4c	0180036f	jal	x6,80001a4c	  x6=0x80001a4c
       34305000	      3429	00000000	00000013	addi	x0,x0,0	  x0:0x00000000
       34315000	      3430	80001a60	00000013	addi	x0,x0,0	  x0:0x00000000
       34325000	      3431	80001a64	fe1ff0ef	jal	x1,80001a64	  x1=0x80001a64
       34335000	      3432	00000000	00000013	addi	x0,x0,0	  x0:0x00000000
       34345000	      3433	80001a40	00000013	addi	x0,x0,0	  x0:0x00000000
       34355000	      3434	80001a44	024000ef	jal	x1,80001a44	  x1=0x80001a44
       34365000	      3435	00000000	00000013	addi	x0,x0,0	  x0:0x00000000
       34375000	      3436	80001a64	00000013	addi	x0,x0,0	  x0:0x00000000
       34385000	      3437	80001a68	02c000ef	jal	x1,80001a68	  x1=0x80001a68
       34395000	      3438	00000000	00000013	addi	x0,x0,0	  x0:0x00000000
       34405000	      3439	80001a90	00000013	addi	x0,x0,0	  x0:0x00000000
       34415000	      3440	80001a94	fe9ff76f	jal	x14,80001a94	 x14=0x80001a94
       34425000	      3441	00000000	00000013	addi	x0,x0,0	  x0:0x00000000
       34435000	      3442	80001a78	00000013	addi	x0,x0,0	  x0:0x00000000
       34445000	      3443	80001a7c	0200016f	jal	x2,80001a7c	  x2=0x80001a7c
       34455000	      3444	00000000	00000013	addi	x0,x0,0	  x0:0x00000000
       34465000	      3445	80001a98	00000013	addi	x0,x0,0	  x0:0x00000000
       34475000	      3446	80001a9c	73e2bb13	sltiu	x22,x5,1854	  x5:0x00000000 x22=0x00000001
       34485000	      3447	80001aa0	048000ef	jal	x1,80001aa0	  x1=0x80001aa0
       34495000	      3448	00000000	00000013	addi	x0,x0,0	  x0:0x00000000
       34505000	      3449	80001ae4	00000013	addi	x0,x0,0	  x0:0x00000000
       34515000	      3450	80001ae8	fc1ff3ef	jal	x7,80001ae8	  x7=0x80001ae8
       34525000	      3451	00000000	00000013	addi	x0,x0,0	  x0:0x00000000
       34535000	      3452	80001aa4	00000013	addi	x0,x0,0	  x0:0x00000000
       34545000	      3453	80001aa8	048001ef	jal	x3,80001aa8	  x3=0x80001aa8
       34555000	      3454	00000000	00000013	addi	x0,x0,0	  x0:0x00000000
       34565000	      3455	80001aec	00000013	addi	x0,x0,0	  x0:0x00000000
       34575000	      3456	80001af0	0140036f	jal	x6,80001af0	  x6=0x80001af0
       34585000	      3457	00000000	00000013	addi	x0,x0,0	  x0:0x00000000
       34595000	      3458	80001b00	00000013	addi	x0,x0,0	  x0:0x00000000
       34605000	      3459	80001b04	fadff0ef	jal	x1,80001b04	  x1=0x80001b04
       34615000	      3460	00000000	00000013	addi	x0,x0,0	  x0:0x00000000
       34625000	      3461	80001aac	00000013	addi	x0,x0,0	  x0:0x00000000
       34635000	      3462	80001ab0	01c000ef	jal	x1,80001ab0	  x1=0x80001ab0
       34645000	      3463	00000000	00000013	addi	x0,x0,0	  x0:0x00000000
       34655000	      3464	80001ac8	00000013	addi	x0,x0,0	  x0:0x00000000
       34665000	      3465	80001acc	ff9ff6ef	jal	x13,80001acc	 x13=0x80001acc
       34675000	      3466	00000000	00000013	addi	x0,x0,0	  x0:0x00000000
       34685000	      3467	80001ac0	00000013	addi	x0,x0,0	  x0:0x00000000
       34695000	      3468	80001ac4	fe9ff9ef	jal	x19,80001ac4	 x19=0x80001ac4
       34705000	      3469	00000000	00000013	addi	x0,x0,0	  x0:0x00000000
       34715000	      3470	80001aa8	00000013	addi	x0,x0,0	  x0:0x00000000
       34725000	      3471	80001aac	038000ef	jal	x1,80001aac	  x1=0x80001aac
       34735000	      3472	00000000	00000013	addi	x0,x0,0	  x0:0x00000000
       34745000	      3473	80001ae0	00000013	addi	x0,x0,0	  x0:0x00000000
       34755000	      3474	80001ae4	ffdff36f	jal	x6,80001ae4	  x6=0x80001ae4
       34765000	      3475	00000000	00000013	addi	x0,x0,0	  x0:0x00000000
       34775000	      3476	80001adc	00000013	addi	x0,x0,0	  x0:0x00000000
       34785000	      3477	80001ae0	fc5ff36f	jal	x6,80001ae0	  x6=0x80001ae0
       34795000	      3478	00000000	00000013	addi	x0,x0,0	  x0:0x00000000
       34805000	      3479	80001aa0	00000013	addi	x0,x0,0	  x0:0x00000000
       34815000	      3480	80001aa4	0300036f	jal	x6,80001aa4	  x6=0x80001aa4
       34825000	      3481	00000000	00000013	addi	x0,x0,0	  x0:0x00000000
       34835000	      3482	80001ad0	00000013	addi	x0,x0,0	  x0:0x00000000
       34845000	      3483	80001ad4	0080016f	jal	x2,80001ad4	  x2=0x80001ad4
       34855000	      3484	00000000	00000013	addi	x0,x0,0	  x0:0x00000000
       34865000	      3485	80001ad8	00000013	addi	x0,x0,0	  x0:0x00000000
       34875000	      3486	80001adc	fddff0ef	jal	x1,80001adc	  x1=0x80001adc
       34885000	      3487	00000000	00000013	addi	x0,x0,0	  x0:0x00000000
       34895000	      3488	80001ab4	00000013	addi	x0,x0,0	  x0:0x00000000
       34905000	      3489	80001ab8	ffdff0ef	jal	x1,80001ab8	  x1=0x80001ab8
       34915000	      3490	00000000	00000013	addi	x0,x0,0	  x0:0x00000000
       34925000	      3491	80001ab0	00000013	addi	x0,x0,0	  x0:0x00000000
       34935000	      3492	80001ab4	0140036f	jal	x6,80001ab4	  x6=0x80001ab4
       34945000	      3493	00000000	00000013	addi	x0,x0,0	  x0:0x00000000
       34955000	      3494	80001ac4	00000013	addi	x0,x0,0	  x0:0x00000000
       34965000	      3495	80001ac8	024000ef	jal	x1,80001ac8	  x1=0x80001ac8
       34975000	      3496	00000000	00000013	addi	x0,x0,0	  x0:0x00000000
       34985000	      3497	80001ae8	00000013	addi	x0,x0,0	  x0:0x00000000
       34995000	      3498	80001aec	00c000ef	jal	x1,80001aec	  x1=0x80001aec
       35005000	      3499	00000000	00000013	addi	x0,x0,0	  x0:0x00000000
       35015000	      3500	80001af4	00000013	addi	x0,x0,0	  x0:0x00000000
       35025000	      3501	80001af8	fc9ff0ef	jal	x1,80001af8	  x1=0x80001af8
       35035000	      3502	00000000	00000013	addi	x0,x0,0	  x0:0x00000000
       35045000	      3503	80001abc	00000013	addi	x0,x0,0	  x0:0x00000000
       35055000	      3504	80001ac0	018004ef	jal	x9,80001ac0	  x9=0x80001ac0
       35065000	      3505	00000000	00000013	addi	x0,x0,0	  x0:0x00000000
       35075000	      3506	80001ad4	00000013	addi	x0,x0,0	  x0:0x00000000
       35085000	      3507	80001ad8	028000ef	jal	x1,80001ad8	  x1=0x80001ad8
       35095000	      3508	00000000	00000013	addi	x0,x0,0	  x0:0x00000000
       35105000	      3509	80001afc	00000013	addi	x0,x0,0	  x0:0x00000000
       35115000	      3510	80001b00	fbdff0ef	jal	x1,80001b00	  x1=0x80001b00
       35125000	      3511	00000000	00000013	addi	x0,x0,0	  x0:0x00000000
       35135000	      3512	80001ab8	00000013	addi	x0,x0,0	  x0:0x00000000
       35145000	      3513	80001abc	0400056f	jal	x10,80001abc	 x10=0x80001abc
       35155000	      3514	00000000	00000013	addi	x0,x0,0	  x0:0x00000000
       35165000	      3515	80001af8	00000013	addi	x0,x0,0	  x0:0x00000000
       35175000	      3516	80001afc	ff9ff0ef	jal	x1,80001afc	  x1=0x80001afc
       35185000	      3517	00000000	00000013	addi	x0,x0,0	  x0:0x00000000
       35195000	      3518	80001af0	00000013	addi	x0,x0,0	  x0:0x00000000
       35205000	      3519	80001af4	014000ef	jal	x1,80001af4	  x1=0x80001af4
       35215000	      3520	00000000	00000013	addi	x0,x0,0	  x0:0x00000000
       35225000	      3521	80001b04	00000013	addi	x0,x0,0	  x0:0x00000000
       35235000	      3522	80001b08	fc9ff0ef	jal	x1,80001b08	  x1=0x80001b08
       35245000	      3523	00000000	00000013	addi	x0,x0,0	  x0:0x00000000
       35255000	      3524	80001acc	00000013	addi	x0,x0,0	  x0:0x00000000
       35265000	      3525	80001ad0	03c000ef	jal	x1,80001ad0	  x1=0x80001ad0
       35275000	      3526	00000000	00000013	addi	x0,x0,0	  x0:0x00000000
       35285000	      3527	80001b08	00000013	addi	x0,x0,0	  x0:0x00000000
       35295000	      3528	80001b0c	004000ef	jal	x1,80001b0c	  x1=0x80001b0c
       35305000	      3529	00000000	00000013	addi	x0,x0,0	  x0:0x00000000
       35315000	      3530	80001b0c	00000013	addi	x0,x0,0	  x0:0x00000000
       35325000	      3531	80001b10	5bebcc93	xori	x25,x23,1470	 x23:0xc07b7000 x25=0xc07b75be
       35335000	      3532	80001b14	018000ef	jal	x1,80001b14	  x1=0x80001b14
       35345000	      3533	00000000	00000013	addi	x0,x0,0	  x0:0x00000000
       35355000	      3534	80001b28	00000013	addi	x0,x0,0	  x0:0x00000000
       35365000	      3535	80001b2c	00c005ef	jal	x11,80001b2c	 x11=0x80001b2c
       35375000	      3536	00000000	00000013	addi	x0,x0,0	  x0:0x00000000
       35385000	      3537	80001b34	00000013	addi	x0,x0,0	  x0:0x00000000
       35395000	      3538	80001b38	00c000ef	jal	x1,80001b38	  x1=0x80001b38
       35405000	      3539	00000000	00000013	addi	x0,x0,0	  x0:0x00000000
       35415000	      3540	80001b40	00000013	addi	x0,x0,0	  x0:0x00000000
       35425000	      3541	80001b44	0080016f	jal	x2,80001b44	  x2=0x80001b44
       35435000	      3542	00000000	00000013	addi	x0,x0,0	  x0:0x00000000
       35445000	      3543	80001b48	00000013	addi	x0,x0,0	  x0:0x00000000
       35455000	      3544	80001b4c	fe9ff0ef	jal	x1,80001b4c	  x1=0x80001b4c
       35465000	      3545	00000000	00000013	addi	x0,x0,0	  x0:0x00000000
       35475000	      3546	80001b30	00000013	addi	x0,x0,0	  x0:0x00000000
       35485000	      3547	80001b34	00c0036f	jal	x6,80001b34	  x6=0x80001b34
       35495000	      3548	00000000	00000013	addi	x0,x0,0	  x0:0x00000000
       35505000	      3549	80001b3c	00000013	addi	x0,x0,0	  x0:0x00000000
       35515000	      3550	80001b40	fd9ff36f	jal	x6,80001b40	  x6=0x80001b40
       35525000	      3551	00000000	00000013	addi	x0,x0,0	  x0:0x00000000
       35535000	      3552	80001b14	00000013	addi	x0,x0,0	  x0:0x00000000
       35545000	      3553	80001b18	0180036f	jal	x6,80001b18	  x6=0x80001b18
       35555000	      3554	00000000	00000013	addi	x0,x0,0	  x0:0x00000000
       35565000	      3555	80001b2c	00000013	addi	x0,x0,0	  x0:0x00000000
       35575000	      3556	80001b30	ff5ff0ef	jal	x1,80001b30	  x1=0x80001b30
       35585000	      3557	00000000	00000013	addi	x0,x0,0	  x0:0x00000000
       35595000	      3558	80001b20	00000013	addi	x0,x0,0	  x0:0x00000000
       35605000	      3559	80001b24	ff9ff66f	jal	x12,80001b24	 x12=0x80001b24
       35615000	      3560	00000000	00000013	addi	x0,x0,0	  x0:0x00000000
       35625000	      3561	80001b18	00000013	addi	x0,x0,0	  x0:0x00000000
       35635000	      3562	80001b1c	02c000ef	jal	x1,80001b1c	  x1=0x80001b1c
       35645000	      3563	00000000	00000013	addi	x0,x0,0	  x0:0x00000000
       35655000	      3564	80001b44	00000013	addi	x0,x0,0	  x0:0x00000000
       35665000	      3565	80001b48	fe1ff0ef	jal	x1,80001b48	  x1=0x80001b48
       35675000	      3566	00000000	00000013	addi	x0,x0,0	  x0:0x00000000
       35685000	      3567	80001b24	00000013	addi	x0,x0,0	  x0:0x00000000
       35695000	      3568	80001b28	ff9ff0ef	jal	x1,80001b28	  x1=0x80001b28
       35705000	      3569	00000000	00000013	addi	x0,x0,0	  x0:0x00000000
       35715000	      3570	80001b1c	00000013	addi	x0,x0,0	  x0:0x00000000
       35725000	      3571	80001b20	01c0036f	jal	x6,80001b20	  x6=0x80001b20
       35735000	      3572	00000000	00000013	addi	x0,x0,0	  x0:0x00000000
       35745000	      3573	80001b38	00000013	addi	x0,x0,0	  x0:0x00000000
       35755000	      3574	80001b3c	0140016f	jal	x2,80001b3c	  x2=0x80001b3c
       35765000	      3575	00000000	00000013	addi	x0,x0,0	  x0:0x00000000
       35775000	      3576	80001b4c	00000013	addi	x0,x0,0	  x0:0x00000000
       35785000	      3577	80001b50	018a5313	srli	x6,x20,0x18	 x20:0x80001924  x6=0x00000080
       35795000	      3578	80001b54	00d72133	slt	x2,x14,x13	 x14:0x80001a94 x13:0x80001acc  x2=0x00000001
       35805000	      3579	80001b58	008ac5b3	xor	x11,x21,x8	 x21:0x8000190c  x8:0x80001a6c x11=0x00000360
       35815000	      3580	80001b5c	c4382193	slti	x3,x16,-957	 x16:0x800018fc  x3=0x00000001
       35825000	      3581	80001b60	0053a833	slt	x16,x7,x5	  x7:0x80001ae8  x5:0x00000000 x16=0x00000001
       35835000	      3582	80001b64	41815693	srai	x13,x2,0x18	  x2:0x00000001 x13=0x00000000
       35845000	      3583	80001b68	2bdccd13	xori	x26,x25,701	 x25:0xc07b75be x26=0xc07b7703
       35855000	      3584	80001b6c	1fb5cc13	xori	x24,x11,507	 x11:0x00000360 x24=0x0000029b
       35865000	      3585	80001b70	005fe5b3	or	x11,x31,x5	 x31:0x80001970  x5:0x00000000 x11=0x80001970
       35875000	      3586	80001b74	0294da63	bge	x9,x9,80001ba8	  x9:0x80001ac0  x9:0x80001ac0
       35885000	      3587	00000000	00000013	addi	x0,x0,0	  x0:0x00000000
       35895000	      3588	80001ba4	00000013	addi	x0,x0,0	  x0:0x00000000
       35905000	      3589	80001ba8	00b7de93	srli	x29,x15,0xb	 x15:0x00000000 x29=0x00000000
       35915000	      3590	80001bac	353b3393	sltiu	x7,x22,851	 x22:0x00000001  x7=0x00000001
       35925000	      3591	80001bb0	053c6863	bltu	x24,x19,80001c00	 x24:0x0000029b x19:0x80001ac4
       35935000	      3592	00000000	00000013	addi	x0,x0,0	  x0:0x00000000
       35945000	      3593	80001bfc	00000013	addi	x0,x0,0	  x0:0x00000000
       35955000	      3594	80001c00	0063feb3	and	x29,x7,x6	  x7:0x00000001  x6:0x00000080 x29=0x00000000
       35965000	      3595	80001c04	00000013	addi	x0,x0,0	  x0:0x00000000
       35975000	      3596	80001c08	f266af93	slti	x31,x13,-218	 x13:0x00000000 x31=0x00000000
       35985000	      3597	80001c0c	01955463	bge	x10,x25,80001c14	 x10:0x80001abc x25:0xc07b75be
       35995000	      3598	80001c10	001c4eb3	xor	x29,x24,x1	 x24:0x0000029b  x1:0x80001b28 x29=0x800019b3
       36005000	      3599	80001c14	a75fad13	slti	x26,x31,-1419	 x31:0x00000000 x26=0x00000000
       36015000	      3600	80001c18	6dbffc13	andi	x24,x31,1755	 x31:0x00000000 x24=0x00000000
       36025000	      3601	80001c1c	d228d9b7	lui	x19,0xd228d	 x19=0xd228d000
       36035000	      3602	80001c20	009a77b3	and	x15,x20,x9	 x20:0x80001924  x9:0x80001ac0 x15=0x80001800
       36045000	      3603	80001c24	0049dd13	srli	x26,x19,0x4	 x19:0xd228d000 x26=0x0d228d00
       36055000	      3604	80001c28	357b9c17	auipc	x24,0x357b9	 x24=0xb57bac24
       36065000	      3605	80001c2c	a1606bb7	lui	x23,0xa1606	 x23=0xa1606000
       36075000	      3606	80001c30	00c33433	sltu	x8,x6,x12	  x6:0x00000080 x12:0x80001b24  x8=0x00000001
       36085000	      3607	80001c34	015a1513	slli	x10,x20,0x15	 x20:0x80001924 x10=0x24800000
       36095000	      3608	80001c38	06f3b913	sltiu	x18,x7,111	  x7:0x00000001 x18=0x00000001
       36105000	      3609	80001c3c	40bede33	sra	x28,x29,x11	 x29:0x800019b3 x11:0x80001970 x28=0xffff8000
       36115000	      3610	80001c40	01d9ac33	slt	x24,x19,x29	 x19:0xd228d000 x29:0x800019b3 x24=0x00000000
       36125000	      3611	80001c44	00d09e93	slli	x29,x1,0xd	  x1:0x80001b28 x29=0x03650000
       36135000	      3612	80001c48	0124d3b3	srl	x7,x9,x18	  x9:0x80001ac0 x18:0x00000001  x7=0x40000d60
       36145000	      3613	80001c4c	0563f463	bgeu	x7,x22,80001c94	  x7:0x40000d60 x22:0x00000001
       36155000	      3614	00000000	00000013	addi	x0,x0,0	  x0:0x00000000
       36165000	      3615	80001c90	00000013	addi	x0,x0,0	  x0:0x00000000
       36175000	      3616	80001c94	410859b3	sra	x19,x16,x16	 x16:0x00000001 x16:0x00000001 x19=0x00000000
       36185000	      3617	80001c98	40f4d193	srai	x3,x9,0xf	  x9:0x80001ac0  x3=0xffff0000
       36195000	      3618	80001c9c	01054333	xor	x6,x10,x16	 x10:0x24800000 x16:0x00000001  x6=0x24800001
       36205000	      3619	80001ca0	40f6dbb3	sra	x23,x13,x15	 x13:0x00000000 x15:0x80001800 x23=0x00000000
       36215000	      3620	80001ca4	70c94a13	xori	x20,x18,1804	 x18:0x00000001 x20=0x0000070d
       36225000	      3621	80001ca8	00000013	addi	x0,x0,0	  x0:0x00000000
       36235000	      3622	80001cac	5a2e9717	auipc	x14,0x5a2e9	 x14=0xda2eaca8
       36245000	      3623	80001cb0	d4fca117	auipc	x2,0xd4fca	  x2=0x54fcbcac
       36255000	      3624	80001cb4	0085f633	and	x12,x11,x8	 x11:0x80001970  x8:0x00000001 x12=0x00000000
       36265000	      3625	80001cb8	05d74263	blt	x14,x29,80001cfc	 x14:0xda2eaca8 x29:0x03650000
       36275000	      3626	00000000	00000013	addi	x0,x0,0	  x0:0x00000000
       36285000	      3627	80001cf8	00000013	addi	x0,x0,0	  x0:0x00000000
       36295000	      3628	80001cfc	01afc8b3	xor	x17,x31,x26	 x31:0x00000000 x26:0x0d228d00 x17=0x0d228d00
       36305000	      3629	80001d00	a5928193	addi	x3,x5,-1447	  x5:0x00000000  x3=0xfffffa59
       36315000	      3630	80001d04	00ccb833	sltu	x16,x25,x12	 x25:0xc07b75be x12:0x00000000 x16=0x00000000
       36325000	      3631	80001d08	08d68693	addi	x13,x13,141	 x13:0x00000000 x13=0x0000008d
       36335000	      3632	80001d0c	4100da33	sra	x20,x1,x16	  x1:0x80001b28 x16:0x00000000 x20=0x80001b28
       36345000	      3633	80001d10	d4222713	slti	x14,x4,-702	  x4:0x80009ef4 x14=0x00000001
       36355000	      3634	80001d14	02d10a63	beq	x2,x13,80001d48	  x2:0x54fcbcac x13:0x0000008d
       36365000	      3635	80001d18	057e0863	beq	x28,x23,80001d68	 x28:0xffff8000 x23:0x00000000
       36375000	      3636	80001d1c	009d71b3	and	x3,x26,x9	 x26:0x0d228d00  x9:0x80001ac0  x3=0x00000800
       36385000	      3637	80001d20	bd762db7	lui	x27,0xbd762	 x27=0xbd762000
       36395000	      3638	80001d24	01939693	slli	x13,x7,0x19	  x7:0x40000d60 x13=0xc0000000
       36405000	      3639	80001d28	00599863	bne	x19,x5,80001d38	 x19:0x00000000  x5:0x00000000
       36415000	      3640	80001d2c	34f1f093	andi	x1,x3,847	  x3:0x00000800  x1=0x00000000
       36425000	      3641	80001d30	0444f863	bgeu	x9,x4,80001d80	  x9:0x80001ac0  x4:0x80009ef4
       36435000	      3642	80001d34	5633f837	lui	x16,0x5633f	 x16=0x5633f000
       36445000	      3643	80001d38	0061dd13	srli	x26,x3,0x6	  x3:0x00000800 x26=0x00000020
       36455000	      3644	80001d3c	00f3fb33	and	x22,x7,x15	  x7:0x40000d60 x15:0x80001800 x22=0x00000800
       36465000	      3645	80001d40	0066e833	or	x16,x13,x6	 x13:0xc0000000  x6:0x24800001 x16=0xe4800001
       36475000	      3646	80001d44	011b9d13	slli	x26,x23,0x11	 x23:0x00000000 x26=0x00000000
       36485000	      3647	80001d48	00273fb3	sltu	x31,x14,x2	 x14:0x00000001  x2:0x54fcbcac x31=0x00000001
       36495000	      3648	80001d4c	55968013	addi	x0,x13,1369	 x13:0xc0000000
       36505000	      3649	80001d50	04c97063	bgeu	x18,x12,80001d90	 x18:0x00000001 x12:0x00000000
       36515000	      3650	00000000	00000013	addi	x0,x0,0	  x0:0x00000000
       36525000	      3651	80001d8c	00000013	addi	x0,x0,0	  x0:0x00000000
       36535000	      3652	80001d90	0122b1b3	sltu	x3,x5,x18	  x5:0x00000000 x18:0x00000001  x3=0x00000001
       36545000	      3653	80001d94	57fd6c13	ori	x24,x26,1407	 x26:0x00000000 x24=0x0000057f
       36555000	      3654	80001d98	608b6d93	ori	x27,x22,1544	 x22:0x00000800 x27=0x00000e08
       36565000	      3655	80001d9c	2b6cca13	xori	x20,x25,694	 x25:0xc07b75be x20=0xc07b7708
       36575000	      3656	80001da0	00cd5b93	srli	x23,x26,0xc	 x26:0x00000000 x23=0x00000000
       36585000	      3657	80001da4	aa0f7393	andi	x7,x30,-1376	 x30:0x80009fc4  x7=0x80009a80
       36595000	      3658	80001da8	152e8913	addi	x18,x29,338	 x29:0x03650000 x18=0x03650152
       36605000	      3659	80001dac	01ef8663	beq	x31,x30,80001db8	 x31:0x00000001 x30:0x80009fc4
       36615000	      3660	80001db0	ae6e8393	addi	x7,x29,-1306	 x29:0x03650000  x7=0x0364fae6
       36625000	      3661	80001db4	77c4ad93	slti	x27,x9,1916	  x9:0x80001ac0 x27=0x00000001
       36635000	      3662	80001db8	01a54933	xor	x18,x10,x26	 x10:0x24800000 x26:0x00000000 x18=0x24800000
       36645000	      3663	80001dbc	037a7c63	bgeu	x20,x23,80001df4	 x20:0xc07b7708 x23:0x00000000
       36655000	      3664	00000000	00000013	addi	x0,x0,0	  x0:0x00000000
       36665000	      3665	80001df0	00000013	addi	x0,x0,0	  x0:0x00000000
       36675000	      3666	80001df4	00000013	addi	x0,x0,0	  x0:0x00000000
       36685000	      3667	80001df8	018ce933	or	x18,x25,x24	 x25:0xc07b75be x24:0x0000057f x18=0xc07b75ff
       36695000	      3668	80001dfc	052e4263	blt	x28,x18,80001e40	 x28:0xffff8000 x18:0xc07b75ff
       36705000	      3669	80001e00	bd3efb13	andi	x22,x29,-1069	 x29:0x03650000 x22=0x03650000
       36715000	      3670	80001e04	a4e5c897	auipc	x17,0xa4e5c	 x17=0x24e5de00
       36725000	      3671	80001e08	00c77cb3	and	x25,x14,x12	 x14:0x00000001 x12:0x00000000 x25=0x00000000
       36735000	      3672	80001e0c	555e7037	lui	x0,0x555e7	
       36745000	      3673	80001e10	01024663	blt	x4,x16,80001e1c	  x4:0x80009ef4 x16:0xe4800001
       36755000	      3674	00000000	00000013	addi	x0,x0,0	  x0:0x00000000
       36765000	      3675	80001e18	00000013	addi	x0,x0,0	  x0:0x00000000
       36775000	      3676	80001e1c	c123fa13	andi	x20,x7,-1006	  x7:0x0364fae6 x20=0x0364f802
       36785000	      3677	80001e20	0036d593	srli	x11,x13,0x3	 x13:0xc0000000 x11=0x18000000
       36795000	      3678	80001e24	7db60597	auipc	x11,0x7db60	 x11=0xfdb61e20
       36805000	      3679	80001e28	036e8a63	beq	x29,x22,80001e5c	 x29:0x03650000 x22:0x03650000
       36815000	      3680	00000000	00000013	addi	x0,x0,0	  x0:0x00000000
       36825000	      3681	80001e58	00000013	addi	x0,x0,0	  x0:0x00000000
       36835000	      3682	80001e5c	b20d8d13	addi	x26,x27,-1248	 x27:0x00000001 x26=0xfffffb21
       36845000	      3683	80001e60	019ff5b3	and	x11,x31,x25	 x31:0x00000001 x25:0x00000000 x11=0x00000000
       36855000	      3684	80001e64	0568f863	bgeu	x17,x22,80001eb4	 x17:0x24e5de00 x22:0x03650000
       36865000	      3685	00000000	00000013	addi	x0,x0,0	  x0:0x00000000
       36875000	      3686	80001eb0	00000013	addi	x0,x0,0	  x0:0x00000000
       36885000	      3687	80001eb4	00809793	slli	x15,x1,0x8	  x1:0x00000000 x15=0x00000000
       36895000	      3688	80001eb8	00befbb3	and	x23,x29,x11	 x29:0x03650000 x11:0x00000000 x23=0x00000000
       36905000	      3689	80001ebc	00535433	srl	x8,x6,x5	  x6:0x24800001  x5:0x00000000  x8=0x24800001
       36915000	      3690	80001ec0	85784c13	xori	x24,x16,-1961	 x16:0xe4800001 x24=0x1b7ff856
       36925000	      3691	80001ec4	40a1d333	sra	x6,x3,x10	  x3:0x00000001 x10:0x24800000  x6=0x00000001
       36935000	      3692	80001ec8	f93ff737	lui	x14,0xf93ff	 x14=0xf93ff000
       36945000	      3693	80001ecc	00334c63	blt	x6,x3,80001ee4	  x6:0x00000001  x3:0x00000001
       36955000	      3694	80001ed0	00ca7893	andi	x17,x20,12	 x20:0x0364f802 x17=0x00000000
       36965000	      3695	80001ed4	01f95a63	bge	x18,x31,80001ee8	 x18:0xc07b75ff x31:0x00000001
       36975000	      3696	80001ed8	e4b33b93	sltiu	x23,x6,-437	  x6:0x00000001 x23=0x00000001
       36985000	      3697	80001edc	01f6ec33	or	x24,x13,x31	 x13:0xc0000000 x31:0x00000001 x24=0xc0000001
       36995000	      3698	80001ee0	0102beb3	sltu	x29,x5,x16	  x5:0x00000000 x16:0xe4800001 x29=0x00000001
       37005000	      3699	80001ee4	e7395397	auipc	x7,0xe7395	  x7=0x67396ee0
       37015000	      3700	80001ee8	022a0c63	beq	x20,x2,80001f20	 x20:0x0364f802  x2:0x54fcbcac
       37025000	      3701	80001eec	41b45893	srai	x17,x8,0x1b	  x8:0x24800001 x17=0x00000004
       37035000	      3702	80001ef0	01fe1e63	bne	x28,x31,80001f0c	 x28:0xffff8000 x31:0x00000001
       37045000	      3703	00000000	00000013	addi	x0,x0,0	  x0:0x00000000
       37055000	      3704	80001f08	00000013	addi	x0,x0,0	  x0:0x00000000
       37065000	      3705	80001f0c	00000013	addi	x0,x0,0	  x0:0x00000000
       37075000	      3706	80001f10	4c6eea13	ori	x20,x29,1222	 x29:0x00000001 x20=0x000004c7
       37085000	      3707	80001f14	002435b3	sltu	x11,x8,x2	  x8:0x24800001  x2:0x54fcbcac x11=0x00000001
       37095000	      3708	80001f18	00df4a63	blt	x30,x13,80001f2c	 x30:0x80009fc4 x13:0xc0000000
       37105000	      3709	00000000	00000013	addi	x0,x0,0	  x0:0x00000000
       37115000	      3710	80001f28	00000013	addi	x0,x0,0	  x0:0x00000000
       37125000	      3711	80001f2c	008b5263	bge	x22,x8,80001f30	 x22:0x03650000  x8:0x24800001
       37135000	      3712	80001f30	408d53b3	sra	x7,x26,x8	 x26:0xfffffb21  x8:0x24800001  x7=0xfffffd90
       37145000	      3713	80001f34	40d4d933	sra	x18,x9,x13	  x9:0x80001ac0 x13:0xc0000000 x18=0x80001ac0
       37155000	      3714	80001f38	00942e33	slt	x28,x8,x9	  x8:0x24800001  x9:0x80001ac0 x28=0x00000000
       37165000	      3715	80001f3c	004b7db3	and	x27,x22,x4	 x22:0x03650000  x4:0x80009ef4 x27=0x00000000
       37175000	      3716	80001f40	234afd13	andi	x26,x21,564	 x21:0x8000190c x26=0x00000004
       37185000	      3717	80001f44	01c37463	bgeu	x6,x28,80001f4c	  x6:0x00000001 x28:0x00000000
       37195000	      3718	00000000	00000013	addi	x0,x0,0	  x0:0x00000000
       37205000	      3719	80001f48	00000013	addi	x0,x0,0	  x0:0x00000000
       37215000	      3720	80001f4c	018db333	sltu	x6,x27,x24	 x27:0x00000000 x24:0xc0000001  x6=0x00000001
       37225000	      3721	80001f50	50347a93	andi	x21,x8,1283	  x8:0x24800001 x21=0x00000001
       37235000	      3722	80001f54	013a5663	bge	x20,x19,80001f60	 x20:0x000004c7 x19:0x00000000
       37245000	      3723	00000000	00000013	addi	x0,x0,0	  x0:0x00000000
       37255000	      3724	80001f5c	00000013	addi	x0,x0,0	  x0:0x00000000
       37265000	      3725	80001f60	00f496b7	lui	x13,0xf49	 x13=0x00f49000
       37275000	      3726	80001f64	00a0d6b3	srl	x13,x1,x10	  x1:0x00000000 x10:0x24800000 x13=0x00000000
       37285000	      3727	80001f68	0007c833	xor	x16,x15,x0	 x15:0x00000000  x0:0x00000000 x16=0x00000000
       37295000	      3728	80001f6c	818dd537	lui	x10,0x818dd	 x10=0x818dd000
       37305000	      3729	80001f70	415b0013	addi	x0,x22,1045	 x22:0x03650000
       37315000	      3730	80001f74	cec40913	addi	x18,x8,-788	  x8:0x24800001 x18=0x247ffced
       37325000	      3731	80001f78	01ac1b33	sll	x22,x24,x26	 x24:0xc0000001 x26:0x00000004 x22=0x00000010
       37335000	      3732	80001f7c	02346a63	bltu	x8,x3,80001fb0	  x8:0x24800001  x3:0x00000001
       37345000	      3733	80001f80	01623033	sltu	x0,x4,x22	  x4:0x80009ef4 x22:0x00000010
       37355000	      3734	80001f84	94c13193	sltiu	x3,x2,-1716	  x2:0x54fcbcac  x3=0x00000001
       37365000	      3735	80001f88	01be1c63	bne	x28,x27,80001fa0	 x28:0x00000000 x27:0x00000000
       37375000	      3736	80001f8c	00885693	srli	x13,x16,0x8	 x16:0x00000000 x13=0x00000000
       37385000	      3737	80001f90	011ceb33	or	x22,x25,x17	 x25:0x00000000 x17:0x00000004 x22=0x00000004
       37395000	      3738	80001f94	012f0a33	add	x20,x30,x18	 x30:0x80009fc4 x18:0x247ffced x20=0xa4809cb1
       37405000	      3739	80001f98	c83b3513	sltiu	x10,x22,-893	 x22:0x00000004 x10=0x00000001
       37415000	      3740	80001f9c	3e44bd17	auipc	x26,0x3e44b	 x26=0xbe44cf98
       37425000	      3741	80001fa0	db0be097	auipc	x1,0xdb0be	  x1=0x5b0bff9c
       37435000	      3742	80001fa4	334d6093	ori	x1,x26,820	 x26:0xbe44cf98  x1=0xbe44cfbc
       37445000	      3743	80001fa8	04586463	bltu	x16,x5,80001ff0	 x16:0x00000000  x5:0x00000000
       37455000	      3744	80001fac	018bd133	srl	x2,x23,x24	 x23:0x00000001 x24:0xc0000001  x2=0x00000000
       37465000	      3745	80001fb0	01080c63	beq	x16,x16,80001fc8	 x16:0x00000000 x16:0x00000000
       37475000	      3746	00000000	00000013	addi	x0,x0,0	  x0:0x00000000
       37485000	      3747	80001fc4	00000013	addi	x0,x0,0	  x0:0x00000000
       37495000	      3748	80001fc8	01c10133	add	x2,x2,x28	  x2:0x00000000 x28:0x00000000  x2=0x00000000
       37505000	      3749	80001fcc	0897b937	lui	x18,0x897b	 x18=0x0897b000
       37515000	      3750	80001fd0	7df87e93	andi	x29,x16,2015	 x16:0x00000000 x29=0x00000000
       37525000	      3751	80001fd4	b670a513	slti	x10,x1,-1177	  x1:0xbe44cfbc x10=0x00000001
       37535000	      3752	80001fd8	415bf393	andi	x7,x23,1045	 x23:0x00000001  x7=0x00000001
       37545000	      3753	80001fdc	412954b3	sra	x9,x18,x18	 x18:0x0897b000 x18:0x0897b000  x9=0x0897b000
       37555000	      3754	80001fe0	6ffbf793	andi	x15,x23,1791	 x23:0x00000001 x15=0x00000001
       37565000	      3755	80001fe4	01f0e0b3	or	x1,x1,x31	  x1:0xbe44cfbc x31:0x00000001  x1=0xbe44cfbd
       37575000	      3756	80001fe8	e806ba13	sltiu	x20,x13,-384	 x13:0x00000000 x20=0x00000001
       37585000	      3757	80001fec	f008d6b7	lui	x13,0xf008d	 x13=0xf008d000
       37595000	      3758	80001ff0	24843313	sltiu	x6,x8,584	  x8:0x24800001  x6=0x00000000
       37605000	      3759	80001ff4	01cd1cb3	sll	x25,x26,x28	 x26:0xbe44cf98 x28:0x00000000 x25=0xbe44cf98
       37615000	      3760	80001ff8	019511b3	sll	x3,x10,x25	 x10:0x00000001 x25:0xbe44cf98  x3=0x01000000
       37625000	      3761	80001ffc	a46a8493	addi	x9,x21,-1466	 x21:0x00000001  x9=0xfffffa47
       37635000	      3762	80002000	01c7f133	and	x2,x15,x28	 x15:0x00000001 x28:0x00000000  x2=0x00000000
       37645000	      3763	80002004	01d101b3	add	x3,x2,x29	  x2:0x00000000 x29:0x00000000  x3=0x00000000
       37655000	      3764	80002008	afb10d93	addi	x27,x2,-1285	  x2:0x00000000 x27=0xfffffafb
       37665000	      3765	8000200c	05dd6863	bltu	x26,x29,8000205c	 x26:0xbe44cf98 x29:0x00000000
       37675000	      3766	80002010	00aad893	srli	x17,x21,0xa	 x21:0x00000001 x17=0x00000000
       37685000	      3767	80002014	40010cb3	sub	x25,x2,x0	  x2:0x00000000  x0:0x00000000 x25=0x00000000
       37695000	      3768	80002018	034bda63	bge	x23,x20,8000204c	 x23:0x00000001 x20:0x00000001
       37705000	      3769	00000000	00000013	addi	x0,x0,0	  x0:0x00000000
       37715000	      3770	80002048	00000013	addi	x0,x0,0	  x0:0x00000000
       37725000	      3771	8000204c	04984063	blt	x16,x9,8000208c	 x16:0x00000000  x9:0xfffffa47
       37735000	      3772	80002050	41bfd893	srai	x17,x31,0x1b	 x31:0x00000001 x17=0x00000000
       37745000	      3773	80002054	8f02e497	auipc	x9,0x8f02e	  x9=0x0f030050
       37755000	      3774	80002058	410a89b3	sub	x19,x21,x16	 x21:0x00000001 x16:0x00000000 x19=0x00000001
       37765000	      3775	8000205c	0105e263	bltu	x11,x16,80002060	 x11:0x00000001 x16:0x00000000
       37775000	      3776	80002060	01f01633	sll	x12,x0,x31	  x0:0x00000000 x31:0x00000001 x12=0x00000000
       37785000	      3777	80002064	019ada93	srli	x21,x21,0x19	 x21:0x00000001 x21=0x00000000
       37795000	      3778	80002068	018f5db3	srl	x27,x30,x24	 x30:0x80009fc4 x24:0xc0000001 x27=0x40004fe2
       37805000	      3779	8000206c	01418eb3	add	x29,x3,x20	  x3:0x00000000 x20:0x00000001 x29=0x00000001
       37815000	      3780	80002070	41f55a33	sra	x20,x10,x31	 x10:0x00000001 x31:0x00000001 x20=0x00000000
       37825000	      3781	80002074	02de8c63	beq	x29,x13,800020ac	 x29:0x00000001 x13:0xf008d000
       37835000	      3782	80002078	8bce8a93	addi	x21,x29,-1860	 x29:0x00000001 x21=0xfffff8bd
       37845000	      3783	8000207c	00461663	bne	x12,x4,80002088	 x12:0x00000000  x4:0x80009ef4
       37855000	      3784	00000000	00000013	addi	x0,x0,0	  x0:0x00000000
       37865000	      3785	80002084	00000013	addi	x0,x0,0	  x0:0x00000000
       37875000	      3786	80002088	40068133	sub	x2,x13,x0	 x13:0xf008d000  x0:0x00000000  x2=0xf008d000
       37885000	      3787	8000208c	4162d1b3	sra	x3,x5,x22	  x5:0x00000000 x22:0x00000004  x3=0x00000000
       37895000	      3788	80002090	01d19a63	bne	x3,x29,800020a4	  x3:0x00000000 x29:0x00000001
       37905000	      3789	00000000	00000013	addi	x0,x0,0	  x0:0x00000000
       37915000	      3790	800020a0	00000013	addi	x0,x0,0	  x0:0x00000000
       37925000	      3791	800020a4	e8526d13	ori	x26,x4,-379	  x4:0x80009ef4 x26=0xfffffef5
       37935000	      3792	800020a8	418bd113	srai	x2,x23,0x18	 x23:0x00000001  x2=0x00000000
       37945000	      3793	800020ac	033bc063	blt	x23,x19,800020cc	 x23:0x00000001 x19:0x00000001
       37955000	      3794	800020b0	02057c63	bgeu	x10,x0,800020e8	 x10:0x00000001  x0:0x00000000
       37965000	      3795	00000000	00000013	addi	x0,x0,0	  x0:0x00000000
       37975000	      3796	800020e4	00000013	addi	x0,x0,0	  x0:0x00000000
       37985000	      3797	800020e8	01e67e63	bgeu	x12,x30,80002104	 x12:0x00000000 x30:0x80009fc4
       37995000	      3798	800020ec	01d8bcb3	sltu	x25,x17,x29	 x17:0x00000000 x29:0x00000001 x25=0x00000001
       38005000	      3799	800020f0	0152f733	and	x14,x5,x21	  x5:0x00000000 x21:0xfffff8bd x14=0x00000000
       38015000	      3800	800020f4	00bbc8b3	xor	x17,x23,x11	 x23:0x00000001 x11:0x00000001 x17=0x00000000
       38025000	      3801	800020f8	016adc13	srli	x24,x21,0x16	 x21:0xfffff8bd x24=0x000003ff
       38035000	      3802	800020fc	00d585b3	add	x11,x11,x13	 x11:0x00000001 x13:0xf008d000 x11=0xf008d001
       38045000	      3803	80002100	08e4e117	auipc	x2,0x8e4e	  x2=0x88e500fc
       38055000	      3804	80002104	8eea4413	xori	x8,x20,-1810	 x20:0x00000000  x8=0xfffff8ee
       38065000	      3805	80002108	01645393	srli	x7,x8,0x16	  x8:0xfffff8ee  x7=0x000003ff
       38075000	      3806	8000210c	000f1f93	slli	x31,x30,0x0	 x30:0x80009fc4 x31=0x80009fc4
       38085000	      3807	80002110	000f9793	slli	x15,x31,0x0	 x31:0x80009fc4 x15=0x80009fc4
       38095000	      3808	80002114	003866b3	or	x13,x16,x3	 x16:0x00000000  x3:0x00000000 x13=0x00000000
       38105000	      3809	80002118	01233a33	sltu	x20,x6,x18	  x6:0x00000000 x18:0x0897b000 x20=0x00000001
       38115000	      3810	8000211c	0133c1b3	xor	x3,x7,x19	  x7:0x000003ff x19:0x00000001  x3=0x000003fe
       38125000	      3811	80002120	c51c6397	auipc	x7,0xc51c6	  x7=0x451c811c
       38135000	      3812	80002124	40d80133	sub	x2,x16,x13	 x16:0x00000000 x13:0x00000000  x2=0x00000000
       38145000	      3813	80002128	40dfdcb3	sra	x25,x31,x13	 x31:0x80009fc4 x13:0x00000000 x25=0x80009fc4
       38155000	      3814	8000212c	0193ecb3	or	x25,x7,x25	  x7:0x451c811c x25:0x80009fc4 x25=0xc51c9fdc
       38165000	      3815	80002130	019ec7b3	xor	x15,x29,x25	 x29:0x00000001 x25:0xc51c9fdc x15=0xc51c9fdd
       38175000	      3816	80002134	04d37463	bgeu	x6,x13,8000217c	  x6:0x00000000 x13:0x00000000
       38185000	      3817	00000000	00000013	addi	x0,x0,0	  x0:0x00000000
       38195000	      3818	80002178	00000013	addi	x0,x0,0	  x0:0x00000000
       38205000	      3819	8000217c	04e20863	beq	x4,x14,800021cc	  x4:0x80009ef4 x14:0x00000000
       38215000	      3820	80002180	bfae2913	slti	x18,x28,-1030	 x28:0x00000000 x18=0x00000000
       38225000	      3821	80002184	00d31c33	sll	x24,x6,x13	  x6:0x00000000 x13:0x00000000 x24=0x00000000
       38235000	      3822	80002188	05c91463	bne	x18,x28,800021d0	 x18:0x00000000 x28:0x00000000
       38245000	      3823	8000218c	c08feab7	lui	x21,0xc08fe	 x21=0xc08fe000
       38255000	      3824	80002190	05698863	beq	x19,x22,800021e0	 x19:0x00000001 x22:0x00000004
       38265000	      3825	80002194	404f0db3	sub	x27,x30,x4	 x30:0x80009fc4  x4:0x80009ef4 x27=0x000000d0
       38275000	      3826	80002198	0181f663	bgeu	x3,x24,800021a4	  x3:0x000003fe x24:0x00000000
       38285000	      3827	00000000	00000013	addi	x0,x0,0	  x0:0x00000000
       38295000	      3828	800021a0	00000013	addi	x0,x0,0	  x0:0x00000000
       38305000	      3829	800021a4	411254b3	sra	x9,x4,x17	  x4:0x80009ef4 x17:0x00000000  x9=0x80009ef4
       38315000	      3830	800021a8	03d9d063	bge	x19,x29,800021c8	 x19:0x00000001 x29:0x00000001
       38325000	      3831	00000000	00000013	addi	x0,x0,0	  x0:0x00000000
       38335000	      3832	800021c4	00000013	addi	x0,x0,0	  x0:0x00000000
       38345000	      3833	800021c8	22954b13	xori	x22,x10,553	 x10:0x00000001 x22=0x00000228
       38355000	      3834	800021cc	4554ca93	xori	x21,x9,1109	  x9:0x80009ef4 x21=0x80009aa1
       38365000	      3835	800021d0	00c5d863	bge	x11,x12,800021e0	 x11:0xf008d001 x12:0x00000000
       38375000	      3836	800021d4	00e28a63	beq	x5,x14,800021e8	  x5:0x00000000 x14:0x00000000
       38385000	      3837	00000000	00000013	addi	x0,x0,0	  x0:0x00000000
       38395000	      3838	800021e4	00000013	addi	x0,x0,0	  x0:0x00000000
       38405000	      3839	800021e8	f4c63b97	auipc	x23,0xf4c63	 x23=0x74c651e4
       38415000	      3840	800021ec	00000013	addi	x0,x0,0	  x0:0x00000000
       38425000	      3841	800021f0	5ecc0e13	addi	x28,x24,1516	 x24:0x00000000 x28=0x000005ec
       38435000	      3842	800021f4	9ad28793	addi	x15,x5,-1619	  x5:0x00000000 x15=0xfffff9ad
       38445000	      3843	800021f8	2ff5c793	xori	x15,x11,767	 x11:0xf008d001 x15=0xf008d2fe
       38455000	      3844	800021fc	01382333	slt	x6,x16,x19	 x16:0x00000000 x19:0x00000001  x6=0x00000001
       38465000	      3845	80002200	00422083	lw	x1,4(x4)	  x4:0x80009ef4  x1=0x800045b8 PA:0x80009ef8
       38475000	      3846	80002204	02420213	addi	x4,x4,36	  x4:0x80009ef4  x4=0x80009f18
       38485000	      3847	80002208	01e21513	slli	x10,x4,0x1e	  x4:0x80009f18 x10=0x00000000
       38495000	      3848	8000220c	00108d93	addi	x27,x1,1	  x1:0x800045b8 x27=0x800045b9
       38505000	      3849	80002210	000d8de7	jalr	x27,x27,0	 x27:0x800045b9 x27=0x80002210
       38515000	      3850	00000000	00000013	addi	x0,x0,0	  x0:0x00000000
       38525000	      3851	800045b8	00000013	addi	x0,x0,0	  x0:0x00000000
       38535000	      3852	800045bc	40145db3	sra	x27,x8,x1	  x8:0xfffff8ee  x1:0x800045b8 x27=0xffffffff
       38545000	      3853	800045c0	019a1a33	sll	x20,x20,x25	 x20:0x00000001 x25:0xc51c9fdc x20=0x10000000
       38555000	      3854	800045c4	b0976893	ori	x17,x14,-1271	 x14:0x00000000 x17=0xfffffb09
       38565000	      3855	800045c8	01591713	slli	x14,x18,0x15	 x18:0x00000000 x14=0x00000000
       38575000	      3856	800045cc	40b9dbb3	sra	x23,x19,x11	 x19:0x00000001 x11:0xf008d001 x23=0x00000000
       38585000	      3857	800045d0	01df5ab3	srl	x21,x30,x29	 x30:0x80009fc4 x29:0x00000001 x21=0x40004fe2
       38595000	      3858	800045d4	3728ec13	ori	x24,x17,882	 x17:0xfffffb09 x24=0xfffffb7b
       38605000	      3859	800045d8	01a70463	beq	x14,x26,800045e0	 x14:0x00000000 x26:0xfffffef5
       38615000	      3860	800045dc	ff63aa37	lui	x20,0xff63a	 x20=0xff63a000
       38625000	      3861	800045e0	89cfe037	lui	x0,0x89cfe	
       38635000	      3862	800045e4	d5f4ad13	slti	x26,x9,-673	  x9:0x80009ef4 x26=0x00000001
       38645000	      3863	800045e8	011549b3	xor	x19,x10,x17	 x10:0x00000000 x17:0xfffffb09 x19=0xfffffb09
       38655000	      3864	800045ec	0097ea63	bltu	x15,x9,80004600	 x15:0xf008d2fe  x9:0x80009ef4
       38665000	      3865	800045f0	a9729697	auipc	x13,0xa9729	 x13=0x2972d5ec
       38675000	      3866	800045f4	00a72d33	slt	x26,x14,x10	 x14:0x00000000 x10:0x00000000 x26=0x00000000
       38685000	      3867	800045f8	40e85813	srai	x16,x16,0xe	 x16:0x00000000 x16=0x00000000
       38695000	      3868	800045fc	019c8e63	beq	x25,x25,80004618	 x25:0xc51c9fdc x25:0xc51c9fdc
       38705000	      3869	00000000	00000013	addi	x0,x0,0	  x0:0x00000000
       38715000	      3870	80004614	00000013	addi	x0,x0,0	  x0:0x00000000
       38725000	      3871	80004618	017556b3	srl	x13,x10,x23	 x10:0x00000000 x23:0x00000000 x13=0x00000000
       38735000	      3872	8000461c	40e158b3	sra	x17,x2,x14	  x2:0x00000000 x14:0x00000000 x17=0x00000000
       38745000	      3873	80004620	00422083	lw	x1,4(x4)	  x4:0x80009f18  x1=0x80004698 PA:0x80009f1c
       38755000	      3874	80004624	d9783813	sltiu	x16,x16,-617	 x16:0x00000000 x16=0x00000001
       38765000	      3875	80004628	03820213	addi	x4,x4,56	  x4:0x80009f18  x4=0x80009f50
       38775000	      3876	8000462c	69c4fb97	auipc	x23,0x69c4f	 x23=0xe9c53628
       38785000	      3877	80004630	01172633	slt	x12,x14,x17	 x14:0x00000000 x17:0x00000000 x12=0x00000000
       38795000	      3878	80004634	a9b92e93	slti	x29,x18,-1381	 x18:0x00000000 x29=0x00000000
       38805000	      3879	80004638	003dd533	srl	x10,x27,x3	 x27:0xffffffff  x3:0x000003fe x10=0x00000003
       38815000	      3880	8000463c	01151893	slli	x17,x10,0x11	 x10:0x00000003 x17=0x00060000
       38825000	      3881	80004640	00008e93	addi	x29,x1,0	  x1:0x80004698 x29=0x80004698
       38835000	      3882	80004644	000e8ee7	jalr	x29,x29,0	 x29:0x80004698 x29=0x80004644
       38845000	      3883	00000000	00000013	addi	x0,x0,0	  x0:0x00000000
       38855000	      3884	80004698	00000013	addi	x0,x0,0	  x0:0x00000000
       38865000	      3885	8000469c	54b16e93	ori	x29,x2,1355	  x2:0x00000000 x29=0x0000054b
       38875000	      3886	800046a0	01d69ab3	sll	x21,x13,x29	 x13:0x00000000 x29:0x0000054b x21=0x00000000
       38885000	      3887	800046a4	f443ec13	ori	x24,x7,-188	  x7:0x451c811c x24=0xffffff5c
       38895000	      3888	800046a8	00000917	auipc	x18,0x0	 x18=0x800046a4
       38905000	      3889	800046ac	b3890913	addi	x18,x18,-1224	 x18:0x800046a4 x18=0x800041dc
       38915000	      3890	800046b0	005030b3	sltu	x1,x0,x5	  x0:0x00000000  x5:0x00000000  x1=0x00000000
       38925000	      3891	800046b4	00e99113	slli	x2,x19,0xe	 x19:0xfffffb09  x2=0xfec24000
       38935000	      3892	800046b8	f6860e13	addi	x28,x12,-152	 x12:0x00000000 x28=0xffffff68
       38945000	      3893	800046bc	2be9fe93	andi	x29,x19,702	 x19:0xfffffb09 x29=0x00000208
       38955000	      3894	800046c0	17590913	addi	x18,x18,373	 x18:0x800041dc x18=0x80004351
       38965000	      3895	800046c4	00000013	addi	x0,x0,0	  x0:0x00000000
       38975000	      3896	800046c8	01435a93	srli	x21,x6,0x14	  x6:0x00000001 x21=0x00000000
       38985000	      3897	800046cc	e8c900e7	jalr	x1,x18,-372	 x18:0x80004351  x1=0x800046cc
       38995000	      3898	00000000	00000013	addi	x0,x0,0	  x0:0x00000000
       39005000	      3899	800041dc	00000013	addi	x0,x0,0	  x0:0x00000000
       39015000	      3900	800041e0	2f29f993	andi	x19,x19,754	 x19:0xfffffb09 x19=0x00000200
       39025000	      3901	800041e4	017c1663	bne	x24,x23,800041f0	 x24:0xffffff5c x23:0xe9c53628
       39035000	      3902	00000000	00000013	addi	x0,x0,0	  x0:0x00000000
       39045000	      3903	800041ec	00000013	addi	x0,x0,0	  x0:0x00000000
       39055000	      3904	800041f0	fc820213	addi	x4,x4,-56	  x4:0x80009f50  x4=0x80009f18
       39065000	      3905	800041f4	4675bf97	auipc	x31,0x4675b	 x31=0xc675f1f0
       39075000	      3906	800041f8	0019e433	or	x8,x19,x1	 x19:0x00000200  x1:0x800046cc  x8=0x800046cc
       39085000	      3907	800041fc	00122223	sw	x1,4(x4)	  x4:0x80009f18  x1:0x800046cc PA:0x80009f1c
       39095000	      3908	80004200	017cae33	slt	x28,x25,x23	 x25:0xc51c9fdc x23:0xe9c53628 x28=0x00000001
       39105000	      3909	80004204	e59d0c13	addi	x24,x26,-423	 x26:0x00000000 x24=0xfffffe59
       39115000	      3910	80004208	417ede33	sra	x28,x29,x23	 x29:0x00000208 x23:0xe9c53628 x28=0x00000002
       39125000	      3911	8000420c	01535133	srl	x2,x6,x21	  x6:0x00000001 x21:0x00000000  x2=0x00000001
       39135000	      3912	80004210	b42a6e13	ori	x28,x20,-1214	 x20:0xff63a000 x28=0xfffffb42
       39145000	      3913	80004214	ffffdd97	auipc	x27,0xffffd	 x27=0x80001210
       39155000	      3914	80004218	60cd8d93	addi	x27,x27,1548	 x27:0x80001210 x27=0x8000181c
       39165000	      3915	8000421c	2b2a8e93	addi	x29,x21,690	 x21:0x00000000 x29=0x000002b2
       39175000	      3916	80004220	fdfd7693	andi	x13,x26,-33	 x26:0x00000000 x13=0x00000000
       39185000	      3917	80004224	15ad8d93	addi	x27,x27,346	 x27:0x8000181c x27=0x80001976
       39195000	      3918	80004228	09e56393	ori	x7,x10,158	 x10:0x00000003  x7=0x0000009f
       39205000	      3919	8000422c	0001ea63	bltu	x3,x0,80004240	  x3:0x000003fe  x0:0x00000000
       39215000	      3920	80004230	83093c13	sltiu	x24,x18,-2000	 x18:0x80004351 x24=0x00000001
       39225000	      3921	80004234	ab254e93	xori	x29,x10,-1358	 x10:0x00000003 x29=0xfffffab1
       39235000	      3922	80004238	40855e13	srai	x28,x10,0x8	 x10:0x00000003 x28=0x00000000
       39245000	      3923	8000423c	796ffb93	andi	x23,x31,1942	 x31:0xc675f1f0 x23=0x00000190
       39255000	      3924	80004240	ea6d80e7	jalr	x1,x27,-346	 x27:0x80001976  x1=0x80004240
       39265000	      3925	00000000	00000013	addi	x0,x0,0	  x0:0x00000000
       39275000	      3926	8000181c	00000013	addi	x0,x0,0	  x0:0x00000000
       39285000	      3927	80001820	01e6d463	bge	x13,x30,80001828	 x13:0x00000000 x30:0x80009fc4
       39295000	      3928	00000000	00000013	addi	x0,x0,0	  x0:0x00000000
       39305000	      3929	80001824	00000013	addi	x0,x0,0	  x0:0x00000000
       39315000	      3930	80001828	fdc20213	addi	x4,x4,-36	  x4:0x80009f18  x4=0x80009ef4
       39325000	      3931	8000182c	019fd993	srli	x19,x31,0x19	 x31:0xc675f1f0 x19=0x00000063
       39335000	      3932	80001830	00122223	sw	x1,4(x4)	  x4:0x80009ef4  x1:0x80004240 PA:0x80009ef8
       39345000	      3933	80001834	40300eb3	sub	x29,x0,x3	  x0:0x00000000  x3:0x000003fe x29=0xfffffc02
       39355000	      3934	80001838	c07b7bb7	lui	x23,0xc07b7	 x23=0xc07b7000
       39365000	      3935	8000183c	014000ef	jal	x1,8000183c	  x1=0x8000183c
       39375000	      3936	00000000	00000013	addi	x0,x0,0	  x0:0x00000000
       39385000	      3937	8000184c	00000013	addi	x0,x0,0	  x0:0x00000000
       39395000	      3938	80001850	010000ef	jal	x1,80001850	  x1=0x80001850
       39405000	      3939	00000000	00000013	addi	x0,x0,0	  x0:0x00000000
       39415000	      3940	8000185c	00000013	addi	x0,x0,0	  x0:0x00000000
       39425000	      3941	80001860	fe1ff0ef	jal	x1,80001860	  x1=0x80001860
       39435000	      3942	00000000	00000013	addi	x0,x0,0	  x0:0x00000000
       39445000	      3943	8000183c	00000013	addi	x0,x0,0	  x0:0x00000000
       39455000	      3944	80001840	00c000ef	jal	x1,80001840	  x1=0x80001840
       39465000	      3945	00000000	00000013	addi	x0,x0,0	  x0:0x00000000
       39475000	      3946	80001848	00000013	addi	x0,x0,0	  x0:0x00000000
       39485000	      3947	8000184c	018000ef	jal	x1,8000184c	  x1=0x8000184c
       39495000	      3948	00000000	00000013	addi	x0,x0,0	  x0:0x00000000
       39505000	      3949	80001860	00000013	addi	x0,x0,0	  x0:0x00000000
       39515000	      3950	80001864	004000ef	jal	x1,80001864	  x1=0x80001864
       39525000	      3951	00000000	00000013	addi	x0,x0,0	  x0:0x00000000
       39535000	      3952	80001864	00000013	addi	x0,x0,0	  x0:0x00000000
       39545000	      3953	80001868	fddff0ef	jal	x1,80001868	  x1=0x80001868
       39555000	      3954	00000000	00000013	addi	x0,x0,0	  x0:0x00000000
       39565000	      3955	80001840	00000013	addi	x0,x0,0	  x0:0x00000000
       39575000	      3956	80001844	0040036f	jal	x6,80001844	  x6=0x80001844
       39585000	      3957	00000000	00000013	addi	x0,x0,0	  x0:0x00000000
       39595000	      3958	80001844	00000013	addi	x0,x0,0	  x0:0x00000000
       39605000	      3959	80001848	024000ef	jal	x1,80001848	  x1=0x80001848
       39615000	      3960	00000000	00000013	addi	x0,x0,0	  x0:0x00000000
       39625000	      3961	80001868	00000013	addi	x0,x0,0	  x0:0x00000000
       39635000	      3962	8000186c	fedff0ef	jal	x1,8000186c	  x1=0x8000186c
       39645000	      3963	00000000	00000013	addi	x0,x0,0	  x0:0x00000000
       39655000	      3964	80001854	00000013	addi	x0,x0,0	  x0:0x00000000
       39665000	      3965	80001858	ffdff36f	jal	x6,80001858	  x6=0x80001858
       39675000	      3966	00000000	00000013	addi	x0,x0,0	  x0:0x00000000
       39685000	      3967	80001850	00000013	addi	x0,x0,0	  x0:0x00000000
       39695000	      3968	80001854	008000ef	jal	x1,80001854	  x1=0x80001854
       39705000	      3969	00000000	00000013	addi	x0,x0,0	  x0:0x00000000
       39715000	      3970	80001858	00000013	addi	x0,x0,0	  x0:0x00000000
       39725000	      3971	8000185c	014000ef	jal	x1,8000185c	  x1=0x8000185c
       39735000	      3972	00000000	00000013	addi	x0,x0,0	  x0:0x00000000
       39745000	      3973	8000186c	00000013	addi	x0,x0,0	  x0:0x00000000
       39755000	      3974	80001870	009157b3	srl	x15,x2,x9	  x2:0x00000001  x9:0x80009ef4 x15=0x00000000
       39765000	      3975	80001874	018000ef	jal	x1,80001874	  x1=0x80001874
       39775000	      3976	00000000	00000013	addi	x0,x0,0	  x0:0x00000000
       39785000	      3977	80001888	00000013	addi	x0,x0,0	  x0:0x00000000
       39795000	      3978	8000188c	ff5ff0ef	jal	x1,8000188c	  x1=0x8000188c
       39805000	      3979	00000000	00000013	addi	x0,x0,0	  x0:0x00000000
       39815000	      3980	8000187c	00000013	addi	x0,x0,0	  x0:0x00000000
       39825000	      3981	80001880	060000ef	jal	x1,80001880	  x1=0x80001880
       39835000	      3982	00000000	00000013	addi	x0,x0,0	  x0:0x00000000
       39845000	      3983	800018dc	00000013	addi	x0,x0,0	  x0:0x00000000
       39855000	      3984	800018e0	fc9ff0ef	jal	x1,800018e0	  x1=0x800018e0
       39865000	      3985	00000000	00000013	addi	x0,x0,0	  x0:0x00000000
       39875000	      3986	800018a4	00000013	addi	x0,x0,0	  x0:0x00000000
       39885000	      3987	800018a8	fd1ff36f	jal	x6,800018a8	  x6=0x800018a8
       39895000	      3988	00000000	00000013	addi	x0,x0,0	  x0:0x00000000
       39905000	      3989	80001874	00000013	addi	x0,x0,0	  x0:0x00000000
       39915000	      3990	80001878	05c000ef	jal	x1,80001878	  x1=0x80001878
       39925000	      3991	00000000	00000013	addi	x0,x0,0	  x0:0x00000000
       39935000	      3992	800018d0	00000013	addi	x0,x0,0	  x0:0x00000000
       39945000	      3993	800018d4	fb1ff36f	jal	x6,800018d4	  x6=0x800018d4
       39955000	      3994	00000000	00000013	addi	x0,x0,0	  x0:0x00000000
       39965000	      3995	80001880	00000013	addi	x0,x0,0	  x0:0x00000000
       39975000	      3996	80001884	010000ef	jal	x1,80001884	  x1=0x80001884
       39985000	      3997	00000000	00000013	addi	x0,x0,0	  x0:0x00000000
       39995000	      3998	80001890	00000013	addi	x0,x0,0	  x0:0x00000000
       40005000	      3999	80001894	030000ef	jal	x1,80001894	  x1=0x80001894
       40015000	      4000	00000000	00000013	addi	x0,x0,0	  x0:0x00000000
       40025000	      4001	800018c0	00000013	addi	x0,x0,0	  x0:0x00000000
       40035000	      4002	800018c4	020000ef	jal	x1,800018c4	  x1=0x800018c4
       40045000	      4003	00000000	00000013	addi	x0,x0,0	  x0:0x00000000
       40055000	      4004	800018e0	00000013	addi	x0,x0,0	  x0:0x00000000
       40065000	      4005	800018e4	fadff0ef	jal	x1,800018e4	  x1=0x800018e4
       40075000	      4006	00000000	00000013	addi	x0,x0,0	  x0:0x00000000
       40085000	      4007	8000188c	00000013	addi	x0,x0,0	  x0:0x00000000
       40095000	      4008	80001890	038000ef	jal	x1,80001890	  x1=0x80001890
       40105000	      4009	00000000	00000013	addi	x0,x0,0	  x0:0x00000000
       40115000	      4010	800018c4	00000013	addi	x0,x0,0	  x0:0x00000000
       40125000	      4011	800018c8	fd5ff36f	jal	x6,800018c8	  x6=0x800018c8
       40135000	      4012	00000000	00000013	addi	x0,x0,0	  x0:0x00000000
       40145000	      4013	80001898	00000013	addi	x0,x0,0	  x0:0x00000000
       40155000	      4014	8000189c	014000ef	jal	x1,8000189c	  x1=0x8000189c
       40165000	      4015	00000000	00000013	addi	x0,x0,0	  x0:0x00000000
       40175000	      4016	800018ac	00000013	addi	x0,x0,0	  x0:0x00000000
       40185000	      4017	800018b0	fe9ff0ef	jal	x1,800018b0	  x1=0x800018b0
       40195000	      4018	00000000	00000013	addi	x0,x0,0	  x0:0x00000000
       40205000	      4019	80001894	00000013	addi	x0,x0,0	  x0:0x00000000
       40215000	      4020	80001898	038000ef	jal	x1,80001898	  x1=0x80001898
       40225000	      4021	00000000	00000013	addi	x0,x0,0	  x0:0x00000000
       40235000	      4022	800018cc	00000013	addi	x0,x0,0	  x0:0x00000000
       40245000	      4023	800018d0	fe5ff96f	jal	x18,800018d0	 x18=0x800018d0
       40255000	      4024	00000000	00000013	addi	x0,x0,0	  x0:0x00000000
       40265000	      4025	800018b0	00000013	addi	x0,x0,0	  x0:0x00000000
       40275000	      4026	800018b4	fc9ff0ef	jal	x1,800018b4	  x1=0x800018b4
       40285000	      4027	00000000	00000013	addi	x0,x0,0	  x0:0x00000000
       40295000	      4028	80001878	00000013	addi	x0,x0,0	  x0:0x00000000
       40305000	      4029	8000187c	050000ef	jal	x1,8000187c	  x1=0x8000187c
       40315000	      4030	00000000	00000013	addi	x0,x0,0	  x0:0x00000000
       40325000	      4031	800018c8	00000013	addi	x0,x0,0	  x0:0x00000000
       40335000	      4032	800018cc	fbdff36f	jal	x6,800018cc	  x6=0x800018cc
       40345000	      4033	00000000	00000013	addi	x0,x0,0	  x0:0x00000000
       40355000	      4034	80001884	00000013	addi	x0,x0,0	  x0:0x00000000
       40365000	      4035	80001888	01c0096f	jal	x18,80001888	 x18=0x80001888
       40375000	      4036	00000000	00000013	addi	x0,x0,0	  x0:0x00000000
       40385000	      4037	800018a0	00000013	addi	x0,x0,0	  x0:0x00000000
       40395000	      4038	800018a4	018000ef	jal	x1,800018a4	  x1=0x800018a4
       40405000	      4039	00000000	00000013	addi	x0,x0,0	  x0:0x00000000
       40415000	      4040	800018b8	00000013	addi	x0,x0,0	  x0:0x00000000
       40425000	      4041	800018bc	00400aef	jal	x21,800018bc	 x21=0x800018bc
       40435000	      4042	00000000	00000013	addi	x0,x0,0	  x0:0x00000000
       40445000	      4043	800018bc	00000013	addi	x0,x0,0	  x0:0x00000000
       40455000	      4044	800018c0	fe1ff0ef	jal	x1,800018c0	  x1=0x800018c0
       40465000	      4045	00000000	00000013	addi	x0,x0,0	  x0:0x00000000
       40475000	      4046	8000189c	00000013	addi	x0,x0,0	  x0:0x00000000
       40485000	      4047	800018a0	00c000ef	jal	x1,800018a0	  x1=0x800018a0
       40495000	      4048	00000000	00000013	addi	x0,x0,0	  x0:0x00000000
       40505000	      4049	800018a8	00000013	addi	x0,x0,0	  x0:0x00000000
       40515000	      4050	800018ac	0300036f	jal	x6,800018ac	  x6=0x800018ac
       40525000	      4051	00000000	00000013	addi	x0,x0,0	  x0:0x00000000
       40535000	      4052	800018d8	00000013	addi	x0,x0,0	  x0:0x00000000
       40545000	      4053	800018dc	fddff0ef	jal	x1,800018dc	  x1=0x800018dc
       40555000	      4054	00000000	00000013	addi	x0,x0,0	  x0:0x00000000
       40565000	      4055	800018b4	00000013	addi	x0,x0,0	  x0:0x00000000
       40575000	      4056	800018b8	020003ef	jal	x7,800018b8	  x7=0x800018b8
       40585000	      4057	00000000	00000013	addi	x0,x0,0	  x0:0x00000000
       40595000	      4058	800018d4	00000013	addi	x0,x0,0	  x0:0x00000000
       40605000	      4059	800018d8	010000ef	jal	x1,800018d8	  x1=0x800018d8
       40615000	      4060	00000000	00000013	addi	x0,x0,0	  x0:0x00000000
       40625000	      4061	800018e4	00000013	addi	x0,x0,0	  x0:0x00000000
       40635000	      4062	800018e8	07b98e13	addi	x28,x19,123	 x19:0x00000063 x28=0x000000de
       40645000	      4063	800018ec	050000ef	jal	x1,800018ec	  x1=0x800018ec
       40655000	      4064	00000000	00000013	addi	x0,x0,0	  x0:0x00000000
       40665000	      4065	80001938	00000013	addi	x0,x0,0	  x0:0x00000000
       40675000	      4066	8000193c	fc9ff0ef	jal	x1,8000193c	  x1=0x8000193c
       40685000	      4067	00000000	00000013	addi	x0,x0,0	  x0:0x00000000
       40695000	      4068	80001900	00000013	addi	x0,x0,0	  x0:0x00000000
       40705000	      4069	80001904	03c000ef	jal	x1,80001904	  x1=0x80001904
       40715000	      4070	00000000	00000013	addi	x0,x0,0	  x0:0x00000000
       40725000	      4071	8000193c	00000013	addi	x0,x0,0	  x0:0x00000000
       40735000	      4072	80001940	fd5ff0ef	jal	x1,80001940	  x1=0x80001940
       40745000	      4073	00000000	00000013	addi	x0,x0,0	  x0:0x00000000
       40755000	      4074	80001910	00000013	addi	x0,x0,0	  x0:0x00000000
       40765000	      4075	80001914	0240036f	jal	x6,80001914	  x6=0x80001914
       40775000	      4076	00000000	00000013	addi	x0,x0,0	  x0:0x00000000
       40785000	      4077	80001934	00000013	addi	x0,x0,0	  x0:0x00000000
       40795000	      4078	80001938	fd1ff1ef	jal	x3,80001938	  x3=0x80001938
       40805000	      4079	00000000	00000013	addi	x0,x0,0	  x0:0x00000000
       40815000	      4080	80001904	00000013	addi	x0,x0,0	  x0:0x00000000
       40825000	      4081	80001908	ff5ff4ef	jal	x9,80001908	  x9=0x80001908
       40835000	      4082	00000000	00000013	addi	x0,x0,0	  x0:0x00000000
       40845000	      4083	800018f8	00000013	addi	x0,x0,0	  x0:0x00000000
       40855000	      4084	800018fc	0540086f	jal	x16,800018fc	 x16=0x800018fc
       40865000	      4085	00000000	00000013	addi	x0,x0,0	  x0:0x00000000
       40875000	      4086	8000194c	00000013	addi	x0,x0,0	  x0:0x00000000
       40885000	      4087	80001950	fb1ff66f	jal	x12,80001950	 x12=0x80001950
       40895000	      4088	00000000	00000013	addi	x0,x0,0	  x0:0x00000000
       40905000	      4089	800018fc	00000013	addi	x0,x0,0	  x0:0x00000000
       40915000	      4090	80001900	044004ef	jal	x9,80001900	  x9=0x80001900
       40925000	      4091	00000000	00000013	addi	x0,x0,0	  x0:0x00000000
       40935000	      4092	80001940	00000013	addi	x0,x0,0	  x0:0x00000000
       40945000	      4093	80001944	ff1ff36f	jal	x6,80001944	  x6=0x80001944
       40955000	      4094	00000000	00000013	addi	x0,x0,0	  x0:0x00000000
       40965000	      4095	80001930	00000013	addi	x0,x0,0	  x0:0x00000000
       40975000	      4096	80001934	fbdff0ef	jal	x1,80001934	  x1=0x80001934
       40985000	      4097	00000000	00000013	addi	x0,x0,0	  x0:0x00000000
       40995000	      4098	800018ec	00000013	addi	x0,x0,0	  x0:0x00000000
       41005000	      4099	800018f0	0380036f	jal	x6,800018f0	  x6=0x800018f0
       41015000	      4100	00000000	00000013	addi	x0,x0,0	  x0:0x00000000
       41025000	      4101	80001924	00000013	addi	x0,x0,0	  x0:0x00000000
       41035000	      4102	80001928	0200036f	jal	x6,80001928	  x6=0x80001928
       41045000	      4103	00000000	00000013	addi	x0,x0,0	  x0:0x00000000
       41055000	      4104	80001944	00000013	addi	x0,x0,0	  x0:0x00000000
       41065000	      4105	80001948	0040036f	jal	x6,80001948	  x6=0x80001948
       41075000	      4106	00000000	00000013	addi	x0,x0,0	  x0:0x00000000
       41085000	      4107	80001948	00000013	addi	x0,x0,0	  x0:0x00000000
       41095000	      4108	8000194c	fc5ff36f	jal	x6,8000194c	  x6=0x8000194c
       41105000	      4109	00000000	00000013	addi	x0,x0,0	  x0:0x00000000
       41115000	      4110	8000190c	00000013	addi	x0,x0,0	  x0:0x00000000
       41125000	      4111	80001910	0200016f	jal	x2,80001910	  x2=0x80001910
       41135000	      4112	00000000	00000013	addi	x0,x0,0	  x0:0x00000000
       41145000	      4113	8000192c	00000013	addi	x0,x0,0	  x0:0x00000000
       41155000	      4114	80001930	fc5ff36f	jal	x6,80001930	  x6=0x80001930
       41165000	      4115	00000000	00000013	addi	x0,x0,0	  x0:0x00000000
       41175000	      4116	800018f0	00000013	addi	x0,x0,0	  x0:0x00000000
       41185000	      4117	800018f4	02c000ef	jal	x1,800018f4	  x1=0x800018f4
       41195000	      4118	00000000	00000013	addi	x0,x0,0	  x0:0x00000000
       41205000	      4119	8000191c	00000013	addi	x0,x0,0	  x0:0x00000000
       41215000	      4120	80001920	fd9ffcef	jal	x25,80001920	 x25=0x80001920
       41225000	      4121	00000000	00000013	addi	x0,x0,0	  x0:0x00000000
       41235000	      4122	800018f4	00000013	addi	x0,x0,0	  x0:0x00000000
       41245000	      4123	800018f8	0200036f	jal	x6,800018f8	  x6=0x800018f8
       41255000	      4124	00000000	00000013	addi	x0,x0,0	  x0:0x00000000
       41265000	      4125	80001914	00000013	addi	x0,x0,0	  x0:0x00000000
       41275000	      4126	80001918	ff5ff3ef	jal	x7,80001918	  x7=0x80001918
       41285000	      4127	00000000	00000013	addi	x0,x0,0	  x0:0x00000000
       41295000	      4128	80001908	00000013	addi	x0,x0,0	  x0:0x00000000
       41305000	      4129	8000190c	01800aef	jal	x21,8000190c	 x21=0x8000190c
       41315000	      4130	00000000	00000013	addi	x0,x0,0	  x0:0x00000000
       41325000	      4131	80001920	00000013	addi	x0,x0,0	  x0:0x00000000
       41335000	      4132	80001924	03000a6f	jal	x20,80001924	 x20=0x80001924
       41345000	      4133	00000000	00000013	addi	x0,x0,0	  x0:0x00000000
       41355000	      4134	80001950	00000013	addi	x0,x0,0	  x0:0x00000000
       41365000	      4135	80001954	fc9ff0ef	jal	x1,80001954	  x1=0x80001954
       41375000	      4136	00000000	00000013	addi	x0,x0,0	  x0:0x00000000
       41385000	      4137	80001918	00000013	addi	x0,x0,0	  x0:0x00000000
       41395000	      4138	8000191c	0100036f	jal	x6,8000191c	  x6=0x8000191c
       41405000	      4139	00000000	00000013	addi	x0,x0,0	  x0:0x00000000
       41415000	      4140	80001928	00000013	addi	x0,x0,0	  x0:0x00000000
       41425000	      4141	8000192c	02c000ef	jal	x1,8000192c	  x1=0x8000192c
       41435000	      4142	00000000	00000013	addi	x0,x0,0	  x0:0x00000000
       41445000	      4143	80001954	00000013	addi	x0,x0,0	  x0:0x00000000
       41455000	      4144	80001958	929bb017	auipc	x0,0x929bb	
       41465000	      4145	8000195c	058000ef	jal	x1,8000195c	  x1=0x8000195c
       41475000	      4146	00000000	00000013	addi	x0,x0,0	  x0:0x00000000
       41485000	      4147	800019b0	00000013	addi	x0,x0,0	  x0:0x00000000
       41495000	      4148	800019b4	fc9ff36f	jal	x6,800019b4	  x6=0x800019b4
       41505000	      4149	00000000	00000013	addi	x0,x0,0	  x0:0x00000000
       41515000	      4150	80001978	00000013	addi	x0,x0,0	  x0:0x00000000
       41525000	      4151	8000197c	00c000ef	jal	x1,8000197c	  x1=0x8000197c
       41535000	      4152	00000000	00000013	addi	x0,x0,0	  x0:0x00000000
       41545000	      4153	80001984	00000013	addi	x0,x0,0	  x0:0x00000000
       41555000	      4154	80001988	008000ef	jal	x1,80001988	  x1=0x80001988
       41565000	      4155	00000000	00000013	addi	x0,x0,0	  x0:0x00000000
       41575000	      4156	8000198c	00000013	addi	x0,x0,0	  x0:0x00000000
       41585000	      4157	80001990	010000ef	jal	x1,80001990	  x1=0x80001990
       41595000	      4158	00000000	00000013	addi	x0,x0,0	  x0:0x00000000
       41605000	      4159	8000199c	00000013	addi	x0,x0,0	  x0:0x00000000
       41615000	      4160	800019a0	fd5ff36f	jal	x6,800019a0	  x6=0x800019a0
       41625000	      4161	00000000	00000013	addi	x0,x0,0	  x0:0x00000000
       41635000	      4162	80001970	00000013	addi	x0,x0,0	  x0:0x00000000
       41645000	      4163	80001974	0340016f	jal	x2,80001974	  x2=0x80001974
       41655000	      4164	00000000	00000013	addi	x0,x0,0	  x0:0x00000000
       41665000	      4165	800019a4	00000013	addi	x0,x0,0	  x0:0x00000000
       41675000	      4166	800019a8	fc1ff5ef	jal	x11,800019a8	 x11=0x800019a8
       41685000	      4167	00000000	00000013	addi	x0,x0,0	  x0:0x00000000
       41695000	      4168	80001964	00000013	addi	x0,x0,0	  x0:0x00000000
       41705000	      4169	80001968	02c006ef	jal	x13,80001968	 x13=0x80001968
       41715000	      4170	00000000	00000013	addi	x0,x0,0	  x0:0x00000000
       41725000	      4171	80001990	00000013	addi	x0,x0,0	  x0:0x00000000
       41735000	      4172	80001994	ff9ff0ef	jal	x1,80001994	  x1=0x80001994
       41745000	      4173	00000000	00000013	addi	x0,x0,0	  x0:0x00000000
       41755000	      4174	80001988	00000013	addi	x0,x0,0	  x0:0x00000000
       41765000	      4175	8000198c	ff9ff0ef	jal	x1,8000198c	  x1=0x8000198c
       41775000	      4176	00000000	00000013	addi	x0,x0,0	  x0:0x00000000
       41785000	      4177	80001980	00000013	addi	x0,x0,0	  x0:0x00000000
       41795000	      4178	80001984	0180036f	jal	x6,80001984	  x6=0x80001984
       41805000	      4179	00000000	00000013	addi	x0,x0,0	  x0:0x00000000
       41815000	      4180	80001998	00000013	addi	x0,x0,0	  x0:0x00000000
       41825000	      4181	8000199c	fd5ff0ef	jal	x1,8000199c	  x1=0x8000199c
       41835000	      4182	00000000	00000013	addi	x0,x0,0	  x0:0x00000000
       41845000	      4183	8000196c	00000013	addi	x0,x0,0	  x0:0x00000000
       41855000	      4184	80001970	03400fef	jal	x31,80001970	 x31=0x80001970
       41865000	      4185	00000000	00000013	addi	x0,x0,0	  x0:0x00000000
       41875000	      4186	800019a0	00000013	addi	x0,x0,0	  x0:0x00000000
       41885000	      4187	800019a4	fddff36f	jal	x6,800019a4	  x6=0x800019a4
       41895000	      4188	00000000	00000013	addi	x0,x0,0	  x0:0x00000000
       41905000	      4189	8000197c	00000013	addi	x0,x0,0	  x0:0x00000000
       41915000	      4190	80001980	02c0036f	jal	x6,80001980	  x6=0x80001980
       41925000	      4191	00000000	00000013	addi	x0,x0,0	  x0:0x00000000
       41935000	      4192	800019a8	00000013	addi	x0,x0,0	  x0:0x00000000
       41945000	      4193	800019ac	0040036f	jal	x6,800019ac	  x6=0x800019ac
       41955000	      4194	00000000	00000013	addi	x0,x0,0	  x0:0x00000000
       41965000	      4195	800019ac	00000013	addi	x0,x0,0	  x0:0x00000000
       41975000	      4196	800019b0	fe9ff36f	jal	x6,800019b0	  x6=0x800019b0
       41985000	      4197	00000000	00000013	addi	x0,x0,0	  x0:0x00000000
       41995000	      4198	80001994	00000013	addi	x0,x0,0	  x0:0x00000000
       42005000	      4199	80001998	fd5ffeef	jal	x29,80001998	 x29=0x80001998
       42015000	      4200	00000000	00000013	addi	x0,x0,0	  x0:0x00000000
       42025000	      4201	80001968	00000013	addi	x0,x0,0	  x0:0x00000000
       42035000	      4202	8000196c	ff5ff0ef	jal	x1,8000196c	  x1=0x8000196c
       42045000	      4203	00000000	00000013	addi	x0,x0,0	  x0:0x00000000
       42055000	      4204	8000195c	00000013	addi	x0,x0,0	  x0:0x00000000
       42065000	      4205	80001960	018001ef	jal	x3,80001960	  x3=0x80001960
       42075000	      4206	00000000	00000013	addi	x0,x0,0	  x0:0x00000000
       42085000	      4207	80001974	00000013	addi	x0,x0,0	  x0:0x00000000
       42095000	      4208	80001978	fedff0ef	jal	x1,80001978	  x1=0x80001978
       42105000	      4209	00000000	00000013	addi	x0,x0,0	  x0:0x00000000
       42115000	      4210	80001960	00000013	addi	x0,x0,0	  x0:0x00000000
       42125000	      4211	80001964	0540036f	jal	x6,80001964	  x6=0x80001964
       42135000	      4212	00000000	00000013	addi	x0,x0,0	  x0:0x00000000
       42145000	      4213	800019b4	00000013	addi	x0,x0,0	  x0:0x00000000
       42155000	      4214	800019b8	01fcad33	slt	x26,x25,x31	 x25:0x80001920 x31:0x80001970 x26=0x00000001
       42165000	      4215	800019bc	014000ef	jal	x1,800019bc	  x1=0x800019bc
       42175000	      4216	00000000	00000013	addi	x0,x0,0	  x0:0x00000000
       42185000	      4217	800019cc	00000013	addi	x0,x0,0	  x0:0x00000000
       42195000	      4218	800019d0	ff5ff36f	jal	x6,800019d0	  x6=0x800019d0
       42205000	      4219	00000000	00000013	addi	x0,x0,0	  x0:0x00000000
       42215000	      4220	800019c0	00000013	addi	x0,x0,0	  x0:0x00000000
       42225000	      4221	800019c4	024000ef	jal	x1,800019c4	  x1=0x800019c4
       42235000	      4222	00000000	00000013	addi	x0,x0,0	  x0:0x00000000
       42245000	      4223	800019e4	00000013	addi	x0,x0,0	  x0:0x00000000
       42255000	      4224	800019e8	00c000ef	jal	x1,800019e8	  x1=0x800019e8
       42265000	      4225	00000000	00000013	addi	x0,x0,0	  x0:0x00000000
       42275000	      4226	800019f0	00000013	addi	x0,x0,0	  x0:0x00000000
       42285000	      4227	800019f4	ff9ff0ef	jal	x1,800019f4	  x1=0x800019f4
       42295000	      4228	00000000	00000013	addi	x0,x0,0	  x0:0x00000000
       42305000	      4229	800019e8	00000013	addi	x0,x0,0	  x0:0x00000000
       42315000	      4230	800019ec	020000ef	jal	x1,800019ec	  x1=0x800019ec
       42325000	      4231	00000000	00000013	addi	x0,x0,0	  x0:0x00000000
       42335000	      4232	80001a08	00000013	addi	x0,x0,0	  x0:0x00000000
       42345000	      4233	80001a0c	ff5ffeef	jal	x29,80001a0c	 x29=0x80001a0c
       42355000	      4234	00000000	00000013	addi	x0,x0,0	  x0:0x00000000
       42365000	      4235	800019fc	00000013	addi	x0,x0,0	  x0:0x00000000
       42375000	      4236	80001a00	ff1ff36f	jal	x6,80001a00	  x6=0x80001a00
       42385000	      4237	00000000	00000013	addi	x0,x0,0	  x0:0x00000000
       42395000	      4238	800019ec	00000013	addi	x0,x0,0	  x0:0x00000000
       42405000	      4239	800019f0	018000ef	jal	x1,800019f0	  x1=0x800019f0
       42415000	      4240	00000000	00000013	addi	x0,x0,0	  x0:0x00000000
       42425000	      4241	80001a04	00000013	addi	x0,x0,0	  x0:0x00000000
       42435000	      4242	80001a08	014000ef	jal	x1,80001a08	  x1=0x80001a08
       42445000	      4243	00000000	00000013	addi	x0,x0,0	  x0:0x00000000
       42455000	      4244	80001a18	00000013	addi	x0,x0,0	  x0:0x00000000
       42465000	      4245	80001a1c	fadff1ef	jal	x3,80001a1c	  x3=0x80001a1c
       42475000	      4246	00000000	00000013	addi	x0,x0,0	  x0:0x00000000
       42485000	      4247	800019c4	00000013	addi	x0,x0,0	  x0:0x00000000
       42495000	      4248	800019c8	034000ef	jal	x1,800019c8	  x1=0x800019c8
       42505000	      4249	00000000	00000013	addi	x0,x0,0	  x0:0x00000000
       42515000	      4250	800019f8	00000013	addi	x0,x0,0	  x0:0x00000000
       42525000	      4251	800019fc	fddff4ef	jal	x9,800019fc	  x9=0x800019fc
       42535000	      4252	00000000	00000013	addi	x0,x0,0	  x0:0x00000000
       42545000	      4253	800019d4	00000013	addi	x0,x0,0	  x0:0x00000000
       42555000	      4254	800019d8	004000ef	jal	x1,800019d8	  x1=0x800019d8
       42565000	      4255	00000000	00000013	addi	x0,x0,0	  x0:0x00000000
       42575000	      4256	800019d8	00000013	addi	x0,x0,0	  x0:0x00000000
       42585000	      4257	800019dc	01c0036f	jal	x6,800019dc	  x6=0x800019dc
       42595000	      4258	00000000	00000013	addi	x0,x0,0	  x0:0x00000000
       42605000	      4259	800019f4	00000013	addi	x0,x0,0	  x0:0x00000000
       42615000	      4260	800019f8	fe9ff0ef	jal	x1,800019f8	  x1=0x800019f8
       42625000	      4261	00000000	00000013	addi	x0,x0,0	  x0:0x00000000
       42635000	      4262	800019dc	00000013	addi	x0,x0,0	  x0:0x00000000
       42645000	      4263	800019e0	ff5ff4ef	jal	x9,800019e0	  x9=0x800019e0
       42655000	      4264	00000000	00000013	addi	x0,x0,0	  x0:0x00000000
       42665000	      4265	800019d0	00000013	addi	x0,x0,0	  x0:0x00000000
       42675000	      4266	800019d4	030000ef	jal	x1,800019d4	  x1=0x800019d4
       42685000	      4267	00000000	00000013	addi	x0,x0,0	  x0:0x00000000
       42695000	      4268	80001a00	00000013	addi	x0,x0,0	  x0:0x00000000
       42705000	      4269	80001a04	fbdff1ef	jal	x3,80001a04	  x3=0x80001a04
       42715000	      4270	00000000	00000013	addi	x0,x0,0	  x0:0x00000000
       42725000	      4271	800019bc	00000013	addi	x0,x0,0	  x0:0x00000000
       42735000	      4272	800019c0	00c0016f	jal	x2,800019c0	  x2=0x800019c0
       42745000	      4273	00000000	00000013	addi	x0,x0,0	  x0:0x00000000
       42755000	      4274	800019c8	00000013	addi	x0,x0,0	  x0:0x00000000
       42765000	      4275	800019cc	048000ef	jal	x1,800019cc	  x1=0x800019cc
       42775000	      4276	00000000	00000013	addi	x0,x0,0	  x0:0x00000000
       42785000	      4277	80001a10	00000013	addi	x0,x0,0	  x0:0x00000000
       42795000	      4278	80001a14	fd1ff0ef	jal	x1,80001a14	  x1=0x80001a14
       42805000	      4279	00000000	00000013	addi	x0,x0,0	  x0:0x00000000
       42815000	      4280	800019e0	00000013	addi	x0,x0,0	  x0:0x00000000
       42825000	      4281	800019e4	034000ef	jal	x1,800019e4	  x1=0x800019e4
       42835000	      4282	00000000	00000013	addi	x0,x0,0	  x0:0x00000000
       42845000	      4283	80001a14	00000013	addi	x0,x0,0	  x0:0x00000000
       42855000	      4284	80001a18	ff9ff36f	jal	x6,80001a18	  x6=0x80001a18
       42865000	      4285	00000000	00000013	addi	x0,x0,0	  x0:0x00000000
       42875000	      4286	80001a0c	00000013	addi	x0,x0,0	  x0:0x00000000
       42885000	      4287	80001a10	0100036f	jal	x6,80001a10	  x6=0x80001a10
       42895000	      4288	00000000	00000013	addi	x0,x0,0	  x0:0x00000000
       42905000	      4289	80001a1c	00000013	addi	x0,x0,0	  x0:0x00000000
       42915000	      4290	80001a20	019d2cb3	slt	x25,x26,x25	 x26:0x00000001 x25:0x80001920 x25=0x00000000
       42925000	      4291	80001a24	018000ef	jal	x1,80001a24	  x1=0x80001a24
       42935000	      4292	00000000	00000013	addi	x0,x0,0	  x0:0x00000000
       42945000	      4293	80001a38	00000013	addi	x0,x0,0	  x0:0x00000000
       42955000	      4294	80001a3c	01c000ef	jal	x1,80001a3c	  x1=0x80001a3c
       42965000	      4295	00000000	00000013	addi	x0,x0,0	  x0:0x00000000
       42975000	      4296	80001a54	00000013	addi	x0,x0,0	  x0:0x00000000
       42985000	      4297	80001a58	fd1ff36f	jal	x6,80001a58	  x6=0x80001a58
       42995000	      4298	00000000	00000013	addi	x0,x0,0	  x0:0x00000000
       43005000	      4299	80001a24	00000013	addi	x0,x0,0	  x0:0x00000000
       43015000	      4300	80001a28	064000ef	jal	x1,80001a28	  x1=0x80001a28
       43025000	      4301	00000000	00000013	addi	x0,x0,0	  x0:0x00000000
       43035000	      4302	80001a88	00000013	addi	x0,x0,0	  x0:0x00000000
       43045000	      4303	80001a8c	fe1ff36f	jal	x6,80001a8c	  x6=0x80001a8c
       43055000	      4304	00000000	00000013	addi	x0,x0,0	  x0:0x00000000
       43065000	      4305	80001a68	00000013	addi	x0,x0,0	  x0:0x00000000
       43075000	      4306	80001a6c	fddff46f	jal	x8,80001a6c	  x8=0x80001a6c
       43085000	      4307	00000000	00000013	addi	x0,x0,0	  x0:0x00000000
       43095000	      4308	80001a44	00000013	addi	x0,x0,0	  x0:0x00000000
       43105000	      4309	80001a48	ff9ff36f	jal	x6,80001a48	  x6=0x80001a48
       43115000	      4310	00000000	00000013	addi	x0,x0,0	  x0:0x00000000
       43125000	      4311	80001a3c	00000013	addi	x0,x0,0	  x0:0x00000000
       43135000	      4312	80001a40	ff9ff36f	jal	x6,80001a40	  x6=0x80001a40
       43145000	      4313	00000000	00000013	addi	x0,x0,0	  x0:0x00000000
       43155000	      4314	80001a34	00000013	addi	x0,x0,0	  x0:0x00000000
       43165000	      4315	80001a38	ffdff0ef	jal	x1,80001a38	  x1=0x80001a38
       43175000	      4316	00000000	00000013	addi	x0,x0,0	  x0:0x00000000
       43185000	      4317	80001a30	00000013	addi	x0,x0,0	  x0:0x00000000
       43195000	      4318	80001a34	05400e6f	jal	x28,80001a34	 x28=0x80001a34
       43205000	      4319	00000000	00000013	addi	x0,x0,0	  x0:0x00000000
       43215000	      4320	80001a84	00000013	addi	x0,x0,0	  x0:0x00000000
       43225000	      4321	80001a88	ff1ff36f	jal	x6,80001a88	  x6=0x80001a88
       43235000	      4322	00000000	00000013	addi	x0,x0,0	  x0:0x00000000
       43245000	      4323	80001a74	00000013	addi	x0,x0,0	  x0:0x00000000
       43255000	      4324	80001a78	fe5ff0ef	jal	x1,80001a78	  x1=0x80001a78
       43265000	      4325	00000000	00000013	addi	x0,x0,0	  x0:0x00000000
       43275000	      4326	80001a58	00000013	addi	x0,x0,0	  x0:0x00000000
       43285000	      4327	80001a5c	034001ef	jal	x3,80001a5c	  x3=0x80001a5c
       43295000	      4328	00000000	00000013	addi	x0,x0,0	  x0:0x00000000
       43305000	      4329	80001a8c	00000013	addi	x0,x0,0	  x0:0x00000000
       43315000	      4330	80001a90	ff1ff0ef	jal	x1,80001a90	  x1=0x80001a90
       43325000	      4331	00000000	00000013	addi	x0,x0,0	  x0:0x00000000
       43335000	      4332	80001a7c	00000013	addi	x0,x0,0	  x0:0x00000000
       43345000	      4333	80001a80	ff1ff0ef	jal	x1,80001a80	  x1=0x80001a80
       43355000	      4334	00000000	00000013	addi	x0,x0,0	  x0:0x00000000
       43365000	      4335	80001a6c	00000013	addi	x0,x0,0	  x0:0x00000000
       43375000	      4336	80001a70	014000ef	jal	x1,80001a70	  x1=0x80001a70
       43385000	      4337	00000000	00000013	addi	x0,x0,0	  x0:0x00000000
       43395000	      4338	80001a80	00000013	addi	x0,x0,0	  x0:0x00000000
       43405000	      4339	80001a84	fa9ffb6f	jal	x22,80001a84	 x22=0x80001a84
       43415000	      4340	00000000	00000013	addi	x0,x0,0	  x0:0x00000000
       43425000	      4341	80001a28	00000013	addi	x0,x0,0	  x0:0x00000000
       43435000	      4342	80001a2c	0480036f	jal	x6,80001a2c	  x6=0x80001a2c
       43445000	      4343	00000000	00000013	addi	x0,x0,0	  x0:0x00000000
       43455000	      4344	80001a70	00000013	addi	x0,x0,0	  x0:0x00000000
       43465000	      4345	80001a74	fedff16f	jal	x2,80001a74	  x2=0x80001a74
       43475000	      4346	00000000	00000013	addi	x0,x0,0	  x0:0x00000000
       43485000	      4347	80001a5c	00000013	addi	x0,x0,0	  x0:0x00000000
       43495000	      4348	80001a60	fd1ff0ef	jal	x1,80001a60	  x1=0x80001a60
       43505000	      4349	00000000	00000013	addi	x0,x0,0	  x0:0x00000000
       43515000	      4350	80001a2c	00000013	addi	x0,x0,0	  x0:0x00000000
       43525000	      4351	80001a30	024000ef	jal	x1,80001a30	  x1=0x80001a30
       43535000	      4352	00000000	00000013	addi	x0,x0,0	  x0:0x00000000
       43545000	      4353	80001a50	00000013	addi	x0,x0,0	  x0:0x00000000
       43555000	      4354	80001a54	ffdff0ef	jal	x1,80001a54	  x1=0x80001a54
       43565000	      4355	00000000	00000013	addi	x0,x0,0	  x0:0x00000000
       43575000	      4356	80001a4c	00000013	addi	x0,x0,0	  x0:0x00000000
       43585000	      4357	80001a50	0480036f	jal	x6,80001a50	  x6=0x80001a50
       43595000	      4358	00000000	00000013	addi	x0,x0,0	  x0:0x00000000
       43605000	      4359	80001a94	00000013	addi	x0,x0,0	  x0:0x00000000
       43615000	      4360	80001a98	fb5ff1ef	jal	x3,80001a98	  x3=0x80001a98
       43625000	      4361	00000000	00000013	addi	x0,x0,0	  x0:0x00000000
       43635000	      4362	80001a48	00000013	addi	x0,x0,0	  x0:0x00000000
       43645000	      4363	80001a4c	0180036f	jal	x6,80001a4c	  x6=0x80001a4c
       43655000	      4364	00000000	00000013	addi	x0,x0,0	  x0:0x00000000
       43665000	      4365	80001a60	00000013	addi	x0,x0,0	  x0:0x00000000
       43675000	      4366	80001a64	fe1ff0ef	jal	x1,80001a64	  x1=0x80001a64
       43685000	      4367	00000000	00000013	addi	x0,x0,0	  x0:0x00000000
       43695000	      4368	80001a40	00000013	addi	x0,x0,0	  x0:0x00000000
       43705000	      4369	80001a44	024000ef	jal	x1,80001a44	  x1=0x80001a44
       43715000	      4370	00000000	00000013	addi	x0,x0,0	  x0:0x00000000
       43725000	      4371	80001a64	00000013	addi	x0,x0,0	  x0:0x00000000
       43735000	      4372	80001a68	02c000ef	jal	x1,80001a68	  x1=0x80001a68
       43745000	      4373	00000000	00000013	addi	x0,x0,0	  x0:0x00000000
       43755000	      4374	80001a90	00000013	addi	x0,x0,0	  x0:0x00000000
       43765000	      4375	80001a94	fe9ff76f	jal	x14,80001a94	 x14=0x80001a94
       43775000	      4376	00000000	00000013	addi	x0,x0,0	  x0:0x00000000
       43785000	      4377	80001a78	00000013	addi	x0,x0,0	  x0:0x00000000
       43795000	      4378	80001a7c	0200016f	jal	x2,80001a7c	  x2=0x80001a7c
       43805000	      4379	00000000	00000013	addi	x0,x0,0	  x0:0x00000000
       43815000	      4380	80001a98	00000013	addi	x0,x0,0	  x0:0x00000000
       43825000	      4381	80001a9c	73e2bb13	sltiu	x22,x5,1854	  x5:0x00000000 x22=0x00000001
       43835000	      4382	80001aa0	048000ef	jal	x1,80001aa0	  x1=0x80001aa0
       43845000	      4383	00000000	00000013	addi	x0,x0,0	  x0:0x00000000
       43855000	      4384	80001ae4	00000013	addi	x0,x0,0	  x0:0x00000000
       43865000	      4385	80001ae8	fc1ff3ef	jal	x7,80001ae8	  x7=0x80001ae8
       43875000	      4386	00000000	00000013	addi	x0,x0,0	  x0:0x00000000
       43885000	      4387	80001aa4	00000013	addi	x0,x0,0	  x0:0x00000000
       43895000	      4388	80001aa8	048001ef	jal	x3,80001aa8	  x3=0x80001aa8
       43905000	      4389	00000000	00000013	addi	x0,x0,0	  x0:0x00000000
       43915000	      4390	80001aec	00000013	addi	x0,x0,0	  x0:0x00000000
       43925000	      4391	80001af0	0140036f	jal	x6,80001af0	  x6=0x80001af0
       43935000	      4392	00000000	00000013	addi	x0,x0,0	  x0:0x00000000
       43945000	      4393	80001b00	00000013	addi	x0,x0,0	  x0:0x00000000
       43955000	      4394	80001b04	fadff0ef	jal	x1,80001b04	  x1=0x80001b04
       43965000	      4395	00000000	00000013	addi	x0,x0,0	  x0:0x00000000
       43975000	      4396	80001aac	00000013	addi	x0,x0,0	  x0:0x00000000
       43985000	      4397	80001ab0	01c000ef	jal	x1,80001ab0	  x1=0x80001ab0
       43995000	      4398	00000000	00000013	addi	x0,x0,0	  x0:0x00000000
       44005000	      4399	80001ac8	00000013	addi	x0,x0,0	  x0:0x00000000
       44015000	      4400	80001acc	ff9ff6ef	jal	x13,80001acc	 x13=0x80001acc
       44025000	      4401	00000000	00000013	addi	x0,x0,0	  x0:0x00000000
       44035000	      4402	80001ac0	00000013	addi	x0,x0,0	  x0:0x00000000
       44045000	      4403	80001ac4	fe9ff9ef	jal	x19,80001ac4	 x19=0x80001ac4
       44055000	      4404	00000000	00000013	addi	x0,x0,0	  x0:0x00000000
       44065000	      4405	80001aa8	00000013	addi	x0,x0,0	  x0:0x00000000
       44075000	      4406	80001aac	038000ef	jal	x1,80001aac	  x1=0x80001aac
       44085000	      4407	00000000	00000013	addi	x0,x0,0	  x0:0x00000000
       44095000	      4408	80001ae0	00000013	addi	x0,x0,0	  x0:0x00000000
       44105000	      4409	80001ae4	ffdff36f	jal	x6,80001ae4	  x6=0x80001ae4
       44115000	      4410	00000000	00000013	addi	x0,x0,0	  x0:0x00000000
       44125000	      4411	80001adc	00000013	addi	x0,x0,0	  x0:0x00000000
       44135000	      4412	80001ae0	fc5ff36f	jal	x6,80001ae0	  x6=0x80001ae0
       44145000	      4413	00000000	00000013	addi	x0,x0,0	  x0:0x00000000
       44155000	      4414	80001aa0	00000013	addi	x0,x0,0	  x0:0x00000000
       44165000	      4415	80001aa4	0300036f	jal	x6,80001aa4	  x6=0x80001aa4
       44175000	      4416	00000000	00000013	addi	x0,x0,0	  x0:0x00000000
       44185000	      4417	80001ad0	00000013	addi	x0,x0,0	  x0:0x00000000
       44195000	      4418	80001ad4	0080016f	jal	x2,80001ad4	  x2=0x80001ad4
       44205000	      4419	00000000	00000013	addi	x0,x0,0	  x0:0x00000000
       44215000	      4420	80001ad8	00000013	addi	x0,x0,0	  x0:0x00000000
       44225000	      4421	80001adc	fddff0ef	jal	x1,80001adc	  x1=0x80001adc
       44235000	      4422	00000000	00000013	addi	x0,x0,0	  x0:0x00000000
       44245000	      4423	80001ab4	00000013	addi	x0,x0,0	  x0:0x00000000
       44255000	      4424	80001ab8	ffdff0ef	jal	x1,80001ab8	  x1=0x80001ab8
       44265000	      4425	00000000	00000013	addi	x0,x0,0	  x0:0x00000000
       44275000	      4426	80001ab0	00000013	addi	x0,x0,0	  x0:0x00000000
       44285000	      4427	80001ab4	0140036f	jal	x6,80001ab4	  x6=0x80001ab4
       44295000	      4428	00000000	00000013	addi	x0,x0,0	  x0:0x00000000
       44305000	      4429	80001ac4	00000013	addi	x0,x0,0	  x0:0x00000000
       44315000	      4430	80001ac8	024000ef	jal	x1,80001ac8	  x1=0x80001ac8
       44325000	      4431	00000000	00000013	addi	x0,x0,0	  x0:0x00000000
       44335000	      4432	80001ae8	00000013	addi	x0,x0,0	  x0:0x00000000
       44345000	      4433	80001aec	00c000ef	jal	x1,80001aec	  x1=0x80001aec
       44355000	      4434	00000000	00000013	addi	x0,x0,0	  x0:0x00000000
       44365000	      4435	80001af4	00000013	addi	x0,x0,0	  x0:0x00000000
       44375000	      4436	80001af8	fc9ff0ef	jal	x1,80001af8	  x1=0x80001af8
       44385000	      4437	00000000	00000013	addi	x0,x0,0	  x0:0x00000000
       44395000	      4438	80001abc	00000013	addi	x0,x0,0	  x0:0x00000000
       44405000	      4439	80001ac0	018004ef	jal	x9,80001ac0	  x9=0x80001ac0
       44415000	      4440	00000000	00000013	addi	x0,x0,0	  x0:0x00000000
       44425000	      4441	80001ad4	00000013	addi	x0,x0,0	  x0:0x00000000
       44435000	      4442	80001ad8	028000ef	jal	x1,80001ad8	  x1=0x80001ad8
       44445000	      4443	00000000	00000013	addi	x0,x0,0	  x0:0x00000000
       44455000	      4444	80001afc	00000013	addi	x0,x0,0	  x0:0x00000000
       44465000	      4445	80001b00	fbdff0ef	jal	x1,80001b00	  x1=0x80001b00
       44475000	      4446	00000000	00000013	addi	x0,x0,0	  x0:0x00000000
       44485000	      4447	80001ab8	00000013	addi	x0,x0,0	  x0:0x00000000
       44495000	      4448	80001abc	0400056f	jal	x10,80001abc	 x10=0x80001abc
       44505000	      4449	00000000	00000013	addi	x0,x0,0	  x0:0x00000000
       44515000	      4450	80001af8	00000013	addi	x0,x0,0	  x0:0x00000000
       44525000	      4451	80001afc	ff9ff0ef	jal	x1,80001afc	  x1=0x80001afc
       44535000	      4452	00000000	00000013	addi	x0,x0,0	  x0:0x00000000
       44545000	      4453	80001af0	00000013	addi	x0,x0,0	  x0:0x00000000
       44555000	      4454	80001af4	014000ef	jal	x1,80001af4	  x1=0x80001af4
       44565000	      4455	00000000	00000013	addi	x0,x0,0	  x0:0x00000000
       44575000	      4456	80001b04	00000013	addi	x0,x0,0	  x0:0x00000000
       44585000	      4457	80001b08	fc9ff0ef	jal	x1,80001b08	  x1=0x80001b08
       44595000	      4458	00000000	00000013	addi	x0,x0,0	  x0:0x00000000
       44605000	      4459	80001acc	00000013	addi	x0,x0,0	  x0:0x00000000
       44615000	      4460	80001ad0	03c000ef	jal	x1,80001ad0	  x1=0x80001ad0
       44625000	      4461	00000000	00000013	addi	x0,x0,0	  x0:0x00000000
       44635000	      4462	80001b08	00000013	addi	x0,x0,0	  x0:0x00000000
       44645000	      4463	80001b0c	004000ef	jal	x1,80001b0c	  x1=0x80001b0c
       44655000	      4464	00000000	00000013	addi	x0,x0,0	  x0:0x00000000
       44665000	      4465	80001b0c	00000013	addi	x0,x0,0	  x0:0x00000000
       44675000	      4466	80001b10	5bebcc93	xori	x25,x23,1470	 x23:0xc07b7000 x25=0xc07b75be
       44685000	      4467	80001b14	018000ef	jal	x1,80001b14	  x1=0x80001b14
       44695000	      4468	00000000	00000013	addi	x0,x0,0	  x0:0x00000000
       44705000	      4469	80001b28	00000013	addi	x0,x0,0	  x0:0x00000000
       44715000	      4470	80001b2c	00c005ef	jal	x11,80001b2c	 x11=0x80001b2c
       44725000	      4471	00000000	00000013	addi	x0,x0,0	  x0:0x00000000
       44735000	      4472	80001b34	00000013	addi	x0,x0,0	  x0:0x00000000
       44745000	      4473	80001b38	00c000ef	jal	x1,80001b38	  x1=0x80001b38
       44755000	      4474	00000000	00000013	addi	x0,x0,0	  x0:0x00000000
       44765000	      4475	80001b40	00000013	addi	x0,x0,0	  x0:0x00000000
       44775000	      4476	80001b44	0080016f	jal	x2,80001b44	  x2=0x80001b44
       44785000	      4477	00000000	00000013	addi	x0,x0,0	  x0:0x00000000
       44795000	      4478	80001b48	00000013	addi	x0,x0,0	  x0:0x00000000
       44805000	      4479	80001b4c	fe9ff0ef	jal	x1,80001b4c	  x1=0x80001b4c
       44815000	      4480	00000000	00000013	addi	x0,x0,0	  x0:0x00000000
       44825000	      4481	80001b30	00000013	addi	x0,x0,0	  x0:0x00000000
       44835000	      4482	80001b34	00c0036f	jal	x6,80001b34	  x6=0x80001b34
       44845000	      4483	00000000	00000013	addi	x0,x0,0	  x0:0x00000000
       44855000	      4484	80001b3c	00000013	addi	x0,x0,0	  x0:0x00000000
       44865000	      4485	80001b40	fd9ff36f	jal	x6,80001b40	  x6=0x80001b40
       44875000	      4486	00000000	00000013	addi	x0,x0,0	  x0:0x00000000
       44885000	      4487	80001b14	00000013	addi	x0,x0,0	  x0:0x00000000
       44895000	      4488	80001b18	0180036f	jal	x6,80001b18	  x6=0x80001b18
       44905000	      4489	00000000	00000013	addi	x0,x0,0	  x0:0x00000000
       44915000	      4490	80001b2c	00000013	addi	x0,x0,0	  x0:0x00000000
       44925000	      4491	80001b30	ff5ff0ef	jal	x1,80001b30	  x1=0x80001b30
       44935000	      4492	00000000	00000013	addi	x0,x0,0	  x0:0x00000000
       44945000	      4493	80001b20	00000013	addi	x0,x0,0	  x0:0x00000000
       44955000	      4494	80001b24	ff9ff66f	jal	x12,80001b24	 x12=0x80001b24
       44965000	      4495	00000000	00000013	addi	x0,x0,0	  x0:0x00000000
       44975000	      4496	80001b18	00000013	addi	x0,x0,0	  x0:0x00000000
       44985000	      4497	80001b1c	02c000ef	jal	x1,80001b1c	  x1=0x80001b1c
       44995000	      4498	00000000	00000013	addi	x0,x0,0	  x0:0x00000000
       45005000	      4499	80001b44	00000013	addi	x0,x0,0	  x0:0x00000000
       45015000	      4500	80001b48	fe1ff0ef	jal	x1,80001b48	  x1=0x80001b48
       45025000	      4501	00000000	00000013	addi	x0,x0,0	  x0:0x00000000
       45035000	      4502	80001b24	00000013	addi	x0,x0,0	  x0:0x00000000
       45045000	      4503	80001b28	ff9ff0ef	jal	x1,80001b28	  x1=0x80001b28
       45055000	      4504	00000000	00000013	addi	x0,x0,0	  x0:0x00000000
       45065000	      4505	80001b1c	00000013	addi	x0,x0,0	  x0:0x00000000
       45075000	      4506	80001b20	01c0036f	jal	x6,80001b20	  x6=0x80001b20
       45085000	      4507	00000000	00000013	addi	x0,x0,0	  x0:0x00000000
       45095000	      4508	80001b38	00000013	addi	x0,x0,0	  x0:0x00000000
       45105000	      4509	80001b3c	0140016f	jal	x2,80001b3c	  x2=0x80001b3c
       45115000	      4510	00000000	00000013	addi	x0,x0,0	  x0:0x00000000
       45125000	      4511	80001b4c	00000013	addi	x0,x0,0	  x0:0x00000000
       45135000	      4512	80001b50	018a5313	srli	x6,x20,0x18	 x20:0x80001924  x6=0x00000080
       45145000	      4513	80001b54	00d72133	slt	x2,x14,x13	 x14:0x80001a94 x13:0x80001acc  x2=0x00000001
       45155000	      4514	80001b58	008ac5b3	xor	x11,x21,x8	 x21:0x8000190c  x8:0x80001a6c x11=0x00000360
       45165000	      4515	80001b5c	c4382193	slti	x3,x16,-957	 x16:0x800018fc  x3=0x00000001
       45175000	      4516	80001b60	0053a833	slt	x16,x7,x5	  x7:0x80001ae8  x5:0x00000000 x16=0x00000001
       45185000	      4517	80001b64	41815693	srai	x13,x2,0x18	  x2:0x00000001 x13=0x00000000
       45195000	      4518	80001b68	2bdccd13	xori	x26,x25,701	 x25:0xc07b75be x26=0xc07b7703
       45205000	      4519	80001b6c	1fb5cc13	xori	x24,x11,507	 x11:0x00000360 x24=0x0000029b
       45215000	      4520	80001b70	005fe5b3	or	x11,x31,x5	 x31:0x80001970  x5:0x00000000 x11=0x80001970
       45225000	      4521	80001b74	0294da63	bge	x9,x9,80001ba8	  x9:0x80001ac0  x9:0x80001ac0
       45235000	      4522	00000000	00000013	addi	x0,x0,0	  x0:0x00000000
       45245000	      4523	80001ba4	00000013	addi	x0,x0,0	  x0:0x00000000
       45255000	      4524	80001ba8	00b7de93	srli	x29,x15,0xb	 x15:0x00000000 x29=0x00000000
       45265000	      4525	80001bac	353b3393	sltiu	x7,x22,851	 x22:0x00000001  x7=0x00000001
       45275000	      4526	80001bb0	053c6863	bltu	x24,x19,80001c00	 x24:0x0000029b x19:0x80001ac4
       45285000	      4527	00000000	00000013	addi	x0,x0,0	  x0:0x00000000
       45295000	      4528	80001bfc	00000013	addi	x0,x0,0	  x0:0x00000000
       45305000	      4529	80001c00	0063feb3	and	x29,x7,x6	  x7:0x00000001  x6:0x00000080 x29=0x00000000
       45315000	      4530	80001c04	00000013	addi	x0,x0,0	  x0:0x00000000
       45325000	      4531	80001c08	f266af93	slti	x31,x13,-218	 x13:0x00000000 x31=0x00000000
       45335000	      4532	80001c0c	01955463	bge	x10,x25,80001c14	 x10:0x80001abc x25:0xc07b75be
       45345000	      4533	80001c10	001c4eb3	xor	x29,x24,x1	 x24:0x0000029b  x1:0x80001b28 x29=0x800019b3
       45355000	      4534	80001c14	a75fad13	slti	x26,x31,-1419	 x31:0x00000000 x26=0x00000000
       45365000	      4535	80001c18	6dbffc13	andi	x24,x31,1755	 x31:0x00000000 x24=0x00000000
       45375000	      4536	80001c1c	d228d9b7	lui	x19,0xd228d	 x19=0xd228d000
       45385000	      4537	80001c20	009a77b3	and	x15,x20,x9	 x20:0x80001924  x9:0x80001ac0 x15=0x80001800
       45395000	      4538	80001c24	0049dd13	srli	x26,x19,0x4	 x19:0xd228d000 x26=0x0d228d00
       45405000	      4539	80001c28	357b9c17	auipc	x24,0x357b9	 x24=0xb57bac24
       45415000	      4540	80001c2c	a1606bb7	lui	x23,0xa1606	 x23=0xa1606000
       45425000	      4541	80001c30	00c33433	sltu	x8,x6,x12	  x6:0x00000080 x12:0x80001b24  x8=0x00000001
       45435000	      4542	80001c34	015a1513	slli	x10,x20,0x15	 x20:0x80001924 x10=0x24800000
       45445000	      4543	80001c38	06f3b913	sltiu	x18,x7,111	  x7:0x00000001 x18=0x00000001
       45455000	      4544	80001c3c	40bede33	sra	x28,x29,x11	 x29:0x800019b3 x11:0x80001970 x28=0xffff8000
       45465000	      4545	80001c40	01d9ac33	slt	x24,x19,x29	 x19:0xd228d000 x29:0x800019b3 x24=0x00000000
       45475000	      4546	80001c44	00d09e93	slli	x29,x1,0xd	  x1:0x80001b28 x29=0x03650000
       45485000	      4547	80001c48	0124d3b3	srl	x7,x9,x18	  x9:0x80001ac0 x18:0x00000001  x7=0x40000d60
       45495000	      4548	80001c4c	0563f463	bgeu	x7,x22,80001c94	  x7:0x40000d60 x22:0x00000001
       45505000	      4549	00000000	00000013	addi	x0,x0,0	  x0:0x00000000
       45515000	      4550	80001c90	00000013	addi	x0,x0,0	  x0:0x00000000
       45525000	      4551	80001c94	410859b3	sra	x19,x16,x16	 x16:0x00000001 x16:0x00000001 x19=0x00000000
       45535000	      4552	80001c98	40f4d193	srai	x3,x9,0xf	  x9:0x80001ac0  x3=0xffff0000
       45545000	      4553	80001c9c	01054333	xor	x6,x10,x16	 x10:0x24800000 x16:0x00000001  x6=0x24800001
       45555000	      4554	80001ca0	40f6dbb3	sra	x23,x13,x15	 x13:0x00000000 x15:0x80001800 x23=0x00000000
       45565000	      4555	80001ca4	70c94a13	xori	x20,x18,1804	 x18:0x00000001 x20=0x0000070d
       45575000	      4556	80001ca8	00000013	addi	x0,x0,0	  x0:0x00000000
       45585000	      4557	80001cac	5a2e9717	auipc	x14,0x5a2e9	 x14=0xda2eaca8
       45595000	      4558	80001cb0	d4fca117	auipc	x2,0xd4fca	  x2=0x54fcbcac
       45605000	      4559	80001cb4	0085f633	and	x12,x11,x8	 x11:0x80001970  x8:0x00000001 x12=0x00000000
       45615000	      4560	80001cb8	05d74263	blt	x14,x29,80001cfc	 x14:0xda2eaca8 x29:0x03650000
       45625000	      4561	00000000	00000013	addi	x0,x0,0	  x0:0x00000000
       45635000	      4562	80001cf8	00000013	addi	x0,x0,0	  x0:0x00000000
       45645000	      4563	80001cfc	01afc8b3	xor	x17,x31,x26	 x31:0x00000000 x26:0x0d228d00 x17=0x0d228d00
       45655000	      4564	80001d00	a5928193	addi	x3,x5,-1447	  x5:0x00000000  x3=0xfffffa59
       45665000	      4565	80001d04	00ccb833	sltu	x16,x25,x12	 x25:0xc07b75be x12:0x00000000 x16=0x00000000
       45675000	      4566	80001d08	08d68693	addi	x13,x13,141	 x13:0x00000000 x13=0x0000008d
       45685000	      4567	80001d0c	4100da33	sra	x20,x1,x16	  x1:0x80001b28 x16:0x00000000 x20=0x80001b28
       45695000	      4568	80001d10	d4222713	slti	x14,x4,-702	  x4:0x80009ef4 x14=0x00000001
       45705000	      4569	80001d14	02d10a63	beq	x2,x13,80001d48	  x2:0x54fcbcac x13:0x0000008d
       45715000	      4570	80001d18	057e0863	beq	x28,x23,80001d68	 x28:0xffff8000 x23:0x00000000
       45725000	      4571	80001d1c	009d71b3	and	x3,x26,x9	 x26:0x0d228d00  x9:0x80001ac0  x3=0x00000800
       45735000	      4572	80001d20	bd762db7	lui	x27,0xbd762	 x27=0xbd762000
       45745000	      4573	80001d24	01939693	slli	x13,x7,0x19	  x7:0x40000d60 x13=0xc0000000
       45755000	      4574	80001d28	00599863	bne	x19,x5,80001d38	 x19:0x00000000  x5:0x00000000
       45765000	      4575	80001d2c	34f1f093	andi	x1,x3,847	  x3:0x00000800  x1=0x00000000
       45775000	      4576	80001d30	0444f863	bgeu	x9,x4,80001d80	  x9:0x80001ac0  x4:0x80009ef4
       45785000	      4577	80001d34	5633f837	lui	x16,0x5633f	 x16=0x5633f000
       45795000	      4578	80001d38	0061dd13	srli	x26,x3,0x6	  x3:0x00000800 x26=0x00000020
       45805000	      4579	80001d3c	00f3fb33	and	x22,x7,x15	  x7:0x40000d60 x15:0x80001800 x22=0x00000800
       45815000	      4580	80001d40	0066e833	or	x16,x13,x6	 x13:0xc0000000  x6:0x24800001 x16=0xe4800001
       45825000	      4581	80001d44	011b9d13	slli	x26,x23,0x11	 x23:0x00000000 x26=0x00000000
       45835000	      4582	80001d48	00273fb3	sltu	x31,x14,x2	 x14:0x00000001  x2:0x54fcbcac x31=0x00000001
       45845000	      4583	80001d4c	55968013	addi	x0,x13,1369	 x13:0xc0000000
       45855000	      4584	80001d50	04c97063	bgeu	x18,x12,80001d90	 x18:0x00000001 x12:0x00000000
       45865000	      4585	00000000	00000013	addi	x0,x0,0	  x0:0x00000000
       45875000	      4586	80001d8c	00000013	addi	x0,x0,0	  x0:0x00000000
       45885000	      4587	80001d90	0122b1b3	sltu	x3,x5,x18	  x5:0x00000000 x18:0x00000001  x3=0x00000001
       45895000	      4588	80001d94	57fd6c13	ori	x24,x26,1407	 x26:0x00000000 x24=0x0000057f
       45905000	      4589	80001d98	608b6d93	ori	x27,x22,1544	 x22:0x00000800 x27=0x00000e08
       45915000	      4590	80001d9c	2b6cca13	xori	x20,x25,694	 x25:0xc07b75be x20=0xc07b7708
       45925000	      4591	80001da0	00cd5b93	srli	x23,x26,0xc	 x26:0x00000000 x23=0x00000000
       45935000	      4592	80001da4	aa0f7393	andi	x7,x30,-1376	 x30:0x80009fc4  x7=0x80009a80
       45945000	      4593	80001da8	152e8913	addi	x18,x29,338	 x29:0x03650000 x18=0x03650152
       45955000	      4594	80001dac	01ef8663	beq	x31,x30,80001db8	 x31:0x00000001 x30:0x80009fc4
       45965000	      4595	80001db0	ae6e8393	addi	x7,x29,-1306	 x29:0x03650000  x7=0x0364fae6
       45975000	      4596	80001db4	77c4ad93	slti	x27,x9,1916	  x9:0x80001ac0 x27=0x00000001
       45985000	      4597	80001db8	01a54933	xor	x18,x10,x26	 x10:0x24800000 x26:0x00000000 x18=0x24800000
       45995000	      4598	80001dbc	037a7c63	bgeu	x20,x23,80001df4	 x20:0xc07b7708 x23:0x00000000
       46005000	      4599	00000000	00000013	addi	x0,x0,0	  x0:0x00000000
       46015000	      4600	80001df0	00000013	addi	x0,x0,0	  x0:0x00000000
       46025000	      4601	80001df4	00000013	addi	x0,x0,0	  x0:0x00000000
       46035000	      4602	80001df8	018ce933	or	x18,x25,x24	 x25:0xc07b75be x24:0x0000057f x18=0xc07b75ff
       46045000	      4603	80001dfc	052e4263	blt	x28,x18,80001e40	 x28:0xffff8000 x18:0xc07b75ff
       46055000	      4604	80001e00	bd3efb13	andi	x22,x29,-1069	 x29:0x03650000 x22=0x03650000
       46065000	      4605	80001e04	a4e5c897	auipc	x17,0xa4e5c	 x17=0x24e5de00
       46075000	      4606	80001e08	00c77cb3	and	x25,x14,x12	 x14:0x00000001 x12:0x00000000 x25=0x00000000
       46085000	      4607	80001e0c	555e7037	lui	x0,0x555e7	
       46095000	      4608	80001e10	01024663	blt	x4,x16,80001e1c	  x4:0x80009ef4 x16:0xe4800001
       46105000	      4609	00000000	00000013	addi	x0,x0,0	  x0:0x00000000
       46115000	      4610	80001e18	00000013	addi	x0,x0,0	  x0:0x00000000
       46125000	      4611	80001e1c	c123fa13	andi	x20,x7,-1006	  x7:0x0364fae6 x20=0x0364f802
       46135000	      4612	80001e20	0036d593	srli	x11,x13,0x3	 x13:0xc0000000 x11=0x18000000
       46145000	      4613	80001e24	7db60597	auipc	x11,0x7db60	 x11=0xfdb61e20
       46155000	      4614	80001e28	036e8a63	beq	x29,x22,80001e5c	 x29:0x03650000 x22:0x03650000
       46165000	      4615	00000000	00000013	addi	x0,x0,0	  x0:0x00000000
       46175000	      4616	80001e58	00000013	addi	x0,x0,0	  x0:0x00000000
       46185000	      4617	80001e5c	b20d8d13	addi	x26,x27,-1248	 x27:0x00000001 x26=0xfffffb21
       46195000	      4618	80001e60	019ff5b3	and	x11,x31,x25	 x31:0x00000001 x25:0x00000000 x11=0x00000000
       46205000	      4619	80001e64	0568f863	bgeu	x17,x22,80001eb4	 x17:0x24e5de00 x22:0x03650000
       46215000	      4620	00000000	00000013	addi	x0,x0,0	  x0:0x00000000
       46225000	      4621	80001eb0	00000013	addi	x0,x0,0	  x0:0x00000000
       46235000	      4622	80001eb4	00809793	slli	x15,x1,0x8	  x1:0x00000000 x15=0x00000000
       46245000	      4623	80001eb8	00befbb3	and	x23,x29,x11	 x29:0x03650000 x11:0x00000000 x23=0x00000000
       46255000	      4624	80001ebc	00535433	srl	x8,x6,x5	  x6:0x24800001  x5:0x00000000  x8=0x24800001
       46265000	      4625	80001ec0	85784c13	xori	x24,x16,-1961	 x16:0xe4800001 x24=0x1b7ff856
       46275000	      4626	80001ec4	40a1d333	sra	x6,x3,x10	  x3:0x00000001 x10:0x24800000  x6=0x00000001
       46285000	      4627	80001ec8	f93ff737	lui	x14,0xf93ff	 x14=0xf93ff000
       46295000	      4628	80001ecc	00334c63	blt	x6,x3,80001ee4	  x6:0x00000001  x3:0x00000001
       46305000	      4629	80001ed0	00ca7893	andi	x17,x20,12	 x20:0x0364f802 x17=0x00000000
       46315000	      4630	80001ed4	01f95a63	bge	x18,x31,80001ee8	 x18:0xc07b75ff x31:0x00000001
       46325000	      4631	80001ed8	e4b33b93	sltiu	x23,x6,-437	  x6:0x00000001 x23=0x00000001
       46335000	      4632	80001edc	01f6ec33	or	x24,x13,x31	 x13:0xc0000000 x31:0x00000001 x24=0xc0000001
       46345000	      4633	80001ee0	0102beb3	sltu	x29,x5,x16	  x5:0x00000000 x16:0xe4800001 x29=0x00000001
       46355000	      4634	80001ee4	e7395397	auipc	x7,0xe7395	  x7=0x67396ee0
       46365000	      4635	80001ee8	022a0c63	beq	x20,x2,80001f20	 x20:0x0364f802  x2:0x54fcbcac
       46375000	      4636	80001eec	41b45893	srai	x17,x8,0x1b	  x8:0x24800001 x17=0x00000004
       46385000	      4637	80001ef0	01fe1e63	bne	x28,x31,80001f0c	 x28:0xffff8000 x31:0x00000001
       46395000	      4638	00000000	00000013	addi	x0,x0,0	  x0:0x00000000
       46405000	      4639	80001f08	00000013	addi	x0,x0,0	  x0:0x00000000
       46415000	      4640	80001f0c	00000013	addi	x0,x0,0	  x0:0x00000000
       46425000	      4641	80001f10	4c6eea13	ori	x20,x29,1222	 x29:0x00000001 x20=0x000004c7
       46435000	      4642	80001f14	002435b3	sltu	x11,x8,x2	  x8:0x24800001  x2:0x54fcbcac x11=0x00000001
       46445000	      4643	80001f18	00df4a63	blt	x30,x13,80001f2c	 x30:0x80009fc4 x13:0xc0000000
       46455000	      4644	00000000	00000013	addi	x0,x0,0	  x0:0x00000000
       46465000	      4645	80001f28	00000013	addi	x0,x0,0	  x0:0x00000000
       46475000	      4646	80001f2c	008b5263	bge	x22,x8,80001f30	 x22:0x03650000  x8:0x24800001
       46485000	      4647	80001f30	408d53b3	sra	x7,x26,x8	 x26:0xfffffb21  x8:0x24800001  x7=0xfffffd90
       46495000	      4648	80001f34	40d4d933	sra	x18,x9,x13	  x9:0x80001ac0 x13:0xc0000000 x18=0x80001ac0
       46505000	      4649	80001f38	00942e33	slt	x28,x8,x9	  x8:0x24800001  x9:0x80001ac0 x28=0x00000000
       46515000	      4650	80001f3c	004b7db3	and	x27,x22,x4	 x22:0x03650000  x4:0x80009ef4 x27=0x00000000
       46525000	      4651	80001f40	234afd13	andi	x26,x21,564	 x21:0x8000190c x26=0x00000004
       46535000	      4652	80001f44	01c37463	bgeu	x6,x28,80001f4c	  x6:0x00000001 x28:0x00000000
       46545000	      4653	00000000	00000013	addi	x0,x0,0	  x0:0x00000000
       46555000	      4654	80001f48	00000013	addi	x0,x0,0	  x0:0x00000000
       46565000	      4655	80001f4c	018db333	sltu	x6,x27,x24	 x27:0x00000000 x24:0xc0000001  x6=0x00000001
       46575000	      4656	80001f50	50347a93	andi	x21,x8,1283	  x8:0x24800001 x21=0x00000001
       46585000	      4657	80001f54	013a5663	bge	x20,x19,80001f60	 x20:0x000004c7 x19:0x00000000
       46595000	      4658	00000000	00000013	addi	x0,x0,0	  x0:0x00000000
       46605000	      4659	80001f5c	00000013	addi	x0,x0,0	  x0:0x00000000
       46615000	      4660	80001f60	00f496b7	lui	x13,0xf49	 x13=0x00f49000
       46625000	      4661	80001f64	00a0d6b3	srl	x13,x1,x10	  x1:0x00000000 x10:0x24800000 x13=0x00000000
       46635000	      4662	80001f68	0007c833	xor	x16,x15,x0	 x15:0x00000000  x0:0x00000000 x16=0x00000000
       46645000	      4663	80001f6c	818dd537	lui	x10,0x818dd	 x10=0x818dd000
       46655000	      4664	80001f70	415b0013	addi	x0,x22,1045	 x22:0x03650000
       46665000	      4665	80001f74	cec40913	addi	x18,x8,-788	  x8:0x24800001 x18=0x247ffced
       46675000	      4666	80001f78	01ac1b33	sll	x22,x24,x26	 x24:0xc0000001 x26:0x00000004 x22=0x00000010
       46685000	      4667	80001f7c	02346a63	bltu	x8,x3,80001fb0	  x8:0x24800001  x3:0x00000001
       46695000	      4668	80001f80	01623033	sltu	x0,x4,x22	  x4:0x80009ef4 x22:0x00000010
       46705000	      4669	80001f84	94c13193	sltiu	x3,x2,-1716	  x2:0x54fcbcac  x3=0x00000001
       46715000	      4670	80001f88	01be1c63	bne	x28,x27,80001fa0	 x28:0x00000000 x27:0x00000000
       46725000	      4671	80001f8c	00885693	srli	x13,x16,0x8	 x16:0x00000000 x13=0x00000000
       46735000	      4672	80001f90	011ceb33	or	x22,x25,x17	 x25:0x00000000 x17:0x00000004 x22=0x00000004
       46745000	      4673	80001f94	012f0a33	add	x20,x30,x18	 x30:0x80009fc4 x18:0x247ffced x20=0xa4809cb1
       46755000	      4674	80001f98	c83b3513	sltiu	x10,x22,-893	 x22:0x00000004 x10=0x00000001
       46765000	      4675	80001f9c	3e44bd17	auipc	x26,0x3e44b	 x26=0xbe44cf98
       46775000	      4676	80001fa0	db0be097	auipc	x1,0xdb0be	  x1=0x5b0bff9c
       46785000	      4677	80001fa4	334d6093	ori	x1,x26,820	 x26:0xbe44cf98  x1=0xbe44cfbc
       46795000	      4678	80001fa8	04586463	bltu	x16,x5,80001ff0	 x16:0x00000000  x5:0x00000000
       46805000	      4679	80001fac	018bd133	srl	x2,x23,x24	 x23:0x00000001 x24:0xc0000001  x2=0x00000000
       46815000	      4680	80001fb0	01080c63	beq	x16,x16,80001fc8	 x16:0x00000000 x16:0x00000000
       46825000	      4681	00000000	00000013	addi	x0,x0,0	  x0:0x00000000
       46835000	      4682	80001fc4	00000013	addi	x0,x0,0	  x0:0x00000000
       46845000	      4683	80001fc8	01c10133	add	x2,x2,x28	  x2:0x00000000 x28:0x00000000  x2=0x00000000
       46855000	      4684	80001fcc	0897b937	lui	x18,0x897b	 x18=0x0897b000
       46865000	      4685	80001fd0	7df87e93	andi	x29,x16,2015	 x16:0x00000000 x29=0x00000000
       46875000	      4686	80001fd4	b670a513	slti	x10,x1,-1177	  x1:0xbe44cfbc x10=0x00000001
       46885000	      4687	80001fd8	415bf393	andi	x7,x23,1045	 x23:0x00000001  x7=0x00000001
       46895000	      4688	80001fdc	412954b3	sra	x9,x18,x18	 x18:0x0897b000 x18:0x0897b000  x9=0x0897b000
       46905000	      4689	80001fe0	6ffbf793	andi	x15,x23,1791	 x23:0x00000001 x15=0x00000001
       46915000	      4690	80001fe4	01f0e0b3	or	x1,x1,x31	  x1:0xbe44cfbc x31:0x00000001  x1=0xbe44cfbd
       46925000	      4691	80001fe8	e806ba13	sltiu	x20,x13,-384	 x13:0x00000000 x20=0x00000001
       46935000	      4692	80001fec	f008d6b7	lui	x13,0xf008d	 x13=0xf008d000
       46945000	      4693	80001ff0	24843313	sltiu	x6,x8,584	  x8:0x24800001  x6=0x00000000
       46955000	      4694	80001ff4	01cd1cb3	sll	x25,x26,x28	 x26:0xbe44cf98 x28:0x00000000 x25=0xbe44cf98
       46965000	      4695	80001ff8	019511b3	sll	x3,x10,x25	 x10:0x00000001 x25:0xbe44cf98  x3=0x01000000
       46975000	      4696	80001ffc	a46a8493	addi	x9,x21,-1466	 x21:0x00000001  x9=0xfffffa47
       46985000	      4697	80002000	01c7f133	and	x2,x15,x28	 x15:0x00000001 x28:0x00000000  x2=0x00000000
       46995000	      4698	80002004	01d101b3	add	x3,x2,x29	  x2:0x00000000 x29:0x00000000  x3=0x00000000
       47005000	      4699	80002008	afb10d93	addi	x27,x2,-1285	  x2:0x00000000 x27=0xfffffafb
       47015000	      4700	8000200c	05dd6863	bltu	x26,x29,8000205c	 x26:0xbe44cf98 x29:0x00000000
       47025000	      4701	80002010	00aad893	srli	x17,x21,0xa	 x21:0x00000001 x17=0x00000000
       47035000	      4702	80002014	40010cb3	sub	x25,x2,x0	  x2:0x00000000  x0:0x00000000 x25=0x00000000
       47045000	      4703	80002018	034bda63	bge	x23,x20,8000204c	 x23:0x00000001 x20:0x00000001
       47055000	      4704	00000000	00000013	addi	x0,x0,0	  x0:0x00000000
       47065000	      4705	80002048	00000013	addi	x0,x0,0	  x0:0x00000000
       47075000	      4706	8000204c	04984063	blt	x16,x9,8000208c	 x16:0x00000000  x9:0xfffffa47
       47085000	      4707	80002050	41bfd893	srai	x17,x31,0x1b	 x31:0x00000001 x17=0x00000000
       47095000	      4708	80002054	8f02e497	auipc	x9,0x8f02e	  x9=0x0f030050
       47105000	      4709	80002058	410a89b3	sub	x19,x21,x16	 x21:0x00000001 x16:0x00000000 x19=0x00000001
       47115000	      4710	8000205c	0105e263	bltu	x11,x16,80002060	 x11:0x00000001 x16:0x00000000
       47125000	      4711	80002060	01f01633	sll	x12,x0,x31	  x0:0x00000000 x31:0x00000001 x12=0x00000000
       47135000	      4712	80002064	019ada93	srli	x21,x21,0x19	 x21:0x00000001 x21=0x00000000
       47145000	      4713	80002068	018f5db3	srl	x27,x30,x24	 x30:0x80009fc4 x24:0xc0000001 x27=0x40004fe2
       47155000	      4714	8000206c	01418eb3	add	x29,x3,x20	  x3:0x00000000 x20:0x00000001 x29=0x00000001
       47165000	      4715	80002070	41f55a33	sra	x20,x10,x31	 x10:0x00000001 x31:0x00000001 x20=0x00000000
       47175000	      4716	80002074	02de8c63	beq	x29,x13,800020ac	 x29:0x00000001 x13:0xf008d000
       47185000	      4717	80002078	8bce8a93	addi	x21,x29,-1860	 x29:0x00000001 x21=0xfffff8bd
       47195000	      4718	8000207c	00461663	bne	x12,x4,80002088	 x12:0x00000000  x4:0x80009ef4
       47205000	      4719	00000000	00000013	addi	x0,x0,0	  x0:0x00000000
       47215000	      4720	80002084	00000013	addi	x0,x0,0	  x0:0x00000000
       47225000	      4721	80002088	40068133	sub	x2,x13,x0	 x13:0xf008d000  x0:0x00000000  x2=0xf008d000
       47235000	      4722	8000208c	4162d1b3	sra	x3,x5,x22	  x5:0x00000000 x22:0x00000004  x3=0x00000000
       47245000	      4723	80002090	01d19a63	bne	x3,x29,800020a4	  x3:0x00000000 x29:0x00000001
       47255000	      4724	00000000	00000013	addi	x0,x0,0	  x0:0x00000000
       47265000	      4725	800020a0	00000013	addi	x0,x0,0	  x0:0x00000000
       47275000	      4726	800020a4	e8526d13	ori	x26,x4,-379	  x4:0x80009ef4 x26=0xfffffef5
       47285000	      4727	800020a8	418bd113	srai	x2,x23,0x18	 x23:0x00000001  x2=0x00000000
       47295000	      4728	800020ac	033bc063	blt	x23,x19,800020cc	 x23:0x00000001 x19:0x00000001
       47305000	      4729	800020b0	02057c63	bgeu	x10,x0,800020e8	 x10:0x00000001  x0:0x00000000
       47315000	      4730	00000000	00000013	addi	x0,x0,0	  x0:0x00000000
       47325000	      4731	800020e4	00000013	addi	x0,x0,0	  x0:0x00000000
       47335000	      4732	800020e8	01e67e63	bgeu	x12,x30,80002104	 x12:0x00000000 x30:0x80009fc4
       47345000	      4733	800020ec	01d8bcb3	sltu	x25,x17,x29	 x17:0x00000000 x29:0x00000001 x25=0x00000001
       47355000	      4734	800020f0	0152f733	and	x14,x5,x21	  x5:0x00000000 x21:0xfffff8bd x14=0x00000000
       47365000	      4735	800020f4	00bbc8b3	xor	x17,x23,x11	 x23:0x00000001 x11:0x00000001 x17=0x00000000
       47375000	      4736	800020f8	016adc13	srli	x24,x21,0x16	 x21:0xfffff8bd x24=0x000003ff
       47385000	      4737	800020fc	00d585b3	add	x11,x11,x13	 x11:0x00000001 x13:0xf008d000 x11=0xf008d001
       47395000	      4738	80002100	08e4e117	auipc	x2,0x8e4e	  x2=0x88e500fc
       47405000	      4739	80002104	8eea4413	xori	x8,x20,-1810	 x20:0x00000000  x8=0xfffff8ee
       47415000	      4740	80002108	01645393	srli	x7,x8,0x16	  x8:0xfffff8ee  x7=0x000003ff
       47425000	      4741	8000210c	000f1f93	slli	x31,x30,0x0	 x30:0x80009fc4 x31=0x80009fc4
       47435000	      4742	80002110	000f9793	slli	x15,x31,0x0	 x31:0x80009fc4 x15=0x80009fc4
       47445000	      4743	80002114	003866b3	or	x13,x16,x3	 x16:0x00000000  x3:0x00000000 x13=0x00000000
       47455000	      4744	80002118	01233a33	sltu	x20,x6,x18	  x6:0x00000000 x18:0x0897b000 x20=0x00000001
       47465000	      4745	8000211c	0133c1b3	xor	x3,x7,x19	  x7:0x000003ff x19:0x00000001  x3=0x000003fe
       47475000	      4746	80002120	c51c6397	auipc	x7,0xc51c6	  x7=0x451c811c
       47485000	      4747	80002124	40d80133	sub	x2,x16,x13	 x16:0x00000000 x13:0x00000000  x2=0x00000000
       47495000	      4748	80002128	40dfdcb3	sra	x25,x31,x13	 x31:0x80009fc4 x13:0x00000000 x25=0x80009fc4
       47505000	      4749	8000212c	0193ecb3	or	x25,x7,x25	  x7:0x451c811c x25:0x80009fc4 x25=0xc51c9fdc
       47515000	      4750	80002130	019ec7b3	xor	x15,x29,x25	 x29:0x00000001 x25:0xc51c9fdc x15=0xc51c9fdd
       47525000	      4751	80002134	04d37463	bgeu	x6,x13,8000217c	  x6:0x00000000 x13:0x00000000
       47535000	      4752	00000000	00000013	addi	x0,x0,0	  x0:0x00000000
       47545000	      4753	80002178	00000013	addi	x0,x0,0	  x0:0x00000000
       47555000	      4754	8000217c	04e20863	beq	x4,x14,800021cc	  x4:0x80009ef4 x14:0x00000000
       47565000	      4755	80002180	bfae2913	slti	x18,x28,-1030	 x28:0x00000000 x18=0x00000000
       47575000	      4756	80002184	00d31c33	sll	x24,x6,x13	  x6:0x00000000 x13:0x00000000 x24=0x00000000
       47585000	      4757	80002188	05c91463	bne	x18,x28,800021d0	 x18:0x00000000 x28:0x00000000
       47595000	      4758	8000218c	c08feab7	lui	x21,0xc08fe	 x21=0xc08fe000
       47605000	      4759	80002190	05698863	beq	x19,x22,800021e0	 x19:0x00000001 x22:0x00000004
       47615000	      4760	80002194	404f0db3	sub	x27,x30,x4	 x30:0x80009fc4  x4:0x80009ef4 x27=0x000000d0
       47625000	      4761	80002198	0181f663	bgeu	x3,x24,800021a4	  x3:0x000003fe x24:0x00000000
       47635000	      4762	00000000	00000013	addi	x0,x0,0	  x0:0x00000000
       47645000	      4763	800021a0	00000013	addi	x0,x0,0	  x0:0x00000000
       47655000	      4764	800021a4	411254b3	sra	x9,x4,x17	  x4:0x80009ef4 x17:0x00000000  x9=0x80009ef4
       47665000	      4765	800021a8	03d9d063	bge	x19,x29,800021c8	 x19:0x00000001 x29:0x00000001
       47675000	      4766	00000000	00000013	addi	x0,x0,0	  x0:0x00000000
       47685000	      4767	800021c4	00000013	addi	x0,x0,0	  x0:0x00000000
       47695000	      4768	800021c8	22954b13	xori	x22,x10,553	 x10:0x00000001 x22=0x00000228
       47705000	      4769	800021cc	4554ca93	xori	x21,x9,1109	  x9:0x80009ef4 x21=0x80009aa1
       47715000	      4770	800021d0	00c5d863	bge	x11,x12,800021e0	 x11:0xf008d001 x12:0x00000000
       47725000	      4771	800021d4	00e28a63	beq	x5,x14,800021e8	  x5:0x00000000 x14:0x00000000
       47735000	      4772	00000000	00000013	addi	x0,x0,0	  x0:0x00000000
       47745000	      4773	800021e4	00000013	addi	x0,x0,0	  x0:0x00000000
       47755000	      4774	800021e8	f4c63b97	auipc	x23,0xf4c63	 x23=0x74c651e4
       47765000	      4775	800021ec	00000013	addi	x0,x0,0	  x0:0x00000000
       47775000	      4776	800021f0	5ecc0e13	addi	x28,x24,1516	 x24:0x00000000 x28=0x000005ec
       47785000	      4777	800021f4	9ad28793	addi	x15,x5,-1619	  x5:0x00000000 x15=0xfffff9ad
       47795000	      4778	800021f8	2ff5c793	xori	x15,x11,767	 x11:0xf008d001 x15=0xf008d2fe
       47805000	      4779	800021fc	01382333	slt	x6,x16,x19	 x16:0x00000000 x19:0x00000001  x6=0x00000001
       47815000	      4780	80002200	00422083	lw	x1,4(x4)	  x4:0x80009ef4  x1=0x80004240 PA:0x80009ef8
       47825000	      4781	80002204	02420213	addi	x4,x4,36	  x4:0x80009ef4  x4=0x80009f18
       47835000	      4782	80002208	01e21513	slli	x10,x4,0x1e	  x4:0x80009f18 x10=0x00000000
       47845000	      4783	8000220c	00108d93	addi	x27,x1,1	  x1:0x80004240 x27=0x80004241
       47855000	      4784	80002210	000d8de7	jalr	x27,x27,0	 x27:0x80004241 x27=0x80002210
       47865000	      4785	00000000	00000013	addi	x0,x0,0	  x0:0x00000000
       47875000	      4786	80004240	00000013	addi	x0,x0,0	  x0:0x00000000
       47885000	      4787	80004244	024000ef	jal	x1,80004244	  x1=0x80004244
       47895000	      4788	00000000	00000013	addi	x0,x0,0	  x0:0x00000000
       47905000	      4789	80004264	00000013	addi	x0,x0,0	  x0:0x00000000
       47915000	      4790	80004268	00c00e6f	jal	x28,80004268	 x28=0x80004268
       47925000	      4791	00000000	00000013	addi	x0,x0,0	  x0:0x00000000
       47935000	      4792	80004270	00000013	addi	x0,x0,0	  x0:0x00000000
       47945000	      4793	80004274	fe1ffb6f	jal	x22,80004274	 x22=0x80004274
       47955000	      4794	00000000	00000013	addi	x0,x0,0	  x0:0x00000000
       47965000	      4795	80004250	00000013	addi	x0,x0,0	  x0:0x00000000
       47975000	      4796	80004254	ff5ff0ef	jal	x1,80004254	  x1=0x80004254
       47985000	      4797	00000000	00000013	addi	x0,x0,0	  x0:0x00000000
       47995000	      4798	80004244	00000013	addi	x0,x0,0	  x0:0x00000000
       48005000	      4799	80004248	010000ef	jal	x1,80004248	  x1=0x80004248
       48015000	      4800	00000000	00000013	addi	x0,x0,0	  x0:0x00000000
       48025000	      4801	80004254	00000013	addi	x0,x0,0	  x0:0x00000000
       48035000	      4802	80004258	00c000ef	jal	x1,80004258	  x1=0x80004258
       48045000	      4803	00000000	00000013	addi	x0,x0,0	  x0:0x00000000
       48055000	      4804	80004260	00000013	addi	x0,x0,0	  x0:0x00000000
       48065000	      4805	80004264	fedff0ef	jal	x1,80004264	  x1=0x80004264
       48075000	      4806	00000000	00000013	addi	x0,x0,0	  x0:0x00000000
       48085000	      4807	8000424c	00000013	addi	x0,x0,0	  x0:0x00000000
       48095000	      4808	80004250	028000ef	jal	x1,80004250	  x1=0x80004250
       48105000	      4809	00000000	00000013	addi	x0,x0,0	  x0:0x00000000
       48115000	      4810	80004274	00000013	addi	x0,x0,0	  x0:0x00000000
       48125000	      4811	80004278	ff9ff9ef	jal	x19,80004278	 x19=0x80004278
       48135000	      4812	00000000	00000013	addi	x0,x0,0	  x0:0x00000000
       48145000	      4813	8000426c	00000013	addi	x0,x0,0	  x0:0x00000000
       48155000	      4814	80004270	00c008ef	jal	x17,80004270	 x17=0x80004270
       48165000	      4815	00000000	00000013	addi	x0,x0,0	  x0:0x00000000
       48175000	      4816	80004278	00000013	addi	x0,x0,0	  x0:0x00000000
       48185000	      4817	8000427c	fe5ff0ef	jal	x1,8000427c	  x1=0x8000427c
       48195000	      4818	00000000	00000013	addi	x0,x0,0	  x0:0x00000000
       48205000	      4819	8000425c	00000013	addi	x0,x0,0	  x0:0x00000000
       48215000	      4820	80004260	ffdff36f	jal	x6,80004260	  x6=0x80004260
       48225000	      4821	00000000	00000013	addi	x0,x0,0	  x0:0x00000000
       48235000	      4822	80004258	00000013	addi	x0,x0,0	  x0:0x00000000
       48245000	      4823	8000425c	ff1ff36f	jal	x6,8000425c	  x6=0x8000425c
       48255000	      4824	00000000	00000013	addi	x0,x0,0	  x0:0x00000000
       48265000	      4825	80004248	00000013	addi	x0,x0,0	  x0:0x00000000
       48275000	      4826	8000424c	034000ef	jal	x1,8000424c	  x1=0x8000424c
       48285000	      4827	00000000	00000013	addi	x0,x0,0	  x0:0x00000000
       48295000	      4828	8000427c	00000013	addi	x0,x0,0	  x0:0x00000000
       48305000	      4829	80004280	fedff1ef	jal	x3,80004280	  x3=0x80004280
       48315000	      4830	00000000	00000013	addi	x0,x0,0	  x0:0x00000000
       48325000	      4831	80004268	00000013	addi	x0,x0,0	  x0:0x00000000
       48335000	      4832	8000426c	018000ef	jal	x1,8000426c	  x1=0x8000426c
       48345000	      4833	00000000	00000013	addi	x0,x0,0	  x0:0x00000000
       48355000	      4834	80004280	00000013	addi	x0,x0,0	  x0:0x00000000
       48365000	      4835	80004284	00338133	add	x2,x7,x3	  x7:0x451c811c  x3:0x80004280  x2=0xc51cc39c
       48375000	      4836	80004288	02c000ef	jal	x1,80004288	  x1=0x80004288
       48385000	      4837	00000000	00000013	addi	x0,x0,0	  x0:0x00000000
       48395000	      4838	800042b0	00000013	addi	x0,x0,0	  x0:0x00000000
       48405000	      4839	800042b4	fe5ff0ef	jal	x1,800042b4	  x1=0x800042b4
       48415000	      4840	00000000	00000013	addi	x0,x0,0	  x0:0x00000000
       48425000	      4841	80004294	00000013	addi	x0,x0,0	  x0:0x00000000
       48435000	      4842	80004298	030000ef	jal	x1,80004298	  x1=0x80004298
       48445000	      4843	00000000	00000013	addi	x0,x0,0	  x0:0x00000000
       48455000	      4844	800042c4	00000013	addi	x0,x0,0	  x0:0x00000000
       48465000	      4845	800042c8	fe9ff36f	jal	x6,800042c8	  x6=0x800042c8
       48475000	      4846	00000000	00000013	addi	x0,x0,0	  x0:0x00000000
       48485000	      4847	800042ac	00000013	addi	x0,x0,0	  x0:0x00000000
       48495000	      4848	800042b0	ff1ff0ef	jal	x1,800042b0	  x1=0x800042b0
       48505000	      4849	00000000	00000013	addi	x0,x0,0	  x0:0x00000000
       48515000	      4850	8000429c	00000013	addi	x0,x0,0	  x0:0x00000000
       48525000	      4851	800042a0	fedff0ef	jal	x1,800042a0	  x1=0x800042a0
       48535000	      4852	00000000	00000013	addi	x0,x0,0	  x0:0x00000000
       48545000	      4853	80004288	00000013	addi	x0,x0,0	  x0:0x00000000
       48555000	      4854	8000428c	010000ef	jal	x1,8000428c	  x1=0x8000428c
       48565000	      4855	00000000	00000013	addi	x0,x0,0	  x0:0x00000000
       48575000	      4856	80004298	00000013	addi	x0,x0,0	  x0:0x00000000
       48585000	      4857	8000429c	ff5ff0ef	jal	x1,8000429c	  x1=0x8000429c
       48595000	      4858	00000000	00000013	addi	x0,x0,0	  x0:0x00000000
       48605000	      4859	8000428c	00000013	addi	x0,x0,0	  x0:0x00000000
       48615000	      4860	80004290	03c0036f	jal	x6,80004290	  x6=0x80004290
       48625000	      4861	00000000	00000013	addi	x0,x0,0	  x0:0x00000000
       48635000	      4862	800042c8	00000013	addi	x0,x0,0	  x0:0x00000000
       48645000	      4863	800042cc	fd9ffb6f	jal	x22,800042cc	 x22=0x800042cc
       48655000	      4864	00000000	00000013	addi	x0,x0,0	  x0:0x00000000
       48665000	      4865	800042a0	00000013	addi	x0,x0,0	  x0:0x00000000
       48675000	      4866	800042a4	01c000ef	jal	x1,800042a4	  x1=0x800042a4
       48685000	      4867	00000000	00000013	addi	x0,x0,0	  x0:0x00000000
       48695000	      4868	800042bc	00000013	addi	x0,x0,0	  x0:0x00000000
       48705000	      4869	800042c0	010000ef	jal	x1,800042c0	  x1=0x800042c0
       48715000	      4870	00000000	00000013	addi	x0,x0,0	  x0:0x00000000
       48725000	      4871	800042cc	00000013	addi	x0,x0,0	  x0:0x00000000
       48735000	      4872	800042d0	008000ef	jal	x1,800042d0	  x1=0x800042d0
       48745000	      4873	00000000	00000013	addi	x0,x0,0	  x0:0x00000000
       48755000	      4874	800042d4	00000013	addi	x0,x0,0	  x0:0x00000000
       48765000	      4875	800042d8	ffdff66f	jal	x12,800042d8	 x12=0x800042d8
       48775000	      4876	00000000	00000013	addi	x0,x0,0	  x0:0x00000000
       48785000	      4877	800042d0	00000013	addi	x0,x0,0	  x0:0x00000000
       48795000	      4878	800042d4	fe5ff36f	jal	x6,800042d4	  x6=0x800042d4
       48805000	      4879	00000000	00000013	addi	x0,x0,0	  x0:0x00000000
       48815000	      4880	800042b4	00000013	addi	x0,x0,0	  x0:0x00000000
       48825000	      4881	800042b8	ff5ff46f	jal	x8,800042b8	  x8=0x800042b8
       48835000	      4882	00000000	00000013	addi	x0,x0,0	  x0:0x00000000
       48845000	      4883	800042a8	00000013	addi	x0,x0,0	  x0:0x00000000
       48855000	      4884	800042ac	ffdff0ef	jal	x1,800042ac	  x1=0x800042ac
       48865000	      4885	00000000	00000013	addi	x0,x0,0	  x0:0x00000000
       48875000	      4886	800042a4	00000013	addi	x0,x0,0	  x0:0x00000000
       48885000	      4887	800042a8	fedff36f	jal	x6,800042a8	  x6=0x800042a8
       48895000	      4888	00000000	00000013	addi	x0,x0,0	  x0:0x00000000
       48905000	      4889	80004290	00000013	addi	x0,x0,0	  x0:0x00000000
       48915000	      4890	80004294	0300076f	jal	x14,80004294	 x14=0x80004294
       48925000	      4891	00000000	00000013	addi	x0,x0,0	  x0:0x00000000
       48935000	      4892	800042c0	00000013	addi	x0,x0,0	  x0:0x00000000
       48945000	      4893	800042c4	ff9ffcef	jal	x25,800042c4	 x25=0x800042c4
       48955000	      4894	00000000	00000013	addi	x0,x0,0	  x0:0x00000000
       48965000	      4895	800042b8	00000013	addi	x0,x0,0	  x0:0x00000000
       48975000	      4896	800042bc	020000ef	jal	x1,800042bc	  x1=0x800042bc
       48985000	      4897	00000000	00000013	addi	x0,x0,0	  x0:0x00000000
       48995000	      4898	800042d8	00000013	addi	x0,x0,0	  x0:0x00000000
       49005000	      4899	800042dc	38754713	xori	x14,x10,903	 x10:0x00000000 x14=0x00000387
       49015000	      4900	800042e0	064000ef	jal	x1,800042e0	  x1=0x800042e0
       49025000	      4901	00000000	00000013	addi	x0,x0,0	  x0:0x00000000
       49035000	      4902	80004340	00000013	addi	x0,x0,0	  x0:0x00000000
       49045000	      4903	80004344	fe9ff0ef	jal	x1,80004344	  x1=0x80004344
       49055000	      4904	00000000	00000013	addi	x0,x0,0	  x0:0x00000000
       49065000	      4905	80004328	00000013	addi	x0,x0,0	  x0:0x00000000
       49075000	      4906	8000432c	fc1ff0ef	jal	x1,8000432c	  x1=0x8000432c
       49085000	      4907	00000000	00000013	addi	x0,x0,0	  x0:0x00000000
       49095000	      4908	800042e8	00000013	addi	x0,x0,0	  x0:0x00000000
       49105000	      4909	800042ec	004000ef	jal	x1,800042ec	  x1=0x800042ec
       49115000	      4910	00000000	00000013	addi	x0,x0,0	  x0:0x00000000
       49125000	      4911	800042ec	00000013	addi	x0,x0,0	  x0:0x00000000
       49135000	      4912	800042f0	024000ef	jal	x1,800042f0	  x1=0x800042f0
       49145000	      4913	00000000	00000013	addi	x0,x0,0	  x0:0x00000000
       49155000	      4914	80004310	00000013	addi	x0,x0,0	  x0:0x00000000
       49165000	      4915	80004314	fe1ff0ef	jal	x1,80004314	  x1=0x80004314
       49175000	      4916	00000000	00000013	addi	x0,x0,0	  x0:0x00000000
       49185000	      4917	800042f0	00000013	addi	x0,x0,0	  x0:0x00000000
       49195000	      4918	800042f4	0480036f	jal	x6,800042f4	  x6=0x800042f4
       49205000	      4919	00000000	00000013	addi	x0,x0,0	  x0:0x00000000
       49215000	      4920	80004338	00000013	addi	x0,x0,0	  x0:0x00000000
       49225000	      4921	8000433c	fbdff0ef	jal	x1,8000433c	  x1=0x8000433c
       49235000	      4922	00000000	00000013	addi	x0,x0,0	  x0:0x00000000
       49245000	      4923	800042f4	00000013	addi	x0,x0,0	  x0:0x00000000
       49255000	      4924	800042f8	054000ef	jal	x1,800042f8	  x1=0x800042f8
       49265000	      4925	00000000	00000013	addi	x0,x0,0	  x0:0x00000000
       49275000	      4926	80004348	00000013	addi	x0,x0,0	  x0:0x00000000
       49285000	      4927	8000434c	fe9ff36f	jal	x6,8000434c	  x6=0x8000434c
       49295000	      4928	00000000	00000013	addi	x0,x0,0	  x0:0x00000000
       49305000	      4929	80004330	00000013	addi	x0,x0,0	  x0:0x00000000
       49315000	      4930	80004334	01400a6f	jal	x20,80004334	 x20=0x80004334
       49325000	      4931	00000000	00000013	addi	x0,x0,0	  x0:0x00000000
       49335000	      4932	80004344	00000013	addi	x0,x0,0	  x0:0x00000000
       49345000	      4933	80004348	fc9ff0ef	jal	x1,80004348	  x1=0x80004348
       49355000	      4934	00000000	00000013	addi	x0,x0,0	  x0:0x00000000
       49365000	      4935	8000430c	00000013	addi	x0,x0,0	  x0:0x00000000
       49375000	      4936	80004310	0300016f	jal	x2,80004310	  x2=0x80004310
       49385000	      4937	00000000	00000013	addi	x0,x0,0	  x0:0x00000000
       49395000	      4938	8000433c	00000013	addi	x0,x0,0	  x0:0x00000000
       49405000	      4939	80004340	fa9ff16f	jal	x2,80004340	  x2=0x80004340
       49415000	      4940	00000000	00000013	addi	x0,x0,0	  x0:0x00000000
       49425000	      4941	800042e4	00000013	addi	x0,x0,0	  x0:0x00000000
       49435000	      4942	800042e8	018001ef	jal	x3,800042e8	  x3=0x800042e8
       49445000	      4943	00000000	00000013	addi	x0,x0,0	  x0:0x00000000
       49455000	      4944	800042fc	00000013	addi	x0,x0,0	  x0:0x00000000
       49465000	      4945	80004300	0180016f	jal	x2,80004300	  x2=0x80004300
       49475000	      4946	00000000	00000013	addi	x0,x0,0	  x0:0x00000000
       49485000	      4947	80004314	00000013	addi	x0,x0,0	  x0:0x00000000
       49495000	      4948	80004318	0040036f	jal	x6,80004318	  x6=0x80004318
       49505000	      4949	00000000	00000013	addi	x0,x0,0	  x0:0x00000000
       49515000	      4950	80004318	00000013	addi	x0,x0,0	  x0:0x00000000
       49525000	      4951	8000431c	fedffe6f	jal	x28,8000431c	 x28=0x8000431c
       49535000	      4952	00000000	00000013	addi	x0,x0,0	  x0:0x00000000
       49545000	      4953	80004304	00000013	addi	x0,x0,0	  x0:0x00000000
       49555000	      4954	80004308	fddff0ef	jal	x1,80004308	  x1=0x80004308
       49565000	      4955	00000000	00000013	addi	x0,x0,0	  x0:0x00000000
       49575000	      4956	800042e0	00000013	addi	x0,x0,0	  x0:0x00000000
       49585000	      4957	800042e4	040000ef	jal	x1,800042e4	  x1=0x800042e4
       49595000	      4958	00000000	00000013	addi	x0,x0,0	  x0:0x00000000
       49605000	      4959	80004320	00000013	addi	x0,x0,0	  x0:0x00000000
       49615000	      4960	80004324	fe9ffbef	jal	x23,80004324	 x23=0x80004324
       49625000	      4961	00000000	00000013	addi	x0,x0,0	  x0:0x00000000
       49635000	      4962	80004308	00000013	addi	x0,x0,0	  x0:0x00000000
       49645000	      4963	8000430c	ff9ff0ef	jal	x1,8000430c	  x1=0x8000430c
       49655000	      4964	00000000	00000013	addi	x0,x0,0	  x0:0x00000000
       49665000	      4965	80004300	00000013	addi	x0,x0,0	  x0:0x00000000
       49675000	      4966	80004304	034001ef	jal	x3,80004304	  x3=0x80004304
       49685000	      4967	00000000	00000013	addi	x0,x0,0	  x0:0x00000000
       49695000	      4968	80004334	00000013	addi	x0,x0,0	  x0:0x00000000
       49705000	      4969	80004338	fe9ff0ef	jal	x1,80004338	  x1=0x80004338
       49715000	      4970	00000000	00000013	addi	x0,x0,0	  x0:0x00000000
       49725000	      4971	8000431c	00000013	addi	x0,x0,0	  x0:0x00000000
       49735000	      4972	80004320	fddff36f	jal	x6,80004320	  x6=0x80004320
       49745000	      4973	00000000	00000013	addi	x0,x0,0	  x0:0x00000000
       49755000	      4974	800042f8	00000013	addi	x0,x0,0	  x0:0x00000000
       49765000	      4975	800042fc	034001ef	jal	x3,800042fc	  x3=0x800042fc
       49775000	      4976	00000000	00000013	addi	x0,x0,0	  x0:0x00000000
       49785000	      4977	8000432c	00000013	addi	x0,x0,0	  x0:0x00000000
       49795000	      4978	80004330	ff9ff0ef	jal	x1,80004330	  x1=0x80004330
       49805000	      4979	00000000	00000013	addi	x0,x0,0	  x0:0x00000000
       49815000	      4980	80004324	00000013	addi	x0,x0,0	  x0:0x00000000
       49825000	      4981	80004328	028000ef	jal	x1,80004328	  x1=0x80004328
       49835000	      4982	00000000	00000013	addi	x0,x0,0	  x0:0x00000000
       49845000	      4983	8000434c	00000013	addi	x0,x0,0	  x0:0x00000000
       49855000	      4984	80004350	40c7d513	srai	x10,x15,0xc	 x15:0xf008d2fe x10=0xffff008d
       49865000	      4985	80004354	00edc7b3	xor	x15,x27,x14	 x27:0x80002210 x14:0x00000387 x15=0x80002197
       49875000	      4986	80004358	00a59433	sll	x8,x11,x10	 x11:0xf008d001 x10:0xffff008d  x8=0x1a002000
       49885000	      4987	8000435c	0017bc33	sltu	x24,x15,x1	 x15:0x80002197  x1:0x80004328 x24=0x00000001
       49895000	      4988	80004360	00000013	addi	x0,x0,0	  x0:0x00000000
       49905000	      4989	80004364	ff3ca313	slti	x6,x25,-13	 x25:0x800042c4  x6=0x00000001
       49915000	      4990	80004368	01a31463	bne	x6,x26,80004370	  x6:0x00000001 x26:0xfffffef5
       49925000	      4991	00000000	00000013	addi	x0,x0,0	  x0:0x00000000
       49935000	      4992	8000436c	00000013	addi	x0,x0,0	  x0:0x00000000
       49945000	      4993	80004370	407cdfb3	sra	x31,x25,x7	 x25:0x800042c4  x7:0x451c811c x31=0xfffffff8
       49955000	      4994	80004374	00ae9db3	sll	x27,x29,x10	 x29:0x00000001 x10:0xffff008d x27=0x00002000
       49965000	      4995	80004378	01e54263	blt	x10,x30,8000437c	 x10:0xffff008d x30:0x80009fc4
       49975000	      4996	8000437c	01507133	and	x2,x0,x21	  x0:0x00000000 x21:0x80009aa1  x2=0x00000000
       49985000	      4997	80004380	5ba47593	andi	x11,x8,1466	  x8:0x1a002000 x11=0x00000000
       49995000	      4998	80004384	01e2ec33	or	x24,x5,x30	  x5:0x00000000 x30:0x80009fc4 x24=0x80009fc4
       50005000	      4999	80004388	eed8fb93	andi	x23,x17,-275	 x17:0x80004270 x23=0x80004260
       50015000	      5000	8000438c	01ab5013	srli	x0,x22,0x1a	 x22:0x800042cc
       50025000	      5001	80004390	00000013	addi	x0,x0,0	  x0:0x00000000
       50035000	      5002	80004394	00000013	addi	x0,x0,0	  x0:0x00000000
       50045000	      5003	80004398	4065dd93	srai	x27,x11,0x6	 x11:0x00000000 x27=0x00000000
       50055000	      5004	8000439c	034e8c63	beq	x29,x20,800043d4	 x29:0x00000001 x20:0x80004334
       50065000	      5005	800043a0	410808b3	sub	x17,x16,x16	 x16:0x00000000 x16:0x00000000 x17=0x00000000
       50075000	      5006	800043a4	40a209b3	sub	x19,x4,x10	  x4:0x80009f18 x10:0xffff008d x19=0x80019e8b
       50085000	      5007	800043a8	0348ec63	bltu	x17,x20,800043e0	 x17:0x00000000 x20:0x80004334
       50095000	      5008	00000000	00000013	addi	x0,x0,0	  x0:0x00000000
       50105000	      5009	800043dc	00000013	addi	x0,x0,0	  x0:0x00000000
       50115000	      5010	800043e0	000b99b3	sll	x19,x23,x0	 x23:0x80004260  x0:0x00000000 x19=0x80004260
       50125000	      5011	800043e4	018c9463	bne	x25,x24,800043ec	 x25:0x800042c4 x24:0x80009fc4
       50135000	      5012	00000000	00000013	addi	x0,x0,0	  x0:0x00000000
       50145000	      5013	800043e8	00000013	addi	x0,x0,0	  x0:0x00000000
       50155000	      5014	800043ec	012b15b3	sll	x11,x22,x18	 x22:0x800042cc x18:0x00000000 x11=0x800042cc
       50165000	      5015	800043f0	00bc1793	slli	x15,x24,0xb	 x24:0x80009fc4 x15=0x04fe2000
       50175000	      5016	800043f4	015a5413	srli	x8,x20,0x15	 x20:0x80004334  x8=0x00000400
       50185000	      5017	800043f8	025f9463	bne	x31,x5,80004420	 x31:0xfffffff8  x5:0x00000000
       50195000	      5018	00000000	00000013	addi	x0,x0,0	  x0:0x00000000
       50205000	      5019	8000441c	00000013	addi	x0,x0,0	  x0:0x00000000
       50215000	      5020	80004420	00000013	addi	x0,x0,0	  x0:0x00000000
       50225000	      5021	80004424	01335e63	bge	x6,x19,80004440	  x6:0x00000001 x19:0x80004260
       50235000	      5022	00000000	00000013	addi	x0,x0,0	  x0:0x00000000
       50245000	      5023	8000443c	00000013	addi	x0,x0,0	  x0:0x00000000
       50255000	      5024	80004440	01f0c463	blt	x1,x31,80004448	  x1:0x80004328 x31:0xfffffff8
       50265000	      5025	00000000	00000013	addi	x0,x0,0	  x0:0x00000000
       50275000	      5026	80004444	00000013	addi	x0,x0,0	  x0:0x00000000
       50285000	      5027	80004448	f1844013	xori	x0,x8,-232	  x8:0x00000400
       50295000	      5028	8000444c	01179463	bne	x15,x17,80004454	 x15:0x04fe2000 x17:0x00000000
       50305000	      5029	00000000	00000013	addi	x0,x0,0	  x0:0x00000000
       50315000	      5030	80004450	00000013	addi	x0,x0,0	  x0:0x00000000
       50325000	      5031	80004454	000971b3	and	x3,x18,x0	 x18:0x00000000  x0:0x00000000  x3=0x00000000
       50335000	      5032	80004458	2f06ba97	auipc	x21,0x2f06b	 x21=0xaf06f454
       50345000	      5033	8000445c	3c98ee97	auipc	x29,0x3c98e	 x29=0xbc992458
       50355000	      5034	80004460	35a8ad13	slti	x26,x17,858	 x17:0x00000000 x26=0x00000001
       50365000	      5035	80004464	00a928b3	slt	x17,x18,x10	 x18:0x00000000 x10:0xffff008d x17=0x00000000
       50375000	      5036	80004468	62967313	andi	x6,x12,1577	 x12:0x800042d8  x6=0x00000208
       50385000	      5037	8000446c	04f3f663	bgeu	x7,x15,800044b8	  x7:0x451c811c x15:0x04fe2000
       50395000	      5038	00000000	00000013	addi	x0,x0,0	  x0:0x00000000
       50405000	      5039	800044b4	00000013	addi	x0,x0,0	  x0:0x00000000
       50415000	      5040	800044b8	002f9993	slli	x19,x31,0x2	 x31:0xfffffff8 x19=0xffffffe0
       50425000	      5041	800044bc	003a8933	add	x18,x21,x3	 x21:0xaf06f454  x3:0x00000000 x18=0xaf06f454
       50435000	      5042	800044c0	014b1d13	slli	x26,x22,0x14	 x22:0x800042cc x26=0x2cc00000
       50445000	      5043	800044c4	e941ae37	lui	x28,0xe941a	 x28=0xe941a000
       50455000	      5044	800044c8	f815c9b7	lui	x19,0xf815c	 x19=0xf815c000
       50465000	      5045	800044cc	009f3db3	sltu	x27,x30,x9	 x30:0x80009fc4  x9:0x80009ef4 x27=0x00000000
       50475000	      5046	800044d0	004401b3	add	x3,x8,x4	  x8:0x00000400  x4:0x80009f18  x3=0x8000a318
       50485000	      5047	800044d4	02195663	bge	x18,x1,80004500	 x18:0xaf06f454  x1:0x80004328
       50495000	      5048	00000000	00000013	addi	x0,x0,0	  x0:0x00000000
       50505000	      5049	800044fc	00000013	addi	x0,x0,0	  x0:0x00000000
       50515000	      5050	80004500	0a527013	andi	x0,x4,165	  x4:0x80009f18
       50525000	      5051	80004504	0049e633	or	x12,x19,x4	 x19:0xf815c000  x4:0x80009f18 x12=0xf815df18
       50535000	      5052	80004508	03a1d463	bge	x3,x26,80004530	  x3:0x8000a318 x26:0x2cc00000
       50545000	      5053	8000450c	41dd5113	srai	x2,x26,0x1d	 x26:0x2cc00000  x2=0x00000001
       50555000	      5054	80004510	01315993	srli	x19,x2,0x13	  x2:0x00000001 x19=0x00000000
       50565000	      5055	80004514	03836463	bltu	x6,x24,8000453c	  x6:0x00000208 x24:0x80009fc4
       50575000	      5056	00000000	00000013	addi	x0,x0,0	  x0:0x00000000
       50585000	      5057	80004538	00000013	addi	x0,x0,0	  x0:0x00000000
       50595000	      5058	8000453c	1fd38d93	addi	x27,x7,509	  x7:0x451c811c x27=0x451c8319
       50605000	      5059	80004540	04e21063	bne	x4,x14,80004580	  x4:0x80009f18 x14:0x00000387
       50615000	      5060	00000000	00000013	addi	x0,x0,0	  x0:0x00000000
       50625000	      5061	8000457c	00000013	addi	x0,x0,0	  x0:0x00000000
       50635000	      5062	80004580	403b5593	srai	x11,x22,0x3	 x22:0x800042cc x11=0xf0000859
       50645000	      5063	80004584	94210013	addi	x0,x2,-1726	  x2:0x00000001
       50655000	      5064	80004588	07687463	bgeu	x16,x22,800045f0	 x16:0x00000000 x22:0x800042cc
       50665000	      5065	8000458c	01ccf5b3	and	x11,x25,x28	 x25:0x800042c4 x28:0xe941a000 x11=0x80000000
       50675000	      5066	80004590	0179e6b3	or	x13,x19,x23	 x19:0x00000000 x23:0x80004260 x13=0x80004260
       50685000	      5067	80004594	017ced33	or	x26,x25,x23	 x25:0x800042c4 x23:0x80004260 x26=0x800042e4
       50695000	      5068	80004598	0236cfb7	lui	x31,0x236c	 x31=0x0236c000
       50705000	      5069	8000459c	0163fe63	bgeu	x7,x22,800045b8	  x7:0x451c811c x22:0x800042cc
       50715000	      5070	800045a0	53517393	andi	x7,x2,1333	  x2:0x00000001  x7=0x00000001
       50725000	      5071	800045a4	011e9193	slli	x3,x29,0x11	 x29:0xbc992458  x3=0x48b00000
       50735000	      5072	800045a8	0090bab3	sltu	x21,x1,x9	  x1:0x80004328  x9:0x80009ef4 x21=0x00000001
       50745000	      5073	800045ac	4022db93	srai	x23,x5,0x2	  x5:0x00000000 x23=0x00000000
       50755000	      5074	800045b0	59108013	addi	x0,x1,1425	  x1:0x80004328
       50765000	      5075	800045b4	4185dcb3	sra	x25,x11,x24	 x11:0x80000000 x24:0x80009fc4 x25=0xf8000000
       50775000	      5076	800045b8	a68fd0ef	jal	x1,800045b8	  x1=0x800045b8
       50785000	      5077	00000000	00000013	addi	x0,x0,0	  x0:0x00000000
       50795000	      5078	8000181c	00000013	addi	x0,x0,0	  x0:0x00000000
       50805000	      5079	80001820	01e6d463	bge	x13,x30,80001828	 x13:0x80004260 x30:0x80009fc4
       50815000	      5080	80001824	01fef6b3	and	x13,x29,x31	 x29:0xbc992458 x31:0x0236c000 x13=0x00100000
       50825000	      5081	80001828	fdc20213	addi	x4,x4,-36	  x4:0x80009f18  x4=0x80009ef4
       50835000	      5082	8000182c	019fd993	srli	x19,x31,0x19	 x31:0x0236c000 x19=0x00000001
       50845000	      5083	80001830	00122223	sw	x1,4(x4)	  x4:0x80009ef4  x1:0x800045b8 PA:0x80009ef8
       50855000	      5084	80001834	40300eb3	sub	x29,x0,x3	  x0:0x00000000  x3:0x48b00000 x29=0xb7500000
       50865000	      5085	80001838	c07b7bb7	lui	x23,0xc07b7	 x23=0xc07b7000
       50875000	      5086	8000183c	014000ef	jal	x1,8000183c	  x1=0x8000183c
       50885000	      5087	00000000	00000013	addi	x0,x0,0	  x0:0x00000000
       50895000	      5088	8000184c	00000013	addi	x0,x0,0	  x0:0x00000000
       50905000	      5089	80001850	010000ef	jal	x1,80001850	  x1=0x80001850
       50915000	      5090	00000000	00000013	addi	x0,x0,0	  x0:0x00000000
       50925000	      5091	8000185c	00000013	addi	x0,x0,0	  x0:0x00000000
       50935000	      5092	80001860	fe1ff0ef	jal	x1,80001860	  x1=0x80001860
       50945000	      5093	00000000	00000013	addi	x0,x0,0	  x0:0x00000000
       50955000	      5094	8000183c	00000013	addi	x0,x0,0	  x0:0x00000000
       50965000	      5095	80001840	00c000ef	jal	x1,80001840	  x1=0x80001840
       50975000	      5096	00000000	00000013	addi	x0,x0,0	  x0:0x00000000
       50985000	      5097	80001848	00000013	addi	x0,x0,0	  x0:0x00000000
       50995000	      5098	8000184c	018000ef	jal	x1,8000184c	  x1=0x8000184c
       51005000	      5099	00000000	00000013	addi	x0,x0,0	  x0:0x00000000
       51015000	      5100	80001860	00000013	addi	x0,x0,0	  x0:0x00000000
       51025000	      5101	80001864	004000ef	jal	x1,80001864	  x1=0x80001864
       51035000	      5102	00000000	00000013	addi	x0,x0,0	  x0:0x00000000
       51045000	      5103	80001864	00000013	addi	x0,x0,0	  x0:0x00000000
       51055000	      5104	80001868	fddff0ef	jal	x1,80001868	  x1=0x80001868
       51065000	      5105	00000000	00000013	addi	x0,x0,0	  x0:0x00000000
       51075000	      5106	80001840	00000013	addi	x0,x0,0	  x0:0x00000000
       51085000	      5107	80001844	0040036f	jal	x6,80001844	  x6=0x80001844
       51095000	      5108	00000000	00000013	addi	x0,x0,0	  x0:0x00000000
       51105000	      5109	80001844	00000013	addi	x0,x0,0	  x0:0x00000000
       51115000	      5110	80001848	024000ef	jal	x1,80001848	  x1=0x80001848
       51125000	      5111	00000000	00000013	addi	x0,x0,0	  x0:0x00000000
       51135000	      5112	80001868	00000013	addi	x0,x0,0	  x0:0x00000000
       51145000	      5113	8000186c	fedff0ef	jal	x1,8000186c	  x1=0x8000186c
       51155000	      5114	00000000	00000013	addi	x0,x0,0	  x0:0x00000000
       51165000	      5115	80001854	00000013	addi	x0,x0,0	  x0:0x00000000
       51175000	      5116	80001858	ffdff36f	jal	x6,80001858	  x6=0x80001858
       51185000	      5117	00000000	00000013	addi	x0,x0,0	  x0:0x00000000
       51195000	      5118	80001850	00000013	addi	x0,x0,0	  x0:0x00000000
       51205000	      5119	80001854	008000ef	jal	x1,80001854	  x1=0x80001854
       51215000	      5120	00000000	00000013	addi	x0,x0,0	  x0:0x00000000
       51225000	      5121	80001858	00000013	addi	x0,x0,0	  x0:0x00000000
       51235000	      5122	8000185c	014000ef	jal	x1,8000185c	  x1=0x8000185c
       51245000	      5123	00000000	00000013	addi	x0,x0,0	  x0:0x00000000
       51255000	      5124	8000186c	00000013	addi	x0,x0,0	  x0:0x00000000
       51265000	      5125	80001870	009157b3	srl	x15,x2,x9	  x2:0x00000001  x9:0x80009ef4 x15=0x00000000
       51275000	      5126	80001874	018000ef	jal	x1,80001874	  x1=0x80001874
       51285000	      5127	00000000	00000013	addi	x0,x0,0	  x0:0x00000000
       51295000	      5128	80001888	00000013	addi	x0,x0,0	  x0:0x00000000
       51305000	      5129	8000188c	ff5ff0ef	jal	x1,8000188c	  x1=0x8000188c
       51315000	      5130	00000000	00000013	addi	x0,x0,0	  x0:0x00000000
       51325000	      5131	8000187c	00000013	addi	x0,x0,0	  x0:0x00000000
       51335000	      5132	80001880	060000ef	jal	x1,80001880	  x1=0x80001880
       51345000	      5133	00000000	00000013	addi	x0,x0,0	  x0:0x00000000
       51355000	      5134	800018dc	00000013	addi	x0,x0,0	  x0:0x00000000
       51365000	      5135	800018e0	fc9ff0ef	jal	x1,800018e0	  x1=0x800018e0
       51375000	      5136	00000000	00000013	addi	x0,x0,0	  x0:0x00000000
       51385000	      5137	800018a4	00000013	addi	x0,x0,0	  x0:0x00000000
       51395000	      5138	800018a8	fd1ff36f	jal	x6,800018a8	  x6=0x800018a8
       51405000	      5139	00000000	00000013	addi	x0,x0,0	  x0:0x00000000
       51415000	      5140	80001874	00000013	addi	x0,x0,0	  x0:0x00000000
       51425000	      5141	80001878	05c000ef	jal	x1,80001878	  x1=0x80001878
       51435000	      5142	00000000	00000013	addi	x0,x0,0	  x0:0x00000000
       51445000	      5143	800018d0	00000013	addi	x0,x0,0	  x0:0x00000000
       51455000	      5144	800018d4	fb1ff36f	jal	x6,800018d4	  x6=0x800018d4
       51465000	      5145	00000000	00000013	addi	x0,x0,0	  x0:0x00000000
       51475000	      5146	80001880	00000013	addi	x0,x0,0	  x0:0x00000000
       51485000	      5147	80001884	010000ef	jal	x1,80001884	  x1=0x80001884
       51495000	      5148	00000000	00000013	addi	x0,x0,0	  x0:0x00000000
       51505000	      5149	80001890	00000013	addi	x0,x0,0	  x0:0x00000000
       51515000	      5150	80001894	030000ef	jal	x1,80001894	  x1=0x80001894
       51525000	      5151	00000000	00000013	addi	x0,x0,0	  x0:0x00000000
       51535000	      5152	800018c0	00000013	addi	x0,x0,0	  x0:0x00000000
       51545000	      5153	800018c4	020000ef	jal	x1,800018c4	  x1=0x800018c4
       51555000	      5154	00000000	00000013	addi	x0,x0,0	  x0:0x00000000
       51565000	      5155	800018e0	00000013	addi	x0,x0,0	  x0:0x00000000
       51575000	      5156	800018e4	fadff0ef	jal	x1,800018e4	  x1=0x800018e4
       51585000	      5157	00000000	00000013	addi	x0,x0,0	  x0:0x00000000
       51595000	      5158	8000188c	00000013	addi	x0,x0,0	  x0:0x00000000
       51605000	      5159	80001890	038000ef	jal	x1,80001890	  x1=0x80001890
       51615000	      5160	00000000	00000013	addi	x0,x0,0	  x0:0x00000000
       51625000	      5161	800018c4	00000013	addi	x0,x0,0	  x0:0x00000000
       51635000	      5162	800018c8	fd5ff36f	jal	x6,800018c8	  x6=0x800018c8
       51645000	      5163	00000000	00000013	addi	x0,x0,0	  x0:0x00000000
       51655000	      5164	80001898	00000013	addi	x0,x0,0	  x0:0x00000000
       51665000	      5165	8000189c	014000ef	jal	x1,8000189c	  x1=0x8000189c
       51675000	      5166	00000000	00000013	addi	x0,x0,0	  x0:0x00000000
       51685000	      5167	800018ac	00000013	addi	x0,x0,0	  x0:0x00000000
       51695000	      5168	800018b0	fe9ff0ef	jal	x1,800018b0	  x1=0x800018b0
       51705000	      5169	00000000	00000013	addi	x0,x0,0	  x0:0x00000000
       51715000	      5170	80001894	00000013	addi	x0,x0,0	  x0:0x00000000
       51725000	      5171	80001898	038000ef	jal	x1,80001898	  x1=0x80001898
       51735000	      5172	00000000	00000013	addi	x0,x0,0	  x0:0x00000000
       51745000	      5173	800018cc	00000013	addi	x0,x0,0	  x0:0x00000000
       51755000	      5174	800018d0	fe5ff96f	jal	x18,800018d0	 x18=0x800018d0
       51765000	      5175	00000000	00000013	addi	x0,x0,0	  x0:0x00000000
       51775000	      5176	800018b0	00000013	addi	x0,x0,0	  x0:0x00000000
       51785000	      5177	800018b4	fc9ff0ef	jal	x1,800018b4	  x1=0x800018b4
       51795000	      5178	00000000	00000013	addi	x0,x0,0	  x0:0x00000000
       51805000	      5179	80001878	00000013	addi	x0,x0,0	  x0:0x00000000
       51815000	      5180	8000187c	050000ef	jal	x1,8000187c	  x1=0x8000187c
       51825000	      5181	00000000	00000013	addi	x0,x0,0	  x0:0x00000000
       51835000	      5182	800018c8	00000013	addi	x0,x0,0	  x0:0x00000000
       51845000	      5183	800018cc	fbdff36f	jal	x6,800018cc	  x6=0x800018cc
       51855000	      5184	00000000	00000013	addi	x0,x0,0	  x0:0x00000000
       51865000	      5185	80001884	00000013	addi	x0,x0,0	  x0:0x00000000
       51875000	      5186	80001888	01c0096f	jal	x18,80001888	 x18=0x80001888
       51885000	      5187	00000000	00000013	addi	x0,x0,0	  x0:0x00000000
       51895000	      5188	800018a0	00000013	addi	x0,x0,0	  x0:0x00000000
       51905000	      5189	800018a4	018000ef	jal	x1,800018a4	  x1=0x800018a4
       51915000	      5190	00000000	00000013	addi	x0,x0,0	  x0:0x00000000
       51925000	      5191	800018b8	00000013	addi	x0,x0,0	  x0:0x00000000
       51935000	      5192	800018bc	00400aef	jal	x21,800018bc	 x21=0x800018bc
       51945000	      5193	00000000	00000013	addi	x0,x0,0	  x0:0x00000000
       51955000	      5194	800018bc	00000013	addi	x0,x0,0	  x0:0x00000000
       51965000	      5195	800018c0	fe1ff0ef	jal	x1,800018c0	  x1=0x800018c0
       51975000	      5196	00000000	00000013	addi	x0,x0,0	  x0:0x00000000
       51985000	      5197	8000189c	00000013	addi	x0,x0,0	  x0:0x00000000
       51995000	      5198	800018a0	00c000ef	jal	x1,800018a0	  x1=0x800018a0
       52005000	      5199	00000000	00000013	addi	x0,x0,0	  x0:0x00000000
       52015000	      5200	800018a8	00000013	addi	x0,x0,0	  x0:0x00000000
       52025000	      5201	800018ac	0300036f	jal	x6,800018ac	  x6=0x800018ac
       52035000	      5202	00000000	00000013	addi	x0,x0,0	  x0:0x00000000
       52045000	      5203	800018d8	00000013	addi	x0,x0,0	  x0:0x00000000
       52055000	      5204	800018dc	fddff0ef	jal	x1,800018dc	  x1=0x800018dc
       52065000	      5205	00000000	00000013	addi	x0,x0,0	  x0:0x00000000
       52075000	      5206	800018b4	00000013	addi	x0,x0,0	  x0:0x00000000
       52085000	      5207	800018b8	020003ef	jal	x7,800018b8	  x7=0x800018b8
       52095000	      5208	00000000	00000013	addi	x0,x0,0	  x0:0x00000000
       52105000	      5209	800018d4	00000013	addi	x0,x0,0	  x0:0x00000000
       52115000	      5210	800018d8	010000ef	jal	x1,800018d8	  x1=0x800018d8
       52125000	      5211	00000000	00000013	addi	x0,x0,0	  x0:0x00000000
       52135000	      5212	800018e4	00000013	addi	x0,x0,0	  x0:0x00000000
       52145000	      5213	800018e8	07b98e13	addi	x28,x19,123	 x19:0x00000001 x28=0x0000007c
       52155000	      5214	800018ec	050000ef	jal	x1,800018ec	  x1=0x800018ec
       52165000	      5215	00000000	00000013	addi	x0,x0,0	  x0:0x00000000
       52175000	      5216	80001938	00000013	addi	x0,x0,0	  x0:0x00000000
       52185000	      5217	8000193c	fc9ff0ef	jal	x1,8000193c	  x1=0x8000193c
       52195000	      5218	00000000	00000013	addi	x0,x0,0	  x0:0x00000000
       52205000	      5219	80001900	00000013	addi	x0,x0,0	  x0:0x00000000
       52215000	      5220	80001904	03c000ef	jal	x1,80001904	  x1=0x80001904
       52225000	      5221	00000000	00000013	addi	x0,x0,0	  x0:0x00000000
       52235000	      5222	8000193c	00000013	addi	x0,x0,0	  x0:0x00000000
       52245000	      5223	80001940	fd5ff0ef	jal	x1,80001940	  x1=0x80001940
       52255000	      5224	00000000	00000013	addi	x0,x0,0	  x0:0x00000000
       52265000	      5225	80001910	00000013	addi	x0,x0,0	  x0:0x00000000
       52275000	      5226	80001914	0240036f	jal	x6,80001914	  x6=0x80001914
       52285000	      5227	00000000	00000013	addi	x0,x0,0	  x0:0x00000000
       52295000	      5228	80001934	00000013	addi	x0,x0,0	  x0:0x00000000
       52305000	      5229	80001938	fd1ff1ef	jal	x3,80001938	  x3=0x80001938
       52315000	      5230	00000000	00000013	addi	x0,x0,0	  x0:0x00000000
       52325000	      5231	80001904	00000013	addi	x0,x0,0	  x0:0x00000000
       52335000	      5232	80001908	ff5ff4ef	jal	x9,80001908	  x9=0x80001908
       52345000	      5233	00000000	00000013	addi	x0,x0,0	  x0:0x00000000
       52355000	      5234	800018f8	00000013	addi	x0,x0,0	  x0:0x00000000
       52365000	      5235	800018fc	0540086f	jal	x16,800018fc	 x16=0x800018fc
       52375000	      5236	00000000	00000013	addi	x0,x0,0	  x0:0x00000000
       52385000	      5237	8000194c	00000013	addi	x0,x0,0	  x0:0x00000000
       52395000	      5238	80001950	fb1ff66f	jal	x12,80001950	 x12=0x80001950
       52405000	      5239	00000000	00000013	addi	x0,x0,0	  x0:0x00000000
       52415000	      5240	800018fc	00000013	addi	x0,x0,0	  x0:0x00000000
       52425000	      5241	80001900	044004ef	jal	x9,80001900	  x9=0x80001900
       52435000	      5242	00000000	00000013	addi	x0,x0,0	  x0:0x00000000
       52445000	      5243	80001940	00000013	addi	x0,x0,0	  x0:0x00000000
       52455000	      5244	80001944	ff1ff36f	jal	x6,80001944	  x6=0x80001944
       52465000	      5245	00000000	00000013	addi	x0,x0,0	  x0:0x00000000
       52475000	      5246	80001930	00000013	addi	x0,x0,0	  x0:0x00000000
       52485000	      5247	80001934	fbdff0ef	jal	x1,80001934	  x1=0x80001934
       52495000	      5248	00000000	00000013	addi	x0,x0,0	  x0:0x00000000
       52505000	      5249	800018ec	00000013	addi	x0,x0,0	  x0:0x00000000
       52515000	      5250	800018f0	0380036f	jal	x6,800018f0	  x6=0x800018f0
       52525000	      5251	00000000	00000013	addi	x0,x0,0	  x0:0x00000000
       52535000	      5252	80001924	00000013	addi	x0,x0,0	  x0:0x00000000
       52545000	      5253	80001928	0200036f	jal	x6,80001928	  x6=0x80001928
       52555000	      5254	00000000	00000013	addi	x0,x0,0	  x0:0x00000000
       52565000	      5255	80001944	00000013	addi	x0,x0,0	  x0:0x00000000
       52575000	      5256	80001948	0040036f	jal	x6,80001948	  x6=0x80001948
       52585000	      5257	00000000	00000013	addi	x0,x0,0	  x0:0x00000000
       52595000	      5258	80001948	00000013	addi	x0,x0,0	  x0:0x00000000
       52605000	      5259	8000194c	fc5ff36f	jal	x6,8000194c	  x6=0x8000194c
       52615000	      5260	00000000	00000013	addi	x0,x0,0	  x0:0x00000000
       52625000	      5261	8000190c	00000013	addi	x0,x0,0	  x0:0x00000000
       52635000	      5262	80001910	0200016f	jal	x2,80001910	  x2=0x80001910
       52645000	      5263	00000000	00000013	addi	x0,x0,0	  x0:0x00000000
       52655000	      5264	8000192c	00000013	addi	x0,x0,0	  x0:0x00000000
       52665000	      5265	80001930	fc5ff36f	jal	x6,80001930	  x6=0x80001930
       52675000	      5266	00000000	00000013	addi	x0,x0,0	  x0:0x00000000
       52685000	      5267	800018f0	00000013	addi	x0,x0,0	  x0:0x00000000
       52695000	      5268	800018f4	02c000ef	jal	x1,800018f4	  x1=0x800018f4
       52705000	      5269	00000000	00000013	addi	x0,x0,0	  x0:0x00000000
       52715000	      5270	8000191c	00000013	addi	x0,x0,0	  x0:0x00000000
       52725000	      5271	80001920	fd9ffcef	jal	x25,80001920	 x25=0x80001920
       52735000	      5272	00000000	00000013	addi	x0,x0,0	  x0:0x00000000
       52745000	      5273	800018f4	00000013	addi	x0,x0,0	  x0:0x00000000
       52755000	      5274	800018f8	0200036f	jal	x6,800018f8	  x6=0x800018f8
       52765000	      5275	00000000	00000013	addi	x0,x0,0	  x0:0x00000000
       52775000	      5276	80001914	00000013	addi	x0,x0,0	  x0:0x00000000
       52785000	      5277	80001918	ff5ff3ef	jal	x7,80001918	  x7=0x80001918
       52795000	      5278	00000000	00000013	addi	x0,x0,0	  x0:0x00000000
       52805000	      5279	80001908	00000013	addi	x0,x0,0	  x0:0x00000000
       52815000	      5280	8000190c	01800aef	jal	x21,8000190c	 x21=0x8000190c
       52825000	      5281	00000000	00000013	addi	x0,x0,0	  x0:0x00000000
       52835000	      5282	80001920	00000013	addi	x0,x0,0	  x0:0x00000000
       52845000	      5283	80001924	03000a6f	jal	x20,80001924	 x20=0x80001924
       52855000	      5284	00000000	00000013	addi	x0,x0,0	  x0:0x00000000
       52865000	      5285	80001950	00000013	addi	x0,x0,0	  x0:0x00000000
       52875000	      5286	80001954	fc9ff0ef	jal	x1,80001954	  x1=0x80001954
       52885000	      5287	00000000	00000013	addi	x0,x0,0	  x0:0x00000000
       52895000	      5288	80001918	00000013	addi	x0,x0,0	  x0:0x00000000
       52905000	      5289	8000191c	0100036f	jal	x6,8000191c	  x6=0x8000191c
       52915000	      5290	00000000	00000013	addi	x0,x0,0	  x0:0x00000000
       52925000	      5291	80001928	00000013	addi	x0,x0,0	  x0:0x00000000
       52935000	      5292	8000192c	02c000ef	jal	x1,8000192c	  x1=0x8000192c
       52945000	      5293	00000000	00000013	addi	x0,x0,0	  x0:0x00000000
       52955000	      5294	80001954	00000013	addi	x0,x0,0	  x0:0x00000000
       52965000	      5295	80001958	929bb017	auipc	x0,0x929bb	
       52975000	      5296	8000195c	058000ef	jal	x1,8000195c	  x1=0x8000195c
       52985000	      5297	00000000	00000013	addi	x0,x0,0	  x0:0x00000000
       52995000	      5298	800019b0	00000013	addi	x0,x0,0	  x0:0x00000000
       53005000	      5299	800019b4	fc9ff36f	jal	x6,800019b4	  x6=0x800019b4
       53015000	      5300	00000000	00000013	addi	x0,x0,0	  x0:0x00000000
       53025000	      5301	80001978	00000013	addi	x0,x0,0	  x0:0x00000000
       53035000	      5302	8000197c	00c000ef	jal	x1,8000197c	  x1=0x8000197c
       53045000	      5303	00000000	00000013	addi	x0,x0,0	  x0:0x00000000
       53055000	      5304	80001984	00000013	addi	x0,x0,0	  x0:0x00000000
       53065000	      5305	80001988	008000ef	jal	x1,80001988	  x1=0x80001988
       53075000	      5306	00000000	00000013	addi	x0,x0,0	  x0:0x00000000
       53085000	      5307	8000198c	00000013	addi	x0,x0,0	  x0:0x00000000
       53095000	      5308	80001990	010000ef	jal	x1,80001990	  x1=0x80001990
       53105000	      5309	00000000	00000013	addi	x0,x0,0	  x0:0x00000000
       53115000	      5310	8000199c	00000013	addi	x0,x0,0	  x0:0x00000000
       53125000	      5311	800019a0	fd5ff36f	jal	x6,800019a0	  x6=0x800019a0
       53135000	      5312	00000000	00000013	addi	x0,x0,0	  x0:0x00000000
       53145000	      5313	80001970	00000013	addi	x0,x0,0	  x0:0x00000000
       53155000	      5314	80001974	0340016f	jal	x2,80001974	  x2=0x80001974
       53165000	      5315	00000000	00000013	addi	x0,x0,0	  x0:0x00000000
       53175000	      5316	800019a4	00000013	addi	x0,x0,0	  x0:0x00000000
       53185000	      5317	800019a8	fc1ff5ef	jal	x11,800019a8	 x11=0x800019a8
       53195000	      5318	00000000	00000013	addi	x0,x0,0	  x0:0x00000000
       53205000	      5319	80001964	00000013	addi	x0,x0,0	  x0:0x00000000
       53215000	      5320	80001968	02c006ef	jal	x13,80001968	 x13=0x80001968
       53225000	      5321	00000000	00000013	addi	x0,x0,0	  x0:0x00000000
       53235000	      5322	80001990	00000013	addi	x0,x0,0	  x0:0x00000000
       53245000	      5323	80001994	ff9ff0ef	jal	x1,80001994	  x1=0x80001994
       53255000	      5324	00000000	00000013	addi	x0,x0,0	  x0:0x00000000
       53265000	      5325	80001988	00000013	addi	x0,x0,0	  x0:0x00000000
       53275000	      5326	8000198c	ff9ff0ef	jal	x1,8000198c	  x1=0x8000198c
       53285000	      5327	00000000	00000013	addi	x0,x0,0	  x0:0x00000000
       53295000	      5328	80001980	00000013	addi	x0,x0,0	  x0:0x00000000
       53305000	      5329	80001984	0180036f	jal	x6,80001984	  x6=0x80001984
       53315000	      5330	00000000	00000013	addi	x0,x0,0	  x0:0x00000000
       53325000	      5331	80001998	00000013	addi	x0,x0,0	  x0:0x00000000
       53335000	      5332	8000199c	fd5ff0ef	jal	x1,8000199c	  x1=0x8000199c
       53345000	      5333	00000000	00000013	addi	x0,x0,0	  x0:0x00000000
       53355000	      5334	8000196c	00000013	addi	x0,x0,0	  x0:0x00000000
       53365000	      5335	80001970	03400fef	jal	x31,80001970	 x31=0x80001970
       53375000	      5336	00000000	00000013	addi	x0,x0,0	  x0:0x00000000
       53385000	      5337	800019a0	00000013	addi	x0,x0,0	  x0:0x00000000
       53395000	      5338	800019a4	fddff36f	jal	x6,800019a4	  x6=0x800019a4
       53405000	      5339	00000000	00000013	addi	x0,x0,0	  x0:0x00000000
       53415000	      5340	8000197c	00000013	addi	x0,x0,0	  x0:0x00000000
       53425000	      5341	80001980	02c0036f	jal	x6,80001980	  x6=0x80001980
       53435000	      5342	00000000	00000013	addi	x0,x0,0	  x0:0x00000000
       53445000	      5343	800019a8	00000013	addi	x0,x0,0	  x0:0x00000000
       53455000	      5344	800019ac	0040036f	jal	x6,800019ac	  x6=0x800019ac
       53465000	      5345	00000000	00000013	addi	x0,x0,0	  x0:0x00000000
       53475000	      5346	800019ac	00000013	addi	x0,x0,0	  x0:0x00000000
       53485000	      5347	800019b0	fe9ff36f	jal	x6,800019b0	  x6=0x800019b0
       53495000	      5348	00000000	00000013	addi	x0,x0,0	  x0:0x00000000
       53505000	      5349	80001994	00000013	addi	x0,x0,0	  x0:0x00000000
       53515000	      5350	80001998	fd5ffeef	jal	x29,80001998	 x29=0x80001998
       53525000	      5351	00000000	00000013	addi	x0,x0,0	  x0:0x00000000
       53535000	      5352	80001968	00000013	addi	x0,x0,0	  x0:0x00000000
       53545000	      5353	8000196c	ff5ff0ef	jal	x1,8000196c	  x1=0x8000196c
       53555000	      5354	00000000	00000013	addi	x0,x0,0	  x0:0x00000000
       53565000	      5355	8000195c	00000013	addi	x0,x0,0	  x0:0x00000000
       53575000	      5356	80001960	018001ef	jal	x3,80001960	  x3=0x80001960
       53585000	      5357	00000000	00000013	addi	x0,x0,0	  x0:0x00000000
       53595000	      5358	80001974	00000013	addi	x0,x0,0	  x0:0x00000000
       53605000	      5359	80001978	fedff0ef	jal	x1,80001978	  x1=0x80001978
       53615000	      5360	00000000	00000013	addi	x0,x0,0	  x0:0x00000000
       53625000	      5361	80001960	00000013	addi	x0,x0,0	  x0:0x00000000
       53635000	      5362	80001964	0540036f	jal	x6,80001964	  x6=0x80001964
       53645000	      5363	00000000	00000013	addi	x0,x0,0	  x0:0x00000000
       53655000	      5364	800019b4	00000013	addi	x0,x0,0	  x0:0x00000000
       53665000	      5365	800019b8	01fcad33	slt	x26,x25,x31	 x25:0x80001920 x31:0x80001970 x26=0x00000001
       53675000	      5366	800019bc	014000ef	jal	x1,800019bc	  x1=0x800019bc
       53685000	      5367	00000000	00000013	addi	x0,x0,0	  x0:0x00000000
       53695000	      5368	800019cc	00000013	addi	x0,x0,0	  x0:0x00000000
       53705000	      5369	800019d0	ff5ff36f	jal	x6,800019d0	  x6=0x800019d0
       53715000	      5370	00000000	00000013	addi	x0,x0,0	  x0:0x00000000
       53725000	      5371	800019c0	00000013	addi	x0,x0,0	  x0:0x00000000
       53735000	      5372	800019c4	024000ef	jal	x1,800019c4	  x1=0x800019c4
       53745000	      5373	00000000	00000013	addi	x0,x0,0	  x0:0x00000000
       53755000	      5374	800019e4	00000013	addi	x0,x0,0	  x0:0x00000000
       53765000	      5375	800019e8	00c000ef	jal	x1,800019e8	  x1=0x800019e8
       53775000	      5376	00000000	00000013	addi	x0,x0,0	  x0:0x00000000
       53785000	      5377	800019f0	00000013	addi	x0,x0,0	  x0:0x00000000
       53795000	      5378	800019f4	ff9ff0ef	jal	x1,800019f4	  x1=0x800019f4
       53805000	      5379	00000000	00000013	addi	x0,x0,0	  x0:0x00000000
       53815000	      5380	800019e8	00000013	addi	x0,x0,0	  x0:0x00000000
       53825000	      5381	800019ec	020000ef	jal	x1,800019ec	  x1=0x800019ec
       53835000	      5382	00000000	00000013	addi	x0,x0,0	  x0:0x00000000
       53845000	      5383	80001a08	00000013	addi	x0,x0,0	  x0:0x00000000
       53855000	      5384	80001a0c	ff5ffeef	jal	x29,80001a0c	 x29=0x80001a0c
       53865000	      5385	00000000	00000013	addi	x0,x0,0	  x0:0x00000000
       53875000	      5386	800019fc	00000013	addi	x0,x0,0	  x0:0x00000000
       53885000	      5387	80001a00	ff1ff36f	jal	x6,80001a00	  x6=0x80001a00
       53895000	      5388	00000000	00000013	addi	x0,x0,0	  x0:0x00000000
       53905000	      5389	800019ec	00000013	addi	x0,x0,0	  x0:0x00000000
       53915000	      5390	800019f0	018000ef	jal	x1,800019f0	  x1=0x800019f0
       53925000	      5391	00000000	00000013	addi	x0,x0,0	  x0:0x00000000
       53935000	      5392	80001a04	00000013	addi	x0,x0,0	  x0:0x00000000
       53945000	      5393	80001a08	014000ef	jal	x1,80001a08	  x1=0x80001a08
       53955000	      5394	00000000	00000013	addi	x0,x0,0	  x0:0x00000000
       53965000	      5395	80001a18	00000013	addi	x0,x0,0	  x0:0x00000000
       53975000	      5396	80001a1c	fadff1ef	jal	x3,80001a1c	  x3=0x80001a1c
       53985000	      5397	00000000	00000013	addi	x0,x0,0	  x0:0x00000000
       53995000	      5398	800019c4	00000013	addi	x0,x0,0	  x0:0x00000000
       54005000	      5399	800019c8	034000ef	jal	x1,800019c8	  x1=0x800019c8
       54015000	      5400	00000000	00000013	addi	x0,x0,0	  x0:0x00000000
       54025000	      5401	800019f8	00000013	addi	x0,x0,0	  x0:0x00000000
       54035000	      5402	800019fc	fddff4ef	jal	x9,800019fc	  x9=0x800019fc
       54045000	      5403	00000000	00000013	addi	x0,x0,0	  x0:0x00000000
       54055000	      5404	800019d4	00000013	addi	x0,x0,0	  x0:0x00000000
       54065000	      5405	800019d8	004000ef	jal	x1,800019d8	  x1=0x800019d8
       54075000	      5406	00000000	00000013	addi	x0,x0,0	  x0:0x00000000
       54085000	      5407	800019d8	00000013	addi	x0,x0,0	  x0:0x00000000
       54095000	      5408	800019dc	01c0036f	jal	x6,800019dc	  x6=0x800019dc
       54105000	      5409	00000000	00000013	addi	x0,x0,0	  x0:0x00000000
       54115000	      5410	800019f4	00000013	addi	x0,x0,0	  x0:0x00000000
       54125000	      5411	800019f8	fe9ff0ef	jal	x1,800019f8	  x1=0x800019f8
       54135000	      5412	00000000	00000013	addi	x0,x0,0	  x0:0x00000000
       54145000	      5413	800019dc	00000013	addi	x0,x0,0	  x0:0x00000000
       54155000	      5414	800019e0	ff5ff4ef	jal	x9,800019e0	  x9=0x800019e0
       54165000	      5415	00000000	00000013	addi	x0,x0,0	  x0:0x00000000
       54175000	      5416	800019d0	00000013	addi	x0,x0,0	  x0:0x00000000
       54185000	      5417	800019d4	030000ef	jal	x1,800019d4	  x1=0x800019d4
       54195000	      5418	00000000	00000013	addi	x0,x0,0	  x0:0x00000000
       54205000	      5419	80001a00	00000013	addi	x0,x0,0	  x0:0x00000000
       54215000	      5420	80001a04	fbdff1ef	jal	x3,80001a04	  x3=0x80001a04
       54225000	      5421	00000000	00000013	addi	x0,x0,0	  x0:0x00000000
       54235000	      5422	800019bc	00000013	addi	x0,x0,0	  x0:0x00000000
       54245000	      5423	800019c0	00c0016f	jal	x2,800019c0	  x2=0x800019c0
       54255000	      5424	00000000	00000013	addi	x0,x0,0	  x0:0x00000000
       54265000	      5425	800019c8	00000013	addi	x0,x0,0	  x0:0x00000000
       54275000	      5426	800019cc	048000ef	jal	x1,800019cc	  x1=0x800019cc
       54285000	      5427	00000000	00000013	addi	x0,x0,0	  x0:0x00000000
       54295000	      5428	80001a10	00000013	addi	x0,x0,0	  x0:0x00000000
       54305000	      5429	80001a14	fd1ff0ef	jal	x1,80001a14	  x1=0x80001a14
       54315000	      5430	00000000	00000013	addi	x0,x0,0	  x0:0x00000000
       54325000	      5431	800019e0	00000013	addi	x0,x0,0	  x0:0x00000000
       54335000	      5432	800019e4	034000ef	jal	x1,800019e4	  x1=0x800019e4
       54345000	      5433	00000000	00000013	addi	x0,x0,0	  x0:0x00000000
       54355000	      5434	80001a14	00000013	addi	x0,x0,0	  x0:0x00000000
       54365000	      5435	80001a18	ff9ff36f	jal	x6,80001a18	  x6=0x80001a18
       54375000	      5436	00000000	00000013	addi	x0,x0,0	  x0:0x00000000
       54385000	      5437	80001a0c	00000013	addi	x0,x0,0	  x0:0x00000000
       54395000	      5438	80001a10	0100036f	jal	x6,80001a10	  x6=0x80001a10
       54405000	      5439	00000000	00000013	addi	x0,x0,0	  x0:0x00000000
       54415000	      5440	80001a1c	00000013	addi	x0,x0,0	  x0:0x00000000
       54425000	      5441	80001a20	019d2cb3	slt	x25,x26,x25	 x26:0x00000001 x25:0x80001920 x25=0x00000000
       54435000	      5442	80001a24	018000ef	jal	x1,80001a24	  x1=0x80001a24
       54445000	      5443	00000000	00000013	addi	x0,x0,0	  x0:0x00000000
       54455000	      5444	80001a38	00000013	addi	x0,x0,0	  x0:0x00000000
       54465000	      5445	80001a3c	01c000ef	jal	x1,80001a3c	  x1=0x80001a3c
       54475000	      5446	00000000	00000013	addi	x0,x0,0	  x0:0x00000000
       54485000	      5447	80001a54	00000013	addi	x0,x0,0	  x0:0x00000000
       54495000	      5448	80001a58	fd1ff36f	jal	x6,80001a58	  x6=0x80001a58
       54505000	      5449	00000000	00000013	addi	x0,x0,0	  x0:0x00000000
       54515000	      5450	80001a24	00000013	addi	x0,x0,0	  x0:0x00000000
       54525000	      5451	80001a28	064000ef	jal	x1,80001a28	  x1=0x80001a28
       54535000	      5452	00000000	00000013	addi	x0,x0,0	  x0:0x00000000
       54545000	      5453	80001a88	00000013	addi	x0,x0,0	  x0:0x00000000
       54555000	      5454	80001a8c	fe1ff36f	jal	x6,80001a8c	  x6=0x80001a8c
       54565000	      5455	00000000	00000013	addi	x0,x0,0	  x0:0x00000000
       54575000	      5456	80001a68	00000013	addi	x0,x0,0	  x0:0x00000000
       54585000	      5457	80001a6c	fddff46f	jal	x8,80001a6c	  x8=0x80001a6c
       54595000	      5458	00000000	00000013	addi	x0,x0,0	  x0:0x00000000
       54605000	      5459	80001a44	00000013	addi	x0,x0,0	  x0:0x00000000
       54615000	      5460	80001a48	ff9ff36f	jal	x6,80001a48	  x6=0x80001a48
       54625000	      5461	00000000	00000013	addi	x0,x0,0	  x0:0x00000000
       54635000	      5462	80001a3c	00000013	addi	x0,x0,0	  x0:0x00000000
       54645000	      5463	80001a40	ff9ff36f	jal	x6,80001a40	  x6=0x80001a40
       54655000	      5464	00000000	00000013	addi	x0,x0,0	  x0:0x00000000
       54665000	      5465	80001a34	00000013	addi	x0,x0,0	  x0:0x00000000
       54675000	      5466	80001a38	ffdff0ef	jal	x1,80001a38	  x1=0x80001a38
       54685000	      5467	00000000	00000013	addi	x0,x0,0	  x0:0x00000000
       54695000	      5468	80001a30	00000013	addi	x0,x0,0	  x0:0x00000000
       54705000	      5469	80001a34	05400e6f	jal	x28,80001a34	 x28=0x80001a34
       54715000	      5470	00000000	00000013	addi	x0,x0,0	  x0:0x00000000
       54725000	      5471	80001a84	00000013	addi	x0,x0,0	  x0:0x00000000
       54735000	      5472	80001a88	ff1ff36f	jal	x6,80001a88	  x6=0x80001a88
       54745000	      5473	00000000	00000013	addi	x0,x0,0	  x0:0x00000000
       54755000	      5474	80001a74	00000013	addi	x0,x0,0	  x0:0x00000000
       54765000	      5475	80001a78	fe5ff0ef	jal	x1,80001a78	  x1=0x80001a78
       54775000	      5476	00000000	00000013	addi	x0,x0,0	  x0:0x00000000
       54785000	      5477	80001a58	00000013	addi	x0,x0,0	  x0:0x00000000
       54795000	      5478	80001a5c	034001ef	jal	x3,80001a5c	  x3=0x80001a5c
       54805000	      5479	00000000	00000013	addi	x0,x0,0	  x0:0x00000000
       54815000	      5480	80001a8c	00000013	addi	x0,x0,0	  x0:0x00000000
       54825000	      5481	80001a90	ff1ff0ef	jal	x1,80001a90	  x1=0x80001a90
       54835000	      5482	00000000	00000013	addi	x0,x0,0	  x0:0x00000000
       54845000	      5483	80001a7c	00000013	addi	x0,x0,0	  x0:0x00000000
       54855000	      5484	80001a80	ff1ff0ef	jal	x1,80001a80	  x1=0x80001a80
       54865000	      5485	00000000	00000013	addi	x0,x0,0	  x0:0x00000000
       54875000	      5486	80001a6c	00000013	addi	x0,x0,0	  x0:0x00000000
       54885000	      5487	80001a70	014000ef	jal	x1,80001a70	  x1=0x80001a70
       54895000	      5488	00000000	00000013	addi	x0,x0,0	  x0:0x00000000
       54905000	      5489	80001a80	00000013	addi	x0,x0,0	  x0:0x00000000
       54915000	      5490	80001a84	fa9ffb6f	jal	x22,80001a84	 x22=0x80001a84
       54925000	      5491	00000000	00000013	addi	x0,x0,0	  x0:0x00000000
       54935000	      5492	80001a28	00000013	addi	x0,x0,0	  x0:0x00000000
       54945000	      5493	80001a2c	0480036f	jal	x6,80001a2c	  x6=0x80001a2c
       54955000	      5494	00000000	00000013	addi	x0,x0,0	  x0:0x00000000
       54965000	      5495	80001a70	00000013	addi	x0,x0,0	  x0:0x00000000
       54975000	      5496	80001a74	fedff16f	jal	x2,80001a74	  x2=0x80001a74
       54985000	      5497	00000000	00000013	addi	x0,x0,0	  x0:0x00000000
       54995000	      5498	80001a5c	00000013	addi	x0,x0,0	  x0:0x00000000
       55005000	      5499	80001a60	fd1ff0ef	jal	x1,80001a60	  x1=0x80001a60
       55015000	      5500	00000000	00000013	addi	x0,x0,0	  x0:0x00000000
       55025000	      5501	80001a2c	00000013	addi	x0,x0,0	  x0:0x00000000
       55035000	      5502	80001a30	024000ef	jal	x1,80001a30	  x1=0x80001a30
       55045000	      5503	00000000	00000013	addi	x0,x0,0	  x0:0x00000000
       55055000	      5504	80001a50	00000013	addi	x0,x0,0	  x0:0x00000000
       55065000	      5505	80001a54	ffdff0ef	jal	x1,80001a54	  x1=0x80001a54
       55075000	      5506	00000000	00000013	addi	x0,x0,0	  x0:0x00000000
       55085000	      5507	80001a4c	00000013	addi	x0,x0,0	  x0:0x00000000
       55095000	      5508	80001a50	0480036f	jal	x6,80001a50	  x6=0x80001a50
       55105000	      5509	00000000	00000013	addi	x0,x0,0	  x0:0x00000000
       55115000	      5510	80001a94	00000013	addi	x0,x0,0	  x0:0x00000000
       55125000	      5511	80001a98	fb5ff1ef	jal	x3,80001a98	  x3=0x80001a98
       55135000	      5512	00000000	00000013	addi	x0,x0,0	  x0:0x00000000
       55145000	      5513	80001a48	00000013	addi	x0,x0,0	  x0:0x00000000
       55155000	      5514	80001a4c	0180036f	jal	x6,80001a4c	  x6=0x80001a4c
       55165000	      5515	00000000	00000013	addi	x0,x0,0	  x0:0x00000000
       55175000	      5516	80001a60	00000013	addi	x0,x0,0	  x0:0x00000000
       55185000	      5517	80001a64	fe1ff0ef	jal	x1,80001a64	  x1=0x80001a64
       55195000	      5518	00000000	00000013	addi	x0,x0,0	  x0:0x00000000
       55205000	      5519	80001a40	00000013	addi	x0,x0,0	  x0:0x00000000
       55215000	      5520	80001a44	024000ef	jal	x1,80001a44	  x1=0x80001a44
       55225000	      5521	00000000	00000013	addi	x0,x0,0	  x0:0x00000000
       55235000	      5522	80001a64	00000013	addi	x0,x0,0	  x0:0x00000000
       55245000	      5523	80001a68	02c000ef	jal	x1,80001a68	  x1=0x80001a68
       55255000	      5524	00000000	00000013	addi	x0,x0,0	  x0:0x00000000
       55265000	      5525	80001a90	00000013	addi	x0,x0,0	  x0:0x00000000
       55275000	      5526	80001a94	fe9ff76f	jal	x14,80001a94	 x14=0x80001a94
       55285000	      5527	00000000	00000013	addi	x0,x0,0	  x0:0x00000000
       55295000	      5528	80001a78	00000013	addi	x0,x0,0	  x0:0x00000000
       55305000	      5529	80001a7c	0200016f	jal	x2,80001a7c	  x2=0x80001a7c
       55315000	      5530	00000000	00000013	addi	x0,x0,0	  x0:0x00000000
       55325000	      5531	80001a98	00000013	addi	x0,x0,0	  x0:0x00000000
       55335000	      5532	80001a9c	73e2bb13	sltiu	x22,x5,1854	  x5:0x00000000 x22=0x00000001
       55345000	      5533	80001aa0	048000ef	jal	x1,80001aa0	  x1=0x80001aa0
       55355000	      5534	00000000	00000013	addi	x0,x0,0	  x0:0x00000000
       55365000	      5535	80001ae4	00000013	addi	x0,x0,0	  x0:0x00000000
       55375000	      5536	80001ae8	fc1ff3ef	jal	x7,80001ae8	  x7=0x80001ae8
       55385000	      5537	00000000	00000013	addi	x0,x0,0	  x0:0x00000000
       55395000	      5538	80001aa4	00000013	addi	x0,x0,0	  x0:0x00000000
       55405000	      5539	80001aa8	048001ef	jal	x3,80001aa8	  x3=0x80001aa8
       55415000	      5540	00000000	00000013	addi	x0,x0,0	  x0:0x00000000
       55425000	      5541	80001aec	00000013	addi	x0,x0,0	  x0:0x00000000
       55435000	      5542	80001af0	0140036f	jal	x6,80001af0	  x6=0x80001af0
       55445000	      5543	00000000	00000013	addi	x0,x0,0	  x0:0x00000000
       55455000	      5544	80001b00	00000013	addi	x0,x0,0	  x0:0x00000000
       55465000	      5545	80001b04	fadff0ef	jal	x1,80001b04	  x1=0x80001b04
       55475000	      5546	00000000	00000013	addi	x0,x0,0	  x0:0x00000000
       55485000	      5547	80001aac	00000013	addi	x0,x0,0	  x0:0x00000000
       55495000	      5548	80001ab0	01c000ef	jal	x1,80001ab0	  x1=0x80001ab0
       55505000	      5549	00000000	00000013	addi	x0,x0,0	  x0:0x00000000
       55515000	      5550	80001ac8	00000013	addi	x0,x0,0	  x0:0x00000000
       55525000	      5551	80001acc	ff9ff6ef	jal	x13,80001acc	 x13=0x80001acc
       55535000	      5552	00000000	00000013	addi	x0,x0,0	  x0:0x00000000
       55545000	      5553	80001ac0	00000013	addi	x0,x0,0	  x0:0x00000000
       55555000	      5554	80001ac4	fe9ff9ef	jal	x19,80001ac4	 x19=0x80001ac4
       55565000	      5555	00000000	00000013	addi	x0,x0,0	  x0:0x00000000
       55575000	      5556	80001aa8	00000013	addi	x0,x0,0	  x0:0x00000000
       55585000	      5557	80001aac	038000ef	jal	x1,80001aac	  x1=0x80001aac
       55595000	      5558	00000000	00000013	addi	x0,x0,0	  x0:0x00000000
       55605000	      5559	80001ae0	00000013	addi	x0,x0,0	  x0:0x00000000
       55615000	      5560	80001ae4	ffdff36f	jal	x6,80001ae4	  x6=0x80001ae4
       55625000	      5561	00000000	00000013	addi	x0,x0,0	  x0:0x00000000
       55635000	      5562	80001adc	00000013	addi	x0,x0,0	  x0:0x00000000
       55645000	      5563	80001ae0	fc5ff36f	jal	x6,80001ae0	  x6=0x80001ae0
       55655000	      5564	00000000	00000013	addi	x0,x0,0	  x0:0x00000000
       55665000	      5565	80001aa0	00000013	addi	x0,x0,0	  x0:0x00000000
       55675000	      5566	80001aa4	0300036f	jal	x6,80001aa4	  x6=0x80001aa4
       55685000	      5567	00000000	00000013	addi	x0,x0,0	  x0:0x00000000
       55695000	      5568	80001ad0	00000013	addi	x0,x0,0	  x0:0x00000000
       55705000	      5569	80001ad4	0080016f	jal	x2,80001ad4	  x2=0x80001ad4
       55715000	      5570	00000000	00000013	addi	x0,x0,0	  x0:0x00000000
       55725000	      5571	80001ad8	00000013	addi	x0,x0,0	  x0:0x00000000
       55735000	      5572	80001adc	fddff0ef	jal	x1,80001adc	  x1=0x80001adc
       55745000	      5573	00000000	00000013	addi	x0,x0,0	  x0:0x00000000
       55755000	      5574	80001ab4	00000013	addi	x0,x0,0	  x0:0x00000000
       55765000	      5575	80001ab8	ffdff0ef	jal	x1,80001ab8	  x1=0x80001ab8
       55775000	      5576	00000000	00000013	addi	x0,x0,0	  x0:0x00000000
       55785000	      5577	80001ab0	00000013	addi	x0,x0,0	  x0:0x00000000
       55795000	      5578	80001ab4	0140036f	jal	x6,80001ab4	  x6=0x80001ab4
       55805000	      5579	00000000	00000013	addi	x0,x0,0	  x0:0x00000000
       55815000	      5580	80001ac4	00000013	addi	x0,x0,0	  x0:0x00000000
       55825000	      5581	80001ac8	024000ef	jal	x1,80001ac8	  x1=0x80001ac8
       55835000	      5582	00000000	00000013	addi	x0,x0,0	  x0:0x00000000
       55845000	      5583	80001ae8	00000013	addi	x0,x0,0	  x0:0x00000000
       55855000	      5584	80001aec	00c000ef	jal	x1,80001aec	  x1=0x80001aec
       55865000	      5585	00000000	00000013	addi	x0,x0,0	  x0:0x00000000
       55875000	      5586	80001af4	00000013	addi	x0,x0,0	  x0:0x00000000
       55885000	      5587	80001af8	fc9ff0ef	jal	x1,80001af8	  x1=0x80001af8
       55895000	      5588	00000000	00000013	addi	x0,x0,0	  x0:0x00000000
       55905000	      5589	80001abc	00000013	addi	x0,x0,0	  x0:0x00000000
       55915000	      5590	80001ac0	018004ef	jal	x9,80001ac0	  x9=0x80001ac0
       55925000	      5591	00000000	00000013	addi	x0,x0,0	  x0:0x00000000
       55935000	      5592	80001ad4	00000013	addi	x0,x0,0	  x0:0x00000000
       55945000	      5593	80001ad8	028000ef	jal	x1,80001ad8	  x1=0x80001ad8
       55955000	      5594	00000000	00000013	addi	x0,x0,0	  x0:0x00000000
       55965000	      5595	80001afc	00000013	addi	x0,x0,0	  x0:0x00000000
       55975000	      5596	80001b00	fbdff0ef	jal	x1,80001b00	  x1=0x80001b00
       55985000	      5597	00000000	00000013	addi	x0,x0,0	  x0:0x00000000
       55995000	      5598	80001ab8	00000013	addi	x0,x0,0	  x0:0x00000000
       56005000	      5599	80001abc	0400056f	jal	x10,80001abc	 x10=0x80001abc
       56015000	      5600	00000000	00000013	addi	x0,x0,0	  x0:0x00000000
       56025000	      5601	80001af8	00000013	addi	x0,x0,0	  x0:0x00000000
       56035000	      5602	80001afc	ff9ff0ef	jal	x1,80001afc	  x1=0x80001afc
       56045000	      5603	00000000	00000013	addi	x0,x0,0	  x0:0x00000000
       56055000	      5604	80001af0	00000013	addi	x0,x0,0	  x0:0x00000000
       56065000	      5605	80001af4	014000ef	jal	x1,80001af4	  x1=0x80001af4
       56075000	      5606	00000000	00000013	addi	x0,x0,0	  x0:0x00000000
       56085000	      5607	80001b04	00000013	addi	x0,x0,0	  x0:0x00000000
       56095000	      5608	80001b08	fc9ff0ef	jal	x1,80001b08	  x1=0x80001b08
       56105000	      5609	00000000	00000013	addi	x0,x0,0	  x0:0x00000000
       56115000	      5610	80001acc	00000013	addi	x0,x0,0	  x0:0x00000000
       56125000	      5611	80001ad0	03c000ef	jal	x1,80001ad0	  x1=0x80001ad0
       56135000	      5612	00000000	00000013	addi	x0,x0,0	  x0:0x00000000
       56145000	      5613	80001b08	00000013	addi	x0,x0,0	  x0:0x00000000
       56155000	      5614	80001b0c	004000ef	jal	x1,80001b0c	  x1=0x80001b0c
       56165000	      5615	00000000	00000013	addi	x0,x0,0	  x0:0x00000000
       56175000	      5616	80001b0c	00000013	addi	x0,x0,0	  x0:0x00000000
       56185000	      5617	80001b10	5bebcc93	xori	x25,x23,1470	 x23:0xc07b7000 x25=0xc07b75be
       56195000	      5618	80001b14	018000ef	jal	x1,80001b14	  x1=0x80001b14
       56205000	      5619	00000000	00000013	addi	x0,x0,0	  x0:0x00000000
       56215000	      5620	80001b28	00000013	addi	x0,x0,0	  x0:0x00000000
       56225000	      5621	80001b2c	00c005ef	jal	x11,80001b2c	 x11=0x80001b2c
       56235000	      5622	00000000	00000013	addi	x0,x0,0	  x0:0x00000000
       56245000	      5623	80001b34	00000013	addi	x0,x0,0	  x0:0x00000000
       56255000	      5624	80001b38	00c000ef	jal	x1,80001b38	  x1=0x80001b38
       56265000	      5625	00000000	00000013	addi	x0,x0,0	  x0:0x00000000
       56275000	      5626	80001b40	00000013	addi	x0,x0,0	  x0:0x00000000
       56285000	      5627	80001b44	0080016f	jal	x2,80001b44	  x2=0x80001b44
       56295000	      5628	00000000	00000013	addi	x0,x0,0	  x0:0x00000000
       56305000	      5629	80001b48	00000013	addi	x0,x0,0	  x0:0x00000000
       56315000	      5630	80001b4c	fe9ff0ef	jal	x1,80001b4c	  x1=0x80001b4c
       56325000	      5631	00000000	00000013	addi	x0,x0,0	  x0:0x00000000
       56335000	      5632	80001b30	00000013	addi	x0,x0,0	  x0:0x00000000
       56345000	      5633	80001b34	00c0036f	jal	x6,80001b34	  x6=0x80001b34
       56355000	      5634	00000000	00000013	addi	x0,x0,0	  x0:0x00000000
       56365000	      5635	80001b3c	00000013	addi	x0,x0,0	  x0:0x00000000
       56375000	      5636	80001b40	fd9ff36f	jal	x6,80001b40	  x6=0x80001b40
       56385000	      5637	00000000	00000013	addi	x0,x0,0	  x0:0x00000000
       56395000	      5638	80001b14	00000013	addi	x0,x0,0	  x0:0x00000000
       56405000	      5639	80001b18	0180036f	jal	x6,80001b18	  x6=0x80001b18
       56415000	      5640	00000000	00000013	addi	x0,x0,0	  x0:0x00000000
       56425000	      5641	80001b2c	00000013	addi	x0,x0,0	  x0:0x00000000
       56435000	      5642	80001b30	ff5ff0ef	jal	x1,80001b30	  x1=0x80001b30
       56445000	      5643	00000000	00000013	addi	x0,x0,0	  x0:0x00000000
       56455000	      5644	80001b20	00000013	addi	x0,x0,0	  x0:0x00000000
       56465000	      5645	80001b24	ff9ff66f	jal	x12,80001b24	 x12=0x80001b24
       56475000	      5646	00000000	00000013	addi	x0,x0,0	  x0:0x00000000
       56485000	      5647	80001b18	00000013	addi	x0,x0,0	  x0:0x00000000
       56495000	      5648	80001b1c	02c000ef	jal	x1,80001b1c	  x1=0x80001b1c
       56505000	      5649	00000000	00000013	addi	x0,x0,0	  x0:0x00000000
       56515000	      5650	80001b44	00000013	addi	x0,x0,0	  x0:0x00000000
       56525000	      5651	80001b48	fe1ff0ef	jal	x1,80001b48	  x1=0x80001b48
       56535000	      5652	00000000	00000013	addi	x0,x0,0	  x0:0x00000000
       56545000	      5653	80001b24	00000013	addi	x0,x0,0	  x0:0x00000000
       56555000	      5654	80001b28	ff9ff0ef	jal	x1,80001b28	  x1=0x80001b28
       56565000	      5655	00000000	00000013	addi	x0,x0,0	  x0:0x00000000
       56575000	      5656	80001b1c	00000013	addi	x0,x0,0	  x0:0x00000000
       56585000	      5657	80001b20	01c0036f	jal	x6,80001b20	  x6=0x80001b20
       56595000	      5658	00000000	00000013	addi	x0,x0,0	  x0:0x00000000
       56605000	      5659	80001b38	00000013	addi	x0,x0,0	  x0:0x00000000
       56615000	      5660	80001b3c	0140016f	jal	x2,80001b3c	  x2=0x80001b3c
       56625000	      5661	00000000	00000013	addi	x0,x0,0	  x0:0x00000000
       56635000	      5662	80001b4c	00000013	addi	x0,x0,0	  x0:0x00000000
       56645000	      5663	80001b50	018a5313	srli	x6,x20,0x18	 x20:0x80001924  x6=0x00000080
       56655000	      5664	80001b54	00d72133	slt	x2,x14,x13	 x14:0x80001a94 x13:0x80001acc  x2=0x00000001
       56665000	      5665	80001b58	008ac5b3	xor	x11,x21,x8	 x21:0x8000190c  x8:0x80001a6c x11=0x00000360
       56675000	      5666	80001b5c	c4382193	slti	x3,x16,-957	 x16:0x800018fc  x3=0x00000001
       56685000	      5667	80001b60	0053a833	slt	x16,x7,x5	  x7:0x80001ae8  x5:0x00000000 x16=0x00000001
       56695000	      5668	80001b64	41815693	srai	x13,x2,0x18	  x2:0x00000001 x13=0x00000000
       56705000	      5669	80001b68	2bdccd13	xori	x26,x25,701	 x25:0xc07b75be x26=0xc07b7703
       56715000	      5670	80001b6c	1fb5cc13	xori	x24,x11,507	 x11:0x00000360 x24=0x0000029b
       56725000	      5671	80001b70	005fe5b3	or	x11,x31,x5	 x31:0x80001970  x5:0x00000000 x11=0x80001970
       56735000	      5672	80001b74	0294da63	bge	x9,x9,80001ba8	  x9:0x80001ac0  x9:0x80001ac0
       56745000	      5673	00000000	00000013	addi	x0,x0,0	  x0:0x00000000
       56755000	      5674	80001ba4	00000013	addi	x0,x0,0	  x0:0x00000000
       56765000	      5675	80001ba8	00b7de93	srli	x29,x15,0xb	 x15:0x00000000 x29=0x00000000
       56775000	      5676	80001bac	353b3393	sltiu	x7,x22,851	 x22:0x00000001  x7=0x00000001
       56785000	      5677	80001bb0	053c6863	bltu	x24,x19,80001c00	 x24:0x0000029b x19:0x80001ac4
       56795000	      5678	00000000	00000013	addi	x0,x0,0	  x0:0x00000000
       56805000	      5679	80001bfc	00000013	addi	x0,x0,0	  x0:0x00000000
       56815000	      5680	80001c00	0063feb3	and	x29,x7,x6	  x7:0x00000001  x6:0x00000080 x29=0x00000000
       56825000	      5681	80001c04	00000013	addi	x0,x0,0	  x0:0x00000000
       56835000	      5682	80001c08	f266af93	slti	x31,x13,-218	 x13:0x00000000 x31=0x00000000
       56845000	      5683	80001c0c	01955463	bge	x10,x25,80001c14	 x10:0x80001abc x25:0xc07b75be
       56855000	      5684	80001c10	001c4eb3	xor	x29,x24,x1	 x24:0x0000029b  x1:0x80001b28 x29=0x800019b3
       56865000	      5685	80001c14	a75fad13	slti	x26,x31,-1419	 x31:0x00000000 x26=0x00000000
       56875000	      5686	80001c18	6dbffc13	andi	x24,x31,1755	 x31:0x00000000 x24=0x00000000
       56885000	      5687	80001c1c	d228d9b7	lui	x19,0xd228d	 x19=0xd228d000
       56895000	      5688	80001c20	009a77b3	and	x15,x20,x9	 x20:0x80001924  x9:0x80001ac0 x15=0x80001800
       56905000	      5689	80001c24	0049dd13	srli	x26,x19,0x4	 x19:0xd228d000 x26=0x0d228d00
       56915000	      5690	80001c28	357b9c17	auipc	x24,0x357b9	 x24=0xb57bac24
       56925000	      5691	80001c2c	a1606bb7	lui	x23,0xa1606	 x23=0xa1606000
       56935000	      5692	80001c30	00c33433	sltu	x8,x6,x12	  x6:0x00000080 x12:0x80001b24  x8=0x00000001
       56945000	      5693	80001c34	015a1513	slli	x10,x20,0x15	 x20:0x80001924 x10=0x24800000
       56955000	      5694	80001c38	06f3b913	sltiu	x18,x7,111	  x7:0x00000001 x18=0x00000001
       56965000	      5695	80001c3c	40bede33	sra	x28,x29,x11	 x29:0x800019b3 x11:0x80001970 x28=0xffff8000
       56975000	      5696	80001c40	01d9ac33	slt	x24,x19,x29	 x19:0xd228d000 x29:0x800019b3 x24=0x00000000
       56985000	      5697	80001c44	00d09e93	slli	x29,x1,0xd	  x1:0x80001b28 x29=0x03650000
       56995000	      5698	80001c48	0124d3b3	srl	x7,x9,x18	  x9:0x80001ac0 x18:0x00000001  x7=0x40000d60
       57005000	      5699	80001c4c	0563f463	bgeu	x7,x22,80001c94	  x7:0x40000d60 x22:0x00000001
       57015000	      5700	00000000	00000013	addi	x0,x0,0	  x0:0x00000000
       57025000	      5701	80001c90	00000013	addi	x0,x0,0	  x0:0x00000000
       57035000	      5702	80001c94	410859b3	sra	x19,x16,x16	 x16:0x00000001 x16:0x00000001 x19=0x00000000
       57045000	      5703	80001c98	40f4d193	srai	x3,x9,0xf	  x9:0x80001ac0  x3=0xffff0000
       57055000	      5704	80001c9c	01054333	xor	x6,x10,x16	 x10:0x24800000 x16:0x00000001  x6=0x24800001
       57065000	      5705	80001ca0	40f6dbb3	sra	x23,x13,x15	 x13:0x00000000 x15:0x80001800 x23=0x00000000
       57075000	      5706	80001ca4	70c94a13	xori	x20,x18,1804	 x18:0x00000001 x20=0x0000070d
       57085000	      5707	80001ca8	00000013	addi	x0,x0,0	  x0:0x00000000
       57095000	      5708	80001cac	5a2e9717	auipc	x14,0x5a2e9	 x14=0xda2eaca8
       57105000	      5709	80001cb0	d4fca117	auipc	x2,0xd4fca	  x2=0x54fcbcac
       57115000	      5710	80001cb4	0085f633	and	x12,x11,x8	 x11:0x80001970  x8:0x00000001 x12=0x00000000
       57125000	      5711	80001cb8	05d74263	blt	x14,x29,80001cfc	 x14:0xda2eaca8 x29:0x03650000
       57135000	      5712	00000000	00000013	addi	x0,x0,0	  x0:0x00000000
       57145000	      5713	80001cf8	00000013	addi	x0,x0,0	  x0:0x00000000
       57155000	      5714	80001cfc	01afc8b3	xor	x17,x31,x26	 x31:0x00000000 x26:0x0d228d00 x17=0x0d228d00
       57165000	      5715	80001d00	a5928193	addi	x3,x5,-1447	  x5:0x00000000  x3=0xfffffa59
       57175000	      5716	80001d04	00ccb833	sltu	x16,x25,x12	 x25:0xc07b75be x12:0x00000000 x16=0x00000000
       57185000	      5717	80001d08	08d68693	addi	x13,x13,141	 x13:0x00000000 x13=0x0000008d
       57195000	      5718	80001d0c	4100da33	sra	x20,x1,x16	  x1:0x80001b28 x16:0x00000000 x20=0x80001b28
       57205000	      5719	80001d10	d4222713	slti	x14,x4,-702	  x4:0x80009ef4 x14=0x00000001
       57215000	      5720	80001d14	02d10a63	beq	x2,x13,80001d48	  x2:0x54fcbcac x13:0x0000008d
       57225000	      5721	80001d18	057e0863	beq	x28,x23,80001d68	 x28:0xffff8000 x23:0x00000000
       57235000	      5722	80001d1c	009d71b3	and	x3,x26,x9	 x26:0x0d228d00  x9:0x80001ac0  x3=0x00000800
       57245000	      5723	80001d20	bd762db7	lui	x27,0xbd762	 x27=0xbd762000
       57255000	      5724	80001d24	01939693	slli	x13,x7,0x19	  x7:0x40000d60 x13=0xc0000000
       57265000	      5725	80001d28	00599863	bne	x19,x5,80001d38	 x19:0x00000000  x5:0x00000000
       57275000	      5726	80001d2c	34f1f093	andi	x1,x3,847	  x3:0x00000800  x1=0x00000000
       57285000	      5727	80001d30	0444f863	bgeu	x9,x4,80001d80	  x9:0x80001ac0  x4:0x80009ef4
       57295000	      5728	80001d34	5633f837	lui	x16,0x5633f	 x16=0x5633f000
       57305000	      5729	80001d38	0061dd13	srli	x26,x3,0x6	  x3:0x00000800 x26=0x00000020
       57315000	      5730	80001d3c	00f3fb33	and	x22,x7,x15	  x7:0x40000d60 x15:0x80001800 x22=0x00000800
       57325000	      5731	80001d40	0066e833	or	x16,x13,x6	 x13:0xc0000000  x6:0x24800001 x16=0xe4800001
       57335000	      5732	80001d44	011b9d13	slli	x26,x23,0x11	 x23:0x00000000 x26=0x00000000
       57345000	      5733	80001d48	00273fb3	sltu	x31,x14,x2	 x14:0x00000001  x2:0x54fcbcac x31=0x00000001
       57355000	      5734	80001d4c	55968013	addi	x0,x13,1369	 x13:0xc0000000
       57365000	      5735	80001d50	04c97063	bgeu	x18,x12,80001d90	 x18:0x00000001 x12:0x00000000
       57375000	      5736	00000000	00000013	addi	x0,x0,0	  x0:0x00000000
       57385000	      5737	80001d8c	00000013	addi	x0,x0,0	  x0:0x00000000
       57395000	      5738	80001d90	0122b1b3	sltu	x3,x5,x18	  x5:0x00000000 x18:0x00000001  x3=0x00000001
       57405000	      5739	80001d94	57fd6c13	ori	x24,x26,1407	 x26:0x00000000 x24=0x0000057f
       57415000	      5740	80001d98	608b6d93	ori	x27,x22,1544	 x22:0x00000800 x27=0x00000e08
       57425000	      5741	80001d9c	2b6cca13	xori	x20,x25,694	 x25:0xc07b75be x20=0xc07b7708
       57435000	      5742	80001da0	00cd5b93	srli	x23,x26,0xc	 x26:0x00000000 x23=0x00000000
       57445000	      5743	80001da4	aa0f7393	andi	x7,x30,-1376	 x30:0x80009fc4  x7=0x80009a80
       57455000	      5744	80001da8	152e8913	addi	x18,x29,338	 x29:0x03650000 x18=0x03650152
       57465000	      5745	80001dac	01ef8663	beq	x31,x30,80001db8	 x31:0x00000001 x30:0x80009fc4
       57475000	      5746	80001db0	ae6e8393	addi	x7,x29,-1306	 x29:0x03650000  x7=0x0364fae6
       57485000	      5747	80001db4	77c4ad93	slti	x27,x9,1916	  x9:0x80001ac0 x27=0x00000001
       57495000	      5748	80001db8	01a54933	xor	x18,x10,x26	 x10:0x24800000 x26:0x00000000 x18=0x24800000
       57505000	      5749	80001dbc	037a7c63	bgeu	x20,x23,80001df4	 x20:0xc07b7708 x23:0x00000000
       57515000	      5750	00000000	00000013	addi	x0,x0,0	  x0:0x00000000
       57525000	      5751	80001df0	00000013	addi	x0,x0,0	  x0:0x00000000
       57535000	      5752	80001df4	00000013	addi	x0,x0,0	  x0:0x00000000
       57545000	      5753	80001df8	018ce933	or	x18,x25,x24	 x25:0xc07b75be x24:0x0000057f x18=0xc07b75ff
       57555000	      5754	80001dfc	052e4263	blt	x28,x18,80001e40	 x28:0xffff8000 x18:0xc07b75ff
       57565000	      5755	80001e00	bd3efb13	andi	x22,x29,-1069	 x29:0x03650000 x22=0x03650000
       57575000	      5756	80001e04	a4e5c897	auipc	x17,0xa4e5c	 x17=0x24e5de00
       57585000	      5757	80001e08	00c77cb3	and	x25,x14,x12	 x14:0x00000001 x12:0x00000000 x25=0x00000000
       57595000	      5758	80001e0c	555e7037	lui	x0,0x555e7	
       57605000	      5759	80001e10	01024663	blt	x4,x16,80001e1c	  x4:0x80009ef4 x16:0xe4800001
       57615000	      5760	00000000	00000013	addi	x0,x0,0	  x0:0x00000000
       57625000	      5761	80001e18	00000013	addi	x0,x0,0	  x0:0x00000000
       57635000	      5762	80001e1c	c123fa13	andi	x20,x7,-1006	  x7:0x0364fae6 x20=0x0364f802
       57645000	      5763	80001e20	0036d593	srli	x11,x13,0x3	 x13:0xc0000000 x11=0x18000000
       57655000	      5764	80001e24	7db60597	auipc	x11,0x7db60	 x11=0xfdb61e20
       57665000	      5765	80001e28	036e8a63	beq	x29,x22,80001e5c	 x29:0x03650000 x22:0x03650000
       57675000	      5766	00000000	00000013	addi	x0,x0,0	  x0:0x00000000
       57685000	      5767	80001e58	00000013	addi	x0,x0,0	  x0:0x00000000
       57695000	      5768	80001e5c	b20d8d13	addi	x26,x27,-1248	 x27:0x00000001 x26=0xfffffb21
       57705000	      5769	80001e60	019ff5b3	and	x11,x31,x25	 x31:0x00000001 x25:0x00000000 x11=0x00000000
       57715000	      5770	80001e64	0568f863	bgeu	x17,x22,80001eb4	 x17:0x24e5de00 x22:0x03650000
       57725000	      5771	00000000	00000013	addi	x0,x0,0	  x0:0x00000000
       57735000	      5772	80001eb0	00000013	addi	x0,x0,0	  x0:0x00000000
       57745000	      5773	80001eb4	00809793	slli	x15,x1,0x8	  x1:0x00000000 x15=0x00000000
       57755000	      5774	80001eb8	00befbb3	and	x23,x29,x11	 x29:0x03650000 x11:0x00000000 x23=0x00000000
       57765000	      5775	80001ebc	00535433	srl	x8,x6,x5	  x6:0x24800001  x5:0x00000000  x8=0x24800001
       57775000	      5776	80001ec0	85784c13	xori	x24,x16,-1961	 x16:0xe4800001 x24=0x1b7ff856
       57785000	      5777	80001ec4	40a1d333	sra	x6,x3,x10	  x3:0x00000001 x10:0x24800000  x6=0x00000001
       57795000	      5778	80001ec8	f93ff737	lui	x14,0xf93ff	 x14=0xf93ff000
       57805000	      5779	80001ecc	00334c63	blt	x6,x3,80001ee4	  x6:0x00000001  x3:0x00000001
       57815000	      5780	80001ed0	00ca7893	andi	x17,x20,12	 x20:0x0364f802 x17=0x00000000
       57825000	      5781	80001ed4	01f95a63	bge	x18,x31,80001ee8	 x18:0xc07b75ff x31:0x00000001
       57835000	      5782	80001ed8	e4b33b93	sltiu	x23,x6,-437	  x6:0x00000001 x23=0x00000001
       57845000	      5783	80001edc	01f6ec33	or	x24,x13,x31	 x13:0xc0000000 x31:0x00000001 x24=0xc0000001
       57855000	      5784	80001ee0	0102beb3	sltu	x29,x5,x16	  x5:0x00000000 x16:0xe4800001 x29=0x00000001
       57865000	      5785	80001ee4	e7395397	auipc	x7,0xe7395	  x7=0x67396ee0
       57875000	      5786	80001ee8	022a0c63	beq	x20,x2,80001f20	 x20:0x0364f802  x2:0x54fcbcac
       57885000	      5787	80001eec	41b45893	srai	x17,x8,0x1b	  x8:0x24800001 x17=0x00000004
       57895000	      5788	80001ef0	01fe1e63	bne	x28,x31,80001f0c	 x28:0xffff8000 x31:0x00000001
       57905000	      5789	00000000	00000013	addi	x0,x0,0	  x0:0x00000000
       57915000	      5790	80001f08	00000013	addi	x0,x0,0	  x0:0x00000000
       57925000	      5791	80001f0c	00000013	addi	x0,x0,0	  x0:0x00000000
       57935000	      5792	80001f10	4c6eea13	ori	x20,x29,1222	 x29:0x00000001 x20=0x000004c7
       57945000	      5793	80001f14	002435b3	sltu	x11,x8,x2	  x8:0x24800001  x2:0x54fcbcac x11=0x00000001
       57955000	      5794	80001f18	00df4a63	blt	x30,x13,80001f2c	 x30:0x80009fc4 x13:0xc0000000
       57965000	      5795	00000000	00000013	addi	x0,x0,0	  x0:0x00000000
       57975000	      5796	80001f28	00000013	addi	x0,x0,0	  x0:0x00000000
       57985000	      5797	80001f2c	008b5263	bge	x22,x8,80001f30	 x22:0x03650000  x8:0x24800001
       57995000	      5798	80001f30	408d53b3	sra	x7,x26,x8	 x26:0xfffffb21  x8:0x24800001  x7=0xfffffd90
       58005000	      5799	80001f34	40d4d933	sra	x18,x9,x13	  x9:0x80001ac0 x13:0xc0000000 x18=0x80001ac0
       58015000	      5800	80001f38	00942e33	slt	x28,x8,x9	  x8:0x24800001  x9:0x80001ac0 x28=0x00000000
       58025000	      5801	80001f3c	004b7db3	and	x27,x22,x4	 x22:0x03650000  x4:0x80009ef4 x27=0x00000000
       58035000	      5802	80001f40	234afd13	andi	x26,x21,564	 x21:0x8000190c x26=0x00000004
       58045000	      5803	80001f44	01c37463	bgeu	x6,x28,80001f4c	  x6:0x00000001 x28:0x00000000
       58055000	      5804	00000000	00000013	addi	x0,x0,0	  x0:0x00000000
       58065000	      5805	80001f48	00000013	addi	x0,x0,0	  x0:0x00000000
       58075000	      5806	80001f4c	018db333	sltu	x6,x27,x24	 x27:0x00000000 x24:0xc0000001  x6=0x00000001
       58085000	      5807	80001f50	50347a93	andi	x21,x8,1283	  x8:0x24800001 x21=0x00000001
       58095000	      5808	80001f54	013a5663	bge	x20,x19,80001f60	 x20:0x000004c7 x19:0x00000000
       58105000	      5809	00000000	00000013	addi	x0,x0,0	  x0:0x00000000
       58115000	      5810	80001f5c	00000013	addi	x0,x0,0	  x0:0x00000000
       58125000	      5811	80001f60	00f496b7	lui	x13,0xf49	 x13=0x00f49000
       58135000	      5812	80001f64	00a0d6b3	srl	x13,x1,x10	  x1:0x00000000 x10:0x24800000 x13=0x00000000
       58145000	      5813	80001f68	0007c833	xor	x16,x15,x0	 x15:0x00000000  x0:0x00000000 x16=0x00000000
       58155000	      5814	80001f6c	818dd537	lui	x10,0x818dd	 x10=0x818dd000
       58165000	      5815	80001f70	415b0013	addi	x0,x22,1045	 x22:0x03650000
       58175000	      5816	80001f74	cec40913	addi	x18,x8,-788	  x8:0x24800001 x18=0x247ffced
       58185000	      5817	80001f78	01ac1b33	sll	x22,x24,x26	 x24:0xc0000001 x26:0x00000004 x22=0x00000010
       58195000	      5818	80001f7c	02346a63	bltu	x8,x3,80001fb0	  x8:0x24800001  x3:0x00000001
       58205000	      5819	80001f80	01623033	sltu	x0,x4,x22	  x4:0x80009ef4 x22:0x00000010
       58215000	      5820	80001f84	94c13193	sltiu	x3,x2,-1716	  x2:0x54fcbcac  x3=0x00000001
       58225000	      5821	80001f88	01be1c63	bne	x28,x27,80001fa0	 x28:0x00000000 x27:0x00000000
       58235000	      5822	80001f8c	00885693	srli	x13,x16,0x8	 x16:0x00000000 x13=0x00000000
       58245000	      5823	80001f90	011ceb33	or	x22,x25,x17	 x25:0x00000000 x17:0x00000004 x22=0x00000004
       58255000	      5824	80001f94	012f0a33	add	x20,x30,x18	 x30:0x80009fc4 x18:0x247ffced x20=0xa4809cb1
       58265000	      5825	80001f98	c83b3513	sltiu	x10,x22,-893	 x22:0x00000004 x10=0x00000001
       58275000	      5826	80001f9c	3e44bd17	auipc	x26,0x3e44b	 x26=0xbe44cf98
       58285000	      5827	80001fa0	db0be097	auipc	x1,0xdb0be	  x1=0x5b0bff9c
       58295000	      5828	80001fa4	334d6093	ori	x1,x26,820	 x26:0xbe44cf98  x1=0xbe44cfbc
       58305000	      5829	80001fa8	04586463	bltu	x16,x5,80001ff0	 x16:0x00000000  x5:0x00000000
       58315000	      5830	80001fac	018bd133	srl	x2,x23,x24	 x23:0x00000001 x24:0xc0000001  x2=0x00000000
       58325000	      5831	80001fb0	01080c63	beq	x16,x16,80001fc8	 x16:0x00000000 x16:0x00000000
       58335000	      5832	00000000	00000013	addi	x0,x0,0	  x0:0x00000000
       58345000	      5833	80001fc4	00000013	addi	x0,x0,0	  x0:0x00000000
       58355000	      5834	80001fc8	01c10133	add	x2,x2,x28	  x2:0x00000000 x28:0x00000000  x2=0x00000000
       58365000	      5835	80001fcc	0897b937	lui	x18,0x897b	 x18=0x0897b000
       58375000	      5836	80001fd0	7df87e93	andi	x29,x16,2015	 x16:0x00000000 x29=0x00000000
       58385000	      5837	80001fd4	b670a513	slti	x10,x1,-1177	  x1:0xbe44cfbc x10=0x00000001
       58395000	      5838	80001fd8	415bf393	andi	x7,x23,1045	 x23:0x00000001  x7=0x00000001
       58405000	      5839	80001fdc	412954b3	sra	x9,x18,x18	 x18:0x0897b000 x18:0x0897b000  x9=0x0897b000
       58415000	      5840	80001fe0	6ffbf793	andi	x15,x23,1791	 x23:0x00000001 x15=0x00000001
       58425000	      5841	80001fe4	01f0e0b3	or	x1,x1,x31	  x1:0xbe44cfbc x31:0x00000001  x1=0xbe44cfbd
       58435000	      5842	80001fe8	e806ba13	sltiu	x20,x13,-384	 x13:0x00000000 x20=0x00000001
       58445000	      5843	80001fec	f008d6b7	lui	x13,0xf008d	 x13=0xf008d000
       58455000	      5844	80001ff0	24843313	sltiu	x6,x8,584	  x8:0x24800001  x6=0x00000000
       58465000	      5845	80001ff4	01cd1cb3	sll	x25,x26,x28	 x26:0xbe44cf98 x28:0x00000000 x25=0xbe44cf98
       58475000	      5846	80001ff8	019511b3	sll	x3,x10,x25	 x10:0x00000001 x25:0xbe44cf98  x3=0x01000000
       58485000	      5847	80001ffc	a46a8493	addi	x9,x21,-1466	 x21:0x00000001  x9=0xfffffa47
       58495000	      5848	80002000	01c7f133	and	x2,x15,x28	 x15:0x00000001 x28:0x00000000  x2=0x00000000
       58505000	      5849	80002004	01d101b3	add	x3,x2,x29	  x2:0x00000000 x29:0x00000000  x3=0x00000000
       58515000	      5850	80002008	afb10d93	addi	x27,x2,-1285	  x2:0x00000000 x27=0xfffffafb
       58525000	      5851	8000200c	05dd6863	bltu	x26,x29,8000205c	 x26:0xbe44cf98 x29:0x00000000
       58535000	      5852	80002010	00aad893	srli	x17,x21,0xa	 x21:0x00000001 x17=0x00000000
       58545000	      5853	80002014	40010cb3	sub	x25,x2,x0	  x2:0x00000000  x0:0x00000000 x25=0x00000000
       58555000	      5854	80002018	034bda63	bge	x23,x20,8000204c	 x23:0x00000001 x20:0x00000001
       58565000	      5855	00000000	00000013	addi	x0,x0,0	  x0:0x00000000
       58575000	      5856	80002048	00000013	addi	x0,x0,0	  x0:0x00000000
       58585000	      5857	8000204c	04984063	blt	x16,x9,8000208c	 x16:0x00000000  x9:0xfffffa47
       58595000	      5858	80002050	41bfd893	srai	x17,x31,0x1b	 x31:0x00000001 x17=0x00000000
       58605000	      5859	80002054	8f02e497	auipc	x9,0x8f02e	  x9=0x0f030050
       58615000	      5860	80002058	410a89b3	sub	x19,x21,x16	 x21:0x00000001 x16:0x00000000 x19=0x00000001
       58625000	      5861	8000205c	0105e263	bltu	x11,x16,80002060	 x11:0x00000001 x16:0x00000000
       58635000	      5862	80002060	01f01633	sll	x12,x0,x31	  x0:0x00000000 x31:0x00000001 x12=0x00000000
       58645000	      5863	80002064	019ada93	srli	x21,x21,0x19	 x21:0x00000001 x21=0x00000000
       58655000	      5864	80002068	018f5db3	srl	x27,x30,x24	 x30:0x80009fc4 x24:0xc0000001 x27=0x40004fe2
       58665000	      5865	8000206c	01418eb3	add	x29,x3,x20	  x3:0x00000000 x20:0x00000001 x29=0x00000001
       58675000	      5866	80002070	41f55a33	sra	x20,x10,x31	 x10:0x00000001 x31:0x00000001 x20=0x00000000
       58685000	      5867	80002074	02de8c63	beq	x29,x13,800020ac	 x29:0x00000001 x13:0xf008d000
       58695000	      5868	80002078	8bce8a93	addi	x21,x29,-1860	 x29:0x00000001 x21=0xfffff8bd
       58705000	      5869	8000207c	00461663	bne	x12,x4,80002088	 x12:0x00000000  x4:0x80009ef4
       58715000	      5870	00000000	00000013	addi	x0,x0,0	  x0:0x00000000
       58725000	      5871	80002084	00000013	addi	x0,x0,0	  x0:0x00000000
       58735000	      5872	80002088	40068133	sub	x2,x13,x0	 x13:0xf008d000  x0:0x00000000  x2=0xf008d000
       58745000	      5873	8000208c	4162d1b3	sra	x3,x5,x22	  x5:0x00000000 x22:0x00000004  x3=0x00000000
       58755000	      5874	80002090	01d19a63	bne	x3,x29,800020a4	  x3:0x00000000 x29:0x00000001
       58765000	      5875	00000000	00000013	addi	x0,x0,0	  x0:0x00000000
       58775000	      5876	800020a0	00000013	addi	x0,x0,0	  x0:0x00000000
       58785000	      5877	800020a4	e8526d13	ori	x26,x4,-379	  x4:0x80009ef4 x26=0xfffffef5
       58795000	      5878	800020a8	418bd113	srai	x2,x23,0x18	 x23:0x00000001  x2=0x00000000
       58805000	      5879	800020ac	033bc063	blt	x23,x19,800020cc	 x23:0x00000001 x19:0x00000001
       58815000	      5880	800020b0	02057c63	bgeu	x10,x0,800020e8	 x10:0x00000001  x0:0x00000000
       58825000	      5881	00000000	00000013	addi	x0,x0,0	  x0:0x00000000
       58835000	      5882	800020e4	00000013	addi	x0,x0,0	  x0:0x00000000
       58845000	      5883	800020e8	01e67e63	bgeu	x12,x30,80002104	 x12:0x00000000 x30:0x80009fc4
       58855000	      5884	800020ec	01d8bcb3	sltu	x25,x17,x29	 x17:0x00000000 x29:0x00000001 x25=0x00000001
       58865000	      5885	800020f0	0152f733	and	x14,x5,x21	  x5:0x00000000 x21:0xfffff8bd x14=0x00000000
       58875000	      5886	800020f4	00bbc8b3	xor	x17,x23,x11	 x23:0x00000001 x11:0x00000001 x17=0x00000000
       58885000	      5887	800020f8	016adc13	srli	x24,x21,0x16	 x21:0xfffff8bd x24=0x000003ff
       58895000	      5888	800020fc	00d585b3	add	x11,x11,x13	 x11:0x00000001 x13:0xf008d000 x11=0xf008d001
       58905000	      5889	80002100	08e4e117	auipc	x2,0x8e4e	  x2=0x88e500fc
       58915000	      5890	80002104	8eea4413	xori	x8,x20,-1810	 x20:0x00000000  x8=0xfffff8ee
       58925000	      5891	80002108	01645393	srli	x7,x8,0x16	  x8:0xfffff8ee  x7=0x000003ff
       58935000	      5892	8000210c	000f1f93	slli	x31,x30,0x0	 x30:0x80009fc4 x31=0x80009fc4
       58945000	      5893	80002110	000f9793	slli	x15,x31,0x0	 x31:0x80009fc4 x15=0x80009fc4
       58955000	      5894	80002114	003866b3	or	x13,x16,x3	 x16:0x00000000  x3:0x00000000 x13=0x00000000
       58965000	      5895	80002118	01233a33	sltu	x20,x6,x18	  x6:0x00000000 x18:0x0897b000 x20=0x00000001
       58975000	      5896	8000211c	0133c1b3	xor	x3,x7,x19	  x7:0x000003ff x19:0x00000001  x3=0x000003fe
       58985000	      5897	80002120	c51c6397	auipc	x7,0xc51c6	  x7=0x451c811c
       58995000	      5898	80002124	40d80133	sub	x2,x16,x13	 x16:0x00000000 x13:0x00000000  x2=0x00000000
       59005000	      5899	80002128	40dfdcb3	sra	x25,x31,x13	 x31:0x80009fc4 x13:0x00000000 x25=0x80009fc4
       59015000	      5900	8000212c	0193ecb3	or	x25,x7,x25	  x7:0x451c811c x25:0x80009fc4 x25=0xc51c9fdc
       59025000	      5901	80002130	019ec7b3	xor	x15,x29,x25	 x29:0x00000001 x25:0xc51c9fdc x15=0xc51c9fdd
       59035000	      5902	80002134	04d37463	bgeu	x6,x13,8000217c	  x6:0x00000000 x13:0x00000000
       59045000	      5903	00000000	00000013	addi	x0,x0,0	  x0:0x00000000
       59055000	      5904	80002178	00000013	addi	x0,x0,0	  x0:0x00000000
       59065000	      5905	8000217c	04e20863	beq	x4,x14,800021cc	  x4:0x80009ef4 x14:0x00000000
       59075000	      5906	80002180	bfae2913	slti	x18,x28,-1030	 x28:0x00000000 x18=0x00000000
       59085000	      5907	80002184	00d31c33	sll	x24,x6,x13	  x6:0x00000000 x13:0x00000000 x24=0x00000000
       59095000	      5908	80002188	05c91463	bne	x18,x28,800021d0	 x18:0x00000000 x28:0x00000000
       59105000	      5909	8000218c	c08feab7	lui	x21,0xc08fe	 x21=0xc08fe000
       59115000	      5910	80002190	05698863	beq	x19,x22,800021e0	 x19:0x00000001 x22:0x00000004
       59125000	      5911	80002194	404f0db3	sub	x27,x30,x4	 x30:0x80009fc4  x4:0x80009ef4 x27=0x000000d0
       59135000	      5912	80002198	0181f663	bgeu	x3,x24,800021a4	  x3:0x000003fe x24:0x00000000
       59145000	      5913	00000000	00000013	addi	x0,x0,0	  x0:0x00000000
       59155000	      5914	800021a0	00000013	addi	x0,x0,0	  x0:0x00000000
       59165000	      5915	800021a4	411254b3	sra	x9,x4,x17	  x4:0x80009ef4 x17:0x00000000  x9=0x80009ef4
       59175000	      5916	800021a8	03d9d063	bge	x19,x29,800021c8	 x19:0x00000001 x29:0x00000001
       59185000	      5917	00000000	00000013	addi	x0,x0,0	  x0:0x00000000
       59195000	      5918	800021c4	00000013	addi	x0,x0,0	  x0:0x00000000
       59205000	      5919	800021c8	22954b13	xori	x22,x10,553	 x10:0x00000001 x22=0x00000228
       59215000	      5920	800021cc	4554ca93	xori	x21,x9,1109	  x9:0x80009ef4 x21=0x80009aa1
       59225000	      5921	800021d0	00c5d863	bge	x11,x12,800021e0	 x11:0xf008d001 x12:0x00000000
       59235000	      5922	800021d4	00e28a63	beq	x5,x14,800021e8	  x5:0x00000000 x14:0x00000000
       59245000	      5923	00000000	00000013	addi	x0,x0,0	  x0:0x00000000
       59255000	      5924	800021e4	00000013	addi	x0,x0,0	  x0:0x00000000
       59265000	      5925	800021e8	f4c63b97	auipc	x23,0xf4c63	 x23=0x74c651e4
       59275000	      5926	800021ec	00000013	addi	x0,x0,0	  x0:0x00000000
       59285000	      5927	800021f0	5ecc0e13	addi	x28,x24,1516	 x24:0x00000000 x28=0x000005ec
       59295000	      5928	800021f4	9ad28793	addi	x15,x5,-1619	  x5:0x00000000 x15=0xfffff9ad
       59305000	      5929	800021f8	2ff5c793	xori	x15,x11,767	 x11:0xf008d001 x15=0xf008d2fe
       59315000	      5930	800021fc	01382333	slt	x6,x16,x19	 x16:0x00000000 x19:0x00000001  x6=0x00000001
       59325000	      5931	80002200	00422083	lw	x1,4(x4)	  x4:0x80009ef4  x1=0x800045b8 PA:0x80009ef8
       59335000	      5932	80002204	02420213	addi	x4,x4,36	  x4:0x80009ef4  x4=0x80009f18
       59345000	      5933	80002208	01e21513	slli	x10,x4,0x1e	  x4:0x80009f18 x10=0x00000000
       59355000	      5934	8000220c	00108d93	addi	x27,x1,1	  x1:0x800045b8 x27=0x800045b9
       59365000	      5935	80002210	000d8de7	jalr	x27,x27,0	 x27:0x800045b9 x27=0x80002210
       59375000	      5936	00000000	00000013	addi	x0,x0,0	  x0:0x00000000
       59385000	      5937	800045b8	00000013	addi	x0,x0,0	  x0:0x00000000
       59395000	      5938	800045bc	40145db3	sra	x27,x8,x1	  x8:0xfffff8ee  x1:0x800045b8 x27=0xffffffff
       59405000	      5939	800045c0	019a1a33	sll	x20,x20,x25	 x20:0x00000001 x25:0xc51c9fdc x20=0x10000000
       59415000	      5940	800045c4	b0976893	ori	x17,x14,-1271	 x14:0x00000000 x17=0xfffffb09
       59425000	      5941	800045c8	01591713	slli	x14,x18,0x15	 x18:0x00000000 x14=0x00000000
       59435000	      5942	800045cc	40b9dbb3	sra	x23,x19,x11	 x19:0x00000001 x11:0xf008d001 x23=0x00000000
       59445000	      5943	800045d0	01df5ab3	srl	x21,x30,x29	 x30:0x80009fc4 x29:0x00000001 x21=0x40004fe2
       59455000	      5944	800045d4	3728ec13	ori	x24,x17,882	 x17:0xfffffb09 x24=0xfffffb7b
       59465000	      5945	800045d8	01a70463	beq	x14,x26,800045e0	 x14:0x00000000 x26:0xfffffef5
       59475000	      5946	800045dc	ff63aa37	lui	x20,0xff63a	 x20=0xff63a000
       59485000	      5947	800045e0	89cfe037	lui	x0,0x89cfe	
       59495000	      5948	800045e4	d5f4ad13	slti	x26,x9,-673	  x9:0x80009ef4 x26=0x00000001
       59505000	      5949	800045e8	011549b3	xor	x19,x10,x17	 x10:0x00000000 x17:0xfffffb09 x19=0xfffffb09
       59515000	      5950	800045ec	0097ea63	bltu	x15,x9,80004600	 x15:0xf008d2fe  x9:0x80009ef4
       59525000	      5951	800045f0	a9729697	auipc	x13,0xa9729	 x13=0x2972d5ec
       59535000	      5952	800045f4	00a72d33	slt	x26,x14,x10	 x14:0x00000000 x10:0x00000000 x26=0x00000000
       59545000	      5953	800045f8	40e85813	srai	x16,x16,0xe	 x16:0x00000000 x16=0x00000000
       59555000	      5954	800045fc	019c8e63	beq	x25,x25,80004618	 x25:0xc51c9fdc x25:0xc51c9fdc
       59565000	      5955	00000000	00000013	addi	x0,x0,0	  x0:0x00000000
       59575000	      5956	80004614	00000013	addi	x0,x0,0	  x0:0x00000000
       59585000	      5957	80004618	017556b3	srl	x13,x10,x23	 x10:0x00000000 x23:0x00000000 x13=0x00000000
       59595000	      5958	8000461c	40e158b3	sra	x17,x2,x14	  x2:0x00000000 x14:0x00000000 x17=0x00000000
       59605000	      5959	80004620	00422083	lw	x1,4(x4)	  x4:0x80009f18  x1=0x800046cc PA:0x80009f1c
       59615000	      5960	80004624	d9783813	sltiu	x16,x16,-617	 x16:0x00000000 x16=0x00000001
       59625000	      5961	80004628	03820213	addi	x4,x4,56	  x4:0x80009f18  x4=0x80009f50
       59635000	      5962	8000462c	69c4fb97	auipc	x23,0x69c4f	 x23=0xe9c53628
       59645000	      5963	80004630	01172633	slt	x12,x14,x17	 x14:0x00000000 x17:0x00000000 x12=0x00000000
       59655000	      5964	80004634	a9b92e93	slti	x29,x18,-1381	 x18:0x00000000 x29=0x00000000
       59665000	      5965	80004638	003dd533	srl	x10,x27,x3	 x27:0xffffffff  x3:0x000003fe x10=0x00000003
       59675000	      5966	8000463c	01151893	slli	x17,x10,0x11	 x10:0x00000003 x17=0x00060000
       59685000	      5967	80004640	00008e93	addi	x29,x1,0	  x1:0x800046cc x29=0x800046cc
       59695000	      5968	80004644	000e8ee7	jalr	x29,x29,0	 x29:0x800046cc x29=0x80004644
       59705000	      5969	00000000	00000013	addi	x0,x0,0	  x0:0x00000000
       59715000	      5970	800046cc	00000013	addi	x0,x0,0	  x0:0x00000000
       59725000	      5971	800046d0	3e3a3093	sltiu	x1,x20,995	 x20:0xff63a000  x1=0x00000000
       59735000	      5972	800046d4	03377263	bgeu	x14,x19,800046f8	 x14:0x00000000 x19:0xfffffb09
       59745000	      5973	800046d8	a8688e93	addi	x29,x17,-1402	 x17:0x00060000 x29=0x0005fa86
       59755000	      5974	800046dc	7cb30913	addi	x18,x6,1995	  x6:0x00000001 x18=0x000007cc
       59765000	      5975	800046e0	003d7933	and	x18,x26,x3	 x26:0x00000000  x3:0x000003fe x18=0x00000000
       59775000	      5976	800046e4	05318663	beq	x3,x19,80004730	  x3:0x000003fe x19:0xfffffb09
       59785000	      5977	800046e8	bae8cc93	xori	x25,x17,-1106	 x17:0x00060000 x25=0xfff9fbae
       59795000	      5978	800046ec	01ea5263	bge	x20,x30,800046f0	 x20:0xff63a000 x30:0x80009fc4
       59805000	      5979	00000000	00000013	addi	x0,x0,0	  x0:0x00000000
       59815000	      5980	800046ec	00000013	addi	x0,x0,0	  x0:0x00000000
       59825000	      5981	800046f0	00157333	and	x6,x10,x1	 x10:0x00000003  x1:0x00000000  x6=0x00000000
       59835000	      5982	800046f4	401f0333	sub	x6,x30,x1	 x30:0x80009fc4  x1:0x00000000  x6=0x80009fc4
       59845000	      5983	800046f8	221e7037	lui	x0,0x221e7	
       59855000	      5984	800046fc	04edf063	bgeu	x27,x14,8000473c	 x27:0xffffffff x14:0x00000000
       59865000	      5985	00000000	00000013	addi	x0,x0,0	  x0:0x00000000
       59875000	      5986	80004738	00000013	addi	x0,x0,0	  x0:0x00000000
       59885000	      5987	8000473c	411a0eb3	sub	x29,x20,x17	 x20:0xff63a000 x17:0x00060000 x29=0xff5da000
       59895000	      5988	80004740	41080833	sub	x16,x16,x16	 x16:0x00000001 x16:0x00000001 x16=0x00000000
       59905000	      5989	80004744	2fe96d93	ori	x27,x18,766	 x18:0x00000000 x27=0x000002fe
       59915000	      5990	80004748	65eba097	auipc	x1,0x65eba	  x1=0xe5ebe744
       59925000	      5991	8000474c	013cfc63	bgeu	x25,x19,80004764	 x25:0xfff9fbae x19:0xfffffb09
       59935000	      5992	80004750	015fda63	bge	x31,x21,80004764	 x31:0x80009fc4 x21:0x40004fe2
       59945000	      5993	80004754	41a0d993	srai	x19,x1,0x1a	  x1:0xe5ebe744 x19=0xfffffff9
       59955000	      5994	80004758	0080e663	bltu	x1,x8,80004764	  x1:0xe5ebe744  x8:0xfffff8ee
       59965000	      5995	00000000	00000013	addi	x0,x0,0	  x0:0x00000000
       59975000	      5996	80004760	00000013	addi	x0,x0,0	  x0:0x00000000
       59985000	      5997	80004764	93264313	xori	x6,x12,-1742	 x12:0x00000000  x6=0xfffff932
       59995000	      5998	80004768	00422083	lw	x1,4(x4)	  x4:0x80009f50  x1=0x8000137c PA:0x80009f54
       60005000	      5999	8000476c	00e7e033	or	x0,x15,x14	 x15:0xf008d2fe x14:0x00000000
       60015000	      6000	80004770	03420213	addi	x4,x4,52	  x4:0x80009f50  x4=0x80009f84
       60025000	      6001	80004774	00aa06b3	add	x13,x20,x10	 x20:0xff63a000 x10:0x00000003 x13=0xff63a003
       60035000	      6002	80004778	1c815637	lui	x12,0x1c815	 x12=0x1c815000
       60045000	      6003	8000477c	00ceacb3	slt	x25,x29,x12	 x29:0xff5da000 x12:0x1c815000 x25=0x00000001
       60055000	      6004	80004780	b04a3337	lui	x6,0xb04a3	  x6=0xb04a3000
       60065000	      6005	80004784	00108e93	addi	x29,x1,1	  x1:0x8000137c x29=0x8000137d
       60075000	      6006	80004788	000e8ee7	jalr	x29,x29,0	 x29:0x8000137d x29=0x80004788
       60085000	      6007	00000000	00000013	addi	x0,x0,0	  x0:0x00000000
       60095000	      6008	8000137c	00000013	addi	x0,x0,0	  x0:0x00000000
       60105000	      6009	80001380	98133c93	sltiu	x25,x6,-1663	  x6:0xb04a3000 x25=0x00000001
       60115000	      6010	80001384	01836133	or	x2,x6,x24	  x6:0xb04a3000 x24:0xfffffb7b  x2=0xfffffb7b
       60125000	      6011	80001388	dcbc7e97	auipc	x29,0xdcbc7	 x29=0x5cbc8384
       60135000	      6012	8000138c	cd06b113	sltiu	x2,x13,-816	 x13:0xff63a003  x2=0x00000001
       60145000	      6013	80001390	00904eb3	xor	x29,x0,x9	  x0:0x00000000  x9:0x80009ef4 x29=0x80009ef4
       60155000	      6014	80001394	05a68863	beq	x13,x26,800013e4	 x13:0xff63a003 x26:0x00000000
       60165000	      6015	80001398	043af063	bgeu	x21,x3,800013d8	 x21:0x40004fe2  x3:0x000003fe
       60175000	      6016	00000000	00000013	addi	x0,x0,0	  x0:0x00000000
       60185000	      6017	800013d4	00000013	addi	x0,x0,0	  x0:0x00000000
       60195000	      6018	800013d8	2b1b0113	addi	x2,x22,689	 x22:0x00000228  x2=0x000004d9
       60205000	      6019	800013dc	00d11193	slli	x3,x2,0xd	  x2:0x000004d9  x3=0x009b2000
       60215000	      6020	800013e0	ecc10713	addi	x14,x2,-308	  x2:0x000004d9 x14=0x000003a5
       60225000	      6021	800013e4	00b11a33	sll	x20,x2,x11	  x2:0x000004d9 x11:0xf008d001 x20=0x000009b2
       60235000	      6022	800013e8	02611c63	bne	x2,x6,80001420	  x2:0x000004d9  x6:0xb04a3000
       60245000	      6023	00000000	00000013	addi	x0,x0,0	  x0:0x00000000
       60255000	      6024	8000141c	00000013	addi	x0,x0,0	  x0:0x00000000
       60265000	      6025	80001420	005b8133	add	x2,x23,x5	 x23:0xe9c53628  x5:0x00000000  x2=0xe9c53628
       60275000	      6026	80001424	749ea993	slti	x19,x29,1865	 x29:0x80009ef4 x19=0x00000001
       60285000	      6027	80001428	00107fb3	and	x31,x0,x1	  x0:0x00000000  x1:0x8000137c x31=0x00000000
       60295000	      6028	8000142c	91414097	auipc	x1,0x91414	  x1=0x11415428
       60305000	      6029	80001430	a98e3f93	sltiu	x31,x28,-1384	 x28:0x000005ec x31=0x00000001
       60315000	      6030	80001434	01039ab3	sll	x21,x7,x16	  x7:0x451c811c x16:0x00000000 x21=0x451c811c
       60325000	      6031	80001438	88910393	addi	x7,x2,-1911	  x2:0xe9c53628  x7=0xe9c52eb1
       60335000	      6032	8000143c	0131bcb3	sltu	x25,x3,x19	  x3:0x009b2000 x19:0x00000001 x25=0x00000000
       60345000	      6033	80001440	407a0033	sub	x0,x20,x7	 x20:0x000009b2  x7:0xe9c52eb1
       60355000	      6034	80001444	038d9863	bne	x27,x24,80001474	 x27:0x000002fe x24:0xfffffb7b
       60365000	      6035	00000000	00000013	addi	x0,x0,0	  x0:0x00000000
       60375000	      6036	80001470	00000013	addi	x0,x0,0	  x0:0x00000000
       60385000	      6037	80001474	038d7263	bgeu	x26,x24,80001498	 x26:0x00000000 x24:0xfffffb7b
       60395000	      6038	80001478	003ea933	slt	x18,x29,x3	 x29:0x80009ef4  x3:0x009b2000 x18=0x00000001
       60405000	      6039	8000147c	02e2ec63	bltu	x5,x14,800014b4	  x5:0x00000000 x14:0x000003a5
       60415000	      6040	00000000	00000013	addi	x0,x0,0	  x0:0x00000000
       60425000	      6041	800014b0	00000013	addi	x0,x0,0	  x0:0x00000000
       60435000	      6042	800014b4	1b09fc93	andi	x25,x19,432	 x19:0x00000001 x25=0x00000000
       60445000	      6043	800014b8	010fd133	srl	x2,x31,x16	 x31:0x00000001 x16:0x00000000  x2=0x00000001
       60455000	      6044	800014bc	0050de63	bge	x1,x5,800014d8	  x1:0x11415428  x5:0x00000000
       60465000	      6045	00000000	00000013	addi	x0,x0,0	  x0:0x00000000
       60475000	      6046	800014d4	00000013	addi	x0,x0,0	  x0:0x00000000
       60485000	      6047	800014d8	41d08633	sub	x12,x1,x29	  x1:0x11415428 x29:0x80009ef4 x12=0x9140b534
       60495000	      6048	800014dc	038c7c63	bgeu	x24,x24,80001514	 x24:0xfffffb7b x24:0xfffffb7b
       60505000	      6049	00000000	00000013	addi	x0,x0,0	  x0:0x00000000
       60515000	      6050	80001510	00000013	addi	x0,x0,0	  x0:0x00000000
       60525000	      6051	80001514	00dac663	blt	x21,x13,80001520	 x21:0x451c811c x13:0xff63a003
       60535000	      6052	80001518	03c56263	bltu	x10,x28,8000153c	 x10:0x00000003 x28:0x000005ec
       60545000	      6053	00000000	00000013	addi	x0,x0,0	  x0:0x00000000
       60555000	      6054	80001538	00000013	addi	x0,x0,0	  x0:0x00000000
       60565000	      6055	8000153c	004d0133	add	x2,x26,x4	 x26:0x00000000  x4:0x80009f84  x2=0x80009f84
       60575000	      6056	80001540	009957b3	srl	x15,x18,x9	 x18:0x00000001  x9:0x80009ef4 x15=0x00000000
       60585000	      6057	80001544	09c8ee13	ori	x28,x17,156	 x17:0x00060000 x28=0x0006009c
       60595000	      6058	80001548	40200c93	addi	x25,x0,1026	  x0:0x00000000 x25=0x00000402
       60605000	      6059	8000154c	01941a93	slli	x21,x8,0x19	  x8:0xfffff8ee x21=0xdc000000
       60615000	      6060	80001550	0070dd93	srli	x27,x1,0x7	  x1:0x11415428 x27=0x002282a8
       60625000	      6061	80001554	0218ce63	blt	x17,x1,80001590	 x17:0x00060000  x1:0x11415428
       60635000	      6062	00000000	00000013	addi	x0,x0,0	  x0:0x00000000
       60645000	      6063	8000158c	00000013	addi	x0,x0,0	  x0:0x00000000
       60655000	      6064	80001590	45b2bc13	sltiu	x24,x5,1115	  x5:0x00000000 x24=0x00000001
       60665000	      6065	80001594	000c3d33	sltu	x26,x24,x0	 x24:0x00000001  x0:0x00000000 x26=0x00000000
       60675000	      6066	80001598	00c843b3	xor	x7,x16,x12	 x16:0x00000000 x12:0x9140b534  x7=0x9140b534
       60685000	      6067	8000159c	8eeb4793	xori	x15,x22,-1810	 x22:0x00000228 x15=0xfffffac6
       60695000	      6068	800015a0	7ec0b993	sltiu	x19,x1,2028	  x1:0x11415428 x19=0x00000000
       60705000	      6069	800015a4	417703b3	sub	x7,x14,x23	 x14:0x000003a5 x23:0xe9c53628  x7=0x163acd7d
       60715000	      6070	800015a8	005ed593	srli	x11,x29,0x5	 x29:0x80009ef4 x11=0x040004f7
       60725000	      6071	800015ac	0399d663	bge	x19,x25,800015d8	 x19:0x00000000 x25:0x00000402
       60735000	      6072	800015b0	01286a63	bltu	x16,x18,800015c4	 x16:0x00000000 x18:0x00000001
       60745000	      6073	00000000	00000013	addi	x0,x0,0	  x0:0x00000000
       60755000	      6074	800015c0	00000013	addi	x0,x0,0	  x0:0x00000000
       60765000	      6075	800015c4	ac88e4b7	lui	x9,0xac88e	  x9=0xac88e000
       60775000	      6076	800015c8	05ed7263	bgeu	x26,x30,8000160c	 x26:0x00000000 x30:0x80009fc4
       60785000	      6077	800015cc	51017013	andi	x0,x2,1296	  x2:0x80009f84
       60795000	      6078	800015d0	0191fc63	bgeu	x3,x25,800015e8	  x3:0x009b2000 x25:0x00000402
       60805000	      6079	00000000	00000013	addi	x0,x0,0	  x0:0x00000000
       60815000	      6080	800015e4	00000013	addi	x0,x0,0	  x0:0x00000000
       60825000	      6081	800015e8	018c8e63	beq	x25,x24,80001604	 x25:0x00000402 x24:0x00000001
       60835000	      6082	800015ec	04b91063	bne	x18,x11,8000162c	 x18:0x00000001 x11:0x040004f7
       60845000	      6083	00000000	00000013	addi	x0,x0,0	  x0:0x00000000
       60855000	      6084	80001628	00000013	addi	x0,x0,0	  x0:0x00000000
       60865000	      6085	8000162c	0189fa33	and	x20,x19,x24	 x19:0x00000000 x24:0x00000001 x20=0x00000000
       60875000	      6086	80001630	00000013	addi	x0,x0,0	  x0:0x00000000
       60885000	      6087	80001634	00175eb3	srl	x29,x14,x1	 x14:0x000003a5  x1:0x11415428 x29=0x00000003
       60895000	      6088	80001638	2267c893	xori	x17,x15,550	 x15:0xfffffac6 x17=0xfffff8e0
       60905000	      6089	8000163c	01a09a63	bne	x1,x26,80001650	  x1:0x11415428 x26:0x00000000
       60915000	      6090	00000000	00000013	addi	x0,x0,0	  x0:0x00000000
       60925000	      6091	8000164c	00000013	addi	x0,x0,0	  x0:0x00000000
       60935000	      6092	80001650	01ef5893	srli	x17,x30,0x1e	 x30:0x80009fc4 x17=0x00000002
       60945000	      6093	80001654	006619b3	sll	x19,x12,x6	 x12:0x9140b534  x6:0xb04a3000 x19=0x9140b534
       60955000	      6094	80001658	9f5fae13	slti	x28,x31,-1547	 x31:0x00000001 x28=0x00000000
       60965000	      6095	8000165c	e5f49d17	auipc	x26,0xe5f49	 x26=0x65f4a658
       60975000	      6096	80001660	00976333	or	x6,x14,x9	 x14:0x000003a5  x9:0xac88e000  x6=0xac88e3a5
       60985000	      6097	80001664	0092aeb3	slt	x29,x5,x9	  x5:0x00000000  x9:0xac88e000 x29=0x00000000
       60995000	      6098	80001668	416ad813	srai	x16,x21,0x16	 x21:0xdc000000 x16=0xffffff70
       61005000	      6099	8000166c	000c0733	add	x14,x24,x0	 x24:0x00000001  x0:0x00000000 x14=0x00000001
       61015000	      6100	80001670	01449263	bne	x9,x20,80001674	  x9:0xac88e000 x20:0x00000000
       61025000	      6101	00000000	00000013	addi	x0,x0,0	  x0:0x00000000
       61035000	      6102	80001670	00000013	addi	x0,x0,0	  x0:0x00000000
       61045000	      6103	80001674	4e3ec913	xori	x18,x29,1251	 x29:0x00000000 x18=0x000004e3
       61055000	      6104	80001678	00b41d33	sll	x26,x8,x11	  x8:0xfffff8ee x11:0x040004f7 x26=0x77000000
       61065000	      6105	8000167c	92525497	auipc	x9,0x92525	  x9=0x12526678
       61075000	      6106	80001680	3109c613	xori	x12,x19,784	 x19:0x9140b534 x12=0x9140b624
       61085000	      6107	80001684	006aeab3	or	x21,x21,x6	 x21:0xdc000000  x6:0xac88e3a5 x21=0xfc88e3a5
       61095000	      6108	80001688	01822eb3	slt	x29,x4,x24	  x4:0x80009f84 x24:0x00000001 x29=0x00000001
       61105000	      6109	8000168c	2852a693	slti	x13,x5,645	  x5:0x00000000 x13=0x00000001
       61115000	      6110	80001690	04377263	bgeu	x14,x3,800016d4	 x14:0x00000001  x3:0x009b2000
       61125000	      6111	80001694	0059ea63	bltu	x19,x5,800016a8	 x19:0x9140b534  x5:0x00000000
       61135000	      6112	80001698	ad56bd93	sltiu	x27,x13,-1323	 x13:0x00000001 x27=0x00000001
       61145000	      6113	8000169c	04c3e863	bltu	x7,x12,800016ec	  x7:0x163acd7d x12:0x9140b624
       61155000	      6114	00000000	00000013	addi	x0,x0,0	  x0:0x00000000
       61165000	      6115	800016e8	00000013	addi	x0,x0,0	  x0:0x00000000
       61175000	      6116	800016ec	038d8663	beq	x27,x24,80001718	 x27:0x00000001 x24:0x00000001
       61185000	      6117	00000000	00000013	addi	x0,x0,0	  x0:0x00000000
       61195000	      6118	80001714	00000013	addi	x0,x0,0	  x0:0x00000000
       61205000	      6119	80001718	0281dc63	bge	x3,x8,80001750	  x3:0x009b2000  x8:0xfffff8ee
       61215000	      6120	00000000	00000013	addi	x0,x0,0	  x0:0x00000000
       61225000	      6121	8000174c	00000013	addi	x0,x0,0	  x0:0x00000000
       61235000	      6122	80001750	006f57b3	srl	x15,x30,x6	 x30:0x80009fc4  x6:0xac88e3a5 x15=0x040004fe
       61245000	      6123	80001754	00ae7033	and	x0,x28,x10	 x28:0x00000000 x10:0x00000003
       61255000	      6124	80001758	02b15c63	bge	x2,x11,80001790	  x2:0x80009f84 x11:0x040004f7
       61265000	      6125	8000175c	619d7917	auipc	x18,0x619d7	 x18=0xe19d8758
       61275000	      6126	80001760	00f97e33	and	x28,x18,x15	 x18:0xe19d8758 x15:0x040004fe x28=0x00000458
       61285000	      6127	80001764	01ac9133	sll	x2,x25,x26	 x25:0x00000402 x26:0x77000000  x2=0x00000402
       61295000	      6128	80001768	0135d433	srl	x8,x11,x19	 x11:0x040004f7 x19:0x9140b534  x8=0x00000040
       61305000	      6129	8000176c	0037a133	slt	x2,x15,x3	 x15:0x040004fe  x3:0x009b2000  x2=0x00000000
       61315000	      6130	80001770	005b83b3	add	x7,x23,x5	 x23:0xe9c53628  x5:0x00000000  x7=0xe9c53628
       61325000	      6131	80001774	40c7df93	srai	x31,x15,0xc	 x15:0x040004fe x31=0x00004000
       61335000	      6132	80001778	0a076613	ori	x12,x14,160	 x14:0x00000001 x12=0x000000a1
       61345000	      6133	8000177c	010e1c13	slli	x24,x28,0x10	 x28:0x00000458 x24=0x04580000
       61355000	      6134	80001780	017224b3	slt	x9,x4,x23	  x4:0x80009f84 x23:0xe9c53628  x9=0x00000001
       61365000	      6135	80001784	009398b3	sll	x17,x7,x9	  x7:0xe9c53628  x9:0x00000001 x17=0xd38a6c50
       61375000	      6136	80001788	2b85ed13	ori	x26,x11,696	 x11:0x040004f7 x26=0x040006ff
       61385000	      6137	8000178c	009910b3	sll	x1,x18,x9	 x18:0xe19d8758  x9:0x00000001  x1=0xc33b0eb0
       61395000	      6138	80001790	4173ed13	ori	x26,x7,1047	  x7:0xe9c53628 x26=0xe9c5363f
       61405000	      6139	80001794	cc2ece13	xori	x28,x29,-830	 x29:0x00000001 x28=0xfffffcc3
       61415000	      6140	80001798	01c68e33	add	x28,x13,x28	 x13:0x00000001 x28:0xfffffcc3 x28=0xfffffcc4
       61425000	      6141	8000179c	82e46b93	ori	x23,x8,-2002	  x8:0x00000040 x23=0xfffff86e
       61435000	      6142	800017a0	018f6c33	or	x24,x30,x24	 x30:0x80009fc4 x24:0x04580000 x24=0x84589fc4
       61445000	      6143	800017a4	02998e63	beq	x19,x9,800017e0	 x19:0x9140b534  x9:0x00000001
       61455000	      6144	800017a8	017a91b3	sll	x3,x21,x23	 x21:0xfc88e3a5 x23:0xfffff86e  x3=0x38e94000
       61465000	      6145	800017ac	0132f8b3	and	x17,x5,x19	  x5:0x00000000 x19:0x9140b534 x17=0x00000000
       61475000	      6146	800017b0	00aa8eb3	add	x29,x21,x10	 x21:0xfc88e3a5 x10:0x00000003 x29=0xfc88e3a8
       61485000	      6147	800017b4	87772f93	slti	x31,x14,-1929	 x14:0x00000001 x31=0x00000000
       61495000	      6148	800017b8	0148be33	sltu	x28,x17,x20	 x17:0x00000000 x20:0x00000000 x28=0x00000000
       61505000	      6149	800017bc	045af063	bgeu	x21,x5,800017fc	 x21:0xfc88e3a5  x5:0x00000000
       61515000	      6150	00000000	00000013	addi	x0,x0,0	  x0:0x00000000
       61525000	      6151	800017f8	00000013	addi	x0,x0,0	  x0:0x00000000
       61535000	      6152	800017fc	09317797	auipc	x15,0x9317	 x15=0x893187f8
       61545000	      6153	80001800	00005833	srl	x16,x0,x0	  x0:0x00000000  x0:0x00000000 x16=0x00000000
       61555000	      6154	80001804	00b24133	xor	x2,x4,x11	  x4:0x80009f84 x11:0x040004f7  x2=0x84009b73
       61565000	      6155	80001808	412654b3	sra	x9,x12,x18	 x12:0x000000a1 x18:0xe19d8758  x9=0x00000000
       61575000	      6156	8000180c	00000297	auipc	x5,0x0	  x5=0x80001808
       61585000	      6157	80001810	00c28293	addi	x5,x5,12	  x5:0x80001808  x5=0x80001814
       61595000	      6158	80001814	00028067	jalr	x0,x5,0	  x5:0x80001814
       61605000	      6159	00000000	00000013	addi	x0,x0,0	  x0:0x00000000
       61615000	      6160	80001814	00000013	addi	x0,x0,0	  x0:0x00000000
       61625000	      6161	80001818	00100193	addi	x3,x0,1	  x0:0x00000000  x3=0x00000001
       61635000	      6162	8000181c	00000073	ecall	
       61645000	      6163	80001820	01e6d463	bge	x13,x30,80001828	 x13:0x00000001 x30:0x80009fc4
