		Time			Cycle	PC		Insn	Decoded instruction	Register and memory contents
          65000	         5	80000004	00000293	addi	x5,x0,0	  x0:0x00000000  x5=0x00000000
          75000	         6	80000008	00000313	addi	x6,x0,0	  x0:0x00000000  x6=0x00000000
          85000	         7	8000000c	00628263	beq	x5,x6,80000010	  x5:0x00000000  x6:0x00000000
          95000	         8	00000000	00000013	addi	x0,x0,0	  x0:0x00000000
         105000	         9	8000000c	00000013	addi	x0,x0,0	  x0:0x00000000
         115000	        10	80000010	00000117	auipc	x2,0x0	  x2=0x8000000c
         125000	        11	80000014	00c10113	addi	x2,x2,12	  x2:0x8000000c  x2=0x80000018
         135000	        12	80000018	00010067	jalr	x0,x2,0	  x2:0x80000018
         145000	        13	00000000	00000013	addi	x0,x0,0	  x0:0x00000000
         155000	        14	80000018	00000013	addi	x0,x0,0	  x0:0x00000000
         165000	        15	8000001c	40000ab7	lui	x21,0x40000	 x21=0x40000000
         175000	        16	80000020	100a8a93	addi	x21,x21,256	 x21:0x40000000 x21=0x40000100
         185000	        17	80000024	00000013	addi	x0,x0,0	  x0:0x00000000
         195000	        18	80000028	0000ad17	auipc	x26,0xa	 x26=0x8000a024
         205000	        19	8000002c	fa0d0d13	addi	x26,x26,-96	 x26:0x8000a024 x26=0x80009fc4
         215000	        20	80000030	00004a97	auipc	x21,0x4	 x21=0x8000402c
         225000	        21	80000034	79ca8a93	addi	x21,x21,1948	 x21:0x8000402c x21=0x800047c8
         235000	        22	80000038	000aea93	ori	x21,x21,0	 x21:0x800047c8 x21=0x800047c8
         245000	        23	8000003c	00000013	addi	x0,x0,0	  x0:0x00000000
         255000	        24	80000040	00000a97	auipc	x21,0x0	 x21=0x8000003c
         265000	        25	80000044	020a8a93	addi	x21,x21,32	 x21:0x8000003c x21=0x8000005c
         275000	        26	80000048	00000013	addi	x0,x0,0	  x0:0x00000000
         285000	        27	8000004c	00000013	addi	x0,x0,0	  x0:0x00000000
         295000	        28	80000050	00002ab7	lui	x21,0x2	 x21=0x00002000
         305000	        29	80000054	800a8a93	addi	x21,x21,-2048	 x21:0x00002000 x21=0x00001800
         315000	        30	80000058	00000013	addi	x0,x0,0	  x0:0x00000000
         325000	        31	8000005c	00000013	addi	x0,x0,0	  x0:0x00000000
         335000	        32	80000060	80000037	lui	x0,0x80000	
         345000	        33	80000064	00000013	addi	x0,x0,0	  x0:0x00000000
         355000	        34	80000068	00000093	addi	x1,x0,0	  x0:0x00000000  x1=0x00000000
         365000	        35	8000006c	00000113	addi	x2,x0,0	  x0:0x00000000  x2=0x00000000
         375000	        36	80000070	8e7461b7	lui	x3,0x8e746	  x3=0x8e746000
         385000	        37	80000074	24818193	addi	x3,x3,584	  x3:0x8e746000  x3=0x8e746248
         395000	        38	80000078	80000237	lui	x4,0x80000	  x4=0x80000000
         405000	        39	8000007c	f53622b7	lui	x5,0xf5362	  x5=0xf5362000
         415000	        40	80000080	65928293	addi	x5,x5,1625	  x5:0xf5362000  x5=0xf5362659
         425000	        41	80000084	80000337	lui	x6,0x80000	  x6=0x80000000
         435000	        42	80000088	f65c53b7	lui	x7,0xf65c5	  x7=0xf65c5000
         445000	        43	8000008c	ebe38393	addi	x7,x7,-322	  x7:0xf65c5000  x7=0xf65c4ebe
         455000	        44	80000090	9459c437	lui	x8,0x9459c	  x8=0x9459c000
         465000	        45	80000094	87c40413	addi	x8,x8,-1924	  x8:0x9459c000  x8=0x9459b87c
         475000	        46	80000098	00800493	addi	x9,x0,8	  x0:0x00000000  x9=0x00000008
         485000	        47	8000009c	44935537	lui	x10,0x44935	 x10=0x44935000
         495000	        48	800000a0	61150513	addi	x10,x10,1553	 x10:0x44935000 x10=0x44935611
         505000	        49	800000a4	800005b7	lui	x11,0x80000	 x11=0x80000000
         515000	        50	800000a8	00000613	addi	x12,x0,0	  x0:0x00000000 x12=0x00000000
         525000	        51	800000ac	00000693	addi	x13,x0,0	  x0:0x00000000 x13=0x00000000
         535000	        52	800000b0	ed5fb737	lui	x14,0xed5fb	 x14=0xed5fb000
         545000	        53	800000b4	97370713	addi	x14,x14,-1677	 x14:0xed5fb000 x14=0xed5fa973
         555000	        54	800000b8	355607b7	lui	x15,0x35560	 x15=0x35560000
         565000	        55	800000bc	f9678793	addi	x15,x15,-106	 x15:0x35560000 x15=0x3555ff96
         575000	        56	800000c0	00e00813	addi	x16,x0,14	  x0:0x00000000 x16=0x0000000e
         585000	        57	800000c4	00000893	addi	x17,x0,0	  x0:0x00000000 x17=0x00000000
         595000	        58	800000c8	fb429937	lui	x18,0xfb429	 x18=0xfb429000
         605000	        59	800000cc	72290913	addi	x18,x18,1826	 x18:0xfb429000 x18=0xfb429722
         615000	        60	800000d0	00700993	addi	x19,x0,7	  x0:0x00000000 x19=0x00000007
         625000	        61	800000d4	fdbd4a37	lui	x20,0xfdbd4	 x20=0xfdbd4000
         635000	        62	800000d8	b76a0a13	addi	x20,x20,-1162	 x20:0xfdbd4000 x20=0xfdbd3b76
         645000	        63	800000dc	00c00a93	addi	x21,x0,12	  x0:0x00000000 x21=0x0000000c
         655000	        64	800000e0	88e3fb37	lui	x22,0x88e3f	 x22=0x88e3f000
         665000	        65	800000e4	b71b0b13	addi	x22,x22,-1167	 x22:0x88e3f000 x22=0x88e3eb71
         675000	        66	800000e8	80000bb7	lui	x23,0x80000	 x23=0x80000000
         685000	        67	800000ec	00100c13	addi	x24,x0,1	  x0:0x00000000 x24=0x00000001
         695000	        68	800000f0	00700c93	addi	x25,x0,7	  x0:0x00000000 x25=0x00000007
         705000	        69	800000f4	80000e37	lui	x28,0x80000	 x28=0x80000000
         715000	        70	800000f8	80000eb7	lui	x29,0x80000	 x29=0x80000000
         725000	        71	800000fc	cd8f1f37	lui	x30,0xcd8f1	 x30=0xcd8f1000
         735000	        72	80000100	2e3f0f13	addi	x30,x30,739	 x30:0xcd8f1000 x30=0xcd8f12e3
         745000	        73	80000104	fe531fb7	lui	x31,0xfe531	 x31=0xfe531000
         755000	        74	80000108	c12f8f93	addi	x31,x31,-1006	 x31:0xfe531000 x31=0xfe530c12
         765000	        75	8000010c	0000ad97	auipc	x27,0xa	 x27=0x8000a108
         775000	        76	80000110	e7cd8d93	addi	x27,x27,-388	 x27:0x8000a108 x27=0x80009f84
         785000	        77	80000114	0480036f	jal	x6,80000114	  x6=0x80000114
         795000	        78	00000000	00000013	addi	x0,x0,0	  x0:0x00000000
         805000	        79	80000158	00000013	addi	x0,x0,0	  x0:0x00000000
         815000	        80	8000015c	ffdff1ef	jal	x3,8000015c	  x3=0x8000015c
         825000	        81	00000000	00000013	addi	x0,x0,0	  x0:0x00000000
         835000	        82	80000154	00000013	addi	x0,x0,0	  x0:0x00000000
         845000	        83	80000158	fe1fff6f	jal	x30,80000158	 x30=0x80000158
         855000	        84	00000000	00000013	addi	x0,x0,0	  x0:0x00000000
         865000	        85	80000134	00000013	addi	x0,x0,0	  x0:0x00000000
         875000	        86	80000138	ff1ff36f	jal	x6,80000138	  x6=0x80000138
         885000	        87	00000000	00000013	addi	x0,x0,0	  x0:0x00000000
         895000	        88	80000124	00000013	addi	x0,x0,0	  x0:0x00000000
         905000	        89	80000128	0080036f	jal	x6,80000128	  x6=0x80000128
         915000	        90	00000000	00000013	addi	x0,x0,0	  x0:0x00000000
         925000	        91	8000012c	00000013	addi	x0,x0,0	  x0:0x00000000
         935000	        92	80000130	fe9ff36f	jal	x6,80000130	  x6=0x80000130
         945000	        93	00000000	00000013	addi	x0,x0,0	  x0:0x00000000
         955000	        94	80000114	00000013	addi	x0,x0,0	  x0:0x00000000
         965000	        95	80000118	02c0036f	jal	x6,80000118	  x6=0x80000118
         975000	        96	00000000	00000013	addi	x0,x0,0	  x0:0x00000000
         985000	        97	80000140	00000013	addi	x0,x0,0	  x0:0x00000000
         995000	        98	80000144	004000ef	jal	x1,80000144	  x1=0x80000144
        1005000	        99	00000000	00000013	addi	x0,x0,0	  x0:0x00000000
        1015000	       100	80000144	00000013	addi	x0,x0,0	  x0:0x00000000
        1025000	       101	80000148	ff5ff0ef	jal	x1,80000148	  x1=0x80000148
        1035000	       102	00000000	00000013	addi	x0,x0,0	  x0:0x00000000
        1045000	       103	80000138	00000013	addi	x0,x0,0	  x0:0x00000000
        1055000	       104	8000013c	010000ef	jal	x1,8000013c	  x1=0x8000013c
        1065000	       105	00000000	00000013	addi	x0,x0,0	  x0:0x00000000
        1075000	       106	80000148	00000013	addi	x0,x0,0	  x0:0x00000000
        1085000	       107	8000014c	ff5ff0ef	jal	x1,8000014c	  x1=0x8000014c
        1095000	       108	00000000	00000013	addi	x0,x0,0	  x0:0x00000000
        1105000	       109	8000013c	00000013	addi	x0,x0,0	  x0:0x00000000
        1115000	       110	80000140	028000ef	jal	x1,80000140	  x1=0x80000140
        1125000	       111	00000000	00000013	addi	x0,x0,0	  x0:0x00000000
        1135000	       112	80000164	00000013	addi	x0,x0,0	  x0:0x00000000
        1145000	       113	80000168	ff9ff0ef	jal	x1,80000168	  x1=0x80000168
        1155000	       114	00000000	00000013	addi	x0,x0,0	  x0:0x00000000
        1165000	       115	8000015c	00000013	addi	x0,x0,0	  x0:0x00000000
        1175000	       116	80000160	fbdff36f	jal	x6,80000160	  x6=0x80000160
        1185000	       117	00000000	00000013	addi	x0,x0,0	  x0:0x00000000
        1195000	       118	80000118	00000013	addi	x0,x0,0	  x0:0x00000000
        1205000	       119	8000011c	038000ef	jal	x1,8000011c	  x1=0x8000011c
        1215000	       120	00000000	00000013	addi	x0,x0,0	  x0:0x00000000
        1225000	       121	80000150	00000013	addi	x0,x0,0	  x0:0x00000000
        1235000	       122	80000154	01000eef	jal	x29,80000154	 x29=0x80000154
        1245000	       123	00000000	00000013	addi	x0,x0,0	  x0:0x00000000
        1255000	       124	80000160	00000013	addi	x0,x0,0	  x0:0x00000000
        1265000	       125	80000164	fedff0ef	jal	x1,80000164	  x1=0x80000164
        1275000	       126	00000000	00000013	addi	x0,x0,0	  x0:0x00000000
        1285000	       127	8000014c	00000013	addi	x0,x0,0	  x0:0x00000000
        1295000	       128	80000150	fe5ff36f	jal	x6,80000150	  x6=0x80000150
        1305000	       129	00000000	00000013	addi	x0,x0,0	  x0:0x00000000
        1315000	       130	80000130	00000013	addi	x0,x0,0	  x0:0x00000000
        1325000	       131	80000134	ff1ff0ef	jal	x1,80000134	  x1=0x80000134
        1335000	       132	00000000	00000013	addi	x0,x0,0	  x0:0x00000000
        1345000	       133	80000120	00000013	addi	x0,x0,0	  x0:0x00000000
        1355000	       134	80000124	00800c6f	jal	x24,80000124	 x24=0x80000124
        1365000	       135	00000000	00000013	addi	x0,x0,0	  x0:0x00000000
        1375000	       136	80000128	00000013	addi	x0,x0,0	  x0:0x00000000
        1385000	       137	8000012c	ff5ff0ef	jal	x1,8000012c	  x1=0x8000012c
        1395000	       138	00000000	00000013	addi	x0,x0,0	  x0:0x00000000
        1405000	       139	8000011c	00000013	addi	x0,x0,0	  x0:0x00000000
        1415000	       140	80000120	04c000ef	jal	x1,80000120	  x1=0x80000120
        1425000	       141	00000000	00000013	addi	x0,x0,0	  x0:0x00000000
        1435000	       142	80000168	00000013	addi	x0,x0,0	  x0:0x00000000
        1445000	       143	8000016c	00f3d333	srl	x6,x7,x15	  x7:0xf65c4ebe x15:0x3555ff96  x6=0x000003d9
        1455000	       144	80000170	0040036f	jal	x6,80000170	  x6=0x80000170
        1465000	       145	00000000	00000013	addi	x0,x0,0	  x0:0x00000000
        1475000	       146	80000170	00000013	addi	x0,x0,0	  x0:0x00000000
        1485000	       147	80000174	028005ef	jal	x11,80000174	 x11=0x80000174
        1495000	       148	00000000	00000013	addi	x0,x0,0	  x0:0x00000000
        1505000	       149	80000198	00000013	addi	x0,x0,0	  x0:0x00000000
        1515000	       150	8000019c	ff5ff0ef	jal	x1,8000019c	  x1=0x8000019c
        1525000	       151	00000000	00000013	addi	x0,x0,0	  x0:0x00000000
        1535000	       152	8000018c	00000013	addi	x0,x0,0	  x0:0x00000000
        1545000	       153	80000190	ff1ffa6f	jal	x20,80000190	 x20=0x80000190
        1555000	       154	00000000	00000013	addi	x0,x0,0	  x0:0x00000000
        1565000	       155	8000017c	00000013	addi	x0,x0,0	  x0:0x00000000
        1575000	       156	80000180	00c005ef	jal	x11,80000180	 x11=0x80000180
        1585000	       157	00000000	00000013	addi	x0,x0,0	  x0:0x00000000
        1595000	       158	80000188	00000013	addi	x0,x0,0	  x0:0x00000000
        1605000	       159	8000018c	014008ef	jal	x17,8000018c	 x17=0x8000018c
        1615000	       160	00000000	00000013	addi	x0,x0,0	  x0:0x00000000
        1625000	       161	8000019c	00000013	addi	x0,x0,0	  x0:0x00000000
        1635000	       162	800001a0	fd9ff7ef	jal	x15,800001a0	 x15=0x800001a0
        1645000	       163	00000000	00000013	addi	x0,x0,0	  x0:0x00000000
        1655000	       164	80000174	00000013	addi	x0,x0,0	  x0:0x00000000
        1665000	       165	80000178	010000ef	jal	x1,80000178	  x1=0x80000178
        1675000	       166	00000000	00000013	addi	x0,x0,0	  x0:0x00000000
        1685000	       167	80000184	00000013	addi	x0,x0,0	  x0:0x00000000
        1695000	       168	80000188	00c000ef	jal	x1,80000188	  x1=0x80000188
        1705000	       169	00000000	00000013	addi	x0,x0,0	  x0:0x00000000
        1715000	       170	80000190	00000013	addi	x0,x0,0	  x0:0x00000000
        1725000	       171	80000194	ff1ff4ef	jal	x9,80000194	  x9=0x80000194
        1735000	       172	00000000	00000013	addi	x0,x0,0	  x0:0x00000000
        1745000	       173	80000180	00000013	addi	x0,x0,0	  x0:0x00000000
        1755000	       174	80000184	ff9ffcef	jal	x25,80000184	 x25=0x80000184
        1765000	       175	00000000	00000013	addi	x0,x0,0	  x0:0x00000000
        1775000	       176	80000178	00000013	addi	x0,x0,0	  x0:0x00000000
        1785000	       177	8000017c	01c000ef	jal	x1,8000017c	  x1=0x8000017c
        1795000	       178	00000000	00000013	addi	x0,x0,0	  x0:0x00000000
        1805000	       179	80000194	00000013	addi	x0,x0,0	  x0:0x00000000
        1815000	       180	80000198	00c000ef	jal	x1,80000198	  x1=0x80000198
        1825000	       181	00000000	00000013	addi	x0,x0,0	  x0:0x00000000
        1835000	       182	800001a0	00000013	addi	x0,x0,0	  x0:0x00000000
        1845000	       183	800001a4	006aecb3	or	x25,x21,x6	 x21:0x0000000c  x6:0x80000170 x25=0x8000017c
        1855000	       184	800001a8	0340036f	jal	x6,800001a8	  x6=0x800001a8
        1865000	       185	00000000	00000013	addi	x0,x0,0	  x0:0x00000000
        1875000	       186	800001d8	00000013	addi	x0,x0,0	  x0:0x00000000
        1885000	       187	800001dc	fe1ff36f	jal	x6,800001dc	  x6=0x800001dc
        1895000	       188	00000000	00000013	addi	x0,x0,0	  x0:0x00000000
        1905000	       189	800001b8	00000013	addi	x0,x0,0	  x0:0x00000000
        1915000	       190	800001bc	008000ef	jal	x1,800001bc	  x1=0x800001bc
        1925000	       191	00000000	00000013	addi	x0,x0,0	  x0:0x00000000
        1935000	       192	800001c0	00000013	addi	x0,x0,0	  x0:0x00000000
        1945000	       193	800001c4	fe9ff0ef	jal	x1,800001c4	  x1=0x800001c4
        1955000	       194	00000000	00000013	addi	x0,x0,0	  x0:0x00000000
        1965000	       195	800001a8	00000013	addi	x0,x0,0	  x0:0x00000000
        1975000	       196	800001ac	02c00e6f	jal	x28,800001ac	 x28=0x800001ac
        1985000	       197	00000000	00000013	addi	x0,x0,0	  x0:0x00000000
        1995000	       198	800001d4	00000013	addi	x0,x0,0	  x0:0x00000000
        2005000	       199	800001d8	ff1ff0ef	jal	x1,800001d8	  x1=0x800001d8
        2015000	       200	00000000	00000013	addi	x0,x0,0	  x0:0x00000000
        2025000	       201	800001c4	00000013	addi	x0,x0,0	  x0:0x00000000
        2035000	       202	800001c8	fe9ff0ef	jal	x1,800001c8	  x1=0x800001c8
        2045000	       203	00000000	00000013	addi	x0,x0,0	  x0:0x00000000
        2055000	       204	800001ac	00000013	addi	x0,x0,0	  x0:0x00000000
        2065000	       205	800001b0	010003ef	jal	x7,800001b0	  x7=0x800001b0
        2075000	       206	00000000	00000013	addi	x0,x0,0	  x0:0x00000000
        2085000	       207	800001bc	00000013	addi	x0,x0,0	  x0:0x00000000
        2095000	       208	800001c0	0100066f	jal	x12,800001c0	 x12=0x800001c0
        2105000	       209	00000000	00000013	addi	x0,x0,0	  x0:0x00000000
        2115000	       210	800001cc	00000013	addi	x0,x0,0	  x0:0x00000000
        2125000	       211	800001d0	ffdff36f	jal	x6,800001d0	  x6=0x800001d0
        2135000	       212	00000000	00000013	addi	x0,x0,0	  x0:0x00000000
        2145000	       213	800001c8	00000013	addi	x0,x0,0	  x0:0x00000000
        2155000	       214	800001cc	008000ef	jal	x1,800001cc	  x1=0x800001cc
        2165000	       215	00000000	00000013	addi	x0,x0,0	  x0:0x00000000
        2175000	       216	800001d0	00000013	addi	x0,x0,0	  x0:0x00000000
        2185000	       217	800001d4	fe1ff36f	jal	x6,800001d4	  x6=0x800001d4
        2195000	       218	00000000	00000013	addi	x0,x0,0	  x0:0x00000000
        2205000	       219	800001b0	00000013	addi	x0,x0,0	  x0:0x00000000
        2215000	       220	800001b4	02c000ef	jal	x1,800001b4	  x1=0x800001b4
        2225000	       221	00000000	00000013	addi	x0,x0,0	  x0:0x00000000
        2235000	       222	800001dc	00000013	addi	x0,x0,0	  x0:0x00000000
        2245000	       223	800001e0	fd9ff0ef	jal	x1,800001e0	  x1=0x800001e0
        2255000	       224	00000000	00000013	addi	x0,x0,0	  x0:0x00000000
        2265000	       225	800001b4	00000013	addi	x0,x0,0	  x0:0x00000000
        2275000	       226	800001b8	02c000ef	jal	x1,800001b8	  x1=0x800001b8
        2285000	       227	00000000	00000013	addi	x0,x0,0	  x0:0x00000000
        2295000	       228	800001e0	00000013	addi	x0,x0,0	  x0:0x00000000
        2305000	       229	800001e4	edf5fa93	andi	x21,x11,-289	 x11:0x80000180 x21=0x80000080
        2315000	       230	800001e8	02c0036f	jal	x6,800001e8	  x6=0x800001e8
        2325000	       231	00000000	00000013	addi	x0,x0,0	  x0:0x00000000
        2335000	       232	80000210	00000013	addi	x0,x0,0	  x0:0x00000000
        2345000	       233	80000214	ff9ff36f	jal	x6,80000214	  x6=0x80000214
        2355000	       234	00000000	00000013	addi	x0,x0,0	  x0:0x00000000
        2365000	       235	80000208	00000013	addi	x0,x0,0	  x0:0x00000000
        2375000	       236	8000020c	fe9ff0ef	jal	x1,8000020c	  x1=0x8000020c
        2385000	       237	00000000	00000013	addi	x0,x0,0	  x0:0x00000000
        2395000	       238	800001f0	00000013	addi	x0,x0,0	  x0:0x00000000
        2405000	       239	800001f4	024000ef	jal	x1,800001f4	  x1=0x800001f4
        2415000	       240	00000000	00000013	addi	x0,x0,0	  x0:0x00000000
        2425000	       241	80000214	00000013	addi	x0,x0,0	  x0:0x00000000
        2435000	       242	80000218	fd5ff9ef	jal	x19,80000218	 x19=0x80000218
        2445000	       243	00000000	00000013	addi	x0,x0,0	  x0:0x00000000
        2455000	       244	800001e8	00000013	addi	x0,x0,0	  x0:0x00000000
        2465000	       245	800001ec	038000ef	jal	x1,800001ec	  x1=0x800001ec
        2475000	       246	00000000	00000013	addi	x0,x0,0	  x0:0x00000000
        2485000	       247	80000220	00000013	addi	x0,x0,0	  x0:0x00000000
        2495000	       248	80000224	fcdff9ef	jal	x19,80000224	 x19=0x80000224
        2505000	       249	00000000	00000013	addi	x0,x0,0	  x0:0x00000000
        2515000	       250	800001ec	00000013	addi	x0,x0,0	  x0:0x00000000
        2525000	       251	800001f0	00c000ef	jal	x1,800001f0	  x1=0x800001f0
        2535000	       252	00000000	00000013	addi	x0,x0,0	  x0:0x00000000
        2545000	       253	800001f8	00000013	addi	x0,x0,0	  x0:0x00000000
        2555000	       254	800001fc	008000ef	jal	x1,800001fc	  x1=0x800001fc
        2565000	       255	00000000	00000013	addi	x0,x0,0	  x0:0x00000000
        2575000	       256	80000200	00000013	addi	x0,x0,0	  x0:0x00000000
        2585000	       257	80000204	0180096f	jal	x18,80000204	 x18=0x80000204
        2595000	       258	00000000	00000013	addi	x0,x0,0	  x0:0x00000000
        2605000	       259	80000218	00000013	addi	x0,x0,0	  x0:0x00000000
        2615000	       260	8000021c	fe5ff5ef	jal	x11,8000021c	 x11=0x8000021c
        2625000	       261	00000000	00000013	addi	x0,x0,0	  x0:0x00000000
        2635000	       262	800001fc	00000013	addi	x0,x0,0	  x0:0x00000000
        2645000	       263	80000200	010002ef	jal	x5,80000200	  x5=0x80000200
        2655000	       264	00000000	00000013	addi	x0,x0,0	  x0:0x00000000
        2665000	       265	8000020c	00000013	addi	x0,x0,0	  x0:0x00000000
        2675000	       266	80000210	018000ef	jal	x1,80000210	  x1=0x80000210
        2685000	       267	00000000	00000013	addi	x0,x0,0	  x0:0x00000000
        2695000	       268	80000224	00000013	addi	x0,x0,0	  x0:0x00000000
        2705000	       269	80000228	fd1ff0ef	jal	x1,80000228	  x1=0x80000228
        2715000	       270	00000000	00000013	addi	x0,x0,0	  x0:0x00000000
        2725000	       271	800001f4	00000013	addi	x0,x0,0	  x0:0x00000000
        2735000	       272	800001f8	010000ef	jal	x1,800001f8	  x1=0x800001f8
        2745000	       273	00000000	00000013	addi	x0,x0,0	  x0:0x00000000
        2755000	       274	80000204	00000013	addi	x0,x0,0	  x0:0x00000000
        2765000	       275	80000208	0180026f	jal	x4,80000208	  x4=0x80000208
        2775000	       276	00000000	00000013	addi	x0,x0,0	  x0:0x00000000
        2785000	       277	8000021c	00000013	addi	x0,x0,0	  x0:0x00000000
        2795000	       278	80000220	00c0056f	jal	x10,80000220	 x10=0x80000220
        2805000	       279	00000000	00000013	addi	x0,x0,0	  x0:0x00000000
        2815000	       280	80000228	00000013	addi	x0,x0,0	  x0:0x00000000
        2825000	       281	8000022c	416ddb13	srai	x22,x27,0x16	 x27:0x80009f84 x22=0xfffffe00
        2835000	       282	80000230	0300036f	jal	x6,80000230	  x6=0x80000230
        2845000	       283	00000000	00000013	addi	x0,x0,0	  x0:0x00000000
        2855000	       284	8000025c	00000013	addi	x0,x0,0	  x0:0x00000000
        2865000	       285	80000260	fddffe6f	jal	x28,80000260	 x28=0x80000260
        2875000	       286	00000000	00000013	addi	x0,x0,0	  x0:0x00000000
        2885000	       287	80000238	00000013	addi	x0,x0,0	  x0:0x00000000
        2895000	       288	8000023c	018000ef	jal	x1,8000023c	  x1=0x8000023c
        2905000	       289	00000000	00000013	addi	x0,x0,0	  x0:0x00000000
        2915000	       290	80000250	00000013	addi	x0,x0,0	  x0:0x00000000
        2925000	       291	80000254	004000ef	jal	x1,80000254	  x1=0x80000254
        2935000	       292	00000000	00000013	addi	x0,x0,0	  x0:0x00000000
        2945000	       293	80000254	00000013	addi	x0,x0,0	  x0:0x00000000
        2955000	       294	80000258	004001ef	jal	x3,80000258	  x3=0x80000258
        2965000	       295	00000000	00000013	addi	x0,x0,0	  x0:0x00000000
        2975000	       296	80000258	00000013	addi	x0,x0,0	  x0:0x00000000
        2985000	       297	8000025c	ff1ff0ef	jal	x1,8000025c	  x1=0x8000025c
        2995000	       298	00000000	00000013	addi	x0,x0,0	  x0:0x00000000
        3005000	       299	80000248	00000013	addi	x0,x0,0	  x0:0x00000000
        3015000	       300	8000024c	ff5ff0ef	jal	x1,8000024c	  x1=0x8000024c
        3025000	       301	00000000	00000013	addi	x0,x0,0	  x0:0x00000000
        3035000	       302	8000023c	00000013	addi	x0,x0,0	  x0:0x00000000
        3045000	       303	80000240	ff5ff0ef	jal	x1,80000240	  x1=0x80000240
        3055000	       304	00000000	00000013	addi	x0,x0,0	  x0:0x00000000
        3065000	       305	80000230	00000013	addi	x0,x0,0	  x0:0x00000000
        3075000	       306	80000234	004000ef	jal	x1,80000234	  x1=0x80000234
        3085000	       307	00000000	00000013	addi	x0,x0,0	  x0:0x00000000
        3095000	       308	80000234	00000013	addi	x0,x0,0	  x0:0x00000000
        3105000	       309	80000238	00c0036f	jal	x6,80000238	  x6=0x80000238
        3115000	       310	00000000	00000013	addi	x0,x0,0	  x0:0x00000000
        3125000	       311	80000240	00000013	addi	x0,x0,0	  x0:0x00000000
        3135000	       312	80000244	00c007ef	jal	x15,80000244	 x15=0x80000244
        3145000	       313	00000000	00000013	addi	x0,x0,0	  x0:0x00000000
        3155000	       314	8000024c	00000013	addi	x0,x0,0	  x0:0x00000000
        3165000	       315	80000250	ff9ff0ef	jal	x1,80000250	  x1=0x80000250
        3175000	       316	00000000	00000013	addi	x0,x0,0	  x0:0x00000000
        3185000	       317	80000244	00000013	addi	x0,x0,0	  x0:0x00000000
        3195000	       318	80000248	01c000ef	jal	x1,80000248	  x1=0x80000248
        3205000	       319	00000000	00000013	addi	x0,x0,0	  x0:0x00000000
        3215000	       320	80000260	00000013	addi	x0,x0,0	  x0:0x00000000
        3225000	       321	80000264	41665233	sra	x4,x12,x22	 x12:0x800001c0 x22:0xfffffe00  x4=0x800001c0
        3235000	       322	80000268	00c0036f	jal	x6,80000268	  x6=0x80000268
        3245000	       323	00000000	00000013	addi	x0,x0,0	  x0:0x00000000
        3255000	       324	80000270	00000013	addi	x0,x0,0	  x0:0x00000000
        3265000	       325	80000274	048000ef	jal	x1,80000274	  x1=0x80000274
        3275000	       326	00000000	00000013	addi	x0,x0,0	  x0:0x00000000
        3285000	       327	800002b8	00000013	addi	x0,x0,0	  x0:0x00000000
        3295000	       328	800002bc	fc1ff36f	jal	x6,800002bc	  x6=0x800002bc
        3305000	       329	00000000	00000013	addi	x0,x0,0	  x0:0x00000000
        3315000	       330	80000278	00000013	addi	x0,x0,0	  x0:0x00000000
        3325000	       331	8000027c	0380096f	jal	x18,8000027c	 x18=0x8000027c
        3335000	       332	00000000	00000013	addi	x0,x0,0	  x0:0x00000000
        3345000	       333	800002b0	00000013	addi	x0,x0,0	  x0:0x00000000
        3355000	       334	800002b4	ffdff0ef	jal	x1,800002b4	  x1=0x800002b4
        3365000	       335	00000000	00000013	addi	x0,x0,0	  x0:0x00000000
        3375000	       336	800002ac	00000013	addi	x0,x0,0	  x0:0x00000000
        3385000	       337	800002b0	008000ef	jal	x1,800002b0	  x1=0x800002b0
        3395000	       338	00000000	00000013	addi	x0,x0,0	  x0:0x00000000
        3405000	       339	800002b4	00000013	addi	x0,x0,0	  x0:0x00000000
        3415000	       340	800002b8	fb9ffcef	jal	x25,800002b8	 x25=0x800002b8
        3425000	       341	00000000	00000013	addi	x0,x0,0	  x0:0x00000000
        3435000	       342	8000026c	00000013	addi	x0,x0,0	  x0:0x00000000
        3445000	       343	80000270	014000ef	jal	x1,80000270	  x1=0x80000270
        3455000	       344	00000000	00000013	addi	x0,x0,0	  x0:0x00000000
        3465000	       345	80000280	00000013	addi	x0,x0,0	  x0:0x00000000
        3475000	       346	80000284	03c000ef	jal	x1,80000284	  x1=0x80000284
        3485000	       347	00000000	00000013	addi	x0,x0,0	  x0:0x00000000
        3495000	       348	800002bc	00000013	addi	x0,x0,0	  x0:0x00000000
        3505000	       349	800002c0	fddff6ef	jal	x13,800002c0	 x13=0x800002c0
        3515000	       350	00000000	00000013	addi	x0,x0,0	  x0:0x00000000
        3525000	       351	80000298	00000013	addi	x0,x0,0	  x0:0x00000000
        3535000	       352	8000029c	fedff0ef	jal	x1,8000029c	  x1=0x8000029c
        3545000	       353	00000000	00000013	addi	x0,x0,0	  x0:0x00000000
        3555000	       354	80000284	00000013	addi	x0,x0,0	  x0:0x00000000
        3565000	       355	80000288	008000ef	jal	x1,80000288	  x1=0x80000288
        3575000	       356	00000000	00000013	addi	x0,x0,0	  x0:0x00000000
        3585000	       357	8000028c	00000013	addi	x0,x0,0	  x0:0x00000000
        3595000	       358	80000290	040000ef	jal	x1,80000290	  x1=0x80000290
        3605000	       359	00000000	00000013	addi	x0,x0,0	  x0:0x00000000
        3615000	       360	800002cc	00000013	addi	x0,x0,0	  x0:0x00000000
        3625000	       361	800002d0	fb1ff0ef	jal	x1,800002d0	  x1=0x800002d0
        3635000	       362	00000000	00000013	addi	x0,x0,0	  x0:0x00000000
        3645000	       363	8000027c	00000013	addi	x0,x0,0	  x0:0x00000000
        3655000	       364	80000280	ff9ff0ef	jal	x1,80000280	  x1=0x80000280
        3665000	       365	00000000	00000013	addi	x0,x0,0	  x0:0x00000000
        3675000	       366	80000274	00000013	addi	x0,x0,0	  x0:0x00000000
        3685000	       367	80000278	028000ef	jal	x1,80000278	  x1=0x80000278
        3695000	       368	00000000	00000013	addi	x0,x0,0	  x0:0x00000000
        3705000	       369	8000029c	00000013	addi	x0,x0,0	  x0:0x00000000
        3715000	       370	800002a0	00c00f6f	jal	x30,800002a0	 x30=0x800002a0
        3725000	       371	00000000	00000013	addi	x0,x0,0	  x0:0x00000000
        3735000	       372	800002a8	00000013	addi	x0,x0,0	  x0:0x00000000
        3745000	       373	800002ac	ff9ff0ef	jal	x1,800002ac	  x1=0x800002ac
        3755000	       374	00000000	00000013	addi	x0,x0,0	  x0:0x00000000
        3765000	       375	800002a0	00000013	addi	x0,x0,0	  x0:0x00000000
        3775000	       376	800002a4	ff5ff0ef	jal	x1,800002a4	  x1=0x800002a4
        3785000	       377	00000000	00000013	addi	x0,x0,0	  x0:0x00000000
        3795000	       378	80000294	00000013	addi	x0,x0,0	  x0:0x00000000
        3805000	       379	80000298	ff5ff0ef	jal	x1,80000298	  x1=0x80000298
        3815000	       380	00000000	00000013	addi	x0,x0,0	  x0:0x00000000
        3825000	       381	80000288	00000013	addi	x0,x0,0	  x0:0x00000000
        3835000	       382	8000028c	01c0036f	jal	x6,8000028c	  x6=0x8000028c
        3845000	       383	00000000	00000013	addi	x0,x0,0	  x0:0x00000000
        3855000	       384	800002a4	00000013	addi	x0,x0,0	  x0:0x00000000
        3865000	       385	800002a8	024000ef	jal	x1,800002a8	  x1=0x800002a8
        3875000	       386	00000000	00000013	addi	x0,x0,0	  x0:0x00000000
        3885000	       387	800002c8	00000013	addi	x0,x0,0	  x0:0x00000000
        3895000	       388	800002cc	ff9ff2ef	jal	x5,800002cc	  x5=0x800002cc
        3905000	       389	00000000	00000013	addi	x0,x0,0	  x0:0x00000000
        3915000	       390	800002c0	00000013	addi	x0,x0,0	  x0:0x00000000
        3925000	       391	800002c4	fa9ff0ef	jal	x1,800002c4	  x1=0x800002c4
        3935000	       392	00000000	00000013	addi	x0,x0,0	  x0:0x00000000
        3945000	       393	80000268	00000013	addi	x0,x0,0	  x0:0x00000000
        3955000	       394	8000026c	05c000ef	jal	x1,8000026c	  x1=0x8000026c
        3965000	       395	00000000	00000013	addi	x0,x0,0	  x0:0x00000000
        3975000	       396	800002c4	00000013	addi	x0,x0,0	  x0:0x00000000
        3985000	       397	800002c8	fcdff0ef	jal	x1,800002c8	  x1=0x800002c8
        3995000	       398	00000000	00000013	addi	x0,x0,0	  x0:0x00000000
        4005000	       399	80000290	00000013	addi	x0,x0,0	  x0:0x00000000
        4015000	       400	80000294	040000ef	jal	x1,80000294	  x1=0x80000294
        4025000	       401	00000000	00000013	addi	x0,x0,0	  x0:0x00000000
        4035000	       402	800002d0	00000013	addi	x0,x0,0	  x0:0x00000000
        4045000	       403	800002d4	01e01793	slli	x15,x0,0x1e	  x0:0x00000000 x15=0x00000000
        4055000	       404	800002d8	01c0036f	jal	x6,800002d8	  x6=0x800002d8
        4065000	       405	00000000	00000013	addi	x0,x0,0	  x0:0x00000000
        4075000	       406	800002f0	00000013	addi	x0,x0,0	  x0:0x00000000
        4085000	       407	800002f4	024000ef	jal	x1,800002f4	  x1=0x800002f4
        4095000	       408	00000000	00000013	addi	x0,x0,0	  x0:0x00000000
        4105000	       409	80000314	00000013	addi	x0,x0,0	  x0:0x00000000
        4115000	       410	80000318	fd5ff36f	jal	x6,80000318	  x6=0x80000318
        4125000	       411	00000000	00000013	addi	x0,x0,0	  x0:0x00000000
        4135000	       412	800002e8	00000013	addi	x0,x0,0	  x0:0x00000000
        4145000	       413	800002ec	054000ef	jal	x1,800002ec	  x1=0x800002ec
        4155000	       414	00000000	00000013	addi	x0,x0,0	  x0:0x00000000
        4165000	       415	8000033c	00000013	addi	x0,x0,0	  x0:0x00000000
        4175000	       416	80000340	fb1ff0ef	jal	x1,80000340	  x1=0x80000340
        4185000	       417	00000000	00000013	addi	x0,x0,0	  x0:0x00000000
        4195000	       418	800002ec	00000013	addi	x0,x0,0	  x0:0x00000000
        4205000	       419	800002f0	01c000ef	jal	x1,800002f0	  x1=0x800002f0
        4215000	       420	00000000	00000013	addi	x0,x0,0	  x0:0x00000000
        4225000	       421	80000308	00000013	addi	x0,x0,0	  x0:0x00000000
        4235000	       422	8000030c	ff9ff26f	jal	x4,8000030c	  x4=0x8000030c
        4245000	       423	00000000	00000013	addi	x0,x0,0	  x0:0x00000000
        4255000	       424	80000300	00000013	addi	x0,x0,0	  x0:0x00000000
        4265000	       425	80000304	ffdff36f	jal	x6,80000304	  x6=0x80000304
        4275000	       426	00000000	00000013	addi	x0,x0,0	  x0:0x00000000
        4285000	       427	800002fc	00000013	addi	x0,x0,0	  x0:0x00000000
        4295000	       428	80000300	fe1ff36f	jal	x6,80000300	  x6=0x80000300
        4305000	       429	00000000	00000013	addi	x0,x0,0	  x0:0x00000000
        4315000	       430	800002dc	00000013	addi	x0,x0,0	  x0:0x00000000
        4325000	       431	800002e0	05c000ef	jal	x1,800002e0	  x1=0x800002e0
        4335000	       432	00000000	00000013	addi	x0,x0,0	  x0:0x00000000
        4345000	       433	80000338	00000013	addi	x0,x0,0	  x0:0x00000000
        4355000	       434	8000033c	fd5ff0ef	jal	x1,8000033c	  x1=0x8000033c
        4365000	       435	00000000	00000013	addi	x0,x0,0	  x0:0x00000000
        4375000	       436	8000030c	00000013	addi	x0,x0,0	  x0:0x00000000
        4385000	       437	80000310	ff9ff0ef	jal	x1,80000310	  x1=0x80000310
        4395000	       438	00000000	00000013	addi	x0,x0,0	  x0:0x00000000
        4405000	       439	80000304	00000013	addi	x0,x0,0	  x0:0x00000000
        4415000	       440	80000308	ff5ff26f	jal	x4,80000308	  x4=0x80000308
        4425000	       441	00000000	00000013	addi	x0,x0,0	  x0:0x00000000
        4435000	       442	800002f8	00000013	addi	x0,x0,0	  x0:0x00000000
        4445000	       443	800002fc	0480076f	jal	x14,800002fc	 x14=0x800002fc
        4455000	       444	00000000	00000013	addi	x0,x0,0	  x0:0x00000000
        4465000	       445	80000340	00000013	addi	x0,x0,0	  x0:0x00000000
        4475000	       446	80000344	fd9ff6ef	jal	x13,80000344	 x13=0x80000344
        4485000	       447	00000000	00000013	addi	x0,x0,0	  x0:0x00000000
        4495000	       448	80000318	00000013	addi	x0,x0,0	  x0:0x00000000
        4505000	       449	8000031c	008000ef	jal	x1,8000031c	  x1=0x8000031c
        4515000	       450	00000000	00000013	addi	x0,x0,0	  x0:0x00000000
        4525000	       451	80000320	00000013	addi	x0,x0,0	  x0:0x00000000
        4535000	       452	80000324	fc5fffef	jal	x31,80000324	 x31=0x80000324
        4545000	       453	00000000	00000013	addi	x0,x0,0	  x0:0x00000000
        4555000	       454	800002e4	00000013	addi	x0,x0,0	  x0:0x00000000
        4565000	       455	800002e8	010000ef	jal	x1,800002e8	  x1=0x800002e8
        4575000	       456	00000000	00000013	addi	x0,x0,0	  x0:0x00000000
        4585000	       457	800002f4	00000013	addi	x0,x0,0	  x0:0x00000000
        4595000	       458	800002f8	fe5ff0ef	jal	x1,800002f8	  x1=0x800002f8
        4605000	       459	00000000	00000013	addi	x0,x0,0	  x0:0x00000000
        4615000	       460	800002d8	00000013	addi	x0,x0,0	  x0:0x00000000
        4625000	       461	800002dc	03800eef	jal	x29,800002dc	 x29=0x800002dc
        4635000	       462	00000000	00000013	addi	x0,x0,0	  x0:0x00000000
        4645000	       463	80000310	00000013	addi	x0,x0,0	  x0:0x00000000
        4655000	       464	80000314	020008ef	jal	x17,80000314	 x17=0x80000314
        4665000	       465	00000000	00000013	addi	x0,x0,0	  x0:0x00000000
        4675000	       466	80000330	00000013	addi	x0,x0,0	  x0:0x00000000
        4685000	       467	80000334	004000ef	jal	x1,80000334	  x1=0x80000334
        4695000	       468	00000000	00000013	addi	x0,x0,0	  x0:0x00000000
        4705000	       469	80000334	00000013	addi	x0,x0,0	  x0:0x00000000
        4715000	       470	80000338	ff5ff0ef	jal	x1,80000338	  x1=0x80000338
        4725000	       471	00000000	00000013	addi	x0,x0,0	  x0:0x00000000
        4735000	       472	80000328	00000013	addi	x0,x0,0	  x0:0x00000000
        4745000	       473	8000032c	fb9ff0ef	jal	x1,8000032c	  x1=0x8000032c
        4755000	       474	00000000	00000013	addi	x0,x0,0	  x0:0x00000000
        4765000	       475	800002e0	00000013	addi	x0,x0,0	  x0:0x00000000
        4775000	       476	800002e4	04c000ef	jal	x1,800002e4	  x1=0x800002e4
        4785000	       477	00000000	00000013	addi	x0,x0,0	  x0:0x00000000
        4795000	       478	8000032c	00000013	addi	x0,x0,0	  x0:0x00000000
        4805000	       479	80000330	ff1ff0ef	jal	x1,80000330	  x1=0x80000330
        4815000	       480	00000000	00000013	addi	x0,x0,0	  x0:0x00000000
        4825000	       481	8000031c	00000013	addi	x0,x0,0	  x0:0x00000000
        4835000	       482	80000320	008001ef	jal	x3,80000320	  x3=0x80000320
        4845000	       483	00000000	00000013	addi	x0,x0,0	  x0:0x00000000
        4855000	       484	80000324	00000013	addi	x0,x0,0	  x0:0x00000000
        4865000	       485	80000328	020002ef	jal	x5,80000328	  x5=0x80000328
        4875000	       486	00000000	00000013	addi	x0,x0,0	  x0:0x00000000
        4885000	       487	80000344	00000013	addi	x0,x0,0	  x0:0x00000000
        4895000	       488	80000348	015960b3	or	x1,x18,x21	 x18:0x8000027c x21:0x80000080  x1=0x800002fc
        4905000	       489	8000034c	04c0036f	jal	x6,8000034c	  x6=0x8000034c
        4915000	       490	00000000	00000013	addi	x0,x0,0	  x0:0x00000000
        4925000	       491	80000394	00000013	addi	x0,x0,0	  x0:0x00000000
        4935000	       492	80000398	fddff36f	jal	x6,80000398	  x6=0x80000398
        4945000	       493	00000000	00000013	addi	x0,x0,0	  x0:0x00000000
        4955000	       494	80000370	00000013	addi	x0,x0,0	  x0:0x00000000
        4965000	       495	80000374	ff9ff9ef	jal	x19,80000374	 x19=0x80000374
        4975000	       496	00000000	00000013	addi	x0,x0,0	  x0:0x00000000
        4985000	       497	80000368	00000013	addi	x0,x0,0	  x0:0x00000000
        4995000	       498	8000036c	0180056f	jal	x10,8000036c	 x10=0x8000036c
        5005000	       499	00000000	00000013	addi	x0,x0,0	  x0:0x00000000
        5015000	       500	80000380	00000013	addi	x0,x0,0	  x0:0x00000000
        5025000	       501	80000384	ff9ff76f	jal	x14,80000384	 x14=0x80000384
        5035000	       502	00000000	00000013	addi	x0,x0,0	  x0:0x00000000
        5045000	       503	80000378	00000013	addi	x0,x0,0	  x0:0x00000000
        5055000	       504	8000037c	fe5ff0ef	jal	x1,8000037c	  x1=0x8000037c
        5065000	       505	00000000	00000013	addi	x0,x0,0	  x0:0x00000000
        5075000	       506	8000035c	00000013	addi	x0,x0,0	  x0:0x00000000
        5085000	       507	80000360	ffdff36f	jal	x6,80000360	  x6=0x80000360
        5095000	       508	00000000	00000013	addi	x0,x0,0	  x0:0x00000000
        5105000	       509	80000358	00000013	addi	x0,x0,0	  x0:0x00000000
        5115000	       510	8000035c	01c001ef	jal	x3,8000035c	  x3=0x8000035c
        5125000	       511	00000000	00000013	addi	x0,x0,0	  x0:0x00000000
        5135000	       512	80000374	00000013	addi	x0,x0,0	  x0:0x00000000
        5145000	       513	80000378	0300026f	jal	x4,80000378	  x4=0x80000378
        5155000	       514	00000000	00000013	addi	x0,x0,0	  x0:0x00000000
        5165000	       515	800003a4	00000013	addi	x0,x0,0	  x0:0x00000000
        5175000	       516	800003a8	fe5ff96f	jal	x18,800003a8	 x18=0x800003a8
        5185000	       517	00000000	00000013	addi	x0,x0,0	  x0:0x00000000
        5195000	       518	80000388	00000013	addi	x0,x0,0	  x0:0x00000000
        5205000	       519	8000038c	fe5ff0ef	jal	x1,8000038c	  x1=0x8000038c
        5215000	       520	00000000	00000013	addi	x0,x0,0	  x0:0x00000000
        5225000	       521	8000036c	00000013	addi	x0,x0,0	  x0:0x00000000
        5235000	       522	80000370	fe5ff36f	jal	x6,80000370	  x6=0x80000370
        5245000	       523	00000000	00000013	addi	x0,x0,0	  x0:0x00000000
        5255000	       524	80000350	00000013	addi	x0,x0,0	  x0:0x00000000
        5265000	       525	80000354	04c000ef	jal	x1,80000354	  x1=0x80000354
        5275000	       526	00000000	00000013	addi	x0,x0,0	  x0:0x00000000
        5285000	       527	8000039c	00000013	addi	x0,x0,0	  x0:0x00000000
        5295000	       528	800003a0	fe9ff0ef	jal	x1,800003a0	  x1=0x800003a0
        5305000	       529	00000000	00000013	addi	x0,x0,0	  x0:0x00000000
        5315000	       530	80000384	00000013	addi	x0,x0,0	  x0:0x00000000
        5325000	       531	80000388	ff9ff0ef	jal	x1,80000388	  x1=0x80000388
        5335000	       532	00000000	00000013	addi	x0,x0,0	  x0:0x00000000
        5345000	       533	8000037c	00000013	addi	x0,x0,0	  x0:0x00000000
        5355000	       534	80000380	fe5ff0ef	jal	x1,80000380	  x1=0x80000380
        5365000	       535	00000000	00000013	addi	x0,x0,0	  x0:0x00000000
        5375000	       536	80000360	00000013	addi	x0,x0,0	  x0:0x00000000
        5385000	       537	80000364	038000ef	jal	x1,80000364	  x1=0x80000364
        5395000	       538	00000000	00000013	addi	x0,x0,0	  x0:0x00000000
        5405000	       539	80000398	00000013	addi	x0,x0,0	  x0:0x00000000
        5415000	       540	8000039c	0100036f	jal	x6,8000039c	  x6=0x8000039c
        5425000	       541	00000000	00000013	addi	x0,x0,0	  x0:0x00000000
        5435000	       542	800003a8	00000013	addi	x0,x0,0	  x0:0x00000000
        5445000	       543	800003ac	fe5ff0ef	jal	x1,800003ac	  x1=0x800003ac
        5455000	       544	00000000	00000013	addi	x0,x0,0	  x0:0x00000000
        5465000	       545	8000038c	00000013	addi	x0,x0,0	  x0:0x00000000
        5475000	       546	80000390	01400eef	jal	x29,80000390	 x29=0x80000390
        5485000	       547	00000000	00000013	addi	x0,x0,0	  x0:0x00000000
        5495000	       548	800003a0	00000013	addi	x0,x0,0	  x0:0x00000000
        5505000	       549	800003a4	fb5ff0ef	jal	x1,800003a4	  x1=0x800003a4
        5515000	       550	00000000	00000013	addi	x0,x0,0	  x0:0x00000000
        5525000	       551	80000354	00000013	addi	x0,x0,0	  x0:0x00000000
        5535000	       552	80000358	010000ef	jal	x1,80000358	  x1=0x80000358
        5545000	       553	00000000	00000013	addi	x0,x0,0	  x0:0x00000000
        5555000	       554	80000364	00000013	addi	x0,x0,0	  x0:0x00000000
        5565000	       555	80000368	fe9ff36f	jal	x6,80000368	  x6=0x80000368
        5575000	       556	00000000	00000013	addi	x0,x0,0	  x0:0x00000000
        5585000	       557	8000034c	00000013	addi	x0,x0,0	  x0:0x00000000
        5595000	       558	80000350	044003ef	jal	x7,80000350	  x7=0x80000350
        5605000	       559	00000000	00000013	addi	x0,x0,0	  x0:0x00000000
        5615000	       560	80000390	00000013	addi	x0,x0,0	  x0:0x00000000
        5625000	       561	80000394	01c0036f	jal	x6,80000394	  x6=0x80000394
        5635000	       562	00000000	00000013	addi	x0,x0,0	  x0:0x00000000
        5645000	       563	800003ac	00000013	addi	x0,x0,0	  x0:0x00000000
        5655000	       564	800003b0	01ec1693	slli	x13,x24,0x1e	 x24:0x80000124 x13=0x00000000
        5665000	       565	800003b4	0300036f	jal	x6,800003b4	  x6=0x800003b4
        5675000	       566	00000000	00000013	addi	x0,x0,0	  x0:0x00000000
        5685000	       567	800003e0	00000013	addi	x0,x0,0	  x0:0x00000000
        5695000	       568	800003e4	004000ef	jal	x1,800003e4	  x1=0x800003e4
        5705000	       569	00000000	00000013	addi	x0,x0,0	  x0:0x00000000
        5715000	       570	800003e4	00000013	addi	x0,x0,0	  x0:0x00000000
        5725000	       571	800003e8	fe5ff36f	jal	x6,800003e8	  x6=0x800003e8
        5735000	       572	00000000	00000013	addi	x0,x0,0	  x0:0x00000000
        5745000	       573	800003c8	00000013	addi	x0,x0,0	  x0:0x00000000
        5755000	       574	800003cc	01400eef	jal	x29,800003cc	 x29=0x800003cc
        5765000	       575	00000000	00000013	addi	x0,x0,0	  x0:0x00000000
        5775000	       576	800003dc	00000013	addi	x0,x0,0	  x0:0x00000000
        5785000	       577	800003e0	ff9ff66f	jal	x12,800003e0	 x12=0x800003e0
        5795000	       578	00000000	00000013	addi	x0,x0,0	  x0:0x00000000
        5805000	       579	800003d4	00000013	addi	x0,x0,0	  x0:0x00000000
        5815000	       580	800003d8	fe5ff0ef	jal	x1,800003d8	  x1=0x800003d8
        5825000	       581	00000000	00000013	addi	x0,x0,0	  x0:0x00000000
        5835000	       582	800003b8	00000013	addi	x0,x0,0	  x0:0x00000000
        5845000	       583	800003bc	0140026f	jal	x4,800003bc	  x4=0x800003bc
        5855000	       584	00000000	00000013	addi	x0,x0,0	  x0:0x00000000
        5865000	       585	800003cc	00000013	addi	x0,x0,0	  x0:0x00000000
        5875000	       586	800003d0	ff9ff36f	jal	x6,800003d0	  x6=0x800003d0
        5885000	       587	00000000	00000013	addi	x0,x0,0	  x0:0x00000000
        5895000	       588	800003c4	00000013	addi	x0,x0,0	  x0:0x00000000
        5905000	       589	800003c8	ffdffaef	jal	x21,800003c8	 x21=0x800003c8
        5915000	       590	00000000	00000013	addi	x0,x0,0	  x0:0x00000000
        5925000	       591	800003c0	00000013	addi	x0,x0,0	  x0:0x00000000
        5935000	       592	800003c4	010000ef	jal	x1,800003c4	  x1=0x800003c4
        5945000	       593	00000000	00000013	addi	x0,x0,0	  x0:0x00000000
        5955000	       594	800003d0	00000013	addi	x0,x0,0	  x0:0x00000000
        5965000	       595	800003d4	008000ef	jal	x1,800003d4	  x1=0x800003d4
        5975000	       596	00000000	00000013	addi	x0,x0,0	  x0:0x00000000
        5985000	       597	800003d8	00000013	addi	x0,x0,0	  x0:0x00000000
        5995000	       598	800003dc	fe5ff0ef	jal	x1,800003dc	  x1=0x800003dc
        6005000	       599	00000000	00000013	addi	x0,x0,0	  x0:0x00000000
        6015000	       600	800003bc	00000013	addi	x0,x0,0	  x0:0x00000000
        6025000	       601	800003c0	ff9ff0ef	jal	x1,800003c0	  x1=0x800003c0
        6035000	       602	00000000	00000013	addi	x0,x0,0	  x0:0x00000000
        6045000	       603	800003b4	00000013	addi	x0,x0,0	  x0:0x00000000
        6055000	       604	800003b8	034000ef	jal	x1,800003b8	  x1=0x800003b8
        6065000	       605	00000000	00000013	addi	x0,x0,0	  x0:0x00000000
        6075000	       606	800003e8	00000013	addi	x0,x0,0	  x0:0x00000000
        6085000	       607	800003ec	e8ec7b13	andi	x22,x24,-370	 x24:0x80000124 x22=0x80000004
        6095000	       608	800003f0	0180036f	jal	x6,800003f0	  x6=0x800003f0
        6105000	       609	00000000	00000013	addi	x0,x0,0	  x0:0x00000000
        6115000	       610	80000404	00000013	addi	x0,x0,0	  x0:0x00000000
        6125000	       611	80000408	008006ef	jal	x13,80000408	 x13=0x80000408
        6135000	       612	00000000	00000013	addi	x0,x0,0	  x0:0x00000000
        6145000	       613	8000040c	00000013	addi	x0,x0,0	  x0:0x00000000
        6155000	       614	80000410	00c006ef	jal	x13,80000410	 x13=0x80000410
        6165000	       615	00000000	00000013	addi	x0,x0,0	  x0:0x00000000
        6175000	       616	80000418	00000013	addi	x0,x0,0	  x0:0x00000000
        6185000	       617	8000041c	00c0036f	jal	x6,8000041c	  x6=0x8000041c
        6195000	       618	00000000	00000013	addi	x0,x0,0	  x0:0x00000000
        6205000	       619	80000424	00000013	addi	x0,x0,0	  x0:0x00000000
        6215000	       620	80000428	ffdffe6f	jal	x28,80000428	 x28=0x80000428
        6225000	       621	00000000	00000013	addi	x0,x0,0	  x0:0x00000000
        6235000	       622	80000420	00000013	addi	x0,x0,0	  x0:0x00000000
        6245000	       623	80000424	ff1ff0ef	jal	x1,80000424	  x1=0x80000424
        6255000	       624	00000000	00000013	addi	x0,x0,0	  x0:0x00000000
        6265000	       625	80000410	00000013	addi	x0,x0,0	  x0:0x00000000
        6275000	       626	80000414	01c000ef	jal	x1,80000414	  x1=0x80000414
        6285000	       627	00000000	00000013	addi	x0,x0,0	  x0:0x00000000
        6295000	       628	8000042c	00000013	addi	x0,x0,0	  x0:0x00000000
        6305000	       629	80000430	fd5ff0ef	jal	x1,80000430	  x1=0x80000430
        6315000	       630	00000000	00000013	addi	x0,x0,0	  x0:0x00000000
        6325000	       631	80000400	00000013	addi	x0,x0,0	  x0:0x00000000
        6335000	       632	80000404	ff5ff0ef	jal	x1,80000404	  x1=0x80000404
        6345000	       633	00000000	00000013	addi	x0,x0,0	  x0:0x00000000
        6355000	       634	800003f4	00000013	addi	x0,x0,0	  x0:0x00000000
        6365000	       635	800003f8	03c0036f	jal	x6,800003f8	  x6=0x800003f8
        6375000	       636	00000000	00000013	addi	x0,x0,0	  x0:0x00000000
        6385000	       637	80000430	00000013	addi	x0,x0,0	  x0:0x00000000
        6395000	       638	80000434	fcdff0ef	jal	x1,80000434	  x1=0x80000434
        6405000	       639	00000000	00000013	addi	x0,x0,0	  x0:0x00000000
        6415000	       640	800003fc	00000013	addi	x0,x0,0	  x0:0x00000000
        6425000	       641	80000400	ff5ff0ef	jal	x1,80000400	  x1=0x80000400
        6435000	       642	00000000	00000013	addi	x0,x0,0	  x0:0x00000000
        6445000	       643	800003f0	00000013	addi	x0,x0,0	  x0:0x00000000
        6455000	       644	800003f4	03800cef	jal	x25,800003f4	 x25=0x800003f4
        6465000	       645	00000000	00000013	addi	x0,x0,0	  x0:0x00000000
        6475000	       646	80000428	00000013	addi	x0,x0,0	  x0:0x00000000
        6485000	       647	8000042c	fedff0ef	jal	x1,8000042c	  x1=0x8000042c
        6495000	       648	00000000	00000013	addi	x0,x0,0	  x0:0x00000000
        6505000	       649	80000414	00000013	addi	x0,x0,0	  x0:0x00000000
        6515000	       650	80000418	020000ef	jal	x1,80000418	  x1=0x80000418
        6525000	       651	00000000	00000013	addi	x0,x0,0	  x0:0x00000000
        6535000	       652	80000434	00000013	addi	x0,x0,0	  x0:0x00000000
        6545000	       653	80000438	fd5ff36f	jal	x6,80000438	  x6=0x80000438
        6555000	       654	00000000	00000013	addi	x0,x0,0	  x0:0x00000000
        6565000	       655	80000408	00000013	addi	x0,x0,0	  x0:0x00000000
        6575000	       656	8000040c	030008ef	jal	x17,8000040c	 x17=0x8000040c
        6585000	       657	00000000	00000013	addi	x0,x0,0	  x0:0x00000000
        6595000	       658	80000438	00000013	addi	x0,x0,0	  x0:0x00000000
        6605000	       659	8000043c	fc1ff36f	jal	x6,8000043c	  x6=0x8000043c
        6615000	       660	00000000	00000013	addi	x0,x0,0	  x0:0x00000000
        6625000	       661	800003f8	00000013	addi	x0,x0,0	  x0:0x00000000
        6635000	       662	800003fc	024000ef	jal	x1,800003fc	  x1=0x800003fc
        6645000	       663	00000000	00000013	addi	x0,x0,0	  x0:0x00000000
        6655000	       664	8000041c	00000013	addi	x0,x0,0	  x0:0x00000000
        6665000	       665	80000420	020000ef	jal	x1,80000420	  x1=0x80000420
        6675000	       666	00000000	00000013	addi	x0,x0,0	  x0:0x00000000
        6685000	       667	8000043c	00000013	addi	x0,x0,0	  x0:0x00000000
        6695000	       668	80000440	0138cbb3	xor	x23,x17,x19	 x17:0x8000040c x19:0x80000374 x23=0x00000778
        6705000	       669	80000444	0340036f	jal	x6,80000444	  x6=0x80000444
        6715000	       670	00000000	00000013	addi	x0,x0,0	  x0:0x00000000
        6725000	       671	80000474	00000013	addi	x0,x0,0	  x0:0x00000000
        6735000	       672	80000478	ff5ff5ef	jal	x11,80000478	 x11=0x80000478
        6745000	       673	00000000	00000013	addi	x0,x0,0	  x0:0x00000000
        6755000	       674	80000468	00000013	addi	x0,x0,0	  x0:0x00000000
        6765000	       675	8000046c	01c0036f	jal	x6,8000046c	  x6=0x8000046c
        6775000	       676	00000000	00000013	addi	x0,x0,0	  x0:0x00000000
        6785000	       677	80000484	00000013	addi	x0,x0,0	  x0:0x00000000
        6795000	       678	80000488	fe1ff3ef	jal	x7,80000488	  x7=0x80000488
        6805000	       679	00000000	00000013	addi	x0,x0,0	  x0:0x00000000
        6815000	       680	80000464	00000013	addi	x0,x0,0	  x0:0x00000000
        6825000	       681	80000468	fedff2ef	jal	x5,80000468	  x5=0x80000468
        6835000	       682	00000000	00000013	addi	x0,x0,0	  x0:0x00000000
        6845000	       683	80000450	00000013	addi	x0,x0,0	  x0:0x00000000
        6855000	       684	80000454	020000ef	jal	x1,80000454	  x1=0x80000454
        6865000	       685	00000000	00000013	addi	x0,x0,0	  x0:0x00000000
        6875000	       686	80000470	00000013	addi	x0,x0,0	  x0:0x00000000
        6885000	       687	80000474	fe5ff0ef	jal	x1,80000474	  x1=0x80000474
        6895000	       688	00000000	00000013	addi	x0,x0,0	  x0:0x00000000
        6905000	       689	80000454	00000013	addi	x0,x0,0	  x0:0x00000000
        6915000	       690	80000458	0280036f	jal	x6,80000458	  x6=0x80000458
        6925000	       691	00000000	00000013	addi	x0,x0,0	  x0:0x00000000
        6935000	       692	8000047c	00000013	addi	x0,x0,0	  x0:0x00000000
        6945000	       693	80000480	fd1ff2ef	jal	x5,80000480	  x5=0x80000480
        6955000	       694	00000000	00000013	addi	x0,x0,0	  x0:0x00000000
        6965000	       695	8000044c	00000013	addi	x0,x0,0	  x0:0x00000000
        6975000	       696	80000450	03400a6f	jal	x20,80000450	 x20=0x80000450
        6985000	       697	00000000	00000013	addi	x0,x0,0	  x0:0x00000000
        6995000	       698	80000480	00000013	addi	x0,x0,0	  x0:0x00000000
        7005000	       699	80000484	fd9ff0ef	jal	x1,80000484	  x1=0x80000484
        7015000	       700	00000000	00000013	addi	x0,x0,0	  x0:0x00000000
        7025000	       701	80000458	00000013	addi	x0,x0,0	  x0:0x00000000
        7035000	       702	8000045c	0140036f	jal	x6,8000045c	  x6=0x8000045c
        7045000	       703	00000000	00000013	addi	x0,x0,0	  x0:0x00000000
        7055000	       704	8000046c	00000013	addi	x0,x0,0	  x0:0x00000000
        7065000	       705	80000470	00c000ef	jal	x1,80000470	  x1=0x80000470
        7075000	       706	00000000	00000013	addi	x0,x0,0	  x0:0x00000000
        7085000	       707	80000478	00000013	addi	x0,x0,0	  x0:0x00000000
        7095000	       708	8000047c	fe5ff0ef	jal	x1,8000047c	  x1=0x8000047c
        7105000	       709	00000000	00000013	addi	x0,x0,0	  x0:0x00000000
        7115000	       710	8000045c	00000013	addi	x0,x0,0	  x0:0x00000000
        7125000	       711	80000460	02c0036f	jal	x6,80000460	  x6=0x80000460
        7135000	       712	00000000	00000013	addi	x0,x0,0	  x0:0x00000000
        7145000	       713	80000488	00000013	addi	x0,x0,0	  x0:0x00000000
        7155000	       714	8000048c	fc1ffe6f	jal	x28,8000048c	 x28=0x8000048c
        7165000	       715	00000000	00000013	addi	x0,x0,0	  x0:0x00000000
        7175000	       716	80000448	00000013	addi	x0,x0,0	  x0:0x00000000
        7185000	       717	8000044c	ffdff0ef	jal	x1,8000044c	  x1=0x8000044c
        7195000	       718	00000000	00000013	addi	x0,x0,0	  x0:0x00000000
        7205000	       719	80000444	00000013	addi	x0,x0,0	  x0:0x00000000
        7215000	       720	80000448	01c00f6f	jal	x30,80000448	 x30=0x80000448
        7225000	       721	00000000	00000013	addi	x0,x0,0	  x0:0x00000000
        7235000	       722	80000460	00000013	addi	x0,x0,0	  x0:0x00000000
        7245000	       723	80000464	02c000ef	jal	x1,80000464	  x1=0x80000464
        7255000	       724	00000000	00000013	addi	x0,x0,0	  x0:0x00000000
        7265000	       725	8000048c	00000013	addi	x0,x0,0	  x0:0x00000000
        7275000	       726	80000490	004002ef	jal	x5,80000490	  x5=0x80000490
        7285000	       727	00000000	00000013	addi	x0,x0,0	  x0:0x00000000
        7295000	       728	80000490	00000013	addi	x0,x0,0	  x0:0x00000000
        7305000	       729	80000494	00303b33	sltu	x22,x0,x3	  x0:0x00000000  x3:0x8000035c x22=0x00000001
        7315000	       730	80000498	0400036f	jal	x6,80000498	  x6=0x80000498
        7325000	       731	00000000	00000013	addi	x0,x0,0	  x0:0x00000000
        7335000	       732	800004d4	00000013	addi	x0,x0,0	  x0:0x00000000
        7345000	       733	800004d8	ff5ff0ef	jal	x1,800004d8	  x1=0x800004d8
        7355000	       734	00000000	00000013	addi	x0,x0,0	  x0:0x00000000
        7365000	       735	800004c8	00000013	addi	x0,x0,0	  x0:0x00000000
        7375000	       736	800004cc	02800c6f	jal	x24,800004cc	 x24=0x800004cc
        7385000	       737	00000000	00000013	addi	x0,x0,0	  x0:0x00000000
        7395000	       738	800004f0	00000013	addi	x0,x0,0	  x0:0x00000000
        7405000	       739	800004f4	010000ef	jal	x1,800004f4	  x1=0x800004f4
        7415000	       740	00000000	00000013	addi	x0,x0,0	  x0:0x00000000
        7425000	       741	80000500	00000013	addi	x0,x0,0	  x0:0x00000000
        7435000	       742	80000504	fb9ff0ef	jal	x1,80000504	  x1=0x80000504
        7445000	       743	00000000	00000013	addi	x0,x0,0	  x0:0x00000000
        7455000	       744	800004b8	00000013	addi	x0,x0,0	  x0:0x00000000
        7465000	       745	800004bc	03c000ef	jal	x1,800004bc	  x1=0x800004bc
        7475000	       746	00000000	00000013	addi	x0,x0,0	  x0:0x00000000
        7485000	       747	800004f4	00000013	addi	x0,x0,0	  x0:0x00000000
        7495000	       748	800004f8	fcdff0ef	jal	x1,800004f8	  x1=0x800004f8
        7505000	       749	00000000	00000013	addi	x0,x0,0	  x0:0x00000000
        7515000	       750	800004c0	00000013	addi	x0,x0,0	  x0:0x00000000
        7525000	       751	800004c4	020006ef	jal	x13,800004c4	 x13=0x800004c4
        7535000	       752	00000000	00000013	addi	x0,x0,0	  x0:0x00000000
        7545000	       753	800004e0	00000013	addi	x0,x0,0	  x0:0x00000000
        7555000	       754	800004e4	fd5ff0ef	jal	x1,800004e4	  x1=0x800004e4
        7565000	       755	00000000	00000013	addi	x0,x0,0	  x0:0x00000000
        7575000	       756	800004b4	00000013	addi	x0,x0,0	  x0:0x00000000
        7585000	       757	800004b8	0440036f	jal	x6,800004b8	  x6=0x800004b8
        7595000	       758	00000000	00000013	addi	x0,x0,0	  x0:0x00000000
        7605000	       759	800004f8	00000013	addi	x0,x0,0	  x0:0x00000000
        7615000	       760	800004fc	fa5ff0ef	jal	x1,800004fc	  x1=0x800004fc
        7625000	       761	00000000	00000013	addi	x0,x0,0	  x0:0x00000000
        7635000	       762	8000049c	00000013	addi	x0,x0,0	  x0:0x00000000
        7645000	       763	800004a0	040000ef	jal	x1,800004a0	  x1=0x800004a0
        7655000	       764	00000000	00000013	addi	x0,x0,0	  x0:0x00000000
        7665000	       765	800004dc	00000013	addi	x0,x0,0	  x0:0x00000000
        7675000	       766	800004e0	ff5ff0ef	jal	x1,800004e0	  x1=0x800004e0
        7685000	       767	00000000	00000013	addi	x0,x0,0	  x0:0x00000000
        7695000	       768	800004d0	00000013	addi	x0,x0,0	  x0:0x00000000
        7705000	       769	800004d4	01c0046f	jal	x8,800004d4	  x8=0x800004d4
        7715000	       770	00000000	00000013	addi	x0,x0,0	  x0:0x00000000
        7725000	       771	800004ec	00000013	addi	x0,x0,0	  x0:0x00000000
        7735000	       772	800004f0	fadff36f	jal	x6,800004f0	  x6=0x800004f0
        7745000	       773	00000000	00000013	addi	x0,x0,0	  x0:0x00000000
        7755000	       774	80000498	00000013	addi	x0,x0,0	  x0:0x00000000
        7765000	       775	8000049c	00c000ef	jal	x1,8000049c	  x1=0x8000049c
        7775000	       776	00000000	00000013	addi	x0,x0,0	  x0:0x00000000
        7785000	       777	800004a4	00000013	addi	x0,x0,0	  x0:0x00000000
        7795000	       778	800004a8	0040026f	jal	x4,800004a8	  x4=0x800004a8
        7805000	       779	00000000	00000013	addi	x0,x0,0	  x0:0x00000000
        7815000	       780	800004a8	00000013	addi	x0,x0,0	  x0:0x00000000
        7825000	       781	800004ac	030000ef	jal	x1,800004ac	  x1=0x800004ac
        7835000	       782	00000000	00000013	addi	x0,x0,0	  x0:0x00000000
        7845000	       783	800004d8	00000013	addi	x0,x0,0	  x0:0x00000000
        7855000	       784	800004dc	fc9ff86f	jal	x16,800004dc	 x16=0x800004dc
        7865000	       785	00000000	00000013	addi	x0,x0,0	  x0:0x00000000
        7875000	       786	800004a0	00000013	addi	x0,x0,0	  x0:0x00000000
        7885000	       787	800004a4	048000ef	jal	x1,800004a4	  x1=0x800004a4
        7895000	       788	00000000	00000013	addi	x0,x0,0	  x0:0x00000000
        7905000	       789	800004e8	00000013	addi	x0,x0,0	  x0:0x00000000
        7915000	       790	800004ec	fc5ff36f	jal	x6,800004ec	  x6=0x800004ec
        7925000	       791	00000000	00000013	addi	x0,x0,0	  x0:0x00000000
        7935000	       792	800004ac	00000013	addi	x0,x0,0	  x0:0x00000000
        7945000	       793	800004b0	0200096f	jal	x18,800004b0	 x18=0x800004b0
        7955000	       794	00000000	00000013	addi	x0,x0,0	  x0:0x00000000
        7965000	       795	800004cc	00000013	addi	x0,x0,0	  x0:0x00000000
        7975000	       796	800004d0	018008ef	jal	x17,800004d0	 x17=0x800004d0
        7985000	       797	00000000	00000013	addi	x0,x0,0	  x0:0x00000000
        7995000	       798	800004e4	00000013	addi	x0,x0,0	  x0:0x00000000
        8005000	       799	800004e8	fd9ff36f	jal	x6,800004e8	  x6=0x800004e8
        8015000	       800	00000000	00000013	addi	x0,x0,0	  x0:0x00000000
        8025000	       801	800004bc	00000013	addi	x0,x0,0	  x0:0x00000000
        8035000	       802	800004c0	040000ef	jal	x1,800004c0	  x1=0x800004c0
        8045000	       803	00000000	00000013	addi	x0,x0,0	  x0:0x00000000
        8055000	       804	800004fc	00000013	addi	x0,x0,0	  x0:0x00000000
        8065000	       805	80000500	fc9ff0ef	jal	x1,80000500	  x1=0x80000500
        8075000	       806	00000000	00000013	addi	x0,x0,0	  x0:0x00000000
        8085000	       807	800004c4	00000013	addi	x0,x0,0	  x0:0x00000000
        8095000	       808	800004c8	fedff36f	jal	x6,800004c8	  x6=0x800004c8
        8105000	       809	00000000	00000013	addi	x0,x0,0	  x0:0x00000000
        8115000	       810	800004b0	00000013	addi	x0,x0,0	  x0:0x00000000
        8125000	       811	800004b4	054000ef	jal	x1,800004b4	  x1=0x800004b4
        8135000	       812	00000000	00000013	addi	x0,x0,0	  x0:0x00000000
        8145000	       813	80000504	00000013	addi	x0,x0,0	  x0:0x00000000
        8155000	       814	80000508	0070f733	and	x14,x1,x7	  x1:0x800004b4  x7:0x80000488 x14=0x80000480
        8165000	       815	8000050c	00c0036f	jal	x6,8000050c	  x6=0x8000050c
        8175000	       816	00000000	00000013	addi	x0,x0,0	  x0:0x00000000
        8185000	       817	80000514	00000013	addi	x0,x0,0	  x0:0x00000000
        8195000	       818	80000518	0180026f	jal	x4,80000518	  x4=0x80000518
        8205000	       819	00000000	00000013	addi	x0,x0,0	  x0:0x00000000
        8215000	       820	8000052c	00000013	addi	x0,x0,0	  x0:0x00000000
        8225000	       821	80000530	0100036f	jal	x6,80000530	  x6=0x80000530
        8235000	       822	00000000	00000013	addi	x0,x0,0	  x0:0x00000000
        8245000	       823	8000053c	00000013	addi	x0,x0,0	  x0:0x00000000
        8255000	       824	80000540	fe5ffcef	jal	x25,80000540	 x25=0x80000540
        8265000	       825	00000000	00000013	addi	x0,x0,0	  x0:0x00000000
        8275000	       826	80000520	00000013	addi	x0,x0,0	  x0:0x00000000
        8285000	       827	80000524	014000ef	jal	x1,80000524	  x1=0x80000524
        8295000	       828	00000000	00000013	addi	x0,x0,0	  x0:0x00000000
        8305000	       829	80000534	00000013	addi	x0,x0,0	  x0:0x00000000
        8315000	       830	80000538	018004ef	jal	x9,80000538	  x9=0x80000538
        8325000	       831	00000000	00000013	addi	x0,x0,0	  x0:0x00000000
        8335000	       832	8000054c	00000013	addi	x0,x0,0	  x0:0x00000000
        8345000	       833	80000550	fedff0ef	jal	x1,80000550	  x1=0x80000550
        8355000	       834	00000000	00000013	addi	x0,x0,0	  x0:0x00000000
        8365000	       835	80000538	00000013	addi	x0,x0,0	  x0:0x00000000
        8375000	       836	8000053c	fe1ff8ef	jal	x17,8000053c	 x17=0x8000053c
        8385000	       837	00000000	00000013	addi	x0,x0,0	  x0:0x00000000
        8395000	       838	80000518	00000013	addi	x0,x0,0	  x0:0x00000000
        8405000	       839	8000051c	0280036f	jal	x6,8000051c	  x6=0x8000051c
        8415000	       840	00000000	00000013	addi	x0,x0,0	  x0:0x00000000
        8425000	       841	80000540	00000013	addi	x0,x0,0	  x0:0x00000000
        8435000	       842	80000544	fe9ff0ef	jal	x1,80000544	  x1=0x80000544
        8445000	       843	00000000	00000013	addi	x0,x0,0	  x0:0x00000000
        8455000	       844	80000528	00000013	addi	x0,x0,0	  x0:0x00000000
        8465000	       845	8000052c	ffdff0ef	jal	x1,8000052c	  x1=0x8000052c
        8475000	       846	00000000	00000013	addi	x0,x0,0	  x0:0x00000000
        8485000	       847	80000524	00000013	addi	x0,x0,0	  x0:0x00000000
        8495000	       848	80000528	fedff36f	jal	x6,80000528	  x6=0x80000528
        8505000	       849	00000000	00000013	addi	x0,x0,0	  x0:0x00000000
        8515000	       850	80000510	00000013	addi	x0,x0,0	  x0:0x00000000
        8525000	       851	80000514	00c000ef	jal	x1,80000514	  x1=0x80000514
        8535000	       852	00000000	00000013	addi	x0,x0,0	  x0:0x00000000
        8545000	       853	8000051c	00000013	addi	x0,x0,0	  x0:0x00000000
        8555000	       854	80000520	028000ef	jal	x1,80000520	  x1=0x80000520
        8565000	       855	00000000	00000013	addi	x0,x0,0	  x0:0x00000000
        8575000	       856	80000544	00000013	addi	x0,x0,0	  x0:0x00000000
        8585000	       857	80000548	0100026f	jal	x4,80000548	  x4=0x80000548
        8595000	       858	00000000	00000013	addi	x0,x0,0	  x0:0x00000000
        8605000	       859	80000554	00000013	addi	x0,x0,0	  x0:0x00000000
        8615000	       860	80000558	ff5ff36f	jal	x6,80000558	  x6=0x80000558
        8625000	       861	00000000	00000013	addi	x0,x0,0	  x0:0x00000000
        8635000	       862	80000548	00000013	addi	x0,x0,0	  x0:0x00000000
        8645000	       863	8000054c	0080036f	jal	x6,8000054c	  x6=0x8000054c
        8655000	       864	00000000	00000013	addi	x0,x0,0	  x0:0x00000000
        8665000	       865	80000550	00000013	addi	x0,x0,0	  x0:0x00000000
        8675000	       866	80000554	fbdff36f	jal	x6,80000554	  x6=0x80000554
        8685000	       867	00000000	00000013	addi	x0,x0,0	  x0:0x00000000
        8695000	       868	8000050c	00000013	addi	x0,x0,0	  x0:0x00000000
        8705000	       869	80000510	02400bef	jal	x23,80000510	 x23=0x80000510
        8715000	       870	00000000	00000013	addi	x0,x0,0	  x0:0x00000000
        8725000	       871	80000530	00000013	addi	x0,x0,0	  x0:0x00000000
        8735000	       872	80000534	028001ef	jal	x3,80000534	  x3=0x80000534
        8745000	       873	00000000	00000013	addi	x0,x0,0	  x0:0x00000000
        8755000	       874	80000558	00000013	addi	x0,x0,0	  x0:0x00000000
        8765000	       875	8000055c	01060c33	add	x24,x12,x16	 x12:0x800003e0 x16:0x800004dc x24=0x000008bc
        8775000	       876	80000560	9d9f6013	ori	x0,x30,-1575	 x30:0x80000448
        8785000	       877	80000564	01516e33	or	x28,x2,x21	  x2:0x00000000 x21:0x800003c8 x28=0x800003c8
        8795000	       878	80000568	417007b3	sub	x15,x0,x23	  x0:0x00000000 x23:0x80000510 x15=0x7ffffaf0
        8805000	       879	8000056c	54f53bb7	lui	x23,0x54f53	 x23=0x54f53000
        8815000	       880	80000570	03469463	bne	x13,x20,80000598	 x13:0x800004c4 x20:0x80000450
        8825000	       881	00000000	00000013	addi	x0,x0,0	  x0:0x00000000
        8835000	       882	80000594	00000013	addi	x0,x0,0	  x0:0x00000000
        8845000	       883	80000598	01d20c33	add	x24,x4,x29	  x4:0x80000548 x29:0x800003cc x24=0x00000914
        8855000	       884	8000059c	00401c93	slli	x25,x0,0x4	  x0:0x00000000 x25=0x00000000
        8865000	       885	800005a0	233a0b13	addi	x22,x20,563	 x20:0x80000450 x22=0x80000683
        8875000	       886	800005a4	02261e63	bne	x12,x2,800005e0	 x12:0x800003e0  x2:0x00000000
        8885000	       887	00000000	00000013	addi	x0,x0,0	  x0:0x00000000
        8895000	       888	800005dc	00000013	addi	x0,x0,0	  x0:0x00000000
        8905000	       889	800005e0	00cfdc33	srl	x24,x31,x12	 x31:0x80000324 x12:0x800003e0 x24=0x80000324
        8915000	       890	800005e4	f66aab93	slti	x23,x21,-154	 x21:0x800003c8 x23=0x00000001
        8925000	       891	800005e8	05f24863	blt	x4,x31,80000638	  x4:0x80000548 x31:0x80000324
        8935000	       892	800005ec	0049aab3	slt	x21,x19,x4	 x19:0x80000374  x4:0x80000548 x21=0x00000001
        8945000	       893	800005f0	01a04463	blt	x0,x26,800005f8	  x0:0x00000000 x26:0x80009fc4
        8955000	       894	800005f4	0eb7a913	slti	x18,x15,235	 x15:0x7ffffaf0 x18=0x00000000
        8965000	       895	800005f8	02289663	bne	x17,x2,80000624	 x17:0x8000053c  x2:0x00000000
        8975000	       896	00000000	00000013	addi	x0,x0,0	  x0:0x00000000
        8985000	       897	80000620	00000013	addi	x0,x0,0	  x0:0x00000000
        8995000	       898	80000624	00348463	beq	x9,x3,8000062c	  x9:0x80000538  x3:0x80000534
        9005000	       899	80000628	00488863	beq	x17,x4,80000638	 x17:0x8000053c  x4:0x80000548
        9015000	       900	8000062c	419858b3	sra	x17,x16,x25	 x16:0x800004dc x25:0x00000000 x17=0x800004dc
        9025000	       901	80000630	011b2033	slt	x0,x22,x17	 x22:0x80000683 x17:0x800004dc
        9035000	       902	80000634	01819a33	sll	x20,x3,x24	  x3:0x80000534 x24:0x80000324 x20=0x00005340
        9045000	       903	80000638	a6cce293	ori	x5,x25,-1428	 x25:0x00000000  x5=0xfffffa6c
        9055000	       904	8000063c	f5754597	auipc	x11,0xf5754	 x11=0x75754638
        9065000	       905	80000640	cdec4c93	xori	x25,x24,-802	 x24:0x80000324 x25=0x7ffffffa
        9075000	       906	80000644	017f49b3	xor	x19,x30,x23	 x30:0x80000448 x23:0x00000001 x19=0x80000449
        9085000	       907	80000648	016f83b3	add	x7,x31,x22	 x31:0x80000324 x22:0x80000683  x7=0x000009a7
        9095000	       908	8000064c	af010893	addi	x17,x2,-1296	  x2:0x00000000 x17=0xfffffaf0
        9105000	       909	80000650	7241bb97	auipc	x23,0x7241b	 x23=0xf241b64c
        9115000	       910	80000654	bedf7593	andi	x11,x30,-1043	 x30:0x80000448 x11=0x80000048
        9125000	       911	80000658	0228c263	blt	x17,x2,8000067c	 x17:0xfffffaf0  x2:0x00000000
        9135000	       912	00000000	00000013	addi	x0,x0,0	  x0:0x00000000
        9145000	       913	80000678	00000013	addi	x0,x0,0	  x0:0x00000000
        9155000	       914	8000067c	03f09a63	bne	x1,x31,800006b0	  x1:0x80000520 x31:0x80000324
        9165000	       915	00000000	00000013	addi	x0,x0,0	  x0:0x00000000
        9175000	       916	800006ac	00000013	addi	x0,x0,0	  x0:0x00000000
        9185000	       917	800006b0	01d393b3	sll	x7,x7,x29	  x7:0x000009a7 x29:0x800003cc  x7=0x009a7000
        9195000	       918	800006b4	942aa193	slti	x3,x21,-1726	 x21:0x00000001  x3=0x00000000
        9205000	       919	800006b8	00ee30b3	sltu	x1,x28,x14	 x28:0x800003c8 x14:0x80000480  x1=0x00000001
        9215000	       920	800006bc	000f1393	slli	x7,x30,0x0	 x30:0x80000448  x7=0x80000448
        9225000	       921	800006c0	4006de33	sra	x28,x13,x0	 x13:0x800004c4  x0:0x00000000 x28=0x800004c4
        9235000	       922	800006c4	01cd01b3	add	x3,x26,x28	 x26:0x80009fc4 x28:0x800004c4  x3=0x0000a488
        9245000	       923	800006c8	003bcfb3	xor	x31,x23,x3	 x23:0xf241b64c  x3:0x0000a488 x31=0xf24112c4
        9255000	       924	800006cc	0079a433	slt	x8,x19,x7	 x19:0x80000449  x7:0x80000448  x8=0x00000000
        9265000	       925	800006d0	91c60c13	addi	x24,x12,-1764	 x12:0x800003e0 x24=0x7ffffcfc
        9275000	       926	800006d4	77634a13	xori	x20,x6,1910	  x6:0x80000554 x20=0x80000222
        9285000	       927	800006d8	151db193	sltiu	x3,x27,337	 x27:0x80009f84  x3=0x00000000
        9295000	       928	800006dc	2e1c7293	andi	x5,x24,737	 x24:0x7ffffcfc  x5=0x000000e0
        9305000	       929	800006e0	0223fa63	bgeu	x7,x2,80000714	  x7:0x80000448  x2:0x00000000
        9315000	       930	00000000	00000013	addi	x0,x0,0	  x0:0x00000000
        9325000	       931	80000710	00000013	addi	x0,x0,0	  x0:0x00000000
        9335000	       932	80000714	01d6d213	srli	x4,x13,0x1d	 x13:0x800004c4  x4=0x00000004
        9345000	       933	80000718	e44f3493	sltiu	x9,x30,-444	 x30:0x80000448  x9=0x00000001
        9355000	       934	8000071c	1e4c0293	addi	x5,x24,484	 x24:0x7ffffcfc  x5=0x7ffffee0
        9365000	       935	80000720	07e27e63	bgeu	x4,x30,8000079c	  x4:0x00000004 x30:0x80000448
        9375000	       936	80000724	7795f893	andi	x17,x11,1913	 x11:0x80000048 x17=0x00000048
        9385000	       937	80000728	9f5934b7	lui	x9,0x9f593	  x9=0x9f593000
        9395000	       938	8000072c	00886263	bltu	x16,x8,80000730	 x16:0x800004dc  x8:0x00000000
        9405000	       939	80000730	01494fb3	xor	x31,x18,x20	 x18:0x00000000 x20:0x80000222 x31=0x80000222
        9415000	       940	80000734	41c00033	sub	x0,x0,x28	  x0:0x00000000 x28:0x800004c4
        9425000	       941	80000738	0949e063	bltu	x19,x20,800007b8	 x19:0x80000449 x20:0x80000222
        9435000	       942	8000073c	01181633	sll	x12,x16,x17	 x16:0x800004dc x17:0x00000048 x12=0x0004dc00
        9445000	       943	80000740	20846313	ori	x6,x8,520	  x8:0x00000000  x6=0x00000208
        9455000	       944	80000744	80e5a417	auipc	x8,0x80e5a	  x8=0x00e5a740
        9465000	       945	80000748	00001e17	auipc	x28,0x1	 x28=0x80001744
        9475000	       946	8000074c	b3ce0e13	addi	x28,x28,-1220	 x28:0x80001744 x28=0x80001280
        9485000	       947	80000750	0167da93	srli	x21,x15,0x16	 x15:0x7ffffaf0 x21=0x000001ff
        9495000	       948	80000754	016083b3	add	x7,x1,x22	  x1:0x00000001 x22:0x80000683  x7=0x80000684
        9505000	       949	80000758	ff5e0e13	addi	x28,x28,-11	 x28:0x80001280 x28=0x80001275
        9515000	       950	8000075c	41260033	sub	x0,x12,x18	 x12:0x0004dc00 x18:0x00000000
        9525000	       951	80000760	01d8a2b3	slt	x5,x17,x29	 x17:0x00000048 x29:0x800003cc  x5=0x00000000
        9535000	       952	80000764	6eebe493	ori	x9,x23,1774	 x23:0xf241b64c  x9=0xf241b6ee
        9545000	       953	80000768	f2192e93	slti	x29,x18,-223	 x18:0x00000000 x29=0x00000000
        9555000	       954	8000076c	00be0367	jalr	x6,x28,11	 x28:0x80001275  x6=0x8000076c
        9565000	       955	00000000	00000013	addi	x0,x0,0	  x0:0x00000000
        9575000	       956	80001280	00000013	addi	x0,x0,0	  x0:0x00000000
        9585000	       957	80001284	ff0d8d93	addi	x27,x27,-16	 x27:0x80009f84 x27=0x80009f74
        9595000	       958	80001288	014dca33	xor	x20,x27,x20	 x27:0x80009f74 x20:0x80000222 x20=0x00009d56
        9605000	       959	8000128c	608b5e97	auipc	x29,0x608b5	 x29=0xe08b6288
        9615000	       960	80001290	02e2ebb7	lui	x23,0x2e2e	 x23=0x02e2e000
        9625000	       961	80001294	39427c93	andi	x25,x4,916	  x4:0x00000004 x25=0x00000004
        9635000	       962	80001298	00551c33	sll	x24,x10,x5	 x10:0x8000036c  x5:0x00000000 x24=0x8000036c
        9645000	       963	8000129c	013596b3	sll	x13,x11,x19	 x11:0x80000048 x19:0x80000449 x13=0x00009000
        9655000	       964	800012a0	2a62b013	sltiu	x0,x5,678	  x5:0x00000000
        9665000	       965	800012a4	006da223	sw	x6,4(x27)	 x27:0x80009f74  x6:0x8000076c PA:0x80009f78
        9675000	       966	800012a8	72c57493	andi	x9,x10,1836	 x10:0x8000036c  x9=0x0000032c
        9685000	       967	800012ac	97db0293	addi	x5,x22,-1667	 x22:0x80000683  x5=0x80000000
        9695000	       968	800012b0	01f30c33	add	x24,x6,x31	  x6:0x8000076c x31:0x80000222 x24=0x0000098e
        9705000	       969	800012b4	0200036f	jal	x6,800012b4	  x6=0x800012b4
        9715000	       970	00000000	00000013	addi	x0,x0,0	  x0:0x00000000
        9725000	       971	800012d0	00000013	addi	x0,x0,0	  x0:0x00000000
        9735000	       972	800012d4	ffdff36f	jal	x6,800012d4	  x6=0x800012d4
        9745000	       973	00000000	00000013	addi	x0,x0,0	  x0:0x00000000
        9755000	       974	800012cc	00000013	addi	x0,x0,0	  x0:0x00000000
        9765000	       975	800012d0	01c0036f	jal	x6,800012d0	  x6=0x800012d0
        9775000	       976	00000000	00000013	addi	x0,x0,0	  x0:0x00000000
        9785000	       977	800012e8	00000013	addi	x0,x0,0	  x0:0x00000000
        9795000	       978	800012ec	fd5ff36f	jal	x6,800012ec	  x6=0x800012ec
        9805000	       979	00000000	00000013	addi	x0,x0,0	  x0:0x00000000
        9815000	       980	800012bc	00000013	addi	x0,x0,0	  x0:0x00000000
        9825000	       981	800012c0	034000ef	jal	x1,800012c0	  x1=0x800012c0
        9835000	       982	00000000	00000013	addi	x0,x0,0	  x0:0x00000000
        9845000	       983	800012f0	00000013	addi	x0,x0,0	  x0:0x00000000
        9855000	       984	800012f4	01c00aef	jal	x21,800012f4	 x21=0x800012f4
        9865000	       985	00000000	00000013	addi	x0,x0,0	  x0:0x00000000
        9875000	       986	8000130c	00000013	addi	x0,x0,0	  x0:0x00000000
        9885000	       987	80001310	ff1ff0ef	jal	x1,80001310	  x1=0x80001310
        9895000	       988	00000000	00000013	addi	x0,x0,0	  x0:0x00000000
        9905000	       989	800012fc	00000013	addi	x0,x0,0	  x0:0x00000000
        9915000	       990	80001300	fe1ff36f	jal	x6,80001300	  x6=0x80001300
        9925000	       991	00000000	00000013	addi	x0,x0,0	  x0:0x00000000
        9935000	       992	800012dc	00000013	addi	x0,x0,0	  x0:0x00000000
        9945000	       993	800012e0	fedff0ef	jal	x1,800012e0	  x1=0x800012e0
        9955000	       994	00000000	00000013	addi	x0,x0,0	  x0:0x00000000
        9965000	       995	800012c8	00000013	addi	x0,x0,0	  x0:0x00000000
        9975000	       996	800012cc	024000ef	jal	x1,800012cc	  x1=0x800012cc
        9985000	       997	00000000	00000013	addi	x0,x0,0	  x0:0x00000000
        9995000	       998	800012ec	00000013	addi	x0,x0,0	  x0:0x00000000
       10005000	       999	800012f0	008000ef	jal	x1,800012f0	  x1=0x800012f0
       10015000	      1000	00000000	00000013	addi	x0,x0,0	  x0:0x00000000
       10025000	      1001	800012f4	00000013	addi	x0,x0,0	  x0:0x00000000
       10035000	      1002	800012f8	ff1ff0ef	jal	x1,800012f8	  x1=0x800012f8
       10045000	      1003	00000000	00000013	addi	x0,x0,0	  x0:0x00000000
       10055000	      1004	800012e4	00000013	addi	x0,x0,0	  x0:0x00000000
       10065000	      1005	800012e8	ff5ff1ef	jal	x3,800012e8	  x3=0x800012e8
       10075000	      1006	00000000	00000013	addi	x0,x0,0	  x0:0x00000000
       10085000	      1007	800012d8	00000013	addi	x0,x0,0	  x0:0x00000000
       10095000	      1008	800012dc	fedff36f	jal	x6,800012dc	  x6=0x800012dc
       10105000	      1009	00000000	00000013	addi	x0,x0,0	  x0:0x00000000
       10115000	      1010	800012c4	00000013	addi	x0,x0,0	  x0:0x00000000
       10125000	      1011	800012c8	ffdff0ef	jal	x1,800012c8	  x1=0x800012c8
       10135000	      1012	00000000	00000013	addi	x0,x0,0	  x0:0x00000000
       10145000	      1013	800012c0	00000013	addi	x0,x0,0	  x0:0x00000000
       10155000	      1014	800012c4	044000ef	jal	x1,800012c4	  x1=0x800012c4
       10165000	      1015	00000000	00000013	addi	x0,x0,0	  x0:0x00000000
       10175000	      1016	80001304	00000013	addi	x0,x0,0	  x0:0x00000000
       10185000	      1017	80001308	fddff36f	jal	x6,80001308	  x6=0x80001308
       10195000	      1018	00000000	00000013	addi	x0,x0,0	  x0:0x00000000
       10205000	      1019	800012e0	00000013	addi	x0,x0,0	  x0:0x00000000
       10215000	      1020	800012e4	018000ef	jal	x1,800012e4	  x1=0x800012e4
       10225000	      1021	00000000	00000013	addi	x0,x0,0	  x0:0x00000000
       10235000	      1022	800012f8	00000013	addi	x0,x0,0	  x0:0x00000000
       10245000	      1023	800012fc	fbdffa6f	jal	x20,800012fc	 x20=0x800012fc
       10255000	      1024	00000000	00000013	addi	x0,x0,0	  x0:0x00000000
       10265000	      1025	800012b4	00000013	addi	x0,x0,0	  x0:0x00000000
       10275000	      1026	800012b8	054000ef	jal	x1,800012b8	  x1=0x800012b8
       10285000	      1027	00000000	00000013	addi	x0,x0,0	  x0:0x00000000
       10295000	      1028	80001308	00000013	addi	x0,x0,0	  x0:0x00000000
       10305000	      1029	8000130c	fcdff1ef	jal	x3,8000130c	  x3=0x8000130c
       10315000	      1030	00000000	00000013	addi	x0,x0,0	  x0:0x00000000
       10325000	      1031	800012d4	00000013	addi	x0,x0,0	  x0:0x00000000
       10335000	      1032	800012d8	02c000ef	jal	x1,800012d8	  x1=0x800012d8
       10345000	      1033	00000000	00000013	addi	x0,x0,0	  x0:0x00000000
       10355000	      1034	80001300	00000013	addi	x0,x0,0	  x0:0x00000000
       10365000	      1035	80001304	fb9ff56f	jal	x10,80001304	 x10=0x80001304
       10375000	      1036	00000000	00000013	addi	x0,x0,0	  x0:0x00000000
       10385000	      1037	800012b8	00000013	addi	x0,x0,0	  x0:0x00000000
       10395000	      1038	800012bc	058000ef	jal	x1,800012bc	  x1=0x800012bc
       10405000	      1039	00000000	00000013	addi	x0,x0,0	  x0:0x00000000
       10415000	      1040	80001310	00000013	addi	x0,x0,0	  x0:0x00000000
       10425000	      1041	80001314	b05e6713	ori	x14,x28,-1275	 x28:0x80001275 x14=0xfffffb75
       10435000	      1042	80001318	0280036f	jal	x6,80001318	  x6=0x80001318
       10445000	      1043	00000000	00000013	addi	x0,x0,0	  x0:0x00000000
       10455000	      1044	8000133c	00000013	addi	x0,x0,0	  x0:0x00000000
       10465000	      1045	80001340	00c000ef	jal	x1,80001340	  x1=0x80001340
       10475000	      1046	00000000	00000013	addi	x0,x0,0	  x0:0x00000000
       10485000	      1047	80001348	00000013	addi	x0,x0,0	  x0:0x00000000
       10495000	      1048	8000134c	fddff36f	jal	x6,8000134c	  x6=0x8000134c
       10505000	      1049	00000000	00000013	addi	x0,x0,0	  x0:0x00000000
       10515000	      1050	80001324	00000013	addi	x0,x0,0	  x0:0x00000000
       10525000	      1051	80001328	004000ef	jal	x1,80001328	  x1=0x80001328
       10535000	      1052	00000000	00000013	addi	x0,x0,0	  x0:0x00000000
       10545000	      1053	80001328	00000013	addi	x0,x0,0	  x0:0x00000000
       10555000	      1054	8000132c	008000ef	jal	x1,8000132c	  x1=0x8000132c
       10565000	      1055	00000000	00000013	addi	x0,x0,0	  x0:0x00000000
       10575000	      1056	80001330	00000013	addi	x0,x0,0	  x0:0x00000000
       10585000	      1057	80001334	004000ef	jal	x1,80001334	  x1=0x80001334
       10595000	      1058	00000000	00000013	addi	x0,x0,0	  x0:0x00000000
       10605000	      1059	80001334	00000013	addi	x0,x0,0	  x0:0x00000000
       10615000	      1060	80001338	fe9ff2ef	jal	x5,80001338	  x5=0x80001338
       10625000	      1061	00000000	00000013	addi	x0,x0,0	  x0:0x00000000
       10635000	      1062	8000131c	00000013	addi	x0,x0,0	  x0:0x00000000
       10645000	      1063	80001320	0280056f	jal	x10,80001320	 x10=0x80001320
       10655000	      1064	00000000	00000013	addi	x0,x0,0	  x0:0x00000000
       10665000	      1065	80001344	00000013	addi	x0,x0,0	  x0:0x00000000
       10675000	      1066	80001348	fd5ff26f	jal	x4,80001348	  x4=0x80001348
       10685000	      1067	00000000	00000013	addi	x0,x0,0	  x0:0x00000000
       10695000	      1068	80001318	00000013	addi	x0,x0,0	  x0:0x00000000
       10705000	      1069	8000131c	008000ef	jal	x1,8000131c	  x1=0x8000131c
       10715000	      1070	00000000	00000013	addi	x0,x0,0	  x0:0x00000000
       10725000	      1071	80001320	00000013	addi	x0,x0,0	  x0:0x00000000
       10735000	      1072	80001324	018000ef	jal	x1,80001324	  x1=0x80001324
       10745000	      1073	00000000	00000013	addi	x0,x0,0	  x0:0x00000000
       10755000	      1074	80001338	00000013	addi	x0,x0,0	  x0:0x00000000
       10765000	      1075	8000133c	ff5ff46f	jal	x8,8000133c	  x8=0x8000133c
       10775000	      1076	00000000	00000013	addi	x0,x0,0	  x0:0x00000000
       10785000	      1077	8000132c	00000013	addi	x0,x0,0	  x0:0x00000000
       10795000	      1078	80001330	0140066f	jal	x12,80001330	 x12=0x80001330
       10805000	      1079	00000000	00000013	addi	x0,x0,0	  x0:0x00000000
       10815000	      1080	80001340	00000013	addi	x0,x0,0	  x0:0x00000000
       10825000	      1081	80001344	00c001ef	jal	x3,80001344	  x3=0x80001344
       10835000	      1082	00000000	00000013	addi	x0,x0,0	  x0:0x00000000
       10845000	      1083	8000134c	00000013	addi	x0,x0,0	  x0:0x00000000
       10855000	      1084	80001350	17f17393	andi	x7,x2,383	  x2:0x00000000  x7=0x00000000
       10865000	      1085	80001354	0600036f	jal	x6,80001354	  x6=0x80001354
       10875000	      1086	00000000	00000013	addi	x0,x0,0	  x0:0x00000000
       10885000	      1087	800013b0	00000013	addi	x0,x0,0	  x0:0x00000000
       10895000	      1088	800013b4	fa9ff0ef	jal	x1,800013b4	  x1=0x800013b4
       10905000	      1089	00000000	00000013	addi	x0,x0,0	  x0:0x00000000
       10915000	      1090	80001358	00000013	addi	x0,x0,0	  x0:0x00000000
       10925000	      1091	8000135c	044002ef	jal	x5,8000135c	  x5=0x8000135c
       10935000	      1092	00000000	00000013	addi	x0,x0,0	  x0:0x00000000
       10945000	      1093	8000139c	00000013	addi	x0,x0,0	  x0:0x00000000
       10955000	      1094	800013a0	fb9ff0ef	jal	x1,800013a0	  x1=0x800013a0
       10965000	      1095	00000000	00000013	addi	x0,x0,0	  x0:0x00000000
       10975000	      1096	80001354	00000013	addi	x0,x0,0	  x0:0x00000000
       10985000	      1097	80001358	054000ef	jal	x1,80001358	  x1=0x80001358
       10995000	      1098	00000000	00000013	addi	x0,x0,0	  x0:0x00000000
       11005000	      1099	800013a8	00000013	addi	x0,x0,0	  x0:0x00000000
       11015000	      1100	800013ac	fcdff0ef	jal	x1,800013ac	  x1=0x800013ac
       11025000	      1101	00000000	00000013	addi	x0,x0,0	  x0:0x00000000
       11035000	      1102	80001374	00000013	addi	x0,x0,0	  x0:0x00000000
       11045000	      1103	80001378	ff1ff0ef	jal	x1,80001378	  x1=0x80001378
       11055000	      1104	00000000	00000013	addi	x0,x0,0	  x0:0x00000000
       11065000	      1105	80001364	00000013	addi	x0,x0,0	  x0:0x00000000
       11075000	      1106	80001368	028000ef	jal	x1,80001368	  x1=0x80001368
       11085000	      1107	00000000	00000013	addi	x0,x0,0	  x0:0x00000000
       11095000	      1108	8000138c	00000013	addi	x0,x0,0	  x0:0x00000000
       11105000	      1109	80001390	ff9ff0ef	jal	x1,80001390	  x1=0x80001390
       11115000	      1110	00000000	00000013	addi	x0,x0,0	  x0:0x00000000
       11125000	      1111	80001384	00000013	addi	x0,x0,0	  x0:0x00000000
       11135000	      1112	80001388	fddffb6f	jal	x22,80001388	 x22=0x80001388
       11145000	      1113	00000000	00000013	addi	x0,x0,0	  x0:0x00000000
       11155000	      1114	80001360	00000013	addi	x0,x0,0	  x0:0x00000000
       11165000	      1115	80001364	028000ef	jal	x1,80001364	  x1=0x80001364
       11175000	      1116	00000000	00000013	addi	x0,x0,0	  x0:0x00000000
       11185000	      1117	80001388	00000013	addi	x0,x0,0	  x0:0x00000000
       11195000	      1118	8000138c	ff5ff0ef	jal	x1,8000138c	  x1=0x8000138c
       11205000	      1119	00000000	00000013	addi	x0,x0,0	  x0:0x00000000
       11215000	      1120	8000137c	00000013	addi	x0,x0,0	  x0:0x00000000
       11225000	      1121	80001380	030000ef	jal	x1,80001380	  x1=0x80001380
       11235000	      1122	00000000	00000013	addi	x0,x0,0	  x0:0x00000000
       11245000	      1123	800013ac	00000013	addi	x0,x0,0	  x0:0x00000000
       11255000	      1124	800013b0	fd5ff0ef	jal	x1,800013b0	  x1=0x800013b0
       11265000	      1125	00000000	00000013	addi	x0,x0,0	  x0:0x00000000
       11275000	      1126	80001380	00000013	addi	x0,x0,0	  x0:0x00000000
       11285000	      1127	80001384	fe9ff0ef	jal	x1,80001384	  x1=0x80001384
       11295000	      1128	00000000	00000013	addi	x0,x0,0	  x0:0x00000000
       11305000	      1129	80001368	00000013	addi	x0,x0,0	  x0:0x00000000
       11315000	      1130	8000136c	02c001ef	jal	x3,8000136c	  x3=0x8000136c
       11325000	      1131	00000000	00000013	addi	x0,x0,0	  x0:0x00000000
       11335000	      1132	80001394	00000013	addi	x0,x0,0	  x0:0x00000000
       11345000	      1133	80001398	ffdff36f	jal	x6,80001398	  x6=0x80001398
       11355000	      1134	00000000	00000013	addi	x0,x0,0	  x0:0x00000000
       11365000	      1135	80001390	00000013	addi	x0,x0,0	  x0:0x00000000
       11375000	      1136	80001394	008000ef	jal	x1,80001394	  x1=0x80001394
       11385000	      1137	00000000	00000013	addi	x0,x0,0	  x0:0x00000000
       11395000	      1138	80001398	00000013	addi	x0,x0,0	  x0:0x00000000
       11405000	      1139	8000139c	fd5ff0ef	jal	x1,8000139c	  x1=0x8000139c
       11415000	      1140	00000000	00000013	addi	x0,x0,0	  x0:0x00000000
       11425000	      1141	8000136c	00000013	addi	x0,x0,0	  x0:0x00000000
       11435000	      1142	80001370	0040036f	jal	x6,80001370	  x6=0x80001370
       11445000	      1143	00000000	00000013	addi	x0,x0,0	  x0:0x00000000
       11455000	      1144	80001370	00000013	addi	x0,x0,0	  x0:0x00000000
       11465000	      1145	80001374	0080036f	jal	x6,80001374	  x6=0x80001374
       11475000	      1146	00000000	00000013	addi	x0,x0,0	  x0:0x00000000
       11485000	      1147	80001378	00000013	addi	x0,x0,0	  x0:0x00000000
       11495000	      1148	8000137c	fe5ff36f	jal	x6,8000137c	  x6=0x8000137c
       11505000	      1149	00000000	00000013	addi	x0,x0,0	  x0:0x00000000
       11515000	      1150	8000135c	00000013	addi	x0,x0,0	  x0:0x00000000
       11525000	      1151	80001360	0480036f	jal	x6,80001360	  x6=0x80001360
       11535000	      1152	00000000	00000013	addi	x0,x0,0	  x0:0x00000000
       11545000	      1153	800013a4	00000013	addi	x0,x0,0	  x0:0x00000000
       11555000	      1154	800013a8	ffdff0ef	jal	x1,800013a8	  x1=0x800013a8
       11565000	      1155	00000000	00000013	addi	x0,x0,0	  x0:0x00000000
       11575000	      1156	800013a0	00000013	addi	x0,x0,0	  x0:0x00000000
       11585000	      1157	800013a4	01400fef	jal	x31,800013a4	 x31=0x800013a4
       11595000	      1158	00000000	00000013	addi	x0,x0,0	  x0:0x00000000
       11605000	      1159	800013b4	00000013	addi	x0,x0,0	  x0:0x00000000
       11615000	      1160	800013b8	0172f5b3	and	x11,x5,x23	  x5:0x8000135c x23:0x02e2e000 x11=0x00000000
       11625000	      1161	800013bc	0600036f	jal	x6,800013bc	  x6=0x800013bc
       11635000	      1162	00000000	00000013	addi	x0,x0,0	  x0:0x00000000
       11645000	      1163	80001418	00000013	addi	x0,x0,0	  x0:0x00000000
       11655000	      1164	8000141c	fe1ff46f	jal	x8,8000141c	  x8=0x8000141c
       11665000	      1165	00000000	00000013	addi	x0,x0,0	  x0:0x00000000
       11675000	      1166	800013f8	00000013	addi	x0,x0,0	  x0:0x00000000
       11685000	      1167	800013fc	0180036f	jal	x6,800013fc	  x6=0x800013fc
       11695000	      1168	00000000	00000013	addi	x0,x0,0	  x0:0x00000000
       11705000	      1169	80001410	00000013	addi	x0,x0,0	  x0:0x00000000
       11715000	      1170	80001414	fd1fff6f	jal	x30,80001414	 x30=0x80001414
       11725000	      1171	00000000	00000013	addi	x0,x0,0	  x0:0x00000000
       11735000	      1172	800013e0	00000013	addi	x0,x0,0	  x0:0x00000000
       11745000	      1173	800013e4	ff5ff0ef	jal	x1,800013e4	  x1=0x800013e4
       11755000	      1174	00000000	00000013	addi	x0,x0,0	  x0:0x00000000
       11765000	      1175	800013d4	00000013	addi	x0,x0,0	  x0:0x00000000
       11775000	      1176	800013d8	0340036f	jal	x6,800013d8	  x6=0x800013d8
       11785000	      1177	00000000	00000013	addi	x0,x0,0	  x0:0x00000000
       11795000	      1178	80001408	00000013	addi	x0,x0,0	  x0:0x00000000
       11805000	      1179	8000140c	ff9ff0ef	jal	x1,8000140c	  x1=0x8000140c
       11815000	      1180	00000000	00000013	addi	x0,x0,0	  x0:0x00000000
       11825000	      1181	80001400	00000013	addi	x0,x0,0	  x0:0x00000000
       11835000	      1182	80001404	fedff36f	jal	x6,80001404	  x6=0x80001404
       11845000	      1183	00000000	00000013	addi	x0,x0,0	  x0:0x00000000
       11855000	      1184	800013ec	00000013	addi	x0,x0,0	  x0:0x00000000
       11865000	      1185	800013f0	008000ef	jal	x1,800013f0	  x1=0x800013f0
       11875000	      1186	00000000	00000013	addi	x0,x0,0	  x0:0x00000000
       11885000	      1187	800013f4	00000013	addi	x0,x0,0	  x0:0x00000000
       11895000	      1188	800013f8	fd5ff0ef	jal	x1,800013f8	  x1=0x800013f8
       11905000	      1189	00000000	00000013	addi	x0,x0,0	  x0:0x00000000
       11915000	      1190	800013c8	00000013	addi	x0,x0,0	  x0:0x00000000
       11925000	      1191	800013cc	03400fef	jal	x31,800013cc	 x31=0x800013cc
       11935000	      1192	00000000	00000013	addi	x0,x0,0	  x0:0x00000000
       11945000	      1193	800013fc	00000013	addi	x0,x0,0	  x0:0x00000000
       11955000	      1194	80001400	fe9ff0ef	jal	x1,80001400	  x1=0x80001400
       11965000	      1195	00000000	00000013	addi	x0,x0,0	  x0:0x00000000
       11975000	      1196	800013e4	00000013	addi	x0,x0,0	  x0:0x00000000
       11985000	      1197	800013e8	ff5ff36f	jal	x6,800013e8	  x6=0x800013e8
       11995000	      1198	00000000	00000013	addi	x0,x0,0	  x0:0x00000000
       12005000	      1199	800013d8	00000013	addi	x0,x0,0	  x0:0x00000000
       12015000	      1200	800013dc	02c000ef	jal	x1,800013dc	  x1=0x800013dc
       12025000	      1201	00000000	00000013	addi	x0,x0,0	  x0:0x00000000
       12035000	      1202	80001404	00000013	addi	x0,x0,0	  x0:0x00000000
       12045000	      1203	80001408	024000ef	jal	x1,80001408	  x1=0x80001408
       12055000	      1204	00000000	00000013	addi	x0,x0,0	  x0:0x00000000
       12065000	      1205	80001428	00000013	addi	x0,x0,0	  x0:0x00000000
       12075000	      1206	8000142c	ffdff0ef	jal	x1,8000142c	  x1=0x8000142c
       12085000	      1207	00000000	00000013	addi	x0,x0,0	  x0:0x00000000
       12095000	      1208	80001424	00000013	addi	x0,x0,0	  x0:0x00000000
       12105000	      1209	80001428	fe9ff0ef	jal	x1,80001428	  x1=0x80001428
       12115000	      1210	00000000	00000013	addi	x0,x0,0	  x0:0x00000000
       12125000	      1211	8000140c	00000013	addi	x0,x0,0	  x0:0x00000000
       12135000	      1212	80001410	fd1ff56f	jal	x10,80001410	 x10=0x80001410
       12145000	      1213	00000000	00000013	addi	x0,x0,0	  x0:0x00000000
       12155000	      1214	800013dc	00000013	addi	x0,x0,0	  x0:0x00000000
       12165000	      1215	800013e0	ff1ff26f	jal	x4,800013e0	  x4=0x800013e0
       12175000	      1216	00000000	00000013	addi	x0,x0,0	  x0:0x00000000
       12185000	      1217	800013cc	00000013	addi	x0,x0,0	  x0:0x00000000
       12195000	      1218	800013d0	ff9ff0ef	jal	x1,800013d0	  x1=0x800013d0
       12205000	      1219	00000000	00000013	addi	x0,x0,0	  x0:0x00000000
       12215000	      1220	800013c4	00000013	addi	x0,x0,0	  x0:0x00000000
       12225000	      1221	800013c8	ff9ff0ef	jal	x1,800013c8	  x1=0x800013c8
       12235000	      1222	00000000	00000013	addi	x0,x0,0	  x0:0x00000000
       12245000	      1223	800013bc	00000013	addi	x0,x0,0	  x0:0x00000000
       12255000	      1224	800013c0	02c0056f	jal	x10,800013c0	 x10=0x800013c0
       12265000	      1225	00000000	00000013	addi	x0,x0,0	  x0:0x00000000
       12275000	      1226	800013e8	00000013	addi	x0,x0,0	  x0:0x00000000
       12285000	      1227	800013ec	02c0036f	jal	x6,800013ec	  x6=0x800013ec
       12295000	      1228	00000000	00000013	addi	x0,x0,0	  x0:0x00000000
       12305000	      1229	80001414	00000013	addi	x0,x0,0	  x0:0x00000000
       12315000	      1230	80001418	fbdff0ef	jal	x1,80001418	  x1=0x80001418
       12325000	      1231	00000000	00000013	addi	x0,x0,0	  x0:0x00000000
       12335000	      1232	800013d0	00000013	addi	x0,x0,0	  x0:0x00000000
       12345000	      1233	800013d4	020000ef	jal	x1,800013d4	  x1=0x800013d4
       12355000	      1234	00000000	00000013	addi	x0,x0,0	  x0:0x00000000
       12365000	      1235	800013f0	00000013	addi	x0,x0,0	  x0:0x00000000
       12375000	      1236	800013f4	0300036f	jal	x6,800013f4	  x6=0x800013f4
       12385000	      1237	00000000	00000013	addi	x0,x0,0	  x0:0x00000000
       12395000	      1238	80001420	00000013	addi	x0,x0,0	  x0:0x00000000
       12405000	      1239	80001424	fa1ff0ef	jal	x1,80001424	  x1=0x80001424
       12415000	      1240	00000000	00000013	addi	x0,x0,0	  x0:0x00000000
       12425000	      1241	800013c0	00000013	addi	x0,x0,0	  x0:0x00000000
       12435000	      1242	800013c4	05c005ef	jal	x11,800013c4	 x11=0x800013c4
       12445000	      1243	00000000	00000013	addi	x0,x0,0	  x0:0x00000000
       12455000	      1244	8000141c	00000013	addi	x0,x0,0	  x0:0x00000000
       12465000	      1245	80001420	0100036f	jal	x6,80001420	  x6=0x80001420
       12475000	      1246	00000000	00000013	addi	x0,x0,0	  x0:0x00000000
       12485000	      1247	8000142c	00000013	addi	x0,x0,0	  x0:0x00000000
       12495000	      1248	80001430	01721e33	sll	x28,x4,x23	  x4:0x800013e0 x23:0x02e2e000 x28=0x800013e0
       12505000	      1249	80001434	0200036f	jal	x6,80001434	  x6=0x80001434
       12515000	      1250	00000000	00000013	addi	x0,x0,0	  x0:0x00000000
       12525000	      1251	80001450	00000013	addi	x0,x0,0	  x0:0x00000000
       12535000	      1252	80001454	004000ef	jal	x1,80001454	  x1=0x80001454
       12545000	      1253	00000000	00000013	addi	x0,x0,0	  x0:0x00000000
       12555000	      1254	80001454	00000013	addi	x0,x0,0	  x0:0x00000000
       12565000	      1255	80001458	034009ef	jal	x19,80001458	 x19=0x80001458
       12575000	      1256	00000000	00000013	addi	x0,x0,0	  x0:0x00000000
       12585000	      1257	80001488	00000013	addi	x0,x0,0	  x0:0x00000000
       12595000	      1258	8000148c	fe5ff0ef	jal	x1,8000148c	  x1=0x8000148c
       12605000	      1259	00000000	00000013	addi	x0,x0,0	  x0:0x00000000
       12615000	      1260	8000146c	00000013	addi	x0,x0,0	  x0:0x00000000
       12625000	      1261	80001470	fd1ff0ef	jal	x1,80001470	  x1=0x80001470
       12635000	      1262	00000000	00000013	addi	x0,x0,0	  x0:0x00000000
       12645000	      1263	8000143c	00000013	addi	x0,x0,0	  x0:0x00000000
       12655000	      1264	80001440	02c001ef	jal	x3,80001440	  x3=0x80001440
       12665000	      1265	00000000	00000013	addi	x0,x0,0	  x0:0x00000000
       12675000	      1266	80001468	00000013	addi	x0,x0,0	  x0:0x00000000
       12685000	      1267	8000146c	0080036f	jal	x6,8000146c	  x6=0x8000146c
       12695000	      1268	00000000	00000013	addi	x0,x0,0	  x0:0x00000000
       12705000	      1269	80001470	00000013	addi	x0,x0,0	  x0:0x00000000
       12715000	      1270	80001474	030000ef	jal	x1,80001474	  x1=0x80001474
       12725000	      1271	00000000	00000013	addi	x0,x0,0	  x0:0x00000000
       12735000	      1272	800014a0	00000013	addi	x0,x0,0	  x0:0x00000000
       12745000	      1273	800014a4	fa5ff0ef	jal	x1,800014a4	  x1=0x800014a4
       12755000	      1274	00000000	00000013	addi	x0,x0,0	  x0:0x00000000
       12765000	      1275	80001444	00000013	addi	x0,x0,0	  x0:0x00000000
       12775000	      1276	80001448	0080036f	jal	x6,80001448	  x6=0x80001448
       12785000	      1277	00000000	00000013	addi	x0,x0,0	  x0:0x00000000
       12795000	      1278	8000144c	00000013	addi	x0,x0,0	  x0:0x00000000
       12805000	      1279	80001450	02c0036f	jal	x6,80001450	  x6=0x80001450
       12815000	      1280	00000000	00000013	addi	x0,x0,0	  x0:0x00000000
       12825000	      1281	80001478	00000013	addi	x0,x0,0	  x0:0x00000000
       12835000	      1282	8000147c	0080036f	jal	x6,8000147c	  x6=0x8000147c
       12845000	      1283	00000000	00000013	addi	x0,x0,0	  x0:0x00000000
       12855000	      1284	80001480	00000013	addi	x0,x0,0	  x0:0x00000000
       12865000	      1285	80001484	004000ef	jal	x1,80001484	  x1=0x80001484
       12875000	      1286	00000000	00000013	addi	x0,x0,0	  x0:0x00000000
       12885000	      1287	80001484	00000013	addi	x0,x0,0	  x0:0x00000000
       12895000	      1288	80001488	fd9ff0ef	jal	x1,80001488	  x1=0x80001488
       12905000	      1289	00000000	00000013	addi	x0,x0,0	  x0:0x00000000
       12915000	      1290	8000145c	00000013	addi	x0,x0,0	  x0:0x00000000
       12925000	      1291	80001460	ffdff36f	jal	x6,80001460	  x6=0x80001460
       12935000	      1292	00000000	00000013	addi	x0,x0,0	  x0:0x00000000
       12945000	      1293	80001458	00000013	addi	x0,x0,0	  x0:0x00000000
       12955000	      1294	8000145c	0500066f	jal	x12,8000145c	 x12=0x8000145c
       12965000	      1295	00000000	00000013	addi	x0,x0,0	  x0:0x00000000
       12975000	      1296	800014a8	00000013	addi	x0,x0,0	  x0:0x00000000
       12985000	      1297	800014ac	fb9ff0ef	jal	x1,800014ac	  x1=0x800014ac
       12995000	      1298	00000000	00000013	addi	x0,x0,0	  x0:0x00000000
       13005000	      1299	80001460	00000013	addi	x0,x0,0	  x0:0x00000000
       13015000	      1300	80001464	fe1ff36f	jal	x6,80001464	  x6=0x80001464
       13025000	      1301	00000000	00000013	addi	x0,x0,0	  x0:0x00000000
       13035000	      1302	80001440	00000013	addi	x0,x0,0	  x0:0x00000000
       13045000	      1303	80001444	034000ef	jal	x1,80001444	  x1=0x80001444
       13055000	      1304	00000000	00000013	addi	x0,x0,0	  x0:0x00000000
       13065000	      1305	80001474	00000013	addi	x0,x0,0	  x0:0x00000000
       13075000	      1306	80001478	fd5ffc6f	jal	x24,80001478	 x24=0x80001478
       13085000	      1307	00000000	00000013	addi	x0,x0,0	  x0:0x00000000
       13095000	      1308	80001448	00000013	addi	x0,x0,0	  x0:0x00000000
       13105000	      1309	8000144c	050000ef	jal	x1,8000144c	  x1=0x8000144c
       13115000	      1310	00000000	00000013	addi	x0,x0,0	  x0:0x00000000
       13125000	      1311	80001498	00000013	addi	x0,x0,0	  x0:0x00000000
       13135000	      1312	8000149c	fcdff36f	jal	x6,8000149c	  x6=0x8000149c
       13145000	      1313	00000000	00000013	addi	x0,x0,0	  x0:0x00000000
       13155000	      1314	80001464	00000013	addi	x0,x0,0	  x0:0x00000000
       13165000	      1315	80001468	018000ef	jal	x1,80001468	  x1=0x80001468
       13175000	      1316	00000000	00000013	addi	x0,x0,0	  x0:0x00000000
       13185000	      1317	8000147c	00000013	addi	x0,x0,0	  x0:0x00000000
       13195000	      1318	80001480	018004ef	jal	x9,80001480	  x9=0x80001480
       13205000	      1319	00000000	00000013	addi	x0,x0,0	  x0:0x00000000
       13215000	      1320	80001494	00000013	addi	x0,x0,0	  x0:0x00000000
       13225000	      1321	80001498	ff9ff0ef	jal	x1,80001498	  x1=0x80001498
       13235000	      1322	00000000	00000013	addi	x0,x0,0	  x0:0x00000000
       13245000	      1323	8000148c	00000013	addi	x0,x0,0	  x0:0x00000000
       13255000	      1324	80001490	fa9ff36f	jal	x6,80001490	  x6=0x80001490
       13265000	      1325	00000000	00000013	addi	x0,x0,0	  x0:0x00000000
       13275000	      1326	80001434	00000013	addi	x0,x0,0	  x0:0x00000000
       13285000	      1327	80001438	05c000ef	jal	x1,80001438	  x1=0x80001438
       13295000	      1328	00000000	00000013	addi	x0,x0,0	  x0:0x00000000
       13305000	      1329	80001490	00000013	addi	x0,x0,0	  x0:0x00000000
       13315000	      1330	80001494	00c0036f	jal	x6,80001494	  x6=0x80001494
       13325000	      1331	00000000	00000013	addi	x0,x0,0	  x0:0x00000000
       13335000	      1332	8000149c	00000013	addi	x0,x0,0	  x0:0x00000000
       13345000	      1333	800014a0	0080036f	jal	x6,800014a0	  x6=0x800014a0
       13355000	      1334	00000000	00000013	addi	x0,x0,0	  x0:0x00000000
       13365000	      1335	800014a4	00000013	addi	x0,x0,0	  x0:0x00000000
       13375000	      1336	800014a8	f95ff36f	jal	x6,800014a8	  x6=0x800014a8
       13385000	      1337	00000000	00000013	addi	x0,x0,0	  x0:0x00000000
       13395000	      1338	80001438	00000013	addi	x0,x0,0	  x0:0x00000000
       13405000	      1339	8000143c	074000ef	jal	x1,8000143c	  x1=0x8000143c
       13415000	      1340	00000000	00000013	addi	x0,x0,0	  x0:0x00000000
       13425000	      1341	800014ac	00000013	addi	x0,x0,0	  x0:0x00000000
       13435000	      1342	800014b0	405d8a33	sub	x20,x27,x5	 x27:0x80009f74  x5:0x8000135c x20=0x00008c18
       13445000	      1343	800014b4	0040036f	jal	x6,800014b4	  x6=0x800014b4
       13455000	      1344	00000000	00000013	addi	x0,x0,0	  x0:0x00000000
       13465000	      1345	800014b4	00000013	addi	x0,x0,0	  x0:0x00000000
       13475000	      1346	800014b8	02c000ef	jal	x1,800014b8	  x1=0x800014b8
       13485000	      1347	00000000	00000013	addi	x0,x0,0	  x0:0x00000000
       13495000	      1348	800014e0	00000013	addi	x0,x0,0	  x0:0x00000000
       13505000	      1349	800014e4	018000ef	jal	x1,800014e4	  x1=0x800014e4
       13515000	      1350	00000000	00000013	addi	x0,x0,0	  x0:0x00000000
       13525000	      1351	800014f8	00000013	addi	x0,x0,0	  x0:0x00000000
       13535000	      1352	800014fc	ff5ff46f	jal	x8,800014fc	  x8=0x800014fc
       13545000	      1353	00000000	00000013	addi	x0,x0,0	  x0:0x00000000
       13555000	      1354	800014ec	00000013	addi	x0,x0,0	  x0:0x00000000
       13565000	      1355	800014f0	fd1ffc6f	jal	x24,800014f0	 x24=0x800014f0
       13575000	      1356	00000000	00000013	addi	x0,x0,0	  x0:0x00000000
       13585000	      1357	800014bc	00000013	addi	x0,x0,0	  x0:0x00000000
       13595000	      1358	800014c0	ffdff4ef	jal	x9,800014c0	  x9=0x800014c0
       13605000	      1359	00000000	00000013	addi	x0,x0,0	  x0:0x00000000
       13615000	      1360	800014b8	00000013	addi	x0,x0,0	  x0:0x00000000
       13625000	      1361	800014bc	048000ef	jal	x1,800014bc	  x1=0x800014bc
       13635000	      1362	00000000	00000013	addi	x0,x0,0	  x0:0x00000000
       13645000	      1363	80001500	00000013	addi	x0,x0,0	  x0:0x00000000
       13655000	      1364	80001504	fd9ff0ef	jal	x1,80001504	  x1=0x80001504
       13665000	      1365	00000000	00000013	addi	x0,x0,0	  x0:0x00000000
       13675000	      1366	800014d8	00000013	addi	x0,x0,0	  x0:0x00000000
       13685000	      1367	800014dc	ffdff36f	jal	x6,800014dc	  x6=0x800014dc
       13695000	      1368	00000000	00000013	addi	x0,x0,0	  x0:0x00000000
       13705000	      1369	800014d4	00000013	addi	x0,x0,0	  x0:0x00000000
       13715000	      1370	800014d8	ff9ff2ef	jal	x5,800014d8	  x5=0x800014d8
       13725000	      1371	00000000	00000013	addi	x0,x0,0	  x0:0x00000000
       13735000	      1372	800014cc	00000013	addi	x0,x0,0	  x0:0x00000000
       13745000	      1373	800014d0	010005ef	jal	x11,800014d0	 x11=0x800014d0
       13755000	      1374	00000000	00000013	addi	x0,x0,0	  x0:0x00000000
       13765000	      1375	800014dc	00000013	addi	x0,x0,0	  x0:0x00000000
       13775000	      1376	800014e0	028000ef	jal	x1,800014e0	  x1=0x800014e0
       13785000	      1377	00000000	00000013	addi	x0,x0,0	  x0:0x00000000
       13795000	      1378	80001504	00000013	addi	x0,x0,0	  x0:0x00000000
       13805000	      1379	80001508	ff1ff6ef	jal	x13,80001508	 x13=0x80001508
       13815000	      1380	00000000	00000013	addi	x0,x0,0	  x0:0x00000000
       13825000	      1381	800014f4	00000013	addi	x0,x0,0	  x0:0x00000000
       13835000	      1382	800014f8	ff5ff0ef	jal	x1,800014f8	  x1=0x800014f8
       13845000	      1383	00000000	00000013	addi	x0,x0,0	  x0:0x00000000
       13855000	      1384	800014e8	00000013	addi	x0,x0,0	  x0:0x00000000
       13865000	      1385	800014ec	fd9ff56f	jal	x10,800014ec	 x10=0x800014ec
       13875000	      1386	00000000	00000013	addi	x0,x0,0	  x0:0x00000000
       13885000	      1387	800014c0	00000013	addi	x0,x0,0	  x0:0x00000000
       13895000	      1388	800014c4	0240036f	jal	x6,800014c4	  x6=0x800014c4
       13905000	      1389	00000000	00000013	addi	x0,x0,0	  x0:0x00000000
       13915000	      1390	800014e4	00000013	addi	x0,x0,0	  x0:0x00000000
       13925000	      1391	800014e8	fedff8ef	jal	x17,800014e8	 x17=0x800014e8
       13935000	      1392	00000000	00000013	addi	x0,x0,0	  x0:0x00000000
       13945000	      1393	800014d0	00000013	addi	x0,x0,0	  x0:0x00000000
       13955000	      1394	800014d4	020000ef	jal	x1,800014d4	  x1=0x800014d4
       13965000	      1395	00000000	00000013	addi	x0,x0,0	  x0:0x00000000
       13975000	      1396	800014f0	00000013	addi	x0,x0,0	  x0:0x00000000
       13985000	      1397	800014f4	fd5ff0ef	jal	x1,800014f4	  x1=0x800014f4
       13995000	      1398	00000000	00000013	addi	x0,x0,0	  x0:0x00000000
       14005000	      1399	800014c4	00000013	addi	x0,x0,0	  x0:0x00000000
       14015000	      1400	800014c8	038001ef	jal	x3,800014c8	  x3=0x800014c8
       14025000	      1401	00000000	00000013	addi	x0,x0,0	  x0:0x00000000
       14035000	      1402	800014fc	00000013	addi	x0,x0,0	  x0:0x00000000
       14045000	      1403	80001500	fcdff9ef	jal	x19,80001500	 x19=0x80001500
       14055000	      1404	00000000	00000013	addi	x0,x0,0	  x0:0x00000000
       14065000	      1405	800014c8	00000013	addi	x0,x0,0	  x0:0x00000000
       14075000	      1406	800014cc	040000ef	jal	x1,800014cc	  x1=0x800014cc
       14085000	      1407	00000000	00000013	addi	x0,x0,0	  x0:0x00000000
       14095000	      1408	80001508	00000013	addi	x0,x0,0	  x0:0x00000000
       14105000	      1409	8000150c	2c3b4393	xori	x7,x22,707	 x22:0x80001388  x7=0x8000114b
       14115000	      1410	80001510	0300036f	jal	x6,80001510	  x6=0x80001510
       14125000	      1411	00000000	00000013	addi	x0,x0,0	  x0:0x00000000
       14135000	      1412	8000153c	00000013	addi	x0,x0,0	  x0:0x00000000
       14145000	      1413	80001540	02c000ef	jal	x1,80001540	  x1=0x80001540
       14155000	      1414	00000000	00000013	addi	x0,x0,0	  x0:0x00000000
       14165000	      1415	80001568	00000013	addi	x0,x0,0	  x0:0x00000000
       14175000	      1416	8000156c	fadffbef	jal	x23,8000156c	 x23=0x8000156c
       14185000	      1417	00000000	00000013	addi	x0,x0,0	  x0:0x00000000
       14195000	      1418	80001514	00000013	addi	x0,x0,0	  x0:0x00000000
       14205000	      1419	80001518	01c0036f	jal	x6,80001518	  x6=0x80001518
       14215000	      1420	00000000	00000013	addi	x0,x0,0	  x0:0x00000000
       14225000	      1421	80001530	00000013	addi	x0,x0,0	  x0:0x00000000
       14235000	      1422	80001534	fedff0ef	jal	x1,80001534	  x1=0x80001534
       14245000	      1423	00000000	00000013	addi	x0,x0,0	  x0:0x00000000
       14255000	      1424	8000151c	00000013	addi	x0,x0,0	  x0:0x00000000
       14265000	      1425	80001520	004000ef	jal	x1,80001520	  x1=0x80001520
       14275000	      1426	00000000	00000013	addi	x0,x0,0	  x0:0x00000000
       14285000	      1427	80001520	00000013	addi	x0,x0,0	  x0:0x00000000
       14295000	      1428	80001524	00c0036f	jal	x6,80001524	  x6=0x80001524
       14305000	      1429	00000000	00000013	addi	x0,x0,0	  x0:0x00000000
       14315000	      1430	8000152c	00000013	addi	x0,x0,0	  x0:0x00000000
       14325000	      1431	80001530	024000ef	jal	x1,80001530	  x1=0x80001530
       14335000	      1432	00000000	00000013	addi	x0,x0,0	  x0:0x00000000
       14345000	      1433	80001550	00000013	addi	x0,x0,0	  x0:0x00000000
       14355000	      1434	80001554	fd5ff0ef	jal	x1,80001554	  x1=0x80001554
       14365000	      1435	00000000	00000013	addi	x0,x0,0	  x0:0x00000000
       14375000	      1436	80001524	00000013	addi	x0,x0,0	  x0:0x00000000
       14385000	      1437	80001528	04c000ef	jal	x1,80001528	  x1=0x80001528
       14395000	      1438	00000000	00000013	addi	x0,x0,0	  x0:0x00000000
       14405000	      1439	80001570	00000013	addi	x0,x0,0	  x0:0x00000000
       14415000	      1440	80001574	ff1ffc6f	jal	x24,80001574	 x24=0x80001574
       14425000	      1441	00000000	00000013	addi	x0,x0,0	  x0:0x00000000
       14435000	      1442	80001560	00000013	addi	x0,x0,0	  x0:0x00000000
       14445000	      1443	80001564	ff5ff0ef	jal	x1,80001564	  x1=0x80001564
       14455000	      1444	00000000	00000013	addi	x0,x0,0	  x0:0x00000000
       14465000	      1445	80001554	00000013	addi	x0,x0,0	  x0:0x00000000
       14475000	      1446	80001558	ff5ff1ef	jal	x3,80001558	  x3=0x80001558
       14485000	      1447	00000000	00000013	addi	x0,x0,0	  x0:0x00000000
       14495000	      1448	80001548	00000013	addi	x0,x0,0	  x0:0x00000000
       14505000	      1449	8000154c	fe1ff36f	jal	x6,8000154c	  x6=0x8000154c
       14515000	      1450	00000000	00000013	addi	x0,x0,0	  x0:0x00000000
       14525000	      1451	80001528	00000013	addi	x0,x0,0	  x0:0x00000000
       14535000	      1452	8000152c	04c000ef	jal	x1,8000152c	  x1=0x8000152c
       14545000	      1453	00000000	00000013	addi	x0,x0,0	  x0:0x00000000
       14555000	      1454	80001574	00000013	addi	x0,x0,0	  x0:0x00000000
       14565000	      1455	80001578	ff1ff36f	jal	x6,80001578	  x6=0x80001578
       14575000	      1456	00000000	00000013	addi	x0,x0,0	  x0:0x00000000
       14585000	      1457	80001564	00000013	addi	x0,x0,0	  x0:0x00000000
       14595000	      1458	80001568	fd1ffb6f	jal	x22,80001568	 x22=0x80001568
       14605000	      1459	00000000	00000013	addi	x0,x0,0	  x0:0x00000000
       14615000	      1460	80001534	00000013	addi	x0,x0,0	  x0:0x00000000
       14625000	      1461	80001538	fe5ff0ef	jal	x1,80001538	  x1=0x80001538
       14635000	      1462	00000000	00000013	addi	x0,x0,0	  x0:0x00000000
       14645000	      1463	80001518	00000013	addi	x0,x0,0	  x0:0x00000000
       14655000	      1464	8000151c	044000ef	jal	x1,8000151c	  x1=0x8000151c
       14665000	      1465	00000000	00000013	addi	x0,x0,0	  x0:0x00000000
       14675000	      1466	8000155c	00000013	addi	x0,x0,0	  x0:0x00000000
       14685000	      1467	80001560	fe5ff36f	jal	x6,80001560	  x6=0x80001560
       14695000	      1468	00000000	00000013	addi	x0,x0,0	  x0:0x00000000
       14705000	      1469	80001540	00000013	addi	x0,x0,0	  x0:0x00000000
       14715000	      1470	80001544	02c000ef	jal	x1,80001544	  x1=0x80001544
       14725000	      1471	00000000	00000013	addi	x0,x0,0	  x0:0x00000000
       14735000	      1472	8000156c	00000013	addi	x0,x0,0	  x0:0x00000000
       14745000	      1473	80001570	00c0036f	jal	x6,80001570	  x6=0x80001570
       14755000	      1474	00000000	00000013	addi	x0,x0,0	  x0:0x00000000
       14765000	      1475	80001578	00000013	addi	x0,x0,0	  x0:0x00000000
       14775000	      1476	8000157c	fcdff0ef	jal	x1,8000157c	  x1=0x8000157c
       14785000	      1477	00000000	00000013	addi	x0,x0,0	  x0:0x00000000
       14795000	      1478	80001544	00000013	addi	x0,x0,0	  x0:0x00000000
       14805000	      1479	80001548	ff5ff0ef	jal	x1,80001548	  x1=0x80001548
       14815000	      1480	00000000	00000013	addi	x0,x0,0	  x0:0x00000000
       14825000	      1481	80001538	00000013	addi	x0,x0,0	  x0:0x00000000
       14835000	      1482	8000153c	01400bef	jal	x23,8000153c	 x23=0x8000153c
       14845000	      1483	00000000	00000013	addi	x0,x0,0	  x0:0x00000000
       14855000	      1484	8000154c	00000013	addi	x0,x0,0	  x0:0x00000000
       14865000	      1485	80001550	00c0076f	jal	x14,80001550	 x14=0x80001550
       14875000	      1486	00000000	00000013	addi	x0,x0,0	  x0:0x00000000
       14885000	      1487	80001558	00000013	addi	x0,x0,0	  x0:0x00000000
       14895000	      1488	8000155c	fb9ff0ef	jal	x1,8000155c	  x1=0x8000155c
       14905000	      1489	00000000	00000013	addi	x0,x0,0	  x0:0x00000000
       14915000	      1490	80001510	00000013	addi	x0,x0,0	  x0:0x00000000
       14925000	      1491	80001514	06c002ef	jal	x5,80001514	  x5=0x80001514
       14935000	      1492	00000000	00000013	addi	x0,x0,0	  x0:0x00000000
       14945000	      1493	8000157c	00000013	addi	x0,x0,0	  x0:0x00000000
       14955000	      1494	80001580	cbc13e93	sltiu	x29,x2,-836	  x2:0x00000000 x29=0x00000001
       14965000	      1495	80001584	0140036f	jal	x6,80001584	  x6=0x80001584
       14975000	      1496	00000000	00000013	addi	x0,x0,0	  x0:0x00000000
       14985000	      1497	80001594	00000013	addi	x0,x0,0	  x0:0x00000000
       14995000	      1498	80001598	018000ef	jal	x1,80001598	  x1=0x80001598
       15005000	      1499	00000000	00000013	addi	x0,x0,0	  x0:0x00000000
       15015000	      1500	800015ac	00000013	addi	x0,x0,0	  x0:0x00000000
       15025000	      1501	800015b0	ff1ff0ef	jal	x1,800015b0	  x1=0x800015b0
       15035000	      1502	00000000	00000013	addi	x0,x0,0	  x0:0x00000000
       15045000	      1503	8000159c	00000013	addi	x0,x0,0	  x0:0x00000000
       15055000	      1504	800015a0	030000ef	jal	x1,800015a0	  x1=0x800015a0
       15065000	      1505	00000000	00000013	addi	x0,x0,0	  x0:0x00000000
       15075000	      1506	800015cc	00000013	addi	x0,x0,0	  x0:0x00000000
       15085000	      1507	800015d0	010000ef	jal	x1,800015d0	  x1=0x800015d0
       15095000	      1508	00000000	00000013	addi	x0,x0,0	  x0:0x00000000
       15105000	      1509	800015dc	00000013	addi	x0,x0,0	  x0:0x00000000
       15115000	      1510	800015e0	ff5ff0ef	jal	x1,800015e0	  x1=0x800015e0
       15125000	      1511	00000000	00000013	addi	x0,x0,0	  x0:0x00000000
       15135000	      1512	800015d0	00000013	addi	x0,x0,0	  x0:0x00000000
       15145000	      1513	800015d4	004000ef	jal	x1,800015d4	  x1=0x800015d4
       15155000	      1514	00000000	00000013	addi	x0,x0,0	  x0:0x00000000
       15165000	      1515	800015d4	00000013	addi	x0,x0,0	  x0:0x00000000
       15175000	      1516	800015d8	ff5ffeef	jal	x29,800015d8	 x29=0x800015d8
       15185000	      1517	00000000	00000013	addi	x0,x0,0	  x0:0x00000000
       15195000	      1518	800015c8	00000013	addi	x0,x0,0	  x0:0x00000000
       15205000	      1519	800015cc	ff9ff0ef	jal	x1,800015cc	  x1=0x800015cc
       15215000	      1520	00000000	00000013	addi	x0,x0,0	  x0:0x00000000
       15225000	      1521	800015c0	00000013	addi	x0,x0,0	  x0:0x00000000
       15235000	      1522	800015c4	004000ef	jal	x1,800015c4	  x1=0x800015c4
       15245000	      1523	00000000	00000013	addi	x0,x0,0	  x0:0x00000000
       15255000	      1524	800015c4	00000013	addi	x0,x0,0	  x0:0x00000000
       15265000	      1525	800015c8	ff9ff0ef	jal	x1,800015c8	  x1=0x800015c8
       15275000	      1526	00000000	00000013	addi	x0,x0,0	  x0:0x00000000
       15285000	      1527	800015bc	00000013	addi	x0,x0,0	  x0:0x00000000
       15295000	      1528	800015c0	0280036f	jal	x6,800015c0	  x6=0x800015c0
       15305000	      1529	00000000	00000013	addi	x0,x0,0	  x0:0x00000000
       15315000	      1530	800015e4	00000013	addi	x0,x0,0	  x0:0x00000000
       15325000	      1531	800015e8	fc1ff36f	jal	x6,800015e8	  x6=0x800015e8
       15335000	      1532	00000000	00000013	addi	x0,x0,0	  x0:0x00000000
       15345000	      1533	800015a4	00000013	addi	x0,x0,0	  x0:0x00000000
       15355000	      1534	800015a8	044001ef	jal	x3,800015a8	  x3=0x800015a8
       15365000	      1535	00000000	00000013	addi	x0,x0,0	  x0:0x00000000
       15375000	      1536	800015e8	00000013	addi	x0,x0,0	  x0:0x00000000
       15385000	      1537	800015ec	f9dff96f	jal	x18,800015ec	 x18=0x800015ec
       15395000	      1538	00000000	00000013	addi	x0,x0,0	  x0:0x00000000
       15405000	      1539	80001584	00000013	addi	x0,x0,0	  x0:0x00000000
       15415000	      1540	80001588	030000ef	jal	x1,80001588	  x1=0x80001588
       15425000	      1541	00000000	00000013	addi	x0,x0,0	  x0:0x00000000
       15435000	      1542	800015b4	00000013	addi	x0,x0,0	  x0:0x00000000
       15445000	      1543	800015b8	fddffeef	jal	x29,800015b8	 x29=0x800015b8
       15455000	      1544	00000000	00000013	addi	x0,x0,0	  x0:0x00000000
       15465000	      1545	80001590	00000013	addi	x0,x0,0	  x0:0x00000000
       15475000	      1546	80001594	ffdff0ef	jal	x1,80001594	  x1=0x80001594
       15485000	      1547	00000000	00000013	addi	x0,x0,0	  x0:0x00000000
       15495000	      1548	8000158c	00000013	addi	x0,x0,0	  x0:0x00000000
       15505000	      1549	80001590	014000ef	jal	x1,80001590	  x1=0x80001590
       15515000	      1550	00000000	00000013	addi	x0,x0,0	  x0:0x00000000
       15525000	      1551	800015a0	00000013	addi	x0,x0,0	  x0:0x00000000
       15535000	      1552	800015a4	010000ef	jal	x1,800015a4	  x1=0x800015a4
       15545000	      1553	00000000	00000013	addi	x0,x0,0	  x0:0x00000000
       15555000	      1554	800015b0	00000013	addi	x0,x0,0	  x0:0x00000000
       15565000	      1555	800015b4	0080036f	jal	x6,800015b4	  x6=0x800015b4
       15575000	      1556	00000000	00000013	addi	x0,x0,0	  x0:0x00000000
       15585000	      1557	800015b8	00000013	addi	x0,x0,0	  x0:0x00000000
       15595000	      1558	800015bc	ff1ff0ef	jal	x1,800015bc	  x1=0x800015bc
       15605000	      1559	00000000	00000013	addi	x0,x0,0	  x0:0x00000000
       15615000	      1560	800015a8	00000013	addi	x0,x0,0	  x0:0x00000000
       15625000	      1561	800015ac	fe1ff0ef	jal	x1,800015ac	  x1=0x800015ac
       15635000	      1562	00000000	00000013	addi	x0,x0,0	  x0:0x00000000
       15645000	      1563	80001588	00000013	addi	x0,x0,0	  x0:0x00000000
       15655000	      1564	8000158c	0580036f	jal	x6,8000158c	  x6=0x8000158c
       15665000	      1565	00000000	00000013	addi	x0,x0,0	  x0:0x00000000
       15675000	      1566	800015e0	00000013	addi	x0,x0,0	  x0:0x00000000
       15685000	      1567	800015e4	fb9ff0ef	jal	x1,800015e4	  x1=0x800015e4
       15695000	      1568	00000000	00000013	addi	x0,x0,0	  x0:0x00000000
       15705000	      1569	80001598	00000013	addi	x0,x0,0	  x0:0x00000000
       15715000	      1570	8000159c	040007ef	jal	x15,8000159c	 x15=0x8000159c
       15725000	      1571	00000000	00000013	addi	x0,x0,0	  x0:0x00000000
       15735000	      1572	800015d8	00000013	addi	x0,x0,0	  x0:0x00000000
       15745000	      1573	800015dc	014000ef	jal	x1,800015dc	  x1=0x800015dc
       15755000	      1574	00000000	00000013	addi	x0,x0,0	  x0:0x00000000
       15765000	      1575	800015ec	00000013	addi	x0,x0,0	  x0:0x00000000
       15775000	      1576	800015f0	4172da33	sra	x20,x5,x23	  x5:0x80001514 x23:0x8000153c x20=0xfffffff8
       15785000	      1577	800015f4	02c0036f	jal	x6,800015f4	  x6=0x800015f4
       15795000	      1578	00000000	00000013	addi	x0,x0,0	  x0:0x00000000
       15805000	      1579	8000161c	00000013	addi	x0,x0,0	  x0:0x00000000
       15815000	      1580	80001620	ff9ff0ef	jal	x1,80001620	  x1=0x80001620
       15825000	      1581	00000000	00000013	addi	x0,x0,0	  x0:0x00000000
       15835000	      1582	80001614	00000013	addi	x0,x0,0	  x0:0x00000000
       15845000	      1583	80001618	fe1ff0ef	jal	x1,80001618	  x1=0x80001618
       15855000	      1584	00000000	00000013	addi	x0,x0,0	  x0:0x00000000
       15865000	      1585	800015f4	00000013	addi	x0,x0,0	  x0:0x00000000
       15875000	      1586	800015f8	0500066f	jal	x12,800015f8	 x12=0x800015f8
       15885000	      1587	00000000	00000013	addi	x0,x0,0	  x0:0x00000000
       15895000	      1588	80001644	00000013	addi	x0,x0,0	  x0:0x00000000
       15905000	      1589	80001648	fc9ff0ef	jal	x1,80001648	  x1=0x80001648
       15915000	      1590	00000000	00000013	addi	x0,x0,0	  x0:0x00000000
       15925000	      1591	8000160c	00000013	addi	x0,x0,0	  x0:0x00000000
       15935000	      1592	80001610	02c008ef	jal	x17,80001610	 x17=0x80001610
       15945000	      1593	00000000	00000013	addi	x0,x0,0	  x0:0x00000000
       15955000	      1594	80001638	00000013	addi	x0,x0,0	  x0:0x00000000
       15965000	      1595	8000163c	fcdff0ef	jal	x1,8000163c	  x1=0x8000163c
       15975000	      1596	00000000	00000013	addi	x0,x0,0	  x0:0x00000000
       15985000	      1597	80001604	00000013	addi	x0,x0,0	  x0:0x00000000
       15995000	      1598	80001608	01c000ef	jal	x1,80001608	  x1=0x80001608
       16005000	      1599	00000000	00000013	addi	x0,x0,0	  x0:0x00000000
       16015000	      1600	80001620	00000013	addi	x0,x0,0	  x0:0x00000000
       16025000	      1601	80001624	fddff0ef	jal	x1,80001624	  x1=0x80001624
       16035000	      1602	00000000	00000013	addi	x0,x0,0	  x0:0x00000000
       16045000	      1603	800015fc	00000013	addi	x0,x0,0	  x0:0x00000000
       16055000	      1604	80001600	ffdff0ef	jal	x1,80001600	  x1=0x80001600
       16065000	      1605	00000000	00000013	addi	x0,x0,0	  x0:0x00000000
       16075000	      1606	800015f8	00000013	addi	x0,x0,0	  x0:0x00000000
       16085000	      1607	800015fc	010000ef	jal	x1,800015fc	  x1=0x800015fc
       16095000	      1608	00000000	00000013	addi	x0,x0,0	  x0:0x00000000
       16105000	      1609	80001608	00000013	addi	x0,x0,0	  x0:0x00000000
       16115000	      1610	8000160c	020000ef	jal	x1,8000160c	  x1=0x8000160c
       16125000	      1611	00000000	00000013	addi	x0,x0,0	  x0:0x00000000
       16135000	      1612	80001628	00000013	addi	x0,x0,0	  x0:0x00000000
       16145000	      1613	8000162c	004000ef	jal	x1,8000162c	  x1=0x8000162c
       16155000	      1614	00000000	00000013	addi	x0,x0,0	  x0:0x00000000
       16165000	      1615	8000162c	00000013	addi	x0,x0,0	  x0:0x00000000
       16175000	      1616	80001630	004004ef	jal	x9,80001630	  x9=0x80001630
       16185000	      1617	00000000	00000013	addi	x0,x0,0	  x0:0x00000000
       16195000	      1618	80001630	00000013	addi	x0,x0,0	  x0:0x00000000
       16205000	      1619	80001634	fe1ff0ef	jal	x1,80001634	  x1=0x80001634
       16215000	      1620	00000000	00000013	addi	x0,x0,0	  x0:0x00000000
       16225000	      1621	80001610	00000013	addi	x0,x0,0	  x0:0x00000000
       16235000	      1622	80001614	0380056f	jal	x10,80001614	 x10=0x80001614
       16245000	      1623	00000000	00000013	addi	x0,x0,0	  x0:0x00000000
       16255000	      1624	80001648	00000013	addi	x0,x0,0	  x0:0x00000000
       16265000	      1625	8000164c	ff9ff36f	jal	x6,8000164c	  x6=0x8000164c
       16275000	      1626	00000000	00000013	addi	x0,x0,0	  x0:0x00000000
       16285000	      1627	80001640	00000013	addi	x0,x0,0	  x0:0x00000000
       16295000	      1628	80001644	ffdffeef	jal	x29,80001644	 x29=0x80001644
       16305000	      1629	00000000	00000013	addi	x0,x0,0	  x0:0x00000000
       16315000	      1630	8000163c	00000013	addi	x0,x0,0	  x0:0x00000000
       16325000	      1631	80001640	fe9ff0ef	jal	x1,80001640	  x1=0x80001640
       16335000	      1632	00000000	00000013	addi	x0,x0,0	  x0:0x00000000
       16345000	      1633	80001624	00000013	addi	x0,x0,0	  x0:0x00000000
       16355000	      1634	80001628	01000aef	jal	x21,80001628	 x21=0x80001628
       16365000	      1635	00000000	00000013	addi	x0,x0,0	  x0:0x00000000
       16375000	      1636	80001634	00000013	addi	x0,x0,0	  x0:0x00000000
       16385000	      1637	80001638	fcdff0ef	jal	x1,80001638	  x1=0x80001638
       16395000	      1638	00000000	00000013	addi	x0,x0,0	  x0:0x00000000
       16405000	      1639	80001600	00000013	addi	x0,x0,0	  x0:0x00000000
       16415000	      1640	80001604	0180046f	jal	x8,80001604	  x8=0x80001604
       16425000	      1641	00000000	00000013	addi	x0,x0,0	  x0:0x00000000
       16435000	      1642	80001618	00000013	addi	x0,x0,0	  x0:0x00000000
       16445000	      1643	8000161c	034000ef	jal	x1,8000161c	  x1=0x8000161c
       16455000	      1644	00000000	00000013	addi	x0,x0,0	  x0:0x00000000
       16465000	      1645	8000164c	00000013	addi	x0,x0,0	  x0:0x00000000
       16475000	      1646	80001650	9418ce93	xori	x29,x17,-1727	 x17:0x80001610 x29=0x7fffef51
       16485000	      1647	80001654	02c0036f	jal	x6,80001654	  x6=0x80001654
       16495000	      1648	00000000	00000013	addi	x0,x0,0	  x0:0x00000000
       16505000	      1649	8000167c	00000013	addi	x0,x0,0	  x0:0x00000000
       16515000	      1650	80001680	034002ef	jal	x5,80001680	  x5=0x80001680
       16525000	      1651	00000000	00000013	addi	x0,x0,0	  x0:0x00000000
       16535000	      1652	800016b0	00000013	addi	x0,x0,0	  x0:0x00000000
       16545000	      1653	800016b4	fd1ff0ef	jal	x1,800016b4	  x1=0x800016b4
       16555000	      1654	00000000	00000013	addi	x0,x0,0	  x0:0x00000000
       16565000	      1655	80001680	00000013	addi	x0,x0,0	  x0:0x00000000
       16575000	      1656	80001684	024000ef	jal	x1,80001684	  x1=0x80001684
       16585000	      1657	00000000	00000013	addi	x0,x0,0	  x0:0x00000000
       16595000	      1658	800016a4	00000013	addi	x0,x0,0	  x0:0x00000000
       16605000	      1659	800016a8	fb1ff0ef	jal	x1,800016a8	  x1=0x800016a8
       16615000	      1660	00000000	00000013	addi	x0,x0,0	  x0:0x00000000
       16625000	      1661	80001654	00000013	addi	x0,x0,0	  x0:0x00000000
       16635000	      1662	80001658	00c00fef	jal	x31,80001658	 x31=0x80001658
       16645000	      1663	00000000	00000013	addi	x0,x0,0	  x0:0x00000000
       16655000	      1664	80001660	00000013	addi	x0,x0,0	  x0:0x00000000
       16665000	      1665	80001664	03c0036f	jal	x6,80001664	  x6=0x80001664
       16675000	      1666	00000000	00000013	addi	x0,x0,0	  x0:0x00000000
       16685000	      1667	8000169c	00000013	addi	x0,x0,0	  x0:0x00000000
       16695000	      1668	800016a0	ff9ff0ef	jal	x1,800016a0	  x1=0x800016a0
       16705000	      1669	00000000	00000013	addi	x0,x0,0	  x0:0x00000000
       16715000	      1670	80001694	00000013	addi	x0,x0,0	  x0:0x00000000
       16725000	      1671	80001698	ff9ff0ef	jal	x1,80001698	  x1=0x80001698
       16735000	      1672	00000000	00000013	addi	x0,x0,0	  x0:0x00000000
       16745000	      1673	8000168c	00000013	addi	x0,x0,0	  x0:0x00000000
       16755000	      1674	80001690	fcdffeef	jal	x29,80001690	 x29=0x80001690
       16765000	      1675	00000000	00000013	addi	x0,x0,0	  x0:0x00000000
       16775000	      1676	80001658	00000013	addi	x0,x0,0	  x0:0x00000000
       16785000	      1677	8000165c	01c000ef	jal	x1,8000165c	  x1=0x8000165c
       16795000	      1678	00000000	00000013	addi	x0,x0,0	  x0:0x00000000
       16805000	      1679	80001674	00000013	addi	x0,x0,0	  x0:0x00000000
       16815000	      1680	80001678	034002ef	jal	x5,80001678	  x5=0x80001678
       16825000	      1681	00000000	00000013	addi	x0,x0,0	  x0:0x00000000
       16835000	      1682	800016a8	00000013	addi	x0,x0,0	  x0:0x00000000
       16845000	      1683	800016ac	fb5ff46f	jal	x8,800016ac	  x8=0x800016ac
       16855000	      1684	00000000	00000013	addi	x0,x0,0	  x0:0x00000000
       16865000	      1685	8000165c	00000013	addi	x0,x0,0	  x0:0x00000000
       16875000	      1686	80001660	028000ef	jal	x1,80001660	  x1=0x80001660
       16885000	      1687	00000000	00000013	addi	x0,x0,0	  x0:0x00000000
       16895000	      1688	80001684	00000013	addi	x0,x0,0	  x0:0x00000000
       16905000	      1689	80001688	fe1ff36f	jal	x6,80001688	  x6=0x80001688
       16915000	      1690	00000000	00000013	addi	x0,x0,0	  x0:0x00000000
       16925000	      1691	80001664	00000013	addi	x0,x0,0	  x0:0x00000000
       16935000	      1692	80001668	02c000ef	jal	x1,80001668	  x1=0x80001668
       16945000	      1693	00000000	00000013	addi	x0,x0,0	  x0:0x00000000
       16955000	      1694	80001690	00000013	addi	x0,x0,0	  x0:0x00000000
       16965000	      1695	80001694	01c000ef	jal	x1,80001694	  x1=0x80001694
       16975000	      1696	00000000	00000013	addi	x0,x0,0	  x0:0x00000000
       16985000	      1697	800016ac	00000013	addi	x0,x0,0	  x0:0x00000000
       16995000	      1698	800016b0	fc1ff0ef	jal	x1,800016b0	  x1=0x800016b0
       17005000	      1699	00000000	00000013	addi	x0,x0,0	  x0:0x00000000
       17015000	      1700	8000166c	00000013	addi	x0,x0,0	  x0:0x00000000
       17025000	      1701	80001670	ffdff2ef	jal	x5,80001670	  x5=0x80001670
       17035000	      1702	00000000	00000013	addi	x0,x0,0	  x0:0x00000000
       17045000	      1703	80001668	00000013	addi	x0,x0,0	  x0:0x00000000
       17055000	      1704	8000166c	0100036f	jal	x6,8000166c	  x6=0x8000166c
       17065000	      1705	00000000	00000013	addi	x0,x0,0	  x0:0x00000000
       17075000	      1706	80001678	00000013	addi	x0,x0,0	  x0:0x00000000
       17085000	      1707	8000167c	ff9ff7ef	jal	x15,8000167c	 x15=0x8000167c
       17095000	      1708	00000000	00000013	addi	x0,x0,0	  x0:0x00000000
       17105000	      1709	80001670	00000013	addi	x0,x0,0	  x0:0x00000000
       17115000	      1710	80001674	030000ef	jal	x1,80001674	  x1=0x80001674
       17125000	      1711	00000000	00000013	addi	x0,x0,0	  x0:0x00000000
       17135000	      1712	800016a0	00000013	addi	x0,x0,0	  x0:0x00000000
       17145000	      1713	800016a4	fe9ff0ef	jal	x1,800016a4	  x1=0x800016a4
       17155000	      1714	00000000	00000013	addi	x0,x0,0	  x0:0x00000000
       17165000	      1715	80001688	00000013	addi	x0,x0,0	  x0:0x00000000
       17175000	      1716	8000168c	02c0026f	jal	x4,8000168c	  x4=0x8000168c
       17185000	      1717	00000000	00000013	addi	x0,x0,0	  x0:0x00000000
       17195000	      1718	800016b4	00000013	addi	x0,x0,0	  x0:0x00000000
       17205000	      1719	800016b8	fe5ff0ef	jal	x1,800016b8	  x1=0x800016b8
       17215000	      1720	00000000	00000013	addi	x0,x0,0	  x0:0x00000000
       17225000	      1721	80001698	00000013	addi	x0,x0,0	  x0:0x00000000
       17235000	      1722	8000169c	0200036f	jal	x6,8000169c	  x6=0x8000169c
       17245000	      1723	00000000	00000013	addi	x0,x0,0	  x0:0x00000000
       17255000	      1724	800016b8	00000013	addi	x0,x0,0	  x0:0x00000000
       17265000	      1725	800016bc	1f90f013	andi	x0,x1,505	  x1:0x800016b8
       17275000	      1726	800016c0	0200036f	jal	x6,800016c0	  x6=0x800016c0
       17285000	      1727	00000000	00000013	addi	x0,x0,0	  x0:0x00000000
       17295000	      1728	800016dc	00000013	addi	x0,x0,0	  x0:0x00000000
       17305000	      1729	800016e0	00c000ef	jal	x1,800016e0	  x1=0x800016e0
       17315000	      1730	00000000	00000013	addi	x0,x0,0	  x0:0x00000000
       17325000	      1731	800016e8	00000013	addi	x0,x0,0	  x0:0x00000000
       17335000	      1732	800016ec	00c000ef	jal	x1,800016ec	  x1=0x800016ec
       17345000	      1733	00000000	00000013	addi	x0,x0,0	  x0:0x00000000
       17355000	      1734	800016f4	00000013	addi	x0,x0,0	  x0:0x00000000
       17365000	      1735	800016f8	ffdff0ef	jal	x1,800016f8	  x1=0x800016f8
       17375000	      1736	00000000	00000013	addi	x0,x0,0	  x0:0x00000000
       17385000	      1737	800016f0	00000013	addi	x0,x0,0	  x0:0x00000000
       17395000	      1738	800016f4	fe1ff0ef	jal	x1,800016f4	  x1=0x800016f4
       17405000	      1739	00000000	00000013	addi	x0,x0,0	  x0:0x00000000
       17415000	      1740	800016d0	00000013	addi	x0,x0,0	  x0:0x00000000
       17425000	      1741	800016d4	03c000ef	jal	x1,800016d4	  x1=0x800016d4
       17435000	      1742	00000000	00000013	addi	x0,x0,0	  x0:0x00000000
       17445000	      1743	8000170c	00000013	addi	x0,x0,0	  x0:0x00000000
       17455000	      1744	80001710	ff5ffbef	jal	x23,80001710	 x23=0x80001710
       17465000	      1745	00000000	00000013	addi	x0,x0,0	  x0:0x00000000
       17475000	      1746	80001700	00000013	addi	x0,x0,0	  x0:0x00000000
       17485000	      1747	80001704	fc5ff36f	jal	x6,80001704	  x6=0x80001704
       17495000	      1748	00000000	00000013	addi	x0,x0,0	  x0:0x00000000
       17505000	      1749	800016c4	00000013	addi	x0,x0,0	  x0:0x00000000
       17515000	      1750	800016c8	0340026f	jal	x4,800016c8	  x4=0x800016c8
       17525000	      1751	00000000	00000013	addi	x0,x0,0	  x0:0x00000000
       17535000	      1752	800016f8	00000013	addi	x0,x0,0	  x0:0x00000000
       17545000	      1753	800016fc	fddff0ef	jal	x1,800016fc	  x1=0x800016fc
       17555000	      1754	00000000	00000013	addi	x0,x0,0	  x0:0x00000000
       17565000	      1755	800016d4	00000013	addi	x0,x0,0	  x0:0x00000000
       17575000	      1756	800016d8	ff9ff36f	jal	x6,800016d8	  x6=0x800016d8
       17585000	      1757	00000000	00000013	addi	x0,x0,0	  x0:0x00000000
       17595000	      1758	800016cc	00000013	addi	x0,x0,0	  x0:0x00000000
       17605000	      1759	800016d0	0300036f	jal	x6,800016d0	  x6=0x800016d0
       17615000	      1760	00000000	00000013	addi	x0,x0,0	  x0:0x00000000
       17625000	      1761	800016fc	00000013	addi	x0,x0,0	  x0:0x00000000
       17635000	      1762	80001700	fcdff6ef	jal	x13,80001700	 x13=0x80001700
       17645000	      1763	00000000	00000013	addi	x0,x0,0	  x0:0x00000000
       17655000	      1764	800016c8	00000013	addi	x0,x0,0	  x0:0x00000000
       17665000	      1765	800016cc	018000ef	jal	x1,800016cc	  x1=0x800016cc
       17675000	      1766	00000000	00000013	addi	x0,x0,0	  x0:0x00000000
       17685000	      1767	800016e0	00000013	addi	x0,x0,0	  x0:0x00000000
       17695000	      1768	800016e4	fe1ff0ef	jal	x1,800016e4	  x1=0x800016e4
       17705000	      1769	00000000	00000013	addi	x0,x0,0	  x0:0x00000000
       17715000	      1770	800016c0	00000013	addi	x0,x0,0	  x0:0x00000000
       17725000	      1771	800016c4	02c000ef	jal	x1,800016c4	  x1=0x800016c4
       17735000	      1772	00000000	00000013	addi	x0,x0,0	  x0:0x00000000
       17745000	      1773	800016ec	00000013	addi	x0,x0,0	  x0:0x00000000
       17755000	      1774	800016f0	01c000ef	jal	x1,800016f0	  x1=0x800016f0
       17765000	      1775	00000000	00000013	addi	x0,x0,0	  x0:0x00000000
       17775000	      1776	80001708	00000013	addi	x0,x0,0	  x0:0x00000000
       17785000	      1777	8000170c	fd1ff0ef	jal	x1,8000170c	  x1=0x8000170c
       17795000	      1778	00000000	00000013	addi	x0,x0,0	  x0:0x00000000
       17805000	      1779	800016d8	00000013	addi	x0,x0,0	  x0:0x00000000
       17815000	      1780	800016dc	02c000ef	jal	x1,800016dc	  x1=0x800016dc
       17825000	      1781	00000000	00000013	addi	x0,x0,0	  x0:0x00000000
       17835000	      1782	80001704	00000013	addi	x0,x0,0	  x0:0x00000000
       17845000	      1783	80001708	00c00bef	jal	x23,80001708	 x23=0x80001708
       17855000	      1784	00000000	00000013	addi	x0,x0,0	  x0:0x00000000
       17865000	      1785	80001710	00000013	addi	x0,x0,0	  x0:0x00000000
       17875000	      1786	80001714	fd5ff76f	jal	x14,80001714	 x14=0x80001714
       17885000	      1787	00000000	00000013	addi	x0,x0,0	  x0:0x00000000
       17895000	      1788	800016e4	00000013	addi	x0,x0,0	  x0:0x00000000
       17905000	      1789	800016e8	0300036f	jal	x6,800016e8	  x6=0x800016e8
       17915000	      1790	00000000	00000013	addi	x0,x0,0	  x0:0x00000000
       17925000	      1791	80001714	00000013	addi	x0,x0,0	  x0:0x00000000
       17935000	      1792	80001718	09814f13	xori	x30,x2,152	  x2:0x00000000 x30=0x00000098
       17945000	      1793	8000171c	0340036f	jal	x6,8000171c	  x6=0x8000171c
       17955000	      1794	00000000	00000013	addi	x0,x0,0	  x0:0x00000000
       17965000	      1795	8000174c	00000013	addi	x0,x0,0	  x0:0x00000000
       17975000	      1796	80001750	fedff0ef	jal	x1,80001750	  x1=0x80001750
       17985000	      1797	00000000	00000013	addi	x0,x0,0	  x0:0x00000000
       17995000	      1798	80001738	00000013	addi	x0,x0,0	  x0:0x00000000
       18005000	      1799	8000173c	fe9ff0ef	jal	x1,8000173c	  x1=0x8000173c
       18015000	      1800	00000000	00000013	addi	x0,x0,0	  x0:0x00000000
       18025000	      1801	80001720	00000013	addi	x0,x0,0	  x0:0x00000000
       18035000	      1802	80001724	ffdffaef	jal	x21,80001724	 x21=0x80001724
       18045000	      1803	00000000	00000013	addi	x0,x0,0	  x0:0x00000000
       18055000	      1804	8000171c	00000013	addi	x0,x0,0	  x0:0x00000000
       18065000	      1805	80001720	018000ef	jal	x1,80001720	  x1=0x80001720
       18075000	      1806	00000000	00000013	addi	x0,x0,0	  x0:0x00000000
       18085000	      1807	80001734	00000013	addi	x0,x0,0	  x0:0x00000000
       18095000	      1808	80001738	00c0036f	jal	x6,80001738	  x6=0x80001738
       18105000	      1809	00000000	00000013	addi	x0,x0,0	  x0:0x00000000
       18115000	      1810	80001740	00000013	addi	x0,x0,0	  x0:0x00000000
       18125000	      1811	80001744	010002ef	jal	x5,80001744	  x5=0x80001744
       18135000	      1812	00000000	00000013	addi	x0,x0,0	  x0:0x00000000
       18145000	      1813	80001750	00000013	addi	x0,x0,0	  x0:0x00000000
       18155000	      1814	80001754	fe1ff0ef	jal	x1,80001754	  x1=0x80001754
       18165000	      1815	00000000	00000013	addi	x0,x0,0	  x0:0x00000000
       18175000	      1816	80001730	00000013	addi	x0,x0,0	  x0:0x00000000
       18185000	      1817	80001734	00c005ef	jal	x11,80001734	 x11=0x80001734
       18195000	      1818	00000000	00000013	addi	x0,x0,0	  x0:0x00000000
       18205000	      1819	8000173c	00000013	addi	x0,x0,0	  x0:0x00000000
       18215000	      1820	80001740	ff1ff0ef	jal	x1,80001740	  x1=0x80001740
       18225000	      1821	00000000	00000013	addi	x0,x0,0	  x0:0x00000000
       18235000	      1822	8000172c	00000013	addi	x0,x0,0	  x0:0x00000000
       18245000	      1823	80001730	01c0026f	jal	x4,80001730	  x4=0x80001730
       18255000	      1824	00000000	00000013	addi	x0,x0,0	  x0:0x00000000
       18265000	      1825	80001748	00000013	addi	x0,x0,0	  x0:0x00000000
       18275000	      1826	8000174c	fe1ff0ef	jal	x1,8000174c	  x1=0x8000174c
       18285000	      1827	00000000	00000013	addi	x0,x0,0	  x0:0x00000000
       18295000	      1828	80001728	00000013	addi	x0,x0,0	  x0:0x00000000
       18305000	      1829	8000172c	ffdff0ef	jal	x1,8000172c	  x1=0x8000172c
       18315000	      1830	00000000	00000013	addi	x0,x0,0	  x0:0x00000000
       18325000	      1831	80001724	00000013	addi	x0,x0,0	  x0:0x00000000
       18335000	      1832	80001728	0200036f	jal	x6,80001728	  x6=0x80001728
       18345000	      1833	00000000	00000013	addi	x0,x0,0	  x0:0x00000000
       18355000	      1834	80001744	00000013	addi	x0,x0,0	  x0:0x00000000
       18365000	      1835	80001748	010000ef	jal	x1,80001748	  x1=0x80001748
       18375000	      1836	00000000	00000013	addi	x0,x0,0	  x0:0x00000000
       18385000	      1837	80001754	00000013	addi	x0,x0,0	  x0:0x00000000
       18395000	      1838	80001758	ca72ff93	andi	x31,x5,-857	  x5:0x80001744 x31=0x80001404
       18405000	      1839	8000175c	0100036f	jal	x6,8000175c	  x6=0x8000175c
       18415000	      1840	00000000	00000013	addi	x0,x0,0	  x0:0x00000000
       18425000	      1841	80001768	00000013	addi	x0,x0,0	  x0:0x00000000
       18435000	      1842	8000176c	0400066f	jal	x12,8000176c	 x12=0x8000176c
       18445000	      1843	00000000	00000013	addi	x0,x0,0	  x0:0x00000000
       18455000	      1844	800017a8	00000013	addi	x0,x0,0	  x0:0x00000000
       18465000	      1845	800017ac	004000ef	jal	x1,800017ac	  x1=0x800017ac
       18475000	      1846	00000000	00000013	addi	x0,x0,0	  x0:0x00000000
       18485000	      1847	800017ac	00000013	addi	x0,x0,0	  x0:0x00000000
       18495000	      1848	800017b0	fd9ff0ef	jal	x1,800017b0	  x1=0x800017b0
       18505000	      1849	00000000	00000013	addi	x0,x0,0	  x0:0x00000000
       18515000	      1850	80001784	00000013	addi	x0,x0,0	  x0:0x00000000
       18525000	      1851	80001788	030000ef	jal	x1,80001788	  x1=0x80001788
       18535000	      1852	00000000	00000013	addi	x0,x0,0	  x0:0x00000000
       18545000	      1853	800017b4	00000013	addi	x0,x0,0	  x0:0x00000000
       18555000	      1854	800017b8	fc1ff0ef	jal	x1,800017b8	  x1=0x800017b8
       18565000	      1855	00000000	00000013	addi	x0,x0,0	  x0:0x00000000
       18575000	      1856	80001774	00000013	addi	x0,x0,0	  x0:0x00000000
       18585000	      1857	80001778	03c000ef	jal	x1,80001778	  x1=0x80001778
       18595000	      1858	00000000	00000013	addi	x0,x0,0	  x0:0x00000000
       18605000	      1859	800017b0	00000013	addi	x0,x0,0	  x0:0x00000000
       18615000	      1860	800017b4	fb5ff36f	jal	x6,800017b4	  x6=0x800017b4
       18625000	      1861	00000000	00000013	addi	x0,x0,0	  x0:0x00000000
       18635000	      1862	80001764	00000013	addi	x0,x0,0	  x0:0x00000000
       18645000	      1863	80001768	014000ef	jal	x1,80001768	  x1=0x80001768
       18655000	      1864	00000000	00000013	addi	x0,x0,0	  x0:0x00000000
       18665000	      1865	80001778	00000013	addi	x0,x0,0	  x0:0x00000000
       18675000	      1866	8000177c	0200036f	jal	x6,8000177c	  x6=0x8000177c
       18685000	      1867	00000000	00000013	addi	x0,x0,0	  x0:0x00000000
       18695000	      1868	80001798	00000013	addi	x0,x0,0	  x0:0x00000000
       18705000	      1869	8000179c	fd9fffef	jal	x31,8000179c	 x31=0x8000179c
       18715000	      1870	00000000	00000013	addi	x0,x0,0	  x0:0x00000000
       18725000	      1871	80001770	00000013	addi	x0,x0,0	  x0:0x00000000
       18735000	      1872	80001774	fedff1ef	jal	x3,80001774	  x3=0x80001774
       18745000	      1873	00000000	00000013	addi	x0,x0,0	  x0:0x00000000
       18755000	      1874	8000175c	00000013	addi	x0,x0,0	  x0:0x00000000
       18765000	      1875	80001760	048000ef	jal	x1,80001760	  x1=0x80001760
       18775000	      1876	00000000	00000013	addi	x0,x0,0	  x0:0x00000000
       18785000	      1877	800017a4	00000013	addi	x0,x0,0	  x0:0x00000000
       18795000	      1878	800017a8	fe5ff36f	jal	x6,800017a8	  x6=0x800017a8
       18805000	      1879	00000000	00000013	addi	x0,x0,0	  x0:0x00000000
       18815000	      1880	80001788	00000013	addi	x0,x0,0	  x0:0x00000000
       18825000	      1881	8000178c	fe5ff0ef	jal	x1,8000178c	  x1=0x8000178c
       18835000	      1882	00000000	00000013	addi	x0,x0,0	  x0:0x00000000
       18845000	      1883	8000176c	00000013	addi	x0,x0,0	  x0:0x00000000
       18855000	      1884	80001770	024001ef	jal	x3,80001770	  x3=0x80001770
       18865000	      1885	00000000	00000013	addi	x0,x0,0	  x0:0x00000000
       18875000	      1886	80001790	00000013	addi	x0,x0,0	  x0:0x00000000
       18885000	      1887	80001794	ff1ff36f	jal	x6,80001794	  x6=0x80001794
       18895000	      1888	00000000	00000013	addi	x0,x0,0	  x0:0x00000000
       18905000	      1889	80001780	00000013	addi	x0,x0,0	  x0:0x00000000
       18915000	      1890	80001784	01c0036f	jal	x6,80001784	  x6=0x80001784
       18925000	      1891	00000000	00000013	addi	x0,x0,0	  x0:0x00000000
       18935000	      1892	8000179c	00000013	addi	x0,x0,0	  x0:0x00000000
       18945000	      1893	800017a0	fc5ff36f	jal	x6,800017a0	  x6=0x800017a0
       18955000	      1894	00000000	00000013	addi	x0,x0,0	  x0:0x00000000
       18965000	      1895	80001760	00000013	addi	x0,x0,0	  x0:0x00000000
       18975000	      1896	80001764	034000ef	jal	x1,80001764	  x1=0x80001764
       18985000	      1897	00000000	00000013	addi	x0,x0,0	  x0:0x00000000
       18995000	      1898	80001794	00000013	addi	x0,x0,0	  x0:0x00000000
       19005000	      1899	80001798	00c000ef	jal	x1,80001798	  x1=0x80001798
       19015000	      1900	00000000	00000013	addi	x0,x0,0	  x0:0x00000000
       19025000	      1901	800017a0	00000013	addi	x0,x0,0	  x0:0x00000000
       19035000	      1902	800017a4	fddff0ef	jal	x1,800017a4	  x1=0x800017a4
       19045000	      1903	00000000	00000013	addi	x0,x0,0	  x0:0x00000000
       19055000	      1904	8000177c	00000013	addi	x0,x0,0	  x0:0x00000000
       19065000	      1905	80001780	010001ef	jal	x3,80001780	  x3=0x80001780
       19075000	      1906	00000000	00000013	addi	x0,x0,0	  x0:0x00000000
       19085000	      1907	8000178c	00000013	addi	x0,x0,0	  x0:0x00000000
       19095000	      1908	80001790	02c000ef	jal	x1,80001790	  x1=0x80001790
       19105000	      1909	00000000	00000013	addi	x0,x0,0	  x0:0x00000000
       19115000	      1910	800017b8	00000013	addi	x0,x0,0	  x0:0x00000000
       19125000	      1911	800017bc	5457a513	slti	x10,x15,1349	 x15:0x8000167c x10=0x00000001
       19135000	      1912	800017c0	0200036f	jal	x6,800017c0	  x6=0x800017c0
       19145000	      1913	00000000	00000013	addi	x0,x0,0	  x0:0x00000000
       19155000	      1914	800017dc	00000013	addi	x0,x0,0	  x0:0x00000000
       19165000	      1915	800017e0	fe5ff0ef	jal	x1,800017e0	  x1=0x800017e0
       19175000	      1916	00000000	00000013	addi	x0,x0,0	  x0:0x00000000
       19185000	      1917	800017c0	00000013	addi	x0,x0,0	  x0:0x00000000
       19195000	      1918	800017c4	0380036f	jal	x6,800017c4	  x6=0x800017c4
       19205000	      1919	00000000	00000013	addi	x0,x0,0	  x0:0x00000000
       19215000	      1920	800017f8	00000013	addi	x0,x0,0	  x0:0x00000000
       19225000	      1921	800017fc	fddffb6f	jal	x22,800017fc	 x22=0x800017fc
       19235000	      1922	00000000	00000013	addi	x0,x0,0	  x0:0x00000000
       19245000	      1923	800017d4	00000013	addi	x0,x0,0	  x0:0x00000000
       19255000	      1924	800017d8	02c000ef	jal	x1,800017d8	  x1=0x800017d8
       19265000	      1925	00000000	00000013	addi	x0,x0,0	  x0:0x00000000
       19275000	      1926	80001800	00000013	addi	x0,x0,0	  x0:0x00000000
       19285000	      1927	80001804	fc9ff26f	jal	x4,80001804	  x4=0x80001804
       19295000	      1928	00000000	00000013	addi	x0,x0,0	  x0:0x00000000
       19305000	      1929	800017c8	00000013	addi	x0,x0,0	  x0:0x00000000
       19315000	      1930	800017cc	01c001ef	jal	x3,800017cc	  x3=0x800017cc
       19325000	      1931	00000000	00000013	addi	x0,x0,0	  x0:0x00000000
       19335000	      1932	800017e4	00000013	addi	x0,x0,0	  x0:0x00000000
       19345000	      1933	800017e8	fe1ff26f	jal	x4,800017e8	  x4=0x800017e8
       19355000	      1934	00000000	00000013	addi	x0,x0,0	  x0:0x00000000
       19365000	      1935	800017c4	00000013	addi	x0,x0,0	  x0:0x00000000
       19375000	      1936	800017c8	044001ef	jal	x3,800017c8	  x3=0x800017c8
       19385000	      1937	00000000	00000013	addi	x0,x0,0	  x0:0x00000000
       19395000	      1938	80001808	00000013	addi	x0,x0,0	  x0:0x00000000
       19405000	      1939	8000180c	ffdff3ef	jal	x7,8000180c	  x7=0x8000180c
       19415000	      1940	00000000	00000013	addi	x0,x0,0	  x0:0x00000000
       19425000	      1941	80001804	00000013	addi	x0,x0,0	  x0:0x00000000
       19435000	      1942	80001808	fc9ff66f	jal	x12,80001808	 x12=0x80001808
       19445000	      1943	00000000	00000013	addi	x0,x0,0	  x0:0x00000000
       19455000	      1944	800017cc	00000013	addi	x0,x0,0	  x0:0x00000000
       19465000	      1945	800017d0	0200036f	jal	x6,800017d0	  x6=0x800017d0
       19475000	      1946	00000000	00000013	addi	x0,x0,0	  x0:0x00000000
       19485000	      1947	800017ec	00000013	addi	x0,x0,0	  x0:0x00000000
       19495000	      1948	800017f0	fe5ff36f	jal	x6,800017f0	  x6=0x800017f0
       19505000	      1949	00000000	00000013	addi	x0,x0,0	  x0:0x00000000
       19515000	      1950	800017d0	00000013	addi	x0,x0,0	  x0:0x00000000
       19525000	      1951	800017d4	018000ef	jal	x1,800017d4	  x1=0x800017d4
       19535000	      1952	00000000	00000013	addi	x0,x0,0	  x0:0x00000000
       19545000	      1953	800017e8	00000013	addi	x0,x0,0	  x0:0x00000000
       19555000	      1954	800017ec	00c0096f	jal	x18,800017ec	 x18=0x800017ec
       19565000	      1955	00000000	00000013	addi	x0,x0,0	  x0:0x00000000
       19575000	      1956	800017f4	00000013	addi	x0,x0,0	  x0:0x00000000
       19585000	      1957	800017f8	008006ef	jal	x13,800017f8	 x13=0x800017f8
       19595000	      1958	00000000	00000013	addi	x0,x0,0	  x0:0x00000000
       19605000	      1959	800017fc	00000013	addi	x0,x0,0	  x0:0x00000000
       19615000	      1960	80001800	fe5ff0ef	jal	x1,80001800	  x1=0x80001800
       19625000	      1961	00000000	00000013	addi	x0,x0,0	  x0:0x00000000
       19635000	      1962	800017e0	00000013	addi	x0,x0,0	  x0:0x00000000
       19645000	      1963	800017e4	0100036f	jal	x6,800017e4	  x6=0x800017e4
       19655000	      1964	00000000	00000013	addi	x0,x0,0	  x0:0x00000000
       19665000	      1965	800017f0	00000013	addi	x0,x0,0	  x0:0x00000000
       19675000	      1966	800017f4	fe9ff36f	jal	x6,800017f4	  x6=0x800017f4
       19685000	      1967	00000000	00000013	addi	x0,x0,0	  x0:0x00000000
       19695000	      1968	800017d8	00000013	addi	x0,x0,0	  x0:0x00000000
       19705000	      1969	800017dc	034000ef	jal	x1,800017dc	  x1=0x800017dc
       19715000	      1970	00000000	00000013	addi	x0,x0,0	  x0:0x00000000
       19725000	      1971	8000180c	00000013	addi	x0,x0,0	  x0:0x00000000
       19735000	      1972	80001810	c042ee13	ori	x28,x5,-1020	  x5:0x80001744 x28=0xffffff44
       19745000	      1973	80001814	0340036f	jal	x6,80001814	  x6=0x80001814
       19755000	      1974	00000000	00000013	addi	x0,x0,0	  x0:0x00000000
       19765000	      1975	80001844	00000013	addi	x0,x0,0	  x0:0x00000000
       19775000	      1976	80001848	024000ef	jal	x1,80001848	  x1=0x80001848
       19785000	      1977	00000000	00000013	addi	x0,x0,0	  x0:0x00000000
       19795000	      1978	80001868	00000013	addi	x0,x0,0	  x0:0x00000000
       19805000	      1979	8000186c	fd1ff0ef	jal	x1,8000186c	  x1=0x8000186c
       19815000	      1980	00000000	00000013	addi	x0,x0,0	  x0:0x00000000
       19825000	      1981	80001838	00000013	addi	x0,x0,0	  x0:0x00000000
       19835000	      1982	8000183c	fe5ff26f	jal	x4,8000183c	  x4=0x8000183c
       19845000	      1983	00000000	00000013	addi	x0,x0,0	  x0:0x00000000
       19855000	      1984	8000181c	00000013	addi	x0,x0,0	  x0:0x00000000
       19865000	      1985	80001820	054000ef	jal	x1,80001820	  x1=0x80001820
       19875000	      1986	00000000	00000013	addi	x0,x0,0	  x0:0x00000000
       19885000	      1987	80001870	00000013	addi	x0,x0,0	  x0:0x00000000
       19895000	      1988	80001874	ffdff36f	jal	x6,80001874	  x6=0x80001874
       19905000	      1989	00000000	00000013	addi	x0,x0,0	  x0:0x00000000
       19915000	      1990	8000186c	00000013	addi	x0,x0,0	  x0:0x00000000
       19925000	      1991	80001870	ff5ff0ef	jal	x1,80001870	  x1=0x80001870
       19935000	      1992	00000000	00000013	addi	x0,x0,0	  x0:0x00000000
       19945000	      1993	80001860	00000013	addi	x0,x0,0	  x0:0x00000000
       19955000	      1994	80001864	ff9ff36f	jal	x6,80001864	  x6=0x80001864
       19965000	      1995	00000000	00000013	addi	x0,x0,0	  x0:0x00000000
       19975000	      1996	80001858	00000013	addi	x0,x0,0	  x0:0x00000000
       19985000	      1997	8000185c	fc9ff0ef	jal	x1,8000185c	  x1=0x8000185c
       19995000	      1998	00000000	00000013	addi	x0,x0,0	  x0:0x00000000
       20005000	      1999	80001820	00000013	addi	x0,x0,0	  x0:0x00000000
       20015000	      2000	80001824	0440036f	jal	x6,80001824	  x6=0x80001824
       20025000	      2001	00000000	00000013	addi	x0,x0,0	  x0:0x00000000
       20035000	      2002	80001864	00000013	addi	x0,x0,0	  x0:0x00000000
       20045000	      2003	80001868	ff1ff5ef	jal	x11,80001868	 x11=0x80001868
       20055000	      2004	00000000	00000013	addi	x0,x0,0	  x0:0x00000000
       20065000	      2005	80001854	00000013	addi	x0,x0,0	  x0:0x00000000
       20075000	      2006	80001858	fedff0ef	jal	x1,80001858	  x1=0x80001858
       20085000	      2007	00000000	00000013	addi	x0,x0,0	  x0:0x00000000
       20095000	      2008	80001840	00000013	addi	x0,x0,0	  x0:0x00000000
       20105000	      2009	80001844	0340036f	jal	x6,80001844	  x6=0x80001844
       20115000	      2010	00000000	00000013	addi	x0,x0,0	  x0:0x00000000
       20125000	      2011	80001874	00000013	addi	x0,x0,0	  x0:0x00000000
       20135000	      2012	80001878	fa5ff0ef	jal	x1,80001878	  x1=0x80001878
       20145000	      2013	00000000	00000013	addi	x0,x0,0	  x0:0x00000000
       20155000	      2014	80001818	00000013	addi	x0,x0,0	  x0:0x00000000
       20165000	      2015	8000181c	038000ef	jal	x1,8000181c	  x1=0x8000181c
       20175000	      2016	00000000	00000013	addi	x0,x0,0	  x0:0x00000000
       20185000	      2017	80001850	00000013	addi	x0,x0,0	  x0:0x00000000
       20195000	      2018	80001854	00c000ef	jal	x1,80001854	  x1=0x80001854
       20205000	      2019	00000000	00000013	addi	x0,x0,0	  x0:0x00000000
       20215000	      2020	8000185c	00000013	addi	x0,x0,0	  x0:0x00000000
       20225000	      2021	80001860	fcdff2ef	jal	x5,80001860	  x5=0x80001860
       20235000	      2022	00000000	00000013	addi	x0,x0,0	  x0:0x00000000
       20245000	      2023	80001828	00000013	addi	x0,x0,0	  x0:0x00000000
       20255000	      2024	8000182c	fedff0ef	jal	x1,8000182c	  x1=0x8000182c
       20265000	      2025	00000000	00000013	addi	x0,x0,0	  x0:0x00000000
       20275000	      2026	80001814	00000013	addi	x0,x0,0	  x0:0x00000000
       20285000	      2027	80001818	038000ef	jal	x1,80001818	  x1=0x80001818
       20295000	      2028	00000000	00000013	addi	x0,x0,0	  x0:0x00000000
       20305000	      2029	8000184c	00000013	addi	x0,x0,0	  x0:0x00000000
       20315000	      2030	80001850	fe9ff36f	jal	x6,80001850	  x6=0x80001850
       20325000	      2031	00000000	00000013	addi	x0,x0,0	  x0:0x00000000
       20335000	      2032	80001834	00000013	addi	x0,x0,0	  x0:0x00000000
       20345000	      2033	80001838	ffdff36f	jal	x6,80001838	  x6=0x80001838
       20355000	      2034	00000000	00000013	addi	x0,x0,0	  x0:0x00000000
       20365000	      2035	80001830	00000013	addi	x0,x0,0	  x0:0x00000000
       20375000	      2036	80001834	00c000ef	jal	x1,80001834	  x1=0x80001834
       20385000	      2037	00000000	00000013	addi	x0,x0,0	  x0:0x00000000
       20395000	      2038	8000183c	00000013	addi	x0,x0,0	  x0:0x00000000
       20405000	      2039	80001840	ff1ffeef	jal	x29,80001840	 x29=0x80001840
       20415000	      2040	00000000	00000013	addi	x0,x0,0	  x0:0x00000000
       20425000	      2041	8000182c	00000013	addi	x0,x0,0	  x0:0x00000000
       20435000	      2042	80001830	ff9ff0ef	jal	x1,80001830	  x1=0x80001830
       20445000	      2043	00000000	00000013	addi	x0,x0,0	  x0:0x00000000
       20455000	      2044	80001824	00000013	addi	x0,x0,0	  x0:0x00000000
       20465000	      2045	80001828	024000ef	jal	x1,80001828	  x1=0x80001828
       20475000	      2046	00000000	00000013	addi	x0,x0,0	  x0:0x00000000
       20485000	      2047	80001848	00000013	addi	x0,x0,0	  x0:0x00000000
       20495000	      2048	8000184c	030002ef	jal	x5,8000184c	  x5=0x8000184c
       20505000	      2049	00000000	00000013	addi	x0,x0,0	  x0:0x00000000
       20515000	      2050	80001878	00000013	addi	x0,x0,0	  x0:0x00000000
       20525000	      2051	8000187c	002adc13	srli	x24,x21,0x2	 x21:0x80001724 x24=0x200005c9
       20535000	      2052	80001880	0080036f	jal	x6,80001880	  x6=0x80001880
       20545000	      2053	00000000	00000013	addi	x0,x0,0	  x0:0x00000000
       20555000	      2054	80001884	00000013	addi	x0,x0,0	  x0:0x00000000
       20565000	      2055	80001888	014000ef	jal	x1,80001888	  x1=0x80001888
       20575000	      2056	00000000	00000013	addi	x0,x0,0	  x0:0x00000000
       20585000	      2057	80001898	00000013	addi	x0,x0,0	  x0:0x00000000
       20595000	      2058	8000189c	018002ef	jal	x5,8000189c	  x5=0x8000189c
       20605000	      2059	00000000	00000013	addi	x0,x0,0	  x0:0x00000000
       20615000	      2060	800018b0	00000013	addi	x0,x0,0	  x0:0x00000000
       20625000	      2061	800018b4	008000ef	jal	x1,800018b4	  x1=0x800018b4
       20635000	      2062	00000000	00000013	addi	x0,x0,0	  x0:0x00000000
       20645000	      2063	800018b8	00000013	addi	x0,x0,0	  x0:0x00000000
       20655000	      2064	800018bc	024000ef	jal	x1,800018bc	  x1=0x800018bc
       20665000	      2065	00000000	00000013	addi	x0,x0,0	  x0:0x00000000
       20675000	      2066	800018dc	00000013	addi	x0,x0,0	  x0:0x00000000
       20685000	      2067	800018e0	00c000ef	jal	x1,800018e0	  x1=0x800018e0
       20695000	      2068	00000000	00000013	addi	x0,x0,0	  x0:0x00000000
       20705000	      2069	800018e8	00000013	addi	x0,x0,0	  x0:0x00000000
       20715000	      2070	800018ec	0040066f	jal	x12,800018ec	 x12=0x800018ec
       20725000	      2071	00000000	00000013	addi	x0,x0,0	  x0:0x00000000
       20735000	      2072	800018ec	00000013	addi	x0,x0,0	  x0:0x00000000
       20745000	      2073	800018f0	fa1ff0ef	jal	x1,800018f0	  x1=0x800018f0
       20755000	      2074	00000000	00000013	addi	x0,x0,0	  x0:0x00000000
       20765000	      2075	8000188c	00000013	addi	x0,x0,0	  x0:0x00000000
       20775000	      2076	80001890	048000ef	jal	x1,80001890	  x1=0x80001890
       20785000	      2077	00000000	00000013	addi	x0,x0,0	  x0:0x00000000
       20795000	      2078	800018d4	00000013	addi	x0,x0,0	  x0:0x00000000
       20805000	      2079	800018d8	fe9ff36f	jal	x6,800018d8	  x6=0x800018d8
       20815000	      2080	00000000	00000013	addi	x0,x0,0	  x0:0x00000000
       20825000	      2081	800018bc	00000013	addi	x0,x0,0	  x0:0x00000000
       20835000	      2082	800018c0	fe5ff2ef	jal	x5,800018c0	  x5=0x800018c0
       20845000	      2083	00000000	00000013	addi	x0,x0,0	  x0:0x00000000
       20855000	      2084	800018a0	00000013	addi	x0,x0,0	  x0:0x00000000
       20865000	      2085	800018a4	ff1ff26f	jal	x4,800018a4	  x4=0x800018a4
       20875000	      2086	00000000	00000013	addi	x0,x0,0	  x0:0x00000000
       20885000	      2087	80001890	00000013	addi	x0,x0,0	  x0:0x00000000
       20895000	      2088	80001894	0500026f	jal	x4,80001894	  x4=0x80001894
       20905000	      2089	00000000	00000013	addi	x0,x0,0	  x0:0x00000000
       20915000	      2090	800018e0	00000013	addi	x0,x0,0	  x0:0x00000000
       20925000	      2091	800018e4	fe5ff0ef	jal	x1,800018e4	  x1=0x800018e4
       20935000	      2092	00000000	00000013	addi	x0,x0,0	  x0:0x00000000
       20945000	      2093	800018c4	00000013	addi	x0,x0,0	  x0:0x00000000
       20955000	      2094	800018c8	fe5ff36f	jal	x6,800018c8	  x6=0x800018c8
       20965000	      2095	00000000	00000013	addi	x0,x0,0	  x0:0x00000000
       20975000	      2096	800018a8	00000013	addi	x0,x0,0	  x0:0x00000000
       20985000	      2097	800018ac	fedff0ef	jal	x1,800018ac	  x1=0x800018ac
       20995000	      2098	00000000	00000013	addi	x0,x0,0	  x0:0x00000000
       21005000	      2099	80001894	00000013	addi	x0,x0,0	  x0:0x00000000
       21015000	      2100	80001898	034000ef	jal	x1,80001898	  x1=0x80001898
       21025000	      2101	00000000	00000013	addi	x0,x0,0	  x0:0x00000000
       21035000	      2102	800018c8	00000013	addi	x0,x0,0	  x0:0x00000000
       21045000	      2103	800018cc	004000ef	jal	x1,800018cc	  x1=0x800018cc
       21055000	      2104	00000000	00000013	addi	x0,x0,0	  x0:0x00000000
       21065000	      2105	800018cc	00000013	addi	x0,x0,0	  x0:0x00000000
       21075000	      2106	800018d0	fe9ff0ef	jal	x1,800018d0	  x1=0x800018d0
       21085000	      2107	00000000	00000013	addi	x0,x0,0	  x0:0x00000000
       21095000	      2108	800018b4	00000013	addi	x0,x0,0	  x0:0x00000000
       21105000	      2109	800018b8	030002ef	jal	x5,800018b8	  x5=0x800018b8
       21115000	      2110	00000000	00000013	addi	x0,x0,0	  x0:0x00000000
       21125000	      2111	800018e4	00000013	addi	x0,x0,0	  x0:0x00000000
       21135000	      2112	800018e8	f9dff0ef	jal	x1,800018e8	  x1=0x800018e8
       21145000	      2113	00000000	00000013	addi	x0,x0,0	  x0:0x00000000
       21155000	      2114	80001880	00000013	addi	x0,x0,0	  x0:0x00000000
       21165000	      2115	80001884	008000ef	jal	x1,80001884	  x1=0x80001884
       21175000	      2116	00000000	00000013	addi	x0,x0,0	  x0:0x00000000
       21185000	      2117	80001888	00000013	addi	x0,x0,0	  x0:0x00000000
       21195000	      2118	8000188c	014000ef	jal	x1,8000188c	  x1=0x8000188c
       21205000	      2119	00000000	00000013	addi	x0,x0,0	  x0:0x00000000
       21215000	      2120	8000189c	00000013	addi	x0,x0,0	  x0:0x00000000
       21225000	      2121	800018a0	010000ef	jal	x1,800018a0	  x1=0x800018a0
       21235000	      2122	00000000	00000013	addi	x0,x0,0	  x0:0x00000000
       21245000	      2123	800018ac	00000013	addi	x0,x0,0	  x0:0x00000000
       21255000	      2124	800018b0	0140096f	jal	x18,800018b0	 x18=0x800018b0
       21265000	      2125	00000000	00000013	addi	x0,x0,0	  x0:0x00000000
       21275000	      2126	800018c0	00000013	addi	x0,x0,0	  x0:0x00000000
       21285000	      2127	800018c4	018000ef	jal	x1,800018c4	  x1=0x800018c4
       21295000	      2128	00000000	00000013	addi	x0,x0,0	  x0:0x00000000
       21305000	      2129	800018d8	00000013	addi	x0,x0,0	  x0:0x00000000
       21315000	      2130	800018dc	fcdff0ef	jal	x1,800018dc	  x1=0x800018dc
       21325000	      2131	00000000	00000013	addi	x0,x0,0	  x0:0x00000000
       21335000	      2132	800018a4	00000013	addi	x0,x0,0	  x0:0x00000000
       21345000	      2133	800018a8	02c0036f	jal	x6,800018a8	  x6=0x800018a8
       21355000	      2134	00000000	00000013	addi	x0,x0,0	  x0:0x00000000
       21365000	      2135	800018d0	00000013	addi	x0,x0,0	  x0:0x00000000
       21375000	      2136	800018d4	0200036f	jal	x6,800018d4	  x6=0x800018d4
       21385000	      2137	00000000	00000013	addi	x0,x0,0	  x0:0x00000000
       21395000	      2138	800018f0	00000013	addi	x0,x0,0	  x0:0x00000000
       21405000	      2139	800018f4	df9f3593	sltiu	x11,x30,-519	 x30:0x00000098 x11=0x00000001
       21415000	      2140	800018f8	0140036f	jal	x6,800018f8	  x6=0x800018f8
       21425000	      2141	00000000	00000013	addi	x0,x0,0	  x0:0x00000000
       21435000	      2142	80001908	00000013	addi	x0,x0,0	  x0:0x00000000
       21445000	      2143	8000190c	044000ef	jal	x1,8000190c	  x1=0x8000190c
       21455000	      2144	00000000	00000013	addi	x0,x0,0	  x0:0x00000000
       21465000	      2145	8000194c	00000013	addi	x0,x0,0	  x0:0x00000000
       21475000	      2146	80001950	fe9ff0ef	jal	x1,80001950	  x1=0x80001950
       21485000	      2147	00000000	00000013	addi	x0,x0,0	  x0:0x00000000
       21495000	      2148	80001934	00000013	addi	x0,x0,0	  x0:0x00000000
       21505000	      2149	80001938	fedff0ef	jal	x1,80001938	  x1=0x80001938
       21515000	      2150	00000000	00000013	addi	x0,x0,0	  x0:0x00000000
       21525000	      2151	80001920	00000013	addi	x0,x0,0	  x0:0x00000000
       21535000	      2152	80001924	00c000ef	jal	x1,80001924	  x1=0x80001924
       21545000	      2153	00000000	00000013	addi	x0,x0,0	  x0:0x00000000
       21555000	      2154	8000192c	00000013	addi	x0,x0,0	  x0:0x00000000
       21565000	      2155	80001930	fedff0ef	jal	x1,80001930	  x1=0x80001930
       21575000	      2156	00000000	00000013	addi	x0,x0,0	  x0:0x00000000
       21585000	      2157	80001918	00000013	addi	x0,x0,0	  x0:0x00000000
       21595000	      2158	8000191c	fe5ff1ef	jal	x3,8000191c	  x3=0x8000191c
       21605000	      2159	00000000	00000013	addi	x0,x0,0	  x0:0x00000000
       21615000	      2160	800018fc	00000013	addi	x0,x0,0	  x0:0x00000000
       21625000	      2161	80001900	004000ef	jal	x1,80001900	  x1=0x80001900
       21635000	      2162	00000000	00000013	addi	x0,x0,0	  x0:0x00000000
       21645000	      2163	80001900	00000013	addi	x0,x0,0	  x0:0x00000000
       21655000	      2164	80001904	010007ef	jal	x15,80001904	 x15=0x80001904
       21665000	      2165	00000000	00000013	addi	x0,x0,0	  x0:0x00000000
       21675000	      2166	80001910	00000013	addi	x0,x0,0	  x0:0x00000000
       21685000	      2167	80001914	ffdff36f	jal	x6,80001914	  x6=0x80001914
       21695000	      2168	00000000	00000013	addi	x0,x0,0	  x0:0x00000000
       21705000	      2169	8000190c	00000013	addi	x0,x0,0	  x0:0x00000000
       21715000	      2170	80001910	fedff0ef	jal	x1,80001910	  x1=0x80001910
       21725000	      2171	00000000	00000013	addi	x0,x0,0	  x0:0x00000000
       21735000	      2172	800018f8	00000013	addi	x0,x0,0	  x0:0x00000000
       21745000	      2173	800018fc	060000ef	jal	x1,800018fc	  x1=0x800018fc
       21755000	      2174	00000000	00000013	addi	x0,x0,0	  x0:0x00000000
       21765000	      2175	80001958	00000013	addi	x0,x0,0	  x0:0x00000000
       21775000	      2176	8000195c	fbdff46f	jal	x8,8000195c	  x8=0x8000195c
       21785000	      2177	00000000	00000013	addi	x0,x0,0	  x0:0x00000000
       21795000	      2178	80001914	00000013	addi	x0,x0,0	  x0:0x00000000
       21805000	      2179	80001918	0340026f	jal	x4,80001918	  x4=0x80001918
       21815000	      2180	00000000	00000013	addi	x0,x0,0	  x0:0x00000000
       21825000	      2181	80001948	00000013	addi	x0,x0,0	  x0:0x00000000
       21835000	      2182	8000194c	00c0086f	jal	x16,8000194c	 x16=0x8000194c
       21845000	      2183	00000000	00000013	addi	x0,x0,0	  x0:0x00000000
       21855000	      2184	80001954	00000013	addi	x0,x0,0	  x0:0x00000000
       21865000	      2185	80001958	ffdff36f	jal	x6,80001958	  x6=0x80001958
       21875000	      2186	00000000	00000013	addi	x0,x0,0	  x0:0x00000000
       21885000	      2187	80001950	00000013	addi	x0,x0,0	  x0:0x00000000
       21895000	      2188	80001954	fd5ff0ef	jal	x1,80001954	  x1=0x80001954
       21905000	      2189	00000000	00000013	addi	x0,x0,0	  x0:0x00000000
       21915000	      2190	80001924	00000013	addi	x0,x0,0	  x0:0x00000000
       21925000	      2191	80001928	014007ef	jal	x15,80001928	 x15=0x80001928
       21935000	      2192	00000000	00000013	addi	x0,x0,0	  x0:0x00000000
       21945000	      2193	80001938	00000013	addi	x0,x0,0	  x0:0x00000000
       21955000	      2194	8000193c	fe5ff26f	jal	x4,8000193c	  x4=0x8000193c
       21965000	      2195	00000000	00000013	addi	x0,x0,0	  x0:0x00000000
       21975000	      2196	8000191c	00000013	addi	x0,x0,0	  x0:0x00000000
       21985000	      2197	80001920	014000ef	jal	x1,80001920	  x1=0x80001920
       21995000	      2198	00000000	00000013	addi	x0,x0,0	  x0:0x00000000
       22005000	      2199	80001930	00000013	addi	x0,x0,0	  x0:0x00000000
       22015000	      2200	80001934	fd5ff36f	jal	x6,80001934	  x6=0x80001934
       22025000	      2201	00000000	00000013	addi	x0,x0,0	  x0:0x00000000
       22035000	      2202	80001904	00000013	addi	x0,x0,0	  x0:0x00000000
       22045000	      2203	80001908	03c000ef	jal	x1,80001908	  x1=0x80001908
       22055000	      2204	00000000	00000013	addi	x0,x0,0	  x0:0x00000000
       22065000	      2205	80001940	00000013	addi	x0,x0,0	  x0:0x00000000
       22075000	      2206	80001944	fe9ff36f	jal	x6,80001944	  x6=0x80001944
       22085000	      2207	00000000	00000013	addi	x0,x0,0	  x0:0x00000000
       22095000	      2208	80001928	00000013	addi	x0,x0,0	  x0:0x00000000
       22105000	      2209	8000192c	0140036f	jal	x6,8000192c	  x6=0x8000192c
       22115000	      2210	00000000	00000013	addi	x0,x0,0	  x0:0x00000000
       22125000	      2211	8000193c	00000013	addi	x0,x0,0	  x0:0x00000000
       22135000	      2212	80001940	008000ef	jal	x1,80001940	  x1=0x80001940
       22145000	      2213	00000000	00000013	addi	x0,x0,0	  x0:0x00000000
       22155000	      2214	80001944	00000013	addi	x0,x0,0	  x0:0x00000000
       22165000	      2215	80001948	018000ef	jal	x1,80001948	  x1=0x80001948
       22175000	      2216	00000000	00000013	addi	x0,x0,0	  x0:0x00000000
       22185000	      2217	8000195c	00000013	addi	x0,x0,0	  x0:0x00000000
       22195000	      2218	80001960	a302ac13	slti	x24,x5,-1488	  x5:0x800018b8 x24=0x00000001
       22205000	      2219	80001964	0440036f	jal	x6,80001964	  x6=0x80001964
       22215000	      2220	00000000	00000013	addi	x0,x0,0	  x0:0x00000000
       22225000	      2221	800019a4	00000013	addi	x0,x0,0	  x0:0x00000000
       22235000	      2222	800019a8	ff5ff2ef	jal	x5,800019a8	  x5=0x800019a8
       22245000	      2223	00000000	00000013	addi	x0,x0,0	  x0:0x00000000
       22255000	      2224	80001998	00000013	addi	x0,x0,0	  x0:0x00000000
       22265000	      2225	8000199c	02800b6f	jal	x22,8000199c	 x22=0x8000199c
       22275000	      2226	00000000	00000013	addi	x0,x0,0	  x0:0x00000000
       22285000	      2227	800019c0	00000013	addi	x0,x0,0	  x0:0x00000000
       22295000	      2228	800019c4	01000aef	jal	x21,800019c4	 x21=0x800019c4
       22305000	      2229	00000000	00000013	addi	x0,x0,0	  x0:0x00000000
       22315000	      2230	800019d0	00000013	addi	x0,x0,0	  x0:0x00000000
       22325000	      2231	800019d4	fb5ffeef	jal	x29,800019d4	 x29=0x800019d4
       22335000	      2232	00000000	00000013	addi	x0,x0,0	  x0:0x00000000
       22345000	      2233	80001984	00000013	addi	x0,x0,0	  x0:0x00000000
       22355000	      2234	80001988	00c000ef	jal	x1,80001988	  x1=0x80001988
       22365000	      2235	00000000	00000013	addi	x0,x0,0	  x0:0x00000000
       22375000	      2236	80001990	00000013	addi	x0,x0,0	  x0:0x00000000
       22385000	      2237	80001994	010000ef	jal	x1,80001994	  x1=0x80001994
       22395000	      2238	00000000	00000013	addi	x0,x0,0	  x0:0x00000000
       22405000	      2239	800019a0	00000013	addi	x0,x0,0	  x0:0x00000000
       22415000	      2240	800019a4	fc5ff0ef	jal	x1,800019a4	  x1=0x800019a4
       22425000	      2241	00000000	00000013	addi	x0,x0,0	  x0:0x00000000
       22435000	      2242	80001964	00000013	addi	x0,x0,0	  x0:0x00000000
       22445000	      2243	80001968	0140046f	jal	x8,80001968	  x8=0x80001968
       22455000	      2244	00000000	00000013	addi	x0,x0,0	  x0:0x00000000
       22465000	      2245	80001978	00000013	addi	x0,x0,0	  x0:0x00000000
       22475000	      2246	8000197c	04c000ef	jal	x1,8000197c	  x1=0x8000197c
       22485000	      2247	00000000	00000013	addi	x0,x0,0	  x0:0x00000000
       22495000	      2248	800019c4	00000013	addi	x0,x0,0	  x0:0x00000000
       22505000	      2249	800019c8	fadff0ef	jal	x1,800019c8	  x1=0x800019c8
       22515000	      2250	00000000	00000013	addi	x0,x0,0	  x0:0x00000000
       22525000	      2251	80001970	00000013	addi	x0,x0,0	  x0:0x00000000
       22535000	      2252	80001974	0100036f	jal	x6,80001974	  x6=0x80001974
       22545000	      2253	00000000	00000013	addi	x0,x0,0	  x0:0x00000000
       22555000	      2254	80001980	00000013	addi	x0,x0,0	  x0:0x00000000
       22565000	      2255	80001984	058000ef	jal	x1,80001984	  x1=0x80001984
       22575000	      2256	00000000	00000013	addi	x0,x0,0	  x0:0x00000000
       22585000	      2257	800019d8	00000013	addi	x0,x0,0	  x0:0x00000000
       22595000	      2258	800019dc	fddff36f	jal	x6,800019dc	  x6=0x800019dc
       22605000	      2259	00000000	00000013	addi	x0,x0,0	  x0:0x00000000
       22615000	      2260	800019b4	00000013	addi	x0,x0,0	  x0:0x00000000
       22625000	      2261	800019b8	fc1ff0ef	jal	x1,800019b8	  x1=0x800019b8
       22635000	      2262	00000000	00000013	addi	x0,x0,0	  x0:0x00000000
       22645000	      2263	80001974	00000013	addi	x0,x0,0	  x0:0x00000000
       22655000	      2264	80001978	028000ef	jal	x1,80001978	  x1=0x80001978
       22665000	      2265	00000000	00000013	addi	x0,x0,0	  x0:0x00000000
       22675000	      2266	8000199c	00000013	addi	x0,x0,0	  x0:0x00000000
       22685000	      2267	800019a0	fedff0ef	jal	x1,800019a0	  x1=0x800019a0
       22695000	      2268	00000000	00000013	addi	x0,x0,0	  x0:0x00000000
       22705000	      2269	80001988	00000013	addi	x0,x0,0	  x0:0x00000000
       22715000	      2270	8000198c	ff5ff8ef	jal	x17,8000198c	 x17=0x8000198c
       22725000	      2271	00000000	00000013	addi	x0,x0,0	  x0:0x00000000
       22735000	      2272	8000197c	00000013	addi	x0,x0,0	  x0:0x00000000
       22745000	      2273	80001980	03c000ef	jal	x1,80001980	  x1=0x80001980
       22755000	      2274	00000000	00000013	addi	x0,x0,0	  x0:0x00000000
       22765000	      2275	800019b8	00000013	addi	x0,x0,0	  x0:0x00000000
       22775000	      2276	800019bc	0040036f	jal	x6,800019bc	  x6=0x800019bc
       22785000	      2277	00000000	00000013	addi	x0,x0,0	  x0:0x00000000
       22795000	      2278	800019bc	00000013	addi	x0,x0,0	  x0:0x00000000
       22805000	      2279	800019c0	fadff36f	jal	x6,800019c0	  x6=0x800019c0
       22815000	      2280	00000000	00000013	addi	x0,x0,0	  x0:0x00000000
       22825000	      2281	80001968	00000013	addi	x0,x0,0	  x0:0x00000000
       22835000	      2282	8000196c	044000ef	jal	x1,8000196c	  x1=0x8000196c
       22845000	      2283	00000000	00000013	addi	x0,x0,0	  x0:0x00000000
       22855000	      2284	800019ac	00000013	addi	x0,x0,0	  x0:0x00000000
       22865000	      2285	800019b0	fc1ff2ef	jal	x5,800019b0	  x5=0x800019b0
       22875000	      2286	00000000	00000013	addi	x0,x0,0	  x0:0x00000000
       22885000	      2287	8000196c	00000013	addi	x0,x0,0	  x0:0x00000000
       22895000	      2288	80001970	044000ef	jal	x1,80001970	  x1=0x80001970
       22905000	      2289	00000000	00000013	addi	x0,x0,0	  x0:0x00000000
       22915000	      2290	800019b0	00000013	addi	x0,x0,0	  x0:0x00000000
       22925000	      2291	800019b4	024001ef	jal	x3,800019b4	  x3=0x800019b4
       22935000	      2292	00000000	00000013	addi	x0,x0,0	  x0:0x00000000
       22945000	      2293	800019d4	00000013	addi	x0,x0,0	  x0:0x00000000
       22955000	      2294	800019d8	ff9ff0ef	jal	x1,800019d8	  x1=0x800019d8
       22965000	      2295	00000000	00000013	addi	x0,x0,0	  x0:0x00000000
       22975000	      2296	800019cc	00000013	addi	x0,x0,0	  x0:0x00000000
       22985000	      2297	800019d0	fddff0ef	jal	x1,800019d0	  x1=0x800019d0
       22995000	      2298	00000000	00000013	addi	x0,x0,0	  x0:0x00000000
       23005000	      2299	800019a8	00000013	addi	x0,x0,0	  x0:0x00000000
       23015000	      2300	800019ac	fedff86f	jal	x16,800019ac	 x16=0x800019ac
       23025000	      2301	00000000	00000013	addi	x0,x0,0	  x0:0x00000000
       23035000	      2302	80001994	00000013	addi	x0,x0,0	  x0:0x00000000
       23045000	      2303	80001998	034000ef	jal	x1,80001998	  x1=0x80001998
       23055000	      2304	00000000	00000013	addi	x0,x0,0	  x0:0x00000000
       23065000	      2305	800019c8	00000013	addi	x0,x0,0	  x0:0x00000000
       23075000	      2306	800019cc	fc5ff0ef	jal	x1,800019cc	  x1=0x800019cc
       23085000	      2307	00000000	00000013	addi	x0,x0,0	  x0:0x00000000
       23095000	      2308	8000198c	00000013	addi	x0,x0,0	  x0:0x00000000
       23105000	      2309	80001990	050000ef	jal	x1,80001990	  x1=0x80001990
       23115000	      2310	00000000	00000013	addi	x0,x0,0	  x0:0x00000000
       23125000	      2311	800019dc	00000013	addi	x0,x0,0	  x0:0x00000000
       23135000	      2312	800019e0	62bf2213	slti	x4,x30,1579	 x30:0x00000098  x4=0x00000001
       23145000	      2313	800019e4	00622833	slt	x16,x4,x6	  x4:0x00000001  x6:0x800019c0 x16=0x00000000
       23155000	      2314	800019e8	bc3f3697	auipc	x13,0xbc3f3	 x13=0x3c3f49e4
       23165000	      2315	800019ec	01117663	bgeu	x2,x17,800019f8	  x2:0x00000000 x17:0x8000198c
       23175000	      2316	800019f0	0051aa33	slt	x20,x3,x5	  x3:0x800019b4  x5:0x800019b0 x20=0x00000000
       23185000	      2317	800019f4	9b8f7793	andi	x15,x30,-1608	 x30:0x00000098 x15=0x00000098
       23195000	      2318	800019f8	01659933	sll	x18,x11,x22	 x11:0x00000001 x22:0x8000199c x18=0x10000000
       23205000	      2319	800019fc	016f5013	srli	x0,x30,0x16	 x30:0x00000098
       23215000	      2320	80001a00	05ca4263	blt	x20,x28,80001a44	 x20:0x00000000 x28:0xffffff44
       23225000	      2321	80001a04	f4c54313	xori	x6,x10,-180	 x10:0x00000001  x6=0xffffff4d
       23235000	      2322	80001a08	00af1513	slli	x10,x30,0xa	 x30:0x00000098 x10=0x00026000
       23245000	      2323	80001a0c	00529613	slli	x12,x5,0x5	  x5:0x800019b0 x12=0x00033600
       23255000	      2324	80001a10	414ed333	sra	x6,x29,x20	 x29:0x800019d4 x20:0x00000000  x6=0x800019d4
       23265000	      2325	80001a14	01500933	add	x18,x0,x21	  x0:0x00000000 x21:0x800019c4 x18=0x800019c4
       23275000	      2326	80001a18	1dac96b7	lui	x13,0x1dac9	 x13=0x1dac9000
       23285000	      2327	80001a1c	0230ca63	blt	x1,x3,80001a50	  x1:0x80001990  x3:0x800019b4
       23295000	      2328	00000000	00000013	addi	x0,x0,0	  x0:0x00000000
       23305000	      2329	80001a4c	00000013	addi	x0,x0,0	  x0:0x00000000
       23315000	      2330	80001a50	01e02cb3	slt	x25,x0,x30	  x0:0x00000000 x30:0x00000098 x25=0x00000001
       23325000	      2331	80001a54	3e1b2a37	lui	x20,0x3e1b2	 x20=0x3e1b2000
       23335000	      2332	80001a58	00000013	addi	x0,x0,0	  x0:0x00000000
       23345000	      2333	80001a5c	0181e663	bltu	x3,x24,80001a68	  x3:0x800019b4 x24:0x00000001
       23355000	      2334	80001a60	016a1b33	sll	x22,x20,x22	 x20:0x3e1b2000 x22:0x8000199c x22=0x00000000
       23365000	      2335	80001a64	88c14f13	xori	x30,x2,-1908	  x2:0x00000000 x30=0xfffff88c
       23375000	      2336	80001a68	030b9e63	bne	x23,x16,80001aa4	 x23:0x80001708 x16:0x00000000
       23385000	      2337	00000000	00000013	addi	x0,x0,0	  x0:0x00000000
       23395000	      2338	80001aa0	00000013	addi	x0,x0,0	  x0:0x00000000
       23405000	      2339	80001aa4	0063e433	or	x8,x7,x6	  x7:0x8000180c  x6:0x800019d4  x8=0x800019dc
       23415000	      2340	80001aa8	962c6b93	ori	x23,x24,-1694	 x24:0x00000001 x23=0xfffff963
       23425000	      2341	80001aac	9f59a693	slti	x13,x19,-1547	 x19:0x80001500 x13=0x00000001
       23435000	      2342	80001ab0	03758263	beq	x11,x23,80001ad4	 x11:0x00000001 x23:0xfffff963
       23445000	      2343	80001ab4	01daf533	and	x10,x21,x29	 x21:0x800019c4 x29:0x800019d4 x10=0x800019c4
       23455000	      2344	80001ab8	01e277b3	and	x15,x4,x30	  x4:0x00000001 x30:0xfffff88c x15=0x00000000
       23465000	      2345	80001abc	1621aeb7	lui	x29,0x1621a	 x29=0x1621a000
       23475000	      2346	80001ac0	41d0dcb3	sra	x25,x1,x29	  x1:0x80001990 x29:0x1621a000 x25=0x80001990
       23485000	      2347	80001ac4	03f95863	bge	x18,x31,80001af4	 x18:0x800019c4 x31:0x8000179c
       23495000	      2348	00000000	00000013	addi	x0,x0,0	  x0:0x00000000
       23505000	      2349	80001af0	00000013	addi	x0,x0,0	  x0:0x00000000
       23515000	      2350	80001af4	660242b7	lui	x5,0x66024	  x5=0x66024000
       23525000	      2351	80001af8	00aa9ab3	sll	x21,x21,x10	 x21:0x800019c4 x10:0x800019c4 x21=0x00019c40
       23535000	      2352	80001afc	01a88c33	add	x24,x17,x26	 x17:0x8000198c x26:0x80009fc4 x24=0x0000b950
       23545000	      2353	80001b00	0057cc63	blt	x15,x5,80001b18	 x15:0x00000000  x5:0x66024000
       23555000	      2354	00000000	00000013	addi	x0,x0,0	  x0:0x00000000
       23565000	      2355	80001b14	00000013	addi	x0,x0,0	  x0:0x00000000
       23575000	      2356	80001b18	1d9e2b93	slti	x23,x28,473	 x28:0xffffff44 x23=0x00000001
       23585000	      2357	80001b1c	400256b3	sra	x13,x4,x0	  x4:0x00000001  x0:0x00000000 x13=0x00000001
       23595000	      2358	80001b20	010a9a93	slli	x21,x21,0x10	 x21:0x00019c40 x21=0x9c400000
       23605000	      2359	80001b24	98547793	andi	x15,x8,-1659	  x8:0x800019dc x15=0x80001984
       23615000	      2360	80001b28	04320063	beq	x4,x3,80001b68	  x4:0x00000001  x3:0x800019b4
       23625000	      2361	80001b2c	6ac27893	andi	x17,x4,1708	  x4:0x00000001 x17=0x00000000
       23635000	      2362	80001b30	01e06663	bltu	x0,x30,80001b3c	  x0:0x00000000 x30:0xfffff88c
       23645000	      2363	00000000	00000013	addi	x0,x0,0	  x0:0x00000000
       23655000	      2364	80001b38	00000013	addi	x0,x0,0	  x0:0x00000000
       23665000	      2365	80001b3c	41f35093	srai	x1,x6,0x1f	  x6:0x800019d4  x1=0xffffffff
       23675000	      2366	80001b40	00bb1c63	bne	x22,x11,80001b58	 x22:0x00000000 x11:0x00000001
       23685000	      2367	00000000	00000013	addi	x0,x0,0	  x0:0x00000000
       23695000	      2368	80001b54	00000013	addi	x0,x0,0	  x0:0x00000000
       23705000	      2369	80001b58	01702933	slt	x18,x0,x23	  x0:0x00000000 x23:0x00000001 x18=0x00000001
       23715000	      2370	80001b5c	015a8e33	add	x28,x21,x21	 x21:0x9c400000 x21:0x9c400000 x28=0x38800000
       23725000	      2371	80001b60	01775933	srl	x18,x14,x23	 x14:0x80001714 x23:0x00000001 x18=0x40000b8a
       23735000	      2372	80001b64	01c68a63	beq	x13,x28,80001b78	 x13:0x00000001 x28:0x38800000
       23745000	      2373	80001b68	aeb4c713	xori	x14,x9,-1301	  x9:0x80001630 x14=0x7fffecdb
       23755000	      2374	80001b6c	00000013	addi	x0,x0,0	  x0:0x00000000
       23765000	      2375	80001b70	db146897	auipc	x17,0xdb146	 x17=0x5b147b6c
       23775000	      2376	80001b74	40cd5a93	srai	x21,x26,0xc	 x26:0x80009fc4 x21=0xfff80009
       23785000	      2377	80001b78	f8cd2e93	slti	x29,x26,-116	 x26:0x80009fc4 x29=0x00000001
       23795000	      2378	80001b7c	011d5593	srli	x11,x26,0x11	 x26:0x80009fc4 x11=0x00004000
       23805000	      2379	80001b80	41985e93	srai	x29,x16,0x19	 x16:0x00000000 x29=0x00000000
       23815000	      2380	80001b84	006278b3	and	x17,x4,x6	  x4:0x00000001  x6:0x800019d4 x17=0x00000000
       23825000	      2381	80001b88	00560fb3	add	x31,x12,x5	 x12:0x00033600  x5:0x66024000 x31=0x66057600
       23835000	      2382	80001b8c	bfbec713	xori	x14,x29,-1029	 x29:0x00000000 x14=0xfffffbfb
       23845000	      2383	80001b90	00fb93b3	sll	x7,x23,x15	 x23:0x00000001 x15:0x80001984  x7=0x00000010
       23855000	      2384	80001b94	00ee2633	slt	x12,x28,x14	 x28:0x38800000 x14:0xfffffbfb x12=0x00000000
       23865000	      2385	80001b98	e0af8a13	addi	x20,x31,-502	 x31:0x66057600 x20=0x6605740a
       23875000	      2386	80001b9c	00bbb033	sltu	x0,x23,x11	 x23:0x00000001 x11:0x00004000
       23885000	      2387	80001ba0	00c38463	beq	x7,x12,80001ba8	  x7:0x00000010 x12:0x00000000
       23895000	      2388	80001ba4	01a60eb3	add	x29,x12,x26	 x12:0x00000000 x26:0x80009fc4 x29=0x80009fc4
       23905000	      2389	80001ba8	00284c63	blt	x16,x2,80001bc0	 x16:0x00000000  x2:0x00000000
       23915000	      2390	80001bac	01503233	sltu	x4,x0,x21	  x0:0x00000000 x21:0xfff80009  x4=0x00000001
       23925000	      2391	80001bb0	400a5433	sra	x8,x20,x0	 x20:0x6605740a  x0:0x00000000  x8=0x6605740a
       23935000	      2392	80001bb4	00271713	slli	x14,x14,0x2	 x14:0xfffffbfb x14=0xffffefec
       23945000	      2393	80001bb8	419d0833	sub	x16,x26,x25	 x26:0x80009fc4 x25:0x80001990 x16=0x00008634
       23955000	      2394	80001bbc	0412f463	bgeu	x5,x1,80001c04	  x5:0x66024000  x1:0xffffffff
       23965000	      2395	80001bc0	017c1b93	slli	x23,x24,0x17	 x24:0x0000b950 x23=0xa8000000
       23975000	      2396	80001bc4	002d5c93	srli	x25,x26,0x2	 x26:0x80009fc4 x25=0x200027f1
       23985000	      2397	80001bc8	01635a13	srli	x20,x6,0x16	  x6:0x800019d4 x20=0x00000200
       23995000	      2398	80001bcc	908d4213	xori	x4,x26,-1784	 x26:0x80009fc4  x4=0x7fff66cc
       24005000	      2399	80001bd0	00105863	bge	x0,x1,80001be0	  x0:0x00000000  x1:0xffffffff
       24015000	      2400	00000000	00000013	addi	x0,x0,0	  x0:0x00000000
       24025000	      2401	80001bdc	00000013	addi	x0,x0,0	  x0:0x00000000
       24035000	      2402	80001be0	529abf93	sltiu	x31,x21,1321	 x21:0xfff80009 x31=0x00000000
       24045000	      2403	80001be4	0d6bf0b7	lui	x1,0xd6bf	  x1=0x0d6bf000
       24055000	      2404	80001be8	011695b3	sll	x11,x13,x17	 x13:0x00000001 x17:0x00000000 x11=0x00000001
       24065000	      2405	80001bec	4d3e4313	xori	x6,x28,1235	 x28:0x38800000  x6=0x388004d3
       24075000	      2406	80001bf0	04c91263	bne	x18,x12,80001c34	 x18:0x40000b8a x12:0x00000000
       24085000	      2407	00000000	00000013	addi	x0,x0,0	  x0:0x00000000
       24095000	      2408	80001c30	00000013	addi	x0,x0,0	  x0:0x00000000
       24105000	      2409	80001c34	06166a63	bltu	x12,x1,80001ca8	 x12:0x00000000  x1:0x0d6bf000
       24115000	      2410	00000000	00000013	addi	x0,x0,0	  x0:0x00000000
       24125000	      2411	80001ca4	00000013	addi	x0,x0,0	  x0:0x00000000
       24135000	      2412	80001ca8	000c6c33	or	x24,x24,x0	 x24:0x0000b950  x0:0x00000000 x24=0x0000b950
       24145000	      2413	80001cac	01fa2bb3	slt	x23,x20,x31	 x20:0x00000200 x31:0x00000000 x23=0x00000000
       24155000	      2414	80001cb0	009a4833	xor	x16,x20,x9	 x20:0x00000200  x9:0x80001630 x16=0x80001430
       24165000	      2415	80001cb4	01de01b3	add	x3,x28,x29	 x28:0x38800000 x29:0x80009fc4  x3=0xb8809fc4
       24175000	      2416	80001cb8	00ce34b3	sltu	x9,x28,x12	 x28:0x38800000 x12:0x00000000  x9=0x00000000
       24185000	      2417	80001cbc	00fc4ab3	xor	x21,x24,x15	 x24:0x0000b950 x15:0x80001984 x21=0x8000a0d4
       24195000	      2418	80001cc0	6ca4ef93	ori	x31,x9,1738	  x9:0x00000000 x31=0x000006ca
       24205000	      2419	80001cc4	03e0e263	bltu	x1,x30,80001ce8	  x1:0x0d6bf000 x30:0xfffff88c
       24215000	      2420	00000000	00000013	addi	x0,x0,0	  x0:0x00000000
       24225000	      2421	80001ce4	00000013	addi	x0,x0,0	  x0:0x00000000
       24235000	      2422	80001ce8	028d0c63	beq	x26,x8,80001d20	 x26:0x80009fc4  x8:0x6605740a
       24245000	      2423	80001cec	0135eb33	or	x22,x11,x19	 x11:0x00000001 x19:0x80001500 x22=0x80001501
       24255000	      2424	80001cf0	ca094eb7	lui	x29,0xca094	 x29=0xca094000
       24265000	      2425	80001cf4	fd4fa013	slti	x0,x31,-44	 x31:0x000006ca
       24275000	      2426	80001cf8	01e0b833	sltu	x16,x1,x30	  x1:0x0d6bf000 x30:0xfffff88c x16=0x00000001
       24285000	      2427	80001cfc	01c0fa33	and	x20,x1,x28	  x1:0x0d6bf000 x28:0x38800000 x20=0x08000000
       24295000	      2428	80001d00	41615eb3	sra	x29,x2,x22	  x2:0x00000000 x22:0x80001501 x29=0x00000000
       24305000	      2429	80001d04	041b5463	bge	x22,x1,80001d4c	 x22:0x80001501  x1:0x0d6bf000
       24315000	      2430	80001d08	cbd9bfb7	lui	x31,0xcbd9b	 x31=0xcbd9b000
       24325000	      2431	80001d0c	632ce613	ori	x12,x25,1586	 x25:0x200027f1 x12=0x200027f3
       24335000	      2432	80001d10	41b756b3	sra	x13,x14,x27	 x14:0xffffefec x27:0x80009f74 x13=0xffffffff
       24345000	      2433	80001d14	02101263	bne	x0,x1,80001d38	  x0:0x00000000  x1:0x0d6bf000
       24355000	      2434	00000000	00000013	addi	x0,x0,0	  x0:0x00000000
       24365000	      2435	80001d34	00000013	addi	x0,x0,0	  x0:0x00000000
       24375000	      2436	80001d38	0308f663	bgeu	x17,x16,80001d64	 x17:0x00000000 x16:0x00000001
       24385000	      2437	80001d3c	0125bb33	sltu	x22,x11,x18	 x11:0x00000001 x18:0x40000b8a x22=0x00000001
       24395000	      2438	80001d40	adecf993	andi	x19,x25,-1314	 x25:0x200027f1 x19=0x200022d0
       24405000	      2439	80001d44	d103fb13	andi	x22,x7,-752	  x7:0x00000010 x22=0x00000010
       24415000	      2440	80001d48	41510fb3	sub	x31,x2,x21	  x2:0x00000000 x21:0x8000a0d4 x31=0x7fff5f2c
       24425000	      2441	80001d4c	416c82b3	sub	x5,x25,x22	 x25:0x200027f1 x22:0x00000010  x5=0x200027e1
       24435000	      2442	80001d50	01c37663	bgeu	x6,x28,80001d5c	  x6:0x388004d3 x28:0x38800000
       24445000	      2443	00000000	00000013	addi	x0,x0,0	  x0:0x00000000
       24455000	      2444	80001d58	00000013	addi	x0,x0,0	  x0:0x00000000
       24465000	      2445	80001d5c	01691513	slli	x10,x18,0x16	 x18:0x40000b8a x10=0xe2800000
       24475000	      2446	80001d60	02f2ce63	blt	x5,x15,80001d9c	  x5:0x200027e1 x15:0x80001984
       24485000	      2447	80001d64	7e783a93	sltiu	x21,x16,2023	 x16:0x00000001 x21=0x00000001
       24495000	      2448	80001d68	015aeb33	or	x22,x21,x21	 x21:0x00000001 x21:0x00000001 x22=0x00000001
       24505000	      2449	80001d6c	01e04863	blt	x0,x30,80001d7c	  x0:0x00000000 x30:0xfffff88c
       24515000	      2450	80001d70	1e02f513	andi	x10,x5,480	  x5:0x200027e1 x10=0x000001e0
       24525000	      2451	80001d74	00563533	sltu	x10,x12,x5	 x12:0x200027f3  x5:0x200027e1 x10=0x00000000
       24535000	      2452	80001d78	01be5193	srli	x3,x28,0x1b	 x28:0x38800000  x3=0x00000007
       24545000	      2453	80001d7c	002fb833	sltu	x16,x31,x2	 x31:0x7fff5f2c  x2:0x00000000 x16=0x00000000
       24555000	      2454	80001d80	00535993	srli	x19,x6,0x5	  x6:0x388004d3 x19=0x01c40026
       24565000	      2455	80001d84	050ce063	bltu	x25,x16,80001dc4	 x25:0x200027f1 x16:0x00000000
       24575000	      2456	80001d88	7ec43c37	lui	x24,0x7ec43	 x24=0x7ec43000
       24585000	      2457	80001d8c	402f5bb3	sra	x23,x30,x2	 x30:0xfffff88c  x2:0x00000000 x23=0xfffff88c
       24595000	      2458	80001d90	96e5c493	xori	x9,x11,-1682	 x11:0x00000001  x9=0xfffff96f
       24605000	      2459	80001d94	001dc1b3	xor	x3,x27,x1	 x27:0x80009f74  x1:0x0d6bf000  x3=0x8d6b6f74
       24615000	      2460	80001d98	40d9d093	srai	x1,x19,0xd	 x19:0x01c40026  x1=0x00000e20
       24625000	      2461	80001d9c	04d44463	blt	x8,x13,80001de4	  x8:0x6605740a x13:0xffffffff
       24635000	      2462	80001da0	015174b3	and	x9,x2,x21	  x2:0x00000000 x21:0x00000001  x9=0x00000000
       24645000	      2463	80001da4	417eda93	srai	x21,x29,0x17	 x29:0x00000000 x21=0x00000000
       24655000	      2464	80001da8	00492b33	slt	x22,x18,x4	 x18:0x40000b8a  x4:0x7fff66cc x22=0x00000001
       24665000	      2465	80001dac	19af7c37	lui	x24,0x19af7	 x24=0x19af7000
       24675000	      2466	80001db0	d748a813	slti	x16,x17,-652	 x17:0x00000000 x16=0x00000000
       24685000	      2467	80001db4	40d30b33	sub	x22,x6,x13	  x6:0x388004d3 x13:0xffffffff x22=0x388004d4
       24695000	      2468	80001db8	006b7c63	bgeu	x22,x6,80001dd0	 x22:0x388004d4  x6:0x388004d3
       24705000	      2469	00000000	00000013	addi	x0,x0,0	  x0:0x00000000
       24715000	      2470	80001dcc	00000013	addi	x0,x0,0	  x0:0x00000000
       24725000	      2471	80001dd0	03a1d263	bge	x3,x26,80001df4	  x3:0x8d6b6f74 x26:0x80009fc4
       24735000	      2472	00000000	00000013	addi	x0,x0,0	  x0:0x00000000
       24745000	      2473	80001df0	00000013	addi	x0,x0,0	  x0:0x00000000
       24755000	      2474	80001df4	0ef96f13	ori	x30,x18,239	 x18:0x40000b8a x30=0x40000bef
       24765000	      2475	80001df8	999f4513	xori	x10,x30,-1639	 x30:0x40000bef x10=0xbffff276
       24775000	      2476	80001dfc	0029bab3	sltu	x21,x19,x2	 x19:0x01c40026  x2:0x00000000 x21=0x00000000
       24785000	      2477	80001e00	01415c13	srli	x24,x2,0x14	  x2:0x00000000 x24=0x00000000
       24795000	      2478	80001e04	12d60213	addi	x4,x12,301	 x12:0x200027f3  x4=0x20002920
       24805000	      2479	80001e08	01d91f33	sll	x30,x18,x29	 x18:0x40000b8a x29:0x00000000 x30=0x40000b8a
       24815000	      2480	80001e0c	01bc5933	srl	x18,x24,x27	 x24:0x00000000 x27:0x80009f74 x18=0x00000000
       24825000	      2481	80001e10	031f5263	bge	x30,x17,80001e34	 x30:0x40000b8a x17:0x00000000
       24835000	      2482	00000000	00000013	addi	x0,x0,0	  x0:0x00000000
       24845000	      2483	80001e30	00000013	addi	x0,x0,0	  x0:0x00000000
       24855000	      2484	80001e34	05900263	beq	x0,x25,80001e78	  x0:0x00000000 x25:0x200027f1
       24865000	      2485	80001e38	40c78eb3	sub	x29,x15,x12	 x15:0x80001984 x12:0x200027f3 x29=0x5ffff191
       24875000	      2486	80001e3c	4167d8b3	sra	x17,x15,x22	 x15:0x80001984 x22:0x388004d4 x17=0xfffff800
       24885000	      2487	80001e40	014a1193	slli	x3,x20,0x14	 x20:0x08000000  x3=0x00000000
       24895000	      2488	80001e44	00bdafb3	slt	x31,x27,x11	 x27:0x80009f74 x11:0x00000001 x31=0x00000001
       24905000	      2489	80001e48	00980033	add	x0,x16,x9	 x16:0x00000000  x9:0x00000000
       24915000	      2490	80001e4c	0033eab3	or	x21,x7,x3	  x7:0x00000010  x3:0x00000000 x21=0x00000010
       24925000	      2491	80001e50	02de8713	addi	x14,x29,45	 x29:0x5ffff191 x14=0x5ffff1be
       24935000	      2492	80001e54	6d1d4a93	xori	x21,x26,1745	 x26:0x80009fc4 x21=0x80009915
       24945000	      2493	80001e58	01f21a33	sll	x20,x4,x31	  x4:0x20002920 x31:0x00000001 x20=0x40005240
       24955000	      2494	80001e5c	83ee6f93	ori	x31,x28,-1986	 x28:0x38800000 x31=0xfffff83e
       24965000	      2495	80001e60	01225863	bge	x4,x18,80001e70	  x4:0x20002920 x18:0x00000000
       24975000	      2496	00000000	00000013	addi	x0,x0,0	  x0:0x00000000
       24985000	      2497	80001e6c	00000013	addi	x0,x0,0	  x0:0x00000000
       24995000	      2498	80001e70	9697a993	slti	x19,x15,-1687	 x15:0x80001984 x19=0x00000001
       25005000	      2499	80001e74	00319333	sll	x6,x3,x3	  x3:0x00000000  x3:0x00000000  x6=0x00000000
       25015000	      2500	80001e78	007b43b3	xor	x7,x22,x7	 x22:0x388004d4  x7:0x00000010  x7=0x388004c4
       25025000	      2501	80001e7c	006d1bb3	sll	x23,x26,x6	 x26:0x80009fc4  x6:0x00000000 x23=0x80009fc4
       25035000	      2502	80001e80	04810063	beq	x2,x8,80001ec0	  x2:0x00000000  x8:0x6605740a
       25045000	      2503	80001e84	00d7e663	bltu	x15,x13,80001e90	 x15:0x80001984 x13:0xffffffff
       25055000	      2504	00000000	00000013	addi	x0,x0,0	  x0:0x00000000
       25065000	      2505	80001e8c	00000013	addi	x0,x0,0	  x0:0x00000000
       25075000	      2506	80001e90	5cbbcb13	xori	x22,x23,1483	 x23:0x80009fc4 x22=0x80009a0f
       25085000	      2507	80001e94	02df0663	beq	x30,x13,80001ec0	 x30:0x40000b8a x13:0xffffffff
       25095000	      2508	80001e98	e977ea93	ori	x21,x15,-361	 x15:0x80001984 x21=0xffffff97
       25105000	      2509	80001e9c	24182413	slti	x8,x16,577	 x16:0x00000000  x8=0x00000001
       25115000	      2510	80001ea0	01a77c63	bgeu	x14,x26,80001eb8	 x14:0x5ffff1be x26:0x80009fc4
       25125000	      2511	80001ea4	bfe1e997	auipc	x19,0xbfe1e	 x19=0x3fe1fea0
       25135000	      2512	80001ea8	017b2e33	slt	x28,x22,x23	 x22:0x80009a0f x23:0x80009fc4 x28=0x00000001
       25145000	      2513	80001eac	40000e33	sub	x28,x0,x0	  x0:0x00000000  x0:0x00000000 x28=0x00000000
       25155000	      2514	80001eb0	37158e93	addi	x29,x11,881	 x11:0x00000001 x29=0x00000372
       25165000	      2515	80001eb4	419a0833	sub	x16,x20,x25	 x20:0x40005240 x25:0x200027f1 x16=0x20002a4f
       25175000	      2516	80001eb8	00aefb33	and	x22,x29,x10	 x29:0x00000372 x10:0xbffff276 x22=0x00000272
       25185000	      2517	80001ebc	419350b3	sra	x1,x6,x25	  x6:0x00000000 x25:0x200027f1  x1=0x00000000
       25195000	      2518	80001ec0	41995633	sra	x12,x18,x25	 x18:0x00000000 x25:0x200027f1 x12=0x00000000
       25205000	      2519	80001ec4	02288c63	beq	x17,x2,80001efc	 x17:0xfffff800  x2:0x00000000
       25215000	      2520	80001ec8	1de56a93	ori	x21,x10,478	 x10:0xbffff276 x21=0xbffff3fe
       25225000	      2521	80001ecc	03d2c263	blt	x5,x29,80001ef0	  x5:0x200027e1 x29:0x00000372
       25235000	      2522	80001ed0	01ecc1b3	xor	x3,x25,x30	 x25:0x200027f1 x30:0x40000b8a  x3=0x60002c7b
       25245000	      2523	80001ed4	e532bc13	sltiu	x24,x5,-429	  x5:0x200027e1 x24=0x00000001
       25255000	      2524	80001ed8	20302597	auipc	x11,0x20302	 x11=0xa0303ed4
       25265000	      2525	80001edc	55836193	ori	x3,x6,1368	  x6:0x00000000  x3=0x00000558
       25275000	      2526	80001ee0	3dde67b7	lui	x15,0x3dde6	 x15=0x3dde6000
       25285000	      2527	80001ee4	e0f0a197	auipc	x3,0xe0f0a	  x3=0x60f0bee0
       25295000	      2528	80001ee8	00c69833	sll	x16,x13,x12	 x13:0xffffffff x12:0x00000000 x16=0xffffffff
       25305000	      2529	80001eec	41cc01b3	sub	x3,x24,x28	 x24:0x00000001 x28:0x00000000  x3=0x00000001
       25315000	      2530	80001ef0	00eb39b3	sltu	x19,x22,x14	 x22:0x00000272 x14:0x5ffff1be x19=0x00000001
       25325000	      2531	80001ef4	40f7d3b3	sra	x7,x15,x15	 x15:0x3dde6000 x15:0x3dde6000  x7=0x3dde6000
       25335000	      2532	80001ef8	00000013	addi	x0,x0,0	  x0:0x00000000
       25345000	      2533	80001efc	01fa9a13	slli	x20,x21,0x1f	 x21:0xbffff3fe x20=0x00000000
       25355000	      2534	80001f00	055ee263	bltu	x29,x21,80001f44	 x29:0x00000372 x21:0xbffff3fe
       25365000	      2535	00000000	00000013	addi	x0,x0,0	  x0:0x00000000
       25375000	      2536	80001f40	00000013	addi	x0,x0,0	  x0:0x00000000
       25385000	      2537	80001f44	00cf95b3	sll	x11,x31,x12	 x31:0xfffff83e x12:0x00000000 x11=0xfffff83e
       25395000	      2538	80001f48	c367e513	ori	x10,x15,-970	 x15:0x3dde6000 x10=0xfffffc36
       25405000	      2539	80001f4c	405ad013	srai	x0,x21,0x5	 x21:0xbffff3fe
       25415000	      2540	80001f50	bd600693	addi	x13,x0,-1066	  x0:0x00000000 x13=0xfffffbd6
       25425000	      2541	80001f54	00000013	addi	x0,x0,0	  x0:0x00000000
       25435000	      2542	80001f58	0161d993	srli	x19,x3,0x16	  x3:0x00000001 x19=0x00000000
       25445000	      2543	80001f5c	031b1863	bne	x22,x17,80001f8c	 x22:0x00000272 x17:0xfffff800
       25455000	      2544	00000000	00000013	addi	x0,x0,0	  x0:0x00000000
       25465000	      2545	80001f88	00000013	addi	x0,x0,0	  x0:0x00000000
       25475000	      2546	80001f8c	407502b3	sub	x5,x10,x7	 x10:0xfffffc36  x7:0x3dde6000  x5=0xc2219c36
       25485000	      2547	80001f90	10c56093	ori	x1,x10,268	 x10:0xfffffc36  x1=0xfffffd3e
       25495000	      2548	80001f94	00b1a6b3	slt	x13,x3,x11	  x3:0x00000001 x11:0xfffff83e x13=0x00000000
       25505000	      2549	80001f98	01b248b3	xor	x17,x4,x27	  x4:0x20002920 x27:0x80009f74 x17=0xa000b654
       25515000	      2550	80001f9c	416bd713	srai	x14,x23,0x16	 x23:0x80009fc4 x14=0xfffffe00
       25525000	      2551	80001fa0	92e0b893	sltiu	x17,x1,-1746	  x1:0xfffffd3e x17=0x00000000
       25535000	      2552	80001fa4	0179f8b3	and	x17,x19,x23	 x19:0x00000000 x23:0x80009fc4 x17=0x00000000
       25545000	      2553	80001fa8	adec8ab7	lui	x21,0xadec8	 x21=0xadec8000
       25555000	      2554	80001fac	0182a5b3	slt	x11,x5,x24	  x5:0xc2219c36 x24:0x00000001 x11=0x00000001
       25565000	      2555	80001fb0	009abab3	sltu	x21,x21,x9	 x21:0xadec8000  x9:0x00000000 x21=0x00000000
       25575000	      2556	80001fb4	000628b3	slt	x17,x12,x0	 x12:0x00000000  x0:0x00000000 x17=0x00000000
       25585000	      2557	80001fb8	b943be93	sltiu	x29,x7,-1132	  x7:0x3dde6000 x29=0x00000001
       25595000	      2558	80001fbc	0ba0e237	lui	x4,0xba0e	  x4=0x0ba0e000
       25605000	      2559	80001fc0	01d4d6b3	srl	x13,x9,x29	  x9:0x00000000 x29:0x00000001 x13=0x00000000
       25615000	      2560	80001fc4	00bc1713	slli	x14,x24,0xb	 x24:0x00000001 x14=0x00000800
       25625000	      2561	80001fc8	03e71263	bne	x14,x30,80001fec	 x14:0x00000800 x30:0x40000b8a
       25635000	      2562	00000000	00000013	addi	x0,x0,0	  x0:0x00000000
       25645000	      2563	80001fe8	00000013	addi	x0,x0,0	  x0:0x00000000
       25655000	      2564	80001fec	03856a63	bltu	x10,x24,80002020	 x10:0xfffffc36 x24:0x00000001
       25665000	      2565	80001ff0	a2f6f897	auipc	x17,0xa2f6f	 x17=0x22f70fec
       25675000	      2566	80001ff4	03f45a63	bge	x8,x31,80002028	  x8:0x00000001 x31:0xfffff83e
       25685000	      2567	00000000	00000013	addi	x0,x0,0	  x0:0x00000000
       25695000	      2568	80002024	00000013	addi	x0,x0,0	  x0:0x00000000
       25705000	      2569	80002028	013d19b3	sll	x19,x26,x19	 x26:0x80009fc4 x19:0x00000000 x19=0x80009fc4
       25715000	      2570	8000202c	8476c793	xori	x15,x13,-1977	 x13:0x00000000 x15=0xfffff847
       25725000	      2571	80002030	0173ce33	xor	x28,x7,x23	  x7:0x3dde6000 x23:0x80009fc4 x28=0xbddeffc4
       25735000	      2572	80002034	ee987893	andi	x17,x16,-279	 x16:0xffffffff x17=0xfffffee9
       25745000	      2573	80002038	409dd8b3	sra	x17,x27,x9	 x27:0x80009f74  x9:0x00000000 x17=0x80009f74
       25755000	      2574	8000203c	e2d7b017	auipc	x0,0xe2d7b	
       25765000	      2575	80002040	00000013	addi	x0,x0,0	  x0:0x00000000
       25775000	      2576	80002044	d86a0593	addi	x11,x20,-634	 x20:0x00000000 x11=0xfffffd86
       25785000	      2577	80002048	016d1eb3	sll	x29,x26,x22	 x26:0x80009fc4 x22:0x00000272 x29=0x7f100000
       25795000	      2578	8000204c	00557c63	bgeu	x10,x5,80002064	 x10:0xfffffc36  x5:0xc2219c36
       25805000	      2579	00000000	00000013	addi	x0,x0,0	  x0:0x00000000
       25815000	      2580	80002060	00000013	addi	x0,x0,0	  x0:0x00000000
       25825000	      2581	80002064	01bd3a33	sltu	x20,x26,x27	 x26:0x80009fc4 x27:0x80009f74 x20=0x00000000
       25835000	      2582	80002068	ca632593	slti	x11,x6,-858	  x6:0x00000000 x11=0x00000000
       25845000	      2583	8000206c	409183b3	sub	x7,x3,x9	  x3:0x00000001  x9:0x00000000  x7=0x00000001
       25855000	      2584	80002070	003b1533	sll	x10,x22,x3	 x22:0x00000272  x3:0x00000001 x10=0x000004e4
       25865000	      2585	80002074	01041293	slli	x5,x8,0x10	  x8:0x00000001  x5=0x00010000
       25875000	      2586	80002078	018e1913	slli	x18,x28,0x18	 x28:0xbddeffc4 x18=0xc4000000
       25885000	      2587	8000207c	bec57c93	andi	x25,x10,-1044	 x10:0x000004e4 x25=0x000000e4
       25895000	      2588	80002080	01294463	blt	x18,x18,80002088	 x18:0xc4000000 x18:0xc4000000
       25905000	      2589	80002084	00000013	addi	x0,x0,0	  x0:0x00000000
       25915000	      2590	80002088	b9f42613	slti	x12,x8,-1121	  x8:0x00000001 x12=0x00000000
       25925000	      2591	8000208c	01aa5663	bge	x20,x26,80002098	 x20:0x00000000 x26:0x80009fc4
       25935000	      2592	00000000	00000013	addi	x0,x0,0	  x0:0x00000000
       25945000	      2593	80002094	00000013	addi	x0,x0,0	  x0:0x00000000
       25955000	      2594	80002098	02927e63	bgeu	x4,x9,800020d4	  x4:0x0ba0e000  x9:0x00000000
       25965000	      2595	00000000	00000013	addi	x0,x0,0	  x0:0x00000000
       25975000	      2596	800020d0	00000013	addi	x0,x0,0	  x0:0x00000000
       25985000	      2597	800020d4	72adca13	xori	x20,x27,1834	 x27:0x80009f74 x20=0x8000985e
       25995000	      2598	800020d8	02569a63	bne	x13,x5,8000210c	 x13:0x00000000  x5:0x00010000
       26005000	      2599	00000000	00000013	addi	x0,x0,0	  x0:0x00000000
       26015000	      2600	80002108	00000013	addi	x0,x0,0	  x0:0x00000000
       26025000	      2601	8000210c	0411e263	bltu	x3,x1,80002150	  x3:0x00000001  x1:0xfffffd3e
       26035000	      2602	00000000	00000013	addi	x0,x0,0	  x0:0x00000000
       26045000	      2603	8000214c	00000013	addi	x0,x0,0	  x0:0x00000000
       26055000	      2604	80002150	01d826b3	slt	x13,x16,x29	 x16:0xffffffff x29:0x7f100000 x13=0x00000001
       26065000	      2605	80002154	40b6d413	srai	x8,x13,0xb	 x13:0x00000001  x8=0x00000000
       26075000	      2606	80002158	5e297b13	andi	x22,x18,1506	 x18:0xc4000000 x22=0x00000000
       26085000	      2607	8000215c	0210ee63	bltu	x1,x1,80002198	  x1:0xfffffd3e  x1:0xfffffd3e
       26095000	      2608	80002160	009dc733	xor	x14,x27,x9	 x27:0x80009f74  x9:0x00000000 x14=0x80009f74
       26105000	      2609	80002164	04fec463	blt	x29,x15,800021ac	 x29:0x7f100000 x15:0xfffff847
       26115000	      2610	80002168	01f5b8b3	sltu	x17,x11,x31	 x11:0x00000000 x31:0xfffff83e x17=0x00000001
       26125000	      2611	8000216c	e569f913	andi	x18,x19,-426	 x19:0x80009fc4 x18=0x80009e44
       26135000	      2612	80002170	007c9013	slli	x0,x25,0x7	 x25:0x000000e4
       26145000	      2613	80002174	0142e663	bltu	x5,x20,80002180	  x5:0x00010000 x20:0x8000985e
       26155000	      2614	00000000	00000013	addi	x0,x0,0	  x0:0x00000000
       26165000	      2615	8000217c	00000013	addi	x0,x0,0	  x0:0x00000000
       26175000	      2616	80002180	01145193	srli	x3,x8,0x11	  x8:0x00000000  x3=0x00000000
       26185000	      2617	80002184	01874c63	blt	x14,x24,8000219c	 x14:0x80009f74 x24:0x00000001
       26195000	      2618	00000000	00000013	addi	x0,x0,0	  x0:0x00000000
       26205000	      2619	80002198	00000013	addi	x0,x0,0	  x0:0x00000000
       26215000	      2620	8000219c	01e59513	slli	x10,x11,0x1e	 x11:0x00000000 x10=0x00000000
       26225000	      2621	800021a0	416a5993	srai	x19,x20,0x16	 x20:0x8000985e x19=0xfffffe00
       26235000	      2622	800021a4	02abe263	bltu	x23,x10,800021c8	 x23:0x80009fc4 x10:0x00000000
       26245000	      2623	800021a8	013203b3	add	x7,x4,x19	  x4:0x0ba0e000 x19:0xfffffe00  x7=0x0ba0de00
       26255000	      2624	800021ac	00052f33	slt	x30,x10,x0	 x10:0x00000000  x0:0x00000000 x30=0x00000000
       26265000	      2625	800021b0	017d4c33	xor	x24,x26,x23	 x26:0x80009fc4 x23:0x80009fc4 x24=0x00000000
       26275000	      2626	800021b4	407604b3	sub	x9,x12,x7	 x12:0x00000000  x7:0x0ba0de00  x9=0xf45f2200
       26285000	      2627	800021b8	57762b93	slti	x23,x12,1399	 x12:0x00000000 x23=0x00000001
       26295000	      2628	800021bc	02db4c63	blt	x22,x13,800021f4	 x22:0x00000000 x13:0x00000001
       26305000	      2629	00000000	00000013	addi	x0,x0,0	  x0:0x00000000
       26315000	      2630	800021f0	00000013	addi	x0,x0,0	  x0:0x00000000
       26325000	      2631	800021f4	00a7b733	sltu	x14,x15,x10	 x15:0xfffff847 x10:0x00000000 x14=0x00000000
       26335000	      2632	800021f8	00fb14b3	sll	x9,x22,x15	 x22:0x00000000 x15:0xfffff847  x9=0x00000000
       26345000	      2633	800021fc	fe9dcf13	xori	x30,x27,-23	 x27:0x80009f74 x30=0x7fff609d
       26355000	      2634	80002200	b16bef13	ori	x30,x23,-1258	 x23:0x00000001 x30=0xfffffb17
       26365000	      2635	80002204	03a72b97	auipc	x23,0x3a72	 x23=0x83a74200
       26375000	      2636	80002208	00fb5f93	srli	x31,x22,0xf	 x22:0x00000000 x31=0x00000000
       26385000	      2637	8000220c	01cebf33	sltu	x30,x29,x28	 x29:0x7f100000 x28:0xbddeffc4 x30=0x00000001
       26395000	      2638	80002210	033cc263	blt	x25,x19,80002234	 x25:0x000000e4 x19:0xfffffe00
       26405000	      2639	80002214	9905c317	auipc	x6,0x9905c	  x6=0x1905e210
       26415000	      2640	80002218	aac8a637	lui	x12,0xaac8a	 x12=0xaac8a000
       26425000	      2641	8000221c	41d354b3	sra	x9,x6,x29	  x6:0x1905e210 x29:0x7f100000  x9=0x1905e210
       26435000	      2642	80002220	0149d393	srli	x7,x19,0x14	 x19:0xfffffe00  x7=0x00000fff
       26445000	      2643	80002224	abc0aab7	lui	x21,0xabc0a	 x21=0xabc0a000
       26455000	      2644	80002228	40285eb3	sra	x29,x16,x2	 x16:0xffffffff  x2:0x00000000 x29=0xffffffff
       26465000	      2645	8000222c	41f9d433	sra	x8,x19,x31	 x19:0xfffffe00 x31:0x00000000  x8=0xfffffe00
       26475000	      2646	80002230	01f4c9b3	xor	x19,x9,x31	  x9:0x1905e210 x31:0x00000000 x19=0x1905e210
       26485000	      2647	80002234	fc603193	sltiu	x3,x0,-58	  x0:0x00000000  x3=0x00000001
       26495000	      2648	80002238	40db5333	sra	x6,x22,x13	 x22:0x00000000 x13:0x00000001  x6=0x00000000
       26505000	      2649	8000223c	01bb80b3	add	x1,x23,x27	 x23:0x83a74200 x27:0x80009f74  x1=0x03a7e174
       26515000	      2650	80002240	00000013	addi	x0,x0,0	  x0:0x00000000
       26525000	      2651	80002244	026c0e63	beq	x24,x6,80002280	 x24:0x00000000  x6:0x00000000
       26535000	      2652	00000000	00000013	addi	x0,x0,0	  x0:0x00000000
       26545000	      2653	8000227c	00000013	addi	x0,x0,0	  x0:0x00000000
       26555000	      2654	80002280	409106b3	sub	x13,x2,x9	  x2:0x00000000  x9:0x1905e210 x13=0xe6fa1df0
       26565000	      2655	80002284	0258ee63	bltu	x17,x5,800022c0	 x17:0x00000001  x5:0x00010000
       26575000	      2656	00000000	00000013	addi	x0,x0,0	  x0:0x00000000
       26585000	      2657	800022bc	00000013	addi	x0,x0,0	  x0:0x00000000
       26595000	      2658	800022c0	409753b3	sra	x7,x14,x9	 x14:0x00000000  x9:0x1905e210  x7=0x00000000
       26605000	      2659	800022c4	01cb7a63	bgeu	x22,x28,800022d8	 x22:0x00000000 x28:0xbddeffc4
       26615000	      2660	800022c8	018c82b3	add	x5,x25,x24	 x25:0x000000e4 x24:0x00000000  x5=0x000000e4
       26625000	      2661	800022cc	e9f06c13	ori	x24,x0,-353	  x0:0x00000000 x24=0xfffffe9f
       26635000	      2662	800022d0	d1d32613	slti	x12,x6,-739	  x6:0x00000000 x12=0x00000000
       26645000	      2663	800022d4	0118f863	bgeu	x17,x17,800022e4	 x17:0x00000001 x17:0x00000001
       26655000	      2664	00000000	00000013	addi	x0,x0,0	  x0:0x00000000
       26665000	      2665	800022e0	00000013	addi	x0,x0,0	  x0:0x00000000
       26675000	      2666	800022e4	02e21a63	bne	x4,x14,80002318	  x4:0x0ba0e000 x14:0x00000000
       26685000	      2667	00000000	00000013	addi	x0,x0,0	  x0:0x00000000
       26695000	      2668	80002314	00000013	addi	x0,x0,0	  x0:0x00000000
       26705000	      2669	80002318	03550663	beq	x10,x21,80002344	 x10:0x00000000 x21:0xabc0a000
       26715000	      2670	8000231c	938c4993	xori	x19,x24,-1736	 x24:0xfffffe9f x19=0x000007a7
       26725000	      2671	80002320	d9dc7813	andi	x16,x24,-611	 x24:0xfffffe9f x16=0xfffffc9d
       26735000	      2672	80002324	01528bb3	add	x23,x5,x21	  x5:0x000000e4 x21:0xabc0a000 x23=0xabc0a0e4
       26745000	      2673	80002328	fd98f493	andi	x9,x17,-39	 x17:0x00000001  x9=0x00000001
       26755000	      2674	8000232c	017d8ab3	add	x21,x27,x23	 x27:0x80009f74 x23:0xabc0a0e4 x21=0x2bc14058
       26765000	      2675	80002330	19660f13	addi	x30,x12,406	 x12:0x00000000 x30=0x00000196
       26775000	      2676	80002334	faccca93	xori	x21,x25,-84	 x25:0x000000e4 x21=0xffffff48
       26785000	      2677	80002338	01100a63	beq	x0,x17,8000234c	  x0:0x00000000 x17:0x00000001
       26795000	      2678	8000233c	01155ab3	srl	x21,x10,x17	 x10:0x00000000 x17:0x00000001 x21=0x00000000
       26805000	      2679	80002340	7cfabf13	sltiu	x30,x21,1999	 x21:0x00000000 x30=0x00000001
       26815000	      2680	80002344	007bd7b3	srl	x15,x23,x7	 x23:0xabc0a0e4  x7:0x00000000 x15=0xabc0a0e4
       26825000	      2681	80002348	00000013	addi	x0,x0,0	  x0:0x00000000
       26835000	      2682	8000234c	02095e63	bge	x18,x0,80002388	 x18:0x80009e44  x0:0x00000000
       26845000	      2683	80002350	d1a4b793	sltiu	x15,x9,-742	  x9:0x00000001 x15=0x00000001
       26855000	      2684	80002354	057e0463	beq	x28,x23,8000239c	 x28:0xbddeffc4 x23:0xabc0a0e4
       26865000	      2685	80002358	4150de13	srai	x28,x1,0x15	  x1:0x03a7e174 x28=0x0000001d
       26875000	      2686	8000235c	00d86863	bltu	x16,x13,8000236c	 x16:0xfffffc9d x13:0xe6fa1df0
       26885000	      2687	80002360	fb258493	addi	x9,x11,-78	 x11:0x00000000  x9=0xffffffb2
       26895000	      2688	80002364	405202b3	sub	x5,x4,x5	  x4:0x0ba0e000  x5:0x000000e4  x5=0x0ba0df1c
       26905000	      2689	80002368	036b5263	bge	x22,x22,8000238c	 x22:0x00000000 x22:0x00000000
       26915000	      2690	00000000	00000013	addi	x0,x0,0	  x0:0x00000000
       26925000	      2691	80002388	00000013	addi	x0,x0,0	  x0:0x00000000
       26935000	      2692	8000238c	01544733	xor	x14,x8,x21	  x8:0xfffffe00 x21:0x00000000 x14=0xfffffe00
       26945000	      2693	80002390	00625333	srl	x6,x4,x6	  x4:0x0ba0e000  x6:0x00000000  x6=0x0ba0e000
       26955000	      2694	80002394	00efcc33	xor	x24,x31,x14	 x31:0x00000000 x14:0xfffffe00 x24=0xfffffe00
       26965000	      2695	80002398	4d47f713	andi	x14,x15,1236	 x15:0x00000001 x14=0x00000000
       26975000	      2696	8000239c	0045d393	srli	x7,x11,0x4	 x11:0x00000000  x7=0x00000000
       26985000	      2697	800023a0	4168d233	sra	x4,x17,x22	 x17:0x00000001 x22:0x00000000  x4=0x00000001
       26995000	      2698	800023a4	00fb1233	sll	x4,x22,x15	 x22:0x00000000 x15:0x00000001  x4=0x00000000
       27005000	      2699	800023a8	008e5233	srl	x4,x28,x8	 x28:0x0000001d  x8:0xfffffe00  x4=0x0000001d
       27015000	      2700	800023ac	64428993	addi	x19,x5,1604	  x5:0x0ba0df1c x19=0x0ba0e560
       27025000	      2701	800023b0	0145d013	srli	x0,x11,0x14	 x11:0x00000000
       27035000	      2702	800023b4	15d1c193	xori	x3,x3,349	  x3:0x00000001  x3=0x0000015c
       27045000	      2703	800023b8	55452f13	slti	x30,x10,1364	 x10:0x00000000 x30=0x00000001
       27055000	      2704	800023bc	002b6e33	or	x28,x22,x2	 x22:0x00000000  x2:0x00000000 x28=0x00000000
       27065000	      2705	800023c0	c2805597	auipc	x11,0xc2805	 x11=0x428073bc
       27075000	      2706	800023c4	01b5c663	blt	x11,x27,800023d0	 x11:0x428073bc x27:0x80009f74
       27085000	      2707	800023c8	018c82b3	add	x5,x25,x24	 x25:0x000000e4 x24:0xfffffe00  x5=0xfffffee4
       27095000	      2708	800023cc	001776b3	and	x13,x14,x1	 x14:0x00000000  x1:0x03a7e174 x13=0x00000000
       27105000	      2709	800023d0	01da8833	add	x16,x21,x29	 x21:0x00000000 x29:0xffffffff x16=0xffffffff
       27115000	      2710	800023d4	9826fc17	auipc	x24,0x9826f	 x24=0x182713d0
       27125000	      2711	800023d8	01679b93	slli	x23,x15,0x16	 x15:0x00000001 x23=0x00400000
       27135000	      2712	800023dc	e08ce193	ori	x3,x25,-504	 x25:0x000000e4  x3=0xfffffeec
       27145000	      2713	800023e0	41605a13	srai	x20,x0,0x16	  x0:0x00000000 x20=0x00000000
       27155000	      2714	800023e4	00ecc663	blt	x25,x14,800023f0	 x25:0x000000e4 x14:0x00000000
       27165000	      2715	800023e8	00213533	sltu	x10,x2,x2	  x2:0x00000000  x2:0x00000000 x10=0x00000000
       27175000	      2716	800023ec	00db9663	bne	x23,x13,800023f8	 x23:0x00400000 x13:0x00000000
       27185000	      2717	00000000	00000013	addi	x0,x0,0	  x0:0x00000000
       27195000	      2718	800023f4	00000013	addi	x0,x0,0	  x0:0x00000000
       27205000	      2719	800023f8	04707263	bgeu	x0,x7,8000243c	  x0:0x00000000  x7:0x00000000
       27215000	      2720	00000000	00000013	addi	x0,x0,0	  x0:0x00000000
       27225000	      2721	80002438	00000013	addi	x0,x0,0	  x0:0x00000000
       27235000	      2722	8000243c	4162d233	sra	x4,x5,x22	  x5:0xfffffee4 x22:0x00000000  x4=0xfffffee4
       27245000	      2723	80002440	c15ebc17	auipc	x24,0xc15eb	 x24=0x415ed43c
       27255000	      2724	80002444	02146a63	bltu	x8,x1,80002478	  x8:0xfffffe00  x1:0x03a7e174
       27265000	      2725	80002448	2f3ce297	auipc	x5,0x2f3ce	  x5=0xaf3d0444
       27275000	      2726	8000244c	01d3e6b3	or	x13,x7,x29	  x7:0x00000000 x29:0xffffffff x13=0xffffffff
       27285000	      2727	80002450	00da5533	srl	x10,x20,x13	 x20:0x00000000 x13:0xffffffff x10=0x00000000
       27295000	      2728	80002454	6e46f813	andi	x16,x13,1764	 x13:0xffffffff x16=0x000006e4
       27305000	      2729	80002458	02091263	bne	x18,x0,8000247c	 x18:0x80009e44  x0:0x00000000
       27315000	      2730	00000000	00000013	addi	x0,x0,0	  x0:0x00000000
       27325000	      2731	80002478	00000013	addi	x0,x0,0	  x0:0x00000000
       27335000	      2732	8000247c	04878063	beq	x15,x8,800024bc	 x15:0x00000001  x8:0xfffffe00
       27345000	      2733	80002480	a5e5be13	sltiu	x28,x11,-1442	 x11:0x428073bc x28=0x00000001
       27355000	      2734	80002484	fcc03e17	auipc	x28,0xfcc03	 x28=0x7cc05480
       27365000	      2735	80002488	a77aba17	auipc	x20,0xa77ab	 x20=0x277ad484
       27375000	      2736	8000248c	0136ef33	or	x30,x13,x19	 x13:0xffffffff x19:0x0ba0e560 x30=0xffffffff
       27385000	      2737	80002490	002b1613	slli	x12,x22,0x2	 x22:0x00000000 x12=0x00000000
       27395000	      2738	80002494	008007b3	add	x15,x0,x8	  x0:0x00000000  x8:0xfffffe00 x15=0xfffffe00
       27405000	      2739	80002498	00a9f533	and	x10,x19,x10	 x19:0x0ba0e560 x10:0x00000000 x10=0x00000000
       27415000	      2740	8000249c	02400263	beq	x0,x4,800024c0	  x0:0x00000000  x4:0xfffffee4
       27425000	      2741	800024a0	83bcbc93	sltiu	x25,x25,-1989	 x25:0x000000e4 x25=0x00000001
       27435000	      2742	800024a4	44990c13	addi	x24,x18,1097	 x18:0x80009e44 x24=0x8000a28d
       27445000	      2743	800024a8	00411663	bne	x2,x4,800024b4	  x2:0x00000000  x4:0xfffffee4
       27455000	      2744	00000000	00000013	addi	x0,x0,0	  x0:0x00000000
       27465000	      2745	800024b0	00000013	addi	x0,x0,0	  x0:0x00000000
       27475000	      2746	800024b4	00721c63	bne	x4,x7,800024cc	  x4:0xfffffee4  x7:0x00000000
       27485000	      2747	00000000	00000013	addi	x0,x0,0	  x0:0x00000000
       27495000	      2748	800024c8	00000013	addi	x0,x0,0	  x0:0x00000000
       27505000	      2749	800024cc	02967263	bgeu	x12,x9,800024f0	 x12:0x00000000  x9:0xffffffb2
       27515000	      2750	800024d0	8f2c6313	ori	x6,x24,-1806	 x24:0x8000a28d  x6=0xfffffaff
       27525000	      2751	800024d4	40135633	sra	x12,x6,x1	  x6:0xfffffaff  x1:0x03a7e174 x12=0xffffffff
       27535000	      2752	800024d8	00000013	addi	x0,x0,0	  x0:0x00000000
       27545000	      2753	800024dc	41695813	srai	x16,x18,0x16	 x18:0x80009e44 x16=0xfffffe00
       27555000	      2754	800024e0	a6fb3e93	sltiu	x29,x22,-1425	 x22:0x00000000 x29=0x00000001
       27565000	      2755	800024e4	48b4ba17	auipc	x20,0x48b4b	 x20=0xc8b4d4e0
       27575000	      2756	800024e8	fe8e1737	lui	x14,0xfe8e1	 x14=0xfe8e1000
       27585000	      2757	800024ec	005fd513	srli	x10,x31,0x5	 x31:0x00000000 x10=0x00000000
       27595000	      2758	800024f0	40f6d733	sra	x14,x13,x15	 x13:0xffffffff x15:0xfffffe00 x14=0xffffffff
       27605000	      2759	800024f4	0161c3b3	xor	x7,x3,x22	  x3:0xfffffeec x22:0x00000000  x7=0xfffffeec
       27615000	      2760	800024f8	01859213	slli	x4,x11,0x18	 x11:0x428073bc  x4=0xbc000000
       27625000	      2761	800024fc	40bf5e93	srai	x29,x30,0xb	 x30:0xffffffff x29=0xffffffff
       27635000	      2762	80002500	400a81b3	sub	x3,x21,x0	 x21:0x00000000  x0:0x00000000  x3=0x00000000
       27645000	      2763	80002504	21163693	sltiu	x13,x12,529	 x12:0xffffffff x13=0x00000000
       27655000	      2764	80002508	eeee6493	ori	x9,x28,-274	 x28:0x7cc05480  x9=0xfffffeee
       27665000	      2765	8000250c	020de263	bltu	x27,x0,80002530	 x27:0x80009f74  x0:0x00000000
       27675000	      2766	80002510	0035b6b3	sltu	x13,x11,x3	 x11:0x428073bc  x3:0x00000000 x13=0x00000000
       27685000	      2767	80002514	01180e33	add	x28,x16,x17	 x16:0xfffffe00 x17:0x00000001 x28=0xfffffe01
       27695000	      2768	80002518	c54b2417	auipc	x8,0xc54b2	  x8=0x454b4514
       27705000	      2769	8000251c	052f6463	bltu	x30,x18,80002564	 x30:0xffffffff x18:0x80009e44
       27715000	      2770	80002520	a4687593	andi	x11,x16,-1466	 x16:0xfffffe00 x11=0xfffffa00
       27725000	      2771	80002524	407589b3	sub	x19,x11,x7	 x11:0xfffffa00  x7:0xfffffeec x19=0xfffffb14
       27735000	      2772	80002528	6c23f513	andi	x10,x7,1730	  x7:0xfffffeec x10=0x000006c0
       27745000	      2773	8000252c	0144f863	bgeu	x9,x20,8000253c	  x9:0xfffffeee x20:0xc8b4d4e0
       27755000	      2774	00000000	00000013	addi	x0,x0,0	  x0:0x00000000
       27765000	      2775	80002538	00000013	addi	x0,x0,0	  x0:0x00000000
       27775000	      2776	8000253c	40528cb3	sub	x25,x5,x5	  x5:0xaf3d0444  x5:0xaf3d0444 x25=0x00000000
       27785000	      2777	80002540	012658b3	srl	x17,x12,x18	 x12:0xffffffff x18:0x80009e44 x17=0x0fffffff
       27795000	      2778	80002544	01f2bc33	sltu	x24,x5,x31	  x5:0xaf3d0444 x31:0x00000000 x24=0x00000000
       27805000	      2779	80002548	00221f33	sll	x30,x4,x2	  x4:0xbc000000  x2:0x00000000 x30=0xbc000000
       27815000	      2780	8000254c	147ec393	xori	x7,x29,327	 x29:0xffffffff  x7=0xfffffeb8
       27825000	      2781	80002550	012beeb3	or	x29,x23,x18	 x23:0x00400000 x18:0x80009e44 x29=0x80409e44
       27835000	      2782	80002554	00985193	srli	x3,x16,0x9	 x16:0xfffffe00  x3=0x007fffff
       27845000	      2783	80002558	0175d613	srli	x12,x11,0x17	 x11:0xfffffa00 x12=0x000001ff
       27855000	      2784	8000255c	00132733	slt	x14,x6,x1	  x6:0xfffffaff  x1:0x03a7e174 x14=0x00000001
       27865000	      2785	80002560	60d68f93	addi	x31,x13,1549	 x13:0x00000000 x31=0x0000060d
       27875000	      2786	80002564	01f01993	slli	x19,x0,0x1f	  x0:0x00000000 x19=0x00000000
       27885000	      2787	80002568	00784a33	xor	x20,x16,x7	 x16:0xfffffe00  x7:0xfffffeb8 x20=0x000000b8
       27895000	      2788	8000256c	ffce6517	auipc	x10,0xffce6	 x10=0x7fce8568
       27905000	      2789	80002570	f4087793	andi	x15,x16,-192	 x16:0xfffffe00 x15=0xfffffe00
       27915000	      2790	80002574	00de4c63	blt	x28,x13,8000258c	 x28:0xfffffe01 x13:0x00000000
       27925000	      2791	00000000	00000013	addi	x0,x0,0	  x0:0x00000000
       27935000	      2792	80002588	00000013	addi	x0,x0,0	  x0:0x00000000
       27945000	      2793	8000258c	036b8c63	beq	x23,x22,800025c4	 x23:0x00400000 x22:0x00000000
       27955000	      2794	80002590	004a5433	srl	x8,x20,x4	 x20:0x000000b8  x4:0xbc000000  x8=0x000000b8
       27965000	      2795	80002594	cc933793	sltiu	x15,x6,-823	  x6:0xfffffaff x15=0x00000001
       27975000	      2796	80002598	04761063	bne	x12,x7,800025d8	 x12:0x000001ff  x7:0xfffffeb8
       27985000	      2797	00000000	00000013	addi	x0,x0,0	  x0:0x00000000
       27995000	      2798	800025d4	00000013	addi	x0,x0,0	  x0:0x00000000
       28005000	      2799	800025d8	00000013	addi	x0,x0,0	  x0:0x00000000
       28015000	      2800	800025dc	005ca633	slt	x12,x25,x5	 x25:0x00000000  x5:0xaf3d0444 x12=0x00000000
       28025000	      2801	800025e0	00076c63	bltu	x14,x0,800025f8	 x14:0x00000001  x0:0x00000000
       28035000	      2802	800025e4	007c9e33	sll	x28,x25,x7	 x25:0x00000000  x7:0xfffffeb8 x28=0x00000000
       28045000	      2803	800025e8	d7af2f93	slti	x31,x30,-646	 x30:0xbc000000 x31=0x00000001
       28055000	      2804	800025ec	17b9c393	xori	x7,x19,379	 x19:0x00000000  x7=0x0000017b
       28065000	      2805	800025f0	00000013	addi	x0,x0,0	  x0:0x00000000
       28075000	      2806	800025f4	00000013	addi	x0,x0,0	  x0:0x00000000
       28085000	      2807	800025f8	03144a63	blt	x8,x17,8000262c	  x8:0x000000b8 x17:0x0fffffff
       28095000	      2808	00000000	00000013	addi	x0,x0,0	  x0:0x00000000
       28105000	      2809	80002628	00000013	addi	x0,x0,0	  x0:0x00000000
       28115000	      2810	8000262c	0199fe33	and	x28,x19,x25	 x19:0x00000000 x25:0x00000000 x28=0x00000000
       28125000	      2811	80002630	014f1733	sll	x14,x30,x20	 x30:0xbc000000 x20:0x000000b8 x14=0x00000000
       28135000	      2812	80002634	410a5833	sra	x16,x20,x16	 x20:0x000000b8 x16:0xfffffe00 x16=0x000000b8
       28145000	      2813	80002638	000655b3	srl	x11,x12,x0	 x12:0x00000000  x0:0x00000000 x11=0x00000000
       28155000	      2814	8000263c	01915813	srli	x16,x2,0x19	  x2:0x00000000 x16=0x00000000
       28165000	      2815	80002640	01a69e93	slli	x29,x13,0x1a	 x13:0x00000000 x29=0x00000000
       28175000	      2816	80002644	01059233	sll	x4,x11,x16	 x11:0x00000000 x16:0x00000000  x4=0x00000000
       28185000	      2817	80002648	01131cb3	sll	x25,x6,x17	  x6:0xfffffaff x17:0x0fffffff x25=0x80000000
       28195000	      2818	8000264c	badc7693	andi	x13,x24,-1107	 x24:0x00000000 x13=0x00000000
       28205000	      2819	80002650	0390e863	bltu	x1,x25,80002680	  x1:0x03a7e174 x25:0x80000000
       28215000	      2820	00000000	00000013	addi	x0,x0,0	  x0:0x00000000
       28225000	      2821	8000267c	00000013	addi	x0,x0,0	  x0:0x00000000
       28235000	      2822	80002680	77a6c9b7	lui	x19,0x77a6c	 x19=0x77a6c000
       28245000	      2823	80002684	00398a33	add	x20,x19,x3	 x19:0x77a6c000  x3:0x007fffff x20=0x7826bfff
       28255000	      2824	80002688	069f6993	ori	x19,x30,105	 x30:0xbc000000 x19=0xbc000069
       28265000	      2825	8000268c	01fe1f93	slli	x31,x28,0x1f	 x28:0x00000000 x31=0x00000000
       28275000	      2826	80002690	00000013	addi	x0,x0,0	  x0:0x00000000
       28285000	      2827	80002694	05a44463	blt	x8,x26,800026dc	  x8:0x000000b8 x26:0x80009fc4
       28295000	      2828	80002698	4027d513	srai	x10,x15,0x2	 x15:0x00000001 x10=0x00000000
       28305000	      2829	8000269c	029c6263	bltu	x24,x9,800026c0	 x24:0x00000000  x9:0xfffffeee
       28315000	      2830	00000000	00000013	addi	x0,x0,0	  x0:0x00000000
       28325000	      2831	800026bc	00000013	addi	x0,x0,0	  x0:0x00000000
       28335000	      2832	800026c0	0238e263	bltu	x17,x3,800026e4	 x17:0x0fffffff  x3:0x007fffff
       28345000	      2833	800026c4	010eecb3	or	x25,x29,x16	 x29:0x00000000 x16:0x00000000 x25=0x00000000
       28355000	      2834	800026c8	0046d033	srl	x0,x13,x4	 x13:0x00000000  x4:0x00000000
       28365000	      2835	800026cc	0032e933	or	x18,x5,x3	  x5:0xaf3d0444  x3:0x007fffff x18=0xaf7fffff
       28375000	      2836	800026d0	03cdda63	bge	x27,x28,80002704	 x27:0x80009f74 x28:0x00000000
       28385000	      2837	800026d4	d93a8f93	addi	x31,x21,-621	 x21:0x00000000 x31=0xfffffd93
       28395000	      2838	800026d8	017755b3	srl	x11,x14,x23	 x14:0x00000000 x23:0x00400000 x11=0x00000000
       28405000	      2839	800026dc	d498c313	xori	x6,x17,-695	 x17:0x0fffffff  x6=0xf00002b6
       28415000	      2840	800026e0	41d65593	srai	x11,x12,0x1d	 x12:0x00000000 x11=0x00000000
       28425000	      2841	800026e4	0547f263	bgeu	x15,x20,80002728	 x15:0x00000001 x20:0x7826bfff
       28435000	      2842	800026e8	41715fb3	sra	x31,x2,x23	  x2:0x00000000 x23:0x00400000 x31=0x00000000
       28445000	      2843	800026ec	01ea97b3	sll	x15,x21,x30	 x21:0x00000000 x30:0xbc000000 x15=0x00000000
       28455000	      2844	800026f0	0e972b93	slti	x23,x14,233	 x14:0x00000000 x23=0x00000001
       28465000	      2845	800026f4	00db7c63	bgeu	x22,x13,8000270c	 x22:0x00000000 x13:0x00000000
       28475000	      2846	00000000	00000013	addi	x0,x0,0	  x0:0x00000000
       28485000	      2847	80002708	00000013	addi	x0,x0,0	  x0:0x00000000
       28495000	      2848	8000270c	00776cb3	or	x25,x14,x7	 x14:0x00000000  x7:0x0000017b x25=0x0000017b
       28505000	      2849	80002710	680b2993	slti	x19,x22,1664	 x22:0x00000000 x19=0x00000001
       28515000	      2850	80002714	8a153b13	sltiu	x22,x10,-1887	 x10:0x00000000 x22=0x00000001
       28525000	      2851	80002718	00c25663	bge	x4,x12,80002724	  x4:0x00000000 x12:0x00000000
       28535000	      2852	00000000	00000013	addi	x0,x0,0	  x0:0x00000000
       28545000	      2853	80002720	00000013	addi	x0,x0,0	  x0:0x00000000
       28555000	      2854	80002724	40ead313	srai	x6,x21,0xe	 x21:0x00000000  x6=0x00000000
       28565000	      2855	80002728	01c35ab3	srl	x21,x6,x28	  x6:0x00000000 x28:0x00000000 x21=0x00000000
       28575000	      2856	8000272c	00cf8233	add	x4,x31,x12	 x31:0x00000000 x12:0x00000000  x4=0x00000000
       28585000	      2857	80002730	019a7433	and	x8,x20,x25	 x20:0x7826bfff x25:0x0000017b  x8=0x0000017b
       28595000	      2858	80002734	00000013	addi	x0,x0,0	  x0:0x00000000
       28605000	      2859	80002738	ed9ec593	xori	x11,x29,-295	 x29:0x00000000 x11=0xfffffed9
       28615000	      2860	8000273c	40e18e33	sub	x28,x3,x14	  x3:0x007fffff x14:0x00000000 x28=0x007fffff
       28625000	      2861	80002740	04d71c63	bne	x14,x13,80002798	 x14:0x00000000 x13:0x00000000
       28635000	      2862	80002744	837e2717	auipc	x14,0x837e2	 x14=0x037e4740
       28645000	      2863	80002748	00bcc4b3	xor	x9,x25,x11	 x25:0x0000017b x11:0xfffffed9  x9=0xffffffa2
       28655000	      2864	8000274c	05aec863	blt	x29,x26,8000279c	 x29:0x00000000 x26:0x80009fc4
       28665000	      2865	80002750	e3284513	xori	x10,x16,-462	 x16:0x00000000 x10=0xfffffe32
       28675000	      2866	80002754	00319c63	bne	x3,x3,8000276c	  x3:0x007fffff  x3:0x007fffff
       28685000	      2867	80002758	41ded9b3	sra	x19,x29,x29	 x29:0x00000000 x29:0x00000000 x19=0x00000000
       28695000	      2868	8000275c	00da8033	add	x0,x21,x13	 x21:0x00000000 x13:0x00000000
       28705000	      2869	80002760	4142da93	srai	x21,x5,0x14	  x5:0xaf3d0444 x21=0xfffffaf3
       28715000	      2870	80002764	0190a433	slt	x8,x1,x25	  x1:0x03a7e174 x25:0x0000017b  x8=0x00000000
       28725000	      2871	80002768	02cb6863	bltu	x22,x12,80002798	 x22:0x00000001 x12:0x00000000
       28735000	      2872	8000276c	d9107913	andi	x18,x0,-623	  x0:0x00000000 x18=0x00000000
       28745000	      2873	80002770	00000297	auipc	x5,0x0	  x5=0x8000276c
       28755000	      2874	80002774	77828293	addi	x5,x5,1912	  x5:0x8000276c  x5=0x80002ee4
       28765000	      2875	80002778	00c4cbb3	xor	x23,x9,x12	  x9:0xffffffa2 x12:0x00000000 x23=0xffffffa2
       28775000	      2876	8000277c	00000013	addi	x0,x0,0	  x0:0x00000000
       28785000	      2877	80002780	0186f233	and	x4,x13,x24	 x13:0x00000000 x24:0x00000000  x4=0x00000000
       28795000	      2878	80002784	40b80633	sub	x12,x16,x11	 x16:0x00000000 x11:0xfffffed9 x12=0x00000127
       28805000	      2879	80002788	19728293	addi	x5,x5,407	  x5:0x80002ee4  x5=0x8000307b
       28815000	      2880	8000278c	004eaf33	slt	x30,x29,x4	 x29:0x00000000  x4:0x00000000 x30=0x00000000
       28825000	      2881	80002790	e6a28367	jalr	x6,x5,-406	  x5:0x8000307b  x6=0x80002790
       28835000	      2882	00000000	00000013	addi	x0,x0,0	  x0:0x00000000
       28845000	      2883	80002ee4	00000013	addi	x0,x0,0	  x0:0x00000000
       28855000	      2884	80002ee8	bca2fa13	andi	x20,x5,-1078	  x5:0x8000307b x20=0x8000304a
       28865000	      2885	80002eec	012ede33	srl	x28,x29,x18	 x29:0x00000000 x18:0x00000000 x28=0x00000000
       28875000	      2886	80002ef0	ff0d8d93	addi	x27,x27,-16	 x27:0x80009f74 x27=0x80009f64
       28885000	      2887	80002ef4	008c5893	srli	x17,x24,0x8	 x24:0x00000000 x17=0x00000000
       28895000	      2888	80002ef8	006da223	sw	x6,4(x27)	 x27:0x80009f64  x6:0x80002790 PA:0x80009f68
       28905000	      2889	80002efc	01100fb3	add	x31,x0,x17	  x0:0x00000000 x17:0x00000000 x31=0x00000000
       28915000	      2890	80002f00	01c480b3	add	x1,x9,x28	  x9:0xffffffa2 x28:0x00000000  x1=0xffffffa2
       28925000	      2891	80002f04	ffefc013	xori	x0,x31,-2	 x31:0x00000000
       28935000	      2892	80002f08	00000013	addi	x0,x0,0	  x0:0x00000000
       28945000	      2893	80002f0c	7856b093	sltiu	x1,x13,1925	 x13:0x00000000  x1=0x00000001
       28955000	      2894	80002f10	0012e733	or	x14,x5,x1	  x5:0x8000307b  x1:0x00000001 x14=0x8000307b
       28965000	      2895	80002f14	8bc5f793	andi	x15,x11,-1860	 x11:0xfffffed9 x15=0xfffff898
       28975000	      2896	80002f18	00c78f33	add	x30,x15,x12	 x15:0xfffff898 x12:0x00000127 x30=0xfffff9bf
       28985000	      2897	80002f1c	00522333	slt	x6,x4,x5	  x4:0x00000000  x5:0x8000307b  x6=0x00000000
       28995000	      2898	80002f20	00000397	auipc	x7,0x0	  x7=0x80002f1c
       29005000	      2899	80002f24	4d038393	addi	x7,x7,1232	  x7:0x80002f1c  x7=0x800033ec
       29015000	      2900	80002f28	d433ab13	slti	x22,x7,-701	  x7:0x800033ec x22=0x00000001
       29025000	      2901	80002f2c	01f99833	sll	x16,x19,x31	 x19:0x00000000 x31:0x00000000 x16=0x00000000
       29035000	      2902	80002f30	41768833	sub	x16,x13,x23	 x13:0x00000000 x23:0xffffffa2 x16=0x0000005e
       29045000	      2903	80002f34	f5926613	ori	x12,x4,-167	  x4:0x00000000 x12=0xffffff59
       29055000	      2904	80002f38	e8d38393	addi	x7,x7,-371	  x7:0x800033ec  x7=0x80003279
       29065000	      2905	80002f3c	001df333	and	x6,x27,x1	 x27:0x80009f64  x1:0x00000001  x6=0x00000000
       29075000	      2906	80002f40	17338367	jalr	x6,x7,371	  x7:0x80003279  x6=0x80002f40
       29085000	      2907	00000000	00000013	addi	x0,x0,0	  x0:0x00000000
       29095000	      2908	800033ec	00000013	addi	x0,x0,0	  x0:0x00000000
       29105000	      2909	800033f0	fc8d8d93	addi	x27,x27,-56	 x27:0x80009f64 x27=0x80009f2c
       29115000	      2910	800033f4	00791f93	slli	x31,x18,0x7	 x18:0x00000000 x31=0x00000000
       29125000	      2911	800033f8	006da223	sw	x6,4(x27)	 x27:0x80009f2c  x6:0x80002f40 PA:0x80009f30
       29135000	      2912	800033fc	d1970a13	addi	x20,x14,-743	 x14:0x8000307b x20=0x80002d94
       29145000	      2913	80003400	00022233	slt	x4,x4,x0	  x4:0x00000000  x0:0x00000000  x4=0x00000000
       29155000	      2914	80003404	75eb5217	auipc	x4,0x75eb5	  x4=0xf5eb8400
       29165000	      2915	80003408	e0c01617	auipc	x12,0xe0c01	 x12=0x60c04404
       29175000	      2916	8000340c	00965293	srli	x5,x12,0x9	 x12:0x60c04404  x5=0x00306022
       29185000	      2917	80003410	01082ab3	slt	x21,x16,x16	 x16:0x0000005e x16:0x0000005e x21=0x00000000
       29195000	      2918	80003414	4060d033	sra	x0,x1,x6	  x1:0x00000001  x6:0x80002f40
       29205000	      2919	80003418	01ae6cb3	or	x25,x28,x26	 x28:0x00000000 x26:0x80009fc4 x25=0x80009fc4
       29215000	      2920	8000341c	0280036f	jal	x6,8000341c	  x6=0x8000341c
       29225000	      2921	00000000	00000013	addi	x0,x0,0	  x0:0x00000000
       29235000	      2922	80003440	00000013	addi	x0,x0,0	  x0:0x00000000
       29245000	      2923	80003444	fe9ff1ef	jal	x3,80003444	  x3=0x80003444
       29255000	      2924	00000000	00000013	addi	x0,x0,0	  x0:0x00000000
       29265000	      2925	80003428	00000013	addi	x0,x0,0	  x0:0x00000000
       29275000	      2926	8000342c	ffdff36f	jal	x6,8000342c	  x6=0x8000342c
       29285000	      2927	00000000	00000013	addi	x0,x0,0	  x0:0x00000000
       29295000	      2928	80003424	00000013	addi	x0,x0,0	  x0:0x00000000
       29305000	      2929	80003428	018000ef	jal	x1,80003428	  x1=0x80003428
       29315000	      2930	00000000	00000013	addi	x0,x0,0	  x0:0x00000000
       29325000	      2931	8000343c	00000013	addi	x0,x0,0	  x0:0x00000000
       29335000	      2932	80003440	ff1ff36f	jal	x6,80003440	  x6=0x80003440
       29345000	      2933	00000000	00000013	addi	x0,x0,0	  x0:0x00000000
       29355000	      2934	8000342c	00000013	addi	x0,x0,0	  x0:0x00000000
       29365000	      2935	80003430	ff5fff6f	jal	x30,80003430	 x30=0x80003430
       29375000	      2936	00000000	00000013	addi	x0,x0,0	  x0:0x00000000
       29385000	      2937	80003420	00000013	addi	x0,x0,0	  x0:0x00000000
       29395000	      2938	80003424	024001ef	jal	x3,80003424	  x3=0x80003424
       29405000	      2939	00000000	00000013	addi	x0,x0,0	  x0:0x00000000
       29415000	      2940	80003444	00000013	addi	x0,x0,0	  x0:0x00000000
       29425000	      2941	80003448	fedff0ef	jal	x1,80003448	  x1=0x80003448
       29435000	      2942	00000000	00000013	addi	x0,x0,0	  x0:0x00000000
       29445000	      2943	80003430	00000013	addi	x0,x0,0	  x0:0x00000000
       29455000	      2944	80003434	008000ef	jal	x1,80003434	  x1=0x80003434
       29465000	      2945	00000000	00000013	addi	x0,x0,0	  x0:0x00000000
       29475000	      2946	80003438	00000013	addi	x0,x0,0	  x0:0x00000000
       29485000	      2947	8000343c	ffdff0ef	jal	x1,8000343c	  x1=0x8000343c
       29495000	      2948	00000000	00000013	addi	x0,x0,0	  x0:0x00000000
       29505000	      2949	80003434	00000013	addi	x0,x0,0	  x0:0x00000000
       29515000	      2950	80003438	fe9ff0ef	jal	x1,80003438	  x1=0x80003438
       29525000	      2951	00000000	00000013	addi	x0,x0,0	  x0:0x00000000
       29535000	      2952	8000341c	00000013	addi	x0,x0,0	  x0:0x00000000
       29545000	      2953	80003420	02c0036f	jal	x6,80003420	  x6=0x80003420
       29555000	      2954	00000000	00000013	addi	x0,x0,0	  x0:0x00000000
       29565000	      2955	80003448	00000013	addi	x0,x0,0	  x0:0x00000000
       29575000	      2956	8000344c	08cc3837	lui	x16,0x8cc3	 x16=0x08cc3000
       29585000	      2957	80003450	0100036f	jal	x6,80003450	  x6=0x80003450
       29595000	      2958	00000000	00000013	addi	x0,x0,0	  x0:0x00000000
       29605000	      2959	8000345c	00000013	addi	x0,x0,0	  x0:0x00000000
       29615000	      2960	80003460	014000ef	jal	x1,80003460	  x1=0x80003460
       29625000	      2961	00000000	00000013	addi	x0,x0,0	  x0:0x00000000
       29635000	      2962	80003470	00000013	addi	x0,x0,0	  x0:0x00000000
       29645000	      2963	80003474	ff5ff36f	jal	x6,80003474	  x6=0x80003474
       29655000	      2964	00000000	00000013	addi	x0,x0,0	  x0:0x00000000
       29665000	      2965	80003464	00000013	addi	x0,x0,0	  x0:0x00000000
       29675000	      2966	80003468	008000ef	jal	x1,80003468	  x1=0x80003468
       29685000	      2967	00000000	00000013	addi	x0,x0,0	  x0:0x00000000
       29695000	      2968	8000346c	00000013	addi	x0,x0,0	  x0:0x00000000
       29705000	      2969	80003470	fedff0ef	jal	x1,80003470	  x1=0x80003470
       29715000	      2970	00000000	00000013	addi	x0,x0,0	  x0:0x00000000
       29725000	      2971	80003458	00000013	addi	x0,x0,0	  x0:0x00000000
       29735000	      2972	8000345c	01c001ef	jal	x3,8000345c	  x3=0x8000345c
       29745000	      2973	00000000	00000013	addi	x0,x0,0	  x0:0x00000000
       29755000	      2974	80003474	00000013	addi	x0,x0,0	  x0:0x00000000
       29765000	      2975	80003478	fe1ff36f	jal	x6,80003478	  x6=0x80003478
       29775000	      2976	00000000	00000013	addi	x0,x0,0	  x0:0x00000000
       29785000	      2977	80003454	00000013	addi	x0,x0,0	  x0:0x00000000
       29795000	      2978	80003458	014000ef	jal	x1,80003458	  x1=0x80003458
       29805000	      2979	00000000	00000013	addi	x0,x0,0	  x0:0x00000000
       29815000	      2980	80003468	00000013	addi	x0,x0,0	  x0:0x00000000
       29825000	      2981	8000346c	fe9ff0ef	jal	x1,8000346c	  x1=0x8000346c
       29835000	      2982	00000000	00000013	addi	x0,x0,0	  x0:0x00000000
       29845000	      2983	80003450	00000013	addi	x0,x0,0	  x0:0x00000000
       29855000	      2984	80003454	0100036f	jal	x6,80003454	  x6=0x80003454
       29865000	      2985	00000000	00000013	addi	x0,x0,0	  x0:0x00000000
       29875000	      2986	80003460	00000013	addi	x0,x0,0	  x0:0x00000000
       29885000	      2987	80003464	018000ef	jal	x1,80003464	  x1=0x80003464
       29895000	      2988	00000000	00000013	addi	x0,x0,0	  x0:0x00000000
       29905000	      2989	80003478	00000013	addi	x0,x0,0	  x0:0x00000000
       29915000	      2990	8000347c	40710e33	sub	x28,x2,x7	  x2:0x00000000  x7:0x80003279 x28=0x7fffcd87
       29925000	      2991	80003480	0200036f	jal	x6,80003480	  x6=0x80003480
       29935000	      2992	00000000	00000013	addi	x0,x0,0	  x0:0x00000000
       29945000	      2993	8000349c	00000013	addi	x0,x0,0	  x0:0x00000000
       29955000	      2994	800034a0	0100086f	jal	x16,800034a0	 x16=0x800034a0
       29965000	      2995	00000000	00000013	addi	x0,x0,0	  x0:0x00000000
       29975000	      2996	800034ac	00000013	addi	x0,x0,0	  x0:0x00000000
       29985000	      2997	800034b0	fd5ff0ef	jal	x1,800034b0	  x1=0x800034b0
       29995000	      2998	00000000	00000013	addi	x0,x0,0	  x0:0x00000000
       30005000	      2999	80003480	00000013	addi	x0,x0,0	  x0:0x00000000
       30015000	      3000	80003484	00c0076f	jal	x14,80003484	 x14=0x80003484
       30025000	      3001	00000000	00000013	addi	x0,x0,0	  x0:0x00000000
       30035000	      3002	8000348c	00000013	addi	x0,x0,0	  x0:0x00000000
       30045000	      3003	80003490	01c0036f	jal	x6,80003490	  x6=0x80003490
       30055000	      3004	00000000	00000013	addi	x0,x0,0	  x0:0x00000000
       30065000	      3005	800034a8	00000013	addi	x0,x0,0	  x0:0x00000000
       30075000	      3006	800034ac	ff1ff36f	jal	x6,800034ac	  x6=0x800034ac
       30085000	      3007	00000000	00000013	addi	x0,x0,0	  x0:0x00000000
       30095000	      3008	80003498	00000013	addi	x0,x0,0	  x0:0x00000000
       30105000	      3009	8000349c	0440036f	jal	x6,8000349c	  x6=0x8000349c
       30115000	      3010	00000000	00000013	addi	x0,x0,0	  x0:0x00000000
       30125000	      3011	800034dc	00000013	addi	x0,x0,0	  x0:0x00000000
       30135000	      3012	800034e0	00800c6f	jal	x24,800034e0	 x24=0x800034e0
       30145000	      3013	00000000	00000013	addi	x0,x0,0	  x0:0x00000000
       30155000	      3014	800034e4	00000013	addi	x0,x0,0	  x0:0x00000000
       30165000	      3015	800034e8	fc1ff1ef	jal	x3,800034e8	  x3=0x800034e8
       30175000	      3016	00000000	00000013	addi	x0,x0,0	  x0:0x00000000
       30185000	      3017	800034a4	00000013	addi	x0,x0,0	  x0:0x00000000
       30195000	      3018	800034a8	03c000ef	jal	x1,800034a8	  x1=0x800034a8
       30205000	      3019	00000000	00000013	addi	x0,x0,0	  x0:0x00000000
       30215000	      3020	800034e0	00000013	addi	x0,x0,0	  x0:0x00000000
       30225000	      3021	800034e4	00c000ef	jal	x1,800034e4	  x1=0x800034e4
       30235000	      3022	00000000	00000013	addi	x0,x0,0	  x0:0x00000000
       30245000	      3023	800034ec	00000013	addi	x0,x0,0	  x0:0x00000000
       30255000	      3024	800034f0	fe9ff0ef	jal	x1,800034f0	  x1=0x800034f0
       30265000	      3025	00000000	00000013	addi	x0,x0,0	  x0:0x00000000
       30275000	      3026	800034d4	00000013	addi	x0,x0,0	  x0:0x00000000
       30285000	      3027	800034d8	fbdff0ef	jal	x1,800034d8	  x1=0x800034d8
       30295000	      3028	00000000	00000013	addi	x0,x0,0	  x0:0x00000000
       30305000	      3029	80003490	00000013	addi	x0,x0,0	  x0:0x00000000
       30315000	      3030	80003494	0580076f	jal	x14,80003494	 x14=0x80003494
       30325000	      3031	00000000	00000013	addi	x0,x0,0	  x0:0x00000000
       30335000	      3032	800034e8	00000013	addi	x0,x0,0	  x0:0x00000000
       30345000	      3033	800034ec	ff1ff0ef	jal	x1,800034ec	  x1=0x800034ec
       30355000	      3034	00000000	00000013	addi	x0,x0,0	  x0:0x00000000
       30365000	      3035	800034d8	00000013	addi	x0,x0,0	  x0:0x00000000
       30375000	      3036	800034dc	fe9ff36f	jal	x6,800034dc	  x6=0x800034dc
       30385000	      3037	00000000	00000013	addi	x0,x0,0	  x0:0x00000000
       30395000	      3038	800034c0	00000013	addi	x0,x0,0	  x0:0x00000000
       30405000	      3039	800034c4	fe1ff0ef	jal	x1,800034c4	  x1=0x800034c4
       30415000	      3040	00000000	00000013	addi	x0,x0,0	  x0:0x00000000
       30425000	      3041	800034a0	00000013	addi	x0,x0,0	  x0:0x00000000
       30435000	      3042	800034a4	018000ef	jal	x1,800034a4	  x1=0x800034a4
       30445000	      3043	00000000	00000013	addi	x0,x0,0	  x0:0x00000000
       30455000	      3044	800034b8	00000013	addi	x0,x0,0	  x0:0x00000000
       30465000	      3045	800034bc	00c000ef	jal	x1,800034bc	  x1=0x800034bc
       30475000	      3046	00000000	00000013	addi	x0,x0,0	  x0:0x00000000
       30485000	      3047	800034c4	00000013	addi	x0,x0,0	  x0:0x00000000
       30495000	      3048	800034c8	004000ef	jal	x1,800034c8	  x1=0x800034c8
       30505000	      3049	00000000	00000013	addi	x0,x0,0	  x0:0x00000000
       30515000	      3050	800034c8	00000013	addi	x0,x0,0	  x0:0x00000000
       30525000	      3051	800034cc	fe9ff0ef	jal	x1,800034cc	  x1=0x800034cc
       30535000	      3052	00000000	00000013	addi	x0,x0,0	  x0:0x00000000
       30545000	      3053	800034b0	00000013	addi	x0,x0,0	  x0:0x00000000
       30555000	      3054	800034b4	fd5ff26f	jal	x4,800034b4	  x4=0x800034b4
       30565000	      3055	00000000	00000013	addi	x0,x0,0	  x0:0x00000000
       30575000	      3056	80003484	00000013	addi	x0,x0,0	  x0:0x00000000
       30585000	      3057	80003488	038000ef	jal	x1,80003488	  x1=0x80003488
       30595000	      3058	00000000	00000013	addi	x0,x0,0	  x0:0x00000000
       30605000	      3059	800034bc	00000013	addi	x0,x0,0	  x0:0x00000000
       30615000	      3060	800034c0	fcdff36f	jal	x6,800034c0	  x6=0x800034c0
       30625000	      3061	00000000	00000013	addi	x0,x0,0	  x0:0x00000000
       30635000	      3062	80003488	00000013	addi	x0,x0,0	  x0:0x00000000
       30645000	      3063	8000348c	048005ef	jal	x11,8000348c	 x11=0x8000348c
       30655000	      3064	00000000	00000013	addi	x0,x0,0	  x0:0x00000000
       30665000	      3065	800034d0	00000013	addi	x0,x0,0	  x0:0x00000000
       30675000	      3066	800034d4	fe5ff1ef	jal	x3,800034d4	  x3=0x800034d4
       30685000	      3067	00000000	00000013	addi	x0,x0,0	  x0:0x00000000
       30695000	      3068	800034b4	00000013	addi	x0,x0,0	  x0:0x00000000
       30705000	      3069	800034b8	0180036f	jal	x6,800034b8	  x6=0x800034b8
       30715000	      3070	00000000	00000013	addi	x0,x0,0	  x0:0x00000000
       30725000	      3071	800034cc	00000013	addi	x0,x0,0	  x0:0x00000000
       30735000	      3072	800034d0	fc9ff0ef	jal	x1,800034d0	  x1=0x800034d0
       30745000	      3073	00000000	00000013	addi	x0,x0,0	  x0:0x00000000
       30755000	      3074	80003494	00000013	addi	x0,x0,0	  x0:0x00000000
       30765000	      3075	80003498	05c0036f	jal	x6,80003498	  x6=0x80003498
       30775000	      3076	00000000	00000013	addi	x0,x0,0	  x0:0x00000000
       30785000	      3077	800034f0	00000013	addi	x0,x0,0	  x0:0x00000000
       30795000	      3078	800034f4	01155613	srli	x12,x10,0x11	 x10:0xfffffe32 x12=0x00007fff
       30805000	      3079	800034f8	0340036f	jal	x6,800034f8	  x6=0x800034f8
       30815000	      3080	00000000	00000013	addi	x0,x0,0	  x0:0x00000000
       30825000	      3081	80003528	00000013	addi	x0,x0,0	  x0:0x00000000
       30835000	      3082	8000352c	fd5ff0ef	jal	x1,8000352c	  x1=0x8000352c
       30845000	      3083	00000000	00000013	addi	x0,x0,0	  x0:0x00000000
       30855000	      3084	800034fc	00000013	addi	x0,x0,0	  x0:0x00000000
       30865000	      3085	80003500	014000ef	jal	x1,80003500	  x1=0x80003500
       30875000	      3086	00000000	00000013	addi	x0,x0,0	  x0:0x00000000
       30885000	      3087	80003510	00000013	addi	x0,x0,0	  x0:0x00000000
       30895000	      3088	80003514	00c000ef	jal	x1,80003514	  x1=0x80003514
       30905000	      3089	00000000	00000013	addi	x0,x0,0	  x0:0x00000000
       30915000	      3090	8000351c	00000013	addi	x0,x0,0	  x0:0x00000000
       30925000	      3091	80003520	004000ef	jal	x1,80003520	  x1=0x80003520
       30935000	      3092	00000000	00000013	addi	x0,x0,0	  x0:0x00000000
       30945000	      3093	80003520	00000013	addi	x0,x0,0	  x0:0x00000000
       30955000	      3094	80003524	0040086f	jal	x16,80003524	 x16=0x80003524
       30965000	      3095	00000000	00000013	addi	x0,x0,0	  x0:0x00000000
       30975000	      3096	80003524	00000013	addi	x0,x0,0	  x0:0x00000000
       30985000	      3097	80003528	fe5ff96f	jal	x18,80003528	 x18=0x80003528
       30995000	      3098	00000000	00000013	addi	x0,x0,0	  x0:0x00000000
       31005000	      3099	80003508	00000013	addi	x0,x0,0	  x0:0x00000000
       31015000	      3100	8000350c	ff1ff36f	jal	x6,8000350c	  x6=0x8000350c
       31025000	      3101	00000000	00000013	addi	x0,x0,0	  x0:0x00000000
       31035000	      3102	800034f8	00000013	addi	x0,x0,0	  x0:0x00000000
       31045000	      3103	800034fc	014000ef	jal	x1,800034fc	  x1=0x800034fc
       31055000	      3104	00000000	00000013	addi	x0,x0,0	  x0:0x00000000
       31065000	      3105	8000350c	00000013	addi	x0,x0,0	  x0:0x00000000
       31075000	      3106	80003510	028000ef	jal	x1,80003510	  x1=0x80003510
       31085000	      3107	00000000	00000013	addi	x0,x0,0	  x0:0x00000000
       31095000	      3108	80003534	00000013	addi	x0,x0,0	  x0:0x00000000
       31105000	      3109	80003538	00400c6f	jal	x24,80003538	 x24=0x80003538
       31115000	      3110	00000000	00000013	addi	x0,x0,0	  x0:0x00000000
       31125000	      3111	80003538	00000013	addi	x0,x0,0	  x0:0x00000000
       31135000	      3112	8000353c	fe1ff36f	jal	x6,8000353c	  x6=0x8000353c
       31145000	      3113	00000000	00000013	addi	x0,x0,0	  x0:0x00000000
       31155000	      3114	80003518	00000013	addi	x0,x0,0	  x0:0x00000000
       31165000	      3115	8000351c	01800fef	jal	x31,8000351c	 x31=0x8000351c
       31175000	      3116	00000000	00000013	addi	x0,x0,0	  x0:0x00000000
       31185000	      3117	80003530	00000013	addi	x0,x0,0	  x0:0x00000000
       31195000	      3118	80003534	fe5ff0ef	jal	x1,80003534	  x1=0x80003534
       31205000	      3119	00000000	00000013	addi	x0,x0,0	  x0:0x00000000
       31215000	      3120	80003514	00000013	addi	x0,x0,0	  x0:0x00000000
       31225000	      3121	80003518	018008ef	jal	x17,80003518	 x17=0x80003518
       31235000	      3122	00000000	00000013	addi	x0,x0,0	  x0:0x00000000
       31245000	      3123	8000352c	00000013	addi	x0,x0,0	  x0:0x00000000
       31255000	      3124	80003530	fd9ff26f	jal	x4,80003530	  x4=0x80003530
       31265000	      3125	00000000	00000013	addi	x0,x0,0	  x0:0x00000000
       31275000	      3126	80003504	00000013	addi	x0,x0,0	  x0:0x00000000
       31285000	      3127	80003508	ffdff0ef	jal	x1,80003508	  x1=0x80003508
       31295000	      3128	00000000	00000013	addi	x0,x0,0	  x0:0x00000000
       31305000	      3129	80003500	00000013	addi	x0,x0,0	  x0:0x00000000
       31315000	      3130	80003504	03c000ef	jal	x1,80003504	  x1=0x80003504
       31325000	      3131	00000000	00000013	addi	x0,x0,0	  x0:0x00000000
       31335000	      3132	8000353c	00000013	addi	x0,x0,0	  x0:0x00000000
       31345000	      3133	80003540	405bd3b3	sra	x7,x23,x5	 x23:0xffffffa2  x5:0x00306022  x7=0xffffffe8
       31355000	      3134	80003544	05c0036f	jal	x6,80003544	  x6=0x80003544
       31365000	      3135	00000000	00000013	addi	x0,x0,0	  x0:0x00000000
       31375000	      3136	8000359c	00000013	addi	x0,x0,0	  x0:0x00000000
       31385000	      3137	800035a0	fb9ffc6f	jal	x24,800035a0	 x24=0x800035a0
       31395000	      3138	00000000	00000013	addi	x0,x0,0	  x0:0x00000000
       31405000	      3139	80003554	00000013	addi	x0,x0,0	  x0:0x00000000
       31415000	      3140	80003558	018000ef	jal	x1,80003558	  x1=0x80003558
       31425000	      3141	00000000	00000013	addi	x0,x0,0	  x0:0x00000000
       31435000	      3142	8000356c	00000013	addi	x0,x0,0	  x0:0x00000000
       31445000	      3143	80003570	fe5fffef	jal	x31,80003570	 x31=0x80003570
       31455000	      3144	00000000	00000013	addi	x0,x0,0	  x0:0x00000000
       31465000	      3145	80003550	00000013	addi	x0,x0,0	  x0:0x00000000
       31475000	      3146	80003554	034009ef	jal	x19,80003554	 x19=0x80003554
       31485000	      3147	00000000	00000013	addi	x0,x0,0	  x0:0x00000000
       31495000	      3148	80003584	00000013	addi	x0,x0,0	  x0:0x00000000
       31505000	      3149	80003588	fedff9ef	jal	x19,80003588	 x19=0x80003588
       31515000	      3150	00000000	00000013	addi	x0,x0,0	  x0:0x00000000
       31525000	      3151	80003570	00000013	addi	x0,x0,0	  x0:0x00000000
       31535000	      3152	80003574	fedffeef	jal	x29,80003574	 x29=0x80003574
       31545000	      3153	00000000	00000013	addi	x0,x0,0	  x0:0x00000000
       31555000	      3154	8000355c	00000013	addi	x0,x0,0	  x0:0x00000000
       31565000	      3155	80003560	03800b6f	jal	x22,80003560	 x22=0x80003560
       31575000	      3156	00000000	00000013	addi	x0,x0,0	  x0:0x00000000
       31585000	      3157	80003594	00000013	addi	x0,x0,0	  x0:0x00000000
       31595000	      3158	80003598	01c000ef	jal	x1,80003598	  x1=0x80003598
       31605000	      3159	00000000	00000013	addi	x0,x0,0	  x0:0x00000000
       31615000	      3160	800035b0	00000013	addi	x0,x0,0	  x0:0x00000000
       31625000	      3161	800035b4	fc5ff0ef	jal	x1,800035b4	  x1=0x800035b4
       31635000	      3162	00000000	00000013	addi	x0,x0,0	  x0:0x00000000
       31645000	      3163	80003574	00000013	addi	x0,x0,0	  x0:0x00000000
       31655000	      3164	80003578	00c000ef	jal	x1,80003578	  x1=0x80003578
       31665000	      3165	00000000	00000013	addi	x0,x0,0	  x0:0x00000000
       31675000	      3166	80003580	00000013	addi	x0,x0,0	  x0:0x00000000
       31685000	      3167	80003584	008000ef	jal	x1,80003584	  x1=0x80003584
       31695000	      3168	00000000	00000013	addi	x0,x0,0	  x0:0x00000000
       31705000	      3169	80003588	00000013	addi	x0,x0,0	  x0:0x00000000
       31715000	      3170	8000358c	018000ef	jal	x1,8000358c	  x1=0x8000358c
       31725000	      3171	00000000	00000013	addi	x0,x0,0	  x0:0x00000000
       31735000	      3172	800035a0	00000013	addi	x0,x0,0	  x0:0x00000000
       31745000	      3173	800035a4	fc9ff0ef	jal	x1,800035a4	  x1=0x800035a4
       31755000	      3174	00000000	00000013	addi	x0,x0,0	  x0:0x00000000
       31765000	      3175	80003568	00000013	addi	x0,x0,0	  x0:0x00000000
       31775000	      3176	8000356c	014002ef	jal	x5,8000356c	  x5=0x8000356c
       31785000	      3177	00000000	00000013	addi	x0,x0,0	  x0:0x00000000
       31795000	      3178	8000357c	00000013	addi	x0,x0,0	  x0:0x00000000
       31805000	      3179	80003580	fe5ff26f	jal	x4,80003580	  x4=0x80003580
       31815000	      3180	00000000	00000013	addi	x0,x0,0	  x0:0x00000000
       31825000	      3181	80003560	00000013	addi	x0,x0,0	  x0:0x00000000
       31835000	      3182	80003564	03000c6f	jal	x24,80003564	 x24=0x80003564
       31845000	      3183	00000000	00000013	addi	x0,x0,0	  x0:0x00000000
       31855000	      3184	80003590	00000013	addi	x0,x0,0	  x0:0x00000000
       31865000	      3185	80003594	ffdff36f	jal	x6,80003594	  x6=0x80003594
       31875000	      3186	00000000	00000013	addi	x0,x0,0	  x0:0x00000000
       31885000	      3187	8000358c	00000013	addi	x0,x0,0	  x0:0x00000000
       31895000	      3188	80003590	fb9ff36f	jal	x6,80003590	  x6=0x80003590
       31905000	      3189	00000000	00000013	addi	x0,x0,0	  x0:0x00000000
       31915000	      3190	80003544	00000013	addi	x0,x0,0	  x0:0x00000000
       31925000	      3191	80003548	054000ef	jal	x1,80003548	  x1=0x80003548
       31935000	      3192	00000000	00000013	addi	x0,x0,0	  x0:0x00000000
       31945000	      3193	80003598	00000013	addi	x0,x0,0	  x0:0x00000000
       31955000	      3194	8000359c	fc1ff0ef	jal	x1,8000359c	  x1=0x8000359c
       31965000	      3195	00000000	00000013	addi	x0,x0,0	  x0:0x00000000
       31975000	      3196	80003558	00000013	addi	x0,x0,0	  x0:0x00000000
       31985000	      3197	8000355c	00c0036f	jal	x6,8000355c	  x6=0x8000355c
       31995000	      3198	00000000	00000013	addi	x0,x0,0	  x0:0x00000000
       32005000	      3199	80003564	00000013	addi	x0,x0,0	  x0:0x00000000
       32015000	      3200	80003568	fe5ff1ef	jal	x3,80003568	  x3=0x80003568
       32025000	      3201	00000000	00000013	addi	x0,x0,0	  x0:0x00000000
       32035000	      3202	80003548	00000013	addi	x0,x0,0	  x0:0x00000000
       32045000	      3203	8000354c	05c000ef	jal	x1,8000354c	  x1=0x8000354c
       32055000	      3204	00000000	00000013	addi	x0,x0,0	  x0:0x00000000
       32065000	      3205	800035a4	00000013	addi	x0,x0,0	  x0:0x00000000
       32075000	      3206	800035a8	008000ef	jal	x1,800035a8	  x1=0x800035a8
       32085000	      3207	00000000	00000013	addi	x0,x0,0	  x0:0x00000000
       32095000	      3208	800035ac	00000013	addi	x0,x0,0	  x0:0x00000000
       32105000	      3209	800035b0	fa1ff0ef	jal	x1,800035b0	  x1=0x800035b0
       32115000	      3210	00000000	00000013	addi	x0,x0,0	  x0:0x00000000
       32125000	      3211	8000354c	00000013	addi	x0,x0,0	  x0:0x00000000
       32135000	      3212	80003550	02c000ef	jal	x1,80003550	  x1=0x80003550
       32145000	      3213	00000000	00000013	addi	x0,x0,0	  x0:0x00000000
       32155000	      3214	80003578	00000013	addi	x0,x0,0	  x0:0x00000000
       32165000	      3215	8000357c	030000ef	jal	x1,8000357c	  x1=0x8000357c
       32175000	      3216	00000000	00000013	addi	x0,x0,0	  x0:0x00000000
       32185000	      3217	800035a8	00000013	addi	x0,x0,0	  x0:0x00000000
       32195000	      3218	800035ac	00c000ef	jal	x1,800035ac	  x1=0x800035ac
       32205000	      3219	00000000	00000013	addi	x0,x0,0	  x0:0x00000000
       32215000	      3220	800035b4	00000013	addi	x0,x0,0	  x0:0x00000000
       32225000	      3221	800035b8	01769a13	slli	x20,x13,0x17	 x13:0x00000000 x20=0x00000000
       32235000	      3222	800035bc	0440036f	jal	x6,800035bc	  x6=0x800035bc
       32245000	      3223	00000000	00000013	addi	x0,x0,0	  x0:0x00000000
       32255000	      3224	800035fc	00000013	addi	x0,x0,0	  x0:0x00000000
       32265000	      3225	80003600	fe1ff36f	jal	x6,80003600	  x6=0x80003600
       32275000	      3226	00000000	00000013	addi	x0,x0,0	  x0:0x00000000
       32285000	      3227	800035dc	00000013	addi	x0,x0,0	  x0:0x00000000
       32295000	      3228	800035e0	0080026f	jal	x4,800035e0	  x4=0x800035e0
       32305000	      3229	00000000	00000013	addi	x0,x0,0	  x0:0x00000000
       32315000	      3230	800035e4	00000013	addi	x0,x0,0	  x0:0x00000000
       32325000	      3231	800035e8	0080046f	jal	x8,800035e8	  x8=0x800035e8
       32335000	      3232	00000000	00000013	addi	x0,x0,0	  x0:0x00000000
       32345000	      3233	800035ec	00000013	addi	x0,x0,0	  x0:0x00000000
       32355000	      3234	800035f0	fe1ff0ef	jal	x1,800035f0	  x1=0x800035f0
       32365000	      3235	00000000	00000013	addi	x0,x0,0	  x0:0x00000000
       32375000	      3236	800035cc	00000013	addi	x0,x0,0	  x0:0x00000000
       32385000	      3237	800035d0	01c009ef	jal	x19,800035d0	 x19=0x800035d0
       32395000	      3238	00000000	00000013	addi	x0,x0,0	  x0:0x00000000
       32405000	      3239	800035e8	00000013	addi	x0,x0,0	  x0:0x00000000
       32415000	      3240	800035ec	fddff0ef	jal	x1,800035ec	  x1=0x800035ec
       32425000	      3241	00000000	00000013	addi	x0,x0,0	  x0:0x00000000
       32435000	      3242	800035c4	00000013	addi	x0,x0,0	  x0:0x00000000
       32445000	      3243	800035c8	03000bef	jal	x23,800035c8	 x23=0x800035c8
       32455000	      3244	00000000	00000013	addi	x0,x0,0	  x0:0x00000000
       32465000	      3245	800035f4	00000013	addi	x0,x0,0	  x0:0x00000000
       32475000	      3246	800035f8	fe1ff36f	jal	x6,800035f8	  x6=0x800035f8
       32485000	      3247	00000000	00000013	addi	x0,x0,0	  x0:0x00000000
       32495000	      3248	800035d4	00000013	addi	x0,x0,0	  x0:0x00000000
       32505000	      3249	800035d8	ff5ffaef	jal	x21,800035d8	 x21=0x800035d8
       32515000	      3250	00000000	00000013	addi	x0,x0,0	  x0:0x00000000
       32525000	      3251	800035c8	00000013	addi	x0,x0,0	  x0:0x00000000
       32535000	      3252	800035cc	ff9ff0ef	jal	x1,800035cc	  x1=0x800035cc
       32545000	      3253	00000000	00000013	addi	x0,x0,0	  x0:0x00000000
       32555000	      3254	800035c0	00000013	addi	x0,x0,0	  x0:0x00000000
       32565000	      3255	800035c4	030000ef	jal	x1,800035c4	  x1=0x800035c4
       32575000	      3256	00000000	00000013	addi	x0,x0,0	  x0:0x00000000
       32585000	      3257	800035f0	00000013	addi	x0,x0,0	  x0:0x00000000
       32595000	      3258	800035f4	ff1ff0ef	jal	x1,800035f4	  x1=0x800035f4
       32605000	      3259	00000000	00000013	addi	x0,x0,0	  x0:0x00000000
       32615000	      3260	800035e0	00000013	addi	x0,x0,0	  x0:0x00000000
       32625000	      3261	800035e4	fddff36f	jal	x6,800035e4	  x6=0x800035e4
       32635000	      3262	00000000	00000013	addi	x0,x0,0	  x0:0x00000000
       32645000	      3263	800035bc	00000013	addi	x0,x0,0	  x0:0x00000000
       32655000	      3264	800035c0	044000ef	jal	x1,800035c0	  x1=0x800035c0
       32665000	      3265	00000000	00000013	addi	x0,x0,0	  x0:0x00000000
       32675000	      3266	80003600	00000013	addi	x0,x0,0	  x0:0x00000000
       32685000	      3267	80003604	fd9ff0ef	jal	x1,80003604	  x1=0x80003604
       32695000	      3268	00000000	00000013	addi	x0,x0,0	  x0:0x00000000
       32705000	      3269	800035d8	00000013	addi	x0,x0,0	  x0:0x00000000
       32715000	      3270	800035dc	ff9ff26f	jal	x4,800035dc	  x4=0x800035dc
       32725000	      3271	00000000	00000013	addi	x0,x0,0	  x0:0x00000000
       32735000	      3272	800035d0	00000013	addi	x0,x0,0	  x0:0x00000000
       32745000	      3273	800035d4	02800b6f	jal	x22,800035d4	 x22=0x800035d4
       32755000	      3274	00000000	00000013	addi	x0,x0,0	  x0:0x00000000
       32765000	      3275	800035f8	00000013	addi	x0,x0,0	  x0:0x00000000
       32775000	      3276	800035fc	00c000ef	jal	x1,800035fc	  x1=0x800035fc
       32785000	      3277	00000000	00000013	addi	x0,x0,0	  x0:0x00000000
       32795000	      3278	80003604	00000013	addi	x0,x0,0	  x0:0x00000000
       32805000	      3279	80003608	01430033	add	x0,x6,x20	  x6:0x800035e4 x20:0x00000000
       32815000	      3280	8000360c	0580036f	jal	x6,8000360c	  x6=0x8000360c
       32825000	      3281	00000000	00000013	addi	x0,x0,0	  x0:0x00000000
       32835000	      3282	80003660	00000013	addi	x0,x0,0	  x0:0x00000000
       32845000	      3283	80003664	ff9ff3ef	jal	x7,80003664	  x7=0x80003664
       32855000	      3284	00000000	00000013	addi	x0,x0,0	  x0:0x00000000
       32865000	      3285	80003658	00000013	addi	x0,x0,0	  x0:0x00000000
       32875000	      3286	8000365c	fb5ff36f	jal	x6,8000365c	  x6=0x8000365c
       32885000	      3287	00000000	00000013	addi	x0,x0,0	  x0:0x00000000
       32895000	      3288	8000360c	00000013	addi	x0,x0,0	  x0:0x00000000
       32905000	      3289	80003610	0040036f	jal	x6,80003610	  x6=0x80003610
       32915000	      3290	00000000	00000013	addi	x0,x0,0	  x0:0x00000000
       32925000	      3291	80003610	00000013	addi	x0,x0,0	  x0:0x00000000
       32935000	      3292	80003614	01000eef	jal	x29,80003614	 x29=0x80003614
       32945000	      3293	00000000	00000013	addi	x0,x0,0	  x0:0x00000000
       32955000	      3294	80003620	00000013	addi	x0,x0,0	  x0:0x00000000
       32965000	      3295	80003624	044000ef	jal	x1,80003624	  x1=0x80003624
       32975000	      3296	00000000	00000013	addi	x0,x0,0	  x0:0x00000000
       32985000	      3297	80003664	00000013	addi	x0,x0,0	  x0:0x00000000
       32995000	      3298	80003668	00c0036f	jal	x6,80003668	  x6=0x80003668
       33005000	      3299	00000000	00000013	addi	x0,x0,0	  x0:0x00000000
       33015000	      3300	80003670	00000013	addi	x0,x0,0	  x0:0x00000000
       33025000	      3301	80003674	fb5ff36f	jal	x6,80003674	  x6=0x80003674
       33035000	      3302	00000000	00000013	addi	x0,x0,0	  x0:0x00000000
       33045000	      3303	80003624	00000013	addi	x0,x0,0	  x0:0x00000000
       33055000	      3304	80003628	ff9ff0ef	jal	x1,80003628	  x1=0x80003628
       33065000	      3305	00000000	00000013	addi	x0,x0,0	  x0:0x00000000
       33075000	      3306	8000361c	00000013	addi	x0,x0,0	  x0:0x00000000
       33085000	      3307	80003620	01c00f6f	jal	x30,80003620	 x30=0x80003620
       33095000	      3308	00000000	00000013	addi	x0,x0,0	  x0:0x00000000
       33105000	      3309	80003638	00000013	addi	x0,x0,0	  x0:0x00000000
       33115000	      3310	8000363c	ff9ff0ef	jal	x1,8000363c	  x1=0x8000363c
       33125000	      3311	00000000	00000013	addi	x0,x0,0	  x0:0x00000000
       33135000	      3312	80003630	00000013	addi	x0,x0,0	  x0:0x00000000
       33145000	      3313	80003634	03c009ef	jal	x19,80003634	 x19=0x80003634
       33155000	      3314	00000000	00000013	addi	x0,x0,0	  x0:0x00000000
       33165000	      3315	8000366c	00000013	addi	x0,x0,0	  x0:0x00000000
       33175000	      3316	80003670	fddff36f	jal	x6,80003670	  x6=0x80003670
       33185000	      3317	00000000	00000013	addi	x0,x0,0	  x0:0x00000000
       33195000	      3318	80003648	00000013	addi	x0,x0,0	  x0:0x00000000
       33205000	      3319	8000364c	020000ef	jal	x1,8000364c	  x1=0x8000364c
       33215000	      3320	00000000	00000013	addi	x0,x0,0	  x0:0x00000000
       33225000	      3321	80003668	00000013	addi	x0,x0,0	  x0:0x00000000
       33235000	      3322	8000366c	fe5ff0ef	jal	x1,8000366c	  x1=0x8000366c
       33245000	      3323	00000000	00000013	addi	x0,x0,0	  x0:0x00000000
       33255000	      3324	8000364c	00000013	addi	x0,x0,0	  x0:0x00000000
       33265000	      3325	80003650	00800e6f	jal	x28,80003650	 x28=0x80003650
       33275000	      3326	00000000	00000013	addi	x0,x0,0	  x0:0x00000000
       33285000	      3327	80003654	00000013	addi	x0,x0,0	  x0:0x00000000
       33295000	      3328	80003658	fd9ff36f	jal	x6,80003658	  x6=0x80003658
       33305000	      3329	00000000	00000013	addi	x0,x0,0	  x0:0x00000000
       33315000	      3330	8000362c	00000013	addi	x0,x0,0	  x0:0x00000000
       33325000	      3331	80003630	01400cef	jal	x25,80003630	 x25=0x80003630
       33335000	      3332	00000000	00000013	addi	x0,x0,0	  x0:0x00000000
       33345000	      3333	80003640	00000013	addi	x0,x0,0	  x0:0x00000000
       33355000	      3334	80003644	fd9ff0ef	jal	x1,80003644	  x1=0x80003644
       33365000	      3335	00000000	00000013	addi	x0,x0,0	  x0:0x00000000
       33375000	      3336	80003618	00000013	addi	x0,x0,0	  x0:0x00000000
       33385000	      3337	8000361c	02c006ef	jal	x13,8000361c	 x13=0x8000361c
       33395000	      3338	00000000	00000013	addi	x0,x0,0	  x0:0x00000000
       33405000	      3339	80003644	00000013	addi	x0,x0,0	  x0:0x00000000
       33415000	      3340	80003648	018000ef	jal	x1,80003648	  x1=0x80003648
       33425000	      3341	00000000	00000013	addi	x0,x0,0	  x0:0x00000000
       33435000	      3342	8000365c	00000013	addi	x0,x0,0	  x0:0x00000000
       33445000	      3343	80003660	fcdff56f	jal	x10,80003660	 x10=0x80003660
       33455000	      3344	00000000	00000013	addi	x0,x0,0	  x0:0x00000000
       33465000	      3345	80003628	00000013	addi	x0,x0,0	  x0:0x00000000
       33475000	      3346	8000362c	028000ef	jal	x1,8000362c	  x1=0x8000362c
       33485000	      3347	00000000	00000013	addi	x0,x0,0	  x0:0x00000000
       33495000	      3348	80003650	00000013	addi	x0,x0,0	  x0:0x00000000
       33505000	      3349	80003654	fedff6ef	jal	x13,80003654	 x13=0x80003654
       33515000	      3350	00000000	00000013	addi	x0,x0,0	  x0:0x00000000
       33525000	      3351	8000363c	00000013	addi	x0,x0,0	  x0:0x00000000
       33535000	      3352	80003640	ff9ff0ef	jal	x1,80003640	  x1=0x80003640
       33545000	      3353	00000000	00000013	addi	x0,x0,0	  x0:0x00000000
       33555000	      3354	80003634	00000013	addi	x0,x0,0	  x0:0x00000000
       33565000	      3355	80003638	fe1ff36f	jal	x6,80003638	  x6=0x80003638
       33575000	      3356	00000000	00000013	addi	x0,x0,0	  x0:0x00000000
       33585000	      3357	80003614	00000013	addi	x0,x0,0	  x0:0x00000000
       33595000	      3358	80003618	060000ef	jal	x1,80003618	  x1=0x80003618
       33605000	      3359	00000000	00000013	addi	x0,x0,0	  x0:0x00000000
       33615000	      3360	80003674	00000013	addi	x0,x0,0	  x0:0x00000000
       33625000	      3361	80003678	b74e3e13	sltiu	x28,x28,-1164	 x28:0x80003650 x28=0x00000001
       33635000	      3362	8000367c	0280036f	jal	x6,8000367c	  x6=0x8000367c
       33645000	      3363	00000000	00000013	addi	x0,x0,0	  x0:0x00000000
       33655000	      3364	800036a0	00000013	addi	x0,x0,0	  x0:0x00000000
       33665000	      3365	800036a4	00400cef	jal	x25,800036a4	 x25=0x800036a4
       33675000	      3366	00000000	00000013	addi	x0,x0,0	  x0:0x00000000
       33685000	      3367	800036a4	00000013	addi	x0,x0,0	  x0:0x00000000
       33695000	      3368	800036a8	ff1ff0ef	jal	x1,800036a8	  x1=0x800036a8
       33705000	      3369	00000000	00000013	addi	x0,x0,0	  x0:0x00000000
       33715000	      3370	80003694	00000013	addi	x0,x0,0	  x0:0x00000000
       33725000	      3371	80003698	0080036f	jal	x6,80003698	  x6=0x80003698
       33735000	      3372	00000000	00000013	addi	x0,x0,0	  x0:0x00000000
       33745000	      3373	8000369c	00000013	addi	x0,x0,0	  x0:0x00000000
       33755000	      3374	800036a0	ff1ff0ef	jal	x1,800036a0	  x1=0x800036a0
       33765000	      3375	00000000	00000013	addi	x0,x0,0	  x0:0x00000000
       33775000	      3376	8000368c	00000013	addi	x0,x0,0	  x0:0x00000000
       33785000	      3377	80003690	ff1ff0ef	jal	x1,80003690	  x1=0x80003690
       33795000	      3378	00000000	00000013	addi	x0,x0,0	  x0:0x00000000
       33805000	      3379	8000367c	00000013	addi	x0,x0,0	  x0:0x00000000
       33815000	      3380	80003680	0140026f	jal	x4,80003680	  x4=0x80003680
       33825000	      3381	00000000	00000013	addi	x0,x0,0	  x0:0x00000000
       33835000	      3382	80003690	00000013	addi	x0,x0,0	  x0:0x00000000
       33845000	      3383	80003694	ff9ff0ef	jal	x1,80003694	  x1=0x80003694
       33855000	      3384	00000000	00000013	addi	x0,x0,0	  x0:0x00000000
       33865000	      3385	80003688	00000013	addi	x0,x0,0	  x0:0x00000000
       33875000	      3386	8000368c	ff9ff36f	jal	x6,8000368c	  x6=0x8000368c
       33885000	      3387	00000000	00000013	addi	x0,x0,0	  x0:0x00000000
       33895000	      3388	80003680	00000013	addi	x0,x0,0	  x0:0x00000000
       33905000	      3389	80003684	02c000ef	jal	x1,80003684	  x1=0x80003684
       33915000	      3390	00000000	00000013	addi	x0,x0,0	  x0:0x00000000
       33925000	      3391	800036ac	00000013	addi	x0,x0,0	  x0:0x00000000
       33935000	      3392	800036b0	fedff36f	jal	x6,800036b0	  x6=0x800036b0
       33945000	      3393	00000000	00000013	addi	x0,x0,0	  x0:0x00000000
       33955000	      3394	80003698	00000013	addi	x0,x0,0	  x0:0x00000000
       33965000	      3395	8000369c	0100036f	jal	x6,8000369c	  x6=0x8000369c
       33975000	      3396	00000000	00000013	addi	x0,x0,0	  x0:0x00000000
       33985000	      3397	800036a8	00000013	addi	x0,x0,0	  x0:0x00000000
       33995000	      3398	800036ac	fddff36f	jal	x6,800036ac	  x6=0x800036ac
       34005000	      3399	00000000	00000013	addi	x0,x0,0	  x0:0x00000000
       34015000	      3400	80003684	00000013	addi	x0,x0,0	  x0:0x00000000
       34025000	      3401	80003688	02c0036f	jal	x6,80003688	  x6=0x80003688
       34035000	      3402	00000000	00000013	addi	x0,x0,0	  x0:0x00000000
       34045000	      3403	800036b0	00000013	addi	x0,x0,0	  x0:0x00000000
       34055000	      3404	800036b4	b2444093	xori	x1,x8,-1244	  x8:0x800035e8  x1=0x7fffcecc
       34065000	      3405	800036b8	0100036f	jal	x6,800036b8	  x6=0x800036b8
       34075000	      3406	00000000	00000013	addi	x0,x0,0	  x0:0x00000000
       34085000	      3407	800036c4	00000013	addi	x0,x0,0	  x0:0x00000000
       34095000	      3408	800036c8	ff9ff0ef	jal	x1,800036c8	  x1=0x800036c8
       34105000	      3409	00000000	00000013	addi	x0,x0,0	  x0:0x00000000
       34115000	      3410	800036bc	00000013	addi	x0,x0,0	  x0:0x00000000
       34125000	      3411	800036c0	0140026f	jal	x4,800036c0	  x4=0x800036c0
       34135000	      3412	00000000	00000013	addi	x0,x0,0	  x0:0x00000000
       34145000	      3413	800036d0	00000013	addi	x0,x0,0	  x0:0x00000000
       34155000	      3414	800036d4	00400bef	jal	x23,800036d4	 x23=0x800036d4
       34165000	      3415	00000000	00000013	addi	x0,x0,0	  x0:0x00000000
       34175000	      3416	800036d4	00000013	addi	x0,x0,0	  x0:0x00000000
       34185000	      3417	800036d8	fe5ff0ef	jal	x1,800036d8	  x1=0x800036d8
       34195000	      3418	00000000	00000013	addi	x0,x0,0	  x0:0x00000000
       34205000	      3419	800036b8	00000013	addi	x0,x0,0	  x0:0x00000000
       34215000	      3420	800036bc	01000a6f	jal	x20,800036bc	 x20=0x800036bc
       34225000	      3421	00000000	00000013	addi	x0,x0,0	  x0:0x00000000
       34235000	      3422	800036c8	00000013	addi	x0,x0,0	  x0:0x00000000
       34245000	      3423	800036cc	014000ef	jal	x1,800036cc	  x1=0x800036cc
       34255000	      3424	00000000	00000013	addi	x0,x0,0	  x0:0x00000000
       34265000	      3425	800036dc	00000013	addi	x0,x0,0	  x0:0x00000000
       34275000	      3426	800036e0	ffdff36f	jal	x6,800036e0	  x6=0x800036e0
       34285000	      3427	00000000	00000013	addi	x0,x0,0	  x0:0x00000000
       34295000	      3428	800036d8	00000013	addi	x0,x0,0	  x0:0x00000000
       34305000	      3429	800036dc	fe9ff0ef	jal	x1,800036dc	  x1=0x800036dc
       34315000	      3430	00000000	00000013	addi	x0,x0,0	  x0:0x00000000
       34325000	      3431	800036c0	00000013	addi	x0,x0,0	  x0:0x00000000
       34335000	      3432	800036c4	02000cef	jal	x25,800036c4	 x25=0x800036c4
       34345000	      3433	00000000	00000013	addi	x0,x0,0	  x0:0x00000000
       34355000	      3434	800036e0	00000013	addi	x0,x0,0	  x0:0x00000000
       34365000	      3435	800036e4	fedff86f	jal	x16,800036e4	 x16=0x800036e4
       34375000	      3436	00000000	00000013	addi	x0,x0,0	  x0:0x00000000
       34385000	      3437	800036cc	00000013	addi	x0,x0,0	  x0:0x00000000
       34395000	      3438	800036d0	018000ef	jal	x1,800036d0	  x1=0x800036d0
       34405000	      3439	00000000	00000013	addi	x0,x0,0	  x0:0x00000000
       34415000	      3440	800036e4	00000013	addi	x0,x0,0	  x0:0x00000000
       34425000	      3441	800036e8	0042b0b3	sltu	x1,x5,x4	  x5:0x8000356c  x4:0x800036c0  x1=0x00000001
       34435000	      3442	800036ec	02c0036f	jal	x6,800036ec	  x6=0x800036ec
       34445000	      3443	00000000	00000013	addi	x0,x0,0	  x0:0x00000000
       34455000	      3444	80003714	00000013	addi	x0,x0,0	  x0:0x00000000
       34465000	      3445	80003718	00c000ef	jal	x1,80003718	  x1=0x80003718
       34475000	      3446	00000000	00000013	addi	x0,x0,0	  x0:0x00000000
       34485000	      3447	80003720	00000013	addi	x0,x0,0	  x0:0x00000000
       34495000	      3448	80003724	004000ef	jal	x1,80003724	  x1=0x80003724
       34505000	      3449	00000000	00000013	addi	x0,x0,0	  x0:0x00000000
       34515000	      3450	80003724	00000013	addi	x0,x0,0	  x0:0x00000000
       34525000	      3451	80003728	fcdff0ef	jal	x1,80003728	  x1=0x80003728
       34535000	      3452	00000000	00000013	addi	x0,x0,0	  x0:0x00000000
       34545000	      3453	800036f0	00000013	addi	x0,x0,0	  x0:0x00000000
       34555000	      3454	800036f4	02800fef	jal	x31,800036f4	 x31=0x800036f4
       34565000	      3455	00000000	00000013	addi	x0,x0,0	  x0:0x00000000
       34575000	      3456	80003718	00000013	addi	x0,x0,0	  x0:0x00000000
       34585000	      3457	8000371c	ff9ff1ef	jal	x3,8000371c	  x3=0x8000371c
       34595000	      3458	00000000	00000013	addi	x0,x0,0	  x0:0x00000000
       34605000	      3459	80003710	00000013	addi	x0,x0,0	  x0:0x00000000
       34615000	      3460	80003714	fe5ff0ef	jal	x1,80003714	  x1=0x80003714
       34625000	      3461	00000000	00000013	addi	x0,x0,0	  x0:0x00000000
       34635000	      3462	800036f4	00000013	addi	x0,x0,0	  x0:0x00000000
       34645000	      3463	800036f8	0040036f	jal	x6,800036f8	  x6=0x800036f8
       34655000	      3464	00000000	00000013	addi	x0,x0,0	  x0:0x00000000
       34665000	      3465	800036f8	00000013	addi	x0,x0,0	  x0:0x00000000
       34675000	      3466	800036fc	008000ef	jal	x1,800036fc	  x1=0x800036fc
       34685000	      3467	00000000	00000013	addi	x0,x0,0	  x0:0x00000000
       34695000	      3468	80003700	00000013	addi	x0,x0,0	  x0:0x00000000
       34705000	      3469	80003704	00c0096f	jal	x18,80003704	 x18=0x80003704
       34715000	      3470	00000000	00000013	addi	x0,x0,0	  x0:0x00000000
       34725000	      3471	8000370c	00000013	addi	x0,x0,0	  x0:0x00000000
       34735000	      3472	80003710	010001ef	jal	x3,80003710	  x3=0x80003710
       34745000	      3473	00000000	00000013	addi	x0,x0,0	  x0:0x00000000
       34755000	      3474	8000371c	00000013	addi	x0,x0,0	  x0:0x00000000
       34765000	      3475	80003720	fd1ff0ef	jal	x1,80003720	  x1=0x80003720
       34775000	      3476	00000000	00000013	addi	x0,x0,0	  x0:0x00000000
       34785000	      3477	800036ec	00000013	addi	x0,x0,0	  x0:0x00000000
       34795000	      3478	800036f0	018000ef	jal	x1,800036f0	  x1=0x800036f0
       34805000	      3479	00000000	00000013	addi	x0,x0,0	  x0:0x00000000
       34815000	      3480	80003704	00000013	addi	x0,x0,0	  x0:0x00000000
       34825000	      3481	80003708	004000ef	jal	x1,80003708	  x1=0x80003708
       34835000	      3482	00000000	00000013	addi	x0,x0,0	  x0:0x00000000
       34845000	      3483	80003708	00000013	addi	x0,x0,0	  x0:0x00000000
       34855000	      3484	8000370c	ff5ff36f	jal	x6,8000370c	  x6=0x8000370c
       34865000	      3485	00000000	00000013	addi	x0,x0,0	  x0:0x00000000
       34875000	      3486	800036fc	00000013	addi	x0,x0,0	  x0:0x00000000
       34885000	      3487	80003700	02c000ef	jal	x1,80003700	  x1=0x80003700
       34895000	      3488	00000000	00000013	addi	x0,x0,0	  x0:0x00000000
       34905000	      3489	80003728	00000013	addi	x0,x0,0	  x0:0x00000000
       34915000	      3490	8000372c	00acf2b3	and	x5,x25,x10	 x25:0x800036c4 x10:0x80003660  x5=0x80003640
       34925000	      3491	80003730	01c0036f	jal	x6,80003730	  x6=0x80003730
       34935000	      3492	00000000	00000013	addi	x0,x0,0	  x0:0x00000000
       34945000	      3493	80003748	00000013	addi	x0,x0,0	  x0:0x00000000
       34955000	      3494	8000374c	028000ef	jal	x1,8000374c	  x1=0x8000374c
       34965000	      3495	00000000	00000013	addi	x0,x0,0	  x0:0x00000000
       34975000	      3496	80003770	00000013	addi	x0,x0,0	  x0:0x00000000
       34985000	      3497	80003774	fe9fff6f	jal	x30,80003774	 x30=0x80003774
       34995000	      3498	00000000	00000013	addi	x0,x0,0	  x0:0x00000000
       35005000	      3499	80003758	00000013	addi	x0,x0,0	  x0:0x00000000
       35015000	      3500	8000375c	0240036f	jal	x6,8000375c	  x6=0x8000375c
       35025000	      3501	00000000	00000013	addi	x0,x0,0	  x0:0x00000000
       35035000	      3502	8000377c	00000013	addi	x0,x0,0	  x0:0x00000000
       35045000	      3503	80003780	fedff26f	jal	x4,80003780	  x4=0x80003780
       35055000	      3504	00000000	00000013	addi	x0,x0,0	  x0:0x00000000
       35065000	      3505	80003768	00000013	addi	x0,x0,0	  x0:0x00000000
       35075000	      3506	8000376c	fddff36f	jal	x6,8000376c	  x6=0x8000376c
       35085000	      3507	00000000	00000013	addi	x0,x0,0	  x0:0x00000000
       35095000	      3508	80003744	00000013	addi	x0,x0,0	  x0:0x00000000
       35105000	      3509	80003748	ff1ff36f	jal	x6,80003748	  x6=0x80003748
       35115000	      3510	00000000	00000013	addi	x0,x0,0	  x0:0x00000000
       35125000	      3511	80003734	00000013	addi	x0,x0,0	  x0:0x00000000
       35135000	      3512	80003738	008000ef	jal	x1,80003738	  x1=0x80003738
       35145000	      3513	00000000	00000013	addi	x0,x0,0	  x0:0x00000000
       35155000	      3514	8000373c	00000013	addi	x0,x0,0	  x0:0x00000000
       35165000	      3515	80003740	03800cef	jal	x25,80003740	 x25=0x80003740
       35175000	      3516	00000000	00000013	addi	x0,x0,0	  x0:0x00000000
       35185000	      3517	80003774	00000013	addi	x0,x0,0	  x0:0x00000000
       35195000	      3518	80003778	fddff36f	jal	x6,80003778	  x6=0x80003778
       35205000	      3519	00000000	00000013	addi	x0,x0,0	  x0:0x00000000
       35215000	      3520	80003750	00000013	addi	x0,x0,0	  x0:0x00000000
       35225000	      3521	80003754	01c000ef	jal	x1,80003754	  x1=0x80003754
       35235000	      3522	00000000	00000013	addi	x0,x0,0	  x0:0x00000000
       35245000	      3523	8000376c	00000013	addi	x0,x0,0	  x0:0x00000000
       35255000	      3524	80003770	fe1ff36f	jal	x6,80003770	  x6=0x80003770
       35265000	      3525	00000000	00000013	addi	x0,x0,0	  x0:0x00000000
       35275000	      3526	8000374c	00000013	addi	x0,x0,0	  x0:0x00000000
       35285000	      3527	80003750	0180096f	jal	x18,80003750	 x18=0x80003750
       35295000	      3528	00000000	00000013	addi	x0,x0,0	  x0:0x00000000
       35305000	      3529	80003764	00000013	addi	x0,x0,0	  x0:0x00000000
       35315000	      3530	80003768	0140036f	jal	x6,80003768	  x6=0x80003768
       35325000	      3531	00000000	00000013	addi	x0,x0,0	  x0:0x00000000
       35335000	      3532	80003778	00000013	addi	x0,x0,0	  x0:0x00000000
       35345000	      3533	8000377c	fe9ff0ef	jal	x1,8000377c	  x1=0x8000377c
       35355000	      3534	00000000	00000013	addi	x0,x0,0	  x0:0x00000000
       35365000	      3535	80003760	00000013	addi	x0,x0,0	  x0:0x00000000
       35375000	      3536	80003764	ffdff0ef	jal	x1,80003764	  x1=0x80003764
       35385000	      3537	00000000	00000013	addi	x0,x0,0	  x0:0x00000000
       35395000	      3538	8000375c	00000013	addi	x0,x0,0	  x0:0x00000000
       35405000	      3539	80003760	fe5ff46f	jal	x8,80003760	  x8=0x80003760
       35415000	      3540	00000000	00000013	addi	x0,x0,0	  x0:0x00000000
       35425000	      3541	80003740	00000013	addi	x0,x0,0	  x0:0x00000000
       35435000	      3542	80003744	ff1ff0ef	jal	x1,80003744	  x1=0x80003744
       35445000	      3543	00000000	00000013	addi	x0,x0,0	  x0:0x00000000
       35455000	      3544	80003730	00000013	addi	x0,x0,0	  x0:0x00000000
       35465000	      3545	80003734	02400c6f	jal	x24,80003734	 x24=0x80003734
       35475000	      3546	00000000	00000013	addi	x0,x0,0	  x0:0x00000000
       35485000	      3547	80003754	00000013	addi	x0,x0,0	  x0:0x00000000
       35495000	      3548	80003758	fe5ff36f	jal	x6,80003758	  x6=0x80003758
       35505000	      3549	00000000	00000013	addi	x0,x0,0	  x0:0x00000000
       35515000	      3550	80003738	00000013	addi	x0,x0,0	  x0:0x00000000
       35525000	      3551	8000373c	048000ef	jal	x1,8000373c	  x1=0x8000373c
       35535000	      3552	00000000	00000013	addi	x0,x0,0	  x0:0x00000000
       35545000	      3553	80003780	00000013	addi	x0,x0,0	  x0:0x00000000
       35555000	      3554	80003784	010b3633	sltu	x12,x22,x16	 x22:0x800035d4 x16:0x800036e4 x12=0x00000001
       35565000	      3555	80003788	01c0036f	jal	x6,80003788	  x6=0x80003788
       35575000	      3556	00000000	00000013	addi	x0,x0,0	  x0:0x00000000
       35585000	      3557	800037a0	00000013	addi	x0,x0,0	  x0:0x00000000
       35595000	      3558	800037a4	fedff0ef	jal	x1,800037a4	  x1=0x800037a4
       35605000	      3559	00000000	00000013	addi	x0,x0,0	  x0:0x00000000
       35615000	      3560	8000378c	00000013	addi	x0,x0,0	  x0:0x00000000
       35625000	      3561	80003790	ffdff96f	jal	x18,80003790	 x18=0x80003790
       35635000	      3562	00000000	00000013	addi	x0,x0,0	  x0:0x00000000
       35645000	      3563	80003788	00000013	addi	x0,x0,0	  x0:0x00000000
       35655000	      3564	8000378c	050000ef	jal	x1,8000378c	  x1=0x8000378c
       35665000	      3565	00000000	00000013	addi	x0,x0,0	  x0:0x00000000
       35675000	      3566	800037d8	00000013	addi	x0,x0,0	  x0:0x00000000
       35685000	      3567	800037dc	fcdff26f	jal	x4,800037dc	  x4=0x800037dc
       35695000	      3568	00000000	00000013	addi	x0,x0,0	  x0:0x00000000
       35705000	      3569	800037a4	00000013	addi	x0,x0,0	  x0:0x00000000
       35715000	      3570	800037a8	02c000ef	jal	x1,800037a8	  x1=0x800037a8
       35725000	      3571	00000000	00000013	addi	x0,x0,0	  x0:0x00000000
       35735000	      3572	800037d0	00000013	addi	x0,x0,0	  x0:0x00000000
       35745000	      3573	800037d4	ff5ff0ef	jal	x1,800037d4	  x1=0x800037d4
       35755000	      3574	00000000	00000013	addi	x0,x0,0	  x0:0x00000000
       35765000	      3575	800037c4	00000013	addi	x0,x0,0	  x0:0x00000000
       35775000	      3576	800037c8	fcdff0ef	jal	x1,800037c8	  x1=0x800037c8
       35785000	      3577	00000000	00000013	addi	x0,x0,0	  x0:0x00000000
       35795000	      3578	80003790	00000013	addi	x0,x0,0	  x0:0x00000000
       35805000	      3579	80003794	03c0036f	jal	x6,80003794	  x6=0x80003794
       35815000	      3580	00000000	00000013	addi	x0,x0,0	  x0:0x00000000
       35825000	      3581	800037cc	00000013	addi	x0,x0,0	  x0:0x00000000
       35835000	      3582	800037d0	01400a6f	jal	x20,800037d0	 x20=0x800037d0
       35845000	      3583	00000000	00000013	addi	x0,x0,0	  x0:0x00000000
       35855000	      3584	800037e0	00000013	addi	x0,x0,0	  x0:0x00000000
       35865000	      3585	800037e4	fc9ff0ef	jal	x1,800037e4	  x1=0x800037e4
       35875000	      3586	00000000	00000013	addi	x0,x0,0	  x0:0x00000000
       35885000	      3587	800037a8	00000013	addi	x0,x0,0	  x0:0x00000000
       35895000	      3588	800037ac	014000ef	jal	x1,800037ac	  x1=0x800037ac
       35905000	      3589	00000000	00000013	addi	x0,x0,0	  x0:0x00000000
       35915000	      3590	800037bc	00000013	addi	x0,x0,0	  x0:0x00000000
       35925000	      3591	800037c0	fe1ff0ef	jal	x1,800037c0	  x1=0x800037c0
       35935000	      3592	00000000	00000013	addi	x0,x0,0	  x0:0x00000000
       35945000	      3593	8000379c	00000013	addi	x0,x0,0	  x0:0x00000000
       35955000	      3594	800037a0	024000ef	jal	x1,800037a0	  x1=0x800037a0
       35965000	      3595	00000000	00000013	addi	x0,x0,0	  x0:0x00000000
       35975000	      3596	800037c0	00000013	addi	x0,x0,0	  x0:0x00000000
       35985000	      3597	800037c4	02c002ef	jal	x5,800037c4	  x5=0x800037c4
       35995000	      3598	00000000	00000013	addi	x0,x0,0	  x0:0x00000000
       36005000	      3599	800037ec	00000013	addi	x0,x0,0	  x0:0x00000000
       36015000	      3600	800037f0	ff9ff36f	jal	x6,800037f0	  x6=0x800037f0
       36025000	      3601	00000000	00000013	addi	x0,x0,0	  x0:0x00000000
       36035000	      3602	800037e4	00000013	addi	x0,x0,0	  x0:0x00000000
       36045000	      3603	800037e8	fd5ff9ef	jal	x19,800037e8	 x19=0x800037e8
       36055000	      3604	00000000	00000013	addi	x0,x0,0	  x0:0x00000000
       36065000	      3605	800037b8	00000013	addi	x0,x0,0	  x0:0x00000000
       36075000	      3606	800037bc	ff9ff3ef	jal	x7,800037bc	  x7=0x800037bc
       36085000	      3607	00000000	00000013	addi	x0,x0,0	  x0:0x00000000
       36095000	      3608	800037b0	00000013	addi	x0,x0,0	  x0:0x00000000
       36105000	      3609	800037b4	02c000ef	jal	x1,800037b4	  x1=0x800037b4
       36115000	      3610	00000000	00000013	addi	x0,x0,0	  x0:0x00000000
       36125000	      3611	800037dc	00000013	addi	x0,x0,0	  x0:0x00000000
       36135000	      3612	800037e0	018000ef	jal	x1,800037e0	  x1=0x800037e0
       36145000	      3613	00000000	00000013	addi	x0,x0,0	  x0:0x00000000
       36155000	      3614	800037f4	00000013	addi	x0,x0,0	  x0:0x00000000
       36165000	      3615	800037f8	ffdff0ef	jal	x1,800037f8	  x1=0x800037f8
       36175000	      3616	00000000	00000013	addi	x0,x0,0	  x0:0x00000000
       36185000	      3617	800037f0	00000013	addi	x0,x0,0	  x0:0x00000000
       36195000	      3618	800037f4	fa5ff0ef	jal	x1,800037f4	  x1=0x800037f4
       36205000	      3619	00000000	00000013	addi	x0,x0,0	  x0:0x00000000
       36215000	      3620	80003794	00000013	addi	x0,x0,0	  x0:0x00000000
       36225000	      3621	80003798	0640036f	jal	x6,80003798	  x6=0x80003798
       36235000	      3622	00000000	00000013	addi	x0,x0,0	  x0:0x00000000
       36245000	      3623	800037f8	00000013	addi	x0,x0,0	  x0:0x00000000
       36255000	      3624	800037fc	fd1ff36f	jal	x6,800037fc	  x6=0x800037fc
       36265000	      3625	00000000	00000013	addi	x0,x0,0	  x0:0x00000000
       36275000	      3626	800037c8	00000013	addi	x0,x0,0	  x0:0x00000000
       36285000	      3627	800037cc	fd1ff0ef	jal	x1,800037cc	  x1=0x800037cc
       36295000	      3628	00000000	00000013	addi	x0,x0,0	  x0:0x00000000
       36305000	      3629	80003798	00000013	addi	x0,x0,0	  x0:0x00000000
       36315000	      3630	8000379c	050000ef	jal	x1,8000379c	  x1=0x8000379c
       36325000	      3631	00000000	00000013	addi	x0,x0,0	  x0:0x00000000
       36335000	      3632	800037e8	00000013	addi	x0,x0,0	  x0:0x00000000
       36345000	      3633	800037ec	fedff0ef	jal	x1,800037ec	  x1=0x800037ec
       36355000	      3634	00000000	00000013	addi	x0,x0,0	  x0:0x00000000
       36365000	      3635	800037d4	00000013	addi	x0,x0,0	  x0:0x00000000
       36375000	      3636	800037d8	fe1ff0ef	jal	x1,800037d8	  x1=0x800037d8
       36385000	      3637	00000000	00000013	addi	x0,x0,0	  x0:0x00000000
       36395000	      3638	800037b4	00000013	addi	x0,x0,0	  x0:0x00000000
       36405000	      3639	800037b8	ff9ff1ef	jal	x3,800037b8	  x3=0x800037b8
       36415000	      3640	00000000	00000013	addi	x0,x0,0	  x0:0x00000000
       36425000	      3641	800037ac	00000013	addi	x0,x0,0	  x0:0x00000000
       36435000	      3642	800037b0	0500026f	jal	x4,800037b0	  x4=0x800037b0
       36445000	      3643	00000000	00000013	addi	x0,x0,0	  x0:0x00000000
       36455000	      3644	800037fc	00000013	addi	x0,x0,0	  x0:0x00000000
       36465000	      3645	80003800	2d217213	andi	x4,x2,722	  x2:0x00000000  x4=0x00000000
       36475000	      3646	80003804	006ef233	and	x4,x29,x6	 x29:0x80003614  x6:0x800037fc  x4=0x80003614
       36485000	      3647	80003808	40d15fb3	sra	x31,x2,x13	  x2:0x00000000 x13:0x80003654 x31=0x00000000
       36495000	      3648	8000380c	e4aa4337	lui	x6,0xe4aa4	  x6=0xe4aa4000
       36505000	      3649	80003810	02c10613	addi	x12,x2,44	  x2:0x00000000 x12=0x0000002c
       36515000	      3650	80003814	415cfc93	andi	x25,x25,1045	 x25:0x80003740 x25=0x00000400
       36525000	      3651	80003818	0009e663	bltu	x19,x0,80003824	 x19:0x800037e8  x0:0x00000000
       36535000	      3652	8000381c	e8f62593	slti	x11,x12,-369	 x12:0x0000002c x11=0x00000000
       36545000	      3653	80003820	418957b3	sra	x15,x18,x24	 x18:0x80003790 x24:0x80003734 x15=0xfffff800
       36555000	      3654	80003824	e8e48993	addi	x19,x9,-370	  x9:0xffffffa2 x19=0xfffffe30
       36565000	      3655	80003828	0064b5b3	sltu	x11,x9,x6	  x9:0xffffffa2  x6:0xe4aa4000 x11=0x00000000
       36575000	      3656	8000382c	019d5fb3	srl	x31,x26,x25	 x26:0x80009fc4 x25:0x00000400 x31=0x80009fc4
       36585000	      3657	80003830	41deda93	srai	x21,x29,0x1d	 x29:0x80003614 x21=0xfffffffc
       36595000	      3658	80003834	04b66663	bltu	x12,x11,80003880	 x12:0x0000002c x11:0x00000000
       36605000	      3659	80003838	05452ab7	lui	x21,0x5452	 x21=0x05452000
       36615000	      3660	8000383c	0062b0b3	sltu	x1,x5,x6	  x5:0x800037c4  x6:0xe4aa4000  x1=0x00000001
       36625000	      3661	80003840	96356713	ori	x14,x10,-1693	 x10:0x80003660 x14=0xffffff63
       36635000	      3662	80003844	00000013	addi	x0,x0,0	  x0:0x00000000
       36645000	      3663	80003848	01575313	srli	x6,x14,0x15	 x14:0xffffff63  x6=0x000007ff
       36655000	      3664	8000384c	813a0f13	addi	x30,x20,-2029	 x20:0x800037d0 x30=0x80002fe3
       36665000	      3665	80003850	40505913	srai	x18,x0,0x5	  x0:0x00000000 x18=0x00000000
       36675000	      3666	80003854	00c31f13	slli	x30,x6,0xc	  x6:0x000007ff x30=0x007ff000
       36685000	      3667	80003858	f2366493	ori	x9,x12,-221	 x12:0x0000002c  x9=0xffffff2f
       36695000	      3668	8000385c	016aeeb3	or	x29,x21,x22	 x21:0x05452000 x22:0x800035d4 x29=0x854535d4
       36705000	      3669	80003860	02221a63	bne	x4,x2,80003894	  x4:0x80003614  x2:0x00000000
       36715000	      3670	00000000	00000013	addi	x0,x0,0	  x0:0x00000000
       36725000	      3671	80003890	00000013	addi	x0,x0,0	  x0:0x00000000
       36735000	      3672	80003894	01cc3933	sltu	x18,x24,x28	 x24:0x80003734 x28:0x00000001 x18=0x00000000
       36745000	      3673	80003898	20cef013	andi	x0,x29,524	 x29:0x854535d4
       36755000	      3674	8000389c	0045b433	sltu	x8,x11,x4	 x11:0x00000000  x4:0x80003614  x8=0x00000001
       36765000	      3675	800038a0	01b21a13	slli	x20,x4,0x1b	  x4:0x80003614 x20=0xa0000000
       36775000	      3676	800038a4	001678b3	and	x17,x12,x1	 x12:0x0000002c  x1:0x00000001 x17=0x00000000
       36785000	      3677	800038a8	03746063	bltu	x8,x23,800038c8	  x8:0x00000001 x23:0x800036d4
       36795000	      3678	00000000	00000013	addi	x0,x0,0	  x0:0x00000000
       36805000	      3679	800038c4	00000013	addi	x0,x0,0	  x0:0x00000000
       36815000	      3680	800038c8	007c8463	beq	x25,x7,800038d0	 x25:0x00000400  x7:0x800037bc
       36825000	      3681	800038cc	005dd313	srli	x6,x27,0x5	 x27:0x80009f2c  x6=0x040004f9
       36835000	      3682	800038d0	02789863	bne	x17,x7,80003900	 x17:0x00000000  x7:0x800037bc
       36845000	      3683	00000000	00000013	addi	x0,x0,0	  x0:0x00000000
       36855000	      3684	800038fc	00000013	addi	x0,x0,0	  x0:0x00000000
       36865000	      3685	80003900	053b1263	bne	x22,x19,80003944	 x22:0x800035d4 x19:0xfffffe30
       36875000	      3686	00000000	00000013	addi	x0,x0,0	  x0:0x00000000
       36885000	      3687	80003940	00000013	addi	x0,x0,0	  x0:0x00000000
       36895000	      3688	80003944	01af24b3	slt	x9,x30,x26	 x30:0x007ff000 x26:0x80009fc4  x9=0x00000000
       36905000	      3689	80003948	00be57b3	srl	x15,x28,x11	 x28:0x00000001 x11:0x00000000 x15=0x00000001
       36915000	      3690	8000394c	006d1863	bne	x26,x6,8000395c	 x26:0x80009fc4  x6:0x040004f9
       36925000	      3691	00000000	00000013	addi	x0,x0,0	  x0:0x00000000
       36935000	      3692	80003958	00000013	addi	x0,x0,0	  x0:0x00000000
       36945000	      3693	8000395c	01406933	or	x18,x0,x20	  x0:0x00000000 x20:0xa0000000 x18=0xa0000000
       36955000	      3694	80003960	410c5613	srai	x12,x24,0x10	 x24:0x80003734 x12=0xffff8000
       36965000	      3695	80003964	f82d7913	andi	x18,x26,-126	 x26:0x80009fc4 x18=0x80009f80
       36975000	      3696	80003968	a1770c93	addi	x25,x14,-1513	 x14:0xffffff63 x25=0xfffff97a
       36985000	      3697	8000396c	298cb693	sltiu	x13,x25,664	 x25:0xfffff97a x13=0x00000000
       36995000	      3698	80003970	56793413	sltiu	x8,x18,1383	 x18:0x80009f80  x8=0x00000000
       37005000	      3699	80003974	00399013	slli	x0,x19,0x3	 x19:0xfffffe30
       37015000	      3700	80003978	005a1c63	bne	x20,x5,80003990	 x20:0xa0000000  x5:0x800037c4
       37025000	      3701	00000000	00000013	addi	x0,x0,0	  x0:0x00000000
       37035000	      3702	8000398c	00000013	addi	x0,x0,0	  x0:0x00000000
       37045000	      3703	80003990	9b96c493	xori	x9,x13,-1607	 x13:0x00000000  x9=0xfffff9b9
       37055000	      3704	80003994	01b1d263	bge	x3,x27,80003998	  x3:0x800037b8 x27:0x80009f2c
       37065000	      3705	80003998	40748cb3	sub	x25,x9,x7	  x9:0xfffff9b9  x7:0x800037bc x25=0x7fffc1fd
       37075000	      3706	8000399c	01f5a5b3	slt	x11,x11,x31	 x11:0x00000000 x31:0x80009fc4 x11=0x00000000
       37085000	      3707	800039a0	03ef0863	beq	x30,x30,800039d0	 x30:0x007ff000 x30:0x007ff000
       37095000	      3708	00000000	00000013	addi	x0,x0,0	  x0:0x00000000
       37105000	      3709	800039cc	00000013	addi	x0,x0,0	  x0:0x00000000
       37115000	      3710	800039d0	035a9263	bne	x21,x21,800039f4	 x21:0x05452000 x21:0x05452000
       37125000	      3711	800039d4	00c00cb3	add	x25,x0,x12	  x0:0x00000000 x12:0xffff8000 x25=0xffff8000
       37135000	      3712	800039d8	9ef12637	lui	x12,0x9ef12	 x12=0x9ef12000
       37145000	      3713	800039dc	41b55733	sra	x14,x10,x27	 x10:0x80003660 x27:0x80009f2c x14=0xfff80003
       37155000	      3714	800039e0	04711863	bne	x2,x7,80003a30	  x2:0x00000000  x7:0x800037bc
       37165000	      3715	00000000	00000013	addi	x0,x0,0	  x0:0x00000000
       37175000	      3716	80003a2c	00000013	addi	x0,x0,0	  x0:0x00000000
       37185000	      3717	80003a30	03cc8263	beq	x25,x28,80003a54	 x25:0xffff8000 x28:0x00000001
       37195000	      3718	80003a34	64006293	ori	x5,x0,1600	  x0:0x00000000  x5=0x00000640
       37205000	      3719	80003a38	40b381b3	sub	x3,x7,x11	  x7:0x800037bc x11:0x00000000  x3=0x800037bc
       37215000	      3720	80003a3c	01baab33	slt	x22,x21,x27	 x21:0x05452000 x27:0x80009f2c x22=0x00000000
       37225000	      3721	80003a40	052a6863	bltu	x20,x18,80003a90	 x20:0xa0000000 x18:0x80009f80
       37235000	      3722	80003a44	35c6e197	auipc	x3,0x35c6e	  x3=0xb5c71a40
       37245000	      3723	80003a48	0198c5b3	xor	x11,x17,x25	 x17:0x00000000 x25:0xffff8000 x11=0xffff8000
       37255000	      3724	80003a4c	00723eb3	sltu	x29,x4,x7	  x4:0x80003614  x7:0x800037bc x29=0x00000001
       37265000	      3725	80003a50	00321e93	slli	x29,x4,0x3	  x4:0x80003614 x29=0x0001b0a0
       37275000	      3726	80003a54	94f7a913	slti	x18,x15,-1713	 x15:0x00000001 x18=0x00000000
       37285000	      3727	80003a58	00d90ab3	add	x21,x18,x13	 x18:0x00000000 x13:0x00000000 x21=0x00000000
       37295000	      3728	80003a5c	0128d233	srl	x4,x17,x18	 x17:0x00000000 x18:0x00000000  x4=0x00000000
       37305000	      3729	80003a60	028d9263	bne	x27,x8,80003a84	 x27:0x80009f2c  x8:0x00000000
       37315000	      3730	00000000	00000013	addi	x0,x0,0	  x0:0x00000000
       37325000	      3731	80003a80	00000013	addi	x0,x0,0	  x0:0x00000000
       37335000	      3732	80003a84	00a117b3	sll	x15,x2,x10	  x2:0x00000000 x10:0x80003660 x15=0x00000000
       37345000	      3733	80003a88	01ff1593	slli	x11,x30,0x1f	 x30:0x007ff000 x11=0x00000000
       37355000	      3734	80003a8c	01f7cbb3	xor	x23,x15,x31	 x15:0x00000000 x31:0x80009fc4 x23=0x80009fc4
       37365000	      3735	80003a90	6bdc7317	auipc	x6,0x6bdc7	  x6=0xebdcaa8c
       37375000	      3736	80003a94	eb1af793	andi	x15,x21,-335	 x21:0x00000000 x15=0x00000000
       37385000	      3737	80003a98	011b8033	add	x0,x23,x17	 x23:0x80009fc4 x17:0x00000000
       37395000	      3738	80003a9c	405d0bb3	sub	x23,x26,x5	 x26:0x80009fc4  x5:0x00000640 x23=0x80009984
       37405000	      3739	80003aa0	6c82b917	auipc	x18,0x6c82b	 x18=0xec82ea9c
       37415000	      3740	80003aa4	0096a2b3	slt	x5,x13,x9	 x13:0x00000000  x9:0xfffff9b9  x5=0x00000000
       37425000	      3741	80003aa8	cb73a613	slti	x12,x7,-841	  x7:0x800037bc x12=0x00000001
       37435000	      3742	80003aac	ce096693	ori	x13,x18,-800	 x18:0xec82ea9c x13=0xfffffefc
       37445000	      3743	80003ab0	68a84413	xori	x8,x16,1674	 x16:0x800036e4  x8=0x8000306e
       37455000	      3744	80003ab4	00ba8263	beq	x21,x11,80003ab8	 x21:0x00000000 x11:0x00000000
       37465000	      3745	00000000	00000013	addi	x0,x0,0	  x0:0x00000000
       37475000	      3746	80003ab4	00000013	addi	x0,x0,0	  x0:0x00000000
       37485000	      3747	80003ab8	015eea63	bltu	x29,x21,80003acc	 x29:0x0001b0a0 x21:0x00000000
       37495000	      3748	80003abc	00000013	addi	x0,x0,0	  x0:0x00000000
       37505000	      3749	80003ac0	00000013	addi	x0,x0,0	  x0:0x00000000
       37515000	      3750	80003ac4	790e3613	sltiu	x12,x28,1936	 x28:0x00000001 x12=0x00000001
       37525000	      3751	80003ac8	41a05e33	sra	x28,x0,x26	  x0:0x00000000 x26:0x80009fc4 x28=0x00000000
       37535000	      3752	80003acc	00d79793	slli	x15,x15,0xd	 x15:0x00000000 x15=0x00000000
       37545000	      3753	80003ad0	00e69f93	slli	x31,x13,0xe	 x13:0xfffffefc x31=0xffbf0000
       37555000	      3754	80003ad4	0629de63	bge	x19,x2,80003b50	 x19:0xfffffe30  x2:0x00000000
       37565000	      3755	80003ad8	01375263	bge	x14,x19,80003adc	 x14:0xfff80003 x19:0xfffffe30
       37575000	      3756	80003adc	01ce6463	bltu	x28,x28,80003ae4	 x28:0x00000000 x28:0x00000000
       37585000	      3757	80003ae0	ea909497	auipc	x9,0xea909	  x9=0x6a90cadc
       37595000	      3758	80003ae4	06051863	bne	x10,x0,80003b54	 x10:0x80003660  x0:0x00000000
       37605000	      3759	00000000	00000013	addi	x0,x0,0	  x0:0x00000000
       37615000	      3760	80003b50	00000013	addi	x0,x0,0	  x0:0x00000000
       37625000	      3761	80003b54	00b6b5b3	sltu	x11,x13,x11	 x13:0xfffffefc x11:0x00000000 x11=0x00000000
       37635000	      3762	80003b58	039a0863	beq	x20,x25,80003b88	 x20:0xa0000000 x25:0xffff8000
       37645000	      3763	80003b5c	40e28533	sub	x10,x5,x14	  x5:0x00000000 x14:0xfff80003 x10=0x0007fffd
       37655000	      3764	80003b60	00a6b4b3	sltu	x9,x13,x10	 x13:0xfffffefc x10:0x0007fffd  x9=0x00000000
       37665000	      3765	80003b64	0128c5b3	xor	x11,x17,x18	 x17:0x00000000 x18:0xec82ea9c x11=0xec82ea9c
       37675000	      3766	80003b68	03c8c063	blt	x17,x28,80003b88	 x17:0x00000000 x28:0x00000000
       37685000	      3767	80003b6c	416e55b3	sra	x11,x28,x22	 x28:0x00000000 x22:0x00000000 x11=0x00000000
       37695000	      3768	80003b70	00874b33	xor	x22,x14,x8	 x14:0xfff80003  x8:0x8000306e x22=0x7ff8306d
       37705000	      3769	80003b74	01ad2233	slt	x4,x26,x26	 x26:0x80009fc4 x26:0x80009fc4  x4=0x00000000
       37715000	      3770	80003b78	015a2933	slt	x18,x20,x21	 x20:0xa0000000 x21:0x00000000 x18=0x00000001
       37725000	      3771	80003b7c	009c9533	sll	x10,x25,x9	 x25:0xffff8000  x9:0x00000000 x10=0xffff8000
       37735000	      3772	80003b80	01d42f33	slt	x30,x8,x29	  x8:0x8000306e x29:0x0001b0a0 x30=0x00000001
       37745000	      3773	80003b84	01ef0f33	add	x30,x30,x30	 x30:0x00000001 x30:0x00000001 x30=0x00000002
       37755000	      3774	80003b88	038fc063	blt	x31,x24,80003ba8	 x31:0xffbf0000 x24:0x80003734
       37765000	      3775	80003b8c	01a864b3	or	x9,x16,x26	 x16:0x800036e4 x26:0x80009fc4  x9=0x8000bfe4
       37775000	      3776	80003b90	410bd913	srai	x18,x23,0x10	 x23:0x80009984 x18=0xffff8000
       37785000	      3777	80003b94	00b67e33	and	x28,x12,x11	 x12:0x00000001 x11:0x00000000 x28=0x00000000
       37795000	      3778	80003b98	01b5d2b3	srl	x5,x11,x27	 x11:0x00000000 x27:0x80009f2c  x5=0x00000000
       37805000	      3779	80003b9c	41180933	sub	x18,x16,x17	 x16:0x800036e4 x17:0x00000000 x18=0x800036e4
       37815000	      3780	80003ba0	019a0ab3	add	x21,x20,x25	 x20:0xa0000000 x25:0xffff8000 x21=0x9fff8000
       37825000	      3781	80003ba4	417302b3	sub	x5,x6,x23	  x6:0xebdcaa8c x23:0x80009984  x5=0x6bdc1108
       37835000	      3782	80003ba8	4089d733	sra	x14,x19,x8	 x19:0xfffffe30  x8:0x8000306e x14=0xffffffff
       37845000	      3783	80003bac	47410013	addi	x0,x2,1140	  x2:0x00000000
       37855000	      3784	80003bb0	41825a13	srai	x20,x4,0x18	  x4:0x00000000 x20=0x00000000
       37865000	      3785	80003bb4	410a53b3	sra	x7,x20,x16	 x20:0x00000000 x16:0x800036e4  x7=0x00000000
       37875000	      3786	80003bb8	00000013	addi	x0,x0,0	  x0:0x00000000
       37885000	      3787	80003bbc	00790eb3	add	x29,x18,x7	 x18:0x800036e4  x7:0x00000000 x29=0x800036e4
       37895000	      3788	80003bc0	155c5317	auipc	x6,0x155c5	  x6=0x955c8bbc
       37905000	      3789	80003bc4	015e4863	blt	x28,x21,80003bd4	 x28:0x00000000 x21:0x9fff8000
       37915000	      3790	80003bc8	02111863	bne	x2,x1,80003bf8	  x2:0x00000000  x1:0x00000001
       37925000	      3791	00000000	00000013	addi	x0,x0,0	  x0:0x00000000
       37935000	      3792	80003bf4	00000013	addi	x0,x0,0	  x0:0x00000000
       37945000	      3793	80003bf8	01ba7633	and	x12,x20,x27	 x20:0x00000000 x27:0x80009f2c x12=0x00000000
       37955000	      3794	80003bfc	03340063	beq	x8,x19,80003c1c	  x8:0x8000306e x19:0xfffffe30
       37965000	      3795	80003c00	0378da63	bge	x17,x23,80003c34	 x17:0x00000000 x23:0x80009984
       37975000	      3796	00000000	00000013	addi	x0,x0,0	  x0:0x00000000
       37985000	      3797	80003c30	00000013	addi	x0,x0,0	  x0:0x00000000
       37995000	      3798	80003c34	b5f6d497	auipc	x9,0xb5f6d	  x9=0x35f70c30
       38005000	      3799	80003c38	016707b3	add	x15,x14,x22	 x14:0xffffffff x22:0x7ff8306d x15=0x7ff8306c
       38015000	      3800	80003c3c	00af4663	blt	x30,x10,80003c48	 x30:0x00000002 x10:0xffff8000
       38025000	      3801	80003c40	012fc533	xor	x10,x31,x18	 x31:0xffbf0000 x18:0x800036e4 x10=0x7fbf36e4
       38035000	      3802	80003c44	01561433	sll	x8,x12,x21	 x12:0x00000000 x21:0x9fff8000  x8=0x00000000
       38045000	      3803	80003c48	01a9d6b3	srl	x13,x19,x26	 x19:0xfffffe30 x26:0x80009fc4 x13=0x0fffffe3
       38055000	      3804	80003c4c	400b8833	sub	x16,x23,x0	 x23:0x80009984  x0:0x00000000 x16=0x80009984
       38065000	      3805	80003c50	4141dbb3	sra	x23,x3,x20	  x3:0xb5c71a40 x20:0x00000000 x23=0xb5c71a40
       38075000	      3806	80003c54	d9884613	xori	x12,x16,-616	 x16:0x80009984 x12=0x7fff641c
       38085000	      3807	80003c58	00247a33	and	x20,x8,x2	  x8:0x00000000  x2:0x00000000 x20=0x00000000
       38095000	      3808	80003c5c	04207263	bgeu	x0,x2,80003ca0	  x0:0x00000000  x2:0x00000000
       38105000	      3809	00000000	00000013	addi	x0,x0,0	  x0:0x00000000
       38115000	      3810	80003c9c	00000013	addi	x0,x0,0	  x0:0x00000000
       38125000	      3811	80003ca0	0172a8b3	slt	x17,x5,x23	  x5:0x6bdc1108 x23:0xb5c71a40 x17=0x00000000
       38135000	      3812	80003ca4	029e0663	beq	x28,x9,80003cd0	 x28:0x00000000  x9:0x35f70c30
       38145000	      3813	80003ca8	5bb4d417	auipc	x8,0x5bb4d	  x8=0xdbb50ca4
       38155000	      3814	80003cac	9018ae37	lui	x28,0x9018a	 x28=0x9018a000
       38165000	      3815	80003cb0	01941213	slli	x4,x8,0x19	  x8:0xdbb50ca4  x4=0x48000000
       38175000	      3816	80003cb4	015de833	or	x16,x27,x21	 x27:0x80009f2c x21:0x9fff8000 x16=0x9fff9f2c
       38185000	      3817	80003cb8	daf2df37	lui	x30,0xdaf2d	 x30=0xdaf2d000
       38195000	      3818	80003cbc	00b51093	slli	x1,x10,0xb	 x10:0x7fbf36e4  x1=0xf9b72000
       38205000	      3819	80003cc0	019a8933	add	x18,x21,x25	 x21:0x9fff8000 x25:0xffff8000 x18=0x9fff0000
       38215000	      3820	80003cc4	e0dbb093	sltiu	x1,x23,-499	 x23:0xb5c71a40  x1=0x00000001
       38225000	      3821	80003cc8	e418fe93	andi	x29,x17,-447	 x17:0x00000000 x29=0x00000000
       38235000	      3822	80003ccc	6d96af13	slti	x30,x13,1753	 x13:0x0fffffe3 x30=0x00000000
       38245000	      3823	80003cd0	ccca3e93	sltiu	x29,x20,-820	 x20:0x00000000 x29=0x00000001
       38255000	      3824	80003cd4	41890cb3	sub	x25,x18,x24	 x18:0x9fff0000 x24:0x80003734 x25=0x1ffec8cc
       38265000	      3825	80003cd8	d0fdee37	lui	x28,0xd0fde	 x28=0xd0fde000
       38275000	      3826	80003cdc	0af14263	blt	x2,x15,80003d80	  x2:0x00000000 x15:0x7ff8306c
       38285000	      3827	00000000	00000013	addi	x0,x0,0	  x0:0x00000000
       38295000	      3828	80003d7c	00000013	addi	x0,x0,0	  x0:0x00000000
       38305000	      3829	80003d80	f234eb13	ori	x22,x9,-221	  x9:0x35f70c30 x22=0xffffff33
       38315000	      3830	80003d84	005a5493	srli	x9,x20,0x5	 x20:0x00000000  x9=0x00000000
       38325000	      3831	80003d88	0953ee63	bltu	x7,x21,80003e24	  x7:0x00000000 x21:0x9fff8000
       38335000	      3832	00000000	00000013	addi	x0,x0,0	  x0:0x00000000
       38345000	      3833	80003e20	00000013	addi	x0,x0,0	  x0:0x00000000
       38355000	      3834	80003e24	028ed463	bge	x29,x8,80003e4c	 x29:0x00000001  x8:0xdbb50ca4
       38365000	      3835	00000000	00000013	addi	x0,x0,0	  x0:0x00000000
       38375000	      3836	80003e48	00000013	addi	x0,x0,0	  x0:0x00000000
       38385000	      3837	80003e4c	01f95293	srli	x5,x18,0x1f	 x18:0x9fff0000  x5=0x00000001
       38395000	      3838	80003e50	1ff67b93	andi	x23,x12,511	 x12:0x7fff641c x23=0x0000001c
       38405000	      3839	80003e54	3d02ac13	slti	x24,x5,976	  x5:0x00000001 x24=0x00000001
       38415000	      3840	80003e58	018624b3	slt	x9,x12,x24	 x12:0x7fff641c x24:0x00000001  x9=0x00000000
       38425000	      3841	80003e5c	ab7ef013	andi	x0,x29,-1353	 x29:0x00000001
       38435000	      3842	80003e60	01fe9493	slli	x9,x29,0x1f	 x29:0x00000001  x9=0x80000000
       38445000	      3843	80003e64	003cceb3	xor	x29,x25,x3	 x25:0x1ffec8cc  x3:0xb5c71a40 x29=0xaa39d28c
       38455000	      3844	80003e68	017f8a63	beq	x31,x23,80003e7c	 x31:0xffbf0000 x23:0x0000001c
       38465000	      3845	80003e6c	015f74b3	and	x9,x30,x21	 x30:0x00000000 x21:0x9fff8000  x9=0x00000000
       38475000	      3846	80003e70	038ce063	bltu	x25,x24,80003e90	 x25:0x1ffec8cc x24:0x00000001
       38485000	      3847	80003e74	41fc5f93	srai	x31,x24,0x1f	 x24:0x00000001 x31=0x00000000
       38495000	      3848	80003e78	00638bb3	add	x23,x7,x6	  x7:0x00000000  x6:0x955c8bbc x23=0x955c8bbc
       38505000	      3849	80003e7c	408fd813	srai	x16,x31,0x8	 x31:0x00000000 x16=0x00000000
       38515000	      3850	80003e80	0065d613	srli	x12,x11,0x6	 x11:0x00000000 x12=0x00000000
       38525000	      3851	80003e84	27af0893	addi	x17,x30,634	 x30:0x00000000 x17=0x0000027a
       38535000	      3852	80003e88	00048263	beq	x9,x0,80003e8c	  x9:0x00000000  x0:0x00000000
       38545000	      3853	00000000	00000013	addi	x0,x0,0	  x0:0x00000000
       38555000	      3854	80003e88	00000013	addi	x0,x0,0	  x0:0x00000000
       38565000	      3855	80003e8c	00000013	addi	x0,x0,0	  x0:0x00000000
       38575000	      3856	80003e90	8fc93213	sltiu	x4,x18,-1796	 x18:0x9fff0000  x4=0x00000001
       38585000	      3857	80003e94	df670513	addi	x10,x14,-522	 x14:0xffffffff x10=0xfffffdf5
       38595000	      3858	80003e98	40870ab3	sub	x21,x14,x8	 x14:0xffffffff  x8:0xdbb50ca4 x21=0x244af35b
       38605000	      3859	80003e9c	414a0817	auipc	x16,0x414a0	 x16=0xc14a3e98
       38615000	      3860	80003ea0	bd7f7693	andi	x13,x30,-1065	 x30:0x00000000 x13=0x00000000
       38625000	      3861	80003ea4	00f674b3	and	x9,x12,x15	 x12:0x00000000 x15:0x7ff8306c  x9=0x00000000
       38635000	      3862	80003ea8	00000013	addi	x0,x0,0	  x0:0x00000000
       38645000	      3863	80003eac	29708093	addi	x1,x1,663	  x1:0x00000001  x1=0x00000298
       38655000	      3864	80003eb0	f1d01037	lui	x0,0xf1d01	
       38665000	      3865	80003eb4	41a85893	srai	x17,x16,0x1a	 x16:0xc14a3e98 x17=0xfffffff0
       38675000	      3866	80003eb8	2edca617	auipc	x12,0x2edca	 x12=0xaedcdeb4
       38685000	      3867	80003ebc	e1b03e97	auipc	x29,0xe1b03	 x29=0x61b06eb8
       38695000	      3868	80003ec0	010586b3	add	x13,x11,x16	 x11:0x00000000 x16:0xc14a3e98 x13=0xc14a3e98
       38705000	      3869	80003ec4	02b79863	bne	x15,x11,80003ef4	 x15:0x7ff8306c x11:0x00000000
       38715000	      3870	00000000	00000013	addi	x0,x0,0	  x0:0x00000000
       38725000	      3871	80003ef0	00000013	addi	x0,x0,0	  x0:0x00000000
       38735000	      3872	80003ef4	40345893	srai	x17,x8,0x3	  x8:0xdbb50ca4 x17=0xfb76a194
       38745000	      3873	80003ef8	013a88b3	add	x17,x21,x19	 x21:0x244af35b x19:0xfffffe30 x17=0x244af18b
       38755000	      3874	80003efc	0e4a7713	andi	x14,x20,228	 x20:0x00000000 x14=0x00000000
       38765000	      3875	80003f00	414a55b3	sra	x11,x20,x20	 x20:0x00000000 x20:0x00000000 x11=0x00000000
       38775000	      3876	80003f04	411ed333	sra	x6,x29,x17	 x29:0x61b06eb8 x17:0x244af18b  x6=0x000c360d
       38785000	      3877	80003f08	019ce5b3	or	x11,x25,x25	 x25:0x1ffec8cc x25:0x1ffec8cc x11=0x1ffec8cc
       38795000	      3878	80003f0c	03205863	bge	x0,x18,80003f3c	  x0:0x00000000 x18:0x9fff0000
       38805000	      3879	00000000	00000013	addi	x0,x0,0	  x0:0x00000000
       38815000	      3880	80003f38	00000013	addi	x0,x0,0	  x0:0x00000000
       38825000	      3881	80003f3c	014877b3	and	x15,x16,x20	 x16:0xc14a3e98 x20:0x00000000 x15=0x00000000
       38835000	      3882	80003f40	97a9e993	ori	x19,x19,-1670	 x19:0xfffffe30 x19=0xffffff7a
       38845000	      3883	80003f44	5493a437	lui	x8,0x5493a	  x8=0x5493a000
       38855000	      3884	80003f48	1293b713	sltiu	x14,x7,297	  x7:0x00000000 x14=0x00000001
       38865000	      3885	80003f4c	4075dab3	sra	x21,x11,x7	 x11:0x1ffec8cc  x7:0x00000000 x21=0x1ffec8cc
       38875000	      3886	80003f50	dc6ce013	ori	x0,x25,-570	 x25:0x1ffec8cc
       38885000	      3887	80003f54	0a59eb13	ori	x22,x19,165	 x19:0xffffff7a x22=0xffffffff
       38895000	      3888	80003f58	03dd8063	beq	x27,x29,80003f78	 x27:0x80009f2c x29:0x61b06eb8
       38905000	      3889	80003f5c	01d449b3	xor	x19,x8,x29	  x8:0x5493a000 x29:0x61b06eb8 x19=0x3523ceb8
       38915000	      3890	80003f60	41528c33	sub	x24,x5,x21	  x5:0x00000001 x21:0x1ffec8cc x24=0xe0013735
       38925000	      3891	80003f64	d3f52f13	slti	x30,x10,-705	 x10:0xfffffdf5 x30=0x00000000
       38935000	      3892	80003f68	011c1613	slli	x12,x24,0x11	 x24:0xe0013735 x12=0x6e6a0000
       38945000	      3893	80003f6c	00000013	addi	x0,x0,0	  x0:0x00000000
       38955000	      3894	80003f70	0c33a097	auipc	x1,0xc33a	  x1=0x8c33df6c
       38965000	      3895	80003f74	010c5493	srli	x9,x24,0x10	 x24:0xe0013735  x9=0x0000e001
       38975000	      3896	80003f78	03f27063	bgeu	x4,x31,80003f98	  x4:0x00000001 x31:0x00000000
       38985000	      3897	00000000	00000013	addi	x0,x0,0	  x0:0x00000000
       38995000	      3898	80003f94	00000013	addi	x0,x0,0	  x0:0x00000000
       39005000	      3899	80003f98	003e5833	srl	x16,x28,x3	 x28:0xd0fde000  x3:0xb5c71a40 x16=0xd0fde000
       39015000	      3900	80003f9c	0075d263	bge	x11,x7,80003fa0	 x11:0x1ffec8cc  x7:0x00000000
       39025000	      3901	00000000	00000013	addi	x0,x0,0	  x0:0x00000000
       39035000	      3902	80003f9c	00000013	addi	x0,x0,0	  x0:0x00000000
       39045000	      3903	80003fa0	01cb9193	slli	x3,x23,0x1c	 x23:0x955c8bbc  x3=0xc0000000
       39055000	      3904	80003fa4	00f74863	blt	x14,x15,80003fb4	 x14:0x00000001 x15:0x00000000
       39065000	      3905	80003fa8	419edb33	sra	x22,x29,x25	 x29:0x61b06eb8 x25:0x1ffec8cc x22=0x00061b06
       39075000	      3906	80003fac	01a4dc63	bge	x9,x26,80003fc4	  x9:0x0000e001 x26:0x80009fc4
       39085000	      3907	00000000	00000013	addi	x0,x0,0	  x0:0x00000000
       39095000	      3908	80003fc0	00000013	addi	x0,x0,0	  x0:0x00000000
       39105000	      3909	80003fc4	455ccb93	xori	x23,x25,1109	 x25:0x1ffec8cc x23=0x1ffecc99
       39115000	      3910	80003fc8	00a61c13	slli	x24,x12,0xa	 x12:0x6e6a0000 x24=0xa8000000
       39125000	      3911	80003fcc	4731a297	auipc	x5,0x4731a	  x5=0xc731dfc8
       39135000	      3912	80003fd0	05065863	bge	x12,x16,80004020	 x12:0x6e6a0000 x16:0xd0fde000
       39145000	      3913	00000000	00000013	addi	x0,x0,0	  x0:0x00000000
       39155000	      3914	8000401c	00000013	addi	x0,x0,0	  x0:0x00000000
       39165000	      3915	80004020	02d3e063	bltu	x7,x13,80004040	  x7:0x00000000 x13:0xc14a3e98
       39175000	      3916	00000000	00000013	addi	x0,x0,0	  x0:0x00000000
       39185000	      3917	8000403c	00000013	addi	x0,x0,0	  x0:0x00000000
       39195000	      3918	80004040	05c5c663	blt	x11,x28,8000408c	 x11:0x1ffec8cc x28:0xd0fde000
       39205000	      3919	80004044	00360663	beq	x12,x3,80004050	 x12:0x6e6a0000  x3:0xc0000000
       39215000	      3920	80004048	15eacf97	auipc	x31,0x15eac	 x31=0x95eb0044
       39225000	      3921	8000404c	05ccc863	blt	x25,x28,8000409c	 x25:0x1ffec8cc x28:0xd0fde000
       39235000	      3922	80004050	01500463	beq	x0,x21,80004058	  x0:0x00000000 x21:0x1ffec8cc
       39245000	      3923	80004054	00000013	addi	x0,x0,0	  x0:0x00000000
       39255000	      3924	80004058	8e98a913	slti	x18,x17,-1815	 x17:0x244af18b x18=0x00000000
       39265000	      3925	8000405c	00000013	addi	x0,x0,0	  x0:0x00000000
       39275000	      3926	80004060	00d9d213	srli	x4,x19,0xd	 x19:0x3523ceb8  x4=0x0001a91e
       39285000	      3927	80004064	02484863	blt	x16,x4,80004094	 x16:0xd0fde000  x4:0x0001a91e
       39295000	      3928	00000000	00000013	addi	x0,x0,0	  x0:0x00000000
       39305000	      3929	80004090	00000013	addi	x0,x0,0	  x0:0x00000000
       39315000	      3930	80004094	40ccd433	sra	x8,x25,x12	 x25:0x1ffec8cc x12:0x6e6a0000  x8=0x1ffec8cc
       39325000	      3931	80004098	d576f713	andi	x14,x13,-681	 x13:0xc14a3e98 x14=0xc14a3c10
       39335000	      3932	8000409c	ff148413	addi	x8,x9,-15	  x9:0x0000e001  x8=0x0000dff2
       39345000	      3933	800040a0	d32cb013	sltiu	x0,x25,-718	 x25:0x1ffec8cc
       39355000	      3934	800040a4	012f2a33	slt	x20,x30,x18	 x30:0x00000000 x18:0x00000000 x20=0x00000000
       39365000	      3935	800040a8	05f2e263	bltu	x5,x31,800040ec	  x5:0xc731dfc8 x31:0x95eb0044
       39375000	      3936	800040ac	01727f33	and	x30,x4,x23	  x4:0x0001a91e x23:0x1ffecc99 x30=0x00008818
       39385000	      3937	800040b0	007e8263	beq	x29,x7,800040b4	 x29:0x61b06eb8  x7:0x00000000
       39395000	      3938	800040b4	03047663	bgeu	x8,x16,800040e0	  x8:0x0000dff2 x16:0xd0fde000
       39405000	      3939	800040b8	df958c13	addi	x24,x11,-519	 x11:0x1ffec8cc x24=0x1ffec6c5
       39415000	      3940	800040bc	00b4af33	slt	x30,x9,x11	  x9:0x0000e001 x11:0x1ffec8cc x30=0x00000001
       39425000	      3941	800040c0	018c29b3	slt	x19,x24,x24	 x24:0x1ffec6c5 x24:0x1ffec6c5 x19=0x00000000
       39435000	      3942	800040c4	4176d4b3	sra	x9,x13,x23	 x13:0xc14a3e98 x23:0x1ffecc99  x9=0xffffffe0
       39445000	      3943	800040c8	01612833	slt	x16,x2,x22	  x2:0x00000000 x22:0x00061b06 x16=0x00000001
       39455000	      3944	800040cc	014d4263	blt	x26,x20,800040d0	 x26:0x80009fc4 x20:0x00000000
       39465000	      3945	00000000	00000013	addi	x0,x0,0	  x0:0x00000000
       39475000	      3946	800040cc	00000013	addi	x0,x0,0	  x0:0x00000000
       39485000	      3947	800040d0	f2d1e413	ori	x8,x3,-211	  x3:0xc0000000  x8=0xffffff2d
       39495000	      3948	800040d4	03a6e463	bltu	x13,x26,800040fc	 x13:0xc14a3e98 x26:0x80009fc4
       39505000	      3949	800040d8	aa5f3013	sltiu	x0,x30,-1371	 x30:0x00000001
       39515000	      3950	800040dc	04375863	bge	x14,x3,8000412c	 x14:0xc14a3c10  x3:0xc0000000
       39525000	      3951	00000000	00000013	addi	x0,x0,0	  x0:0x00000000
       39535000	      3952	80004128	00000013	addi	x0,x0,0	  x0:0x00000000
       39545000	      3953	8000412c	5519e993	ori	x19,x19,1361	 x19:0x00000000 x19=0x00000551
       39555000	      3954	80004130	01a13993	sltiu	x19,x2,26	  x2:0x00000000 x19=0x00000001
       39565000	      3955	80004134	6dd3b497	auipc	x9,0x6dd3b	  x9=0xedd3f130
       39575000	      3956	80004138	0050df33	srl	x30,x1,x5	  x1:0x8c33df6c  x5:0xc731dfc8 x30=0x008c33df
       39585000	      3957	8000413c	7984fc93	andi	x25,x9,1944	  x9:0xedd3f130 x25=0x00000110
       39595000	      3958	80004140	00000013	addi	x0,x0,0	  x0:0x00000000
       39605000	      3959	80004144	014a5f13	srli	x30,x20,0x14	 x20:0x00000000 x30=0x00000000
       39615000	      3960	80004148	03b5c863	blt	x11,x27,80004178	 x11:0x1ffec8cc x27:0x80009f2c
       39625000	      3961	8000414c	00a88263	beq	x17,x10,80004150	 x17:0x244af18b x10:0xfffffdf5
       39635000	      3962	80004150	410a5993	srai	x19,x20,0x10	 x20:0x00000000 x19=0x00000000
       39645000	      3963	80004154	018fe9b3	or	x19,x31,x24	 x31:0x95eb0044 x24:0x1ffec6c5 x19=0x9fffc6c5
       39655000	      3964	80004158	01c91c93	slli	x25,x18,0x1c	 x18:0x00000000 x25=0x00000000
       39665000	      3965	8000415c	00eda8b3	slt	x17,x27,x14	 x27:0x80009f2c x14:0xc14a3c10 x17=0x00000001
       39675000	      3966	80004160	011764b3	or	x9,x14,x17	 x14:0xc14a3c10 x17:0x00000001  x9=0xc14a3c11
       39685000	      3967	80004164	01fae5b3	or	x11,x21,x31	 x21:0x1ffec8cc x31:0x95eb0044 x11=0x9fffc8cc
       39695000	      3968	80004168	0053cbb3	xor	x23,x7,x5	  x7:0x00000000  x5:0xc731dfc8 x23=0xc731dfc8
       39705000	      3969	8000416c	41ba53b3	sra	x7,x20,x27	 x20:0x00000000 x27:0x80009f2c  x7=0x00000000
       39715000	      3970	80004170	61883093	sltiu	x1,x16,1560	 x16:0x00000001  x1=0x00000001
       39725000	      3971	80004174	418203b3	sub	x7,x4,x24	  x4:0x0001a91e x24:0x1ffec6c5  x7=0xe002e259
       39735000	      3972	80004178	01684733	xor	x14,x16,x22	 x16:0x00000001 x22:0x00061b06 x14=0x00061b07
       39745000	      3973	8000417c	272fb493	sltiu	x9,x31,626	 x31:0x95eb0044  x9=0x00000000
       39755000	      3974	80004180	00196c63	bltu	x18,x1,80004198	 x18:0x00000000  x1:0x00000001
       39765000	      3975	00000000	00000013	addi	x0,x0,0	  x0:0x00000000
       39775000	      3976	80004194	00000013	addi	x0,x0,0	  x0:0x00000000
       39785000	      3977	80004198	01c071b3	and	x3,x0,x28	  x0:0x00000000 x28:0xd0fde000  x3=0x00000000
       39795000	      3978	8000419c	004e0933	add	x18,x28,x4	 x28:0xd0fde000  x4:0x0001a91e x18=0xd0ff891e
       39805000	      3979	800041a0	01165333	srl	x6,x12,x17	 x12:0x6e6a0000 x17:0x00000001  x6=0x37350000
       39815000	      3980	800041a4	03641063	bne	x8,x22,800041c4	  x8:0xffffff2d x22:0x00061b06
       39825000	      3981	00000000	00000013	addi	x0,x0,0	  x0:0x00000000
       39835000	      3982	800041c0	00000013	addi	x0,x0,0	  x0:0x00000000
       39845000	      3983	800041c4	f6d5ec13	ori	x24,x11,-147	 x11:0x9fffc8cc x24=0xffffffed
       39855000	      3984	800041c8	40a7dbb3	sra	x23,x15,x10	 x15:0x00000000 x10:0xfffffdf5 x23=0x00000000
       39865000	      3985	800041cc	00147933	and	x18,x8,x1	  x8:0xffffff2d  x1:0x00000001 x18=0x00000001
       39875000	      3986	800041d0	00b6bbb3	sltu	x23,x13,x11	 x13:0xc14a3e98 x11:0x9fffc8cc x23=0x00000000
       39885000	      3987	800041d4	8aab3093	sltiu	x1,x22,-1878	 x22:0x00061b06  x1=0x00000001
       39895000	      3988	800041d8	02f04663	blt	x0,x15,80004204	  x0:0x00000000 x15:0x00000000
       39905000	      3989	800041dc	f7f11a37	lui	x20,0xf7f11	 x20=0xf7f11000
       39915000	      3990	800041e0	01cc0833	add	x16,x24,x28	 x24:0xffffffed x28:0xd0fde000 x16=0xd0fddfed
       39925000	      3991	800041e4	004b0263	beq	x22,x4,800041e8	 x22:0x00061b06  x4:0x0001a91e
       39935000	      3992	800041e8	0036ff33	and	x30,x13,x3	 x13:0xc14a3e98  x3:0x00000000 x30=0x00000000
       39945000	      3993	800041ec	014a6833	or	x16,x20,x20	 x20:0xf7f11000 x20:0xf7f11000 x16=0xf7f11000
       39955000	      3994	800041f0	00a3b433	sltu	x8,x7,x10	  x7:0xe002e259 x10:0xfffffdf5  x8=0x00000001
       39965000	      3995	800041f4	553fe013	ori	x0,x31,1363	 x31:0x95eb0044
       39975000	      3996	800041f8	967e6c13	ori	x24,x28,-1689	 x28:0xd0fde000 x24=0xfffff967
       39985000	      3997	800041fc	0388c863	blt	x17,x24,8000422c	 x17:0x00000001 x24:0xfffff967
       39995000	      3998	80004200	409a06b3	sub	x13,x20,x9	 x20:0xf7f11000  x9:0x00000000 x13=0xf7f11000
       40005000	      3999	80004204	019bf3b3	and	x7,x23,x25	 x23:0x00000000 x25:0x00000000  x7=0x00000000
       40015000	      4000	80004208	79ba51b7	lui	x3,0x79ba5	  x3=0x79ba5000
       40025000	      4001	8000420c	0159aab3	slt	x21,x19,x21	 x19:0x9fffc6c5 x21:0x1ffec8cc x21=0x00000001
       40035000	      4002	80004210	01a8da63	bge	x17,x26,80004224	 x17:0x00000001 x26:0x80009fc4
       40045000	      4003	00000000	00000013	addi	x0,x0,0	  x0:0x00000000
       40055000	      4004	80004220	00000013	addi	x0,x0,0	  x0:0x00000000
       40065000	      4005	80004224	0042e8b3	or	x17,x5,x4	  x5:0xc731dfc8  x4:0x0001a91e x17=0xc731ffde
       40075000	      4006	80004228	0195d633	srl	x12,x11,x25	 x11:0x9fffc8cc x25:0x00000000 x12=0x9fffc8cc
       40085000	      4007	8000422c	006995b3	sll	x11,x19,x6	 x19:0x9fffc6c5  x6:0x37350000 x11=0x9fffc6c5
       40095000	      4008	80004230	014f89b3	add	x19,x31,x20	 x31:0x95eb0044 x20:0xf7f11000 x19=0x8ddc1044
       40105000	      4009	80004234	1933b613	sltiu	x12,x7,403	  x7:0x00000000 x12=0x00000001
       40115000	      4010	80004238	00c5d593	srli	x11,x11,0xc	 x11:0x9fffc6c5 x11=0x0009fffc
       40125000	      4011	8000423c	02097063	bgeu	x18,x0,8000425c	 x18:0x00000001  x0:0x00000000
       40135000	      4012	00000000	00000013	addi	x0,x0,0	  x0:0x00000000
       40145000	      4013	80004258	00000013	addi	x0,x0,0	  x0:0x00000000
       40155000	      4014	8000425c	417a5f13	srai	x30,x20,0x17	 x20:0xf7f11000 x30=0xffffffef
       40165000	      4015	80004260	413083b3	sub	x7,x1,x19	  x1:0x00000001 x19:0x8ddc1044  x7=0x7223efbd
       40175000	      4016	80004264	01a953b3	srl	x7,x18,x26	 x18:0x00000001 x26:0x80009fc4  x7=0x00000000
       40185000	      4017	80004268	00dd8913	addi	x18,x27,13	 x27:0x80009f2c x18=0x80009f39
       40195000	      4018	8000426c	02c6d063	bge	x13,x12,8000428c	 x13:0xf7f11000 x12:0x00000001
       40205000	      4019	80004270	00000013	addi	x0,x0,0	  x0:0x00000000
       40215000	      4020	80004274	0070db13	srli	x22,x1,0x7	  x1:0x00000001 x22=0x00000000
       40225000	      4021	80004278	f2263293	sltiu	x5,x12,-222	 x12:0x00000001  x5=0x00000001
       40235000	      4022	8000427c	005705b3	add	x11,x14,x5	 x14:0x00061b07  x5:0x00000001 x11=0x00061b08
       40245000	      4023	80004280	40243b93	sltiu	x23,x8,1026	  x8:0x00000001 x23=0x00000001
       40255000	      4024	80004284	01b06c33	or	x24,x0,x27	  x0:0x00000000 x27:0x80009f2c x24=0x80009f2c
       40265000	      4025	80004288	e0c0ff13	andi	x30,x1,-500	  x1:0x00000001 x30=0x00000000
       40275000	      4026	8000428c	41c7d813	srai	x16,x15,0x1c	 x15:0x00000000 x16=0x00000000
       40285000	      4027	80004290	04b57863	bgeu	x10,x11,800042e0	 x10:0xfffffdf5 x11:0x00061b08
       40295000	      4028	00000000	00000013	addi	x0,x0,0	  x0:0x00000000
       40305000	      4029	800042dc	00000013	addi	x0,x0,0	  x0:0x00000000
       40315000	      4030	800042e0	00000013	addi	x0,x0,0	  x0:0x00000000
       40325000	      4031	800042e4	01736c33	or	x24,x6,x23	  x6:0x37350000 x23:0x00000001 x24=0x37350001
       40335000	      4032	800042e8	01bcc433	xor	x8,x25,x27	 x25:0x00000000 x27:0x80009f2c  x8=0x80009f2c
       40345000	      4033	800042ec	00451c33	sll	x24,x10,x4	 x10:0xfffffdf5  x4:0x0001a91e x24=0x40000000
       40355000	      4034	800042f0	00000013	addi	x0,x0,0	  x0:0x00000000
       40365000	      4035	800042f4	f4c43897	auipc	x17,0xf4c43	 x17=0x74c472f0
       40375000	      4036	800042f8	40d38233	sub	x4,x7,x13	  x7:0x00000000 x13:0xf7f11000  x4=0x080ef000
       40385000	      4037	800042fc	41a2dbb3	sra	x23,x5,x26	  x5:0x00000001 x26:0x80009fc4 x23=0x00000000
       40395000	      4038	80004300	01d81b93	slli	x23,x16,0x1d	 x16:0x00000000 x23=0x00000000
       40405000	      4039	80004304	00b9a833	slt	x16,x19,x11	 x19:0x8ddc1044 x11:0x00061b08 x16=0x00000001
       40415000	      4040	80004308	5d3c4437	lui	x8,0x5d3c4	  x8=0x5d3c4000
       40425000	      4041	8000430c	002257b3	srl	x15,x4,x2	  x4:0x080ef000  x2:0x00000000 x15=0x080ef000
       40435000	      4042	80004310	89bdb013	sltiu	x0,x27,-1893	 x27:0x80009f2c
       40445000	      4043	80004314	4190d993	srai	x19,x1,0x19	  x1:0x00000001 x19=0x00000000
       40455000	      4044	80004318	4154db93	srai	x23,x9,0x15	  x9:0x00000000 x23=0x00000000
       40465000	      4045	8000431c	41158f33	sub	x30,x11,x17	 x11:0x00061b08 x17:0x74c472f0 x30=0x8b41a818
       40475000	      4046	80004320	00cefc63	bgeu	x29,x12,80004338	 x29:0x61b06eb8 x12:0x00000001
       40485000	      4047	00000000	00000013	addi	x0,x0,0	  x0:0x00000000
       40495000	      4048	80004334	00000013	addi	x0,x0,0	  x0:0x00000000
       40505000	      4049	80004338	00d0b1b3	sltu	x3,x1,x13	  x1:0x00000001 x13:0xf7f11000  x3=0x00000001
       40515000	      4050	8000433c	02d1ea63	bltu	x3,x13,80004370	  x3:0x00000001 x13:0xf7f11000
       40525000	      4051	00000000	00000013	addi	x0,x0,0	  x0:0x00000000
       40535000	      4052	8000436c	00000013	addi	x0,x0,0	  x0:0x00000000
       40545000	      4053	80004370	00bed693	srli	x13,x29,0xb	 x29:0x61b06eb8 x13=0x000c360d
       40555000	      4054	80004374	41b45693	srai	x13,x8,0x1b	  x8:0x5d3c4000 x13=0x0000000b
       40565000	      4055	80004378	d0dfaf93	slti	x31,x31,-755	 x31:0x95eb0044 x31=0x00000001
       40575000	      4056	8000437c	018f94b3	sll	x9,x31,x24	 x31:0x00000001 x24:0x40000000  x9=0x00000001
       40585000	      4057	80004380	030cf063	bgeu	x25,x16,800043a0	 x25:0x00000000 x16:0x00000001
       40595000	      4058	80004384	d6ee8593	addi	x11,x29,-658	 x29:0x61b06eb8 x11=0x61b06c26
       40605000	      4059	80004388	5e9ec993	xori	x19,x29,1513	 x29:0x61b06eb8 x19=0x61b06b51
       40615000	      4060	8000438c	01e76263	bltu	x14,x30,80004390	 x14:0x00061b07 x30:0x8b41a818
       40625000	      4061	00000000	00000013	addi	x0,x0,0	  x0:0x00000000
       40635000	      4062	8000438c	00000013	addi	x0,x0,0	  x0:0x00000000
       40645000	      4063	80004390	00ec5493	srli	x9,x24,0xe	 x24:0x40000000  x9=0x00010000
       40655000	      4064	80004394	00d80e33	add	x28,x16,x13	 x16:0x00000001 x13:0x0000000b x28=0x0000000c
       40665000	      4065	80004398	3fe838b7	lui	x17,0x3fe83	 x17=0x3fe83000
       40675000	      4066	8000439c	206e7a13	andi	x20,x28,518	 x28:0x0000000c x20=0x00000004
       40685000	      4067	800043a0	015c33b3	sltu	x7,x24,x21	 x24:0x40000000 x21:0x00000001  x7=0x00000000
       40695000	      4068	800043a4	0106da93	srli	x21,x13,0x10	 x13:0x0000000b x21=0x00000000
       40705000	      4069	800043a8	010eac33	slt	x24,x29,x16	 x29:0x61b06eb8 x16:0x00000001 x24=0x00000000
       40715000	      4070	800043ac	08816663	bltu	x2,x8,80004438	  x2:0x00000000  x8:0x5d3c4000
       40725000	      4071	00000000	00000013	addi	x0,x0,0	  x0:0x00000000
       40735000	      4072	80004434	00000013	addi	x0,x0,0	  x0:0x00000000
       40745000	      4073	80004438	00202733	slt	x14,x0,x2	  x0:0x00000000  x2:0x00000000 x14=0x00000000
       40755000	      4074	8000443c	403fd593	srai	x11,x31,0x3	 x31:0x00000001 x11=0x00000000
       40765000	      4075	80004440	030d1263	bne	x26,x16,80004464	 x26:0x80009fc4 x16:0x00000001
       40775000	      4076	00000000	00000013	addi	x0,x0,0	  x0:0x00000000
       40785000	      4077	80004460	00000013	addi	x0,x0,0	  x0:0x00000000
       40795000	      4078	80004464	03046263	bltu	x8,x16,80004488	  x8:0x5d3c4000 x16:0x00000001
       40805000	      4079	80004468	04916263	bltu	x2,x9,800044ac	  x2:0x00000000  x9:0x00010000
       40815000	      4080	00000000	00000013	addi	x0,x0,0	  x0:0x00000000
       40825000	      4081	800044a8	00000013	addi	x0,x0,0	  x0:0x00000000
       40835000	      4082	800044ac	05735863	bge	x6,x23,800044fc	  x6:0x37350000 x23:0x00000000
       40845000	      4083	00000000	00000013	addi	x0,x0,0	  x0:0x00000000
       40855000	      4084	800044f8	00000013	addi	x0,x0,0	  x0:0x00000000
       40865000	      4085	800044fc	002bd793	srli	x15,x23,0x2	 x23:0x00000000 x15=0x00000000
       40875000	      4086	80004500	400880b3	sub	x1,x17,x0	 x17:0x3fe83000  x0:0x00000000  x1=0x3fe83000
       40885000	      4087	80004504	bfcd8313	addi	x6,x27,-1028	 x27:0x80009f2c  x6=0x80009b28
       40895000	      4088	80004508	0213e463	bltu	x7,x1,80004530	  x7:0x00000000  x1:0x3fe83000
       40905000	      4089	00000000	00000013	addi	x0,x0,0	  x0:0x00000000
       40915000	      4090	8000452c	00000013	addi	x0,x0,0	  x0:0x00000000
       40925000	      4091	80004530	03779063	bne	x15,x23,80004550	 x15:0x00000000 x23:0x00000000
       40935000	      4092	80004534	002b9bb3	sll	x23,x23,x2	 x23:0x00000000  x2:0x00000000 x23=0x00000000
       40945000	      4093	80004538	41d480b3	sub	x1,x9,x29	  x9:0x00010000 x29:0x61b06eb8  x1=0x9e509148
       40955000	      4094	8000453c	00000013	addi	x0,x0,0	  x0:0x00000000
       40965000	      4095	80004540	7ed50213	addi	x4,x10,2029	 x10:0xfffffdf5  x4=0x000005e2
       40975000	      4096	80004544	02a3e863	bltu	x7,x10,80004574	  x7:0x00000000 x10:0xfffffdf5
       40985000	      4097	00000000	00000013	addi	x0,x0,0	  x0:0x00000000
       40995000	      4098	80004570	00000013	addi	x0,x0,0	  x0:0x00000000
       41005000	      4099	80004574	e82f1e17	auipc	x28,0xe82f1	 x28=0x682f5570
       41015000	      4100	80004578	05bef863	bgeu	x29,x27,800045c8	 x29:0x61b06eb8 x27:0x80009f2c
       41025000	      4101	8000457c	016a53b3	srl	x7,x20,x22	 x20:0x00000004 x22:0x00000000  x7=0x00000004
       41035000	      4102	80004580	40fdd033	sra	x0,x27,x15	 x27:0x80009f2c x15:0x00000000
       41045000	      4103	80004584	01c36263	bltu	x6,x28,80004588	  x6:0x80009b28 x28:0x682f5570
       41055000	      4104	80004588	01330c63	beq	x6,x19,800045a0	  x6:0x80009b28 x19:0x61b06b51
       41065000	      4105	8000458c	00f15833	srl	x16,x2,x15	  x2:0x00000000 x15:0x00000000 x16=0x00000000
       41075000	      4106	80004590	0ef2eb13	ori	x22,x5,239	  x5:0x00000001 x22=0x000000ef
       41085000	      4107	80004594	0065ea63	bltu	x11,x6,800045a8	 x11:0x00000000  x6:0x80009b28
       41095000	      4108	00000000	00000013	addi	x0,x0,0	  x0:0x00000000
       41105000	      4109	800045a4	00000013	addi	x0,x0,0	  x0:0x00000000
       41115000	      4110	800045a8	1ad824b7	lui	x9,0x1ad82	  x9=0x1ad82000
       41125000	      4111	800045ac	00ee29b3	slt	x19,x28,x14	 x28:0x682f5570 x14:0x00000000 x19=0x00000000
       41135000	      4112	800045b0	911b3f93	sltiu	x31,x22,-1775	 x22:0x000000ef x31=0x00000001
       41145000	      4113	800045b4	0df84b97	auipc	x23,0xdf84	 x23=0x8df885b0
       41155000	      4114	800045b8	00477663	bgeu	x14,x4,800045c4	 x14:0x00000000  x4:0x000005e2
       41165000	      4115	800045bc	01099433	sll	x8,x19,x16	 x19:0x00000000 x16:0x00000000  x8=0x00000000
       41175000	      4116	800045c0	0028beb3	sltu	x29,x17,x2	 x17:0x3fe83000  x2:0x00000000 x29=0x00000000
       41185000	      4117	800045c4	004fde13	srli	x28,x31,0x4	 x31:0x00000001 x28=0x00000000
       41195000	      4118	800045c8	02031263	bne	x6,x0,800045ec	  x6:0x80009b28  x0:0x00000000
       41205000	      4119	00000000	00000013	addi	x0,x0,0	  x0:0x00000000
       41215000	      4120	800045e8	00000013	addi	x0,x0,0	  x0:0x00000000
       41225000	      4121	800045ec	d4637213	andi	x4,x6,-698	  x6:0x80009b28  x4=0x80009900
       41235000	      4122	800045f0	23756537	lui	x10,0x23756	 x10=0x23756000
       41245000	      4123	800045f4	00bf1833	sll	x16,x30,x11	 x30:0x8b41a818 x11:0x00000000 x16=0x8b41a818
       41255000	      4124	800045f8	411a8a33	sub	x20,x21,x17	 x21:0x00000000 x17:0x3fe83000 x20=0xc017d000
       41265000	      4125	800045fc	01049033	sll	x0,x9,x16	  x9:0x1ad82000 x16:0x8b41a818
       41275000	      4126	80004600	01b81193	slli	x3,x16,0x1b	 x16:0x8b41a818  x3=0xc0000000
       41285000	      4127	80004604	0316d663	bge	x13,x17,80004630	 x13:0x0000000b x17:0x3fe83000
       41295000	      4128	80004608	bb668e13	addi	x28,x13,-1098	 x13:0x0000000b x28=0xfffffbc1
       41305000	      4129	8000460c	40e5d5b3	sra	x11,x11,x14	 x11:0x00000000 x14:0x00000000 x11=0x00000000
       41315000	      4130	80004610	04791263	bne	x18,x7,80004654	 x18:0x80009f39  x7:0x00000004
       41325000	      4131	00000000	00000013	addi	x0,x0,0	  x0:0x00000000
       41335000	      4132	80004650	00000013	addi	x0,x0,0	  x0:0x00000000
       41345000	      4133	80004654	d1b69bb7	lui	x23,0xd1b69	 x23=0xd1b69000
       41355000	      4134	80004658	010366b3	or	x13,x6,x16	  x6:0x80009b28 x16:0x8b41a818 x13=0x8b41bb38
       41365000	      4135	8000465c	4085db13	srai	x22,x11,0x8	 x11:0x00000000 x22=0x00000000
       41375000	      4136	80004660	6847a813	slti	x16,x15,1668	 x15:0x00000000 x16=0x00000001
       41385000	      4137	80004664	fea9f013	andi	x0,x19,-22	 x19:0x00000000
       41395000	      4138	80004668	02581663	bne	x16,x5,80004694	 x16:0x00000001  x5:0x00000001
       41405000	      4139	8000466c	015d9713	slli	x14,x27,0x15	 x27:0x80009f2c x14=0xe5800000
       41415000	      4140	80004670	01b8f1b3	and	x3,x17,x27	 x17:0x3fe83000 x27:0x80009f2c  x3=0x00001000
       41425000	      4141	80004674	03a84063	blt	x16,x26,80004694	 x16:0x00000001 x26:0x80009fc4
       41435000	      4142	80004678	014704b3	add	x9,x14,x20	 x14:0xe5800000 x20:0xc017d000  x9=0xa597d000
       41445000	      4143	8000467c	01cc4c63	blt	x24,x28,80004694	 x24:0x00000000 x28:0xfffffbc1
       41455000	      4144	80004680	01a996b3	sll	x13,x19,x26	 x19:0x00000000 x26:0x80009fc4 x13=0x00000000
       41465000	      4145	80004684	011f0ab3	add	x21,x30,x17	 x30:0x8b41a818 x17:0x3fe83000 x21=0xcb29d818
       41475000	      4146	80004688	015d8663	beq	x27,x21,80004694	 x27:0x80009f2c x21:0xcb29d818
       41485000	      4147	8000468c	00fd07b3	add	x15,x26,x15	 x26:0x80009fc4 x15:0x00000000 x15=0x80009fc4
       41495000	      4148	80004690	f0523613	sltiu	x12,x4,-251	  x4:0x80009900 x12=0x00000001
       41505000	      4149	80004694	1248b813	sltiu	x16,x17,292	 x17:0x3fe83000 x16=0x00000000
       41515000	      4150	80004698	4e102f93	slti	x31,x0,1249	  x0:0x00000000 x31=0x00000001
       41525000	      4151	8000469c	000edf93	srli	x31,x29,0x0	 x29:0x00000000 x31=0x00000000
       41535000	      4152	800046a0	004da303	lw	x6,4(x27)	 x27:0x80009f2c  x6=0x80002f40 PA:0x80009f30
       41545000	      4153	800046a4	41f3d993	srai	x19,x7,0x1f	  x7:0x00000004 x19=0x00000000
       41555000	      4154	800046a8	409f5f33	sra	x30,x30,x9	 x30:0x8b41a818  x9:0xa597d000 x30=0x8b41a818
       41565000	      4155	800046ac	0f77c013	xori	x0,x15,247	 x15:0x80009fc4
       41575000	      4156	800046b0	038d8d93	addi	x27,x27,56	 x27:0x80009f2c x27=0x80009f64
       41585000	      4157	800046b4	012fcf33	xor	x30,x31,x18	 x31:0x00000000 x18:0x80009f39 x30=0x80009f39
       41595000	      4158	800046b8	00130b13	addi	x22,x6,1	  x6:0x80002f40 x22=0x80002f41
       41605000	      4159	800046bc	000b0b67	jalr	x22,x22,0	 x22:0x80002f41 x22=0x800046bc
       41615000	      4160	00000000	00000013	addi	x0,x0,0	  x0:0x00000000
       41625000	      4161	80002f40	00000013	addi	x0,x0,0	  x0:0x00000000
       41635000	      4162	80002f44	013f9e33	sll	x28,x31,x19	 x31:0x00000000 x19:0x00000000 x28=0x00000000
       41645000	      4163	80002f48	00000c97	auipc	x25,0x0	 x25=0x80002f44
       41655000	      4164	80002f4c	b70c8c93	addi	x25,x25,-1168	 x25:0x80002f44 x25=0x80002ab4
       41665000	      4165	80002f50	c70c8c93	addi	x25,x25,-912	 x25:0x80002ab4 x25=0x80002724
       41675000	      4166	80002f54	008d52b3	srl	x5,x26,x8	 x26:0x80009fc4  x8:0x00000000  x5=0x80009fc4
       41685000	      4167	80002f58	d1d83313	sltiu	x6,x16,-739	 x16:0x00000000  x6=0x00000001
       41695000	      4168	80002f5c	000e7863	bgeu	x28,x0,80002f6c	 x28:0x00000000  x0:0x00000000
       41705000	      4169	00000000	00000013	addi	x0,x0,0	  x0:0x00000000
       41715000	      4170	80002f68	00000013	addi	x0,x0,0	  x0:0x00000000
       41725000	      4171	80002f6c	390c8367	jalr	x6,x25,912	 x25:0x80002724  x6=0x80002f6c
       41735000	      4172	00000000	00000013	addi	x0,x0,0	  x0:0x00000000
       41745000	      4173	80002ab4	00000013	addi	x0,x0,0	  x0:0x00000000
       41755000	      4174	80002ab8	f4250f93	addi	x31,x10,-190	 x10:0x23756000 x31=0x23755f42
       41765000	      4175	80002abc	010a55b3	srl	x11,x20,x16	 x20:0xc017d000 x16:0x00000000 x11=0xc017d000
       41775000	      4176	80002ac0	fdcd8d93	addi	x27,x27,-36	 x27:0x80009f64 x27=0x80009f40
       41785000	      4177	80002ac4	00949eb3	sll	x29,x9,x9	  x9:0xa597d000  x9:0xa597d000 x29=0xa597d000
       41795000	      4178	80002ac8	8be8de17	auipc	x28,0x8be8d	 x28=0x0be8fac4
       41805000	      4179	80002acc	007f19b3	sll	x19,x30,x7	 x30:0x80009f39  x7:0x00000004 x19=0x0009f390
       41815000	      4180	80002ad0	01c914b3	sll	x9,x18,x28	 x18:0x80009f39 x28:0x0be8fac4  x9=0x0009f390
       41825000	      4181	80002ad4	00000013	addi	x0,x0,0	  x0:0x00000000
       41835000	      4182	80002ad8	4108d693	srai	x13,x17,0x10	 x17:0x3fe83000 x13=0x00003fe8
       41845000	      4183	80002adc	006da223	sw	x6,4(x27)	 x27:0x80009f40  x6:0x80002f6c PA:0x80009f44
       41855000	      4184	80002ae0	6775ae93	slti	x29,x11,1655	 x11:0xc017d000 x29=0x00000001
       41865000	      4185	80002ae4	40fabb93	sltiu	x23,x21,1039	 x21:0xcb29d818 x23=0x00000000
       41875000	      4186	80002ae8	0380036f	jal	x6,80002ae8	  x6=0x80002ae8
       41885000	      4187	00000000	00000013	addi	x0,x0,0	  x0:0x00000000
       41895000	      4188	80002b1c	00000013	addi	x0,x0,0	  x0:0x00000000
       41905000	      4189	80002b20	ff1ff1ef	jal	x3,80002b20	  x3=0x80002b20
       41915000	      4190	00000000	00000013	addi	x0,x0,0	  x0:0x00000000
       41925000	      4191	80002b0c	00000013	addi	x0,x0,0	  x0:0x00000000
       41935000	      4192	80002b10	ffdff0ef	jal	x1,80002b10	  x1=0x80002b10
       41945000	      4193	00000000	00000013	addi	x0,x0,0	  x0:0x00000000
       41955000	      4194	80002b08	00000013	addi	x0,x0,0	  x0:0x00000000
       41965000	      4195	80002b0c	0200036f	jal	x6,80002b0c	  x6=0x80002b0c
       41975000	      4196	00000000	00000013	addi	x0,x0,0	  x0:0x00000000
       41985000	      4197	80002b28	00000013	addi	x0,x0,0	  x0:0x00000000
       41995000	      4198	80002b2c	fc1ff0ef	jal	x1,80002b2c	  x1=0x80002b2c
       42005000	      4199	00000000	00000013	addi	x0,x0,0	  x0:0x00000000
       42015000	      4200	80002ae8	00000013	addi	x0,x0,0	  x0:0x00000000
       42025000	      4201	80002aec	00c0036f	jal	x6,80002aec	  x6=0x80002aec
       42035000	      4202	00000000	00000013	addi	x0,x0,0	  x0:0x00000000
       42045000	      4203	80002af4	00000013	addi	x0,x0,0	  x0:0x00000000
       42055000	      4204	80002af8	01c0036f	jal	x6,80002af8	  x6=0x80002af8
       42065000	      4205	00000000	00000013	addi	x0,x0,0	  x0:0x00000000
       42075000	      4206	80002b10	00000013	addi	x0,x0,0	  x0:0x00000000
       42085000	      4207	80002b14	fe9ff0ef	jal	x1,80002b14	  x1=0x80002b14
       42095000	      4208	00000000	00000013	addi	x0,x0,0	  x0:0x00000000
       42105000	      4209	80002af8	00000013	addi	x0,x0,0	  x0:0x00000000
       42115000	      4210	80002afc	004000ef	jal	x1,80002afc	  x1=0x80002afc
       42125000	      4211	00000000	00000013	addi	x0,x0,0	  x0:0x00000000
       42135000	      4212	80002afc	00000013	addi	x0,x0,0	  x0:0x00000000
       42145000	      4213	80002b00	01c005ef	jal	x11,80002b00	 x11=0x80002b00
       42155000	      4214	00000000	00000013	addi	x0,x0,0	  x0:0x00000000
       42165000	      4215	80002b18	00000013	addi	x0,x0,0	  x0:0x00000000
       42175000	      4216	80002b1c	024000ef	jal	x1,80002b1c	  x1=0x80002b1c
       42185000	      4217	00000000	00000013	addi	x0,x0,0	  x0:0x00000000
       42195000	      4218	80002b3c	00000013	addi	x0,x0,0	  x0:0x00000000
       42205000	      4219	80002b40	fb1ff0ef	jal	x1,80002b40	  x1=0x80002b40
       42215000	      4220	00000000	00000013	addi	x0,x0,0	  x0:0x00000000
       42225000	      4221	80002aec	00000013	addi	x0,x0,0	  x0:0x00000000
       42235000	      4222	80002af0	03800f6f	jal	x30,80002af0	 x30=0x80002af0
       42245000	      4223	00000000	00000013	addi	x0,x0,0	  x0:0x00000000
       42255000	      4224	80002b24	00000013	addi	x0,x0,0	  x0:0x00000000
       42265000	      4225	80002b28	ff1ff0ef	jal	x1,80002b28	  x1=0x80002b28
       42275000	      4226	00000000	00000013	addi	x0,x0,0	  x0:0x00000000
       42285000	      4227	80002b14	00000013	addi	x0,x0,0	  x0:0x00000000
       42295000	      4228	80002b18	02000bef	jal	x23,80002b18	 x23=0x80002b18
       42305000	      4229	00000000	00000013	addi	x0,x0,0	  x0:0x00000000
       42315000	      4230	80002b34	00000013	addi	x0,x0,0	  x0:0x00000000
       42325000	      4231	80002b38	004000ef	jal	x1,80002b38	  x1=0x80002b38
       42335000	      4232	00000000	00000013	addi	x0,x0,0	  x0:0x00000000
       42345000	      4233	80002b38	00000013	addi	x0,x0,0	  x0:0x00000000
       42355000	      4234	80002b3c	014000ef	jal	x1,80002b3c	  x1=0x80002b3c
       42365000	      4235	00000000	00000013	addi	x0,x0,0	  x0:0x00000000
       42375000	      4236	80002b4c	00000013	addi	x0,x0,0	  x0:0x00000000
       42385000	      4237	80002b50	ff5ff26f	jal	x4,80002b50	  x4=0x80002b50
       42395000	      4238	00000000	00000013	addi	x0,x0,0	  x0:0x00000000
       42405000	      4239	80002b40	00000013	addi	x0,x0,0	  x0:0x00000000
       42415000	      4240	80002b44	fb1ff2ef	jal	x5,80002b44	  x5=0x80002b44
       42425000	      4241	00000000	00000013	addi	x0,x0,0	  x0:0x00000000
       42435000	      4242	80002af0	00000013	addi	x0,x0,0	  x0:0x00000000
       42445000	      4243	80002af4	030000ef	jal	x1,80002af4	  x1=0x80002af4
       42455000	      4244	00000000	00000013	addi	x0,x0,0	  x0:0x00000000
       42465000	      4245	80002b20	00000013	addi	x0,x0,0	  x0:0x00000000
       42475000	      4246	80002b24	0280026f	jal	x4,80002b24	  x4=0x80002b24
       42485000	      4247	00000000	00000013	addi	x0,x0,0	  x0:0x00000000
       42495000	      4248	80002b48	00000013	addi	x0,x0,0	  x0:0x00000000
       42505000	      4249	80002b4c	fe5ff0ef	jal	x1,80002b4c	  x1=0x80002b4c
       42515000	      4250	00000000	00000013	addi	x0,x0,0	  x0:0x00000000
       42525000	      4251	80002b2c	00000013	addi	x0,x0,0	  x0:0x00000000
       42535000	      4252	80002b30	004001ef	jal	x3,80002b30	  x3=0x80002b30
       42545000	      4253	00000000	00000013	addi	x0,x0,0	  x0:0x00000000
       42555000	      4254	80002b30	00000013	addi	x0,x0,0	  x0:0x00000000
       42565000	      4255	80002b34	fd5ff26f	jal	x4,80002b34	  x4=0x80002b34
       42575000	      4256	00000000	00000013	addi	x0,x0,0	  x0:0x00000000
       42585000	      4257	80002b04	00000013	addi	x0,x0,0	  x0:0x00000000
       42595000	      4258	80002b08	040000ef	jal	x1,80002b08	  x1=0x80002b08
       42605000	      4259	00000000	00000013	addi	x0,x0,0	  x0:0x00000000
       42615000	      4260	80002b44	00000013	addi	x0,x0,0	  x0:0x00000000
       42625000	      4261	80002b48	fbdff0ef	jal	x1,80002b48	  x1=0x80002b48
       42635000	      4262	00000000	00000013	addi	x0,x0,0	  x0:0x00000000
       42645000	      4263	80002b00	00000013	addi	x0,x0,0	  x0:0x00000000
       42655000	      4264	80002b04	0500056f	jal	x10,80002b04	 x10=0x80002b04
       42665000	      4265	00000000	00000013	addi	x0,x0,0	  x0:0x00000000
       42675000	      4266	80002b50	00000013	addi	x0,x0,0	  x0:0x00000000
       42685000	      4267	80002b54	35c25397	auipc	x7,0x35c25	  x7=0xb5c27b50
       42695000	      4268	80002b58	0400036f	jal	x6,80002b58	  x6=0x80002b58
       42705000	      4269	00000000	00000013	addi	x0,x0,0	  x0:0x00000000
       42715000	      4270	80002b94	00000013	addi	x0,x0,0	  x0:0x00000000
       42725000	      4271	80002b98	ff5ff0ef	jal	x1,80002b98	  x1=0x80002b98
       42735000	      4272	00000000	00000013	addi	x0,x0,0	  x0:0x00000000
       42745000	      4273	80002b88	00000013	addi	x0,x0,0	  x0:0x00000000
       42755000	      4274	80002b8c	0340036f	jal	x6,80002b8c	  x6=0x80002b8c
       42765000	      4275	00000000	00000013	addi	x0,x0,0	  x0:0x00000000
       42775000	      4276	80002bbc	00000013	addi	x0,x0,0	  x0:0x00000000
       42785000	      4277	80002bc0	00c008ef	jal	x17,80002bc0	 x17=0x80002bc0
       42795000	      4278	00000000	00000013	addi	x0,x0,0	  x0:0x00000000
       42805000	      4279	80002bc8	00000013	addi	x0,x0,0	  x0:0x00000000
       42815000	      4280	80002bcc	0040036f	jal	x6,80002bcc	  x6=0x80002bcc
       42825000	      4281	00000000	00000013	addi	x0,x0,0	  x0:0x00000000
       42835000	      4282	80002bcc	00000013	addi	x0,x0,0	  x0:0x00000000
       42845000	      4283	80002bd0	fe9ff0ef	jal	x1,80002bd0	  x1=0x80002bd0
       42855000	      4284	00000000	00000013	addi	x0,x0,0	  x0:0x00000000
       42865000	      4285	80002bb4	00000013	addi	x0,x0,0	  x0:0x00000000
       42875000	      4286	80002bb8	fa9ff6ef	jal	x13,80002bb8	 x13=0x80002bb8
       42885000	      4287	00000000	00000013	addi	x0,x0,0	  x0:0x00000000
       42895000	      4288	80002b5c	00000013	addi	x0,x0,0	  x0:0x00000000
       42905000	      4289	80002b60	02000a6f	jal	x20,80002b60	 x20=0x80002b60
       42915000	      4290	00000000	00000013	addi	x0,x0,0	  x0:0x00000000
       42925000	      4291	80002b7c	00000013	addi	x0,x0,0	  x0:0x00000000
       42935000	      4292	80002b80	028000ef	jal	x1,80002b80	  x1=0x80002b80
       42945000	      4293	00000000	00000013	addi	x0,x0,0	  x0:0x00000000
       42955000	      4294	80002ba4	00000013	addi	x0,x0,0	  x0:0x00000000
       42965000	      4295	80002ba8	004000ef	jal	x1,80002ba8	  x1=0x80002ba8
       42975000	      4296	00000000	00000013	addi	x0,x0,0	  x0:0x00000000
       42985000	      4297	80002ba8	00000013	addi	x0,x0,0	  x0:0x00000000
       42995000	      4298	80002bac	ff9ff26f	jal	x4,80002bac	  x4=0x80002bac
       43005000	      4299	00000000	00000013	addi	x0,x0,0	  x0:0x00000000
       43015000	      4300	80002ba0	00000013	addi	x0,x0,0	  x0:0x00000000
       43025000	      4301	80002ba4	fe5ff0ef	jal	x1,80002ba4	  x1=0x80002ba4
       43035000	      4302	00000000	00000013	addi	x0,x0,0	  x0:0x00000000
       43045000	      4303	80002b84	00000013	addi	x0,x0,0	  x0:0x00000000
       43055000	      4304	80002b88	018006ef	jal	x13,80002b88	 x13=0x80002b88
       43065000	      4305	00000000	00000013	addi	x0,x0,0	  x0:0x00000000
       43075000	      4306	80002b9c	00000013	addi	x0,x0,0	  x0:0x00000000
       43085000	      4307	80002ba0	fbdff76f	jal	x14,80002ba0	 x14=0x80002ba0
       43095000	      4308	00000000	00000013	addi	x0,x0,0	  x0:0x00000000
       43105000	      4309	80002b58	00000013	addi	x0,x0,0	  x0:0x00000000
       43115000	      4310	80002b5c	034000ef	jal	x1,80002b5c	  x1=0x80002b5c
       43125000	      4311	00000000	00000013	addi	x0,x0,0	  x0:0x00000000
       43135000	      4312	80002b8c	00000013	addi	x0,x0,0	  x0:0x00000000
       43145000	      4313	80002b90	fddff86f	jal	x16,80002b90	 x16=0x80002b90
       43155000	      4314	00000000	00000013	addi	x0,x0,0	  x0:0x00000000
       43165000	      4315	80002b68	00000013	addi	x0,x0,0	  x0:0x00000000
       43175000	      4316	80002b6c	030000ef	jal	x1,80002b6c	  x1=0x80002b6c
       43185000	      4317	00000000	00000013	addi	x0,x0,0	  x0:0x00000000
       43195000	      4318	80002b98	00000013	addi	x0,x0,0	  x0:0x00000000
       43205000	      4319	80002b9c	02c002ef	jal	x5,80002b9c	  x5=0x80002b9c
       43215000	      4320	00000000	00000013	addi	x0,x0,0	  x0:0x00000000
       43225000	      4321	80002bc4	00000013	addi	x0,x0,0	  x0:0x00000000
       43235000	      4322	80002bc8	fb5ff36f	jal	x6,80002bc8	  x6=0x80002bc8
       43245000	      4323	00000000	00000013	addi	x0,x0,0	  x0:0x00000000
       43255000	      4324	80002b78	00000013	addi	x0,x0,0	  x0:0x00000000
       43265000	      4325	80002b7c	fe9ff0ef	jal	x1,80002b7c	  x1=0x80002b7c
       43275000	      4326	00000000	00000013	addi	x0,x0,0	  x0:0x00000000
       43285000	      4327	80002b60	00000013	addi	x0,x0,0	  x0:0x00000000
       43295000	      4328	80002b64	050004ef	jal	x9,80002b64	  x9=0x80002b64
       43305000	      4329	00000000	00000013	addi	x0,x0,0	  x0:0x00000000
       43315000	      4330	80002bb0	00000013	addi	x0,x0,0	  x0:0x00000000
       43325000	      4331	80002bb4	fbdffe6f	jal	x28,80002bb4	 x28=0x80002bb4
       43335000	      4332	00000000	00000013	addi	x0,x0,0	  x0:0x00000000
       43345000	      4333	80002b6c	00000013	addi	x0,x0,0	  x0:0x00000000
       43355000	      4334	80002b70	04c000ef	jal	x1,80002b70	  x1=0x80002b70
       43365000	      4335	00000000	00000013	addi	x0,x0,0	  x0:0x00000000
       43375000	      4336	80002bb8	00000013	addi	x0,x0,0	  x0:0x00000000
       43385000	      4337	80002bbc	fb9ff0ef	jal	x1,80002bbc	  x1=0x80002bbc
       43395000	      4338	00000000	00000013	addi	x0,x0,0	  x0:0x00000000
       43405000	      4339	80002b70	00000013	addi	x0,x0,0	  x0:0x00000000
       43415000	      4340	80002b74	0100026f	jal	x4,80002b74	  x4=0x80002b74
       43425000	      4341	00000000	00000013	addi	x0,x0,0	  x0:0x00000000
       43435000	      4342	80002b80	00000013	addi	x0,x0,0	  x0:0x00000000
       43445000	      4343	80002b84	0400036f	jal	x6,80002b84	  x6=0x80002b84
       43455000	      4344	00000000	00000013	addi	x0,x0,0	  x0:0x00000000
       43465000	      4345	80002bc0	00000013	addi	x0,x0,0	  x0:0x00000000
       43475000	      4346	80002bc4	fedff2ef	jal	x5,80002bc4	  x5=0x80002bc4
       43485000	      4347	00000000	00000013	addi	x0,x0,0	  x0:0x00000000
       43495000	      4348	80002bac	00000013	addi	x0,x0,0	  x0:0x00000000
       43505000	      4349	80002bb0	fe5ff36f	jal	x6,80002bb0	  x6=0x80002bb0
       43515000	      4350	00000000	00000013	addi	x0,x0,0	  x0:0x00000000
       43525000	      4351	80002b90	00000013	addi	x0,x0,0	  x0:0x00000000
       43535000	      4352	80002b94	fd5ff36f	jal	x6,80002b94	  x6=0x80002b94
       43545000	      4353	00000000	00000013	addi	x0,x0,0	  x0:0x00000000
       43555000	      4354	80002b64	00000013	addi	x0,x0,0	  x0:0x00000000
       43565000	      4355	80002b68	010000ef	jal	x1,80002b68	  x1=0x80002b68
       43575000	      4356	00000000	00000013	addi	x0,x0,0	  x0:0x00000000
       43585000	      4357	80002b74	00000013	addi	x0,x0,0	  x0:0x00000000
       43595000	      4358	80002b78	05c0036f	jal	x6,80002b78	  x6=0x80002b78
       43605000	      4359	00000000	00000013	addi	x0,x0,0	  x0:0x00000000
       43615000	      4360	80002bd0	00000013	addi	x0,x0,0	  x0:0x00000000
       43625000	      4361	80002bd4	fa5dab93	slti	x23,x27,-91	 x27:0x80009f40 x23=0x00000001
       43635000	      4362	80002bd8	01c0036f	jal	x6,80002bd8	  x6=0x80002bd8
       43645000	      4363	00000000	00000013	addi	x0,x0,0	  x0:0x00000000
       43655000	      4364	80002bf0	00000013	addi	x0,x0,0	  x0:0x00000000
       43665000	      4365	80002bf4	028000ef	jal	x1,80002bf4	  x1=0x80002bf4
       43675000	      4366	00000000	00000013	addi	x0,x0,0	  x0:0x00000000
       43685000	      4367	80002c18	00000013	addi	x0,x0,0	  x0:0x00000000
       43695000	      4368	80002c1c	fddfff6f	jal	x30,80002c1c	 x30=0x80002c1c
       43705000	      4369	00000000	00000013	addi	x0,x0,0	  x0:0x00000000
       43715000	      4370	80002bf4	00000013	addi	x0,x0,0	  x0:0x00000000
       43725000	      4371	80002bf8	fe5ff0ef	jal	x1,80002bf8	  x1=0x80002bf8
       43735000	      4372	00000000	00000013	addi	x0,x0,0	  x0:0x00000000
       43745000	      4373	80002bd8	00000013	addi	x0,x0,0	  x0:0x00000000
       43755000	      4374	80002bdc	014000ef	jal	x1,80002bdc	  x1=0x80002bdc
       43765000	      4375	00000000	00000013	addi	x0,x0,0	  x0:0x00000000
       43775000	      4376	80002bec	00000013	addi	x0,x0,0	  x0:0x00000000
       43785000	      4377	80002bf0	050001ef	jal	x3,80002bf0	  x3=0x80002bf0
       43795000	      4378	00000000	00000013	addi	x0,x0,0	  x0:0x00000000
       43805000	      4379	80002c3c	00000013	addi	x0,x0,0	  x0:0x00000000
       43815000	      4380	80002c40	ff9ff0ef	jal	x1,80002c40	  x1=0x80002c40
       43825000	      4381	00000000	00000013	addi	x0,x0,0	  x0:0x00000000
       43835000	      4382	80002c34	00000013	addi	x0,x0,0	  x0:0x00000000
       43845000	      4383	80002c38	fd1ff86f	jal	x16,80002c38	 x16=0x80002c38
       43855000	      4384	00000000	00000013	addi	x0,x0,0	  x0:0x00000000
       43865000	      4385	80002c04	00000013	addi	x0,x0,0	  x0:0x00000000
       43875000	      4386	80002c08	0040096f	jal	x18,80002c08	 x18=0x80002c08
       43885000	      4387	00000000	00000013	addi	x0,x0,0	  x0:0x00000000
       43895000	      4388	80002c08	00000013	addi	x0,x0,0	  x0:0x00000000
       43905000	      4389	80002c0c	00c000ef	jal	x1,80002c0c	  x1=0x80002c0c
       43915000	      4390	00000000	00000013	addi	x0,x0,0	  x0:0x00000000
       43925000	      4391	80002c14	00000013	addi	x0,x0,0	  x0:0x00000000
       43935000	      4392	80002c18	010000ef	jal	x1,80002c18	  x1=0x80002c18
       43945000	      4393	00000000	00000013	addi	x0,x0,0	  x0:0x00000000
       43955000	      4394	80002c24	00000013	addi	x0,x0,0	  x0:0x00000000
       43965000	      4395	80002c28	fbdff36f	jal	x6,80002c28	  x6=0x80002c28
       43975000	      4396	00000000	00000013	addi	x0,x0,0	  x0:0x00000000
       43985000	      4397	80002be0	00000013	addi	x0,x0,0	  x0:0x00000000
       43995000	      4398	80002be4	058002ef	jal	x5,80002be4	  x5=0x80002be4
       44005000	      4399	00000000	00000013	addi	x0,x0,0	  x0:0x00000000
       44015000	      4400	80002c38	00000013	addi	x0,x0,0	  x0:0x00000000
       44025000	      4401	80002c3c	fc5ff36f	jal	x6,80002c3c	  x6=0x80002c3c
       44035000	      4402	00000000	00000013	addi	x0,x0,0	  x0:0x00000000
       44045000	      4403	80002bfc	00000013	addi	x0,x0,0	  x0:0x00000000
       44055000	      4404	80002c00	fedff0ef	jal	x1,80002c00	  x1=0x80002c00
       44065000	      4405	00000000	00000013	addi	x0,x0,0	  x0:0x00000000
       44075000	      4406	80002be8	00000013	addi	x0,x0,0	  x0:0x00000000
       44085000	      4407	80002bec	0480026f	jal	x4,80002bec	  x4=0x80002bec
       44095000	      4408	00000000	00000013	addi	x0,x0,0	  x0:0x00000000
       44105000	      4409	80002c30	00000013	addi	x0,x0,0	  x0:0x00000000
       44115000	      4410	80002c34	fd1ff36f	jal	x6,80002c34	  x6=0x80002c34
       44125000	      4411	00000000	00000013	addi	x0,x0,0	  x0:0x00000000
       44135000	      4412	80002c00	00000013	addi	x0,x0,0	  x0:0x00000000
       44145000	      4413	80002c04	01c0036f	jal	x6,80002c04	  x6=0x80002c04
       44155000	      4414	00000000	00000013	addi	x0,x0,0	  x0:0x00000000
       44165000	      4415	80002c1c	00000013	addi	x0,x0,0	  x0:0x00000000
       44175000	      4416	80002c20	ff5ff86f	jal	x16,80002c20	 x16=0x80002c20
       44185000	      4417	00000000	00000013	addi	x0,x0,0	  x0:0x00000000
       44195000	      4418	80002c10	00000013	addi	x0,x0,0	  x0:0x00000000
       44205000	      4419	80002c14	0180036f	jal	x6,80002c14	  x6=0x80002c14
       44215000	      4420	00000000	00000013	addi	x0,x0,0	  x0:0x00000000
       44225000	      4421	80002c28	00000013	addi	x0,x0,0	  x0:0x00000000
       44235000	      4422	80002c2c	ff9ff1ef	jal	x3,80002c2c	  x3=0x80002c2c
       44245000	      4423	00000000	00000013	addi	x0,x0,0	  x0:0x00000000
       44255000	      4424	80002c20	00000013	addi	x0,x0,0	  x0:0x00000000
       44265000	      4425	80002c24	fd9ff0ef	jal	x1,80002c24	  x1=0x80002c24
       44275000	      4426	00000000	00000013	addi	x0,x0,0	  x0:0x00000000
       44285000	      4427	80002bf8	00000013	addi	x0,x0,0	  x0:0x00000000
       44295000	      4428	80002bfc	014001ef	jal	x3,80002bfc	  x3=0x80002bfc
       44305000	      4429	00000000	00000013	addi	x0,x0,0	  x0:0x00000000
       44315000	      4430	80002c0c	00000013	addi	x0,x0,0	  x0:0x00000000
       44325000	      4431	80002c10	0200036f	jal	x6,80002c10	  x6=0x80002c10
       44335000	      4432	00000000	00000013	addi	x0,x0,0	  x0:0x00000000
       44345000	      4433	80002c2c	00000013	addi	x0,x0,0	  x0:0x00000000
       44355000	      4434	80002c30	fb9ff6ef	jal	x13,80002c30	 x13=0x80002c30
       44365000	      4435	00000000	00000013	addi	x0,x0,0	  x0:0x00000000
       44375000	      4436	80002be4	00000013	addi	x0,x0,0	  x0:0x00000000
       44385000	      4437	80002be8	ff9ffb6f	jal	x22,80002be8	 x22=0x80002be8
       44395000	      4438	00000000	00000013	addi	x0,x0,0	  x0:0x00000000
       44405000	      4439	80002bdc	00000013	addi	x0,x0,0	  x0:0x00000000
       44415000	      4440	80002be0	064004ef	jal	x9,80002be0	  x9=0x80002be0
       44425000	      4441	00000000	00000013	addi	x0,x0,0	  x0:0x00000000
       44435000	      4442	80002c40	00000013	addi	x0,x0,0	  x0:0x00000000
       44445000	      4443	80002c44	e47c2c93	slti	x25,x24,-441	 x24:0x00000000 x25=0x00000000
       44455000	      4444	80002c48	01c4e2b3	or	x5,x9,x28	  x9:0x80002be0 x28:0x80002bb4  x5=0x80002bf4
       44465000	      4445	80002c4c	01c25263	bge	x4,x28,80002c50	  x4:0x80002bec x28:0x80002bb4
       44475000	      4446	00000000	00000013	addi	x0,x0,0	  x0:0x00000000
       44485000	      4447	80002c4c	00000013	addi	x0,x0,0	  x0:0x00000000
       44495000	      4448	80002c50	40455ab3	sra	x21,x10,x4	 x10:0x80002b04  x4:0x80002bec x21=0xfff80002
       44505000	      4449	80002c54	00000013	addi	x0,x0,0	  x0:0x00000000
       44515000	      4450	80002c58	0089dfb3	srl	x31,x19,x8	 x19:0x0009f390  x8:0x00000000 x31=0x0009f390
       44525000	      4451	80002c5c	0100b7b3	sltu	x15,x1,x16	  x1:0x80002c24 x16:0x80002c20 x15=0x00000000
       44535000	      4452	80002c60	01cce263	bltu	x25,x28,80002c64	 x25:0x00000000 x28:0x80002bb4
       44545000	      4453	00000000	00000013	addi	x0,x0,0	  x0:0x00000000
       44555000	      4454	80002c60	00000013	addi	x0,x0,0	  x0:0x00000000
       44565000	      4455	80002c64	1f6ca813	slti	x16,x25,502	 x25:0x00000000 x16=0x00000001
       44575000	      4456	80002c68	40c1db13	srai	x22,x3,0xc	  x3:0x80002bfc x22=0xfff80002
       44585000	      4457	80002c6c	01d11233	sll	x4,x2,x29	  x2:0x00000000 x29:0x00000001  x4=0x00000000
       44595000	      4458	80002c70	011c7263	bgeu	x24,x17,80002c74	 x24:0x00000000 x17:0x80002bc0
       44605000	      4459	80002c74	41d5d793	srai	x15,x11,0x1d	 x11:0x80002b00 x15=0xfffffffc
       44615000	      4460	80002c78	00518eb3	add	x29,x3,x5	  x3:0x80002bfc  x5:0x80002bf4 x29=0x000057f0
       44625000	      4461	80002c7c	028fc863	blt	x31,x8,80002cac	 x31:0x0009f390  x8:0x00000000
       44635000	      4462	80002c80	41925533	sra	x10,x4,x25	  x4:0x00000000 x25:0x00000000 x10=0x00000000
       44645000	      4463	80002c84	1e72c013	xori	x0,x5,487	  x5:0x80002bf4
       44655000	      4464	80002c88	03f4f863	bgeu	x9,x31,80002cb8	  x9:0x80002be0 x31:0x0009f390
       44665000	      4465	00000000	00000013	addi	x0,x0,0	  x0:0x00000000
       44675000	      4466	80002cb4	00000013	addi	x0,x0,0	  x0:0x00000000
       44685000	      4467	80002cb8	7066e393	ori	x7,x13,1798	 x13:0x80002c30  x7=0x80002f36
       44695000	      4468	80002cbc	01c912b3	sll	x5,x18,x28	 x18:0x80002c08 x28:0x80002bb4  x5=0xc0800000
       44705000	      4469	80002cc0	ae460693	addi	x13,x12,-1308	 x12:0x00000001 x13=0xfffffae5
       44715000	      4470	80002cc4	28038513	addi	x10,x7,640	  x7:0x80002f36 x10=0x800031b6
       44725000	      4471	80002cc8	0080d193	srli	x3,x1,0x8	  x1:0x80002c24  x3=0x0080002c
       44735000	      4472	80002ccc	f092b213	sltiu	x4,x5,-247	  x5:0xc0800000  x4=0x00000001
       44745000	      4473	80002cd0	418fda33	sra	x20,x31,x24	 x31:0x0009f390 x24:0x00000000 x20=0x0009f390
       44755000	      4474	80002cd4	7e5a6837	lui	x16,0x7e5a6	 x16=0x7e5a6000
       44765000	      4475	80002cd8	6481e293	ori	x5,x3,1608	  x3:0x0080002c  x5=0x0080066c
       44775000	      4476	80002cdc	b6af4313	xori	x6,x30,-1174	 x30:0x80002c1c  x6=0x7fffd776
       44785000	      4477	80002ce0	013ad793	srli	x15,x21,0x13	 x21:0xfff80002 x15=0x00001fff
       44795000	      4478	80002ce4	c801a6b7	lui	x13,0xc801a	 x13=0xc801a000
       44805000	      4479	80002ce8	00ed1893	slli	x17,x26,0xe	 x26:0x80009fc4 x17=0x27f10000
       44815000	      4480	80002cec	004bcf33	xor	x30,x23,x4	 x23:0x00000001  x4:0x00000001 x30=0x00000000
       44825000	      4481	80002cf0	017d88b3	add	x17,x27,x23	 x27:0x80009f40 x23:0x00000001 x17=0x80009f41
       44835000	      4482	80002cf4	00d38ab3	add	x21,x7,x13	  x7:0x80002f36 x13:0xc801a000 x21=0x4801cf36
       44845000	      4483	80002cf8	7adc4293	xori	x5,x24,1965	 x24:0x00000000  x5=0x000007ad
       44855000	      4484	80002cfc	03ca5063	bge	x20,x28,80002d1c	 x20:0x0009f390 x28:0x80002bb4
       44865000	      4485	00000000	00000013	addi	x0,x0,0	  x0:0x00000000
       44875000	      4486	80002d18	00000013	addi	x0,x0,0	  x0:0x00000000
       44885000	      4487	80002d1c	85d6abb7	lui	x23,0x85d6a	 x23=0x85d6a000
       44895000	      4488	80002d20	41ca58b3	sra	x17,x20,x28	 x20:0x0009f390 x28:0x80002bb4 x17=0x00000000
       44905000	      4489	80002d24	40600233	sub	x4,x0,x6	  x0:0x00000000  x6:0x7fffd776  x4=0x8000288a
       44915000	      4490	80002d28	9c797213	andi	x4,x18,-1593	 x18:0x80002c08  x4=0x80002800
       44925000	      4491	80002d2c	f9ff6617	auipc	x12,0xf9ff6	 x12=0x79ff8d28
       44935000	      4492	80002d30	c13a7813	andi	x16,x20,-1005	 x20:0x0009f390 x16=0x0009f010
       44945000	      4493	80002d34	512a0493	addi	x9,x20,1298	 x20:0x0009f390  x9=0x0009f8a2
       44955000	      4494	80002d38	2265a993	slti	x19,x11,550	 x11:0x80002b00 x19=0x00000001
       44965000	      4495	80002d3c	1629e693	ori	x13,x19,354	 x19:0x00000001 x13=0x00000163
       44975000	      4496	80002d40	8f52ce13	xori	x28,x5,-1803	  x5:0x000007ad x28=0xffffff58
       44985000	      4497	80002d44	03fc9a63	bne	x25,x31,80002d78	 x25:0x00000000 x31:0x0009f390
       44995000	      4498	00000000	00000013	addi	x0,x0,0	  x0:0x00000000
       45005000	      4499	80002d74	00000013	addi	x0,x0,0	  x0:0x00000000
       45015000	      4500	80002d78	91cfcf13	xori	x30,x31,-1764	 x31:0x0009f390 x30=0xfff60a8c
       45025000	      4501	80002d7c	402d0533	sub	x10,x26,x2	 x26:0x80009fc4  x2:0x00000000 x10=0x80009fc4
       45035000	      4502	80002d80	01792e33	slt	x28,x18,x23	 x18:0x80002c08 x23:0x85d6a000 x28=0x00000001
       45045000	      4503	80002d84	40c7d0b3	sra	x1,x15,x12	 x15:0x00001fff x12:0x79ff8d28  x1=0x0000001f
       45055000	      4504	80002d88	03926e63	bltu	x4,x25,80002dc4	  x4:0x80002800 x25:0x00000000
       45065000	      4505	80002d8c	00ce77b3	and	x15,x28,x12	 x28:0x00000001 x12:0x79ff8d28 x15=0x00000000
       45075000	      4506	80002d90	00ce17b3	sll	x15,x28,x12	 x28:0x00000001 x12:0x79ff8d28 x15=0x00000100
       45085000	      4507	80002d94	ea5b4993	xori	x19,x22,-347	 x22:0xfff80002 x19=0x0007fea7
       45095000	      4508	80002d98	016c5813	srli	x16,x24,0x16	 x24:0x00000000 x16=0x00000000
       45105000	      4509	80002d9c	0134ff33	and	x30,x9,x19	  x9:0x0009f8a2 x19:0x0007fea7 x30=0x0001f8a2
       45115000	      4510	80002da0	0400e063	bltu	x1,x0,80002de0	  x1:0x0000001f  x0:0x00000000
       45125000	      4511	80002da4	02656463	bltu	x10,x6,80002dcc	 x10:0x80009fc4  x6:0x7fffd776
       45135000	      4512	80002da8	033a9a63	bne	x21,x19,80002ddc	 x21:0x4801cf36 x19:0x0007fea7
       45145000	      4513	00000000	00000013	addi	x0,x0,0	  x0:0x00000000
       45155000	      4514	80002dd8	00000013	addi	x0,x0,0	  x0:0x00000000
       45165000	      4515	80002ddc	95e34793	xori	x15,x6,-1698	  x6:0x7fffd776 x15=0x80002e28
       45175000	      4516	80002de0	5b8fa813	slti	x16,x31,1464	 x31:0x0009f390 x16=0x00000000
       45185000	      4517	80002de4	b42d4293	xori	x5,x26,-1214	 x26:0x80009fc4  x5=0x7fff6486
       45195000	      4518	80002de8	b2771a37	lui	x20,0xb2771	 x20=0xb2771000
       45205000	      4519	80002dec	009ee663	bltu	x29,x9,80002df8	 x29:0x000057f0  x9:0x0009f8a2
       45215000	      4520	00000000	00000013	addi	x0,x0,0	  x0:0x00000000
       45225000	      4521	80002df4	00000013	addi	x0,x0,0	  x0:0x00000000
       45235000	      4522	80002df8	1e365837	lui	x16,0x1e365	 x16=0x1e365000
       45245000	      4523	80002dfc	00334663	blt	x6,x3,80002e08	  x6:0x7fffd776  x3:0x0080002c
       45255000	      4524	80002e00	00000013	addi	x0,x0,0	  x0:0x00000000
       45265000	      4525	80002e04	6f02fc17	auipc	x24,0x6f02f	 x24=0xef031e00
       45275000	      4526	80002e08	41be84b3	sub	x9,x29,x27	 x29:0x000057f0 x27:0x80009f40  x9=0x7fffb8b0
       45285000	      4527	80002e0c	007b3b33	sltu	x22,x22,x7	 x22:0xfff80002  x7:0x80002f36 x22=0x00000000
       45295000	      4528	80002e10	00d4eb33	or	x22,x9,x13	  x9:0x7fffb8b0 x13:0x00000163 x22=0x7fffb9f3
       45305000	      4529	80002e14	01a2e233	or	x4,x5,x26	  x5:0x7fff6486 x26:0x80009fc4  x4=0xffffffc6
       45315000	      4530	80002e18	05acf463	bgeu	x25,x26,80002e60	 x25:0x00000000 x26:0x80009fc4
       45325000	      4531	80002e1c	042b0463	beq	x22,x2,80002e64	 x22:0x7fffb9f3  x2:0x00000000
       45335000	      4532	80002e20	016ba2b3	slt	x5,x23,x22	 x23:0x85d6a000 x22:0x7fffb9f3  x5=0x00000001
       45345000	      4533	80002e24	40e2d793	srai	x15,x5,0xe	  x5:0x00000001 x15=0x00000000
       45355000	      4534	80002e28	0173d633	srl	x12,x7,x23	  x7:0x80002f36 x23:0x85d6a000 x12=0x80002f36
       45365000	      4535	80002e2c	015923b3	slt	x7,x18,x21	 x18:0x80002c08 x21:0x4801cf36  x7=0x00000001
       45375000	      4536	80002e30	01039413	slli	x8,x7,0x10	  x7:0x00000001  x8=0x00010000
       45385000	      4537	80002e34	3ce03a93	sltiu	x21,x0,974	  x0:0x00000000 x21=0x00000001
       45395000	      4538	80002e38	01643033	sltu	x0,x8,x22	  x8:0x00010000 x22:0x7fffb9f3
       45405000	      4539	80002e3c	0911a593	slti	x11,x3,145	  x3:0x0080002c x11=0x00000000
       45415000	      4540	80002e40	017109b3	add	x19,x2,x23	  x2:0x00000000 x23:0x85d6a000 x19=0x85d6a000
       45425000	      4541	80002e44	01185b13	srli	x22,x16,0x11	 x16:0x1e365000 x22=0x00000f1b
       45435000	      4542	80002e48	0007aa33	slt	x20,x15,x0	 x15:0x00000000  x0:0x00000000 x20=0x00000000
       45445000	      4543	80002e4c	01edca63	blt	x27,x30,80002e60	 x27:0x80009f40 x30:0x0001f8a2
       45455000	      4544	00000000	00000013	addi	x0,x0,0	  x0:0x00000000
       45465000	      4545	80002e5c	00000013	addi	x0,x0,0	  x0:0x00000000
       45475000	      4546	80002e60	56cdc9b7	lui	x19,0x56cdc	 x19=0x56cdc000
       45485000	      4547	80002e64	218a4613	xori	x12,x20,536	 x20:0x00000000 x12=0x00000218
       45495000	      4548	80002e68	21564f93	xori	x31,x12,533	 x12:0x00000218 x31=0x0000000d
       45505000	      4549	80002e6c	ea97f613	andi	x12,x15,-343	 x15:0x00000000 x12=0x00000000
       45515000	      4550	80002e70	0124d663	bge	x9,x18,80002e7c	  x9:0x7fffb8b0 x18:0x80002c08
       45525000	      4551	00000000	00000013	addi	x0,x0,0	  x0:0x00000000
       45535000	      4552	80002e78	00000013	addi	x0,x0,0	  x0:0x00000000
       45545000	      4553	80002e7c	41c55333	sra	x6,x10,x28	 x10:0x80009fc4 x28:0x00000001  x6=0xc0004fe2
       45555000	      4554	80002e80	011f9e33	sll	x28,x31,x17	 x31:0x0000000d x17:0x00000000 x28=0x0000000d
       45565000	      4555	80002e84	00e6f663	bgeu	x13,x14,80002e90	 x13:0x00000163 x14:0x80002ba0
       45575000	      4556	80002e88	3131a513	slti	x10,x3,787	  x3:0x0080002c x10=0x00000000
       45585000	      4557	80002e8c	b8cfa613	slti	x12,x31,-1140	 x31:0x0000000d x12=0x00000000
       45595000	      4558	80002e90	00749733	sll	x14,x9,x7	  x9:0x7fffb8b0  x7:0x00000001 x14=0xffff7160
       45605000	      4559	80002e94	00000013	addi	x0,x0,0	  x0:0x00000000
       45615000	      4560	80002e98	17012437	lui	x8,0x17012	  x8=0x17012000
       45625000	      4561	80002e9c	7176af13	slti	x30,x13,1815	 x13:0x00000163 x30=0x00000001
       45635000	      4562	80002ea0	009a7863	bgeu	x20,x9,80002eb0	 x20:0x00000000  x9:0x7fffb8b0
       45645000	      4563	80002ea4	00940e63	beq	x8,x9,80002ec0	  x8:0x17012000  x9:0x7fffb8b0
       45655000	      4564	80002ea8	007b5c63	bge	x22,x7,80002ec0	 x22:0x00000f1b  x7:0x00000001
       45665000	      4565	00000000	00000013	addi	x0,x0,0	  x0:0x00000000
       45675000	      4566	80002ebc	00000013	addi	x0,x0,0	  x0:0x00000000
       45685000	      4567	80002ec0	0095b033	sltu	x0,x11,x9	 x11:0x00000000  x9:0x7fffb8b0
       45695000	      4568	80002ec4	004da303	lw	x6,4(x27)	 x27:0x80009f40  x6=0x80002f6c PA:0x80009f44
       45705000	      4569	80002ec8	018f6833	or	x16,x30,x24	 x30:0x00000001 x24:0xef031e00 x16=0xef031e01
       45715000	      4570	80002ecc	8f90e813	ori	x16,x1,-1799	  x1:0x0000001f x16=0xfffff8ff
       45725000	      4571	80002ed0	9825c993	xori	x19,x11,-1662	 x11:0x00000000 x19=0xfffff982
       45735000	      4572	80002ed4	015aa6b3	slt	x13,x21,x21	 x21:0x00000001 x21:0x00000001 x13=0x00000000
       45745000	      4573	80002ed8	024d8d93	addi	x27,x27,36	 x27:0x80009f40 x27=0x80009f64
       45755000	      4574	80002edc	80b0cc93	xori	x25,x1,-2037	  x1:0x0000001f x25=0xfffff814
       45765000	      4575	80002ee0	00030293	addi	x5,x6,0	  x6:0x80002f6c  x5=0x80002f6c
       45775000	      4576	80002ee4	000282e7	jalr	x5,x5,0	  x5:0x80002f6c  x5=0x80002ee4
       45785000	      4577	00000000	00000013	addi	x0,x0,0	  x0:0x00000000
       45795000	      4578	80002f6c	00000013	addi	x0,x0,0	  x0:0x00000000
       45805000	      4579	80002f70	00b20433	add	x8,x4,x11	  x4:0xffffffc6 x11:0x00000000  x8=0xffffffc6
       45815000	      4580	80002f74	00000f97	auipc	x31,0x0	 x31=0x80002f70
       45825000	      4581	80002f78	b44f8f93	addi	x31,x31,-1212	 x31:0x80002f70 x31=0x80002ab4
       45835000	      4582	80002f7c	00b87933	and	x18,x16,x11	 x16:0xfffff8ff x11:0x00000000 x18=0x00000000
       45845000	      4583	80002f80	00214e33	xor	x28,x2,x2	  x2:0x00000000  x2:0x00000000 x28=0x00000000
       45855000	      4584	80002f84	00000013	addi	x0,x0,0	  x0:0x00000000
       45865000	      4585	80002f88	00f1d7b3	srl	x15,x3,x15	  x3:0x0080002c x15:0x00000000 x15=0x0080002c
       45875000	      4586	80002f8c	01031693	slli	x13,x6,0x10	  x6:0x80002f6c x13=0x2f6c0000
       45885000	      4587	80002f90	004715b3	sll	x11,x14,x4	 x14:0xffff7160  x4:0xffffffc6 x11=0xffdc5800
       45895000	      4588	80002f94	0032a633	slt	x12,x5,x3	  x5:0x80002ee4  x3:0x0080002c x12=0x00000001
       45905000	      4589	80002f98	acb9f913	andi	x18,x19,-1333	 x19:0xfffff982 x18=0xfffff882
       45915000	      4590	80002f9c	1d2f8f93	addi	x31,x31,466	 x31:0x80002ab4 x31=0x80002c86
       45925000	      4591	80002fa0	01f4b233	sltu	x4,x9,x31	  x9:0x7fffb8b0 x31:0x80002c86  x4=0x00000001
       45935000	      4592	80002fa4	e2ef8367	jalr	x6,x31,-466	 x31:0x80002c86  x6=0x80002fa4
       45945000	      4593	00000000	00000013	addi	x0,x0,0	  x0:0x00000000
       45955000	      4594	80002ab4	00000013	addi	x0,x0,0	  x0:0x00000000
       45965000	      4595	80002ab8	f4250f93	addi	x31,x10,-190	 x10:0x00000000 x31=0xffffff42
       45975000	      4596	80002abc	010a55b3	srl	x11,x20,x16	 x20:0x00000000 x16:0xfffff8ff x11=0x00000000
       45985000	      4597	80002ac0	fdcd8d93	addi	x27,x27,-36	 x27:0x80009f64 x27=0x80009f40
       45995000	      4598	80002ac4	00949eb3	sll	x29,x9,x9	  x9:0x7fffb8b0  x9:0x7fffb8b0 x29=0xb8b00000
       46005000	      4599	80002ac8	8be8de17	auipc	x28,0x8be8d	 x28=0x0be8fac4
       46015000	      4600	80002acc	007f19b3	sll	x19,x30,x7	 x30:0x00000001  x7:0x00000001 x19=0x00000002
       46025000	      4601	80002ad0	01c914b3	sll	x9,x18,x28	 x18:0xfffff882 x28:0x0be8fac4  x9=0xffff8820
       46035000	      4602	80002ad4	00000013	addi	x0,x0,0	  x0:0x00000000
       46045000	      4603	80002ad8	4108d693	srai	x13,x17,0x10	 x17:0x00000000 x13=0x00000000
       46055000	      4604	80002adc	006da223	sw	x6,4(x27)	 x27:0x80009f40  x6:0x80002fa4 PA:0x80009f44
       46065000	      4605	80002ae0	6775ae93	slti	x29,x11,1655	 x11:0x00000000 x29=0x00000001
       46075000	      4606	80002ae4	40fabb93	sltiu	x23,x21,1039	 x21:0x00000001 x23=0x00000001
       46085000	      4607	80002ae8	0380036f	jal	x6,80002ae8	  x6=0x80002ae8
       46095000	      4608	00000000	00000013	addi	x0,x0,0	  x0:0x00000000
       46105000	      4609	80002b1c	00000013	addi	x0,x0,0	  x0:0x00000000
       46115000	      4610	80002b20	ff1ff1ef	jal	x3,80002b20	  x3=0x80002b20
       46125000	      4611	00000000	00000013	addi	x0,x0,0	  x0:0x00000000
       46135000	      4612	80002b0c	00000013	addi	x0,x0,0	  x0:0x00000000
       46145000	      4613	80002b10	ffdff0ef	jal	x1,80002b10	  x1=0x80002b10
       46155000	      4614	00000000	00000013	addi	x0,x0,0	  x0:0x00000000
       46165000	      4615	80002b08	00000013	addi	x0,x0,0	  x0:0x00000000
       46175000	      4616	80002b0c	0200036f	jal	x6,80002b0c	  x6=0x80002b0c
       46185000	      4617	00000000	00000013	addi	x0,x0,0	  x0:0x00000000
       46195000	      4618	80002b28	00000013	addi	x0,x0,0	  x0:0x00000000
       46205000	      4619	80002b2c	fc1ff0ef	jal	x1,80002b2c	  x1=0x80002b2c
       46215000	      4620	00000000	00000013	addi	x0,x0,0	  x0:0x00000000
       46225000	      4621	80002ae8	00000013	addi	x0,x0,0	  x0:0x00000000
       46235000	      4622	80002aec	00c0036f	jal	x6,80002aec	  x6=0x80002aec
       46245000	      4623	00000000	00000013	addi	x0,x0,0	  x0:0x00000000
       46255000	      4624	80002af4	00000013	addi	x0,x0,0	  x0:0x00000000
       46265000	      4625	80002af8	01c0036f	jal	x6,80002af8	  x6=0x80002af8
       46275000	      4626	00000000	00000013	addi	x0,x0,0	  x0:0x00000000
       46285000	      4627	80002b10	00000013	addi	x0,x0,0	  x0:0x00000000
       46295000	      4628	80002b14	fe9ff0ef	jal	x1,80002b14	  x1=0x80002b14
       46305000	      4629	00000000	00000013	addi	x0,x0,0	  x0:0x00000000
       46315000	      4630	80002af8	00000013	addi	x0,x0,0	  x0:0x00000000
       46325000	      4631	80002afc	004000ef	jal	x1,80002afc	  x1=0x80002afc
       46335000	      4632	00000000	00000013	addi	x0,x0,0	  x0:0x00000000
       46345000	      4633	80002afc	00000013	addi	x0,x0,0	  x0:0x00000000
       46355000	      4634	80002b00	01c005ef	jal	x11,80002b00	 x11=0x80002b00
       46365000	      4635	00000000	00000013	addi	x0,x0,0	  x0:0x00000000
       46375000	      4636	80002b18	00000013	addi	x0,x0,0	  x0:0x00000000
       46385000	      4637	80002b1c	024000ef	jal	x1,80002b1c	  x1=0x80002b1c
       46395000	      4638	00000000	00000013	addi	x0,x0,0	  x0:0x00000000
       46405000	      4639	80002b3c	00000013	addi	x0,x0,0	  x0:0x00000000
       46415000	      4640	80002b40	fb1ff0ef	jal	x1,80002b40	  x1=0x80002b40
       46425000	      4641	00000000	00000013	addi	x0,x0,0	  x0:0x00000000
       46435000	      4642	80002aec	00000013	addi	x0,x0,0	  x0:0x00000000
       46445000	      4643	80002af0	03800f6f	jal	x30,80002af0	 x30=0x80002af0
       46455000	      4644	00000000	00000013	addi	x0,x0,0	  x0:0x00000000
       46465000	      4645	80002b24	00000013	addi	x0,x0,0	  x0:0x00000000
       46475000	      4646	80002b28	ff1ff0ef	jal	x1,80002b28	  x1=0x80002b28
       46485000	      4647	00000000	00000013	addi	x0,x0,0	  x0:0x00000000
       46495000	      4648	80002b14	00000013	addi	x0,x0,0	  x0:0x00000000
       46505000	      4649	80002b18	02000bef	jal	x23,80002b18	 x23=0x80002b18
       46515000	      4650	00000000	00000013	addi	x0,x0,0	  x0:0x00000000
       46525000	      4651	80002b34	00000013	addi	x0,x0,0	  x0:0x00000000
       46535000	      4652	80002b38	004000ef	jal	x1,80002b38	  x1=0x80002b38
       46545000	      4653	00000000	00000013	addi	x0,x0,0	  x0:0x00000000
       46555000	      4654	80002b38	00000013	addi	x0,x0,0	  x0:0x00000000
       46565000	      4655	80002b3c	014000ef	jal	x1,80002b3c	  x1=0x80002b3c
       46575000	      4656	00000000	00000013	addi	x0,x0,0	  x0:0x00000000
       46585000	      4657	80002b4c	00000013	addi	x0,x0,0	  x0:0x00000000
       46595000	      4658	80002b50	ff5ff26f	jal	x4,80002b50	  x4=0x80002b50
       46605000	      4659	00000000	00000013	addi	x0,x0,0	  x0:0x00000000
       46615000	      4660	80002b40	00000013	addi	x0,x0,0	  x0:0x00000000
       46625000	      4661	80002b44	fb1ff2ef	jal	x5,80002b44	  x5=0x80002b44
       46635000	      4662	00000000	00000013	addi	x0,x0,0	  x0:0x00000000
       46645000	      4663	80002af0	00000013	addi	x0,x0,0	  x0:0x00000000
       46655000	      4664	80002af4	030000ef	jal	x1,80002af4	  x1=0x80002af4
       46665000	      4665	00000000	00000013	addi	x0,x0,0	  x0:0x00000000
       46675000	      4666	80002b20	00000013	addi	x0,x0,0	  x0:0x00000000
       46685000	      4667	80002b24	0280026f	jal	x4,80002b24	  x4=0x80002b24
       46695000	      4668	00000000	00000013	addi	x0,x0,0	  x0:0x00000000
       46705000	      4669	80002b48	00000013	addi	x0,x0,0	  x0:0x00000000
       46715000	      4670	80002b4c	fe5ff0ef	jal	x1,80002b4c	  x1=0x80002b4c
       46725000	      4671	00000000	00000013	addi	x0,x0,0	  x0:0x00000000
       46735000	      4672	80002b2c	00000013	addi	x0,x0,0	  x0:0x00000000
       46745000	      4673	80002b30	004001ef	jal	x3,80002b30	  x3=0x80002b30
       46755000	      4674	00000000	00000013	addi	x0,x0,0	  x0:0x00000000
       46765000	      4675	80002b30	00000013	addi	x0,x0,0	  x0:0x00000000
       46775000	      4676	80002b34	fd5ff26f	jal	x4,80002b34	  x4=0x80002b34
       46785000	      4677	00000000	00000013	addi	x0,x0,0	  x0:0x00000000
       46795000	      4678	80002b04	00000013	addi	x0,x0,0	  x0:0x00000000
       46805000	      4679	80002b08	040000ef	jal	x1,80002b08	  x1=0x80002b08
       46815000	      4680	00000000	00000013	addi	x0,x0,0	  x0:0x00000000
       46825000	      4681	80002b44	00000013	addi	x0,x0,0	  x0:0x00000000
       46835000	      4682	80002b48	fbdff0ef	jal	x1,80002b48	  x1=0x80002b48
       46845000	      4683	00000000	00000013	addi	x0,x0,0	  x0:0x00000000
       46855000	      4684	80002b00	00000013	addi	x0,x0,0	  x0:0x00000000
       46865000	      4685	80002b04	0500056f	jal	x10,80002b04	 x10=0x80002b04
       46875000	      4686	00000000	00000013	addi	x0,x0,0	  x0:0x00000000
       46885000	      4687	80002b50	00000013	addi	x0,x0,0	  x0:0x00000000
       46895000	      4688	80002b54	35c25397	auipc	x7,0x35c25	  x7=0xb5c27b50
       46905000	      4689	80002b58	0400036f	jal	x6,80002b58	  x6=0x80002b58
       46915000	      4690	00000000	00000013	addi	x0,x0,0	  x0:0x00000000
       46925000	      4691	80002b94	00000013	addi	x0,x0,0	  x0:0x00000000
       46935000	      4692	80002b98	ff5ff0ef	jal	x1,80002b98	  x1=0x80002b98
       46945000	      4693	00000000	00000013	addi	x0,x0,0	  x0:0x00000000
       46955000	      4694	80002b88	00000013	addi	x0,x0,0	  x0:0x00000000
       46965000	      4695	80002b8c	0340036f	jal	x6,80002b8c	  x6=0x80002b8c
       46975000	      4696	00000000	00000013	addi	x0,x0,0	  x0:0x00000000
       46985000	      4697	80002bbc	00000013	addi	x0,x0,0	  x0:0x00000000
       46995000	      4698	80002bc0	00c008ef	jal	x17,80002bc0	 x17=0x80002bc0
       47005000	      4699	00000000	00000013	addi	x0,x0,0	  x0:0x00000000
       47015000	      4700	80002bc8	00000013	addi	x0,x0,0	  x0:0x00000000
       47025000	      4701	80002bcc	0040036f	jal	x6,80002bcc	  x6=0x80002bcc
       47035000	      4702	00000000	00000013	addi	x0,x0,0	  x0:0x00000000
       47045000	      4703	80002bcc	00000013	addi	x0,x0,0	  x0:0x00000000
       47055000	      4704	80002bd0	fe9ff0ef	jal	x1,80002bd0	  x1=0x80002bd0
       47065000	      4705	00000000	00000013	addi	x0,x0,0	  x0:0x00000000
       47075000	      4706	80002bb4	00000013	addi	x0,x0,0	  x0:0x00000000
       47085000	      4707	80002bb8	fa9ff6ef	jal	x13,80002bb8	 x13=0x80002bb8
       47095000	      4708	00000000	00000013	addi	x0,x0,0	  x0:0x00000000
       47105000	      4709	80002b5c	00000013	addi	x0,x0,0	  x0:0x00000000
       47115000	      4710	80002b60	02000a6f	jal	x20,80002b60	 x20=0x80002b60
       47125000	      4711	00000000	00000013	addi	x0,x0,0	  x0:0x00000000
       47135000	      4712	80002b7c	00000013	addi	x0,x0,0	  x0:0x00000000
       47145000	      4713	80002b80	028000ef	jal	x1,80002b80	  x1=0x80002b80
       47155000	      4714	00000000	00000013	addi	x0,x0,0	  x0:0x00000000
       47165000	      4715	80002ba4	00000013	addi	x0,x0,0	  x0:0x00000000
       47175000	      4716	80002ba8	004000ef	jal	x1,80002ba8	  x1=0x80002ba8
       47185000	      4717	00000000	00000013	addi	x0,x0,0	  x0:0x00000000
       47195000	      4718	80002ba8	00000013	addi	x0,x0,0	  x0:0x00000000
       47205000	      4719	80002bac	ff9ff26f	jal	x4,80002bac	  x4=0x80002bac
       47215000	      4720	00000000	00000013	addi	x0,x0,0	  x0:0x00000000
       47225000	      4721	80002ba0	00000013	addi	x0,x0,0	  x0:0x00000000
       47235000	      4722	80002ba4	fe5ff0ef	jal	x1,80002ba4	  x1=0x80002ba4
       47245000	      4723	00000000	00000013	addi	x0,x0,0	  x0:0x00000000
       47255000	      4724	80002b84	00000013	addi	x0,x0,0	  x0:0x00000000
       47265000	      4725	80002b88	018006ef	jal	x13,80002b88	 x13=0x80002b88
       47275000	      4726	00000000	00000013	addi	x0,x0,0	  x0:0x00000000
       47285000	      4727	80002b9c	00000013	addi	x0,x0,0	  x0:0x00000000
       47295000	      4728	80002ba0	fbdff76f	jal	x14,80002ba0	 x14=0x80002ba0
       47305000	      4729	00000000	00000013	addi	x0,x0,0	  x0:0x00000000
       47315000	      4730	80002b58	00000013	addi	x0,x0,0	  x0:0x00000000
       47325000	      4731	80002b5c	034000ef	jal	x1,80002b5c	  x1=0x80002b5c
       47335000	      4732	00000000	00000013	addi	x0,x0,0	  x0:0x00000000
       47345000	      4733	80002b8c	00000013	addi	x0,x0,0	  x0:0x00000000
       47355000	      4734	80002b90	fddff86f	jal	x16,80002b90	 x16=0x80002b90
       47365000	      4735	00000000	00000013	addi	x0,x0,0	  x0:0x00000000
       47375000	      4736	80002b68	00000013	addi	x0,x0,0	  x0:0x00000000
       47385000	      4737	80002b6c	030000ef	jal	x1,80002b6c	  x1=0x80002b6c
       47395000	      4738	00000000	00000013	addi	x0,x0,0	  x0:0x00000000
       47405000	      4739	80002b98	00000013	addi	x0,x0,0	  x0:0x00000000
       47415000	      4740	80002b9c	02c002ef	jal	x5,80002b9c	  x5=0x80002b9c
       47425000	      4741	00000000	00000013	addi	x0,x0,0	  x0:0x00000000
       47435000	      4742	80002bc4	00000013	addi	x0,x0,0	  x0:0x00000000
       47445000	      4743	80002bc8	fb5ff36f	jal	x6,80002bc8	  x6=0x80002bc8
       47455000	      4744	00000000	00000013	addi	x0,x0,0	  x0:0x00000000
       47465000	      4745	80002b78	00000013	addi	x0,x0,0	  x0:0x00000000
       47475000	      4746	80002b7c	fe9ff0ef	jal	x1,80002b7c	  x1=0x80002b7c
       47485000	      4747	00000000	00000013	addi	x0,x0,0	  x0:0x00000000
       47495000	      4748	80002b60	00000013	addi	x0,x0,0	  x0:0x00000000
       47505000	      4749	80002b64	050004ef	jal	x9,80002b64	  x9=0x80002b64
       47515000	      4750	00000000	00000013	addi	x0,x0,0	  x0:0x00000000
       47525000	      4751	80002bb0	00000013	addi	x0,x0,0	  x0:0x00000000
       47535000	      4752	80002bb4	fbdffe6f	jal	x28,80002bb4	 x28=0x80002bb4
       47545000	      4753	00000000	00000013	addi	x0,x0,0	  x0:0x00000000
       47555000	      4754	80002b6c	00000013	addi	x0,x0,0	  x0:0x00000000
       47565000	      4755	80002b70	04c000ef	jal	x1,80002b70	  x1=0x80002b70
       47575000	      4756	00000000	00000013	addi	x0,x0,0	  x0:0x00000000
       47585000	      4757	80002bb8	00000013	addi	x0,x0,0	  x0:0x00000000
       47595000	      4758	80002bbc	fb9ff0ef	jal	x1,80002bbc	  x1=0x80002bbc
       47605000	      4759	00000000	00000013	addi	x0,x0,0	  x0:0x00000000
       47615000	      4760	80002b70	00000013	addi	x0,x0,0	  x0:0x00000000
       47625000	      4761	80002b74	0100026f	jal	x4,80002b74	  x4=0x80002b74
       47635000	      4762	00000000	00000013	addi	x0,x0,0	  x0:0x00000000
       47645000	      4763	80002b80	00000013	addi	x0,x0,0	  x0:0x00000000
       47655000	      4764	80002b84	0400036f	jal	x6,80002b84	  x6=0x80002b84
       47665000	      4765	00000000	00000013	addi	x0,x0,0	  x0:0x00000000
       47675000	      4766	80002bc0	00000013	addi	x0,x0,0	  x0:0x00000000
       47685000	      4767	80002bc4	fedff2ef	jal	x5,80002bc4	  x5=0x80002bc4
       47695000	      4768	00000000	00000013	addi	x0,x0,0	  x0:0x00000000
       47705000	      4769	80002bac	00000013	addi	x0,x0,0	  x0:0x00000000
       47715000	      4770	80002bb0	fe5ff36f	jal	x6,80002bb0	  x6=0x80002bb0
       47725000	      4771	00000000	00000013	addi	x0,x0,0	  x0:0x00000000
       47735000	      4772	80002b90	00000013	addi	x0,x0,0	  x0:0x00000000
       47745000	      4773	80002b94	fd5ff36f	jal	x6,80002b94	  x6=0x80002b94
       47755000	      4774	00000000	00000013	addi	x0,x0,0	  x0:0x00000000
       47765000	      4775	80002b64	00000013	addi	x0,x0,0	  x0:0x00000000
       47775000	      4776	80002b68	010000ef	jal	x1,80002b68	  x1=0x80002b68
       47785000	      4777	00000000	00000013	addi	x0,x0,0	  x0:0x00000000
       47795000	      4778	80002b74	00000013	addi	x0,x0,0	  x0:0x00000000
       47805000	      4779	80002b78	05c0036f	jal	x6,80002b78	  x6=0x80002b78
       47815000	      4780	00000000	00000013	addi	x0,x0,0	  x0:0x00000000
       47825000	      4781	80002bd0	00000013	addi	x0,x0,0	  x0:0x00000000
       47835000	      4782	80002bd4	fa5dab93	slti	x23,x27,-91	 x27:0x80009f40 x23=0x00000001
       47845000	      4783	80002bd8	01c0036f	jal	x6,80002bd8	  x6=0x80002bd8
       47855000	      4784	00000000	00000013	addi	x0,x0,0	  x0:0x00000000
       47865000	      4785	80002bf0	00000013	addi	x0,x0,0	  x0:0x00000000
       47875000	      4786	80002bf4	028000ef	jal	x1,80002bf4	  x1=0x80002bf4
       47885000	      4787	00000000	00000013	addi	x0,x0,0	  x0:0x00000000
       47895000	      4788	80002c18	00000013	addi	x0,x0,0	  x0:0x00000000
       47905000	      4789	80002c1c	fddfff6f	jal	x30,80002c1c	 x30=0x80002c1c
       47915000	      4790	00000000	00000013	addi	x0,x0,0	  x0:0x00000000
       47925000	      4791	80002bf4	00000013	addi	x0,x0,0	  x0:0x00000000
       47935000	      4792	80002bf8	fe5ff0ef	jal	x1,80002bf8	  x1=0x80002bf8
       47945000	      4793	00000000	00000013	addi	x0,x0,0	  x0:0x00000000
       47955000	      4794	80002bd8	00000013	addi	x0,x0,0	  x0:0x00000000
       47965000	      4795	80002bdc	014000ef	jal	x1,80002bdc	  x1=0x80002bdc
       47975000	      4796	00000000	00000013	addi	x0,x0,0	  x0:0x00000000
       47985000	      4797	80002bec	00000013	addi	x0,x0,0	  x0:0x00000000
       47995000	      4798	80002bf0	050001ef	jal	x3,80002bf0	  x3=0x80002bf0
       48005000	      4799	00000000	00000013	addi	x0,x0,0	  x0:0x00000000
       48015000	      4800	80002c3c	00000013	addi	x0,x0,0	  x0:0x00000000
       48025000	      4801	80002c40	ff9ff0ef	jal	x1,80002c40	  x1=0x80002c40
       48035000	      4802	00000000	00000013	addi	x0,x0,0	  x0:0x00000000
       48045000	      4803	80002c34	00000013	addi	x0,x0,0	  x0:0x00000000
       48055000	      4804	80002c38	fd1ff86f	jal	x16,80002c38	 x16=0x80002c38
       48065000	      4805	00000000	00000013	addi	x0,x0,0	  x0:0x00000000
       48075000	      4806	80002c04	00000013	addi	x0,x0,0	  x0:0x00000000
       48085000	      4807	80002c08	0040096f	jal	x18,80002c08	 x18=0x80002c08
       48095000	      4808	00000000	00000013	addi	x0,x0,0	  x0:0x00000000
       48105000	      4809	80002c08	00000013	addi	x0,x0,0	  x0:0x00000000
       48115000	      4810	80002c0c	00c000ef	jal	x1,80002c0c	  x1=0x80002c0c
       48125000	      4811	00000000	00000013	addi	x0,x0,0	  x0:0x00000000
       48135000	      4812	80002c14	00000013	addi	x0,x0,0	  x0:0x00000000
       48145000	      4813	80002c18	010000ef	jal	x1,80002c18	  x1=0x80002c18
       48155000	      4814	00000000	00000013	addi	x0,x0,0	  x0:0x00000000
       48165000	      4815	80002c24	00000013	addi	x0,x0,0	  x0:0x00000000
       48175000	      4816	80002c28	fbdff36f	jal	x6,80002c28	  x6=0x80002c28
       48185000	      4817	00000000	00000013	addi	x0,x0,0	  x0:0x00000000
       48195000	      4818	80002be0	00000013	addi	x0,x0,0	  x0:0x00000000
       48205000	      4819	80002be4	058002ef	jal	x5,80002be4	  x5=0x80002be4
       48215000	      4820	00000000	00000013	addi	x0,x0,0	  x0:0x00000000
       48225000	      4821	80002c38	00000013	addi	x0,x0,0	  x0:0x00000000
       48235000	      4822	80002c3c	fc5ff36f	jal	x6,80002c3c	  x6=0x80002c3c
       48245000	      4823	00000000	00000013	addi	x0,x0,0	  x0:0x00000000
       48255000	      4824	80002bfc	00000013	addi	x0,x0,0	  x0:0x00000000
       48265000	      4825	80002c00	fedff0ef	jal	x1,80002c00	  x1=0x80002c00
       48275000	      4826	00000000	00000013	addi	x0,x0,0	  x0:0x00000000
       48285000	      4827	80002be8	00000013	addi	x0,x0,0	  x0:0x00000000
       48295000	      4828	80002bec	0480026f	jal	x4,80002bec	  x4=0x80002bec
       48305000	      4829	00000000	00000013	addi	x0,x0,0	  x0:0x00000000
       48315000	      4830	80002c30	00000013	addi	x0,x0,0	  x0:0x00000000
       48325000	      4831	80002c34	fd1ff36f	jal	x6,80002c34	  x6=0x80002c34
       48335000	      4832	00000000	00000013	addi	x0,x0,0	  x0:0x00000000
       48345000	      4833	80002c00	00000013	addi	x0,x0,0	  x0:0x00000000
       48355000	      4834	80002c04	01c0036f	jal	x6,80002c04	  x6=0x80002c04
       48365000	      4835	00000000	00000013	addi	x0,x0,0	  x0:0x00000000
       48375000	      4836	80002c1c	00000013	addi	x0,x0,0	  x0:0x00000000
       48385000	      4837	80002c20	ff5ff86f	jal	x16,80002c20	 x16=0x80002c20
       48395000	      4838	00000000	00000013	addi	x0,x0,0	  x0:0x00000000
       48405000	      4839	80002c10	00000013	addi	x0,x0,0	  x0:0x00000000
       48415000	      4840	80002c14	0180036f	jal	x6,80002c14	  x6=0x80002c14
       48425000	      4841	00000000	00000013	addi	x0,x0,0	  x0:0x00000000
       48435000	      4842	80002c28	00000013	addi	x0,x0,0	  x0:0x00000000
       48445000	      4843	80002c2c	ff9ff1ef	jal	x3,80002c2c	  x3=0x80002c2c
       48455000	      4844	00000000	00000013	addi	x0,x0,0	  x0:0x00000000
       48465000	      4845	80002c20	00000013	addi	x0,x0,0	  x0:0x00000000
       48475000	      4846	80002c24	fd9ff0ef	jal	x1,80002c24	  x1=0x80002c24
       48485000	      4847	00000000	00000013	addi	x0,x0,0	  x0:0x00000000
       48495000	      4848	80002bf8	00000013	addi	x0,x0,0	  x0:0x00000000
       48505000	      4849	80002bfc	014001ef	jal	x3,80002bfc	  x3=0x80002bfc
       48515000	      4850	00000000	00000013	addi	x0,x0,0	  x0:0x00000000
       48525000	      4851	80002c0c	00000013	addi	x0,x0,0	  x0:0x00000000
       48535000	      4852	80002c10	0200036f	jal	x6,80002c10	  x6=0x80002c10
       48545000	      4853	00000000	00000013	addi	x0,x0,0	  x0:0x00000000
       48555000	      4854	80002c2c	00000013	addi	x0,x0,0	  x0:0x00000000
       48565000	      4855	80002c30	fb9ff6ef	jal	x13,80002c30	 x13=0x80002c30
       48575000	      4856	00000000	00000013	addi	x0,x0,0	  x0:0x00000000
       48585000	      4857	80002be4	00000013	addi	x0,x0,0	  x0:0x00000000
       48595000	      4858	80002be8	ff9ffb6f	jal	x22,80002be8	 x22=0x80002be8
       48605000	      4859	00000000	00000013	addi	x0,x0,0	  x0:0x00000000
       48615000	      4860	80002bdc	00000013	addi	x0,x0,0	  x0:0x00000000
       48625000	      4861	80002be0	064004ef	jal	x9,80002be0	  x9=0x80002be0
       48635000	      4862	00000000	00000013	addi	x0,x0,0	  x0:0x00000000
       48645000	      4863	80002c40	00000013	addi	x0,x0,0	  x0:0x00000000
       48655000	      4864	80002c44	e47c2c93	slti	x25,x24,-441	 x24:0xef031e00 x25=0x00000001
       48665000	      4865	80002c48	01c4e2b3	or	x5,x9,x28	  x9:0x80002be0 x28:0x80002bb4  x5=0x80002bf4
       48675000	      4866	80002c4c	01c25263	bge	x4,x28,80002c50	  x4:0x80002bec x28:0x80002bb4
       48685000	      4867	00000000	00000013	addi	x0,x0,0	  x0:0x00000000
       48695000	      4868	80002c4c	00000013	addi	x0,x0,0	  x0:0x00000000
       48705000	      4869	80002c50	40455ab3	sra	x21,x10,x4	 x10:0x80002b04  x4:0x80002bec x21=0xfff80002
       48715000	      4870	80002c54	00000013	addi	x0,x0,0	  x0:0x00000000
       48725000	      4871	80002c58	0089dfb3	srl	x31,x19,x8	 x19:0x00000002  x8:0xffffffc6 x31=0x00000000
       48735000	      4872	80002c5c	0100b7b3	sltu	x15,x1,x16	  x1:0x80002c24 x16:0x80002c20 x15=0x00000000
       48745000	      4873	80002c60	01cce263	bltu	x25,x28,80002c64	 x25:0x00000001 x28:0x80002bb4
       48755000	      4874	00000000	00000013	addi	x0,x0,0	  x0:0x00000000
       48765000	      4875	80002c60	00000013	addi	x0,x0,0	  x0:0x00000000
       48775000	      4876	80002c64	1f6ca813	slti	x16,x25,502	 x25:0x00000001 x16=0x00000001
       48785000	      4877	80002c68	40c1db13	srai	x22,x3,0xc	  x3:0x80002bfc x22=0xfff80002
       48795000	      4878	80002c6c	01d11233	sll	x4,x2,x29	  x2:0x00000000 x29:0x00000001  x4=0x00000000
       48805000	      4879	80002c70	011c7263	bgeu	x24,x17,80002c74	 x24:0xef031e00 x17:0x80002bc0
       48815000	      4880	00000000	00000013	addi	x0,x0,0	  x0:0x00000000
       48825000	      4881	80002c70	00000013	addi	x0,x0,0	  x0:0x00000000
       48835000	      4882	80002c74	41d5d793	srai	x15,x11,0x1d	 x11:0x80002b00 x15=0xfffffffc
       48845000	      4883	80002c78	00518eb3	add	x29,x3,x5	  x3:0x80002bfc  x5:0x80002bf4 x29=0x000057f0
       48855000	      4884	80002c7c	028fc863	blt	x31,x8,80002cac	 x31:0x00000000  x8:0xffffffc6
       48865000	      4885	80002c80	41925533	sra	x10,x4,x25	  x4:0x00000000 x25:0x00000001 x10=0x00000000
       48875000	      4886	80002c84	1e72c013	xori	x0,x5,487	  x5:0x80002bf4
       48885000	      4887	80002c88	03f4f863	bgeu	x9,x31,80002cb8	  x9:0x80002be0 x31:0x00000000
       48895000	      4888	00000000	00000013	addi	x0,x0,0	  x0:0x00000000
       48905000	      4889	80002cb4	00000013	addi	x0,x0,0	  x0:0x00000000
       48915000	      4890	80002cb8	7066e393	ori	x7,x13,1798	 x13:0x80002c30  x7=0x80002f36
       48925000	      4891	80002cbc	01c912b3	sll	x5,x18,x28	 x18:0x80002c08 x28:0x80002bb4  x5=0xc0800000
       48935000	      4892	80002cc0	ae460693	addi	x13,x12,-1308	 x12:0x00000001 x13=0xfffffae5
       48945000	      4893	80002cc4	28038513	addi	x10,x7,640	  x7:0x80002f36 x10=0x800031b6
       48955000	      4894	80002cc8	0080d193	srli	x3,x1,0x8	  x1:0x80002c24  x3=0x0080002c
       48965000	      4895	80002ccc	f092b213	sltiu	x4,x5,-247	  x5:0xc0800000  x4=0x00000001
       48975000	      4896	80002cd0	418fda33	sra	x20,x31,x24	 x31:0x00000000 x24:0xef031e00 x20=0x00000000
       48985000	      4897	80002cd4	7e5a6837	lui	x16,0x7e5a6	 x16=0x7e5a6000
       48995000	      4898	80002cd8	6481e293	ori	x5,x3,1608	  x3:0x0080002c  x5=0x0080066c
       49005000	      4899	80002cdc	b6af4313	xori	x6,x30,-1174	 x30:0x80002c1c  x6=0x7fffd776
       49015000	      4900	80002ce0	013ad793	srli	x15,x21,0x13	 x21:0xfff80002 x15=0x00001fff
       49025000	      4901	80002ce4	c801a6b7	lui	x13,0xc801a	 x13=0xc801a000
       49035000	      4902	80002ce8	00ed1893	slli	x17,x26,0xe	 x26:0x80009fc4 x17=0x27f10000
       49045000	      4903	80002cec	004bcf33	xor	x30,x23,x4	 x23:0x00000001  x4:0x00000001 x30=0x00000000
       49055000	      4904	80002cf0	017d88b3	add	x17,x27,x23	 x27:0x80009f40 x23:0x00000001 x17=0x80009f41
       49065000	      4905	80002cf4	00d38ab3	add	x21,x7,x13	  x7:0x80002f36 x13:0xc801a000 x21=0x4801cf36
       49075000	      4906	80002cf8	7adc4293	xori	x5,x24,1965	 x24:0xef031e00  x5=0xef0319ad
       49085000	      4907	80002cfc	03ca5063	bge	x20,x28,80002d1c	 x20:0x00000000 x28:0x80002bb4
       49095000	      4908	00000000	00000013	addi	x0,x0,0	  x0:0x00000000
       49105000	      4909	80002d18	00000013	addi	x0,x0,0	  x0:0x00000000
       49115000	      4910	80002d1c	85d6abb7	lui	x23,0x85d6a	 x23=0x85d6a000
       49125000	      4911	80002d20	41ca58b3	sra	x17,x20,x28	 x20:0x00000000 x28:0x80002bb4 x17=0x00000000
       49135000	      4912	80002d24	40600233	sub	x4,x0,x6	  x0:0x00000000  x6:0x7fffd776  x4=0x8000288a
       49145000	      4913	80002d28	9c797213	andi	x4,x18,-1593	 x18:0x80002c08  x4=0x80002800
       49155000	      4914	80002d2c	f9ff6617	auipc	x12,0xf9ff6	 x12=0x79ff8d28
       49165000	      4915	80002d30	c13a7813	andi	x16,x20,-1005	 x20:0x00000000 x16=0x00000000
       49175000	      4916	80002d34	512a0493	addi	x9,x20,1298	 x20:0x00000000  x9=0x00000512
       49185000	      4917	80002d38	2265a993	slti	x19,x11,550	 x11:0x80002b00 x19=0x00000001
       49195000	      4918	80002d3c	1629e693	ori	x13,x19,354	 x19:0x00000001 x13=0x00000163
       49205000	      4919	80002d40	8f52ce13	xori	x28,x5,-1803	  x5:0xef0319ad x28=0x10fce158
       49215000	      4920	80002d44	03fc9a63	bne	x25,x31,80002d78	 x25:0x00000001 x31:0x00000000
       49225000	      4921	00000000	00000013	addi	x0,x0,0	  x0:0x00000000
       49235000	      4922	80002d74	00000013	addi	x0,x0,0	  x0:0x00000000
       49245000	      4923	80002d78	91cfcf13	xori	x30,x31,-1764	 x31:0x00000000 x30=0xfffff91c
       49255000	      4924	80002d7c	402d0533	sub	x10,x26,x2	 x26:0x80009fc4  x2:0x00000000 x10=0x80009fc4
       49265000	      4925	80002d80	01792e33	slt	x28,x18,x23	 x18:0x80002c08 x23:0x85d6a000 x28=0x00000001
       49275000	      4926	80002d84	40c7d0b3	sra	x1,x15,x12	 x15:0x00001fff x12:0x79ff8d28  x1=0x0000001f
       49285000	      4927	80002d88	03926e63	bltu	x4,x25,80002dc4	  x4:0x80002800 x25:0x00000001
       49295000	      4928	80002d8c	00ce77b3	and	x15,x28,x12	 x28:0x00000001 x12:0x79ff8d28 x15=0x00000000
       49305000	      4929	80002d90	00ce17b3	sll	x15,x28,x12	 x28:0x00000001 x12:0x79ff8d28 x15=0x00000100
       49315000	      4930	80002d94	ea5b4993	xori	x19,x22,-347	 x22:0xfff80002 x19=0x0007fea7
       49325000	      4931	80002d98	016c5813	srli	x16,x24,0x16	 x24:0xef031e00 x16=0x000003bc
       49335000	      4932	80002d9c	0134ff33	and	x30,x9,x19	  x9:0x00000512 x19:0x0007fea7 x30=0x00000402
       49345000	      4933	80002da0	0400e063	bltu	x1,x0,80002de0	  x1:0x0000001f  x0:0x00000000
       49355000	      4934	80002da4	02656463	bltu	x10,x6,80002dcc	 x10:0x80009fc4  x6:0x7fffd776
       49365000	      4935	80002da8	033a9a63	bne	x21,x19,80002ddc	 x21:0x4801cf36 x19:0x0007fea7
       49375000	      4936	00000000	00000013	addi	x0,x0,0	  x0:0x00000000
       49385000	      4937	80002dd8	00000013	addi	x0,x0,0	  x0:0x00000000
       49395000	      4938	80002ddc	95e34793	xori	x15,x6,-1698	  x6:0x7fffd776 x15=0x80002e28
       49405000	      4939	80002de0	5b8fa813	slti	x16,x31,1464	 x31:0x00000000 x16=0x00000001
       49415000	      4940	80002de4	b42d4293	xori	x5,x26,-1214	 x26:0x80009fc4  x5=0x7fff6486
       49425000	      4941	80002de8	b2771a37	lui	x20,0xb2771	 x20=0xb2771000
       49435000	      4942	80002dec	009ee663	bltu	x29,x9,80002df8	 x29:0x000057f0  x9:0x00000512
       49445000	      4943	80002df0	006cdcb3	srl	x25,x25,x6	 x25:0x00000001  x6:0x7fffd776 x25=0x00000000
       49455000	      4944	80002df4	0aca4f13	xori	x30,x20,172	 x20:0xb2771000 x30=0xb27710ac
       49465000	      4945	80002df8	1e365837	lui	x16,0x1e365	 x16=0x1e365000
       49475000	      4946	80002dfc	00334663	blt	x6,x3,80002e08	  x6:0x7fffd776  x3:0x0080002c
       49485000	      4947	80002e00	00000013	addi	x0,x0,0	  x0:0x00000000
       49495000	      4948	80002e04	6f02fc17	auipc	x24,0x6f02f	 x24=0xef031e00
       49505000	      4949	80002e08	41be84b3	sub	x9,x29,x27	 x29:0x000057f0 x27:0x80009f40  x9=0x7fffb8b0
       49515000	      4950	80002e0c	007b3b33	sltu	x22,x22,x7	 x22:0xfff80002  x7:0x80002f36 x22=0x00000000
       49525000	      4951	80002e10	00d4eb33	or	x22,x9,x13	  x9:0x7fffb8b0 x13:0x00000163 x22=0x7fffb9f3
       49535000	      4952	80002e14	01a2e233	or	x4,x5,x26	  x5:0x7fff6486 x26:0x80009fc4  x4=0xffffffc6
       49545000	      4953	80002e18	05acf463	bgeu	x25,x26,80002e60	 x25:0x00000000 x26:0x80009fc4
       49555000	      4954	80002e1c	042b0463	beq	x22,x2,80002e64	 x22:0x7fffb9f3  x2:0x00000000
       49565000	      4955	80002e20	016ba2b3	slt	x5,x23,x22	 x23:0x85d6a000 x22:0x7fffb9f3  x5=0x00000001
       49575000	      4956	80002e24	40e2d793	srai	x15,x5,0xe	  x5:0x00000001 x15=0x00000000
       49585000	      4957	80002e28	0173d633	srl	x12,x7,x23	  x7:0x80002f36 x23:0x85d6a000 x12=0x80002f36
       49595000	      4958	80002e2c	015923b3	slt	x7,x18,x21	 x18:0x80002c08 x21:0x4801cf36  x7=0x00000001
       49605000	      4959	80002e30	01039413	slli	x8,x7,0x10	  x7:0x00000001  x8=0x00010000
       49615000	      4960	80002e34	3ce03a93	sltiu	x21,x0,974	  x0:0x00000000 x21=0x00000001
       49625000	      4961	80002e38	01643033	sltu	x0,x8,x22	  x8:0x00010000 x22:0x7fffb9f3
       49635000	      4962	80002e3c	0911a593	slti	x11,x3,145	  x3:0x0080002c x11=0x00000000
       49645000	      4963	80002e40	017109b3	add	x19,x2,x23	  x2:0x00000000 x23:0x85d6a000 x19=0x85d6a000
       49655000	      4964	80002e44	01185b13	srli	x22,x16,0x11	 x16:0x1e365000 x22=0x00000f1b
       49665000	      4965	80002e48	0007aa33	slt	x20,x15,x0	 x15:0x00000000  x0:0x00000000 x20=0x00000000
       49675000	      4966	80002e4c	01edca63	blt	x27,x30,80002e60	 x27:0x80009f40 x30:0xb27710ac
       49685000	      4967	00000000	00000013	addi	x0,x0,0	  x0:0x00000000
       49695000	      4968	80002e5c	00000013	addi	x0,x0,0	  x0:0x00000000
       49705000	      4969	80002e60	56cdc9b7	lui	x19,0x56cdc	 x19=0x56cdc000
       49715000	      4970	80002e64	218a4613	xori	x12,x20,536	 x20:0x00000000 x12=0x00000218
       49725000	      4971	80002e68	21564f93	xori	x31,x12,533	 x12:0x00000218 x31=0x0000000d
       49735000	      4972	80002e6c	ea97f613	andi	x12,x15,-343	 x15:0x00000000 x12=0x00000000
       49745000	      4973	80002e70	0124d663	bge	x9,x18,80002e7c	  x9:0x7fffb8b0 x18:0x80002c08
       49755000	      4974	00000000	00000013	addi	x0,x0,0	  x0:0x00000000
       49765000	      4975	80002e78	00000013	addi	x0,x0,0	  x0:0x00000000
       49775000	      4976	80002e7c	41c55333	sra	x6,x10,x28	 x10:0x80009fc4 x28:0x00000001  x6=0xc0004fe2
       49785000	      4977	80002e80	011f9e33	sll	x28,x31,x17	 x31:0x0000000d x17:0x00000000 x28=0x0000000d
       49795000	      4978	80002e84	00e6f663	bgeu	x13,x14,80002e90	 x13:0x00000163 x14:0x80002ba0
       49805000	      4979	80002e88	3131a513	slti	x10,x3,787	  x3:0x0080002c x10=0x00000000
       49815000	      4980	80002e8c	b8cfa613	slti	x12,x31,-1140	 x31:0x0000000d x12=0x00000000
       49825000	      4981	80002e90	00749733	sll	x14,x9,x7	  x9:0x7fffb8b0  x7:0x00000001 x14=0xffff7160
       49835000	      4982	80002e94	00000013	addi	x0,x0,0	  x0:0x00000000
       49845000	      4983	80002e98	17012437	lui	x8,0x17012	  x8=0x17012000
       49855000	      4984	80002e9c	7176af13	slti	x30,x13,1815	 x13:0x00000163 x30=0x00000001
       49865000	      4985	80002ea0	009a7863	bgeu	x20,x9,80002eb0	 x20:0x00000000  x9:0x7fffb8b0
       49875000	      4986	80002ea4	00940e63	beq	x8,x9,80002ec0	  x8:0x17012000  x9:0x7fffb8b0
       49885000	      4987	80002ea8	007b5c63	bge	x22,x7,80002ec0	 x22:0x00000f1b  x7:0x00000001
       49895000	      4988	00000000	00000013	addi	x0,x0,0	  x0:0x00000000
       49905000	      4989	80002ebc	00000013	addi	x0,x0,0	  x0:0x00000000
       49915000	      4990	80002ec0	0095b033	sltu	x0,x11,x9	 x11:0x00000000  x9:0x7fffb8b0
       49925000	      4991	80002ec4	004da303	lw	x6,4(x27)	 x27:0x80009f40  x6=0x80002fa4 PA:0x80009f44
       49935000	      4992	80002ec8	018f6833	or	x16,x30,x24	 x30:0x00000001 x24:0xef031e00 x16=0xef031e01
       49945000	      4993	80002ecc	8f90e813	ori	x16,x1,-1799	  x1:0x0000001f x16=0xfffff8ff
       49955000	      4994	80002ed0	9825c993	xori	x19,x11,-1662	 x11:0x00000000 x19=0xfffff982
       49965000	      4995	80002ed4	015aa6b3	slt	x13,x21,x21	 x21:0x00000001 x21:0x00000001 x13=0x00000000
       49975000	      4996	80002ed8	024d8d93	addi	x27,x27,36	 x27:0x80009f40 x27=0x80009f64
       49985000	      4997	80002edc	80b0cc93	xori	x25,x1,-2037	  x1:0x0000001f x25=0xfffff814
       49995000	      4998	80002ee0	00030293	addi	x5,x6,0	  x6:0x80002fa4  x5=0x80002fa4
       50005000	      4999	80002ee4	000282e7	jalr	x5,x5,0	  x5:0x80002fa4  x5=0x80002ee4
       50015000	      5000	00000000	00000013	addi	x0,x0,0	  x0:0x00000000
       50025000	      5001	80002fa4	00000013	addi	x0,x0,0	  x0:0x00000000
       50035000	      5002	80002fa8	0180036f	jal	x6,80002fa8	  x6=0x80002fa8
       50045000	      5003	00000000	00000013	addi	x0,x0,0	  x0:0x00000000
       50055000	      5004	80002fbc	00000013	addi	x0,x0,0	  x0:0x00000000
       50065000	      5005	80002fc0	ff5ff36f	jal	x6,80002fc0	  x6=0x80002fc0
       50075000	      5006	00000000	00000013	addi	x0,x0,0	  x0:0x00000000
       50085000	      5007	80002fb0	00000013	addi	x0,x0,0	  x0:0x00000000
       50095000	      5008	80002fb4	04c000ef	jal	x1,80002fb4	  x1=0x80002fb4
       50105000	      5009	00000000	00000013	addi	x0,x0,0	  x0:0x00000000
       50115000	      5010	80002ffc	00000013	addi	x0,x0,0	  x0:0x00000000
       50125000	      5011	80003000	fb9ff36f	jal	x6,80003000	  x6=0x80003000
       50135000	      5012	00000000	00000013	addi	x0,x0,0	  x0:0x00000000
       50145000	      5013	80002fb4	00000013	addi	x0,x0,0	  x0:0x00000000
       50155000	      5014	80002fb8	018000ef	jal	x1,80002fb8	  x1=0x80002fb8
       50165000	      5015	00000000	00000013	addi	x0,x0,0	  x0:0x00000000
       50175000	      5016	80002fcc	00000013	addi	x0,x0,0	  x0:0x00000000
       50185000	      5017	80002fd0	ffdff7ef	jal	x15,80002fd0	 x15=0x80002fd0
       50195000	      5018	00000000	00000013	addi	x0,x0,0	  x0:0x00000000
       50205000	      5019	80002fc8	00000013	addi	x0,x0,0	  x0:0x00000000
       50215000	      5020	80002fcc	008000ef	jal	x1,80002fcc	  x1=0x80002fcc
       50225000	      5021	00000000	00000013	addi	x0,x0,0	  x0:0x00000000
       50235000	      5022	80002fd0	00000013	addi	x0,x0,0	  x0:0x00000000
       50245000	      5023	80002fd4	ff5ffcef	jal	x25,80002fd4	 x25=0x80002fd4
       50255000	      5024	00000000	00000013	addi	x0,x0,0	  x0:0x00000000
       50265000	      5025	80002fc4	00000013	addi	x0,x0,0	  x0:0x00000000
       50275000	      5026	80002fc8	01c000ef	jal	x1,80002fc8	  x1=0x80002fc8
       50285000	      5027	00000000	00000013	addi	x0,x0,0	  x0:0x00000000
       50295000	      5028	80002fe0	00000013	addi	x0,x0,0	  x0:0x00000000
       50305000	      5029	80002fe4	014000ef	jal	x1,80002fe4	  x1=0x80002fe4
       50315000	      5030	00000000	00000013	addi	x0,x0,0	  x0:0x00000000
       50325000	      5031	80002ff4	00000013	addi	x0,x0,0	  x0:0x00000000
       50335000	      5032	80002ff8	004000ef	jal	x1,80002ff8	  x1=0x80002ff8
       50345000	      5033	00000000	00000013	addi	x0,x0,0	  x0:0x00000000
       50355000	      5034	80002ff8	00000013	addi	x0,x0,0	  x0:0x00000000
       50365000	      5035	80002ffc	ff1ff76f	jal	x14,80002ffc	 x14=0x80002ffc
       50375000	      5036	00000000	00000013	addi	x0,x0,0	  x0:0x00000000
       50385000	      5037	80002fe8	00000013	addi	x0,x0,0	  x0:0x00000000
       50395000	      5038	80002fec	018002ef	jal	x5,80002fec	  x5=0x80002fec
       50405000	      5039	00000000	00000013	addi	x0,x0,0	  x0:0x00000000
       50415000	      5040	80003000	00000013	addi	x0,x0,0	  x0:0x00000000
       50425000	      5041	80003004	fd9ff36f	jal	x6,80003004	  x6=0x80003004
       50435000	      5042	00000000	00000013	addi	x0,x0,0	  x0:0x00000000
       50445000	      5043	80002fd8	00000013	addi	x0,x0,0	  x0:0x00000000
       50455000	      5044	80002fdc	fe1ff36f	jal	x6,80002fdc	  x6=0x80002fdc
       50465000	      5045	00000000	00000013	addi	x0,x0,0	  x0:0x00000000
       50475000	      5046	80002fb8	00000013	addi	x0,x0,0	  x0:0x00000000
       50485000	      5047	80002fbc	ff5ffc6f	jal	x24,80002fbc	 x24=0x80002fbc
       50495000	      5048	00000000	00000013	addi	x0,x0,0	  x0:0x00000000
       50505000	      5049	80002fac	00000013	addi	x0,x0,0	  x0:0x00000000
       50515000	      5050	80002fb0	028000ef	jal	x1,80002fb0	  x1=0x80002fb0
       50525000	      5051	00000000	00000013	addi	x0,x0,0	  x0:0x00000000
       50535000	      5052	80002fd4	00000013	addi	x0,x0,0	  x0:0x00000000
       50545000	      5053	80002fd8	01c00bef	jal	x23,80002fd8	 x23=0x80002fd8
       50555000	      5054	00000000	00000013	addi	x0,x0,0	  x0:0x00000000
       50565000	      5055	80002ff0	00000013	addi	x0,x0,0	  x0:0x00000000
       50575000	      5056	80002ff4	fedff0ef	jal	x1,80002ff4	  x1=0x80002ff4
       50585000	      5057	00000000	00000013	addi	x0,x0,0	  x0:0x00000000
       50595000	      5058	80002fdc	00000013	addi	x0,x0,0	  x0:0x00000000
       50605000	      5059	80002fe0	0280036f	jal	x6,80002fe0	  x6=0x80002fe0
       50615000	      5060	00000000	00000013	addi	x0,x0,0	  x0:0x00000000
       50625000	      5061	80003004	00000013	addi	x0,x0,0	  x0:0x00000000
       50635000	      5062	80003008	fe1ff0ef	jal	x1,80003008	  x1=0x80003008
       50645000	      5063	00000000	00000013	addi	x0,x0,0	  x0:0x00000000
       50655000	      5064	80002fe4	00000013	addi	x0,x0,0	  x0:0x00000000
       50665000	      5065	80002fe8	fc5ff0ef	jal	x1,80002fe8	  x1=0x80002fe8
       50675000	      5066	00000000	00000013	addi	x0,x0,0	  x0:0x00000000
       50685000	      5067	80002fa8	00000013	addi	x0,x0,0	  x0:0x00000000
       50695000	      5068	80002fac	044000ef	jal	x1,80002fac	  x1=0x80002fac
       50705000	      5069	00000000	00000013	addi	x0,x0,0	  x0:0x00000000
       50715000	      5070	80002fec	00000013	addi	x0,x0,0	  x0:0x00000000
       50725000	      5071	80002ff0	fd5ff2ef	jal	x5,80002ff0	  x5=0x80002ff0
       50735000	      5072	00000000	00000013	addi	x0,x0,0	  x0:0x00000000
       50745000	      5073	80002fc0	00000013	addi	x0,x0,0	  x0:0x00000000
       50755000	      5074	80002fc4	0480036f	jal	x6,80002fc4	  x6=0x80002fc4
       50765000	      5075	00000000	00000013	addi	x0,x0,0	  x0:0x00000000
       50775000	      5076	80003008	00000013	addi	x0,x0,0	  x0:0x00000000
       50785000	      5077	8000300c	8b63ce97	auipc	x29,0x8b63c	 x29=0x0b63f008
       50795000	      5078	80003010	0440036f	jal	x6,80003010	  x6=0x80003010
       50805000	      5079	00000000	00000013	addi	x0,x0,0	  x0:0x00000000
       50815000	      5080	80003050	00000013	addi	x0,x0,0	  x0:0x00000000
       50825000	      5081	80003054	018000ef	jal	x1,80003054	  x1=0x80003054
       50835000	      5082	00000000	00000013	addi	x0,x0,0	  x0:0x00000000
       50845000	      5083	80003068	00000013	addi	x0,x0,0	  x0:0x00000000
       50855000	      5084	8000306c	004001ef	jal	x3,8000306c	  x3=0x8000306c
       50865000	      5085	00000000	00000013	addi	x0,x0,0	  x0:0x00000000
       50875000	      5086	8000306c	00000013	addi	x0,x0,0	  x0:0x00000000
       50885000	      5087	80003070	ff1ff1ef	jal	x3,80003070	  x3=0x80003070
       50895000	      5088	00000000	00000013	addi	x0,x0,0	  x0:0x00000000
       50905000	      5089	8000305c	00000013	addi	x0,x0,0	  x0:0x00000000
       50915000	      5090	80003060	ff9ff0ef	jal	x1,80003060	  x1=0x80003060
       50925000	      5091	00000000	00000013	addi	x0,x0,0	  x0:0x00000000
       50935000	      5092	80003054	00000013	addi	x0,x0,0	  x0:0x00000000
       50945000	      5093	80003058	ff1fff6f	jal	x30,80003058	 x30=0x80003058
       50955000	      5094	00000000	00000013	addi	x0,x0,0	  x0:0x00000000
       50965000	      5095	80003044	00000013	addi	x0,x0,0	  x0:0x00000000
       50975000	      5096	80003048	fd9ff0ef	jal	x1,80003048	  x1=0x80003048
       50985000	      5097	00000000	00000013	addi	x0,x0,0	  x0:0x00000000
       50995000	      5098	8000301c	00000013	addi	x0,x0,0	  x0:0x00000000
       51005000	      5099	80003020	ff9ff0ef	jal	x1,80003020	  x1=0x80003020
       51015000	      5100	00000000	00000013	addi	x0,x0,0	  x0:0x00000000
       51025000	      5101	80003014	00000013	addi	x0,x0,0	  x0:0x00000000
       51035000	      5102	80003018	0380036f	jal	x6,80003018	  x6=0x80003018
       51045000	      5103	00000000	00000013	addi	x0,x0,0	  x0:0x00000000
       51055000	      5104	8000304c	00000013	addi	x0,x0,0	  x0:0x00000000
       51065000	      5105	80003050	fc5ff36f	jal	x6,80003050	  x6=0x80003050
       51075000	      5106	00000000	00000013	addi	x0,x0,0	  x0:0x00000000
       51085000	      5107	80003010	00000013	addi	x0,x0,0	  x0:0x00000000
       51095000	      5108	80003014	05000f6f	jal	x30,80003014	 x30=0x80003014
       51105000	      5109	00000000	00000013	addi	x0,x0,0	  x0:0x00000000
       51115000	      5110	80003060	00000013	addi	x0,x0,0	  x0:0x00000000
       51125000	      5111	80003064	fc1ff0ef	jal	x1,80003064	  x1=0x80003064
       51135000	      5112	00000000	00000013	addi	x0,x0,0	  x0:0x00000000
       51145000	      5113	80003020	00000013	addi	x0,x0,0	  x0:0x00000000
       51155000	      5114	80003024	01c000ef	jal	x1,80003024	  x1=0x80003024
       51165000	      5115	00000000	00000013	addi	x0,x0,0	  x0:0x00000000
       51175000	      5116	8000303c	00000013	addi	x0,x0,0	  x0:0x00000000
       51185000	      5117	80003040	ff9ff3ef	jal	x7,80003040	  x7=0x80003040
       51195000	      5118	00000000	00000013	addi	x0,x0,0	  x0:0x00000000
       51205000	      5119	80003034	00000013	addi	x0,x0,0	  x0:0x00000000
       51215000	      5120	80003038	040000ef	jal	x1,80003038	  x1=0x80003038
       51225000	      5121	00000000	00000013	addi	x0,x0,0	  x0:0x00000000
       51235000	      5122	80003074	00000013	addi	x0,x0,0	  x0:0x00000000
       51245000	      5123	80003078	fe5ff36f	jal	x6,80003078	  x6=0x80003078
       51255000	      5124	00000000	00000013	addi	x0,x0,0	  x0:0x00000000
       51265000	      5125	80003058	00000013	addi	x0,x0,0	  x0:0x00000000
       51275000	      5126	8000305c	fcdff96f	jal	x18,8000305c	 x18=0x8000305c
       51285000	      5127	00000000	00000013	addi	x0,x0,0	  x0:0x00000000
       51295000	      5128	80003024	00000013	addi	x0,x0,0	  x0:0x00000000
       51305000	      5129	80003028	004002ef	jal	x5,80003028	  x5=0x80003028
       51315000	      5130	00000000	00000013	addi	x0,x0,0	  x0:0x00000000
       51325000	      5131	80003028	00000013	addi	x0,x0,0	  x0:0x00000000
       51335000	      5132	8000302c	018000ef	jal	x1,8000302c	  x1=0x8000302c
       51345000	      5133	00000000	00000013	addi	x0,x0,0	  x0:0x00000000
       51355000	      5134	80003040	00000013	addi	x0,x0,0	  x0:0x00000000
       51365000	      5135	80003044	038000ef	jal	x1,80003044	  x1=0x80003044
       51375000	      5136	00000000	00000013	addi	x0,x0,0	  x0:0x00000000
       51385000	      5137	80003078	00000013	addi	x0,x0,0	  x0:0x00000000
       51395000	      5138	8000307c	fd1ff0ef	jal	x1,8000307c	  x1=0x8000307c
       51405000	      5139	00000000	00000013	addi	x0,x0,0	  x0:0x00000000
       51415000	      5140	80003048	00000013	addi	x0,x0,0	  x0:0x00000000
       51425000	      5141	8000304c	ff1ff36f	jal	x6,8000304c	  x6=0x8000304c
       51435000	      5142	00000000	00000013	addi	x0,x0,0	  x0:0x00000000
       51445000	      5143	80003038	00000013	addi	x0,x0,0	  x0:0x00000000
       51455000	      5144	8000303c	02c000ef	jal	x1,8000303c	  x1=0x8000303c
       51465000	      5145	00000000	00000013	addi	x0,x0,0	  x0:0x00000000
       51475000	      5146	80003064	00000013	addi	x0,x0,0	  x0:0x00000000
       51485000	      5147	80003068	fc9ff0ef	jal	x1,80003068	  x1=0x80003068
       51495000	      5148	00000000	00000013	addi	x0,x0,0	  x0:0x00000000
       51505000	      5149	8000302c	00000013	addi	x0,x0,0	  x0:0x00000000
       51515000	      5150	80003030	044000ef	jal	x1,80003030	  x1=0x80003030
       51525000	      5151	00000000	00000013	addi	x0,x0,0	  x0:0x00000000
       51535000	      5152	80003070	00000013	addi	x0,x0,0	  x0:0x00000000
       51545000	      5153	80003074	fa9ff3ef	jal	x7,80003074	  x7=0x80003074
       51555000	      5154	00000000	00000013	addi	x0,x0,0	  x0:0x00000000
       51565000	      5155	80003018	00000013	addi	x0,x0,0	  x0:0x00000000
       51575000	      5156	8000301c	018009ef	jal	x19,8000301c	 x19=0x8000301c
       51585000	      5157	00000000	00000013	addi	x0,x0,0	  x0:0x00000000
       51595000	      5158	80003030	00000013	addi	x0,x0,0	  x0:0x00000000
       51605000	      5159	80003034	04c0026f	jal	x4,80003034	  x4=0x80003034
       51615000	      5160	00000000	00000013	addi	x0,x0,0	  x0:0x00000000
       51625000	      5161	8000307c	00000013	addi	x0,x0,0	  x0:0x00000000
       51635000	      5162	80003080	00000013	addi	x0,x0,0	  x0:0x00000000
       51645000	      5163	80003084	0040036f	jal	x6,80003084	  x6=0x80003084
       51655000	      5164	00000000	00000013	addi	x0,x0,0	  x0:0x00000000
       51665000	      5165	80003084	00000013	addi	x0,x0,0	  x0:0x00000000
       51675000	      5166	80003088	0080036f	jal	x6,80003088	  x6=0x80003088
       51685000	      5167	00000000	00000013	addi	x0,x0,0	  x0:0x00000000
       51695000	      5168	8000308c	00000013	addi	x0,x0,0	  x0:0x00000000
       51705000	      5169	80003090	010000ef	jal	x1,80003090	  x1=0x80003090
       51715000	      5170	00000000	00000013	addi	x0,x0,0	  x0:0x00000000
       51725000	      5171	8000309c	00000013	addi	x0,x0,0	  x0:0x00000000
       51735000	      5172	800030a0	ffdff0ef	jal	x1,800030a0	  x1=0x800030a0
       51745000	      5173	00000000	00000013	addi	x0,x0,0	  x0:0x00000000
       51755000	      5174	80003098	00000013	addi	x0,x0,0	  x0:0x00000000
       51765000	      5175	8000309c	01c000ef	jal	x1,8000309c	  x1=0x8000309c
       51775000	      5176	00000000	00000013	addi	x0,x0,0	  x0:0x00000000
       51785000	      5177	800030b4	00000013	addi	x0,x0,0	  x0:0x00000000
       51795000	      5178	800030b8	ffdffcef	jal	x25,800030b8	 x25=0x800030b8
       51805000	      5179	00000000	00000013	addi	x0,x0,0	  x0:0x00000000
       51815000	      5180	800030b0	00000013	addi	x0,x0,0	  x0:0x00000000
       51825000	      5181	800030b4	fd9ff36f	jal	x6,800030b4	  x6=0x800030b4
       51835000	      5182	00000000	00000013	addi	x0,x0,0	  x0:0x00000000
       51845000	      5183	80003088	00000013	addi	x0,x0,0	  x0:0x00000000
       51855000	      5184	8000308c	01c003ef	jal	x7,8000308c	  x7=0x8000308c
       51865000	      5185	00000000	00000013	addi	x0,x0,0	  x0:0x00000000
       51875000	      5186	800030a4	00000013	addi	x0,x0,0	  x0:0x00000000
       51885000	      5187	800030a8	fedff0ef	jal	x1,800030a8	  x1=0x800030a8
       51895000	      5188	00000000	00000013	addi	x0,x0,0	  x0:0x00000000
       51905000	      5189	80003090	00000013	addi	x0,x0,0	  x0:0x00000000
       51915000	      5190	80003094	01c000ef	jal	x1,80003094	  x1=0x80003094
       51925000	      5191	00000000	00000013	addi	x0,x0,0	  x0:0x00000000
       51935000	      5192	800030ac	00000013	addi	x0,x0,0	  x0:0x00000000
       51945000	      5193	800030b0	ffdff0ef	jal	x1,800030b0	  x1=0x800030b0
       51955000	      5194	00000000	00000013	addi	x0,x0,0	  x0:0x00000000
       51965000	      5195	800030a8	00000013	addi	x0,x0,0	  x0:0x00000000
       51975000	      5196	800030ac	ff9ffe6f	jal	x28,800030ac	 x28=0x800030ac
       51985000	      5197	00000000	00000013	addi	x0,x0,0	  x0:0x00000000
       51995000	      5198	800030a0	00000013	addi	x0,x0,0	  x0:0x00000000
       52005000	      5199	800030a4	ff5ff1ef	jal	x3,800030a4	  x3=0x800030a4
       52015000	      5200	00000000	00000013	addi	x0,x0,0	  x0:0x00000000
       52025000	      5201	80003094	00000013	addi	x0,x0,0	  x0:0x00000000
       52035000	      5202	80003098	024000ef	jal	x1,80003098	  x1=0x80003098
       52045000	      5203	00000000	00000013	addi	x0,x0,0	  x0:0x00000000
       52055000	      5204	800030b8	00000013	addi	x0,x0,0	  x0:0x00000000
       52065000	      5205	800030bc	d3516213	ori	x4,x2,-715	  x2:0x00000000  x4=0xfffffd35
       52075000	      5206	800030c0	03388663	beq	x17,x19,800030ec	 x17:0x00000000 x19:0x8000301c
       52085000	      5207	800030c4	41c0d213	srai	x4,x1,0x1c	  x1:0x80003098  x4=0xfffffff8
       52095000	      5208	800030c8	9f1f7f97	auipc	x31,0x9f1f7	 x31=0x1f1fa0c4
       52105000	      5209	800030cc	8369ec93	ori	x25,x19,-1994	 x19:0x8000301c x25=0xfffff83e
       52115000	      5210	800030d0	011638b3	sltu	x17,x12,x17	 x12:0x00000000 x17:0x00000000 x17=0x00000000
       52125000	      5211	800030d4	01d43933	sltu	x18,x8,x29	  x8:0x17012000 x29:0x0b63f008 x18=0x00000000
       52135000	      5212	800030d8	01202693	slti	x13,x0,18	  x0:0x00000000 x13=0x00000001
       52145000	      5213	800030dc	00c7c233	xor	x4,x15,x12	 x15:0x80002fd0 x12:0x00000000  x4=0x80002fd0
       52155000	      5214	800030e0	01b5ac33	slt	x24,x11,x27	 x11:0x00000000 x27:0x80009f64 x24=0x00000000
       52165000	      5215	800030e4	006711b3	sll	x3,x14,x6	 x14:0x80002ffc  x6:0x800030b4  x3=0xffc00000
       52175000	      5216	800030e8	04330263	beq	x6,x3,8000312c	  x6:0x800030b4  x3:0xffc00000
       52185000	      5217	800030ec	01b8b7b3	sltu	x15,x17,x27	 x17:0x00000000 x27:0x80009f64 x15=0x00000001
       52195000	      5218	800030f0	02fbd863	bge	x23,x15,80003120	 x23:0x80002fd8 x15:0x00000001
       52205000	      5219	800030f4	016c4a33	xor	x20,x24,x22	 x24:0x00000000 x22:0x00000f1b x20=0x00000f1b
       52215000	      5220	800030f8	0013df93	srli	x31,x7,0x1	  x7:0x8000308c x31=0x40001846
       52225000	      5221	800030fc	000ae033	or	x0,x21,x0	 x21:0x00000001  x0:0x00000000
       52235000	      5222	80003100	6d000693	addi	x13,x0,1744	  x0:0x00000000 x13=0x000006d0
       52245000	      5223	80003104	13fe8893	addi	x17,x29,319	 x29:0x0b63f008 x17=0x0b63f147
       52255000	      5224	80003108	ac570613	addi	x12,x14,-1339	 x14:0x80002ffc x12=0x80002ac1
       52265000	      5225	8000310c	0110b4b3	sltu	x9,x1,x17	  x1:0x80003098 x17:0x0b63f147  x9=0x00000000
       52275000	      5226	80003110	f2b2ca13	xori	x20,x5,-213	  x5:0x80003028 x20=0x7fffcf03
       52285000	      5227	80003114	b7950813	addi	x16,x10,-1159	 x10:0x00000000 x16=0xfffffb79
       52295000	      5228	80003118	41698933	sub	x18,x19,x22	 x19:0x8000301c x22:0x00000f1b x18=0x80002101
       52305000	      5229	8000311c	00f37e33	and	x28,x6,x15	  x6:0x800030b4 x15:0x00000001 x28=0x00000000
       52315000	      5230	80003120	d840fa93	andi	x21,x1,-636	  x1:0x80003098 x21=0x80003080
       52325000	      5231	80003124	03460063	beq	x12,x20,80003144	 x12:0x80002ac1 x20:0x7fffcf03
       52335000	      5232	80003128	0050c833	xor	x16,x1,x5	  x1:0x80003098  x5:0x80003028 x16=0x000000b0
       52345000	      5233	8000312c	f0626813	ori	x16,x4,-250	  x4:0x80002fd0 x16=0xffffffd6
       52355000	      5234	80003130	4027d693	srai	x13,x15,0x2	 x15:0x00000001 x13=0x00000000
       52365000	      5235	80003134	02358263	beq	x11,x3,80003158	 x11:0x00000000  x3:0xffc00000
       52375000	      5236	80003138	0f0d58b7	lui	x17,0xf0d5	 x17=0x0f0d5000
       52385000	      5237	8000313c	006602b3	add	x5,x12,x6	 x12:0x80002ac1  x6:0x800030b4  x5=0x00005b75
       52395000	      5238	80003140	d7a52c13	slti	x24,x10,-646	 x10:0x00000000 x24=0x00000000
       52405000	      5239	80003144	cf6de737	lui	x14,0xcf6de	 x14=0xcf6de000
       52415000	      5240	80003148	00a275b3	and	x11,x4,x10	  x4:0x80002fd0 x10:0x00000000 x11=0x00000000
       52425000	      5241	8000314c	02f0d663	bge	x1,x15,80003178	  x1:0x80003098 x15:0x00000001
       52435000	      5242	80003150	01036bb3	or	x23,x6,x16	  x6:0x800030b4 x16:0xffffffd6 x23=0xfffffff6
       52445000	      5243	80003154	00f4dfb3	srl	x31,x9,x15	  x9:0x00000000 x15:0x00000001 x31=0x00000000
       52455000	      5244	80003158	c40f4993	xori	x19,x30,-960	 x30:0x80003014 x19=0x7fffcc54
       52465000	      5245	8000315c	03167663	bgeu	x12,x17,80003188	 x12:0x80002ac1 x17:0x0f0d5000
       52475000	      5246	00000000	00000013	addi	x0,x0,0	  x0:0x00000000
       52485000	      5247	80003184	00000013	addi	x0,x0,0	  x0:0x00000000
       52495000	      5248	80003188	012800b3	add	x1,x16,x18	 x16:0xffffffd6 x18:0x80002101  x1=0x800020d7
       52505000	      5249	8000318c	025f1463	bne	x30,x5,800031b4	 x30:0x80003014  x5:0x00005b75
       52515000	      5250	00000000	00000013	addi	x0,x0,0	  x0:0x00000000
       52525000	      5251	800031b0	00000013	addi	x0,x0,0	  x0:0x00000000
       52535000	      5252	800031b4	05b55663	bge	x10,x27,80003200	 x10:0x00000000 x27:0x80009f64
       52545000	      5253	00000000	00000013	addi	x0,x0,0	  x0:0x00000000
       52555000	      5254	800031fc	00000013	addi	x0,x0,0	  x0:0x00000000
       52565000	      5255	80003200	26204f93	xori	x31,x0,610	  x0:0x00000000 x31=0x00000262
       52575000	      5256	80003204	03d14463	blt	x2,x29,8000322c	  x2:0x00000000 x29:0x0b63f008
       52585000	      5257	00000000	00000013	addi	x0,x0,0	  x0:0x00000000
       52595000	      5258	80003228	00000013	addi	x0,x0,0	  x0:0x00000000
       52605000	      5259	8000322c	015a7933	and	x18,x20,x21	 x20:0x7fffcf03 x21:0x80003080 x18=0x00000000
       52615000	      5260	80003230	40595a33	sra	x20,x18,x5	 x18:0x00000000  x5:0x00005b75 x20=0x00000000
       52625000	      5261	80003234	00f579b3	and	x19,x10,x15	 x10:0x00000000 x15:0x00000001 x19=0x00000000
       52635000	      5262	80003238	01cf8263	beq	x31,x28,8000323c	 x31:0x00000262 x28:0x00000000
       52645000	      5263	8000323c	00785993	srli	x19,x16,0x7	 x16:0xffffffd6 x19=0x01ffffff
       52655000	      5264	80003240	4064db93	srai	x23,x9,0x6	  x9:0x00000000 x23=0x00000000
       52665000	      5265	80003244	01acde13	srli	x28,x25,0x1a	 x25:0xfffff83e x28=0x0000003f
       52675000	      5266	80003248	00000013	addi	x0,x0,0	  x0:0x00000000
       52685000	      5267	8000324c	00c3d463	bge	x7,x12,80003254	  x7:0x8000308c x12:0x80002ac1
       52695000	      5268	00000000	00000013	addi	x0,x0,0	  x0:0x00000000
       52705000	      5269	80003250	00000013	addi	x0,x0,0	  x0:0x00000000
       52715000	      5270	80003254	034a8c63	beq	x21,x20,8000328c	 x21:0x80003080 x20:0x00000000
       52725000	      5271	80003258	41be80b3	sub	x1,x29,x27	 x29:0x0b63f008 x27:0x80009f64  x1=0x8b6350a4
       52735000	      5272	8000325c	dbdf1a17	auipc	x20,0xdbdf1	 x20=0x5bdf4258
       52745000	      5273	80003260	4b6df713	andi	x14,x27,1206	 x27:0x80009f64 x14=0x00000424
       52755000	      5274	80003264	9b798213	addi	x4,x19,-1609	 x19:0x01ffffff  x4=0x01fff9b6
       52765000	      5275	80003268	c6cf2993	slti	x19,x30,-916	 x30:0x80003014 x19=0x00000001
       52775000	      5276	8000326c	0082a833	slt	x16,x5,x8	  x5:0x00005b75  x8:0x17012000 x16=0x00000001
       52785000	      5277	80003270	01031193	slli	x3,x6,0x10	  x6:0x800030b4  x3=0x30b40000
       52795000	      5278	80003274	00ceecb3	or	x25,x29,x12	 x29:0x0b63f008 x12:0x80002ac1 x25=0x8b63fac9
       52805000	      5279	80003278	00455463	bge	x10,x4,80003280	 x10:0x00000000  x4:0x01fff9b6
       52815000	      5280	8000327c	30ad8a93	addi	x21,x27,778	 x27:0x80009f64 x21=0x8000a26e
       52825000	      5281	80003280	04adc663	blt	x27,x10,800032cc	 x27:0x80009f64 x10:0x00000000
       52835000	      5282	00000000	00000013	addi	x0,x0,0	  x0:0x00000000
       52845000	      5283	800032c8	00000013	addi	x0,x0,0	  x0:0x00000000
       52855000	      5284	800032cc	fb0c55b7	lui	x11,0xfb0c5	 x11=0xfb0c5000
       52865000	      5285	800032d0	01478e33	add	x28,x15,x20	 x15:0x00000001 x20:0x5bdf4258 x28=0x5bdf4259
       52875000	      5286	800032d4	ba7cc013	xori	x0,x25,-1113	 x25:0x8b63fac9
       52885000	      5287	800032d8	019006b3	add	x13,x0,x25	  x0:0x00000000 x25:0x8b63fac9 x13=0x8b63fac9
       52895000	      5288	800032dc	40e48c33	sub	x24,x9,x14	  x9:0x00000000 x14:0x00000424 x24=0xfffffbdc
       52905000	      5289	800032e0	01e20833	add	x16,x4,x30	  x4:0x01fff9b6 x30:0x80003014 x16=0x820029ca
       52915000	      5290	800032e4	98449b37	lui	x22,0x98449	 x22=0x98449000
       52925000	      5291	800032e8	4069dc93	srai	x25,x19,0x6	 x19:0x00000001 x25=0x00000000
       52935000	      5292	800032ec	01651613	slli	x12,x10,0x16	 x10:0x00000000 x12=0x00000000
       52945000	      5293	800032f0	00875e93	srli	x29,x14,0x8	 x14:0x00000424 x29=0x00000004
       52955000	      5294	800032f4	40e8a913	slti	x18,x17,1038	 x17:0x0f0d5000 x18=0x00000000
       52965000	      5295	800032f8	01d2a533	slt	x10,x5,x29	  x5:0x00005b75 x29:0x00000004 x10=0x00000000
       52975000	      5296	800032fc	02949c63	bne	x9,x9,80003334	  x9:0x00000000  x9:0x00000000
       52985000	      5297	80003300	00dc3eb3	sltu	x29,x24,x13	 x24:0xfffffbdc x13:0x8b63fac9 x29=0x00000000
       52995000	      5298	80003304	01235933	srl	x18,x6,x18	  x6:0x800030b4 x18:0x00000000 x18=0x800030b4
       53005000	      5299	80003308	01e94b33	xor	x22,x18,x30	 x18:0x800030b4 x30:0x80003014 x22=0x000000a0
       53015000	      5300	8000330c	0168d193	srli	x3,x17,0x16	 x17:0x0f0d5000  x3=0x0000003c
       53025000	      5301	80003310	40b2d7b3	sra	x15,x5,x11	  x5:0x00005b75 x11:0xfb0c5000 x15=0x00005b75
       53035000	      5302	80003314	019a7e63	bgeu	x20,x25,80003330	 x20:0x5bdf4258 x25:0x00000000
       53045000	      5303	00000000	00000013	addi	x0,x0,0	  x0:0x00000000
       53055000	      5304	8000332c	00000013	addi	x0,x0,0	  x0:0x00000000
       53065000	      5305	80003330	006c4263	blt	x24,x6,80003334	 x24:0xfffffbdc  x6:0x800030b4
       53075000	      5306	80003334	00000013	addi	x0,x0,0	  x0:0x00000000
       53085000	      5307	80003338	0100ba33	sltu	x20,x1,x16	  x1:0x8b6350a4 x16:0x820029ca x20=0x00000000
       53095000	      5308	8000333c	034d1a63	bne	x26,x20,80003370	 x26:0x80009fc4 x20:0x00000000
       53105000	      5309	00000000	00000013	addi	x0,x0,0	  x0:0x00000000
       53115000	      5310	8000336c	00000013	addi	x0,x0,0	  x0:0x00000000
       53125000	      5311	80003370	01f097b3	sll	x15,x1,x31	  x1:0x8b6350a4 x31:0x00000262 x15=0x2d8d4290
       53135000	      5312	80003374	00c750b3	srl	x1,x14,x12	 x14:0x00000424 x12:0x00000000  x1=0x00000424
       53145000	      5313	80003378	00000013	addi	x0,x0,0	  x0:0x00000000
       53155000	      5314	8000337c	019ed463	bge	x29,x25,80003384	 x29:0x00000000 x25:0x00000000
       53165000	      5315	00000000	00000013	addi	x0,x0,0	  x0:0x00000000
       53175000	      5316	80003380	00000013	addi	x0,x0,0	  x0:0x00000000
       53185000	      5317	80003384	40e45b93	srai	x23,x8,0xe	  x8:0x17012000 x23=0x00005c04
       53195000	      5318	80003388	00000013	addi	x0,x0,0	  x0:0x00000000
       53205000	      5319	8000338c	00aad3b3	srl	x7,x21,x10	 x21:0x8000a26e x10:0x00000000  x7=0x8000a26e
       53215000	      5320	80003390	012306b3	add	x13,x6,x18	  x6:0x800030b4 x18:0x800030b4 x13=0x00006168
       53225000	      5321	80003394	020a5463	bge	x20,x0,800033bc	 x20:0x00000000  x0:0x00000000
       53235000	      5322	00000000	00000013	addi	x0,x0,0	  x0:0x00000000
       53245000	      5323	800033b8	00000013	addi	x0,x0,0	  x0:0x00000000
       53255000	      5324	800033bc	01c16533	or	x10,x2,x28	  x2:0x00000000 x28:0x5bdf4259 x10=0x5bdf4259
       53265000	      5325	800033c0	ecd3fe93	andi	x29,x7,-307	  x7:0x8000a26e x29=0x8000a24c
       53275000	      5326	800033c4	01719f33	sll	x30,x3,x23	  x3:0x0000003c x23:0x00005c04 x30=0x000003c0
       53285000	      5327	800033c8	01cb33b3	sltu	x7,x22,x28	 x22:0x000000a0 x28:0x5bdf4259  x7=0x00000001
       53295000	      5328	800033cc	004da303	lw	x6,4(x27)	 x27:0x80009f64  x6=0x80002790 PA:0x80009f68
       53305000	      5329	800033d0	7aef0393	addi	x7,x30,1966	 x30:0x000003c0  x7=0x00000b6e
       53315000	      5330	800033d4	626ba613	slti	x12,x23,1574	 x23:0x00005c04 x12=0x00000000
       53325000	      5331	800033d8	408d5b13	srai	x22,x26,0x8	 x26:0x80009fc4 x22=0xff80009f
       53335000	      5332	800033dc	ccf77013	andi	x0,x14,-817	 x14:0x00000424
       53345000	      5333	800033e0	010d8d93	addi	x27,x27,16	 x27:0x80009f64 x27=0x80009f74
       53355000	      5334	800033e4	25fa8193	addi	x3,x21,607	 x21:0x8000a26e  x3=0x8000a4cd
       53365000	      5335	800033e8	00130193	addi	x3,x6,1	  x6:0x80002790  x3=0x80002791
       53375000	      5336	800033ec	000181e7	jalr	x3,x3,0	  x3:0x80002791  x3=0x800033ec
       53385000	      5337	00000000	00000013	addi	x0,x0,0	  x0:0x00000000
       53395000	      5338	80002790	00000013	addi	x0,x0,0	  x0:0x00000000
       53405000	      5339	80002794	836b8f93	addi	x31,x23,-1994	 x23:0x00005c04 x31=0x0000543a
       53415000	      5340	80002798	01f3b733	sltu	x14,x7,x31	  x7:0x00000b6e x31:0x0000543a x14=0x00000001
       53425000	      5341	8000279c	0074ebb3	or	x23,x9,x7	  x9:0x00000000  x7:0x00000b6e x23=0x00000b6e
       53435000	      5342	800027a0	43078f37	lui	x30,0x43078	 x30=0x43078000
       53445000	      5343	800027a4	6f692613	slti	x12,x18,1782	 x18:0x800030b4 x12=0x00000001
       53455000	      5344	800027a8	00b3c833	xor	x16,x7,x11	  x7:0x00000b6e x11:0xfb0c5000 x16=0xfb0c5b6e
       53465000	      5345	800027ac	e6b3cc13	xori	x24,x7,-405	  x7:0x00000b6e x24=0xfffff505
       53475000	      5346	800027b0	40495633	sra	x12,x18,x4	 x18:0x800030b4  x4:0x01fff9b6 x12=0xfffffe00
       53485000	      5347	800027b4	01b914b3	sll	x9,x18,x27	 x18:0x800030b4 x27:0x80009f74  x9=0x0b400000
       53495000	      5348	800027b8	0074b433	sltu	x8,x9,x7	  x9:0x0b400000  x7:0x00000b6e  x8=0x00000000
       53505000	      5349	800027bc	00000013	addi	x0,x0,0	  x0:0x00000000
       53515000	      5350	800027c0	40da3f93	sltiu	x31,x20,1037	 x20:0x00000000 x31=0x00000001
       53525000	      5351	800027c4	01b55c33	srl	x24,x10,x27	 x10:0x5bdf4259 x27:0x80009f74 x24=0x000005bd
       53535000	      5352	800027c8	412ddf13	srai	x30,x27,0x12	 x27:0x80009f74 x30=0xffffe000
       53545000	      5353	800027cc	014021b3	slt	x3,x0,x20	  x0:0x00000000 x20:0x00000000  x3=0x00000000
       53555000	      5354	800027d0	01d8e463	bltu	x17,x29,800027d8	 x17:0x0f0d5000 x29:0x8000a24c
       53565000	      5355	00000000	00000013	addi	x0,x0,0	  x0:0x00000000
       53575000	      5356	800027d4	00000013	addi	x0,x0,0	  x0:0x00000000
       53585000	      5357	800027d8	03f64e63	blt	x12,x31,80002814	 x12:0xfffffe00 x31:0x00000001
       53595000	      5358	00000000	00000013	addi	x0,x0,0	  x0:0x00000000
       53605000	      5359	80002810	00000013	addi	x0,x0,0	  x0:0x00000000
       53615000	      5360	80002814	458aba13	sltiu	x20,x21,1112	 x21:0x8000a26e x20=0x00000000
       53625000	      5361	80002818	00ab8bb3	add	x23,x23,x10	 x23:0x00000b6e x10:0x5bdf4259 x23=0x5bdf4dc7
       53635000	      5362	8000281c	0c605f97	auipc	x31,0xc605	 x31=0x8c607818
       53645000	      5363	80002820	01345e33	srl	x28,x8,x19	  x8:0x00000000 x19:0x00000001 x28=0x00000000
       53655000	      5364	80002824	00df9293	slli	x5,x31,0xd	 x31:0x8c607818  x5=0x0f030000
       53665000	      5365	80002828	00110a33	add	x20,x2,x1	  x2:0x00000000  x1:0x00000424 x20=0x00000424
       53675000	      5366	8000282c	169c8413	addi	x8,x25,361	 x25:0x00000000  x8=0x00000169
       53685000	      5367	80002830	6d110193	addi	x3,x2,1745	  x2:0x00000000  x3=0x000006d1
       53695000	      5368	80002834	08f57a63	bgeu	x10,x15,800028c8	 x10:0x5bdf4259 x15:0x2d8d4290
       53705000	      5369	00000000	00000013	addi	x0,x0,0	  x0:0x00000000
       53715000	      5370	800028c4	00000013	addi	x0,x0,0	  x0:0x00000000
       53725000	      5371	800028c8	00000013	addi	x0,x0,0	  x0:0x00000000
       53735000	      5372	800028cc	00c61293	slli	x5,x12,0xc	 x12:0xfffffe00  x5=0xffe00000
       53745000	      5373	800028d0	40d65c33	sra	x24,x12,x13	 x12:0xfffffe00 x13:0x00006168 x24=0xfffffffe
       53755000	      5374	800028d4	07ae7f13	andi	x30,x28,122	 x28:0x00000000 x30=0x00000000
       53765000	      5375	800028d8	001982b3	add	x5,x19,x1	 x19:0x00000001  x1:0x00000424  x5=0x00000425
       53775000	      5376	800028dc	80299e97	auipc	x29,0x80299	 x29=0x0029b8d8
       53785000	      5377	800028e0	418bd9b3	sra	x19,x23,x24	 x23:0x5bdf4dc7 x24:0xfffffffe x19=0x00000001
       53795000	      5378	800028e4	01e35413	srli	x8,x6,0x1e	  x6:0x80002790  x8=0x00000002
       53805000	      5379	800028e8	412bdcb3	sra	x25,x23,x18	 x23:0x5bdf4dc7 x18:0x800030b4 x25=0x000005bd
       53815000	      5380	800028ec	e97f8237	lui	x4,0xe97f8	  x4=0xe97f8000
       53825000	      5381	800028f0	dc315f97	auipc	x31,0xdc315	 x31=0x5c3178ec
       53835000	      5382	800028f4	006dcc63	blt	x27,x6,8000290c	 x27:0x80009f74  x6:0x80002790
       53845000	      5383	800028f8	df274293	xori	x5,x14,-526	 x14:0x00000001  x5=0xfffffdf3
       53855000	      5384	800028fc	0034d593	srli	x11,x9,0x3	  x9:0x0b400000 x11=0x01680000
       53865000	      5385	80002900	02491e63	bne	x18,x4,8000293c	 x18:0x800030b4  x4:0xe97f8000
       53875000	      5386	00000000	00000013	addi	x0,x0,0	  x0:0x00000000
       53885000	      5387	80002938	00000013	addi	x0,x0,0	  x0:0x00000000
       53895000	      5388	8000293c	407a5b13	srai	x22,x20,0x7	 x20:0x00000424 x22=0x00000008
       53905000	      5389	80002940	010af663	bgeu	x21,x16,8000294c	 x21:0x8000a26e x16:0xfb0c5b6e
       53915000	      5390	80002944	012a7633	and	x12,x20,x18	 x20:0x00000424 x18:0x800030b4 x12=0x00000024
       53925000	      5391	80002948	02904c63	blt	x0,x9,80002980	  x0:0x00000000  x9:0x0b400000
       53935000	      5392	00000000	00000013	addi	x0,x0,0	  x0:0x00000000
       53945000	      5393	8000297c	00000013	addi	x0,x0,0	  x0:0x00000000
       53955000	      5394	80002980	bdc13a17	auipc	x20,0xbdc13	 x20=0x3dc1597c
       53965000	      5395	80002984	01ac9863	bne	x25,x26,80002994	 x25:0x000005bd x26:0x80009fc4
       53975000	      5396	00000000	00000013	addi	x0,x0,0	  x0:0x00000000
       53985000	      5397	80002990	00000013	addi	x0,x0,0	  x0:0x00000000
       53995000	      5398	80002994	0156d1b3	srl	x3,x13,x21	 x13:0x00006168 x21:0x8000a26e  x3=0x00000001
       54005000	      5399	80002998	01d4b233	sltu	x4,x9,x29	  x9:0x0b400000 x29:0x0029b8d8  x4=0x00000000
       54015000	      5400	8000299c	009b1193	slli	x3,x22,0x9	 x22:0x00000008  x3=0x00001000
       54025000	      5401	800029a0	efea51b7	lui	x3,0xefea5	  x3=0xefea5000
       54035000	      5402	800029a4	05231063	bne	x6,x18,800029e4	  x6:0x80002790 x18:0x800030b4
       54045000	      5403	00000000	00000013	addi	x0,x0,0	  x0:0x00000000
       54055000	      5404	800029e0	00000013	addi	x0,x0,0	  x0:0x00000000
       54065000	      5405	800029e4	006be663	bltu	x23,x6,800029f0	 x23:0x5bdf4dc7  x6:0x80002790
       54075000	      5406	00000000	00000013	addi	x0,x0,0	  x0:0x00000000
       54085000	      5407	800029ec	00000013	addi	x0,x0,0	  x0:0x00000000
       54095000	      5408	800029f0	00ef6333	or	x6,x30,x14	 x30:0x00000000 x14:0x00000001  x6=0x00000001
       54105000	      5409	800029f4	005587b3	add	x15,x11,x5	 x11:0x01680000  x5:0xfffffdf3 x15=0x0167fdf3
       54115000	      5410	800029f8	0356d263	bge	x13,x21,80002a1c	 x13:0x00006168 x21:0x8000a26e
       54125000	      5411	00000000	00000013	addi	x0,x0,0	  x0:0x00000000
       54135000	      5412	80002a18	00000013	addi	x0,x0,0	  x0:0x00000000
       54145000	      5413	80002a1c	fa027813	andi	x16,x4,-96	  x4:0x00000000 x16=0x00000000
       54155000	      5414	80002a20	00019a33	sll	x20,x3,x0	  x3:0xefea5000  x0:0x00000000 x20=0xefea5000
       54165000	      5415	80002a24	40cb5eb3	sra	x29,x22,x12	 x22:0x00000008 x12:0x00000024 x29=0x00000000
       54175000	      5416	80002a28	212f7993	andi	x19,x30,530	 x30:0x00000000 x19=0x00000000
       54185000	      5417	80002a2c	0167fc63	bgeu	x15,x22,80002a44	 x15:0x0167fdf3 x22:0x00000008
       54195000	      5418	00000000	00000013	addi	x0,x0,0	  x0:0x00000000
       54205000	      5419	80002a40	00000013	addi	x0,x0,0	  x0:0x00000000
       54215000	      5420	80002a44	0040bbb3	sltu	x23,x1,x4	  x1:0x00000424  x4:0x00000000 x23=0x00000000
       54225000	      5421	80002a48	008f8c33	add	x24,x31,x8	 x31:0x5c3178ec  x8:0x00000002 x24=0x5c3178ee
       54235000	      5422	80002a4c	0131e4b3	or	x9,x3,x19	  x3:0xefea5000 x19:0x00000000  x9=0xefea5000
       54245000	      5423	80002a50	03cee263	bltu	x29,x28,80002a74	 x29:0x00000000 x28:0x00000000
       54255000	      5424	80002a54	01729e13	slli	x28,x5,0x17	  x5:0xfffffdf3 x28=0xf9800000
       54265000	      5425	80002a58	fb6f2f93	slti	x31,x30,-74	 x30:0x00000000 x31=0x00000000
       54275000	      5426	80002a5c	038a0063	beq	x20,x24,80002a7c	 x20:0xefea5000 x24:0x5c3178ee
       54285000	      5427	80002a60	a2c17193	andi	x3,x2,-1492	  x2:0x00000000  x3=0x00000000
       54295000	      5428	80002a64	01c0c413	xori	x8,x1,28	  x1:0x00000424  x8=0x00000438
       54305000	      5429	80002a68	00467eb3	and	x29,x12,x4	 x12:0x00000024  x4:0x00000000 x29=0x00000000
       54315000	      5430	80002a6c	006068b3	or	x17,x0,x6	  x0:0x00000000  x6:0x00000001 x17=0x00000001
       54325000	      5431	80002a70	94182613	slti	x12,x16,-1727	 x16:0x00000000 x12=0x00000000
       54335000	      5432	80002a74	947bbc13	sltiu	x24,x23,-1721	 x23:0x00000000 x24=0x00000001
       54345000	      5433	80002a78	01190263	beq	x18,x17,80002a7c	 x18:0x800030b4 x17:0x00000001
       54355000	      5434	80002a7c	005c2a33	slt	x20,x24,x5	 x24:0x00000001  x5:0xfffffdf3 x20=0x00000000
       54365000	      5435	80002a80	013a38b3	sltu	x17,x20,x19	 x20:0x00000000 x19:0x00000000 x17=0x00000000
       54375000	      5436	80002a84	d9ea6213	ori	x4,x20,-610	 x20:0x00000000  x4=0xfffffd9e
       54385000	      5437	80002a88	5dd3aa13	slti	x20,x7,1501	  x7:0x00000b6e x20=0x00000000
       54395000	      5438	80002a8c	00000013	addi	x0,x0,0	  x0:0x00000000
       54405000	      5439	80002a90	004da303	lw	x6,4(x27)	 x27:0x80009f74  x6=0x8000076c PA:0x80009f78
       54415000	      5440	80002a94	010d8d93	addi	x27,x27,16	 x27:0x80009f74 x27=0x80009f84
       54425000	      5441	80002a98	019b08b3	add	x17,x22,x25	 x22:0x00000008 x25:0x000005bd x17=0x000005c5
       54435000	      5442	80002a9c	0081bab3	sltu	x21,x3,x8	  x3:0x00000000  x8:0x00000438 x21=0x00000001
       54445000	      5443	80002aa0	016d4a33	xor	x20,x26,x22	 x26:0x80009fc4 x22:0x00000008 x20=0x80009fcc
       54455000	      5444	80002aa4	afeb9797	auipc	x15,0xafeb9	 x15=0x2febbaa0
       54465000	      5445	80002aa8	3ce9ac93	slti	x25,x19,974	 x19:0x00000000 x25=0x00000001
       54475000	      5446	80002aac	0667e513	ori	x10,x15,102	 x15:0x2febbaa0 x10=0x2febbae6
       54485000	      5447	80002ab0	00130793	addi	x15,x6,1	  x6:0x8000076c x15=0x8000076d
       54495000	      5448	80002ab4	000787e7	jalr	x15,x15,0	 x15:0x8000076d x15=0x80002ab4
       54505000	      5449	00000000	00000013	addi	x0,x0,0	  x0:0x00000000
       54515000	      5450	8000076c	00000013	addi	x0,x0,0	  x0:0x00000000
       54525000	      5451	80000770	40ce5e33	sra	x28,x28,x12	 x28:0xf9800000 x12:0x00000000 x28=0xf9800000
       54535000	      5452	80000774	05644663	blt	x8,x22,800007c0	  x8:0x00000438 x22:0x00000008
       54545000	      5453	80000778	39006397	auipc	x7,0x39006	  x7=0xb9006774
       54555000	      5454	8000077c	41fb8eb3	sub	x29,x23,x31	 x23:0x00000000 x31:0x00000000 x29=0x00000000
       54565000	      5455	80000780	6f726793	ori	x15,x4,1783	  x4:0xfffffd9e x15=0xffffffff
       54575000	      5456	80000784	00edf863	bgeu	x27,x14,80000794	 x27:0x80009f84 x14:0x00000001
       54585000	      5457	00000000	00000013	addi	x0,x0,0	  x0:0x00000000
       54595000	      5458	80000790	00000013	addi	x0,x0,0	  x0:0x00000000
       54605000	      5459	80000794	415e5e13	srai	x28,x28,0x15	 x28:0xf9800000 x28=0xffffffcc
       54615000	      5460	80000798	e147c417	auipc	x8,0xe147c	  x8=0x6147c794
       54625000	      5461	8000079c	017ff3b3	and	x7,x31,x23	 x31:0x00000000 x23:0x00000000  x7=0x00000000
       54635000	      5462	800007a0	0137ce63	blt	x15,x19,800007bc	 x15:0xffffffff x19:0x00000000
       54645000	      5463	00000000	00000013	addi	x0,x0,0	  x0:0x00000000
       54655000	      5464	800007b8	00000013	addi	x0,x0,0	  x0:0x00000000
       54665000	      5465	800007bc	56de4213	xori	x4,x28,1389	 x28:0xffffffcc  x4=0xfffffaa1
       54675000	      5466	800007c0	413fdb33	sra	x22,x31,x19	 x31:0x00000000 x19:0x00000000 x22=0x00000000
       54685000	      5467	800007c4	00d285b3	add	x11,x5,x13	  x5:0xfffffdf3 x13:0x00006168 x11=0x00005f5b
       54695000	      5468	800007c8	01eb7233	and	x4,x22,x30	 x22:0x00000000 x30:0x00000000  x4=0x00000000
       54705000	      5469	800007cc	04d2d463	bge	x5,x13,80000814	  x5:0xfffffdf3 x13:0x00006168
       54715000	      5470	800007d0	01fb19b3	sll	x19,x22,x31	 x22:0x00000000 x31:0x00000000 x19=0x00000000
       54725000	      5471	800007d4	03316463	bltu	x2,x19,800007fc	  x2:0x00000000 x19:0x00000000
       54735000	      5472	800007d8	013b5c63	bge	x22,x19,800007f0	 x22:0x00000000 x19:0x00000000
       54745000	      5473	00000000	00000013	addi	x0,x0,0	  x0:0x00000000
       54755000	      5474	800007ec	00000013	addi	x0,x0,0	  x0:0x00000000
       54765000	      5475	800007f0	016bbb33	sltu	x22,x23,x22	 x23:0x00000000 x22:0x00000000 x22=0x00000000
       54775000	      5476	800007f4	41d4d033	sra	x0,x9,x29	  x9:0xefea5000 x29:0x00000000
       54785000	      5477	800007f8	01815833	srl	x16,x2,x24	  x2:0x00000000 x24:0x00000001 x16=0x00000000
       54795000	      5478	800007fc	00841b13	slli	x22,x8,0x8	  x8:0x6147c794 x22=0x47c79400
       54805000	      5479	80000800	51d14417	auipc	x8,0x51d14	  x8=0xd1d147fc
       54815000	      5480	80000804	01e55a33	srl	x20,x10,x30	 x10:0x2febbae6 x30:0x00000000 x20=0x2febbae6
       54825000	      5481	80000808	02d6c263	blt	x13,x13,8000082c	 x13:0x00006168 x13:0x00006168
       54835000	      5482	8000080c	009b4a63	blt	x22,x9,80000820	 x22:0x47c79400  x9:0xefea5000
       54845000	      5483	80000810	0158a433	slt	x8,x17,x21	 x17:0x000005c5 x21:0x00000001  x8=0x00000000
       54855000	      5484	80000814	00b64663	blt	x12,x11,80000820	 x12:0x00000000 x11:0x00005f5b
       54865000	      5485	00000000	00000013	addi	x0,x0,0	  x0:0x00000000
       54875000	      5486	8000081c	00000013	addi	x0,x0,0	  x0:0x00000000
       54885000	      5487	80000820	eb694a13	xori	x20,x18,-330	 x18:0x800030b4 x20=0x7fffce02
       54895000	      5488	80000824	41eed533	sra	x10,x29,x30	 x29:0x00000000 x30:0x00000000 x10=0x00000000
       54905000	      5489	80000828	0073c633	xor	x12,x7,x7	  x7:0x00000000  x7:0x00000000 x12=0x00000000
       54915000	      5490	8000082c	03a16a63	bltu	x2,x26,80000860	  x2:0x00000000 x26:0x80009fc4
       54925000	      5491	00000000	00000013	addi	x0,x0,0	  x0:0x00000000
       54935000	      5492	8000085c	00000013	addi	x0,x0,0	  x0:0x00000000
       54945000	      5493	80000860	4037d8b3	sra	x17,x15,x3	 x15:0xffffffff  x3:0x00000000 x17=0xffffffff
       54955000	      5494	80000864	00000013	addi	x0,x0,0	  x0:0x00000000
       54965000	      5495	80000868	001a7863	bgeu	x20,x1,80000878	 x20:0x7fffce02  x1:0x00000424
       54975000	      5496	00000000	00000013	addi	x0,x0,0	  x0:0x00000000
       54985000	      5497	80000874	00000013	addi	x0,x0,0	  x0:0x00000000
       54995000	      5498	80000878	05005463	bge	x0,x16,800008c0	  x0:0x00000000 x16:0x00000000
       55005000	      5499	00000000	00000013	addi	x0,x0,0	  x0:0x00000000
       55015000	      5500	800008bc	00000013	addi	x0,x0,0	  x0:0x00000000
       55025000	      5501	800008c0	003e1193	slli	x3,x28,0x3	 x28:0xffffffcc  x3=0xfffffe60
       55035000	      5502	800008c4	bfd8fc93	andi	x25,x17,-1027	 x17:0xffffffff x25=0xfffffbfd
       55045000	      5503	800008c8	89313c93	sltiu	x25,x2,-1901	  x2:0x00000000 x25=0x00000001
       55055000	      5504	800008cc	ceaa2c93	slti	x25,x20,-790	 x20:0x7fffce02 x25=0x00000000
       55065000	      5505	800008d0	00000013	addi	x0,x0,0	  x0:0x00000000
       55075000	      5506	800008d4	03b79c63	bne	x15,x27,8000090c	 x15:0xffffffff x27:0x80009f84
       55085000	      5507	00000000	00000013	addi	x0,x0,0	  x0:0x00000000
       55095000	      5508	80000908	00000013	addi	x0,x0,0	  x0:0x00000000
       55105000	      5509	8000090c	01996e33	or	x28,x18,x25	 x18:0x800030b4 x25:0x00000000 x28=0x800030b4
       55115000	      5510	80000910	001ffa63	bgeu	x31,x1,80000924	 x31:0x00000000  x1:0x00000424
       55125000	      5511	80000914	0072ea33	or	x20,x5,x7	  x5:0xfffffdf3  x7:0x00000000 x20=0xfffffdf3
       55135000	      5512	80000918	41f98c33	sub	x24,x19,x31	 x19:0x00000000 x31:0x00000000 x24=0x00000000
       55145000	      5513	8000091c	016b9093	slli	x1,x23,0x16	 x23:0x00000000  x1=0x00000000
       55155000	      5514	80000920	01d52b33	slt	x22,x10,x29	 x10:0x00000000 x29:0x00000000 x22=0x00000000
       55165000	      5515	80000924	049b0463	beq	x22,x9,8000096c	 x22:0x00000000  x9:0xefea5000
       55175000	      5516	80000928	01f528b3	slt	x17,x10,x31	 x10:0x00000000 x31:0x00000000 x17=0x00000000
       55185000	      5517	8000092c	03379e63	bne	x15,x19,80000968	 x15:0xffffffff x19:0x00000000
       55195000	      5518	00000000	00000013	addi	x0,x0,0	  x0:0x00000000
       55205000	      5519	80000964	00000013	addi	x0,x0,0	  x0:0x00000000
       55215000	      5520	80000968	010b4933	xor	x18,x22,x16	 x22:0x00000000 x16:0x00000000 x18=0x00000000
       55225000	      5521	8000096c	194dbb93	sltiu	x23,x27,404	 x27:0x80009f84 x23=0x00000000
       55235000	      5522	80000970	006e6633	or	x12,x28,x6	 x28:0x800030b4  x6:0x8000076c x12=0x800037fc
       55245000	      5523	80000974	40a25013	srai	x0,x4,0xa	  x4:0x00000000
       55255000	      5524	80000978	41725f33	sra	x30,x4,x23	  x4:0x00000000 x23:0x00000000 x30=0x00000000
       55265000	      5525	8000097c	033b9e63	bne	x23,x19,800009b8	 x23:0x00000000 x19:0x00000000
       55275000	      5526	80000980	05bb4063	blt	x22,x27,800009c0	 x22:0x00000000 x27:0x80009f84
       55285000	      5527	80000984	bdad2a93	slti	x21,x26,-1062	 x26:0x80009fc4 x21=0x00000001
       55295000	      5528	80000988	3f3c0493	addi	x9,x24,1011	 x24:0x00000000  x9=0x000003f3
       55305000	      5529	8000098c	03e77a63	bgeu	x14,x30,800009c0	 x14:0x00000001 x30:0x00000000
       55315000	      5530	00000000	00000013	addi	x0,x0,0	  x0:0x00000000
       55325000	      5531	800009bc	00000013	addi	x0,x0,0	  x0:0x00000000
       55335000	      5532	800009c0	016cd8b3	srl	x17,x25,x22	 x25:0x00000000 x22:0x00000000 x17=0x00000000
       55345000	      5533	800009c4	00d9da13	srli	x20,x19,0xd	 x19:0x00000000 x20=0x00000000
       55355000	      5534	800009c8	a6d68f93	addi	x31,x13,-1427	 x13:0x00006168 x31=0x00005bd5
       55365000	      5535	800009cc	0126cbb3	xor	x23,x13,x18	 x13:0x00006168 x18:0x00000000 x23=0x00006168
       55375000	      5536	800009d0	048be863	bltu	x23,x8,80000a20	 x23:0x00006168  x8:0x00000000
       55385000	      5537	800009d4	00000013	addi	x0,x0,0	  x0:0x00000000
       55395000	      5538	800009d8	6938ae93	slti	x29,x17,1683	 x17:0x00000000 x29=0x00000001
       55405000	      5539	800009dc	0022a0b3	slt	x1,x5,x2	  x5:0xfffffdf3  x2:0x00000000  x1=0x00000001
       55415000	      5540	800009e0	01765913	srli	x18,x12,0x17	 x12:0x800037fc x18=0x00000100
       55425000	      5541	800009e4	00000013	addi	x0,x0,0	  x0:0x00000000
       55435000	      5542	800009e8	00ee9463	bne	x29,x14,800009f0	 x29:0x00000001 x14:0x00000001
       55445000	      5543	800009ec	76518593	addi	x11,x3,1893	  x3:0xfffffe60 x11=0x000005c5
       55455000	      5544	800009f0	dfa4fa93	andi	x21,x9,-518	  x9:0x000003f3 x21=0x000001f2
       55465000	      5545	800009f4	019b6bb3	or	x23,x22,x25	 x22:0x00000000 x25:0x00000000 x23=0x00000000
       55475000	      5546	800009f8	01aa1a13	slli	x20,x20,0x1a	 x20:0x00000000 x20=0x00000000
       55485000	      5547	800009fc	000f8c63	beq	x31,x0,80000a14	 x31:0x00005bd5  x0:0x00000000
       55495000	      5548	80000a00	00579933	sll	x18,x15,x5	 x15:0xffffffff  x5:0xfffffdf3 x18=0xfff80000
       55505000	      5549	80000a04	00711533	sll	x10,x2,x7	  x2:0x00000000  x7:0x00000000 x10=0x00000000
       55515000	      5550	80000a08	ef2d5417	auipc	x8,0xef2d5	  x8=0x6f2d5a04
       55525000	      5551	80000a0c	01947433	and	x8,x8,x25	  x8:0x6f2d5a04 x25:0x00000000  x8=0x00000000
       55535000	      5552	80000a10	01459c63	bne	x11,x20,80000a28	 x11:0x000005c5 x20:0x00000000
       55545000	      5553	00000000	00000013	addi	x0,x0,0	  x0:0x00000000
       55555000	      5554	80000a24	00000013	addi	x0,x0,0	  x0:0x00000000
       55565000	      5555	80000a28	7995c713	xori	x14,x11,1945	 x11:0x000005c5 x14=0x0000025c
       55575000	      5556	80000a2c	01799f13	slli	x30,x19,0x17	 x19:0x00000000 x30=0x00000000
       55585000	      5557	80000a30	008239b3	sltu	x19,x4,x8	  x4:0x00000000  x8:0x00000000 x19=0x00000000
       55595000	      5558	80000a34	010f1663	bne	x30,x16,80000a40	 x30:0x00000000 x16:0x00000000
       55605000	      5559	80000a38	0044bf33	sltu	x30,x9,x4	  x9:0x000003f3  x4:0x00000000 x30=0x00000000
       55615000	      5560	80000a3c	00000013	addi	x0,x0,0	  x0:0x00000000
       55625000	      5561	80000a40	0120d793	srli	x15,x1,0x12	  x1:0x00000001 x15=0x00000000
       55635000	      5562	80000a44	00000013	addi	x0,x0,0	  x0:0x00000000
       55645000	      5563	80000a48	cb3dc913	xori	x18,x27,-845	 x27:0x80009f84 x18=0x7fff6337
       55655000	      5564	80000a4c	235196b7	lui	x13,0x23519	 x13=0x23519000
       55665000	      5565	80000a50	416dd713	srai	x14,x27,0x16	 x27:0x80009f84 x14=0xfffffe00
       55675000	      5566	80000a54	035b7663	bgeu	x22,x21,80000a80	 x22:0x00000000 x21:0x000001f2
       55685000	      5567	80000a58	017e5213	srli	x4,x28,0x17	 x28:0x800030b4  x4=0x00000100
       55695000	      5568	80000a5c	01902bb3	slt	x23,x0,x25	  x0:0x00000000 x25:0x00000000 x23=0x00000000
       55705000	      5569	80000a60	57702013	slti	x0,x0,1399	  x0:0x00000000
       55715000	      5570	80000a64	017610b3	sll	x1,x12,x23	 x12:0x800037fc x23:0x00000000  x1=0x800037fc
       55725000	      5571	80000a68	019148b3	xor	x17,x2,x25	  x2:0x00000000 x25:0x00000000 x17=0x00000000
       55735000	      5572	80000a6c	0050cfb3	xor	x31,x1,x5	  x1:0x800037fc  x5:0xfffffdf3 x31=0x7fffca0f
       55745000	      5573	80000a70	00000013	addi	x0,x0,0	  x0:0x00000000
       55755000	      5574	80000a74	41f65313	srai	x6,x12,0x1f	 x12:0x800037fc  x6=0xffffffff
       55765000	      5575	80000a78	3cab2913	slti	x18,x22,970	 x22:0x00000000 x18=0x00000001
       55775000	      5576	80000a7c	014d80b3	add	x1,x27,x20	 x27:0x80009f84 x20:0x00000000  x1=0x80009f84
       55785000	      5577	80000a80	0e3befb7	lui	x31,0xe3be	 x31=0x0e3be000
       55795000	      5578	80000a84	0025ee33	or	x28,x11,x2	 x11:0x000005c5  x2:0x00000000 x28=0x000005c5
       55805000	      5579	80000a88	08358e97	auipc	x29,0x8358	 x29=0x88358a84
       55815000	      5580	80000a8c	014497b3	sll	x15,x9,x20	  x9:0x000003f3 x20:0x00000000 x15=0x000003f3
       55825000	      5581	80000a90	8ffbef93	ori	x31,x23,-1793	 x23:0x00000000 x31=0xfffff8ff
       55835000	      5582	80000a94	41d60733	sub	x14,x12,x29	 x12:0x800037fc x29:0x88358a84 x14=0xf7caad78
       55845000	      5583	80000a98	01bc64b3	or	x9,x24,x27	 x24:0x00000000 x27:0x80009f84  x9=0x80009f84
       55855000	      5584	80000a9c	0012e1b3	or	x3,x5,x1	  x5:0xfffffdf3  x1:0x80009f84  x3=0xfffffff7
       55865000	      5585	80000aa0	05645463	bge	x8,x22,80000ae8	  x8:0x00000000 x22:0x00000000
       55875000	      5586	00000000	00000013	addi	x0,x0,0	  x0:0x00000000
       55885000	      5587	80000ae4	00000013	addi	x0,x0,0	  x0:0x00000000
       55895000	      5588	80000ae8	eb0c8993	addi	x19,x25,-336	 x25:0x00000000 x19=0xfffffeb0
       55905000	      5589	80000aec	41375813	srai	x16,x14,0x13	 x14:0xf7caad78 x16=0xfffffef9
       55915000	      5590	80000af0	0165ceb3	xor	x29,x11,x22	 x11:0x000005c5 x22:0x00000000 x29=0x000005c5
       55925000	      5591	80000af4	f4600493	addi	x9,x0,-186	  x0:0x00000000  x9=0xffffff46
       55935000	      5592	80000af8	005c4263	blt	x24,x5,80000afc	 x24:0x00000000  x5:0xfffffdf3
       55945000	      5593	80000afc	00df5b13	srli	x22,x30,0xd	 x30:0x00000000 x22=0x00000000
       55955000	      5594	80000b00	45a67193	andi	x3,x12,1114	 x12:0x800037fc  x3=0x00000458
       55965000	      5595	80000b04	408d8733	sub	x14,x27,x8	 x27:0x80009f84  x8:0x00000000 x14=0x80009f84
       55975000	      5596	80000b08	3a8098b7	lui	x17,0x3a809	 x17=0x3a809000
       55985000	      5597	80000b0c	00371013	slli	x0,x14,0x3	 x14:0x80009f84
       55995000	      5598	80000b10	0131b6b3	sltu	x13,x3,x19	  x3:0x00000458 x19:0xfffffeb0 x13=0x00000001
       56005000	      5599	80000b14	003262b3	or	x5,x4,x3	  x4:0x00000100  x3:0x00000458  x5=0x00000558
       56015000	      5600	80000b18	415e5793	srai	x15,x28,0x15	 x28:0x000005c5 x15=0x00000000
       56025000	      5601	80000b1c	00ee63b3	or	x7,x28,x14	 x28:0x000005c5 x14:0x80009f84  x7=0x80009fc5
       56035000	      5602	80000b20	00dda8b3	slt	x17,x27,x13	 x27:0x80009f84 x13:0x00000001 x17=0x00000001
       56045000	      5603	80000b24	00ef9493	slli	x9,x31,0xe	 x31:0xfffff8ff  x9=0xfe3fc000
       56055000	      5604	80000b28	00000013	addi	x0,x0,0	  x0:0x00000000
       56065000	      5605	80000b2c	0184c533	xor	x10,x9,x24	  x9:0xfe3fc000 x24:0x00000000 x10=0xfe3fc000
       56075000	      5606	80000b30	004a9eb3	sll	x29,x21,x4	 x21:0x000001f2  x4:0x00000100 x29=0x000001f2
       56085000	      5607	80000b34	00a10f33	add	x30,x2,x10	  x2:0x00000000 x10:0xfe3fc000 x30=0xfe3fc000
       56095000	      5608	80000b38	da474913	xori	x18,x14,-604	 x14:0x80009f84 x18=0x7fff6220
       56105000	      5609	80000b3c	012dea33	or	x20,x27,x18	 x27:0x80009f84 x18:0x7fff6220 x20=0xffffffa4
       56115000	      5610	80000b40	01ee86b3	add	x13,x29,x30	 x29:0x000001f2 x30:0xfe3fc000 x13=0xfe3fc1f2
       56125000	      5611	80000b44	01e2f863	bgeu	x5,x30,80000b54	  x5:0x00000558 x30:0xfe3fc000
       56135000	      5612	80000b48	41c88733	sub	x14,x17,x28	 x17:0x00000001 x28:0x000005c5 x14=0xfffffa3c
       56145000	      5613	80000b4c	03fbdc63	bge	x23,x31,80000b84	 x23:0x00000000 x31:0xfffff8ff
       56155000	      5614	00000000	00000013	addi	x0,x0,0	  x0:0x00000000
       56165000	      5615	80000b80	00000013	addi	x0,x0,0	  x0:0x00000000
       56175000	      5616	80000b84	00279e33	sll	x28,x15,x2	 x15:0x00000000  x2:0x00000000 x28=0x00000000
       56185000	      5617	80000b88	00fee3b3	or	x7,x29,x15	 x29:0x000001f2 x15:0x00000000  x7=0x000001f2
       56195000	      5618	80000b8c	013cd213	srli	x4,x25,0x13	 x25:0x00000000  x4=0x00000000
       56205000	      5619	80000b90	011f8233	add	x4,x31,x17	 x31:0xfffff8ff x17:0x00000001  x4=0xfffff900
       56215000	      5620	80000b94	4ae97eb7	lui	x29,0x4ae97	 x29=0x4ae97000
       56225000	      5621	80000b98	cb593497	auipc	x9,0xcb593	  x9=0x4b593b94
       56235000	      5622	80000b9c	40df58b3	sra	x17,x30,x13	 x30:0xfe3fc000 x13:0xfe3fc1f2 x17=0xffffff8f
       56245000	      5623	80000ba0	01f9ec33	or	x24,x19,x31	 x19:0xfffffeb0 x31:0xfffff8ff x24=0xfffffeff
       56255000	      5624	80000ba4	dea87913	andi	x18,x16,-534	 x16:0xfffffef9 x18=0xfffffce8
       56265000	      5625	80000ba8	94d4c837	lui	x16,0x94d4c	 x16=0x94d4c000
       56275000	      5626	80000bac	0020f663	bgeu	x1,x2,80000bb8	  x1:0x80009f84  x2:0x00000000
       56285000	      5627	00000000	00000013	addi	x0,x0,0	  x0:0x00000000
       56295000	      5628	80000bb4	00000013	addi	x0,x0,0	  x0:0x00000000
       56305000	      5629	80000bb8	019fd693	srli	x13,x31,0x19	 x31:0xfffff8ff x13=0x0000007f
       56315000	      5630	80000bbc	40e85e13	srai	x28,x16,0xe	 x16:0x94d4c000 x28=0xfffe5353
       56325000	      5631	80000bc0	0173df93	srli	x31,x7,0x17	  x7:0x000001f2 x31=0x00000000
       56335000	      5632	80000bc4	5e4e0893	addi	x17,x28,1508	 x28:0xfffe5353 x17=0xfffe5937
       56345000	      5633	80000bc8	0d2c1463	bne	x24,x18,80000c90	 x24:0xfffffeff x18:0xfffffce8
       56355000	      5634	00000000	00000013	addi	x0,x0,0	  x0:0x00000000
       56365000	      5635	80000c8c	00000013	addi	x0,x0,0	  x0:0x00000000
       56375000	      5636	80000c90	010a5213	srli	x4,x20,0x10	 x20:0xffffffa4  x4=0x0000ffff
       56385000	      5637	80000c94	006babb3	slt	x23,x23,x6	 x23:0x00000000  x6:0xffffffff x23=0x00000000
       56395000	      5638	80000c98	0035d033	srl	x0,x11,x3	 x11:0x000005c5  x3:0x00000458
       56405000	      5639	80000c9c	e7b0c013	xori	x0,x1,-389	  x1:0x80009f84
       56415000	      5640	80000ca0	ea94cc93	xori	x25,x9,-343	  x9:0x4b593b94 x25=0xb4a6c53d
       56425000	      5641	80000ca4	00dcf863	bgeu	x25,x13,80000cb4	 x25:0xb4a6c53d x13:0x0000007f
       56435000	      5642	00000000	00000013	addi	x0,x0,0	  x0:0x00000000
       56445000	      5643	80000cb0	00000013	addi	x0,x0,0	  x0:0x00000000
       56455000	      5644	80000cb4	0587e463	bltu	x15,x24,80000cfc	 x15:0x00000000 x24:0xfffffeff
       56465000	      5645	00000000	00000013	addi	x0,x0,0	  x0:0x00000000
       56475000	      5646	80000cf8	00000013	addi	x0,x0,0	  x0:0x00000000
       56485000	      5647	80000cfc	00e41313	slli	x6,x8,0xe	  x8:0x00000000  x6=0x00000000
       56495000	      5648	80000d00	02c0036f	jal	x6,80000d00	  x6=0x80000d00
       56505000	      5649	00000000	00000013	addi	x0,x0,0	  x0:0x00000000
       56515000	      5650	80000d28	00000013	addi	x0,x0,0	  x0:0x00000000
       56525000	      5651	80000d2c	ff5fffef	jal	x31,80000d2c	 x31=0x80000d2c
       56535000	      5652	00000000	00000013	addi	x0,x0,0	  x0:0x00000000
       56545000	      5653	80000d1c	00000013	addi	x0,x0,0	  x0:0x00000000
       56555000	      5654	80000d20	0040036f	jal	x6,80000d20	  x6=0x80000d20
       56565000	      5655	00000000	00000013	addi	x0,x0,0	  x0:0x00000000
       56575000	      5656	80000d20	00000013	addi	x0,x0,0	  x0:0x00000000
       56585000	      5657	80000d24	fe5ff36f	jal	x6,80000d24	  x6=0x80000d24
       56595000	      5658	00000000	00000013	addi	x0,x0,0	  x0:0x00000000
       56605000	      5659	80000d04	00000013	addi	x0,x0,0	  x0:0x00000000
       56615000	      5660	80000d08	008000ef	jal	x1,80000d08	  x1=0x80000d08
       56625000	      5661	00000000	00000013	addi	x0,x0,0	  x0:0x00000000
       56635000	      5662	80000d0c	00000013	addi	x0,x0,0	  x0:0x00000000
       56645000	      5663	80000d10	01800eef	jal	x29,80000d10	 x29=0x80000d10
       56655000	      5664	00000000	00000013	addi	x0,x0,0	  x0:0x00000000
       56665000	      5665	80000d24	00000013	addi	x0,x0,0	  x0:0x00000000
       56675000	      5666	80000d28	fe5ffc6f	jal	x24,80000d28	 x24=0x80000d28
       56685000	      5667	00000000	00000013	addi	x0,x0,0	  x0:0x00000000
       56695000	      5668	80000d08	00000013	addi	x0,x0,0	  x0:0x00000000
       56705000	      5669	80000d0c	024000ef	jal	x1,80000d0c	  x1=0x80000d0c
       56715000	      5670	00000000	00000013	addi	x0,x0,0	  x0:0x00000000
       56725000	      5671	80000d2c	00000013	addi	x0,x0,0	  x0:0x00000000
       56735000	      5672	80000d30	004000ef	jal	x1,80000d30	  x1=0x80000d30
       56745000	      5673	00000000	00000013	addi	x0,x0,0	  x0:0x00000000
       56755000	      5674	80000d30	00000013	addi	x0,x0,0	  x0:0x00000000
       56765000	      5675	80000d34	fd1ff0ef	jal	x1,80000d34	  x1=0x80000d34
       56775000	      5676	00000000	00000013	addi	x0,x0,0	  x0:0x00000000
       56785000	      5677	80000d00	00000013	addi	x0,x0,0	  x0:0x00000000
       56795000	      5678	80000d04	010000ef	jal	x1,80000d04	  x1=0x80000d04
       56805000	      5679	00000000	00000013	addi	x0,x0,0	  x0:0x00000000
       56815000	      5680	80000d10	00000013	addi	x0,x0,0	  x0:0x00000000
       56825000	      5681	80000d14	0080036f	jal	x6,80000d14	  x6=0x80000d14
       56835000	      5682	00000000	00000013	addi	x0,x0,0	  x0:0x00000000
       56845000	      5683	80000d18	00000013	addi	x0,x0,0	  x0:0x00000000
       56855000	      5684	80000d1c	ffdff36f	jal	x6,80000d1c	  x6=0x80000d1c
       56865000	      5685	00000000	00000013	addi	x0,x0,0	  x0:0x00000000
       56875000	      5686	80000d14	00000013	addi	x0,x0,0	  x0:0x00000000
       56885000	      5687	80000d18	020000ef	jal	x1,80000d18	  x1=0x80000d18
       56895000	      5688	00000000	00000013	addi	x0,x0,0	  x0:0x00000000
       56905000	      5689	80000d34	00000013	addi	x0,x0,0	  x0:0x00000000
       56915000	      5690	80000d38	00400e6f	jal	x28,80000d38	 x28=0x80000d38
       56925000	      5691	00000000	00000013	addi	x0,x0,0	  x0:0x00000000
       56935000	      5692	80000d38	00000013	addi	x0,x0,0	  x0:0x00000000
       56945000	      5693	80000d3c	00c2ccb3	xor	x25,x5,x12	  x5:0x00000558 x12:0x800037fc x25=0x800032a4
       56955000	      5694	80000d40	014ffe33	and	x28,x31,x20	 x31:0x80000d2c x20:0xffffffa4 x28=0x80000d24
       56965000	      5695	80000d44	00c51193	slli	x3,x10,0xc	 x10:0xfe3fc000  x3=0xfc000000
       56975000	      5696	80000d48	035e1263	bne	x28,x21,80000d6c	 x28:0x80000d24 x21:0x000001f2
       56985000	      5697	00000000	00000013	addi	x0,x0,0	  x0:0x00000000
       56995000	      5698	80000d68	00000013	addi	x0,x0,0	  x0:0x00000000
       57005000	      5699	80000d6c	009292b3	sll	x5,x5,x9	  x5:0x00000558  x9:0x4b593b94  x5=0x55800000
       57015000	      5700	80000d70	00a51e13	slli	x28,x10,0xa	 x10:0xfe3fc000 x28=0xff000000
       57025000	      5701	80000d74	b7673393	sltiu	x7,x14,-1162	 x14:0xfffffa3c  x7=0x00000001
       57035000	      5702	80000d78	7d5395b7	lui	x11,0x7d539	 x11=0x7d539000
       57045000	      5703	80000d7c	012c3733	sltu	x14,x24,x18	 x24:0x80000d28 x18:0xfffffce8 x14=0x00000001
       57055000	      5704	80000d80	010be833	or	x16,x23,x16	 x23:0x00000000 x16:0x94d4c000 x16=0x94d4c000
       57065000	      5705	80000d84	016c6233	or	x4,x24,x22	 x24:0x80000d28 x22:0x00000000  x4=0x80000d28
       57075000	      5706	80000d88	f2198513	addi	x10,x19,-223	 x19:0xfffffeb0 x10=0xfffffdd1
       57085000	      5707	80000d8c	2d2b2b13	slti	x22,x22,722	 x22:0x00000000 x22=0x00000001
       57095000	      5708	80000d90	00a39e33	sll	x28,x7,x10	  x7:0x00000001 x10:0xfffffdd1 x28=0x00020000
       57105000	      5709	80000d94	7f7b9837	lui	x16,0x7f7b9	 x16=0x7f7b9000
       57115000	      5710	80000d98	f8b10893	addi	x17,x2,-117	  x2:0x00000000 x17=0xffffff8b
       57125000	      5711	80000d9c	40655633	sra	x12,x10,x6	 x10:0xfffffdd1  x6:0x80000d1c x12=0xffffffff
       57135000	      5712	80000da0	da9e8213	addi	x4,x29,-599	 x29:0x80000d10  x4=0x80000ab9
       57145000	      5713	80000da4	04648863	beq	x9,x6,80000df4	  x9:0x4b593b94  x6:0x80000d1c
       57155000	      5714	80000da8	00e332b3	sltu	x5,x6,x14	  x6:0x80000d1c x14:0x00000001  x5=0x00000000
       57165000	      5715	80000dac	0ba8c713	xori	x14,x17,186	 x17:0xffffff8b x14=0xffffff31
       57175000	      5716	80000db0	af3be313	ori	x6,x23,-1293	 x23:0x00000000  x6=0xfffffaf3
       57185000	      5717	80000db4	0058ecb3	or	x25,x17,x5	 x17:0xffffff8b  x5:0x00000000 x25=0xffffff8b
       57195000	      5718	80000db8	02604a63	blt	x0,x6,80000dec	  x0:0x00000000  x6:0xfffffaf3
       57205000	      5719	80000dbc	011e05b3	add	x11,x28,x17	 x28:0x00020000 x17:0xffffff8b x11=0x0001ff8b
       57215000	      5720	80000dc0	01c0ba33	sltu	x20,x1,x28	  x1:0x80000d18 x28:0x00020000 x20=0x00000000
       57225000	      5721	80000dc4	26eefe17	auipc	x28,0x26eef	 x28=0xa6eefdc0
       57235000	      5722	80000dc8	018d62b3	or	x5,x26,x24	 x26:0x80009fc4 x24:0x80000d28  x5=0x80009fec
       57245000	      5723	80000dcc	00e0fa63	bgeu	x1,x14,80000de0	  x1:0x80000d18 x14:0xffffff31
       57255000	      5724	80000dd0	01260433	add	x8,x12,x18	 x12:0xffffffff x18:0xfffffce8  x8=0xfffffce7
       57265000	      5725	80000dd4	00cdc2b3	xor	x5,x27,x12	 x27:0x80009f84 x12:0xffffffff  x5=0x7fff607b
       57275000	      5726	80000dd8	01a99bb3	sll	x23,x19,x26	 x19:0xfffffeb0 x26:0x80009fc4 x23=0xffffeb00
       57285000	      5727	80000ddc	0316ce63	blt	x13,x17,80000e18	 x13:0x0000007f x17:0xffffff8b
       57295000	      5728	80000de0	013bc7b3	xor	x15,x23,x19	 x23:0xffffeb00 x19:0xfffffeb0 x15=0x000015b0
       57305000	      5729	80000de4	04bc7663	bgeu	x24,x11,80000e30	 x24:0x80000d28 x11:0x0001ff8b
       57315000	      5730	00000000	00000013	addi	x0,x0,0	  x0:0x00000000
       57325000	      5731	80000e2c	00000013	addi	x0,x0,0	  x0:0x00000000
       57335000	      5732	80000e30	00519f93	slli	x31,x3,0x5	  x3:0xfc000000 x31=0x80000000
       57345000	      5733	80000e34	00f27ab3	and	x21,x4,x15	  x4:0x80000ab9 x15:0x000015b0 x21=0x000000b0
       57355000	      5734	80000e38	0165d3b3	srl	x7,x11,x22	 x11:0x0001ff8b x22:0x00000001  x7=0x0000ffc5
       57365000	      5735	80000e3c	8bb874b7	lui	x9,0x8bb87	  x9=0x8bb87000
       57375000	      5736	80000e40	00fd57b3	srl	x15,x26,x15	 x26:0x80009fc4 x15:0x000015b0 x15=0x00008000
       57385000	      5737	80000e44	04535663	bge	x6,x5,80000e90	  x6:0xfffffaf3  x5:0x7fff607b
       57395000	      5738	80000e48	01921393	slli	x7,x4,0x19	  x4:0x80000ab9  x7=0x72000000
       57405000	      5739	80000e4c	00d9f6b3	and	x13,x19,x13	 x19:0xfffffeb0 x13:0x0000007f x13=0x00000030
       57415000	      5740	80000e50	01e45213	srli	x4,x8,0x1e	  x8:0xfffffce7  x4=0x00000003
       57425000	      5741	80000e54	0129d663	bge	x19,x18,80000e60	 x19:0xfffffeb0 x18:0xfffffce8
       57435000	      5742	00000000	00000013	addi	x0,x0,0	  x0:0x00000000
       57445000	      5743	80000e5c	00000013	addi	x0,x0,0	  x0:0x00000000
       57455000	      5744	80000e60	03c01c63	bne	x0,x28,80000e98	  x0:0x00000000 x28:0xa6eefdc0
       57465000	      5745	00000000	00000013	addi	x0,x0,0	  x0:0x00000000
       57475000	      5746	80000e94	00000013	addi	x0,x0,0	  x0:0x00000000
       57485000	      5747	80000e98	00a273b3	and	x7,x4,x10	  x4:0x00000003 x10:0xfffffdd1  x7=0x00000001
       57495000	      5748	80000e9c	4aa9e397	auipc	x7,0x4aa9e	  x7=0xcaa9ee98
       57505000	      5749	80000ea0	403c5933	sra	x18,x24,x3	 x24:0x80000d28  x3:0xfc000000 x18=0x80000d28
       57515000	      5750	80000ea4	00000013	addi	x0,x0,0	  x0:0x00000000
       57525000	      5751	80000ea8	00000013	addi	x0,x0,0	  x0:0x00000000
       57535000	      5752	80000eac	88c21b97	auipc	x23,0x88c21	 x23=0x08c21ea8
       57545000	      5753	80000eb0	a5187313	andi	x6,x16,-1455	 x16:0x7f7b9000  x6=0x7f7b9000
       57555000	      5754	80000eb4	046a8863	beq	x21,x6,80000f04	 x21:0x000000b0  x6:0x7f7b9000
       57565000	      5755	80000eb8	ca4a3213	sltiu	x4,x20,-860	 x20:0x00000000  x4=0x00000001
       57575000	      5756	80000ebc	0008d0b3	srl	x1,x17,x0	 x17:0xffffff8b  x0:0x00000000  x1=0xffffff8b
       57585000	      5757	80000ec0	0195ec63	bltu	x11,x25,80000ed8	 x11:0x0001ff8b x25:0xffffff8b
       57595000	      5758	00000000	00000013	addi	x0,x0,0	  x0:0x00000000
       57605000	      5759	80000ed4	00000013	addi	x0,x0,0	  x0:0x00000000
       57615000	      5760	80000ed8	05e4c463	blt	x9,x30,80000f20	  x9:0x8bb87000 x30:0xfe3fc000
       57625000	      5761	00000000	00000013	addi	x0,x0,0	  x0:0x00000000
       57635000	      5762	80000f1c	00000013	addi	x0,x0,0	  x0:0x00000000
       57645000	      5763	80000f20	00dd9993	slli	x19,x27,0xd	 x27:0x80009f84 x19=0x13f08000
       57655000	      5764	80000f24	0070e533	or	x10,x1,x7	  x1:0xffffff8b  x7:0xcaa9ee98 x10=0xffffff9b
       57665000	      5765	80000f28	cf5514b7	lui	x9,0xcf551	  x9=0xcf551000
       57675000	      5766	80000f2c	a326cf13	xori	x30,x13,-1486	 x13:0x00000030 x30=0xfffffa02
       57685000	      5767	80000f30	017da5b3	slt	x11,x27,x23	 x27:0x80009f84 x23:0x08c21ea8 x11=0x00000001
       57695000	      5768	80000f34	00000013	addi	x0,x0,0	  x0:0x00000000
       57705000	      5769	80000f38	008639b3	sltu	x19,x12,x8	 x12:0xffffffff  x8:0xfffffce7 x19=0x00000000
       57715000	      5770	80000f3c	00f57f33	and	x30,x10,x15	 x10:0xffffff9b x15:0x00008000 x30=0x00008000
       57725000	      5771	80000f40	03059a63	bne	x11,x16,80000f74	 x11:0x00000001 x16:0x7f7b9000
       57735000	      5772	00000000	00000013	addi	x0,x0,0	  x0:0x00000000
       57745000	      5773	80000f70	00000013	addi	x0,x0,0	  x0:0x00000000
       57755000	      5774	80000f74	003aab33	slt	x22,x21,x3	 x21:0x000000b0  x3:0xfc000000 x22=0x00000000
       57765000	      5775	80000f78	75d5f793	andi	x15,x11,1885	 x11:0x00000001 x15=0x00000001
       57775000	      5776	80000f7c	00d21e33	sll	x28,x4,x13	  x4:0x00000001 x13:0x00000030 x28=0x00010000
       57785000	      5777	80000f80	0f2dac13	slti	x24,x27,242	 x27:0x80009f84 x24=0x00000001
       57795000	      5778	80000f84	00536a63	bltu	x6,x5,80000f98	  x6:0x7f7b9000  x5:0x7fff607b
       57805000	      5779	00000000	00000013	addi	x0,x0,0	  x0:0x00000000
       57815000	      5780	80000f94	00000013	addi	x0,x0,0	  x0:0x00000000
       57825000	      5781	80000f98	01147463	bgeu	x8,x17,80000fa0	  x8:0xfffffce7 x17:0xffffff8b
       57835000	      5782	80000f9c	01cbd193	srli	x3,x23,0x1c	 x23:0x08c21ea8  x3=0x00000000
       57845000	      5783	80000fa0	9d6bc793	xori	x15,x23,-1578	 x23:0x08c21ea8 x15=0xf73de77e
       57855000	      5784	80000fa4	40c15933	sra	x18,x2,x12	  x2:0x00000000 x12:0xffffffff x18=0x00000000
       57865000	      5785	80000fa8	dd4f6797	auipc	x15,0xdd4f6	 x15=0x5d4f6fa4
       57875000	      5786	80000fac	001a9913	slli	x18,x21,0x1	 x21:0x000000b0 x18=0x00000160
       57885000	      5787	80000fb0	48323993	sltiu	x19,x4,1155	  x4:0x00000001 x19=0x00000001
       57895000	      5788	80000fb4	e8d54e17	auipc	x28,0xe8d54	 x28=0x68d54fb0
       57905000	      5789	80000fb8	abbeaa13	slti	x20,x29,-1349	 x29:0x80000d10 x20=0x00000001
       57915000	      5790	80000fbc	01e2b433	sltu	x8,x5,x30	  x5:0x7fff607b x30:0x00008000  x8=0x00000000
       57925000	      5791	80000fc0	01e8c8b3	xor	x17,x17,x30	 x17:0xffffff8b x30:0x00008000 x17=0xffff7f8b
       57935000	      5792	80000fc4	6a52cf13	xori	x30,x5,1701	  x5:0x7fff607b x30=0x7fff66de
       57945000	      5793	80000fc8	1e01f593	andi	x11,x3,480	  x3:0x00000000 x11=0x00000000
       57955000	      5794	80000fcc	02665a63	bge	x12,x6,80001000	 x12:0xffffffff  x6:0x7f7b9000
       57965000	      5795	80000fd0	9ee5e393	ori	x7,x11,-1554	 x11:0x00000000  x7=0xfffff9ee
       57975000	      5796	80000fd4	0abc08b7	lui	x17,0xabc0	 x17=0x0abc0000
       57985000	      5797	80000fd8	40435193	srai	x3,x6,0x4	  x6:0x7f7b9000  x3=0x07f7b900
       57995000	      5798	80000fdc	0d552993	slti	x19,x10,213	 x10:0xffffff9b x19=0x00000001
       58005000	      5799	80000fe0	0110beb3	sltu	x29,x1,x17	  x1:0xffffff8b x17:0x0abc0000 x29=0x00000000
       58015000	      5800	80000fe4	b455a693	slti	x13,x11,-1211	 x11:0x00000000 x13=0x00000000
       58025000	      5801	80000fe8	ec5640b7	lui	x1,0xec564	  x1=0xec564000
       58035000	      5802	80000fec	00000013	addi	x0,x0,0	  x0:0x00000000
       58045000	      5803	80000ff0	012c60b3	or	x1,x24,x18	 x24:0x00000001 x18:0x00000160  x1=0x00000161
       58055000	      5804	80000ff4	64f0b793	sltiu	x15,x1,1615	  x1:0x00000161 x15=0x00000001
       58065000	      5805	80000ff8	007352b3	srl	x5,x6,x7	  x6:0x7f7b9000  x7:0xfffff9ee  x5=0x0001fdee
       58075000	      5806	80000ffc	408dd9b3	sra	x19,x27,x8	 x27:0x80009f84  x8:0x00000000 x19=0x80009f84
       58085000	      5807	80001000	40010c33	sub	x24,x2,x0	  x2:0x00000000  x0:0x00000000 x24=0x00000000
       58095000	      5808	80001004	40740533	sub	x10,x8,x7	  x8:0x00000000  x7:0xfffff9ee x10=0x00000612
       58105000	      5809	80001008	03430263	beq	x6,x20,8000102c	  x6:0x7f7b9000 x20:0x00000001
       58115000	      5810	8000100c	00901f33	sll	x30,x0,x9	  x0:0x00000000  x9:0xcf551000 x30=0x00000000
       58125000	      5811	80001010	032fde63	bge	x31,x18,8000104c	 x31:0x80000000 x18:0x00000160
       58135000	      5812	80001014	039c7b13	andi	x22,x24,57	 x24:0x00000000 x22=0x00000000
       58145000	      5813	80001018	2149aa13	slti	x20,x19,532	 x19:0x80009f84 x20=0x00000001
       58155000	      5814	8000101c	00935463	bge	x6,x9,80001024	  x6:0x7f7b9000  x9:0xcf551000
       58165000	      5815	00000000	00000013	addi	x0,x0,0	  x0:0x00000000
       58175000	      5816	80001020	00000013	addi	x0,x0,0	  x0:0x00000000
       58185000	      5817	80001024	026af663	bgeu	x21,x6,80001050	 x21:0x000000b0  x6:0x7f7b9000
       58195000	      5818	80001028	40e6d013	srai	x0,x13,0xe	 x13:0x00000000
       58205000	      5819	8000102c	0743ebb7	lui	x23,0x743e	 x23=0x0743e000
       58215000	      5820	80001030	fdcfb393	sltiu	x7,x31,-36	 x31:0x80000000  x7=0x00000001
       58225000	      5821	80001034	00796333	or	x6,x18,x7	 x18:0x00000160  x7:0x00000001  x6=0x00000161
       58235000	      5822	80001038	003273b3	and	x7,x4,x3	  x4:0x00000001  x3:0x07f7b900  x7=0x00000000
       58245000	      5823	8000103c	cfdf2317	auipc	x6,0xcfdf2	  x6=0x4fdf3038
       58255000	      5824	80001040	01165c33	srl	x24,x12,x17	 x12:0xffffffff x17:0x0abc0000 x24=0xffffffff
       58265000	      5825	80001044	914f0693	addi	x13,x30,-1772	 x30:0x00000000 x13=0xfffff914
       58275000	      5826	80001048	0103d9b3	srl	x19,x7,x16	  x7:0x00000000 x16:0x7f7b9000 x19=0x00000000
       58285000	      5827	8000104c	01aadb33	srl	x22,x21,x26	 x21:0x000000b0 x26:0x80009fc4 x22=0x0000000b
       58295000	      5828	80001050	40e4da93	srai	x21,x9,0xe	  x9:0xcf551000 x21=0xffff3d54
       58305000	      5829	80001054	4003d1b3	sra	x3,x7,x0	  x7:0x00000000  x0:0x00000000  x3=0x00000000
       58315000	      5830	80001058	01d78263	beq	x15,x29,8000105c	 x15:0x00000001 x29:0x00000000
       58325000	      5831	8000105c	e074b713	sltiu	x14,x9,-505	  x9:0xcf551000 x14=0x00000001
       58335000	      5832	80001060	41775713	srai	x14,x14,0x17	 x14:0x00000001 x14=0x00000000
       58345000	      5833	80001064	0140ce63	blt	x1,x20,80001080	  x1:0x00000161 x20:0x00000001
       58355000	      5834	80001068	f1566613	ori	x12,x12,-235	 x12:0xffffffff x12=0xffffffff
       58365000	      5835	8000106c	008b6c33	or	x24,x22,x8	 x22:0x0000000b  x8:0x00000000 x24=0x0000000b
       58375000	      5836	80001070	008f7233	and	x4,x30,x8	 x30:0x00000000  x8:0x00000000  x4=0x00000000
       58385000	      5837	80001074	01bb8463	beq	x23,x27,8000107c	 x23:0x0743e000 x27:0x80009f84
       58395000	      5838	80001078	00abfa33	and	x20,x23,x10	 x23:0x0743e000 x10:0x00000612 x20=0x00000000
       58405000	      5839	8000107c	61eaa793	slti	x15,x21,1566	 x21:0xffff3d54 x15=0x00000001
       58415000	      5840	80001080	03cc7e63	bgeu	x24,x28,800010bc	 x24:0x0000000b x28:0x68d54fb0
       58425000	      5841	80001084	4c157193	andi	x3,x10,1217	 x10:0x00000612  x3=0x00000400
       58435000	      5842	80001088	ad494713	xori	x14,x18,-1324	 x18:0x00000160 x14=0xfffffbb4
       58445000	      5843	8000108c	0158deb3	srl	x29,x17,x21	 x17:0x0abc0000 x21:0xffff3d54 x29=0x000000ab
       58455000	      5844	80001090	05bbe663	bltu	x23,x27,800010dc	 x23:0x0743e000 x27:0x80009f84
       58465000	      5845	00000000	00000013	addi	x0,x0,0	  x0:0x00000000
       58475000	      5846	800010d8	00000013	addi	x0,x0,0	  x0:0x00000000
       58485000	      5847	800010dc	006bd413	srli	x8,x23,0x6	 x23:0x0743e000  x8=0x001d0f80
       58495000	      5848	800010e0	b7926e13	ori	x28,x4,-1159	  x4:0x00000000 x28=0xfffffb79
       58505000	      5849	800010e4	017387b3	add	x15,x7,x23	  x7:0x00000000 x23:0x0743e000 x15=0x0743e000
       58515000	      5850	800010e8	00000013	addi	x0,x0,0	  x0:0x00000000
       58525000	      5851	800010ec	c1230f13	addi	x30,x6,-1006	  x6:0x4fdf3038 x30=0x4fdf2c4a
       58535000	      5852	800010f0	b3bdb913	sltiu	x18,x27,-1221	 x27:0x80009f84 x18=0x00000001
       58545000	      5853	800010f4	efa92593	slti	x11,x18,-262	 x18:0x00000001 x11=0x00000000
       58555000	      5854	800010f8	01e6a0b3	slt	x1,x13,x30	 x13:0xfffff914 x30:0x4fdf2c4a  x1=0x00000001
       58565000	      5855	800010fc	1a2521b7	lui	x3,0x1a252	  x3=0x1a252000
       58575000	      5856	80001100	032b7263	bgeu	x22,x18,80001124	 x22:0x0000000b x18:0x00000001
       58585000	      5857	00000000	00000013	addi	x0,x0,0	  x0:0x00000000
       58595000	      5858	80001120	00000013	addi	x0,x0,0	  x0:0x00000000
       58605000	      5859	80001124	00000013	addi	x0,x0,0	  x0:0x00000000
       58615000	      5860	80001128	c3b04a13	xori	x20,x0,-965	  x0:0x00000000 x20=0xfffffc3b
       58625000	      5861	8000112c	01a12a33	slt	x20,x2,x26	  x2:0x00000000 x26:0x80009fc4 x20=0x00000000
       58635000	      5862	80001130	000db8b3	sltu	x17,x27,x0	 x27:0x80009f84  x0:0x00000000 x17=0x00000000
       58645000	      5863	80001134	0161a033	slt	x0,x3,x22	  x3:0x1a252000 x22:0x0000000b
       58655000	      5864	80001138	00f27663	bgeu	x4,x15,80001144	  x4:0x00000000 x15:0x0743e000
       58665000	      5865	8000113c	0062e463	bltu	x5,x6,80001144	  x5:0x0001fdee  x6:0x4fdf3038
       58675000	      5866	00000000	00000013	addi	x0,x0,0	  x0:0x00000000
       58685000	      5867	80001140	00000013	addi	x0,x0,0	  x0:0x00000000
       58695000	      5868	80001144	e013fe13	andi	x28,x7,-511	  x7:0x00000000 x28=0x00000000
       58705000	      5869	80001148	001405b3	add	x11,x8,x1	  x8:0x001d0f80  x1:0x00000001 x11=0x001d0f81
       58715000	      5870	8000114c	02528463	beq	x5,x5,80001174	  x5:0x0001fdee  x5:0x0001fdee
       58725000	      5871	00000000	00000013	addi	x0,x0,0	  x0:0x00000000
       58735000	      5872	80001170	00000013	addi	x0,x0,0	  x0:0x00000000
       58745000	      5873	80001174	017563b3	or	x7,x10,x23	 x10:0x00000612 x23:0x0743e000  x7=0x0743e612
       58755000	      5874	80001178	019651b3	srl	x3,x12,x25	 x12:0xffffffff x25:0xffffff8b  x3=0x001fffff
       58765000	      5875	8000117c	0055c7b3	xor	x15,x11,x5	 x11:0x001d0f81  x5:0x0001fdee x15=0x001cf26f
       58775000	      5876	80001180	c9daf213	andi	x4,x21,-867	 x21:0xffff3d54  x4=0xffff3c14
       58785000	      5877	80001184	00fe2533	slt	x10,x28,x15	 x28:0x00000000 x15:0x001cf26f x10=0x00000001
       58795000	      5878	80001188	05247863	bgeu	x8,x18,800011d8	  x8:0x001d0f80 x18:0x00000001
       58805000	      5879	00000000	00000013	addi	x0,x0,0	  x0:0x00000000
       58815000	      5880	800011d4	00000013	addi	x0,x0,0	  x0:0x00000000
       58825000	      5881	800011d8	01fd08b3	add	x17,x26,x31	 x26:0x80009fc4 x31:0x80000000 x17=0x00009fc4
       58835000	      5882	800011dc	03e44c63	blt	x8,x30,80001214	  x8:0x001d0f80 x30:0x4fdf2c4a
       58845000	      5883	00000000	00000013	addi	x0,x0,0	  x0:0x00000000
       58855000	      5884	80001210	00000013	addi	x0,x0,0	  x0:0x00000000
       58865000	      5885	80001214	01609b93	slli	x23,x1,0x16	  x1:0x00000001 x23=0x00400000
       58875000	      5886	80001218	0056d7b3	srl	x15,x13,x5	 x13:0xfffff914  x5:0x0001fdee x15=0x0003ffff
       58885000	      5887	8000121c	017d8333	add	x6,x27,x23	 x27:0x80009f84 x23:0x00400000  x6=0x80409f84
       58895000	      5888	80001220	50d53a93	sltiu	x21,x10,1293	 x10:0x00000001 x21=0x00000001
       58905000	      5889	80001224	00de2533	slt	x10,x28,x13	 x28:0x00000000 x13:0xfffff914 x10=0x00000000
       58915000	      5890	80001228	006e86b3	add	x13,x29,x6	 x29:0x000000ab  x6:0x80409f84 x13=0x8040a02f
       58925000	      5891	8000122c	01f8f433	and	x8,x17,x31	 x17:0x00009fc4 x31:0x80000000  x8=0x00000000
       58935000	      5892	80001230	003bce17	auipc	x28,0x3bc	 x28=0x803bd22c
       58945000	      5893	80001234	03aa8663	beq	x21,x26,80001260	 x21:0x00000001 x26:0x80009fc4
       58955000	      5894	80001238	e5cebc93	sltiu	x25,x29,-420	 x29:0x000000ab x25=0x00000001
       58965000	      5895	8000123c	00494863	blt	x18,x4,8000124c	 x18:0x00000001  x4:0xffff3c14
       58975000	      5896	80001240	7323bb93	sltiu	x23,x7,1842	  x7:0x0743e612 x23=0x00000000
       58985000	      5897	80001244	008823b3	slt	x7,x16,x8	 x16:0x7f7b9000  x8:0x00000000  x7=0x00000000
       58995000	      5898	80001248	0081ccb3	xor	x25,x3,x8	  x3:0x001fffff  x8:0x00000000 x25=0x001fffff
       59005000	      5899	8000124c	01011863	bne	x2,x16,8000125c	  x2:0x00000000 x16:0x7f7b9000
       59015000	      5900	00000000	00000013	addi	x0,x0,0	  x0:0x00000000
       59025000	      5901	80001258	00000013	addi	x0,x0,0	  x0:0x00000000
       59035000	      5902	8000125c	01b23933	sltu	x18,x4,x27	  x4:0xffff3c14 x27:0x80009f84 x18=0x00000000
       59045000	      5903	80001260	014492b3	sll	x5,x9,x20	  x9:0xcf551000 x20:0x00000000  x5=0xcf551000
       59055000	      5904	80001264	00f41ab3	sll	x21,x8,x15	  x8:0x00000000 x15:0x0003ffff x21=0x00000000
       59065000	      5905	80001268	00882b33	slt	x22,x16,x8	 x16:0x7f7b9000  x8:0x00000000 x22=0x00000000
       59075000	      5906	8000126c	01746233	or	x4,x8,x23	  x8:0x00000000 x23:0x00000000  x4=0x00000000
       59085000	      5907	80001270	00000117	auipc	x2,0x0	  x2=0x8000126c
       59095000	      5908	80001274	00c10113	addi	x2,x2,12	  x2:0x8000126c  x2=0x80001278
       59105000	      5909	80001278	00010067	jalr	x0,x2,0	  x2:0x80001278
       59115000	      5910	00000000	00000013	addi	x0,x0,0	  x0:0x00000000
       59125000	      5911	80001278	00000013	addi	x0,x0,0	  x0:0x00000000
       59135000	      5912	8000127c	00100193	addi	x3,x0,1	  x0:0x00000000  x3=0x00000001
       59145000	      5913	80001280	00000073	ecall	
       59155000	      5914	80001284	ff0d8d93	addi	x27,x27,-16	 x27:0x80009f84 x27=0x80009f74
