		Time			Cycle	PC		Insn	Decoded instruction	Register and memory contents
          65000	         5	80000004	00000293	addi	x5,x0,0	  x0:0x00000000  x5=0x00000000
          75000	         6	80000008	00000313	addi	x6,x0,0	  x0:0x00000000  x6=0x00000000
          85000	         7	8000000c	00628263	beq	x5,x6,80000010	  x5:0x00000000  x6:0x00000000
          95000	         8	00000000	00000013	addi	x0,x0,0	  x0:0x00000000
         105000	         9	8000000c	00000013	addi	x0,x0,0	  x0:0x00000000
         115000	        10	80000010	00000f17	auipc	x30,0x0	 x30=0x8000000c
         125000	        11	80000014	00cf0f13	addi	x30,x30,12	 x30:0x8000000c x30=0x80000018
         135000	        12	80000018	000f0067	jalr	x0,x30,0	 x30:0x80000018
         145000	        13	00000000	00000013	addi	x0,x0,0	  x0:0x00000000
         155000	        14	80000018	00000013	addi	x0,x0,0	  x0:0x00000000
         165000	        15	8000001c	40000e37	lui	x28,0x40000	 x28=0x40000000
         175000	        16	80000020	100e0e13	addi	x28,x28,256	 x28:0x40000000 x28=0x40000100
         185000	        17	80000024	00000013	addi	x0,x0,0	  x0:0x00000000
         195000	        18	80000028	0000ad97	auipc	x27,0xa	 x27=0x8000a024
         205000	        19	8000002c	fa0d8d93	addi	x27,x27,-96	 x27:0x8000a024 x27=0x80009fc4
         215000	        20	80000030	00004e17	auipc	x28,0x4	 x28=0x8000402c
         225000	        21	80000034	5a8e0e13	addi	x28,x28,1448	 x28:0x8000402c x28=0x800045d4
         235000	        22	80000038	000e6e13	ori	x28,x28,0	 x28:0x800045d4 x28=0x800045d4
         245000	        23	8000003c	00000013	addi	x0,x0,0	  x0:0x00000000
         255000	        24	80000040	00000e17	auipc	x28,0x0	 x28=0x8000003c
         265000	        25	80000044	020e0e13	addi	x28,x28,32	 x28:0x8000003c x28=0x8000005c
         275000	        26	80000048	00000013	addi	x0,x0,0	  x0:0x00000000
         285000	        27	8000004c	00000013	addi	x0,x0,0	  x0:0x00000000
         295000	        28	80000050	00002e37	lui	x28,0x2	 x28=0x00002000
         305000	        29	80000054	800e0e13	addi	x28,x28,-2048	 x28:0x00002000 x28=0x00001800
         315000	        30	80000058	00000013	addi	x0,x0,0	  x0:0x00000000
         325000	        31	8000005c	00000013	addi	x0,x0,0	  x0:0x00000000
         335000	        32	80000060	80000037	lui	x0,0x80000	
         345000	        33	80000064	00000013	addi	x0,x0,0	  x0:0x00000000
         355000	        34	80000068	f78c80b7	lui	x1,0xf78c8	  x1=0xf78c8000
         365000	        35	8000006c	ef408093	addi	x1,x1,-268	  x1:0xf78c8000  x1=0xf78c7ef4
         375000	        36	80000070	f74e6137	lui	x2,0xf74e6	  x2=0xf74e6000
         385000	        37	80000074	21610113	addi	x2,x2,534	  x2:0xf74e6000  x2=0xf74e6216
         395000	        38	80000078	00a00193	addi	x3,x0,10	  x0:0x00000000  x3=0x0000000a
         405000	        39	8000007c	f33c4237	lui	x4,0xf33c4	  x4=0xf33c4000
         415000	        40	80000080	1da20213	addi	x4,x4,474	  x4:0xf33c4000  x4=0xf33c41da
         425000	        41	80000084	00600293	addi	x5,x0,6	  x0:0x00000000  x5=0x00000006
         435000	        42	80000088	6e1a5337	lui	x6,0x6e1a5	  x6=0x6e1a5000
         445000	        43	8000008c	6e230313	addi	x6,x6,1762	  x6:0x6e1a5000  x6=0x6e1a56e2
         455000	        44	80000090	00f00393	addi	x7,x0,15	  x0:0x00000000  x7=0x0000000f
         465000	        45	80000094	00a00413	addi	x8,x0,10	  x0:0x00000000  x8=0x0000000a
         475000	        46	80000098	f91d14b7	lui	x9,0xf91d1	  x9=0xf91d1000
         485000	        47	8000009c	1c448493	addi	x9,x9,452	  x9:0xf91d1000  x9=0xf91d11c4
         495000	        48	800000a0	6f9f4537	lui	x10,0x6f9f4	 x10=0x6f9f4000
         505000	        49	800000a4	6fd50513	addi	x10,x10,1789	 x10:0x6f9f4000 x10=0x6f9f46fd
         515000	        50	800000a8	800005b7	lui	x11,0x80000	 x11=0x80000000
         525000	        51	800000ac	fe099637	lui	x12,0xfe099	 x12=0xfe099000
         535000	        52	800000b0	e0960613	addi	x12,x12,-503	 x12:0xfe099000 x12=0xfe098e09
         545000	        53	800000b4	00000693	addi	x13,x0,0	  x0:0x00000000 x13=0x00000000
         555000	        54	800000b8	00900713	addi	x14,x0,9	  x0:0x00000000 x14=0x00000009
         565000	        55	800000bc	00000793	addi	x15,x0,0	  x0:0x00000000 x15=0x00000000
         575000	        56	800000c0	80000837	lui	x16,0x80000	 x16=0x80000000
         585000	        57	800000c4	00400893	addi	x17,x0,4	  x0:0x00000000 x17=0x00000004
         595000	        58	800000c8	00400913	addi	x18,x0,4	  x0:0x00000000 x18=0x00000004
         605000	        59	800000cc	db7b89b7	lui	x19,0xdb7b8	 x19=0xdb7b8000
         615000	        60	800000d0	f7c98993	addi	x19,x19,-132	 x19:0xdb7b8000 x19=0xdb7b7f7c
         625000	        61	800000d4	00000a13	addi	x20,x0,0	  x0:0x00000000 x20=0x00000000
         635000	        62	800000d8	80000b37	lui	x22,0x80000	 x22=0x80000000
         645000	        63	800000dc	00700b93	addi	x23,x0,7	  x0:0x00000000 x23=0x00000007
         655000	        64	800000e0	00f00c13	addi	x24,x0,15	  x0:0x00000000 x24=0x0000000f
         665000	        65	800000e4	80000cb7	lui	x25,0x80000	 x25=0x80000000
         675000	        66	800000e8	03df9d37	lui	x26,0x3df9	 x26=0x03df9000
         685000	        67	800000ec	b9fd0d13	addi	x26,x26,-1121	 x26:0x03df9000 x26=0x03df8b9f
         695000	        68	800000f0	88cd8e37	lui	x28,0x88cd8	 x28=0x88cd8000
         705000	        69	800000f4	dbae0e13	addi	x28,x28,-582	 x28:0x88cd8000 x28=0x88cd7dba
         715000	        70	800000f8	00400e93	addi	x29,x0,4	  x0:0x00000000 x29=0x00000004
         725000	        71	800000fc	00000f13	addi	x30,x0,0	  x0:0x00000000 x30=0x00000000
         735000	        72	80000100	f003efb7	lui	x31,0xf003e	 x31=0xf003e000
         745000	        73	80000104	994f8f93	addi	x31,x31,-1644	 x31:0xf003e000 x31=0xf003d994
         755000	        74	80000108	0000aa97	auipc	x21,0xa	 x21=0x8000a104
         765000	        75	8000010c	e80a8a93	addi	x21,x21,-384	 x21:0x8000a104 x21=0x80009f84
         775000	        76	80000110	80acc693	xori	x13,x25,-2038	 x25:0x80000000 x13=0x7ffff80a
         785000	        77	80000114	00979493	slli	x9,x15,0x9	 x15:0x00000000  x9=0x00000000
         795000	        78	80000118	00000b97	auipc	x23,0x0	 x23=0x80000114
         805000	        79	8000011c	424b8b93	addi	x23,x23,1060	 x23:0x80000114 x23=0x80000538
         815000	        80	80000120	99a1ca17	auipc	x20,0x99a1c	 x20=0x19a1c11c
         825000	        81	80000124	fecabcb7	lui	x25,0xfecab	 x25=0xfecab000
         835000	        82	80000128	12fb8b93	addi	x23,x23,303	 x23:0x80000538 x23=0x80000667
         845000	        83	8000012c	b82c9b37	lui	x22,0xb82c9	 x22=0xb82c9000
         855000	        84	80000130	01136463	bltu	x6,x17,80000138	  x6:0x6e1a56e2 x17:0x00000004
         865000	        85	80000134	342c4c13	xori	x24,x24,834	 x24:0x0000000f x24=0x0000034d
         875000	        86	80000138	ed1b8b67	jalr	x22,x23,-303	 x23:0x80000667 x22=0x80000138
         885000	        87	00000000	00000013	addi	x0,x0,0	  x0:0x00000000
         895000	        88	80000538	00000013	addi	x0,x0,0	  x0:0x00000000
         905000	        89	8000053c	adf26113	ori	x2,x4,-1313	  x4:0xf33c41da  x2=0xfffffbdf
         915000	        90	80000540	fd0a8a93	addi	x21,x21,-48	 x21:0x80009f84 x21=0x80009f54
         925000	        91	80000544	e8662eb7	lui	x29,0xe8662	 x29=0xe8662000
         935000	        92	80000548	1d64a793	slti	x15,x9,470	  x9:0x00000000 x15=0x00000001
         945000	        93	8000054c	00d32933	slt	x18,x6,x13	  x6:0x6e1a56e2 x13:0x7ffff80a x18=0x00000001
         955000	        94	80000550	002dc233	xor	x4,x27,x2	 x27:0x80009fc4  x2:0xfffffbdf  x4=0x7fff641b
         965000	        95	80000554	016aa223	sw	x22,4(x21)	 x21:0x80009f54 x22:0x80000138 PA:0x80009f58
         975000	        96	80000558	41495393	srai	x7,x18,0x14	 x18:0x00000001  x7=0x00000000
         985000	        97	8000055c	01353633	sltu	x12,x10,x19	 x10:0x6f9f46fd x19:0xdb7b7f7c x12=0x00000001
         995000	        98	80000560	3480e893	ori	x17,x1,840	  x1:0xf78c7ef4 x17=0xf78c7ffc
        1005000	        99	80000564	40f50333	sub	x6,x10,x15	 x10:0x6f9f46fd x15:0x00000001  x6=0x6f9f46fc
        1015000	       100	80000568	00002a17	auipc	x20,0x2	 x20=0x80002564
        1025000	       101	8000056c	79ca0a13	addi	x20,x20,1948	 x20:0x80002564 x20=0x80002d00
        1035000	       102	80000570	632fe037	lui	x0,0x632fe	
        1045000	       103	80000574	01a7e633	or	x12,x15,x26	 x15:0x00000001 x26:0x03df8b9f x12=0x03df8b9f
        1055000	       104	80000578	de386c93	ori	x25,x16,-541	 x16:0x80000000 x25=0xfffffde3
        1065000	       105	8000057c	00288533	add	x10,x17,x2	 x17:0xf78c7ffc  x2:0xfffffbdf x10=0xf78c7bdb
        1075000	       106	80000580	007d7733	and	x14,x26,x7	 x26:0x03df8b9f  x7:0x00000000 x14=0x00000000
        1085000	       107	80000584	412ad5b3	sra	x11,x21,x18	 x21:0x80009f54 x18:0x00000001 x11=0xc0004faa
        1095000	       108	80000588	d55a0a13	addi	x20,x20,-683	 x20:0x80002d00 x20=0x80002a55
        1105000	       109	8000058c	4143d913	srai	x18,x7,0x14	  x7:0x00000000 x18=0x00000000
        1115000	       110	80000590	000a8663	beq	x21,x0,8000059c	 x21:0x80009f54  x0:0x00000000
        1125000	       111	80000594	08990017	auipc	x0,0x8990	
        1135000	       112	80000598	00cdb733	sltu	x14,x27,x12	 x27:0x80009fc4 x12:0x03df8b9f x14=0x00000000
        1145000	       113	8000059c	2aba0b67	jalr	x22,x20,683	 x20:0x80002a55 x22=0x8000059c
        1155000	       114	00000000	00000013	addi	x0,x0,0	  x0:0x00000000
        1165000	       115	80002d00	00000013	addi	x0,x0,0	  x0:0x00000000
        1175000	       116	80002d04	006b7633	and	x12,x22,x6	 x22:0x8000059c  x6:0x6f9f46fc x12=0x0000049c
        1185000	       117	80002d08	000150b3	srl	x1,x2,x0	  x2:0xfffffbdf  x0:0x00000000  x1=0xfffffbdf
        1195000	       118	80002d0c	014b3633	sltu	x12,x22,x20	 x22:0x8000059c x20:0x80002a55 x12=0x00000001
        1205000	       119	80002d10	018b4d33	xor	x26,x22,x24	 x22:0x8000059c x24:0x0000034d x26=0x800006d1
        1215000	       120	80002d14	0124f7b3	and	x15,x9,x18	  x9:0x00000000 x18:0x00000000 x15=0x00000000
        1225000	       121	80002d18	00de1863	bne	x28,x13,80002d28	 x28:0x88cd7dba x13:0x7ffff80a
        1235000	       122	00000000	00000013	addi	x0,x0,0	  x0:0x00000000
        1245000	       123	80002d24	00000013	addi	x0,x0,0	  x0:0x00000000
        1255000	       124	80002d28	fe8a8a93	addi	x21,x21,-24	 x21:0x80009f54 x21=0x80009f3c
        1265000	       125	80002d2c	016aa223	sw	x22,4(x21)	 x21:0x80009f3c x22:0x8000059c PA:0x80009f40
        1275000	       126	80002d30	413e5d13	srai	x26,x28,0x13	 x28:0x88cd7dba x26=0xfffff119
        1285000	       127	80002d34	40755813	srai	x16,x10,0x7	 x10:0xf78c7bdb x16=0xffef18f7
        1295000	       128	80002d38	00c45bb3	srl	x23,x8,x12	  x8:0x0000000a x12:0x00000001 x23=0x00000005
        1305000	       129	80002d3c	01935193	srli	x3,x6,0x19	  x6:0x6f9f46fc  x3=0x00000037
        1315000	       130	80002d40	41de02b3	sub	x5,x28,x29	 x28:0x88cd7dba x29:0xe8662000  x5=0xa0675dba
        1325000	       131	80002d44	58524093	xori	x1,x4,1413	  x4:0x7fff641b  x1=0x7fff619e
        1335000	       132	80002d48	01ac9733	sll	x14,x25,x26	 x25:0xfffffde3 x26:0xfffff119 x14=0xc6000000
        1345000	       133	80002d4c	01d82a33	slt	x20,x16,x29	 x16:0xffef18f7 x29:0xe8662000 x20=0x00000000
        1355000	       134	80002d50	a1c8ed13	ori	x26,x17,-1508	 x17:0xf78c7ffc x26=0xfffffffc
        1365000	       135	80002d54	20756417	auipc	x8,0x20756	  x8=0xa0758d50
        1375000	       136	80002d58	488c9997	auipc	x19,0x488c9	 x19=0xc88cbd54
        1385000	       137	80002d5c	f21ffb6f	jal	x22,80002d5c	 x22=0x80002d5c
        1395000	       138	00000000	00000013	addi	x0,x0,0	  x0:0x00000000
        1405000	       139	80002c78	00000013	addi	x0,x0,0	  x0:0x00000000
        1415000	       140	80002c7c	01634463	blt	x6,x22,80002c84	  x6:0x6f9f46fc x22:0x80002d5c
        1425000	       141	80002c80	00dd0eb3	add	x29,x26,x13	 x26:0xfffffffc x13:0x7ffff80a x29=0x7ffff806
        1435000	       142	80002c84	feca8a93	addi	x21,x21,-20	 x21:0x80009f3c x21=0x80009f28
        1445000	       143	80002c88	016aa223	sw	x22,4(x21)	 x21:0x80009f28 x22:0x80002d5c PA:0x80009f2c
        1455000	       144	80002c8c	2063cb93	xori	x23,x7,518	  x7:0x00000000 x23=0x00000206
        1465000	       145	80002c90	0f5f6f93	ori	x31,x30,245	 x30:0x00000000 x31=0x000000f5
        1475000	       146	80002c94	15e9ce13	xori	x28,x19,350	 x19:0xc88cbd54 x28=0xc88cbc0a
        1485000	       147	80002c98	01e0e2b3	or	x5,x1,x30	  x1:0x7fff619e x30:0x00000000  x5=0x7fff619e
        1495000	       148	80002c9c	5f300313	addi	x6,x0,1523	  x0:0x00000000  x6=0x000005f3
        1505000	       149	80002ca0	01bcecb3	or	x25,x25,x27	 x25:0xfffffde3 x27:0x80009fc4 x25=0xffffffe7
        1515000	       150	80002ca4	d848b393	sltiu	x7,x17,-636	 x17:0xf78c7ffc  x7=0x00000001
        1525000	       151	80002ca8	034c9263	bne	x25,x20,80002ccc	 x25:0xffffffe7 x20:0x00000000
        1535000	       152	00000000	00000013	addi	x0,x0,0	  x0:0x00000000
        1545000	       153	80002cc8	00000013	addi	x0,x0,0	  x0:0x00000000
        1555000	       154	80002ccc	40ae5933	sra	x18,x28,x10	 x28:0xc88cbc0a x10:0xf78c7bdb x18=0xfffffff9
        1565000	       155	80002cd0	0029acb3	slt	x25,x19,x2	 x19:0xc88cbd54  x2:0xfffffbdf x25=0x00000001
        1575000	       156	80002cd4	004aab03	lw	x22,4(x21)	 x21:0x80009f28 x22=0x80002d5c PA:0x80009f2c
        1585000	       157	80002cd8	0136efb3	or	x31,x13,x19	 x13:0x7ffff80a x19:0xc88cbd54 x31=0xfffffd5e
        1595000	       158	80002cdc	039cffb7	lui	x31,0x39cf	 x31=0x039cf000
        1605000	       159	80002ce0	9737e897	auipc	x17,0x9737e	 x17=0x17380cdc
        1615000	       160	80002ce4	41460a33	sub	x20,x12,x20	 x12:0x00000001 x20:0x00000000 x20=0x00000001
        1625000	       161	80002ce8	014a8a93	addi	x21,x21,20	 x21:0x80009f28 x21=0x80009f3c
        1635000	       162	80002cec	9d526993	ori	x19,x4,-1579	  x4:0x7fff641b x19=0xfffffddf
        1645000	       163	80002cf0	a94fa013	slti	x0,x31,-1388	 x31:0x039cf000
        1655000	       164	80002cf4	00000013	addi	x0,x0,0	  x0:0x00000000
        1665000	       165	80002cf8	ad627713	andi	x14,x4,-1322	  x4:0x7fff641b x14=0x7fff6012
        1675000	       166	80002cfc	000b0b93	addi	x23,x22,0	 x22:0x80002d5c x23=0x80002d5c
        1685000	       167	80002d00	000b8be7	jalr	x23,x23,0	 x23:0x80002d5c x23=0x80002d00
        1695000	       168	00000000	00000013	addi	x0,x0,0	  x0:0x00000000
        1705000	       169	80002d5c	00000013	addi	x0,x0,0	  x0:0x00000000
        1715000	       170	80002d60	4b524e93	xori	x29,x4,1205	  x4:0x7fff641b x29=0x7fff60ae
        1725000	       171	80002d64	011dc1b3	xor	x3,x27,x17	 x27:0x80009fc4 x17:0x17380cdc  x3=0x97389318
        1735000	       172	80002d68	ffffeb97	auipc	x23,0xffffe	 x23=0x80000d64
        1745000	       173	80002d6c	010b8b93	addi	x23,x23,16	 x23:0x80000d64 x23=0x80000d74
        1755000	       174	80002d70	fe0b8b93	addi	x23,x23,-32	 x23:0x80000d74 x23=0x80000d54
        1765000	       175	80002d74	00000013	addi	x0,x0,0	  x0:0x00000000
        1775000	       176	80002d78	da34ca13	xori	x20,x9,-605	  x9:0x00000000 x20=0xfffffda3
        1785000	       177	80002d7c	003eb833	sltu	x16,x29,x3	 x29:0x7fff60ae  x3:0x97389318 x16=0x00000001
        1795000	       178	80002d80	7722ef93	ori	x31,x5,1906	  x5:0x7fff619e x31=0x7fff67fe
        1805000	       179	80002d84	00dd0863	beq	x26,x13,80002d94	 x26:0xfffffffc x13:0x7ffff80a
        1815000	       180	80002d88	00c9c633	xor	x12,x19,x12	 x19:0xfffffddf x12:0x00000001 x12=0xfffffdde
        1825000	       181	80002d8c	7f2b7913	andi	x18,x22,2034	 x22:0x80002d5c x18=0x00000550
        1835000	       182	80002d90	0196d733	srl	x14,x13,x25	 x13:0x7ffff80a x25:0x00000001 x14=0x3ffffc05
        1845000	       183	80002d94	021b8b67	jalr	x22,x23,33	 x23:0x80000d54 x22=0x80002d94
        1855000	       184	00000000	00000013	addi	x0,x0,0	  x0:0x00000000
        1865000	       185	80000d74	00000013	addi	x0,x0,0	  x0:0x00000000
        1875000	       186	80000d78	fe8a8a93	addi	x21,x21,-24	 x21:0x80009f3c x21=0x80009f24
        1885000	       187	80000d7c	016aa223	sw	x22,4(x21)	 x21:0x80009f24 x22:0x80002d94 PA:0x80009f28
        1895000	       188	80000d80	41168c33	sub	x24,x13,x17	 x13:0x7ffff80a x17:0x17380cdc x24=0x68c7eb2e
        1905000	       189	80000d84	c13fb393	sltiu	x7,x31,-1005	 x31:0x7fff67fe  x7=0x00000001
        1915000	       190	80000d88	40908cb3	sub	x25,x1,x9	  x1:0x7fff619e  x9:0x00000000 x25=0x7fff619e
        1925000	       191	80000d8c	74e016b7	lui	x13,0x74e01	 x13=0x74e01000
        1935000	       192	80000d90	e7604797	auipc	x15,0xe7604	 x15=0x67604d8c
        1945000	       193	80000d94	01dc2bb3	slt	x23,x24,x29	 x24:0x68c7eb2e x29:0x7fff60ae x23=0x00000001
        1955000	       194	80000d98	cd0b6693	ori	x13,x22,-816	 x22:0x80002d94 x13=0xfffffdd4
        1965000	       195	80000d9c	03000b6f	jal	x22,80000d9c	 x22=0x80000d9c
        1975000	       196	00000000	00000013	addi	x0,x0,0	  x0:0x00000000
        1985000	       197	80000dc8	00000013	addi	x0,x0,0	  x0:0x00000000
        1995000	       198	80000dcc	ffdff0ef	jal	x1,80000dcc	  x1=0x80000dcc
        2005000	       199	00000000	00000013	addi	x0,x0,0	  x0:0x00000000
        2015000	       200	80000dc4	00000013	addi	x0,x0,0	  x0:0x00000000
        2025000	       201	80000dc8	ff5ff0ef	jal	x1,80000dc8	  x1=0x80000dc8
        2035000	       202	00000000	00000013	addi	x0,x0,0	  x0:0x00000000
        2045000	       203	80000db8	00000013	addi	x0,x0,0	  x0:0x00000000
        2055000	       204	80000dbc	ff5ff46f	jal	x8,80000dbc	  x8=0x80000dbc
        2065000	       205	00000000	00000013	addi	x0,x0,0	  x0:0x00000000
        2075000	       206	80000dac	00000013	addi	x0,x0,0	  x0:0x00000000
        2085000	       207	80000db0	050000ef	jal	x1,80000db0	  x1=0x80000db0
        2095000	       208	00000000	00000013	addi	x0,x0,0	  x0:0x00000000
        2105000	       209	80000dfc	00000013	addi	x0,x0,0	  x0:0x00000000
        2115000	       210	80000e00	ff1ff36f	jal	x6,80000e00	  x6=0x80000e00
        2125000	       211	00000000	00000013	addi	x0,x0,0	  x0:0x00000000
        2135000	       212	80000dec	00000013	addi	x0,x0,0	  x0:0x00000000
        2145000	       213	80000df0	fd1ff0ef	jal	x1,80000df0	  x1=0x80000df0
        2155000	       214	00000000	00000013	addi	x0,x0,0	  x0:0x00000000
        2165000	       215	80000dbc	00000013	addi	x0,x0,0	  x0:0x00000000
        2175000	       216	80000dc0	050001ef	jal	x3,80000dc0	  x3=0x80000dc0
        2185000	       217	00000000	00000013	addi	x0,x0,0	  x0:0x00000000
        2195000	       218	80000e0c	00000013	addi	x0,x0,0	  x0:0x00000000
        2205000	       219	80000e10	fd1ffa6f	jal	x20,80000e10	 x20=0x80000e10
        2215000	       220	00000000	00000013	addi	x0,x0,0	  x0:0x00000000
        2225000	       221	80000ddc	00000013	addi	x0,x0,0	  x0:0x00000000
        2235000	       222	80000de0	ff5ff0ef	jal	x1,80000de0	  x1=0x80000de0
        2245000	       223	00000000	00000013	addi	x0,x0,0	  x0:0x00000000
        2255000	       224	80000dd0	00000013	addi	x0,x0,0	  x0:0x00000000
        2265000	       225	80000dd4	008004ef	jal	x9,80000dd4	  x9=0x80000dd4
        2275000	       226	00000000	00000013	addi	x0,x0,0	  x0:0x00000000
        2285000	       227	80000dd8	00000013	addi	x0,x0,0	  x0:0x00000000
        2295000	       228	80000ddc	02c0036f	jal	x6,80000ddc	  x6=0x80000ddc
        2305000	       229	00000000	00000013	addi	x0,x0,0	  x0:0x00000000
        2315000	       230	80000e04	00000013	addi	x0,x0,0	  x0:0x00000000
        2325000	       231	80000e08	ffdff0ef	jal	x1,80000e08	  x1=0x80000e08
        2335000	       232	00000000	00000013	addi	x0,x0,0	  x0:0x00000000
        2345000	       233	80000e00	00000013	addi	x0,x0,0	  x0:0x00000000
        2355000	       234	80000e04	fe1ff0ef	jal	x1,80000e04	  x1=0x80000e04
        2365000	       235	00000000	00000013	addi	x0,x0,0	  x0:0x00000000
        2375000	       236	80000de0	00000013	addi	x0,x0,0	  x0:0x00000000
        2385000	       237	80000de4	fe1ffe6f	jal	x28,80000de4	 x28=0x80000de4
        2395000	       238	00000000	00000013	addi	x0,x0,0	  x0:0x00000000
        2405000	       239	80000dc0	00000013	addi	x0,x0,0	  x0:0x00000000
        2415000	       240	80000dc4	ff5ff0ef	jal	x1,80000dc4	  x1=0x80000dc4
        2425000	       241	00000000	00000013	addi	x0,x0,0	  x0:0x00000000
        2435000	       242	80000db4	00000013	addi	x0,x0,0	  x0:0x00000000
        2445000	       243	80000db8	03c000ef	jal	x1,80000db8	  x1=0x80000db8
        2455000	       244	00000000	00000013	addi	x0,x0,0	  x0:0x00000000
        2465000	       245	80000df0	00000013	addi	x0,x0,0	  x0:0x00000000
        2475000	       246	80000df4	fadff36f	jal	x6,80000df4	  x6=0x80000df4
        2485000	       247	00000000	00000013	addi	x0,x0,0	  x0:0x00000000
        2495000	       248	80000d9c	00000013	addi	x0,x0,0	  x0:0x00000000
        2505000	       249	80000da0	06c000ef	jal	x1,80000da0	  x1=0x80000da0
        2515000	       250	00000000	00000013	addi	x0,x0,0	  x0:0x00000000
        2525000	       251	80000e08	00000013	addi	x0,x0,0	  x0:0x00000000
        2535000	       252	80000e0c	fcdff36f	jal	x6,80000e0c	  x6=0x80000e0c
        2545000	       253	00000000	00000013	addi	x0,x0,0	  x0:0x00000000
        2555000	       254	80000dd4	00000013	addi	x0,x0,0	  x0:0x00000000
        2565000	       255	80000dd8	fddff36f	jal	x6,80000dd8	  x6=0x80000dd8
        2575000	       256	00000000	00000013	addi	x0,x0,0	  x0:0x00000000
        2585000	       257	80000db0	00000013	addi	x0,x0,0	  x0:0x00000000
        2595000	       258	80000db4	01c0026f	jal	x4,80000db4	  x4=0x80000db4
        2605000	       259	00000000	00000013	addi	x0,x0,0	  x0:0x00000000
        2615000	       260	80000dcc	00000013	addi	x0,x0,0	  x0:0x00000000
        2625000	       261	80000dd0	018000ef	jal	x1,80000dd0	  x1=0x80000dd0
        2635000	       262	00000000	00000013	addi	x0,x0,0	  x0:0x00000000
        2645000	       263	80000de4	00000013	addi	x0,x0,0	  x0:0x00000000
        2655000	       264	80000de8	010004ef	jal	x9,80000de8	  x9=0x80000de8
        2665000	       265	00000000	00000013	addi	x0,x0,0	  x0:0x00000000
        2675000	       266	80000df4	00000013	addi	x0,x0,0	  x0:0x00000000
        2685000	       267	80000df8	fadff2ef	jal	x5,80000df8	  x5=0x80000df8
        2695000	       268	00000000	00000013	addi	x0,x0,0	  x0:0x00000000
        2705000	       269	80000da0	00000013	addi	x0,x0,0	  x0:0x00000000
        2715000	       270	80000da4	07000d6f	jal	x26,80000da4	 x26=0x80000da4
        2725000	       271	00000000	00000013	addi	x0,x0,0	  x0:0x00000000
        2735000	       272	80000e10	00000013	addi	x0,x0,0	  x0:0x00000000
        2745000	       273	80000e14	fe9ff0ef	jal	x1,80000e14	  x1=0x80000e14
        2755000	       274	00000000	00000013	addi	x0,x0,0	  x0:0x00000000
        2765000	       275	80000df8	00000013	addi	x0,x0,0	  x0:0x00000000
        2775000	       276	80000dfc	fb1ff9ef	jal	x19,80000dfc	 x19=0x80000dfc
        2785000	       277	00000000	00000013	addi	x0,x0,0	  x0:0x00000000
        2795000	       278	80000da8	00000013	addi	x0,x0,0	  x0:0x00000000
        2805000	       279	80000dac	ffdff0ef	jal	x1,80000dac	  x1=0x80000dac
        2815000	       280	00000000	00000013	addi	x0,x0,0	  x0:0x00000000
        2825000	       281	80000da4	00000013	addi	x0,x0,0	  x0:0x00000000
        2835000	       282	80000da8	044000ef	jal	x1,80000da8	  x1=0x80000da8
        2845000	       283	00000000	00000013	addi	x0,x0,0	  x0:0x00000000
        2855000	       284	80000de8	00000013	addi	x0,x0,0	  x0:0x00000000
        2865000	       285	80000dec	02c000ef	jal	x1,80000dec	  x1=0x80000dec
        2875000	       286	00000000	00000013	addi	x0,x0,0	  x0:0x00000000
        2885000	       287	80000e14	00000013	addi	x0,x0,0	  x0:0x00000000
        2895000	       288	80000e18	129a3b13	sltiu	x22,x20,297	 x20:0x80000e10 x22=0x00000000
        2905000	       289	80000e1c	03000b6f	jal	x22,80000e1c	 x22=0x80000e1c
        2915000	       290	00000000	00000013	addi	x0,x0,0	  x0:0x00000000
        2925000	       291	80000e48	00000013	addi	x0,x0,0	  x0:0x00000000
        2935000	       292	80000e4c	ff9ffc6f	jal	x24,80000e4c	 x24=0x80000e4c
        2945000	       293	00000000	00000013	addi	x0,x0,0	  x0:0x00000000
        2955000	       294	80000e40	00000013	addi	x0,x0,0	  x0:0x00000000
        2965000	       295	80000e44	ff5ff26f	jal	x4,80000e44	  x4=0x80000e44
        2975000	       296	00000000	00000013	addi	x0,x0,0	  x0:0x00000000
        2985000	       297	80000e34	00000013	addi	x0,x0,0	  x0:0x00000000
        2995000	       298	80000e38	ff1ff26f	jal	x4,80000e38	  x4=0x80000e38
        3005000	       299	00000000	00000013	addi	x0,x0,0	  x0:0x00000000
        3015000	       300	80000e24	00000013	addi	x0,x0,0	  x0:0x00000000
        3025000	       301	80000e28	0280016f	jal	x2,80000e28	  x2=0x80000e28
        3035000	       302	00000000	00000013	addi	x0,x0,0	  x0:0x00000000
        3045000	       303	80000e4c	00000013	addi	x0,x0,0	  x0:0x00000000
        3055000	       304	80000e50	fe1ff0ef	jal	x1,80000e50	  x1=0x80000e50
        3065000	       305	00000000	00000013	addi	x0,x0,0	  x0:0x00000000
        3075000	       306	80000e2c	00000013	addi	x0,x0,0	  x0:0x00000000
        3085000	       307	80000e30	ffdff0ef	jal	x1,80000e30	  x1=0x80000e30
        3095000	       308	00000000	00000013	addi	x0,x0,0	  x0:0x00000000
        3105000	       309	80000e28	00000013	addi	x0,x0,0	  x0:0x00000000
        3115000	       310	80000e2c	01c000ef	jal	x1,80000e2c	  x1=0x80000e2c
        3125000	       311	00000000	00000013	addi	x0,x0,0	  x0:0x00000000
        3135000	       312	80000e44	00000013	addi	x0,x0,0	  x0:0x00000000
        3145000	       313	80000e48	fd9ff36f	jal	x6,80000e48	  x6=0x80000e48
        3155000	       314	00000000	00000013	addi	x0,x0,0	  x0:0x00000000
        3165000	       315	80000e1c	00000013	addi	x0,x0,0	  x0:0x00000000
        3175000	       316	80000e20	01c000ef	jal	x1,80000e20	  x1=0x80000e20
        3185000	       317	00000000	00000013	addi	x0,x0,0	  x0:0x00000000
        3195000	       318	80000e38	00000013	addi	x0,x0,0	  x0:0x00000000
        3205000	       319	80000e3c	fe9ffa6f	jal	x20,80000e3c	 x20=0x80000e3c
        3215000	       320	00000000	00000013	addi	x0,x0,0	  x0:0x00000000
        3225000	       321	80000e20	00000013	addi	x0,x0,0	  x0:0x00000000
        3235000	       322	80000e24	010000ef	jal	x1,80000e24	  x1=0x80000e24
        3245000	       323	00000000	00000013	addi	x0,x0,0	  x0:0x00000000
        3255000	       324	80000e30	00000013	addi	x0,x0,0	  x0:0x00000000
        3265000	       325	80000e34	00c000ef	jal	x1,80000e34	  x1=0x80000e34
        3275000	       326	00000000	00000013	addi	x0,x0,0	  x0:0x00000000
        3285000	       327	80000e3c	00000013	addi	x0,x0,0	  x0:0x00000000
        3295000	       328	80000e40	0140036f	jal	x6,80000e40	  x6=0x80000e40
        3305000	       329	00000000	00000013	addi	x0,x0,0	  x0:0x00000000
        3315000	       330	80000e50	00000013	addi	x0,x0,0	  x0:0x00000000
        3325000	       331	80000e54	00562433	slt	x8,x12,x5	 x12:0xfffffdde  x5:0x80000df8  x8=0x00000000
        3335000	       332	80000e58	01800b6f	jal	x22,80000e58	 x22=0x80000e58
        3345000	       333	00000000	00000013	addi	x0,x0,0	  x0:0x00000000
        3355000	       334	80000e6c	00000013	addi	x0,x0,0	  x0:0x00000000
        3365000	       335	80000e70	00c000ef	jal	x1,80000e70	  x1=0x80000e70
        3375000	       336	00000000	00000013	addi	x0,x0,0	  x0:0x00000000
        3385000	       337	80000e78	00000013	addi	x0,x0,0	  x0:0x00000000
        3395000	       338	80000e7c	00c000ef	jal	x1,80000e7c	  x1=0x80000e7c
        3405000	       339	00000000	00000013	addi	x0,x0,0	  x0:0x00000000
        3415000	       340	80000e84	00000013	addi	x0,x0,0	  x0:0x00000000
        3425000	       341	80000e88	fe1ff0ef	jal	x1,80000e88	  x1=0x80000e88
        3435000	       342	00000000	00000013	addi	x0,x0,0	  x0:0x00000000
        3445000	       343	80000e64	00000013	addi	x0,x0,0	  x0:0x00000000
        3455000	       344	80000e68	ff5ff1ef	jal	x3,80000e68	  x3=0x80000e68
        3465000	       345	00000000	00000013	addi	x0,x0,0	  x0:0x00000000
        3475000	       346	80000e58	00000013	addi	x0,x0,0	  x0:0x00000000
        3485000	       347	80000e5c	024000ef	jal	x1,80000e5c	  x1=0x80000e5c
        3495000	       348	00000000	00000013	addi	x0,x0,0	  x0:0x00000000
        3505000	       349	80000e7c	00000013	addi	x0,x0,0	  x0:0x00000000
        3515000	       350	80000e80	ff9ff0ef	jal	x1,80000e80	  x1=0x80000e80
        3525000	       351	00000000	00000013	addi	x0,x0,0	  x0:0x00000000
        3535000	       352	80000e74	00000013	addi	x0,x0,0	  x0:0x00000000
        3545000	       353	80000e78	00c000ef	jal	x1,80000e78	  x1=0x80000e78
        3555000	       354	00000000	00000013	addi	x0,x0,0	  x0:0x00000000
        3565000	       355	80000e80	00000013	addi	x0,x0,0	  x0:0x00000000
        3575000	       356	80000e84	fddff0ef	jal	x1,80000e84	  x1=0x80000e84
        3585000	       357	00000000	00000013	addi	x0,x0,0	  x0:0x00000000
        3595000	       358	80000e5c	00000013	addi	x0,x0,0	  x0:0x00000000
        3605000	       359	80000e60	014000ef	jal	x1,80000e60	  x1=0x80000e60
        3615000	       360	00000000	00000013	addi	x0,x0,0	  x0:0x00000000
        3625000	       361	80000e70	00000013	addi	x0,x0,0	  x0:0x00000000
        3635000	       362	80000e74	ff1ffd6f	jal	x26,80000e74	 x26=0x80000e74
        3645000	       363	00000000	00000013	addi	x0,x0,0	  x0:0x00000000
        3655000	       364	80000e60	00000013	addi	x0,x0,0	  x0:0x00000000
        3665000	       365	80000e64	008000ef	jal	x1,80000e64	  x1=0x80000e64
        3675000	       366	00000000	00000013	addi	x0,x0,0	  x0:0x00000000
        3685000	       367	80000e68	00000013	addi	x0,x0,0	  x0:0x00000000
        3695000	       368	80000e6c	020000ef	jal	x1,80000e6c	  x1=0x80000e6c
        3705000	       369	00000000	00000013	addi	x0,x0,0	  x0:0x00000000
        3715000	       370	80000e88	00000013	addi	x0,x0,0	  x0:0x00000000
        3725000	       371	80000e8c	000fa7b3	slt	x15,x31,x0	 x31:0x7fff67fe  x0:0x00000000 x15=0x00000000
        3735000	       372	80000e90	01800b6f	jal	x22,80000e90	 x22=0x80000e90
        3745000	       373	00000000	00000013	addi	x0,x0,0	  x0:0x00000000
        3755000	       374	80000ea4	00000013	addi	x0,x0,0	  x0:0x00000000
        3765000	       375	80000ea8	04c000ef	jal	x1,80000ea8	  x1=0x80000ea8
        3775000	       376	00000000	00000013	addi	x0,x0,0	  x0:0x00000000
        3785000	       377	80000ef0	00000013	addi	x0,x0,0	  x0:0x00000000
        3795000	       378	80000ef4	fd5ff0ef	jal	x1,80000ef4	  x1=0x80000ef4
        3805000	       379	00000000	00000013	addi	x0,x0,0	  x0:0x00000000
        3815000	       380	80000ec4	00000013	addi	x0,x0,0	  x0:0x00000000
        3825000	       381	80000ec8	fe9ff2ef	jal	x5,80000ec8	  x5=0x80000ec8
        3835000	       382	00000000	00000013	addi	x0,x0,0	  x0:0x00000000
        3845000	       383	80000eac	00000013	addi	x0,x0,0	  x0:0x00000000
        3855000	       384	80000eb0	01c000ef	jal	x1,80000eb0	  x1=0x80000eb0
        3865000	       385	00000000	00000013	addi	x0,x0,0	  x0:0x00000000
        3875000	       386	80000ec8	00000013	addi	x0,x0,0	  x0:0x00000000
        3885000	       387	80000ecc	ff9ff36f	jal	x6,80000ecc	  x6=0x80000ecc
        3895000	       388	00000000	00000013	addi	x0,x0,0	  x0:0x00000000
        3905000	       389	80000ec0	00000013	addi	x0,x0,0	  x0:0x00000000
        3915000	       390	80000ec4	fe1ff0ef	jal	x1,80000ec4	  x1=0x80000ec4
        3925000	       391	00000000	00000013	addi	x0,x0,0	  x0:0x00000000
        3935000	       392	80000ea0	00000013	addi	x0,x0,0	  x0:0x00000000
        3945000	       393	80000ea4	014000ef	jal	x1,80000ea4	  x1=0x80000ea4
        3955000	       394	00000000	00000013	addi	x0,x0,0	  x0:0x00000000
        3965000	       395	80000eb4	00000013	addi	x0,x0,0	  x0:0x00000000
        3975000	       396	80000eb8	0380076f	jal	x14,80000eb8	 x14=0x80000eb8
        3985000	       397	00000000	00000013	addi	x0,x0,0	  x0:0x00000000
        3995000	       398	80000eec	00000013	addi	x0,x0,0	  x0:0x00000000
        4005000	       399	80000ef0	00800cef	jal	x25,80000ef0	 x25=0x80000ef0
        4015000	       400	00000000	00000013	addi	x0,x0,0	  x0:0x00000000
        4025000	       401	80000ef4	00000013	addi	x0,x0,0	  x0:0x00000000
        4035000	       402	80000ef8	00800d6f	jal	x26,80000ef8	 x26=0x80000ef8
        4045000	       403	00000000	00000013	addi	x0,x0,0	  x0:0x00000000
        4055000	       404	80000efc	00000013	addi	x0,x0,0	  x0:0x00000000
        4065000	       405	80000f00	f95ff0ef	jal	x1,80000f00	  x1=0x80000f00
        4075000	       406	00000000	00000013	addi	x0,x0,0	  x0:0x00000000
        4085000	       407	80000e90	00000013	addi	x0,x0,0	  x0:0x00000000
        4095000	       408	80000e94	04000bef	jal	x23,80000e94	 x23=0x80000e94
        4105000	       409	00000000	00000013	addi	x0,x0,0	  x0:0x00000000
        4115000	       410	80000ed0	00000013	addi	x0,x0,0	  x0:0x00000000
        4125000	       411	80000ed4	018000ef	jal	x1,80000ed4	  x1=0x80000ed4
        4135000	       412	00000000	00000013	addi	x0,x0,0	  x0:0x00000000
        4145000	       413	80000ee8	00000013	addi	x0,x0,0	  x0:0x00000000
        4155000	       414	80000eec	fb5ffa6f	jal	x20,80000eec	 x20=0x80000eec
        4165000	       415	00000000	00000013	addi	x0,x0,0	  x0:0x00000000
        4175000	       416	80000e9c	00000013	addi	x0,x0,0	  x0:0x00000000
        4185000	       417	80000ea0	ffdff96f	jal	x18,80000ea0	 x18=0x80000ea0
        4195000	       418	00000000	00000013	addi	x0,x0,0	  x0:0x00000000
        4205000	       419	80000e98	00000013	addi	x0,x0,0	  x0:0x00000000
        4215000	       420	80000e9c	0340036f	jal	x6,80000e9c	  x6=0x80000e9c
        4225000	       421	00000000	00000013	addi	x0,x0,0	  x0:0x00000000
        4235000	       422	80000ecc	00000013	addi	x0,x0,0	  x0:0x00000000
        4245000	       423	80000ed0	fddff0ef	jal	x1,80000ed0	  x1=0x80000ed0
        4255000	       424	00000000	00000013	addi	x0,x0,0	  x0:0x00000000
        4265000	       425	80000ea8	00000013	addi	x0,x0,0	  x0:0x00000000
        4275000	       426	80000eac	058000ef	jal	x1,80000eac	  x1=0x80000eac
        4285000	       427	00000000	00000013	addi	x0,x0,0	  x0:0x00000000
        4295000	       428	80000f00	00000013	addi	x0,x0,0	  x0:0x00000000
        4305000	       429	80000f04	f95ff0ef	jal	x1,80000f04	  x1=0x80000f04
        4315000	       430	00000000	00000013	addi	x0,x0,0	  x0:0x00000000
        4325000	       431	80000e94	00000013	addi	x0,x0,0	  x0:0x00000000
        4335000	       432	80000e98	04c0026f	jal	x4,80000e98	  x4=0x80000e98
        4345000	       433	00000000	00000013	addi	x0,x0,0	  x0:0x00000000
        4355000	       434	80000ee0	00000013	addi	x0,x0,0	  x0:0x00000000
        4365000	       435	80000ee4	ff9ff0ef	jal	x1,80000ee4	  x1=0x80000ee4
        4375000	       436	00000000	00000013	addi	x0,x0,0	  x0:0x00000000
        4385000	       437	80000ed8	00000013	addi	x0,x0,0	  x0:0x00000000
        4395000	       438	80000edc	fd9ff0ef	jal	x1,80000edc	  x1=0x80000edc
        4405000	       439	00000000	00000013	addi	x0,x0,0	  x0:0x00000000
        4415000	       440	80000eb0	00000013	addi	x0,x0,0	  x0:0x00000000
        4425000	       441	80000eb4	00800bef	jal	x23,80000eb4	 x23=0x80000eb4
        4435000	       442	00000000	00000013	addi	x0,x0,0	  x0:0x00000000
        4445000	       443	80000eb8	00000013	addi	x0,x0,0	  x0:0x00000000
        4455000	       444	80000ebc	01c004ef	jal	x9,80000ebc	  x9=0x80000ebc
        4465000	       445	00000000	00000013	addi	x0,x0,0	  x0:0x00000000
        4475000	       446	80000ed4	00000013	addi	x0,x0,0	  x0:0x00000000
        4485000	       447	80000ed8	008000ef	jal	x1,80000ed8	  x1=0x80000ed8
        4495000	       448	00000000	00000013	addi	x0,x0,0	  x0:0x00000000
        4505000	       449	80000edc	00000013	addi	x0,x0,0	  x0:0x00000000
        4515000	       450	80000ee0	01c000ef	jal	x1,80000ee0	  x1=0x80000ee0
        4525000	       451	00000000	00000013	addi	x0,x0,0	  x0:0x00000000
        4535000	       452	80000ef8	00000013	addi	x0,x0,0	  x0:0x00000000
        4545000	       453	80000efc	fedff56f	jal	x10,80000efc	 x10=0x80000efc
        4555000	       454	00000000	00000013	addi	x0,x0,0	  x0:0x00000000
        4565000	       455	80000ee4	00000013	addi	x0,x0,0	  x0:0x00000000
        4575000	       456	80000ee8	fd9ff0ef	jal	x1,80000ee8	  x1=0x80000ee8
        4585000	       457	00000000	00000013	addi	x0,x0,0	  x0:0x00000000
        4595000	       458	80000ebc	00000013	addi	x0,x0,0	  x0:0x00000000
        4605000	       459	80000ec0	048000ef	jal	x1,80000ec0	  x1=0x80000ec0
        4615000	       460	00000000	00000013	addi	x0,x0,0	  x0:0x00000000
        4625000	       461	80000f04	00000013	addi	x0,x0,0	  x0:0x00000000
        4635000	       462	80000f08	01afcfb3	xor	x31,x31,x26	 x31:0x7fff67fe x26:0x80000ef8 x31=0xffff6906
        4645000	       463	80000f0c	01000b6f	jal	x22,80000f0c	 x22=0x80000f0c
        4655000	       464	00000000	00000013	addi	x0,x0,0	  x0:0x00000000
        4665000	       465	80000f18	00000013	addi	x0,x0,0	  x0:0x00000000
        4675000	       466	80000f1c	020000ef	jal	x1,80000f1c	  x1=0x80000f1c
        4685000	       467	00000000	00000013	addi	x0,x0,0	  x0:0x00000000
        4695000	       468	80000f38	00000013	addi	x0,x0,0	  x0:0x00000000
        4705000	       469	80000f3c	fd9ff26f	jal	x4,80000f3c	  x4=0x80000f3c
        4715000	       470	00000000	00000013	addi	x0,x0,0	  x0:0x00000000
        4725000	       471	80000f10	00000013	addi	x0,x0,0	  x0:0x00000000
        4735000	       472	80000f14	0040036f	jal	x6,80000f14	  x6=0x80000f14
        4745000	       473	00000000	00000013	addi	x0,x0,0	  x0:0x00000000
        4755000	       474	80000f14	00000013	addi	x0,x0,0	  x0:0x00000000
        4765000	       475	80000f18	01c000ef	jal	x1,80000f18	  x1=0x80000f18
        4775000	       476	00000000	00000013	addi	x0,x0,0	  x0:0x00000000
        4785000	       477	80000f30	00000013	addi	x0,x0,0	  x0:0x00000000
        4795000	       478	80000f34	fddff0ef	jal	x1,80000f34	  x1=0x80000f34
        4805000	       479	00000000	00000013	addi	x0,x0,0	  x0:0x00000000
        4815000	       480	80000f0c	00000013	addi	x0,x0,0	  x0:0x00000000
        4825000	       481	80000f10	018000ef	jal	x1,80000f10	  x1=0x80000f10
        4835000	       482	00000000	00000013	addi	x0,x0,0	  x0:0x00000000
        4845000	       483	80000f24	00000013	addi	x0,x0,0	  x0:0x00000000
        4855000	       484	80000f28	ffdff3ef	jal	x7,80000f28	  x7=0x80000f28
        4865000	       485	00000000	00000013	addi	x0,x0,0	  x0:0x00000000
        4875000	       486	80000f20	00000013	addi	x0,x0,0	  x0:0x00000000
        4885000	       487	80000f24	00c000ef	jal	x1,80000f24	  x1=0x80000f24
        4895000	       488	00000000	00000013	addi	x0,x0,0	  x0:0x00000000
        4905000	       489	80000f2c	00000013	addi	x0,x0,0	  x0:0x00000000
        4915000	       490	80000f30	014000ef	jal	x1,80000f30	  x1=0x80000f30
        4925000	       491	00000000	00000013	addi	x0,x0,0	  x0:0x00000000
        4935000	       492	80000f40	00000013	addi	x0,x0,0	  x0:0x00000000
        4945000	       493	80000f44	ff5ffa6f	jal	x20,80000f44	 x20=0x80000f44
        4955000	       494	00000000	00000013	addi	x0,x0,0	  x0:0x00000000
        4965000	       495	80000f34	00000013	addi	x0,x0,0	  x0:0x00000000
        4975000	       496	80000f38	008000ef	jal	x1,80000f38	  x1=0x80000f38
        4985000	       497	00000000	00000013	addi	x0,x0,0	  x0:0x00000000
        4995000	       498	80000f3c	00000013	addi	x0,x0,0	  x0:0x00000000
        5005000	       499	80000f40	fedff0ef	jal	x1,80000f40	  x1=0x80000f40
        5015000	       500	00000000	00000013	addi	x0,x0,0	  x0:0x00000000
        5025000	       501	80000f28	00000013	addi	x0,x0,0	  x0:0x00000000
        5035000	       502	80000f2c	ff5ff0ef	jal	x1,80000f2c	  x1=0x80000f2c
        5045000	       503	00000000	00000013	addi	x0,x0,0	  x0:0x00000000
        5055000	       504	80000f1c	00000013	addi	x0,x0,0	  x0:0x00000000
        5065000	       505	80000f20	028000ef	jal	x1,80000f20	  x1=0x80000f20
        5075000	       506	00000000	00000013	addi	x0,x0,0	  x0:0x00000000
        5085000	       507	80000f44	00000013	addi	x0,x0,0	  x0:0x00000000
        5095000	       508	80000f48	00124eb3	xor	x29,x4,x1	  x4:0x80000f3c  x1:0x80000f20 x29=0x0000001c
        5105000	       509	80000f4c	01800b6f	jal	x22,80000f4c	 x22=0x80000f4c
        5115000	       510	00000000	00000013	addi	x0,x0,0	  x0:0x00000000
        5125000	       511	80000f60	00000013	addi	x0,x0,0	  x0:0x00000000
        5135000	       512	80000f64	044009ef	jal	x19,80000f64	 x19=0x80000f64
        5145000	       513	00000000	00000013	addi	x0,x0,0	  x0:0x00000000
        5155000	       514	80000fa4	00000013	addi	x0,x0,0	  x0:0x00000000
        5165000	       515	80000fa8	fd5ffe6f	jal	x28,80000fa8	 x28=0x80000fa8
        5175000	       516	00000000	00000013	addi	x0,x0,0	  x0:0x00000000
        5185000	       517	80000f78	00000013	addi	x0,x0,0	  x0:0x00000000
        5195000	       518	80000f7c	fd9ff0ef	jal	x1,80000f7c	  x1=0x80000f7c
        5205000	       519	00000000	00000013	addi	x0,x0,0	  x0:0x00000000
        5215000	       520	80000f50	00000013	addi	x0,x0,0	  x0:0x00000000
        5225000	       521	80000f54	024000ef	jal	x1,80000f54	  x1=0x80000f54
        5235000	       522	00000000	00000013	addi	x0,x0,0	  x0:0x00000000
        5245000	       523	80000f74	00000013	addi	x0,x0,0	  x0:0x00000000
        5255000	       524	80000f78	02c000ef	jal	x1,80000f78	  x1=0x80000f78
        5265000	       525	00000000	00000013	addi	x0,x0,0	  x0:0x00000000
        5275000	       526	80000fa0	00000013	addi	x0,x0,0	  x0:0x00000000
        5285000	       527	80000fa4	fb5ff0ef	jal	x1,80000fa4	  x1=0x80000fa4
        5295000	       528	00000000	00000013	addi	x0,x0,0	  x0:0x00000000
        5305000	       529	80000f54	00000013	addi	x0,x0,0	  x0:0x00000000
        5315000	       530	80000f58	038000ef	jal	x1,80000f58	  x1=0x80000f58
        5325000	       531	00000000	00000013	addi	x0,x0,0	  x0:0x00000000
        5335000	       532	80000f8c	00000013	addi	x0,x0,0	  x0:0x00000000
        5345000	       533	80000f90	fd1ff0ef	jal	x1,80000f90	  x1=0x80000f90
        5355000	       534	00000000	00000013	addi	x0,x0,0	  x0:0x00000000
        5365000	       535	80000f5c	00000013	addi	x0,x0,0	  x0:0x00000000
        5375000	       536	80000f60	040000ef	jal	x1,80000f60	  x1=0x80000f60
        5385000	       537	00000000	00000013	addi	x0,x0,0	  x0:0x00000000
        5395000	       538	80000f9c	00000013	addi	x0,x0,0	  x0:0x00000000
        5405000	       539	80000fa0	fe5ff36f	jal	x6,80000fa0	  x6=0x80000fa0
        5415000	       540	00000000	00000013	addi	x0,x0,0	  x0:0x00000000
        5425000	       541	80000f80	00000013	addi	x0,x0,0	  x0:0x00000000
        5435000	       542	80000f84	fd9ff36f	jal	x6,80000f84	  x6=0x80000f84
        5445000	       543	00000000	00000013	addi	x0,x0,0	  x0:0x00000000
        5455000	       544	80000f58	00000013	addi	x0,x0,0	  x0:0x00000000
        5465000	       545	80000f5c	024000ef	jal	x1,80000f5c	  x1=0x80000f5c
        5475000	       546	00000000	00000013	addi	x0,x0,0	  x0:0x00000000
        5485000	       547	80000f7c	00000013	addi	x0,x0,0	  x0:0x00000000
        5495000	       548	80000f80	02c000ef	jal	x1,80000f80	  x1=0x80000f80
        5505000	       549	00000000	00000013	addi	x0,x0,0	  x0:0x00000000
        5515000	       550	80000fa8	00000013	addi	x0,x0,0	  x0:0x00000000
        5525000	       551	80000fac	fbdff0ef	jal	x1,80000fac	  x1=0x80000fac
        5535000	       552	00000000	00000013	addi	x0,x0,0	  x0:0x00000000
        5545000	       553	80000f64	00000013	addi	x0,x0,0	  x0:0x00000000
        5555000	       554	80000f68	030000ef	jal	x1,80000f68	  x1=0x80000f68
        5565000	       555	00000000	00000013	addi	x0,x0,0	  x0:0x00000000
        5575000	       556	80000f94	00000013	addi	x0,x0,0	  x0:0x00000000
        5585000	       557	80000f98	fb9ff0ef	jal	x1,80000f98	  x1=0x80000f98
        5595000	       558	00000000	00000013	addi	x0,x0,0	  x0:0x00000000
        5605000	       559	80000f4c	00000013	addi	x0,x0,0	  x0:0x00000000
        5615000	       560	80000f50	04c0036f	jal	x6,80000f50	  x6=0x80000f50
        5625000	       561	00000000	00000013	addi	x0,x0,0	  x0:0x00000000
        5635000	       562	80000f98	00000013	addi	x0,x0,0	  x0:0x00000000
        5645000	       563	80000f9c	fd1ff0ef	jal	x1,80000f9c	  x1=0x80000f9c
        5655000	       564	00000000	00000013	addi	x0,x0,0	  x0:0x00000000
        5665000	       565	80000f68	00000013	addi	x0,x0,0	  x0:0x00000000
        5675000	       566	80000f6c	044000ef	jal	x1,80000f6c	  x1=0x80000f6c
        5685000	       567	00000000	00000013	addi	x0,x0,0	  x0:0x00000000
        5695000	       568	80000fac	00000013	addi	x0,x0,0	  x0:0x00000000
        5705000	       569	80000fb0	fc5ffd6f	jal	x26,80000fb0	 x26=0x80000fb0
        5715000	       570	00000000	00000013	addi	x0,x0,0	  x0:0x00000000
        5725000	       571	80000f70	00000013	addi	x0,x0,0	  x0:0x00000000
        5735000	       572	80000f74	018001ef	jal	x3,80000f74	  x3=0x80000f74
        5745000	       573	00000000	00000013	addi	x0,x0,0	  x0:0x00000000
        5755000	       574	80000f88	00000013	addi	x0,x0,0	  x0:0x00000000
        5765000	       575	80000f8c	0280076f	jal	x14,80000f8c	 x14=0x80000f8c
        5775000	       576	00000000	00000013	addi	x0,x0,0	  x0:0x00000000
        5785000	       577	80000fb0	00000013	addi	x0,x0,0	  x0:0x00000000
        5795000	       578	80000fb4	fbdffa6f	jal	x20,80000fb4	 x20=0x80000fb4
        5805000	       579	00000000	00000013	addi	x0,x0,0	  x0:0x00000000
        5815000	       580	80000f6c	00000013	addi	x0,x0,0	  x0:0x00000000
        5825000	       581	80000f70	018002ef	jal	x5,80000f70	  x5=0x80000f70
        5835000	       582	00000000	00000013	addi	x0,x0,0	  x0:0x00000000
        5845000	       583	80000f84	00000013	addi	x0,x0,0	  x0:0x00000000
        5855000	       584	80000f88	00c0036f	jal	x6,80000f88	  x6=0x80000f88
        5865000	       585	00000000	00000013	addi	x0,x0,0	  x0:0x00000000
        5875000	       586	80000f90	00000013	addi	x0,x0,0	  x0:0x00000000
        5885000	       587	80000f94	0240036f	jal	x6,80000f94	  x6=0x80000f94
        5895000	       588	00000000	00000013	addi	x0,x0,0	  x0:0x00000000
        5905000	       589	80000fb4	00000013	addi	x0,x0,0	  x0:0x00000000
        5915000	       590	80000fb8	01ab5613	srli	x12,x22,0x1a	 x22:0x80000f4c x12=0x00000020
        5925000	       591	80000fbc	03400b6f	jal	x22,80000fbc	 x22=0x80000fbc
        5935000	       592	00000000	00000013	addi	x0,x0,0	  x0:0x00000000
        5945000	       593	80000fec	00000013	addi	x0,x0,0	  x0:0x00000000
        5955000	       594	80000ff0	fe1ff5ef	jal	x11,80000ff0	 x11=0x80000ff0
        5965000	       595	00000000	00000013	addi	x0,x0,0	  x0:0x00000000
        5975000	       596	80000fcc	00000013	addi	x0,x0,0	  x0:0x00000000
        5985000	       597	80000fd0	ff5ff0ef	jal	x1,80000fd0	  x1=0x80000fd0
        5995000	       598	00000000	00000013	addi	x0,x0,0	  x0:0x00000000
        6005000	       599	80000fc0	00000013	addi	x0,x0,0	  x0:0x00000000
        6015000	       600	80000fc4	ffdffcef	jal	x25,80000fc4	 x25=0x80000fc4
        6025000	       601	00000000	00000013	addi	x0,x0,0	  x0:0x00000000
        6035000	       602	80000fbc	00000013	addi	x0,x0,0	  x0:0x00000000
        6045000	       603	80000fc0	008000ef	jal	x1,80000fc0	  x1=0x80000fc0
        6055000	       604	00000000	00000013	addi	x0,x0,0	  x0:0x00000000
        6065000	       605	80000fc4	00000013	addi	x0,x0,0	  x0:0x00000000
        6075000	       606	80000fc8	01c000ef	jal	x1,80000fc8	  x1=0x80000fc8
        6085000	       607	00000000	00000013	addi	x0,x0,0	  x0:0x00000000
        6095000	       608	80000fe0	00000013	addi	x0,x0,0	  x0:0x00000000
        6105000	       609	80000fe4	ffdff6ef	jal	x13,80000fe4	 x13=0x80000fe4
        6115000	       610	00000000	00000013	addi	x0,x0,0	  x0:0x00000000
        6125000	       611	80000fdc	00000013	addi	x0,x0,0	  x0:0x00000000
        6135000	       612	80000fe0	00800d6f	jal	x26,80000fe0	 x26=0x80000fe0
        6145000	       613	00000000	00000013	addi	x0,x0,0	  x0:0x00000000
        6155000	       614	80000fe4	00000013	addi	x0,x0,0	  x0:0x00000000
        6165000	       615	80000fe8	fedff0ef	jal	x1,80000fe8	  x1=0x80000fe8
        6175000	       616	00000000	00000013	addi	x0,x0,0	  x0:0x00000000
        6185000	       617	80000fd0	00000013	addi	x0,x0,0	  x0:0x00000000
        6195000	       618	80000fd4	0040036f	jal	x6,80000fd4	  x6=0x80000fd4
        6205000	       619	00000000	00000013	addi	x0,x0,0	  x0:0x00000000
        6215000	       620	80000fd4	00000013	addi	x0,x0,0	  x0:0x00000000
        6225000	       621	80000fd8	00400b6f	jal	x22,80000fd8	 x22=0x80000fd8
        6235000	       622	00000000	00000013	addi	x0,x0,0	  x0:0x00000000
        6245000	       623	80000fd8	00000013	addi	x0,x0,0	  x0:0x00000000
        6255000	       624	80000fdc	010007ef	jal	x15,80000fdc	 x15=0x80000fdc
        6265000	       625	00000000	00000013	addi	x0,x0,0	  x0:0x00000000
        6275000	       626	80000fe8	00000013	addi	x0,x0,0	  x0:0x00000000
        6285000	       627	80000fec	fe1ff0ef	jal	x1,80000fec	  x1=0x80000fec
        6295000	       628	00000000	00000013	addi	x0,x0,0	  x0:0x00000000
        6305000	       629	80000fc8	00000013	addi	x0,x0,0	  x0:0x00000000
        6315000	       630	80000fcc	0280046f	jal	x8,80000fcc	  x8=0x80000fcc
        6325000	       631	00000000	00000013	addi	x0,x0,0	  x0:0x00000000
        6335000	       632	80000ff0	00000013	addi	x0,x0,0	  x0:0x00000000
        6345000	       633	80000ff4	0098fd33	and	x26,x17,x9	 x17:0x17380cdc  x9:0x80000ebc x26=0x00000c9c
        6355000	       634	80000ff8	03c00b6f	jal	x22,80000ff8	 x22=0x80000ff8
        6365000	       635	00000000	00000013	addi	x0,x0,0	  x0:0x00000000
        6375000	       636	80001030	00000013	addi	x0,x0,0	  x0:0x00000000
        6385000	       637	80001034	fd1ff0ef	jal	x1,80001034	  x1=0x80001034
        6395000	       638	00000000	00000013	addi	x0,x0,0	  x0:0x00000000
        6405000	       639	80001000	00000013	addi	x0,x0,0	  x0:0x00000000
        6415000	       640	80001004	014000ef	jal	x1,80001004	  x1=0x80001004
        6425000	       641	00000000	00000013	addi	x0,x0,0	  x0:0x00000000
        6435000	       642	80001014	00000013	addi	x0,x0,0	  x0:0x00000000
        6445000	       643	80001018	004005ef	jal	x11,80001018	 x11=0x80001018
        6455000	       644	00000000	00000013	addi	x0,x0,0	  x0:0x00000000
        6465000	       645	80001018	00000013	addi	x0,x0,0	  x0:0x00000000
        6475000	       646	8000101c	004007ef	jal	x15,8000101c	 x15=0x8000101c
        6485000	       647	00000000	00000013	addi	x0,x0,0	  x0:0x00000000
        6495000	       648	8000101c	00000013	addi	x0,x0,0	  x0:0x00000000
        6505000	       649	80001020	0300036f	jal	x6,80001020	  x6=0x80001020
        6515000	       650	00000000	00000013	addi	x0,x0,0	  x0:0x00000000
        6525000	       651	8000104c	00000013	addi	x0,x0,0	  x0:0x00000000
        6535000	       652	80001050	fc5ff0ef	jal	x1,80001050	  x1=0x80001050
        6545000	       653	00000000	00000013	addi	x0,x0,0	  x0:0x00000000
        6555000	       654	80001010	00000013	addi	x0,x0,0	  x0:0x00000000
        6565000	       655	80001014	050000ef	jal	x1,80001014	  x1=0x80001014
        6575000	       656	00000000	00000013	addi	x0,x0,0	  x0:0x00000000
        6585000	       657	80001060	00000013	addi	x0,x0,0	  x0:0x00000000
        6595000	       658	80001064	fd9ff0ef	jal	x1,80001064	  x1=0x80001064
        6605000	       659	00000000	00000013	addi	x0,x0,0	  x0:0x00000000
        6615000	       660	80001038	00000013	addi	x0,x0,0	  x0:0x00000000
        6625000	       661	8000103c	0240096f	jal	x18,8000103c	 x18=0x8000103c
        6635000	       662	00000000	00000013	addi	x0,x0,0	  x0:0x00000000
        6645000	       663	8000105c	00000013	addi	x0,x0,0	  x0:0x00000000
        6655000	       664	80001060	f9dff36f	jal	x6,80001060	  x6=0x80001060
        6665000	       665	00000000	00000013	addi	x0,x0,0	  x0:0x00000000
        6675000	       666	80000ff8	00000013	addi	x0,x0,0	  x0:0x00000000
        6685000	       667	80000ffc	02c009ef	jal	x19,80000ffc	 x19=0x80000ffc
        6695000	       668	00000000	00000013	addi	x0,x0,0	  x0:0x00000000
        6705000	       669	80001024	00000013	addi	x0,x0,0	  x0:0x00000000
        6715000	       670	80001028	ffdff0ef	jal	x1,80001028	  x1=0x80001028
        6725000	       671	00000000	00000013	addi	x0,x0,0	  x0:0x00000000
        6735000	       672	80001020	00000013	addi	x0,x0,0	  x0:0x00000000
        6745000	       673	80001024	030000ef	jal	x1,80001024	  x1=0x80001024
        6755000	       674	00000000	00000013	addi	x0,x0,0	  x0:0x00000000
        6765000	       675	80001050	00000013	addi	x0,x0,0	  x0:0x00000000
        6775000	       676	80001054	ff1ffe6f	jal	x28,80001054	 x28=0x80001054
        6785000	       677	00000000	00000013	addi	x0,x0,0	  x0:0x00000000
        6795000	       678	80001040	00000013	addi	x0,x0,0	  x0:0x00000000
        6805000	       679	80001044	fcdff0ef	jal	x1,80001044	  x1=0x80001044
        6815000	       680	00000000	00000013	addi	x0,x0,0	  x0:0x00000000
        6825000	       681	8000100c	00000013	addi	x0,x0,0	  x0:0x00000000
        6835000	       682	80001010	028000ef	jal	x1,80001010	  x1=0x80001010
        6845000	       683	00000000	00000013	addi	x0,x0,0	  x0:0x00000000
        6855000	       684	80001034	00000013	addi	x0,x0,0	  x0:0x00000000
        6865000	       685	80001038	ff5ff76f	jal	x14,80001038	 x14=0x80001038
        6875000	       686	00000000	00000013	addi	x0,x0,0	  x0:0x00000000
        6885000	       687	80001028	00000013	addi	x0,x0,0	  x0:0x00000000
        6895000	       688	8000102c	01c000ef	jal	x1,8000102c	  x1=0x8000102c
        6905000	       689	00000000	00000013	addi	x0,x0,0	  x0:0x00000000
        6915000	       690	80001044	00000013	addi	x0,x0,0	  x0:0x00000000
        6925000	       691	80001048	fb9ff2ef	jal	x5,80001048	  x5=0x80001048
        6935000	       692	00000000	00000013	addi	x0,x0,0	  x0:0x00000000
        6945000	       693	80000ffc	00000013	addi	x0,x0,0	  x0:0x00000000
        6955000	       694	80001000	00800cef	jal	x25,80001000	 x25=0x80001000
        6965000	       695	00000000	00000013	addi	x0,x0,0	  x0:0x00000000
        6975000	       696	80001004	00000013	addi	x0,x0,0	  x0:0x00000000
        6985000	       697	80001008	004000ef	jal	x1,80001008	  x1=0x80001008
        6995000	       698	00000000	00000013	addi	x0,x0,0	  x0:0x00000000
        7005000	       699	80001008	00000013	addi	x0,x0,0	  x0:0x00000000
        7015000	       700	8000100c	04c008ef	jal	x17,8000100c	 x17=0x8000100c
        7025000	       701	00000000	00000013	addi	x0,x0,0	  x0:0x00000000
        7035000	       702	80001054	00000013	addi	x0,x0,0	  x0:0x00000000
        7045000	       703	80001058	fe9ff36f	jal	x6,80001058	  x6=0x80001058
        7055000	       704	00000000	00000013	addi	x0,x0,0	  x0:0x00000000
        7065000	       705	8000103c	00000013	addi	x0,x0,0	  x0:0x00000000
        7075000	       706	80001040	01c0036f	jal	x6,80001040	  x6=0x80001040
        7085000	       707	00000000	00000013	addi	x0,x0,0	  x0:0x00000000
        7095000	       708	80001058	00000013	addi	x0,x0,0	  x0:0x00000000
        7105000	       709	8000105c	ff1ff36f	jal	x6,8000105c	  x6=0x8000105c
        7115000	       710	00000000	00000013	addi	x0,x0,0	  x0:0x00000000
        7125000	       711	80001048	00000013	addi	x0,x0,0	  x0:0x00000000
        7135000	       712	8000104c	fe5ff0ef	jal	x1,8000104c	  x1=0x8000104c
        7145000	       713	00000000	00000013	addi	x0,x0,0	  x0:0x00000000
        7155000	       714	8000102c	00000013	addi	x0,x0,0	  x0:0x00000000
        7165000	       715	80001030	0380076f	jal	x14,80001030	 x14=0x80001030
        7175000	       716	00000000	00000013	addi	x0,x0,0	  x0:0x00000000
        7185000	       717	80001064	00000013	addi	x0,x0,0	  x0:0x00000000
        7195000	       718	80001068	2a0db017	auipc	x0,0x2a0db	
        7205000	       719	8000106c	03400b6f	jal	x22,8000106c	 x22=0x8000106c
        7215000	       720	00000000	00000013	addi	x0,x0,0	  x0:0x00000000
        7225000	       721	8000109c	00000013	addi	x0,x0,0	  x0:0x00000000
        7235000	       722	800010a0	fe5ff0ef	jal	x1,800010a0	  x1=0x800010a0
        7245000	       723	00000000	00000013	addi	x0,x0,0	  x0:0x00000000
        7255000	       724	80001080	00000013	addi	x0,x0,0	  x0:0x00000000
        7265000	       725	80001084	ffdff3ef	jal	x7,80001084	  x7=0x80001084
        7275000	       726	00000000	00000013	addi	x0,x0,0	  x0:0x00000000
        7285000	       727	8000107c	00000013	addi	x0,x0,0	  x0:0x00000000
        7295000	       728	80001080	0240096f	jal	x18,80001080	 x18=0x80001080
        7305000	       729	00000000	00000013	addi	x0,x0,0	  x0:0x00000000
        7315000	       730	800010a0	00000013	addi	x0,x0,0	  x0:0x00000000
        7325000	       731	800010a4	004001ef	jal	x3,800010a4	  x3=0x800010a4
        7335000	       732	00000000	00000013	addi	x0,x0,0	  x0:0x00000000
        7345000	       733	800010a4	00000013	addi	x0,x0,0	  x0:0x00000000
        7355000	       734	800010a8	0100036f	jal	x6,800010a8	  x6=0x800010a8
        7365000	       735	00000000	00000013	addi	x0,x0,0	  x0:0x00000000
        7375000	       736	800010b4	00000013	addi	x0,x0,0	  x0:0x00000000
        7385000	       737	800010b8	ff5ff0ef	jal	x1,800010b8	  x1=0x800010b8
        7395000	       738	00000000	00000013	addi	x0,x0,0	  x0:0x00000000
        7405000	       739	800010a8	00000013	addi	x0,x0,0	  x0:0x00000000
        7415000	       740	800010ac	fe9ff36f	jal	x6,800010ac	  x6=0x800010ac
        7425000	       741	00000000	00000013	addi	x0,x0,0	  x0:0x00000000
        7435000	       742	80001090	00000013	addi	x0,x0,0	  x0:0x00000000
        7445000	       743	80001094	ff9ff0ef	jal	x1,80001094	  x1=0x80001094
        7455000	       744	00000000	00000013	addi	x0,x0,0	  x0:0x00000000
        7465000	       745	80001088	00000013	addi	x0,x0,0	  x0:0x00000000
        7475000	       746	8000108c	ffdff0ef	jal	x1,8000108c	  x1=0x8000108c
        7485000	       747	00000000	00000013	addi	x0,x0,0	  x0:0x00000000
        7495000	       748	80001084	00000013	addi	x0,x0,0	  x0:0x00000000
        7505000	       749	80001088	008000ef	jal	x1,80001088	  x1=0x80001088
        7515000	       750	00000000	00000013	addi	x0,x0,0	  x0:0x00000000
        7525000	       751	8000108c	00000013	addi	x0,x0,0	  x0:0x00000000
        7535000	       752	80001090	fe9ffb6f	jal	x22,80001090	 x22=0x80001090
        7545000	       753	00000000	00000013	addi	x0,x0,0	  x0:0x00000000
        7555000	       754	80001074	00000013	addi	x0,x0,0	  x0:0x00000000
        7565000	       755	80001078	ffdff36f	jal	x6,80001078	  x6=0x80001078
        7575000	       756	00000000	00000013	addi	x0,x0,0	  x0:0x00000000
        7585000	       757	80001070	00000013	addi	x0,x0,0	  x0:0x00000000
        7595000	       758	80001074	ffdff2ef	jal	x5,80001074	  x5=0x80001074
        7605000	       759	00000000	00000013	addi	x0,x0,0	  x0:0x00000000
        7615000	       760	8000106c	00000013	addi	x0,x0,0	  x0:0x00000000
        7625000	       761	80001070	00c000ef	jal	x1,80001070	  x1=0x80001070
        7635000	       762	00000000	00000013	addi	x0,x0,0	  x0:0x00000000
        7645000	       763	80001078	00000013	addi	x0,x0,0	  x0:0x00000000
        7655000	       764	8000107c	01c000ef	jal	x1,8000107c	  x1=0x8000107c
        7665000	       765	00000000	00000013	addi	x0,x0,0	  x0:0x00000000
        7675000	       766	80001094	00000013	addi	x0,x0,0	  x0:0x00000000
        7685000	       767	80001098	004003ef	jal	x7,80001098	  x7=0x80001098
        7695000	       768	00000000	00000013	addi	x0,x0,0	  x0:0x00000000
        7705000	       769	80001098	00000013	addi	x0,x0,0	  x0:0x00000000
        7715000	       770	8000109c	014000ef	jal	x1,8000109c	  x1=0x8000109c
        7725000	       771	00000000	00000013	addi	x0,x0,0	  x0:0x00000000
        7735000	       772	800010ac	00000013	addi	x0,x0,0	  x0:0x00000000
        7745000	       773	800010b0	0040036f	jal	x6,800010b0	  x6=0x800010b0
        7755000	       774	00000000	00000013	addi	x0,x0,0	  x0:0x00000000
        7765000	       775	800010b0	00000013	addi	x0,x0,0	  x0:0x00000000
        7775000	       776	800010b4	0080036f	jal	x6,800010b4	  x6=0x800010b4
        7785000	       777	00000000	00000013	addi	x0,x0,0	  x0:0x00000000
        7795000	       778	800010b8	00000013	addi	x0,x0,0	  x0:0x00000000
        7805000	       779	800010bc	01d527b3	slt	x15,x10,x29	 x10:0x80000efc x29:0x0000001c x15=0x00000001
        7815000	       780	800010c0	02400b6f	jal	x22,800010c0	 x22=0x800010c0
        7825000	       781	00000000	00000013	addi	x0,x0,0	  x0:0x00000000
        7835000	       782	800010e0	00000013	addi	x0,x0,0	  x0:0x00000000
        7845000	       783	800010e4	018002ef	jal	x5,800010e4	  x5=0x800010e4
        7855000	       784	00000000	00000013	addi	x0,x0,0	  x0:0x00000000
        7865000	       785	800010f8	00000013	addi	x0,x0,0	  x0:0x00000000
        7875000	       786	800010fc	ff1ff0ef	jal	x1,800010fc	  x1=0x800010fc
        7885000	       787	00000000	00000013	addi	x0,x0,0	  x0:0x00000000
        7895000	       788	800010e8	00000013	addi	x0,x0,0	  x0:0x00000000
        7905000	       789	800010ec	fe1ffbef	jal	x23,800010ec	 x23=0x800010ec
        7915000	       790	00000000	00000013	addi	x0,x0,0	  x0:0x00000000
        7925000	       791	800010c8	00000013	addi	x0,x0,0	  x0:0x00000000
        7935000	       792	800010cc	01c0036f	jal	x6,800010cc	  x6=0x800010cc
        7945000	       793	00000000	00000013	addi	x0,x0,0	  x0:0x00000000
        7955000	       794	800010e4	00000013	addi	x0,x0,0	  x0:0x00000000
        7965000	       795	800010e8	ff1ff0ef	jal	x1,800010e8	  x1=0x800010e8
        7975000	       796	00000000	00000013	addi	x0,x0,0	  x0:0x00000000
        7985000	       797	800010d4	00000013	addi	x0,x0,0	  x0:0x00000000
        7995000	       798	800010d8	04c0036f	jal	x6,800010d8	  x6=0x800010d8
        8005000	       799	00000000	00000013	addi	x0,x0,0	  x0:0x00000000
        8015000	       800	80001120	00000013	addi	x0,x0,0	  x0:0x00000000
        8025000	       801	80001124	fe1ff36f	jal	x6,80001124	  x6=0x80001124
        8035000	       802	00000000	00000013	addi	x0,x0,0	  x0:0x00000000
        8045000	       803	80001100	00000013	addi	x0,x0,0	  x0:0x00000000
        8055000	       804	80001104	fd9ff0ef	jal	x1,80001104	  x1=0x80001104
        8065000	       805	00000000	00000013	addi	x0,x0,0	  x0:0x00000000
        8075000	       806	800010d8	00000013	addi	x0,x0,0	  x0:0x00000000
        8085000	       807	800010dc	fedff0ef	jal	x1,800010dc	  x1=0x800010dc
        8095000	       808	00000000	00000013	addi	x0,x0,0	  x0:0x00000000
        8105000	       809	800010c4	00000013	addi	x0,x0,0	  x0:0x00000000
        8115000	       810	800010c8	0380036f	jal	x6,800010c8	  x6=0x800010c8
        8125000	       811	00000000	00000013	addi	x0,x0,0	  x0:0x00000000
        8135000	       812	800010fc	00000013	addi	x0,x0,0	  x0:0x00000000
        8145000	       813	80001100	ff5ff0ef	jal	x1,80001100	  x1=0x80001100
        8155000	       814	00000000	00000013	addi	x0,x0,0	  x0:0x00000000
        8165000	       815	800010f0	00000013	addi	x0,x0,0	  x0:0x00000000
        8175000	       816	800010f4	01c000ef	jal	x1,800010f4	  x1=0x800010f4
        8185000	       817	00000000	00000013	addi	x0,x0,0	  x0:0x00000000
        8195000	       818	8000110c	00000013	addi	x0,x0,0	  x0:0x00000000
        8205000	       819	80001110	fb5ff0ef	jal	x1,80001110	  x1=0x80001110
        8215000	       820	00000000	00000013	addi	x0,x0,0	  x0:0x00000000
        8225000	       821	800010c0	00000013	addi	x0,x0,0	  x0:0x00000000
        8235000	       822	800010c4	064000ef	jal	x1,800010c4	  x1=0x800010c4
        8245000	       823	00000000	00000013	addi	x0,x0,0	  x0:0x00000000
        8255000	       824	80001124	00000013	addi	x0,x0,0	  x0:0x00000000
        8265000	       825	80001128	ff1ffd6f	jal	x26,80001128	 x26=0x80001128
        8275000	       826	00000000	00000013	addi	x0,x0,0	  x0:0x00000000
        8285000	       827	80001114	00000013	addi	x0,x0,0	  x0:0x00000000
        8295000	       828	80001118	fb9ffbef	jal	x23,80001118	 x23=0x80001118
        8305000	       829	00000000	00000013	addi	x0,x0,0	  x0:0x00000000
        8315000	       830	800010cc	00000013	addi	x0,x0,0	  x0:0x00000000
        8325000	       831	800010d0	0040036f	jal	x6,800010d0	  x6=0x800010d0
        8335000	       832	00000000	00000013	addi	x0,x0,0	  x0:0x00000000
        8345000	       833	800010d0	00000013	addi	x0,x0,0	  x0:0x00000000
        8355000	       834	800010d4	00c0036f	jal	x6,800010d4	  x6=0x800010d4
        8365000	       835	00000000	00000013	addi	x0,x0,0	  x0:0x00000000
        8375000	       836	800010dc	00000013	addi	x0,x0,0	  x0:0x00000000
        8385000	       837	800010e0	034006ef	jal	x13,800010e0	 x13=0x800010e0
        8395000	       838	00000000	00000013	addi	x0,x0,0	  x0:0x00000000
        8405000	       839	80001110	00000013	addi	x0,x0,0	  x0:0x00000000
        8415000	       840	80001114	00c000ef	jal	x1,80001114	  x1=0x80001114
        8425000	       841	00000000	00000013	addi	x0,x0,0	  x0:0x00000000
        8435000	       842	8000111c	00000013	addi	x0,x0,0	  x0:0x00000000
        8445000	       843	80001120	fd1ff36f	jal	x6,80001120	  x6=0x80001120
        8455000	       844	00000000	00000013	addi	x0,x0,0	  x0:0x00000000
        8465000	       845	800010ec	00000013	addi	x0,x0,0	  x0:0x00000000
        8475000	       846	800010f0	02c000ef	jal	x1,800010f0	  x1=0x800010f0
        8485000	       847	00000000	00000013	addi	x0,x0,0	  x0:0x00000000
        8495000	       848	80001118	00000013	addi	x0,x0,0	  x0:0x00000000
        8505000	       849	8000111c	fedff0ef	jal	x1,8000111c	  x1=0x8000111c
        8515000	       850	00000000	00000013	addi	x0,x0,0	  x0:0x00000000
        8525000	       851	80001104	00000013	addi	x0,x0,0	  x0:0x00000000
        8535000	       852	80001108	004000ef	jal	x1,80001108	  x1=0x80001108
        8545000	       853	00000000	00000013	addi	x0,x0,0	  x0:0x00000000
        8555000	       854	80001108	00000013	addi	x0,x0,0	  x0:0x00000000
        8565000	       855	8000110c	fedff26f	jal	x4,8000110c	  x4=0x8000110c
        8575000	       856	00000000	00000013	addi	x0,x0,0	  x0:0x00000000
        8585000	       857	800010f4	00000013	addi	x0,x0,0	  x0:0x00000000
        8595000	       858	800010f8	034000ef	jal	x1,800010f8	  x1=0x800010f8
        8605000	       859	00000000	00000013	addi	x0,x0,0	  x0:0x00000000
        8615000	       860	80001128	00000013	addi	x0,x0,0	  x0:0x00000000
        8625000	       861	8000112c	404602b3	sub	x5,x12,x4	 x12:0x00000020  x4:0x8000110c  x5=0x7fffef14
        8635000	       862	80001130	00800b6f	jal	x22,80001130	 x22=0x80001130
        8645000	       863	00000000	00000013	addi	x0,x0,0	  x0:0x00000000
        8655000	       864	80001134	00000013	addi	x0,x0,0	  x0:0x00000000
        8665000	       865	80001138	0080036f	jal	x6,80001138	  x6=0x80001138
        8675000	       866	00000000	00000013	addi	x0,x0,0	  x0:0x00000000
        8685000	       867	8000113c	00000013	addi	x0,x0,0	  x0:0x00000000
        8695000	       868	80001140	024000ef	jal	x1,80001140	  x1=0x80001140
        8705000	       869	00000000	00000013	addi	x0,x0,0	  x0:0x00000000
        8715000	       870	80001160	00000013	addi	x0,x0,0	  x0:0x00000000
        8725000	       871	80001164	00c0036f	jal	x6,80001164	  x6=0x80001164
        8735000	       872	00000000	00000013	addi	x0,x0,0	  x0:0x00000000
        8745000	       873	8000116c	00000013	addi	x0,x0,0	  x0:0x00000000
        8755000	       874	80001170	fcdff0ef	jal	x1,80001170	  x1=0x80001170
        8765000	       875	00000000	00000013	addi	x0,x0,0	  x0:0x00000000
        8775000	       876	80001138	00000013	addi	x0,x0,0	  x0:0x00000000
        8785000	       877	8000113c	014000ef	jal	x1,8000113c	  x1=0x8000113c
        8795000	       878	00000000	00000013	addi	x0,x0,0	  x0:0x00000000
        8805000	       879	8000114c	00000013	addi	x0,x0,0	  x0:0x00000000
        8815000	       880	80001150	004000ef	jal	x1,80001150	  x1=0x80001150
        8825000	       881	00000000	00000013	addi	x0,x0,0	  x0:0x00000000
        8835000	       882	80001150	00000013	addi	x0,x0,0	  x0:0x00000000
        8845000	       883	80001154	ff5ffa6f	jal	x20,80001154	 x20=0x80001154
        8855000	       884	00000000	00000013	addi	x0,x0,0	  x0:0x00000000
        8865000	       885	80001144	00000013	addi	x0,x0,0	  x0:0x00000000
        8875000	       886	80001148	0180096f	jal	x18,80001148	 x18=0x80001148
        8885000	       887	00000000	00000013	addi	x0,x0,0	  x0:0x00000000
        8895000	       888	8000115c	00000013	addi	x0,x0,0	  x0:0x00000000
        8905000	       889	80001160	01c000ef	jal	x1,80001160	  x1=0x80001160
        8915000	       890	00000000	00000013	addi	x0,x0,0	  x0:0x00000000
        8925000	       891	80001178	00000013	addi	x0,x0,0	  x0:0x00000000
        8935000	       892	8000117c	fddff0ef	jal	x1,8000117c	  x1=0x8000117c
        8945000	       893	00000000	00000013	addi	x0,x0,0	  x0:0x00000000
        8955000	       894	80001154	00000013	addi	x0,x0,0	  x0:0x00000000
        8965000	       895	80001158	014000ef	jal	x1,80001158	  x1=0x80001158
        8975000	       896	00000000	00000013	addi	x0,x0,0	  x0:0x00000000
        8985000	       897	80001168	00000013	addi	x0,x0,0	  x0:0x00000000
        8995000	       898	8000116c	fe1ff0ef	jal	x1,8000116c	  x1=0x8000116c
        9005000	       899	00000000	00000013	addi	x0,x0,0	  x0:0x00000000
        9015000	       900	80001148	00000013	addi	x0,x0,0	  x0:0x00000000
        9025000	       901	8000114c	010000ef	jal	x1,8000114c	  x1=0x8000114c
        9035000	       902	00000000	00000013	addi	x0,x0,0	  x0:0x00000000
        9045000	       903	80001158	00000013	addi	x0,x0,0	  x0:0x00000000
        9055000	       904	8000115c	0280036f	jal	x6,8000115c	  x6=0x8000115c
        9065000	       905	00000000	00000013	addi	x0,x0,0	  x0:0x00000000
        9075000	       906	80001180	00000013	addi	x0,x0,0	  x0:0x00000000
        9085000	       907	80001184	fb1ff1ef	jal	x3,80001184	  x3=0x80001184
        9095000	       908	00000000	00000013	addi	x0,x0,0	  x0:0x00000000
        9105000	       909	80001130	00000013	addi	x0,x0,0	  x0:0x00000000
        9115000	       910	80001134	0400086f	jal	x16,80001134	 x16=0x80001134
        9125000	       911	00000000	00000013	addi	x0,x0,0	  x0:0x00000000
        9135000	       912	80001170	00000013	addi	x0,x0,0	  x0:0x00000000
        9145000	       913	80001174	fd1ff36f	jal	x6,80001174	  x6=0x80001174
        9155000	       914	00000000	00000013	addi	x0,x0,0	  x0:0x00000000
        9165000	       915	80001140	00000013	addi	x0,x0,0	  x0:0x00000000
        9175000	       916	80001144	034000ef	jal	x1,80001144	  x1=0x80001144
        9185000	       917	00000000	00000013	addi	x0,x0,0	  x0:0x00000000
        9195000	       918	80001174	00000013	addi	x0,x0,0	  x0:0x00000000
        9205000	       919	80001178	0080036f	jal	x6,80001178	  x6=0x80001178
        9215000	       920	00000000	00000013	addi	x0,x0,0	  x0:0x00000000
        9225000	       921	8000117c	00000013	addi	x0,x0,0	  x0:0x00000000
        9235000	       922	80001180	fe9ff0ef	jal	x1,80001180	  x1=0x80001180
        9245000	       923	00000000	00000013	addi	x0,x0,0	  x0:0x00000000
        9255000	       924	80001164	00000013	addi	x0,x0,0	  x0:0x00000000
        9265000	       925	80001168	020000ef	jal	x1,80001168	  x1=0x80001168
        9275000	       926	00000000	00000013	addi	x0,x0,0	  x0:0x00000000
        9285000	       927	80001184	00000013	addi	x0,x0,0	  x0:0x00000000
        9295000	       928	80001188	c9ee3513	sltiu	x10,x28,-866	 x28:0x80001054 x10=0x00000001
        9305000	       929	8000118c	02000b6f	jal	x22,8000118c	 x22=0x8000118c
        9315000	       930	00000000	00000013	addi	x0,x0,0	  x0:0x00000000
        9325000	       931	800011a8	00000013	addi	x0,x0,0	  x0:0x00000000
        9335000	       932	800011ac	fe9ff36f	jal	x6,800011ac	  x6=0x800011ac
        9345000	       933	00000000	00000013	addi	x0,x0,0	  x0:0x00000000
        9355000	       934	80001190	00000013	addi	x0,x0,0	  x0:0x00000000
        9365000	       935	80001194	00c005ef	jal	x11,80001194	 x11=0x80001194
        9375000	       936	00000000	00000013	addi	x0,x0,0	  x0:0x00000000
        9385000	       937	8000119c	00000013	addi	x0,x0,0	  x0:0x00000000
        9395000	       938	800011a0	0140016f	jal	x2,800011a0	  x2=0x800011a0
        9405000	       939	00000000	00000013	addi	x0,x0,0	  x0:0x00000000
        9415000	       940	800011b0	00000013	addi	x0,x0,0	  x0:0x00000000
        9425000	       941	800011b4	020000ef	jal	x1,800011b4	  x1=0x800011b4
        9435000	       942	00000000	00000013	addi	x0,x0,0	  x0:0x00000000
        9445000	       943	800011d0	00000013	addi	x0,x0,0	  x0:0x00000000
        9455000	       944	800011d4	00c000ef	jal	x1,800011d4	  x1=0x800011d4
        9465000	       945	00000000	00000013	addi	x0,x0,0	  x0:0x00000000
        9475000	       946	800011dc	00000013	addi	x0,x0,0	  x0:0x00000000
        9485000	       947	800011e0	fedff4ef	jal	x9,800011e0	  x9=0x800011e0
        9495000	       948	00000000	00000013	addi	x0,x0,0	  x0:0x00000000
        9505000	       949	800011c8	00000013	addi	x0,x0,0	  x0:0x00000000
        9515000	       950	800011cc	fc5ff66f	jal	x12,800011cc	 x12=0x800011cc
        9525000	       951	00000000	00000013	addi	x0,x0,0	  x0:0x00000000
        9535000	       952	8000118c	00000013	addi	x0,x0,0	  x0:0x00000000
        9545000	       953	80001190	0540036f	jal	x6,80001190	  x6=0x80001190
        9555000	       954	00000000	00000013	addi	x0,x0,0	  x0:0x00000000
        9565000	       955	800011e0	00000013	addi	x0,x0,0	  x0:0x00000000
        9575000	       956	800011e4	fedff0ef	jal	x1,800011e4	  x1=0x800011e4
        9585000	       957	00000000	00000013	addi	x0,x0,0	  x0:0x00000000
        9595000	       958	800011cc	00000013	addi	x0,x0,0	  x0:0x00000000
        9605000	       959	800011d0	fe9ff0ef	jal	x1,800011d0	  x1=0x800011d0
        9615000	       960	00000000	00000013	addi	x0,x0,0	  x0:0x00000000
        9625000	       961	800011b4	00000013	addi	x0,x0,0	  x0:0x00000000
        9635000	       962	800011b8	fe1ff36f	jal	x6,800011b8	  x6=0x800011b8
        9645000	       963	00000000	00000013	addi	x0,x0,0	  x0:0x00000000
        9655000	       964	80001194	00000013	addi	x0,x0,0	  x0:0x00000000
        9665000	       965	80001198	00c001ef	jal	x3,80001198	  x3=0x80001198
        9675000	       966	00000000	00000013	addi	x0,x0,0	  x0:0x00000000
        9685000	       967	800011a0	00000013	addi	x0,x0,0	  x0:0x00000000
        9695000	       968	800011a4	0240036f	jal	x6,800011a4	  x6=0x800011a4
        9705000	       969	00000000	00000013	addi	x0,x0,0	  x0:0x00000000
        9715000	       970	800011c4	00000013	addi	x0,x0,0	  x0:0x00000000
        9725000	       971	800011c8	fe9ff36f	jal	x6,800011c8	  x6=0x800011c8
        9735000	       972	00000000	00000013	addi	x0,x0,0	  x0:0x00000000
        9745000	       973	800011ac	00000013	addi	x0,x0,0	  x0:0x00000000
        9755000	       974	800011b0	fedff0ef	jal	x1,800011b0	  x1=0x800011b0
        9765000	       975	00000000	00000013	addi	x0,x0,0	  x0:0x00000000
        9775000	       976	80001198	00000013	addi	x0,x0,0	  x0:0x00000000
        9785000	       977	8000119c	00c00fef	jal	x31,8000119c	 x31=0x8000119c
        9795000	       978	00000000	00000013	addi	x0,x0,0	  x0:0x00000000
        9805000	       979	800011a4	00000013	addi	x0,x0,0	  x0:0x00000000
        9815000	       980	800011a8	01c000ef	jal	x1,800011a8	  x1=0x800011a8
        9825000	       981	00000000	00000013	addi	x0,x0,0	  x0:0x00000000
        9835000	       982	800011c0	00000013	addi	x0,x0,0	  x0:0x00000000
        9845000	       983	800011c4	0180036f	jal	x6,800011c4	  x6=0x800011c4
        9855000	       984	00000000	00000013	addi	x0,x0,0	  x0:0x00000000
        9865000	       985	800011d8	00000013	addi	x0,x0,0	  x0:0x00000000
        9875000	       986	800011dc	00c0016f	jal	x2,800011dc	  x2=0x800011dc
        9885000	       987	00000000	00000013	addi	x0,x0,0	  x0:0x00000000
        9895000	       988	800011e4	00000013	addi	x0,x0,0	  x0:0x00000000
        9905000	       989	800011e8	fd5ff36f	jal	x6,800011e8	  x6=0x800011e8
        9915000	       990	00000000	00000013	addi	x0,x0,0	  x0:0x00000000
        9925000	       991	800011b8	00000013	addi	x0,x0,0	  x0:0x00000000
        9935000	       992	800011bc	004000ef	jal	x1,800011bc	  x1=0x800011bc
        9945000	       993	00000000	00000013	addi	x0,x0,0	  x0:0x00000000
        9955000	       994	800011bc	00000013	addi	x0,x0,0	  x0:0x00000000
        9965000	       995	800011c0	018000ef	jal	x1,800011c0	  x1=0x800011c0
        9975000	       996	00000000	00000013	addi	x0,x0,0	  x0:0x00000000
        9985000	       997	800011d4	00000013	addi	x0,x0,0	  x0:0x00000000
        9995000	       998	800011d8	014002ef	jal	x5,800011d8	  x5=0x800011d8
       10005000	       999	00000000	00000013	addi	x0,x0,0	  x0:0x00000000
       10015000	      1000	800011e8	00000013	addi	x0,x0,0	  x0:0x00000000
       10025000	      1001	800011ec	01645033	srl	x0,x8,x22	  x8:0x80000fcc x22:0x8000118c
       10035000	      1002	800011f0	02c00b6f	jal	x22,800011f0	 x22=0x800011f0
       10045000	      1003	00000000	00000013	addi	x0,x0,0	  x0:0x00000000
       10055000	      1004	80001218	00000013	addi	x0,x0,0	  x0:0x00000000
       10065000	      1005	8000121c	00c000ef	jal	x1,8000121c	  x1=0x8000121c
       10075000	      1006	00000000	00000013	addi	x0,x0,0	  x0:0x00000000
       10085000	      1007	80001224	00000013	addi	x0,x0,0	  x0:0x00000000
       10095000	      1008	80001228	fcdff0ef	jal	x1,80001228	  x1=0x80001228
       10105000	      1009	00000000	00000013	addi	x0,x0,0	  x0:0x00000000
       10115000	      1010	800011f0	00000013	addi	x0,x0,0	  x0:0x00000000
       10125000	      1011	800011f4	020000ef	jal	x1,800011f4	  x1=0x800011f4
       10135000	      1012	00000000	00000013	addi	x0,x0,0	  x0:0x00000000
       10145000	      1013	80001210	00000013	addi	x0,x0,0	  x0:0x00000000
       10155000	      1014	80001214	004000ef	jal	x1,80001214	  x1=0x80001214
       10165000	      1015	00000000	00000013	addi	x0,x0,0	  x0:0x00000000
       10175000	      1016	80001214	00000013	addi	x0,x0,0	  x0:0x00000000
       10185000	      1017	80001218	00c000ef	jal	x1,80001218	  x1=0x80001218
       10195000	      1018	00000000	00000013	addi	x0,x0,0	  x0:0x00000000
       10205000	      1019	80001220	00000013	addi	x0,x0,0	  x0:0x00000000
       10215000	      1020	80001224	fddff0ef	jal	x1,80001224	  x1=0x80001224
       10225000	      1021	00000000	00000013	addi	x0,x0,0	  x0:0x00000000
       10235000	      1022	800011fc	00000013	addi	x0,x0,0	  x0:0x00000000
       10245000	      1023	80001200	ff9ff0ef	jal	x1,80001200	  x1=0x80001200
       10255000	      1024	00000000	00000013	addi	x0,x0,0	  x0:0x00000000
       10265000	      1025	800011f4	00000013	addi	x0,x0,0	  x0:0x00000000
       10275000	      1026	800011f8	010000ef	jal	x1,800011f8	  x1=0x800011f8
       10285000	      1027	00000000	00000013	addi	x0,x0,0	  x0:0x00000000
       10295000	      1028	80001204	00000013	addi	x0,x0,0	  x0:0x00000000
       10305000	      1029	80001208	018000ef	jal	x1,80001208	  x1=0x80001208
       10315000	      1030	00000000	00000013	addi	x0,x0,0	  x0:0x00000000
       10325000	      1031	8000121c	00000013	addi	x0,x0,0	  x0:0x00000000
       10335000	      1032	80001220	fedff0ef	jal	x1,80001220	  x1=0x80001220
       10345000	      1033	00000000	00000013	addi	x0,x0,0	  x0:0x00000000
       10355000	      1034	80001208	00000013	addi	x0,x0,0	  x0:0x00000000
       10365000	      1035	8000120c	ff9ff16f	jal	x2,8000120c	  x2=0x8000120c
       10375000	      1036	00000000	00000013	addi	x0,x0,0	  x0:0x00000000
       10385000	      1037	80001200	00000013	addi	x0,x0,0	  x0:0x00000000
       10395000	      1038	80001204	ff9ff0ef	jal	x1,80001204	  x1=0x80001204
       10405000	      1039	00000000	00000013	addi	x0,x0,0	  x0:0x00000000
       10415000	      1040	800011f8	00000013	addi	x0,x0,0	  x0:0x00000000
       10425000	      1041	800011fc	014000ef	jal	x1,800011fc	  x1=0x800011fc
       10435000	      1042	00000000	00000013	addi	x0,x0,0	  x0:0x00000000
       10445000	      1043	8000120c	00000013	addi	x0,x0,0	  x0:0x00000000
       10455000	      1044	80001210	01c0036f	jal	x6,80001210	  x6=0x80001210
       10465000	      1045	00000000	00000013	addi	x0,x0,0	  x0:0x00000000
       10475000	      1046	80001228	00000013	addi	x0,x0,0	  x0:0x00000000
       10485000	      1047	8000122c	41360333	sub	x6,x12,x19	 x12:0x800011cc x19:0x80000ffc  x6=0x000001d0
       10495000	      1048	80001230	02400b6f	jal	x22,80001230	 x22=0x80001230
       10505000	      1049	00000000	00000013	addi	x0,x0,0	  x0:0x00000000
       10515000	      1050	80001250	00000013	addi	x0,x0,0	  x0:0x00000000
       10525000	      1051	80001254	0100016f	jal	x2,80001254	  x2=0x80001254
       10535000	      1052	00000000	00000013	addi	x0,x0,0	  x0:0x00000000
       10545000	      1053	80001260	00000013	addi	x0,x0,0	  x0:0x00000000
       10555000	      1054	80001264	fe1ff46f	jal	x8,80001264	  x8=0x80001264
       10565000	      1055	00000000	00000013	addi	x0,x0,0	  x0:0x00000000
       10575000	      1056	80001240	00000013	addi	x0,x0,0	  x0:0x00000000
       10585000	      1057	80001244	ff1ff0ef	jal	x1,80001244	  x1=0x80001244
       10595000	      1058	00000000	00000013	addi	x0,x0,0	  x0:0x00000000
       10605000	      1059	80001230	00000013	addi	x0,x0,0	  x0:0x00000000
       10615000	      1060	80001234	004000ef	jal	x1,80001234	  x1=0x80001234
       10625000	      1061	00000000	00000013	addi	x0,x0,0	  x0:0x00000000
       10635000	      1062	80001234	00000013	addi	x0,x0,0	  x0:0x00000000
       10645000	      1063	80001238	008000ef	jal	x1,80001238	  x1=0x80001238
       10655000	      1064	00000000	00000013	addi	x0,x0,0	  x0:0x00000000
       10665000	      1065	8000123c	00000013	addi	x0,x0,0	  x0:0x00000000
       10675000	      1066	80001240	00c002ef	jal	x5,80001240	  x5=0x80001240
       10685000	      1067	00000000	00000013	addi	x0,x0,0	  x0:0x00000000
       10695000	      1068	80001248	00000013	addi	x0,x0,0	  x0:0x00000000
       10705000	      1069	8000124c	010000ef	jal	x1,8000124c	  x1=0x8000124c
       10715000	      1070	00000000	00000013	addi	x0,x0,0	  x0:0x00000000
       10725000	      1071	80001258	00000013	addi	x0,x0,0	  x0:0x00000000
       10735000	      1072	8000125c	ffdff36f	jal	x6,8000125c	  x6=0x8000125c
       10745000	      1073	00000000	00000013	addi	x0,x0,0	  x0:0x00000000
       10755000	      1074	80001254	00000013	addi	x0,x0,0	  x0:0x00000000
       10765000	      1075	80001258	010004ef	jal	x9,80001258	  x9=0x80001258
       10775000	      1076	00000000	00000013	addi	x0,x0,0	  x0:0x00000000
       10785000	      1077	80001264	00000013	addi	x0,x0,0	  x0:0x00000000
       10795000	      1078	80001268	fd5ff0ef	jal	x1,80001268	  x1=0x80001268
       10805000	      1079	00000000	00000013	addi	x0,x0,0	  x0:0x00000000
       10815000	      1080	80001238	00000013	addi	x0,x0,0	  x0:0x00000000
       10825000	      1081	8000123c	00c000ef	jal	x1,8000123c	  x1=0x8000123c
       10835000	      1082	00000000	00000013	addi	x0,x0,0	  x0:0x00000000
       10845000	      1083	80001244	00000013	addi	x0,x0,0	  x0:0x00000000
       10855000	      1084	80001248	008009ef	jal	x19,80001248	 x19=0x80001248
       10865000	      1085	00000000	00000013	addi	x0,x0,0	  x0:0x00000000
       10875000	      1086	8000124c	00000013	addi	x0,x0,0	  x0:0x00000000
       10885000	      1087	80001250	0240016f	jal	x2,80001250	  x2=0x80001250
       10895000	      1088	00000000	00000013	addi	x0,x0,0	  x0:0x00000000
       10905000	      1089	80001270	00000013	addi	x0,x0,0	  x0:0x00000000
       10915000	      1090	80001274	ffdff0ef	jal	x1,80001274	  x1=0x80001274
       10925000	      1091	00000000	00000013	addi	x0,x0,0	  x0:0x00000000
       10935000	      1092	8000126c	00000013	addi	x0,x0,0	  x0:0x00000000
       10945000	      1093	80001270	ff1ff36f	jal	x6,80001270	  x6=0x80001270
       10955000	      1094	00000000	00000013	addi	x0,x0,0	  x0:0x00000000
       10965000	      1095	8000125c	00000013	addi	x0,x0,0	  x0:0x00000000
       10975000	      1096	80001260	00c00fef	jal	x31,80001260	 x31=0x80001260
       10985000	      1097	00000000	00000013	addi	x0,x0,0	  x0:0x00000000
       10995000	      1098	80001268	00000013	addi	x0,x0,0	  x0:0x00000000
       11005000	      1099	8000126c	00c000ef	jal	x1,8000126c	  x1=0x8000126c
       11015000	      1100	00000000	00000013	addi	x0,x0,0	  x0:0x00000000
       11025000	      1101	80001274	00000013	addi	x0,x0,0	  x0:0x00000000
       11035000	      1102	80001278	2ba0c797	auipc	x15,0x2ba0c	 x15=0xaba0d274
       11045000	      1103	8000127c	05000b6f	jal	x22,8000127c	 x22=0x8000127c
       11055000	      1104	00000000	00000013	addi	x0,x0,0	  x0:0x00000000
       11065000	      1105	800012c8	00000013	addi	x0,x0,0	  x0:0x00000000
       11075000	      1106	800012cc	fc9ff0ef	jal	x1,800012cc	  x1=0x800012cc
       11085000	      1107	00000000	00000013	addi	x0,x0,0	  x0:0x00000000
       11095000	      1108	80001290	00000013	addi	x0,x0,0	  x0:0x00000000
       11105000	      1109	80001294	030000ef	jal	x1,80001294	  x1=0x80001294
       11115000	      1110	00000000	00000013	addi	x0,x0,0	  x0:0x00000000
       11125000	      1111	800012c0	00000013	addi	x0,x0,0	  x0:0x00000000
       11135000	      1112	800012c4	fc9ff76f	jal	x14,800012c4	 x14=0x800012c4
       11145000	      1113	00000000	00000013	addi	x0,x0,0	  x0:0x00000000
       11155000	      1114	80001288	00000013	addi	x0,x0,0	  x0:0x00000000
       11165000	      1115	8000128c	020002ef	jal	x5,8000128c	  x5=0x8000128c
       11175000	      1116	00000000	00000013	addi	x0,x0,0	  x0:0x00000000
       11185000	      1117	800012a8	00000013	addi	x0,x0,0	  x0:0x00000000
       11195000	      1118	800012ac	ff1ff36f	jal	x6,800012ac	  x6=0x800012ac
       11205000	      1119	00000000	00000013	addi	x0,x0,0	  x0:0x00000000
       11215000	      1120	80001298	00000013	addi	x0,x0,0	  x0:0x00000000
       11225000	      1121	8000129c	03c000ef	jal	x1,8000129c	  x1=0x8000129c
       11235000	      1122	00000000	00000013	addi	x0,x0,0	  x0:0x00000000
       11245000	      1123	800012d4	00000013	addi	x0,x0,0	  x0:0x00000000
       11255000	      1124	800012d8	ff9ff0ef	jal	x1,800012d8	  x1=0x800012d8
       11265000	      1125	00000000	00000013	addi	x0,x0,0	  x0:0x00000000
       11275000	      1126	800012cc	00000013	addi	x0,x0,0	  x0:0x00000000
       11285000	      1127	800012d0	fc9ff76f	jal	x14,800012d0	 x14=0x800012d0
       11295000	      1128	00000000	00000013	addi	x0,x0,0	  x0:0x00000000
       11305000	      1129	80001294	00000013	addi	x0,x0,0	  x0:0x00000000
       11315000	      1130	80001298	05c000ef	jal	x1,80001298	  x1=0x80001298
       11325000	      1131	00000000	00000013	addi	x0,x0,0	  x0:0x00000000
       11335000	      1132	800012f0	00000013	addi	x0,x0,0	  x0:0x00000000
       11345000	      1133	800012f4	fe9ff0ef	jal	x1,800012f4	  x1=0x800012f4
       11355000	      1134	00000000	00000013	addi	x0,x0,0	  x0:0x00000000
       11365000	      1135	800012d8	00000013	addi	x0,x0,0	  x0:0x00000000
       11375000	      1136	800012dc	fddff26f	jal	x4,800012dc	  x4=0x800012dc
       11385000	      1137	00000000	00000013	addi	x0,x0,0	  x0:0x00000000
       11395000	      1138	800012b4	00000013	addi	x0,x0,0	  x0:0x00000000
       11405000	      1139	800012b8	fd9ff0ef	jal	x1,800012b8	  x1=0x800012b8
       11415000	      1140	00000000	00000013	addi	x0,x0,0	  x0:0x00000000
       11425000	      1141	8000128c	00000013	addi	x0,x0,0	  x0:0x00000000
       11435000	      1142	80001290	050000ef	jal	x1,80001290	  x1=0x80001290
       11445000	      1143	00000000	00000013	addi	x0,x0,0	  x0:0x00000000
       11455000	      1144	800012dc	00000013	addi	x0,x0,0	  x0:0x00000000
       11465000	      1145	800012e0	010000ef	jal	x1,800012e0	  x1=0x800012e0
       11475000	      1146	00000000	00000013	addi	x0,x0,0	  x0:0x00000000
       11485000	      1147	800012ec	00000013	addi	x0,x0,0	  x0:0x00000000
       11495000	      1148	800012f0	f95ff0ef	jal	x1,800012f0	  x1=0x800012f0
       11505000	      1149	00000000	00000013	addi	x0,x0,0	  x0:0x00000000
       11515000	      1150	80001280	00000013	addi	x0,x0,0	  x0:0x00000000
       11525000	      1151	80001284	ffdff0ef	jal	x1,80001284	  x1=0x80001284
       11535000	      1152	00000000	00000013	addi	x0,x0,0	  x0:0x00000000
       11545000	      1153	8000127c	00000013	addi	x0,x0,0	  x0:0x00000000
       11555000	      1154	80001280	028000ef	jal	x1,80001280	  x1=0x80001280
       11565000	      1155	00000000	00000013	addi	x0,x0,0	  x0:0x00000000
       11575000	      1156	800012a4	00000013	addi	x0,x0,0	  x0:0x00000000
       11585000	      1157	800012a8	ffdff1ef	jal	x3,800012a8	  x3=0x800012a8
       11595000	      1158	00000000	00000013	addi	x0,x0,0	  x0:0x00000000
       11605000	      1159	800012a0	00000013	addi	x0,x0,0	  x0:0x00000000
       11615000	      1160	800012a4	040000ef	jal	x1,800012a4	  x1=0x800012a4
       11625000	      1161	00000000	00000013	addi	x0,x0,0	  x0:0x00000000
       11635000	      1162	800012e0	00000013	addi	x0,x0,0	  x0:0x00000000
       11645000	      1163	800012e4	fd9ff0ef	jal	x1,800012e4	  x1=0x800012e4
       11655000	      1164	00000000	00000013	addi	x0,x0,0	  x0:0x00000000
       11665000	      1165	800012b8	00000013	addi	x0,x0,0	  x0:0x00000000
       11675000	      1166	800012bc	00c0036f	jal	x6,800012bc	  x6=0x800012bc
       11685000	      1167	00000000	00000013	addi	x0,x0,0	  x0:0x00000000
       11695000	      1168	800012c4	00000013	addi	x0,x0,0	  x0:0x00000000
       11705000	      1169	800012c8	fedff0ef	jal	x1,800012c8	  x1=0x800012c8
       11715000	      1170	00000000	00000013	addi	x0,x0,0	  x0:0x00000000
       11725000	      1171	800012b0	00000013	addi	x0,x0,0	  x0:0x00000000
       11735000	      1172	800012b4	020007ef	jal	x15,800012b4	 x15=0x800012b4
       11745000	      1173	00000000	00000013	addi	x0,x0,0	  x0:0x00000000
       11755000	      1174	800012d0	00000013	addi	x0,x0,0	  x0:0x00000000
       11765000	      1175	800012d4	fcdff36f	jal	x6,800012d4	  x6=0x800012d4
       11775000	      1176	00000000	00000013	addi	x0,x0,0	  x0:0x00000000
       11785000	      1177	8000129c	00000013	addi	x0,x0,0	  x0:0x00000000
       11795000	      1178	800012a0	010009ef	jal	x19,800012a0	 x19=0x800012a0
       11805000	      1179	00000000	00000013	addi	x0,x0,0	  x0:0x00000000
       11815000	      1180	800012ac	00000013	addi	x0,x0,0	  x0:0x00000000
       11825000	      1181	800012b0	fd9ff16f	jal	x2,800012b0	  x2=0x800012b0
       11835000	      1182	00000000	00000013	addi	x0,x0,0	  x0:0x00000000
       11845000	      1183	80001284	00000013	addi	x0,x0,0	  x0:0x00000000
       11855000	      1184	80001288	06000fef	jal	x31,80001288	 x31=0x80001288
       11865000	      1185	00000000	00000013	addi	x0,x0,0	  x0:0x00000000
       11875000	      1186	800012e4	00000013	addi	x0,x0,0	  x0:0x00000000
       11885000	      1187	800012e8	fd9ff36f	jal	x6,800012e8	  x6=0x800012e8
       11895000	      1188	00000000	00000013	addi	x0,x0,0	  x0:0x00000000
       11905000	      1189	800012bc	00000013	addi	x0,x0,0	  x0:0x00000000
       11915000	      1190	800012c0	02c000ef	jal	x1,800012c0	  x1=0x800012c0
       11925000	      1191	00000000	00000013	addi	x0,x0,0	  x0:0x00000000
       11935000	      1192	800012e8	00000013	addi	x0,x0,0	  x0:0x00000000
       11945000	      1193	800012ec	00c000ef	jal	x1,800012ec	  x1=0x800012ec
       11955000	      1194	00000000	00000013	addi	x0,x0,0	  x0:0x00000000
       11965000	      1195	800012f4	00000013	addi	x0,x0,0	  x0:0x00000000
       11975000	      1196	800012f8	bad36393	ori	x7,x6,-1107	  x6:0x800012e8  x7=0xfffffbed
       11985000	      1197	800012fc	02400b6f	jal	x22,800012fc	 x22=0x800012fc
       11995000	      1198	00000000	00000013	addi	x0,x0,0	  x0:0x00000000
       12005000	      1199	8000131c	00000013	addi	x0,x0,0	  x0:0x00000000
       12015000	      1200	80001320	014000ef	jal	x1,80001320	  x1=0x80001320
       12025000	      1201	00000000	00000013	addi	x0,x0,0	  x0:0x00000000
       12035000	      1202	80001330	00000013	addi	x0,x0,0	  x0:0x00000000
       12045000	      1203	80001334	fe9ff0ef	jal	x1,80001334	  x1=0x80001334
       12055000	      1204	00000000	00000013	addi	x0,x0,0	  x0:0x00000000
       12065000	      1205	80001318	00000013	addi	x0,x0,0	  x0:0x00000000
       12075000	      1206	8000131c	fe9ff0ef	jal	x1,8000131c	  x1=0x8000131c
       12085000	      1207	00000000	00000013	addi	x0,x0,0	  x0:0x00000000
       12095000	      1208	80001300	00000013	addi	x0,x0,0	  x0:0x00000000
       12105000	      1209	80001304	ffdff16f	jal	x2,80001304	  x2=0x80001304
       12115000	      1210	00000000	00000013	addi	x0,x0,0	  x0:0x00000000
       12125000	      1211	800012fc	00000013	addi	x0,x0,0	  x0:0x00000000
       12135000	      1212	80001300	0380036f	jal	x6,80001300	  x6=0x80001300
       12145000	      1213	00000000	00000013	addi	x0,x0,0	  x0:0x00000000
       12155000	      1214	80001334	00000013	addi	x0,x0,0	  x0:0x00000000
       12165000	      1215	80001338	fedff36f	jal	x6,80001338	  x6=0x80001338
       12175000	      1216	00000000	00000013	addi	x0,x0,0	  x0:0x00000000
       12185000	      1217	80001320	00000013	addi	x0,x0,0	  x0:0x00000000
       12195000	      1218	80001324	fe5ff8ef	jal	x17,80001324	 x17=0x80001324
       12205000	      1219	00000000	00000013	addi	x0,x0,0	  x0:0x00000000
       12215000	      1220	80001304	00000013	addi	x0,x0,0	  x0:0x00000000
       12225000	      1221	80001308	028000ef	jal	x1,80001308	  x1=0x80001308
       12235000	      1222	00000000	00000013	addi	x0,x0,0	  x0:0x00000000
       12245000	      1223	8000132c	00000013	addi	x0,x0,0	  x0:0x00000000
       12255000	      1224	80001330	ffdff36f	jal	x6,80001330	  x6=0x80001330
       12265000	      1225	00000000	00000013	addi	x0,x0,0	  x0:0x00000000
       12275000	      1226	80001328	00000013	addi	x0,x0,0	  x0:0x00000000
       12285000	      1227	8000132c	fe5ff0ef	jal	x1,8000132c	  x1=0x8000132c
       12295000	      1228	00000000	00000013	addi	x0,x0,0	  x0:0x00000000
       12305000	      1229	8000130c	00000013	addi	x0,x0,0	  x0:0x00000000
       12315000	      1230	80001310	0180036f	jal	x6,80001310	  x6=0x80001310
       12325000	      1231	00000000	00000013	addi	x0,x0,0	  x0:0x00000000
       12335000	      1232	80001324	00000013	addi	x0,x0,0	  x0:0x00000000
       12345000	      1233	80001328	ff1ff0ef	jal	x1,80001328	  x1=0x80001328
       12355000	      1234	00000000	00000013	addi	x0,x0,0	  x0:0x00000000
       12365000	      1235	80001314	00000013	addi	x0,x0,0	  x0:0x00000000
       12375000	      1236	80001318	ff5ff0ef	jal	x1,80001318	  x1=0x80001318
       12385000	      1237	00000000	00000013	addi	x0,x0,0	  x0:0x00000000
       12395000	      1238	80001308	00000013	addi	x0,x0,0	  x0:0x00000000
       12405000	      1239	8000130c	008000ef	jal	x1,8000130c	  x1=0x8000130c
       12415000	      1240	00000000	00000013	addi	x0,x0,0	  x0:0x00000000
       12425000	      1241	80001310	00000013	addi	x0,x0,0	  x0:0x00000000
       12435000	      1242	80001314	028000ef	jal	x1,80001314	  x1=0x80001314
       12445000	      1243	00000000	00000013	addi	x0,x0,0	  x0:0x00000000
       12455000	      1244	80001338	00000013	addi	x0,x0,0	  x0:0x00000000
       12465000	      1245	8000133c	40255993	srai	x19,x10,0x2	 x10:0x00000001 x19=0x00000000
       12475000	      1246	80001340	01400b6f	jal	x22,80001340	 x22=0x80001340
       12485000	      1247	00000000	00000013	addi	x0,x0,0	  x0:0x00000000
       12495000	      1248	80001350	00000013	addi	x0,x0,0	  x0:0x00000000
       12505000	      1249	80001354	0140026f	jal	x4,80001354	  x4=0x80001354
       12515000	      1250	00000000	00000013	addi	x0,x0,0	  x0:0x00000000
       12525000	      1251	80001364	00000013	addi	x0,x0,0	  x0:0x00000000
       12535000	      1252	80001368	fe9ff36f	jal	x6,80001368	  x6=0x80001368
       12545000	      1253	00000000	00000013	addi	x0,x0,0	  x0:0x00000000
       12555000	      1254	8000134c	00000013	addi	x0,x0,0	  x0:0x00000000
       12565000	      1255	80001350	ffdff0ef	jal	x1,80001350	  x1=0x80001350
       12575000	      1256	00000000	00000013	addi	x0,x0,0	  x0:0x00000000
       12585000	      1257	80001348	00000013	addi	x0,x0,0	  x0:0x00000000
       12595000	      1258	8000134c	028000ef	jal	x1,8000134c	  x1=0x8000134c
       12605000	      1259	00000000	00000013	addi	x0,x0,0	  x0:0x00000000
       12615000	      1260	80001370	00000013	addi	x0,x0,0	  x0:0x00000000
       12625000	      1261	80001374	ffdffa6f	jal	x20,80001374	 x20=0x80001374
       12635000	      1262	00000000	00000013	addi	x0,x0,0	  x0:0x00000000
       12645000	      1263	8000136c	00000013	addi	x0,x0,0	  x0:0x00000000
       12655000	      1264	80001370	ff1ff0ef	jal	x1,80001370	  x1=0x80001370
       12665000	      1265	00000000	00000013	addi	x0,x0,0	  x0:0x00000000
       12675000	      1266	8000135c	00000013	addi	x0,x0,0	  x0:0x00000000
       12685000	      1267	80001360	00c00eef	jal	x29,80001360	 x29=0x80001360
       12695000	      1268	00000000	00000013	addi	x0,x0,0	  x0:0x00000000
       12705000	      1269	80001368	00000013	addi	x0,x0,0	  x0:0x00000000
       12715000	      1270	8000136c	fedff0ef	jal	x1,8000136c	  x1=0x8000136c
       12725000	      1271	00000000	00000013	addi	x0,x0,0	  x0:0x00000000
       12735000	      1272	80001354	00000013	addi	x0,x0,0	  x0:0x00000000
       12745000	      1273	80001358	fedff0ef	jal	x1,80001358	  x1=0x80001358
       12755000	      1274	00000000	00000013	addi	x0,x0,0	  x0:0x00000000
       12765000	      1275	80001340	00000013	addi	x0,x0,0	  x0:0x00000000
       12775000	      1276	80001344	004000ef	jal	x1,80001344	  x1=0x80001344
       12785000	      1277	00000000	00000013	addi	x0,x0,0	  x0:0x00000000
       12795000	      1278	80001344	00000013	addi	x0,x0,0	  x0:0x00000000
       12805000	      1279	80001348	01c0036f	jal	x6,80001348	  x6=0x80001348
       12815000	      1280	00000000	00000013	addi	x0,x0,0	  x0:0x00000000
       12825000	      1281	80001360	00000013	addi	x0,x0,0	  x0:0x00000000
       12835000	      1282	80001364	ff9ff2ef	jal	x5,80001364	  x5=0x80001364
       12845000	      1283	00000000	00000013	addi	x0,x0,0	  x0:0x00000000
       12855000	      1284	80001358	00000013	addi	x0,x0,0	  x0:0x00000000
       12865000	      1285	8000135c	01c0036f	jal	x6,8000135c	  x6=0x8000135c
       12875000	      1286	00000000	00000013	addi	x0,x0,0	  x0:0x00000000
       12885000	      1287	80001374	00000013	addi	x0,x0,0	  x0:0x00000000
       12895000	      1288	80001378	7d360913	addi	x18,x12,2003	 x12:0x800011cc x18=0x8000199f
       12905000	      1289	8000137c	00400b6f	jal	x22,8000137c	 x22=0x8000137c
       12915000	      1290	00000000	00000013	addi	x0,x0,0	  x0:0x00000000
       12925000	      1291	8000137c	00000013	addi	x0,x0,0	  x0:0x00000000
       12935000	      1292	80001380	01c005ef	jal	x11,80001380	 x11=0x80001380
       12945000	      1293	00000000	00000013	addi	x0,x0,0	  x0:0x00000000
       12955000	      1294	80001398	00000013	addi	x0,x0,0	  x0:0x00000000
       12965000	      1295	8000139c	ff9ff46f	jal	x8,8000139c	  x8=0x8000139c
       12975000	      1296	00000000	00000013	addi	x0,x0,0	  x0:0x00000000
       12985000	      1297	80001390	00000013	addi	x0,x0,0	  x0:0x00000000
       12995000	      1298	80001394	0040036f	jal	x6,80001394	  x6=0x80001394
       13005000	      1299	00000000	00000013	addi	x0,x0,0	  x0:0x00000000
       13015000	      1300	80001394	00000013	addi	x0,x0,0	  x0:0x00000000
       13025000	      1301	80001398	ff9ff1ef	jal	x3,80001398	  x3=0x80001398
       13035000	      1302	00000000	00000013	addi	x0,x0,0	  x0:0x00000000
       13045000	      1303	8000138c	00000013	addi	x0,x0,0	  x0:0x00000000
       13055000	      1304	80001390	ff9ff36f	jal	x6,80001390	  x6=0x80001390
       13065000	      1305	00000000	00000013	addi	x0,x0,0	  x0:0x00000000
       13075000	      1306	80001384	00000013	addi	x0,x0,0	  x0:0x00000000
       13085000	      1307	80001388	0040036f	jal	x6,80001388	  x6=0x80001388
       13095000	      1308	00000000	00000013	addi	x0,x0,0	  x0:0x00000000
       13105000	      1309	80001388	00000013	addi	x0,x0,0	  x0:0x00000000
       13115000	      1310	8000138c	018000ef	jal	x1,8000138c	  x1=0x8000138c
       13125000	      1311	00000000	00000013	addi	x0,x0,0	  x0:0x00000000
       13135000	      1312	800013a0	00000013	addi	x0,x0,0	  x0:0x00000000
       13145000	      1313	800013a4	ffdff26f	jal	x4,800013a4	  x4=0x800013a4
       13155000	      1314	00000000	00000013	addi	x0,x0,0	  x0:0x00000000
       13165000	      1315	8000139c	00000013	addi	x0,x0,0	  x0:0x00000000
       13175000	      1316	800013a0	fe5ff0ef	jal	x1,800013a0	  x1=0x800013a0
       13185000	      1317	00000000	00000013	addi	x0,x0,0	  x0:0x00000000
       13195000	      1318	80001380	00000013	addi	x0,x0,0	  x0:0x00000000
       13205000	      1319	80001384	024000ef	jal	x1,80001384	  x1=0x80001384
       13215000	      1320	00000000	00000013	addi	x0,x0,0	  x0:0x00000000
       13225000	      1321	800013a4	00000013	addi	x0,x0,0	  x0:0x00000000
       13235000	      1322	800013a8	00000013	addi	x0,x0,0	  x0:0x00000000
       13245000	      1323	800013ac	04800b6f	jal	x22,800013ac	 x22=0x800013ac
       13255000	      1324	00000000	00000013	addi	x0,x0,0	  x0:0x00000000
       13265000	      1325	800013f0	00000013	addi	x0,x0,0	  x0:0x00000000
       13275000	      1326	800013f4	ff5ff2ef	jal	x5,800013f4	  x5=0x800013f4
       13285000	      1327	00000000	00000013	addi	x0,x0,0	  x0:0x00000000
       13295000	      1328	800013e4	00000013	addi	x0,x0,0	  x0:0x00000000
       13305000	      1329	800013e8	fe9ff26f	jal	x4,800013e8	  x4=0x800013e8
       13315000	      1330	00000000	00000013	addi	x0,x0,0	  x0:0x00000000
       13325000	      1331	800013cc	00000013	addi	x0,x0,0	  x0:0x00000000
       13335000	      1332	800013d0	ff1ff0ef	jal	x1,800013d0	  x1=0x800013d0
       13345000	      1333	00000000	00000013	addi	x0,x0,0	  x0:0x00000000
       13355000	      1334	800013bc	00000013	addi	x0,x0,0	  x0:0x00000000
       13365000	      1335	800013c0	01800e6f	jal	x28,800013c0	 x28=0x800013c0
       13375000	      1336	00000000	00000013	addi	x0,x0,0	  x0:0x00000000
       13385000	      1337	800013d4	00000013	addi	x0,x0,0	  x0:0x00000000
       13395000	      1338	800013d8	018000ef	jal	x1,800013d8	  x1=0x800013d8
       13405000	      1339	00000000	00000013	addi	x0,x0,0	  x0:0x00000000
       13415000	      1340	800013ec	00000013	addi	x0,x0,0	  x0:0x00000000
       13425000	      1341	800013f0	008000ef	jal	x1,800013f0	  x1=0x800013f0
       13435000	      1342	00000000	00000013	addi	x0,x0,0	  x0:0x00000000
       13445000	      1343	800013f4	00000013	addi	x0,x0,0	  x0:0x00000000
       13455000	      1344	800013f8	fc5ff36f	jal	x6,800013f8	  x6=0x800013f8
       13465000	      1345	00000000	00000013	addi	x0,x0,0	  x0:0x00000000
       13475000	      1346	800013b8	00000013	addi	x0,x0,0	  x0:0x00000000
       13485000	      1347	800013bc	008000ef	jal	x1,800013bc	  x1=0x800013bc
       13495000	      1348	00000000	00000013	addi	x0,x0,0	  x0:0x00000000
       13505000	      1349	800013c0	00000013	addi	x0,x0,0	  x0:0x00000000
       13515000	      1350	800013c4	01c000ef	jal	x1,800013c4	  x1=0x800013c4
       13525000	      1351	00000000	00000013	addi	x0,x0,0	  x0:0x00000000
       13535000	      1352	800013dc	00000013	addi	x0,x0,0	  x0:0x00000000
       13545000	      1353	800013e0	fd1ff0ef	jal	x1,800013e0	  x1=0x800013e0
       13555000	      1354	00000000	00000013	addi	x0,x0,0	  x0:0x00000000
       13565000	      1355	800013ac	00000013	addi	x0,x0,0	  x0:0x00000000
       13575000	      1356	800013b0	0240016f	jal	x2,800013b0	  x2=0x800013b0
       13585000	      1357	00000000	00000013	addi	x0,x0,0	  x0:0x00000000
       13595000	      1358	800013d0	00000013	addi	x0,x0,0	  x0:0x00000000
       13605000	      1359	800013d4	030000ef	jal	x1,800013d4	  x1=0x800013d4
       13615000	      1360	00000000	00000013	addi	x0,x0,0	  x0:0x00000000
       13625000	      1361	80001400	00000013	addi	x0,x0,0	  x0:0x00000000
       13635000	      1362	80001404	fb5ff5ef	jal	x11,80001404	 x11=0x80001404
       13645000	      1363	00000000	00000013	addi	x0,x0,0	  x0:0x00000000
       13655000	      1364	800013b4	00000013	addi	x0,x0,0	  x0:0x00000000
       13665000	      1365	800013b8	014000ef	jal	x1,800013b8	  x1=0x800013b8
       13675000	      1366	00000000	00000013	addi	x0,x0,0	  x0:0x00000000
       13685000	      1367	800013c8	00000013	addi	x0,x0,0	  x0:0x00000000
       13695000	      1368	800013cc	020001ef	jal	x3,800013cc	  x3=0x800013cc
       13705000	      1369	00000000	00000013	addi	x0,x0,0	  x0:0x00000000
       13715000	      1370	800013e8	00000013	addi	x0,x0,0	  x0:0x00000000
       13725000	      1371	800013ec	fc9ff16f	jal	x2,800013ec	  x2=0x800013ec
       13735000	      1372	00000000	00000013	addi	x0,x0,0	  x0:0x00000000
       13745000	      1373	800013b0	00000013	addi	x0,x0,0	  x0:0x00000000
       13755000	      1374	800013b4	0300036f	jal	x6,800013b4	  x6=0x800013b4
       13765000	      1375	00000000	00000013	addi	x0,x0,0	  x0:0x00000000
       13775000	      1376	800013e0	00000013	addi	x0,x0,0	  x0:0x00000000
       13785000	      1377	800013e4	fe5ff0ef	jal	x1,800013e4	  x1=0x800013e4
       13795000	      1378	00000000	00000013	addi	x0,x0,0	  x0:0x00000000
       13805000	      1379	800013c4	00000013	addi	x0,x0,0	  x0:0x00000000
       13815000	      1380	800013c8	0340036f	jal	x6,800013c8	  x6=0x800013c8
       13825000	      1381	00000000	00000013	addi	x0,x0,0	  x0:0x00000000
       13835000	      1382	800013f8	00000013	addi	x0,x0,0	  x0:0x00000000
       13845000	      1383	800013fc	fe1ff8ef	jal	x17,800013fc	 x17=0x800013fc
       13855000	      1384	00000000	00000013	addi	x0,x0,0	  x0:0x00000000
       13865000	      1385	800013d8	00000013	addi	x0,x0,0	  x0:0x00000000
       13875000	      1386	800013dc	024000ef	jal	x1,800013dc	  x1=0x800013dc
       13885000	      1387	00000000	00000013	addi	x0,x0,0	  x0:0x00000000
       13895000	      1388	800013fc	00000013	addi	x0,x0,0	  x0:0x00000000
       13905000	      1389	80001400	008000ef	jal	x1,80001400	  x1=0x80001400
       13915000	      1390	00000000	00000013	addi	x0,x0,0	  x0:0x00000000
       13925000	      1391	80001404	00000013	addi	x0,x0,0	  x0:0x00000000
       13935000	      1392	80001408	019975b3	and	x11,x18,x25	 x18:0x8000199f x25:0x80001000 x11=0x80001000
       13945000	      1393	8000140c	00800b6f	jal	x22,8000140c	 x22=0x8000140c
       13955000	      1394	00000000	00000013	addi	x0,x0,0	  x0:0x00000000
       13965000	      1395	80001410	00000013	addi	x0,x0,0	  x0:0x00000000
       13975000	      1396	80001414	014000ef	jal	x1,80001414	  x1=0x80001414
       13985000	      1397	00000000	00000013	addi	x0,x0,0	  x0:0x00000000
       13995000	      1398	80001424	00000013	addi	x0,x0,0	  x0:0x00000000
       14005000	      1399	80001428	fe9ff8ef	jal	x17,80001428	 x17=0x80001428
       14015000	      1400	00000000	00000013	addi	x0,x0,0	  x0:0x00000000
       14025000	      1401	8000140c	00000013	addi	x0,x0,0	  x0:0x00000000
       14035000	      1402	80001410	008003ef	jal	x7,80001410	  x7=0x80001410
       14045000	      1403	00000000	00000013	addi	x0,x0,0	  x0:0x00000000
       14055000	      1404	80001414	00000013	addi	x0,x0,0	  x0:0x00000000
       14065000	      1405	80001418	004000ef	jal	x1,80001418	  x1=0x80001418
       14075000	      1406	00000000	00000013	addi	x0,x0,0	  x0:0x00000000
       14085000	      1407	80001418	00000013	addi	x0,x0,0	  x0:0x00000000
       14095000	      1408	8000141c	018000ef	jal	x1,8000141c	  x1=0x8000141c
       14105000	      1409	00000000	00000013	addi	x0,x0,0	  x0:0x00000000
       14115000	      1410	80001430	00000013	addi	x0,x0,0	  x0:0x00000000
       14125000	      1411	80001434	004000ef	jal	x1,80001434	  x1=0x80001434
       14135000	      1412	00000000	00000013	addi	x0,x0,0	  x0:0x00000000
       14145000	      1413	80001434	00000013	addi	x0,x0,0	  x0:0x00000000
       14155000	      1414	80001438	ff9ff36f	jal	x6,80001438	  x6=0x80001438
       14165000	      1415	00000000	00000013	addi	x0,x0,0	  x0:0x00000000
       14175000	      1416	8000142c	00000013	addi	x0,x0,0	  x0:0x00000000
       14185000	      1417	80001430	ff5ff0ef	jal	x1,80001430	  x1=0x80001430
       14195000	      1418	00000000	00000013	addi	x0,x0,0	  x0:0x00000000
       14205000	      1419	80001420	00000013	addi	x0,x0,0	  x0:0x00000000
       14215000	      1420	80001424	ffdff96f	jal	x18,80001424	 x18=0x80001424
       14225000	      1421	00000000	00000013	addi	x0,x0,0	  x0:0x00000000
       14235000	      1422	8000141c	00000013	addi	x0,x0,0	  x0:0x00000000
       14245000	      1423	80001420	00c000ef	jal	x1,80001420	  x1=0x80001420
       14255000	      1424	00000000	00000013	addi	x0,x0,0	  x0:0x00000000
       14265000	      1425	80001428	00000013	addi	x0,x0,0	  x0:0x00000000
       14275000	      1426	8000142c	0100016f	jal	x2,8000142c	  x2=0x8000142c
       14285000	      1427	00000000	00000013	addi	x0,x0,0	  x0:0x00000000
       14295000	      1428	80001438	00000013	addi	x0,x0,0	  x0:0x00000000
       14305000	      1429	8000143c	0019cfb3	xor	x31,x19,x1	 x19:0x00000000  x1:0x80001420 x31=0x80001420
       14315000	      1430	80001440	02c00b6f	jal	x22,80001440	 x22=0x80001440
       14325000	      1431	00000000	00000013	addi	x0,x0,0	  x0:0x00000000
       14335000	      1432	80001468	00000013	addi	x0,x0,0	  x0:0x00000000
       14345000	      1433	8000146c	ff9ff0ef	jal	x1,8000146c	  x1=0x8000146c
       14355000	      1434	00000000	00000013	addi	x0,x0,0	  x0:0x00000000
       14365000	      1435	80001460	00000013	addi	x0,x0,0	  x0:0x00000000
       14375000	      1436	80001464	00c000ef	jal	x1,80001464	  x1=0x80001464
       14385000	      1437	00000000	00000013	addi	x0,x0,0	  x0:0x00000000
       14395000	      1438	8000146c	00000013	addi	x0,x0,0	  x0:0x00000000
       14405000	      1439	80001470	fd5ff36f	jal	x6,80001470	  x6=0x80001470
       14415000	      1440	00000000	00000013	addi	x0,x0,0	  x0:0x00000000
       14425000	      1441	80001440	00000013	addi	x0,x0,0	  x0:0x00000000
       14435000	      1442	80001444	00c0036f	jal	x6,80001444	  x6=0x80001444
       14445000	      1443	00000000	00000013	addi	x0,x0,0	  x0:0x00000000
       14455000	      1444	8000144c	00000013	addi	x0,x0,0	  x0:0x00000000
       14465000	      1445	80001450	024000ef	jal	x1,80001450	  x1=0x80001450
       14475000	      1446	00000000	00000013	addi	x0,x0,0	  x0:0x00000000
       14485000	      1447	80001470	00000013	addi	x0,x0,0	  x0:0x00000000
       14495000	      1448	80001474	010006ef	jal	x13,80001474	 x13=0x80001474
       14505000	      1449	00000000	00000013	addi	x0,x0,0	  x0:0x00000000
       14515000	      1450	80001480	00000013	addi	x0,x0,0	  x0:0x00000000
       14525000	      1451	80001484	004000ef	jal	x1,80001484	  x1=0x80001484
       14535000	      1452	00000000	00000013	addi	x0,x0,0	  x0:0x00000000
       14545000	      1453	80001484	00000013	addi	x0,x0,0	  x0:0x00000000
       14555000	      1454	80001488	fc5ff1ef	jal	x3,80001488	  x3=0x80001488
       14565000	      1455	00000000	00000013	addi	x0,x0,0	  x0:0x00000000
       14575000	      1456	80001448	00000013	addi	x0,x0,0	  x0:0x00000000
       14585000	      1457	8000144c	040000ef	jal	x1,8000144c	  x1=0x8000144c
       14595000	      1458	00000000	00000013	addi	x0,x0,0	  x0:0x00000000
       14605000	      1459	80001488	00000013	addi	x0,x0,0	  x0:0x00000000
       14615000	      1460	8000148c	fcdff0ef	jal	x1,8000148c	  x1=0x8000148c
       14625000	      1461	00000000	00000013	addi	x0,x0,0	  x0:0x00000000
       14635000	      1462	80001454	00000013	addi	x0,x0,0	  x0:0x00000000
       14645000	      1463	80001458	004000ef	jal	x1,80001458	  x1=0x80001458
       14655000	      1464	00000000	00000013	addi	x0,x0,0	  x0:0x00000000
       14665000	      1465	80001458	00000013	addi	x0,x0,0	  x0:0x00000000
       14675000	      1466	8000145c	fedff36f	jal	x6,8000145c	  x6=0x8000145c
       14685000	      1467	00000000	00000013	addi	x0,x0,0	  x0:0x00000000
       14695000	      1468	80001444	00000013	addi	x0,x0,0	  x0:0x00000000
       14705000	      1469	80001448	0480066f	jal	x12,80001448	 x12=0x80001448
       14715000	      1470	00000000	00000013	addi	x0,x0,0	  x0:0x00000000
       14725000	      1471	8000148c	00000013	addi	x0,x0,0	  x0:0x00000000
       14735000	      1472	80001490	fedff0ef	jal	x1,80001490	  x1=0x80001490
       14745000	      1473	00000000	00000013	addi	x0,x0,0	  x0:0x00000000
       14755000	      1474	80001478	00000013	addi	x0,x0,0	  x0:0x00000000
       14765000	      1475	8000147c	fd9ff0ef	jal	x1,8000147c	  x1=0x8000147c
       14775000	      1476	00000000	00000013	addi	x0,x0,0	  x0:0x00000000
       14785000	      1477	80001450	00000013	addi	x0,x0,0	  x0:0x00000000
       14795000	      1478	80001454	02c000ef	jal	x1,80001454	  x1=0x80001454
       14805000	      1479	00000000	00000013	addi	x0,x0,0	  x0:0x00000000
       14815000	      1480	8000147c	00000013	addi	x0,x0,0	  x0:0x00000000
       14825000	      1481	80001480	ff9ffd6f	jal	x26,80001480	 x26=0x80001480
       14835000	      1482	00000000	00000013	addi	x0,x0,0	  x0:0x00000000
       14845000	      1483	80001474	00000013	addi	x0,x0,0	  x0:0x00000000
       14855000	      1484	80001478	fe9ffc6f	jal	x24,80001478	 x24=0x80001478
       14865000	      1485	00000000	00000013	addi	x0,x0,0	  x0:0x00000000
       14875000	      1486	8000145c	00000013	addi	x0,x0,0	  x0:0x00000000
       14885000	      1487	80001460	0080036f	jal	x6,80001460	  x6=0x80001460
       14895000	      1488	00000000	00000013	addi	x0,x0,0	  x0:0x00000000
       14905000	      1489	80001464	00000013	addi	x0,x0,0	  x0:0x00000000
       14915000	      1490	80001468	02c000ef	jal	x1,80001468	  x1=0x80001468
       14925000	      1491	00000000	00000013	addi	x0,x0,0	  x0:0x00000000
       14935000	      1492	80001490	00000013	addi	x0,x0,0	  x0:0x00000000
       14945000	      1493	80001494	df140b93	addi	x23,x8,-527	  x8:0x8000139c x23=0x8000118d
       14955000	      1494	80001498	02800b6f	jal	x22,80001498	 x22=0x80001498
       14965000	      1495	00000000	00000013	addi	x0,x0,0	  x0:0x00000000
       14975000	      1496	800014bc	00000013	addi	x0,x0,0	  x0:0x00000000
       14985000	      1497	800014c0	00c000ef	jal	x1,800014c0	  x1=0x800014c0
       14995000	      1498	00000000	00000013	addi	x0,x0,0	  x0:0x00000000
       15005000	      1499	800014c8	00000013	addi	x0,x0,0	  x0:0x00000000
       15015000	      1500	800014cc	008000ef	jal	x1,800014cc	  x1=0x800014cc
       15025000	      1501	00000000	00000013	addi	x0,x0,0	  x0:0x00000000
       15035000	      1502	800014d0	00000013	addi	x0,x0,0	  x0:0x00000000
       15045000	      1503	800014d4	fe9ff96f	jal	x18,800014d4	 x18=0x800014d4
       15055000	      1504	00000000	00000013	addi	x0,x0,0	  x0:0x00000000
       15065000	      1505	800014b8	00000013	addi	x0,x0,0	  x0:0x00000000
       15075000	      1506	800014bc	ff5ff0ef	jal	x1,800014bc	  x1=0x800014bc
       15085000	      1507	00000000	00000013	addi	x0,x0,0	  x0:0x00000000
       15095000	      1508	800014ac	00000013	addi	x0,x0,0	  x0:0x00000000
       15105000	      1509	800014b0	054000ef	jal	x1,800014b0	  x1=0x800014b0
       15115000	      1510	00000000	00000013	addi	x0,x0,0	  x0:0x00000000
       15125000	      1511	80001500	00000013	addi	x0,x0,0	  x0:0x00000000
       15135000	      1512	80001504	fc5ff36f	jal	x6,80001504	  x6=0x80001504
       15145000	      1513	00000000	00000013	addi	x0,x0,0	  x0:0x00000000
       15155000	      1514	800014c4	00000013	addi	x0,x0,0	  x0:0x00000000
       15165000	      1515	800014c8	ffdff26f	jal	x4,800014c8	  x4=0x800014c8
       15175000	      1516	00000000	00000013	addi	x0,x0,0	  x0:0x00000000
       15185000	      1517	800014c0	00000013	addi	x0,x0,0	  x0:0x00000000
       15195000	      1518	800014c4	ff5ff5ef	jal	x11,800014c4	 x11=0x800014c4
       15205000	      1519	00000000	00000013	addi	x0,x0,0	  x0:0x00000000
       15215000	      1520	800014b4	00000013	addi	x0,x0,0	  x0:0x00000000
       15225000	      1521	800014b8	04400a6f	jal	x20,800014b8	 x20=0x800014b8
       15235000	      1522	00000000	00000013	addi	x0,x0,0	  x0:0x00000000
       15245000	      1523	800014f8	00000013	addi	x0,x0,0	  x0:0x00000000
       15255000	      1524	800014fc	fe9ff36f	jal	x6,800014fc	  x6=0x800014fc
       15265000	      1525	00000000	00000013	addi	x0,x0,0	  x0:0x00000000
       15275000	      1526	800014e0	00000013	addi	x0,x0,0	  x0:0x00000000
       15285000	      1527	800014e4	ff9ff16f	jal	x2,800014e4	  x2=0x800014e4
       15295000	      1528	00000000	00000013	addi	x0,x0,0	  x0:0x00000000
       15305000	      1529	800014d8	00000013	addi	x0,x0,0	  x0:0x00000000
       15315000	      1530	800014dc	014000ef	jal	x1,800014dc	  x1=0x800014dc
       15325000	      1531	00000000	00000013	addi	x0,x0,0	  x0:0x00000000
       15335000	      1532	800014ec	00000013	addi	x0,x0,0	  x0:0x00000000
       15345000	      1533	800014f0	ff1ff0ef	jal	x1,800014f0	  x1=0x800014f0
       15355000	      1534	00000000	00000013	addi	x0,x0,0	  x0:0x00000000
       15365000	      1535	800014dc	00000013	addi	x0,x0,0	  x0:0x00000000
       15375000	      1536	800014e0	028000ef	jal	x1,800014e0	  x1=0x800014e0
       15385000	      1537	00000000	00000013	addi	x0,x0,0	  x0:0x00000000
       15395000	      1538	80001504	00000013	addi	x0,x0,0	  x0:0x00000000
       15405000	      1539	80001508	fe5ffd6f	jal	x26,80001508	 x26=0x80001508
       15415000	      1540	00000000	00000013	addi	x0,x0,0	  x0:0x00000000
       15425000	      1541	800014e8	00000013	addi	x0,x0,0	  x0:0x00000000
       15435000	      1542	800014ec	fc1ff0ef	jal	x1,800014ec	  x1=0x800014ec
       15445000	      1543	00000000	00000013	addi	x0,x0,0	  x0:0x00000000
       15455000	      1544	800014a8	00000013	addi	x0,x0,0	  x0:0x00000000
       15465000	      1545	800014ac	ff1fffef	jal	x31,800014ac	 x31=0x800014ac
       15475000	      1546	00000000	00000013	addi	x0,x0,0	  x0:0x00000000
       15485000	      1547	80001498	00000013	addi	x0,x0,0	  x0:0x00000000
       15495000	      1548	8000149c	05c000ef	jal	x1,8000149c	  x1=0x8000149c
       15505000	      1549	00000000	00000013	addi	x0,x0,0	  x0:0x00000000
       15515000	      1550	800014f4	00000013	addi	x0,x0,0	  x0:0x00000000
       15525000	      1551	800014f8	fe1ff0ef	jal	x1,800014f8	  x1=0x800014f8
       15535000	      1552	00000000	00000013	addi	x0,x0,0	  x0:0x00000000
       15545000	      1553	800014d4	00000013	addi	x0,x0,0	  x0:0x00000000
       15555000	      1554	800014d8	010000ef	jal	x1,800014d8	  x1=0x800014d8
       15565000	      1555	00000000	00000013	addi	x0,x0,0	  x0:0x00000000
       15575000	      1556	800014e4	00000013	addi	x0,x0,0	  x0:0x00000000
       15585000	      1557	800014e8	fbdff0ef	jal	x1,800014e8	  x1=0x800014e8
       15595000	      1558	00000000	00000013	addi	x0,x0,0	  x0:0x00000000
       15605000	      1559	800014a0	00000013	addi	x0,x0,0	  x0:0x00000000
       15615000	      1560	800014a4	ffdff0ef	jal	x1,800014a4	  x1=0x800014a4
       15625000	      1561	00000000	00000013	addi	x0,x0,0	  x0:0x00000000
       15635000	      1562	8000149c	00000013	addi	x0,x0,0	  x0:0x00000000
       15645000	      1563	800014a0	0140036f	jal	x6,800014a0	  x6=0x800014a0
       15655000	      1564	00000000	00000013	addi	x0,x0,0	  x0:0x00000000
       15665000	      1565	800014b0	00000013	addi	x0,x0,0	  x0:0x00000000
       15675000	      1566	800014b4	04c0036f	jal	x6,800014b4	  x6=0x800014b4
       15685000	      1567	00000000	00000013	addi	x0,x0,0	  x0:0x00000000
       15695000	      1568	800014fc	00000013	addi	x0,x0,0	  x0:0x00000000
       15705000	      1569	80001500	ff5ff36f	jal	x6,80001500	  x6=0x80001500
       15715000	      1570	00000000	00000013	addi	x0,x0,0	  x0:0x00000000
       15725000	      1571	800014f0	00000013	addi	x0,x0,0	  x0:0x00000000
       15735000	      1572	800014f4	fb5ff86f	jal	x16,800014f4	 x16=0x800014f4
       15745000	      1573	00000000	00000013	addi	x0,x0,0	  x0:0x00000000
       15755000	      1574	800014a4	00000013	addi	x0,x0,0	  x0:0x00000000
       15765000	      1575	800014a8	028000ef	jal	x1,800014a8	  x1=0x800014a8
       15775000	      1576	00000000	00000013	addi	x0,x0,0	  x0:0x00000000
       15785000	      1577	800014cc	00000013	addi	x0,x0,0	  x0:0x00000000
       15795000	      1578	800014d0	03c0036f	jal	x6,800014d0	  x6=0x800014d0
       15805000	      1579	00000000	00000013	addi	x0,x0,0	  x0:0x00000000
       15815000	      1580	80001508	00000013	addi	x0,x0,0	  x0:0x00000000
       15825000	      1581	8000150c	0140d593	srli	x11,x1,0x14	  x1:0x800014a8 x11=0x00000800
       15835000	      1582	80001510	00400b6f	jal	x22,80001510	 x22=0x80001510
       15845000	      1583	00000000	00000013	addi	x0,x0,0	  x0:0x00000000
       15855000	      1584	80001510	00000013	addi	x0,x0,0	  x0:0x00000000
       15865000	      1585	80001514	004005ef	jal	x11,80001514	 x11=0x80001514
       15875000	      1586	00000000	00000013	addi	x0,x0,0	  x0:0x00000000
       15885000	      1587	80001514	00000013	addi	x0,x0,0	  x0:0x00000000
       15895000	      1588	80001518	0280096f	jal	x18,80001518	 x18=0x80001518
       15905000	      1589	00000000	00000013	addi	x0,x0,0	  x0:0x00000000
       15915000	      1590	8000153c	00000013	addi	x0,x0,0	  x0:0x00000000
       15925000	      1591	80001540	03c000ef	jal	x1,80001540	  x1=0x80001540
       15935000	      1592	00000000	00000013	addi	x0,x0,0	  x0:0x00000000
       15945000	      1593	80001578	00000013	addi	x0,x0,0	  x0:0x00000000
       15955000	      1594	8000157c	fbdff0ef	jal	x1,8000157c	  x1=0x8000157c
       15965000	      1595	00000000	00000013	addi	x0,x0,0	  x0:0x00000000
       15975000	      1596	80001534	00000013	addi	x0,x0,0	  x0:0x00000000
       15985000	      1597	80001538	02c000ef	jal	x1,80001538	  x1=0x80001538
       15995000	      1598	00000000	00000013	addi	x0,x0,0	  x0:0x00000000
       16005000	      1599	80001560	00000013	addi	x0,x0,0	  x0:0x00000000
       16015000	      1600	80001564	fedff36f	jal	x6,80001564	  x6=0x80001564
       16025000	      1601	00000000	00000013	addi	x0,x0,0	  x0:0x00000000
       16035000	      1602	8000154c	00000013	addi	x0,x0,0	  x0:0x00000000
       16045000	      1603	80001550	ff9ff36f	jal	x6,80001550	  x6=0x80001550
       16055000	      1604	00000000	00000013	addi	x0,x0,0	  x0:0x00000000
       16065000	      1605	80001544	00000013	addi	x0,x0,0	  x0:0x00000000
       16075000	      1606	80001548	ff5ff36f	jal	x6,80001548	  x6=0x80001548
       16085000	      1607	00000000	00000013	addi	x0,x0,0	  x0:0x00000000
       16095000	      1608	80001538	00000013	addi	x0,x0,0	  x0:0x00000000
       16105000	      1609	8000153c	02c0036f	jal	x6,8000153c	  x6=0x8000153c
       16115000	      1610	00000000	00000013	addi	x0,x0,0	  x0:0x00000000
       16125000	      1611	80001564	00000013	addi	x0,x0,0	  x0:0x00000000
       16135000	      1612	80001568	00c000ef	jal	x1,80001568	  x1=0x80001568
       16145000	      1613	00000000	00000013	addi	x0,x0,0	  x0:0x00000000
       16155000	      1614	80001570	00000013	addi	x0,x0,0	  x0:0x00000000
       16165000	      1615	80001574	fb9ff0ef	jal	x1,80001574	  x1=0x80001574
       16175000	      1616	00000000	00000013	addi	x0,x0,0	  x0:0x00000000
       16185000	      1617	80001528	00000013	addi	x0,x0,0	  x0:0x00000000
       16195000	      1618	8000152c	ff5ff86f	jal	x16,8000152c	 x16=0x8000152c
       16205000	      1619	00000000	00000013	addi	x0,x0,0	  x0:0x00000000
       16215000	      1620	8000151c	00000013	addi	x0,x0,0	  x0:0x00000000
       16225000	      1621	80001520	014006ef	jal	x13,80001520	 x13=0x80001520
       16235000	      1622	00000000	00000013	addi	x0,x0,0	  x0:0x00000000
       16245000	      1623	80001530	00000013	addi	x0,x0,0	  x0:0x00000000
       16255000	      1624	80001534	0380036f	jal	x6,80001534	  x6=0x80001534
       16265000	      1625	00000000	00000013	addi	x0,x0,0	  x0:0x00000000
       16275000	      1626	80001568	00000013	addi	x0,x0,0	  x0:0x00000000
       16285000	      1627	8000156c	004000ef	jal	x1,8000156c	  x1=0x8000156c
       16295000	      1628	00000000	00000013	addi	x0,x0,0	  x0:0x00000000
       16305000	      1629	8000156c	00000013	addi	x0,x0,0	  x0:0x00000000
       16315000	      1630	80001570	ff1ff0ef	jal	x1,80001570	  x1=0x80001570
       16325000	      1631	00000000	00000013	addi	x0,x0,0	  x0:0x00000000
       16335000	      1632	8000155c	00000013	addi	x0,x0,0	  x0:0x00000000
       16345000	      1633	80001560	ff5ff36f	jal	x6,80001560	  x6=0x80001560
       16355000	      1634	00000000	00000013	addi	x0,x0,0	  x0:0x00000000
       16365000	      1635	80001550	00000013	addi	x0,x0,0	  x0:0x00000000
       16375000	      1636	80001554	008000ef	jal	x1,80001554	  x1=0x80001554
       16385000	      1637	00000000	00000013	addi	x0,x0,0	  x0:0x00000000
       16395000	      1638	80001558	00000013	addi	x0,x0,0	  x0:0x00000000
       16405000	      1639	8000155c	01c003ef	jal	x7,8000155c	  x7=0x8000155c
       16415000	      1640	00000000	00000013	addi	x0,x0,0	  x0:0x00000000
       16425000	      1641	80001574	00000013	addi	x0,x0,0	  x0:0x00000000
       16435000	      1642	80001578	fadff36f	jal	x6,80001578	  x6=0x80001578
       16445000	      1643	00000000	00000013	addi	x0,x0,0	  x0:0x00000000
       16455000	      1644	80001520	00000013	addi	x0,x0,0	  x0:0x00000000
       16465000	      1645	80001524	0040036f	jal	x6,80001524	  x6=0x80001524
       16475000	      1646	00000000	00000013	addi	x0,x0,0	  x0:0x00000000
       16485000	      1647	80001524	00000013	addi	x0,x0,0	  x0:0x00000000
       16495000	      1648	80001528	008000ef	jal	x1,80001528	  x1=0x80001528
       16505000	      1649	00000000	00000013	addi	x0,x0,0	  x0:0x00000000
       16515000	      1650	8000152c	00000013	addi	x0,x0,0	  x0:0x00000000
       16525000	      1651	80001530	01c000ef	jal	x1,80001530	  x1=0x80001530
       16535000	      1652	00000000	00000013	addi	x0,x0,0	  x0:0x00000000
       16545000	      1653	80001548	00000013	addi	x0,x0,0	  x0:0x00000000
       16555000	      1654	8000154c	fd1ff0ef	jal	x1,8000154c	  x1=0x8000154c
       16565000	      1655	00000000	00000013	addi	x0,x0,0	  x0:0x00000000
       16575000	      1656	80001518	00000013	addi	x0,x0,0	  x0:0x00000000
       16585000	      1657	8000151c	03c000ef	jal	x1,8000151c	  x1=0x8000151c
       16595000	      1658	00000000	00000013	addi	x0,x0,0	  x0:0x00000000
       16605000	      1659	80001554	00000013	addi	x0,x0,0	  x0:0x00000000
       16615000	      1660	80001558	fedff0ef	jal	x1,80001558	  x1=0x80001558
       16625000	      1661	00000000	00000013	addi	x0,x0,0	  x0:0x00000000
       16635000	      1662	80001540	00000013	addi	x0,x0,0	  x0:0x00000000
       16645000	      1663	80001544	03c0076f	jal	x14,80001544	 x14=0x80001544
       16655000	      1664	00000000	00000013	addi	x0,x0,0	  x0:0x00000000
       16665000	      1665	8000157c	00000013	addi	x0,x0,0	  x0:0x00000000
       16675000	      1666	80001580	008136b3	sltu	x13,x2,x8	  x2:0x800014e4  x8:0x8000139c x13=0x00000000
       16685000	      1667	80001584	00c00b6f	jal	x22,80001584	 x22=0x80001584
       16695000	      1668	00000000	00000013	addi	x0,x0,0	  x0:0x00000000
       16705000	      1669	8000158c	00000013	addi	x0,x0,0	  x0:0x00000000
       16715000	      1670	80001590	0200016f	jal	x2,80001590	  x2=0x80001590
       16725000	      1671	00000000	00000013	addi	x0,x0,0	  x0:0x00000000
       16735000	      1672	800015ac	00000013	addi	x0,x0,0	  x0:0x00000000
       16745000	      1673	800015b0	0040036f	jal	x6,800015b0	  x6=0x800015b0
       16755000	      1674	00000000	00000013	addi	x0,x0,0	  x0:0x00000000
       16765000	      1675	800015b0	00000013	addi	x0,x0,0	  x0:0x00000000
       16775000	      1676	800015b4	fe5ff0ef	jal	x1,800015b4	  x1=0x800015b4
       16785000	      1677	00000000	00000013	addi	x0,x0,0	  x0:0x00000000
       16795000	      1678	80001594	00000013	addi	x0,x0,0	  x0:0x00000000
       16805000	      1679	80001598	010000ef	jal	x1,80001598	  x1=0x80001598
       16815000	      1680	00000000	00000013	addi	x0,x0,0	  x0:0x00000000
       16825000	      1681	800015a4	00000013	addi	x0,x0,0	  x0:0x00000000
       16835000	      1682	800015a8	fe5ff0ef	jal	x1,800015a8	  x1=0x800015a8
       16845000	      1683	00000000	00000013	addi	x0,x0,0	  x0:0x00000000
       16855000	      1684	80001588	00000013	addi	x0,x0,0	  x0:0x00000000
       16865000	      1685	8000158c	ffdff0ef	jal	x1,8000158c	  x1=0x8000158c
       16875000	      1686	00000000	00000013	addi	x0,x0,0	  x0:0x00000000
       16885000	      1687	80001584	00000013	addi	x0,x0,0	  x0:0x00000000
       16895000	      1688	80001588	00c000ef	jal	x1,80001588	  x1=0x80001588
       16905000	      1689	00000000	00000013	addi	x0,x0,0	  x0:0x00000000
       16915000	      1690	80001590	00000013	addi	x0,x0,0	  x0:0x00000000
       16925000	      1691	80001594	008004ef	jal	x9,80001594	  x9=0x80001594
       16935000	      1692	00000000	00000013	addi	x0,x0,0	  x0:0x00000000
       16945000	      1693	80001598	00000013	addi	x0,x0,0	  x0:0x00000000
       16955000	      1694	8000159c	008003ef	jal	x7,8000159c	  x7=0x8000159c
       16965000	      1695	00000000	00000013	addi	x0,x0,0	  x0:0x00000000
       16975000	      1696	800015a0	00000013	addi	x0,x0,0	  x0:0x00000000
       16985000	      1697	800015a4	ffdff0ef	jal	x1,800015a4	  x1=0x800015a4
       16995000	      1698	00000000	00000013	addi	x0,x0,0	  x0:0x00000000
       17005000	      1699	8000159c	00000013	addi	x0,x0,0	  x0:0x00000000
       17015000	      1700	800015a0	00c000ef	jal	x1,800015a0	  x1=0x800015a0
       17025000	      1701	00000000	00000013	addi	x0,x0,0	  x0:0x00000000
       17035000	      1702	800015a8	00000013	addi	x0,x0,0	  x0:0x00000000
       17045000	      1703	800015ac	00c000ef	jal	x1,800015ac	  x1=0x800015ac
       17055000	      1704	00000000	00000013	addi	x0,x0,0	  x0:0x00000000
       17065000	      1705	800015b4	00000013	addi	x0,x0,0	  x0:0x00000000
       17075000	      1706	800015b8	00fe22b3	slt	x5,x28,x15	 x28:0x800013c0 x15:0x800012b4  x5=0x00000000
       17085000	      1707	800015bc	03000b6f	jal	x22,800015bc	 x22=0x800015bc
       17095000	      1708	00000000	00000013	addi	x0,x0,0	  x0:0x00000000
       17105000	      1709	800015e8	00000013	addi	x0,x0,0	  x0:0x00000000
       17115000	      1710	800015ec	ff9ffe6f	jal	x28,800015ec	 x28=0x800015ec
       17125000	      1711	00000000	00000013	addi	x0,x0,0	  x0:0x00000000
       17135000	      1712	800015e0	00000013	addi	x0,x0,0	  x0:0x00000000
       17145000	      1713	800015e4	0100036f	jal	x6,800015e4	  x6=0x800015e4
       17155000	      1714	00000000	00000013	addi	x0,x0,0	  x0:0x00000000
       17165000	      1715	800015f0	00000013	addi	x0,x0,0	  x0:0x00000000
       17175000	      1716	800015f4	fd1ff36f	jal	x6,800015f4	  x6=0x800015f4
       17185000	      1717	00000000	00000013	addi	x0,x0,0	  x0:0x00000000
       17195000	      1718	800015c0	00000013	addi	x0,x0,0	  x0:0x00000000
       17205000	      1719	800015c4	024000ef	jal	x1,800015c4	  x1=0x800015c4
       17215000	      1720	00000000	00000013	addi	x0,x0,0	  x0:0x00000000
       17225000	      1721	800015e4	00000013	addi	x0,x0,0	  x0:0x00000000
       17235000	      1722	800015e8	fe5ff0ef	jal	x1,800015e8	  x1=0x800015e8
       17245000	      1723	00000000	00000013	addi	x0,x0,0	  x0:0x00000000
       17255000	      1724	800015c8	00000013	addi	x0,x0,0	  x0:0x00000000
       17265000	      1725	800015cc	ff5ff0ef	jal	x1,800015cc	  x1=0x800015cc
       17275000	      1726	00000000	00000013	addi	x0,x0,0	  x0:0x00000000
       17285000	      1727	800015bc	00000013	addi	x0,x0,0	  x0:0x00000000
       17295000	      1728	800015c0	0100036f	jal	x6,800015c0	  x6=0x800015c0
       17305000	      1729	00000000	00000013	addi	x0,x0,0	  x0:0x00000000
       17315000	      1730	800015cc	00000013	addi	x0,x0,0	  x0:0x00000000
       17325000	      1731	800015d0	00c000ef	jal	x1,800015d0	  x1=0x800015d0
       17335000	      1732	00000000	00000013	addi	x0,x0,0	  x0:0x00000000
       17345000	      1733	800015d8	00000013	addi	x0,x0,0	  x0:0x00000000
       17355000	      1734	800015dc	ffdff0ef	jal	x1,800015dc	  x1=0x800015dc
       17365000	      1735	00000000	00000013	addi	x0,x0,0	  x0:0x00000000
       17375000	      1736	800015d4	00000013	addi	x0,x0,0	  x0:0x00000000
       17385000	      1737	800015d8	028000ef	jal	x1,800015d8	  x1=0x800015d8
       17395000	      1738	00000000	00000013	addi	x0,x0,0	  x0:0x00000000
       17405000	      1739	800015fc	00000013	addi	x0,x0,0	  x0:0x00000000
       17415000	      1740	80001600	fd5ff0ef	jal	x1,80001600	  x1=0x80001600
       17425000	      1741	00000000	00000013	addi	x0,x0,0	  x0:0x00000000
       17435000	      1742	800015d0	00000013	addi	x0,x0,0	  x0:0x00000000
       17445000	      1743	800015d4	02400fef	jal	x31,800015d4	 x31=0x800015d4
       17455000	      1744	00000000	00000013	addi	x0,x0,0	  x0:0x00000000
       17465000	      1745	800015f4	00000013	addi	x0,x0,0	  x0:0x00000000
       17475000	      1746	800015f8	ff9ff5ef	jal	x11,800015f8	 x11=0x800015f8
       17485000	      1747	00000000	00000013	addi	x0,x0,0	  x0:0x00000000
       17495000	      1748	800015ec	00000013	addi	x0,x0,0	  x0:0x00000000
       17505000	      1749	800015f0	00c000ef	jal	x1,800015f0	  x1=0x800015f0
       17515000	      1750	00000000	00000013	addi	x0,x0,0	  x0:0x00000000
       17525000	      1751	800015f8	00000013	addi	x0,x0,0	  x0:0x00000000
       17535000	      1752	800015fc	fe5ff0ef	jal	x1,800015fc	  x1=0x800015fc
       17545000	      1753	00000000	00000013	addi	x0,x0,0	  x0:0x00000000
       17555000	      1754	800015dc	00000013	addi	x0,x0,0	  x0:0x00000000
       17565000	      1755	800015e0	fe9ff36f	jal	x6,800015e0	  x6=0x800015e0
       17575000	      1756	00000000	00000013	addi	x0,x0,0	  x0:0x00000000
       17585000	      1757	800015c4	00000013	addi	x0,x0,0	  x0:0x00000000
       17595000	      1758	800015c8	03c009ef	jal	x19,800015c8	 x19=0x800015c8
       17605000	      1759	00000000	00000013	addi	x0,x0,0	  x0:0x00000000
       17615000	      1760	80001600	00000013	addi	x0,x0,0	  x0:0x00000000
       17625000	      1761	80001604	4c943c93	sltiu	x25,x8,1225	  x8:0x8000139c x25=0x00000000
       17635000	      1762	80001608	40af8b33	sub	x22,x31,x10	 x31:0x800015d4 x10:0x00000001 x22=0x800015d3
       17645000	      1763	8000160c	8f096413	ori	x8,x18,-1808	 x18:0x80001518  x8=0xfffffdf8
       17655000	      1764	80001610	00364463	blt	x12,x3,80001618	 x12:0x80001448  x3:0x80001488
       17665000	      1765	00000000	00000013	addi	x0,x0,0	  x0:0x00000000
       17675000	      1766	80001614	00000013	addi	x0,x0,0	  x0:0x00000000
       17685000	      1767	80001618	41f65913	srai	x18,x12,0x1f	 x12:0x80001448 x18=0xffffffff
       17695000	      1768	8000161c	40b182b3	sub	x5,x3,x11	  x3:0x80001488 x11:0x800015f8  x5=0xfffffe90
       17705000	      1769	80001620	0154da63	bge	x9,x21,80001634	  x9:0x80001594 x21:0x80009f24
       17715000	      1770	80001624	0149d233	srl	x4,x19,x20	 x19:0x800015c8 x20:0x800014b8  x4=0x00000080
       17725000	      1771	80001628	0d312213	slti	x4,x2,211	  x2:0x80001590  x4=0x00000001
       17735000	      1772	8000162c	0057e863	bltu	x15,x5,8000163c	 x15:0x800012b4  x5:0xfffffe90
       17745000	      1773	00000000	00000013	addi	x0,x0,0	  x0:0x00000000
       17755000	      1774	80001638	00000013	addi	x0,x0,0	  x0:0x00000000
       17765000	      1775	8000163c	02c26063	bltu	x4,x12,8000165c	  x4:0x00000001 x12:0x80001448
       17775000	      1776	00000000	00000013	addi	x0,x0,0	  x0:0x00000000
       17785000	      1777	80001658	00000013	addi	x0,x0,0	  x0:0x00000000
       17795000	      1778	8000165c	00f11633	sll	x12,x2,x15	  x2:0x80001590 x15:0x800012b4 x12=0x59000000
       17805000	      1779	80001660	00271263	bne	x14,x2,80001664	 x14:0x80001544  x2:0x80001590
       17815000	      1780	00000000	00000013	addi	x0,x0,0	  x0:0x00000000
       17825000	      1781	80001660	00000013	addi	x0,x0,0	  x0:0x00000000
       17835000	      1782	80001664	f1cf2893	slti	x17,x30,-228	 x30:0x00000000 x17=0x00000000
       17845000	      1783	80001668	024f1a63	bne	x30,x4,8000169c	 x30:0x00000000  x4:0x00000001
       17855000	      1784	00000000	00000013	addi	x0,x0,0	  x0:0x00000000
       17865000	      1785	80001698	00000013	addi	x0,x0,0	  x0:0x00000000
       17875000	      1786	8000169c	0102d1b3	srl	x3,x5,x16	  x5:0xfffffe90 x16:0x8000152c  x3=0x000fffff
       17885000	      1787	800016a0	00b97bb3	and	x23,x18,x11	 x18:0xffffffff x11:0x800015f8 x23=0x800015f8
       17895000	      1788	800016a4	01be0b33	add	x22,x28,x27	 x28:0x800015ec x27:0x80009fc4 x22=0x0000b5b0
       17905000	      1789	800016a8	1816bb13	sltiu	x22,x13,385	 x13:0x00000000 x22=0x00000001
       17915000	      1790	800016ac	31c66893	ori	x17,x12,796	 x12:0x59000000 x17=0x5900031c
       17925000	      1791	800016b0	013a0933	add	x18,x20,x19	 x20:0x800014b8 x19:0x800015c8 x18=0x00002a80
       17935000	      1792	800016b4	0171b433	sltu	x8,x3,x23	  x3:0x000fffff x23:0x800015f8  x8=0x00000001
       17945000	      1793	800016b8	00b008b3	add	x17,x0,x11	  x0:0x00000000 x11:0x800015f8 x17=0x800015f8
       17955000	      1794	800016bc	01980033	add	x0,x16,x25	 x16:0x8000152c x25:0x00000000
       17965000	      1795	800016c0	7ed8f237	lui	x4,0x7ed8f	  x4=0x7ed8f000
       17975000	      1796	800016c4	01f08733	add	x14,x1,x31	  x1:0x800015fc x31:0x800015d4 x14=0x00002bd0
       17985000	      1797	800016c8	7c3bbc93	sltiu	x25,x23,1987	 x23:0x800015f8 x25=0x00000000
       17995000	      1798	800016cc	9f7ff493	andi	x9,x31,-1545	 x31:0x800015d4  x9=0x800011d4
       18005000	      1799	800016d0	3b26b013	sltiu	x0,x13,946	 x13:0x00000000
       18015000	      1800	800016d4	018b6a33	or	x20,x22,x24	 x22:0x00000001 x24:0x80001478 x20=0x80001479
       18025000	      1801	800016d8	02d57063	bgeu	x10,x13,800016f8	 x10:0x00000001 x13:0x00000000
       18035000	      1802	00000000	00000013	addi	x0,x0,0	  x0:0x00000000
       18045000	      1803	800016f4	00000013	addi	x0,x0,0	  x0:0x00000000
       18055000	      1804	800016f8	00841833	sll	x16,x8,x8	  x8:0x00000001  x8:0x00000001 x16=0x00000002
       18065000	      1805	800016fc	c595a913	slti	x18,x11,-935	 x11:0x800015f8 x18=0x00000001
       18075000	      1806	80001700	fd310637	lui	x12,0xfd310	 x12=0xfd310000
       18085000	      1807	80001704	01c39c93	slli	x25,x7,0x1c	  x7:0x8000159c x25=0xc0000000
       18095000	      1808	80001708	4323b693	sltiu	x13,x7,1074	  x7:0x8000159c x13=0x00000000
       18105000	      1809	8000170c	00ce7033	and	x0,x28,x12	 x28:0x800015ec x12:0xfd310000
       18115000	      1810	80001710	415d5cb3	sra	x25,x26,x21	 x26:0x80001508 x21:0x80009f24 x25=0xf8000150
       18125000	      1811	80001714	01f07d33	and	x26,x0,x31	  x0:0x00000000 x31:0x800015d4 x26=0x00000000
       18135000	      1812	80001718	4175d893	srai	x17,x11,0x17	 x11:0x800015f8 x17=0xffffff00
       18145000	      1813	8000171c	986b5b17	auipc	x22,0x986b5	 x22=0x186b6718
       18155000	      1814	80001720	00e9e2b3	or	x5,x19,x14	 x19:0x800015c8 x14:0x00002bd0  x5=0x80003fd8
       18165000	      1815	80001724	000bf263	bgeu	x23,x0,80001728	 x23:0x800015f8  x0:0x00000000
       18175000	      1816	00000000	00000013	addi	x0,x0,0	  x0:0x00000000
       18185000	      1817	80001724	00000013	addi	x0,x0,0	  x0:0x00000000
       18195000	      1818	80001728	238f2837	lui	x16,0x238f2	 x16=0x238f2000
       18205000	      1819	8000172c	02914263	blt	x2,x9,80001750	  x2:0x80001590  x9:0x800011d4
       18215000	      1820	80001730	00ec35b3	sltu	x11,x24,x14	 x24:0x80001478 x14:0x00002bd0 x11=0x00000000
       18225000	      1821	80001734	05536993	ori	x19,x6,85	  x6:0x800015e0 x19=0x800015f5
       18235000	      1822	80001738	03679663	bne	x15,x22,80001764	 x15:0x800012b4 x22:0x186b6718
       18245000	      1823	00000000	00000013	addi	x0,x0,0	  x0:0x00000000
       18255000	      1824	80001760	00000013	addi	x0,x0,0	  x0:0x00000000
       18265000	      1825	80001764	0499f063	bgeu	x19,x9,800017a4	 x19:0x800015f5  x9:0x800011d4
       18275000	      1826	00000000	00000013	addi	x0,x0,0	  x0:0x00000000
       18285000	      1827	800017a0	00000013	addi	x0,x0,0	  x0:0x00000000
       18295000	      1828	800017a4	cb3f4937	lui	x18,0xcb3f4	 x18=0xcb3f4000
       18305000	      1829	800017a8	05b6f063	bgeu	x13,x27,800017e8	 x13:0x00000000 x27:0x80009fc4
       18315000	      1830	800017ac	c83e2113	slti	x2,x28,-893	 x28:0x800015ec  x2=0x00000001
       18325000	      1831	800017b0	c607c093	xori	x1,x15,-928	 x15:0x800012b4  x1=0x7fffeed4
       18335000	      1832	800017b4	01025613	srli	x12,x4,0x10	  x4:0x7ed8f000 x12=0x00007ed8
       18345000	      1833	800017b8	f5076c13	ori	x24,x14,-176	 x14:0x00002bd0 x24=0xffffffd0
       18355000	      1834	800017bc	41c10333	sub	x6,x2,x28	  x2:0x00000001 x28:0x800015ec  x6=0x7fffea15
       18365000	      1835	800017c0	0087cfb3	xor	x31,x15,x8	 x15:0x800012b4  x8:0x00000001 x31=0x800012b5
       18375000	      1836	800017c4	03151c63	bne	x10,x17,800017fc	 x10:0x00000001 x17:0xffffff00
       18385000	      1837	00000000	00000013	addi	x0,x0,0	  x0:0x00000000
       18395000	      1838	800017f8	00000013	addi	x0,x0,0	  x0:0x00000000
       18405000	      1839	800017fc	04ede063	bltu	x27,x14,8000183c	 x27:0x80009fc4 x14:0x00002bd0
       18415000	      1840	80001800	008b7fb3	and	x31,x22,x8	 x22:0x186b6718  x8:0x00000001 x31=0x00000000
       18425000	      1841	80001804	c0ac0837	lui	x16,0xc0ac0	 x16=0xc0ac0000
       18435000	      1842	80001808	02fce063	bltu	x25,x15,80001828	 x25:0xf8000150 x15:0x800012b4
       18445000	      1843	8000180c	bd33b513	sltiu	x10,x7,-1069	  x7:0x8000159c x10=0x00000001
       18455000	      1844	80001810	406e0e33	sub	x28,x28,x6	 x28:0x800015ec  x6:0x7fffea15 x28=0x00002bd7
       18465000	      1845	80001814	e0c67093	andi	x1,x12,-500	 x12:0x00007ed8  x1=0x00007e08
       18475000	      1846	80001818	41b45613	srai	x12,x8,0x1b	  x8:0x00000001 x12=0x00000000
       18485000	      1847	8000181c	05b97863	bgeu	x18,x27,8000186c	 x18:0xcb3f4000 x27:0x80009fc4
       18495000	      1848	00000000	00000013	addi	x0,x0,0	  x0:0x00000000
       18505000	      1849	80001868	00000013	addi	x0,x0,0	  x0:0x00000000
       18515000	      1850	8000186c	411754b3	sra	x9,x14,x17	 x14:0x00002bd0 x17:0xffffff00  x9=0x00002bd0
       18525000	      1851	80001870	015aed33	or	x26,x21,x21	 x21:0x80009f24 x21:0x80009f24 x26=0x80009f24
       18535000	      1852	80001874	1e2f3217	auipc	x4,0x1e2f3	  x4=0x9e2f4870
       18545000	      1853	80001878	031a6263	bltu	x20,x17,8000189c	 x20:0x80001479 x17:0xffffff00
       18555000	      1854	00000000	00000013	addi	x0,x0,0	  x0:0x00000000
       18565000	      1855	80001898	00000013	addi	x0,x0,0	  x0:0x00000000
       18575000	      1856	8000189c	00f952b3	srl	x5,x18,x15	 x18:0xcb3f4000 x15:0x800012b4  x5=0x00000cb3
       18585000	      1857	800018a0	0043d193	srli	x3,x7,0x4	  x7:0x8000159c  x3=0x08000159
       18595000	      1858	800018a4	41dcde33	sra	x28,x25,x29	 x25:0xf8000150 x29:0x80001360 x28=0xf8000150
       18605000	      1859	800018a8	00b319b3	sll	x19,x6,x11	  x6:0x7fffea15 x11:0x00000000 x19=0x7fffea15
       18615000	      1860	800018ac	026c8a63	beq	x25,x6,800018e0	 x25:0xf8000150  x6:0x7fffea15
       18625000	      1861	800018b0	006155b3	srl	x11,x2,x6	  x2:0x00000001  x6:0x7fffea15 x11=0x00000000
       18635000	      1862	800018b4	002e6263	bltu	x28,x2,800018b8	 x28:0xf8000150  x2:0x00000001
       18645000	      1863	800018b8	9b81bc93	sltiu	x25,x3,-1608	  x3:0x08000159 x25=0x00000001
       18655000	      1864	800018bc	00b1f713	andi	x14,x3,11	  x3:0x08000159 x14=0x00000009
       18665000	      1865	800018c0	02fcc063	blt	x25,x15,800018e0	 x25:0x00000001 x15:0x800012b4
       18675000	      1866	800018c4	02c0f063	bgeu	x1,x12,800018e4	  x1:0x00007e08 x12:0x00000000
       18685000	      1867	00000000	00000013	addi	x0,x0,0	  x0:0x00000000
       18695000	      1868	800018e0	00000013	addi	x0,x0,0	  x0:0x00000000
       18705000	      1869	800018e4	848b4a17	auipc	x20,0x848b4	 x20=0x048b58e0
       18715000	      1870	800018e8	da25e393	ori	x7,x11,-606	 x11:0x00000000  x7=0xfffffda2
       18725000	      1871	800018ec	01c79263	bne	x15,x28,800018f0	 x15:0x800012b4 x28:0xf8000150
       18735000	      1872	00000000	00000013	addi	x0,x0,0	  x0:0x00000000
       18745000	      1873	800018ec	00000013	addi	x0,x0,0	  x0:0x00000000
       18755000	      1874	800018f0	76034b93	xori	x23,x6,1888	  x6:0x7fffea15 x23=0x7fffed75
       18765000	      1875	800018f4	002c37b3	sltu	x15,x24,x2	 x24:0xffffffd0  x2:0x00000001 x15=0x00000000
       18775000	      1876	800018f8	047a6063	bltu	x20,x7,80001938	 x20:0x048b58e0  x7:0xfffffda2
       18785000	      1877	00000000	00000013	addi	x0,x0,0	  x0:0x00000000
       18795000	      1878	80001934	00000013	addi	x0,x0,0	  x0:0x00000000
       18805000	      1879	80001938	b6fda313	slti	x6,x27,-1169	 x27:0x80009fc4  x6=0x00000001
       18815000	      1880	8000193c	01fed913	srli	x18,x29,0x1f	 x29:0x80001360 x18=0x00000001
       18825000	      1881	80001940	0240fc63	bgeu	x1,x4,80001978	  x1:0x00007e08  x4:0x9e2f4870
       18835000	      1882	80001944	0311ca63	blt	x3,x17,80001978	  x3:0x08000159 x17:0xffffff00
       18845000	      1883	80001948	00931313	slli	x6,x6,0x9	  x6:0x00000001  x6=0x00000200
       18855000	      1884	8000194c	41e20733	sub	x14,x4,x30	  x4:0x9e2f4870 x30:0x00000000 x14=0x9e2f4870
       18865000	      1885	80001950	04b86263	bltu	x16,x11,80001994	 x16:0xc0ac0000 x11:0x00000000
       18875000	      1886	80001954	2733fe13	andi	x28,x7,627	  x7:0xfffffda2 x28=0x00000022
       18885000	      1887	80001958	00000013	addi	x0,x0,0	  x0:0x00000000
       18895000	      1888	8000195c	d21ae813	ori	x16,x21,-735	 x21:0x80009f24 x16=0xffffff25
       18905000	      1889	80001960	000a1533	sll	x10,x20,x0	 x20:0x048b58e0  x0:0x00000000 x10=0x048b58e0
       18915000	      1890	80001964	4125db93	srai	x23,x11,0x12	 x11:0x00000000 x23=0x00000000
       18925000	      1891	80001968	01ebc463	blt	x23,x30,80001970	 x23:0x00000000 x30:0x00000000
       18935000	      1892	8000196c	15454eb7	lui	x29,0x15454	 x29=0x15454000
       18945000	      1893	80001970	00420e63	beq	x4,x4,8000198c	  x4:0x9e2f4870  x4:0x9e2f4870
       18955000	      1894	00000000	00000013	addi	x0,x0,0	  x0:0x00000000
       18965000	      1895	80001988	00000013	addi	x0,x0,0	  x0:0x00000000
       18975000	      1896	8000198c	006d8133	add	x2,x27,x6	 x27:0x80009fc4  x6:0x00000200  x2=0x8000a1c4
       18985000	      1897	80001990	00653733	sltu	x14,x10,x6	 x10:0x048b58e0  x6:0x00000200 x14=0x00000000
       18995000	      1898	80001994	039f6a63	bltu	x30,x25,800019c8	 x30:0x00000000 x25:0x00000001
       19005000	      1899	00000000	00000013	addi	x0,x0,0	  x0:0x00000000
       19015000	      1900	800019c4	00000013	addi	x0,x0,0	  x0:0x00000000
       19025000	      1901	800019c8	41b4d3b3	sra	x7,x9,x27	  x9:0x00002bd0 x27:0x80009fc4  x7=0x000002bd
       19035000	      1902	800019cc	015a9fb3	sll	x31,x21,x21	 x21:0x80009f24 x21:0x80009f24 x31=0x0009f240
       19045000	      1903	800019d0	0176df93	srli	x31,x13,0x17	 x13:0x00000000 x31=0x00000000
       19055000	      1904	800019d4	ccf4ad13	slti	x26,x9,-817	  x9:0x00002bd0 x26=0x00000000
       19065000	      1905	800019d8	0197fc33	and	x24,x15,x25	 x15:0x00000000 x25:0x00000001 x24=0x00000000
       19075000	      1906	800019dc	00a583b3	add	x7,x11,x10	 x11:0x00000000 x10:0x048b58e0  x7=0x048b58e0
       19085000	      1907	800019e0	19618d13	addi	x26,x3,406	  x3:0x08000159 x26=0x080002ef
       19095000	      1908	800019e4	00915893	srli	x17,x2,0x9	  x2:0x8000a1c4 x17=0x00400050
       19105000	      1909	800019e8	ab4eca13	xori	x20,x29,-1356	 x29:0x15454000 x20=0xeababab4
       19115000	      1910	800019ec	0175ca33	xor	x20,x11,x23	 x11:0x00000000 x23:0x00000000 x20=0x00000000
       19125000	      1911	800019f0	0a2e7913	andi	x18,x28,162	 x28:0x00000022 x18=0x00000022
       19135000	      1912	800019f4	04c47863	bgeu	x8,x12,80001a44	  x8:0x00000001 x12:0x00000000
       19145000	      1913	00000000	00000013	addi	x0,x0,0	  x0:0x00000000
       19155000	      1914	80001a40	00000013	addi	x0,x0,0	  x0:0x00000000
       19165000	      1915	80001a44	bf93f813	andi	x16,x7,-1031	  x7:0x048b58e0 x16=0x048b58e0
       19175000	      1916	80001a48	ffad8713	addi	x14,x27,-6	 x27:0x80009fc4 x14=0x80009fbe
       19185000	      1917	80001a4c	018b4e33	xor	x28,x22,x24	 x22:0x186b6718 x24:0x00000000 x28=0x186b6718
       19195000	      1918	80001a50	00626263	bltu	x4,x6,80001a54	  x4:0x9e2f4870  x6:0x00000200
       19205000	      1919	80001a54	00c1f933	and	x18,x3,x12	  x3:0x08000159 x12:0x00000000 x18=0x00000000
       19215000	      1920	80001a58	00998233	add	x4,x19,x9	 x19:0x7fffea15  x9:0x00002bd0  x4=0x800015e5
       19225000	      1921	80001a5c	b687a093	slti	x1,x15,-1176	 x15:0x00000000  x1=0x00000000
       19235000	      1922	80001a60	00000013	addi	x0,x0,0	  x0:0x00000000
       19245000	      1923	80001a64	01ab5bb3	srl	x23,x22,x26	 x22:0x186b6718 x26:0x080002ef x23=0x000030d6
       19255000	      1924	80001a68	e378ea17	auipc	x20,0xe378e	 x20=0x6378fa64
       19265000	      1925	80001a6c	01d5f3b3	and	x7,x11,x29	 x11:0x00000000 x29:0x15454000  x7=0x00000000
       19275000	      1926	80001a70	0104ed33	or	x26,x9,x16	  x9:0x00002bd0 x16:0x048b58e0 x26=0x048b7bf0
       19285000	      1927	80001a74	4534ce13	xori	x28,x9,1107	  x9:0x00002bd0 x28=0x00002f83
       19295000	      1928	80001a78	002c9263	bne	x25,x2,80001a7c	 x25:0x00000001  x2:0x8000a1c4
       19305000	      1929	00000000	00000013	addi	x0,x0,0	  x0:0x00000000
       19315000	      1930	80001a78	00000013	addi	x0,x0,0	  x0:0x00000000
       19325000	      1931	80001a7c	bafe3d13	sltiu	x26,x28,-1105	 x28:0x00002f83 x26=0x00000001
       19335000	      1932	80001a80	02d67263	bgeu	x12,x13,80001aa4	 x12:0x00000000 x13:0x00000000
       19345000	      1933	00000000	00000013	addi	x0,x0,0	  x0:0x00000000
       19355000	      1934	80001aa0	00000013	addi	x0,x0,0	  x0:0x00000000
       19365000	      1935	80001aa4	8b139e97	auipc	x29,0x8b139	 x29=0x0b13aaa0
       19375000	      1936	80001aa8	028f0063	beq	x30,x8,80001ac8	 x30:0x00000000  x8:0x00000001
       19385000	      1937	80001aac	00e97933	and	x18,x18,x14	 x18:0x00000000 x14:0x80009fbe x18=0x00000000
       19395000	      1938	80001ab0	c498b737	lui	x14,0xc498b	 x14=0xc498b000
       19405000	      1939	80001ab4	6ea7be13	sltiu	x28,x15,1770	 x15:0x00000000 x28=0x00000001
       19415000	      1940	80001ab8	417a81b3	sub	x3,x21,x23	 x21:0x80009f24 x23:0x000030d6  x3=0x80006e4e
       19425000	      1941	80001abc	0048f463	bgeu	x17,x4,80001ac4	 x17:0x00400050  x4:0x800015e5
       19435000	      1942	80001ac0	402b5e33	sra	x28,x22,x2	 x22:0x186b6718  x2:0x8000a1c4 x28=0x0186b671
       19445000	      1943	80001ac4	412b80b3	sub	x1,x23,x18	 x23:0x000030d6 x18:0x00000000  x1=0x000030d6
       19455000	      1944	80001ac8	00e09193	slli	x3,x1,0xe	  x1:0x000030d6  x3=0x0c358000
       19465000	      1945	80001acc	010e6333	or	x6,x28,x16	 x28:0x0186b671 x16:0x048b58e0  x6=0x058ffef1
       19475000	      1946	80001ad0	03568c63	beq	x13,x21,80001b08	 x13:0x00000000 x21:0x80009f24
       19485000	      1947	80001ad4	00e6ce63	blt	x13,x14,80001af0	 x13:0x00000000 x14:0xc498b000
       19495000	      1948	80001ad8	01c49733	sll	x14,x9,x28	  x9:0x00002bd0 x28:0x0186b671 x14=0x57a00000
       19505000	      1949	80001adc	00d3bfb3	sltu	x31,x7,x13	  x7:0x00000000 x13:0x00000000 x31=0x00000000
       19515000	      1950	80001ae0	01547463	bgeu	x8,x21,80001ae8	  x8:0x00000001 x21:0x80009f24
       19525000	      1951	80001ae4	012b1b13	slli	x22,x22,0x12	 x22:0x186b6718 x22=0x9c600000
       19535000	      1952	80001ae8	cf923593	sltiu	x11,x4,-775	  x4:0x800015e5 x11=0x00000001
       19545000	      1953	80001aec	41bbd993	srai	x19,x23,0x1b	 x23:0x000030d6 x19=0x00000000
       19555000	      1954	80001af0	00000013	addi	x0,x0,0	  x0:0x00000000
       19565000	      1955	80001af4	f7adb017	auipc	x0,0xf7adb	
       19575000	      1956	80001af8	61b2eb97	auipc	x23,0x61b2e	 x23=0xe1b2faf4
       19585000	      1957	80001afc	6c4ff837	lui	x16,0x6c4ff	 x16=0x6c4ff000
       19595000	      1958	80001b00	28ec3513	sltiu	x10,x24,654	 x24:0x00000000 x10=0x00000001
       19605000	      1959	80001b04	05871063	bne	x14,x24,80001b44	 x14:0x57a00000 x24:0x00000000
       19615000	      1960	00000000	00000013	addi	x0,x0,0	  x0:0x00000000
       19625000	      1961	80001b40	00000013	addi	x0,x0,0	  x0:0x00000000
       19635000	      1962	80001b44	01ce8cb3	add	x25,x29,x28	 x29:0x0b13aaa0 x28:0x0186b671 x25=0x0c9a6111
       19645000	      1963	80001b48	00b0abb3	slt	x23,x1,x11	  x1:0x000030d6 x11:0x00000001 x23=0x00000000
       19655000	      1964	80001b4c	050f1263	bne	x30,x16,80001b90	 x30:0x00000000 x16:0x6c4ff000
       19665000	      1965	00000000	00000013	addi	x0,x0,0	  x0:0x00000000
       19675000	      1966	80001b8c	00000013	addi	x0,x0,0	  x0:0x00000000
       19685000	      1967	80001b90	05464eb7	lui	x29,0x5464	 x29=0x05464000
       19695000	      1968	80001b94	7255f637	lui	x12,0x7255f	 x12=0x7255f000
       19705000	      1969	80001b98	1b2abe13	sltiu	x28,x21,434	 x21:0x80009f24 x28=0x00000000
       19715000	      1970	80001b9c	cb138013	addi	x0,x7,-847	  x7:0x00000000
       19725000	      1971	80001ba0	0102cbb3	xor	x23,x5,x16	  x5:0x00000cb3 x16:0x6c4ff000 x23=0x6c4ffcb3
       19735000	      1972	80001ba4	401b5813	srai	x16,x22,0x1	 x22:0x9c600000 x16=0xce300000
       19745000	      1973	80001ba8	03bcea63	bltu	x25,x27,80001bdc	 x25:0x0c9a6111 x27:0x80009fc4
       19755000	      1974	00000000	00000013	addi	x0,x0,0	  x0:0x00000000
       19765000	      1975	80001bd8	00000013	addi	x0,x0,0	  x0:0x00000000
       19775000	      1976	80001bdc	02c37063	bgeu	x6,x12,80001bfc	  x6:0x058ffef1 x12:0x7255f000
       19785000	      1977	80001be0	00db65b3	or	x11,x22,x13	 x22:0x9c600000 x13:0x00000000 x11=0x9c600000
       19795000	      1978	80001be4	40c3dc33	sra	x24,x7,x12	  x7:0x00000000 x12:0x7255f000 x24=0x00000000
       19805000	      1979	80001be8	f90a2793	slti	x15,x20,-112	 x20:0x6378fa64 x15=0x00000000
       19815000	      1980	80001bec	00000013	addi	x0,x0,0	  x0:0x00000000
       19825000	      1981	80001bf0	41765393	srai	x7,x12,0x17	 x12:0x7255f000  x7=0x000000e4
       19835000	      1982	80001bf4	21a13a13	sltiu	x20,x2,538	  x2:0x8000a1c4 x20=0x00000000
       19845000	      1983	80001bf8	40395233	sra	x4,x18,x3	 x18:0x00000000  x3:0x0c358000  x4=0x00000000
       19855000	      1984	80001bfc	0127a233	slt	x4,x15,x18	 x15:0x00000000 x18:0x00000000  x4=0x00000000
       19865000	      1985	80001c00	409750b3	sra	x1,x14,x9	 x14:0x57a00000  x9:0x00002bd0  x1=0x000057a0
       19875000	      1986	80001c04	36e83713	sltiu	x14,x16,878	 x16:0xce300000 x14=0x00000000
       19885000	      1987	80001c08	40248133	sub	x2,x9,x2	  x9:0x00002bd0  x2:0x8000a1c4  x2=0x7fff8a0c
       19895000	      1988	80001c0c	260fae17	auipc	x28,0x260fa	 x28=0xa60fbc08
       19905000	      1989	80001c10	016127b3	slt	x15,x2,x22	  x2:0x7fff8a0c x22:0x9c600000 x15=0x00000000
       19915000	      1990	80001c14	011262b3	or	x5,x4,x17	  x4:0x00000000 x17:0x00400050  x5=0x00400050
       19925000	      1991	80001c18	116ecc13	xori	x24,x29,278	 x29:0x05464000 x24=0x05464116
       19935000	      1992	80001c1c	e140c8b7	lui	x17,0xe140c	 x17=0xe140c000
       19945000	      1993	80001c20	bbee2593	slti	x11,x28,-1090	 x28:0xa60fbc08 x11=0x00000001
       19955000	      1994	80001c24	00478eb3	add	x29,x15,x4	 x15:0x00000000  x4:0x00000000 x29=0x00000000
       19965000	      1995	80001c28	798dfc93	andi	x25,x27,1944	 x27:0x80009fc4 x25=0x00000780
       19975000	      1996	80001c2c	00855a63	bge	x10,x8,80001c40	 x10:0x00000001  x8:0x00000001
       19985000	      1997	00000000	00000013	addi	x0,x0,0	  x0:0x00000000
       19995000	      1998	80001c3c	00000013	addi	x0,x0,0	  x0:0x00000000
       20005000	      1999	80001c40	833a3913	sltiu	x18,x20,-1997	 x20:0x00000000 x18=0x00000001
       20015000	      2000	80001c44	00e6c463	blt	x13,x14,80001c4c	 x13:0x00000000 x14:0x00000000
       20025000	      2001	80001c48	01a79793	slli	x15,x15,0x1a	 x15:0x00000000 x15=0x00000000
       20035000	      2002	80001c4c	01371193	slli	x3,x14,0x13	 x14:0x00000000  x3=0x00000000
       20045000	      2003	80001c50	41db5333	sra	x6,x22,x29	 x22:0x9c600000 x29:0x00000000  x6=0x9c600000
       20055000	      2004	80001c54	40c30333	sub	x6,x6,x12	  x6:0x9c600000 x12:0x7255f000  x6=0x2a0a1000
       20065000	      2005	80001c58	ea90a913	slti	x18,x1,-343	  x1:0x000057a0 x18=0x00000000
       20075000	      2006	80001c5c	00df0463	beq	x30,x13,80001c64	 x30:0x00000000 x13:0x00000000
       20085000	      2007	00000000	00000013	addi	x0,x0,0	  x0:0x00000000
       20095000	      2008	80001c60	00000013	addi	x0,x0,0	  x0:0x00000000
       20105000	      2009	80001c64	4fa6fb13	andi	x22,x13,1274	 x13:0x00000000 x22=0x00000000
       20115000	      2010	80001c68	00b4e263	bltu	x9,x11,80001c6c	  x9:0x00002bd0 x11:0x00000001
       20125000	      2011	80001c6c	40628bb3	sub	x23,x5,x6	  x5:0x00400050  x6:0x2a0a1000 x23=0xd635f050
       20135000	      2012	80001c70	007b0e63	beq	x22,x7,80001c8c	 x22:0x00000000  x7:0x000000e4
       20145000	      2013	80001c74	01d47c63	bgeu	x8,x29,80001c8c	  x8:0x00000001 x29:0x00000000
       20155000	      2014	00000000	00000013	addi	x0,x0,0	  x0:0x00000000
       20165000	      2015	80001c88	00000013	addi	x0,x0,0	  x0:0x00000000
       20175000	      2016	80001c8c	00b91533	sll	x10,x18,x11	 x18:0x00000000 x11:0x00000001 x10=0x00000000
       20185000	      2017	80001c90	000f6133	or	x2,x30,x0	 x30:0x00000000  x0:0x00000000  x2=0x00000000
       20195000	      2018	80001c94	d32d4b93	xori	x23,x26,-718	 x26:0x00000001 x23=0xfffffd33
       20205000	      2019	80001c98	01e08533	add	x10,x1,x30	  x1:0x000057a0 x30:0x00000000 x10=0x000057a0
       20215000	      2020	80001c9c	f87c3413	sltiu	x8,x24,-121	 x24:0x05464116  x8=0x00000001
       20225000	      2021	80001ca0	016f0133	add	x2,x30,x22	 x30:0x00000000 x22:0x00000000  x2=0x00000000
       20235000	      2022	80001ca4	00875533	srl	x10,x14,x8	 x14:0x00000000  x8:0x00000001 x10=0x00000000
       20245000	      2023	80001ca8	01ebbcb3	sltu	x25,x23,x30	 x23:0xfffffd33 x30:0x00000000 x25=0x00000000
       20255000	      2024	80001cac	0091dc93	srli	x25,x3,0x9	  x3:0x00000000 x25=0x00000000
       20265000	      2025	80001cb0	009e6333	or	x6,x28,x9	 x28:0xa60fbc08  x9:0x00002bd0  x6=0xa60fbfd8
       20275000	      2026	80001cb4	0174c7b3	xor	x15,x9,x23	  x9:0x00002bd0 x23:0xfffffd33 x15=0xffffd6e3
       20285000	      2027	80001cb8	0346d263	bge	x13,x20,80001cdc	 x13:0x00000000 x20:0x00000000
       20295000	      2028	00000000	00000013	addi	x0,x0,0	  x0:0x00000000
       20305000	      2029	80001cd8	00000013	addi	x0,x0,0	  x0:0x00000000
       20315000	      2030	80001cdc	41bf59b3	sra	x19,x30,x27	 x30:0x00000000 x27:0x80009fc4 x19=0x00000000
       20325000	      2031	80001ce0	014e0463	beq	x28,x20,80001ce8	 x28:0xa60fbc08 x20:0x00000000
       20335000	      2032	80001ce4	016f4233	xor	x4,x30,x22	 x30:0x00000000 x22:0x00000000  x4=0x00000000
       20345000	      2033	80001ce8	df4ef293	andi	x5,x29,-524	 x29:0x00000000  x5=0x00000000
       20355000	      2034	80001cec	2a59e113	ori	x2,x19,677	 x19:0x00000000  x2=0x000002a5
       20365000	      2035	80001cf0	00c86eb3	or	x29,x16,x12	 x16:0xce300000 x12:0x7255f000 x29=0xfe75f000
       20375000	      2036	80001cf4	00000013	addi	x0,x0,0	  x0:0x00000000
       20385000	      2037	80001cf8	00d0b4b3	sltu	x9,x1,x13	  x1:0x000057a0 x13:0x00000000  x9=0x00000000
       20395000	      2038	80001cfc	056bc863	blt	x23,x22,80001d4c	 x23:0xfffffd33 x22:0x00000000
       20405000	      2039	00000000	00000013	addi	x0,x0,0	  x0:0x00000000
       20415000	      2040	80001d48	00000013	addi	x0,x0,0	  x0:0x00000000
       20425000	      2041	80001d4c	0dcb9017	auipc	x0,0xdcb9	
       20435000	      2042	80001d50	adb57213	andi	x4,x10,-1317	 x10:0x00000000  x4=0x00000000
       20445000	      2043	80001d54	4da64d13	xori	x26,x12,1242	 x12:0x7255f000 x26=0x7255f4da
       20455000	      2044	80001d58	4183e913	ori	x18,x7,1048	  x7:0x000000e4 x18=0x000004fc
       20465000	      2045	80001d5c	54818713	addi	x14,x3,1352	  x3:0x00000000 x14=0x00000548
       20475000	      2046	80001d60	bd683693	sltiu	x13,x16,-1066	 x16:0xce300000 x13=0x00000001
       20485000	      2047	80001d64	00126e63	bltu	x4,x1,80001d80	  x4:0x00000000  x1:0x000057a0
       20495000	      2048	00000000	00000013	addi	x0,x0,0	  x0:0x00000000
       20505000	      2049	80001d7c	00000013	addi	x0,x0,0	  x0:0x00000000
       20515000	      2050	80001d80	e1ccec13	ori	x24,x25,-484	 x25:0x00000000 x24=0xfffffe1c
       20525000	      2051	80001d84	01764833	xor	x16,x12,x23	 x12:0x7255f000 x23:0xfffffd33 x16=0x8daa0d33
       20535000	      2052	80001d88	01e3ce63	blt	x7,x30,80001da4	  x7:0x000000e4 x30:0x00000000
       20545000	      2053	80001d8c	018f5133	srl	x2,x30,x24	 x30:0x00000000 x24:0xfffffe1c  x2=0x00000000
       20555000	      2054	80001d90	689d7c17	auipc	x24,0x689d7	 x24=0xe89d8d8c
       20565000	      2055	80001d94	01e05b13	srli	x22,x0,0x1e	  x0:0x00000000 x22=0x00000000
       20575000	      2056	80001d98	011856b3	srl	x13,x16,x17	 x16:0x8daa0d33 x17:0xe140c000 x13=0x8daa0d33
       20585000	      2057	80001d9c	00e81833	sll	x16,x16,x14	 x16:0x8daa0d33 x14:0x00000548 x16=0xaa0d3300
       20595000	      2058	80001da0	00c3d913	srli	x18,x7,0xc	  x7:0x000000e4 x18=0x00000000
       20605000	      2059	80001da4	56bfa593	slti	x11,x31,1387	 x31:0x00000000 x11=0x00000001
       20615000	      2060	80001da8	005602b3	add	x5,x12,x5	 x12:0x7255f000  x5:0x00000000  x5=0x7255f000
       20625000	      2061	80001dac	8d2bf013	andi	x0,x23,-1838	 x23:0xfffffd33
       20635000	      2062	80001db0	35a8c493	xori	x9,x17,858	 x17:0xe140c000  x9=0xe140c35a
       20645000	      2063	80001db4	40a5d193	srai	x3,x11,0xa	 x11:0x00000001  x3=0x00000000
       20655000	      2064	80001db8	480ba317	auipc	x6,0x480ba	  x6=0xc80bbdb4
       20665000	      2065	80001dbc	012428b3	slt	x17,x8,x18	  x8:0x00000001 x18:0x00000000 x17=0x00000000
       20675000	      2066	80001dc0	01da44b3	xor	x9,x20,x29	 x20:0x00000000 x29:0xfe75f000  x9=0xfe75f000
       20685000	      2067	80001dc4	006b51b3	srl	x3,x22,x6	 x22:0x00000000  x6:0xc80bbdb4  x3=0x00000000
       20695000	      2068	80001dc8	001b9c93	slli	x25,x23,0x1	 x23:0xfffffd33 x25=0xfffffa66
       20705000	      2069	80001dcc	41bcd633	sra	x12,x25,x27	 x25:0xfffffa66 x27:0x80009fc4 x12=0xffffffa6
       20715000	      2070	80001dd0	402783b3	sub	x7,x15,x2	 x15:0xffffd6e3  x2:0x00000000  x7=0xffffd6e3
       20725000	      2071	80001dd4	01145f93	srli	x31,x8,0x11	  x8:0x00000001 x31=0x00000000
       20735000	      2072	80001dd8	01dd0bb3	add	x23,x26,x29	 x26:0x7255f4da x29:0xfe75f000 x23=0x70cbe4da
       20745000	      2073	80001ddc	008781b3	add	x3,x15,x8	 x15:0xffffd6e3  x8:0x00000001  x3=0xffffd6e4
       20755000	      2074	80001de0	c1228913	addi	x18,x5,-1006	  x5:0x7255f000 x18=0x7255ec12
       20765000	      2075	80001de4	e2dfc1b7	lui	x3,0xe2dfc	  x3=0xe2dfc000
       20775000	      2076	80001de8	139f0393	addi	x7,x30,313	 x30:0x00000000  x7=0x00000139
       20785000	      2077	80001dec	0168f033	and	x0,x17,x22	 x17:0x00000000 x22:0x00000000
       20795000	      2078	80001df0	0479e063	bltu	x19,x7,80001e30	 x19:0x00000000  x7:0x00000139
       20805000	      2079	00000000	00000013	addi	x0,x0,0	  x0:0x00000000
       20815000	      2080	80001e2c	00000013	addi	x0,x0,0	  x0:0x00000000
       20825000	      2081	80001e30	ee2de813	ori	x16,x27,-286	 x27:0x80009fc4 x16=0xffffffe6
       20835000	      2082	80001e34	00c47463	bgeu	x8,x12,80001e3c	  x8:0x00000001 x12:0xffffffa6
       20845000	      2083	80001e38	b4d5b4b7	lui	x9,0xb4d5b	  x9=0xb4d5b000
       20855000	      2084	80001e3c	011a4a33	xor	x20,x20,x17	 x20:0x00000000 x17:0x00000000 x20=0x00000000
       20865000	      2085	80001e40	00000013	addi	x0,x0,0	  x0:0x00000000
       20875000	      2086	80001e44	00298263	beq	x19,x2,80001e48	 x19:0x00000000  x2:0x00000000
       20885000	      2087	00000000	00000013	addi	x0,x0,0	  x0:0x00000000
       20895000	      2088	80001e44	00000013	addi	x0,x0,0	  x0:0x00000000
       20905000	      2089	80001e48	02d10863	beq	x2,x13,80001e78	  x2:0x00000000 x13:0x8daa0d33
       20915000	      2090	80001e4c	de86f413	andi	x8,x13,-536	 x13:0x8daa0d33  x8=0x8daa0d20
       20925000	      2091	80001e50	d09ee813	ori	x16,x29,-759	 x29:0xfe75f000 x16=0xfffffd09
       20935000	      2092	80001e54	0239d063	bge	x19,x3,80001e74	 x19:0x00000000  x3:0xe2dfc000
       20945000	      2093	00000000	00000013	addi	x0,x0,0	  x0:0x00000000
       20955000	      2094	80001e70	00000013	addi	x0,x0,0	  x0:0x00000000
       20965000	      2095	80001e74	014cbbb3	sltu	x23,x25,x20	 x25:0xfffffa66 x20:0x00000000 x23=0x00000000
       20975000	      2096	80001e78	02d31a63	bne	x6,x13,80001eac	  x6:0xc80bbdb4 x13:0x8daa0d33
       20985000	      2097	00000000	00000013	addi	x0,x0,0	  x0:0x00000000
       20995000	      2098	80001ea8	00000013	addi	x0,x0,0	  x0:0x00000000
       21005000	      2099	80001eac	41b75a33	sra	x20,x14,x27	 x14:0x00000548 x27:0x80009fc4 x20=0x00000054
       21015000	      2100	80001eb0	51c93d13	sltiu	x26,x18,1308	 x18:0x7255ec12 x26=0x00000000
       21025000	      2101	80001eb4	d1a2ae13	slti	x28,x5,-742	  x5:0x7255f000 x28=0x00000000
       21035000	      2102	80001eb8	009a1c63	bne	x20,x9,80001ed0	 x20:0x00000054  x9:0xb4d5b000
       21045000	      2103	00000000	00000013	addi	x0,x0,0	  x0:0x00000000
       21055000	      2104	80001ecc	00000013	addi	x0,x0,0	  x0:0x00000000
       21065000	      2105	80001ed0	40168733	sub	x14,x13,x1	 x13:0x8daa0d33  x1:0x000057a0 x14=0x8da9b593
       21075000	      2106	80001ed4	c6f6ab93	slti	x23,x13,-913	 x13:0x8daa0d33 x23=0x00000001
       21085000	      2107	80001ed8	003e5413	srli	x8,x28,0x3	 x28:0x00000000  x8=0x00000000
       21095000	      2108	80001edc	a81c2793	slti	x15,x24,-1407	 x24:0xe89d8d8c x15=0x00000001
       21105000	      2109	80001ee0	00000013	addi	x0,x0,0	  x0:0x00000000
       21115000	      2110	80001ee4	4057d313	srai	x6,x15,0x5	 x15:0x00000001  x6=0x00000000
       21125000	      2111	80001ee8	41e1d833	sra	x16,x3,x30	  x3:0xe2dfc000 x30:0x00000000 x16=0xe2dfc000
       21135000	      2112	80001eec	410a82b3	sub	x5,x21,x16	 x21:0x80009f24 x16:0xe2dfc000  x5=0x9d20df24
       21145000	      2113	80001ef0	025d8063	beq	x27,x5,80001f10	 x27:0x80009fc4  x5:0x9d20df24
       21155000	      2114	80001ef4	017dcb33	xor	x22,x27,x23	 x27:0x80009fc4 x23:0x00000001 x22=0x80009fc5
       21165000	      2115	80001ef8	01d2d463	bge	x5,x29,80001f00	  x5:0x9d20df24 x29:0xfe75f000
       21175000	      2116	80001efc	41b50eb3	sub	x29,x10,x27	 x10:0x00000000 x27:0x80009fc4 x29=0x7fff603c
       21185000	      2117	80001f00	d433a913	slti	x18,x7,-701	  x7:0x00000139 x18=0x00000000
       21195000	      2118	80001f04	acd6c193	xori	x3,x13,-1331	 x13:0x8daa0d33  x3=0x7255f7fe
       21205000	      2119	80001f08	00879463	bne	x15,x8,80001f10	 x15:0x00000001  x8:0x00000000
       21215000	      2120	00000000	00000013	addi	x0,x0,0	  x0:0x00000000
       21225000	      2121	80001f0c	00000013	addi	x0,x0,0	  x0:0x00000000
       21235000	      2122	80001f10	00e242b3	xor	x5,x4,x14	  x4:0x00000000 x14:0x8da9b593  x5=0x8da9b593
       21245000	      2123	80001f14	0187d913	srli	x18,x15,0x18	 x15:0x00000001 x18=0x00000000
       21255000	      2124	80001f18	01d26a33	or	x20,x4,x29	  x4:0x00000000 x29:0x7fff603c x20=0x7fff603c
       21265000	      2125	80001f1c	41acd7b3	sra	x15,x25,x26	 x25:0xfffffa66 x26:0x00000000 x15=0xfffffa66
       21275000	      2126	80001f20	f7ce2613	slti	x12,x28,-132	 x28:0x00000000 x12=0x00000000
       21285000	      2127	80001f24	044f9063	bne	x31,x4,80001f64	 x31:0x00000000  x4:0x00000000
       21295000	      2128	80001f28	01d28233	add	x4,x5,x29	  x5:0x8da9b593 x29:0x7fff603c  x4=0x0da915cf
       21305000	      2129	80001f2c	cdacf813	andi	x16,x25,-806	 x25:0xfffffa66 x16=0xfffff842
       21315000	      2130	80001f30	00630933	add	x18,x6,x6	  x6:0x00000000  x6:0x00000000 x18=0x00000000
       21325000	      2131	80001f34	032fec63	bltu	x31,x18,80001f6c	 x31:0x00000000 x18:0x00000000
       21335000	      2132	80001f38	014714b3	sll	x9,x14,x20	 x14:0x8da9b593 x20:0x7fff603c  x9=0x30000000
       21345000	      2133	80001f3c	1e3e3b97	auipc	x23,0x1e3e3	 x23=0x9e3e4f38
       21355000	      2134	80001f40	0109d413	srli	x8,x19,0x10	 x19:0x00000000  x8=0x00000000
       21365000	      2135	80001f44	00c732b3	sltu	x5,x14,x12	 x14:0x8da9b593 x12:0x00000000  x5=0x00000000
       21375000	      2136	80001f48	0021f1b3	and	x3,x3,x2	  x3:0x7255f7fe  x2:0x00000000  x3=0x00000000
       21385000	      2137	80001f4c	b5557093	andi	x1,x10,-1195	 x10:0x00000000  x1=0x00000000
       21395000	      2138	80001f50	015194b3	sll	x9,x3,x21	  x3:0x00000000 x21:0x80009f24  x9=0x00000000
       21405000	      2139	80001f54	b96e0f93	addi	x31,x28,-1130	 x28:0x00000000 x31=0xfffffb96
       21415000	      2140	80001f58	401b5493	srai	x9,x22,0x1	 x22:0x80009fc5  x9=0xc0004fe2
       21425000	      2141	80001f5c	b31a3513	sltiu	x10,x20,-1231	 x20:0x7fff603c x10=0x00000001
       21435000	      2142	80001f60	015d90b3	sll	x1,x27,x21	 x27:0x80009fc4 x21:0x80009f24  x1=0x0009fc40
       21445000	      2143	80001f64	00ea4e33	xor	x28,x20,x14	 x20:0x7fff603c x14:0x8da9b593 x28=0xf256d5af
       21455000	      2144	80001f68	02747a63	bgeu	x8,x7,80001f9c	  x8:0x00000000  x7:0x00000139
       21465000	      2145	80001f6c	001492b3	sll	x5,x9,x1	  x9:0xc0004fe2  x1:0x0009fc40  x5=0xc0004fe2
       21475000	      2146	80001f70	010b3433	sltu	x8,x22,x16	 x22:0x80009fc5 x16:0xfffff842  x8=0x00000001
       21485000	      2147	80001f74	00000013	addi	x0,x0,0	  x0:0x00000000
       21495000	      2148	80001f78	9b2ae593	ori	x11,x21,-1614	 x21:0x80009f24 x11=0xffffffb6
       21505000	      2149	80001f7c	028c5663	bge	x24,x8,80001fa8	 x24:0xe89d8d8c  x8:0x00000001
       21515000	      2150	80001f80	037f6063	bltu	x30,x23,80001fa0	 x30:0x00000000 x23:0x9e3e4f38
       21525000	      2151	00000000	00000013	addi	x0,x0,0	  x0:0x00000000
       21535000	      2152	80001f9c	00000013	addi	x0,x0,0	  x0:0x00000000
       21545000	      2153	80001fa0	015f7263	bgeu	x30,x21,80001fa4	 x30:0x00000000 x21:0x80009f24
       21555000	      2154	80001fa4	00188a33	add	x20,x17,x1	 x17:0x00000000  x1:0x0009fc40 x20=0x0009fc40
       21565000	      2155	80001fa8	c8cae613	ori	x12,x21,-884	 x21:0x80009f24 x12=0xffffffac
       21575000	      2156	80001fac	001d4463	blt	x26,x1,80001fb4	 x26:0x00000000  x1:0x0009fc40
       21585000	      2157	00000000	00000013	addi	x0,x0,0	  x0:0x00000000
       21595000	      2158	80001fb0	00000013	addi	x0,x0,0	  x0:0x00000000
       21605000	      2159	80001fb4	417800b3	sub	x1,x16,x23	 x16:0xfffff842 x23:0x9e3e4f38  x1=0x61c1a90a
       21615000	      2160	80001fb8	c0ac8593	addi	x11,x25,-1014	 x25:0xfffffa66 x11=0xfffff670
       21625000	      2161	80001fbc	09317093	andi	x1,x2,147	  x2:0x00000000  x1=0x00000000
       21635000	      2162	80001fc0	02c36263	bltu	x6,x12,80001fe4	  x6:0x00000000 x12:0xffffffac
       21645000	      2163	00000000	00000013	addi	x0,x0,0	  x0:0x00000000
       21655000	      2164	80001fe0	00000013	addi	x0,x0,0	  x0:0x00000000
       21665000	      2165	80001fe4	00ec3833	sltu	x16,x24,x14	 x24:0xe89d8d8c x14:0x8da9b593 x16=0x00000000
       21675000	      2166	80001fe8	00419813	slli	x16,x3,0x4	  x3:0x00000000 x16=0x00000000
       21685000	      2167	80001fec	c9425697	auipc	x13,0xc9425	 x13=0x49426fe8
       21695000	      2168	80001ff0	36eb0693	addi	x13,x22,878	 x22:0x80009fc5 x13=0x8000a333
       21705000	      2169	80001ff4	00af9733	sll	x14,x31,x10	 x31:0xfffffb96 x10:0x00000001 x14=0xfffff72c
       21715000	      2170	80001ff8	f2838e93	addi	x29,x7,-216	  x7:0x00000139 x29=0x00000061
       21725000	      2171	80001ffc	8d568393	addi	x7,x13,-1835	 x13:0x8000a333  x7=0x80009c08
       21735000	      2172	80002000	00fbdc13	srli	x24,x23,0xf	 x23:0x9e3e4f38 x24=0x00013c7c
       21745000	      2173	80002004	008af263	bgeu	x21,x8,80002008	 x21:0x80009f24  x8:0x00000001
       21755000	      2174	00000000	00000013	addi	x0,x0,0	  x0:0x00000000
       21765000	      2175	80002004	00000013	addi	x0,x0,0	  x0:0x00000000
       21775000	      2176	80002008	01ce9d13	slli	x26,x29,0x1c	 x29:0x00000061 x26=0x10000000
       21785000	      2177	8000200c	bf207113	andi	x2,x0,-1038	  x0:0x00000000  x2=0x00000000
       21795000	      2178	80002010	41035eb3	sra	x29,x6,x16	  x6:0x00000000 x16:0x00000000 x29=0x00000000
       21805000	      2179	80002014	0094d6b3	srl	x13,x9,x9	  x9:0xc0004fe2  x9:0xc0004fe2 x13=0x300013f8
       21815000	      2180	80002018	00742933	slt	x18,x8,x7	  x8:0x00000001  x7:0x80009c08 x18=0x00000000
       21825000	      2181	8000201c	01a4dd33	srl	x26,x9,x26	  x9:0xc0004fe2 x26:0x10000000 x26=0xc0004fe2
       21835000	      2182	80002020	02741063	bne	x8,x7,80002040	  x8:0x00000001  x7:0x80009c08
       21845000	      2183	00000000	00000013	addi	x0,x0,0	  x0:0x00000000
       21855000	      2184	8000203c	00000013	addi	x0,x0,0	  x0:0x00000000
       21865000	      2185	80002040	01f5f533	and	x10,x11,x31	 x11:0xfffff670 x31:0xfffffb96 x10=0xfffff210
       21875000	      2186	80002044	03856663	bltu	x10,x24,80002070	 x10:0xfffff210 x24:0x00013c7c
       21885000	      2187	80002048	759a2b93	slti	x23,x20,1881	 x20:0x0009fc40 x23=0x00000000
       21895000	      2188	8000204c	02da6c63	bltu	x20,x13,80002084	 x20:0x0009fc40 x13:0x300013f8
       21905000	      2189	00000000	00000013	addi	x0,x0,0	  x0:0x00000000
       21915000	      2190	80002080	00000013	addi	x0,x0,0	  x0:0x00000000
       21925000	      2191	80002084	40aad433	sra	x8,x21,x10	 x21:0x80009f24 x10:0xfffff210  x8=0xffff8000
       21935000	      2192	80002088	0133ab33	slt	x22,x7,x19	  x7:0x80009c08 x19:0x00000000 x22=0x00000001
       21945000	      2193	8000208c	00041033	sll	x0,x8,x0	  x8:0xffff8000  x0:0x00000000
       21955000	      2194	80002090	05904063	blt	x0,x25,800020d0	  x0:0x00000000 x25:0xfffffa66
       21965000	      2195	80002094	027c0063	beq	x24,x7,800020b4	 x24:0x00013c7c  x7:0x80009c08
       21975000	      2196	80002098	01a70933	add	x18,x14,x26	 x14:0xfffff72c x26:0xc0004fe2 x18=0xc000470e
       21985000	      2197	8000209c	41195293	srai	x5,x18,0x11	 x18:0xc000470e  x5=0xffffe000
       21995000	      2198	800020a0	3c577e93	andi	x29,x14,965	 x14:0xfffff72c x29=0x00000304
       22005000	      2199	800020a4	01362733	slt	x14,x12,x19	 x12:0xffffffac x19:0x00000000 x14=0x00000001
       22015000	      2200	800020a8	a7b2bf93	sltiu	x31,x5,-1413	  x5:0xffffe000 x31=0x00000001
       22025000	      2201	800020ac	0105a533	slt	x10,x11,x16	 x11:0xfffff670 x16:0x00000000 x10=0x00000001
       22035000	      2202	800020b0	410f5a33	sra	x20,x30,x16	 x30:0x00000000 x16:0x00000000 x20=0x00000000
       22045000	      2203	800020b4	011ea733	slt	x14,x29,x17	 x29:0x00000304 x17:0x00000000 x14=0x00000000
       22055000	      2204	800020b8	043e1063	bne	x28,x3,800020f8	 x28:0xf256d5af  x3:0x00000000
       22065000	      2205	00000000	00000013	addi	x0,x0,0	  x0:0x00000000
       22075000	      2206	800020f4	00000013	addi	x0,x0,0	  x0:0x00000000
       22085000	      2207	800020f8	6462b1b7	lui	x3,0x6462b	  x3=0x6462b000
       22095000	      2208	800020fc	038a1863	bne	x20,x24,8000212c	 x20:0x00000000 x24:0x00013c7c
       22105000	      2209	00000000	00000013	addi	x0,x0,0	  x0:0x00000000
       22115000	      2210	80002128	00000013	addi	x0,x0,0	  x0:0x00000000
       22125000	      2211	8000212c	0167a833	slt	x16,x15,x22	 x15:0xfffffa66 x22:0x00000001 x16=0x00000001
       22135000	      2212	80002130	0328d863	bge	x17,x18,80002160	 x17:0x00000000 x18:0xc000470e
       22145000	      2213	00000000	00000013	addi	x0,x0,0	  x0:0x00000000
       22155000	      2214	8000215c	00000013	addi	x0,x0,0	  x0:0x00000000
       22165000	      2215	80002160	015f3033	sltu	x0,x30,x21	 x30:0x00000000 x21:0x80009f24
       22175000	      2216	80002164	0228d063	bge	x17,x2,80002184	 x17:0x00000000  x2:0x00000000
       22185000	      2217	00000000	00000013	addi	x0,x0,0	  x0:0x00000000
       22195000	      2218	80002180	00000013	addi	x0,x0,0	  x0:0x00000000
       22205000	      2219	80002184	00498b33	add	x22,x19,x4	 x19:0x00000000  x4:0x0da915cf x22=0x0da915cf
       22215000	      2220	80002188	00000013	addi	x0,x0,0	  x0:0x00000000
       22225000	      2221	8000218c	00319893	slli	x17,x3,0x3	  x3:0x6462b000 x17=0x23158000
       22235000	      2222	80002190	01277463	bgeu	x14,x18,80002198	 x14:0x00000000 x18:0xc000470e
       22245000	      2223	80002194	01234233	xor	x4,x6,x18	  x6:0x00000000 x18:0xc000470e  x4=0xc000470e
       22255000	      2224	80002198	01c12b33	slt	x22,x2,x28	  x2:0x00000000 x28:0xf256d5af x22=0x00000000
       22265000	      2225	8000219c	409d0033	sub	x0,x26,x9	 x26:0xc0004fe2  x9:0xc0004fe2
       22275000	      2226	800021a0	00725393	srli	x7,x4,0x7	  x4:0xc000470e  x7=0x0180008e
       22285000	      2227	800021a4	75ee7493	andi	x9,x28,1886	 x28:0xf256d5af  x9=0x0000050e
       22295000	      2228	800021a8	01085e33	srl	x28,x16,x16	 x16:0x00000001 x16:0x00000001 x28=0x00000000
       22305000	      2229	800021ac	008f7c33	and	x24,x30,x8	 x30:0x00000000  x8:0xffff8000 x24=0x00000000
       22315000	      2230	800021b0	01dc6e63	bltu	x24,x29,800021cc	 x24:0x00000000 x29:0x00000304
       22325000	      2231	00000000	00000013	addi	x0,x0,0	  x0:0x00000000
       22335000	      2232	800021c8	00000013	addi	x0,x0,0	  x0:0x00000000
       22345000	      2233	800021cc	2e28c093	xori	x1,x17,738	 x17:0x23158000  x1=0x231582e2
       22355000	      2234	800021d0	01b89493	slli	x9,x17,0x1b	 x17:0x23158000  x9=0x00000000
       22365000	      2235	800021d4	64fc2d13	slti	x26,x24,1615	 x24:0x00000000 x26=0x00000001
       22375000	      2236	800021d8	00000013	addi	x0,x0,0	  x0:0x00000000
       22385000	      2237	800021dc	001966b3	or	x13,x18,x1	 x18:0xc000470e  x1:0x231582e2 x13=0xe315c7ee
       22395000	      2238	800021e0	b5d67417	auipc	x8,0xb5d67	  x8=0x35d691dc
       22405000	      2239	800021e4	86417913	andi	x18,x2,-1948	  x2:0x00000000 x18=0x00000000
       22415000	      2240	800021e8	02421c63	bne	x4,x4,80002220	  x4:0xc000470e  x4:0xc000470e
       22425000	      2241	800021ec	019849b3	xor	x19,x16,x25	 x16:0x00000001 x25:0xfffffa66 x19=0xfffffa67
       22435000	      2242	800021f0	09794613	xori	x12,x18,151	 x18:0x00000000 x12=0x00000097
       22445000	      2243	800021f4	35c34c93	xori	x25,x6,860	  x6:0x00000000 x25=0x0000035c
       22455000	      2244	800021f8	000db633	sltu	x12,x27,x0	 x27:0x80009fc4  x0:0x00000000 x12=0x00000000
       22465000	      2245	800021fc	0ed24e97	auipc	x29,0xed24	 x29=0x8ed261f8
       22475000	      2246	80002200	40d2d3b3	sra	x7,x5,x13	  x5:0xffffe000 x13:0xe315c7ee  x7=0xffffffff
       22485000	      2247	80002204	00e01263	bne	x0,x14,80002208	  x0:0x00000000 x14:0x00000000
       22495000	      2248	80002208	25746413	ori	x8,x8,599	  x8:0x35d691dc  x8=0x35d693df
       22505000	      2249	8000220c	05ac8063	beq	x25,x26,8000224c	 x25:0x0000035c x26:0x00000001
       22515000	      2250	80002210	0104d933	srl	x18,x9,x16	  x9:0x00000000 x16:0x00000001 x18=0x00000000
       22525000	      2251	80002214	024be863	bltu	x23,x4,80002244	 x23:0x00000000  x4:0xc000470e
       22535000	      2252	00000000	00000013	addi	x0,x0,0	  x0:0x00000000
       22545000	      2253	80002240	00000013	addi	x0,x0,0	  x0:0x00000000
       22555000	      2254	80002244	a3b791b7	lui	x3,0xa3b79	  x3=0xa3b79000
       22565000	      2255	80002248	01230c63	beq	x6,x18,80002260	  x6:0x00000000 x18:0x00000000
       22575000	      2256	00000000	00000013	addi	x0,x0,0	  x0:0x00000000
       22585000	      2257	8000225c	00000013	addi	x0,x0,0	  x0:0x00000000
       22595000	      2258	80002260	026d4263	blt	x26,x6,80002284	 x26:0x00000001  x6:0x00000000
       22605000	      2259	80002264	00a94e63	blt	x18,x10,80002280	 x18:0x00000000 x10:0x00000001
       22615000	      2260	00000000	00000013	addi	x0,x0,0	  x0:0x00000000
       22625000	      2261	8000227c	00000013	addi	x0,x0,0	  x0:0x00000000
       22635000	      2262	80002280	04576063	bltu	x14,x5,800022c0	 x14:0x00000000  x5:0xffffe000
       22645000	      2263	00000000	00000013	addi	x0,x0,0	  x0:0x00000000
       22655000	      2264	800022bc	00000013	addi	x0,x0,0	  x0:0x00000000
       22665000	      2265	800022c0	40655eb3	sra	x29,x10,x6	 x10:0x00000001  x6:0x00000000 x29=0x00000001
       22675000	      2266	800022c4	013a0463	beq	x20,x19,800022cc	 x20:0x00000000 x19:0xfffffa67
       22685000	      2267	800022c8	7ba12b93	slti	x23,x2,1978	  x2:0x00000000 x23=0x00000001
       22695000	      2268	800022cc	412dd833	sra	x16,x27,x18	 x27:0x80009fc4 x18:0x00000000 x16=0x80009fc4
       22705000	      2269	800022d0	04756063	bltu	x10,x7,80002310	 x10:0x00000001  x7:0xffffffff
       22715000	      2270	00000000	00000013	addi	x0,x0,0	  x0:0x00000000
       22725000	      2271	8000230c	00000013	addi	x0,x0,0	  x0:0x00000000
       22735000	      2272	80002310	400e89b3	sub	x19,x29,x0	 x29:0x00000001  x0:0x00000000 x19=0x00000001
       22745000	      2273	80002314	03e3e063	bltu	x7,x30,80002334	  x7:0xffffffff x30:0x00000000
       22755000	      2274	80002318	017e5213	srli	x4,x28,0x17	 x28:0x00000000  x4=0x00000000
       22765000	      2275	8000231c	012f9213	slli	x4,x31,0x12	 x31:0x00000001  x4=0x00040000
       22775000	      2276	80002320	016e72b3	and	x5,x28,x22	 x28:0x00000000 x22:0x00000000  x5=0x00000000
       22785000	      2277	80002324	0199b9b3	sltu	x19,x19,x25	 x19:0x00000001 x25:0x0000035c x19=0x00000001
       22795000	      2278	80002328	e9f0fc93	andi	x25,x1,-353	  x1:0x231582e2 x25=0x23158282
       22805000	      2279	8000232c	00000013	addi	x0,x0,0	  x0:0x00000000
       22815000	      2280	80002330	0f4a3093	sltiu	x1,x20,244	 x20:0x00000000  x1=0x00000001
       22825000	      2281	80002334	004326b3	slt	x13,x6,x4	  x6:0x00000000  x4:0x00040000 x13=0x00000001
       22835000	      2282	80002338	018cd8b3	srl	x17,x25,x24	 x25:0x23158282 x24:0x00000000 x17=0x23158282
       22845000	      2283	8000233c	df612313	slti	x6,x2,-522	  x2:0x00000000  x6=0x00000000
       22855000	      2284	80002340	05239063	bne	x7,x18,80002380	  x7:0xffffffff x18:0x00000000
       22865000	      2285	00000000	00000013	addi	x0,x0,0	  x0:0x00000000
       22875000	      2286	8000237c	00000013	addi	x0,x0,0	  x0:0x00000000
       22885000	      2287	80002380	adf44493	xori	x9,x8,-1313	  x8:0x35d693df  x9=0xca296900
       22895000	      2288	80002384	d124d817	auipc	x16,0xd124d	 x16=0x5124f380
       22905000	      2289	80002388	00f0c033	xor	x0,x1,x15	  x1:0x00000001 x15:0xfffffa66
       22915000	      2290	8000238c	0221c063	blt	x3,x2,800023ac	  x3:0xa3b79000  x2:0x00000000
       22925000	      2291	00000000	00000013	addi	x0,x0,0	  x0:0x00000000
       22935000	      2292	800023a8	00000013	addi	x0,x0,0	  x0:0x00000000
       22945000	      2293	800023ac	0033fa33	and	x20,x7,x3	  x7:0xffffffff  x3:0xa3b79000 x20=0xa3b79000
       22955000	      2294	800023b0	00b7b8b3	sltu	x17,x15,x11	 x15:0xfffffa66 x11:0xfffff670 x17=0x00000000
       22965000	      2295	800023b4	00000013	addi	x0,x0,0	  x0:0x00000000
       22975000	      2296	800023b8	0472a993	slti	x19,x5,71	  x5:0x00000000 x19=0x00000001
       22985000	      2297	800023bc	401c5093	srai	x1,x24,0x1	 x24:0x00000000  x1=0x00000000
       22995000	      2298	800023c0	9a3fc493	xori	x9,x31,-1629	 x31:0x00000001  x9=0xfffff9a2
       23005000	      2299	800023c4	9ec07813	andi	x16,x0,-1556	  x0:0x00000000 x16=0x00000000
       23015000	      2300	800023c8	53d56493	ori	x9,x10,1341	 x10:0x00000001  x9=0x0000053d
       23025000	      2301	800023cc	62a78b13	addi	x22,x15,1578	 x15:0xfffffa66 x22=0x00000090
       23035000	      2302	800023d0	0148d233	srl	x4,x17,x20	 x17:0x00000000 x20:0xa3b79000  x4=0x00000000
       23045000	      2303	800023d4	40d20fb3	sub	x31,x4,x13	  x4:0x00000000 x13:0x00000001 x31=0xffffffff
       23055000	      2304	800023d8	8b3a2f93	slti	x31,x20,-1869	 x20:0xa3b79000 x31=0x00000001
       23065000	      2305	800023dc	05f21063	bne	x4,x31,8000241c	  x4:0x00000000 x31:0x00000001
       23075000	      2306	00000000	00000013	addi	x0,x0,0	  x0:0x00000000
       23085000	      2307	80002418	00000013	addi	x0,x0,0	  x0:0x00000000
       23095000	      2308	8000241c	5aadbb93	sltiu	x23,x27,1450	 x27:0x80009fc4 x23=0x00000000
       23105000	      2309	80002420	8de53393	sltiu	x7,x10,-1826	 x10:0x00000001  x7=0x00000001
       23115000	      2310	80002424	00cddfb3	srl	x31,x27,x12	 x27:0x80009fc4 x12:0x00000000 x31=0x80009fc4
       23125000	      2311	80002428	96934713	xori	x14,x6,-1687	  x6:0x00000000 x14=0xfffff969
       23135000	      2312	8000242c	e43bb293	sltiu	x5,x23,-445	 x23:0x00000000  x5=0x00000001
       23145000	      2313	80002430	0113fa33	and	x20,x7,x17	  x7:0x00000001 x17:0x00000000 x20=0x00000000
       23155000	      2314	80002434	e7372b13	slti	x22,x14,-397	 x14:0xfffff969 x22=0x00000001
       23165000	      2315	80002438	0294f063	bgeu	x9,x9,80002458	  x9:0x0000053d  x9:0x0000053d
       23175000	      2316	00000000	00000013	addi	x0,x0,0	  x0:0x00000000
       23185000	      2317	80002454	00000013	addi	x0,x0,0	  x0:0x00000000
       23195000	      2318	80002458	02b86063	bltu	x16,x11,80002478	 x16:0x00000000 x11:0xfffff670
       23205000	      2319	00000000	00000013	addi	x0,x0,0	  x0:0x00000000
       23215000	      2320	80002474	00000013	addi	x0,x0,0	  x0:0x00000000
       23225000	      2321	80002478	01968bb3	add	x23,x13,x25	 x13:0x00000001 x25:0x23158282 x23=0x23158283
       23235000	      2322	8000247c	40c50133	sub	x2,x10,x12	 x10:0x00000001 x12:0x00000000  x2=0x00000001
       23245000	      2323	80002480	01398c63	beq	x19,x19,80002498	 x19:0x00000001 x19:0x00000001
       23255000	      2324	00000000	00000013	addi	x0,x0,0	  x0:0x00000000
       23265000	      2325	80002494	00000013	addi	x0,x0,0	  x0:0x00000000
       23275000	      2326	80002498	00000013	addi	x0,x0,0	  x0:0x00000000
       23285000	      2327	8000249c	01321c93	slli	x25,x4,0x13	  x4:0x00000000 x25=0x00000000
       23295000	      2328	800024a0	b74eb813	sltiu	x16,x29,-1164	 x29:0x00000001 x16=0x00000001
       23305000	      2329	800024a4	ac6af617	auipc	x12,0xac6af	 x12=0x2c6b14a0
       23315000	      2330	800024a8	f8814c93	xori	x25,x2,-120	  x2:0x00000001 x25=0xffffff89
       23325000	      2331	800024ac	00000013	addi	x0,x0,0	  x0:0x00000000
       23335000	      2332	800024b0	004099b3	sll	x19,x1,x4	  x1:0x00000000  x4:0x00000000 x19=0x00000000
       23345000	      2333	800024b4	6170fe93	andi	x29,x1,1559	  x1:0x00000000 x29=0x00000000
       23355000	      2334	800024b8	00ec8833	add	x16,x25,x14	 x25:0xffffff89 x14:0xfffff969 x16=0xfffff8f2
       23365000	      2335	800024bc	ab48e893	ori	x17,x17,-1356	 x17:0x00000000 x17=0xfffffab4
       23375000	      2336	800024c0	05440463	beq	x8,x20,80002508	  x8:0x35d693df x20:0x00000000
       23385000	      2337	800024c4	04481063	bne	x16,x4,80002504	 x16:0xfffff8f2  x4:0x00000000
       23395000	      2338	00000000	00000013	addi	x0,x0,0	  x0:0x00000000
       23405000	      2339	80002500	00000013	addi	x0,x0,0	  x0:0x00000000
       23415000	      2340	80002504	2d7a8393	addi	x7,x21,727	 x21:0x80009f24  x7=0x8000a1fb
       23425000	      2341	80002508	4c60f113	andi	x2,x1,1222	  x1:0x00000000  x2=0x00000000
       23435000	      2342	8000250c	01b11193	slli	x3,x2,0x1b	  x2:0x00000000  x3=0x00000000
       23445000	      2343	80002510	0152f2b3	and	x5,x5,x21	  x5:0x00000001 x21:0x80009f24  x5=0x00000000
       23455000	      2344	80002514	c5182093	slti	x1,x16,-943	 x16:0xfffff8f2  x1=0x00000001
       23465000	      2345	80002518	0034d993	srli	x19,x9,0x3	  x9:0x0000053d x19=0x000000a7
       23475000	      2346	8000251c	5a593093	sltiu	x1,x18,1445	 x18:0x00000000  x1=0x00000001
       23485000	      2347	80002520	01490463	beq	x18,x20,80002528	 x18:0x00000000 x20:0x00000000
       23495000	      2348	00000000	00000013	addi	x0,x0,0	  x0:0x00000000
       23505000	      2349	80002524	00000013	addi	x0,x0,0	  x0:0x00000000
       23515000	      2350	80002528	419e54b3	sra	x9,x28,x25	 x28:0x00000000 x25:0xffffff89  x9=0x00000000
       23525000	      2351	8000252c	00000013	addi	x0,x0,0	  x0:0x00000000
       23535000	      2352	80002530	df44b893	sltiu	x17,x9,-524	  x9:0x00000000 x17=0x00000001
       23545000	      2353	80002534	90b86417	auipc	x8,0x90b86	  x8=0x10b88530
       23555000	      2354	80002538	55480493	addi	x9,x16,1364	 x16:0xfffff8f2  x9=0xfffffe46
       23565000	      2355	8000253c	3a40a913	slti	x18,x1,932	  x1:0x00000001 x18=0x00000001
       23575000	      2356	80002540	05818063	beq	x3,x24,80002580	  x3:0x00000000 x24:0x00000000
       23585000	      2357	00000000	00000013	addi	x0,x0,0	  x0:0x00000000
       23595000	      2358	8000257c	00000013	addi	x0,x0,0	  x0:0x00000000
       23605000	      2359	80002580	41be5bb3	sra	x23,x28,x27	 x28:0x00000000 x27:0x80009fc4 x23=0x00000000
       23615000	      2360	80002584	03ffd663	bge	x31,x31,800025b0	 x31:0x80009fc4 x31:0x80009fc4
       23625000	      2361	00000000	00000013	addi	x0,x0,0	  x0:0x00000000
       23635000	      2362	800025ac	00000013	addi	x0,x0,0	  x0:0x00000000
       23645000	      2363	800025b0	003e40b3	xor	x1,x28,x3	 x28:0x00000000  x3:0x00000000  x1=0x00000000
       23655000	      2364	800025b4	01f2f1b3	and	x3,x5,x31	  x5:0x00000000 x31:0x80009fc4  x3=0x00000000
       23665000	      2365	800025b8	0055f6b3	and	x13,x11,x5	 x11:0xfffff670  x5:0x00000000 x13=0x00000000
       23675000	      2366	800025bc	02819863	bne	x3,x8,800025ec	  x3:0x00000000  x8:0x10b88530
       23685000	      2367	00000000	00000013	addi	x0,x0,0	  x0:0x00000000
       23695000	      2368	800025e8	00000013	addi	x0,x0,0	  x0:0x00000000
       23705000	      2369	800025ec	03607863	bgeu	x0,x22,8000261c	  x0:0x00000000 x22:0x00000001
       23715000	      2370	800025f0	00b40733	add	x14,x8,x11	  x8:0x10b88530 x11:0xfffff670 x14=0x10b87ba0
       23725000	      2371	800025f4	f84ab793	sltiu	x15,x21,-124	 x21:0x80009f24 x15=0x00000001
       23735000	      2372	800025f8	41e5d993	srai	x19,x11,0x1e	 x11:0xfffff670 x19=0xffffffff
       23745000	      2373	800025fc	013ca5b3	slt	x11,x25,x19	 x25:0xffffff89 x19:0xffffffff x11=0x00000001
       23755000	      2374	80002600	00e69cb3	sll	x25,x13,x14	 x13:0x00000000 x14:0x10b87ba0 x25=0x00000000
       23765000	      2375	80002604	01002633	slt	x12,x0,x16	  x0:0x00000000 x16:0xfffff8f2 x12=0x00000000
       23775000	      2376	80002608	010ddb93	srli	x23,x27,0x10	 x27:0x80009fc4 x23=0x00008000
       23785000	      2377	8000260c	01de68b3	or	x17,x28,x29	 x28:0x00000000 x29:0x00000000 x17=0x00000000
       23795000	      2378	80002610	03546263	bltu	x8,x21,80002634	  x8:0x10b88530 x21:0x80009f24
       23805000	      2379	00000000	00000013	addi	x0,x0,0	  x0:0x00000000
       23815000	      2380	80002630	00000013	addi	x0,x0,0	  x0:0x00000000
       23825000	      2381	80002634	01bf2cb3	slt	x25,x30,x27	 x30:0x00000000 x27:0x80009fc4 x25=0x00000000
       23835000	      2382	80002638	017a95b3	sll	x11,x21,x23	 x21:0x80009f24 x23:0x00008000 x11=0x80009f24
       23845000	      2383	8000263c	d72f3037	lui	x0,0xd72f3	
       23855000	      2384	80002640	e19ec313	xori	x6,x29,-487	 x29:0x00000000  x6=0xfffffe19
       23865000	      2385	80002644	002b9393	slli	x7,x23,0x2	 x23:0x00008000  x7=0x00020000
       23875000	      2386	80002648	415d0bb3	sub	x23,x26,x21	 x26:0x00000001 x21:0x80009f24 x23=0x7fff60dd
       23885000	      2387	8000264c	00cc4463	blt	x24,x12,80002654	 x24:0x00000000 x12:0x00000000
       23895000	      2388	80002650	01044263	blt	x8,x16,80002654	  x8:0x10b88530 x16:0xfffff8f2
       23905000	      2389	80002654	5337c893	xori	x17,x15,1331	 x15:0x00000001 x17=0x00000532
       23915000	      2390	80002658	0162ca63	blt	x5,x22,8000266c	  x5:0x00000000 x22:0x00000001
       23925000	      2391	00000000	00000013	addi	x0,x0,0	  x0:0x00000000
       23935000	      2392	80002668	00000013	addi	x0,x0,0	  x0:0x00000000
       23945000	      2393	8000266c	7ec52417	auipc	x8,0x7ec52	  x8=0xfec54668
       23955000	      2394	80002670	4033d4b3	sra	x9,x7,x3	  x7:0x00020000  x3:0x00000000  x9=0x00020000
       23965000	      2395	80002674	406add33	sra	x26,x21,x6	 x21:0x80009f24  x6:0xfffffe19 x26=0xffffffc0
       23975000	      2396	80002678	00000013	addi	x0,x0,0	  x0:0x00000000
       23985000	      2397	8000267c	00b05263	bge	x0,x11,80002680	  x0:0x00000000 x11:0x80009f24
       23995000	      2398	00000000	00000013	addi	x0,x0,0	  x0:0x00000000
       24005000	      2399	8000267c	00000013	addi	x0,x0,0	  x0:0x00000000
       24015000	      2400	80002680	02d08063	beq	x1,x13,800026a0	  x1:0x00000000 x13:0x00000000
       24025000	      2401	00000000	00000013	addi	x0,x0,0	  x0:0x00000000
       24035000	      2402	8000269c	00000013	addi	x0,x0,0	  x0:0x00000000
       24045000	      2403	800026a0	00265e93	srli	x29,x12,0x2	 x12:0x00000000 x29=0x00000000
       24055000	      2404	800026a4	015b75b3	and	x11,x22,x21	 x22:0x00000001 x21:0x80009f24 x11=0x00000000
       24065000	      2405	800026a8	01573733	sltu	x14,x14,x21	 x14:0x10b87ba0 x21:0x80009f24 x14=0x00000001
       24075000	      2406	800026ac	00d711b3	sll	x3,x14,x13	 x14:0x00000001 x13:0x00000000  x3=0x00000001
       24085000	      2407	800026b0	00996b33	or	x22,x18,x9	 x18:0x00000001  x9:0x00020000 x22=0x00020001
       24095000	      2408	800026b4	406d5193	srai	x3,x26,0x6	 x26:0xffffffc0  x3=0xffffffff
       24105000	      2409	800026b8	416bda33	sra	x20,x23,x22	 x23:0x7fff60dd x22:0x00020001 x20=0x3fffb06e
       24115000	      2410	800026bc	00951733	sll	x14,x10,x9	 x10:0x00000001  x9:0x00020000 x14=0x00000001
       24125000	      2411	800026c0	a7fe4613	xori	x12,x28,-1409	 x28:0x00000000 x12=0xfffffa7f
       24135000	      2412	800026c4	41c2dcb3	sra	x25,x5,x28	  x5:0x00000000 x28:0x00000000 x25=0x00000000
       24145000	      2413	800026c8	6e5c5437	lui	x8,0x6e5c5	  x8=0x6e5c5000
       24155000	      2414	800026cc	5d8c8493	addi	x9,x25,1496	 x25:0x00000000  x9=0x000005d8
       24165000	      2415	800026d0	03060863	beq	x12,x16,80002700	 x12:0xfffffa7f x16:0xfffff8f2
       24175000	      2416	800026d4	003d39b3	sltu	x19,x26,x3	 x26:0xffffffc0  x3:0xffffffff x19=0x00000001
       24185000	      2417	800026d8	003fa7b3	slt	x15,x31,x3	 x31:0x80009fc4  x3:0xffffffff x15=0x00000001
       24195000	      2418	800026dc	003a39b3	sltu	x19,x20,x3	 x20:0x3fffb06e  x3:0xffffffff x19=0x00000001
       24205000	      2419	800026e0	01c74cb3	xor	x25,x14,x28	 x14:0x00000001 x28:0x00000000 x25=0x00000001
       24215000	      2420	800026e4	019b5893	srli	x17,x22,0x19	 x22:0x00020001 x17=0x00000000
       24225000	      2421	800026e8	410fd213	srai	x4,x31,0x10	 x31:0x80009fc4  x4=0xffff8000
       24235000	      2422	800026ec	5c9b2713	slti	x14,x22,1481	 x22:0x00020001 x14=0x00000000
       24245000	      2423	800026f0	4024d613	srai	x12,x9,0x2	  x9:0x000005d8 x12=0x00000176
       24255000	      2424	800026f4	00000013	addi	x0,x0,0	  x0:0x00000000
       24265000	      2425	800026f8	0392ca63	blt	x5,x25,8000272c	  x5:0x00000000 x25:0x00000001
       24275000	      2426	00000000	00000013	addi	x0,x0,0	  x0:0x00000000
       24285000	      2427	80002728	00000013	addi	x0,x0,0	  x0:0x00000000
       24295000	      2428	8000272c	013a9333	sll	x6,x21,x19	 x21:0x80009f24 x19:0x00000001  x6=0x00013e48
       24305000	      2429	80002730	41158833	sub	x16,x11,x17	 x11:0x00000000 x17:0x00000000 x16=0x00000000
       24315000	      2430	80002734	7ba4cb93	xori	x23,x9,1978	  x9:0x000005d8 x23=0x00000262
       24325000	      2431	80002738	033b6663	bltu	x22,x19,80002764	 x22:0x00020001 x19:0x00000001
       24335000	      2432	8000273c	010578b3	and	x17,x10,x16	 x10:0x00000001 x16:0x00000000 x17=0x00000000
       24345000	      2433	80002740	00000013	addi	x0,x0,0	  x0:0x00000000
       24355000	      2434	80002744	011968b3	or	x17,x18,x17	 x18:0x00000001 x17:0x00000000 x17=0x00000001
       24365000	      2435	80002748	01e8d913	srli	x18,x17,0x1e	 x17:0x00000001 x18=0x00000000
       24375000	      2436	8000274c	7ad52193	slti	x3,x10,1965	 x10:0x00000001  x3=0x00000001
       24385000	      2437	80002750	059d7063	bgeu	x26,x25,80002790	 x26:0xffffffc0 x25:0x00000001
       24395000	      2438	00000000	00000013	addi	x0,x0,0	  x0:0x00000000
       24405000	      2439	8000278c	00000013	addi	x0,x0,0	  x0:0x00000000
       24415000	      2440	80002790	0a24f663	bgeu	x9,x2,8000283c	  x9:0x000005d8  x2:0x00000000
       24425000	      2441	00000000	00000013	addi	x0,x0,0	  x0:0x00000000
       24435000	      2442	80002838	00000013	addi	x0,x0,0	  x0:0x00000000
       24445000	      2443	8000283c	00ca0463	beq	x20,x12,80002844	 x20:0x3fffb06e x12:0x00000176
       24455000	      2444	80002840	b08d7d13	andi	x26,x26,-1272	 x26:0xffffffc0 x26=0xfffffb00
       24465000	      2445	80002844	01b0f0b3	and	x1,x1,x27	  x1:0x00000000 x27:0x80009fc4  x1=0x00000000
       24475000	      2446	80002848	02144063	blt	x8,x1,80002868	  x8:0x6e5c5000  x1:0x00000000
       24485000	      2447	8000284c	14d28113	addi	x2,x5,333	  x5:0x00000000  x2=0x0000014d
       24495000	      2448	80002850	043a1063	bne	x20,x3,80002890	 x20:0x3fffb06e  x3:0x00000001
       24505000	      2449	00000000	00000013	addi	x0,x0,0	  x0:0x00000000
       24515000	      2450	8000288c	00000013	addi	x0,x0,0	  x0:0x00000000
       24525000	      2451	80002890	01545fb3	srl	x31,x8,x21	  x8:0x6e5c5000 x21:0x80009f24 x31=0x06e5c500
       24535000	      2452	80002894	fadb4813	xori	x16,x22,-83	 x22:0x00020001 x16=0xfffdffac
       24545000	      2453	80002898	00cded33	or	x26,x27,x12	 x27:0x80009fc4 x12:0x00000176 x26=0x80009ff6
       24555000	      2454	8000289c	15717e97	auipc	x29,0x15717	 x29=0x95719898
       24565000	      2455	800028a0	404f0533	sub	x10,x30,x4	 x30:0x00000000  x4:0xffff8000 x10=0x00008000
       24575000	      2456	800028a4	00e0ce33	xor	x28,x1,x14	  x1:0x00000000 x14:0x00000000 x28=0x00000000
       24585000	      2457	800028a8	d56c6093	ori	x1,x24,-682	 x24:0x00000000  x1=0xfffffd56
       24595000	      2458	800028ac	0059d463	bge	x19,x5,800028b4	 x19:0x00000001  x5:0x00000000
       24605000	      2459	00000000	00000013	addi	x0,x0,0	  x0:0x00000000
       24615000	      2460	800028b0	00000013	addi	x0,x0,0	  x0:0x00000000
       24625000	      2461	800028b4	02f77663	bgeu	x14,x15,800028e0	 x14:0x00000000 x15:0x00000001
       24635000	      2462	800028b8	65994d13	xori	x26,x18,1625	 x18:0x00000000 x26=0x00000659
       24645000	      2463	800028bc	009355b3	srl	x11,x6,x9	  x6:0x00013e48  x9:0x000005d8 x11=0x00000000
       24655000	      2464	800028c0	de814b13	xori	x22,x2,-536	  x2:0x0000014d x22=0xfffffca5
       24665000	      2465	800028c4	0191d863	bge	x3,x25,800028d4	  x3:0x00000001 x25:0x00000001
       24675000	      2466	00000000	00000013	addi	x0,x0,0	  x0:0x00000000
       24685000	      2467	800028d0	00000013	addi	x0,x0,0	  x0:0x00000000
       24695000	      2468	800028d4	2cd94113	xori	x2,x18,717	 x18:0x00000000  x2=0x000002cd
       24705000	      2469	800028d8	05ce0263	beq	x28,x28,8000291c	 x28:0x00000000 x28:0x00000000
       24715000	      2470	00000000	00000013	addi	x0,x0,0	  x0:0x00000000
       24725000	      2471	80002918	00000013	addi	x0,x0,0	  x0:0x00000000
       24735000	      2472	8000291c	01ed7e63	bgeu	x26,x30,80002938	 x26:0x00000659 x30:0x00000000
       24745000	      2473	00000000	00000013	addi	x0,x0,0	  x0:0x00000000
       24755000	      2474	80002934	00000013	addi	x0,x0,0	  x0:0x00000000
       24765000	      2475	80002938	00f9e863	bltu	x19,x15,80002948	 x19:0x00000001 x15:0x00000001
       24775000	      2476	8000293c	6c9b8f93	addi	x31,x23,1737	 x23:0x00000262 x31=0x0000092b
       24785000	      2477	80002940	1d0c4b93	xori	x23,x24,464	 x24:0x00000000 x23=0x000001d0
       24795000	      2478	80002944	b5f4a813	slti	x16,x9,-1185	  x9:0x000005d8 x16=0x00000000
       24805000	      2479	80002948	00000013	addi	x0,x0,0	  x0:0x00000000
       24815000	      2480	8000294c	01150a63	beq	x10,x17,80002960	 x10:0x00008000 x17:0x00000001
       24825000	      2481	80002950	0f0b6c93	ori	x25,x22,240	 x22:0xfffffca5 x25=0xfffffcf5
       24835000	      2482	80002954	0e7e0793	addi	x15,x28,231	 x28:0x00000000 x15=0x000000e7
       24845000	      2483	80002958	41a2d313	srai	x6,x5,0x1a	  x5:0x00000000  x6=0x00000000
       24855000	      2484	8000295c	40365013	srai	x0,x12,0x3	 x12:0x00000176
       24865000	      2485	80002960	035a4063	blt	x20,x21,80002980	 x20:0x3fffb06e x21:0x80009f24
       24875000	      2486	80002964	47cc2e93	slti	x29,x24,1148	 x24:0x00000000 x29=0x00000001
       24885000	      2487	80002968	04e29063	bne	x5,x14,800029a8	  x5:0x00000000 x14:0x00000000
       24895000	      2488	8000296c	004b5993	srli	x19,x22,0x4	 x22:0xfffffca5 x19=0x0fffffca
       24905000	      2489	80002970	41cdd893	srai	x17,x27,0x1c	 x27:0x80009fc4 x17=0xfffffff8
       24915000	      2490	80002974	a6136393	ori	x7,x6,-1439	  x6:0x00000000  x7=0xfffffa61
       24925000	      2491	80002978	00a25c13	srli	x24,x4,0xa	  x4:0xffff8000 x24=0x003fffe0
       24935000	      2492	8000297c	04b8d463	bge	x17,x11,800029c4	 x17:0xfffffff8 x11:0x00000000
       24945000	      2493	80002980	00225b93	srli	x23,x4,0x2	  x4:0xffff8000 x23=0x3fffe000
       24955000	      2494	80002984	00120933	add	x18,x4,x1	  x4:0xffff8000  x1:0xfffffd56 x18=0xffff7d56
       24965000	      2495	80002988	40a9d613	srai	x12,x19,0xa	 x19:0x0fffffca x12=0x0003ffff
       24975000	      2496	8000298c	01b65713	srli	x14,x12,0x1b	 x12:0x0003ffff x14=0x00000000
       24985000	      2497	80002990	03446863	bltu	x8,x20,800029c0	  x8:0x6e5c5000 x20:0x3fffb06e
       24995000	      2498	80002994	00433eb3	sltu	x29,x6,x4	  x6:0x00000000  x4:0xffff8000 x29=0x00000001
       25005000	      2499	80002998	01b31133	sll	x2,x6,x27	  x6:0x00000000 x27:0x80009fc4  x2=0x00000000
       25015000	      2500	8000299c	76913c93	sltiu	x25,x2,1897	  x2:0x00000000 x25=0x00000001
       25025000	      2501	800029a0	00e3eb33	or	x22,x7,x14	  x7:0xfffffa61 x14:0x00000000 x22=0xfffffa61
       25035000	      2502	800029a4	01f2c933	xor	x18,x5,x31	  x5:0x00000000 x31:0x0000092b x18=0x0000092b
       25045000	      2503	800029a8	01d2fc33	and	x24,x5,x29	  x5:0x00000000 x29:0x00000001 x24=0x00000000
       25055000	      2504	800029ac	01bd8c33	add	x24,x27,x27	 x27:0x80009fc4 x27:0x80009fc4 x24=0x00013f88
       25065000	      2505	800029b0	01f37c63	bgeu	x6,x31,800029c8	  x6:0x00000000 x31:0x0000092b
       25075000	      2506	800029b4	00ea09b3	add	x19,x20,x14	 x20:0x3fffb06e x14:0x00000000 x19=0x3fffb06e
       25085000	      2507	800029b8	02578063	beq	x15,x5,800029d8	 x15:0x000000e7  x5:0x00000000
       25095000	      2508	800029bc	4b4ce9b7	lui	x19,0x4b4ce	 x19=0x4b4ce000
       25105000	      2509	800029c0	e5976993	ori	x19,x14,-423	 x14:0x00000000 x19=0xfffffe59
       25115000	      2510	800029c4	73c38893	addi	x17,x7,1852	  x7:0xfffffa61 x17=0x0000019d
       25125000	      2511	800029c8	0297dc63	bge	x15,x9,80002a00	 x15:0x000000e7  x9:0x000005d8
       25135000	      2512	800029cc	40950e33	sub	x28,x10,x9	 x10:0x00008000  x9:0x000005d8 x28=0x00007a28
       25145000	      2513	800029d0	00000013	addi	x0,x0,0	  x0:0x00000000
       25155000	      2514	800029d4	80c92093	slti	x1,x18,-2036	 x18:0x0000092b  x1=0x00000000
       25165000	      2515	800029d8	40cdd713	srai	x14,x27,0xc	 x27:0x80009fc4 x14=0xfff80009
       25175000	      2516	800029dc	69d23f93	sltiu	x31,x4,1693	  x4:0xffff8000 x31=0x00000000
       25185000	      2517	800029e0	01cc1413	slli	x8,x24,0x1c	 x24:0x00013f88  x8=0x80000000
       25195000	      2518	800029e4	04125863	bge	x4,x1,80002a34	  x4:0xffff8000  x1:0x00000000
       25205000	      2519	800029e8	40d6d7b3	sra	x15,x13,x13	 x13:0x00000000 x13:0x00000000 x15=0x00000000
       25215000	      2520	800029ec	01cd1193	slli	x3,x26,0x1c	 x26:0x00000659  x3=0x90000000
       25225000	      2521	800029f0	01cc2833	slt	x16,x24,x28	 x24:0x00013f88 x28:0x00007a28 x16=0x00000000
       25235000	      2522	800029f4	008b9eb3	sll	x29,x23,x8	 x23:0x3fffe000  x8:0x80000000 x29=0x3fffe000
       25245000	      2523	800029f8	007ad813	srli	x16,x21,0x7	 x21:0x80009f24 x16=0x0100013e
       25255000	      2524	800029fc	d68d3a17	auipc	x20,0xd68d3	 x20=0x568d59f8
       25265000	      2525	80002a00	008f9d33	sll	x26,x31,x8	 x31:0x00000000  x8:0x80000000 x26=0x00000000
       25275000	      2526	80002a04	017dec33	or	x24,x27,x23	 x27:0x80009fc4 x23:0x3fffe000 x24=0xbfffffc4
       25285000	      2527	80002a08	c0bc2c13	slti	x24,x24,-1013	 x24:0xbfffffc4 x24=0x00000001
       25295000	      2528	80002a0c	007b21b3	slt	x3,x22,x7	 x22:0xfffffa61  x7:0xfffffa61  x3=0x00000000
       25305000	      2529	80002a10	00ade733	or	x14,x27,x10	 x27:0x80009fc4 x10:0x00008000 x14=0x80009fc4
       25315000	      2530	80002a14	00b50233	add	x4,x10,x11	 x10:0x00008000 x11:0x00000000  x4=0x00008000
       25325000	      2531	80002a18	00966263	bltu	x12,x9,80002a1c	 x12:0x0003ffff  x9:0x000005d8
       25335000	      2532	80002a1c	01132233	slt	x4,x6,x17	  x6:0x00000000 x17:0x0000019d  x4=0x00000001
       25345000	      2533	80002a20	00000013	addi	x0,x0,0	  x0:0x00000000
       25355000	      2534	80002a24	25a23a13	sltiu	x20,x4,602	  x4:0x00000001 x20=0x00000001
       25365000	      2535	80002a28	633dab93	slti	x23,x27,1587	 x27:0x80009fc4 x23=0x00000001
       25375000	      2536	80002a2c	5f2e6993	ori	x19,x28,1522	 x28:0x00007a28 x19=0x00007ffa
       25385000	      2537	80002a30	01971cb3	sll	x25,x14,x25	 x14:0x80009fc4 x25:0x00000001 x25=0x00013f88
       25395000	      2538	80002a34	00c939b3	sltu	x19,x18,x12	 x18:0x0000092b x12:0x0003ffff x19=0x00000001
       25405000	      2539	80002a38	00b94eb3	xor	x29,x18,x11	 x18:0x0000092b x11:0x00000000 x29=0x0000092b
       25415000	      2540	80002a3c	032b9063	bne	x23,x18,80002a5c	 x23:0x00000001 x18:0x0000092b
       25425000	      2541	00000000	00000013	addi	x0,x0,0	  x0:0x00000000
       25435000	      2542	80002a58	00000013	addi	x0,x0,0	  x0:0x00000000
       25445000	      2543	80002a5c	7f54ec13	ori	x24,x9,2037	  x9:0x000005d8 x24=0x000007fd
       25455000	      2544	80002a60	16454113	xori	x2,x10,356	 x10:0x00008000  x2=0x00008164
       25465000	      2545	80002a64	03d95263	bge	x18,x29,80002a88	 x18:0x0000092b x29:0x0000092b
       25475000	      2546	00000000	00000013	addi	x0,x0,0	  x0:0x00000000
       25485000	      2547	80002a84	00000013	addi	x0,x0,0	  x0:0x00000000
       25495000	      2548	80002a88	e34eea37	lui	x20,0xe34ee	 x20=0xe34ee000
       25505000	      2549	80002a8c	090f6697	auipc	x13,0x90f6	 x13=0x890f8a88
       25515000	      2550	80002a90	5ef5d037	lui	x0,0x5ef5d	
       25525000	      2551	80002a94	00000013	addi	x0,x0,0	  x0:0x00000000
       25535000	      2552	80002a98	40ded533	sra	x10,x29,x13	 x29:0x0000092b x13:0x890f8a88 x10=0x00000009
       25545000	      2553	80002a9c	004e3533	sltu	x10,x28,x4	 x28:0x00007a28  x4:0x00000001 x10=0x00000000
       25555000	      2554	80002aa0	001c6463	bltu	x24,x1,80002aa8	 x24:0x000007fd  x1:0x00000000
       25565000	      2555	80002aa4	d8f01097	auipc	x1,0xd8f01	  x1=0x58f03aa0
       25575000	      2556	80002aa8	00000013	addi	x0,x0,0	  x0:0x00000000
       25585000	      2557	80002aac	02f2c663	blt	x5,x15,80002ad8	  x5:0x00000000 x15:0x00000000
       25595000	      2558	80002ab0	41405013	srai	x0,x0,0x14	  x0:0x00000000
       25605000	      2559	80002ab4	04146063	bltu	x8,x1,80002af4	  x8:0x80000000  x1:0x58f03aa0
       25615000	      2560	80002ab8	7629e193	ori	x3,x19,1890	 x19:0x00000001  x3=0x00000763
       25625000	      2561	80002abc	416e0eb3	sub	x29,x28,x22	 x28:0x00007a28 x22:0xfffffa61 x29=0x00007fc7
       25635000	      2562	80002ac0	41898533	sub	x10,x19,x24	 x19:0x00000001 x24:0x000007fd x10=0xfffff804
       25645000	      2563	80002ac4	888ca713	slti	x14,x25,-1912	 x25:0x00013f88 x14=0x00000000
       25655000	      2564	80002ac8	018a8463	beq	x21,x24,80002ad0	 x21:0x80009f24 x24:0x000007fd
       25665000	      2565	80002acc	fba7f497	auipc	x9,0xfba7f	  x9=0x7ba81ac8
       25675000	      2566	80002ad0	35c8c617	auipc	x12,0x35c8c	 x12=0xb5c8eacc
       25685000	      2567	80002ad4	01081e63	bne	x16,x16,80002af0	 x16:0x0100013e x16:0x0100013e
       25695000	      2568	80002ad8	5af09e97	auipc	x29,0x5af09	 x29=0xdaf0bad4
       25705000	      2569	80002adc	01331033	sll	x0,x6,x19	  x6:0x00000000 x19:0x00000001
       25715000	      2570	80002ae0	0089f733	and	x14,x19,x8	 x19:0x00000001  x8:0x80000000 x14=0x00000000
       25725000	      2571	80002ae4	003fdbb3	srl	x23,x31,x3	 x31:0x00000000  x3:0x00000763 x23=0x00000000
       25735000	      2572	80002ae8	01130a33	add	x20,x6,x17	  x6:0x00000000 x17:0x0000019d x20=0x0000019d
       25745000	      2573	80002aec	41745033	sra	x0,x8,x23	  x8:0x80000000 x23:0x00000000
       25755000	      2574	80002af0	0104f1b3	and	x3,x9,x16	  x9:0x7ba81ac8 x16:0x0100013e  x3=0x01000008
       25765000	      2575	80002af4	82eba537	lui	x10,0x82eba	 x10=0x82eba000
       25775000	      2576	80002af8	411e8233	sub	x4,x29,x17	 x29:0xdaf0bad4 x17:0x0000019d  x4=0xdaf0b937
       25785000	      2577	80002afc	00326233	or	x4,x4,x3	  x4:0xdaf0b937  x3:0x01000008  x4=0xdbf0b93f
       25795000	      2578	80002b00	0114e233	or	x4,x9,x17	  x9:0x7ba81ac8 x17:0x0000019d  x4=0x7ba81bdd
       25805000	      2579	80002b04	00d9c7b3	xor	x15,x19,x13	 x19:0x00000001 x13:0x890f8a88 x15=0x890f8a89
       25815000	      2580	80002b08	014fbcb3	sltu	x25,x31,x20	 x31:0x00000000 x20:0x0000019d x25=0x00000001
       25825000	      2581	80002b0c	6758c813	xori	x16,x17,1653	 x17:0x0000019d x16=0x000007e8
       25835000	      2582	80002b10	6556e713	ori	x14,x13,1621	 x13:0x890f8a88 x14=0x890f8edd
       25845000	      2583	80002b14	8a9bb613	sltiu	x12,x23,-1879	 x23:0x00000000 x12=0x00000001
       25855000	      2584	80002b18	5471cc13	xori	x24,x3,1351	  x3:0x01000008 x24=0x0100054f
       25865000	      2585	80002b1c	b898c637	lui	x12,0xb898c	 x12=0xb898c000
       25875000	      2586	80002b20	08880863	beq	x16,x8,80002bb0	 x16:0x000007e8  x8:0x80000000
       25885000	      2587	80002b24	02c00b6f	jal	x22,80002b24	 x22=0x80002b24
       25895000	      2588	00000000	00000013	addi	x0,x0,0	  x0:0x00000000
       25905000	      2589	80002b4c	00000013	addi	x0,x0,0	  x0:0x00000000
       25915000	      2590	80002b50	018000ef	jal	x1,80002b50	  x1=0x80002b50
       25925000	      2591	00000000	00000013	addi	x0,x0,0	  x0:0x00000000
       25935000	      2592	80002b64	00000013	addi	x0,x0,0	  x0:0x00000000
       25945000	      2593	80002b68	ffdff0ef	jal	x1,80002b68	  x1=0x80002b68
       25955000	      2594	00000000	00000013	addi	x0,x0,0	  x0:0x00000000
       25965000	      2595	80002b60	00000013	addi	x0,x0,0	  x0:0x00000000
       25975000	      2596	80002b64	fd5ff0ef	jal	x1,80002b64	  x1=0x80002b64
       25985000	      2597	00000000	00000013	addi	x0,x0,0	  x0:0x00000000
       25995000	      2598	80002b34	00000013	addi	x0,x0,0	  x0:0x00000000
       26005000	      2599	80002b38	034000ef	jal	x1,80002b38	  x1=0x80002b38
       26015000	      2600	00000000	00000013	addi	x0,x0,0	  x0:0x00000000
       26025000	      2601	80002b68	00000013	addi	x0,x0,0	  x0:0x00000000
       26035000	      2602	80002b6c	fc9ff2ef	jal	x5,80002b6c	  x5=0x80002b6c
       26045000	      2603	00000000	00000013	addi	x0,x0,0	  x0:0x00000000
       26055000	      2604	80002b30	00000013	addi	x0,x0,0	  x0:0x00000000
       26065000	      2605	80002b34	018000ef	jal	x1,80002b34	  x1=0x80002b34
       26075000	      2606	00000000	00000013	addi	x0,x0,0	  x0:0x00000000
       26085000	      2607	80002b48	00000013	addi	x0,x0,0	  x0:0x00000000
       26095000	      2608	80002b4c	fddff0ef	jal	x1,80002b4c	  x1=0x80002b4c
       26105000	      2609	00000000	00000013	addi	x0,x0,0	  x0:0x00000000
       26115000	      2610	80002b24	00000013	addi	x0,x0,0	  x0:0x00000000
       26125000	      2611	80002b28	0040036f	jal	x6,80002b28	  x6=0x80002b28
       26135000	      2612	00000000	00000013	addi	x0,x0,0	  x0:0x00000000
       26145000	      2613	80002b28	00000013	addi	x0,x0,0	  x0:0x00000000
       26155000	      2614	80002b2c	01c000ef	jal	x1,80002b2c	  x1=0x80002b2c
       26165000	      2615	00000000	00000013	addi	x0,x0,0	  x0:0x00000000
       26175000	      2616	80002b44	00000013	addi	x0,x0,0	  x0:0x00000000
       26185000	      2617	80002b48	ffdff0ef	jal	x1,80002b48	  x1=0x80002b48
       26195000	      2618	00000000	00000013	addi	x0,x0,0	  x0:0x00000000
       26205000	      2619	80002b40	00000013	addi	x0,x0,0	  x0:0x00000000
       26215000	      2620	80002b44	ff9ff36f	jal	x6,80002b44	  x6=0x80002b44
       26225000	      2621	00000000	00000013	addi	x0,x0,0	  x0:0x00000000
       26235000	      2622	80002b38	00000013	addi	x0,x0,0	  x0:0x00000000
       26245000	      2623	80002b3c	020000ef	jal	x1,80002b3c	  x1=0x80002b3c
       26255000	      2624	00000000	00000013	addi	x0,x0,0	  x0:0x00000000
       26265000	      2625	80002b58	00000013	addi	x0,x0,0	  x0:0x00000000
       26275000	      2626	80002b5c	fd5ff0ef	jal	x1,80002b5c	  x1=0x80002b5c
       26285000	      2627	00000000	00000013	addi	x0,x0,0	  x0:0x00000000
       26295000	      2628	80002b2c	00000013	addi	x0,x0,0	  x0:0x00000000
       26305000	      2629	80002b30	028000ef	jal	x1,80002b30	  x1=0x80002b30
       26315000	      2630	00000000	00000013	addi	x0,x0,0	  x0:0x00000000
       26325000	      2631	80002b54	00000013	addi	x0,x0,0	  x0:0x00000000
       26335000	      2632	80002b58	0080036f	jal	x6,80002b58	  x6=0x80002b58
       26345000	      2633	00000000	00000013	addi	x0,x0,0	  x0:0x00000000
       26355000	      2634	80002b5c	00000013	addi	x0,x0,0	  x0:0x00000000
       26365000	      2635	80002b60	ff5ff0ef	jal	x1,80002b60	  x1=0x80002b60
       26375000	      2636	00000000	00000013	addi	x0,x0,0	  x0:0x00000000
       26385000	      2637	80002b50	00000013	addi	x0,x0,0	  x0:0x00000000
       26395000	      2638	80002b54	fedff36f	jal	x6,80002b54	  x6=0x80002b54
       26405000	      2639	00000000	00000013	addi	x0,x0,0	  x0:0x00000000
       26415000	      2640	80002b3c	00000013	addi	x0,x0,0	  x0:0x00000000
       26425000	      2641	80002b40	0300096f	jal	x18,80002b40	 x18=0x80002b40
       26435000	      2642	00000000	00000013	addi	x0,x0,0	  x0:0x00000000
       26445000	      2643	80002b6c	00000013	addi	x0,x0,0	  x0:0x00000000
       26455000	      2644	80002b70	01f2d1b3	srl	x3,x5,x31	  x5:0x80002b6c x31:0x00000000  x3=0x80002b6c
       26465000	      2645	80002b74	00bdd193	srli	x3,x27,0xb	 x27:0x80009fc4  x3=0x00100013
       26475000	      2646	80002b78	011509b3	add	x19,x10,x17	 x10:0x82eba000 x17:0x0000019d x19=0x82eba19d
       26485000	      2647	80002b7c	d304fe93	andi	x29,x9,-720	  x9:0x7ba81ac8 x29=0x7ba81800
       26495000	      2648	80002b80	02d68a63	beq	x13,x13,80002bb4	 x13:0x890f8a88 x13:0x890f8a88
       26505000	      2649	00000000	00000013	addi	x0,x0,0	  x0:0x00000000
       26515000	      2650	80002bb0	00000013	addi	x0,x0,0	  x0:0x00000000
       26525000	      2651	80002bb4	00bb2533	slt	x10,x22,x11	 x22:0x80002b24 x11:0x00000000 x10=0x00000001
       26535000	      2652	80002bb8	038d5863	bge	x26,x24,80002be8	 x26:0x00000000 x24:0x0100054f
       26545000	      2653	80002bbc	04338263	beq	x7,x3,80002c00	  x7:0xfffffa61  x3:0x00100013
       26555000	      2654	80002bc0	000fd513	srli	x10,x31,0x0	 x31:0x00000000 x10=0x00000000
       26565000	      2655	80002bc4	41b00233	sub	x4,x0,x27	  x0:0x00000000 x27:0x80009fc4  x4=0x7fff603c
       26575000	      2656	80002bc8	04d39063	bne	x7,x13,80002c08	  x7:0xfffffa61 x13:0x890f8a88
       26585000	      2657	00000000	00000013	addi	x0,x0,0	  x0:0x00000000
       26595000	      2658	80002c04	00000013	addi	x0,x0,0	  x0:0x00000000
       26605000	      2659	80002c08	fa3fb513	sltiu	x10,x31,-93	 x31:0x00000000 x10=0x00000001
       26615000	      2660	80002c0c	222b84b7	lui	x9,0x222b8	  x9=0x222b8000
       26625000	      2661	80002c10	004f28b3	slt	x17,x30,x4	 x30:0x00000000  x4:0x7fff603c x17=0x00000001
       26635000	      2662	80002c14	01751933	sll	x18,x10,x23	 x10:0x00000001 x23:0x00000000 x18=0x00000001
       26645000	      2663	80002c18	cb9981b7	lui	x3,0xcb998	  x3=0xcb998000
       26655000	      2664	80002c1c	01c0e263	bltu	x1,x28,80002c20	  x1:0x80002b60 x28:0x00007a28
       26665000	      2665	80002c20	a1148313	addi	x6,x9,-1519	  x9:0x222b8000  x6=0x222b7a11
       26675000	      2666	80002c24	0016e5b3	or	x11,x13,x1	 x13:0x890f8a88  x1:0x80002b60 x11=0x890fabe8
       26685000	      2667	80002c28	b7983513	sltiu	x10,x16,-1159	 x16:0x000007e8 x10=0x00000001
       26695000	      2668	80002c2c	0082e633	or	x12,x5,x8	  x5:0x80002b6c  x8:0x80000000 x12=0x80002b6c
       26705000	      2669	80002c30	eaadc593	xori	x11,x27,-342	 x27:0x80009fc4 x11=0x7fff616e
       26715000	      2670	80002c34	00b737b3	sltu	x15,x14,x11	 x14:0x890f8edd x11:0x7fff616e x15=0x00000000
       26725000	      2671	80002c38	605e4e13	xori	x28,x28,1541	 x28:0x00007a28 x28=0x00007c2d
       26735000	      2672	80002c3c	005de863	bltu	x27,x5,80002c4c	 x27:0x80009fc4  x5:0x80002b6c
       26745000	      2673	80002c40	010f0663	beq	x30,x16,80002c4c	 x30:0x00000000 x16:0x000007e8
       26755000	      2674	80002c44	00ca5533	srl	x10,x20,x12	 x20:0x0000019d x12:0x80002b6c x10=0x00000000
       26765000	      2675	80002c48	01cd5393	srli	x7,x26,0x1c	 x26:0x00000000  x7=0x00000000
       26775000	      2676	80002c4c	00cdc3b3	xor	x7,x27,x12	 x27:0x80009fc4 x12:0x80002b6c  x7=0x0000b4a8
       26785000	      2677	80002c50	00000013	addi	x0,x0,0	  x0:0x00000000
       26795000	      2678	80002c54	abf57e13	andi	x28,x10,-1345	 x10:0x00000000 x28=0x00000000
       26805000	      2679	80002c58	004aab03	lw	x22,4(x21)	 x21:0x80009f24 x22=0x80002d94 PA:0x80009f28
       26815000	      2680	80002c5c	b02a8c13	addi	x24,x21,-1278	 x21:0x80009f24 x24=0x80009a26
       26825000	      2681	80002c60	017de5b3	or	x11,x27,x23	 x27:0x80009fc4 x23:0x00000000 x11=0x80009fc4
       26835000	      2682	80002c64	018a8a93	addi	x21,x21,24	 x21:0x80009f24 x21=0x80009f3c
       26845000	      2683	80002c68	01431193	slli	x3,x6,0x14	  x6:0x222b7a11  x3=0xa1100000
       26855000	      2684	80002c6c	005ae033	or	x0,x21,x5	 x21:0x80009f3c  x5:0x80002b6c
       26865000	      2685	80002c70	00c194b3	sll	x9,x3,x12	  x3:0xa1100000 x12:0x80002b6c  x9=0x00000000
       26875000	      2686	80002c74	000b0c13	addi	x24,x22,0	 x22:0x80002d94 x24=0x80002d94
       26885000	      2687	80002c78	000c0c67	jalr	x24,x24,0	 x24:0x80002d94 x24=0x80002c78
       26895000	      2688	00000000	00000013	addi	x0,x0,0	  x0:0x00000000
       26905000	      2689	80002d94	00000013	addi	x0,x0,0	  x0:0x00000000
       26915000	      2690	80002d98	01dc7c63	bgeu	x24,x29,80002db0	 x24:0x80002c78 x29:0x7ba81800
       26925000	      2691	00000000	00000013	addi	x0,x0,0	  x0:0x00000000
       26935000	      2692	80002dac	00000013	addi	x0,x0,0	  x0:0x00000000
       26945000	      2693	80002db0	fc9fdb6f	jal	x22,80002db0	 x22=0x80002db0
       26955000	      2694	00000000	00000013	addi	x0,x0,0	  x0:0x00000000
       26965000	      2695	80000d74	00000013	addi	x0,x0,0	  x0:0x00000000
       26975000	      2696	80000d78	fe8a8a93	addi	x21,x21,-24	 x21:0x80009f3c x21=0x80009f24
       26985000	      2697	80000d7c	016aa223	sw	x22,4(x21)	 x21:0x80009f24 x22:0x80002db0 PA:0x80009f28
       26995000	      2698	80000d80	41168c33	sub	x24,x13,x17	 x13:0x890f8a88 x17:0x00000001 x24=0x890f8a87
       27005000	      2699	80000d84	c13fb393	sltiu	x7,x31,-1005	 x31:0x00000000  x7=0x00000001
       27015000	      2700	80000d88	40908cb3	sub	x25,x1,x9	  x1:0x80002b60  x9:0x00000000 x25=0x80002b60
       27025000	      2701	80000d8c	74e016b7	lui	x13,0x74e01	 x13=0x74e01000
       27035000	      2702	80000d90	e7604797	auipc	x15,0xe7604	 x15=0x67604d8c
       27045000	      2703	80000d94	01dc2bb3	slt	x23,x24,x29	 x24:0x890f8a87 x29:0x7ba81800 x23=0x00000001
       27055000	      2704	80000d98	cd0b6693	ori	x13,x22,-816	 x22:0x80002db0 x13=0xfffffdf0
       27065000	      2705	80000d9c	03000b6f	jal	x22,80000d9c	 x22=0x80000d9c
       27075000	      2706	00000000	00000013	addi	x0,x0,0	  x0:0x00000000
       27085000	      2707	80000dc8	00000013	addi	x0,x0,0	  x0:0x00000000
       27095000	      2708	80000dcc	ffdff0ef	jal	x1,80000dcc	  x1=0x80000dcc
       27105000	      2709	00000000	00000013	addi	x0,x0,0	  x0:0x00000000
       27115000	      2710	80000dc4	00000013	addi	x0,x0,0	  x0:0x00000000
       27125000	      2711	80000dc8	ff5ff0ef	jal	x1,80000dc8	  x1=0x80000dc8
       27135000	      2712	00000000	00000013	addi	x0,x0,0	  x0:0x00000000
       27145000	      2713	80000db8	00000013	addi	x0,x0,0	  x0:0x00000000
       27155000	      2714	80000dbc	ff5ff46f	jal	x8,80000dbc	  x8=0x80000dbc
       27165000	      2715	00000000	00000013	addi	x0,x0,0	  x0:0x00000000
       27175000	      2716	80000dac	00000013	addi	x0,x0,0	  x0:0x00000000
       27185000	      2717	80000db0	050000ef	jal	x1,80000db0	  x1=0x80000db0
       27195000	      2718	00000000	00000013	addi	x0,x0,0	  x0:0x00000000
       27205000	      2719	80000dfc	00000013	addi	x0,x0,0	  x0:0x00000000
       27215000	      2720	80000e00	ff1ff36f	jal	x6,80000e00	  x6=0x80000e00
       27225000	      2721	00000000	00000013	addi	x0,x0,0	  x0:0x00000000
       27235000	      2722	80000dec	00000013	addi	x0,x0,0	  x0:0x00000000
       27245000	      2723	80000df0	fd1ff0ef	jal	x1,80000df0	  x1=0x80000df0
       27255000	      2724	00000000	00000013	addi	x0,x0,0	  x0:0x00000000
       27265000	      2725	80000dbc	00000013	addi	x0,x0,0	  x0:0x00000000
       27275000	      2726	80000dc0	050001ef	jal	x3,80000dc0	  x3=0x80000dc0
       27285000	      2727	00000000	00000013	addi	x0,x0,0	  x0:0x00000000
       27295000	      2728	80000e0c	00000013	addi	x0,x0,0	  x0:0x00000000
       27305000	      2729	80000e10	fd1ffa6f	jal	x20,80000e10	 x20=0x80000e10
       27315000	      2730	00000000	00000013	addi	x0,x0,0	  x0:0x00000000
       27325000	      2731	80000ddc	00000013	addi	x0,x0,0	  x0:0x00000000
       27335000	      2732	80000de0	ff5ff0ef	jal	x1,80000de0	  x1=0x80000de0
       27345000	      2733	00000000	00000013	addi	x0,x0,0	  x0:0x00000000
       27355000	      2734	80000dd0	00000013	addi	x0,x0,0	  x0:0x00000000
       27365000	      2735	80000dd4	008004ef	jal	x9,80000dd4	  x9=0x80000dd4
       27375000	      2736	00000000	00000013	addi	x0,x0,0	  x0:0x00000000
       27385000	      2737	80000dd8	00000013	addi	x0,x0,0	  x0:0x00000000
       27395000	      2738	80000ddc	02c0036f	jal	x6,80000ddc	  x6=0x80000ddc
       27405000	      2739	00000000	00000013	addi	x0,x0,0	  x0:0x00000000
       27415000	      2740	80000e04	00000013	addi	x0,x0,0	  x0:0x00000000
       27425000	      2741	80000e08	ffdff0ef	jal	x1,80000e08	  x1=0x80000e08
       27435000	      2742	00000000	00000013	addi	x0,x0,0	  x0:0x00000000
       27445000	      2743	80000e00	00000013	addi	x0,x0,0	  x0:0x00000000
       27455000	      2744	80000e04	fe1ff0ef	jal	x1,80000e04	  x1=0x80000e04
       27465000	      2745	00000000	00000013	addi	x0,x0,0	  x0:0x00000000
       27475000	      2746	80000de0	00000013	addi	x0,x0,0	  x0:0x00000000
       27485000	      2747	80000de4	fe1ffe6f	jal	x28,80000de4	 x28=0x80000de4
       27495000	      2748	00000000	00000013	addi	x0,x0,0	  x0:0x00000000
       27505000	      2749	80000dc0	00000013	addi	x0,x0,0	  x0:0x00000000
       27515000	      2750	80000dc4	ff5ff0ef	jal	x1,80000dc4	  x1=0x80000dc4
       27525000	      2751	00000000	00000013	addi	x0,x0,0	  x0:0x00000000
       27535000	      2752	80000db4	00000013	addi	x0,x0,0	  x0:0x00000000
       27545000	      2753	80000db8	03c000ef	jal	x1,80000db8	  x1=0x80000db8
       27555000	      2754	00000000	00000013	addi	x0,x0,0	  x0:0x00000000
       27565000	      2755	80000df0	00000013	addi	x0,x0,0	  x0:0x00000000
       27575000	      2756	80000df4	fadff36f	jal	x6,80000df4	  x6=0x80000df4
       27585000	      2757	00000000	00000013	addi	x0,x0,0	  x0:0x00000000
       27595000	      2758	80000d9c	00000013	addi	x0,x0,0	  x0:0x00000000
       27605000	      2759	80000da0	06c000ef	jal	x1,80000da0	  x1=0x80000da0
       27615000	      2760	00000000	00000013	addi	x0,x0,0	  x0:0x00000000
       27625000	      2761	80000e08	00000013	addi	x0,x0,0	  x0:0x00000000
       27635000	      2762	80000e0c	fcdff36f	jal	x6,80000e0c	  x6=0x80000e0c
       27645000	      2763	00000000	00000013	addi	x0,x0,0	  x0:0x00000000
       27655000	      2764	80000dd4	00000013	addi	x0,x0,0	  x0:0x00000000
       27665000	      2765	80000dd8	fddff36f	jal	x6,80000dd8	  x6=0x80000dd8
       27675000	      2766	00000000	00000013	addi	x0,x0,0	  x0:0x00000000
       27685000	      2767	80000db0	00000013	addi	x0,x0,0	  x0:0x00000000
       27695000	      2768	80000db4	01c0026f	jal	x4,80000db4	  x4=0x80000db4
       27705000	      2769	00000000	00000013	addi	x0,x0,0	  x0:0x00000000
       27715000	      2770	80000dcc	00000013	addi	x0,x0,0	  x0:0x00000000
       27725000	      2771	80000dd0	018000ef	jal	x1,80000dd0	  x1=0x80000dd0
       27735000	      2772	00000000	00000013	addi	x0,x0,0	  x0:0x00000000
       27745000	      2773	80000de4	00000013	addi	x0,x0,0	  x0:0x00000000
       27755000	      2774	80000de8	010004ef	jal	x9,80000de8	  x9=0x80000de8
       27765000	      2775	00000000	00000013	addi	x0,x0,0	  x0:0x00000000
       27775000	      2776	80000df4	00000013	addi	x0,x0,0	  x0:0x00000000
       27785000	      2777	80000df8	fadff2ef	jal	x5,80000df8	  x5=0x80000df8
       27795000	      2778	00000000	00000013	addi	x0,x0,0	  x0:0x00000000
       27805000	      2779	80000da0	00000013	addi	x0,x0,0	  x0:0x00000000
       27815000	      2780	80000da4	07000d6f	jal	x26,80000da4	 x26=0x80000da4
       27825000	      2781	00000000	00000013	addi	x0,x0,0	  x0:0x00000000
       27835000	      2782	80000e10	00000013	addi	x0,x0,0	  x0:0x00000000
       27845000	      2783	80000e14	fe9ff0ef	jal	x1,80000e14	  x1=0x80000e14
       27855000	      2784	00000000	00000013	addi	x0,x0,0	  x0:0x00000000
       27865000	      2785	80000df8	00000013	addi	x0,x0,0	  x0:0x00000000
       27875000	      2786	80000dfc	fb1ff9ef	jal	x19,80000dfc	 x19=0x80000dfc
       27885000	      2787	00000000	00000013	addi	x0,x0,0	  x0:0x00000000
       27895000	      2788	80000da8	00000013	addi	x0,x0,0	  x0:0x00000000
       27905000	      2789	80000dac	ffdff0ef	jal	x1,80000dac	  x1=0x80000dac
       27915000	      2790	00000000	00000013	addi	x0,x0,0	  x0:0x00000000
       27925000	      2791	80000da4	00000013	addi	x0,x0,0	  x0:0x00000000
       27935000	      2792	80000da8	044000ef	jal	x1,80000da8	  x1=0x80000da8
       27945000	      2793	00000000	00000013	addi	x0,x0,0	  x0:0x00000000
       27955000	      2794	80000de8	00000013	addi	x0,x0,0	  x0:0x00000000
       27965000	      2795	80000dec	02c000ef	jal	x1,80000dec	  x1=0x80000dec
       27975000	      2796	00000000	00000013	addi	x0,x0,0	  x0:0x00000000
       27985000	      2797	80000e14	00000013	addi	x0,x0,0	  x0:0x00000000
       27995000	      2798	80000e18	129a3b13	sltiu	x22,x20,297	 x20:0x80000e10 x22=0x00000000
       28005000	      2799	80000e1c	03000b6f	jal	x22,80000e1c	 x22=0x80000e1c
       28015000	      2800	00000000	00000013	addi	x0,x0,0	  x0:0x00000000
       28025000	      2801	80000e48	00000013	addi	x0,x0,0	  x0:0x00000000
       28035000	      2802	80000e4c	ff9ffc6f	jal	x24,80000e4c	 x24=0x80000e4c
       28045000	      2803	00000000	00000013	addi	x0,x0,0	  x0:0x00000000
       28055000	      2804	80000e40	00000013	addi	x0,x0,0	  x0:0x00000000
       28065000	      2805	80000e44	ff5ff26f	jal	x4,80000e44	  x4=0x80000e44
       28075000	      2806	00000000	00000013	addi	x0,x0,0	  x0:0x00000000
       28085000	      2807	80000e34	00000013	addi	x0,x0,0	  x0:0x00000000
       28095000	      2808	80000e38	ff1ff26f	jal	x4,80000e38	  x4=0x80000e38
       28105000	      2809	00000000	00000013	addi	x0,x0,0	  x0:0x00000000
       28115000	      2810	80000e24	00000013	addi	x0,x0,0	  x0:0x00000000
       28125000	      2811	80000e28	0280016f	jal	x2,80000e28	  x2=0x80000e28
       28135000	      2812	00000000	00000013	addi	x0,x0,0	  x0:0x00000000
       28145000	      2813	80000e4c	00000013	addi	x0,x0,0	  x0:0x00000000
       28155000	      2814	80000e50	fe1ff0ef	jal	x1,80000e50	  x1=0x80000e50
       28165000	      2815	00000000	00000013	addi	x0,x0,0	  x0:0x00000000
       28175000	      2816	80000e2c	00000013	addi	x0,x0,0	  x0:0x00000000
       28185000	      2817	80000e30	ffdff0ef	jal	x1,80000e30	  x1=0x80000e30
       28195000	      2818	00000000	00000013	addi	x0,x0,0	  x0:0x00000000
       28205000	      2819	80000e28	00000013	addi	x0,x0,0	  x0:0x00000000
       28215000	      2820	80000e2c	01c000ef	jal	x1,80000e2c	  x1=0x80000e2c
       28225000	      2821	00000000	00000013	addi	x0,x0,0	  x0:0x00000000
       28235000	      2822	80000e44	00000013	addi	x0,x0,0	  x0:0x00000000
       28245000	      2823	80000e48	fd9ff36f	jal	x6,80000e48	  x6=0x80000e48
       28255000	      2824	00000000	00000013	addi	x0,x0,0	  x0:0x00000000
       28265000	      2825	80000e1c	00000013	addi	x0,x0,0	  x0:0x00000000
       28275000	      2826	80000e20	01c000ef	jal	x1,80000e20	  x1=0x80000e20
       28285000	      2827	00000000	00000013	addi	x0,x0,0	  x0:0x00000000
       28295000	      2828	80000e38	00000013	addi	x0,x0,0	  x0:0x00000000
       28305000	      2829	80000e3c	fe9ffa6f	jal	x20,80000e3c	 x20=0x80000e3c
       28315000	      2830	00000000	00000013	addi	x0,x0,0	  x0:0x00000000
       28325000	      2831	80000e20	00000013	addi	x0,x0,0	  x0:0x00000000
       28335000	      2832	80000e24	010000ef	jal	x1,80000e24	  x1=0x80000e24
       28345000	      2833	00000000	00000013	addi	x0,x0,0	  x0:0x00000000
       28355000	      2834	80000e30	00000013	addi	x0,x0,0	  x0:0x00000000
       28365000	      2835	80000e34	00c000ef	jal	x1,80000e34	  x1=0x80000e34
       28375000	      2836	00000000	00000013	addi	x0,x0,0	  x0:0x00000000
       28385000	      2837	80000e3c	00000013	addi	x0,x0,0	  x0:0x00000000
       28395000	      2838	80000e40	0140036f	jal	x6,80000e40	  x6=0x80000e40
       28405000	      2839	00000000	00000013	addi	x0,x0,0	  x0:0x00000000
       28415000	      2840	80000e50	00000013	addi	x0,x0,0	  x0:0x00000000
       28425000	      2841	80000e54	00562433	slt	x8,x12,x5	 x12:0x80002b6c  x5:0x80000df8  x8=0x00000000
       28435000	      2842	80000e58	01800b6f	jal	x22,80000e58	 x22=0x80000e58
       28445000	      2843	00000000	00000013	addi	x0,x0,0	  x0:0x00000000
       28455000	      2844	80000e6c	00000013	addi	x0,x0,0	  x0:0x00000000
       28465000	      2845	80000e70	00c000ef	jal	x1,80000e70	  x1=0x80000e70
       28475000	      2846	00000000	00000013	addi	x0,x0,0	  x0:0x00000000
       28485000	      2847	80000e78	00000013	addi	x0,x0,0	  x0:0x00000000
       28495000	      2848	80000e7c	00c000ef	jal	x1,80000e7c	  x1=0x80000e7c
       28505000	      2849	00000000	00000013	addi	x0,x0,0	  x0:0x00000000
       28515000	      2850	80000e84	00000013	addi	x0,x0,0	  x0:0x00000000
       28525000	      2851	80000e88	fe1ff0ef	jal	x1,80000e88	  x1=0x80000e88
       28535000	      2852	00000000	00000013	addi	x0,x0,0	  x0:0x00000000
       28545000	      2853	80000e64	00000013	addi	x0,x0,0	  x0:0x00000000
       28555000	      2854	80000e68	ff5ff1ef	jal	x3,80000e68	  x3=0x80000e68
       28565000	      2855	00000000	00000013	addi	x0,x0,0	  x0:0x00000000
       28575000	      2856	80000e58	00000013	addi	x0,x0,0	  x0:0x00000000
       28585000	      2857	80000e5c	024000ef	jal	x1,80000e5c	  x1=0x80000e5c
       28595000	      2858	00000000	00000013	addi	x0,x0,0	  x0:0x00000000
       28605000	      2859	80000e7c	00000013	addi	x0,x0,0	  x0:0x00000000
       28615000	      2860	80000e80	ff9ff0ef	jal	x1,80000e80	  x1=0x80000e80
       28625000	      2861	00000000	00000013	addi	x0,x0,0	  x0:0x00000000
       28635000	      2862	80000e74	00000013	addi	x0,x0,0	  x0:0x00000000
       28645000	      2863	80000e78	00c000ef	jal	x1,80000e78	  x1=0x80000e78
       28655000	      2864	00000000	00000013	addi	x0,x0,0	  x0:0x00000000
       28665000	      2865	80000e80	00000013	addi	x0,x0,0	  x0:0x00000000
       28675000	      2866	80000e84	fddff0ef	jal	x1,80000e84	  x1=0x80000e84
       28685000	      2867	00000000	00000013	addi	x0,x0,0	  x0:0x00000000
       28695000	      2868	80000e5c	00000013	addi	x0,x0,0	  x0:0x00000000
       28705000	      2869	80000e60	014000ef	jal	x1,80000e60	  x1=0x80000e60
       28715000	      2870	00000000	00000013	addi	x0,x0,0	  x0:0x00000000
       28725000	      2871	80000e70	00000013	addi	x0,x0,0	  x0:0x00000000
       28735000	      2872	80000e74	ff1ffd6f	jal	x26,80000e74	 x26=0x80000e74
       28745000	      2873	00000000	00000013	addi	x0,x0,0	  x0:0x00000000
       28755000	      2874	80000e60	00000013	addi	x0,x0,0	  x0:0x00000000
       28765000	      2875	80000e64	008000ef	jal	x1,80000e64	  x1=0x80000e64
       28775000	      2876	00000000	00000013	addi	x0,x0,0	  x0:0x00000000
       28785000	      2877	80000e68	00000013	addi	x0,x0,0	  x0:0x00000000
       28795000	      2878	80000e6c	020000ef	jal	x1,80000e6c	  x1=0x80000e6c
       28805000	      2879	00000000	00000013	addi	x0,x0,0	  x0:0x00000000
       28815000	      2880	80000e88	00000013	addi	x0,x0,0	  x0:0x00000000
       28825000	      2881	80000e8c	000fa7b3	slt	x15,x31,x0	 x31:0x00000000  x0:0x00000000 x15=0x00000000
       28835000	      2882	80000e90	01800b6f	jal	x22,80000e90	 x22=0x80000e90
       28845000	      2883	00000000	00000013	addi	x0,x0,0	  x0:0x00000000
       28855000	      2884	80000ea4	00000013	addi	x0,x0,0	  x0:0x00000000
       28865000	      2885	80000ea8	04c000ef	jal	x1,80000ea8	  x1=0x80000ea8
       28875000	      2886	00000000	00000013	addi	x0,x0,0	  x0:0x00000000
       28885000	      2887	80000ef0	00000013	addi	x0,x0,0	  x0:0x00000000
       28895000	      2888	80000ef4	fd5ff0ef	jal	x1,80000ef4	  x1=0x80000ef4
       28905000	      2889	00000000	00000013	addi	x0,x0,0	  x0:0x00000000
       28915000	      2890	80000ec4	00000013	addi	x0,x0,0	  x0:0x00000000
       28925000	      2891	80000ec8	fe9ff2ef	jal	x5,80000ec8	  x5=0x80000ec8
       28935000	      2892	00000000	00000013	addi	x0,x0,0	  x0:0x00000000
       28945000	      2893	80000eac	00000013	addi	x0,x0,0	  x0:0x00000000
       28955000	      2894	80000eb0	01c000ef	jal	x1,80000eb0	  x1=0x80000eb0
       28965000	      2895	00000000	00000013	addi	x0,x0,0	  x0:0x00000000
       28975000	      2896	80000ec8	00000013	addi	x0,x0,0	  x0:0x00000000
       28985000	      2897	80000ecc	ff9ff36f	jal	x6,80000ecc	  x6=0x80000ecc
       28995000	      2898	00000000	00000013	addi	x0,x0,0	  x0:0x00000000
       29005000	      2899	80000ec0	00000013	addi	x0,x0,0	  x0:0x00000000
       29015000	      2900	80000ec4	fe1ff0ef	jal	x1,80000ec4	  x1=0x80000ec4
       29025000	      2901	00000000	00000013	addi	x0,x0,0	  x0:0x00000000
       29035000	      2902	80000ea0	00000013	addi	x0,x0,0	  x0:0x00000000
       29045000	      2903	80000ea4	014000ef	jal	x1,80000ea4	  x1=0x80000ea4
       29055000	      2904	00000000	00000013	addi	x0,x0,0	  x0:0x00000000
       29065000	      2905	80000eb4	00000013	addi	x0,x0,0	  x0:0x00000000
       29075000	      2906	80000eb8	0380076f	jal	x14,80000eb8	 x14=0x80000eb8
       29085000	      2907	00000000	00000013	addi	x0,x0,0	  x0:0x00000000
       29095000	      2908	80000eec	00000013	addi	x0,x0,0	  x0:0x00000000
       29105000	      2909	80000ef0	00800cef	jal	x25,80000ef0	 x25=0x80000ef0
       29115000	      2910	00000000	00000013	addi	x0,x0,0	  x0:0x00000000
       29125000	      2911	80000ef4	00000013	addi	x0,x0,0	  x0:0x00000000
       29135000	      2912	80000ef8	00800d6f	jal	x26,80000ef8	 x26=0x80000ef8
       29145000	      2913	00000000	00000013	addi	x0,x0,0	  x0:0x00000000
       29155000	      2914	80000efc	00000013	addi	x0,x0,0	  x0:0x00000000
       29165000	      2915	80000f00	f95ff0ef	jal	x1,80000f00	  x1=0x80000f00
       29175000	      2916	00000000	00000013	addi	x0,x0,0	  x0:0x00000000
       29185000	      2917	80000e90	00000013	addi	x0,x0,0	  x0:0x00000000
       29195000	      2918	80000e94	04000bef	jal	x23,80000e94	 x23=0x80000e94
       29205000	      2919	00000000	00000013	addi	x0,x0,0	  x0:0x00000000
       29215000	      2920	80000ed0	00000013	addi	x0,x0,0	  x0:0x00000000
       29225000	      2921	80000ed4	018000ef	jal	x1,80000ed4	  x1=0x80000ed4
       29235000	      2922	00000000	00000013	addi	x0,x0,0	  x0:0x00000000
       29245000	      2923	80000ee8	00000013	addi	x0,x0,0	  x0:0x00000000
       29255000	      2924	80000eec	fb5ffa6f	jal	x20,80000eec	 x20=0x80000eec
       29265000	      2925	00000000	00000013	addi	x0,x0,0	  x0:0x00000000
       29275000	      2926	80000e9c	00000013	addi	x0,x0,0	  x0:0x00000000
       29285000	      2927	80000ea0	ffdff96f	jal	x18,80000ea0	 x18=0x80000ea0
       29295000	      2928	00000000	00000013	addi	x0,x0,0	  x0:0x00000000
       29305000	      2929	80000e98	00000013	addi	x0,x0,0	  x0:0x00000000
       29315000	      2930	80000e9c	0340036f	jal	x6,80000e9c	  x6=0x80000e9c
       29325000	      2931	00000000	00000013	addi	x0,x0,0	  x0:0x00000000
       29335000	      2932	80000ecc	00000013	addi	x0,x0,0	  x0:0x00000000
       29345000	      2933	80000ed0	fddff0ef	jal	x1,80000ed0	  x1=0x80000ed0
       29355000	      2934	00000000	00000013	addi	x0,x0,0	  x0:0x00000000
       29365000	      2935	80000ea8	00000013	addi	x0,x0,0	  x0:0x00000000
       29375000	      2936	80000eac	058000ef	jal	x1,80000eac	  x1=0x80000eac
       29385000	      2937	00000000	00000013	addi	x0,x0,0	  x0:0x00000000
       29395000	      2938	80000f00	00000013	addi	x0,x0,0	  x0:0x00000000
       29405000	      2939	80000f04	f95ff0ef	jal	x1,80000f04	  x1=0x80000f04
       29415000	      2940	00000000	00000013	addi	x0,x0,0	  x0:0x00000000
       29425000	      2941	80000e94	00000013	addi	x0,x0,0	  x0:0x00000000
       29435000	      2942	80000e98	04c0026f	jal	x4,80000e98	  x4=0x80000e98
       29445000	      2943	00000000	00000013	addi	x0,x0,0	  x0:0x00000000
       29455000	      2944	80000ee0	00000013	addi	x0,x0,0	  x0:0x00000000
       29465000	      2945	80000ee4	ff9ff0ef	jal	x1,80000ee4	  x1=0x80000ee4
       29475000	      2946	00000000	00000013	addi	x0,x0,0	  x0:0x00000000
       29485000	      2947	80000ed8	00000013	addi	x0,x0,0	  x0:0x00000000
       29495000	      2948	80000edc	fd9ff0ef	jal	x1,80000edc	  x1=0x80000edc
       29505000	      2949	00000000	00000013	addi	x0,x0,0	  x0:0x00000000
       29515000	      2950	80000eb0	00000013	addi	x0,x0,0	  x0:0x00000000
       29525000	      2951	80000eb4	00800bef	jal	x23,80000eb4	 x23=0x80000eb4
       29535000	      2952	00000000	00000013	addi	x0,x0,0	  x0:0x00000000
       29545000	      2953	80000eb8	00000013	addi	x0,x0,0	  x0:0x00000000
       29555000	      2954	80000ebc	01c004ef	jal	x9,80000ebc	  x9=0x80000ebc
       29565000	      2955	00000000	00000013	addi	x0,x0,0	  x0:0x00000000
       29575000	      2956	80000ed4	00000013	addi	x0,x0,0	  x0:0x00000000
       29585000	      2957	80000ed8	008000ef	jal	x1,80000ed8	  x1=0x80000ed8
       29595000	      2958	00000000	00000013	addi	x0,x0,0	  x0:0x00000000
       29605000	      2959	80000edc	00000013	addi	x0,x0,0	  x0:0x00000000
       29615000	      2960	80000ee0	01c000ef	jal	x1,80000ee0	  x1=0x80000ee0
       29625000	      2961	00000000	00000013	addi	x0,x0,0	  x0:0x00000000
       29635000	      2962	80000ef8	00000013	addi	x0,x0,0	  x0:0x00000000
       29645000	      2963	80000efc	fedff56f	jal	x10,80000efc	 x10=0x80000efc
       29655000	      2964	00000000	00000013	addi	x0,x0,0	  x0:0x00000000
       29665000	      2965	80000ee4	00000013	addi	x0,x0,0	  x0:0x00000000
       29675000	      2966	80000ee8	fd9ff0ef	jal	x1,80000ee8	  x1=0x80000ee8
       29685000	      2967	00000000	00000013	addi	x0,x0,0	  x0:0x00000000
       29695000	      2968	80000ebc	00000013	addi	x0,x0,0	  x0:0x00000000
       29705000	      2969	80000ec0	048000ef	jal	x1,80000ec0	  x1=0x80000ec0
       29715000	      2970	00000000	00000013	addi	x0,x0,0	  x0:0x00000000
       29725000	      2971	80000f04	00000013	addi	x0,x0,0	  x0:0x00000000
       29735000	      2972	80000f08	01afcfb3	xor	x31,x31,x26	 x31:0x00000000 x26:0x80000ef8 x31=0x80000ef8
       29745000	      2973	80000f0c	01000b6f	jal	x22,80000f0c	 x22=0x80000f0c
       29755000	      2974	00000000	00000013	addi	x0,x0,0	  x0:0x00000000
       29765000	      2975	80000f18	00000013	addi	x0,x0,0	  x0:0x00000000
       29775000	      2976	80000f1c	020000ef	jal	x1,80000f1c	  x1=0x80000f1c
       29785000	      2977	00000000	00000013	addi	x0,x0,0	  x0:0x00000000
       29795000	      2978	80000f38	00000013	addi	x0,x0,0	  x0:0x00000000
       29805000	      2979	80000f3c	fd9ff26f	jal	x4,80000f3c	  x4=0x80000f3c
       29815000	      2980	00000000	00000013	addi	x0,x0,0	  x0:0x00000000
       29825000	      2981	80000f10	00000013	addi	x0,x0,0	  x0:0x00000000
       29835000	      2982	80000f14	0040036f	jal	x6,80000f14	  x6=0x80000f14
       29845000	      2983	00000000	00000013	addi	x0,x0,0	  x0:0x00000000
       29855000	      2984	80000f14	00000013	addi	x0,x0,0	  x0:0x00000000
       29865000	      2985	80000f18	01c000ef	jal	x1,80000f18	  x1=0x80000f18
       29875000	      2986	00000000	00000013	addi	x0,x0,0	  x0:0x00000000
       29885000	      2987	80000f30	00000013	addi	x0,x0,0	  x0:0x00000000
       29895000	      2988	80000f34	fddff0ef	jal	x1,80000f34	  x1=0x80000f34
       29905000	      2989	00000000	00000013	addi	x0,x0,0	  x0:0x00000000
       29915000	      2990	80000f0c	00000013	addi	x0,x0,0	  x0:0x00000000
       29925000	      2991	80000f10	018000ef	jal	x1,80000f10	  x1=0x80000f10
       29935000	      2992	00000000	00000013	addi	x0,x0,0	  x0:0x00000000
       29945000	      2993	80000f24	00000013	addi	x0,x0,0	  x0:0x00000000
       29955000	      2994	80000f28	ffdff3ef	jal	x7,80000f28	  x7=0x80000f28
       29965000	      2995	00000000	00000013	addi	x0,x0,0	  x0:0x00000000
       29975000	      2996	80000f20	00000013	addi	x0,x0,0	  x0:0x00000000
       29985000	      2997	80000f24	00c000ef	jal	x1,80000f24	  x1=0x80000f24
       29995000	      2998	00000000	00000013	addi	x0,x0,0	  x0:0x00000000
       30005000	      2999	80000f2c	00000013	addi	x0,x0,0	  x0:0x00000000
       30015000	      3000	80000f30	014000ef	jal	x1,80000f30	  x1=0x80000f30
       30025000	      3001	00000000	00000013	addi	x0,x0,0	  x0:0x00000000
       30035000	      3002	80000f40	00000013	addi	x0,x0,0	  x0:0x00000000
       30045000	      3003	80000f44	ff5ffa6f	jal	x20,80000f44	 x20=0x80000f44
       30055000	      3004	00000000	00000013	addi	x0,x0,0	  x0:0x00000000
       30065000	      3005	80000f34	00000013	addi	x0,x0,0	  x0:0x00000000
       30075000	      3006	80000f38	008000ef	jal	x1,80000f38	  x1=0x80000f38
       30085000	      3007	00000000	00000013	addi	x0,x0,0	  x0:0x00000000
       30095000	      3008	80000f3c	00000013	addi	x0,x0,0	  x0:0x00000000
       30105000	      3009	80000f40	fedff0ef	jal	x1,80000f40	  x1=0x80000f40
       30115000	      3010	00000000	00000013	addi	x0,x0,0	  x0:0x00000000
       30125000	      3011	80000f28	00000013	addi	x0,x0,0	  x0:0x00000000
       30135000	      3012	80000f2c	ff5ff0ef	jal	x1,80000f2c	  x1=0x80000f2c
       30145000	      3013	00000000	00000013	addi	x0,x0,0	  x0:0x00000000
       30155000	      3014	80000f1c	00000013	addi	x0,x0,0	  x0:0x00000000
       30165000	      3015	80000f20	028000ef	jal	x1,80000f20	  x1=0x80000f20
       30175000	      3016	00000000	00000013	addi	x0,x0,0	  x0:0x00000000
       30185000	      3017	80000f44	00000013	addi	x0,x0,0	  x0:0x00000000
       30195000	      3018	80000f48	00124eb3	xor	x29,x4,x1	  x4:0x80000f3c  x1:0x80000f20 x29=0x0000001c
       30205000	      3019	80000f4c	01800b6f	jal	x22,80000f4c	 x22=0x80000f4c
       30215000	      3020	00000000	00000013	addi	x0,x0,0	  x0:0x00000000
       30225000	      3021	80000f60	00000013	addi	x0,x0,0	  x0:0x00000000
       30235000	      3022	80000f64	044009ef	jal	x19,80000f64	 x19=0x80000f64
       30245000	      3023	00000000	00000013	addi	x0,x0,0	  x0:0x00000000
       30255000	      3024	80000fa4	00000013	addi	x0,x0,0	  x0:0x00000000
       30265000	      3025	80000fa8	fd5ffe6f	jal	x28,80000fa8	 x28=0x80000fa8
       30275000	      3026	00000000	00000013	addi	x0,x0,0	  x0:0x00000000
       30285000	      3027	80000f78	00000013	addi	x0,x0,0	  x0:0x00000000
       30295000	      3028	80000f7c	fd9ff0ef	jal	x1,80000f7c	  x1=0x80000f7c
       30305000	      3029	00000000	00000013	addi	x0,x0,0	  x0:0x00000000
       30315000	      3030	80000f50	00000013	addi	x0,x0,0	  x0:0x00000000
       30325000	      3031	80000f54	024000ef	jal	x1,80000f54	  x1=0x80000f54
       30335000	      3032	00000000	00000013	addi	x0,x0,0	  x0:0x00000000
       30345000	      3033	80000f74	00000013	addi	x0,x0,0	  x0:0x00000000
       30355000	      3034	80000f78	02c000ef	jal	x1,80000f78	  x1=0x80000f78
       30365000	      3035	00000000	00000013	addi	x0,x0,0	  x0:0x00000000
       30375000	      3036	80000fa0	00000013	addi	x0,x0,0	  x0:0x00000000
       30385000	      3037	80000fa4	fb5ff0ef	jal	x1,80000fa4	  x1=0x80000fa4
       30395000	      3038	00000000	00000013	addi	x0,x0,0	  x0:0x00000000
       30405000	      3039	80000f54	00000013	addi	x0,x0,0	  x0:0x00000000
       30415000	      3040	80000f58	038000ef	jal	x1,80000f58	  x1=0x80000f58
       30425000	      3041	00000000	00000013	addi	x0,x0,0	  x0:0x00000000
       30435000	      3042	80000f8c	00000013	addi	x0,x0,0	  x0:0x00000000
       30445000	      3043	80000f90	fd1ff0ef	jal	x1,80000f90	  x1=0x80000f90
       30455000	      3044	00000000	00000013	addi	x0,x0,0	  x0:0x00000000
       30465000	      3045	80000f5c	00000013	addi	x0,x0,0	  x0:0x00000000
       30475000	      3046	80000f60	040000ef	jal	x1,80000f60	  x1=0x80000f60
       30485000	      3047	00000000	00000013	addi	x0,x0,0	  x0:0x00000000
       30495000	      3048	80000f9c	00000013	addi	x0,x0,0	  x0:0x00000000
       30505000	      3049	80000fa0	fe5ff36f	jal	x6,80000fa0	  x6=0x80000fa0
       30515000	      3050	00000000	00000013	addi	x0,x0,0	  x0:0x00000000
       30525000	      3051	80000f80	00000013	addi	x0,x0,0	  x0:0x00000000
       30535000	      3052	80000f84	fd9ff36f	jal	x6,80000f84	  x6=0x80000f84
       30545000	      3053	00000000	00000013	addi	x0,x0,0	  x0:0x00000000
       30555000	      3054	80000f58	00000013	addi	x0,x0,0	  x0:0x00000000
       30565000	      3055	80000f5c	024000ef	jal	x1,80000f5c	  x1=0x80000f5c
       30575000	      3056	00000000	00000013	addi	x0,x0,0	  x0:0x00000000
       30585000	      3057	80000f7c	00000013	addi	x0,x0,0	  x0:0x00000000
       30595000	      3058	80000f80	02c000ef	jal	x1,80000f80	  x1=0x80000f80
       30605000	      3059	00000000	00000013	addi	x0,x0,0	  x0:0x00000000
       30615000	      3060	80000fa8	00000013	addi	x0,x0,0	  x0:0x00000000
       30625000	      3061	80000fac	fbdff0ef	jal	x1,80000fac	  x1=0x80000fac
       30635000	      3062	00000000	00000013	addi	x0,x0,0	  x0:0x00000000
       30645000	      3063	80000f64	00000013	addi	x0,x0,0	  x0:0x00000000
       30655000	      3064	80000f68	030000ef	jal	x1,80000f68	  x1=0x80000f68
       30665000	      3065	00000000	00000013	addi	x0,x0,0	  x0:0x00000000
       30675000	      3066	80000f94	00000013	addi	x0,x0,0	  x0:0x00000000
       30685000	      3067	80000f98	fb9ff0ef	jal	x1,80000f98	  x1=0x80000f98
       30695000	      3068	00000000	00000013	addi	x0,x0,0	  x0:0x00000000
       30705000	      3069	80000f4c	00000013	addi	x0,x0,0	  x0:0x00000000
       30715000	      3070	80000f50	04c0036f	jal	x6,80000f50	  x6=0x80000f50
       30725000	      3071	00000000	00000013	addi	x0,x0,0	  x0:0x00000000
       30735000	      3072	80000f98	00000013	addi	x0,x0,0	  x0:0x00000000
       30745000	      3073	80000f9c	fd1ff0ef	jal	x1,80000f9c	  x1=0x80000f9c
       30755000	      3074	00000000	00000013	addi	x0,x0,0	  x0:0x00000000
       30765000	      3075	80000f68	00000013	addi	x0,x0,0	  x0:0x00000000
       30775000	      3076	80000f6c	044000ef	jal	x1,80000f6c	  x1=0x80000f6c
       30785000	      3077	00000000	00000013	addi	x0,x0,0	  x0:0x00000000
       30795000	      3078	80000fac	00000013	addi	x0,x0,0	  x0:0x00000000
       30805000	      3079	80000fb0	fc5ffd6f	jal	x26,80000fb0	 x26=0x80000fb0
       30815000	      3080	00000000	00000013	addi	x0,x0,0	  x0:0x00000000
       30825000	      3081	80000f70	00000013	addi	x0,x0,0	  x0:0x00000000
       30835000	      3082	80000f74	018001ef	jal	x3,80000f74	  x3=0x80000f74
       30845000	      3083	00000000	00000013	addi	x0,x0,0	  x0:0x00000000
       30855000	      3084	80000f88	00000013	addi	x0,x0,0	  x0:0x00000000
       30865000	      3085	80000f8c	0280076f	jal	x14,80000f8c	 x14=0x80000f8c
       30875000	      3086	00000000	00000013	addi	x0,x0,0	  x0:0x00000000
       30885000	      3087	80000fb0	00000013	addi	x0,x0,0	  x0:0x00000000
       30895000	      3088	80000fb4	fbdffa6f	jal	x20,80000fb4	 x20=0x80000fb4
       30905000	      3089	00000000	00000013	addi	x0,x0,0	  x0:0x00000000
       30915000	      3090	80000f6c	00000013	addi	x0,x0,0	  x0:0x00000000
       30925000	      3091	80000f70	018002ef	jal	x5,80000f70	  x5=0x80000f70
       30935000	      3092	00000000	00000013	addi	x0,x0,0	  x0:0x00000000
       30945000	      3093	80000f84	00000013	addi	x0,x0,0	  x0:0x00000000
       30955000	      3094	80000f88	00c0036f	jal	x6,80000f88	  x6=0x80000f88
       30965000	      3095	00000000	00000013	addi	x0,x0,0	  x0:0x00000000
       30975000	      3096	80000f90	00000013	addi	x0,x0,0	  x0:0x00000000
       30985000	      3097	80000f94	0240036f	jal	x6,80000f94	  x6=0x80000f94
       30995000	      3098	00000000	00000013	addi	x0,x0,0	  x0:0x00000000
       31005000	      3099	80000fb4	00000013	addi	x0,x0,0	  x0:0x00000000
       31015000	      3100	80000fb8	01ab5613	srli	x12,x22,0x1a	 x22:0x80000f4c x12=0x00000020
       31025000	      3101	80000fbc	03400b6f	jal	x22,80000fbc	 x22=0x80000fbc
       31035000	      3102	00000000	00000013	addi	x0,x0,0	  x0:0x00000000
       31045000	      3103	80000fec	00000013	addi	x0,x0,0	  x0:0x00000000
       31055000	      3104	80000ff0	fe1ff5ef	jal	x11,80000ff0	 x11=0x80000ff0
       31065000	      3105	00000000	00000013	addi	x0,x0,0	  x0:0x00000000
       31075000	      3106	80000fcc	00000013	addi	x0,x0,0	  x0:0x00000000
       31085000	      3107	80000fd0	ff5ff0ef	jal	x1,80000fd0	  x1=0x80000fd0
       31095000	      3108	00000000	00000013	addi	x0,x0,0	  x0:0x00000000
       31105000	      3109	80000fc0	00000013	addi	x0,x0,0	  x0:0x00000000
       31115000	      3110	80000fc4	ffdffcef	jal	x25,80000fc4	 x25=0x80000fc4
       31125000	      3111	00000000	00000013	addi	x0,x0,0	  x0:0x00000000
       31135000	      3112	80000fbc	00000013	addi	x0,x0,0	  x0:0x00000000
       31145000	      3113	80000fc0	008000ef	jal	x1,80000fc0	  x1=0x80000fc0
       31155000	      3114	00000000	00000013	addi	x0,x0,0	  x0:0x00000000
       31165000	      3115	80000fc4	00000013	addi	x0,x0,0	  x0:0x00000000
       31175000	      3116	80000fc8	01c000ef	jal	x1,80000fc8	  x1=0x80000fc8
       31185000	      3117	00000000	00000013	addi	x0,x0,0	  x0:0x00000000
       31195000	      3118	80000fe0	00000013	addi	x0,x0,0	  x0:0x00000000
       31205000	      3119	80000fe4	ffdff6ef	jal	x13,80000fe4	 x13=0x80000fe4
       31215000	      3120	00000000	00000013	addi	x0,x0,0	  x0:0x00000000
       31225000	      3121	80000fdc	00000013	addi	x0,x0,0	  x0:0x00000000
       31235000	      3122	80000fe0	00800d6f	jal	x26,80000fe0	 x26=0x80000fe0
       31245000	      3123	00000000	00000013	addi	x0,x0,0	  x0:0x00000000
       31255000	      3124	80000fe4	00000013	addi	x0,x0,0	  x0:0x00000000
       31265000	      3125	80000fe8	fedff0ef	jal	x1,80000fe8	  x1=0x80000fe8
       31275000	      3126	00000000	00000013	addi	x0,x0,0	  x0:0x00000000
       31285000	      3127	80000fd0	00000013	addi	x0,x0,0	  x0:0x00000000
       31295000	      3128	80000fd4	0040036f	jal	x6,80000fd4	  x6=0x80000fd4
       31305000	      3129	00000000	00000013	addi	x0,x0,0	  x0:0x00000000
       31315000	      3130	80000fd4	00000013	addi	x0,x0,0	  x0:0x00000000
       31325000	      3131	80000fd8	00400b6f	jal	x22,80000fd8	 x22=0x80000fd8
       31335000	      3132	00000000	00000013	addi	x0,x0,0	  x0:0x00000000
       31345000	      3133	80000fd8	00000013	addi	x0,x0,0	  x0:0x00000000
       31355000	      3134	80000fdc	010007ef	jal	x15,80000fdc	 x15=0x80000fdc
       31365000	      3135	00000000	00000013	addi	x0,x0,0	  x0:0x00000000
       31375000	      3136	80000fe8	00000013	addi	x0,x0,0	  x0:0x00000000
       31385000	      3137	80000fec	fe1ff0ef	jal	x1,80000fec	  x1=0x80000fec
       31395000	      3138	00000000	00000013	addi	x0,x0,0	  x0:0x00000000
       31405000	      3139	80000fc8	00000013	addi	x0,x0,0	  x0:0x00000000
       31415000	      3140	80000fcc	0280046f	jal	x8,80000fcc	  x8=0x80000fcc
       31425000	      3141	00000000	00000013	addi	x0,x0,0	  x0:0x00000000
       31435000	      3142	80000ff0	00000013	addi	x0,x0,0	  x0:0x00000000
       31445000	      3143	80000ff4	0098fd33	and	x26,x17,x9	 x17:0x00000001  x9:0x80000ebc x26=0x00000000
       31455000	      3144	80000ff8	03c00b6f	jal	x22,80000ff8	 x22=0x80000ff8
       31465000	      3145	00000000	00000013	addi	x0,x0,0	  x0:0x00000000
       31475000	      3146	80001030	00000013	addi	x0,x0,0	  x0:0x00000000
       31485000	      3147	80001034	fd1ff0ef	jal	x1,80001034	  x1=0x80001034
       31495000	      3148	00000000	00000013	addi	x0,x0,0	  x0:0x00000000
       31505000	      3149	80001000	00000013	addi	x0,x0,0	  x0:0x00000000
       31515000	      3150	80001004	014000ef	jal	x1,80001004	  x1=0x80001004
       31525000	      3151	00000000	00000013	addi	x0,x0,0	  x0:0x00000000
       31535000	      3152	80001014	00000013	addi	x0,x0,0	  x0:0x00000000
       31545000	      3153	80001018	004005ef	jal	x11,80001018	 x11=0x80001018
       31555000	      3154	00000000	00000013	addi	x0,x0,0	  x0:0x00000000
       31565000	      3155	80001018	00000013	addi	x0,x0,0	  x0:0x00000000
       31575000	      3156	8000101c	004007ef	jal	x15,8000101c	 x15=0x8000101c
       31585000	      3157	00000000	00000013	addi	x0,x0,0	  x0:0x00000000
       31595000	      3158	8000101c	00000013	addi	x0,x0,0	  x0:0x00000000
       31605000	      3159	80001020	0300036f	jal	x6,80001020	  x6=0x80001020
       31615000	      3160	00000000	00000013	addi	x0,x0,0	  x0:0x00000000
       31625000	      3161	8000104c	00000013	addi	x0,x0,0	  x0:0x00000000
       31635000	      3162	80001050	fc5ff0ef	jal	x1,80001050	  x1=0x80001050
       31645000	      3163	00000000	00000013	addi	x0,x0,0	  x0:0x00000000
       31655000	      3164	80001010	00000013	addi	x0,x0,0	  x0:0x00000000
       31665000	      3165	80001014	050000ef	jal	x1,80001014	  x1=0x80001014
       31675000	      3166	00000000	00000013	addi	x0,x0,0	  x0:0x00000000
       31685000	      3167	80001060	00000013	addi	x0,x0,0	  x0:0x00000000
       31695000	      3168	80001064	fd9ff0ef	jal	x1,80001064	  x1=0x80001064
       31705000	      3169	00000000	00000013	addi	x0,x0,0	  x0:0x00000000
       31715000	      3170	80001038	00000013	addi	x0,x0,0	  x0:0x00000000
       31725000	      3171	8000103c	0240096f	jal	x18,8000103c	 x18=0x8000103c
       31735000	      3172	00000000	00000013	addi	x0,x0,0	  x0:0x00000000
       31745000	      3173	8000105c	00000013	addi	x0,x0,0	  x0:0x00000000
       31755000	      3174	80001060	f9dff36f	jal	x6,80001060	  x6=0x80001060
       31765000	      3175	00000000	00000013	addi	x0,x0,0	  x0:0x00000000
       31775000	      3176	80000ff8	00000013	addi	x0,x0,0	  x0:0x00000000
       31785000	      3177	80000ffc	02c009ef	jal	x19,80000ffc	 x19=0x80000ffc
       31795000	      3178	00000000	00000013	addi	x0,x0,0	  x0:0x00000000
       31805000	      3179	80001024	00000013	addi	x0,x0,0	  x0:0x00000000
       31815000	      3180	80001028	ffdff0ef	jal	x1,80001028	  x1=0x80001028
       31825000	      3181	00000000	00000013	addi	x0,x0,0	  x0:0x00000000
       31835000	      3182	80001020	00000013	addi	x0,x0,0	  x0:0x00000000
       31845000	      3183	80001024	030000ef	jal	x1,80001024	  x1=0x80001024
       31855000	      3184	00000000	00000013	addi	x0,x0,0	  x0:0x00000000
       31865000	      3185	80001050	00000013	addi	x0,x0,0	  x0:0x00000000
       31875000	      3186	80001054	ff1ffe6f	jal	x28,80001054	 x28=0x80001054
       31885000	      3187	00000000	00000013	addi	x0,x0,0	  x0:0x00000000
       31895000	      3188	80001040	00000013	addi	x0,x0,0	  x0:0x00000000
       31905000	      3189	80001044	fcdff0ef	jal	x1,80001044	  x1=0x80001044
       31915000	      3190	00000000	00000013	addi	x0,x0,0	  x0:0x00000000
       31925000	      3191	8000100c	00000013	addi	x0,x0,0	  x0:0x00000000
       31935000	      3192	80001010	028000ef	jal	x1,80001010	  x1=0x80001010
       31945000	      3193	00000000	00000013	addi	x0,x0,0	  x0:0x00000000
       31955000	      3194	80001034	00000013	addi	x0,x0,0	  x0:0x00000000
       31965000	      3195	80001038	ff5ff76f	jal	x14,80001038	 x14=0x80001038
       31975000	      3196	00000000	00000013	addi	x0,x0,0	  x0:0x00000000
       31985000	      3197	80001028	00000013	addi	x0,x0,0	  x0:0x00000000
       31995000	      3198	8000102c	01c000ef	jal	x1,8000102c	  x1=0x8000102c
       32005000	      3199	00000000	00000013	addi	x0,x0,0	  x0:0x00000000
       32015000	      3200	80001044	00000013	addi	x0,x0,0	  x0:0x00000000
       32025000	      3201	80001048	fb9ff2ef	jal	x5,80001048	  x5=0x80001048
       32035000	      3202	00000000	00000013	addi	x0,x0,0	  x0:0x00000000
       32045000	      3203	80000ffc	00000013	addi	x0,x0,0	  x0:0x00000000
       32055000	      3204	80001000	00800cef	jal	x25,80001000	 x25=0x80001000
       32065000	      3205	00000000	00000013	addi	x0,x0,0	  x0:0x00000000
       32075000	      3206	80001004	00000013	addi	x0,x0,0	  x0:0x00000000
       32085000	      3207	80001008	004000ef	jal	x1,80001008	  x1=0x80001008
       32095000	      3208	00000000	00000013	addi	x0,x0,0	  x0:0x00000000
       32105000	      3209	80001008	00000013	addi	x0,x0,0	  x0:0x00000000
       32115000	      3210	8000100c	04c008ef	jal	x17,8000100c	 x17=0x8000100c
       32125000	      3211	00000000	00000013	addi	x0,x0,0	  x0:0x00000000
       32135000	      3212	80001054	00000013	addi	x0,x0,0	  x0:0x00000000
       32145000	      3213	80001058	fe9ff36f	jal	x6,80001058	  x6=0x80001058
       32155000	      3214	00000000	00000013	addi	x0,x0,0	  x0:0x00000000
       32165000	      3215	8000103c	00000013	addi	x0,x0,0	  x0:0x00000000
       32175000	      3216	80001040	01c0036f	jal	x6,80001040	  x6=0x80001040
       32185000	      3217	00000000	00000013	addi	x0,x0,0	  x0:0x00000000
       32195000	      3218	80001058	00000013	addi	x0,x0,0	  x0:0x00000000
       32205000	      3219	8000105c	ff1ff36f	jal	x6,8000105c	  x6=0x8000105c
       32215000	      3220	00000000	00000013	addi	x0,x0,0	  x0:0x00000000
       32225000	      3221	80001048	00000013	addi	x0,x0,0	  x0:0x00000000
       32235000	      3222	8000104c	fe5ff0ef	jal	x1,8000104c	  x1=0x8000104c
       32245000	      3223	00000000	00000013	addi	x0,x0,0	  x0:0x00000000
       32255000	      3224	8000102c	00000013	addi	x0,x0,0	  x0:0x00000000
       32265000	      3225	80001030	0380076f	jal	x14,80001030	 x14=0x80001030
       32275000	      3226	00000000	00000013	addi	x0,x0,0	  x0:0x00000000
       32285000	      3227	80001064	00000013	addi	x0,x0,0	  x0:0x00000000
       32295000	      3228	80001068	2a0db017	auipc	x0,0x2a0db	
       32305000	      3229	8000106c	03400b6f	jal	x22,8000106c	 x22=0x8000106c
       32315000	      3230	00000000	00000013	addi	x0,x0,0	  x0:0x00000000
       32325000	      3231	8000109c	00000013	addi	x0,x0,0	  x0:0x00000000
       32335000	      3232	800010a0	fe5ff0ef	jal	x1,800010a0	  x1=0x800010a0
       32345000	      3233	00000000	00000013	addi	x0,x0,0	  x0:0x00000000
       32355000	      3234	80001080	00000013	addi	x0,x0,0	  x0:0x00000000
       32365000	      3235	80001084	ffdff3ef	jal	x7,80001084	  x7=0x80001084
       32375000	      3236	00000000	00000013	addi	x0,x0,0	  x0:0x00000000
       32385000	      3237	8000107c	00000013	addi	x0,x0,0	  x0:0x00000000
       32395000	      3238	80001080	0240096f	jal	x18,80001080	 x18=0x80001080
       32405000	      3239	00000000	00000013	addi	x0,x0,0	  x0:0x00000000
       32415000	      3240	800010a0	00000013	addi	x0,x0,0	  x0:0x00000000
       32425000	      3241	800010a4	004001ef	jal	x3,800010a4	  x3=0x800010a4
       32435000	      3242	00000000	00000013	addi	x0,x0,0	  x0:0x00000000
       32445000	      3243	800010a4	00000013	addi	x0,x0,0	  x0:0x00000000
       32455000	      3244	800010a8	0100036f	jal	x6,800010a8	  x6=0x800010a8
       32465000	      3245	00000000	00000013	addi	x0,x0,0	  x0:0x00000000
       32475000	      3246	800010b4	00000013	addi	x0,x0,0	  x0:0x00000000
       32485000	      3247	800010b8	ff5ff0ef	jal	x1,800010b8	  x1=0x800010b8
       32495000	      3248	00000000	00000013	addi	x0,x0,0	  x0:0x00000000
       32505000	      3249	800010a8	00000013	addi	x0,x0,0	  x0:0x00000000
       32515000	      3250	800010ac	fe9ff36f	jal	x6,800010ac	  x6=0x800010ac
       32525000	      3251	00000000	00000013	addi	x0,x0,0	  x0:0x00000000
       32535000	      3252	80001090	00000013	addi	x0,x0,0	  x0:0x00000000
       32545000	      3253	80001094	ff9ff0ef	jal	x1,80001094	  x1=0x80001094
       32555000	      3254	00000000	00000013	addi	x0,x0,0	  x0:0x00000000
       32565000	      3255	80001088	00000013	addi	x0,x0,0	  x0:0x00000000
       32575000	      3256	8000108c	ffdff0ef	jal	x1,8000108c	  x1=0x8000108c
       32585000	      3257	00000000	00000013	addi	x0,x0,0	  x0:0x00000000
       32595000	      3258	80001084	00000013	addi	x0,x0,0	  x0:0x00000000
       32605000	      3259	80001088	008000ef	jal	x1,80001088	  x1=0x80001088
       32615000	      3260	00000000	00000013	addi	x0,x0,0	  x0:0x00000000
       32625000	      3261	8000108c	00000013	addi	x0,x0,0	  x0:0x00000000
       32635000	      3262	80001090	fe9ffb6f	jal	x22,80001090	 x22=0x80001090
       32645000	      3263	00000000	00000013	addi	x0,x0,0	  x0:0x00000000
       32655000	      3264	80001074	00000013	addi	x0,x0,0	  x0:0x00000000
       32665000	      3265	80001078	ffdff36f	jal	x6,80001078	  x6=0x80001078
       32675000	      3266	00000000	00000013	addi	x0,x0,0	  x0:0x00000000
       32685000	      3267	80001070	00000013	addi	x0,x0,0	  x0:0x00000000
       32695000	      3268	80001074	ffdff2ef	jal	x5,80001074	  x5=0x80001074
       32705000	      3269	00000000	00000013	addi	x0,x0,0	  x0:0x00000000
       32715000	      3270	8000106c	00000013	addi	x0,x0,0	  x0:0x00000000
       32725000	      3271	80001070	00c000ef	jal	x1,80001070	  x1=0x80001070
       32735000	      3272	00000000	00000013	addi	x0,x0,0	  x0:0x00000000
       32745000	      3273	80001078	00000013	addi	x0,x0,0	  x0:0x00000000
       32755000	      3274	8000107c	01c000ef	jal	x1,8000107c	  x1=0x8000107c
       32765000	      3275	00000000	00000013	addi	x0,x0,0	  x0:0x00000000
       32775000	      3276	80001094	00000013	addi	x0,x0,0	  x0:0x00000000
       32785000	      3277	80001098	004003ef	jal	x7,80001098	  x7=0x80001098
       32795000	      3278	00000000	00000013	addi	x0,x0,0	  x0:0x00000000
       32805000	      3279	80001098	00000013	addi	x0,x0,0	  x0:0x00000000
       32815000	      3280	8000109c	014000ef	jal	x1,8000109c	  x1=0x8000109c
       32825000	      3281	00000000	00000013	addi	x0,x0,0	  x0:0x00000000
       32835000	      3282	800010ac	00000013	addi	x0,x0,0	  x0:0x00000000
       32845000	      3283	800010b0	0040036f	jal	x6,800010b0	  x6=0x800010b0
       32855000	      3284	00000000	00000013	addi	x0,x0,0	  x0:0x00000000
       32865000	      3285	800010b0	00000013	addi	x0,x0,0	  x0:0x00000000
       32875000	      3286	800010b4	0080036f	jal	x6,800010b4	  x6=0x800010b4
       32885000	      3287	00000000	00000013	addi	x0,x0,0	  x0:0x00000000
       32895000	      3288	800010b8	00000013	addi	x0,x0,0	  x0:0x00000000
       32905000	      3289	800010bc	01d527b3	slt	x15,x10,x29	 x10:0x80000efc x29:0x0000001c x15=0x00000001
       32915000	      3290	800010c0	02400b6f	jal	x22,800010c0	 x22=0x800010c0
       32925000	      3291	00000000	00000013	addi	x0,x0,0	  x0:0x00000000
       32935000	      3292	800010e0	00000013	addi	x0,x0,0	  x0:0x00000000
       32945000	      3293	800010e4	018002ef	jal	x5,800010e4	  x5=0x800010e4
       32955000	      3294	00000000	00000013	addi	x0,x0,0	  x0:0x00000000
       32965000	      3295	800010f8	00000013	addi	x0,x0,0	  x0:0x00000000
       32975000	      3296	800010fc	ff1ff0ef	jal	x1,800010fc	  x1=0x800010fc
       32985000	      3297	00000000	00000013	addi	x0,x0,0	  x0:0x00000000
       32995000	      3298	800010e8	00000013	addi	x0,x0,0	  x0:0x00000000
       33005000	      3299	800010ec	fe1ffbef	jal	x23,800010ec	 x23=0x800010ec
       33015000	      3300	00000000	00000013	addi	x0,x0,0	  x0:0x00000000
       33025000	      3301	800010c8	00000013	addi	x0,x0,0	  x0:0x00000000
       33035000	      3302	800010cc	01c0036f	jal	x6,800010cc	  x6=0x800010cc
       33045000	      3303	00000000	00000013	addi	x0,x0,0	  x0:0x00000000
       33055000	      3304	800010e4	00000013	addi	x0,x0,0	  x0:0x00000000
       33065000	      3305	800010e8	ff1ff0ef	jal	x1,800010e8	  x1=0x800010e8
       33075000	      3306	00000000	00000013	addi	x0,x0,0	  x0:0x00000000
       33085000	      3307	800010d4	00000013	addi	x0,x0,0	  x0:0x00000000
       33095000	      3308	800010d8	04c0036f	jal	x6,800010d8	  x6=0x800010d8
       33105000	      3309	00000000	00000013	addi	x0,x0,0	  x0:0x00000000
       33115000	      3310	80001120	00000013	addi	x0,x0,0	  x0:0x00000000
       33125000	      3311	80001124	fe1ff36f	jal	x6,80001124	  x6=0x80001124
       33135000	      3312	00000000	00000013	addi	x0,x0,0	  x0:0x00000000
       33145000	      3313	80001100	00000013	addi	x0,x0,0	  x0:0x00000000
       33155000	      3314	80001104	fd9ff0ef	jal	x1,80001104	  x1=0x80001104
       33165000	      3315	00000000	00000013	addi	x0,x0,0	  x0:0x00000000
       33175000	      3316	800010d8	00000013	addi	x0,x0,0	  x0:0x00000000
       33185000	      3317	800010dc	fedff0ef	jal	x1,800010dc	  x1=0x800010dc
       33195000	      3318	00000000	00000013	addi	x0,x0,0	  x0:0x00000000
       33205000	      3319	800010c4	00000013	addi	x0,x0,0	  x0:0x00000000
       33215000	      3320	800010c8	0380036f	jal	x6,800010c8	  x6=0x800010c8
       33225000	      3321	00000000	00000013	addi	x0,x0,0	  x0:0x00000000
       33235000	      3322	800010fc	00000013	addi	x0,x0,0	  x0:0x00000000
       33245000	      3323	80001100	ff5ff0ef	jal	x1,80001100	  x1=0x80001100
       33255000	      3324	00000000	00000013	addi	x0,x0,0	  x0:0x00000000
       33265000	      3325	800010f0	00000013	addi	x0,x0,0	  x0:0x00000000
       33275000	      3326	800010f4	01c000ef	jal	x1,800010f4	  x1=0x800010f4
       33285000	      3327	00000000	00000013	addi	x0,x0,0	  x0:0x00000000
       33295000	      3328	8000110c	00000013	addi	x0,x0,0	  x0:0x00000000
       33305000	      3329	80001110	fb5ff0ef	jal	x1,80001110	  x1=0x80001110
       33315000	      3330	00000000	00000013	addi	x0,x0,0	  x0:0x00000000
       33325000	      3331	800010c0	00000013	addi	x0,x0,0	  x0:0x00000000
       33335000	      3332	800010c4	064000ef	jal	x1,800010c4	  x1=0x800010c4
       33345000	      3333	00000000	00000013	addi	x0,x0,0	  x0:0x00000000
       33355000	      3334	80001124	00000013	addi	x0,x0,0	  x0:0x00000000
       33365000	      3335	80001128	ff1ffd6f	jal	x26,80001128	 x26=0x80001128
       33375000	      3336	00000000	00000013	addi	x0,x0,0	  x0:0x00000000
       33385000	      3337	80001114	00000013	addi	x0,x0,0	  x0:0x00000000
       33395000	      3338	80001118	fb9ffbef	jal	x23,80001118	 x23=0x80001118
       33405000	      3339	00000000	00000013	addi	x0,x0,0	  x0:0x00000000
       33415000	      3340	800010cc	00000013	addi	x0,x0,0	  x0:0x00000000
       33425000	      3341	800010d0	0040036f	jal	x6,800010d0	  x6=0x800010d0
       33435000	      3342	00000000	00000013	addi	x0,x0,0	  x0:0x00000000
       33445000	      3343	800010d0	00000013	addi	x0,x0,0	  x0:0x00000000
       33455000	      3344	800010d4	00c0036f	jal	x6,800010d4	  x6=0x800010d4
       33465000	      3345	00000000	00000013	addi	x0,x0,0	  x0:0x00000000
       33475000	      3346	800010dc	00000013	addi	x0,x0,0	  x0:0x00000000
       33485000	      3347	800010e0	034006ef	jal	x13,800010e0	 x13=0x800010e0
       33495000	      3348	00000000	00000013	addi	x0,x0,0	  x0:0x00000000
       33505000	      3349	80001110	00000013	addi	x0,x0,0	  x0:0x00000000
       33515000	      3350	80001114	00c000ef	jal	x1,80001114	  x1=0x80001114
       33525000	      3351	00000000	00000013	addi	x0,x0,0	  x0:0x00000000
       33535000	      3352	8000111c	00000013	addi	x0,x0,0	  x0:0x00000000
       33545000	      3353	80001120	fd1ff36f	jal	x6,80001120	  x6=0x80001120
       33555000	      3354	00000000	00000013	addi	x0,x0,0	  x0:0x00000000
       33565000	      3355	800010ec	00000013	addi	x0,x0,0	  x0:0x00000000
       33575000	      3356	800010f0	02c000ef	jal	x1,800010f0	  x1=0x800010f0
       33585000	      3357	00000000	00000013	addi	x0,x0,0	  x0:0x00000000
       33595000	      3358	80001118	00000013	addi	x0,x0,0	  x0:0x00000000
       33605000	      3359	8000111c	fedff0ef	jal	x1,8000111c	  x1=0x8000111c
       33615000	      3360	00000000	00000013	addi	x0,x0,0	  x0:0x00000000
       33625000	      3361	80001104	00000013	addi	x0,x0,0	  x0:0x00000000
       33635000	      3362	80001108	004000ef	jal	x1,80001108	  x1=0x80001108
       33645000	      3363	00000000	00000013	addi	x0,x0,0	  x0:0x00000000
       33655000	      3364	80001108	00000013	addi	x0,x0,0	  x0:0x00000000
       33665000	      3365	8000110c	fedff26f	jal	x4,8000110c	  x4=0x8000110c
       33675000	      3366	00000000	00000013	addi	x0,x0,0	  x0:0x00000000
       33685000	      3367	800010f4	00000013	addi	x0,x0,0	  x0:0x00000000
       33695000	      3368	800010f8	034000ef	jal	x1,800010f8	  x1=0x800010f8
       33705000	      3369	00000000	00000013	addi	x0,x0,0	  x0:0x00000000
       33715000	      3370	80001128	00000013	addi	x0,x0,0	  x0:0x00000000
       33725000	      3371	8000112c	404602b3	sub	x5,x12,x4	 x12:0x00000020  x4:0x8000110c  x5=0x7fffef14
       33735000	      3372	80001130	00800b6f	jal	x22,80001130	 x22=0x80001130
       33745000	      3373	00000000	00000013	addi	x0,x0,0	  x0:0x00000000
       33755000	      3374	80001134	00000013	addi	x0,x0,0	  x0:0x00000000
       33765000	      3375	80001138	0080036f	jal	x6,80001138	  x6=0x80001138
       33775000	      3376	00000000	00000013	addi	x0,x0,0	  x0:0x00000000
       33785000	      3377	8000113c	00000013	addi	x0,x0,0	  x0:0x00000000
       33795000	      3378	80001140	024000ef	jal	x1,80001140	  x1=0x80001140
       33805000	      3379	00000000	00000013	addi	x0,x0,0	  x0:0x00000000
       33815000	      3380	80001160	00000013	addi	x0,x0,0	  x0:0x00000000
       33825000	      3381	80001164	00c0036f	jal	x6,80001164	  x6=0x80001164
       33835000	      3382	00000000	00000013	addi	x0,x0,0	  x0:0x00000000
       33845000	      3383	8000116c	00000013	addi	x0,x0,0	  x0:0x00000000
       33855000	      3384	80001170	fcdff0ef	jal	x1,80001170	  x1=0x80001170
       33865000	      3385	00000000	00000013	addi	x0,x0,0	  x0:0x00000000
       33875000	      3386	80001138	00000013	addi	x0,x0,0	  x0:0x00000000
       33885000	      3387	8000113c	014000ef	jal	x1,8000113c	  x1=0x8000113c
       33895000	      3388	00000000	00000013	addi	x0,x0,0	  x0:0x00000000
       33905000	      3389	8000114c	00000013	addi	x0,x0,0	  x0:0x00000000
       33915000	      3390	80001150	004000ef	jal	x1,80001150	  x1=0x80001150
       33925000	      3391	00000000	00000013	addi	x0,x0,0	  x0:0x00000000
       33935000	      3392	80001150	00000013	addi	x0,x0,0	  x0:0x00000000
       33945000	      3393	80001154	ff5ffa6f	jal	x20,80001154	 x20=0x80001154
       33955000	      3394	00000000	00000013	addi	x0,x0,0	  x0:0x00000000
       33965000	      3395	80001144	00000013	addi	x0,x0,0	  x0:0x00000000
       33975000	      3396	80001148	0180096f	jal	x18,80001148	 x18=0x80001148
       33985000	      3397	00000000	00000013	addi	x0,x0,0	  x0:0x00000000
       33995000	      3398	8000115c	00000013	addi	x0,x0,0	  x0:0x00000000
       34005000	      3399	80001160	01c000ef	jal	x1,80001160	  x1=0x80001160
       34015000	      3400	00000000	00000013	addi	x0,x0,0	  x0:0x00000000
       34025000	      3401	80001178	00000013	addi	x0,x0,0	  x0:0x00000000
       34035000	      3402	8000117c	fddff0ef	jal	x1,8000117c	  x1=0x8000117c
       34045000	      3403	00000000	00000013	addi	x0,x0,0	  x0:0x00000000
       34055000	      3404	80001154	00000013	addi	x0,x0,0	  x0:0x00000000
       34065000	      3405	80001158	014000ef	jal	x1,80001158	  x1=0x80001158
       34075000	      3406	00000000	00000013	addi	x0,x0,0	  x0:0x00000000
       34085000	      3407	80001168	00000013	addi	x0,x0,0	  x0:0x00000000
       34095000	      3408	8000116c	fe1ff0ef	jal	x1,8000116c	  x1=0x8000116c
       34105000	      3409	00000000	00000013	addi	x0,x0,0	  x0:0x00000000
       34115000	      3410	80001148	00000013	addi	x0,x0,0	  x0:0x00000000
       34125000	      3411	8000114c	010000ef	jal	x1,8000114c	  x1=0x8000114c
       34135000	      3412	00000000	00000013	addi	x0,x0,0	  x0:0x00000000
       34145000	      3413	80001158	00000013	addi	x0,x0,0	  x0:0x00000000
       34155000	      3414	8000115c	0280036f	jal	x6,8000115c	  x6=0x8000115c
       34165000	      3415	00000000	00000013	addi	x0,x0,0	  x0:0x00000000
       34175000	      3416	80001180	00000013	addi	x0,x0,0	  x0:0x00000000
       34185000	      3417	80001184	fb1ff1ef	jal	x3,80001184	  x3=0x80001184
       34195000	      3418	00000000	00000013	addi	x0,x0,0	  x0:0x00000000
       34205000	      3419	80001130	00000013	addi	x0,x0,0	  x0:0x00000000
       34215000	      3420	80001134	0400086f	jal	x16,80001134	 x16=0x80001134
       34225000	      3421	00000000	00000013	addi	x0,x0,0	  x0:0x00000000
       34235000	      3422	80001170	00000013	addi	x0,x0,0	  x0:0x00000000
       34245000	      3423	80001174	fd1ff36f	jal	x6,80001174	  x6=0x80001174
       34255000	      3424	00000000	00000013	addi	x0,x0,0	  x0:0x00000000
       34265000	      3425	80001140	00000013	addi	x0,x0,0	  x0:0x00000000
       34275000	      3426	80001144	034000ef	jal	x1,80001144	  x1=0x80001144
       34285000	      3427	00000000	00000013	addi	x0,x0,0	  x0:0x00000000
       34295000	      3428	80001174	00000013	addi	x0,x0,0	  x0:0x00000000
       34305000	      3429	80001178	0080036f	jal	x6,80001178	  x6=0x80001178
       34315000	      3430	00000000	00000013	addi	x0,x0,0	  x0:0x00000000
       34325000	      3431	8000117c	00000013	addi	x0,x0,0	  x0:0x00000000
       34335000	      3432	80001180	fe9ff0ef	jal	x1,80001180	  x1=0x80001180
       34345000	      3433	00000000	00000013	addi	x0,x0,0	  x0:0x00000000
       34355000	      3434	80001164	00000013	addi	x0,x0,0	  x0:0x00000000
       34365000	      3435	80001168	020000ef	jal	x1,80001168	  x1=0x80001168
       34375000	      3436	00000000	00000013	addi	x0,x0,0	  x0:0x00000000
       34385000	      3437	80001184	00000013	addi	x0,x0,0	  x0:0x00000000
       34395000	      3438	80001188	c9ee3513	sltiu	x10,x28,-866	 x28:0x80001054 x10=0x00000001
       34405000	      3439	8000118c	02000b6f	jal	x22,8000118c	 x22=0x8000118c
       34415000	      3440	00000000	00000013	addi	x0,x0,0	  x0:0x00000000
       34425000	      3441	800011a8	00000013	addi	x0,x0,0	  x0:0x00000000
       34435000	      3442	800011ac	fe9ff36f	jal	x6,800011ac	  x6=0x800011ac
       34445000	      3443	00000000	00000013	addi	x0,x0,0	  x0:0x00000000
       34455000	      3444	80001190	00000013	addi	x0,x0,0	  x0:0x00000000
       34465000	      3445	80001194	00c005ef	jal	x11,80001194	 x11=0x80001194
       34475000	      3446	00000000	00000013	addi	x0,x0,0	  x0:0x00000000
       34485000	      3447	8000119c	00000013	addi	x0,x0,0	  x0:0x00000000
       34495000	      3448	800011a0	0140016f	jal	x2,800011a0	  x2=0x800011a0
       34505000	      3449	00000000	00000013	addi	x0,x0,0	  x0:0x00000000
       34515000	      3450	800011b0	00000013	addi	x0,x0,0	  x0:0x00000000
       34525000	      3451	800011b4	020000ef	jal	x1,800011b4	  x1=0x800011b4
       34535000	      3452	00000000	00000013	addi	x0,x0,0	  x0:0x00000000
       34545000	      3453	800011d0	00000013	addi	x0,x0,0	  x0:0x00000000
       34555000	      3454	800011d4	00c000ef	jal	x1,800011d4	  x1=0x800011d4
       34565000	      3455	00000000	00000013	addi	x0,x0,0	  x0:0x00000000
       34575000	      3456	800011dc	00000013	addi	x0,x0,0	  x0:0x00000000
       34585000	      3457	800011e0	fedff4ef	jal	x9,800011e0	  x9=0x800011e0
       34595000	      3458	00000000	00000013	addi	x0,x0,0	  x0:0x00000000
       34605000	      3459	800011c8	00000013	addi	x0,x0,0	  x0:0x00000000
       34615000	      3460	800011cc	fc5ff66f	jal	x12,800011cc	 x12=0x800011cc
       34625000	      3461	00000000	00000013	addi	x0,x0,0	  x0:0x00000000
       34635000	      3462	8000118c	00000013	addi	x0,x0,0	  x0:0x00000000
       34645000	      3463	80001190	0540036f	jal	x6,80001190	  x6=0x80001190
       34655000	      3464	00000000	00000013	addi	x0,x0,0	  x0:0x00000000
       34665000	      3465	800011e0	00000013	addi	x0,x0,0	  x0:0x00000000
       34675000	      3466	800011e4	fedff0ef	jal	x1,800011e4	  x1=0x800011e4
       34685000	      3467	00000000	00000013	addi	x0,x0,0	  x0:0x00000000
       34695000	      3468	800011cc	00000013	addi	x0,x0,0	  x0:0x00000000
       34705000	      3469	800011d0	fe9ff0ef	jal	x1,800011d0	  x1=0x800011d0
       34715000	      3470	00000000	00000013	addi	x0,x0,0	  x0:0x00000000
       34725000	      3471	800011b4	00000013	addi	x0,x0,0	  x0:0x00000000
       34735000	      3472	800011b8	fe1ff36f	jal	x6,800011b8	  x6=0x800011b8
       34745000	      3473	00000000	00000013	addi	x0,x0,0	  x0:0x00000000
       34755000	      3474	80001194	00000013	addi	x0,x0,0	  x0:0x00000000
       34765000	      3475	80001198	00c001ef	jal	x3,80001198	  x3=0x80001198
       34775000	      3476	00000000	00000013	addi	x0,x0,0	  x0:0x00000000
       34785000	      3477	800011a0	00000013	addi	x0,x0,0	  x0:0x00000000
       34795000	      3478	800011a4	0240036f	jal	x6,800011a4	  x6=0x800011a4
       34805000	      3479	00000000	00000013	addi	x0,x0,0	  x0:0x00000000
       34815000	      3480	800011c4	00000013	addi	x0,x0,0	  x0:0x00000000
       34825000	      3481	800011c8	fe9ff36f	jal	x6,800011c8	  x6=0x800011c8
       34835000	      3482	00000000	00000013	addi	x0,x0,0	  x0:0x00000000
       34845000	      3483	800011ac	00000013	addi	x0,x0,0	  x0:0x00000000
       34855000	      3484	800011b0	fedff0ef	jal	x1,800011b0	  x1=0x800011b0
       34865000	      3485	00000000	00000013	addi	x0,x0,0	  x0:0x00000000
       34875000	      3486	80001198	00000013	addi	x0,x0,0	  x0:0x00000000
       34885000	      3487	8000119c	00c00fef	jal	x31,8000119c	 x31=0x8000119c
       34895000	      3488	00000000	00000013	addi	x0,x0,0	  x0:0x00000000
       34905000	      3489	800011a4	00000013	addi	x0,x0,0	  x0:0x00000000
       34915000	      3490	800011a8	01c000ef	jal	x1,800011a8	  x1=0x800011a8
       34925000	      3491	00000000	00000013	addi	x0,x0,0	  x0:0x00000000
       34935000	      3492	800011c0	00000013	addi	x0,x0,0	  x0:0x00000000
       34945000	      3493	800011c4	0180036f	jal	x6,800011c4	  x6=0x800011c4
       34955000	      3494	00000000	00000013	addi	x0,x0,0	  x0:0x00000000
       34965000	      3495	800011d8	00000013	addi	x0,x0,0	  x0:0x00000000
       34975000	      3496	800011dc	00c0016f	jal	x2,800011dc	  x2=0x800011dc
       34985000	      3497	00000000	00000013	addi	x0,x0,0	  x0:0x00000000
       34995000	      3498	800011e4	00000013	addi	x0,x0,0	  x0:0x00000000
       35005000	      3499	800011e8	fd5ff36f	jal	x6,800011e8	  x6=0x800011e8
       35015000	      3500	00000000	00000013	addi	x0,x0,0	  x0:0x00000000
       35025000	      3501	800011b8	00000013	addi	x0,x0,0	  x0:0x00000000
       35035000	      3502	800011bc	004000ef	jal	x1,800011bc	  x1=0x800011bc
       35045000	      3503	00000000	00000013	addi	x0,x0,0	  x0:0x00000000
       35055000	      3504	800011bc	00000013	addi	x0,x0,0	  x0:0x00000000
       35065000	      3505	800011c0	018000ef	jal	x1,800011c0	  x1=0x800011c0
       35075000	      3506	00000000	00000013	addi	x0,x0,0	  x0:0x00000000
       35085000	      3507	800011d4	00000013	addi	x0,x0,0	  x0:0x00000000
       35095000	      3508	800011d8	014002ef	jal	x5,800011d8	  x5=0x800011d8
       35105000	      3509	00000000	00000013	addi	x0,x0,0	  x0:0x00000000
       35115000	      3510	800011e8	00000013	addi	x0,x0,0	  x0:0x00000000
       35125000	      3511	800011ec	01645033	srl	x0,x8,x22	  x8:0x80000fcc x22:0x8000118c
       35135000	      3512	800011f0	02c00b6f	jal	x22,800011f0	 x22=0x800011f0
       35145000	      3513	00000000	00000013	addi	x0,x0,0	  x0:0x00000000
       35155000	      3514	80001218	00000013	addi	x0,x0,0	  x0:0x00000000
       35165000	      3515	8000121c	00c000ef	jal	x1,8000121c	  x1=0x8000121c
       35175000	      3516	00000000	00000013	addi	x0,x0,0	  x0:0x00000000
       35185000	      3517	80001224	00000013	addi	x0,x0,0	  x0:0x00000000
       35195000	      3518	80001228	fcdff0ef	jal	x1,80001228	  x1=0x80001228
       35205000	      3519	00000000	00000013	addi	x0,x0,0	  x0:0x00000000
       35215000	      3520	800011f0	00000013	addi	x0,x0,0	  x0:0x00000000
       35225000	      3521	800011f4	020000ef	jal	x1,800011f4	  x1=0x800011f4
       35235000	      3522	00000000	00000013	addi	x0,x0,0	  x0:0x00000000
       35245000	      3523	80001210	00000013	addi	x0,x0,0	  x0:0x00000000
       35255000	      3524	80001214	004000ef	jal	x1,80001214	  x1=0x80001214
       35265000	      3525	00000000	00000013	addi	x0,x0,0	  x0:0x00000000
       35275000	      3526	80001214	00000013	addi	x0,x0,0	  x0:0x00000000
       35285000	      3527	80001218	00c000ef	jal	x1,80001218	  x1=0x80001218
       35295000	      3528	00000000	00000013	addi	x0,x0,0	  x0:0x00000000
       35305000	      3529	80001220	00000013	addi	x0,x0,0	  x0:0x00000000
       35315000	      3530	80001224	fddff0ef	jal	x1,80001224	  x1=0x80001224
       35325000	      3531	00000000	00000013	addi	x0,x0,0	  x0:0x00000000
       35335000	      3532	800011fc	00000013	addi	x0,x0,0	  x0:0x00000000
       35345000	      3533	80001200	ff9ff0ef	jal	x1,80001200	  x1=0x80001200
       35355000	      3534	00000000	00000013	addi	x0,x0,0	  x0:0x00000000
       35365000	      3535	800011f4	00000013	addi	x0,x0,0	  x0:0x00000000
       35375000	      3536	800011f8	010000ef	jal	x1,800011f8	  x1=0x800011f8
       35385000	      3537	00000000	00000013	addi	x0,x0,0	  x0:0x00000000
       35395000	      3538	80001204	00000013	addi	x0,x0,0	  x0:0x00000000
       35405000	      3539	80001208	018000ef	jal	x1,80001208	  x1=0x80001208
       35415000	      3540	00000000	00000013	addi	x0,x0,0	  x0:0x00000000
       35425000	      3541	8000121c	00000013	addi	x0,x0,0	  x0:0x00000000
       35435000	      3542	80001220	fedff0ef	jal	x1,80001220	  x1=0x80001220
       35445000	      3543	00000000	00000013	addi	x0,x0,0	  x0:0x00000000
       35455000	      3544	80001208	00000013	addi	x0,x0,0	  x0:0x00000000
       35465000	      3545	8000120c	ff9ff16f	jal	x2,8000120c	  x2=0x8000120c
       35475000	      3546	00000000	00000013	addi	x0,x0,0	  x0:0x00000000
       35485000	      3547	80001200	00000013	addi	x0,x0,0	  x0:0x00000000
       35495000	      3548	80001204	ff9ff0ef	jal	x1,80001204	  x1=0x80001204
       35505000	      3549	00000000	00000013	addi	x0,x0,0	  x0:0x00000000
       35515000	      3550	800011f8	00000013	addi	x0,x0,0	  x0:0x00000000
       35525000	      3551	800011fc	014000ef	jal	x1,800011fc	  x1=0x800011fc
       35535000	      3552	00000000	00000013	addi	x0,x0,0	  x0:0x00000000
       35545000	      3553	8000120c	00000013	addi	x0,x0,0	  x0:0x00000000
       35555000	      3554	80001210	01c0036f	jal	x6,80001210	  x6=0x80001210
       35565000	      3555	00000000	00000013	addi	x0,x0,0	  x0:0x00000000
       35575000	      3556	80001228	00000013	addi	x0,x0,0	  x0:0x00000000
       35585000	      3557	8000122c	41360333	sub	x6,x12,x19	 x12:0x800011cc x19:0x80000ffc  x6=0x000001d0
       35595000	      3558	80001230	02400b6f	jal	x22,80001230	 x22=0x80001230
       35605000	      3559	00000000	00000013	addi	x0,x0,0	  x0:0x00000000
       35615000	      3560	80001250	00000013	addi	x0,x0,0	  x0:0x00000000
       35625000	      3561	80001254	0100016f	jal	x2,80001254	  x2=0x80001254
       35635000	      3562	00000000	00000013	addi	x0,x0,0	  x0:0x00000000
       35645000	      3563	80001260	00000013	addi	x0,x0,0	  x0:0x00000000
       35655000	      3564	80001264	fe1ff46f	jal	x8,80001264	  x8=0x80001264
       35665000	      3565	00000000	00000013	addi	x0,x0,0	  x0:0x00000000
       35675000	      3566	80001240	00000013	addi	x0,x0,0	  x0:0x00000000
       35685000	      3567	80001244	ff1ff0ef	jal	x1,80001244	  x1=0x80001244
       35695000	      3568	00000000	00000013	addi	x0,x0,0	  x0:0x00000000
       35705000	      3569	80001230	00000013	addi	x0,x0,0	  x0:0x00000000
       35715000	      3570	80001234	004000ef	jal	x1,80001234	  x1=0x80001234
       35725000	      3571	00000000	00000013	addi	x0,x0,0	  x0:0x00000000
       35735000	      3572	80001234	00000013	addi	x0,x0,0	  x0:0x00000000
       35745000	      3573	80001238	008000ef	jal	x1,80001238	  x1=0x80001238
       35755000	      3574	00000000	00000013	addi	x0,x0,0	  x0:0x00000000
       35765000	      3575	8000123c	00000013	addi	x0,x0,0	  x0:0x00000000
       35775000	      3576	80001240	00c002ef	jal	x5,80001240	  x5=0x80001240
       35785000	      3577	00000000	00000013	addi	x0,x0,0	  x0:0x00000000
       35795000	      3578	80001248	00000013	addi	x0,x0,0	  x0:0x00000000
       35805000	      3579	8000124c	010000ef	jal	x1,8000124c	  x1=0x8000124c
       35815000	      3580	00000000	00000013	addi	x0,x0,0	  x0:0x00000000
       35825000	      3581	80001258	00000013	addi	x0,x0,0	  x0:0x00000000
       35835000	      3582	8000125c	ffdff36f	jal	x6,8000125c	  x6=0x8000125c
       35845000	      3583	00000000	00000013	addi	x0,x0,0	  x0:0x00000000
       35855000	      3584	80001254	00000013	addi	x0,x0,0	  x0:0x00000000
       35865000	      3585	80001258	010004ef	jal	x9,80001258	  x9=0x80001258
       35875000	      3586	00000000	00000013	addi	x0,x0,0	  x0:0x00000000
       35885000	      3587	80001264	00000013	addi	x0,x0,0	  x0:0x00000000
       35895000	      3588	80001268	fd5ff0ef	jal	x1,80001268	  x1=0x80001268
       35905000	      3589	00000000	00000013	addi	x0,x0,0	  x0:0x00000000
       35915000	      3590	80001238	00000013	addi	x0,x0,0	  x0:0x00000000
       35925000	      3591	8000123c	00c000ef	jal	x1,8000123c	  x1=0x8000123c
       35935000	      3592	00000000	00000013	addi	x0,x0,0	  x0:0x00000000
       35945000	      3593	80001244	00000013	addi	x0,x0,0	  x0:0x00000000
       35955000	      3594	80001248	008009ef	jal	x19,80001248	 x19=0x80001248
       35965000	      3595	00000000	00000013	addi	x0,x0,0	  x0:0x00000000
       35975000	      3596	8000124c	00000013	addi	x0,x0,0	  x0:0x00000000
       35985000	      3597	80001250	0240016f	jal	x2,80001250	  x2=0x80001250
       35995000	      3598	00000000	00000013	addi	x0,x0,0	  x0:0x00000000
       36005000	      3599	80001270	00000013	addi	x0,x0,0	  x0:0x00000000
       36015000	      3600	80001274	ffdff0ef	jal	x1,80001274	  x1=0x80001274
       36025000	      3601	00000000	00000013	addi	x0,x0,0	  x0:0x00000000
       36035000	      3602	8000126c	00000013	addi	x0,x0,0	  x0:0x00000000
       36045000	      3603	80001270	ff1ff36f	jal	x6,80001270	  x6=0x80001270
       36055000	      3604	00000000	00000013	addi	x0,x0,0	  x0:0x00000000
       36065000	      3605	8000125c	00000013	addi	x0,x0,0	  x0:0x00000000
       36075000	      3606	80001260	00c00fef	jal	x31,80001260	 x31=0x80001260
       36085000	      3607	00000000	00000013	addi	x0,x0,0	  x0:0x00000000
       36095000	      3608	80001268	00000013	addi	x0,x0,0	  x0:0x00000000
       36105000	      3609	8000126c	00c000ef	jal	x1,8000126c	  x1=0x8000126c
       36115000	      3610	00000000	00000013	addi	x0,x0,0	  x0:0x00000000
       36125000	      3611	80001274	00000013	addi	x0,x0,0	  x0:0x00000000
       36135000	      3612	80001278	2ba0c797	auipc	x15,0x2ba0c	 x15=0xaba0d274
       36145000	      3613	8000127c	05000b6f	jal	x22,8000127c	 x22=0x8000127c
       36155000	      3614	00000000	00000013	addi	x0,x0,0	  x0:0x00000000
       36165000	      3615	800012c8	00000013	addi	x0,x0,0	  x0:0x00000000
       36175000	      3616	800012cc	fc9ff0ef	jal	x1,800012cc	  x1=0x800012cc
       36185000	      3617	00000000	00000013	addi	x0,x0,0	  x0:0x00000000
       36195000	      3618	80001290	00000013	addi	x0,x0,0	  x0:0x00000000
       36205000	      3619	80001294	030000ef	jal	x1,80001294	  x1=0x80001294
       36215000	      3620	00000000	00000013	addi	x0,x0,0	  x0:0x00000000
       36225000	      3621	800012c0	00000013	addi	x0,x0,0	  x0:0x00000000
       36235000	      3622	800012c4	fc9ff76f	jal	x14,800012c4	 x14=0x800012c4
       36245000	      3623	00000000	00000013	addi	x0,x0,0	  x0:0x00000000
       36255000	      3624	80001288	00000013	addi	x0,x0,0	  x0:0x00000000
       36265000	      3625	8000128c	020002ef	jal	x5,8000128c	  x5=0x8000128c
       36275000	      3626	00000000	00000013	addi	x0,x0,0	  x0:0x00000000
       36285000	      3627	800012a8	00000013	addi	x0,x0,0	  x0:0x00000000
       36295000	      3628	800012ac	ff1ff36f	jal	x6,800012ac	  x6=0x800012ac
       36305000	      3629	00000000	00000013	addi	x0,x0,0	  x0:0x00000000
       36315000	      3630	80001298	00000013	addi	x0,x0,0	  x0:0x00000000
       36325000	      3631	8000129c	03c000ef	jal	x1,8000129c	  x1=0x8000129c
       36335000	      3632	00000000	00000013	addi	x0,x0,0	  x0:0x00000000
       36345000	      3633	800012d4	00000013	addi	x0,x0,0	  x0:0x00000000
       36355000	      3634	800012d8	ff9ff0ef	jal	x1,800012d8	  x1=0x800012d8
       36365000	      3635	00000000	00000013	addi	x0,x0,0	  x0:0x00000000
       36375000	      3636	800012cc	00000013	addi	x0,x0,0	  x0:0x00000000
       36385000	      3637	800012d0	fc9ff76f	jal	x14,800012d0	 x14=0x800012d0
       36395000	      3638	00000000	00000013	addi	x0,x0,0	  x0:0x00000000
       36405000	      3639	80001294	00000013	addi	x0,x0,0	  x0:0x00000000
       36415000	      3640	80001298	05c000ef	jal	x1,80001298	  x1=0x80001298
       36425000	      3641	00000000	00000013	addi	x0,x0,0	  x0:0x00000000
       36435000	      3642	800012f0	00000013	addi	x0,x0,0	  x0:0x00000000
       36445000	      3643	800012f4	fe9ff0ef	jal	x1,800012f4	  x1=0x800012f4
       36455000	      3644	00000000	00000013	addi	x0,x0,0	  x0:0x00000000
       36465000	      3645	800012d8	00000013	addi	x0,x0,0	  x0:0x00000000
       36475000	      3646	800012dc	fddff26f	jal	x4,800012dc	  x4=0x800012dc
       36485000	      3647	00000000	00000013	addi	x0,x0,0	  x0:0x00000000
       36495000	      3648	800012b4	00000013	addi	x0,x0,0	  x0:0x00000000
       36505000	      3649	800012b8	fd9ff0ef	jal	x1,800012b8	  x1=0x800012b8
       36515000	      3650	00000000	00000013	addi	x0,x0,0	  x0:0x00000000
       36525000	      3651	8000128c	00000013	addi	x0,x0,0	  x0:0x00000000
       36535000	      3652	80001290	050000ef	jal	x1,80001290	  x1=0x80001290
       36545000	      3653	00000000	00000013	addi	x0,x0,0	  x0:0x00000000
       36555000	      3654	800012dc	00000013	addi	x0,x0,0	  x0:0x00000000
       36565000	      3655	800012e0	010000ef	jal	x1,800012e0	  x1=0x800012e0
       36575000	      3656	00000000	00000013	addi	x0,x0,0	  x0:0x00000000
       36585000	      3657	800012ec	00000013	addi	x0,x0,0	  x0:0x00000000
       36595000	      3658	800012f0	f95ff0ef	jal	x1,800012f0	  x1=0x800012f0
       36605000	      3659	00000000	00000013	addi	x0,x0,0	  x0:0x00000000
       36615000	      3660	80001280	00000013	addi	x0,x0,0	  x0:0x00000000
       36625000	      3661	80001284	ffdff0ef	jal	x1,80001284	  x1=0x80001284
       36635000	      3662	00000000	00000013	addi	x0,x0,0	  x0:0x00000000
       36645000	      3663	8000127c	00000013	addi	x0,x0,0	  x0:0x00000000
       36655000	      3664	80001280	028000ef	jal	x1,80001280	  x1=0x80001280
       36665000	      3665	00000000	00000013	addi	x0,x0,0	  x0:0x00000000
       36675000	      3666	800012a4	00000013	addi	x0,x0,0	  x0:0x00000000
       36685000	      3667	800012a8	ffdff1ef	jal	x3,800012a8	  x3=0x800012a8
       36695000	      3668	00000000	00000013	addi	x0,x0,0	  x0:0x00000000
       36705000	      3669	800012a0	00000013	addi	x0,x0,0	  x0:0x00000000
       36715000	      3670	800012a4	040000ef	jal	x1,800012a4	  x1=0x800012a4
       36725000	      3671	00000000	00000013	addi	x0,x0,0	  x0:0x00000000
       36735000	      3672	800012e0	00000013	addi	x0,x0,0	  x0:0x00000000
       36745000	      3673	800012e4	fd9ff0ef	jal	x1,800012e4	  x1=0x800012e4
       36755000	      3674	00000000	00000013	addi	x0,x0,0	  x0:0x00000000
       36765000	      3675	800012b8	00000013	addi	x0,x0,0	  x0:0x00000000
       36775000	      3676	800012bc	00c0036f	jal	x6,800012bc	  x6=0x800012bc
       36785000	      3677	00000000	00000013	addi	x0,x0,0	  x0:0x00000000
       36795000	      3678	800012c4	00000013	addi	x0,x0,0	  x0:0x00000000
       36805000	      3679	800012c8	fedff0ef	jal	x1,800012c8	  x1=0x800012c8
       36815000	      3680	00000000	00000013	addi	x0,x0,0	  x0:0x00000000
       36825000	      3681	800012b0	00000013	addi	x0,x0,0	  x0:0x00000000
       36835000	      3682	800012b4	020007ef	jal	x15,800012b4	 x15=0x800012b4
       36845000	      3683	00000000	00000013	addi	x0,x0,0	  x0:0x00000000
       36855000	      3684	800012d0	00000013	addi	x0,x0,0	  x0:0x00000000
       36865000	      3685	800012d4	fcdff36f	jal	x6,800012d4	  x6=0x800012d4
       36875000	      3686	00000000	00000013	addi	x0,x0,0	  x0:0x00000000
       36885000	      3687	8000129c	00000013	addi	x0,x0,0	  x0:0x00000000
       36895000	      3688	800012a0	010009ef	jal	x19,800012a0	 x19=0x800012a0
       36905000	      3689	00000000	00000013	addi	x0,x0,0	  x0:0x00000000
       36915000	      3690	800012ac	00000013	addi	x0,x0,0	  x0:0x00000000
       36925000	      3691	800012b0	fd9ff16f	jal	x2,800012b0	  x2=0x800012b0
       36935000	      3692	00000000	00000013	addi	x0,x0,0	  x0:0x00000000
       36945000	      3693	80001284	00000013	addi	x0,x0,0	  x0:0x00000000
       36955000	      3694	80001288	06000fef	jal	x31,80001288	 x31=0x80001288
       36965000	      3695	00000000	00000013	addi	x0,x0,0	  x0:0x00000000
       36975000	      3696	800012e4	00000013	addi	x0,x0,0	  x0:0x00000000
       36985000	      3697	800012e8	fd9ff36f	jal	x6,800012e8	  x6=0x800012e8
       36995000	      3698	00000000	00000013	addi	x0,x0,0	  x0:0x00000000
       37005000	      3699	800012bc	00000013	addi	x0,x0,0	  x0:0x00000000
       37015000	      3700	800012c0	02c000ef	jal	x1,800012c0	  x1=0x800012c0
       37025000	      3701	00000000	00000013	addi	x0,x0,0	  x0:0x00000000
       37035000	      3702	800012e8	00000013	addi	x0,x0,0	  x0:0x00000000
       37045000	      3703	800012ec	00c000ef	jal	x1,800012ec	  x1=0x800012ec
       37055000	      3704	00000000	00000013	addi	x0,x0,0	  x0:0x00000000
       37065000	      3705	800012f4	00000013	addi	x0,x0,0	  x0:0x00000000
       37075000	      3706	800012f8	bad36393	ori	x7,x6,-1107	  x6:0x800012e8  x7=0xfffffbed
       37085000	      3707	800012fc	02400b6f	jal	x22,800012fc	 x22=0x800012fc
       37095000	      3708	00000000	00000013	addi	x0,x0,0	  x0:0x00000000
       37105000	      3709	8000131c	00000013	addi	x0,x0,0	  x0:0x00000000
       37115000	      3710	80001320	014000ef	jal	x1,80001320	  x1=0x80001320
       37125000	      3711	00000000	00000013	addi	x0,x0,0	  x0:0x00000000
       37135000	      3712	80001330	00000013	addi	x0,x0,0	  x0:0x00000000
       37145000	      3713	80001334	fe9ff0ef	jal	x1,80001334	  x1=0x80001334
       37155000	      3714	00000000	00000013	addi	x0,x0,0	  x0:0x00000000
       37165000	      3715	80001318	00000013	addi	x0,x0,0	  x0:0x00000000
       37175000	      3716	8000131c	fe9ff0ef	jal	x1,8000131c	  x1=0x8000131c
       37185000	      3717	00000000	00000013	addi	x0,x0,0	  x0:0x00000000
       37195000	      3718	80001300	00000013	addi	x0,x0,0	  x0:0x00000000
       37205000	      3719	80001304	ffdff16f	jal	x2,80001304	  x2=0x80001304
       37215000	      3720	00000000	00000013	addi	x0,x0,0	  x0:0x00000000
       37225000	      3721	800012fc	00000013	addi	x0,x0,0	  x0:0x00000000
       37235000	      3722	80001300	0380036f	jal	x6,80001300	  x6=0x80001300
       37245000	      3723	00000000	00000013	addi	x0,x0,0	  x0:0x00000000
       37255000	      3724	80001334	00000013	addi	x0,x0,0	  x0:0x00000000
       37265000	      3725	80001338	fedff36f	jal	x6,80001338	  x6=0x80001338
       37275000	      3726	00000000	00000013	addi	x0,x0,0	  x0:0x00000000
       37285000	      3727	80001320	00000013	addi	x0,x0,0	  x0:0x00000000
       37295000	      3728	80001324	fe5ff8ef	jal	x17,80001324	 x17=0x80001324
       37305000	      3729	00000000	00000013	addi	x0,x0,0	  x0:0x00000000
       37315000	      3730	80001304	00000013	addi	x0,x0,0	  x0:0x00000000
       37325000	      3731	80001308	028000ef	jal	x1,80001308	  x1=0x80001308
       37335000	      3732	00000000	00000013	addi	x0,x0,0	  x0:0x00000000
       37345000	      3733	8000132c	00000013	addi	x0,x0,0	  x0:0x00000000
       37355000	      3734	80001330	ffdff36f	jal	x6,80001330	  x6=0x80001330
       37365000	      3735	00000000	00000013	addi	x0,x0,0	  x0:0x00000000
       37375000	      3736	80001328	00000013	addi	x0,x0,0	  x0:0x00000000
       37385000	      3737	8000132c	fe5ff0ef	jal	x1,8000132c	  x1=0x8000132c
       37395000	      3738	00000000	00000013	addi	x0,x0,0	  x0:0x00000000
       37405000	      3739	8000130c	00000013	addi	x0,x0,0	  x0:0x00000000
       37415000	      3740	80001310	0180036f	jal	x6,80001310	  x6=0x80001310
       37425000	      3741	00000000	00000013	addi	x0,x0,0	  x0:0x00000000
       37435000	      3742	80001324	00000013	addi	x0,x0,0	  x0:0x00000000
       37445000	      3743	80001328	ff1ff0ef	jal	x1,80001328	  x1=0x80001328
       37455000	      3744	00000000	00000013	addi	x0,x0,0	  x0:0x00000000
       37465000	      3745	80001314	00000013	addi	x0,x0,0	  x0:0x00000000
       37475000	      3746	80001318	ff5ff0ef	jal	x1,80001318	  x1=0x80001318
       37485000	      3747	00000000	00000013	addi	x0,x0,0	  x0:0x00000000
       37495000	      3748	80001308	00000013	addi	x0,x0,0	  x0:0x00000000
       37505000	      3749	8000130c	008000ef	jal	x1,8000130c	  x1=0x8000130c
       37515000	      3750	00000000	00000013	addi	x0,x0,0	  x0:0x00000000
       37525000	      3751	80001310	00000013	addi	x0,x0,0	  x0:0x00000000
       37535000	      3752	80001314	028000ef	jal	x1,80001314	  x1=0x80001314
       37545000	      3753	00000000	00000013	addi	x0,x0,0	  x0:0x00000000
       37555000	      3754	80001338	00000013	addi	x0,x0,0	  x0:0x00000000
       37565000	      3755	8000133c	40255993	srai	x19,x10,0x2	 x10:0x00000001 x19=0x00000000
       37575000	      3756	80001340	01400b6f	jal	x22,80001340	 x22=0x80001340
       37585000	      3757	00000000	00000013	addi	x0,x0,0	  x0:0x00000000
       37595000	      3758	80001350	00000013	addi	x0,x0,0	  x0:0x00000000
       37605000	      3759	80001354	0140026f	jal	x4,80001354	  x4=0x80001354
       37615000	      3760	00000000	00000013	addi	x0,x0,0	  x0:0x00000000
       37625000	      3761	80001364	00000013	addi	x0,x0,0	  x0:0x00000000
       37635000	      3762	80001368	fe9ff36f	jal	x6,80001368	  x6=0x80001368
       37645000	      3763	00000000	00000013	addi	x0,x0,0	  x0:0x00000000
       37655000	      3764	8000134c	00000013	addi	x0,x0,0	  x0:0x00000000
       37665000	      3765	80001350	ffdff0ef	jal	x1,80001350	  x1=0x80001350
       37675000	      3766	00000000	00000013	addi	x0,x0,0	  x0:0x00000000
       37685000	      3767	80001348	00000013	addi	x0,x0,0	  x0:0x00000000
       37695000	      3768	8000134c	028000ef	jal	x1,8000134c	  x1=0x8000134c
       37705000	      3769	00000000	00000013	addi	x0,x0,0	  x0:0x00000000
       37715000	      3770	80001370	00000013	addi	x0,x0,0	  x0:0x00000000
       37725000	      3771	80001374	ffdffa6f	jal	x20,80001374	 x20=0x80001374
       37735000	      3772	00000000	00000013	addi	x0,x0,0	  x0:0x00000000
       37745000	      3773	8000136c	00000013	addi	x0,x0,0	  x0:0x00000000
       37755000	      3774	80001370	ff1ff0ef	jal	x1,80001370	  x1=0x80001370
       37765000	      3775	00000000	00000013	addi	x0,x0,0	  x0:0x00000000
       37775000	      3776	8000135c	00000013	addi	x0,x0,0	  x0:0x00000000
       37785000	      3777	80001360	00c00eef	jal	x29,80001360	 x29=0x80001360
       37795000	      3778	00000000	00000013	addi	x0,x0,0	  x0:0x00000000
       37805000	      3779	80001368	00000013	addi	x0,x0,0	  x0:0x00000000
       37815000	      3780	8000136c	fedff0ef	jal	x1,8000136c	  x1=0x8000136c
       37825000	      3781	00000000	00000013	addi	x0,x0,0	  x0:0x00000000
       37835000	      3782	80001354	00000013	addi	x0,x0,0	  x0:0x00000000
       37845000	      3783	80001358	fedff0ef	jal	x1,80001358	  x1=0x80001358
       37855000	      3784	00000000	00000013	addi	x0,x0,0	  x0:0x00000000
       37865000	      3785	80001340	00000013	addi	x0,x0,0	  x0:0x00000000
       37875000	      3786	80001344	004000ef	jal	x1,80001344	  x1=0x80001344
       37885000	      3787	00000000	00000013	addi	x0,x0,0	  x0:0x00000000
       37895000	      3788	80001344	00000013	addi	x0,x0,0	  x0:0x00000000
       37905000	      3789	80001348	01c0036f	jal	x6,80001348	  x6=0x80001348
       37915000	      3790	00000000	00000013	addi	x0,x0,0	  x0:0x00000000
       37925000	      3791	80001360	00000013	addi	x0,x0,0	  x0:0x00000000
       37935000	      3792	80001364	ff9ff2ef	jal	x5,80001364	  x5=0x80001364
       37945000	      3793	00000000	00000013	addi	x0,x0,0	  x0:0x00000000
       37955000	      3794	80001358	00000013	addi	x0,x0,0	  x0:0x00000000
       37965000	      3795	8000135c	01c0036f	jal	x6,8000135c	  x6=0x8000135c
       37975000	      3796	00000000	00000013	addi	x0,x0,0	  x0:0x00000000
       37985000	      3797	80001374	00000013	addi	x0,x0,0	  x0:0x00000000
       37995000	      3798	80001378	7d360913	addi	x18,x12,2003	 x12:0x800011cc x18=0x8000199f
       38005000	      3799	8000137c	00400b6f	jal	x22,8000137c	 x22=0x8000137c
       38015000	      3800	00000000	00000013	addi	x0,x0,0	  x0:0x00000000
       38025000	      3801	8000137c	00000013	addi	x0,x0,0	  x0:0x00000000
       38035000	      3802	80001380	01c005ef	jal	x11,80001380	 x11=0x80001380
       38045000	      3803	00000000	00000013	addi	x0,x0,0	  x0:0x00000000
       38055000	      3804	80001398	00000013	addi	x0,x0,0	  x0:0x00000000
       38065000	      3805	8000139c	ff9ff46f	jal	x8,8000139c	  x8=0x8000139c
       38075000	      3806	00000000	00000013	addi	x0,x0,0	  x0:0x00000000
       38085000	      3807	80001390	00000013	addi	x0,x0,0	  x0:0x00000000
       38095000	      3808	80001394	0040036f	jal	x6,80001394	  x6=0x80001394
       38105000	      3809	00000000	00000013	addi	x0,x0,0	  x0:0x00000000
       38115000	      3810	80001394	00000013	addi	x0,x0,0	  x0:0x00000000
       38125000	      3811	80001398	ff9ff1ef	jal	x3,80001398	  x3=0x80001398
       38135000	      3812	00000000	00000013	addi	x0,x0,0	  x0:0x00000000
       38145000	      3813	8000138c	00000013	addi	x0,x0,0	  x0:0x00000000
       38155000	      3814	80001390	ff9ff36f	jal	x6,80001390	  x6=0x80001390
       38165000	      3815	00000000	00000013	addi	x0,x0,0	  x0:0x00000000
       38175000	      3816	80001384	00000013	addi	x0,x0,0	  x0:0x00000000
       38185000	      3817	80001388	0040036f	jal	x6,80001388	  x6=0x80001388
       38195000	      3818	00000000	00000013	addi	x0,x0,0	  x0:0x00000000
       38205000	      3819	80001388	00000013	addi	x0,x0,0	  x0:0x00000000
       38215000	      3820	8000138c	018000ef	jal	x1,8000138c	  x1=0x8000138c
       38225000	      3821	00000000	00000013	addi	x0,x0,0	  x0:0x00000000
       38235000	      3822	800013a0	00000013	addi	x0,x0,0	  x0:0x00000000
       38245000	      3823	800013a4	ffdff26f	jal	x4,800013a4	  x4=0x800013a4
       38255000	      3824	00000000	00000013	addi	x0,x0,0	  x0:0x00000000
       38265000	      3825	8000139c	00000013	addi	x0,x0,0	  x0:0x00000000
       38275000	      3826	800013a0	fe5ff0ef	jal	x1,800013a0	  x1=0x800013a0
       38285000	      3827	00000000	00000013	addi	x0,x0,0	  x0:0x00000000
       38295000	      3828	80001380	00000013	addi	x0,x0,0	  x0:0x00000000
       38305000	      3829	80001384	024000ef	jal	x1,80001384	  x1=0x80001384
       38315000	      3830	00000000	00000013	addi	x0,x0,0	  x0:0x00000000
       38325000	      3831	800013a4	00000013	addi	x0,x0,0	  x0:0x00000000
       38335000	      3832	800013a8	00000013	addi	x0,x0,0	  x0:0x00000000
       38345000	      3833	800013ac	04800b6f	jal	x22,800013ac	 x22=0x800013ac
       38355000	      3834	00000000	00000013	addi	x0,x0,0	  x0:0x00000000
       38365000	      3835	800013f0	00000013	addi	x0,x0,0	  x0:0x00000000
       38375000	      3836	800013f4	ff5ff2ef	jal	x5,800013f4	  x5=0x800013f4
       38385000	      3837	00000000	00000013	addi	x0,x0,0	  x0:0x00000000
       38395000	      3838	800013e4	00000013	addi	x0,x0,0	  x0:0x00000000
       38405000	      3839	800013e8	fe9ff26f	jal	x4,800013e8	  x4=0x800013e8
       38415000	      3840	00000000	00000013	addi	x0,x0,0	  x0:0x00000000
       38425000	      3841	800013cc	00000013	addi	x0,x0,0	  x0:0x00000000
       38435000	      3842	800013d0	ff1ff0ef	jal	x1,800013d0	  x1=0x800013d0
       38445000	      3843	00000000	00000013	addi	x0,x0,0	  x0:0x00000000
       38455000	      3844	800013bc	00000013	addi	x0,x0,0	  x0:0x00000000
       38465000	      3845	800013c0	01800e6f	jal	x28,800013c0	 x28=0x800013c0
       38475000	      3846	00000000	00000013	addi	x0,x0,0	  x0:0x00000000
       38485000	      3847	800013d4	00000013	addi	x0,x0,0	  x0:0x00000000
       38495000	      3848	800013d8	018000ef	jal	x1,800013d8	  x1=0x800013d8
       38505000	      3849	00000000	00000013	addi	x0,x0,0	  x0:0x00000000
       38515000	      3850	800013ec	00000013	addi	x0,x0,0	  x0:0x00000000
       38525000	      3851	800013f0	008000ef	jal	x1,800013f0	  x1=0x800013f0
       38535000	      3852	00000000	00000013	addi	x0,x0,0	  x0:0x00000000
       38545000	      3853	800013f4	00000013	addi	x0,x0,0	  x0:0x00000000
       38555000	      3854	800013f8	fc5ff36f	jal	x6,800013f8	  x6=0x800013f8
       38565000	      3855	00000000	00000013	addi	x0,x0,0	  x0:0x00000000
       38575000	      3856	800013b8	00000013	addi	x0,x0,0	  x0:0x00000000
       38585000	      3857	800013bc	008000ef	jal	x1,800013bc	  x1=0x800013bc
       38595000	      3858	00000000	00000013	addi	x0,x0,0	  x0:0x00000000
       38605000	      3859	800013c0	00000013	addi	x0,x0,0	  x0:0x00000000
       38615000	      3860	800013c4	01c000ef	jal	x1,800013c4	  x1=0x800013c4
       38625000	      3861	00000000	00000013	addi	x0,x0,0	  x0:0x00000000
       38635000	      3862	800013dc	00000013	addi	x0,x0,0	  x0:0x00000000
       38645000	      3863	800013e0	fd1ff0ef	jal	x1,800013e0	  x1=0x800013e0
       38655000	      3864	00000000	00000013	addi	x0,x0,0	  x0:0x00000000
       38665000	      3865	800013ac	00000013	addi	x0,x0,0	  x0:0x00000000
       38675000	      3866	800013b0	0240016f	jal	x2,800013b0	  x2=0x800013b0
       38685000	      3867	00000000	00000013	addi	x0,x0,0	  x0:0x00000000
       38695000	      3868	800013d0	00000013	addi	x0,x0,0	  x0:0x00000000
       38705000	      3869	800013d4	030000ef	jal	x1,800013d4	  x1=0x800013d4
       38715000	      3870	00000000	00000013	addi	x0,x0,0	  x0:0x00000000
       38725000	      3871	80001400	00000013	addi	x0,x0,0	  x0:0x00000000
       38735000	      3872	80001404	fb5ff5ef	jal	x11,80001404	 x11=0x80001404
       38745000	      3873	00000000	00000013	addi	x0,x0,0	  x0:0x00000000
       38755000	      3874	800013b4	00000013	addi	x0,x0,0	  x0:0x00000000
       38765000	      3875	800013b8	014000ef	jal	x1,800013b8	  x1=0x800013b8
       38775000	      3876	00000000	00000013	addi	x0,x0,0	  x0:0x00000000
       38785000	      3877	800013c8	00000013	addi	x0,x0,0	  x0:0x00000000
       38795000	      3878	800013cc	020001ef	jal	x3,800013cc	  x3=0x800013cc
       38805000	      3879	00000000	00000013	addi	x0,x0,0	  x0:0x00000000
       38815000	      3880	800013e8	00000013	addi	x0,x0,0	  x0:0x00000000
       38825000	      3881	800013ec	fc9ff16f	jal	x2,800013ec	  x2=0x800013ec
       38835000	      3882	00000000	00000013	addi	x0,x0,0	  x0:0x00000000
       38845000	      3883	800013b0	00000013	addi	x0,x0,0	  x0:0x00000000
       38855000	      3884	800013b4	0300036f	jal	x6,800013b4	  x6=0x800013b4
       38865000	      3885	00000000	00000013	addi	x0,x0,0	  x0:0x00000000
       38875000	      3886	800013e0	00000013	addi	x0,x0,0	  x0:0x00000000
       38885000	      3887	800013e4	fe5ff0ef	jal	x1,800013e4	  x1=0x800013e4
       38895000	      3888	00000000	00000013	addi	x0,x0,0	  x0:0x00000000
       38905000	      3889	800013c4	00000013	addi	x0,x0,0	  x0:0x00000000
       38915000	      3890	800013c8	0340036f	jal	x6,800013c8	  x6=0x800013c8
       38925000	      3891	00000000	00000013	addi	x0,x0,0	  x0:0x00000000
       38935000	      3892	800013f8	00000013	addi	x0,x0,0	  x0:0x00000000
       38945000	      3893	800013fc	fe1ff8ef	jal	x17,800013fc	 x17=0x800013fc
       38955000	      3894	00000000	00000013	addi	x0,x0,0	  x0:0x00000000
       38965000	      3895	800013d8	00000013	addi	x0,x0,0	  x0:0x00000000
       38975000	      3896	800013dc	024000ef	jal	x1,800013dc	  x1=0x800013dc
       38985000	      3897	00000000	00000013	addi	x0,x0,0	  x0:0x00000000
       38995000	      3898	800013fc	00000013	addi	x0,x0,0	  x0:0x00000000
       39005000	      3899	80001400	008000ef	jal	x1,80001400	  x1=0x80001400
       39015000	      3900	00000000	00000013	addi	x0,x0,0	  x0:0x00000000
       39025000	      3901	80001404	00000013	addi	x0,x0,0	  x0:0x00000000
       39035000	      3902	80001408	019975b3	and	x11,x18,x25	 x18:0x8000199f x25:0x80001000 x11=0x80001000
       39045000	      3903	8000140c	00800b6f	jal	x22,8000140c	 x22=0x8000140c
       39055000	      3904	00000000	00000013	addi	x0,x0,0	  x0:0x00000000
       39065000	      3905	80001410	00000013	addi	x0,x0,0	  x0:0x00000000
       39075000	      3906	80001414	014000ef	jal	x1,80001414	  x1=0x80001414
       39085000	      3907	00000000	00000013	addi	x0,x0,0	  x0:0x00000000
       39095000	      3908	80001424	00000013	addi	x0,x0,0	  x0:0x00000000
       39105000	      3909	80001428	fe9ff8ef	jal	x17,80001428	 x17=0x80001428
       39115000	      3910	00000000	00000013	addi	x0,x0,0	  x0:0x00000000
       39125000	      3911	8000140c	00000013	addi	x0,x0,0	  x0:0x00000000
       39135000	      3912	80001410	008003ef	jal	x7,80001410	  x7=0x80001410
       39145000	      3913	00000000	00000013	addi	x0,x0,0	  x0:0x00000000
       39155000	      3914	80001414	00000013	addi	x0,x0,0	  x0:0x00000000
       39165000	      3915	80001418	004000ef	jal	x1,80001418	  x1=0x80001418
       39175000	      3916	00000000	00000013	addi	x0,x0,0	  x0:0x00000000
       39185000	      3917	80001418	00000013	addi	x0,x0,0	  x0:0x00000000
       39195000	      3918	8000141c	018000ef	jal	x1,8000141c	  x1=0x8000141c
       39205000	      3919	00000000	00000013	addi	x0,x0,0	  x0:0x00000000
       39215000	      3920	80001430	00000013	addi	x0,x0,0	  x0:0x00000000
       39225000	      3921	80001434	004000ef	jal	x1,80001434	  x1=0x80001434
       39235000	      3922	00000000	00000013	addi	x0,x0,0	  x0:0x00000000
       39245000	      3923	80001434	00000013	addi	x0,x0,0	  x0:0x00000000
       39255000	      3924	80001438	ff9ff36f	jal	x6,80001438	  x6=0x80001438
       39265000	      3925	00000000	00000013	addi	x0,x0,0	  x0:0x00000000
       39275000	      3926	8000142c	00000013	addi	x0,x0,0	  x0:0x00000000
       39285000	      3927	80001430	ff5ff0ef	jal	x1,80001430	  x1=0x80001430
       39295000	      3928	00000000	00000013	addi	x0,x0,0	  x0:0x00000000
       39305000	      3929	80001420	00000013	addi	x0,x0,0	  x0:0x00000000
       39315000	      3930	80001424	ffdff96f	jal	x18,80001424	 x18=0x80001424
       39325000	      3931	00000000	00000013	addi	x0,x0,0	  x0:0x00000000
       39335000	      3932	8000141c	00000013	addi	x0,x0,0	  x0:0x00000000
       39345000	      3933	80001420	00c000ef	jal	x1,80001420	  x1=0x80001420
       39355000	      3934	00000000	00000013	addi	x0,x0,0	  x0:0x00000000
       39365000	      3935	80001428	00000013	addi	x0,x0,0	  x0:0x00000000
       39375000	      3936	8000142c	0100016f	jal	x2,8000142c	  x2=0x8000142c
       39385000	      3937	00000000	00000013	addi	x0,x0,0	  x0:0x00000000
       39395000	      3938	80001438	00000013	addi	x0,x0,0	  x0:0x00000000
       39405000	      3939	8000143c	0019cfb3	xor	x31,x19,x1	 x19:0x00000000  x1:0x80001420 x31=0x80001420
       39415000	      3940	80001440	02c00b6f	jal	x22,80001440	 x22=0x80001440
       39425000	      3941	00000000	00000013	addi	x0,x0,0	  x0:0x00000000
       39435000	      3942	80001468	00000013	addi	x0,x0,0	  x0:0x00000000
       39445000	      3943	8000146c	ff9ff0ef	jal	x1,8000146c	  x1=0x8000146c
       39455000	      3944	00000000	00000013	addi	x0,x0,0	  x0:0x00000000
       39465000	      3945	80001460	00000013	addi	x0,x0,0	  x0:0x00000000
       39475000	      3946	80001464	00c000ef	jal	x1,80001464	  x1=0x80001464
       39485000	      3947	00000000	00000013	addi	x0,x0,0	  x0:0x00000000
       39495000	      3948	8000146c	00000013	addi	x0,x0,0	  x0:0x00000000
       39505000	      3949	80001470	fd5ff36f	jal	x6,80001470	  x6=0x80001470
       39515000	      3950	00000000	00000013	addi	x0,x0,0	  x0:0x00000000
       39525000	      3951	80001440	00000013	addi	x0,x0,0	  x0:0x00000000
       39535000	      3952	80001444	00c0036f	jal	x6,80001444	  x6=0x80001444
       39545000	      3953	00000000	00000013	addi	x0,x0,0	  x0:0x00000000
       39555000	      3954	8000144c	00000013	addi	x0,x0,0	  x0:0x00000000
       39565000	      3955	80001450	024000ef	jal	x1,80001450	  x1=0x80001450
       39575000	      3956	00000000	00000013	addi	x0,x0,0	  x0:0x00000000
       39585000	      3957	80001470	00000013	addi	x0,x0,0	  x0:0x00000000
       39595000	      3958	80001474	010006ef	jal	x13,80001474	 x13=0x80001474
       39605000	      3959	00000000	00000013	addi	x0,x0,0	  x0:0x00000000
       39615000	      3960	80001480	00000013	addi	x0,x0,0	  x0:0x00000000
       39625000	      3961	80001484	004000ef	jal	x1,80001484	  x1=0x80001484
       39635000	      3962	00000000	00000013	addi	x0,x0,0	  x0:0x00000000
       39645000	      3963	80001484	00000013	addi	x0,x0,0	  x0:0x00000000
       39655000	      3964	80001488	fc5ff1ef	jal	x3,80001488	  x3=0x80001488
       39665000	      3965	00000000	00000013	addi	x0,x0,0	  x0:0x00000000
       39675000	      3966	80001448	00000013	addi	x0,x0,0	  x0:0x00000000
       39685000	      3967	8000144c	040000ef	jal	x1,8000144c	  x1=0x8000144c
       39695000	      3968	00000000	00000013	addi	x0,x0,0	  x0:0x00000000
       39705000	      3969	80001488	00000013	addi	x0,x0,0	  x0:0x00000000
       39715000	      3970	8000148c	fcdff0ef	jal	x1,8000148c	  x1=0x8000148c
       39725000	      3971	00000000	00000013	addi	x0,x0,0	  x0:0x00000000
       39735000	      3972	80001454	00000013	addi	x0,x0,0	  x0:0x00000000
       39745000	      3973	80001458	004000ef	jal	x1,80001458	  x1=0x80001458
       39755000	      3974	00000000	00000013	addi	x0,x0,0	  x0:0x00000000
       39765000	      3975	80001458	00000013	addi	x0,x0,0	  x0:0x00000000
       39775000	      3976	8000145c	fedff36f	jal	x6,8000145c	  x6=0x8000145c
       39785000	      3977	00000000	00000013	addi	x0,x0,0	  x0:0x00000000
       39795000	      3978	80001444	00000013	addi	x0,x0,0	  x0:0x00000000
       39805000	      3979	80001448	0480066f	jal	x12,80001448	 x12=0x80001448
       39815000	      3980	00000000	00000013	addi	x0,x0,0	  x0:0x00000000
       39825000	      3981	8000148c	00000013	addi	x0,x0,0	  x0:0x00000000
       39835000	      3982	80001490	fedff0ef	jal	x1,80001490	  x1=0x80001490
       39845000	      3983	00000000	00000013	addi	x0,x0,0	  x0:0x00000000
       39855000	      3984	80001478	00000013	addi	x0,x0,0	  x0:0x00000000
       39865000	      3985	8000147c	fd9ff0ef	jal	x1,8000147c	  x1=0x8000147c
       39875000	      3986	00000000	00000013	addi	x0,x0,0	  x0:0x00000000
       39885000	      3987	80001450	00000013	addi	x0,x0,0	  x0:0x00000000
       39895000	      3988	80001454	02c000ef	jal	x1,80001454	  x1=0x80001454
       39905000	      3989	00000000	00000013	addi	x0,x0,0	  x0:0x00000000
       39915000	      3990	8000147c	00000013	addi	x0,x0,0	  x0:0x00000000
       39925000	      3991	80001480	ff9ffd6f	jal	x26,80001480	 x26=0x80001480
       39935000	      3992	00000000	00000013	addi	x0,x0,0	  x0:0x00000000
       39945000	      3993	80001474	00000013	addi	x0,x0,0	  x0:0x00000000
       39955000	      3994	80001478	fe9ffc6f	jal	x24,80001478	 x24=0x80001478
       39965000	      3995	00000000	00000013	addi	x0,x0,0	  x0:0x00000000
       39975000	      3996	8000145c	00000013	addi	x0,x0,0	  x0:0x00000000
       39985000	      3997	80001460	0080036f	jal	x6,80001460	  x6=0x80001460
       39995000	      3998	00000000	00000013	addi	x0,x0,0	  x0:0x00000000
       40005000	      3999	80001464	00000013	addi	x0,x0,0	  x0:0x00000000
       40015000	      4000	80001468	02c000ef	jal	x1,80001468	  x1=0x80001468
       40025000	      4001	00000000	00000013	addi	x0,x0,0	  x0:0x00000000
       40035000	      4002	80001490	00000013	addi	x0,x0,0	  x0:0x00000000
       40045000	      4003	80001494	df140b93	addi	x23,x8,-527	  x8:0x8000139c x23=0x8000118d
       40055000	      4004	80001498	02800b6f	jal	x22,80001498	 x22=0x80001498
       40065000	      4005	00000000	00000013	addi	x0,x0,0	  x0:0x00000000
       40075000	      4006	800014bc	00000013	addi	x0,x0,0	  x0:0x00000000
       40085000	      4007	800014c0	00c000ef	jal	x1,800014c0	  x1=0x800014c0
       40095000	      4008	00000000	00000013	addi	x0,x0,0	  x0:0x00000000
       40105000	      4009	800014c8	00000013	addi	x0,x0,0	  x0:0x00000000
       40115000	      4010	800014cc	008000ef	jal	x1,800014cc	  x1=0x800014cc
       40125000	      4011	00000000	00000013	addi	x0,x0,0	  x0:0x00000000
       40135000	      4012	800014d0	00000013	addi	x0,x0,0	  x0:0x00000000
       40145000	      4013	800014d4	fe9ff96f	jal	x18,800014d4	 x18=0x800014d4
       40155000	      4014	00000000	00000013	addi	x0,x0,0	  x0:0x00000000
       40165000	      4015	800014b8	00000013	addi	x0,x0,0	  x0:0x00000000
       40175000	      4016	800014bc	ff5ff0ef	jal	x1,800014bc	  x1=0x800014bc
       40185000	      4017	00000000	00000013	addi	x0,x0,0	  x0:0x00000000
       40195000	      4018	800014ac	00000013	addi	x0,x0,0	  x0:0x00000000
       40205000	      4019	800014b0	054000ef	jal	x1,800014b0	  x1=0x800014b0
       40215000	      4020	00000000	00000013	addi	x0,x0,0	  x0:0x00000000
       40225000	      4021	80001500	00000013	addi	x0,x0,0	  x0:0x00000000
       40235000	      4022	80001504	fc5ff36f	jal	x6,80001504	  x6=0x80001504
       40245000	      4023	00000000	00000013	addi	x0,x0,0	  x0:0x00000000
       40255000	      4024	800014c4	00000013	addi	x0,x0,0	  x0:0x00000000
       40265000	      4025	800014c8	ffdff26f	jal	x4,800014c8	  x4=0x800014c8
       40275000	      4026	00000000	00000013	addi	x0,x0,0	  x0:0x00000000
       40285000	      4027	800014c0	00000013	addi	x0,x0,0	  x0:0x00000000
       40295000	      4028	800014c4	ff5ff5ef	jal	x11,800014c4	 x11=0x800014c4
       40305000	      4029	00000000	00000013	addi	x0,x0,0	  x0:0x00000000
       40315000	      4030	800014b4	00000013	addi	x0,x0,0	  x0:0x00000000
       40325000	      4031	800014b8	04400a6f	jal	x20,800014b8	 x20=0x800014b8
       40335000	      4032	00000000	00000013	addi	x0,x0,0	  x0:0x00000000
       40345000	      4033	800014f8	00000013	addi	x0,x0,0	  x0:0x00000000
       40355000	      4034	800014fc	fe9ff36f	jal	x6,800014fc	  x6=0x800014fc
       40365000	      4035	00000000	00000013	addi	x0,x0,0	  x0:0x00000000
       40375000	      4036	800014e0	00000013	addi	x0,x0,0	  x0:0x00000000
       40385000	      4037	800014e4	ff9ff16f	jal	x2,800014e4	  x2=0x800014e4
       40395000	      4038	00000000	00000013	addi	x0,x0,0	  x0:0x00000000
       40405000	      4039	800014d8	00000013	addi	x0,x0,0	  x0:0x00000000
       40415000	      4040	800014dc	014000ef	jal	x1,800014dc	  x1=0x800014dc
       40425000	      4041	00000000	00000013	addi	x0,x0,0	  x0:0x00000000
       40435000	      4042	800014ec	00000013	addi	x0,x0,0	  x0:0x00000000
       40445000	      4043	800014f0	ff1ff0ef	jal	x1,800014f0	  x1=0x800014f0
       40455000	      4044	00000000	00000013	addi	x0,x0,0	  x0:0x00000000
       40465000	      4045	800014dc	00000013	addi	x0,x0,0	  x0:0x00000000
       40475000	      4046	800014e0	028000ef	jal	x1,800014e0	  x1=0x800014e0
       40485000	      4047	00000000	00000013	addi	x0,x0,0	  x0:0x00000000
       40495000	      4048	80001504	00000013	addi	x0,x0,0	  x0:0x00000000
       40505000	      4049	80001508	fe5ffd6f	jal	x26,80001508	 x26=0x80001508
       40515000	      4050	00000000	00000013	addi	x0,x0,0	  x0:0x00000000
       40525000	      4051	800014e8	00000013	addi	x0,x0,0	  x0:0x00000000
       40535000	      4052	800014ec	fc1ff0ef	jal	x1,800014ec	  x1=0x800014ec
       40545000	      4053	00000000	00000013	addi	x0,x0,0	  x0:0x00000000
       40555000	      4054	800014a8	00000013	addi	x0,x0,0	  x0:0x00000000
       40565000	      4055	800014ac	ff1fffef	jal	x31,800014ac	 x31=0x800014ac
       40575000	      4056	00000000	00000013	addi	x0,x0,0	  x0:0x00000000
       40585000	      4057	80001498	00000013	addi	x0,x0,0	  x0:0x00000000
       40595000	      4058	8000149c	05c000ef	jal	x1,8000149c	  x1=0x8000149c
       40605000	      4059	00000000	00000013	addi	x0,x0,0	  x0:0x00000000
       40615000	      4060	800014f4	00000013	addi	x0,x0,0	  x0:0x00000000
       40625000	      4061	800014f8	fe1ff0ef	jal	x1,800014f8	  x1=0x800014f8
       40635000	      4062	00000000	00000013	addi	x0,x0,0	  x0:0x00000000
       40645000	      4063	800014d4	00000013	addi	x0,x0,0	  x0:0x00000000
       40655000	      4064	800014d8	010000ef	jal	x1,800014d8	  x1=0x800014d8
       40665000	      4065	00000000	00000013	addi	x0,x0,0	  x0:0x00000000
       40675000	      4066	800014e4	00000013	addi	x0,x0,0	  x0:0x00000000
       40685000	      4067	800014e8	fbdff0ef	jal	x1,800014e8	  x1=0x800014e8
       40695000	      4068	00000000	00000013	addi	x0,x0,0	  x0:0x00000000
       40705000	      4069	800014a0	00000013	addi	x0,x0,0	  x0:0x00000000
       40715000	      4070	800014a4	ffdff0ef	jal	x1,800014a4	  x1=0x800014a4
       40725000	      4071	00000000	00000013	addi	x0,x0,0	  x0:0x00000000
       40735000	      4072	8000149c	00000013	addi	x0,x0,0	  x0:0x00000000
       40745000	      4073	800014a0	0140036f	jal	x6,800014a0	  x6=0x800014a0
       40755000	      4074	00000000	00000013	addi	x0,x0,0	  x0:0x00000000
       40765000	      4075	800014b0	00000013	addi	x0,x0,0	  x0:0x00000000
       40775000	      4076	800014b4	04c0036f	jal	x6,800014b4	  x6=0x800014b4
       40785000	      4077	00000000	00000013	addi	x0,x0,0	  x0:0x00000000
       40795000	      4078	800014fc	00000013	addi	x0,x0,0	  x0:0x00000000
       40805000	      4079	80001500	ff5ff36f	jal	x6,80001500	  x6=0x80001500
       40815000	      4080	00000000	00000013	addi	x0,x0,0	  x0:0x00000000
       40825000	      4081	800014f0	00000013	addi	x0,x0,0	  x0:0x00000000
       40835000	      4082	800014f4	fb5ff86f	jal	x16,800014f4	 x16=0x800014f4
       40845000	      4083	00000000	00000013	addi	x0,x0,0	  x0:0x00000000
       40855000	      4084	800014a4	00000013	addi	x0,x0,0	  x0:0x00000000
       40865000	      4085	800014a8	028000ef	jal	x1,800014a8	  x1=0x800014a8
       40875000	      4086	00000000	00000013	addi	x0,x0,0	  x0:0x00000000
       40885000	      4087	800014cc	00000013	addi	x0,x0,0	  x0:0x00000000
       40895000	      4088	800014d0	03c0036f	jal	x6,800014d0	  x6=0x800014d0
       40905000	      4089	00000000	00000013	addi	x0,x0,0	  x0:0x00000000
       40915000	      4090	80001508	00000013	addi	x0,x0,0	  x0:0x00000000
       40925000	      4091	8000150c	0140d593	srli	x11,x1,0x14	  x1:0x800014a8 x11=0x00000800
       40935000	      4092	80001510	00400b6f	jal	x22,80001510	 x22=0x80001510
       40945000	      4093	00000000	00000013	addi	x0,x0,0	  x0:0x00000000
       40955000	      4094	80001510	00000013	addi	x0,x0,0	  x0:0x00000000
       40965000	      4095	80001514	004005ef	jal	x11,80001514	 x11=0x80001514
       40975000	      4096	00000000	00000013	addi	x0,x0,0	  x0:0x00000000
       40985000	      4097	80001514	00000013	addi	x0,x0,0	  x0:0x00000000
       40995000	      4098	80001518	0280096f	jal	x18,80001518	 x18=0x80001518
       41005000	      4099	00000000	00000013	addi	x0,x0,0	  x0:0x00000000
       41015000	      4100	8000153c	00000013	addi	x0,x0,0	  x0:0x00000000
       41025000	      4101	80001540	03c000ef	jal	x1,80001540	  x1=0x80001540
       41035000	      4102	00000000	00000013	addi	x0,x0,0	  x0:0x00000000
       41045000	      4103	80001578	00000013	addi	x0,x0,0	  x0:0x00000000
       41055000	      4104	8000157c	fbdff0ef	jal	x1,8000157c	  x1=0x8000157c
       41065000	      4105	00000000	00000013	addi	x0,x0,0	  x0:0x00000000
       41075000	      4106	80001534	00000013	addi	x0,x0,0	  x0:0x00000000
       41085000	      4107	80001538	02c000ef	jal	x1,80001538	  x1=0x80001538
       41095000	      4108	00000000	00000013	addi	x0,x0,0	  x0:0x00000000
       41105000	      4109	80001560	00000013	addi	x0,x0,0	  x0:0x00000000
       41115000	      4110	80001564	fedff36f	jal	x6,80001564	  x6=0x80001564
       41125000	      4111	00000000	00000013	addi	x0,x0,0	  x0:0x00000000
       41135000	      4112	8000154c	00000013	addi	x0,x0,0	  x0:0x00000000
       41145000	      4113	80001550	ff9ff36f	jal	x6,80001550	  x6=0x80001550
       41155000	      4114	00000000	00000013	addi	x0,x0,0	  x0:0x00000000
       41165000	      4115	80001544	00000013	addi	x0,x0,0	  x0:0x00000000
       41175000	      4116	80001548	ff5ff36f	jal	x6,80001548	  x6=0x80001548
       41185000	      4117	00000000	00000013	addi	x0,x0,0	  x0:0x00000000
       41195000	      4118	80001538	00000013	addi	x0,x0,0	  x0:0x00000000
       41205000	      4119	8000153c	02c0036f	jal	x6,8000153c	  x6=0x8000153c
       41215000	      4120	00000000	00000013	addi	x0,x0,0	  x0:0x00000000
       41225000	      4121	80001564	00000013	addi	x0,x0,0	  x0:0x00000000
       41235000	      4122	80001568	00c000ef	jal	x1,80001568	  x1=0x80001568
       41245000	      4123	00000000	00000013	addi	x0,x0,0	  x0:0x00000000
       41255000	      4124	80001570	00000013	addi	x0,x0,0	  x0:0x00000000
       41265000	      4125	80001574	fb9ff0ef	jal	x1,80001574	  x1=0x80001574
       41275000	      4126	00000000	00000013	addi	x0,x0,0	  x0:0x00000000
       41285000	      4127	80001528	00000013	addi	x0,x0,0	  x0:0x00000000
       41295000	      4128	8000152c	ff5ff86f	jal	x16,8000152c	 x16=0x8000152c
       41305000	      4129	00000000	00000013	addi	x0,x0,0	  x0:0x00000000
       41315000	      4130	8000151c	00000013	addi	x0,x0,0	  x0:0x00000000
       41325000	      4131	80001520	014006ef	jal	x13,80001520	 x13=0x80001520
       41335000	      4132	00000000	00000013	addi	x0,x0,0	  x0:0x00000000
       41345000	      4133	80001530	00000013	addi	x0,x0,0	  x0:0x00000000
       41355000	      4134	80001534	0380036f	jal	x6,80001534	  x6=0x80001534
       41365000	      4135	00000000	00000013	addi	x0,x0,0	  x0:0x00000000
       41375000	      4136	80001568	00000013	addi	x0,x0,0	  x0:0x00000000
       41385000	      4137	8000156c	004000ef	jal	x1,8000156c	  x1=0x8000156c
       41395000	      4138	00000000	00000013	addi	x0,x0,0	  x0:0x00000000
       41405000	      4139	8000156c	00000013	addi	x0,x0,0	  x0:0x00000000
       41415000	      4140	80001570	ff1ff0ef	jal	x1,80001570	  x1=0x80001570
       41425000	      4141	00000000	00000013	addi	x0,x0,0	  x0:0x00000000
       41435000	      4142	8000155c	00000013	addi	x0,x0,0	  x0:0x00000000
       41445000	      4143	80001560	ff5ff36f	jal	x6,80001560	  x6=0x80001560
       41455000	      4144	00000000	00000013	addi	x0,x0,0	  x0:0x00000000
       41465000	      4145	80001550	00000013	addi	x0,x0,0	  x0:0x00000000
       41475000	      4146	80001554	008000ef	jal	x1,80001554	  x1=0x80001554
       41485000	      4147	00000000	00000013	addi	x0,x0,0	  x0:0x00000000
       41495000	      4148	80001558	00000013	addi	x0,x0,0	  x0:0x00000000
       41505000	      4149	8000155c	01c003ef	jal	x7,8000155c	  x7=0x8000155c
       41515000	      4150	00000000	00000013	addi	x0,x0,0	  x0:0x00000000
       41525000	      4151	80001574	00000013	addi	x0,x0,0	  x0:0x00000000
       41535000	      4152	80001578	fadff36f	jal	x6,80001578	  x6=0x80001578
       41545000	      4153	00000000	00000013	addi	x0,x0,0	  x0:0x00000000
       41555000	      4154	80001520	00000013	addi	x0,x0,0	  x0:0x00000000
       41565000	      4155	80001524	0040036f	jal	x6,80001524	  x6=0x80001524
       41575000	      4156	00000000	00000013	addi	x0,x0,0	  x0:0x00000000
       41585000	      4157	80001524	00000013	addi	x0,x0,0	  x0:0x00000000
       41595000	      4158	80001528	008000ef	jal	x1,80001528	  x1=0x80001528
       41605000	      4159	00000000	00000013	addi	x0,x0,0	  x0:0x00000000
       41615000	      4160	8000152c	00000013	addi	x0,x0,0	  x0:0x00000000
       41625000	      4161	80001530	01c000ef	jal	x1,80001530	  x1=0x80001530
       41635000	      4162	00000000	00000013	addi	x0,x0,0	  x0:0x00000000
       41645000	      4163	80001548	00000013	addi	x0,x0,0	  x0:0x00000000
       41655000	      4164	8000154c	fd1ff0ef	jal	x1,8000154c	  x1=0x8000154c
       41665000	      4165	00000000	00000013	addi	x0,x0,0	  x0:0x00000000
       41675000	      4166	80001518	00000013	addi	x0,x0,0	  x0:0x00000000
       41685000	      4167	8000151c	03c000ef	jal	x1,8000151c	  x1=0x8000151c
       41695000	      4168	00000000	00000013	addi	x0,x0,0	  x0:0x00000000
       41705000	      4169	80001554	00000013	addi	x0,x0,0	  x0:0x00000000
       41715000	      4170	80001558	fedff0ef	jal	x1,80001558	  x1=0x80001558
       41725000	      4171	00000000	00000013	addi	x0,x0,0	  x0:0x00000000
       41735000	      4172	80001540	00000013	addi	x0,x0,0	  x0:0x00000000
       41745000	      4173	80001544	03c0076f	jal	x14,80001544	 x14=0x80001544
       41755000	      4174	00000000	00000013	addi	x0,x0,0	  x0:0x00000000
       41765000	      4175	8000157c	00000013	addi	x0,x0,0	  x0:0x00000000
       41775000	      4176	80001580	008136b3	sltu	x13,x2,x8	  x2:0x800014e4  x8:0x8000139c x13=0x00000000
       41785000	      4177	80001584	00c00b6f	jal	x22,80001584	 x22=0x80001584
       41795000	      4178	00000000	00000013	addi	x0,x0,0	  x0:0x00000000
       41805000	      4179	8000158c	00000013	addi	x0,x0,0	  x0:0x00000000
       41815000	      4180	80001590	0200016f	jal	x2,80001590	  x2=0x80001590
       41825000	      4181	00000000	00000013	addi	x0,x0,0	  x0:0x00000000
       41835000	      4182	800015ac	00000013	addi	x0,x0,0	  x0:0x00000000
       41845000	      4183	800015b0	0040036f	jal	x6,800015b0	  x6=0x800015b0
       41855000	      4184	00000000	00000013	addi	x0,x0,0	  x0:0x00000000
       41865000	      4185	800015b0	00000013	addi	x0,x0,0	  x0:0x00000000
       41875000	      4186	800015b4	fe5ff0ef	jal	x1,800015b4	  x1=0x800015b4
       41885000	      4187	00000000	00000013	addi	x0,x0,0	  x0:0x00000000
       41895000	      4188	80001594	00000013	addi	x0,x0,0	  x0:0x00000000
       41905000	      4189	80001598	010000ef	jal	x1,80001598	  x1=0x80001598
       41915000	      4190	00000000	00000013	addi	x0,x0,0	  x0:0x00000000
       41925000	      4191	800015a4	00000013	addi	x0,x0,0	  x0:0x00000000
       41935000	      4192	800015a8	fe5ff0ef	jal	x1,800015a8	  x1=0x800015a8
       41945000	      4193	00000000	00000013	addi	x0,x0,0	  x0:0x00000000
       41955000	      4194	80001588	00000013	addi	x0,x0,0	  x0:0x00000000
       41965000	      4195	8000158c	ffdff0ef	jal	x1,8000158c	  x1=0x8000158c
       41975000	      4196	00000000	00000013	addi	x0,x0,0	  x0:0x00000000
       41985000	      4197	80001584	00000013	addi	x0,x0,0	  x0:0x00000000
       41995000	      4198	80001588	00c000ef	jal	x1,80001588	  x1=0x80001588
       42005000	      4199	00000000	00000013	addi	x0,x0,0	  x0:0x00000000
       42015000	      4200	80001590	00000013	addi	x0,x0,0	  x0:0x00000000
       42025000	      4201	80001594	008004ef	jal	x9,80001594	  x9=0x80001594
       42035000	      4202	00000000	00000013	addi	x0,x0,0	  x0:0x00000000
       42045000	      4203	80001598	00000013	addi	x0,x0,0	  x0:0x00000000
       42055000	      4204	8000159c	008003ef	jal	x7,8000159c	  x7=0x8000159c
       42065000	      4205	00000000	00000013	addi	x0,x0,0	  x0:0x00000000
       42075000	      4206	800015a0	00000013	addi	x0,x0,0	  x0:0x00000000
       42085000	      4207	800015a4	ffdff0ef	jal	x1,800015a4	  x1=0x800015a4
       42095000	      4208	00000000	00000013	addi	x0,x0,0	  x0:0x00000000
       42105000	      4209	8000159c	00000013	addi	x0,x0,0	  x0:0x00000000
       42115000	      4210	800015a0	00c000ef	jal	x1,800015a0	  x1=0x800015a0
       42125000	      4211	00000000	00000013	addi	x0,x0,0	  x0:0x00000000
       42135000	      4212	800015a8	00000013	addi	x0,x0,0	  x0:0x00000000
       42145000	      4213	800015ac	00c000ef	jal	x1,800015ac	  x1=0x800015ac
       42155000	      4214	00000000	00000013	addi	x0,x0,0	  x0:0x00000000
       42165000	      4215	800015b4	00000013	addi	x0,x0,0	  x0:0x00000000
       42175000	      4216	800015b8	00fe22b3	slt	x5,x28,x15	 x28:0x800013c0 x15:0x800012b4  x5=0x00000000
       42185000	      4217	800015bc	03000b6f	jal	x22,800015bc	 x22=0x800015bc
       42195000	      4218	00000000	00000013	addi	x0,x0,0	  x0:0x00000000
       42205000	      4219	800015e8	00000013	addi	x0,x0,0	  x0:0x00000000
       42215000	      4220	800015ec	ff9ffe6f	jal	x28,800015ec	 x28=0x800015ec
       42225000	      4221	00000000	00000013	addi	x0,x0,0	  x0:0x00000000
       42235000	      4222	800015e0	00000013	addi	x0,x0,0	  x0:0x00000000
       42245000	      4223	800015e4	0100036f	jal	x6,800015e4	  x6=0x800015e4
       42255000	      4224	00000000	00000013	addi	x0,x0,0	  x0:0x00000000
       42265000	      4225	800015f0	00000013	addi	x0,x0,0	  x0:0x00000000
       42275000	      4226	800015f4	fd1ff36f	jal	x6,800015f4	  x6=0x800015f4
       42285000	      4227	00000000	00000013	addi	x0,x0,0	  x0:0x00000000
       42295000	      4228	800015c0	00000013	addi	x0,x0,0	  x0:0x00000000
       42305000	      4229	800015c4	024000ef	jal	x1,800015c4	  x1=0x800015c4
       42315000	      4230	00000000	00000013	addi	x0,x0,0	  x0:0x00000000
       42325000	      4231	800015e4	00000013	addi	x0,x0,0	  x0:0x00000000
       42335000	      4232	800015e8	fe5ff0ef	jal	x1,800015e8	  x1=0x800015e8
       42345000	      4233	00000000	00000013	addi	x0,x0,0	  x0:0x00000000
       42355000	      4234	800015c8	00000013	addi	x0,x0,0	  x0:0x00000000
       42365000	      4235	800015cc	ff5ff0ef	jal	x1,800015cc	  x1=0x800015cc
       42375000	      4236	00000000	00000013	addi	x0,x0,0	  x0:0x00000000
       42385000	      4237	800015bc	00000013	addi	x0,x0,0	  x0:0x00000000
       42395000	      4238	800015c0	0100036f	jal	x6,800015c0	  x6=0x800015c0
       42405000	      4239	00000000	00000013	addi	x0,x0,0	  x0:0x00000000
       42415000	      4240	800015cc	00000013	addi	x0,x0,0	  x0:0x00000000
       42425000	      4241	800015d0	00c000ef	jal	x1,800015d0	  x1=0x800015d0
       42435000	      4242	00000000	00000013	addi	x0,x0,0	  x0:0x00000000
       42445000	      4243	800015d8	00000013	addi	x0,x0,0	  x0:0x00000000
       42455000	      4244	800015dc	ffdff0ef	jal	x1,800015dc	  x1=0x800015dc
       42465000	      4245	00000000	00000013	addi	x0,x0,0	  x0:0x00000000
       42475000	      4246	800015d4	00000013	addi	x0,x0,0	  x0:0x00000000
       42485000	      4247	800015d8	028000ef	jal	x1,800015d8	  x1=0x800015d8
       42495000	      4248	00000000	00000013	addi	x0,x0,0	  x0:0x00000000
       42505000	      4249	800015fc	00000013	addi	x0,x0,0	  x0:0x00000000
       42515000	      4250	80001600	fd5ff0ef	jal	x1,80001600	  x1=0x80001600
       42525000	      4251	00000000	00000013	addi	x0,x0,0	  x0:0x00000000
       42535000	      4252	800015d0	00000013	addi	x0,x0,0	  x0:0x00000000
       42545000	      4253	800015d4	02400fef	jal	x31,800015d4	 x31=0x800015d4
       42555000	      4254	00000000	00000013	addi	x0,x0,0	  x0:0x00000000
       42565000	      4255	800015f4	00000013	addi	x0,x0,0	  x0:0x00000000
       42575000	      4256	800015f8	ff9ff5ef	jal	x11,800015f8	 x11=0x800015f8
       42585000	      4257	00000000	00000013	addi	x0,x0,0	  x0:0x00000000
       42595000	      4258	800015ec	00000013	addi	x0,x0,0	  x0:0x00000000
       42605000	      4259	800015f0	00c000ef	jal	x1,800015f0	  x1=0x800015f0
       42615000	      4260	00000000	00000013	addi	x0,x0,0	  x0:0x00000000
       42625000	      4261	800015f8	00000013	addi	x0,x0,0	  x0:0x00000000
       42635000	      4262	800015fc	fe5ff0ef	jal	x1,800015fc	  x1=0x800015fc
       42645000	      4263	00000000	00000013	addi	x0,x0,0	  x0:0x00000000
       42655000	      4264	800015dc	00000013	addi	x0,x0,0	  x0:0x00000000
       42665000	      4265	800015e0	fe9ff36f	jal	x6,800015e0	  x6=0x800015e0
       42675000	      4266	00000000	00000013	addi	x0,x0,0	  x0:0x00000000
       42685000	      4267	800015c4	00000013	addi	x0,x0,0	  x0:0x00000000
       42695000	      4268	800015c8	03c009ef	jal	x19,800015c8	 x19=0x800015c8
       42705000	      4269	00000000	00000013	addi	x0,x0,0	  x0:0x00000000
       42715000	      4270	80001600	00000013	addi	x0,x0,0	  x0:0x00000000
       42725000	      4271	80001604	4c943c93	sltiu	x25,x8,1225	  x8:0x8000139c x25=0x00000000
       42735000	      4272	80001608	40af8b33	sub	x22,x31,x10	 x31:0x800015d4 x10:0x00000001 x22=0x800015d3
       42745000	      4273	8000160c	8f096413	ori	x8,x18,-1808	 x18:0x80001518  x8=0xfffffdf8
       42755000	      4274	80001610	00364463	blt	x12,x3,80001618	 x12:0x80001448  x3:0x80001488
       42765000	      4275	00000000	00000013	addi	x0,x0,0	  x0:0x00000000
       42775000	      4276	80001614	00000013	addi	x0,x0,0	  x0:0x00000000
       42785000	      4277	80001618	41f65913	srai	x18,x12,0x1f	 x12:0x80001448 x18=0xffffffff
       42795000	      4278	8000161c	40b182b3	sub	x5,x3,x11	  x3:0x80001488 x11:0x800015f8  x5=0xfffffe90
       42805000	      4279	80001620	0154da63	bge	x9,x21,80001634	  x9:0x80001594 x21:0x80009f24
       42815000	      4280	80001624	0149d233	srl	x4,x19,x20	 x19:0x800015c8 x20:0x800014b8  x4=0x00000080
       42825000	      4281	80001628	0d312213	slti	x4,x2,211	  x2:0x80001590  x4=0x00000001
       42835000	      4282	8000162c	0057e863	bltu	x15,x5,8000163c	 x15:0x800012b4  x5:0xfffffe90
       42845000	      4283	00000000	00000013	addi	x0,x0,0	  x0:0x00000000
       42855000	      4284	80001638	00000013	addi	x0,x0,0	  x0:0x00000000
       42865000	      4285	8000163c	02c26063	bltu	x4,x12,8000165c	  x4:0x00000001 x12:0x80001448
       42875000	      4286	00000000	00000013	addi	x0,x0,0	  x0:0x00000000
       42885000	      4287	80001658	00000013	addi	x0,x0,0	  x0:0x00000000
       42895000	      4288	8000165c	00f11633	sll	x12,x2,x15	  x2:0x80001590 x15:0x800012b4 x12=0x59000000
       42905000	      4289	80001660	00271263	bne	x14,x2,80001664	 x14:0x80001544  x2:0x80001590
       42915000	      4290	00000000	00000013	addi	x0,x0,0	  x0:0x00000000
       42925000	      4291	80001660	00000013	addi	x0,x0,0	  x0:0x00000000
       42935000	      4292	80001664	f1cf2893	slti	x17,x30,-228	 x30:0x00000000 x17=0x00000000
       42945000	      4293	80001668	024f1a63	bne	x30,x4,8000169c	 x30:0x00000000  x4:0x00000001
       42955000	      4294	00000000	00000013	addi	x0,x0,0	  x0:0x00000000
       42965000	      4295	80001698	00000013	addi	x0,x0,0	  x0:0x00000000
       42975000	      4296	8000169c	0102d1b3	srl	x3,x5,x16	  x5:0xfffffe90 x16:0x8000152c  x3=0x000fffff
       42985000	      4297	800016a0	00b97bb3	and	x23,x18,x11	 x18:0xffffffff x11:0x800015f8 x23=0x800015f8
       42995000	      4298	800016a4	01be0b33	add	x22,x28,x27	 x28:0x800015ec x27:0x80009fc4 x22=0x0000b5b0
       43005000	      4299	800016a8	1816bb13	sltiu	x22,x13,385	 x13:0x00000000 x22=0x00000001
       43015000	      4300	800016ac	31c66893	ori	x17,x12,796	 x12:0x59000000 x17=0x5900031c
       43025000	      4301	800016b0	013a0933	add	x18,x20,x19	 x20:0x800014b8 x19:0x800015c8 x18=0x00002a80
       43035000	      4302	800016b4	0171b433	sltu	x8,x3,x23	  x3:0x000fffff x23:0x800015f8  x8=0x00000001
       43045000	      4303	800016b8	00b008b3	add	x17,x0,x11	  x0:0x00000000 x11:0x800015f8 x17=0x800015f8
       43055000	      4304	800016bc	01980033	add	x0,x16,x25	 x16:0x8000152c x25:0x00000000
       43065000	      4305	800016c0	7ed8f237	lui	x4,0x7ed8f	  x4=0x7ed8f000
       43075000	      4306	800016c4	01f08733	add	x14,x1,x31	  x1:0x800015fc x31:0x800015d4 x14=0x00002bd0
       43085000	      4307	800016c8	7c3bbc93	sltiu	x25,x23,1987	 x23:0x800015f8 x25=0x00000000
       43095000	      4308	800016cc	9f7ff493	andi	x9,x31,-1545	 x31:0x800015d4  x9=0x800011d4
       43105000	      4309	800016d0	3b26b013	sltiu	x0,x13,946	 x13:0x00000000
       43115000	      4310	800016d4	018b6a33	or	x20,x22,x24	 x22:0x00000001 x24:0x80001478 x20=0x80001479
       43125000	      4311	800016d8	02d57063	bgeu	x10,x13,800016f8	 x10:0x00000001 x13:0x00000000
       43135000	      4312	00000000	00000013	addi	x0,x0,0	  x0:0x00000000
       43145000	      4313	800016f4	00000013	addi	x0,x0,0	  x0:0x00000000
       43155000	      4314	800016f8	00841833	sll	x16,x8,x8	  x8:0x00000001  x8:0x00000001 x16=0x00000002
       43165000	      4315	800016fc	c595a913	slti	x18,x11,-935	 x11:0x800015f8 x18=0x00000001
       43175000	      4316	80001700	fd310637	lui	x12,0xfd310	 x12=0xfd310000
       43185000	      4317	80001704	01c39c93	slli	x25,x7,0x1c	  x7:0x8000159c x25=0xc0000000
       43195000	      4318	80001708	4323b693	sltiu	x13,x7,1074	  x7:0x8000159c x13=0x00000000
       43205000	      4319	8000170c	00ce7033	and	x0,x28,x12	 x28:0x800015ec x12:0xfd310000
       43215000	      4320	80001710	415d5cb3	sra	x25,x26,x21	 x26:0x80001508 x21:0x80009f24 x25=0xf8000150
       43225000	      4321	80001714	01f07d33	and	x26,x0,x31	  x0:0x00000000 x31:0x800015d4 x26=0x00000000
       43235000	      4322	80001718	4175d893	srai	x17,x11,0x17	 x11:0x800015f8 x17=0xffffff00
       43245000	      4323	8000171c	986b5b17	auipc	x22,0x986b5	 x22=0x186b6718
       43255000	      4324	80001720	00e9e2b3	or	x5,x19,x14	 x19:0x800015c8 x14:0x00002bd0  x5=0x80003fd8
       43265000	      4325	80001724	000bf263	bgeu	x23,x0,80001728	 x23:0x800015f8  x0:0x00000000
       43275000	      4326	00000000	00000013	addi	x0,x0,0	  x0:0x00000000
       43285000	      4327	80001724	00000013	addi	x0,x0,0	  x0:0x00000000
       43295000	      4328	80001728	238f2837	lui	x16,0x238f2	 x16=0x238f2000
       43305000	      4329	8000172c	02914263	blt	x2,x9,80001750	  x2:0x80001590  x9:0x800011d4
       43315000	      4330	80001730	00ec35b3	sltu	x11,x24,x14	 x24:0x80001478 x14:0x00002bd0 x11=0x00000000
       43325000	      4331	80001734	05536993	ori	x19,x6,85	  x6:0x800015e0 x19=0x800015f5
       43335000	      4332	80001738	03679663	bne	x15,x22,80001764	 x15:0x800012b4 x22:0x186b6718
       43345000	      4333	00000000	00000013	addi	x0,x0,0	  x0:0x00000000
       43355000	      4334	80001760	00000013	addi	x0,x0,0	  x0:0x00000000
       43365000	      4335	80001764	0499f063	bgeu	x19,x9,800017a4	 x19:0x800015f5  x9:0x800011d4
       43375000	      4336	00000000	00000013	addi	x0,x0,0	  x0:0x00000000
       43385000	      4337	800017a0	00000013	addi	x0,x0,0	  x0:0x00000000
       43395000	      4338	800017a4	cb3f4937	lui	x18,0xcb3f4	 x18=0xcb3f4000
       43405000	      4339	800017a8	05b6f063	bgeu	x13,x27,800017e8	 x13:0x00000000 x27:0x80009fc4
       43415000	      4340	800017ac	c83e2113	slti	x2,x28,-893	 x28:0x800015ec  x2=0x00000001
       43425000	      4341	800017b0	c607c093	xori	x1,x15,-928	 x15:0x800012b4  x1=0x7fffeed4
       43435000	      4342	800017b4	01025613	srli	x12,x4,0x10	  x4:0x7ed8f000 x12=0x00007ed8
       43445000	      4343	800017b8	f5076c13	ori	x24,x14,-176	 x14:0x00002bd0 x24=0xffffffd0
       43455000	      4344	800017bc	41c10333	sub	x6,x2,x28	  x2:0x00000001 x28:0x800015ec  x6=0x7fffea15
       43465000	      4345	800017c0	0087cfb3	xor	x31,x15,x8	 x15:0x800012b4  x8:0x00000001 x31=0x800012b5
       43475000	      4346	800017c4	03151c63	bne	x10,x17,800017fc	 x10:0x00000001 x17:0xffffff00
       43485000	      4347	00000000	00000013	addi	x0,x0,0	  x0:0x00000000
       43495000	      4348	800017f8	00000013	addi	x0,x0,0	  x0:0x00000000
       43505000	      4349	800017fc	04ede063	bltu	x27,x14,8000183c	 x27:0x80009fc4 x14:0x00002bd0
       43515000	      4350	80001800	008b7fb3	and	x31,x22,x8	 x22:0x186b6718  x8:0x00000001 x31=0x00000000
       43525000	      4351	80001804	c0ac0837	lui	x16,0xc0ac0	 x16=0xc0ac0000
       43535000	      4352	80001808	02fce063	bltu	x25,x15,80001828	 x25:0xf8000150 x15:0x800012b4
       43545000	      4353	8000180c	bd33b513	sltiu	x10,x7,-1069	  x7:0x8000159c x10=0x00000001
       43555000	      4354	80001810	406e0e33	sub	x28,x28,x6	 x28:0x800015ec  x6:0x7fffea15 x28=0x00002bd7
       43565000	      4355	80001814	e0c67093	andi	x1,x12,-500	 x12:0x00007ed8  x1=0x00007e08
       43575000	      4356	80001818	41b45613	srai	x12,x8,0x1b	  x8:0x00000001 x12=0x00000000
       43585000	      4357	8000181c	05b97863	bgeu	x18,x27,8000186c	 x18:0xcb3f4000 x27:0x80009fc4
       43595000	      4358	00000000	00000013	addi	x0,x0,0	  x0:0x00000000
       43605000	      4359	80001868	00000013	addi	x0,x0,0	  x0:0x00000000
       43615000	      4360	8000186c	411754b3	sra	x9,x14,x17	 x14:0x00002bd0 x17:0xffffff00  x9=0x00002bd0
       43625000	      4361	80001870	015aed33	or	x26,x21,x21	 x21:0x80009f24 x21:0x80009f24 x26=0x80009f24
       43635000	      4362	80001874	1e2f3217	auipc	x4,0x1e2f3	  x4=0x9e2f4870
       43645000	      4363	80001878	031a6263	bltu	x20,x17,8000189c	 x20:0x80001479 x17:0xffffff00
       43655000	      4364	00000000	00000013	addi	x0,x0,0	  x0:0x00000000
       43665000	      4365	80001898	00000013	addi	x0,x0,0	  x0:0x00000000
       43675000	      4366	8000189c	00f952b3	srl	x5,x18,x15	 x18:0xcb3f4000 x15:0x800012b4  x5=0x00000cb3
       43685000	      4367	800018a0	0043d193	srli	x3,x7,0x4	  x7:0x8000159c  x3=0x08000159
       43695000	      4368	800018a4	41dcde33	sra	x28,x25,x29	 x25:0xf8000150 x29:0x80001360 x28=0xf8000150
       43705000	      4369	800018a8	00b319b3	sll	x19,x6,x11	  x6:0x7fffea15 x11:0x00000000 x19=0x7fffea15
       43715000	      4370	800018ac	026c8a63	beq	x25,x6,800018e0	 x25:0xf8000150  x6:0x7fffea15
       43725000	      4371	800018b0	006155b3	srl	x11,x2,x6	  x2:0x00000001  x6:0x7fffea15 x11=0x00000000
       43735000	      4372	800018b4	002e6263	bltu	x28,x2,800018b8	 x28:0xf8000150  x2:0x00000001
       43745000	      4373	800018b8	9b81bc93	sltiu	x25,x3,-1608	  x3:0x08000159 x25=0x00000001
       43755000	      4374	800018bc	00b1f713	andi	x14,x3,11	  x3:0x08000159 x14=0x00000009
       43765000	      4375	800018c0	02fcc063	blt	x25,x15,800018e0	 x25:0x00000001 x15:0x800012b4
       43775000	      4376	800018c4	02c0f063	bgeu	x1,x12,800018e4	  x1:0x00007e08 x12:0x00000000
       43785000	      4377	00000000	00000013	addi	x0,x0,0	  x0:0x00000000
       43795000	      4378	800018e0	00000013	addi	x0,x0,0	  x0:0x00000000
       43805000	      4379	800018e4	848b4a17	auipc	x20,0x848b4	 x20=0x048b58e0
       43815000	      4380	800018e8	da25e393	ori	x7,x11,-606	 x11:0x00000000  x7=0xfffffda2
       43825000	      4381	800018ec	01c79263	bne	x15,x28,800018f0	 x15:0x800012b4 x28:0xf8000150
       43835000	      4382	00000000	00000013	addi	x0,x0,0	  x0:0x00000000
       43845000	      4383	800018ec	00000013	addi	x0,x0,0	  x0:0x00000000
       43855000	      4384	800018f0	76034b93	xori	x23,x6,1888	  x6:0x7fffea15 x23=0x7fffed75
       43865000	      4385	800018f4	002c37b3	sltu	x15,x24,x2	 x24:0xffffffd0  x2:0x00000001 x15=0x00000000
       43875000	      4386	800018f8	047a6063	bltu	x20,x7,80001938	 x20:0x048b58e0  x7:0xfffffda2
       43885000	      4387	00000000	00000013	addi	x0,x0,0	  x0:0x00000000
       43895000	      4388	80001934	00000013	addi	x0,x0,0	  x0:0x00000000
       43905000	      4389	80001938	b6fda313	slti	x6,x27,-1169	 x27:0x80009fc4  x6=0x00000001
       43915000	      4390	8000193c	01fed913	srli	x18,x29,0x1f	 x29:0x80001360 x18=0x00000001
       43925000	      4391	80001940	0240fc63	bgeu	x1,x4,80001978	  x1:0x00007e08  x4:0x9e2f4870
       43935000	      4392	80001944	0311ca63	blt	x3,x17,80001978	  x3:0x08000159 x17:0xffffff00
       43945000	      4393	80001948	00931313	slli	x6,x6,0x9	  x6:0x00000001  x6=0x00000200
       43955000	      4394	8000194c	41e20733	sub	x14,x4,x30	  x4:0x9e2f4870 x30:0x00000000 x14=0x9e2f4870
       43965000	      4395	80001950	04b86263	bltu	x16,x11,80001994	 x16:0xc0ac0000 x11:0x00000000
       43975000	      4396	80001954	2733fe13	andi	x28,x7,627	  x7:0xfffffda2 x28=0x00000022
       43985000	      4397	80001958	00000013	addi	x0,x0,0	  x0:0x00000000
       43995000	      4398	8000195c	d21ae813	ori	x16,x21,-735	 x21:0x80009f24 x16=0xffffff25
       44005000	      4399	80001960	000a1533	sll	x10,x20,x0	 x20:0x048b58e0  x0:0x00000000 x10=0x048b58e0
       44015000	      4400	80001964	4125db93	srai	x23,x11,0x12	 x11:0x00000000 x23=0x00000000
       44025000	      4401	80001968	01ebc463	blt	x23,x30,80001970	 x23:0x00000000 x30:0x00000000
       44035000	      4402	8000196c	15454eb7	lui	x29,0x15454	 x29=0x15454000
       44045000	      4403	80001970	00420e63	beq	x4,x4,8000198c	  x4:0x9e2f4870  x4:0x9e2f4870
       44055000	      4404	00000000	00000013	addi	x0,x0,0	  x0:0x00000000
       44065000	      4405	80001988	00000013	addi	x0,x0,0	  x0:0x00000000
       44075000	      4406	8000198c	006d8133	add	x2,x27,x6	 x27:0x80009fc4  x6:0x00000200  x2=0x8000a1c4
       44085000	      4407	80001990	00653733	sltu	x14,x10,x6	 x10:0x048b58e0  x6:0x00000200 x14=0x00000000
       44095000	      4408	80001994	039f6a63	bltu	x30,x25,800019c8	 x30:0x00000000 x25:0x00000001
       44105000	      4409	00000000	00000013	addi	x0,x0,0	  x0:0x00000000
       44115000	      4410	800019c4	00000013	addi	x0,x0,0	  x0:0x00000000
       44125000	      4411	800019c8	41b4d3b3	sra	x7,x9,x27	  x9:0x00002bd0 x27:0x80009fc4  x7=0x000002bd
       44135000	      4412	800019cc	015a9fb3	sll	x31,x21,x21	 x21:0x80009f24 x21:0x80009f24 x31=0x0009f240
       44145000	      4413	800019d0	0176df93	srli	x31,x13,0x17	 x13:0x00000000 x31=0x00000000
       44155000	      4414	800019d4	ccf4ad13	slti	x26,x9,-817	  x9:0x00002bd0 x26=0x00000000
       44165000	      4415	800019d8	0197fc33	and	x24,x15,x25	 x15:0x00000000 x25:0x00000001 x24=0x00000000
       44175000	      4416	800019dc	00a583b3	add	x7,x11,x10	 x11:0x00000000 x10:0x048b58e0  x7=0x048b58e0
       44185000	      4417	800019e0	19618d13	addi	x26,x3,406	  x3:0x08000159 x26=0x080002ef
       44195000	      4418	800019e4	00915893	srli	x17,x2,0x9	  x2:0x8000a1c4 x17=0x00400050
       44205000	      4419	800019e8	ab4eca13	xori	x20,x29,-1356	 x29:0x15454000 x20=0xeababab4
       44215000	      4420	800019ec	0175ca33	xor	x20,x11,x23	 x11:0x00000000 x23:0x00000000 x20=0x00000000
       44225000	      4421	800019f0	0a2e7913	andi	x18,x28,162	 x28:0x00000022 x18=0x00000022
       44235000	      4422	800019f4	04c47863	bgeu	x8,x12,80001a44	  x8:0x00000001 x12:0x00000000
       44245000	      4423	00000000	00000013	addi	x0,x0,0	  x0:0x00000000
       44255000	      4424	80001a40	00000013	addi	x0,x0,0	  x0:0x00000000
       44265000	      4425	80001a44	bf93f813	andi	x16,x7,-1031	  x7:0x048b58e0 x16=0x048b58e0
       44275000	      4426	80001a48	ffad8713	addi	x14,x27,-6	 x27:0x80009fc4 x14=0x80009fbe
       44285000	      4427	80001a4c	018b4e33	xor	x28,x22,x24	 x22:0x186b6718 x24:0x00000000 x28=0x186b6718
       44295000	      4428	80001a50	00626263	bltu	x4,x6,80001a54	  x4:0x9e2f4870  x6:0x00000200
       44305000	      4429	80001a54	00c1f933	and	x18,x3,x12	  x3:0x08000159 x12:0x00000000 x18=0x00000000
       44315000	      4430	80001a58	00998233	add	x4,x19,x9	 x19:0x7fffea15  x9:0x00002bd0  x4=0x800015e5
       44325000	      4431	80001a5c	b687a093	slti	x1,x15,-1176	 x15:0x00000000  x1=0x00000000
       44335000	      4432	80001a60	00000013	addi	x0,x0,0	  x0:0x00000000
       44345000	      4433	80001a64	01ab5bb3	srl	x23,x22,x26	 x22:0x186b6718 x26:0x080002ef x23=0x000030d6
       44355000	      4434	80001a68	e378ea17	auipc	x20,0xe378e	 x20=0x6378fa64
       44365000	      4435	80001a6c	01d5f3b3	and	x7,x11,x29	 x11:0x00000000 x29:0x15454000  x7=0x00000000
       44375000	      4436	80001a70	0104ed33	or	x26,x9,x16	  x9:0x00002bd0 x16:0x048b58e0 x26=0x048b7bf0
       44385000	      4437	80001a74	4534ce13	xori	x28,x9,1107	  x9:0x00002bd0 x28=0x00002f83
       44395000	      4438	80001a78	002c9263	bne	x25,x2,80001a7c	 x25:0x00000001  x2:0x8000a1c4
       44405000	      4439	00000000	00000013	addi	x0,x0,0	  x0:0x00000000
       44415000	      4440	80001a78	00000013	addi	x0,x0,0	  x0:0x00000000
       44425000	      4441	80001a7c	bafe3d13	sltiu	x26,x28,-1105	 x28:0x00002f83 x26=0x00000001
       44435000	      4442	80001a80	02d67263	bgeu	x12,x13,80001aa4	 x12:0x00000000 x13:0x00000000
       44445000	      4443	00000000	00000013	addi	x0,x0,0	  x0:0x00000000
       44455000	      4444	80001aa0	00000013	addi	x0,x0,0	  x0:0x00000000
       44465000	      4445	80001aa4	8b139e97	auipc	x29,0x8b139	 x29=0x0b13aaa0
       44475000	      4446	80001aa8	028f0063	beq	x30,x8,80001ac8	 x30:0x00000000  x8:0x00000001
       44485000	      4447	80001aac	00e97933	and	x18,x18,x14	 x18:0x00000000 x14:0x80009fbe x18=0x00000000
       44495000	      4448	80001ab0	c498b737	lui	x14,0xc498b	 x14=0xc498b000
       44505000	      4449	80001ab4	6ea7be13	sltiu	x28,x15,1770	 x15:0x00000000 x28=0x00000001
       44515000	      4450	80001ab8	417a81b3	sub	x3,x21,x23	 x21:0x80009f24 x23:0x000030d6  x3=0x80006e4e
       44525000	      4451	80001abc	0048f463	bgeu	x17,x4,80001ac4	 x17:0x00400050  x4:0x800015e5
       44535000	      4452	80001ac0	402b5e33	sra	x28,x22,x2	 x22:0x186b6718  x2:0x8000a1c4 x28=0x0186b671
       44545000	      4453	80001ac4	412b80b3	sub	x1,x23,x18	 x23:0x000030d6 x18:0x00000000  x1=0x000030d6
       44555000	      4454	80001ac8	00e09193	slli	x3,x1,0xe	  x1:0x000030d6  x3=0x0c358000
       44565000	      4455	80001acc	010e6333	or	x6,x28,x16	 x28:0x0186b671 x16:0x048b58e0  x6=0x058ffef1
       44575000	      4456	80001ad0	03568c63	beq	x13,x21,80001b08	 x13:0x00000000 x21:0x80009f24
       44585000	      4457	80001ad4	00e6ce63	blt	x13,x14,80001af0	 x13:0x00000000 x14:0xc498b000
       44595000	      4458	80001ad8	01c49733	sll	x14,x9,x28	  x9:0x00002bd0 x28:0x0186b671 x14=0x57a00000
       44605000	      4459	80001adc	00d3bfb3	sltu	x31,x7,x13	  x7:0x00000000 x13:0x00000000 x31=0x00000000
       44615000	      4460	80001ae0	01547463	bgeu	x8,x21,80001ae8	  x8:0x00000001 x21:0x80009f24
       44625000	      4461	80001ae4	012b1b13	slli	x22,x22,0x12	 x22:0x186b6718 x22=0x9c600000
       44635000	      4462	80001ae8	cf923593	sltiu	x11,x4,-775	  x4:0x800015e5 x11=0x00000001
       44645000	      4463	80001aec	41bbd993	srai	x19,x23,0x1b	 x23:0x000030d6 x19=0x00000000
       44655000	      4464	80001af0	00000013	addi	x0,x0,0	  x0:0x00000000
       44665000	      4465	80001af4	f7adb017	auipc	x0,0xf7adb	
       44675000	      4466	80001af8	61b2eb97	auipc	x23,0x61b2e	 x23=0xe1b2faf4
       44685000	      4467	80001afc	6c4ff837	lui	x16,0x6c4ff	 x16=0x6c4ff000
       44695000	      4468	80001b00	28ec3513	sltiu	x10,x24,654	 x24:0x00000000 x10=0x00000001
       44705000	      4469	80001b04	05871063	bne	x14,x24,80001b44	 x14:0x57a00000 x24:0x00000000
       44715000	      4470	00000000	00000013	addi	x0,x0,0	  x0:0x00000000
       44725000	      4471	80001b40	00000013	addi	x0,x0,0	  x0:0x00000000
       44735000	      4472	80001b44	01ce8cb3	add	x25,x29,x28	 x29:0x0b13aaa0 x28:0x0186b671 x25=0x0c9a6111
       44745000	      4473	80001b48	00b0abb3	slt	x23,x1,x11	  x1:0x000030d6 x11:0x00000001 x23=0x00000000
       44755000	      4474	80001b4c	050f1263	bne	x30,x16,80001b90	 x30:0x00000000 x16:0x6c4ff000
       44765000	      4475	00000000	00000013	addi	x0,x0,0	  x0:0x00000000
       44775000	      4476	80001b8c	00000013	addi	x0,x0,0	  x0:0x00000000
       44785000	      4477	80001b90	05464eb7	lui	x29,0x5464	 x29=0x05464000
       44795000	      4478	80001b94	7255f637	lui	x12,0x7255f	 x12=0x7255f000
       44805000	      4479	80001b98	1b2abe13	sltiu	x28,x21,434	 x21:0x80009f24 x28=0x00000000
       44815000	      4480	80001b9c	cb138013	addi	x0,x7,-847	  x7:0x00000000
       44825000	      4481	80001ba0	0102cbb3	xor	x23,x5,x16	  x5:0x00000cb3 x16:0x6c4ff000 x23=0x6c4ffcb3
       44835000	      4482	80001ba4	401b5813	srai	x16,x22,0x1	 x22:0x9c600000 x16=0xce300000
       44845000	      4483	80001ba8	03bcea63	bltu	x25,x27,80001bdc	 x25:0x0c9a6111 x27:0x80009fc4
       44855000	      4484	00000000	00000013	addi	x0,x0,0	  x0:0x00000000
       44865000	      4485	80001bd8	00000013	addi	x0,x0,0	  x0:0x00000000
       44875000	      4486	80001bdc	02c37063	bgeu	x6,x12,80001bfc	  x6:0x058ffef1 x12:0x7255f000
       44885000	      4487	80001be0	00db65b3	or	x11,x22,x13	 x22:0x9c600000 x13:0x00000000 x11=0x9c600000
       44895000	      4488	80001be4	40c3dc33	sra	x24,x7,x12	  x7:0x00000000 x12:0x7255f000 x24=0x00000000
       44905000	      4489	80001be8	f90a2793	slti	x15,x20,-112	 x20:0x6378fa64 x15=0x00000000
       44915000	      4490	80001bec	00000013	addi	x0,x0,0	  x0:0x00000000
       44925000	      4491	80001bf0	41765393	srai	x7,x12,0x17	 x12:0x7255f000  x7=0x000000e4
       44935000	      4492	80001bf4	21a13a13	sltiu	x20,x2,538	  x2:0x8000a1c4 x20=0x00000000
       44945000	      4493	80001bf8	40395233	sra	x4,x18,x3	 x18:0x00000000  x3:0x0c358000  x4=0x00000000
       44955000	      4494	80001bfc	0127a233	slt	x4,x15,x18	 x15:0x00000000 x18:0x00000000  x4=0x00000000
       44965000	      4495	80001c00	409750b3	sra	x1,x14,x9	 x14:0x57a00000  x9:0x00002bd0  x1=0x000057a0
       44975000	      4496	80001c04	36e83713	sltiu	x14,x16,878	 x16:0xce300000 x14=0x00000000
       44985000	      4497	80001c08	40248133	sub	x2,x9,x2	  x9:0x00002bd0  x2:0x8000a1c4  x2=0x7fff8a0c
       44995000	      4498	80001c0c	260fae17	auipc	x28,0x260fa	 x28=0xa60fbc08
       45005000	      4499	80001c10	016127b3	slt	x15,x2,x22	  x2:0x7fff8a0c x22:0x9c600000 x15=0x00000000
       45015000	      4500	80001c14	011262b3	or	x5,x4,x17	  x4:0x00000000 x17:0x00400050  x5=0x00400050
       45025000	      4501	80001c18	116ecc13	xori	x24,x29,278	 x29:0x05464000 x24=0x05464116
       45035000	      4502	80001c1c	e140c8b7	lui	x17,0xe140c	 x17=0xe140c000
       45045000	      4503	80001c20	bbee2593	slti	x11,x28,-1090	 x28:0xa60fbc08 x11=0x00000001
       45055000	      4504	80001c24	00478eb3	add	x29,x15,x4	 x15:0x00000000  x4:0x00000000 x29=0x00000000
       45065000	      4505	80001c28	798dfc93	andi	x25,x27,1944	 x27:0x80009fc4 x25=0x00000780
       45075000	      4506	80001c2c	00855a63	bge	x10,x8,80001c40	 x10:0x00000001  x8:0x00000001
       45085000	      4507	00000000	00000013	addi	x0,x0,0	  x0:0x00000000
       45095000	      4508	80001c3c	00000013	addi	x0,x0,0	  x0:0x00000000
       45105000	      4509	80001c40	833a3913	sltiu	x18,x20,-1997	 x20:0x00000000 x18=0x00000001
       45115000	      4510	80001c44	00e6c463	blt	x13,x14,80001c4c	 x13:0x00000000 x14:0x00000000
       45125000	      4511	80001c48	01a79793	slli	x15,x15,0x1a	 x15:0x00000000 x15=0x00000000
       45135000	      4512	80001c4c	01371193	slli	x3,x14,0x13	 x14:0x00000000  x3=0x00000000
       45145000	      4513	80001c50	41db5333	sra	x6,x22,x29	 x22:0x9c600000 x29:0x00000000  x6=0x9c600000
       45155000	      4514	80001c54	40c30333	sub	x6,x6,x12	  x6:0x9c600000 x12:0x7255f000  x6=0x2a0a1000
       45165000	      4515	80001c58	ea90a913	slti	x18,x1,-343	  x1:0x000057a0 x18=0x00000000
       45175000	      4516	80001c5c	00df0463	beq	x30,x13,80001c64	 x30:0x00000000 x13:0x00000000
       45185000	      4517	00000000	00000013	addi	x0,x0,0	  x0:0x00000000
       45195000	      4518	80001c60	00000013	addi	x0,x0,0	  x0:0x00000000
       45205000	      4519	80001c64	4fa6fb13	andi	x22,x13,1274	 x13:0x00000000 x22=0x00000000
       45215000	      4520	80001c68	00b4e263	bltu	x9,x11,80001c6c	  x9:0x00002bd0 x11:0x00000001
       45225000	      4521	80001c6c	40628bb3	sub	x23,x5,x6	  x5:0x00400050  x6:0x2a0a1000 x23=0xd635f050
       45235000	      4522	80001c70	007b0e63	beq	x22,x7,80001c8c	 x22:0x00000000  x7:0x000000e4
       45245000	      4523	80001c74	01d47c63	bgeu	x8,x29,80001c8c	  x8:0x00000001 x29:0x00000000
       45255000	      4524	00000000	00000013	addi	x0,x0,0	  x0:0x00000000
       45265000	      4525	80001c88	00000013	addi	x0,x0,0	  x0:0x00000000
       45275000	      4526	80001c8c	00b91533	sll	x10,x18,x11	 x18:0x00000000 x11:0x00000001 x10=0x00000000
       45285000	      4527	80001c90	000f6133	or	x2,x30,x0	 x30:0x00000000  x0:0x00000000  x2=0x00000000
       45295000	      4528	80001c94	d32d4b93	xori	x23,x26,-718	 x26:0x00000001 x23=0xfffffd33
       45305000	      4529	80001c98	01e08533	add	x10,x1,x30	  x1:0x000057a0 x30:0x00000000 x10=0x000057a0
       45315000	      4530	80001c9c	f87c3413	sltiu	x8,x24,-121	 x24:0x05464116  x8=0x00000001
       45325000	      4531	80001ca0	016f0133	add	x2,x30,x22	 x30:0x00000000 x22:0x00000000  x2=0x00000000
       45335000	      4532	80001ca4	00875533	srl	x10,x14,x8	 x14:0x00000000  x8:0x00000001 x10=0x00000000
       45345000	      4533	80001ca8	01ebbcb3	sltu	x25,x23,x30	 x23:0xfffffd33 x30:0x00000000 x25=0x00000000
       45355000	      4534	80001cac	0091dc93	srli	x25,x3,0x9	  x3:0x00000000 x25=0x00000000
       45365000	      4535	80001cb0	009e6333	or	x6,x28,x9	 x28:0xa60fbc08  x9:0x00002bd0  x6=0xa60fbfd8
       45375000	      4536	80001cb4	0174c7b3	xor	x15,x9,x23	  x9:0x00002bd0 x23:0xfffffd33 x15=0xffffd6e3
       45385000	      4537	80001cb8	0346d263	bge	x13,x20,80001cdc	 x13:0x00000000 x20:0x00000000
       45395000	      4538	00000000	00000013	addi	x0,x0,0	  x0:0x00000000
       45405000	      4539	80001cd8	00000013	addi	x0,x0,0	  x0:0x00000000
       45415000	      4540	80001cdc	41bf59b3	sra	x19,x30,x27	 x30:0x00000000 x27:0x80009fc4 x19=0x00000000
       45425000	      4541	80001ce0	014e0463	beq	x28,x20,80001ce8	 x28:0xa60fbc08 x20:0x00000000
       45435000	      4542	80001ce4	016f4233	xor	x4,x30,x22	 x30:0x00000000 x22:0x00000000  x4=0x00000000
       45445000	      4543	80001ce8	df4ef293	andi	x5,x29,-524	 x29:0x00000000  x5=0x00000000
       45455000	      4544	80001cec	2a59e113	ori	x2,x19,677	 x19:0x00000000  x2=0x000002a5
       45465000	      4545	80001cf0	00c86eb3	or	x29,x16,x12	 x16:0xce300000 x12:0x7255f000 x29=0xfe75f000
       45475000	      4546	80001cf4	00000013	addi	x0,x0,0	  x0:0x00000000
       45485000	      4547	80001cf8	00d0b4b3	sltu	x9,x1,x13	  x1:0x000057a0 x13:0x00000000  x9=0x00000000
       45495000	      4548	80001cfc	056bc863	blt	x23,x22,80001d4c	 x23:0xfffffd33 x22:0x00000000
       45505000	      4549	00000000	00000013	addi	x0,x0,0	  x0:0x00000000
       45515000	      4550	80001d48	00000013	addi	x0,x0,0	  x0:0x00000000
       45525000	      4551	80001d4c	0dcb9017	auipc	x0,0xdcb9	
       45535000	      4552	80001d50	adb57213	andi	x4,x10,-1317	 x10:0x00000000  x4=0x00000000
       45545000	      4553	80001d54	4da64d13	xori	x26,x12,1242	 x12:0x7255f000 x26=0x7255f4da
       45555000	      4554	80001d58	4183e913	ori	x18,x7,1048	  x7:0x000000e4 x18=0x000004fc
       45565000	      4555	80001d5c	54818713	addi	x14,x3,1352	  x3:0x00000000 x14=0x00000548
       45575000	      4556	80001d60	bd683693	sltiu	x13,x16,-1066	 x16:0xce300000 x13=0x00000001
       45585000	      4557	80001d64	00126e63	bltu	x4,x1,80001d80	  x4:0x00000000  x1:0x000057a0
       45595000	      4558	00000000	00000013	addi	x0,x0,0	  x0:0x00000000
       45605000	      4559	80001d7c	00000013	addi	x0,x0,0	  x0:0x00000000
       45615000	      4560	80001d80	e1ccec13	ori	x24,x25,-484	 x25:0x00000000 x24=0xfffffe1c
       45625000	      4561	80001d84	01764833	xor	x16,x12,x23	 x12:0x7255f000 x23:0xfffffd33 x16=0x8daa0d33
       45635000	      4562	80001d88	01e3ce63	blt	x7,x30,80001da4	  x7:0x000000e4 x30:0x00000000
       45645000	      4563	80001d8c	018f5133	srl	x2,x30,x24	 x30:0x00000000 x24:0xfffffe1c  x2=0x00000000
       45655000	      4564	80001d90	689d7c17	auipc	x24,0x689d7	 x24=0xe89d8d8c
       45665000	      4565	80001d94	01e05b13	srli	x22,x0,0x1e	  x0:0x00000000 x22=0x00000000
       45675000	      4566	80001d98	011856b3	srl	x13,x16,x17	 x16:0x8daa0d33 x17:0xe140c000 x13=0x8daa0d33
       45685000	      4567	80001d9c	00e81833	sll	x16,x16,x14	 x16:0x8daa0d33 x14:0x00000548 x16=0xaa0d3300
       45695000	      4568	80001da0	00c3d913	srli	x18,x7,0xc	  x7:0x000000e4 x18=0x00000000
       45705000	      4569	80001da4	56bfa593	slti	x11,x31,1387	 x31:0x00000000 x11=0x00000001
       45715000	      4570	80001da8	005602b3	add	x5,x12,x5	 x12:0x7255f000  x5:0x00000000  x5=0x7255f000
       45725000	      4571	80001dac	8d2bf013	andi	x0,x23,-1838	 x23:0xfffffd33
       45735000	      4572	80001db0	35a8c493	xori	x9,x17,858	 x17:0xe140c000  x9=0xe140c35a
       45745000	      4573	80001db4	40a5d193	srai	x3,x11,0xa	 x11:0x00000001  x3=0x00000000
       45755000	      4574	80001db8	480ba317	auipc	x6,0x480ba	  x6=0xc80bbdb4
       45765000	      4575	80001dbc	012428b3	slt	x17,x8,x18	  x8:0x00000001 x18:0x00000000 x17=0x00000000
       45775000	      4576	80001dc0	01da44b3	xor	x9,x20,x29	 x20:0x00000000 x29:0xfe75f000  x9=0xfe75f000
       45785000	      4577	80001dc4	006b51b3	srl	x3,x22,x6	 x22:0x00000000  x6:0xc80bbdb4  x3=0x00000000
       45795000	      4578	80001dc8	001b9c93	slli	x25,x23,0x1	 x23:0xfffffd33 x25=0xfffffa66
       45805000	      4579	80001dcc	41bcd633	sra	x12,x25,x27	 x25:0xfffffa66 x27:0x80009fc4 x12=0xffffffa6
       45815000	      4580	80001dd0	402783b3	sub	x7,x15,x2	 x15:0xffffd6e3  x2:0x00000000  x7=0xffffd6e3
       45825000	      4581	80001dd4	01145f93	srli	x31,x8,0x11	  x8:0x00000001 x31=0x00000000
       45835000	      4582	80001dd8	01dd0bb3	add	x23,x26,x29	 x26:0x7255f4da x29:0xfe75f000 x23=0x70cbe4da
       45845000	      4583	80001ddc	008781b3	add	x3,x15,x8	 x15:0xffffd6e3  x8:0x00000001  x3=0xffffd6e4
       45855000	      4584	80001de0	c1228913	addi	x18,x5,-1006	  x5:0x7255f000 x18=0x7255ec12
       45865000	      4585	80001de4	e2dfc1b7	lui	x3,0xe2dfc	  x3=0xe2dfc000
       45875000	      4586	80001de8	139f0393	addi	x7,x30,313	 x30:0x00000000  x7=0x00000139
       45885000	      4587	80001dec	0168f033	and	x0,x17,x22	 x17:0x00000000 x22:0x00000000
       45895000	      4588	80001df0	0479e063	bltu	x19,x7,80001e30	 x19:0x00000000  x7:0x00000139
       45905000	      4589	00000000	00000013	addi	x0,x0,0	  x0:0x00000000
       45915000	      4590	80001e2c	00000013	addi	x0,x0,0	  x0:0x00000000
       45925000	      4591	80001e30	ee2de813	ori	x16,x27,-286	 x27:0x80009fc4 x16=0xffffffe6
       45935000	      4592	80001e34	00c47463	bgeu	x8,x12,80001e3c	  x8:0x00000001 x12:0xffffffa6
       45945000	      4593	80001e38	b4d5b4b7	lui	x9,0xb4d5b	  x9=0xb4d5b000
       45955000	      4594	80001e3c	011a4a33	xor	x20,x20,x17	 x20:0x00000000 x17:0x00000000 x20=0x00000000
       45965000	      4595	80001e40	00000013	addi	x0,x0,0	  x0:0x00000000
       45975000	      4596	80001e44	00298263	beq	x19,x2,80001e48	 x19:0x00000000  x2:0x00000000
       45985000	      4597	00000000	00000013	addi	x0,x0,0	  x0:0x00000000
       45995000	      4598	80001e44	00000013	addi	x0,x0,0	  x0:0x00000000
       46005000	      4599	80001e48	02d10863	beq	x2,x13,80001e78	  x2:0x00000000 x13:0x8daa0d33
       46015000	      4600	80001e4c	de86f413	andi	x8,x13,-536	 x13:0x8daa0d33  x8=0x8daa0d20
       46025000	      4601	80001e50	d09ee813	ori	x16,x29,-759	 x29:0xfe75f000 x16=0xfffffd09
       46035000	      4602	80001e54	0239d063	bge	x19,x3,80001e74	 x19:0x00000000  x3:0xe2dfc000
       46045000	      4603	00000000	00000013	addi	x0,x0,0	  x0:0x00000000
       46055000	      4604	80001e70	00000013	addi	x0,x0,0	  x0:0x00000000
       46065000	      4605	80001e74	014cbbb3	sltu	x23,x25,x20	 x25:0xfffffa66 x20:0x00000000 x23=0x00000000
       46075000	      4606	80001e78	02d31a63	bne	x6,x13,80001eac	  x6:0xc80bbdb4 x13:0x8daa0d33
       46085000	      4607	00000000	00000013	addi	x0,x0,0	  x0:0x00000000
       46095000	      4608	80001ea8	00000013	addi	x0,x0,0	  x0:0x00000000
       46105000	      4609	80001eac	41b75a33	sra	x20,x14,x27	 x14:0x00000548 x27:0x80009fc4 x20=0x00000054
       46115000	      4610	80001eb0	51c93d13	sltiu	x26,x18,1308	 x18:0x7255ec12 x26=0x00000000
       46125000	      4611	80001eb4	d1a2ae13	slti	x28,x5,-742	  x5:0x7255f000 x28=0x00000000
       46135000	      4612	80001eb8	009a1c63	bne	x20,x9,80001ed0	 x20:0x00000054  x9:0xb4d5b000
       46145000	      4613	00000000	00000013	addi	x0,x0,0	  x0:0x00000000
       46155000	      4614	80001ecc	00000013	addi	x0,x0,0	  x0:0x00000000
       46165000	      4615	80001ed0	40168733	sub	x14,x13,x1	 x13:0x8daa0d33  x1:0x000057a0 x14=0x8da9b593
       46175000	      4616	80001ed4	c6f6ab93	slti	x23,x13,-913	 x13:0x8daa0d33 x23=0x00000001
       46185000	      4617	80001ed8	003e5413	srli	x8,x28,0x3	 x28:0x00000000  x8=0x00000000
       46195000	      4618	80001edc	a81c2793	slti	x15,x24,-1407	 x24:0xe89d8d8c x15=0x00000001
       46205000	      4619	80001ee0	00000013	addi	x0,x0,0	  x0:0x00000000
       46215000	      4620	80001ee4	4057d313	srai	x6,x15,0x5	 x15:0x00000001  x6=0x00000000
       46225000	      4621	80001ee8	41e1d833	sra	x16,x3,x30	  x3:0xe2dfc000 x30:0x00000000 x16=0xe2dfc000
       46235000	      4622	80001eec	410a82b3	sub	x5,x21,x16	 x21:0x80009f24 x16:0xe2dfc000  x5=0x9d20df24
       46245000	      4623	80001ef0	025d8063	beq	x27,x5,80001f10	 x27:0x80009fc4  x5:0x9d20df24
       46255000	      4624	80001ef4	017dcb33	xor	x22,x27,x23	 x27:0x80009fc4 x23:0x00000001 x22=0x80009fc5
       46265000	      4625	80001ef8	01d2d463	bge	x5,x29,80001f00	  x5:0x9d20df24 x29:0xfe75f000
       46275000	      4626	80001efc	41b50eb3	sub	x29,x10,x27	 x10:0x00000000 x27:0x80009fc4 x29=0x7fff603c
       46285000	      4627	80001f00	d433a913	slti	x18,x7,-701	  x7:0x00000139 x18=0x00000000
       46295000	      4628	80001f04	acd6c193	xori	x3,x13,-1331	 x13:0x8daa0d33  x3=0x7255f7fe
       46305000	      4629	80001f08	00879463	bne	x15,x8,80001f10	 x15:0x00000001  x8:0x00000000
       46315000	      4630	00000000	00000013	addi	x0,x0,0	  x0:0x00000000
       46325000	      4631	80001f0c	00000013	addi	x0,x0,0	  x0:0x00000000
       46335000	      4632	80001f10	00e242b3	xor	x5,x4,x14	  x4:0x00000000 x14:0x8da9b593  x5=0x8da9b593
       46345000	      4633	80001f14	0187d913	srli	x18,x15,0x18	 x15:0x00000001 x18=0x00000000
       46355000	      4634	80001f18	01d26a33	or	x20,x4,x29	  x4:0x00000000 x29:0x7fff603c x20=0x7fff603c
       46365000	      4635	80001f1c	41acd7b3	sra	x15,x25,x26	 x25:0xfffffa66 x26:0x00000000 x15=0xfffffa66
       46375000	      4636	80001f20	f7ce2613	slti	x12,x28,-132	 x28:0x00000000 x12=0x00000000
       46385000	      4637	80001f24	044f9063	bne	x31,x4,80001f64	 x31:0x00000000  x4:0x00000000
       46395000	      4638	80001f28	01d28233	add	x4,x5,x29	  x5:0x8da9b593 x29:0x7fff603c  x4=0x0da915cf
       46405000	      4639	80001f2c	cdacf813	andi	x16,x25,-806	 x25:0xfffffa66 x16=0xfffff842
       46415000	      4640	80001f30	00630933	add	x18,x6,x6	  x6:0x00000000  x6:0x00000000 x18=0x00000000
       46425000	      4641	80001f34	032fec63	bltu	x31,x18,80001f6c	 x31:0x00000000 x18:0x00000000
       46435000	      4642	80001f38	014714b3	sll	x9,x14,x20	 x14:0x8da9b593 x20:0x7fff603c  x9=0x30000000
       46445000	      4643	80001f3c	1e3e3b97	auipc	x23,0x1e3e3	 x23=0x9e3e4f38
       46455000	      4644	80001f40	0109d413	srli	x8,x19,0x10	 x19:0x00000000  x8=0x00000000
       46465000	      4645	80001f44	00c732b3	sltu	x5,x14,x12	 x14:0x8da9b593 x12:0x00000000  x5=0x00000000
       46475000	      4646	80001f48	0021f1b3	and	x3,x3,x2	  x3:0x7255f7fe  x2:0x00000000  x3=0x00000000
       46485000	      4647	80001f4c	b5557093	andi	x1,x10,-1195	 x10:0x00000000  x1=0x00000000
       46495000	      4648	80001f50	015194b3	sll	x9,x3,x21	  x3:0x00000000 x21:0x80009f24  x9=0x00000000
       46505000	      4649	80001f54	b96e0f93	addi	x31,x28,-1130	 x28:0x00000000 x31=0xfffffb96
       46515000	      4650	80001f58	401b5493	srai	x9,x22,0x1	 x22:0x80009fc5  x9=0xc0004fe2
       46525000	      4651	80001f5c	b31a3513	sltiu	x10,x20,-1231	 x20:0x7fff603c x10=0x00000001
       46535000	      4652	80001f60	015d90b3	sll	x1,x27,x21	 x27:0x80009fc4 x21:0x80009f24  x1=0x0009fc40
       46545000	      4653	80001f64	00ea4e33	xor	x28,x20,x14	 x20:0x7fff603c x14:0x8da9b593 x28=0xf256d5af
       46555000	      4654	80001f68	02747a63	bgeu	x8,x7,80001f9c	  x8:0x00000000  x7:0x00000139
       46565000	      4655	80001f6c	001492b3	sll	x5,x9,x1	  x9:0xc0004fe2  x1:0x0009fc40  x5=0xc0004fe2
       46575000	      4656	80001f70	010b3433	sltu	x8,x22,x16	 x22:0x80009fc5 x16:0xfffff842  x8=0x00000001
       46585000	      4657	80001f74	00000013	addi	x0,x0,0	  x0:0x00000000
       46595000	      4658	80001f78	9b2ae593	ori	x11,x21,-1614	 x21:0x80009f24 x11=0xffffffb6
       46605000	      4659	80001f7c	028c5663	bge	x24,x8,80001fa8	 x24:0xe89d8d8c  x8:0x00000001
       46615000	      4660	80001f80	037f6063	bltu	x30,x23,80001fa0	 x30:0x00000000 x23:0x9e3e4f38
       46625000	      4661	00000000	00000013	addi	x0,x0,0	  x0:0x00000000
       46635000	      4662	80001f9c	00000013	addi	x0,x0,0	  x0:0x00000000
       46645000	      4663	80001fa0	015f7263	bgeu	x30,x21,80001fa4	 x30:0x00000000 x21:0x80009f24
       46655000	      4664	80001fa4	00188a33	add	x20,x17,x1	 x17:0x00000000  x1:0x0009fc40 x20=0x0009fc40
       46665000	      4665	80001fa8	c8cae613	ori	x12,x21,-884	 x21:0x80009f24 x12=0xffffffac
       46675000	      4666	80001fac	001d4463	blt	x26,x1,80001fb4	 x26:0x00000000  x1:0x0009fc40
       46685000	      4667	00000000	00000013	addi	x0,x0,0	  x0:0x00000000
       46695000	      4668	80001fb0	00000013	addi	x0,x0,0	  x0:0x00000000
       46705000	      4669	80001fb4	417800b3	sub	x1,x16,x23	 x16:0xfffff842 x23:0x9e3e4f38  x1=0x61c1a90a
       46715000	      4670	80001fb8	c0ac8593	addi	x11,x25,-1014	 x25:0xfffffa66 x11=0xfffff670
       46725000	      4671	80001fbc	09317093	andi	x1,x2,147	  x2:0x00000000  x1=0x00000000
       46735000	      4672	80001fc0	02c36263	bltu	x6,x12,80001fe4	  x6:0x00000000 x12:0xffffffac
       46745000	      4673	00000000	00000013	addi	x0,x0,0	  x0:0x00000000
       46755000	      4674	80001fe0	00000013	addi	x0,x0,0	  x0:0x00000000
       46765000	      4675	80001fe4	00ec3833	sltu	x16,x24,x14	 x24:0xe89d8d8c x14:0x8da9b593 x16=0x00000000
       46775000	      4676	80001fe8	00419813	slli	x16,x3,0x4	  x3:0x00000000 x16=0x00000000
       46785000	      4677	80001fec	c9425697	auipc	x13,0xc9425	 x13=0x49426fe8
       46795000	      4678	80001ff0	36eb0693	addi	x13,x22,878	 x22:0x80009fc5 x13=0x8000a333
       46805000	      4679	80001ff4	00af9733	sll	x14,x31,x10	 x31:0xfffffb96 x10:0x00000001 x14=0xfffff72c
       46815000	      4680	80001ff8	f2838e93	addi	x29,x7,-216	  x7:0x00000139 x29=0x00000061
       46825000	      4681	80001ffc	8d568393	addi	x7,x13,-1835	 x13:0x8000a333  x7=0x80009c08
       46835000	      4682	80002000	00fbdc13	srli	x24,x23,0xf	 x23:0x9e3e4f38 x24=0x00013c7c
       46845000	      4683	80002004	008af263	bgeu	x21,x8,80002008	 x21:0x80009f24  x8:0x00000001
       46855000	      4684	00000000	00000013	addi	x0,x0,0	  x0:0x00000000
       46865000	      4685	80002004	00000013	addi	x0,x0,0	  x0:0x00000000
       46875000	      4686	80002008	01ce9d13	slli	x26,x29,0x1c	 x29:0x00000061 x26=0x10000000
       46885000	      4687	8000200c	bf207113	andi	x2,x0,-1038	  x0:0x00000000  x2=0x00000000
       46895000	      4688	80002010	41035eb3	sra	x29,x6,x16	  x6:0x00000000 x16:0x00000000 x29=0x00000000
       46905000	      4689	80002014	0094d6b3	srl	x13,x9,x9	  x9:0xc0004fe2  x9:0xc0004fe2 x13=0x300013f8
       46915000	      4690	80002018	00742933	slt	x18,x8,x7	  x8:0x00000001  x7:0x80009c08 x18=0x00000000
       46925000	      4691	8000201c	01a4dd33	srl	x26,x9,x26	  x9:0xc0004fe2 x26:0x10000000 x26=0xc0004fe2
       46935000	      4692	80002020	02741063	bne	x8,x7,80002040	  x8:0x00000001  x7:0x80009c08
       46945000	      4693	00000000	00000013	addi	x0,x0,0	  x0:0x00000000
       46955000	      4694	8000203c	00000013	addi	x0,x0,0	  x0:0x00000000
       46965000	      4695	80002040	01f5f533	and	x10,x11,x31	 x11:0xfffff670 x31:0xfffffb96 x10=0xfffff210
       46975000	      4696	80002044	03856663	bltu	x10,x24,80002070	 x10:0xfffff210 x24:0x00013c7c
       46985000	      4697	80002048	759a2b93	slti	x23,x20,1881	 x20:0x0009fc40 x23=0x00000000
       46995000	      4698	8000204c	02da6c63	bltu	x20,x13,80002084	 x20:0x0009fc40 x13:0x300013f8
       47005000	      4699	00000000	00000013	addi	x0,x0,0	  x0:0x00000000
       47015000	      4700	80002080	00000013	addi	x0,x0,0	  x0:0x00000000
       47025000	      4701	80002084	40aad433	sra	x8,x21,x10	 x21:0x80009f24 x10:0xfffff210  x8=0xffff8000
       47035000	      4702	80002088	0133ab33	slt	x22,x7,x19	  x7:0x80009c08 x19:0x00000000 x22=0x00000001
       47045000	      4703	8000208c	00041033	sll	x0,x8,x0	  x8:0xffff8000  x0:0x00000000
       47055000	      4704	80002090	05904063	blt	x0,x25,800020d0	  x0:0x00000000 x25:0xfffffa66
       47065000	      4705	80002094	027c0063	beq	x24,x7,800020b4	 x24:0x00013c7c  x7:0x80009c08
       47075000	      4706	80002098	01a70933	add	x18,x14,x26	 x14:0xfffff72c x26:0xc0004fe2 x18=0xc000470e
       47085000	      4707	8000209c	41195293	srai	x5,x18,0x11	 x18:0xc000470e  x5=0xffffe000
       47095000	      4708	800020a0	3c577e93	andi	x29,x14,965	 x14:0xfffff72c x29=0x00000304
       47105000	      4709	800020a4	01362733	slt	x14,x12,x19	 x12:0xffffffac x19:0x00000000 x14=0x00000001
       47115000	      4710	800020a8	a7b2bf93	sltiu	x31,x5,-1413	  x5:0xffffe000 x31=0x00000001
       47125000	      4711	800020ac	0105a533	slt	x10,x11,x16	 x11:0xfffff670 x16:0x00000000 x10=0x00000001
       47135000	      4712	800020b0	410f5a33	sra	x20,x30,x16	 x30:0x00000000 x16:0x00000000 x20=0x00000000
       47145000	      4713	800020b4	011ea733	slt	x14,x29,x17	 x29:0x00000304 x17:0x00000000 x14=0x00000000
       47155000	      4714	800020b8	043e1063	bne	x28,x3,800020f8	 x28:0xf256d5af  x3:0x00000000
       47165000	      4715	00000000	00000013	addi	x0,x0,0	  x0:0x00000000
       47175000	      4716	800020f4	00000013	addi	x0,x0,0	  x0:0x00000000
       47185000	      4717	800020f8	6462b1b7	lui	x3,0x6462b	  x3=0x6462b000
       47195000	      4718	800020fc	038a1863	bne	x20,x24,8000212c	 x20:0x00000000 x24:0x00013c7c
       47205000	      4719	00000000	00000013	addi	x0,x0,0	  x0:0x00000000
       47215000	      4720	80002128	00000013	addi	x0,x0,0	  x0:0x00000000
       47225000	      4721	8000212c	0167a833	slt	x16,x15,x22	 x15:0xfffffa66 x22:0x00000001 x16=0x00000001
       47235000	      4722	80002130	0328d863	bge	x17,x18,80002160	 x17:0x00000000 x18:0xc000470e
       47245000	      4723	00000000	00000013	addi	x0,x0,0	  x0:0x00000000
       47255000	      4724	8000215c	00000013	addi	x0,x0,0	  x0:0x00000000
       47265000	      4725	80002160	015f3033	sltu	x0,x30,x21	 x30:0x00000000 x21:0x80009f24
       47275000	      4726	80002164	0228d063	bge	x17,x2,80002184	 x17:0x00000000  x2:0x00000000
       47285000	      4727	00000000	00000013	addi	x0,x0,0	  x0:0x00000000
       47295000	      4728	80002180	00000013	addi	x0,x0,0	  x0:0x00000000
       47305000	      4729	80002184	00498b33	add	x22,x19,x4	 x19:0x00000000  x4:0x0da915cf x22=0x0da915cf
       47315000	      4730	80002188	00000013	addi	x0,x0,0	  x0:0x00000000
       47325000	      4731	8000218c	00319893	slli	x17,x3,0x3	  x3:0x6462b000 x17=0x23158000
       47335000	      4732	80002190	01277463	bgeu	x14,x18,80002198	 x14:0x00000000 x18:0xc000470e
       47345000	      4733	80002194	01234233	xor	x4,x6,x18	  x6:0x00000000 x18:0xc000470e  x4=0xc000470e
       47355000	      4734	80002198	01c12b33	slt	x22,x2,x28	  x2:0x00000000 x28:0xf256d5af x22=0x00000000
       47365000	      4735	8000219c	409d0033	sub	x0,x26,x9	 x26:0xc0004fe2  x9:0xc0004fe2
       47375000	      4736	800021a0	00725393	srli	x7,x4,0x7	  x4:0xc000470e  x7=0x0180008e
       47385000	      4737	800021a4	75ee7493	andi	x9,x28,1886	 x28:0xf256d5af  x9=0x0000050e
       47395000	      4738	800021a8	01085e33	srl	x28,x16,x16	 x16:0x00000001 x16:0x00000001 x28=0x00000000
       47405000	      4739	800021ac	008f7c33	and	x24,x30,x8	 x30:0x00000000  x8:0xffff8000 x24=0x00000000
       47415000	      4740	800021b0	01dc6e63	bltu	x24,x29,800021cc	 x24:0x00000000 x29:0x00000304
       47425000	      4741	00000000	00000013	addi	x0,x0,0	  x0:0x00000000
       47435000	      4742	800021c8	00000013	addi	x0,x0,0	  x0:0x00000000
       47445000	      4743	800021cc	2e28c093	xori	x1,x17,738	 x17:0x23158000  x1=0x231582e2
       47455000	      4744	800021d0	01b89493	slli	x9,x17,0x1b	 x17:0x23158000  x9=0x00000000
       47465000	      4745	800021d4	64fc2d13	slti	x26,x24,1615	 x24:0x00000000 x26=0x00000001
       47475000	      4746	800021d8	00000013	addi	x0,x0,0	  x0:0x00000000
       47485000	      4747	800021dc	001966b3	or	x13,x18,x1	 x18:0xc000470e  x1:0x231582e2 x13=0xe315c7ee
       47495000	      4748	800021e0	b5d67417	auipc	x8,0xb5d67	  x8=0x35d691dc
       47505000	      4749	800021e4	86417913	andi	x18,x2,-1948	  x2:0x00000000 x18=0x00000000
       47515000	      4750	800021e8	02421c63	bne	x4,x4,80002220	  x4:0xc000470e  x4:0xc000470e
       47525000	      4751	800021ec	019849b3	xor	x19,x16,x25	 x16:0x00000001 x25:0xfffffa66 x19=0xfffffa67
       47535000	      4752	800021f0	09794613	xori	x12,x18,151	 x18:0x00000000 x12=0x00000097
       47545000	      4753	800021f4	35c34c93	xori	x25,x6,860	  x6:0x00000000 x25=0x0000035c
       47555000	      4754	800021f8	000db633	sltu	x12,x27,x0	 x27:0x80009fc4  x0:0x00000000 x12=0x00000000
       47565000	      4755	800021fc	0ed24e97	auipc	x29,0xed24	 x29=0x8ed261f8
       47575000	      4756	80002200	40d2d3b3	sra	x7,x5,x13	  x5:0xffffe000 x13:0xe315c7ee  x7=0xffffffff
       47585000	      4757	80002204	00e01263	bne	x0,x14,80002208	  x0:0x00000000 x14:0x00000000
       47595000	      4758	80002208	25746413	ori	x8,x8,599	  x8:0x35d691dc  x8=0x35d693df
       47605000	      4759	8000220c	05ac8063	beq	x25,x26,8000224c	 x25:0x0000035c x26:0x00000001
       47615000	      4760	80002210	0104d933	srl	x18,x9,x16	  x9:0x00000000 x16:0x00000001 x18=0x00000000
       47625000	      4761	80002214	024be863	bltu	x23,x4,80002244	 x23:0x00000000  x4:0xc000470e
       47635000	      4762	00000000	00000013	addi	x0,x0,0	  x0:0x00000000
       47645000	      4763	80002240	00000013	addi	x0,x0,0	  x0:0x00000000
       47655000	      4764	80002244	a3b791b7	lui	x3,0xa3b79	  x3=0xa3b79000
       47665000	      4765	80002248	01230c63	beq	x6,x18,80002260	  x6:0x00000000 x18:0x00000000
       47675000	      4766	00000000	00000013	addi	x0,x0,0	  x0:0x00000000
       47685000	      4767	8000225c	00000013	addi	x0,x0,0	  x0:0x00000000
       47695000	      4768	80002260	026d4263	blt	x26,x6,80002284	 x26:0x00000001  x6:0x00000000
       47705000	      4769	80002264	00a94e63	blt	x18,x10,80002280	 x18:0x00000000 x10:0x00000001
       47715000	      4770	00000000	00000013	addi	x0,x0,0	  x0:0x00000000
       47725000	      4771	8000227c	00000013	addi	x0,x0,0	  x0:0x00000000
       47735000	      4772	80002280	04576063	bltu	x14,x5,800022c0	 x14:0x00000000  x5:0xffffe000
       47745000	      4773	00000000	00000013	addi	x0,x0,0	  x0:0x00000000
       47755000	      4774	800022bc	00000013	addi	x0,x0,0	  x0:0x00000000
       47765000	      4775	800022c0	40655eb3	sra	x29,x10,x6	 x10:0x00000001  x6:0x00000000 x29=0x00000001
       47775000	      4776	800022c4	013a0463	beq	x20,x19,800022cc	 x20:0x00000000 x19:0xfffffa67
       47785000	      4777	800022c8	7ba12b93	slti	x23,x2,1978	  x2:0x00000000 x23=0x00000001
       47795000	      4778	800022cc	412dd833	sra	x16,x27,x18	 x27:0x80009fc4 x18:0x00000000 x16=0x80009fc4
       47805000	      4779	800022d0	04756063	bltu	x10,x7,80002310	 x10:0x00000001  x7:0xffffffff
       47815000	      4780	00000000	00000013	addi	x0,x0,0	  x0:0x00000000
       47825000	      4781	8000230c	00000013	addi	x0,x0,0	  x0:0x00000000
       47835000	      4782	80002310	400e89b3	sub	x19,x29,x0	 x29:0x00000001  x0:0x00000000 x19=0x00000001
       47845000	      4783	80002314	03e3e063	bltu	x7,x30,80002334	  x7:0xffffffff x30:0x00000000
       47855000	      4784	80002318	017e5213	srli	x4,x28,0x17	 x28:0x00000000  x4=0x00000000
       47865000	      4785	8000231c	012f9213	slli	x4,x31,0x12	 x31:0x00000001  x4=0x00040000
       47875000	      4786	80002320	016e72b3	and	x5,x28,x22	 x28:0x00000000 x22:0x00000000  x5=0x00000000
       47885000	      4787	80002324	0199b9b3	sltu	x19,x19,x25	 x19:0x00000001 x25:0x0000035c x19=0x00000001
       47895000	      4788	80002328	e9f0fc93	andi	x25,x1,-353	  x1:0x231582e2 x25=0x23158282
       47905000	      4789	8000232c	00000013	addi	x0,x0,0	  x0:0x00000000
       47915000	      4790	80002330	0f4a3093	sltiu	x1,x20,244	 x20:0x00000000  x1=0x00000001
       47925000	      4791	80002334	004326b3	slt	x13,x6,x4	  x6:0x00000000  x4:0x00040000 x13=0x00000001
       47935000	      4792	80002338	018cd8b3	srl	x17,x25,x24	 x25:0x23158282 x24:0x00000000 x17=0x23158282
       47945000	      4793	8000233c	df612313	slti	x6,x2,-522	  x2:0x00000000  x6=0x00000000
       47955000	      4794	80002340	05239063	bne	x7,x18,80002380	  x7:0xffffffff x18:0x00000000
       47965000	      4795	00000000	00000013	addi	x0,x0,0	  x0:0x00000000
       47975000	      4796	8000237c	00000013	addi	x0,x0,0	  x0:0x00000000
       47985000	      4797	80002380	adf44493	xori	x9,x8,-1313	  x8:0x35d693df  x9=0xca296900
       47995000	      4798	80002384	d124d817	auipc	x16,0xd124d	 x16=0x5124f380
       48005000	      4799	80002388	00f0c033	xor	x0,x1,x15	  x1:0x00000001 x15:0xfffffa66
       48015000	      4800	8000238c	0221c063	blt	x3,x2,800023ac	  x3:0xa3b79000  x2:0x00000000
       48025000	      4801	00000000	00000013	addi	x0,x0,0	  x0:0x00000000
       48035000	      4802	800023a8	00000013	addi	x0,x0,0	  x0:0x00000000
       48045000	      4803	800023ac	0033fa33	and	x20,x7,x3	  x7:0xffffffff  x3:0xa3b79000 x20=0xa3b79000
       48055000	      4804	800023b0	00b7b8b3	sltu	x17,x15,x11	 x15:0xfffffa66 x11:0xfffff670 x17=0x00000000
       48065000	      4805	800023b4	00000013	addi	x0,x0,0	  x0:0x00000000
       48075000	      4806	800023b8	0472a993	slti	x19,x5,71	  x5:0x00000000 x19=0x00000001
       48085000	      4807	800023bc	401c5093	srai	x1,x24,0x1	 x24:0x00000000  x1=0x00000000
       48095000	      4808	800023c0	9a3fc493	xori	x9,x31,-1629	 x31:0x00000001  x9=0xfffff9a2
       48105000	      4809	800023c4	9ec07813	andi	x16,x0,-1556	  x0:0x00000000 x16=0x00000000
       48115000	      4810	800023c8	53d56493	ori	x9,x10,1341	 x10:0x00000001  x9=0x0000053d
       48125000	      4811	800023cc	62a78b13	addi	x22,x15,1578	 x15:0xfffffa66 x22=0x00000090
       48135000	      4812	800023d0	0148d233	srl	x4,x17,x20	 x17:0x00000000 x20:0xa3b79000  x4=0x00000000
       48145000	      4813	800023d4	40d20fb3	sub	x31,x4,x13	  x4:0x00000000 x13:0x00000001 x31=0xffffffff
       48155000	      4814	800023d8	8b3a2f93	slti	x31,x20,-1869	 x20:0xa3b79000 x31=0x00000001
       48165000	      4815	800023dc	05f21063	bne	x4,x31,8000241c	  x4:0x00000000 x31:0x00000001
       48175000	      4816	00000000	00000013	addi	x0,x0,0	  x0:0x00000000
       48185000	      4817	80002418	00000013	addi	x0,x0,0	  x0:0x00000000
       48195000	      4818	8000241c	5aadbb93	sltiu	x23,x27,1450	 x27:0x80009fc4 x23=0x00000000
       48205000	      4819	80002420	8de53393	sltiu	x7,x10,-1826	 x10:0x00000001  x7=0x00000001
       48215000	      4820	80002424	00cddfb3	srl	x31,x27,x12	 x27:0x80009fc4 x12:0x00000000 x31=0x80009fc4
       48225000	      4821	80002428	96934713	xori	x14,x6,-1687	  x6:0x00000000 x14=0xfffff969
       48235000	      4822	8000242c	e43bb293	sltiu	x5,x23,-445	 x23:0x00000000  x5=0x00000001
       48245000	      4823	80002430	0113fa33	and	x20,x7,x17	  x7:0x00000001 x17:0x00000000 x20=0x00000000
       48255000	      4824	80002434	e7372b13	slti	x22,x14,-397	 x14:0xfffff969 x22=0x00000001
       48265000	      4825	80002438	0294f063	bgeu	x9,x9,80002458	  x9:0x0000053d  x9:0x0000053d
       48275000	      4826	00000000	00000013	addi	x0,x0,0	  x0:0x00000000
       48285000	      4827	80002454	00000013	addi	x0,x0,0	  x0:0x00000000
       48295000	      4828	80002458	02b86063	bltu	x16,x11,80002478	 x16:0x00000000 x11:0xfffff670
       48305000	      4829	00000000	00000013	addi	x0,x0,0	  x0:0x00000000
       48315000	      4830	80002474	00000013	addi	x0,x0,0	  x0:0x00000000
       48325000	      4831	80002478	01968bb3	add	x23,x13,x25	 x13:0x00000001 x25:0x23158282 x23=0x23158283
       48335000	      4832	8000247c	40c50133	sub	x2,x10,x12	 x10:0x00000001 x12:0x00000000  x2=0x00000001
       48345000	      4833	80002480	01398c63	beq	x19,x19,80002498	 x19:0x00000001 x19:0x00000001
       48355000	      4834	00000000	00000013	addi	x0,x0,0	  x0:0x00000000
       48365000	      4835	80002494	00000013	addi	x0,x0,0	  x0:0x00000000
       48375000	      4836	80002498	00000013	addi	x0,x0,0	  x0:0x00000000
       48385000	      4837	8000249c	01321c93	slli	x25,x4,0x13	  x4:0x00000000 x25=0x00000000
       48395000	      4838	800024a0	b74eb813	sltiu	x16,x29,-1164	 x29:0x00000001 x16=0x00000001
       48405000	      4839	800024a4	ac6af617	auipc	x12,0xac6af	 x12=0x2c6b14a0
       48415000	      4840	800024a8	f8814c93	xori	x25,x2,-120	  x2:0x00000001 x25=0xffffff89
       48425000	      4841	800024ac	00000013	addi	x0,x0,0	  x0:0x00000000
       48435000	      4842	800024b0	004099b3	sll	x19,x1,x4	  x1:0x00000000  x4:0x00000000 x19=0x00000000
       48445000	      4843	800024b4	6170fe93	andi	x29,x1,1559	  x1:0x00000000 x29=0x00000000
       48455000	      4844	800024b8	00ec8833	add	x16,x25,x14	 x25:0xffffff89 x14:0xfffff969 x16=0xfffff8f2
       48465000	      4845	800024bc	ab48e893	ori	x17,x17,-1356	 x17:0x00000000 x17=0xfffffab4
       48475000	      4846	800024c0	05440463	beq	x8,x20,80002508	  x8:0x35d693df x20:0x00000000
       48485000	      4847	800024c4	04481063	bne	x16,x4,80002504	 x16:0xfffff8f2  x4:0x00000000
       48495000	      4848	00000000	00000013	addi	x0,x0,0	  x0:0x00000000
       48505000	      4849	80002500	00000013	addi	x0,x0,0	  x0:0x00000000
       48515000	      4850	80002504	2d7a8393	addi	x7,x21,727	 x21:0x80009f24  x7=0x8000a1fb
       48525000	      4851	80002508	4c60f113	andi	x2,x1,1222	  x1:0x00000000  x2=0x00000000
       48535000	      4852	8000250c	01b11193	slli	x3,x2,0x1b	  x2:0x00000000  x3=0x00000000
       48545000	      4853	80002510	0152f2b3	and	x5,x5,x21	  x5:0x00000001 x21:0x80009f24  x5=0x00000000
       48555000	      4854	80002514	c5182093	slti	x1,x16,-943	 x16:0xfffff8f2  x1=0x00000001
       48565000	      4855	80002518	0034d993	srli	x19,x9,0x3	  x9:0x0000053d x19=0x000000a7
       48575000	      4856	8000251c	5a593093	sltiu	x1,x18,1445	 x18:0x00000000  x1=0x00000001
       48585000	      4857	80002520	01490463	beq	x18,x20,80002528	 x18:0x00000000 x20:0x00000000
       48595000	      4858	00000000	00000013	addi	x0,x0,0	  x0:0x00000000
       48605000	      4859	80002524	00000013	addi	x0,x0,0	  x0:0x00000000
       48615000	      4860	80002528	419e54b3	sra	x9,x28,x25	 x28:0x00000000 x25:0xffffff89  x9=0x00000000
       48625000	      4861	8000252c	00000013	addi	x0,x0,0	  x0:0x00000000
       48635000	      4862	80002530	df44b893	sltiu	x17,x9,-524	  x9:0x00000000 x17=0x00000001
       48645000	      4863	80002534	90b86417	auipc	x8,0x90b86	  x8=0x10b88530
       48655000	      4864	80002538	55480493	addi	x9,x16,1364	 x16:0xfffff8f2  x9=0xfffffe46
       48665000	      4865	8000253c	3a40a913	slti	x18,x1,932	  x1:0x00000001 x18=0x00000001
       48675000	      4866	80002540	05818063	beq	x3,x24,80002580	  x3:0x00000000 x24:0x00000000
       48685000	      4867	00000000	00000013	addi	x0,x0,0	  x0:0x00000000
       48695000	      4868	8000257c	00000013	addi	x0,x0,0	  x0:0x00000000
       48705000	      4869	80002580	41be5bb3	sra	x23,x28,x27	 x28:0x00000000 x27:0x80009fc4 x23=0x00000000
       48715000	      4870	80002584	03ffd663	bge	x31,x31,800025b0	 x31:0x80009fc4 x31:0x80009fc4
       48725000	      4871	00000000	00000013	addi	x0,x0,0	  x0:0x00000000
       48735000	      4872	800025ac	00000013	addi	x0,x0,0	  x0:0x00000000
       48745000	      4873	800025b0	003e40b3	xor	x1,x28,x3	 x28:0x00000000  x3:0x00000000  x1=0x00000000
       48755000	      4874	800025b4	01f2f1b3	and	x3,x5,x31	  x5:0x00000000 x31:0x80009fc4  x3=0x00000000
       48765000	      4875	800025b8	0055f6b3	and	x13,x11,x5	 x11:0xfffff670  x5:0x00000000 x13=0x00000000
       48775000	      4876	800025bc	02819863	bne	x3,x8,800025ec	  x3:0x00000000  x8:0x10b88530
       48785000	      4877	00000000	00000013	addi	x0,x0,0	  x0:0x00000000
       48795000	      4878	800025e8	00000013	addi	x0,x0,0	  x0:0x00000000
       48805000	      4879	800025ec	03607863	bgeu	x0,x22,8000261c	  x0:0x00000000 x22:0x00000001
       48815000	      4880	800025f0	00b40733	add	x14,x8,x11	  x8:0x10b88530 x11:0xfffff670 x14=0x10b87ba0
       48825000	      4881	800025f4	f84ab793	sltiu	x15,x21,-124	 x21:0x80009f24 x15=0x00000001
       48835000	      4882	800025f8	41e5d993	srai	x19,x11,0x1e	 x11:0xfffff670 x19=0xffffffff
       48845000	      4883	800025fc	013ca5b3	slt	x11,x25,x19	 x25:0xffffff89 x19:0xffffffff x11=0x00000001
       48855000	      4884	80002600	00e69cb3	sll	x25,x13,x14	 x13:0x00000000 x14:0x10b87ba0 x25=0x00000000
       48865000	      4885	80002604	01002633	slt	x12,x0,x16	  x0:0x00000000 x16:0xfffff8f2 x12=0x00000000
       48875000	      4886	80002608	010ddb93	srli	x23,x27,0x10	 x27:0x80009fc4 x23=0x00008000
       48885000	      4887	8000260c	01de68b3	or	x17,x28,x29	 x28:0x00000000 x29:0x00000000 x17=0x00000000
       48895000	      4888	80002610	03546263	bltu	x8,x21,80002634	  x8:0x10b88530 x21:0x80009f24
       48905000	      4889	00000000	00000013	addi	x0,x0,0	  x0:0x00000000
       48915000	      4890	80002630	00000013	addi	x0,x0,0	  x0:0x00000000
       48925000	      4891	80002634	01bf2cb3	slt	x25,x30,x27	 x30:0x00000000 x27:0x80009fc4 x25=0x00000000
       48935000	      4892	80002638	017a95b3	sll	x11,x21,x23	 x21:0x80009f24 x23:0x00008000 x11=0x80009f24
       48945000	      4893	8000263c	d72f3037	lui	x0,0xd72f3	
       48955000	      4894	80002640	e19ec313	xori	x6,x29,-487	 x29:0x00000000  x6=0xfffffe19
       48965000	      4895	80002644	002b9393	slli	x7,x23,0x2	 x23:0x00008000  x7=0x00020000
       48975000	      4896	80002648	415d0bb3	sub	x23,x26,x21	 x26:0x00000001 x21:0x80009f24 x23=0x7fff60dd
       48985000	      4897	8000264c	00cc4463	blt	x24,x12,80002654	 x24:0x00000000 x12:0x00000000
       48995000	      4898	80002650	01044263	blt	x8,x16,80002654	  x8:0x10b88530 x16:0xfffff8f2
       49005000	      4899	80002654	5337c893	xori	x17,x15,1331	 x15:0x00000001 x17=0x00000532
       49015000	      4900	80002658	0162ca63	blt	x5,x22,8000266c	  x5:0x00000000 x22:0x00000001
       49025000	      4901	00000000	00000013	addi	x0,x0,0	  x0:0x00000000
       49035000	      4902	80002668	00000013	addi	x0,x0,0	  x0:0x00000000
       49045000	      4903	8000266c	7ec52417	auipc	x8,0x7ec52	  x8=0xfec54668
       49055000	      4904	80002670	4033d4b3	sra	x9,x7,x3	  x7:0x00020000  x3:0x00000000  x9=0x00020000
       49065000	      4905	80002674	406add33	sra	x26,x21,x6	 x21:0x80009f24  x6:0xfffffe19 x26=0xffffffc0
       49075000	      4906	80002678	00000013	addi	x0,x0,0	  x0:0x00000000
       49085000	      4907	8000267c	00b05263	bge	x0,x11,80002680	  x0:0x00000000 x11:0x80009f24
       49095000	      4908	00000000	00000013	addi	x0,x0,0	  x0:0x00000000
       49105000	      4909	8000267c	00000013	addi	x0,x0,0	  x0:0x00000000
       49115000	      4910	80002680	02d08063	beq	x1,x13,800026a0	  x1:0x00000000 x13:0x00000000
       49125000	      4911	00000000	00000013	addi	x0,x0,0	  x0:0x00000000
       49135000	      4912	8000269c	00000013	addi	x0,x0,0	  x0:0x00000000
       49145000	      4913	800026a0	00265e93	srli	x29,x12,0x2	 x12:0x00000000 x29=0x00000000
       49155000	      4914	800026a4	015b75b3	and	x11,x22,x21	 x22:0x00000001 x21:0x80009f24 x11=0x00000000
       49165000	      4915	800026a8	01573733	sltu	x14,x14,x21	 x14:0x10b87ba0 x21:0x80009f24 x14=0x00000001
       49175000	      4916	800026ac	00d711b3	sll	x3,x14,x13	 x14:0x00000001 x13:0x00000000  x3=0x00000001
       49185000	      4917	800026b0	00996b33	or	x22,x18,x9	 x18:0x00000001  x9:0x00020000 x22=0x00020001
       49195000	      4918	800026b4	406d5193	srai	x3,x26,0x6	 x26:0xffffffc0  x3=0xffffffff
       49205000	      4919	800026b8	416bda33	sra	x20,x23,x22	 x23:0x7fff60dd x22:0x00020001 x20=0x3fffb06e
       49215000	      4920	800026bc	00951733	sll	x14,x10,x9	 x10:0x00000001  x9:0x00020000 x14=0x00000001
       49225000	      4921	800026c0	a7fe4613	xori	x12,x28,-1409	 x28:0x00000000 x12=0xfffffa7f
       49235000	      4922	800026c4	41c2dcb3	sra	x25,x5,x28	  x5:0x00000000 x28:0x00000000 x25=0x00000000
       49245000	      4923	800026c8	6e5c5437	lui	x8,0x6e5c5	  x8=0x6e5c5000
       49255000	      4924	800026cc	5d8c8493	addi	x9,x25,1496	 x25:0x00000000  x9=0x000005d8
       49265000	      4925	800026d0	03060863	beq	x12,x16,80002700	 x12:0xfffffa7f x16:0xfffff8f2
       49275000	      4926	800026d4	003d39b3	sltu	x19,x26,x3	 x26:0xffffffc0  x3:0xffffffff x19=0x00000001
       49285000	      4927	800026d8	003fa7b3	slt	x15,x31,x3	 x31:0x80009fc4  x3:0xffffffff x15=0x00000001
       49295000	      4928	800026dc	003a39b3	sltu	x19,x20,x3	 x20:0x3fffb06e  x3:0xffffffff x19=0x00000001
       49305000	      4929	800026e0	01c74cb3	xor	x25,x14,x28	 x14:0x00000001 x28:0x00000000 x25=0x00000001
       49315000	      4930	800026e4	019b5893	srli	x17,x22,0x19	 x22:0x00020001 x17=0x00000000
       49325000	      4931	800026e8	410fd213	srai	x4,x31,0x10	 x31:0x80009fc4  x4=0xffff8000
       49335000	      4932	800026ec	5c9b2713	slti	x14,x22,1481	 x22:0x00020001 x14=0x00000000
       49345000	      4933	800026f0	4024d613	srai	x12,x9,0x2	  x9:0x000005d8 x12=0x00000176
       49355000	      4934	800026f4	00000013	addi	x0,x0,0	  x0:0x00000000
       49365000	      4935	800026f8	0392ca63	blt	x5,x25,8000272c	  x5:0x00000000 x25:0x00000001
       49375000	      4936	00000000	00000013	addi	x0,x0,0	  x0:0x00000000
       49385000	      4937	80002728	00000013	addi	x0,x0,0	  x0:0x00000000
       49395000	      4938	8000272c	013a9333	sll	x6,x21,x19	 x21:0x80009f24 x19:0x00000001  x6=0x00013e48
       49405000	      4939	80002730	41158833	sub	x16,x11,x17	 x11:0x00000000 x17:0x00000000 x16=0x00000000
       49415000	      4940	80002734	7ba4cb93	xori	x23,x9,1978	  x9:0x000005d8 x23=0x00000262
       49425000	      4941	80002738	033b6663	bltu	x22,x19,80002764	 x22:0x00020001 x19:0x00000001
       49435000	      4942	8000273c	010578b3	and	x17,x10,x16	 x10:0x00000001 x16:0x00000000 x17=0x00000000
       49445000	      4943	80002740	00000013	addi	x0,x0,0	  x0:0x00000000
       49455000	      4944	80002744	011968b3	or	x17,x18,x17	 x18:0x00000001 x17:0x00000000 x17=0x00000001
       49465000	      4945	80002748	01e8d913	srli	x18,x17,0x1e	 x17:0x00000001 x18=0x00000000
       49475000	      4946	8000274c	7ad52193	slti	x3,x10,1965	 x10:0x00000001  x3=0x00000001
       49485000	      4947	80002750	059d7063	bgeu	x26,x25,80002790	 x26:0xffffffc0 x25:0x00000001
       49495000	      4948	00000000	00000013	addi	x0,x0,0	  x0:0x00000000
       49505000	      4949	8000278c	00000013	addi	x0,x0,0	  x0:0x00000000
       49515000	      4950	80002790	0a24f663	bgeu	x9,x2,8000283c	  x9:0x000005d8  x2:0x00000000
       49525000	      4951	00000000	00000013	addi	x0,x0,0	  x0:0x00000000
       49535000	      4952	80002838	00000013	addi	x0,x0,0	  x0:0x00000000
       49545000	      4953	8000283c	00ca0463	beq	x20,x12,80002844	 x20:0x3fffb06e x12:0x00000176
       49555000	      4954	80002840	b08d7d13	andi	x26,x26,-1272	 x26:0xffffffc0 x26=0xfffffb00
       49565000	      4955	80002844	01b0f0b3	and	x1,x1,x27	  x1:0x00000000 x27:0x80009fc4  x1=0x00000000
       49575000	      4956	80002848	02144063	blt	x8,x1,80002868	  x8:0x6e5c5000  x1:0x00000000
       49585000	      4957	8000284c	14d28113	addi	x2,x5,333	  x5:0x00000000  x2=0x0000014d
       49595000	      4958	80002850	043a1063	bne	x20,x3,80002890	 x20:0x3fffb06e  x3:0x00000001
       49605000	      4959	00000000	00000013	addi	x0,x0,0	  x0:0x00000000
       49615000	      4960	8000288c	00000013	addi	x0,x0,0	  x0:0x00000000
       49625000	      4961	80002890	01545fb3	srl	x31,x8,x21	  x8:0x6e5c5000 x21:0x80009f24 x31=0x06e5c500
       49635000	      4962	80002894	fadb4813	xori	x16,x22,-83	 x22:0x00020001 x16=0xfffdffac
       49645000	      4963	80002898	00cded33	or	x26,x27,x12	 x27:0x80009fc4 x12:0x00000176 x26=0x80009ff6
       49655000	      4964	8000289c	15717e97	auipc	x29,0x15717	 x29=0x95719898
       49665000	      4965	800028a0	404f0533	sub	x10,x30,x4	 x30:0x00000000  x4:0xffff8000 x10=0x00008000
       49675000	      4966	800028a4	00e0ce33	xor	x28,x1,x14	  x1:0x00000000 x14:0x00000000 x28=0x00000000
       49685000	      4967	800028a8	d56c6093	ori	x1,x24,-682	 x24:0x00000000  x1=0xfffffd56
       49695000	      4968	800028ac	0059d463	bge	x19,x5,800028b4	 x19:0x00000001  x5:0x00000000
       49705000	      4969	00000000	00000013	addi	x0,x0,0	  x0:0x00000000
       49715000	      4970	800028b0	00000013	addi	x0,x0,0	  x0:0x00000000
       49725000	      4971	800028b4	02f77663	bgeu	x14,x15,800028e0	 x14:0x00000000 x15:0x00000001
       49735000	      4972	800028b8	65994d13	xori	x26,x18,1625	 x18:0x00000000 x26=0x00000659
       49745000	      4973	800028bc	009355b3	srl	x11,x6,x9	  x6:0x00013e48  x9:0x000005d8 x11=0x00000000
       49755000	      4974	800028c0	de814b13	xori	x22,x2,-536	  x2:0x0000014d x22=0xfffffca5
       49765000	      4975	800028c4	0191d863	bge	x3,x25,800028d4	  x3:0x00000001 x25:0x00000001
       49775000	      4976	00000000	00000013	addi	x0,x0,0	  x0:0x00000000
       49785000	      4977	800028d0	00000013	addi	x0,x0,0	  x0:0x00000000
       49795000	      4978	800028d4	2cd94113	xori	x2,x18,717	 x18:0x00000000  x2=0x000002cd
       49805000	      4979	800028d8	05ce0263	beq	x28,x28,8000291c	 x28:0x00000000 x28:0x00000000
       49815000	      4980	00000000	00000013	addi	x0,x0,0	  x0:0x00000000
       49825000	      4981	80002918	00000013	addi	x0,x0,0	  x0:0x00000000
       49835000	      4982	8000291c	01ed7e63	bgeu	x26,x30,80002938	 x26:0x00000659 x30:0x00000000
       49845000	      4983	00000000	00000013	addi	x0,x0,0	  x0:0x00000000
       49855000	      4984	80002934	00000013	addi	x0,x0,0	  x0:0x00000000
       49865000	      4985	80002938	00f9e863	bltu	x19,x15,80002948	 x19:0x00000001 x15:0x00000001
       49875000	      4986	8000293c	6c9b8f93	addi	x31,x23,1737	 x23:0x00000262 x31=0x0000092b
       49885000	      4987	80002940	1d0c4b93	xori	x23,x24,464	 x24:0x00000000 x23=0x000001d0
       49895000	      4988	80002944	b5f4a813	slti	x16,x9,-1185	  x9:0x000005d8 x16=0x00000000
       49905000	      4989	80002948	00000013	addi	x0,x0,0	  x0:0x00000000
       49915000	      4990	8000294c	01150a63	beq	x10,x17,80002960	 x10:0x00008000 x17:0x00000001
       49925000	      4991	80002950	0f0b6c93	ori	x25,x22,240	 x22:0xfffffca5 x25=0xfffffcf5
       49935000	      4992	80002954	0e7e0793	addi	x15,x28,231	 x28:0x00000000 x15=0x000000e7
       49945000	      4993	80002958	41a2d313	srai	x6,x5,0x1a	  x5:0x00000000  x6=0x00000000
       49955000	      4994	8000295c	40365013	srai	x0,x12,0x3	 x12:0x00000176
       49965000	      4995	80002960	035a4063	blt	x20,x21,80002980	 x20:0x3fffb06e x21:0x80009f24
       49975000	      4996	80002964	47cc2e93	slti	x29,x24,1148	 x24:0x00000000 x29=0x00000001
       49985000	      4997	80002968	04e29063	bne	x5,x14,800029a8	  x5:0x00000000 x14:0x00000000
       49995000	      4998	8000296c	004b5993	srli	x19,x22,0x4	 x22:0xfffffca5 x19=0x0fffffca
       50005000	      4999	80002970	41cdd893	srai	x17,x27,0x1c	 x27:0x80009fc4 x17=0xfffffff8
       50015000	      5000	80002974	a6136393	ori	x7,x6,-1439	  x6:0x00000000  x7=0xfffffa61
       50025000	      5001	80002978	00a25c13	srli	x24,x4,0xa	  x4:0xffff8000 x24=0x003fffe0
       50035000	      5002	8000297c	04b8d463	bge	x17,x11,800029c4	 x17:0xfffffff8 x11:0x00000000
       50045000	      5003	80002980	00225b93	srli	x23,x4,0x2	  x4:0xffff8000 x23=0x3fffe000
       50055000	      5004	80002984	00120933	add	x18,x4,x1	  x4:0xffff8000  x1:0xfffffd56 x18=0xffff7d56
       50065000	      5005	80002988	40a9d613	srai	x12,x19,0xa	 x19:0x0fffffca x12=0x0003ffff
       50075000	      5006	8000298c	01b65713	srli	x14,x12,0x1b	 x12:0x0003ffff x14=0x00000000
       50085000	      5007	80002990	03446863	bltu	x8,x20,800029c0	  x8:0x6e5c5000 x20:0x3fffb06e
       50095000	      5008	80002994	00433eb3	sltu	x29,x6,x4	  x6:0x00000000  x4:0xffff8000 x29=0x00000001
       50105000	      5009	80002998	01b31133	sll	x2,x6,x27	  x6:0x00000000 x27:0x80009fc4  x2=0x00000000
       50115000	      5010	8000299c	76913c93	sltiu	x25,x2,1897	  x2:0x00000000 x25=0x00000001
       50125000	      5011	800029a0	00e3eb33	or	x22,x7,x14	  x7:0xfffffa61 x14:0x00000000 x22=0xfffffa61
       50135000	      5012	800029a4	01f2c933	xor	x18,x5,x31	  x5:0x00000000 x31:0x0000092b x18=0x0000092b
       50145000	      5013	800029a8	01d2fc33	and	x24,x5,x29	  x5:0x00000000 x29:0x00000001 x24=0x00000000
       50155000	      5014	800029ac	01bd8c33	add	x24,x27,x27	 x27:0x80009fc4 x27:0x80009fc4 x24=0x00013f88
       50165000	      5015	800029b0	01f37c63	bgeu	x6,x31,800029c8	  x6:0x00000000 x31:0x0000092b
       50175000	      5016	800029b4	00ea09b3	add	x19,x20,x14	 x20:0x3fffb06e x14:0x00000000 x19=0x3fffb06e
       50185000	      5017	800029b8	02578063	beq	x15,x5,800029d8	 x15:0x000000e7  x5:0x00000000
       50195000	      5018	800029bc	4b4ce9b7	lui	x19,0x4b4ce	 x19=0x4b4ce000
       50205000	      5019	800029c0	e5976993	ori	x19,x14,-423	 x14:0x00000000 x19=0xfffffe59
       50215000	      5020	800029c4	73c38893	addi	x17,x7,1852	  x7:0xfffffa61 x17=0x0000019d
       50225000	      5021	800029c8	0297dc63	bge	x15,x9,80002a00	 x15:0x000000e7  x9:0x000005d8
       50235000	      5022	800029cc	40950e33	sub	x28,x10,x9	 x10:0x00008000  x9:0x000005d8 x28=0x00007a28
       50245000	      5023	800029d0	00000013	addi	x0,x0,0	  x0:0x00000000
       50255000	      5024	800029d4	80c92093	slti	x1,x18,-2036	 x18:0x0000092b  x1=0x00000000
       50265000	      5025	800029d8	40cdd713	srai	x14,x27,0xc	 x27:0x80009fc4 x14=0xfff80009
       50275000	      5026	800029dc	69d23f93	sltiu	x31,x4,1693	  x4:0xffff8000 x31=0x00000000
       50285000	      5027	800029e0	01cc1413	slli	x8,x24,0x1c	 x24:0x00013f88  x8=0x80000000
       50295000	      5028	800029e4	04125863	bge	x4,x1,80002a34	  x4:0xffff8000  x1:0x00000000
       50305000	      5029	800029e8	40d6d7b3	sra	x15,x13,x13	 x13:0x00000000 x13:0x00000000 x15=0x00000000
       50315000	      5030	800029ec	01cd1193	slli	x3,x26,0x1c	 x26:0x00000659  x3=0x90000000
       50325000	      5031	800029f0	01cc2833	slt	x16,x24,x28	 x24:0x00013f88 x28:0x00007a28 x16=0x00000000
       50335000	      5032	800029f4	008b9eb3	sll	x29,x23,x8	 x23:0x3fffe000  x8:0x80000000 x29=0x3fffe000
       50345000	      5033	800029f8	007ad813	srli	x16,x21,0x7	 x21:0x80009f24 x16=0x0100013e
       50355000	      5034	800029fc	d68d3a17	auipc	x20,0xd68d3	 x20=0x568d59f8
       50365000	      5035	80002a00	008f9d33	sll	x26,x31,x8	 x31:0x00000000  x8:0x80000000 x26=0x00000000
       50375000	      5036	80002a04	017dec33	or	x24,x27,x23	 x27:0x80009fc4 x23:0x3fffe000 x24=0xbfffffc4
       50385000	      5037	80002a08	c0bc2c13	slti	x24,x24,-1013	 x24:0xbfffffc4 x24=0x00000001
       50395000	      5038	80002a0c	007b21b3	slt	x3,x22,x7	 x22:0xfffffa61  x7:0xfffffa61  x3=0x00000000
       50405000	      5039	80002a10	00ade733	or	x14,x27,x10	 x27:0x80009fc4 x10:0x00008000 x14=0x80009fc4
       50415000	      5040	80002a14	00b50233	add	x4,x10,x11	 x10:0x00008000 x11:0x00000000  x4=0x00008000
       50425000	      5041	80002a18	00966263	bltu	x12,x9,80002a1c	 x12:0x0003ffff  x9:0x000005d8
       50435000	      5042	80002a1c	01132233	slt	x4,x6,x17	  x6:0x00000000 x17:0x0000019d  x4=0x00000001
       50445000	      5043	80002a20	00000013	addi	x0,x0,0	  x0:0x00000000
       50455000	      5044	80002a24	25a23a13	sltiu	x20,x4,602	  x4:0x00000001 x20=0x00000001
       50465000	      5045	80002a28	633dab93	slti	x23,x27,1587	 x27:0x80009fc4 x23=0x00000001
       50475000	      5046	80002a2c	5f2e6993	ori	x19,x28,1522	 x28:0x00007a28 x19=0x00007ffa
       50485000	      5047	80002a30	01971cb3	sll	x25,x14,x25	 x14:0x80009fc4 x25:0x00000001 x25=0x00013f88
       50495000	      5048	80002a34	00c939b3	sltu	x19,x18,x12	 x18:0x0000092b x12:0x0003ffff x19=0x00000001
       50505000	      5049	80002a38	00b94eb3	xor	x29,x18,x11	 x18:0x0000092b x11:0x00000000 x29=0x0000092b
       50515000	      5050	80002a3c	032b9063	bne	x23,x18,80002a5c	 x23:0x00000001 x18:0x0000092b
       50525000	      5051	00000000	00000013	addi	x0,x0,0	  x0:0x00000000
       50535000	      5052	80002a58	00000013	addi	x0,x0,0	  x0:0x00000000
       50545000	      5053	80002a5c	7f54ec13	ori	x24,x9,2037	  x9:0x000005d8 x24=0x000007fd
       50555000	      5054	80002a60	16454113	xori	x2,x10,356	 x10:0x00008000  x2=0x00008164
       50565000	      5055	80002a64	03d95263	bge	x18,x29,80002a88	 x18:0x0000092b x29:0x0000092b
       50575000	      5056	00000000	00000013	addi	x0,x0,0	  x0:0x00000000
       50585000	      5057	80002a84	00000013	addi	x0,x0,0	  x0:0x00000000
       50595000	      5058	80002a88	e34eea37	lui	x20,0xe34ee	 x20=0xe34ee000
       50605000	      5059	80002a8c	090f6697	auipc	x13,0x90f6	 x13=0x890f8a88
       50615000	      5060	80002a90	5ef5d037	lui	x0,0x5ef5d	
       50625000	      5061	80002a94	00000013	addi	x0,x0,0	  x0:0x00000000
       50635000	      5062	80002a98	40ded533	sra	x10,x29,x13	 x29:0x0000092b x13:0x890f8a88 x10=0x00000009
       50645000	      5063	80002a9c	004e3533	sltu	x10,x28,x4	 x28:0x00007a28  x4:0x00000001 x10=0x00000000
       50655000	      5064	80002aa0	001c6463	bltu	x24,x1,80002aa8	 x24:0x000007fd  x1:0x00000000
       50665000	      5065	80002aa4	d8f01097	auipc	x1,0xd8f01	  x1=0x58f03aa0
       50675000	      5066	80002aa8	00000013	addi	x0,x0,0	  x0:0x00000000
       50685000	      5067	80002aac	02f2c663	blt	x5,x15,80002ad8	  x5:0x00000000 x15:0x00000000
       50695000	      5068	80002ab0	41405013	srai	x0,x0,0x14	  x0:0x00000000
       50705000	      5069	80002ab4	04146063	bltu	x8,x1,80002af4	  x8:0x80000000  x1:0x58f03aa0
       50715000	      5070	80002ab8	7629e193	ori	x3,x19,1890	 x19:0x00000001  x3=0x00000763
       50725000	      5071	80002abc	416e0eb3	sub	x29,x28,x22	 x28:0x00007a28 x22:0xfffffa61 x29=0x00007fc7
       50735000	      5072	80002ac0	41898533	sub	x10,x19,x24	 x19:0x00000001 x24:0x000007fd x10=0xfffff804
       50745000	      5073	80002ac4	888ca713	slti	x14,x25,-1912	 x25:0x00013f88 x14=0x00000000
       50755000	      5074	80002ac8	018a8463	beq	x21,x24,80002ad0	 x21:0x80009f24 x24:0x000007fd
       50765000	      5075	80002acc	fba7f497	auipc	x9,0xfba7f	  x9=0x7ba81ac8
       50775000	      5076	80002ad0	35c8c617	auipc	x12,0x35c8c	 x12=0xb5c8eacc
       50785000	      5077	80002ad4	01081e63	bne	x16,x16,80002af0	 x16:0x0100013e x16:0x0100013e
       50795000	      5078	80002ad8	5af09e97	auipc	x29,0x5af09	 x29=0xdaf0bad4
       50805000	      5079	80002adc	01331033	sll	x0,x6,x19	  x6:0x00000000 x19:0x00000001
       50815000	      5080	80002ae0	0089f733	and	x14,x19,x8	 x19:0x00000001  x8:0x80000000 x14=0x00000000
       50825000	      5081	80002ae4	003fdbb3	srl	x23,x31,x3	 x31:0x00000000  x3:0x00000763 x23=0x00000000
       50835000	      5082	80002ae8	01130a33	add	x20,x6,x17	  x6:0x00000000 x17:0x0000019d x20=0x0000019d
       50845000	      5083	80002aec	41745033	sra	x0,x8,x23	  x8:0x80000000 x23:0x00000000
       50855000	      5084	80002af0	0104f1b3	and	x3,x9,x16	  x9:0x7ba81ac8 x16:0x0100013e  x3=0x01000008
       50865000	      5085	80002af4	82eba537	lui	x10,0x82eba	 x10=0x82eba000
       50875000	      5086	80002af8	411e8233	sub	x4,x29,x17	 x29:0xdaf0bad4 x17:0x0000019d  x4=0xdaf0b937
       50885000	      5087	80002afc	00326233	or	x4,x4,x3	  x4:0xdaf0b937  x3:0x01000008  x4=0xdbf0b93f
       50895000	      5088	80002b00	0114e233	or	x4,x9,x17	  x9:0x7ba81ac8 x17:0x0000019d  x4=0x7ba81bdd
       50905000	      5089	80002b04	00d9c7b3	xor	x15,x19,x13	 x19:0x00000001 x13:0x890f8a88 x15=0x890f8a89
       50915000	      5090	80002b08	014fbcb3	sltu	x25,x31,x20	 x31:0x00000000 x20:0x0000019d x25=0x00000001
       50925000	      5091	80002b0c	6758c813	xori	x16,x17,1653	 x17:0x0000019d x16=0x000007e8
       50935000	      5092	80002b10	6556e713	ori	x14,x13,1621	 x13:0x890f8a88 x14=0x890f8edd
       50945000	      5093	80002b14	8a9bb613	sltiu	x12,x23,-1879	 x23:0x00000000 x12=0x00000001
       50955000	      5094	80002b18	5471cc13	xori	x24,x3,1351	  x3:0x01000008 x24=0x0100054f
       50965000	      5095	80002b1c	b898c637	lui	x12,0xb898c	 x12=0xb898c000
       50975000	      5096	80002b20	08880863	beq	x16,x8,80002bb0	 x16:0x000007e8  x8:0x80000000
       50985000	      5097	80002b24	02c00b6f	jal	x22,80002b24	 x22=0x80002b24
       50995000	      5098	00000000	00000013	addi	x0,x0,0	  x0:0x00000000
       51005000	      5099	80002b4c	00000013	addi	x0,x0,0	  x0:0x00000000
       51015000	      5100	80002b50	018000ef	jal	x1,80002b50	  x1=0x80002b50
       51025000	      5101	00000000	00000013	addi	x0,x0,0	  x0:0x00000000
       51035000	      5102	80002b64	00000013	addi	x0,x0,0	  x0:0x00000000
       51045000	      5103	80002b68	ffdff0ef	jal	x1,80002b68	  x1=0x80002b68
       51055000	      5104	00000000	00000013	addi	x0,x0,0	  x0:0x00000000
       51065000	      5105	80002b60	00000013	addi	x0,x0,0	  x0:0x00000000
       51075000	      5106	80002b64	fd5ff0ef	jal	x1,80002b64	  x1=0x80002b64
       51085000	      5107	00000000	00000013	addi	x0,x0,0	  x0:0x00000000
       51095000	      5108	80002b34	00000013	addi	x0,x0,0	  x0:0x00000000
       51105000	      5109	80002b38	034000ef	jal	x1,80002b38	  x1=0x80002b38
       51115000	      5110	00000000	00000013	addi	x0,x0,0	  x0:0x00000000
       51125000	      5111	80002b68	00000013	addi	x0,x0,0	  x0:0x00000000
       51135000	      5112	80002b6c	fc9ff2ef	jal	x5,80002b6c	  x5=0x80002b6c
       51145000	      5113	00000000	00000013	addi	x0,x0,0	  x0:0x00000000
       51155000	      5114	80002b30	00000013	addi	x0,x0,0	  x0:0x00000000
       51165000	      5115	80002b34	018000ef	jal	x1,80002b34	  x1=0x80002b34
       51175000	      5116	00000000	00000013	addi	x0,x0,0	  x0:0x00000000
       51185000	      5117	80002b48	00000013	addi	x0,x0,0	  x0:0x00000000
       51195000	      5118	80002b4c	fddff0ef	jal	x1,80002b4c	  x1=0x80002b4c
       51205000	      5119	00000000	00000013	addi	x0,x0,0	  x0:0x00000000
       51215000	      5120	80002b24	00000013	addi	x0,x0,0	  x0:0x00000000
       51225000	      5121	80002b28	0040036f	jal	x6,80002b28	  x6=0x80002b28
       51235000	      5122	00000000	00000013	addi	x0,x0,0	  x0:0x00000000
       51245000	      5123	80002b28	00000013	addi	x0,x0,0	  x0:0x00000000
       51255000	      5124	80002b2c	01c000ef	jal	x1,80002b2c	  x1=0x80002b2c
       51265000	      5125	00000000	00000013	addi	x0,x0,0	  x0:0x00000000
       51275000	      5126	80002b44	00000013	addi	x0,x0,0	  x0:0x00000000
       51285000	      5127	80002b48	ffdff0ef	jal	x1,80002b48	  x1=0x80002b48
       51295000	      5128	00000000	00000013	addi	x0,x0,0	  x0:0x00000000
       51305000	      5129	80002b40	00000013	addi	x0,x0,0	  x0:0x00000000
       51315000	      5130	80002b44	ff9ff36f	jal	x6,80002b44	  x6=0x80002b44
       51325000	      5131	00000000	00000013	addi	x0,x0,0	  x0:0x00000000
       51335000	      5132	80002b38	00000013	addi	x0,x0,0	  x0:0x00000000
       51345000	      5133	80002b3c	020000ef	jal	x1,80002b3c	  x1=0x80002b3c
       51355000	      5134	00000000	00000013	addi	x0,x0,0	  x0:0x00000000
       51365000	      5135	80002b58	00000013	addi	x0,x0,0	  x0:0x00000000
       51375000	      5136	80002b5c	fd5ff0ef	jal	x1,80002b5c	  x1=0x80002b5c
       51385000	      5137	00000000	00000013	addi	x0,x0,0	  x0:0x00000000
       51395000	      5138	80002b2c	00000013	addi	x0,x0,0	  x0:0x00000000
       51405000	      5139	80002b30	028000ef	jal	x1,80002b30	  x1=0x80002b30
       51415000	      5140	00000000	00000013	addi	x0,x0,0	  x0:0x00000000
       51425000	      5141	80002b54	00000013	addi	x0,x0,0	  x0:0x00000000
       51435000	      5142	80002b58	0080036f	jal	x6,80002b58	  x6=0x80002b58
       51445000	      5143	00000000	00000013	addi	x0,x0,0	  x0:0x00000000
       51455000	      5144	80002b5c	00000013	addi	x0,x0,0	  x0:0x00000000
       51465000	      5145	80002b60	ff5ff0ef	jal	x1,80002b60	  x1=0x80002b60
       51475000	      5146	00000000	00000013	addi	x0,x0,0	  x0:0x00000000
       51485000	      5147	80002b50	00000013	addi	x0,x0,0	  x0:0x00000000
       51495000	      5148	80002b54	fedff36f	jal	x6,80002b54	  x6=0x80002b54
       51505000	      5149	00000000	00000013	addi	x0,x0,0	  x0:0x00000000
       51515000	      5150	80002b3c	00000013	addi	x0,x0,0	  x0:0x00000000
       51525000	      5151	80002b40	0300096f	jal	x18,80002b40	 x18=0x80002b40
       51535000	      5152	00000000	00000013	addi	x0,x0,0	  x0:0x00000000
       51545000	      5153	80002b6c	00000013	addi	x0,x0,0	  x0:0x00000000
       51555000	      5154	80002b70	01f2d1b3	srl	x3,x5,x31	  x5:0x80002b6c x31:0x00000000  x3=0x80002b6c
       51565000	      5155	80002b74	00bdd193	srli	x3,x27,0xb	 x27:0x80009fc4  x3=0x00100013
       51575000	      5156	80002b78	011509b3	add	x19,x10,x17	 x10:0x82eba000 x17:0x0000019d x19=0x82eba19d
       51585000	      5157	80002b7c	d304fe93	andi	x29,x9,-720	  x9:0x7ba81ac8 x29=0x7ba81800
       51595000	      5158	80002b80	02d68a63	beq	x13,x13,80002bb4	 x13:0x890f8a88 x13:0x890f8a88
       51605000	      5159	00000000	00000013	addi	x0,x0,0	  x0:0x00000000
       51615000	      5160	80002bb0	00000013	addi	x0,x0,0	  x0:0x00000000
       51625000	      5161	80002bb4	00bb2533	slt	x10,x22,x11	 x22:0x80002b24 x11:0x00000000 x10=0x00000001
       51635000	      5162	80002bb8	038d5863	bge	x26,x24,80002be8	 x26:0x00000000 x24:0x0100054f
       51645000	      5163	80002bbc	04338263	beq	x7,x3,80002c00	  x7:0xfffffa61  x3:0x00100013
       51655000	      5164	80002bc0	000fd513	srli	x10,x31,0x0	 x31:0x00000000 x10=0x00000000
       51665000	      5165	80002bc4	41b00233	sub	x4,x0,x27	  x0:0x00000000 x27:0x80009fc4  x4=0x7fff603c
       51675000	      5166	80002bc8	04d39063	bne	x7,x13,80002c08	  x7:0xfffffa61 x13:0x890f8a88
       51685000	      5167	00000000	00000013	addi	x0,x0,0	  x0:0x00000000
       51695000	      5168	80002c04	00000013	addi	x0,x0,0	  x0:0x00000000
       51705000	      5169	80002c08	fa3fb513	sltiu	x10,x31,-93	 x31:0x00000000 x10=0x00000001
       51715000	      5170	80002c0c	222b84b7	lui	x9,0x222b8	  x9=0x222b8000
       51725000	      5171	80002c10	004f28b3	slt	x17,x30,x4	 x30:0x00000000  x4:0x7fff603c x17=0x00000001
       51735000	      5172	80002c14	01751933	sll	x18,x10,x23	 x10:0x00000001 x23:0x00000000 x18=0x00000001
       51745000	      5173	80002c18	cb9981b7	lui	x3,0xcb998	  x3=0xcb998000
       51755000	      5174	80002c1c	01c0e263	bltu	x1,x28,80002c20	  x1:0x80002b60 x28:0x00007a28
       51765000	      5175	80002c20	a1148313	addi	x6,x9,-1519	  x9:0x222b8000  x6=0x222b7a11
       51775000	      5176	80002c24	0016e5b3	or	x11,x13,x1	 x13:0x890f8a88  x1:0x80002b60 x11=0x890fabe8
       51785000	      5177	80002c28	b7983513	sltiu	x10,x16,-1159	 x16:0x000007e8 x10=0x00000001
       51795000	      5178	80002c2c	0082e633	or	x12,x5,x8	  x5:0x80002b6c  x8:0x80000000 x12=0x80002b6c
       51805000	      5179	80002c30	eaadc593	xori	x11,x27,-342	 x27:0x80009fc4 x11=0x7fff616e
       51815000	      5180	80002c34	00b737b3	sltu	x15,x14,x11	 x14:0x890f8edd x11:0x7fff616e x15=0x00000000
       51825000	      5181	80002c38	605e4e13	xori	x28,x28,1541	 x28:0x00007a28 x28=0x00007c2d
       51835000	      5182	80002c3c	005de863	bltu	x27,x5,80002c4c	 x27:0x80009fc4  x5:0x80002b6c
       51845000	      5183	80002c40	010f0663	beq	x30,x16,80002c4c	 x30:0x00000000 x16:0x000007e8
       51855000	      5184	80002c44	00ca5533	srl	x10,x20,x12	 x20:0x0000019d x12:0x80002b6c x10=0x00000000
       51865000	      5185	80002c48	01cd5393	srli	x7,x26,0x1c	 x26:0x00000000  x7=0x00000000
       51875000	      5186	80002c4c	00cdc3b3	xor	x7,x27,x12	 x27:0x80009fc4 x12:0x80002b6c  x7=0x0000b4a8
       51885000	      5187	80002c50	00000013	addi	x0,x0,0	  x0:0x00000000
       51895000	      5188	80002c54	abf57e13	andi	x28,x10,-1345	 x10:0x00000000 x28=0x00000000
       51905000	      5189	80002c58	004aab03	lw	x22,4(x21)	 x21:0x80009f24 x22=0x80002db0 PA:0x80009f28
       51915000	      5190	80002c5c	b02a8c13	addi	x24,x21,-1278	 x21:0x80009f24 x24=0x80009a26
       51925000	      5191	80002c60	017de5b3	or	x11,x27,x23	 x27:0x80009fc4 x23:0x00000000 x11=0x80009fc4
       51935000	      5192	80002c64	018a8a93	addi	x21,x21,24	 x21:0x80009f24 x21=0x80009f3c
       51945000	      5193	80002c68	01431193	slli	x3,x6,0x14	  x6:0x222b7a11  x3=0xa1100000
       51955000	      5194	80002c6c	005ae033	or	x0,x21,x5	 x21:0x80009f3c  x5:0x80002b6c
       51965000	      5195	80002c70	00c194b3	sll	x9,x3,x12	  x3:0xa1100000 x12:0x80002b6c  x9=0x00000000
       51975000	      5196	80002c74	000b0c13	addi	x24,x22,0	 x22:0x80002db0 x24=0x80002db0
       51985000	      5197	80002c78	000c0c67	jalr	x24,x24,0	 x24:0x80002db0 x24=0x80002c78
       51995000	      5198	00000000	00000013	addi	x0,x0,0	  x0:0x00000000
       52005000	      5199	80002db0	00000013	addi	x0,x0,0	  x0:0x00000000
       52015000	      5200	80002db4	0243e863	bltu	x7,x4,80002de4	  x7:0x0000b4a8  x4:0x7fff603c
       52025000	      5201	00000000	00000013	addi	x0,x0,0	  x0:0x00000000
       52035000	      5202	80002de0	00000013	addi	x0,x0,0	  x0:0x00000000
       52045000	      5203	80002de4	01254eb3	xor	x29,x10,x18	 x10:0x00000000 x18:0x00000001 x29=0x00000001
       52055000	      5204	80002de8	00193533	sltu	x10,x18,x1	 x18:0x00000001  x1:0x80002b60 x10=0x00000001
       52065000	      5205	80002dec	62887413	andi	x8,x16,1576	 x16:0x000007e8  x8=0x00000628
       52075000	      5206	80002df0	841ab3b7	lui	x7,0x841ab	  x7=0x841ab000
       52085000	      5207	80002df4	8d796c13	ori	x24,x18,-1833	 x18:0x00000001 x24=0xfffff8d7
       52095000	      5208	80002df8	00330333	add	x6,x6,x3	  x6:0x222b7a11  x3:0xa1100000  x6=0xc33b7a11
       52105000	      5209	80002dfc	014cc9b3	xor	x19,x25,x20	 x25:0x00000001 x20:0x0000019d x19=0x0000019c
       52115000	      5210	80002e00	405d0d33	sub	x26,x26,x5	 x26:0x00000000  x5:0x80002b6c x26=0x7fffd494
       52125000	      5211	80002e04	00000013	addi	x0,x0,0	  x0:0x00000000
       52135000	      5212	80002e08	004aab03	lw	x22,4(x21)	 x21:0x80009f3c x22=0x8000059c PA:0x80009f40
       52145000	      5213	80002e0c	00c35f93	srli	x31,x6,0xc	  x6:0xc33b7a11 x31=0x000c33b7
       52155000	      5214	80002e10	018a8a93	addi	x21,x21,24	 x21:0x80009f3c x21=0x80009f54
       52165000	      5215	80002e14	41d152b3	sra	x5,x2,x29	  x2:0x00008164 x29:0x00000001  x5=0x000040b2
       52175000	      5216	80002e18	000b0213	addi	x4,x22,0	 x22:0x8000059c  x4=0x8000059c
       52185000	      5217	80002e1c	00020267	jalr	x4,x4,0	  x4:0x8000059c  x4=0x80002e1c
       52195000	      5218	00000000	00000013	addi	x0,x0,0	  x0:0x00000000
       52205000	      5219	8000059c	00000013	addi	x0,x0,0	  x0:0x00000000
       52215000	      5220	800005a0	01000b6f	jal	x22,800005a0	 x22=0x800005a0
       52225000	      5221	00000000	00000013	addi	x0,x0,0	  x0:0x00000000
       52235000	      5222	800005ac	00000013	addi	x0,x0,0	  x0:0x00000000
       52245000	      5223	800005b0	004000ef	jal	x1,800005b0	  x1=0x800005b0
       52255000	      5224	00000000	00000013	addi	x0,x0,0	  x0:0x00000000
       52265000	      5225	800005b0	00000013	addi	x0,x0,0	  x0:0x00000000
       52275000	      5226	800005b4	020000ef	jal	x1,800005b4	  x1=0x800005b4
       52285000	      5227	00000000	00000013	addi	x0,x0,0	  x0:0x00000000
       52295000	      5228	800005d0	00000013	addi	x0,x0,0	  x0:0x00000000
       52305000	      5229	800005d4	fd9ffb6f	jal	x22,800005d4	 x22=0x800005d4
       52315000	      5230	00000000	00000013	addi	x0,x0,0	  x0:0x00000000
       52325000	      5231	800005a8	00000013	addi	x0,x0,0	  x0:0x00000000
       52335000	      5232	800005ac	ff9ff0ef	jal	x1,800005ac	  x1=0x800005ac
       52345000	      5233	00000000	00000013	addi	x0,x0,0	  x0:0x00000000
       52355000	      5234	800005a0	00000013	addi	x0,x0,0	  x0:0x00000000
       52365000	      5235	800005a4	01c000ef	jal	x1,800005a4	  x1=0x800005a4
       52375000	      5236	00000000	00000013	addi	x0,x0,0	  x0:0x00000000
       52385000	      5237	800005bc	00000013	addi	x0,x0,0	  x0:0x00000000
       52395000	      5238	800005c0	00c0036f	jal	x6,800005c0	  x6=0x800005c0
       52405000	      5239	00000000	00000013	addi	x0,x0,0	  x0:0x00000000
       52415000	      5240	800005c8	00000013	addi	x0,x0,0	  x0:0x00000000
       52425000	      5241	800005cc	02000eef	jal	x29,800005cc	 x29=0x800005cc
       52435000	      5242	00000000	00000013	addi	x0,x0,0	  x0:0x00000000
       52445000	      5243	800005e8	00000013	addi	x0,x0,0	  x0:0x00000000
       52455000	      5244	800005ec	fedff36f	jal	x6,800005ec	  x6=0x800005ec
       52465000	      5245	00000000	00000013	addi	x0,x0,0	  x0:0x00000000
       52475000	      5246	800005d4	00000013	addi	x0,x0,0	  x0:0x00000000
       52485000	      5247	800005d8	fe5ff36f	jal	x6,800005d8	  x6=0x800005d8
       52495000	      5248	00000000	00000013	addi	x0,x0,0	  x0:0x00000000
       52505000	      5249	800005b8	00000013	addi	x0,x0,0	  x0:0x00000000
       52515000	      5250	800005bc	028000ef	jal	x1,800005bc	  x1=0x800005bc
       52525000	      5251	00000000	00000013	addi	x0,x0,0	  x0:0x00000000
       52535000	      5252	800005e0	00000013	addi	x0,x0,0	  x0:0x00000000
       52545000	      5253	800005e4	fe1ff0ef	jal	x1,800005e4	  x1=0x800005e4
       52555000	      5254	00000000	00000013	addi	x0,x0,0	  x0:0x00000000
       52565000	      5255	800005c0	00000013	addi	x0,x0,0	  x0:0x00000000
       52575000	      5256	800005c4	fe5ff0ef	jal	x1,800005c4	  x1=0x800005c4
       52585000	      5257	00000000	00000013	addi	x0,x0,0	  x0:0x00000000
       52595000	      5258	800005a4	00000013	addi	x0,x0,0	  x0:0x00000000
       52605000	      5259	800005a8	038000ef	jal	x1,800005a8	  x1=0x800005a8
       52615000	      5260	00000000	00000013	addi	x0,x0,0	  x0:0x00000000
       52625000	      5261	800005dc	00000013	addi	x0,x0,0	  x0:0x00000000
       52635000	      5262	800005e0	fe9ff0ef	jal	x1,800005e0	  x1=0x800005e0
       52645000	      5263	00000000	00000013	addi	x0,x0,0	  x0:0x00000000
       52655000	      5264	800005c4	00000013	addi	x0,x0,0	  x0:0x00000000
       52665000	      5265	800005c8	0200036f	jal	x6,800005c8	  x6=0x800005c8
       52675000	      5266	00000000	00000013	addi	x0,x0,0	  x0:0x00000000
       52685000	      5267	800005e4	00000013	addi	x0,x0,0	  x0:0x00000000
       52695000	      5268	800005e8	ff5ff0ef	jal	x1,800005e8	  x1=0x800005e8
       52705000	      5269	00000000	00000013	addi	x0,x0,0	  x0:0x00000000
       52715000	      5270	800005d8	00000013	addi	x0,x0,0	  x0:0x00000000
       52725000	      5271	800005dc	fddff36f	jal	x6,800005dc	  x6=0x800005dc
       52735000	      5272	00000000	00000013	addi	x0,x0,0	  x0:0x00000000
       52745000	      5273	800005b4	00000013	addi	x0,x0,0	  x0:0x00000000
       52755000	      5274	800005b8	01800fef	jal	x31,800005b8	 x31=0x800005b8
       52765000	      5275	00000000	00000013	addi	x0,x0,0	  x0:0x00000000
       52775000	      5276	800005cc	00000013	addi	x0,x0,0	  x0:0x00000000
       52785000	      5277	800005d0	0200036f	jal	x6,800005d0	  x6=0x800005d0
       52795000	      5278	00000000	00000013	addi	x0,x0,0	  x0:0x00000000
       52805000	      5279	800005ec	00000013	addi	x0,x0,0	  x0:0x00000000
       52815000	      5280	800005f0	015e7933	and	x18,x28,x21	 x28:0x00000000 x21:0x80009f54 x18=0x00000000
       52825000	      5281	800005f4	02800b6f	jal	x22,800005f4	 x22=0x800005f4
       52835000	      5282	00000000	00000013	addi	x0,x0,0	  x0:0x00000000
       52845000	      5283	80000618	00000013	addi	x0,x0,0	  x0:0x00000000
       52855000	      5284	8000061c	fe5ff0ef	jal	x1,8000061c	  x1=0x8000061c
       52865000	      5285	00000000	00000013	addi	x0,x0,0	  x0:0x00000000
       52875000	      5286	800005fc	00000013	addi	x0,x0,0	  x0:0x00000000
       52885000	      5287	80000600	0280036f	jal	x6,80000600	  x6=0x80000600
       52895000	      5288	00000000	00000013	addi	x0,x0,0	  x0:0x00000000
       52905000	      5289	80000624	00000013	addi	x0,x0,0	  x0:0x00000000
       52915000	      5290	80000628	fd1ff3ef	jal	x7,80000628	  x7=0x80000628
       52925000	      5291	00000000	00000013	addi	x0,x0,0	  x0:0x00000000
       52935000	      5292	800005f4	00000013	addi	x0,x0,0	  x0:0x00000000
       52945000	      5293	800005f8	0100036f	jal	x6,800005f8	  x6=0x800005f8
       52955000	      5294	00000000	00000013	addi	x0,x0,0	  x0:0x00000000
       52965000	      5295	80000604	00000013	addi	x0,x0,0	  x0:0x00000000
       52975000	      5296	80000608	ff5ff3ef	jal	x7,80000608	  x7=0x80000608
       52985000	      5297	00000000	00000013	addi	x0,x0,0	  x0:0x00000000
       52995000	      5298	800005f8	00000013	addi	x0,x0,0	  x0:0x00000000
       53005000	      5299	800005fc	0140096f	jal	x18,800005fc	 x18=0x800005fc
       53015000	      5300	00000000	00000013	addi	x0,x0,0	  x0:0x00000000
       53025000	      5301	8000060c	00000013	addi	x0,x0,0	  x0:0x00000000
       53035000	      5302	80000610	010000ef	jal	x1,80000610	  x1=0x80000610
       53045000	      5303	00000000	00000013	addi	x0,x0,0	  x0:0x00000000
       53055000	      5304	8000061c	00000013	addi	x0,x0,0	  x0:0x00000000
       53065000	      5305	80000620	ff5ff0ef	jal	x1,80000620	  x1=0x80000620
       53075000	      5306	00000000	00000013	addi	x0,x0,0	  x0:0x00000000
       53085000	      5307	80000610	00000013	addi	x0,x0,0	  x0:0x00000000
       53095000	      5308	80000614	004009ef	jal	x19,80000614	 x19=0x80000614
       53105000	      5309	00000000	00000013	addi	x0,x0,0	  x0:0x00000000
       53115000	      5310	80000614	00000013	addi	x0,x0,0	  x0:0x00000000
       53125000	      5311	80000618	ff5ff0ef	jal	x1,80000618	  x1=0x80000618
       53135000	      5312	00000000	00000013	addi	x0,x0,0	  x0:0x00000000
       53145000	      5313	80000608	00000013	addi	x0,x0,0	  x0:0x00000000
       53155000	      5314	8000060c	ff9ff0ef	jal	x1,8000060c	  x1=0x8000060c
       53165000	      5315	00000000	00000013	addi	x0,x0,0	  x0:0x00000000
       53175000	      5316	80000600	00000013	addi	x0,x0,0	  x0:0x00000000
       53185000	      5317	80000604	020004ef	jal	x9,80000604	  x9=0x80000604
       53195000	      5318	00000000	00000013	addi	x0,x0,0	  x0:0x00000000
       53205000	      5319	80000620	00000013	addi	x0,x0,0	  x0:0x00000000
       53215000	      5320	80000624	008000ef	jal	x1,80000624	  x1=0x80000624
       53225000	      5321	00000000	00000013	addi	x0,x0,0	  x0:0x00000000
       53235000	      5322	80000628	00000013	addi	x0,x0,0	  x0:0x00000000
       53245000	      5323	8000062c	00f59593	slli	x11,x11,0xf	 x11:0x80009fc4 x11=0x4fe20000
       53255000	      5324	80000630	00400b6f	jal	x22,80000630	 x22=0x80000630
       53265000	      5325	00000000	00000013	addi	x0,x0,0	  x0:0x00000000
       53275000	      5326	80000630	00000013	addi	x0,x0,0	  x0:0x00000000
       53285000	      5327	80000634	004000ef	jal	x1,80000634	  x1=0x80000634
       53295000	      5328	00000000	00000013	addi	x0,x0,0	  x0:0x00000000
       53305000	      5329	80000634	00000013	addi	x0,x0,0	  x0:0x00000000
       53315000	      5330	80000638	014000ef	jal	x1,80000638	  x1=0x80000638
       53325000	      5331	00000000	00000013	addi	x0,x0,0	  x0:0x00000000
       53335000	      5332	80000648	00000013	addi	x0,x0,0	  x0:0x00000000
       53345000	      5333	8000064c	ffdff36f	jal	x6,8000064c	  x6=0x8000064c
       53355000	      5334	00000000	00000013	addi	x0,x0,0	  x0:0x00000000
       53365000	      5335	80000644	00000013	addi	x0,x0,0	  x0:0x00000000
       53375000	      5336	80000648	014000ef	jal	x1,80000648	  x1=0x80000648
       53385000	      5337	00000000	00000013	addi	x0,x0,0	  x0:0x00000000
       53395000	      5338	80000658	00000013	addi	x0,x0,0	  x0:0x00000000
       53405000	      5339	8000065c	fe5ff0ef	jal	x1,8000065c	  x1=0x8000065c
       53415000	      5340	00000000	00000013	addi	x0,x0,0	  x0:0x00000000
       53425000	      5341	8000063c	00000013	addi	x0,x0,0	  x0:0x00000000
       53435000	      5342	80000640	ffdff36f	jal	x6,80000640	  x6=0x80000640
       53445000	      5343	00000000	00000013	addi	x0,x0,0	  x0:0x00000000
       53455000	      5344	80000638	00000013	addi	x0,x0,0	  x0:0x00000000
       53465000	      5345	8000063c	0080016f	jal	x2,8000063c	  x2=0x8000063c
       53475000	      5346	00000000	00000013	addi	x0,x0,0	  x0:0x00000000
       53485000	      5347	80000640	00000013	addi	x0,x0,0	  x0:0x00000000
       53495000	      5348	80000644	014009ef	jal	x19,80000644	 x19=0x80000644
       53505000	      5349	00000000	00000013	addi	x0,x0,0	  x0:0x00000000
       53515000	      5350	80000654	00000013	addi	x0,x0,0	  x0:0x00000000
       53525000	      5351	80000658	ff9ff26f	jal	x4,80000658	  x4=0x80000658
       53535000	      5352	00000000	00000013	addi	x0,x0,0	  x0:0x00000000
       53545000	      5353	8000064c	00000013	addi	x0,x0,0	  x0:0x00000000
       53555000	      5354	80000650	0040036f	jal	x6,80000650	  x6=0x80000650
       53565000	      5355	00000000	00000013	addi	x0,x0,0	  x0:0x00000000
       53575000	      5356	80000650	00000013	addi	x0,x0,0	  x0:0x00000000
       53585000	      5357	80000654	00c003ef	jal	x7,80000654	  x7=0x80000654
       53595000	      5358	00000000	00000013	addi	x0,x0,0	  x0:0x00000000
       53605000	      5359	8000065c	00000013	addi	x0,x0,0	  x0:0x00000000
       53615000	      5360	80000660	2471c593	xori	x11,x3,583	  x3:0xa1100000 x11=0xa1100247
       53625000	      5361	80000664	00800b6f	jal	x22,80000664	 x22=0x80000664
       53635000	      5362	00000000	00000013	addi	x0,x0,0	  x0:0x00000000
       53645000	      5363	80000668	00000013	addi	x0,x0,0	  x0:0x00000000
       53655000	      5364	8000066c	00c000ef	jal	x1,8000066c	  x1=0x8000066c
       53665000	      5365	00000000	00000013	addi	x0,x0,0	  x0:0x00000000
       53675000	      5366	80000674	00000013	addi	x0,x0,0	  x0:0x00000000
       53685000	      5367	80000678	01c00d6f	jal	x26,80000678	 x26=0x80000678
       53695000	      5368	00000000	00000013	addi	x0,x0,0	  x0:0x00000000
       53705000	      5369	80000690	00000013	addi	x0,x0,0	  x0:0x00000000
       53715000	      5370	80000694	fe1ff0ef	jal	x1,80000694	  x1=0x80000694
       53725000	      5371	00000000	00000013	addi	x0,x0,0	  x0:0x00000000
       53735000	      5372	80000670	00000013	addi	x0,x0,0	  x0:0x00000000
       53745000	      5373	80000674	018000ef	jal	x1,80000674	  x1=0x80000674
       53755000	      5374	00000000	00000013	addi	x0,x0,0	  x0:0x00000000
       53765000	      5375	80000688	00000013	addi	x0,x0,0	  x0:0x00000000
       53775000	      5376	8000068c	ffdff36f	jal	x6,8000068c	  x6=0x8000068c
       53785000	      5377	00000000	00000013	addi	x0,x0,0	  x0:0x00000000
       53795000	      5378	80000684	00000013	addi	x0,x0,0	  x0:0x00000000
       53805000	      5379	80000688	ff5ff0ef	jal	x1,80000688	  x1=0x80000688
       53815000	      5380	00000000	00000013	addi	x0,x0,0	  x0:0x00000000
       53825000	      5381	80000678	00000013	addi	x0,x0,0	  x0:0x00000000
       53835000	      5382	8000067c	0080036f	jal	x6,8000067c	  x6=0x8000067c
       53845000	      5383	00000000	00000013	addi	x0,x0,0	  x0:0x00000000
       53855000	      5384	80000680	00000013	addi	x0,x0,0	  x0:0x00000000
       53865000	      5385	80000684	00c000ef	jal	x1,80000684	  x1=0x80000684
       53875000	      5386	00000000	00000013	addi	x0,x0,0	  x0:0x00000000
       53885000	      5387	8000068c	00000013	addi	x0,x0,0	  x0:0x00000000
       53895000	      5388	80000690	ff1ff2ef	jal	x5,80000690	  x5=0x80000690
       53905000	      5389	00000000	00000013	addi	x0,x0,0	  x0:0x00000000
       53915000	      5390	8000067c	00000013	addi	x0,x0,0	  x0:0x00000000
       53925000	      5391	80000680	ff1ff36f	jal	x6,80000680	  x6=0x80000680
       53935000	      5392	00000000	00000013	addi	x0,x0,0	  x0:0x00000000
       53945000	      5393	8000066c	00000013	addi	x0,x0,0	  x0:0x00000000
       53955000	      5394	80000670	ff9ff36f	jal	x6,80000670	  x6=0x80000670
       53965000	      5395	00000000	00000013	addi	x0,x0,0	  x0:0x00000000
       53975000	      5396	80000664	00000013	addi	x0,x0,0	  x0:0x00000000
       53985000	      5397	80000668	030000ef	jal	x1,80000668	  x1=0x80000668
       53995000	      5398	00000000	00000013	addi	x0,x0,0	  x0:0x00000000
       54005000	      5399	80000694	00000013	addi	x0,x0,0	  x0:0x00000000
       54015000	      5400	80000698	00d51913	slli	x18,x10,0xd	 x10:0x00000001 x18=0x00002000
       54025000	      5401	8000069c	00c00b6f	jal	x22,8000069c	 x22=0x8000069c
       54035000	      5402	00000000	00000013	addi	x0,x0,0	  x0:0x00000000
       54045000	      5403	800006a4	00000013	addi	x0,x0,0	  x0:0x00000000
       54055000	      5404	800006a8	0100086f	jal	x16,800006a8	 x16=0x800006a8
       54065000	      5405	00000000	00000013	addi	x0,x0,0	  x0:0x00000000
       54075000	      5406	800006b4	00000013	addi	x0,x0,0	  x0:0x00000000
       54085000	      5407	800006b8	00c0026f	jal	x4,800006b8	  x4=0x800006b8
       54095000	      5408	00000000	00000013	addi	x0,x0,0	  x0:0x00000000
       54105000	      5409	800006c0	00000013	addi	x0,x0,0	  x0:0x00000000
       54115000	      5410	800006c4	ff9ffbef	jal	x23,800006c4	 x23=0x800006c4
       54125000	      5411	00000000	00000013	addi	x0,x0,0	  x0:0x00000000
       54135000	      5412	800006b8	00000013	addi	x0,x0,0	  x0:0x00000000
       54145000	      5413	800006bc	ff9ff0ef	jal	x1,800006bc	  x1=0x800006bc
       54155000	      5414	00000000	00000013	addi	x0,x0,0	  x0:0x00000000
       54165000	      5415	800006b0	00000013	addi	x0,x0,0	  x0:0x00000000
       54175000	      5416	800006b4	ffdff56f	jal	x10,800006b4	 x10=0x800006b4
       54185000	      5417	00000000	00000013	addi	x0,x0,0	  x0:0x00000000
       54195000	      5418	800006ac	00000013	addi	x0,x0,0	  x0:0x00000000
       54205000	      5419	800006b0	010000ef	jal	x1,800006b0	  x1=0x800006b0
       54215000	      5420	00000000	00000013	addi	x0,x0,0	  x0:0x00000000
       54225000	      5421	800006bc	00000013	addi	x0,x0,0	  x0:0x00000000
       54235000	      5422	800006c0	fe1ff0ef	jal	x1,800006c0	  x1=0x800006c0
       54245000	      5423	00000000	00000013	addi	x0,x0,0	  x0:0x00000000
       54255000	      5424	8000069c	00000013	addi	x0,x0,0	  x0:0x00000000
       54265000	      5425	800006a0	00c0036f	jal	x6,800006a0	  x6=0x800006a0
       54275000	      5426	00000000	00000013	addi	x0,x0,0	  x0:0x00000000
       54285000	      5427	800006a8	00000013	addi	x0,x0,0	  x0:0x00000000
       54295000	      5428	800006ac	ff9ff96f	jal	x18,800006ac	 x18=0x800006ac
       54305000	      5429	00000000	00000013	addi	x0,x0,0	  x0:0x00000000
       54315000	      5430	800006a0	00000013	addi	x0,x0,0	  x0:0x00000000
       54325000	      5431	800006a4	02400e6f	jal	x28,800006a4	 x28=0x800006a4
       54335000	      5432	00000000	00000013	addi	x0,x0,0	  x0:0x00000000
       54345000	      5433	800006c4	00000013	addi	x0,x0,0	  x0:0x00000000
       54355000	      5434	800006c8	000ff133	and	x2,x31,x0	 x31:0x800005b8  x0:0x00000000  x2=0x00000000
       54365000	      5435	800006cc	04400b6f	jal	x22,800006cc	 x22=0x800006cc
       54375000	      5436	00000000	00000013	addi	x0,x0,0	  x0:0x00000000
       54385000	      5437	8000070c	00000013	addi	x0,x0,0	  x0:0x00000000
       54395000	      5438	80000710	fcdff76f	jal	x14,80000710	 x14=0x80000710
       54405000	      5439	00000000	00000013	addi	x0,x0,0	  x0:0x00000000
       54415000	      5440	800006d8	00000013	addi	x0,x0,0	  x0:0x00000000
       54425000	      5441	800006dc	0200036f	jal	x6,800006dc	  x6=0x800006dc
       54435000	      5442	00000000	00000013	addi	x0,x0,0	  x0:0x00000000
       54445000	      5443	800006f8	00000013	addi	x0,x0,0	  x0:0x00000000
       54455000	      5444	800006fc	ff5ff26f	jal	x4,800006fc	  x4=0x800006fc
       54465000	      5445	00000000	00000013	addi	x0,x0,0	  x0:0x00000000
       54475000	      5446	800006ec	00000013	addi	x0,x0,0	  x0:0x00000000
       54485000	      5447	800006f0	fe5ff36f	jal	x6,800006f0	  x6=0x800006f0
       54495000	      5448	00000000	00000013	addi	x0,x0,0	  x0:0x00000000
       54505000	      5449	800006d0	00000013	addi	x0,x0,0	  x0:0x00000000
       54515000	      5450	800006d4	010000ef	jal	x1,800006d4	  x1=0x800006d4
       54525000	      5451	00000000	00000013	addi	x0,x0,0	  x0:0x00000000
       54535000	      5452	800006e0	00000013	addi	x0,x0,0	  x0:0x00000000
       54545000	      5453	800006e4	fedff36f	jal	x6,800006e4	  x6=0x800006e4
       54555000	      5454	00000000	00000013	addi	x0,x0,0	  x0:0x00000000
       54565000	      5455	800006cc	00000013	addi	x0,x0,0	  x0:0x00000000
       54575000	      5456	800006d0	030000ef	jal	x1,800006d0	  x1=0x800006d0
       54585000	      5457	00000000	00000013	addi	x0,x0,0	  x0:0x00000000
       54595000	      5458	800006fc	00000013	addi	x0,x0,0	  x0:0x00000000
       54605000	      5459	80000700	ff5ff2ef	jal	x5,80000700	  x5=0x80000700
       54615000	      5460	00000000	00000013	addi	x0,x0,0	  x0:0x00000000
       54625000	      5461	800006f0	00000013	addi	x0,x0,0	  x0:0x00000000
       54635000	      5462	800006f4	020000ef	jal	x1,800006f4	  x1=0x800006f4
       54645000	      5463	00000000	00000013	addi	x0,x0,0	  x0:0x00000000
       54655000	      5464	80000710	00000013	addi	x0,x0,0	  x0:0x00000000
       54665000	      5465	80000714	fc5ff0ef	jal	x1,80000714	  x1=0x80000714
       54675000	      5466	00000000	00000013	addi	x0,x0,0	  x0:0x00000000
       54685000	      5467	800006d4	00000013	addi	x0,x0,0	  x0:0x00000000
       54695000	      5468	800006d8	034000ef	jal	x1,800006d8	  x1=0x800006d8
       54705000	      5469	00000000	00000013	addi	x0,x0,0	  x0:0x00000000
       54715000	      5470	80000708	00000013	addi	x0,x0,0	  x0:0x00000000
       54725000	      5471	8000070c	fddff0ef	jal	x1,8000070c	  x1=0x8000070c
       54735000	      5472	00000000	00000013	addi	x0,x0,0	  x0:0x00000000
       54745000	      5473	800006e4	00000013	addi	x0,x0,0	  x0:0x00000000
       54755000	      5474	800006e8	0340046f	jal	x8,800006e8	  x8=0x800006e8
       54765000	      5475	00000000	00000013	addi	x0,x0,0	  x0:0x00000000
       54775000	      5476	80000718	00000013	addi	x0,x0,0	  x0:0x00000000
       54785000	      5477	8000071c	fedff0ef	jal	x1,8000071c	  x1=0x8000071c
       54795000	      5478	00000000	00000013	addi	x0,x0,0	  x0:0x00000000
       54805000	      5479	80000704	00000013	addi	x0,x0,0	  x0:0x00000000
       54815000	      5480	80000708	010000ef	jal	x1,80000708	  x1=0x80000708
       54825000	      5481	00000000	00000013	addi	x0,x0,0	  x0:0x00000000
       54835000	      5482	80000714	00000013	addi	x0,x0,0	  x0:0x00000000
       54845000	      5483	80000718	fedff0ef	jal	x1,80000718	  x1=0x80000718
       54855000	      5484	00000000	00000013	addi	x0,x0,0	  x0:0x00000000
       54865000	      5485	80000700	00000013	addi	x0,x0,0	  x0:0x00000000
       54875000	      5486	80000704	fddff2ef	jal	x5,80000704	  x5=0x80000704
       54885000	      5487	00000000	00000013	addi	x0,x0,0	  x0:0x00000000
       54895000	      5488	800006dc	00000013	addi	x0,x0,0	  x0:0x00000000
       54905000	      5489	800006e0	00c000ef	jal	x1,800006e0	  x1=0x800006e0
       54915000	      5490	00000000	00000013	addi	x0,x0,0	  x0:0x00000000
       54925000	      5491	800006e8	00000013	addi	x0,x0,0	  x0:0x00000000
       54935000	      5492	800006ec	00c000ef	jal	x1,800006ec	  x1=0x800006ec
       54945000	      5493	00000000	00000013	addi	x0,x0,0	  x0:0x00000000
       54955000	      5494	800006f4	00000013	addi	x0,x0,0	  x0:0x00000000
       54965000	      5495	800006f8	028000ef	jal	x1,800006f8	  x1=0x800006f8
       54975000	      5496	00000000	00000013	addi	x0,x0,0	  x0:0x00000000
       54985000	      5497	8000071c	00000013	addi	x0,x0,0	  x0:0x00000000
       54995000	      5498	80000720	004000ef	jal	x1,80000720	  x1=0x80000720
       55005000	      5499	00000000	00000013	addi	x0,x0,0	  x0:0x00000000
       55015000	      5500	80000720	00000013	addi	x0,x0,0	  x0:0x00000000
       55025000	      5501	80000724	69bf8e93	addi	x29,x31,1691	 x31:0x800005b8 x29=0x80000c53
       55035000	      5502	80000728	03c00b6f	jal	x22,80000728	 x22=0x80000728
       55045000	      5503	00000000	00000013	addi	x0,x0,0	  x0:0x00000000
       55055000	      5504	80000760	00000013	addi	x0,x0,0	  x0:0x00000000
       55065000	      5505	80000764	fd1ff1ef	jal	x3,80000764	  x3=0x80000764
       55075000	      5506	00000000	00000013	addi	x0,x0,0	  x0:0x00000000
       55085000	      5507	80000730	00000013	addi	x0,x0,0	  x0:0x00000000
       55095000	      5508	80000734	04c001ef	jal	x3,80000734	  x3=0x80000734
       55105000	      5509	00000000	00000013	addi	x0,x0,0	  x0:0x00000000
       55115000	      5510	8000077c	00000013	addi	x0,x0,0	  x0:0x00000000
       55125000	      5511	80000780	fe1ff0ef	jal	x1,80000780	  x1=0x80000780
       55135000	      5512	00000000	00000013	addi	x0,x0,0	  x0:0x00000000
       55145000	      5513	8000075c	00000013	addi	x0,x0,0	  x0:0x00000000
       55155000	      5514	80000760	ff5ff0ef	jal	x1,80000760	  x1=0x80000760
       55165000	      5515	00000000	00000013	addi	x0,x0,0	  x0:0x00000000
       55175000	      5516	80000750	00000013	addi	x0,x0,0	  x0:0x00000000
       55185000	      5517	80000754	ff1ffe6f	jal	x28,80000754	 x28=0x80000754
       55195000	      5518	00000000	00000013	addi	x0,x0,0	  x0:0x00000000
       55205000	      5519	80000740	00000013	addi	x0,x0,0	  x0:0x00000000
       55215000	      5520	80000744	ffdff86f	jal	x16,80000744	 x16=0x80000744
       55225000	      5521	00000000	00000013	addi	x0,x0,0	  x0:0x00000000
       55235000	      5522	8000073c	00000013	addi	x0,x0,0	  x0:0x00000000
       55245000	      5523	80000740	0280086f	jal	x16,80000740	 x16=0x80000740
       55255000	      5524	00000000	00000013	addi	x0,x0,0	  x0:0x00000000
       55265000	      5525	80000764	00000013	addi	x0,x0,0	  x0:0x00000000
       55275000	      5526	80000768	fd1ff0ef	jal	x1,80000768	  x1=0x80000768
       55285000	      5527	00000000	00000013	addi	x0,x0,0	  x0:0x00000000
       55295000	      5528	80000734	00000013	addi	x0,x0,0	  x0:0x00000000
       55305000	      5529	80000738	ff5ff36f	jal	x6,80000738	  x6=0x80000738
       55315000	      5530	00000000	00000013	addi	x0,x0,0	  x0:0x00000000
       55325000	      5531	80000728	00000013	addi	x0,x0,0	  x0:0x00000000
       55335000	      5532	8000072c	004000ef	jal	x1,8000072c	  x1=0x8000072c
       55345000	      5533	00000000	00000013	addi	x0,x0,0	  x0:0x00000000
       55355000	      5534	8000072c	00000013	addi	x0,x0,0	  x0:0x00000000
       55365000	      5535	80000730	02c000ef	jal	x1,80000730	  x1=0x80000730
       55375000	      5536	00000000	00000013	addi	x0,x0,0	  x0:0x00000000
       55385000	      5537	80000758	00000013	addi	x0,x0,0	  x0:0x00000000
       55395000	      5538	8000075c	020000ef	jal	x1,8000075c	  x1=0x8000075c
       55405000	      5539	00000000	00000013	addi	x0,x0,0	  x0:0x00000000
       55415000	      5540	80000778	00000013	addi	x0,x0,0	  x0:0x00000000
       55425000	      5541	8000077c	ffdff36f	jal	x6,8000077c	  x6=0x8000077c
       55435000	      5542	00000000	00000013	addi	x0,x0,0	  x0:0x00000000
       55445000	      5543	80000774	00000013	addi	x0,x0,0	  x0:0x00000000
       55455000	      5544	80000778	fd9ff66f	jal	x12,80000778	 x12=0x80000778
       55465000	      5545	00000000	00000013	addi	x0,x0,0	  x0:0x00000000
       55475000	      5546	8000074c	00000013	addi	x0,x0,0	  x0:0x00000000
       55485000	      5547	80000750	020000ef	jal	x1,80000750	  x1=0x80000750
       55495000	      5548	00000000	00000013	addi	x0,x0,0	  x0:0x00000000
       55505000	      5549	8000076c	00000013	addi	x0,x0,0	  x0:0x00000000
       55515000	      5550	80000770	fd9ff0ef	jal	x1,80000770	  x1=0x80000770
       55525000	      5551	00000000	00000013	addi	x0,x0,0	  x0:0x00000000
       55535000	      5552	80000744	00000013	addi	x0,x0,0	  x0:0x00000000
       55545000	      5553	80000748	01000b6f	jal	x22,80000748	 x22=0x80000748
       55555000	      5554	00000000	00000013	addi	x0,x0,0	  x0:0x00000000
       55565000	      5555	80000754	00000013	addi	x0,x0,0	  x0:0x00000000
       55575000	      5556	80000758	01c000ef	jal	x1,80000758	  x1=0x80000758
       55585000	      5557	00000000	00000013	addi	x0,x0,0	  x0:0x00000000
       55595000	      5558	80000770	00000013	addi	x0,x0,0	  x0:0x00000000
       55605000	      5559	80000774	fc9ff0ef	jal	x1,80000774	  x1=0x80000774
       55615000	      5560	00000000	00000013	addi	x0,x0,0	  x0:0x00000000
       55625000	      5561	80000738	00000013	addi	x0,x0,0	  x0:0x00000000
       55635000	      5562	8000073c	030000ef	jal	x1,8000073c	  x1=0x8000073c
       55645000	      5563	00000000	00000013	addi	x0,x0,0	  x0:0x00000000
       55655000	      5564	80000768	00000013	addi	x0,x0,0	  x0:0x00000000
       55665000	      5565	8000076c	fe1ff0ef	jal	x1,8000076c	  x1=0x8000076c
       55675000	      5566	00000000	00000013	addi	x0,x0,0	  x0:0x00000000
       55685000	      5567	80000748	00000013	addi	x0,x0,0	  x0:0x00000000
       55695000	      5568	8000074c	038000ef	jal	x1,8000074c	  x1=0x8000074c
       55705000	      5569	00000000	00000013	addi	x0,x0,0	  x0:0x00000000
       55715000	      5570	80000780	00000013	addi	x0,x0,0	  x0:0x00000000
       55725000	      5571	80000784	00000013	addi	x0,x0,0	  x0:0x00000000
       55735000	      5572	80000788	4005d893	srai	x17,x11,0x0	 x11:0xa1100247 x17=0xa1100247
       55745000	      5573	8000078c	8cf944b7	lui	x9,0x8cf94	  x9=0x8cf94000
       55755000	      5574	80000790	008fd3b3	srl	x7,x31,x8	 x31:0x800005b8  x8:0x800006e8  x7=0x00800005
       55765000	      5575	80000794	04034263	blt	x6,x0,800007d8	  x6:0x8000077c  x0:0x00000000
       55775000	      5576	00000000	00000013	addi	x0,x0,0	  x0:0x00000000
       55785000	      5577	800007d4	00000013	addi	x0,x0,0	  x0:0x00000000
       55795000	      5578	800007d8	35a57c17	auipc	x24,0x35a57	 x24=0xb5a577d4
       55805000	      5579	800007dc	044f5463	bge	x30,x4,80000824	 x30:0x00000000  x4:0x800006fc
       55815000	      5580	00000000	00000013	addi	x0,x0,0	  x0:0x00000000
       55825000	      5581	80000820	00000013	addi	x0,x0,0	  x0:0x00000000
       55835000	      5582	80000824	450da013	slti	x0,x27,1104	 x27:0x80009fc4
       55845000	      5583	80000828	00d58433	add	x8,x11,x13	 x11:0xa1100247 x13:0x890f8a88  x8=0x2a1f8ccf
       55855000	      5584	8000082c	ccf9ea37	lui	x20,0xccf9e	 x20=0xccf9e000
       55865000	      5585	80000830	03689863	bne	x17,x22,80000860	 x17:0xa1100247 x22:0x80000748
       55875000	      5586	00000000	00000013	addi	x0,x0,0	  x0:0x00000000
       55885000	      5587	8000085c	00000013	addi	x0,x0,0	  x0:0x00000000
       55895000	      5588	80000860	41075333	sra	x6,x14,x16	 x14:0x80000710 x16:0x80000740  x6=0x80000710
       55905000	      5589	80000864	01592bb3	slt	x23,x18,x21	 x18:0x800006ac x21:0x80009f54 x23=0x00000001
       55915000	      5590	80000868	40ef5313	srai	x6,x30,0xe	 x30:0x00000000  x6=0x00000000
       55925000	      5591	8000086c	0046a1b3	slt	x3,x13,x4	 x13:0x890f8a88  x4:0x800006fc  x3=0x00000000
       55935000	      5592	80000870	00000013	addi	x0,x0,0	  x0:0x00000000
       55945000	      5593	80000874	0110a0b3	slt	x1,x1,x17	  x1:0x8000074c x17:0xa1100247  x1=0x00000001
       55955000	      5594	80000878	0233c663	blt	x7,x3,800008a4	  x7:0x00800005  x3:0x00000000
       55965000	      5595	8000087c	70b7b893	sltiu	x17,x15,1803	 x15:0x00000000 x17=0x00000001
       55975000	      5596	80000880	02719e63	bne	x3,x7,800008bc	  x3:0x00000000  x7:0x00800005
       55985000	      5597	00000000	00000013	addi	x0,x0,0	  x0:0x00000000
       55995000	      5598	800008b8	00000013	addi	x0,x0,0	  x0:0x00000000
       56005000	      5599	800008bc	008835b3	sltu	x11,x16,x8	 x16:0x80000740  x8:0x2a1f8ccf x11=0x00000000
       56015000	      5600	800008c0	03b74663	blt	x14,x27,800008ec	 x14:0x80000710 x27:0x80009fc4
       56025000	      5601	00000000	00000013	addi	x0,x0,0	  x0:0x00000000
       56035000	      5602	800008e8	00000013	addi	x0,x0,0	  x0:0x00000000
       56045000	      5603	800008ec	e639ab93	slti	x23,x19,-413	 x19:0x80000644 x23=0x00000001
       56055000	      5604	800008f0	00bb7463	bgeu	x22,x11,800008f8	 x22:0x80000748 x11:0x00000000
       56065000	      5605	00000000	00000013	addi	x0,x0,0	  x0:0x00000000
       56075000	      5606	800008f4	00000013	addi	x0,x0,0	  x0:0x00000000
       56085000	      5607	800008f8	0084d593	srli	x11,x9,0x8	  x9:0x8cf94000 x11=0x008cf940
       56095000	      5608	800008fc	69921897	auipc	x17,0x69921	 x17=0xe99218f8
       56105000	      5609	80000900	c2633e93	sltiu	x29,x6,-986	  x6:0x00000000 x29=0x00000001
       56115000	      5610	80000904	01df5193	srli	x3,x30,0x1d	 x30:0x00000000  x3=0x00000000
       56125000	      5611	80000908	c5ef7f93	andi	x31,x30,-930	 x30:0x00000000 x31=0x00000000
       56135000	      5612	8000090c	01ca46b3	xor	x13,x20,x28	 x20:0xccf9e000 x28:0x80000754 x13=0x4cf9e754
       56145000	      5613	80000910	00f619b3	sll	x19,x12,x15	 x12:0x80000778 x15:0x00000000 x19=0x80000778
       56155000	      5614	80000914	04dad863	bge	x21,x13,80000964	 x21:0x80009f54 x13:0x4cf9e754
       56165000	      5615	80000918	007b1863	bne	x22,x7,80000928	 x22:0x80000748  x7:0x00800005
       56175000	      5616	00000000	00000013	addi	x0,x0,0	  x0:0x00000000
       56185000	      5617	80000924	00000013	addi	x0,x0,0	  x0:0x00000000
       56195000	      5618	80000928	02675663	bge	x14,x6,80000954	 x14:0x80000710  x6:0x00000000
       56205000	      5619	8000092c	00e15713	srli	x14,x2,0xe	  x2:0x00000000 x14=0x00000000
       56215000	      5620	80000930	a647a817	auipc	x16,0xa647a	 x16=0x2647a92c
       56225000	      5621	80000934	01d9cb33	xor	x22,x19,x29	 x19:0x80000778 x29:0x00000001 x22=0x80000779
       56235000	      5622	80000938	04736863	bltu	x6,x7,80000988	  x6:0x00000000  x7:0x00800005
       56245000	      5623	00000000	00000013	addi	x0,x0,0	  x0:0x00000000
       56255000	      5624	80000984	00000013	addi	x0,x0,0	  x0:0x00000000
       56265000	      5625	80000988	40318233	sub	x4,x3,x3	  x3:0x00000000  x3:0x00000000  x4=0x00000000
       56275000	      5626	8000098c	00000013	addi	x0,x0,0	  x0:0x00000000
       56285000	      5627	80000990	01c31413	slli	x8,x6,0x1c	  x6:0x00000000  x8=0x00000000
       56295000	      5628	80000994	011bd413	srli	x8,x23,0x11	 x23:0x00000001  x8=0x00000000
       56305000	      5629	80000998	004d4e33	xor	x28,x26,x4	 x26:0x80000678  x4:0x00000000 x28=0x80000678
       56315000	      5630	8000099c	00f40833	add	x16,x8,x15	  x8:0x00000000 x15:0x00000000 x16=0x00000000
       56325000	      5631	800009a0	0301f863	bgeu	x3,x16,800009d0	  x3:0x00000000 x16:0x00000000
       56335000	      5632	00000000	00000013	addi	x0,x0,0	  x0:0x00000000
       56345000	      5633	800009cc	00000013	addi	x0,x0,0	  x0:0x00000000
       56355000	      5634	800009d0	410f05b3	sub	x11,x30,x16	 x30:0x00000000 x16:0x00000000 x11=0x00000000
       56365000	      5635	800009d4	00419233	sll	x4,x3,x4	  x3:0x00000000  x4:0x00000000  x4=0x00000000
       56375000	      5636	800009d8	00000013	addi	x0,x0,0	  x0:0x00000000
       56385000	      5637	800009dc	03851863	bne	x10,x24,80000a0c	 x10:0x800006b4 x24:0xb5a577d4
       56395000	      5638	00000000	00000013	addi	x0,x0,0	  x0:0x00000000
       56405000	      5639	80000a08	00000013	addi	x0,x0,0	  x0:0x00000000
       56415000	      5640	80000a0c	7175c993	xori	x19,x11,1815	 x11:0x00000000 x19=0x00000717
       56425000	      5641	80000a10	0172c3b3	xor	x7,x5,x23	  x5:0x80000704 x23:0x00000001  x7=0x80000705
       56435000	      5642	80000a14	2d1dc213	xori	x4,x27,721	 x27:0x80009fc4  x4=0x80009d15
       56445000	      5643	80000a18	00000013	addi	x0,x0,0	  x0:0x00000000
       56455000	      5644	80000a1c	00944863	blt	x8,x9,80000a2c	  x8:0x00000000  x9:0x8cf94000
       56465000	      5645	80000a20	00de07b3	add	x15,x28,x13	 x28:0x80000678 x13:0x4cf9e754 x15=0xccf9edcc
       56475000	      5646	80000a24	0312c663	blt	x5,x17,80000a50	  x5:0x80000704 x17:0xe99218f8
       56485000	      5647	00000000	00000013	addi	x0,x0,0	  x0:0x00000000
       56495000	      5648	80000a4c	00000013	addi	x0,x0,0	  x0:0x00000000
       56505000	      5649	80000a50	00d0a433	slt	x8,x1,x13	  x1:0x00000001 x13:0x4cf9e754  x8=0x00000001
       56515000	      5650	80000a54	013b9993	slli	x19,x23,0x13	 x23:0x00000001 x19=0x00080000
       56525000	      5651	80000a58	418082b3	sub	x5,x1,x24	  x1:0x00000001 x24:0xb5a577d4  x5=0x4a5a882d
       56535000	      5652	80000a5c	f75fa197	auipc	x3,0xf75fa	  x3=0x775faa58
       56545000	      5653	80000a60	7d5ca493	slti	x9,x25,2005	 x25:0x00000001  x9=0x00000001
       56555000	      5654	80000a64	258fc197	auipc	x3,0x258fc	  x3=0xa58fca60
       56565000	      5655	80000a68	00e1d693	srli	x13,x3,0xe	  x3:0xa58fca60 x13=0x0002963f
       56575000	      5656	80000a6c	018754b3	srl	x9,x14,x24	 x14:0x00000000 x24:0xb5a577d4  x9=0x00000000
       56585000	      5657	80000a70	02e91863	bne	x18,x14,80000aa0	 x18:0x800006ac x14:0x00000000
       56595000	      5658	00000000	00000013	addi	x0,x0,0	  x0:0x00000000
       56605000	      5659	80000a9c	00000013	addi	x0,x0,0	  x0:0x00000000
       56615000	      5660	80000aa0	0036f7b3	and	x15,x13,x3	 x13:0x0002963f  x3:0xa58fca60 x15=0x00028220
       56625000	      5661	80000aa4	3d797017	auipc	x0,0x3d797	
       56635000	      5662	80000aa8	b0486b17	auipc	x22,0xb0486	 x22=0x30486aa4
       56645000	      5663	80000aac	00607463	bgeu	x0,x6,80000ab4	  x0:0x00000000  x6:0x00000000
       56655000	      5664	00000000	00000013	addi	x0,x0,0	  x0:0x00000000
       56665000	      5665	80000ab0	00000013	addi	x0,x0,0	  x0:0x00000000
       56675000	      5666	80000ab4	02b30663	beq	x6,x11,80000ae0	  x6:0x00000000 x11:0x00000000
       56685000	      5667	00000000	00000013	addi	x0,x0,0	  x0:0x00000000
       56695000	      5668	80000adc	00000013	addi	x0,x0,0	  x0:0x00000000
       56705000	      5669	80000ae0	01049cb3	sll	x25,x9,x16	  x9:0x00000000 x16:0x00000000 x25=0x00000000
       56715000	      5670	80000ae4	06feca63	blt	x29,x15,80000b58	 x29:0x00000001 x15:0x00028220
       56725000	      5671	00000000	00000013	addi	x0,x0,0	  x0:0x00000000
       56735000	      5672	80000b54	00000013	addi	x0,x0,0	  x0:0x00000000
       56745000	      5673	80000b58	00e6de93	srli	x29,x13,0xe	 x13:0x0002963f x29=0x0000000a
       56755000	      5674	80000b5c	03c98463	beq	x19,x28,80000b84	 x19:0x00080000 x28:0x80000678
       56765000	      5675	80000b60	01ddda33	srl	x20,x27,x29	 x27:0x80009fc4 x29:0x0000000a x20=0x00200027
       56775000	      5676	80000b64	41795213	srai	x4,x18,0x17	 x18:0x800006ac  x4=0xffffff00
       56785000	      5677	80000b68	0d94fd13	andi	x26,x9,217	  x9:0x00000000 x26=0x00000000
       56795000	      5678	80000b6c	00000013	addi	x0,x0,0	  x0:0x00000000
       56805000	      5679	80000b70	00ffdb93	srli	x23,x31,0xf	 x31:0x00000000 x23=0x00000000
       56815000	      5680	80000b74	008a87b3	add	x15,x21,x8	 x21:0x80009f54  x8:0x00000001 x15=0x80009f55
       56825000	      5681	80000b78	01e52d33	slt	x26,x10,x30	 x10:0x800006b4 x30:0x00000000 x26=0x00000001
       56835000	      5682	80000b7c	0135b233	sltu	x4,x11,x19	 x11:0x00000000 x19:0x00080000  x4=0x00000001
       56845000	      5683	80000b80	05394263	blt	x18,x19,80000bc4	 x18:0x800006ac x19:0x00080000
       56855000	      5684	00000000	00000013	addi	x0,x0,0	  x0:0x00000000
       56865000	      5685	80000bc0	00000013	addi	x0,x0,0	  x0:0x00000000
       56875000	      5686	80000bc4	0131a4b3	slt	x9,x3,x19	  x3:0xa58fca60 x19:0x00080000  x9=0x00000001
       56885000	      5687	80000bc8	00d6e6b3	or	x13,x13,x13	 x13:0x0002963f x13:0x0002963f x13=0x0002963f
       56895000	      5688	80000bcc	00259393	slli	x7,x11,0x2	 x11:0x00000000  x7=0x00000000
       56905000	      5689	80000bd0	01162bb3	slt	x23,x12,x17	 x12:0x80000778 x17:0xe99218f8 x23=0x00000001
       56915000	      5690	80000bd4	e0a74393	xori	x7,x14,-502	 x14:0x00000000  x7=0xfffffe0a
       56925000	      5691	80000bd8	00000013	addi	x0,x0,0	  x0:0x00000000
       56935000	      5692	80000bdc	41a7de33	sra	x28,x15,x26	 x15:0x80009f55 x26:0x00000001 x28=0xc0004faa
       56945000	      5693	80000be0	005d5133	srl	x2,x26,x5	 x26:0x00000001  x5:0x4a5a882d  x2=0x00000000
       56955000	      5694	80000be4	00f75e93	srli	x29,x14,0xf	 x14:0x00000000 x29=0x00000000
       56965000	      5695	80000be8	95c57493	andi	x9,x10,-1700	 x10:0x800006b4  x9=0x80000014
       56975000	      5696	80000bec	4167d333	sra	x6,x15,x22	 x15:0x80009f55 x22:0x30486aa4  x6=0xf80009f5
       56985000	      5697	80000bf0	05d40863	beq	x8,x29,80000c40	  x8:0x00000001 x29:0x00000000
       56995000	      5698	80000bf4	01ffd663	bge	x31,x31,80000c00	 x31:0x00000000 x31:0x00000000
       57005000	      5699	00000000	00000013	addi	x0,x0,0	  x0:0x00000000
       57015000	      5700	80000bfc	00000013	addi	x0,x0,0	  x0:0x00000000
       57025000	      5701	80000c00	00b38cb3	add	x25,x7,x11	  x7:0xfffffe0a x11:0x00000000 x25=0xfffffe0a
       57035000	      5702	80000c04	404bd833	sra	x16,x23,x4	 x23:0x00000001  x4:0x00000001 x16=0x00000000
       57045000	      5703	80000c08	028b4663	blt	x22,x8,80000c34	 x22:0x30486aa4  x8:0x00000001
       57055000	      5704	80000c0c	01522b33	slt	x22,x4,x21	  x4:0x00000001 x21:0x80009f54 x22=0x00000000
       57065000	      5705	80000c10	01d63533	sltu	x10,x12,x29	 x12:0x80000778 x29:0x00000000 x10=0x00000000
       57075000	      5706	80000c14	00efd013	srli	x0,x31,0xe	 x31:0x00000000
       57085000	      5707	80000c18	03267863	bgeu	x12,x18,80000c48	 x12:0x80000778 x18:0x800006ac
       57095000	      5708	00000000	00000013	addi	x0,x0,0	  x0:0x00000000
       57105000	      5709	80000c44	00000013	addi	x0,x0,0	  x0:0x00000000
       57115000	      5710	80000c48	410c8693	addi	x13,x25,1040	 x25:0xfffffe0a x13=0x0000021a
       57125000	      5711	80000c4c	00946033	or	x0,x8,x9	  x8:0x00000001  x9:0x80000014
       57135000	      5712	80000c50	0d10e593	ori	x11,x1,209	  x1:0x00000001 x11=0x000000d1
       57145000	      5713	80000c54	792b2993	slti	x19,x22,1938	 x22:0x00000000 x19=0x00000001
       57155000	      5714	80000c58	f8e13313	sltiu	x6,x2,-114	  x2:0x00000000  x6=0x00000001
       57165000	      5715	80000c5c	41cfde33	sra	x28,x31,x28	 x31:0x00000000 x28:0xc0004faa x28=0x00000000
       57175000	      5716	80000c60	40c7de33	sra	x28,x15,x12	 x15:0x80009f55 x12:0x80000778 x28=0xffffff80
       57185000	      5717	80000c64	52b9e593	ori	x11,x19,1323	 x19:0x00000001 x11=0x0000052b
       57195000	      5718	80000c68	00795013	srli	x0,x18,0x7	 x18:0x800006ac
       57205000	      5719	80000c6c	01469e93	slli	x29,x13,0x14	 x13:0x0000021a x29=0x21a00000
       57215000	      5720	80000c70	01c37433	and	x8,x6,x28	  x6:0x00000001 x28:0xffffff80  x8=0x00000000
       57225000	      5721	80000c74	f38b2893	slti	x17,x22,-200	 x22:0x00000000 x17=0x00000000
       57235000	      5722	80000c78	02f36663	bltu	x6,x15,80000ca4	  x6:0x00000001 x15:0x80009f55
       57245000	      5723	00000000	00000013	addi	x0,x0,0	  x0:0x00000000
       57255000	      5724	80000ca0	00000013	addi	x0,x0,0	  x0:0x00000000
       57265000	      5725	80000ca4	7ea5e793	ori	x15,x11,2026	 x11:0x0000052b x15=0x000007eb
       57275000	      5726	80000ca8	012bc663	blt	x23,x18,80000cb4	 x23:0x00000001 x18:0x800006ac
       57285000	      5727	80000cac	40e8d413	srai	x8,x17,0xe	 x17:0x00000000  x8=0x00000000
       57295000	      5728	80000cb0	40b38133	sub	x2,x7,x11	  x7:0xfffffe0a x11:0x0000052b  x2=0xfffff8df
       57305000	      5729	80000cb4	41270d33	sub	x26,x14,x18	 x14:0x00000000 x18:0x800006ac x26=0x7ffff954
       57315000	      5730	80000cb8	01930c63	beq	x6,x25,80000cd0	  x6:0x00000001 x25:0xfffffe0a
       57325000	      5731	80000cbc	40c7d133	sra	x2,x15,x12	 x15:0x000007eb x12:0x80000778  x2=0x00000000
       57335000	      5732	80000cc0	00000013	addi	x0,x0,0	  x0:0x00000000
       57345000	      5733	80000cc4	00f01463	bne	x0,x15,80000ccc	  x0:0x00000000 x15:0x000007eb
       57355000	      5734	00000000	00000013	addi	x0,x0,0	  x0:0x00000000
       57365000	      5735	80000cc8	00000013	addi	x0,x0,0	  x0:0x00000000
       57375000	      5736	80000ccc	9f244113	xori	x2,x8,-1550	  x8:0x00000000  x2=0xfffff9f2
       57385000	      5737	80000cd0	60233813	sltiu	x16,x6,1538	  x6:0x00000001 x16=0x00000001
       57395000	      5738	80000cd4	00000013	addi	x0,x0,0	  x0:0x00000000
       57405000	      5739	80000cd8	00bca7b3	slt	x15,x25,x11	 x25:0xfffffe0a x11:0x0000052b x15=0x00000001
       57415000	      5740	80000cdc	014030b3	sltu	x1,x0,x20	  x0:0x00000000 x20:0x00200027  x1=0x00000001
       57425000	      5741	80000ce0	01d7f0b3	and	x1,x15,x29	 x15:0x00000001 x29:0x21a00000  x1=0x00000000
       57435000	      5742	80000ce4	0127ac33	slt	x24,x15,x18	 x15:0x00000001 x18:0x800006ac x24=0x00000000
       57445000	      5743	80000ce8	03fcd863	bge	x25,x31,80000d18	 x25:0xfffffe0a x31:0x00000000
       57455000	      5744	80000cec	04a09663	bne	x1,x10,80000d38	  x1:0x00000000 x10:0x00000000
       57465000	      5745	80000cf0	ee9bccb7	lui	x25,0xee9bc	 x25=0xee9bc000
       57475000	      5746	80000cf4	0055dd33	srl	x26,x11,x5	 x11:0x0000052b  x5:0x4a5a882d x26=0x00000000
       57485000	      5747	80000cf8	49e70413	addi	x8,x14,1182	 x14:0x00000000  x8=0x0000049e
       57495000	      5748	80000cfc	0065be33	sltu	x28,x11,x6	 x11:0x0000052b  x6:0x00000001 x28=0x00000000
       57505000	      5749	80000d00	c1382013	slti	x0,x16,-1005	 x16:0x00000001
       57515000	      5750	80000d04	014a5a33	srl	x20,x20,x20	 x20:0x00200027 x20:0x00200027 x20=0x00004000
       57525000	      5751	80000d08	01849a13	slli	x20,x9,0x18	  x9:0x80000014 x20=0x14000000
       57535000	      5752	80000d0c	002d10b3	sll	x1,x26,x2	 x26:0x00000000  x2:0xfffff9f2  x1=0x00000000
       57545000	      5753	80000d10	01231f93	slli	x31,x6,0x12	  x6:0x00000001 x31=0x00040000
       57555000	      5754	80000d14	01e91863	bne	x18,x30,80000d24	 x18:0x800006ac x30:0x00000000
       57565000	      5755	00000000	00000013	addi	x0,x0,0	  x0:0x00000000
       57575000	      5756	80000d20	00000013	addi	x0,x0,0	  x0:0x00000000
       57585000	      5757	80000d24	40cfd893	srai	x17,x31,0xc	 x31:0x00040000 x17=0x00000040
       57595000	      5758	80000d28	008ed313	srli	x6,x29,0x8	 x29:0x21a00000  x6=0x0021a000
       57605000	      5759	80000d2c	40f0dc33	sra	x24,x1,x15	  x1:0x00000000 x15:0x00000001 x24=0x00000000
       57615000	      5760	80000d30	00648a33	add	x20,x9,x6	  x9:0x80000014  x6:0x0021a000 x20=0x8021a014
       57625000	      5761	80000d34	13e2e913	ori	x18,x5,318	  x5:0x4a5a882d x18=0x4a5a893f
       57635000	      5762	80000d38	31fb81b7	lui	x3,0x31fb8	  x3=0x31fb8000
       57645000	      5763	80000d3c	000a9e63	bne	x21,x0,80000d58	 x21:0x80009f54  x0:0x00000000
       57655000	      5764	00000000	00000013	addi	x0,x0,0	  x0:0x00000000
       57665000	      5765	80000d54	00000013	addi	x0,x0,0	  x0:0x00000000
       57675000	      5766	80000d58	01156633	or	x12,x10,x17	 x10:0x00000000 x17:0x00000040 x12=0x00000040
       57685000	      5767	80000d5c	a3a6e093	ori	x1,x13,-1478	 x13:0x0000021a  x1=0xfffffa3a
       57695000	      5768	80000d60	f5683d13	sltiu	x26,x16,-170	 x16:0x00000001 x26=0x00000001
       57705000	      5769	80000d64	004aab03	lw	x22,4(x21)	 x21:0x80009f54 x22=0x80000138 PA:0x80009f58
       57715000	      5770	80000d68	030a8a93	addi	x21,x21,48	 x21:0x80009f54 x21=0x80009f84
       57725000	      5771	80000d6c	01e7d393	srli	x7,x15,0x1e	 x15:0x00000001  x7=0x00000000
       57735000	      5772	80000d70	001b0893	addi	x17,x22,1	 x22:0x80000138 x17=0x80000139
       57745000	      5773	80000d74	000888e7	jalr	x17,x17,0	 x17:0x80000139 x17=0x80000d74
       57755000	      5774	00000000	00000013	addi	x0,x0,0	  x0:0x00000000
       57765000	      5775	80000138	00000013	addi	x0,x0,0	  x0:0x00000000
       57775000	      5776	8000013c	01c00b6f	jal	x22,8000013c	 x22=0x8000013c
       57785000	      5777	00000000	00000013	addi	x0,x0,0	  x0:0x00000000
       57795000	      5778	80000154	00000013	addi	x0,x0,0	  x0:0x00000000
       57805000	      5779	80000158	010004ef	jal	x9,80000158	  x9=0x80000158
       57815000	      5780	00000000	00000013	addi	x0,x0,0	  x0:0x00000000
       57825000	      5781	80000164	00000013	addi	x0,x0,0	  x0:0x00000000
       57835000	      5782	80000168	fddff0ef	jal	x1,80000168	  x1=0x80000168
       57845000	      5783	00000000	00000013	addi	x0,x0,0	  x0:0x00000000
       57855000	      5784	80000140	00000013	addi	x0,x0,0	  x0:0x00000000
       57865000	      5785	80000144	ffdff16f	jal	x2,80000144	  x2=0x80000144
       57875000	      5786	00000000	00000013	addi	x0,x0,0	  x0:0x00000000
       57885000	      5787	8000013c	00000013	addi	x0,x0,0	  x0:0x00000000
       57895000	      5788	80000140	02c000ef	jal	x1,80000140	  x1=0x80000140
       57905000	      5789	00000000	00000013	addi	x0,x0,0	  x0:0x00000000
       57915000	      5790	80000168	00000013	addi	x0,x0,0	  x0:0x00000000
       57925000	      5791	8000016c	010000ef	jal	x1,8000016c	  x1=0x8000016c
       57935000	      5792	00000000	00000013	addi	x0,x0,0	  x0:0x00000000
       57945000	      5793	80000178	00000013	addi	x0,x0,0	  x0:0x00000000
       57955000	      5794	8000017c	fe1ff36f	jal	x6,8000017c	  x6=0x8000017c
       57965000	      5795	00000000	00000013	addi	x0,x0,0	  x0:0x00000000
       57975000	      5796	80000158	00000013	addi	x0,x0,0	  x0:0x00000000
       57985000	      5797	8000015c	fedff0ef	jal	x1,8000015c	  x1=0x8000015c
       57995000	      5798	00000000	00000013	addi	x0,x0,0	  x0:0x00000000
       58005000	      5799	80000144	00000013	addi	x0,x0,0	  x0:0x00000000
       58015000	      5800	80000148	01c000ef	jal	x1,80000148	  x1=0x80000148
       58025000	      5801	00000000	00000013	addi	x0,x0,0	  x0:0x00000000
       58035000	      5802	80000160	00000013	addi	x0,x0,0	  x0:0x00000000
       58045000	      5803	80000164	01c0096f	jal	x18,80000164	 x18=0x80000164
       58055000	      5804	00000000	00000013	addi	x0,x0,0	  x0:0x00000000
       58065000	      5805	8000017c	00000013	addi	x0,x0,0	  x0:0x00000000
       58075000	      5806	80000180	ff9ff36f	jal	x6,80000180	  x6=0x80000180
       58085000	      5807	00000000	00000013	addi	x0,x0,0	  x0:0x00000000
       58095000	      5808	80000174	00000013	addi	x0,x0,0	  x0:0x00000000
       58105000	      5809	80000178	ff9ff36f	jal	x6,80000178	  x6=0x80000178
       58115000	      5810	00000000	00000013	addi	x0,x0,0	  x0:0x00000000
       58125000	      5811	8000016c	00000013	addi	x0,x0,0	  x0:0x00000000
       58135000	      5812	80000170	fe5ff36f	jal	x6,80000170	  x6=0x80000170
       58145000	      5813	00000000	00000013	addi	x0,x0,0	  x0:0x00000000
       58155000	      5814	80000150	00000013	addi	x0,x0,0	  x0:0x00000000
       58165000	      5815	80000154	ff9ff0ef	jal	x1,80000154	  x1=0x80000154
       58175000	      5816	00000000	00000013	addi	x0,x0,0	  x0:0x00000000
       58185000	      5817	80000148	00000013	addi	x0,x0,0	  x0:0x00000000
       58195000	      5818	8000014c	0040096f	jal	x18,8000014c	 x18=0x8000014c
       58205000	      5819	00000000	00000013	addi	x0,x0,0	  x0:0x00000000
       58215000	      5820	8000014c	00000013	addi	x0,x0,0	  x0:0x00000000
       58225000	      5821	80000150	024004ef	jal	x9,80000150	  x9=0x80000150
       58235000	      5822	00000000	00000013	addi	x0,x0,0	  x0:0x00000000
       58245000	      5823	80000170	00000013	addi	x0,x0,0	  x0:0x00000000
       58255000	      5824	80000174	fedff0ef	jal	x1,80000174	  x1=0x80000174
       58265000	      5825	00000000	00000013	addi	x0,x0,0	  x0:0x00000000
       58275000	      5826	8000015c	00000013	addi	x0,x0,0	  x0:0x00000000
       58285000	      5827	80000160	024000ef	jal	x1,80000160	  x1=0x80000160
       58295000	      5828	00000000	00000013	addi	x0,x0,0	  x0:0x00000000
       58305000	      5829	80000180	00000013	addi	x0,x0,0	  x0:0x00000000
       58315000	      5830	80000184	40ba5933	sra	x18,x20,x11	 x20:0x8021a014 x11:0x0000052b x18=0xfff00434
       58325000	      5831	80000188	02800b6f	jal	x22,80000188	 x22=0x80000188
       58335000	      5832	00000000	00000013	addi	x0,x0,0	  x0:0x00000000
       58345000	      5833	800001ac	00000013	addi	x0,x0,0	  x0:0x00000000
       58355000	      5834	800001b0	fe5ff0ef	jal	x1,800001b0	  x1=0x800001b0
       58365000	      5835	00000000	00000013	addi	x0,x0,0	  x0:0x00000000
       58375000	      5836	80000190	00000013	addi	x0,x0,0	  x0:0x00000000
       58385000	      5837	80000194	0140056f	jal	x10,80000194	 x10=0x80000194
       58395000	      5838	00000000	00000013	addi	x0,x0,0	  x0:0x00000000
       58405000	      5839	800001a4	00000013	addi	x0,x0,0	  x0:0x00000000
       58415000	      5840	800001a8	fe5ff1ef	jal	x3,800001a8	  x3=0x800001a8
       58425000	      5841	00000000	00000013	addi	x0,x0,0	  x0:0x00000000
       58435000	      5842	80000188	00000013	addi	x0,x0,0	  x0:0x00000000
       58445000	      5843	8000018c	028000ef	jal	x1,8000018c	  x1=0x8000018c
       58455000	      5844	00000000	00000013	addi	x0,x0,0	  x0:0x00000000
       58465000	      5845	800001b0	00000013	addi	x0,x0,0	  x0:0x00000000
       58475000	      5846	800001b4	004000ef	jal	x1,800001b4	  x1=0x800001b4
       58485000	      5847	00000000	00000013	addi	x0,x0,0	  x0:0x00000000
       58495000	      5848	800001b4	00000013	addi	x0,x0,0	  x0:0x00000000
       58505000	      5849	800001b8	fe5ffd6f	jal	x26,800001b8	 x26=0x800001b8
       58515000	      5850	00000000	00000013	addi	x0,x0,0	  x0:0x00000000
       58525000	      5851	80000198	00000013	addi	x0,x0,0	  x0:0x00000000
       58535000	      5852	8000019c	00400c6f	jal	x24,8000019c	 x24=0x8000019c
       58545000	      5853	00000000	00000013	addi	x0,x0,0	  x0:0x00000000
       58555000	      5854	8000019c	00000013	addi	x0,x0,0	  x0:0x00000000
       58565000	      5855	800001a0	ff1ff0ef	jal	x1,800001a0	  x1=0x800001a0
       58575000	      5856	00000000	00000013	addi	x0,x0,0	  x0:0x00000000
       58585000	      5857	8000018c	00000013	addi	x0,x0,0	  x0:0x00000000
       58595000	      5858	80000190	02c000ef	jal	x1,80000190	  x1=0x80000190
       58605000	      5859	00000000	00000013	addi	x0,x0,0	  x0:0x00000000
       58615000	      5860	800001b8	00000013	addi	x0,x0,0	  x0:0x00000000
       58625000	      5861	800001bc	fddff36f	jal	x6,800001bc	  x6=0x800001bc
       58635000	      5862	00000000	00000013	addi	x0,x0,0	  x0:0x00000000
       58645000	      5863	80000194	00000013	addi	x0,x0,0	  x0:0x00000000
       58655000	      5864	80000198	0140046f	jal	x8,80000198	  x8=0x80000198
       58665000	      5865	00000000	00000013	addi	x0,x0,0	  x0:0x00000000
       58675000	      5866	800001a8	00000013	addi	x0,x0,0	  x0:0x00000000
       58685000	      5867	800001ac	0140036f	jal	x6,800001ac	  x6=0x800001ac
       58695000	      5868	00000000	00000013	addi	x0,x0,0	  x0:0x00000000
       58705000	      5869	800001bc	00000013	addi	x0,x0,0	  x0:0x00000000
       58715000	      5870	800001c0	fe5ffbef	jal	x23,800001c0	 x23=0x800001c0
       58725000	      5871	00000000	00000013	addi	x0,x0,0	  x0:0x00000000
       58735000	      5872	800001a0	00000013	addi	x0,x0,0	  x0:0x00000000
       58745000	      5873	800001a4	020000ef	jal	x1,800001a4	  x1=0x800001a4
       58755000	      5874	00000000	00000013	addi	x0,x0,0	  x0:0x00000000
       58765000	      5875	800001c0	00000013	addi	x0,x0,0	  x0:0x00000000
       58775000	      5876	800001c4	41ab0333	sub	x6,x22,x26	 x22:0x80000188 x26:0x800001b8  x6=0xffffffd0
       58785000	      5877	800001c8	00c00b6f	jal	x22,800001c8	 x22=0x800001c8
       58795000	      5878	00000000	00000013	addi	x0,x0,0	  x0:0x00000000
       58805000	      5879	800001d0	00000013	addi	x0,x0,0	  x0:0x00000000
       58815000	      5880	800001d4	010000ef	jal	x1,800001d4	  x1=0x800001d4
       58825000	      5881	00000000	00000013	addi	x0,x0,0	  x0:0x00000000
       58835000	      5882	800001e0	00000013	addi	x0,x0,0	  x0:0x00000000
       58845000	      5883	800001e4	010000ef	jal	x1,800001e4	  x1=0x800001e4
       58855000	      5884	00000000	00000013	addi	x0,x0,0	  x0:0x00000000
       58865000	      5885	800001f0	00000013	addi	x0,x0,0	  x0:0x00000000
       58875000	      5886	800001f4	fd9ff16f	jal	x2,800001f4	  x2=0x800001f4
       58885000	      5887	00000000	00000013	addi	x0,x0,0	  x0:0x00000000
       58895000	      5888	800001c8	00000013	addi	x0,x0,0	  x0:0x00000000
       58905000	      5889	800001cc	0140086f	jal	x16,800001cc	 x16=0x800001cc
       58915000	      5890	00000000	00000013	addi	x0,x0,0	  x0:0x00000000
       58925000	      5891	800001dc	00000013	addi	x0,x0,0	  x0:0x00000000
       58935000	      5892	800001e0	008000ef	jal	x1,800001e0	  x1=0x800001e0
       58945000	      5893	00000000	00000013	addi	x0,x0,0	  x0:0x00000000
       58955000	      5894	800001e4	00000013	addi	x0,x0,0	  x0:0x00000000
       58965000	      5895	800001e8	fe9ff0ef	jal	x1,800001e8	  x1=0x800001e8
       58975000	      5896	00000000	00000013	addi	x0,x0,0	  x0:0x00000000
       58985000	      5897	800001cc	00000013	addi	x0,x0,0	  x0:0x00000000
       58995000	      5898	800001d0	00800e6f	jal	x28,800001d0	 x28=0x800001d0
       59005000	      5899	00000000	00000013	addi	x0,x0,0	  x0:0x00000000
       59015000	      5900	800001d4	00000013	addi	x0,x0,0	  x0:0x00000000
       59025000	      5901	800001d8	004000ef	jal	x1,800001d8	  x1=0x800001d8
       59035000	      5902	00000000	00000013	addi	x0,x0,0	  x0:0x00000000
       59045000	      5903	800001d8	00000013	addi	x0,x0,0	  x0:0x00000000
       59055000	      5904	800001dc	024000ef	jal	x1,800001dc	  x1=0x800001dc
       59065000	      5905	00000000	00000013	addi	x0,x0,0	  x0:0x00000000
       59075000	      5906	800001fc	00000013	addi	x0,x0,0	  x0:0x00000000
       59085000	      5907	80000200	fedff0ef	jal	x1,80000200	  x1=0x80000200
       59095000	      5908	00000000	00000013	addi	x0,x0,0	  x0:0x00000000
       59105000	      5909	800001e8	00000013	addi	x0,x0,0	  x0:0x00000000
       59115000	      5910	800001ec	00c0036f	jal	x6,800001ec	  x6=0x800001ec
       59125000	      5911	00000000	00000013	addi	x0,x0,0	  x0:0x00000000
       59135000	      5912	800001f4	00000013	addi	x0,x0,0	  x0:0x00000000
       59145000	      5913	800001f8	004005ef	jal	x11,800001f8	 x11=0x800001f8
       59155000	      5914	00000000	00000013	addi	x0,x0,0	  x0:0x00000000
       59165000	      5915	800001f8	00000013	addi	x0,x0,0	  x0:0x00000000
       59175000	      5916	800001fc	ff5ff0ef	jal	x1,800001fc	  x1=0x800001fc
       59185000	      5917	00000000	00000013	addi	x0,x0,0	  x0:0x00000000
       59195000	      5918	800001ec	00000013	addi	x0,x0,0	  x0:0x00000000
       59205000	      5919	800001f0	014000ef	jal	x1,800001f0	  x1=0x800001f0
       59215000	      5920	00000000	00000013	addi	x0,x0,0	  x0:0x00000000
       59225000	      5921	80000200	00000013	addi	x0,x0,0	  x0:0x00000000
       59235000	      5922	80000204	534f5297	auipc	x5,0x534f5	  x5=0xd34f5200
       59245000	      5923	80000208	f6eeca17	auipc	x20,0xf6eec	 x20=0x76eec204
       59255000	      5924	8000020c	1c936793	ori	x15,x6,457	  x6:0x800001ec x15=0x800001ed
       59265000	      5925	80000210	015b3933	sltu	x18,x22,x21	 x22:0x800001c8 x21:0x80009f84 x18=0x00000001
       59275000	      5926	80000214	02c86863	bltu	x16,x12,80000244	 x16:0x800001cc x12:0x00000040
       59285000	      5927	80000218	41d30433	sub	x8,x6,x29	  x6:0x800001ec x29:0x21a00000  x8=0x5e6001ec
       59295000	      5928	8000021c	00d33633	sltu	x12,x6,x13	  x6:0x800001ec x13:0x0000021a x12=0x00000000
       59305000	      5929	80000220	01bbabb3	slt	x23,x23,x27	 x23:0x800001c0 x27:0x80009fc4 x23=0x00000001
       59315000	      5930	80000224	74fc4437	lui	x8,0x74fc4	  x8=0x74fc4000
       59325000	      5931	80000228	053a9263	bne	x21,x19,8000026c	 x21:0x80009f84 x19:0x00000001
       59335000	      5932	00000000	00000013	addi	x0,x0,0	  x0:0x00000000
       59345000	      5933	80000268	00000013	addi	x0,x0,0	  x0:0x00000000
       59355000	      5934	8000026c	017d5133	srl	x2,x26,x23	 x26:0x800001b8 x23:0x00000001  x2=0x400000dc
       59365000	      5935	80000270	00d6a433	slt	x8,x13,x13	 x13:0x0000021a x13:0x0000021a  x8=0x00000000
       59375000	      5936	80000274	411f8033	sub	x0,x31,x17	 x31:0x00040000 x17:0x80000d74
       59385000	      5937	80000278	41610833	sub	x16,x2,x22	  x2:0x400000dc x22:0x800001c8 x16=0xbfffff14
       59395000	      5938	8000027c	008a1e13	slli	x28,x20,0x8	 x20:0x76eec204 x28=0xeec20400
       59405000	      5939	80000280	01ca3933	sltu	x18,x20,x28	 x20:0x76eec204 x28:0xeec20400 x18=0x00000001
       59415000	      5940	80000284	01eb3533	sltu	x10,x22,x30	 x22:0x800001c8 x30:0x00000000 x10=0x00000000
       59425000	      5941	80000288	00b522b3	slt	x5,x10,x11	 x10:0x00000000 x11:0x800001f8  x5=0x00000000
       59435000	      5942	8000028c	03d6c863	blt	x13,x29,800002bc	 x13:0x0000021a x29:0x21a00000
       59445000	      5943	00000000	00000013	addi	x0,x0,0	  x0:0x00000000
       59455000	      5944	800002b8	00000013	addi	x0,x0,0	  x0:0x00000000
       59465000	      5945	800002bc	0067c333	xor	x6,x15,x6	 x15:0x800001ed  x6:0x800001ec  x6=0x00000001
       59475000	      5946	800002c0	017ff133	and	x2,x31,x23	 x31:0x00040000 x23:0x00000001  x2=0x00000000
       59485000	      5947	800002c4	f612c817	auipc	x16,0xf612c	 x16=0x7612c2c0
       59495000	      5948	800002c8	368cc913	xori	x18,x25,872	 x25:0xee9bc000 x18=0xee9bc368
       59505000	      5949	800002cc	edab3537	lui	x10,0xedab3	 x10=0xedab3000
       59515000	      5950	800002d0	03820663	beq	x4,x24,800002fc	  x4:0x00000001 x24:0x8000019c
       59525000	      5951	800002d4	9d474e37	lui	x28,0x9d474	 x28=0x9d474000
       59535000	      5952	800002d8	07cf3393	sltiu	x7,x30,124	 x30:0x00000000  x7=0x00000001
       59545000	      5953	800002dc	0026a933	slt	x18,x13,x2	 x13:0x0000021a  x2:0x00000000 x18=0x00000000
       59555000	      5954	800002e0	04df9263	bne	x31,x13,80000324	 x31:0x00040000 x13:0x0000021a
       59565000	      5955	00000000	00000013	addi	x0,x0,0	  x0:0x00000000
       59575000	      5956	80000320	00000013	addi	x0,x0,0	  x0:0x00000000
       59585000	      5957	80000324	640f6613	ori	x12,x30,1600	 x30:0x00000000 x12=0x00000640
       59595000	      5958	80000328	00000013	addi	x0,x0,0	  x0:0x00000000
       59605000	      5959	8000032c	d7afb193	sltiu	x3,x31,-646	 x31:0x00040000  x3=0x00000001
       59615000	      5960	80000330	6aa0c613	xori	x12,x1,1706	  x1:0x800001f0 x12=0x8000075a
       59625000	      5961	80000334	04d0e263	bltu	x1,x13,80000378	  x1:0x800001f0 x13:0x0000021a
       59635000	      5962	80000338	03068863	beq	x13,x16,80000368	 x13:0x0000021a x16:0x7612c2c0
       59645000	      5963	8000033c	00000013	addi	x0,x0,0	  x0:0x00000000
       59655000	      5964	80000340	00782533	slt	x10,x16,x7	 x16:0x7612c2c0  x7:0x00000001 x10=0x00000000
       59665000	      5965	80000344	01ee8863	beq	x29,x30,80000354	 x29:0x21a00000 x30:0x00000000
       59675000	      5966	80000348	0114e463	bltu	x9,x17,80000350	  x9:0x80000150 x17:0x80000d74
       59685000	      5967	00000000	00000013	addi	x0,x0,0	  x0:0x00000000
       59695000	      5968	8000034c	00000013	addi	x0,x0,0	  x0:0x00000000
       59705000	      5969	80000350	406353b3	sra	x7,x6,x6	  x6:0x00000001  x6:0x00000001  x7=0x00000000
       59715000	      5970	80000354	414dde33	sra	x28,x27,x20	 x27:0x80009fc4 x20:0x76eec204 x28=0xf80009fc
       59725000	      5971	80000358	c7d03c93	sltiu	x25,x0,-899	  x0:0x00000000 x25=0x00000001
       59735000	      5972	8000035c	00000013	addi	x0,x0,0	  x0:0x00000000
       59745000	      5973	80000360	34b1c637	lui	x12,0x34b1c	 x12=0x34b1c000
       59755000	      5974	80000364	00ec1993	slli	x19,x24,0xe	 x24:0x8000019c x19=0x00670000
       59765000	      5975	80000368	1bd39337	lui	x6,0x1bd39	  x6=0x1bd39000
       59775000	      5976	8000036c	0139ebb3	or	x23,x19,x19	 x19:0x00670000 x19:0x00670000 x23=0x00670000
       59785000	      5977	80000370	05ba6463	bltu	x20,x27,800003b8	 x20:0x76eec204 x27:0x80009fc4
       59795000	      5978	00000000	00000013	addi	x0,x0,0	  x0:0x00000000
       59805000	      5979	800003b4	00000013	addi	x0,x0,0	  x0:0x00000000
       59815000	      5980	800003b8	415d06b3	sub	x13,x26,x21	 x26:0x800001b8 x21:0x80009f84 x13=0xffff6234
       59825000	      5981	800003bc	03850e63	beq	x10,x24,800003f8	 x10:0x00000000 x24:0x8000019c
       59835000	      5982	800003c0	006dc033	xor	x0,x27,x6	 x27:0x80009fc4  x6:0x1bd39000
       59845000	      5983	800003c4	01fc75b3	and	x11,x24,x31	 x24:0x8000019c x31:0x00040000 x11=0x00000000
       59855000	      5984	800003c8	33dc8b93	addi	x23,x25,829	 x25:0x00000001 x23=0x0000033e
       59865000	      5985	800003cc	2d322f93	slti	x31,x4,723	  x4:0x00000001 x31=0x00000001
       59875000	      5986	800003d0	03cc9863	bne	x25,x28,80000400	 x25:0x00000001 x28:0xf80009fc
       59885000	      5987	00000000	00000013	addi	x0,x0,0	  x0:0x00000000
       59895000	      5988	800003fc	00000013	addi	x0,x0,0	  x0:0x00000000
       59905000	      5989	80000400	006431b3	sltu	x3,x8,x6	  x8:0x00000000  x6:0x1bd39000  x3=0x00000001
       59915000	      5990	80000404	0348be93	sltiu	x29,x17,52	 x17:0x80000d74 x29=0x00000000
       59925000	      5991	80000408	01a03933	sltu	x18,x0,x26	  x0:0x00000000 x26:0x800001b8 x18=0x00000001
       59935000	      5992	8000040c	00000013	addi	x0,x0,0	  x0:0x00000000
       59945000	      5993	80000410	58e0e513	ori	x10,x1,1422	  x1:0x800001f0 x10=0x800005fe
       59955000	      5994	80000414	404e5093	srai	x1,x28,0x4	 x28:0xf80009fc  x1=0xff80009f
       59965000	      5995	80000418	09ee8663	beq	x29,x30,800004a4	 x29:0x00000000 x30:0x00000000
       59975000	      5996	00000000	00000013	addi	x0,x0,0	  x0:0x00000000
       59985000	      5997	800004a0	00000013	addi	x0,x0,0	  x0:0x00000000
       59995000	      5998	800004a4	00000013	addi	x0,x0,0	  x0:0x00000000
       60005000	      5999	800004a8	41545913	srai	x18,x8,0x15	  x8:0x00000000 x18=0x00000000
       60015000	      6000	800004ac	00ff5593	srli	x11,x30,0xf	 x30:0x00000000 x11=0x00000000
       60025000	      6001	800004b0	00000013	addi	x0,x0,0	  x0:0x00000000
       60035000	      6002	800004b4	018477b3	and	x15,x8,x24	  x8:0x00000000 x24:0x8000019c x15=0x00000000
       60045000	      6003	800004b8	2de0e913	ori	x18,x1,734	  x1:0xff80009f x18=0xff8002df
       60055000	      6004	800004bc	99240893	addi	x17,x8,-1646	  x8:0x00000000 x17=0xfffff992
       60065000	      6005	800004c0	01b73e33	sltu	x28,x14,x27	 x14:0x00000000 x27:0x80009fc4 x28=0x00000001
       60075000	      6006	800004c4	6ae6ab13	slti	x22,x13,1710	 x13:0xffff6234 x22=0x00000001
       60085000	      6007	800004c8	003c6bb3	or	x23,x24,x3	 x24:0x8000019c  x3:0x00000001 x23=0x8000019d
       60095000	      6008	800004cc	417357b3	sra	x15,x6,x23	  x6:0x1bd39000 x23:0x8000019d x15=0x00000000
       60105000	      6009	800004d0	04dbe263	bltu	x23,x13,80000514	 x23:0x8000019d x13:0xffff6234
       60115000	      6010	00000000	00000013	addi	x0,x0,0	  x0:0x00000000
       60125000	      6011	80000510	00000013	addi	x0,x0,0	  x0:0x00000000
       60135000	      6012	80000514	01bad533	srl	x10,x21,x27	 x21:0x80009f84 x27:0x80009fc4 x10=0x080009f8
       60145000	      6013	80000518	c71e3593	sltiu	x11,x28,-911	 x28:0x00000001 x11=0x00000001
       60155000	      6014	8000051c	01875313	srli	x6,x14,0x18	 x14:0x00000000  x6=0x00000000
       60165000	      6015	80000520	01a511b3	sll	x3,x10,x26	 x10:0x080009f8 x26:0x800001b8  x3=0xf8000000
       60175000	      6016	80000524	dfef2013	slti	x0,x30,-514	 x30:0x00000000
       60185000	      6017	80000528	00000f17	auipc	x30,0x0	 x30=0x80000524
       60195000	      6018	8000052c	00cf0f13	addi	x30,x30,12	 x30:0x80000524 x30=0x80000530
       60205000	      6019	80000530	000f0067	jalr	x0,x30,0	 x30:0x80000530
       60215000	      6020	00000000	00000013	addi	x0,x0,0	  x0:0x00000000
       60225000	      6021	80000530	00000013	addi	x0,x0,0	  x0:0x00000000
       60235000	      6022	80000534	00100193	addi	x3,x0,1	  x0:0x00000000  x3=0x00000001
       60245000	      6023	80000538	00000073	ecall	
       60255000	      6024	8000053c	adf26113	ori	x2,x4,-1313	  x4:0x00000001  x2=0xfffffadf
