		Time			Cycle	PC		Insn	Decoded instruction	Register and memory contents
          65000	         5	80000004	00000293	addi	x5,x0,0	  x0:0x00000000  x5=0x00000000
          75000	         6	80000008	00000313	addi	x6,x0,0	  x0:0x00000000  x6=0x00000000
          85000	         7	8000000c	00628263	beq	x5,x6,80000010	  x5:0x00000000  x6:0x00000000
          95000	         8	00000000	00000013	addi	x0,x0,0	  x0:0x00000000
         105000	         9	8000000c	00000013	addi	x0,x0,0	  x0:0x00000000
         115000	        10	80000010	00000717	auipc	x14,0x0	 x14=0x8000000c
         125000	        11	80000014	00c70713	addi	x14,x14,12	 x14:0x8000000c x14=0x80000018
         135000	        12	80000018	00070067	jalr	x0,x14,0	 x14:0x80000018
         145000	        13	00000000	00000013	addi	x0,x0,0	  x0:0x00000000
         155000	        14	80000018	00000013	addi	x0,x0,0	  x0:0x00000000
         165000	        15	8000001c	40000137	lui	x2,0x40000	  x2=0x40000000
         175000	        16	80000020	10010113	addi	x2,x2,256	  x2:0x40000000  x2=0x40000100
         185000	        17	80000024	00000013	addi	x0,x0,0	  x0:0x00000000
         195000	        18	80000028	0000a897	auipc	x17,0xa	 x17=0x8000a024
         205000	        19	8000002c	fa088893	addi	x17,x17,-96	 x17:0x8000a024 x17=0x80009fc4
         215000	        20	80000030	00005117	auipc	x2,0x5	  x2=0x8000502c
         225000	        21	80000034	86410113	addi	x2,x2,-1948	  x2:0x8000502c  x2=0x80004890
         235000	        22	80000038	00016113	ori	x2,x2,0	  x2:0x80004890  x2=0x80004890
         245000	        23	8000003c	00000013	addi	x0,x0,0	  x0:0x00000000
         255000	        24	80000040	00000117	auipc	x2,0x0	  x2=0x8000003c
         265000	        25	80000044	02010113	addi	x2,x2,32	  x2:0x8000003c  x2=0x8000005c
         275000	        26	80000048	00000013	addi	x0,x0,0	  x0:0x00000000
         285000	        27	8000004c	00000013	addi	x0,x0,0	  x0:0x00000000
         295000	        28	80000050	00002137	lui	x2,0x2	  x2=0x00002000
         305000	        29	80000054	80010113	addi	x2,x2,-2048	  x2:0x00002000  x2=0x00001800
         315000	        30	80000058	00000013	addi	x0,x0,0	  x0:0x00000000
         325000	        31	8000005c	00000013	addi	x0,x0,0	  x0:0x00000000
         335000	        32	80000060	80000037	lui	x0,0x80000	
         345000	        33	80000064	00000013	addi	x0,x0,0	  x0:0x00000000
         355000	        34	80000068	00e00093	addi	x1,x0,14	  x0:0x00000000  x1=0x0000000e
         365000	        35	8000006c	ff48b137	lui	x2,0xff48b	  x2=0xff48b000
         375000	        36	80000070	46e10113	addi	x2,x2,1134	  x2:0xff48b000  x2=0xff48b46e
         385000	        37	80000074	800001b7	lui	x3,0x80000	  x3=0x80000000
         395000	        38	80000078	80000237	lui	x4,0x80000	  x4=0x80000000
         405000	        39	8000007c	00b00293	addi	x5,x0,11	  x0:0x00000000  x5=0x0000000b
         415000	        40	80000080	00500313	addi	x6,x0,5	  x0:0x00000000  x6=0x00000005
         425000	        41	80000084	28a8a3b7	lui	x7,0x28a8a	  x7=0x28a8a000
         435000	        42	80000088	58738393	addi	x7,x7,1415	  x7:0x28a8a000  x7=0x28a8a587
         445000	        43	8000008c	00f00413	addi	x8,x0,15	  x0:0x00000000  x8=0x0000000f
         455000	        44	80000090	00c00493	addi	x9,x0,12	  x0:0x00000000  x9=0x0000000c
         465000	        45	80000094	fe6e9537	lui	x10,0xfe6e9	 x10=0xfe6e9000
         475000	        46	80000098	00b50513	addi	x10,x10,11	 x10:0xfe6e9000 x10=0xfe6e900b
         485000	        47	8000009c	f33ad5b7	lui	x11,0xf33ad	 x11=0xf33ad000
         495000	        48	800000a0	05a58593	addi	x11,x11,90	 x11:0xf33ad000 x11=0xf33ad05a
         505000	        49	800000a4	00b00613	addi	x12,x0,11	  x0:0x00000000 x12=0x0000000b
         515000	        50	800000a8	800006b7	lui	x13,0x80000	 x13=0x80000000
         525000	        51	800000ac	00400713	addi	x14,x0,4	  x0:0x00000000 x14=0x00000004
         535000	        52	800000b0	800007b7	lui	x15,0x80000	 x15=0x80000000
         545000	        53	800000b4	00600813	addi	x16,x0,6	  x0:0x00000000 x16=0x00000006
         555000	        54	800000b8	80000937	lui	x18,0x80000	 x18=0x80000000
         565000	        55	800000bc	0441e9b7	lui	x19,0x441e	 x19=0x0441e000
         575000	        56	800000c0	1cf98993	addi	x19,x19,463	 x19:0x0441e000 x19=0x0441e1cf
         585000	        57	800000c4	6771ca37	lui	x20,0x6771c	 x20=0x6771c000
         595000	        58	800000c8	6a5a0a13	addi	x20,x20,1701	 x20:0x6771c000 x20=0x6771c6a5
         605000	        59	800000cc	00300a93	addi	x21,x0,3	  x0:0x00000000 x21=0x00000003
         615000	        60	800000d0	00600b13	addi	x22,x0,6	  x0:0x00000000 x22=0x00000006
         625000	        61	800000d4	fdd28c37	lui	x24,0xfdd28	 x24=0xfdd28000
         635000	        62	800000d8	6b1c0c13	addi	x24,x24,1713	 x24:0xfdd28000 x24=0xfdd286b1
         645000	        63	800000dc	80000cb7	lui	x25,0x80000	 x25=0x80000000
         655000	        64	800000e0	00300d13	addi	x26,x0,3	  x0:0x00000000 x26=0x00000003
         665000	        65	800000e4	00d00d93	addi	x27,x0,13	  x0:0x00000000 x27=0x0000000d
         675000	        66	800000e8	00000e13	addi	x28,x0,0	  x0:0x00000000 x28=0x00000000
         685000	        67	800000ec	f00ebeb7	lui	x29,0xf00eb	 x29=0xf00eb000
         695000	        68	800000f0	fa6e8e93	addi	x29,x29,-90	 x29:0xf00eb000 x29=0xf00eafa6
         705000	        69	800000f4	00000f13	addi	x30,x0,0	  x0:0x00000000 x30=0x00000000
         715000	        70	800000f8	00000f93	addi	x31,x0,0	  x0:0x00000000 x31=0x00000000
         725000	        71	800000fc	0000ab97	auipc	x23,0xa	 x23=0x8000a0f8
         735000	        72	80000100	e8cb8b93	addi	x23,x23,-372	 x23:0x8000a0f8 x23=0x80009f84
         745000	        73	80000104	00dcdf93	srli	x31,x25,0xd	 x25:0x80000000 x31=0x00040000
         755000	        74	80000108	18bce993	ori	x19,x25,395	 x25:0x80000000 x19=0x8000018b
         765000	        75	8000010c	00000797	auipc	x15,0x0	 x15=0x80000108
         775000	        76	80000110	5ec78793	addi	x15,x15,1516	 x15:0x80000108 x15=0x800006f4
         785000	        77	80000114	0e4ff693	andi	x13,x31,228	 x31:0x00040000 x13=0x00000000
         795000	        78	80000118	13fbbd13	sltiu	x26,x23,319	 x23:0x80009f84 x26=0x00000000
         805000	        79	8000011c	00000013	addi	x0,x0,0	  x0:0x00000000
         815000	        80	80000120	0fa78793	addi	x15,x15,250	 x15:0x800006f4 x15=0x800007ee
         825000	        81	80000124	013d3033	sltu	x0,x26,x19	 x26:0x00000000 x19:0x8000018b
         835000	        82	80000128	f06780e7	jalr	x1,x15,-250	 x15:0x800007ee  x1=0x80000128
         845000	        83	00000000	00000013	addi	x0,x0,0	  x0:0x00000000
         855000	        84	800006f4	00000013	addi	x0,x0,0	  x0:0x00000000
         865000	        85	800006f8	132a2513	slti	x10,x20,306	 x20:0x6771c6a5 x10=0x00000000
         875000	        86	800006fc	fe0b8b93	addi	x23,x23,-32	 x23:0x80009f84 x23=0x80009f64
         885000	        87	80000700	eb66aa93	slti	x21,x13,-330	 x13:0x00000000 x21=0x00000000
         895000	        88	80000704	001ba223	sw	x1,4(x23)	 x23:0x80009f64  x1:0x80000128 PA:0x80009f68
         905000	        89	80000708	416803b3	sub	x7,x16,x22	 x16:0x00000006 x22:0x00000006  x7=0x00000000
         915000	        90	8000070c	020000ef	jal	x1,8000070c	  x1=0x8000070c
         925000	        91	00000000	00000013	addi	x0,x0,0	  x0:0x00000000
         935000	        92	80000728	00000013	addi	x0,x0,0	  x0:0x00000000
         945000	        93	8000072c	fe5ff0ef	jal	x1,8000072c	  x1=0x8000072c
         955000	        94	00000000	00000013	addi	x0,x0,0	  x0:0x00000000
         965000	        95	8000070c	00000013	addi	x0,x0,0	  x0:0x00000000
         975000	        96	80000710	018009ef	jal	x19,80000710	 x19=0x80000710
         985000	        97	00000000	00000013	addi	x0,x0,0	  x0:0x00000000
         995000	        98	80000724	00000013	addi	x0,x0,0	  x0:0x00000000
        1005000	        99	80000728	ffdff46f	jal	x8,80000728	  x8=0x80000728
        1015000	       100	00000000	00000013	addi	x0,x0,0	  x0:0x00000000
        1025000	       101	80000720	00000013	addi	x0,x0,0	  x0:0x00000000
        1035000	       102	80000724	ff1ff36f	jal	x6,80000724	  x6=0x80000724
        1045000	       103	00000000	00000013	addi	x0,x0,0	  x0:0x00000000
        1055000	       104	80000710	00000013	addi	x0,x0,0	  x0:0x00000000
        1065000	       105	80000714	00c001ef	jal	x3,80000714	  x3=0x80000714
        1075000	       106	00000000	00000013	addi	x0,x0,0	  x0:0x00000000
        1085000	       107	8000071c	00000013	addi	x0,x0,0	  x0:0x00000000
        1095000	       108	80000720	ffdff0ef	jal	x1,80000720	  x1=0x80000720
        1105000	       109	00000000	00000013	addi	x0,x0,0	  x0:0x00000000
        1115000	       110	80000718	00000013	addi	x0,x0,0	  x0:0x00000000
        1125000	       111	8000071c	018000ef	jal	x1,8000071c	  x1=0x8000071c
        1135000	       112	00000000	00000013	addi	x0,x0,0	  x0:0x00000000
        1145000	       113	80000730	00000013	addi	x0,x0,0	  x0:0x00000000
        1155000	       114	80000734	ffdff36f	jal	x6,80000734	  x6=0x80000734
        1165000	       115	00000000	00000013	addi	x0,x0,0	  x0:0x00000000
        1175000	       116	8000072c	00000013	addi	x0,x0,0	  x0:0x00000000
        1185000	       117	80000730	fe9ff36f	jal	x6,80000730	  x6=0x80000730
        1195000	       118	00000000	00000013	addi	x0,x0,0	  x0:0x00000000
        1205000	       119	80000714	00000013	addi	x0,x0,0	  x0:0x00000000
        1215000	       120	80000718	020000ef	jal	x1,80000718	  x1=0x80000718
        1225000	       121	00000000	00000013	addi	x0,x0,0	  x0:0x00000000
        1235000	       122	80000734	00000013	addi	x0,x0,0	  x0:0x00000000
        1245000	       123	80000738	41cd5033	sra	x0,x26,x28	 x26:0x00000000 x28:0x00000000
        1255000	       124	8000073c	020000ef	jal	x1,8000073c	  x1=0x8000073c
        1265000	       125	00000000	00000013	addi	x0,x0,0	  x0:0x00000000
        1275000	       126	80000758	00000013	addi	x0,x0,0	  x0:0x00000000
        1285000	       127	8000075c	ff1ff2ef	jal	x5,8000075c	  x5=0x8000075c
        1295000	       128	00000000	00000013	addi	x0,x0,0	  x0:0x00000000
        1305000	       129	80000748	00000013	addi	x0,x0,0	  x0:0x00000000
        1315000	       130	8000074c	004000ef	jal	x1,8000074c	  x1=0x8000074c
        1325000	       131	00000000	00000013	addi	x0,x0,0	  x0:0x00000000
        1335000	       132	8000074c	00000013	addi	x0,x0,0	  x0:0x00000000
        1345000	       133	80000750	ff1ff0ef	jal	x1,80000750	  x1=0x80000750
        1355000	       134	00000000	00000013	addi	x0,x0,0	  x0:0x00000000
        1365000	       135	8000073c	00000013	addi	x0,x0,0	  x0:0x00000000
        1375000	       136	80000740	0080036f	jal	x6,80000740	  x6=0x80000740
        1385000	       137	00000000	00000013	addi	x0,x0,0	  x0:0x00000000
        1395000	       138	80000744	00000013	addi	x0,x0,0	  x0:0x00000000
        1405000	       139	80000748	0100016f	jal	x2,80000748	  x2=0x80000748
        1415000	       140	00000000	00000013	addi	x0,x0,0	  x0:0x00000000
        1425000	       141	80000754	00000013	addi	x0,x0,0	  x0:0x00000000
        1435000	       142	80000758	008000ef	jal	x1,80000758	  x1=0x80000758
        1445000	       143	00000000	00000013	addi	x0,x0,0	  x0:0x00000000
        1455000	       144	8000075c	00000013	addi	x0,x0,0	  x0:0x00000000
        1465000	       145	80000760	fe5ff66f	jal	x12,80000760	 x12=0x80000760
        1475000	       146	00000000	00000013	addi	x0,x0,0	  x0:0x00000000
        1485000	       147	80000740	00000013	addi	x0,x0,0	  x0:0x00000000
        1495000	       148	80000744	0100026f	jal	x4,80000744	  x4=0x80000744
        1505000	       149	00000000	00000013	addi	x0,x0,0	  x0:0x00000000
        1515000	       150	80000750	00000013	addi	x0,x0,0	  x0:0x00000000
        1525000	       151	80000754	010000ef	jal	x1,80000754	  x1=0x80000754
        1535000	       152	00000000	00000013	addi	x0,x0,0	  x0:0x00000000
        1545000	       153	80000760	00000013	addi	x0,x0,0	  x0:0x00000000
        1555000	       154	80000764	004000ef	jal	x1,80000764	  x1=0x80000764
        1565000	       155	00000000	00000013	addi	x0,x0,0	  x0:0x00000000
        1575000	       156	80000764	00000013	addi	x0,x0,0	  x0:0x00000000
        1585000	       157	80000768	32243493	sltiu	x9,x8,802	  x8:0x80000728  x9=0x00000000
        1595000	       158	8000076c	054000ef	jal	x1,8000076c	  x1=0x8000076c
        1605000	       159	00000000	00000013	addi	x0,x0,0	  x0:0x00000000
        1615000	       160	800007bc	00000013	addi	x0,x0,0	  x0:0x00000000
        1625000	       161	800007c0	fb1ff0ef	jal	x1,800007c0	  x1=0x800007c0
        1635000	       162	00000000	00000013	addi	x0,x0,0	  x0:0x00000000
        1645000	       163	8000076c	00000013	addi	x0,x0,0	  x0:0x00000000
        1655000	       164	80000770	014000ef	jal	x1,80000770	  x1=0x80000770
        1665000	       165	00000000	00000013	addi	x0,x0,0	  x0:0x00000000
        1675000	       166	80000780	00000013	addi	x0,x0,0	  x0:0x00000000
        1685000	       167	80000784	0400036f	jal	x6,80000784	  x6=0x80000784
        1695000	       168	00000000	00000013	addi	x0,x0,0	  x0:0x00000000
        1705000	       169	800007c0	00000013	addi	x0,x0,0	  x0:0x00000000
        1715000	       170	800007c4	ff5ff0ef	jal	x1,800007c4	  x1=0x800007c4
        1725000	       171	00000000	00000013	addi	x0,x0,0	  x0:0x00000000
        1735000	       172	800007b4	00000013	addi	x0,x0,0	  x0:0x00000000
        1745000	       173	800007b8	fc5ff36f	jal	x6,800007b8	  x6=0x800007b8
        1755000	       174	00000000	00000013	addi	x0,x0,0	  x0:0x00000000
        1765000	       175	80000778	00000013	addi	x0,x0,0	  x0:0x00000000
        1775000	       176	8000077c	014006ef	jal	x13,8000077c	 x13=0x8000077c
        1785000	       177	00000000	00000013	addi	x0,x0,0	  x0:0x00000000
        1795000	       178	8000078c	00000013	addi	x0,x0,0	  x0:0x00000000
        1805000	       179	80000790	ff9ffdef	jal	x27,80000790	 x27=0x80000790
        1815000	       180	00000000	00000013	addi	x0,x0,0	  x0:0x00000000
        1825000	       181	80000784	00000013	addi	x0,x0,0	  x0:0x00000000
        1835000	       182	80000788	028000ef	jal	x1,80000788	  x1=0x80000788
        1845000	       183	00000000	00000013	addi	x0,x0,0	  x0:0x00000000
        1855000	       184	800007ac	00000013	addi	x0,x0,0	  x0:0x00000000
        1865000	       185	800007b0	00c0036f	jal	x6,800007b0	  x6=0x800007b0
        1875000	       186	00000000	00000013	addi	x0,x0,0	  x0:0x00000000
        1885000	       187	800007b8	00000013	addi	x0,x0,0	  x0:0x00000000
        1895000	       188	800007bc	fc5ff0ef	jal	x1,800007bc	  x1=0x800007bc
        1905000	       189	00000000	00000013	addi	x0,x0,0	  x0:0x00000000
        1915000	       190	8000077c	00000013	addi	x0,x0,0	  x0:0x00000000
        1925000	       191	80000780	ff9ff36f	jal	x6,80000780	  x6=0x80000780
        1935000	       192	00000000	00000013	addi	x0,x0,0	  x0:0x00000000
        1945000	       193	80000774	00000013	addi	x0,x0,0	  x0:0x00000000
        1955000	       194	80000778	0240036f	jal	x6,80000778	  x6=0x80000778
        1965000	       195	00000000	00000013	addi	x0,x0,0	  x0:0x00000000
        1975000	       196	80000798	00000013	addi	x0,x0,0	  x0:0x00000000
        1985000	       197	8000079c	ff9ff0ef	jal	x1,8000079c	  x1=0x8000079c
        1995000	       198	00000000	00000013	addi	x0,x0,0	  x0:0x00000000
        2005000	       199	80000790	00000013	addi	x0,x0,0	  x0:0x00000000
        2015000	       200	80000794	00c00aef	jal	x21,80000794	 x21=0x80000794
        2025000	       201	00000000	00000013	addi	x0,x0,0	  x0:0x00000000
        2035000	       202	8000079c	00000013	addi	x0,x0,0	  x0:0x00000000
        2045000	       203	800007a0	00c007ef	jal	x15,800007a0	 x15=0x800007a0
        2055000	       204	00000000	00000013	addi	x0,x0,0	  x0:0x00000000
        2065000	       205	800007a8	00000013	addi	x0,x0,0	  x0:0x00000000
        2075000	       206	800007ac	01c0016f	jal	x2,800007ac	  x2=0x800007ac
        2085000	       207	00000000	00000013	addi	x0,x0,0	  x0:0x00000000
        2095000	       208	800007c4	00000013	addi	x0,x0,0	  x0:0x00000000
        2105000	       209	800007c8	fedff36f	jal	x6,800007c8	  x6=0x800007c8
        2115000	       210	00000000	00000013	addi	x0,x0,0	  x0:0x00000000
        2125000	       211	800007b0	00000013	addi	x0,x0,0	  x0:0x00000000
        2135000	       212	800007b4	ff5ff0ef	jal	x1,800007b4	  x1=0x800007b4
        2145000	       213	00000000	00000013	addi	x0,x0,0	  x0:0x00000000
        2155000	       214	800007a4	00000013	addi	x0,x0,0	  x0:0x00000000
        2165000	       215	800007a8	0240036f	jal	x6,800007a8	  x6=0x800007a8
        2175000	       216	00000000	00000013	addi	x0,x0,0	  x0:0x00000000
        2185000	       217	800007c8	00000013	addi	x0,x0,0	  x0:0x00000000
        2195000	       218	800007cc	fa9ff36f	jal	x6,800007cc	  x6=0x800007cc
        2205000	       219	00000000	00000013	addi	x0,x0,0	  x0:0x00000000
        2215000	       220	80000770	00000013	addi	x0,x0,0	  x0:0x00000000
        2225000	       221	80000774	018001ef	jal	x3,80000774	  x3=0x80000774
        2235000	       222	00000000	00000013	addi	x0,x0,0	  x0:0x00000000
        2245000	       223	80000788	00000013	addi	x0,x0,0	  x0:0x00000000
        2255000	       224	8000078c	0180036f	jal	x6,8000078c	  x6=0x8000078c
        2265000	       225	00000000	00000013	addi	x0,x0,0	  x0:0x00000000
        2275000	       226	800007a0	00000013	addi	x0,x0,0	  x0:0x00000000
        2285000	       227	800007a4	ff5ff0ef	jal	x1,800007a4	  x1=0x800007a4
        2295000	       228	00000000	00000013	addi	x0,x0,0	  x0:0x00000000
        2305000	       229	80000794	00000013	addi	x0,x0,0	  x0:0x00000000
        2315000	       230	80000798	0380036f	jal	x6,80000798	  x6=0x80000798
        2325000	       231	00000000	00000013	addi	x0,x0,0	  x0:0x00000000
        2335000	       232	800007cc	00000013	addi	x0,x0,0	  x0:0x00000000
        2345000	       233	800007d0	0707f513	andi	x10,x15,112	 x15:0x800007a0 x10=0x00000020
        2355000	       234	800007d4	028000ef	jal	x1,800007d4	  x1=0x800007d4
        2365000	       235	00000000	00000013	addi	x0,x0,0	  x0:0x00000000
        2375000	       236	800007f8	00000013	addi	x0,x0,0	  x0:0x00000000
        2385000	       237	800007fc	024000ef	jal	x1,800007fc	  x1=0x800007fc
        2395000	       238	00000000	00000013	addi	x0,x0,0	  x0:0x00000000
        2405000	       239	8000081c	00000013	addi	x0,x0,0	  x0:0x00000000
        2415000	       240	80000820	fedff1ef	jal	x3,80000820	  x3=0x80000820
        2425000	       241	00000000	00000013	addi	x0,x0,0	  x0:0x00000000
        2435000	       242	80000808	00000013	addi	x0,x0,0	  x0:0x00000000
        2445000	       243	8000080c	fe1ff0ef	jal	x1,8000080c	  x1=0x8000080c
        2455000	       244	00000000	00000013	addi	x0,x0,0	  x0:0x00000000
        2465000	       245	800007e8	00000013	addi	x0,x0,0	  x0:0x00000000
        2475000	       246	800007ec	01c000ef	jal	x1,800007ec	  x1=0x800007ec
        2485000	       247	00000000	00000013	addi	x0,x0,0	  x0:0x00000000
        2495000	       248	80000804	00000013	addi	x0,x0,0	  x0:0x00000000
        2505000	       249	80000808	00c000ef	jal	x1,80000808	  x1=0x80000808
        2515000	       250	00000000	00000013	addi	x0,x0,0	  x0:0x00000000
        2525000	       251	80000810	00000013	addi	x0,x0,0	  x0:0x00000000
        2535000	       252	80000814	ffdff0ef	jal	x1,80000814	  x1=0x80000814
        2545000	       253	00000000	00000013	addi	x0,x0,0	  x0:0x00000000
        2555000	       254	8000080c	00000013	addi	x0,x0,0	  x0:0x00000000
        2565000	       255	80000810	0080066f	jal	x12,80000810	 x12=0x80000810
        2575000	       256	00000000	00000013	addi	x0,x0,0	  x0:0x00000000
        2585000	       257	80000814	00000013	addi	x0,x0,0	  x0:0x00000000
        2595000	       258	80000818	fedffeef	jal	x29,80000818	 x29=0x80000818
        2605000	       259	00000000	00000013	addi	x0,x0,0	  x0:0x00000000
        2615000	       260	80000800	00000013	addi	x0,x0,0	  x0:0x00000000
        2625000	       261	80000804	ffdff36f	jal	x6,80000804	  x6=0x80000804
        2635000	       262	00000000	00000013	addi	x0,x0,0	  x0:0x00000000
        2645000	       263	800007fc	00000013	addi	x0,x0,0	  x0:0x00000000
        2655000	       264	80000800	fe9ff16f	jal	x2,80000800	  x2=0x80000800
        2665000	       265	00000000	00000013	addi	x0,x0,0	  x0:0x00000000
        2675000	       266	800007e4	00000013	addi	x0,x0,0	  x0:0x00000000
        2685000	       267	800007e8	0480066f	jal	x12,800007e8	 x12=0x800007e8
        2695000	       268	00000000	00000013	addi	x0,x0,0	  x0:0x00000000
        2705000	       269	8000082c	00000013	addi	x0,x0,0	  x0:0x00000000
        2715000	       270	80000830	fa9ff0ef	jal	x1,80000830	  x1=0x80000830
        2725000	       271	00000000	00000013	addi	x0,x0,0	  x0:0x00000000
        2735000	       272	800007d4	00000013	addi	x0,x0,0	  x0:0x00000000
        2745000	       273	800007d8	018000ef	jal	x1,800007d8	  x1=0x800007d8
        2755000	       274	00000000	00000013	addi	x0,x0,0	  x0:0x00000000
        2765000	       275	800007ec	00000013	addi	x0,x0,0	  x0:0x00000000
        2775000	       276	800007f0	0040036f	jal	x6,800007f0	  x6=0x800007f0
        2785000	       277	00000000	00000013	addi	x0,x0,0	  x0:0x00000000
        2795000	       278	800007f0	00000013	addi	x0,x0,0	  x0:0x00000000
        2805000	       279	800007f4	fe9ff0ef	jal	x1,800007f4	  x1=0x800007f4
        2815000	       280	00000000	00000013	addi	x0,x0,0	  x0:0x00000000
        2825000	       281	800007d8	00000013	addi	x0,x0,0	  x0:0x00000000
        2835000	       282	800007dc	008005ef	jal	x11,800007dc	 x11=0x800007dc
        2845000	       283	00000000	00000013	addi	x0,x0,0	  x0:0x00000000
        2855000	       284	800007e0	00000013	addi	x0,x0,0	  x0:0x00000000
        2865000	       285	800007e4	0440036f	jal	x6,800007e4	  x6=0x800007e4
        2875000	       286	00000000	00000013	addi	x0,x0,0	  x0:0x00000000
        2885000	       287	80000824	00000013	addi	x0,x0,0	  x0:0x00000000
        2895000	       288	80000828	0040046f	jal	x8,80000828	  x8=0x80000828
        2905000	       289	00000000	00000013	addi	x0,x0,0	  x0:0x00000000
        2915000	       290	80000828	00000013	addi	x0,x0,0	  x0:0x00000000
        2925000	       291	8000082c	ff1ff0ef	jal	x1,8000082c	  x1=0x8000082c
        2935000	       292	00000000	00000013	addi	x0,x0,0	  x0:0x00000000
        2945000	       293	80000818	00000013	addi	x0,x0,0	  x0:0x00000000
        2955000	       294	8000081c	0080036f	jal	x6,8000081c	  x6=0x8000081c
        2965000	       295	00000000	00000013	addi	x0,x0,0	  x0:0x00000000
        2975000	       296	80000820	00000013	addi	x0,x0,0	  x0:0x00000000
        2985000	       297	80000824	fd5ff0ef	jal	x1,80000824	  x1=0x80000824
        2995000	       298	00000000	00000013	addi	x0,x0,0	  x0:0x00000000
        3005000	       299	800007f4	00000013	addi	x0,x0,0	  x0:0x00000000
        3015000	       300	800007f8	fe9ff0ef	jal	x1,800007f8	  x1=0x800007f8
        3025000	       301	00000000	00000013	addi	x0,x0,0	  x0:0x00000000
        3035000	       302	800007dc	00000013	addi	x0,x0,0	  x0:0x00000000
        3045000	       303	800007e0	054000ef	jal	x1,800007e0	  x1=0x800007e0
        3055000	       304	00000000	00000013	addi	x0,x0,0	  x0:0x00000000
        3065000	       305	80000830	00000013	addi	x0,x0,0	  x0:0x00000000
        3075000	       306	80000834	004000ef	jal	x1,80000834	  x1=0x80000834
        3085000	       307	00000000	00000013	addi	x0,x0,0	  x0:0x00000000
        3095000	       308	80000834	00000013	addi	x0,x0,0	  x0:0x00000000
        3105000	       309	80000838	b9cecd17	auipc	x26,0xb9cec	 x26=0x39cec834
        3115000	       310	8000083c	040000ef	jal	x1,8000083c	  x1=0x8000083c
        3125000	       311	00000000	00000013	addi	x0,x0,0	  x0:0x00000000
        3135000	       312	80000878	00000013	addi	x0,x0,0	  x0:0x00000000
        3145000	       313	8000087c	fe9ff0ef	jal	x1,8000087c	  x1=0x8000087c
        3155000	       314	00000000	00000013	addi	x0,x0,0	  x0:0x00000000
        3165000	       315	80000860	00000013	addi	x0,x0,0	  x0:0x00000000
        3175000	       316	80000864	0340036f	jal	x6,80000864	  x6=0x80000864
        3185000	       317	00000000	00000013	addi	x0,x0,0	  x0:0x00000000
        3195000	       318	80000894	00000013	addi	x0,x0,0	  x0:0x00000000
        3205000	       319	80000898	fd9ffb6f	jal	x22,80000898	 x22=0x80000898
        3215000	       320	00000000	00000013	addi	x0,x0,0	  x0:0x00000000
        3225000	       321	8000086c	00000013	addi	x0,x0,0	  x0:0x00000000
        3235000	       322	80000870	fe1ff36f	jal	x6,80000870	  x6=0x80000870
        3245000	       323	00000000	00000013	addi	x0,x0,0	  x0:0x00000000
        3255000	       324	8000084c	00000013	addi	x0,x0,0	  x0:0x00000000
        3265000	       325	80000850	ffdff36f	jal	x6,80000850	  x6=0x80000850
        3275000	       326	00000000	00000013	addi	x0,x0,0	  x0:0x00000000
        3285000	       327	80000848	00000013	addi	x0,x0,0	  x0:0x00000000
        3295000	       328	8000084c	0480016f	jal	x2,8000084c	  x2=0x8000084c
        3305000	       329	00000000	00000013	addi	x0,x0,0	  x0:0x00000000
        3315000	       330	80000890	00000013	addi	x0,x0,0	  x0:0x00000000
        3325000	       331	80000894	fc1ff0ef	jal	x1,80000894	  x1=0x80000894
        3335000	       332	00000000	00000013	addi	x0,x0,0	  x0:0x00000000
        3345000	       333	80000850	00000013	addi	x0,x0,0	  x0:0x00000000
        3355000	       334	80000854	ff1ff36f	jal	x6,80000854	  x6=0x80000854
        3365000	       335	00000000	00000013	addi	x0,x0,0	  x0:0x00000000
        3375000	       336	80000840	00000013	addi	x0,x0,0	  x0:0x00000000
        3385000	       337	80000844	04c0036f	jal	x6,80000844	  x6=0x80000844
        3395000	       338	00000000	00000013	addi	x0,x0,0	  x0:0x00000000
        3405000	       339	8000088c	00000013	addi	x0,x0,0	  x0:0x00000000
        3415000	       340	80000890	fb1ff0ef	jal	x1,80000890	  x1=0x80000890
        3425000	       341	00000000	00000013	addi	x0,x0,0	  x0:0x00000000
        3435000	       342	8000083c	00000013	addi	x0,x0,0	  x0:0x00000000
        3445000	       343	80000840	04c000ef	jal	x1,80000840	  x1=0x80000840
        3455000	       344	00000000	00000013	addi	x0,x0,0	  x0:0x00000000
        3465000	       345	80000888	00000013	addi	x0,x0,0	  x0:0x00000000
        3475000	       346	8000088c	fedff0ef	jal	x1,8000088c	  x1=0x8000088c
        3485000	       347	00000000	00000013	addi	x0,x0,0	  x0:0x00000000
        3495000	       348	80000874	00000013	addi	x0,x0,0	  x0:0x00000000
        3505000	       349	80000878	00c00fef	jal	x31,80000878	 x31=0x80000878
        3515000	       350	00000000	00000013	addi	x0,x0,0	  x0:0x00000000
        3525000	       351	80000880	00000013	addi	x0,x0,0	  x0:0x00000000
        3535000	       352	80000884	fddff0ef	jal	x1,80000884	  x1=0x80000884
        3545000	       353	00000000	00000013	addi	x0,x0,0	  x0:0x00000000
        3555000	       354	8000085c	00000013	addi	x0,x0,0	  x0:0x00000000
        3565000	       355	80000860	ffdff16f	jal	x2,80000860	  x2=0x80000860
        3575000	       356	00000000	00000013	addi	x0,x0,0	  x0:0x00000000
        3585000	       357	80000858	00000013	addi	x0,x0,0	  x0:0x00000000
        3595000	       358	8000085c	0240026f	jal	x4,8000085c	  x4=0x8000085c
        3605000	       359	00000000	00000013	addi	x0,x0,0	  x0:0x00000000
        3615000	       360	8000087c	00000013	addi	x0,x0,0	  x0:0x00000000
        3625000	       361	80000880	fedfff6f	jal	x30,80000880	 x30=0x80000880
        3635000	       362	00000000	00000013	addi	x0,x0,0	  x0:0x00000000
        3645000	       363	80000868	00000013	addi	x0,x0,0	  x0:0x00000000
        3655000	       364	8000086c	008000ef	jal	x1,8000086c	  x1=0x8000086c
        3665000	       365	00000000	00000013	addi	x0,x0,0	  x0:0x00000000
        3675000	       366	80000870	00000013	addi	x0,x0,0	  x0:0x00000000
        3685000	       367	80000874	fe5ff0ef	jal	x1,80000874	  x1=0x80000874
        3695000	       368	00000000	00000013	addi	x0,x0,0	  x0:0x00000000
        3705000	       369	80000854	00000013	addi	x0,x0,0	  x0:0x00000000
        3715000	       370	80000858	ff1ffaef	jal	x21,80000858	 x21=0x80000858
        3725000	       371	00000000	00000013	addi	x0,x0,0	  x0:0x00000000
        3735000	       372	80000844	00000013	addi	x0,x0,0	  x0:0x00000000
        3745000	       373	80000848	0200036f	jal	x6,80000848	  x6=0x80000848
        3755000	       374	00000000	00000013	addi	x0,x0,0	  x0:0x00000000
        3765000	       375	80000864	00000013	addi	x0,x0,0	  x0:0x00000000
        3775000	       376	80000868	020000ef	jal	x1,80000868	  x1=0x80000868
        3785000	       377	00000000	00000013	addi	x0,x0,0	  x0:0x00000000
        3795000	       378	80000884	00000013	addi	x0,x0,0	  x0:0x00000000
        3805000	       379	80000888	0140036f	jal	x6,80000888	  x6=0x80000888
        3815000	       380	00000000	00000013	addi	x0,x0,0	  x0:0x00000000
        3825000	       381	80000898	00000013	addi	x0,x0,0	  x0:0x00000000
        3835000	       382	8000089c	b366b913	sltiu	x18,x13,-1226	 x13:0x8000077c x18=0x00000001
        3845000	       383	800008a0	030000ef	jal	x1,800008a0	  x1=0x800008a0
        3855000	       384	00000000	00000013	addi	x0,x0,0	  x0:0x00000000
        3865000	       385	800008cc	00000013	addi	x0,x0,0	  x0:0x00000000
        3875000	       386	800008d0	018000ef	jal	x1,800008d0	  x1=0x800008d0
        3885000	       387	00000000	00000013	addi	x0,x0,0	  x0:0x00000000
        3895000	       388	800008e4	00000013	addi	x0,x0,0	  x0:0x00000000
        3905000	       389	800008e8	00c0036f	jal	x6,800008e8	  x6=0x800008e8
        3915000	       390	00000000	00000013	addi	x0,x0,0	  x0:0x00000000
        3925000	       391	800008f0	00000013	addi	x0,x0,0	  x0:0x00000000
        3935000	       392	800008f4	fb1ff36f	jal	x6,800008f4	  x6=0x800008f4
        3945000	       393	00000000	00000013	addi	x0,x0,0	  x0:0x00000000
        3955000	       394	800008a0	00000013	addi	x0,x0,0	  x0:0x00000000
        3965000	       395	800008a4	05c000ef	jal	x1,800008a4	  x1=0x800008a4
        3975000	       396	00000000	00000013	addi	x0,x0,0	  x0:0x00000000
        3985000	       397	800008fc	00000013	addi	x0,x0,0	  x0:0x00000000
        3995000	       398	80000900	fcdff36f	jal	x6,80000900	  x6=0x80000900
        4005000	       399	00000000	00000013	addi	x0,x0,0	  x0:0x00000000
        4015000	       400	800008c8	00000013	addi	x0,x0,0	  x0:0x00000000
        4025000	       401	800008cc	0240036f	jal	x6,800008cc	  x6=0x800008cc
        4035000	       402	00000000	00000013	addi	x0,x0,0	  x0:0x00000000
        4045000	       403	800008ec	00000013	addi	x0,x0,0	  x0:0x00000000
        4055000	       404	800008f0	fb9ff36f	jal	x6,800008f0	  x6=0x800008f0
        4065000	       405	00000000	00000013	addi	x0,x0,0	  x0:0x00000000
        4075000	       406	800008a4	00000013	addi	x0,x0,0	  x0:0x00000000
        4085000	       407	800008a8	01c000ef	jal	x1,800008a8	  x1=0x800008a8
        4095000	       408	00000000	00000013	addi	x0,x0,0	  x0:0x00000000
        4105000	       409	800008c0	00000013	addi	x0,x0,0	  x0:0x00000000
        4115000	       410	800008c4	020000ef	jal	x1,800008c4	  x1=0x800008c4
        4125000	       411	00000000	00000013	addi	x0,x0,0	  x0:0x00000000
        4135000	       412	800008e0	00000013	addi	x0,x0,0	  x0:0x00000000
        4145000	       413	800008e4	ff9ff2ef	jal	x5,800008e4	  x5=0x800008e4
        4155000	       414	00000000	00000013	addi	x0,x0,0	  x0:0x00000000
        4165000	       415	800008d8	00000013	addi	x0,x0,0	  x0:0x00000000
        4175000	       416	800008dc	01c0036f	jal	x6,800008dc	  x6=0x800008dc
        4185000	       417	00000000	00000013	addi	x0,x0,0	  x0:0x00000000
        4195000	       418	800008f4	00000013	addi	x0,x0,0	  x0:0x00000000
        4205000	       419	800008f8	fd1ff3ef	jal	x7,800008f8	  x7=0x800008f8
        4215000	       420	00000000	00000013	addi	x0,x0,0	  x0:0x00000000
        4225000	       421	800008c4	00000013	addi	x0,x0,0	  x0:0x00000000
        4235000	       422	800008c8	0180036f	jal	x6,800008c8	  x6=0x800008c8
        4245000	       423	00000000	00000013	addi	x0,x0,0	  x0:0x00000000
        4255000	       424	800008dc	00000013	addi	x0,x0,0	  x0:0x00000000
        4265000	       425	800008e0	fddffe6f	jal	x28,800008e0	 x28=0x800008e0
        4275000	       426	00000000	00000013	addi	x0,x0,0	  x0:0x00000000
        4285000	       427	800008b8	00000013	addi	x0,x0,0	  x0:0x00000000
        4295000	       428	800008bc	004002ef	jal	x5,800008bc	  x5=0x800008bc
        4305000	       429	00000000	00000013	addi	x0,x0,0	  x0:0x00000000
        4315000	       430	800008bc	00000013	addi	x0,x0,0	  x0:0x00000000
        4325000	       431	800008c0	0140036f	jal	x6,800008c0	  x6=0x800008c0
        4335000	       432	00000000	00000013	addi	x0,x0,0	  x0:0x00000000
        4345000	       433	800008d0	00000013	addi	x0,x0,0	  x0:0x00000000
        4355000	       434	800008d4	03c00cef	jal	x25,800008d4	 x25=0x800008d4
        4365000	       435	00000000	00000013	addi	x0,x0,0	  x0:0x00000000
        4375000	       436	8000090c	00000013	addi	x0,x0,0	  x0:0x00000000
        4385000	       437	80000910	ff5ff36f	jal	x6,80000910	  x6=0x80000910
        4395000	       438	00000000	00000013	addi	x0,x0,0	  x0:0x00000000
        4405000	       439	80000900	00000013	addi	x0,x0,0	  x0:0x00000000
        4415000	       440	80000904	fa9ff5ef	jal	x11,80000904	 x11=0x80000904
        4425000	       441	00000000	00000013	addi	x0,x0,0	  x0:0x00000000
        4435000	       442	800008a8	00000013	addi	x0,x0,0	  x0:0x00000000
        4445000	       443	800008ac	00c0096f	jal	x18,800008ac	 x18=0x800008ac
        4455000	       444	00000000	00000013	addi	x0,x0,0	  x0:0x00000000
        4465000	       445	800008b4	00000013	addi	x0,x0,0	  x0:0x00000000
        4475000	       446	800008b8	0200016f	jal	x2,800008b8	  x2=0x800008b8
        4485000	       447	00000000	00000013	addi	x0,x0,0	  x0:0x00000000
        4495000	       448	800008d4	00000013	addi	x0,x0,0	  x0:0x00000000
        4505000	       449	800008d8	fd9ff0ef	jal	x1,800008d8	  x1=0x800008d8
        4515000	       450	00000000	00000013	addi	x0,x0,0	  x0:0x00000000
        4525000	       451	800008ac	00000013	addi	x0,x0,0	  x0:0x00000000
        4535000	       452	800008b0	04c0036f	jal	x6,800008b0	  x6=0x800008b0
        4545000	       453	00000000	00000013	addi	x0,x0,0	  x0:0x00000000
        4555000	       454	800008f8	00000013	addi	x0,x0,0	  x0:0x00000000
        4565000	       455	800008fc	010000ef	jal	x1,800008fc	  x1=0x800008fc
        4575000	       456	00000000	00000013	addi	x0,x0,0	  x0:0x00000000
        4585000	       457	80000908	00000013	addi	x0,x0,0	  x0:0x00000000
        4595000	       458	8000090c	ffdff0ef	jal	x1,8000090c	  x1=0x8000090c
        4605000	       459	00000000	00000013	addi	x0,x0,0	  x0:0x00000000
        4615000	       460	80000904	00000013	addi	x0,x0,0	  x0:0x00000000
        4625000	       461	80000908	fadff36f	jal	x6,80000908	  x6=0x80000908
        4635000	       462	00000000	00000013	addi	x0,x0,0	  x0:0x00000000
        4645000	       463	800008b0	00000013	addi	x0,x0,0	  x0:0x00000000
        4655000	       464	800008b4	038000ef	jal	x1,800008b4	  x1=0x800008b4
        4665000	       465	00000000	00000013	addi	x0,x0,0	  x0:0x00000000
        4675000	       466	800008e8	00000013	addi	x0,x0,0	  x0:0x00000000
        4685000	       467	800008ec	028000ef	jal	x1,800008ec	  x1=0x800008ec
        4695000	       468	00000000	00000013	addi	x0,x0,0	  x0:0x00000000
        4705000	       469	80000910	00000013	addi	x0,x0,0	  x0:0x00000000
        4715000	       470	80000914	013446b3	xor	x13,x8,x19	  x8:0x80000828 x19:0x80000710 x13=0x00000f38
        4725000	       471	80000918	038000ef	jal	x1,80000918	  x1=0x80000918
        4735000	       472	00000000	00000013	addi	x0,x0,0	  x0:0x00000000
        4745000	       473	8000094c	00000013	addi	x0,x0,0	  x0:0x00000000
        4755000	       474	80000950	ff9ff1ef	jal	x3,80000950	  x3=0x80000950
        4765000	       475	00000000	00000013	addi	x0,x0,0	  x0:0x00000000
        4775000	       476	80000944	00000013	addi	x0,x0,0	  x0:0x00000000
        4785000	       477	80000948	028000ef	jal	x1,80000948	  x1=0x80000948
        4795000	       478	00000000	00000013	addi	x0,x0,0	  x0:0x00000000
        4805000	       479	8000096c	00000013	addi	x0,x0,0	  x0:0x00000000
        4815000	       480	80000970	fc5ff36f	jal	x6,80000970	  x6=0x80000970
        4825000	       481	00000000	00000013	addi	x0,x0,0	  x0:0x00000000
        4835000	       482	80000930	00000013	addi	x0,x0,0	  x0:0x00000000
        4845000	       483	80000934	010003ef	jal	x7,80000934	  x7=0x80000934
        4855000	       484	00000000	00000013	addi	x0,x0,0	  x0:0x00000000
        4865000	       485	80000940	00000013	addi	x0,x0,0	  x0:0x00000000
        4875000	       486	80000944	048000ef	jal	x1,80000944	  x1=0x80000944
        4885000	       487	00000000	00000013	addi	x0,x0,0	  x0:0x00000000
        4895000	       488	80000988	00000013	addi	x0,x0,0	  x0:0x00000000
        4905000	       489	8000098c	ff9ff36f	jal	x6,8000098c	  x6=0x8000098c
        4915000	       490	00000000	00000013	addi	x0,x0,0	  x0:0x00000000
        4925000	       491	80000980	00000013	addi	x0,x0,0	  x0:0x00000000
        4935000	       492	80000984	fddff36f	jal	x6,80000984	  x6=0x80000984
        4945000	       493	00000000	00000013	addi	x0,x0,0	  x0:0x00000000
        4955000	       494	8000095c	00000013	addi	x0,x0,0	  x0:0x00000000
        4965000	       495	80000960	fcdff2ef	jal	x5,80000960	  x5=0x80000960
        4975000	       496	00000000	00000013	addi	x0,x0,0	  x0:0x00000000
        4985000	       497	80000928	00000013	addi	x0,x0,0	  x0:0x00000000
        4995000	       498	8000092c	ffdff0ef	jal	x1,8000092c	  x1=0x8000092c
        5005000	       499	00000000	00000013	addi	x0,x0,0	  x0:0x00000000
        5015000	       500	80000924	00000013	addi	x0,x0,0	  x0:0x00000000
        5025000	       501	80000928	00800fef	jal	x31,80000928	 x31=0x80000928
        5035000	       502	00000000	00000013	addi	x0,x0,0	  x0:0x00000000
        5045000	       503	8000092c	00000013	addi	x0,x0,0	  x0:0x00000000
        5055000	       504	80000930	fedff36f	jal	x6,80000930	  x6=0x80000930
        5065000	       505	00000000	00000013	addi	x0,x0,0	  x0:0x00000000
        5075000	       506	80000918	00000013	addi	x0,x0,0	  x0:0x00000000
        5085000	       507	8000091c	040000ef	jal	x1,8000091c	  x1=0x8000091c
        5095000	       508	00000000	00000013	addi	x0,x0,0	  x0:0x00000000
        5105000	       509	80000958	00000013	addi	x0,x0,0	  x0:0x00000000
        5115000	       510	8000095c	0200036f	jal	x6,8000095c	  x6=0x8000095c
        5125000	       511	00000000	00000013	addi	x0,x0,0	  x0:0x00000000
        5135000	       512	80000978	00000013	addi	x0,x0,0	  x0:0x00000000
        5145000	       513	8000097c	fa5ff36f	jal	x6,8000097c	  x6=0x8000097c
        5155000	       514	00000000	00000013	addi	x0,x0,0	  x0:0x00000000
        5165000	       515	8000091c	00000013	addi	x0,x0,0	  x0:0x00000000
        5175000	       516	80000920	0580036f	jal	x6,80000920	  x6=0x80000920
        5185000	       517	00000000	00000013	addi	x0,x0,0	  x0:0x00000000
        5195000	       518	80000974	00000013	addi	x0,x0,0	  x0:0x00000000
        5205000	       519	80000978	0080026f	jal	x4,80000978	  x4=0x80000978
        5215000	       520	00000000	00000013	addi	x0,x0,0	  x0:0x00000000
        5225000	       521	8000097c	00000013	addi	x0,x0,0	  x0:0x00000000
        5235000	       522	80000980	0080036f	jal	x6,80000980	  x6=0x80000980
        5245000	       523	00000000	00000013	addi	x0,x0,0	  x0:0x00000000
        5255000	       524	80000984	00000013	addi	x0,x0,0	  x0:0x00000000
        5265000	       525	80000988	fc5ff36f	jal	x6,80000988	  x6=0x80000988
        5275000	       526	00000000	00000013	addi	x0,x0,0	  x0:0x00000000
        5285000	       527	80000948	00000013	addi	x0,x0,0	  x0:0x00000000
        5295000	       528	8000094c	ff5ff1ef	jal	x3,8000094c	  x3=0x8000094c
        5305000	       529	00000000	00000013	addi	x0,x0,0	  x0:0x00000000
        5315000	       530	8000093c	00000013	addi	x0,x0,0	  x0:0x00000000
        5325000	       531	80000940	ffdff16f	jal	x2,80000940	  x2=0x80000940
        5335000	       532	00000000	00000013	addi	x0,x0,0	  x0:0x00000000
        5345000	       533	80000938	00000013	addi	x0,x0,0	  x0:0x00000000
        5355000	       534	8000093c	0380046f	jal	x8,8000093c	  x8=0x8000093c
        5365000	       535	00000000	00000013	addi	x0,x0,0	  x0:0x00000000
        5375000	       536	80000970	00000013	addi	x0,x0,0	  x0:0x00000000
        5385000	       537	80000974	fe1ff36f	jal	x6,80000974	  x6=0x80000974
        5395000	       538	00000000	00000013	addi	x0,x0,0	  x0:0x00000000
        5405000	       539	80000950	00000013	addi	x0,x0,0	  x0:0x00000000
        5415000	       540	80000954	0100086f	jal	x16,80000954	 x16=0x80000954
        5425000	       541	00000000	00000013	addi	x0,x0,0	  x0:0x00000000
        5435000	       542	80000960	00000013	addi	x0,x0,0	  x0:0x00000000
        5445000	       543	80000964	fc1ff36f	jal	x6,80000964	  x6=0x80000964
        5455000	       544	00000000	00000013	addi	x0,x0,0	  x0:0x00000000
        5465000	       545	80000920	00000013	addi	x0,x0,0	  x0:0x00000000
        5475000	       546	80000924	014001ef	jal	x3,80000924	  x3=0x80000924
        5485000	       547	00000000	00000013	addi	x0,x0,0	  x0:0x00000000
        5495000	       548	80000934	00000013	addi	x0,x0,0	  x0:0x00000000
        5505000	       549	80000938	034000ef	jal	x1,80000938	  x1=0x80000938
        5515000	       550	00000000	00000013	addi	x0,x0,0	  x0:0x00000000
        5525000	       551	80000968	00000013	addi	x0,x0,0	  x0:0x00000000
        5535000	       552	8000096c	fedff56f	jal	x10,8000096c	 x10=0x8000096c
        5545000	       553	00000000	00000013	addi	x0,x0,0	  x0:0x00000000
        5555000	       554	80000954	00000013	addi	x0,x0,0	  x0:0x00000000
        5565000	       555	80000958	0100046f	jal	x8,80000958	  x8=0x80000958
        5575000	       556	00000000	00000013	addi	x0,x0,0	  x0:0x00000000
        5585000	       557	80000964	00000013	addi	x0,x0,0	  x0:0x00000000
        5595000	       558	80000968	028000ef	jal	x1,80000968	  x1=0x80000968
        5605000	       559	00000000	00000013	addi	x0,x0,0	  x0:0x00000000
        5615000	       560	8000098c	00000013	addi	x0,x0,0	  x0:0x00000000
        5625000	       561	80000990	00000013	addi	x0,x0,0	  x0:0x00000000
        5635000	       562	80000994	064000ef	jal	x1,80000994	  x1=0x80000994
        5645000	       563	00000000	00000013	addi	x0,x0,0	  x0:0x00000000
        5655000	       564	800009f4	00000013	addi	x0,x0,0	  x0:0x00000000
        5665000	       565	800009f8	ff5ff0ef	jal	x1,800009f8	  x1=0x800009f8
        5675000	       566	00000000	00000013	addi	x0,x0,0	  x0:0x00000000
        5685000	       567	800009e8	00000013	addi	x0,x0,0	  x0:0x00000000
        5695000	       568	800009ec	fddff0ef	jal	x1,800009ec	  x1=0x800009ec
        5705000	       569	00000000	00000013	addi	x0,x0,0	  x0:0x00000000
        5715000	       570	800009c4	00000013	addi	x0,x0,0	  x0:0x00000000
        5725000	       571	800009c8	fddff36f	jal	x6,800009c8	  x6=0x800009c8
        5735000	       572	00000000	00000013	addi	x0,x0,0	  x0:0x00000000
        5745000	       573	800009a0	00000013	addi	x0,x0,0	  x0:0x00000000
        5755000	       574	800009a4	01800cef	jal	x25,800009a4	 x25=0x800009a4
        5765000	       575	00000000	00000013	addi	x0,x0,0	  x0:0x00000000
        5775000	       576	800009b8	00000013	addi	x0,x0,0	  x0:0x00000000
        5785000	       577	800009bc	ff1ff4ef	jal	x9,800009bc	  x9=0x800009bc
        5795000	       578	00000000	00000013	addi	x0,x0,0	  x0:0x00000000
        5805000	       579	800009a8	00000013	addi	x0,x0,0	  x0:0x00000000
        5815000	       580	800009ac	018000ef	jal	x1,800009ac	  x1=0x800009ac
        5825000	       581	00000000	00000013	addi	x0,x0,0	  x0:0x00000000
        5835000	       582	800009c0	00000013	addi	x0,x0,0	  x0:0x00000000
        5845000	       583	800009c4	018002ef	jal	x5,800009c4	  x5=0x800009c4
        5855000	       584	00000000	00000013	addi	x0,x0,0	  x0:0x00000000
        5865000	       585	800009d8	00000013	addi	x0,x0,0	  x0:0x00000000
        5875000	       586	800009dc	028000ef	jal	x1,800009dc	  x1=0x800009dc
        5885000	       587	00000000	00000013	addi	x0,x0,0	  x0:0x00000000
        5895000	       588	80000a00	00000013	addi	x0,x0,0	  x0:0x00000000
        5905000	       589	80000a04	f99ff0ef	jal	x1,80000a04	  x1=0x80000a04
        5915000	       590	00000000	00000013	addi	x0,x0,0	  x0:0x00000000
        5925000	       591	80000998	00000013	addi	x0,x0,0	  x0:0x00000000
        5935000	       592	8000099c	038000ef	jal	x1,8000099c	  x1=0x8000099c
        5945000	       593	00000000	00000013	addi	x0,x0,0	  x0:0x00000000
        5955000	       594	800009d0	00000013	addi	x0,x0,0	  x0:0x00000000
        5965000	       595	800009d4	02c000ef	jal	x1,800009d4	  x1=0x800009d4
        5975000	       596	00000000	00000013	addi	x0,x0,0	  x0:0x00000000
        5985000	       597	800009fc	00000013	addi	x0,x0,0	  x0:0x00000000
        5995000	       598	80000a00	fb1ff36f	jal	x6,80000a00	  x6=0x80000a00
        6005000	       599	00000000	00000013	addi	x0,x0,0	  x0:0x00000000
        6015000	       600	800009ac	00000013	addi	x0,x0,0	  x0:0x00000000
        6025000	       601	800009b0	0040036f	jal	x6,800009b0	  x6=0x800009b0
        6035000	       602	00000000	00000013	addi	x0,x0,0	  x0:0x00000000
        6045000	       603	800009b0	00000013	addi	x0,x0,0	  x0:0x00000000
        6055000	       604	800009b4	fe5ff16f	jal	x2,800009b4	  x2=0x800009b4
        6065000	       605	00000000	00000013	addi	x0,x0,0	  x0:0x00000000
        6075000	       606	80000994	00000013	addi	x0,x0,0	  x0:0x00000000
        6085000	       607	80000998	0640036f	jal	x6,80000998	  x6=0x80000998
        6095000	       608	00000000	00000013	addi	x0,x0,0	  x0:0x00000000
        6105000	       609	800009f8	00000013	addi	x0,x0,0	  x0:0x00000000
        6115000	       610	800009fc	ff9ffd6f	jal	x26,800009fc	 x26=0x800009fc
        6125000	       611	00000000	00000013	addi	x0,x0,0	  x0:0x00000000
        6135000	       612	800009f0	00000013	addi	x0,x0,0	  x0:0x00000000
        6145000	       613	800009f4	fb5ff7ef	jal	x15,800009f4	 x15=0x800009f4
        6155000	       614	00000000	00000013	addi	x0,x0,0	  x0:0x00000000
        6165000	       615	800009a4	00000013	addi	x0,x0,0	  x0:0x00000000
        6175000	       616	800009a8	0480036f	jal	x6,800009a8	  x6=0x800009a8
        6185000	       617	00000000	00000013	addi	x0,x0,0	  x0:0x00000000
        6195000	       618	800009ec	00000013	addi	x0,x0,0	  x0:0x00000000
        6205000	       619	800009f0	01800fef	jal	x31,800009f0	 x31=0x800009f0
        6215000	       620	00000000	00000013	addi	x0,x0,0	  x0:0x00000000
        6225000	       621	80000a04	00000013	addi	x0,x0,0	  x0:0x00000000
        6235000	       622	80000a08	f99ff86f	jal	x16,80000a08	 x16=0x80000a08
        6245000	       623	00000000	00000013	addi	x0,x0,0	  x0:0x00000000
        6255000	       624	8000099c	00000013	addi	x0,x0,0	  x0:0x00000000
        6265000	       625	800009a0	02c000ef	jal	x1,800009a0	  x1=0x800009a0
        6275000	       626	00000000	00000013	addi	x0,x0,0	  x0:0x00000000
        6285000	       627	800009c8	00000013	addi	x0,x0,0	  x0:0x00000000
        6295000	       628	800009cc	0140016f	jal	x2,800009cc	  x2=0x800009cc
        6305000	       629	00000000	00000013	addi	x0,x0,0	  x0:0x00000000
        6315000	       630	800009dc	00000013	addi	x0,x0,0	  x0:0x00000000
        6325000	       631	800009e0	fe1ff0ef	jal	x1,800009e0	  x1=0x800009e0
        6335000	       632	00000000	00000013	addi	x0,x0,0	  x0:0x00000000
        6345000	       633	800009bc	00000013	addi	x0,x0,0	  x0:0x00000000
        6355000	       634	800009c0	024000ef	jal	x1,800009c0	  x1=0x800009c0
        6365000	       635	00000000	00000013	addi	x0,x0,0	  x0:0x00000000
        6375000	       636	800009e0	00000013	addi	x0,x0,0	  x0:0x00000000
        6385000	       637	800009e4	ff5ff36f	jal	x6,800009e4	  x6=0x800009e4
        6395000	       638	00000000	00000013	addi	x0,x0,0	  x0:0x00000000
        6405000	       639	800009d4	00000013	addi	x0,x0,0	  x0:0x00000000
        6415000	       640	800009d8	0100036f	jal	x6,800009d8	  x6=0x800009d8
        6425000	       641	00000000	00000013	addi	x0,x0,0	  x0:0x00000000
        6435000	       642	800009e4	00000013	addi	x0,x0,0	  x0:0x00000000
        6445000	       643	800009e8	fe9ff36f	jal	x6,800009e8	  x6=0x800009e8
        6455000	       644	00000000	00000013	addi	x0,x0,0	  x0:0x00000000
        6465000	       645	800009cc	00000013	addi	x0,x0,0	  x0:0x00000000
        6475000	       646	800009d0	fe9ff26f	jal	x4,800009d0	  x4=0x800009d0
        6485000	       647	00000000	00000013	addi	x0,x0,0	  x0:0x00000000
        6495000	       648	800009b4	00000013	addi	x0,x0,0	  x0:0x00000000
        6505000	       649	800009b8	054000ef	jal	x1,800009b8	  x1=0x800009b8
        6515000	       650	00000000	00000013	addi	x0,x0,0	  x0:0x00000000
        6525000	       651	80000a08	00000013	addi	x0,x0,0	  x0:0x00000000
        6535000	       652	80000a0c	9913e797	auipc	x15,0x9913e	 x15=0x1913ea08
        6545000	       653	80000a10	038000ef	jal	x1,80000a10	  x1=0x80000a10
        6555000	       654	00000000	00000013	addi	x0,x0,0	  x0:0x00000000
        6565000	       655	80000a44	00000013	addi	x0,x0,0	  x0:0x00000000
        6575000	       656	80000a48	01800fef	jal	x31,80000a48	 x31=0x80000a48
        6585000	       657	00000000	00000013	addi	x0,x0,0	  x0:0x00000000
        6595000	       658	80000a5c	00000013	addi	x0,x0,0	  x0:0x00000000
        6605000	       659	80000a60	fe5ff0ef	jal	x1,80000a60	  x1=0x80000a60
        6615000	       660	00000000	00000013	addi	x0,x0,0	  x0:0x00000000
        6625000	       661	80000a40	00000013	addi	x0,x0,0	  x0:0x00000000
        6635000	       662	80000a44	018000ef	jal	x1,80000a44	  x1=0x80000a44
        6645000	       663	00000000	00000013	addi	x0,x0,0	  x0:0x00000000
        6655000	       664	80000a58	00000013	addi	x0,x0,0	  x0:0x00000000
        6665000	       665	80000a5c	0200036f	jal	x6,80000a5c	  x6=0x80000a5c
        6675000	       666	00000000	00000013	addi	x0,x0,0	  x0:0x00000000
        6685000	       667	80000a78	00000013	addi	x0,x0,0	  x0:0x00000000
        6695000	       668	80000a7c	f99ff66f	jal	x12,80000a7c	 x12=0x80000a7c
        6705000	       669	00000000	00000013	addi	x0,x0,0	  x0:0x00000000
        6715000	       670	80000a10	00000013	addi	x0,x0,0	  x0:0x00000000
        6725000	       671	80000a14	01c0036f	jal	x6,80000a14	  x6=0x80000a14
        6735000	       672	00000000	00000013	addi	x0,x0,0	  x0:0x00000000
        6745000	       673	80000a2c	00000013	addi	x0,x0,0	  x0:0x00000000
        6755000	       674	80000a30	0340036f	jal	x6,80000a30	  x6=0x80000a30
        6765000	       675	00000000	00000013	addi	x0,x0,0	  x0:0x00000000
        6775000	       676	80000a60	00000013	addi	x0,x0,0	  x0:0x00000000
        6785000	       677	80000a64	00800fef	jal	x31,80000a64	 x31=0x80000a64
        6795000	       678	00000000	00000013	addi	x0,x0,0	  x0:0x00000000
        6805000	       679	80000a68	00000013	addi	x0,x0,0	  x0:0x00000000
        6815000	       680	80000a6c	fcdffd6f	jal	x26,80000a6c	 x26=0x80000a6c
        6825000	       681	00000000	00000013	addi	x0,x0,0	  x0:0x00000000
        6835000	       682	80000a34	00000013	addi	x0,x0,0	  x0:0x00000000
        6845000	       683	80000a38	004000ef	jal	x1,80000a38	  x1=0x80000a38
        6855000	       684	00000000	00000013	addi	x0,x0,0	  x0:0x00000000
        6865000	       685	80000a38	00000013	addi	x0,x0,0	  x0:0x00000000
        6875000	       686	80000a3c	fddff0ef	jal	x1,80000a3c	  x1=0x80000a3c
        6885000	       687	00000000	00000013	addi	x0,x0,0	  x0:0x00000000
        6895000	       688	80000a14	00000013	addi	x0,x0,0	  x0:0x00000000
        6905000	       689	80000a18	0500046f	jal	x8,80000a18	  x8=0x80000a18
        6915000	       690	00000000	00000013	addi	x0,x0,0	  x0:0x00000000
        6925000	       691	80000a64	00000013	addi	x0,x0,0	  x0:0x00000000
        6935000	       692	80000a68	fc1ff36f	jal	x6,80000a68	  x6=0x80000a68
        6945000	       693	00000000	00000013	addi	x0,x0,0	  x0:0x00000000
        6955000	       694	80000a24	00000013	addi	x0,x0,0	  x0:0x00000000
        6965000	       695	80000a28	04c0016f	jal	x2,80000a28	  x2=0x80000a28
        6975000	       696	00000000	00000013	addi	x0,x0,0	  x0:0x00000000
        6985000	       697	80000a70	00000013	addi	x0,x0,0	  x0:0x00000000
        6995000	       698	80000a74	fb9ff0ef	jal	x1,80000a74	  x1=0x80000a74
        7005000	       699	00000000	00000013	addi	x0,x0,0	  x0:0x00000000
        7015000	       700	80000a28	00000013	addi	x0,x0,0	  x0:0x00000000
        7025000	       701	80000a2c	04c000ef	jal	x1,80000a2c	  x1=0x80000a2c
        7035000	       702	00000000	00000013	addi	x0,x0,0	  x0:0x00000000
        7045000	       703	80000a74	00000013	addi	x0,x0,0	  x0:0x00000000
        7055000	       704	80000a78	fe1ffaef	jal	x21,80000a78	 x21=0x80000a78
        7065000	       705	00000000	00000013	addi	x0,x0,0	  x0:0x00000000
        7075000	       706	80000a54	00000013	addi	x0,x0,0	  x0:0x00000000
        7085000	       707	80000a58	fc5ff0ef	jal	x1,80000a58	  x1=0x80000a58
        7095000	       708	00000000	00000013	addi	x0,x0,0	  x0:0x00000000
        7105000	       709	80000a18	00000013	addi	x0,x0,0	  x0:0x00000000
        7115000	       710	80000a1c	030000ef	jal	x1,80000a1c	  x1=0x80000a1c
        7125000	       711	00000000	00000013	addi	x0,x0,0	  x0:0x00000000
        7135000	       712	80000a48	00000013	addi	x0,x0,0	  x0:0x00000000
        7145000	       713	80000a4c	00400aef	jal	x21,80000a4c	 x21=0x80000a4c
        7155000	       714	00000000	00000013	addi	x0,x0,0	  x0:0x00000000
        7165000	       715	80000a4c	00000013	addi	x0,x0,0	  x0:0x00000000
        7175000	       716	80000a50	0040096f	jal	x18,80000a50	 x18=0x80000a50
        7185000	       717	00000000	00000013	addi	x0,x0,0	  x0:0x00000000
        7195000	       718	80000a50	00000013	addi	x0,x0,0	  x0:0x00000000
        7205000	       719	80000a54	fe1ffe6f	jal	x28,80000a54	 x28=0x80000a54
        7215000	       720	00000000	00000013	addi	x0,x0,0	  x0:0x00000000
        7225000	       721	80000a30	00000013	addi	x0,x0,0	  x0:0x00000000
        7235000	       722	80000a34	ff1ff0ef	jal	x1,80000a34	  x1=0x80000a34
        7245000	       723	00000000	00000013	addi	x0,x0,0	  x0:0x00000000
        7255000	       724	80000a20	00000013	addi	x0,x0,0	  x0:0x00000000
        7265000	       725	80000a24	01c000ef	jal	x1,80000a24	  x1=0x80000a24
        7275000	       726	00000000	00000013	addi	x0,x0,0	  x0:0x00000000
        7285000	       727	80000a3c	00000013	addi	x0,x0,0	  x0:0x00000000
        7295000	       728	80000a40	fe1ff0ef	jal	x1,80000a40	  x1=0x80000a40
        7305000	       729	00000000	00000013	addi	x0,x0,0	  x0:0x00000000
        7315000	       730	80000a1c	00000013	addi	x0,x0,0	  x0:0x00000000
        7325000	       731	80000a20	050000ef	jal	x1,80000a20	  x1=0x80000a20
        7335000	       732	00000000	00000013	addi	x0,x0,0	  x0:0x00000000
        7345000	       733	80000a6c	00000013	addi	x0,x0,0	  x0:0x00000000
        7355000	       734	80000a70	01000f6f	jal	x30,80000a70	 x30=0x80000a70
        7365000	       735	00000000	00000013	addi	x0,x0,0	  x0:0x00000000
        7375000	       736	80000a7c	00000013	addi	x0,x0,0	  x0:0x00000000
        7385000	       737	80000a80	00663133	sltu	x2,x12,x6	 x12:0x80000a7c  x6:0x80000a68  x2=0x00000000
        7395000	       738	80000a84	010000ef	jal	x1,80000a84	  x1=0x80000a84
        7405000	       739	00000000	00000013	addi	x0,x0,0	  x0:0x00000000
        7415000	       740	80000a90	00000013	addi	x0,x0,0	  x0:0x00000000
        7425000	       741	80000a94	ff9ff0ef	jal	x1,80000a94	  x1=0x80000a94
        7435000	       742	00000000	00000013	addi	x0,x0,0	  x0:0x00000000
        7445000	       743	80000a88	00000013	addi	x0,x0,0	  x0:0x00000000
        7455000	       744	80000a8c	004009ef	jal	x19,80000a8c	 x19=0x80000a8c
        7465000	       745	00000000	00000013	addi	x0,x0,0	  x0:0x00000000
        7475000	       746	80000a8c	00000013	addi	x0,x0,0	  x0:0x00000000
        7485000	       747	80000a90	014000ef	jal	x1,80000a90	  x1=0x80000a90
        7495000	       748	00000000	00000013	addi	x0,x0,0	  x0:0x00000000
        7505000	       749	80000aa0	00000013	addi	x0,x0,0	  x0:0x00000000
        7515000	       750	80000aa4	018000ef	jal	x1,80000aa4	  x1=0x80000aa4
        7525000	       751	00000000	00000013	addi	x0,x0,0	  x0:0x00000000
        7535000	       752	80000ab8	00000013	addi	x0,x0,0	  x0:0x00000000
        7545000	       753	80000abc	ff5ff0ef	jal	x1,80000abc	  x1=0x80000abc
        7555000	       754	00000000	00000013	addi	x0,x0,0	  x0:0x00000000
        7565000	       755	80000aac	00000013	addi	x0,x0,0	  x0:0x00000000
        7575000	       756	80000ab0	ff1ff0ef	jal	x1,80000ab0	  x1=0x80000ab0
        7585000	       757	00000000	00000013	addi	x0,x0,0	  x0:0x00000000
        7595000	       758	80000a9c	00000013	addi	x0,x0,0	  x0:0x00000000
        7605000	       759	80000aa0	ffdfffef	jal	x31,80000aa0	 x31=0x80000aa0
        7615000	       760	00000000	00000013	addi	x0,x0,0	  x0:0x00000000
        7625000	       761	80000a98	00000013	addi	x0,x0,0	  x0:0x00000000
        7635000	       762	80000a9c	fedff0ef	jal	x1,80000a9c	  x1=0x80000a9c
        7645000	       763	00000000	00000013	addi	x0,x0,0	  x0:0x00000000
        7655000	       764	80000a84	00000013	addi	x0,x0,0	  x0:0x00000000
        7665000	       765	80000a88	024000ef	jal	x1,80000a88	  x1=0x80000a88
        7675000	       766	00000000	00000013	addi	x0,x0,0	  x0:0x00000000
        7685000	       767	80000aa8	00000013	addi	x0,x0,0	  x0:0x00000000
        7695000	       768	80000aac	00c005ef	jal	x11,80000aac	 x11=0x80000aac
        7705000	       769	00000000	00000013	addi	x0,x0,0	  x0:0x00000000
        7715000	       770	80000ab4	00000013	addi	x0,x0,0	  x0:0x00000000
        7725000	       771	80000ab8	ffdffcef	jal	x25,80000ab8	 x25=0x80000ab8
        7735000	       772	00000000	00000013	addi	x0,x0,0	  x0:0x00000000
        7745000	       773	80000ab0	00000013	addi	x0,x0,0	  x0:0x00000000
        7755000	       774	80000ab4	00c000ef	jal	x1,80000ab4	  x1=0x80000ab4
        7765000	       775	00000000	00000013	addi	x0,x0,0	  x0:0x00000000
        7775000	       776	80000abc	00000013	addi	x0,x0,0	  x0:0x00000000
        7785000	       777	80000ac0	00c000ef	jal	x1,80000ac0	  x1=0x80000ac0
        7795000	       778	00000000	00000013	addi	x0,x0,0	  x0:0x00000000
        7805000	       779	80000ac8	00000013	addi	x0,x0,0	  x0:0x00000000
        7815000	       780	80000acc	0100036f	jal	x6,80000acc	  x6=0x80000acc
        7825000	       781	00000000	00000013	addi	x0,x0,0	  x0:0x00000000
        7835000	       782	80000ad8	00000013	addi	x0,x0,0	  x0:0x00000000
        7845000	       783	80000adc	fe9ff0ef	jal	x1,80000adc	  x1=0x80000adc
        7855000	       784	00000000	00000013	addi	x0,x0,0	  x0:0x00000000
        7865000	       785	80000ac0	00000013	addi	x0,x0,0	  x0:0x00000000
        7875000	       786	80000ac4	fe5ff0ef	jal	x1,80000ac4	  x1=0x80000ac4
        7885000	       787	00000000	00000013	addi	x0,x0,0	  x0:0x00000000
        7895000	       788	80000aa4	00000013	addi	x0,x0,0	  x0:0x00000000
        7905000	       789	80000aa8	038000ef	jal	x1,80000aa8	  x1=0x80000aa8
        7915000	       790	00000000	00000013	addi	x0,x0,0	  x0:0x00000000
        7925000	       791	80000adc	00000013	addi	x0,x0,0	  x0:0x00000000
        7935000	       792	80000ae0	fb9ff1ef	jal	x3,80000ae0	  x3=0x80000ae0
        7945000	       793	00000000	00000013	addi	x0,x0,0	  x0:0x00000000
        7955000	       794	80000a94	00000013	addi	x0,x0,0	  x0:0x00000000
        7965000	       795	80000a98	03800f6f	jal	x30,80000a98	 x30=0x80000a98
        7975000	       796	00000000	00000013	addi	x0,x0,0	  x0:0x00000000
        7985000	       797	80000acc	00000013	addi	x0,x0,0	  x0:0x00000000
        7995000	       798	80000ad0	0080086f	jal	x16,80000ad0	 x16=0x80000ad0
        8005000	       799	00000000	00000013	addi	x0,x0,0	  x0:0x00000000
        8015000	       800	80000ad4	00000013	addi	x0,x0,0	  x0:0x00000000
        8025000	       801	80000ad8	ffdff0ef	jal	x1,80000ad8	  x1=0x80000ad8
        8035000	       802	00000000	00000013	addi	x0,x0,0	  x0:0x00000000
        8045000	       803	80000ad0	00000013	addi	x0,x0,0	  x0:0x00000000
        8055000	       804	80000ad4	ff5ff26f	jal	x4,80000ad4	  x4=0x80000ad4
        8065000	       805	00000000	00000013	addi	x0,x0,0	  x0:0x00000000
        8075000	       806	80000ac4	00000013	addi	x0,x0,0	  x0:0x00000000
        8085000	       807	80000ac8	01c000ef	jal	x1,80000ac8	  x1=0x80000ac8
        8095000	       808	00000000	00000013	addi	x0,x0,0	  x0:0x00000000
        8105000	       809	80000ae0	00000013	addi	x0,x0,0	  x0:0x00000000
        8115000	       810	80000ae4	69857217	auipc	x4,0x69857	  x4=0xe9857ae0
        8125000	       811	80000ae8	034000ef	jal	x1,80000ae8	  x1=0x80000ae8
        8135000	       812	00000000	00000013	addi	x0,x0,0	  x0:0x00000000
        8145000	       813	80000b18	00000013	addi	x0,x0,0	  x0:0x00000000
        8155000	       814	80000b1c	fe5ff0ef	jal	x1,80000b1c	  x1=0x80000b1c
        8165000	       815	00000000	00000013	addi	x0,x0,0	  x0:0x00000000
        8175000	       816	80000afc	00000013	addi	x0,x0,0	  x0:0x00000000
        8185000	       817	80000b00	038000ef	jal	x1,80000b00	  x1=0x80000b00
        8195000	       818	00000000	00000013	addi	x0,x0,0	  x0:0x00000000
        8205000	       819	80000b34	00000013	addi	x0,x0,0	  x0:0x00000000
        8215000	       820	80000b38	ff5ff36f	jal	x6,80000b38	  x6=0x80000b38
        8225000	       821	00000000	00000013	addi	x0,x0,0	  x0:0x00000000
        8235000	       822	80000b28	00000013	addi	x0,x0,0	  x0:0x00000000
        8245000	       823	80000b2c	ffdff36f	jal	x6,80000b2c	  x6=0x80000b2c
        8255000	       824	00000000	00000013	addi	x0,x0,0	  x0:0x00000000
        8265000	       825	80000b24	00000013	addi	x0,x0,0	  x0:0x00000000
        8275000	       826	80000b28	fc5fff6f	jal	x30,80000b28	 x30=0x80000b28
        8285000	       827	00000000	00000013	addi	x0,x0,0	  x0:0x00000000
        8295000	       828	80000ae8	00000013	addi	x0,x0,0	  x0:0x00000000
        8305000	       829	80000aec	01c000ef	jal	x1,80000aec	  x1=0x80000aec
        8315000	       830	00000000	00000013	addi	x0,x0,0	  x0:0x00000000
        8325000	       831	80000b04	00000013	addi	x0,x0,0	  x0:0x00000000
        8335000	       832	80000b08	0340036f	jal	x6,80000b08	  x6=0x80000b08
        8345000	       833	00000000	00000013	addi	x0,x0,0	  x0:0x00000000
        8355000	       834	80000b38	00000013	addi	x0,x0,0	  x0:0x00000000
        8365000	       835	80000b3c	fc9ff0ef	jal	x1,80000b3c	  x1=0x80000b3c
        8375000	       836	00000000	00000013	addi	x0,x0,0	  x0:0x00000000
        8385000	       837	80000b00	00000013	addi	x0,x0,0	  x0:0x00000000
        8395000	       838	80000b04	ff1ff36f	jal	x6,80000b04	  x6=0x80000b04
        8405000	       839	00000000	00000013	addi	x0,x0,0	  x0:0x00000000
        8415000	       840	80000af0	00000013	addi	x0,x0,0	  x0:0x00000000
        8425000	       841	80000af4	03c000ef	jal	x1,80000af4	  x1=0x80000af4
        8435000	       842	00000000	00000013	addi	x0,x0,0	  x0:0x00000000
        8445000	       843	80000b2c	00000013	addi	x0,x0,0	  x0:0x00000000
        8455000	       844	80000b30	fe1ff0ef	jal	x1,80000b30	  x1=0x80000b30
        8465000	       845	00000000	00000013	addi	x0,x0,0	  x0:0x00000000
        8475000	       846	80000b0c	00000013	addi	x0,x0,0	  x0:0x00000000
        8485000	       847	80000b10	fedff0ef	jal	x1,80000b10	  x1=0x80000b10
        8495000	       848	00000000	00000013	addi	x0,x0,0	  x0:0x00000000
        8505000	       849	80000af8	00000013	addi	x0,x0,0	  x0:0x00000000
        8515000	       850	80000afc	0180086f	jal	x16,80000afc	 x16=0x80000afc
        8525000	       851	00000000	00000013	addi	x0,x0,0	  x0:0x00000000
        8535000	       852	80000b10	00000013	addi	x0,x0,0	  x0:0x00000000
        8545000	       853	80000b14	fe5ff2ef	jal	x5,80000b14	  x5=0x80000b14
        8555000	       854	00000000	00000013	addi	x0,x0,0	  x0:0x00000000
        8565000	       855	80000af4	00000013	addi	x0,x0,0	  x0:0x00000000
        8575000	       856	80000af8	02c000ef	jal	x1,80000af8	  x1=0x80000af8
        8585000	       857	00000000	00000013	addi	x0,x0,0	  x0:0x00000000
        8595000	       858	80000b20	00000013	addi	x0,x0,0	  x0:0x00000000
        8605000	       859	80000b24	ffdff0ef	jal	x1,80000b24	  x1=0x80000b24
        8615000	       860	00000000	00000013	addi	x0,x0,0	  x0:0x00000000
        8625000	       861	80000b1c	00000013	addi	x0,x0,0	  x0:0x00000000
        8635000	       862	80000b20	fd1ff36f	jal	x6,80000b20	  x6=0x80000b20
        8645000	       863	00000000	00000013	addi	x0,x0,0	  x0:0x00000000
        8655000	       864	80000aec	00000013	addi	x0,x0,0	  x0:0x00000000
        8665000	       865	80000af0	028000ef	jal	x1,80000af0	  x1=0x80000af0
        8675000	       866	00000000	00000013	addi	x0,x0,0	  x0:0x00000000
        8685000	       867	80000b14	00000013	addi	x0,x0,0	  x0:0x00000000
        8695000	       868	80000b18	01c000ef	jal	x1,80000b18	  x1=0x80000b18
        8705000	       869	00000000	00000013	addi	x0,x0,0	  x0:0x00000000
        8715000	       870	80000b30	00000013	addi	x0,x0,0	  x0:0x00000000
        8725000	       871	80000b34	00c0036f	jal	x6,80000b34	  x6=0x80000b34
        8735000	       872	00000000	00000013	addi	x0,x0,0	  x0:0x00000000
        8745000	       873	80000b3c	00000013	addi	x0,x0,0	  x0:0x00000000
        8755000	       874	80000b40	fcdff7ef	jal	x15,80000b40	 x15=0x80000b40
        8765000	       875	00000000	00000013	addi	x0,x0,0	  x0:0x00000000
        8775000	       876	80000b08	00000013	addi	x0,x0,0	  x0:0x00000000
        8785000	       877	80000b0c	0380036f	jal	x6,80000b0c	  x6=0x80000b0c
        8795000	       878	00000000	00000013	addi	x0,x0,0	  x0:0x00000000
        8805000	       879	80000b40	00000013	addi	x0,x0,0	  x0:0x00000000
        8815000	       880	80000b44	651aad17	auipc	x26,0x651aa	 x26=0xe51aab40
        8825000	       881	80000b48	050000ef	jal	x1,80000b48	  x1=0x80000b48
        8835000	       882	00000000	00000013	addi	x0,x0,0	  x0:0x00000000
        8845000	       883	80000b94	00000013	addi	x0,x0,0	  x0:0x00000000
        8855000	       884	80000b98	fddff66f	jal	x12,80000b98	 x12=0x80000b98
        8865000	       885	00000000	00000013	addi	x0,x0,0	  x0:0x00000000
        8875000	       886	80000b70	00000013	addi	x0,x0,0	  x0:0x00000000
        8885000	       887	80000b74	030000ef	jal	x1,80000b74	  x1=0x80000b74
        8895000	       888	00000000	00000013	addi	x0,x0,0	  x0:0x00000000
        8905000	       889	80000ba0	00000013	addi	x0,x0,0	  x0:0x00000000
        8915000	       890	80000ba4	fadff36f	jal	x6,80000ba4	  x6=0x80000ba4
        8925000	       891	00000000	00000013	addi	x0,x0,0	  x0:0x00000000
        8935000	       892	80000b4c	00000013	addi	x0,x0,0	  x0:0x00000000
        8945000	       893	80000b50	028001ef	jal	x3,80000b50	  x3=0x80000b50
        8955000	       894	00000000	00000013	addi	x0,x0,0	  x0:0x00000000
        8965000	       895	80000b74	00000013	addi	x0,x0,0	  x0:0x00000000
        8975000	       896	80000b78	0240036f	jal	x6,80000b78	  x6=0x80000b78
        8985000	       897	00000000	00000013	addi	x0,x0,0	  x0:0x00000000
        8995000	       898	80000b98	00000013	addi	x0,x0,0	  x0:0x00000000
        9005000	       899	80000b9c	00c000ef	jal	x1,80000b9c	  x1=0x80000b9c
        9015000	       900	00000000	00000013	addi	x0,x0,0	  x0:0x00000000
        9025000	       901	80000ba4	00000013	addi	x0,x0,0	  x0:0x00000000
        9035000	       902	80000ba8	fd9ff0ef	jal	x1,80000ba8	  x1=0x80000ba8
        9045000	       903	00000000	00000013	addi	x0,x0,0	  x0:0x00000000
        9055000	       904	80000b7c	00000013	addi	x0,x0,0	  x0:0x00000000
        9065000	       905	80000b80	004000ef	jal	x1,80000b80	  x1=0x80000b80
        9075000	       906	00000000	00000013	addi	x0,x0,0	  x0:0x00000000
        9085000	       907	80000b80	00000013	addi	x0,x0,0	  x0:0x00000000
        9095000	       908	80000b84	fe1ff0ef	jal	x1,80000b84	  x1=0x80000b84
        9105000	       909	00000000	00000013	addi	x0,x0,0	  x0:0x00000000
        9115000	       910	80000b60	00000013	addi	x0,x0,0	  x0:0x00000000
        9125000	       911	80000b64	ff1ff0ef	jal	x1,80000b64	  x1=0x80000b64
        9135000	       912	00000000	00000013	addi	x0,x0,0	  x0:0x00000000
        9145000	       913	80000b50	00000013	addi	x0,x0,0	  x0:0x00000000
        9155000	       914	80000b54	ff9ff0ef	jal	x1,80000b54	  x1=0x80000b54
        9165000	       915	00000000	00000013	addi	x0,x0,0	  x0:0x00000000
        9175000	       916	80000b48	00000013	addi	x0,x0,0	  x0:0x00000000
        9185000	       917	80000b4c	044000ef	jal	x1,80000b4c	  x1=0x80000b4c
        9195000	       918	00000000	00000013	addi	x0,x0,0	  x0:0x00000000
        9205000	       919	80000b8c	00000013	addi	x0,x0,0	  x0:0x00000000
        9215000	       920	80000b90	fe1ff0ef	jal	x1,80000b90	  x1=0x80000b90
        9225000	       921	00000000	00000013	addi	x0,x0,0	  x0:0x00000000
        9235000	       922	80000b6c	00000013	addi	x0,x0,0	  x0:0x00000000
        9245000	       923	80000b70	018000ef	jal	x1,80000b70	  x1=0x80000b70
        9255000	       924	00000000	00000013	addi	x0,x0,0	  x0:0x00000000
        9265000	       925	80000b84	00000013	addi	x0,x0,0	  x0:0x00000000
        9275000	       926	80000b88	fe5ff0ef	jal	x1,80000b88	  x1=0x80000b88
        9285000	       927	00000000	00000013	addi	x0,x0,0	  x0:0x00000000
        9295000	       928	80000b68	00000013	addi	x0,x0,0	  x0:0x00000000
        9305000	       929	80000b6c	ff1ff36f	jal	x6,80000b6c	  x6=0x80000b6c
        9315000	       930	00000000	00000013	addi	x0,x0,0	  x0:0x00000000
        9325000	       931	80000b58	00000013	addi	x0,x0,0	  x0:0x00000000
        9335000	       932	80000b5c	038000ef	jal	x1,80000b5c	  x1=0x80000b5c
        9345000	       933	00000000	00000013	addi	x0,x0,0	  x0:0x00000000
        9355000	       934	80000b90	00000013	addi	x0,x0,0	  x0:0x00000000
        9365000	       935	80000b94	fcdff0ef	jal	x1,80000b94	  x1=0x80000b94
        9375000	       936	00000000	00000013	addi	x0,x0,0	  x0:0x00000000
        9385000	       937	80000b5c	00000013	addi	x0,x0,0	  x0:0x00000000
        9395000	       938	80000b60	01c0016f	jal	x2,80000b60	  x2=0x80000b60
        9405000	       939	00000000	00000013	addi	x0,x0,0	  x0:0x00000000
        9415000	       940	80000b78	00000013	addi	x0,x0,0	  x0:0x00000000
        9425000	       941	80000b7c	fddff0ef	jal	x1,80000b7c	  x1=0x80000b7c
        9435000	       942	00000000	00000013	addi	x0,x0,0	  x0:0x00000000
        9445000	       943	80000b54	00000013	addi	x0,x0,0	  x0:0x00000000
        9455000	       944	80000b58	048000ef	jal	x1,80000b58	  x1=0x80000b58
        9465000	       945	00000000	00000013	addi	x0,x0,0	  x0:0x00000000
        9475000	       946	80000b9c	00000013	addi	x0,x0,0	  x0:0x00000000
        9485000	       947	80000ba0	fedff0ef	jal	x1,80000ba0	  x1=0x80000ba0
        9495000	       948	00000000	00000013	addi	x0,x0,0	  x0:0x00000000
        9505000	       949	80000b88	00000013	addi	x0,x0,0	  x0:0x00000000
        9515000	       950	80000b8c	fddffcef	jal	x25,80000b8c	 x25=0x80000b8c
        9525000	       951	00000000	00000013	addi	x0,x0,0	  x0:0x00000000
        9535000	       952	80000b64	00000013	addi	x0,x0,0	  x0:0x00000000
        9545000	       953	80000b68	044007ef	jal	x15,80000b68	 x15=0x80000b68
        9555000	       954	00000000	00000013	addi	x0,x0,0	  x0:0x00000000
        9565000	       955	80000ba8	00000013	addi	x0,x0,0	  x0:0x00000000
        9575000	       956	80000bac	e1033f13	sltiu	x30,x6,-496	  x6:0x80000b6c x30=0x00000001
        9585000	       957	80000bb0	020000ef	jal	x1,80000bb0	  x1=0x80000bb0
        9595000	       958	00000000	00000013	addi	x0,x0,0	  x0:0x00000000
        9605000	       959	80000bcc	00000013	addi	x0,x0,0	  x0:0x00000000
        9615000	       960	80000bd0	fe5ff26f	jal	x4,80000bd0	  x4=0x80000bd0
        9625000	       961	00000000	00000013	addi	x0,x0,0	  x0:0x00000000
        9635000	       962	80000bb0	00000013	addi	x0,x0,0	  x0:0x00000000
        9645000	       963	80000bb4	06400c6f	jal	x24,80000bb4	 x24=0x80000bb4
        9655000	       964	00000000	00000013	addi	x0,x0,0	  x0:0x00000000
        9665000	       965	80000c14	00000013	addi	x0,x0,0	  x0:0x00000000
        9675000	       966	80000c18	fd1ff36f	jal	x6,80000c18	  x6=0x80000c18
        9685000	       967	00000000	00000013	addi	x0,x0,0	  x0:0x00000000
        9695000	       968	80000be4	00000013	addi	x0,x0,0	  x0:0x00000000
        9705000	       969	80000be8	0180016f	jal	x2,80000be8	  x2=0x80000be8
        9715000	       970	00000000	00000013	addi	x0,x0,0	  x0:0x00000000
        9725000	       971	80000bfc	00000013	addi	x0,x0,0	  x0:0x00000000
        9735000	       972	80000c00	fbdff36f	jal	x6,80000c00	  x6=0x80000c00
        9745000	       973	00000000	00000013	addi	x0,x0,0	  x0:0x00000000
        9755000	       974	80000bb8	00000013	addi	x0,x0,0	  x0:0x00000000
        9765000	       975	80000bbc	0200036f	jal	x6,80000bbc	  x6=0x80000bbc
        9775000	       976	00000000	00000013	addi	x0,x0,0	  x0:0x00000000
        9785000	       977	80000bd8	00000013	addi	x0,x0,0	  x0:0x00000000
        9795000	       978	80000bdc	ffdff0ef	jal	x1,80000bdc	  x1=0x80000bdc
        9805000	       979	00000000	00000013	addi	x0,x0,0	  x0:0x00000000
        9815000	       980	80000bd4	00000013	addi	x0,x0,0	  x0:0x00000000
        9825000	       981	80000bd8	014000ef	jal	x1,80000bd8	  x1=0x80000bd8
        9835000	       982	00000000	00000013	addi	x0,x0,0	  x0:0x00000000
        9845000	       983	80000be8	00000013	addi	x0,x0,0	  x0:0x00000000
        9855000	       984	80000bec	030000ef	jal	x1,80000bec	  x1=0x80000bec
        9865000	       985	00000000	00000013	addi	x0,x0,0	  x0:0x00000000
        9875000	       986	80000c18	00000013	addi	x0,x0,0	  x0:0x00000000
        9885000	       987	80000c1c	fa9ff0ef	jal	x1,80000c1c	  x1=0x80000c1c
        9895000	       988	00000000	00000013	addi	x0,x0,0	  x0:0x00000000
        9905000	       989	80000bc0	00000013	addi	x0,x0,0	  x0:0x00000000
        9915000	       990	80000bc4	008000ef	jal	x1,80000bc4	  x1=0x80000bc4
        9925000	       991	00000000	00000013	addi	x0,x0,0	  x0:0x00000000
        9935000	       992	80000bc8	00000013	addi	x0,x0,0	  x0:0x00000000
        9945000	       993	80000bcc	008000ef	jal	x1,80000bcc	  x1=0x80000bcc
        9955000	       994	00000000	00000013	addi	x0,x0,0	  x0:0x00000000
        9965000	       995	80000bd0	00000013	addi	x0,x0,0	  x0:0x00000000
        9975000	       996	80000bd4	ff5ff36f	jal	x6,80000bd4	  x6=0x80000bd4
        9985000	       997	00000000	00000013	addi	x0,x0,0	  x0:0x00000000
        9995000	       998	80000bc4	00000013	addi	x0,x0,0	  x0:0x00000000
       10005000	       999	80000bc8	030000ef	jal	x1,80000bc8	  x1=0x80000bc8
       10015000	      1000	00000000	00000013	addi	x0,x0,0	  x0:0x00000000
       10025000	      1001	80000bf4	00000013	addi	x0,x0,0	  x0:0x00000000
       10035000	      1002	80000bf8	fe9ff0ef	jal	x1,80000bf8	  x1=0x80000bf8
       10045000	      1003	00000000	00000013	addi	x0,x0,0	  x0:0x00000000
       10055000	      1004	80000bdc	00000013	addi	x0,x0,0	  x0:0x00000000
       10065000	      1005	80000be0	044007ef	jal	x15,80000be0	 x15=0x80000be0
       10075000	      1006	00000000	00000013	addi	x0,x0,0	  x0:0x00000000
       10085000	      1007	80000c20	00000013	addi	x0,x0,0	  x0:0x00000000
       10095000	      1008	80000c24	f95ff36f	jal	x6,80000c24	  x6=0x80000c24
       10105000	      1009	00000000	00000013	addi	x0,x0,0	  x0:0x00000000
       10115000	      1010	80000bb4	00000013	addi	x0,x0,0	  x0:0x00000000
       10125000	      1011	80000bb8	050000ef	jal	x1,80000bb8	  x1=0x80000bb8
       10135000	      1012	00000000	00000013	addi	x0,x0,0	  x0:0x00000000
       10145000	      1013	80000c04	00000013	addi	x0,x0,0	  x0:0x00000000
       10155000	      1014	80000c08	008000ef	jal	x1,80000c08	  x1=0x80000c08
       10165000	      1015	00000000	00000013	addi	x0,x0,0	  x0:0x00000000
       10175000	      1016	80000c0c	00000013	addi	x0,x0,0	  x0:0x00000000
       10185000	      1017	80000c10	ff5ffe6f	jal	x28,80000c10	 x28=0x80000c10
       10195000	      1018	00000000	00000013	addi	x0,x0,0	  x0:0x00000000
       10205000	      1019	80000c00	00000013	addi	x0,x0,0	  x0:0x00000000
       10215000	      1020	80000c04	fbdffb6f	jal	x22,80000c04	 x22=0x80000c04
       10225000	      1021	00000000	00000013	addi	x0,x0,0	  x0:0x00000000
       10235000	      1022	80000bbc	00000013	addi	x0,x0,0	  x0:0x00000000
       10245000	      1023	80000bc0	03c000ef	jal	x1,80000bc0	  x1=0x80000bc0
       10255000	      1024	00000000	00000013	addi	x0,x0,0	  x0:0x00000000
       10265000	      1025	80000bf8	00000013	addi	x0,x0,0	  x0:0x00000000
       10275000	      1026	80000bfc	ff9ff0ef	jal	x1,80000bfc	  x1=0x80000bfc
       10285000	      1027	00000000	00000013	addi	x0,x0,0	  x0:0x00000000
       10295000	      1028	80000bf0	00000013	addi	x0,x0,0	  x0:0x00000000
       10305000	      1029	80000bf4	ff1ffe6f	jal	x28,80000bf4	 x28=0x80000bf4
       10315000	      1030	00000000	00000013	addi	x0,x0,0	  x0:0x00000000
       10325000	      1031	80000be0	00000013	addi	x0,x0,0	  x0:0x00000000
       10335000	      1032	80000be4	030000ef	jal	x1,80000be4	  x1=0x80000be4
       10345000	      1033	00000000	00000013	addi	x0,x0,0	  x0:0x00000000
       10355000	      1034	80000c10	00000013	addi	x0,x0,0	  x0:0x00000000
       10365000	      1035	80000c14	00c0036f	jal	x6,80000c14	  x6=0x80000c14
       10375000	      1036	00000000	00000013	addi	x0,x0,0	  x0:0x00000000
       10385000	      1037	80000c1c	00000013	addi	x0,x0,0	  x0:0x00000000
       10395000	      1038	80000c20	fd1ff6ef	jal	x13,80000c20	 x13=0x80000c20
       10405000	      1039	00000000	00000013	addi	x0,x0,0	  x0:0x00000000
       10415000	      1040	80000bec	00000013	addi	x0,x0,0	  x0:0x00000000
       10425000	      1041	80000bf0	01c000ef	jal	x1,80000bf0	  x1=0x80000bf0
       10435000	      1042	00000000	00000013	addi	x0,x0,0	  x0:0x00000000
       10445000	      1043	80000c08	00000013	addi	x0,x0,0	  x0:0x00000000
       10455000	      1044	80000c0c	01c0036f	jal	x6,80000c0c	  x6=0x80000c0c
       10465000	      1045	00000000	00000013	addi	x0,x0,0	  x0:0x00000000
       10475000	      1046	80000c24	00000013	addi	x0,x0,0	  x0:0x00000000
       10485000	      1047	80000c28	413109b3	sub	x19,x2,x19	  x2:0x80000be8 x19:0x80000a8c x19=0x0000015c
       10495000	      1048	80000c2c	044000ef	jal	x1,80000c2c	  x1=0x80000c2c
       10505000	      1049	00000000	00000013	addi	x0,x0,0	  x0:0x00000000
       10515000	      1050	80000c6c	00000013	addi	x0,x0,0	  x0:0x00000000
       10525000	      1051	80000c70	008000ef	jal	x1,80000c70	  x1=0x80000c70
       10535000	      1052	00000000	00000013	addi	x0,x0,0	  x0:0x00000000
       10545000	      1053	80000c74	00000013	addi	x0,x0,0	  x0:0x00000000
       10555000	      1054	80000c78	00c000ef	jal	x1,80000c78	  x1=0x80000c78
       10565000	      1055	00000000	00000013	addi	x0,x0,0	  x0:0x00000000
       10575000	      1056	80000c80	00000013	addi	x0,x0,0	  x0:0x00000000
       10585000	      1057	80000c84	fbdff1ef	jal	x3,80000c84	  x3=0x80000c84
       10595000	      1058	00000000	00000013	addi	x0,x0,0	  x0:0x00000000
       10605000	      1059	80000c3c	00000013	addi	x0,x0,0	  x0:0x00000000
       10615000	      1060	80000c40	034000ef	jal	x1,80000c40	  x1=0x80000c40
       10625000	      1061	00000000	00000013	addi	x0,x0,0	  x0:0x00000000
       10635000	      1062	80000c70	00000013	addi	x0,x0,0	  x0:0x00000000
       10645000	      1063	80000c74	fc5ff0ef	jal	x1,80000c74	  x1=0x80000c74
       10655000	      1064	00000000	00000013	addi	x0,x0,0	  x0:0x00000000
       10665000	      1065	80000c34	00000013	addi	x0,x0,0	  x0:0x00000000
       10675000	      1066	80000c38	02c003ef	jal	x7,80000c38	  x7=0x80000c38
       10685000	      1067	00000000	00000013	addi	x0,x0,0	  x0:0x00000000
       10695000	      1068	80000c60	00000013	addi	x0,x0,0	  x0:0x00000000
       10705000	      1069	80000c64	ffdffd6f	jal	x26,80000c64	 x26=0x80000c64
       10715000	      1070	00000000	00000013	addi	x0,x0,0	  x0:0x00000000
       10725000	      1071	80000c5c	00000013	addi	x0,x0,0	  x0:0x00000000
       10735000	      1072	80000c60	fe9ff36f	jal	x6,80000c60	  x6=0x80000c60
       10745000	      1073	00000000	00000013	addi	x0,x0,0	  x0:0x00000000
       10755000	      1074	80000c44	00000013	addi	x0,x0,0	  x0:0x00000000
       10765000	      1075	80000c48	038000ef	jal	x1,80000c48	  x1=0x80000c48
       10775000	      1076	00000000	00000013	addi	x0,x0,0	  x0:0x00000000
       10785000	      1077	80000c7c	00000013	addi	x0,x0,0	  x0:0x00000000
       10795000	      1078	80000c80	fb1ff2ef	jal	x5,80000c80	  x5=0x80000c80
       10805000	      1079	00000000	00000013	addi	x0,x0,0	  x0:0x00000000
       10815000	      1080	80000c2c	00000013	addi	x0,x0,0	  x0:0x00000000
       10825000	      1081	80000c30	004000ef	jal	x1,80000c30	  x1=0x80000c30
       10835000	      1082	00000000	00000013	addi	x0,x0,0	  x0:0x00000000
       10845000	      1083	80000c30	00000013	addi	x0,x0,0	  x0:0x00000000
       10855000	      1084	80000c34	038000ef	jal	x1,80000c34	  x1=0x80000c34
       10865000	      1085	00000000	00000013	addi	x0,x0,0	  x0:0x00000000
       10875000	      1086	80000c68	00000013	addi	x0,x0,0	  x0:0x00000000
       10885000	      1087	80000c6c	028000ef	jal	x1,80000c6c	  x1=0x80000c6c
       10895000	      1088	00000000	00000013	addi	x0,x0,0	  x0:0x00000000
       10905000	      1089	80000c90	00000013	addi	x0,x0,0	  x0:0x00000000
       10915000	      1090	80000c94	fc1ff0ef	jal	x1,80000c94	  x1=0x80000c94
       10925000	      1091	00000000	00000013	addi	x0,x0,0	  x0:0x00000000
       10935000	      1092	80000c50	00000013	addi	x0,x0,0	  x0:0x00000000
       10945000	      1093	80000c54	ff1ff36f	jal	x6,80000c54	  x6=0x80000c54
       10955000	      1094	00000000	00000013	addi	x0,x0,0	  x0:0x00000000
       10965000	      1095	80000c40	00000013	addi	x0,x0,0	  x0:0x00000000
       10975000	      1096	80000c44	ff9ff26f	jal	x4,80000c44	  x4=0x80000c44
       10985000	      1097	00000000	00000013	addi	x0,x0,0	  x0:0x00000000
       10995000	      1098	80000c38	00000013	addi	x0,x0,0	  x0:0x00000000
       11005000	      1099	80000c3c	04c000ef	jal	x1,80000c3c	  x1=0x80000c3c
       11015000	      1100	00000000	00000013	addi	x0,x0,0	  x0:0x00000000
       11025000	      1101	80000c84	00000013	addi	x0,x0,0	  x0:0x00000000
       11035000	      1102	80000c88	004000ef	jal	x1,80000c88	  x1=0x80000c88
       11045000	      1103	00000000	00000013	addi	x0,x0,0	  x0:0x00000000
       11055000	      1104	80000c88	00000013	addi	x0,x0,0	  x0:0x00000000
       11065000	      1105	80000c8c	fd1ff0ef	jal	x1,80000c8c	  x1=0x80000c8c
       11075000	      1106	00000000	00000013	addi	x0,x0,0	  x0:0x00000000
       11085000	      1107	80000c58	00000013	addi	x0,x0,0	  x0:0x00000000
       11095000	      1108	80000c5c	ff1ff0ef	jal	x1,80000c5c	  x1=0x80000c5c
       11105000	      1109	00000000	00000013	addi	x0,x0,0	  x0:0x00000000
       11115000	      1110	80000c48	00000013	addi	x0,x0,0	  x0:0x00000000
       11125000	      1111	80000c4c	030003ef	jal	x7,80000c4c	  x7=0x80000c4c
       11135000	      1112	00000000	00000013	addi	x0,x0,0	  x0:0x00000000
       11145000	      1113	80000c78	00000013	addi	x0,x0,0	  x0:0x00000000
       11155000	      1114	80000c7c	fddff36f	jal	x6,80000c7c	  x6=0x80000c7c
       11165000	      1115	00000000	00000013	addi	x0,x0,0	  x0:0x00000000
       11175000	      1116	80000c54	00000013	addi	x0,x0,0	  x0:0x00000000
       11185000	      1117	80000c58	010000ef	jal	x1,80000c58	  x1=0x80000c58
       11195000	      1118	00000000	00000013	addi	x0,x0,0	  x0:0x00000000
       11205000	      1119	80000c64	00000013	addi	x0,x0,0	  x0:0x00000000
       11215000	      1120	80000c68	fe9ff16f	jal	x2,80000c68	  x2=0x80000c68
       11225000	      1121	00000000	00000013	addi	x0,x0,0	  x0:0x00000000
       11235000	      1122	80000c4c	00000013	addi	x0,x0,0	  x0:0x00000000
       11245000	      1123	80000c50	040000ef	jal	x1,80000c50	  x1=0x80000c50
       11255000	      1124	00000000	00000013	addi	x0,x0,0	  x0:0x00000000
       11265000	      1125	80000c8c	00000013	addi	x0,x0,0	  x0:0x00000000
       11275000	      1126	80000c90	008003ef	jal	x7,80000c90	  x7=0x80000c90
       11285000	      1127	00000000	00000013	addi	x0,x0,0	  x0:0x00000000
       11295000	      1128	80000c94	00000013	addi	x0,x0,0	  x0:0x00000000
       11305000	      1129	80000c98	00dbde93	srli	x29,x23,0xd	 x23:0x80009f64 x29=0x00040004
       11315000	      1130	80000c9c	050000ef	jal	x1,80000c9c	  x1=0x80000c9c
       11325000	      1131	00000000	00000013	addi	x0,x0,0	  x0:0x00000000
       11335000	      1132	80000ce8	00000013	addi	x0,x0,0	  x0:0x00000000
       11345000	      1133	80000cec	00800f6f	jal	x30,80000cec	 x30=0x80000cec
       11355000	      1134	00000000	00000013	addi	x0,x0,0	  x0:0x00000000
       11365000	      1135	80000cf0	00000013	addi	x0,x0,0	  x0:0x00000000
       11375000	      1136	80000cf4	ffdff36f	jal	x6,80000cf4	  x6=0x80000cf4
       11385000	      1137	00000000	00000013	addi	x0,x0,0	  x0:0x00000000
       11395000	      1138	80000cec	00000013	addi	x0,x0,0	  x0:0x00000000
       11405000	      1139	80000cf0	01000eef	jal	x29,80000cf0	 x29=0x80000cf0
       11415000	      1140	00000000	00000013	addi	x0,x0,0	  x0:0x00000000
       11425000	      1141	80000cfc	00000013	addi	x0,x0,0	  x0:0x00000000
       11435000	      1142	80000d00	fd5ff1ef	jal	x3,80000d00	  x3=0x80000d00
       11445000	      1143	00000000	00000013	addi	x0,x0,0	  x0:0x00000000
       11455000	      1144	80000cd0	00000013	addi	x0,x0,0	  x0:0x00000000
       11465000	      1145	80000cd4	00c000ef	jal	x1,80000cd4	  x1=0x80000cd4
       11475000	      1146	00000000	00000013	addi	x0,x0,0	  x0:0x00000000
       11485000	      1147	80000cdc	00000013	addi	x0,x0,0	  x0:0x00000000
       11495000	      1148	80000ce0	ff9fffef	jal	x31,80000ce0	 x31=0x80000ce0
       11505000	      1149	00000000	00000013	addi	x0,x0,0	  x0:0x00000000
       11515000	      1150	80000cd4	00000013	addi	x0,x0,0	  x0:0x00000000
       11525000	      1151	80000cd8	02c000ef	jal	x1,80000cd8	  x1=0x80000cd8
       11535000	      1152	00000000	00000013	addi	x0,x0,0	  x0:0x00000000
       11545000	      1153	80000d00	00000013	addi	x0,x0,0	  x0:0x00000000
       11555000	      1154	80000d04	fe1ff0ef	jal	x1,80000d04	  x1=0x80000d04
       11565000	      1155	00000000	00000013	addi	x0,x0,0	  x0:0x00000000
       11575000	      1156	80000ce0	00000013	addi	x0,x0,0	  x0:0x00000000
       11585000	      1157	80000ce4	fd9ff36f	jal	x6,80000ce4	  x6=0x80000ce4
       11595000	      1158	00000000	00000013	addi	x0,x0,0	  x0:0x00000000
       11605000	      1159	80000cb8	00000013	addi	x0,x0,0	  x0:0x00000000
       11615000	      1160	80000cbc	040000ef	jal	x1,80000cbc	  x1=0x80000cbc
       11625000	      1161	00000000	00000013	addi	x0,x0,0	  x0:0x00000000
       11635000	      1162	80000cf8	00000013	addi	x0,x0,0	  x0:0x00000000
       11645000	      1163	80000cfc	fbdfffef	jal	x31,80000cfc	 x31=0x80000cfc
       11655000	      1164	00000000	00000013	addi	x0,x0,0	  x0:0x00000000
       11665000	      1165	80000cb4	00000013	addi	x0,x0,0	  x0:0x00000000
       11675000	      1166	80000cb8	fe9ff0ef	jal	x1,80000cb8	  x1=0x80000cb8
       11685000	      1167	00000000	00000013	addi	x0,x0,0	  x0:0x00000000
       11695000	      1168	80000c9c	00000013	addi	x0,x0,0	  x0:0x00000000
       11705000	      1169	80000ca0	0200036f	jal	x6,80000ca0	  x6=0x80000ca0
       11715000	      1170	00000000	00000013	addi	x0,x0,0	  x0:0x00000000
       11725000	      1171	80000cbc	00000013	addi	x0,x0,0	  x0:0x00000000
       11735000	      1172	80000cc0	008000ef	jal	x1,80000cc0	  x1=0x80000cc0
       11745000	      1173	00000000	00000013	addi	x0,x0,0	  x0:0x00000000
       11755000	      1174	80000cc4	00000013	addi	x0,x0,0	  x0:0x00000000
       11765000	      1175	80000cc8	020000ef	jal	x1,80000cc8	  x1=0x80000cc8
       11775000	      1176	00000000	00000013	addi	x0,x0,0	  x0:0x00000000
       11785000	      1177	80000ce4	00000013	addi	x0,x0,0	  x0:0x00000000
       11795000	      1178	80000ce8	ff5ff46f	jal	x8,80000ce8	  x8=0x80000ce8
       11805000	      1179	00000000	00000013	addi	x0,x0,0	  x0:0x00000000
       11815000	      1180	80000cd8	00000013	addi	x0,x0,0	  x0:0x00000000
       11825000	      1181	80000cdc	ff5ff0ef	jal	x1,80000cdc	  x1=0x80000cdc
       11835000	      1182	00000000	00000013	addi	x0,x0,0	  x0:0x00000000
       11845000	      1183	80000ccc	00000013	addi	x0,x0,0	  x0:0x00000000
       11855000	      1184	80000cd0	ffdff0ef	jal	x1,80000cd0	  x1=0x80000cd0
       11865000	      1185	00000000	00000013	addi	x0,x0,0	  x0:0x00000000
       11875000	      1186	80000cc8	00000013	addi	x0,x0,0	  x0:0x00000000
       11885000	      1187	80000ccc	ff9ff0ef	jal	x1,80000ccc	  x1=0x80000ccc
       11895000	      1188	00000000	00000013	addi	x0,x0,0	  x0:0x00000000
       11905000	      1189	80000cc0	00000013	addi	x0,x0,0	  x0:0x00000000
       11915000	      1190	80000cc4	034000ef	jal	x1,80000cc4	  x1=0x80000cc4
       11925000	      1191	00000000	00000013	addi	x0,x0,0	  x0:0x00000000
       11935000	      1192	80000cf4	00000013	addi	x0,x0,0	  x0:0x00000000
       11945000	      1193	80000cf8	fb1ff36f	jal	x6,80000cf8	  x6=0x80000cf8
       11955000	      1194	00000000	00000013	addi	x0,x0,0	  x0:0x00000000
       11965000	      1195	80000ca4	00000013	addi	x0,x0,0	  x0:0x00000000
       11975000	      1196	80000ca8	00800aef	jal	x21,80000ca8	 x21=0x80000ca8
       11985000	      1197	00000000	00000013	addi	x0,x0,0	  x0:0x00000000
       11995000	      1198	80000cac	00000013	addi	x0,x0,0	  x0:0x00000000
       12005000	      1199	80000cb0	ff5ff0ef	jal	x1,80000cb0	  x1=0x80000cb0
       12015000	      1200	00000000	00000013	addi	x0,x0,0	  x0:0x00000000
       12025000	      1201	80000ca0	00000013	addi	x0,x0,0	  x0:0x00000000
       12035000	      1202	80000ca4	01000fef	jal	x31,80000ca4	 x31=0x80000ca4
       12045000	      1203	00000000	00000013	addi	x0,x0,0	  x0:0x00000000
       12055000	      1204	80000cb0	00000013	addi	x0,x0,0	  x0:0x00000000
       12065000	      1205	80000cb4	ff9ff0ef	jal	x1,80000cb4	  x1=0x80000cb4
       12075000	      1206	00000000	00000013	addi	x0,x0,0	  x0:0x00000000
       12085000	      1207	80000ca8	00000013	addi	x0,x0,0	  x0:0x00000000
       12095000	      1208	80000cac	05c000ef	jal	x1,80000cac	  x1=0x80000cac
       12105000	      1209	00000000	00000013	addi	x0,x0,0	  x0:0x00000000
       12115000	      1210	80000d04	00000013	addi	x0,x0,0	  x0:0x00000000
       12125000	      1211	80000d08	7233f293	andi	x5,x7,1827	  x7:0x80000c90  x5=0x00000400
       12135000	      1212	80000d0c	010000ef	jal	x1,80000d0c	  x1=0x80000d0c
       12145000	      1213	00000000	00000013	addi	x0,x0,0	  x0:0x00000000
       12155000	      1214	80000d18	00000013	addi	x0,x0,0	  x0:0x00000000
       12165000	      1215	80000d1c	04c000ef	jal	x1,80000d1c	  x1=0x80000d1c
       12175000	      1216	00000000	00000013	addi	x0,x0,0	  x0:0x00000000
       12185000	      1217	80000d64	00000013	addi	x0,x0,0	  x0:0x00000000
       12195000	      1218	80000d68	ff5ff36f	jal	x6,80000d68	  x6=0x80000d68
       12205000	      1219	00000000	00000013	addi	x0,x0,0	  x0:0x00000000
       12215000	      1220	80000d58	00000013	addi	x0,x0,0	  x0:0x00000000
       12225000	      1221	80000d5c	fd5ff56f	jal	x10,80000d5c	 x10=0x80000d5c
       12235000	      1222	00000000	00000013	addi	x0,x0,0	  x0:0x00000000
       12245000	      1223	80000d2c	00000013	addi	x0,x0,0	  x0:0x00000000
       12255000	      1224	80000d30	ff9ff0ef	jal	x1,80000d30	  x1=0x80000d30
       12265000	      1225	00000000	00000013	addi	x0,x0,0	  x0:0x00000000
       12275000	      1226	80000d24	00000013	addi	x0,x0,0	  x0:0x00000000
       12285000	      1227	80000d28	010007ef	jal	x15,80000d28	 x15=0x80000d28
       12295000	      1228	00000000	00000013	addi	x0,x0,0	  x0:0x00000000
       12305000	      1229	80000d34	00000013	addi	x0,x0,0	  x0:0x00000000
       12315000	      1230	80000d38	fe9ffe6f	jal	x28,80000d38	 x28=0x80000d38
       12325000	      1231	00000000	00000013	addi	x0,x0,0	  x0:0x00000000
       12335000	      1232	80000d1c	00000013	addi	x0,x0,0	  x0:0x00000000
       12345000	      1233	80000d20	01c000ef	jal	x1,80000d20	  x1=0x80000d20
       12355000	      1234	00000000	00000013	addi	x0,x0,0	  x0:0x00000000
       12365000	      1235	80000d38	00000013	addi	x0,x0,0	  x0:0x00000000
       12375000	      1236	80000d3c	038000ef	jal	x1,80000d3c	  x1=0x80000d3c
       12385000	      1237	00000000	00000013	addi	x0,x0,0	  x0:0x00000000
       12395000	      1238	80000d70	00000013	addi	x0,x0,0	  x0:0x00000000
       12405000	      1239	80000d74	ff9ff26f	jal	x4,80000d74	  x4=0x80000d74
       12415000	      1240	00000000	00000013	addi	x0,x0,0	  x0:0x00000000
       12425000	      1241	80000d68	00000013	addi	x0,x0,0	  x0:0x00000000
       12435000	      1242	80000d6c	ff9ff0ef	jal	x1,80000d6c	  x1=0x80000d6c
       12445000	      1243	00000000	00000013	addi	x0,x0,0	  x0:0x00000000
       12455000	      1244	80000d60	00000013	addi	x0,x0,0	  x0:0x00000000
       12465000	      1245	80000d64	00c000ef	jal	x1,80000d64	  x1=0x80000d64
       12475000	      1246	00000000	00000013	addi	x0,x0,0	  x0:0x00000000
       12485000	      1247	80000d6c	00000013	addi	x0,x0,0	  x0:0x00000000
       12495000	      1248	80000d70	fe9ff0ef	jal	x1,80000d70	  x1=0x80000d70
       12505000	      1249	00000000	00000013	addi	x0,x0,0	  x0:0x00000000
       12515000	      1250	80000d54	00000013	addi	x0,x0,0	  x0:0x00000000
       12525000	      1251	80000d58	fbdff36f	jal	x6,80000d58	  x6=0x80000d58
       12535000	      1252	00000000	00000013	addi	x0,x0,0	  x0:0x00000000
       12545000	      1253	80000d10	00000013	addi	x0,x0,0	  x0:0x00000000
       12555000	      1254	80000d14	040000ef	jal	x1,80000d14	  x1=0x80000d14
       12565000	      1255	00000000	00000013	addi	x0,x0,0	  x0:0x00000000
       12575000	      1256	80000d50	00000013	addi	x0,x0,0	  x0:0x00000000
       12585000	      1257	80000d54	ffdff1ef	jal	x3,80000d54	  x3=0x80000d54
       12595000	      1258	00000000	00000013	addi	x0,x0,0	  x0:0x00000000
       12605000	      1259	80000d4c	00000013	addi	x0,x0,0	  x0:0x00000000
       12615000	      1260	80000d50	fd5ff0ef	jal	x1,80000d50	  x1=0x80000d50
       12625000	      1261	00000000	00000013	addi	x0,x0,0	  x0:0x00000000
       12635000	      1262	80000d20	00000013	addi	x0,x0,0	  x0:0x00000000
       12645000	      1263	80000d24	fedff0ef	jal	x1,80000d24	  x1=0x80000d24
       12655000	      1264	00000000	00000013	addi	x0,x0,0	  x0:0x00000000
       12665000	      1265	80000d0c	00000013	addi	x0,x0,0	  x0:0x00000000
       12675000	      1266	80000d10	050000ef	jal	x1,80000d10	  x1=0x80000d10
       12685000	      1267	00000000	00000013	addi	x0,x0,0	  x0:0x00000000
       12695000	      1268	80000d5c	00000013	addi	x0,x0,0	  x0:0x00000000
       12705000	      1269	80000d60	fcdff0ef	jal	x1,80000d60	  x1=0x80000d60
       12715000	      1270	00000000	00000013	addi	x0,x0,0	  x0:0x00000000
       12725000	      1271	80000d28	00000013	addi	x0,x0,0	  x0:0x00000000
       12735000	      1272	80000d2c	020000ef	jal	x1,80000d2c	  x1=0x80000d2c
       12745000	      1273	00000000	00000013	addi	x0,x0,0	  x0:0x00000000
       12755000	      1274	80000d48	00000013	addi	x0,x0,0	  x0:0x00000000
       12765000	      1275	80000d4c	fcdfffef	jal	x31,80000d4c	 x31=0x80000d4c
       12775000	      1276	00000000	00000013	addi	x0,x0,0	  x0:0x00000000
       12785000	      1277	80000d14	00000013	addi	x0,x0,0	  x0:0x00000000
       12795000	      1278	80000d18	01c0036f	jal	x6,80000d18	  x6=0x80000d18
       12805000	      1279	00000000	00000013	addi	x0,x0,0	  x0:0x00000000
       12815000	      1280	80000d30	00000013	addi	x0,x0,0	  x0:0x00000000
       12825000	      1281	80000d34	014000ef	jal	x1,80000d34	  x1=0x80000d34
       12835000	      1282	00000000	00000013	addi	x0,x0,0	  x0:0x00000000
       12845000	      1283	80000d44	00000013	addi	x0,x0,0	  x0:0x00000000
       12855000	      1284	80000d48	ff9ff0ef	jal	x1,80000d48	  x1=0x80000d48
       12865000	      1285	00000000	00000013	addi	x0,x0,0	  x0:0x00000000
       12875000	      1286	80000d3c	00000013	addi	x0,x0,0	  x0:0x00000000
       12885000	      1287	80000d40	0040036f	jal	x6,80000d40	  x6=0x80000d40
       12895000	      1288	00000000	00000013	addi	x0,x0,0	  x0:0x00000000
       12905000	      1289	80000d40	00000013	addi	x0,x0,0	  x0:0x00000000
       12915000	      1290	80000d44	034000ef	jal	x1,80000d44	  x1=0x80000d44
       12925000	      1291	00000000	00000013	addi	x0,x0,0	  x0:0x00000000
       12935000	      1292	80000d74	00000013	addi	x0,x0,0	  x0:0x00000000
       12945000	      1293	80000d78	f9dec513	xori	x10,x29,-99	 x29:0x80000cf0 x10=0x7ffff36d
       12955000	      1294	80000d7c	030000ef	jal	x1,80000d7c	  x1=0x80000d7c
       12965000	      1295	00000000	00000013	addi	x0,x0,0	  x0:0x00000000
       12975000	      1296	80000da8	00000013	addi	x0,x0,0	  x0:0x00000000
       12985000	      1297	80000dac	008000ef	jal	x1,80000dac	  x1=0x80000dac
       12995000	      1298	00000000	00000013	addi	x0,x0,0	  x0:0x00000000
       13005000	      1299	80000db0	00000013	addi	x0,x0,0	  x0:0x00000000
       13015000	      1300	80000db4	01000def	jal	x27,80000db4	 x27=0x80000db4
       13025000	      1301	00000000	00000013	addi	x0,x0,0	  x0:0x00000000
       13035000	      1302	80000dc0	00000013	addi	x0,x0,0	  x0:0x00000000
       13045000	      1303	80000dc4	014000ef	jal	x1,80000dc4	  x1=0x80000dc4
       13055000	      1304	00000000	00000013	addi	x0,x0,0	  x0:0x00000000
       13065000	      1305	80000dd4	00000013	addi	x0,x0,0	  x0:0x00000000
       13075000	      1306	80000dd8	fadfff6f	jal	x30,80000dd8	 x30=0x80000dd8
       13085000	      1307	00000000	00000013	addi	x0,x0,0	  x0:0x00000000
       13095000	      1308	80000d80	00000013	addi	x0,x0,0	  x0:0x00000000
       13105000	      1309	80000d84	068000ef	jal	x1,80000d84	  x1=0x80000d84
       13115000	      1310	00000000	00000013	addi	x0,x0,0	  x0:0x00000000
       13125000	      1311	80000de8	00000013	addi	x0,x0,0	  x0:0x00000000
       13135000	      1312	80000dec	fb5ff0ef	jal	x1,80000dec	  x1=0x80000dec
       13145000	      1313	00000000	00000013	addi	x0,x0,0	  x0:0x00000000
       13155000	      1314	80000d9c	00000013	addi	x0,x0,0	  x0:0x00000000
       13165000	      1315	80000da0	03c0036f	jal	x6,80000da0	  x6=0x80000da0
       13175000	      1316	00000000	00000013	addi	x0,x0,0	  x0:0x00000000
       13185000	      1317	80000dd8	00000013	addi	x0,x0,0	  x0:0x00000000
       13195000	      1318	80000ddc	004000ef	jal	x1,80000ddc	  x1=0x80000ddc
       13205000	      1319	00000000	00000013	addi	x0,x0,0	  x0:0x00000000
       13215000	      1320	80000ddc	00000013	addi	x0,x0,0	  x0:0x00000000
       13225000	      1321	80000de0	ff1ff16f	jal	x2,80000de0	  x2=0x80000de0
       13235000	      1322	00000000	00000013	addi	x0,x0,0	  x0:0x00000000
       13245000	      1323	80000dcc	00000013	addi	x0,x0,0	  x0:0x00000000
       13255000	      1324	80000dd0	fc9ff46f	jal	x8,80000dd0	  x8=0x80000dd0
       13265000	      1325	00000000	00000013	addi	x0,x0,0	  x0:0x00000000
       13275000	      1326	80000d94	00000013	addi	x0,x0,0	  x0:0x00000000
       13285000	      1327	80000d98	ff9ff0ef	jal	x1,80000d98	  x1=0x80000d98
       13295000	      1328	00000000	00000013	addi	x0,x0,0	  x0:0x00000000
       13305000	      1329	80000d8c	00000013	addi	x0,x0,0	  x0:0x00000000
       13315000	      1330	80000d90	020000ef	jal	x1,80000d90	  x1=0x80000d90
       13325000	      1331	00000000	00000013	addi	x0,x0,0	  x0:0x00000000
       13335000	      1332	80000dac	00000013	addi	x0,x0,0	  x0:0x00000000
       13345000	      1333	80000db0	ff9ff36f	jal	x6,80000db0	  x6=0x80000db0
       13355000	      1334	00000000	00000013	addi	x0,x0,0	  x0:0x00000000
       13365000	      1335	80000da4	00000013	addi	x0,x0,0	  x0:0x00000000
       13375000	      1336	80000da8	040000ef	jal	x1,80000da8	  x1=0x80000da8
       13385000	      1337	00000000	00000013	addi	x0,x0,0	  x0:0x00000000
       13395000	      1338	80000de4	00000013	addi	x0,x0,0	  x0:0x00000000
       13405000	      1339	80000de8	fadff4ef	jal	x9,80000de8	  x9=0x80000de8
       13415000	      1340	00000000	00000013	addi	x0,x0,0	  x0:0x00000000
       13425000	      1341	80000d90	00000013	addi	x0,x0,0	  x0:0x00000000
       13435000	      1342	80000d94	0100026f	jal	x4,80000d94	  x4=0x80000d94
       13445000	      1343	00000000	00000013	addi	x0,x0,0	  x0:0x00000000
       13455000	      1344	80000da0	00000013	addi	x0,x0,0	  x0:0x00000000
       13465000	      1345	80000da4	fddff0ef	jal	x1,80000da4	  x1=0x80000da4
       13475000	      1346	00000000	00000013	addi	x0,x0,0	  x0:0x00000000
       13485000	      1347	80000d7c	00000013	addi	x0,x0,0	  x0:0x00000000
       13495000	      1348	80000d80	008000ef	jal	x1,80000d80	  x1=0x80000d80
       13505000	      1349	00000000	00000013	addi	x0,x0,0	  x0:0x00000000
       13515000	      1350	80000d84	00000013	addi	x0,x0,0	  x0:0x00000000
       13525000	      1351	80000d88	05c00b6f	jal	x22,80000d88	 x22=0x80000d88
       13535000	      1352	00000000	00000013	addi	x0,x0,0	  x0:0x00000000
       13545000	      1353	80000de0	00000013	addi	x0,x0,0	  x0:0x00000000
       13555000	      1354	80000de4	fb9ff0ef	jal	x1,80000de4	  x1=0x80000de4
       13565000	      1355	00000000	00000013	addi	x0,x0,0	  x0:0x00000000
       13575000	      1356	80000d98	00000013	addi	x0,x0,0	  x0:0x00000000
       13585000	      1357	80000d9c	054000ef	jal	x1,80000d9c	  x1=0x80000d9c
       13595000	      1358	00000000	00000013	addi	x0,x0,0	  x0:0x00000000
       13605000	      1359	80000dec	00000013	addi	x0,x0,0	  x0:0x00000000
       13615000	      1360	80000df0	fd9ff0ef	jal	x1,80000df0	  x1=0x80000df0
       13625000	      1361	00000000	00000013	addi	x0,x0,0	  x0:0x00000000
       13635000	      1362	80000dc4	00000013	addi	x0,x0,0	  x0:0x00000000
       13645000	      1363	80000dc8	fc5ff36f	jal	x6,80000dc8	  x6=0x80000dc8
       13655000	      1364	00000000	00000013	addi	x0,x0,0	  x0:0x00000000
       13665000	      1365	80000d88	00000013	addi	x0,x0,0	  x0:0x00000000
       13675000	      1366	80000d8c	030000ef	jal	x1,80000d8c	  x1=0x80000d8c
       13685000	      1367	00000000	00000013	addi	x0,x0,0	  x0:0x00000000
       13695000	      1368	80000db8	00000013	addi	x0,x0,0	  x0:0x00000000
       13705000	      1369	80000dbc	010003ef	jal	x7,80000dbc	  x7=0x80000dbc
       13715000	      1370	00000000	00000013	addi	x0,x0,0	  x0:0x00000000
       13725000	      1371	80000dc8	00000013	addi	x0,x0,0	  x0:0x00000000
       13735000	      1372	80000dcc	fedff36f	jal	x6,80000dcc	  x6=0x80000dcc
       13745000	      1373	00000000	00000013	addi	x0,x0,0	  x0:0x00000000
       13755000	      1374	80000db4	00000013	addi	x0,x0,0	  x0:0x00000000
       13765000	      1375	80000db8	01c000ef	jal	x1,80000db8	  x1=0x80000db8
       13775000	      1376	00000000	00000013	addi	x0,x0,0	  x0:0x00000000
       13785000	      1377	80000dd0	00000013	addi	x0,x0,0	  x0:0x00000000
       13795000	      1378	80000dd4	fedff0ef	jal	x1,80000dd4	  x1=0x80000dd4
       13805000	      1379	00000000	00000013	addi	x0,x0,0	  x0:0x00000000
       13815000	      1380	80000dbc	00000013	addi	x0,x0,0	  x0:0x00000000
       13825000	      1381	80000dc0	0340036f	jal	x6,80000dc0	  x6=0x80000dc0
       13835000	      1382	00000000	00000013	addi	x0,x0,0	  x0:0x00000000
       13845000	      1383	80000df0	00000013	addi	x0,x0,0	  x0:0x00000000
       13855000	      1384	80000df4	e44cda37	lui	x20,0xe44cd	 x20=0xe44cd000
       13865000	      1385	80000df8	028000ef	jal	x1,80000df8	  x1=0x80000df8
       13875000	      1386	00000000	00000013	addi	x0,x0,0	  x0:0x00000000
       13885000	      1387	80000e1c	00000013	addi	x0,x0,0	  x0:0x00000000
       13895000	      1388	80000e20	00c00fef	jal	x31,80000e20	 x31=0x80000e20
       13905000	      1389	00000000	00000013	addi	x0,x0,0	  x0:0x00000000
       13915000	      1390	80000e28	00000013	addi	x0,x0,0	  x0:0x00000000
       13925000	      1391	80000e2c	fddff0ef	jal	x1,80000e2c	  x1=0x80000e2c
       13935000	      1392	00000000	00000013	addi	x0,x0,0	  x0:0x00000000
       13945000	      1393	80000e04	00000013	addi	x0,x0,0	  x0:0x00000000
       13955000	      1394	80000e08	00c000ef	jal	x1,80000e08	  x1=0x80000e08
       13965000	      1395	00000000	00000013	addi	x0,x0,0	  x0:0x00000000
       13975000	      1396	80000e10	00000013	addi	x0,x0,0	  x0:0x00000000
       13985000	      1397	80000e14	0340036f	jal	x6,80000e14	  x6=0x80000e14
       13995000	      1398	00000000	00000013	addi	x0,x0,0	  x0:0x00000000
       14005000	      1399	80000e44	00000013	addi	x0,x0,0	  x0:0x00000000
       14015000	      1400	80000e48	fd1ff0ef	jal	x1,80000e48	  x1=0x80000e48
       14025000	      1401	00000000	00000013	addi	x0,x0,0	  x0:0x00000000
       14035000	      1402	80000e14	00000013	addi	x0,x0,0	  x0:0x00000000
       14045000	      1403	80000e18	fedfffef	jal	x31,80000e18	 x31=0x80000e18
       14055000	      1404	00000000	00000013	addi	x0,x0,0	  x0:0x00000000
       14065000	      1405	80000e00	00000013	addi	x0,x0,0	  x0:0x00000000
       14075000	      1406	80000e04	00c0036f	jal	x6,80000e04	  x6=0x80000e04
       14085000	      1407	00000000	00000013	addi	x0,x0,0	  x0:0x00000000
       14095000	      1408	80000e0c	00000013	addi	x0,x0,0	  x0:0x00000000
       14105000	      1409	80000e10	044007ef	jal	x15,80000e10	 x15=0x80000e10
       14115000	      1410	00000000	00000013	addi	x0,x0,0	  x0:0x00000000
       14125000	      1411	80000e50	00000013	addi	x0,x0,0	  x0:0x00000000
       14135000	      1412	80000e54	fadffc6f	jal	x24,80000e54	 x24=0x80000e54
       14145000	      1413	00000000	00000013	addi	x0,x0,0	  x0:0x00000000
       14155000	      1414	80000dfc	00000013	addi	x0,x0,0	  x0:0x00000000
       14165000	      1415	80000e00	0400046f	jal	x8,80000e00	  x8=0x80000e00
       14175000	      1416	00000000	00000013	addi	x0,x0,0	  x0:0x00000000
       14185000	      1417	80000e3c	00000013	addi	x0,x0,0	  x0:0x00000000
       14195000	      1418	80000e40	ff9ff0ef	jal	x1,80000e40	  x1=0x80000e40
       14205000	      1419	00000000	00000013	addi	x0,x0,0	  x0:0x00000000
       14215000	      1420	80000e34	00000013	addi	x0,x0,0	  x0:0x00000000
       14225000	      1421	80000e38	004000ef	jal	x1,80000e38	  x1=0x80000e38
       14235000	      1422	00000000	00000013	addi	x0,x0,0	  x0:0x00000000
       14245000	      1423	80000e38	00000013	addi	x0,x0,0	  x0:0x00000000
       14255000	      1424	80000e3c	fe9ff0ef	jal	x1,80000e3c	  x1=0x80000e3c
       14265000	      1425	00000000	00000013	addi	x0,x0,0	  x0:0x00000000
       14275000	      1426	80000e20	00000013	addi	x0,x0,0	  x0:0x00000000
       14285000	      1427	80000e24	02c00cef	jal	x25,80000e24	 x25=0x80000e24
       14295000	      1428	00000000	00000013	addi	x0,x0,0	  x0:0x00000000
       14305000	      1429	80000e4c	00000013	addi	x0,x0,0	  x0:0x00000000
       14315000	      1430	80000e50	fe5ff0ef	jal	x1,80000e50	  x1=0x80000e50
       14325000	      1431	00000000	00000013	addi	x0,x0,0	  x0:0x00000000
       14335000	      1432	80000e30	00000013	addi	x0,x0,0	  x0:0x00000000
       14345000	      1433	80000e34	ffdff0ef	jal	x1,80000e34	  x1=0x80000e34
       14355000	      1434	00000000	00000013	addi	x0,x0,0	  x0:0x00000000
       14365000	      1435	80000e2c	00000013	addi	x0,x0,0	  x0:0x00000000
       14375000	      1436	80000e30	fddfffef	jal	x31,80000e30	 x31=0x80000e30
       14385000	      1437	00000000	00000013	addi	x0,x0,0	  x0:0x00000000
       14395000	      1438	80000e08	00000013	addi	x0,x0,0	  x0:0x00000000
       14405000	      1439	80000e0c	ff1ff0ef	jal	x1,80000e0c	  x1=0x80000e0c
       14415000	      1440	00000000	00000013	addi	x0,x0,0	  x0:0x00000000
       14425000	      1441	80000df8	00000013	addi	x0,x0,0	  x0:0x00000000
       14435000	      1442	80000dfc	0480036f	jal	x6,80000dfc	  x6=0x80000dfc
       14445000	      1443	00000000	00000013	addi	x0,x0,0	  x0:0x00000000
       14455000	      1444	80000e40	00000013	addi	x0,x0,0	  x0:0x00000000
       14465000	      1445	80000e44	fe5ff0ef	jal	x1,80000e44	  x1=0x80000e44
       14475000	      1446	00000000	00000013	addi	x0,x0,0	  x0:0x00000000
       14485000	      1447	80000e24	00000013	addi	x0,x0,0	  x0:0x00000000
       14495000	      1448	80000e28	024000ef	jal	x1,80000e28	  x1=0x80000e28
       14505000	      1449	00000000	00000013	addi	x0,x0,0	  x0:0x00000000
       14515000	      1450	80000e48	00000013	addi	x0,x0,0	  x0:0x00000000
       14525000	      1451	80000e4c	fd1ff0ef	jal	x1,80000e4c	  x1=0x80000e4c
       14535000	      1452	00000000	00000013	addi	x0,x0,0	  x0:0x00000000
       14545000	      1453	80000e18	00000013	addi	x0,x0,0	  x0:0x00000000
       14555000	      1454	80000e1c	03c000ef	jal	x1,80000e1c	  x1=0x80000e1c
       14565000	      1455	00000000	00000013	addi	x0,x0,0	  x0:0x00000000
       14575000	      1456	80000e54	00000013	addi	x0,x0,0	  x0:0x00000000
       14585000	      1457	80000e58	c48a8c13	addi	x24,x21,-952	 x21:0x80000ca8 x24=0x800008f0
       14595000	      1458	80000e5c	02c000ef	jal	x1,80000e5c	  x1=0x80000e5c
       14605000	      1459	00000000	00000013	addi	x0,x0,0	  x0:0x00000000
       14615000	      1460	80000e84	00000013	addi	x0,x0,0	  x0:0x00000000
       14625000	      1461	80000e88	fedff0ef	jal	x1,80000e88	  x1=0x80000e88
       14635000	      1462	00000000	00000013	addi	x0,x0,0	  x0:0x00000000
       14645000	      1463	80000e70	00000013	addi	x0,x0,0	  x0:0x00000000
       14655000	      1464	80000e74	ff9ff0ef	jal	x1,80000e74	  x1=0x80000e74
       14665000	      1465	00000000	00000013	addi	x0,x0,0	  x0:0x00000000
       14675000	      1466	80000e68	00000013	addi	x0,x0,0	  x0:0x00000000
       14685000	      1467	80000e6c	024000ef	jal	x1,80000e6c	  x1=0x80000e6c
       14695000	      1468	00000000	00000013	addi	x0,x0,0	  x0:0x00000000
       14705000	      1469	80000e8c	00000013	addi	x0,x0,0	  x0:0x00000000
       14715000	      1470	80000e90	fe1ff36f	jal	x6,80000e90	  x6=0x80000e90
       14725000	      1471	00000000	00000013	addi	x0,x0,0	  x0:0x00000000
       14735000	      1472	80000e6c	00000013	addi	x0,x0,0	  x0:0x00000000
       14745000	      1473	80000e70	ff9ff0ef	jal	x1,80000e70	  x1=0x80000e70
       14755000	      1474	00000000	00000013	addi	x0,x0,0	  x0:0x00000000
       14765000	      1475	80000e64	00000013	addi	x0,x0,0	  x0:0x00000000
       14775000	      1476	80000e68	010000ef	jal	x1,80000e68	  x1=0x80000e68
       14785000	      1477	00000000	00000013	addi	x0,x0,0	  x0:0x00000000
       14795000	      1478	80000e74	00000013	addi	x0,x0,0	  x0:0x00000000
       14805000	      1479	80000e78	0040036f	jal	x6,80000e78	  x6=0x80000e78
       14815000	      1480	00000000	00000013	addi	x0,x0,0	  x0:0x00000000
       14825000	      1481	80000e78	00000013	addi	x0,x0,0	  x0:0x00000000
       14835000	      1482	80000e7c	0180046f	jal	x8,80000e7c	  x8=0x80000e7c
       14845000	      1483	00000000	00000013	addi	x0,x0,0	  x0:0x00000000
       14855000	      1484	80000e90	00000013	addi	x0,x0,0	  x0:0x00000000
       14865000	      1485	80000e94	ff1ff26f	jal	x4,80000e94	  x4=0x80000e94
       14875000	      1486	00000000	00000013	addi	x0,x0,0	  x0:0x00000000
       14885000	      1487	80000e80	00000013	addi	x0,x0,0	  x0:0x00000000
       14895000	      1488	80000e84	ffdff0ef	jal	x1,80000e84	  x1=0x80000e84
       14905000	      1489	00000000	00000013	addi	x0,x0,0	  x0:0x00000000
       14915000	      1490	80000e7c	00000013	addi	x0,x0,0	  x0:0x00000000
       14925000	      1491	80000e80	fe5ff0ef	jal	x1,80000e80	  x1=0x80000e80
       14935000	      1492	00000000	00000013	addi	x0,x0,0	  x0:0x00000000
       14945000	      1493	80000e60	00000013	addi	x0,x0,0	  x0:0x00000000
       14955000	      1494	80000e64	ffdff36f	jal	x6,80000e64	  x6=0x80000e64
       14965000	      1495	00000000	00000013	addi	x0,x0,0	  x0:0x00000000
       14975000	      1496	80000e5c	00000013	addi	x0,x0,0	  x0:0x00000000
       14985000	      1497	80000e60	02c000ef	jal	x1,80000e60	  x1=0x80000e60
       14995000	      1498	00000000	00000013	addi	x0,x0,0	  x0:0x00000000
       15005000	      1499	80000e88	00000013	addi	x0,x0,0	  x0:0x00000000
       15015000	      1500	80000e8c	00c001ef	jal	x3,80000e8c	  x3=0x80000e8c
       15025000	      1501	00000000	00000013	addi	x0,x0,0	  x0:0x00000000
       15035000	      1502	80000e94	00000013	addi	x0,x0,0	  x0:0x00000000
       15045000	      1503	80000e98	405603b3	sub	x7,x12,x5	 x12:0x80000b98  x5:0x00000400  x7=0x80000798
       15055000	      1504	80000e9c	02c000ef	jal	x1,80000e9c	  x1=0x80000e9c
       15065000	      1505	00000000	00000013	addi	x0,x0,0	  x0:0x00000000
       15075000	      1506	80000ec4	00000013	addi	x0,x0,0	  x0:0x00000000
       15085000	      1507	80000ec8	ffdff0ef	jal	x1,80000ec8	  x1=0x80000ec8
       15095000	      1508	00000000	00000013	addi	x0,x0,0	  x0:0x00000000
       15105000	      1509	80000ec0	00000013	addi	x0,x0,0	  x0:0x00000000
       15115000	      1510	80000ec4	fe5ff36f	jal	x6,80000ec4	  x6=0x80000ec4
       15125000	      1511	00000000	00000013	addi	x0,x0,0	  x0:0x00000000
       15135000	      1512	80000ea4	00000013	addi	x0,x0,0	  x0:0x00000000
       15145000	      1513	80000ea8	ffdff0ef	jal	x1,80000ea8	  x1=0x80000ea8
       15155000	      1514	00000000	00000013	addi	x0,x0,0	  x0:0x00000000
       15165000	      1515	80000ea0	00000013	addi	x0,x0,0	  x0:0x00000000
       15175000	      1516	80000ea4	0080036f	jal	x6,80000ea4	  x6=0x80000ea4
       15185000	      1517	00000000	00000013	addi	x0,x0,0	  x0:0x00000000
       15195000	      1518	80000ea8	00000013	addi	x0,x0,0	  x0:0x00000000
       15205000	      1519	80000eac	014002ef	jal	x5,80000eac	  x5=0x80000eac
       15215000	      1520	00000000	00000013	addi	x0,x0,0	  x0:0x00000000
       15225000	      1521	80000ebc	00000013	addi	x0,x0,0	  x0:0x00000000
       15235000	      1522	80000ec0	010003ef	jal	x7,80000ec0	  x7=0x80000ec0
       15245000	      1523	00000000	00000013	addi	x0,x0,0	  x0:0x00000000
       15255000	      1524	80000ecc	00000013	addi	x0,x0,0	  x0:0x00000000
       15265000	      1525	80000ed0	fd1ff36f	jal	x6,80000ed0	  x6=0x80000ed0
       15275000	      1526	00000000	00000013	addi	x0,x0,0	  x0:0x00000000
       15285000	      1527	80000e9c	00000013	addi	x0,x0,0	  x0:0x00000000
       15295000	      1528	80000ea0	01c0036f	jal	x6,80000ea0	  x6=0x80000ea0
       15305000	      1529	00000000	00000013	addi	x0,x0,0	  x0:0x00000000
       15315000	      1530	80000eb8	00000013	addi	x0,x0,0	  x0:0x00000000
       15325000	      1531	80000ebc	ff9ff0ef	jal	x1,80000ebc	  x1=0x80000ebc
       15335000	      1532	00000000	00000013	addi	x0,x0,0	  x0:0x00000000
       15345000	      1533	80000eb0	00000013	addi	x0,x0,0	  x0:0x00000000
       15355000	      1534	80000eb4	018000ef	jal	x1,80000eb4	  x1=0x80000eb4
       15365000	      1535	00000000	00000013	addi	x0,x0,0	  x0:0x00000000
       15375000	      1536	80000ec8	00000013	addi	x0,x0,0	  x0:0x00000000
       15385000	      1537	80000ecc	fe5ff0ef	jal	x1,80000ecc	  x1=0x80000ecc
       15395000	      1538	00000000	00000013	addi	x0,x0,0	  x0:0x00000000
       15405000	      1539	80000eac	00000013	addi	x0,x0,0	  x0:0x00000000
       15415000	      1540	80000eb0	00800def	jal	x27,80000eb0	 x27=0x80000eb0
       15425000	      1541	00000000	00000013	addi	x0,x0,0	  x0:0x00000000
       15435000	      1542	80000eb4	00000013	addi	x0,x0,0	  x0:0x00000000
       15445000	      1543	80000eb8	01c000ef	jal	x1,80000eb8	  x1=0x80000eb8
       15455000	      1544	00000000	00000013	addi	x0,x0,0	  x0:0x00000000
       15465000	      1545	80000ed0	00000013	addi	x0,x0,0	  x0:0x00000000
       15475000	      1546	80000ed4	00bc5513	srli	x10,x24,0xb	 x24:0x800008f0 x10=0x00100001
       15485000	      1547	80000ed8	014000ef	jal	x1,80000ed8	  x1=0x80000ed8
       15495000	      1548	00000000	00000013	addi	x0,x0,0	  x0:0x00000000
       15505000	      1549	80000ee8	00000013	addi	x0,x0,0	  x0:0x00000000
       15515000	      1550	80000eec	018000ef	jal	x1,80000eec	  x1=0x80000eec
       15525000	      1551	00000000	00000013	addi	x0,x0,0	  x0:0x00000000
       15535000	      1552	80000f00	00000013	addi	x0,x0,0	  x0:0x00000000
       15545000	      1553	80000f04	ff1ff36f	jal	x6,80000f04	  x6=0x80000f04
       15555000	      1554	00000000	00000013	addi	x0,x0,0	  x0:0x00000000
       15565000	      1555	80000ef0	00000013	addi	x0,x0,0	  x0:0x00000000
       15575000	      1556	80000ef4	fedff16f	jal	x2,80000ef4	  x2=0x80000ef4
       15585000	      1557	00000000	00000013	addi	x0,x0,0	  x0:0x00000000
       15595000	      1558	80000edc	00000013	addi	x0,x0,0	  x0:0x00000000
       15605000	      1559	80000ee0	050005ef	jal	x11,80000ee0	 x11=0x80000ee0
       15615000	      1560	00000000	00000013	addi	x0,x0,0	  x0:0x00000000
       15625000	      1561	80000f2c	00000013	addi	x0,x0,0	  x0:0x00000000
       15635000	      1562	80000f30	00c000ef	jal	x1,80000f30	  x1=0x80000f30
       15645000	      1563	00000000	00000013	addi	x0,x0,0	  x0:0x00000000
       15655000	      1564	80000f38	00000013	addi	x0,x0,0	  x0:0x00000000
       15665000	      1565	80000f3c	fe5ff0ef	jal	x1,80000f3c	  x1=0x80000f3c
       15675000	      1566	00000000	00000013	addi	x0,x0,0	  x0:0x00000000
       15685000	      1567	80000f1c	00000013	addi	x0,x0,0	  x0:0x00000000
       15695000	      1568	80000f20	fc5ff0ef	jal	x1,80000f20	  x1=0x80000f20
       15705000	      1569	00000000	00000013	addi	x0,x0,0	  x0:0x00000000
       15715000	      1570	80000ee0	00000013	addi	x0,x0,0	  x0:0x00000000
       15725000	      1571	80000ee4	02c000ef	jal	x1,80000ee4	  x1=0x80000ee4
       15735000	      1572	00000000	00000013	addi	x0,x0,0	  x0:0x00000000
       15745000	      1573	80000f0c	00000013	addi	x0,x0,0	  x0:0x00000000
       15755000	      1574	80000f10	fd9ff36f	jal	x6,80000f10	  x6=0x80000f10
       15765000	      1575	00000000	00000013	addi	x0,x0,0	  x0:0x00000000
       15775000	      1576	80000ee4	00000013	addi	x0,x0,0	  x0:0x00000000
       15785000	      1577	80000ee8	0340036f	jal	x6,80000ee8	  x6=0x80000ee8
       15795000	      1578	00000000	00000013	addi	x0,x0,0	  x0:0x00000000
       15805000	      1579	80000f18	00000013	addi	x0,x0,0	  x0:0x00000000
       15815000	      1580	80000f1c	0240016f	jal	x2,80000f1c	  x2=0x80000f1c
       15825000	      1581	00000000	00000013	addi	x0,x0,0	  x0:0x00000000
       15835000	      1582	80000f3c	00000013	addi	x0,x0,0	  x0:0x00000000
       15845000	      1583	80000f40	f9dff0ef	jal	x1,80000f40	  x1=0x80000f40
       15855000	      1584	00000000	00000013	addi	x0,x0,0	  x0:0x00000000
       15865000	      1585	80000ed8	00000013	addi	x0,x0,0	  x0:0x00000000
       15875000	      1586	80000edc	038000ef	jal	x1,80000edc	  x1=0x80000edc
       15885000	      1587	00000000	00000013	addi	x0,x0,0	  x0:0x00000000
       15895000	      1588	80000f10	00000013	addi	x0,x0,0	  x0:0x00000000
       15905000	      1589	80000f14	010000ef	jal	x1,80000f14	  x1=0x80000f14
       15915000	      1590	00000000	00000013	addi	x0,x0,0	  x0:0x00000000
       15925000	      1591	80000f20	00000013	addi	x0,x0,0	  x0:0x00000000
       15935000	      1592	80000f24	fe5ff36f	jal	x6,80000f24	  x6=0x80000f24
       15945000	      1593	00000000	00000013	addi	x0,x0,0	  x0:0x00000000
       15955000	      1594	80000f04	00000013	addi	x0,x0,0	  x0:0x00000000
       15965000	      1595	80000f08	030000ef	jal	x1,80000f08	  x1=0x80000f08
       15975000	      1596	00000000	00000013	addi	x0,x0,0	  x0:0x00000000
       15985000	      1597	80000f34	00000013	addi	x0,x0,0	  x0:0x00000000
       15995000	      1598	80000f38	ff1ff0ef	jal	x1,80000f38	  x1=0x80000f38
       16005000	      1599	00000000	00000013	addi	x0,x0,0	  x0:0x00000000
       16015000	      1600	80000f24	00000013	addi	x0,x0,0	  x0:0x00000000
       16025000	      1601	80000f28	fd9ff0ef	jal	x1,80000f28	  x1=0x80000f28
       16035000	      1602	00000000	00000013	addi	x0,x0,0	  x0:0x00000000
       16045000	      1603	80000efc	00000013	addi	x0,x0,0	  x0:0x00000000
       16055000	      1604	80000f00	ff1ff0ef	jal	x1,80000f00	  x1=0x80000f00
       16065000	      1605	00000000	00000013	addi	x0,x0,0	  x0:0x00000000
       16075000	      1606	80000eec	00000013	addi	x0,x0,0	  x0:0x00000000
       16085000	      1607	80000ef0	01c000ef	jal	x1,80000ef0	  x1=0x80000ef0
       16095000	      1608	00000000	00000013	addi	x0,x0,0	  x0:0x00000000
       16105000	      1609	80000f08	00000013	addi	x0,x0,0	  x0:0x00000000
       16115000	      1610	80000f0c	02000c6f	jal	x24,80000f0c	 x24=0x80000f0c
       16125000	      1611	00000000	00000013	addi	x0,x0,0	  x0:0x00000000
       16135000	      1612	80000f28	00000013	addi	x0,x0,0	  x0:0x00000000
       16145000	      1613	80000f2c	fedff36f	jal	x6,80000f2c	  x6=0x80000f2c
       16155000	      1614	00000000	00000013	addi	x0,x0,0	  x0:0x00000000
       16165000	      1615	80000f14	00000013	addi	x0,x0,0	  x0:0x00000000
       16175000	      1616	80000f18	01c000ef	jal	x1,80000f18	  x1=0x80000f18
       16185000	      1617	00000000	00000013	addi	x0,x0,0	  x0:0x00000000
       16195000	      1618	80000f30	00000013	addi	x0,x0,0	  x0:0x00000000
       16205000	      1619	80000f34	fc9ff3ef	jal	x7,80000f34	  x7=0x80000f34
       16215000	      1620	00000000	00000013	addi	x0,x0,0	  x0:0x00000000
       16225000	      1621	80000ef8	00000013	addi	x0,x0,0	  x0:0x00000000
       16235000	      1622	80000efc	ffdffb6f	jal	x22,80000efc	 x22=0x80000efc
       16245000	      1623	00000000	00000013	addi	x0,x0,0	  x0:0x00000000
       16255000	      1624	80000ef4	00000013	addi	x0,x0,0	  x0:0x00000000
       16265000	      1625	80000ef8	04c000ef	jal	x1,80000ef8	  x1=0x80000ef8
       16275000	      1626	00000000	00000013	addi	x0,x0,0	  x0:0x00000000
       16285000	      1627	80000f40	00000013	addi	x0,x0,0	  x0:0x00000000
       16295000	      1628	80000f44	0095df93	srli	x31,x11,0x9	 x11:0x80000ee0 x31=0x00400007
       16305000	      1629	80000f48	040000ef	jal	x1,80000f48	  x1=0x80000f48
       16315000	      1630	00000000	00000013	addi	x0,x0,0	  x0:0x00000000
       16325000	      1631	80000f84	00000013	addi	x0,x0,0	  x0:0x00000000
       16335000	      1632	80000f88	fd5ff36f	jal	x6,80000f88	  x6=0x80000f88
       16345000	      1633	00000000	00000013	addi	x0,x0,0	  x0:0x00000000
       16355000	      1634	80000f58	00000013	addi	x0,x0,0	  x0:0x00000000
       16365000	      1635	80000f5c	ff1ffd6f	jal	x26,80000f5c	 x26=0x80000f5c
       16375000	      1636	00000000	00000013	addi	x0,x0,0	  x0:0x00000000
       16385000	      1637	80000f48	00000013	addi	x0,x0,0	  x0:0x00000000
       16395000	      1638	80000f4c	014000ef	jal	x1,80000f4c	  x1=0x80000f4c
       16405000	      1639	00000000	00000013	addi	x0,x0,0	  x0:0x00000000
       16415000	      1640	80000f5c	00000013	addi	x0,x0,0	  x0:0x00000000
       16425000	      1641	80000f60	030000ef	jal	x1,80000f60	  x1=0x80000f60
       16435000	      1642	00000000	00000013	addi	x0,x0,0	  x0:0x00000000
       16445000	      1643	80000f8c	00000013	addi	x0,x0,0	  x0:0x00000000
       16455000	      1644	80000f90	00c000ef	jal	x1,80000f90	  x1=0x80000f90
       16465000	      1645	00000000	00000013	addi	x0,x0,0	  x0:0x00000000
       16475000	      1646	80000f98	00000013	addi	x0,x0,0	  x0:0x00000000
       16485000	      1647	80000f9c	fd9ff0ef	jal	x1,80000f9c	  x1=0x80000f9c
       16495000	      1648	00000000	00000013	addi	x0,x0,0	  x0:0x00000000
       16505000	      1649	80000f70	00000013	addi	x0,x0,0	  x0:0x00000000
       16515000	      1650	80000f74	018000ef	jal	x1,80000f74	  x1=0x80000f74
       16525000	      1651	00000000	00000013	addi	x0,x0,0	  x0:0x00000000
       16535000	      1652	80000f88	00000013	addi	x0,x0,0	  x0:0x00000000
       16545000	      1653	80000f8c	fd9ff2ef	jal	x5,80000f8c	  x5=0x80000f8c
       16555000	      1654	00000000	00000013	addi	x0,x0,0	  x0:0x00000000
       16565000	      1655	80000f60	00000013	addi	x0,x0,0	  x0:0x00000000
       16575000	      1656	80000f64	fedff36f	jal	x6,80000f64	  x6=0x80000f64
       16585000	      1657	00000000	00000013	addi	x0,x0,0	  x0:0x00000000
       16595000	      1658	80000f4c	00000013	addi	x0,x0,0	  x0:0x00000000
       16605000	      1659	80000f50	0540036f	jal	x6,80000f50	  x6=0x80000f50
       16615000	      1660	00000000	00000013	addi	x0,x0,0	  x0:0x00000000
       16625000	      1661	80000fa0	00000013	addi	x0,x0,0	  x0:0x00000000
       16635000	      1662	80000fa4	fcdff0ef	jal	x1,80000fa4	  x1=0x80000fa4
       16645000	      1663	00000000	00000013	addi	x0,x0,0	  x0:0x00000000
       16655000	      1664	80000f6c	00000013	addi	x0,x0,0	  x0:0x00000000
       16665000	      1665	80000f70	0100036f	jal	x6,80000f70	  x6=0x80000f70
       16675000	      1666	00000000	00000013	addi	x0,x0,0	  x0:0x00000000
       16685000	      1667	80000f7c	00000013	addi	x0,x0,0	  x0:0x00000000
       16695000	      1668	80000f80	ff9fffef	jal	x31,80000f80	 x31=0x80000f80
       16705000	      1669	00000000	00000013	addi	x0,x0,0	  x0:0x00000000
       16715000	      1670	80000f74	00000013	addi	x0,x0,0	  x0:0x00000000
       16725000	      1671	80000f78	fe1ff36f	jal	x6,80000f78	  x6=0x80000f78
       16735000	      1672	00000000	00000013	addi	x0,x0,0	  x0:0x00000000
       16745000	      1673	80000f54	00000013	addi	x0,x0,0	  x0:0x00000000
       16755000	      1674	80000f58	02c000ef	jal	x1,80000f58	  x1=0x80000f58
       16765000	      1675	00000000	00000013	addi	x0,x0,0	  x0:0x00000000
       16775000	      1676	80000f80	00000013	addi	x0,x0,0	  x0:0x00000000
       16785000	      1677	80000f84	fe9ffeef	jal	x29,80000f84	 x29=0x80000f84
       16795000	      1678	00000000	00000013	addi	x0,x0,0	  x0:0x00000000
       16805000	      1679	80000f68	00000013	addi	x0,x0,0	  x0:0x00000000
       16815000	      1680	80000f6c	028000ef	jal	x1,80000f6c	  x1=0x80000f6c
       16825000	      1681	00000000	00000013	addi	x0,x0,0	  x0:0x00000000
       16835000	      1682	80000f90	00000013	addi	x0,x0,0	  x0:0x00000000
       16845000	      1683	80000f94	fd5ff0ef	jal	x1,80000f94	  x1=0x80000f94
       16855000	      1684	00000000	00000013	addi	x0,x0,0	  x0:0x00000000
       16865000	      1685	80000f64	00000013	addi	x0,x0,0	  x0:0x00000000
       16875000	      1686	80000f68	030000ef	jal	x1,80000f68	  x1=0x80000f68
       16885000	      1687	00000000	00000013	addi	x0,x0,0	  x0:0x00000000
       16895000	      1688	80000f94	00000013	addi	x0,x0,0	  x0:0x00000000
       16905000	      1689	80000f98	0080036f	jal	x6,80000f98	  x6=0x80000f98
       16915000	      1690	00000000	00000013	addi	x0,x0,0	  x0:0x00000000
       16925000	      1691	80000f9c	00000013	addi	x0,x0,0	  x0:0x00000000
       16935000	      1692	80000fa0	fddff36f	jal	x6,80000fa0	  x6=0x80000fa0
       16945000	      1693	00000000	00000013	addi	x0,x0,0	  x0:0x00000000
       16955000	      1694	80000f78	00000013	addi	x0,x0,0	  x0:0x00000000
       16965000	      1695	80000f7c	fd9ff0ef	jal	x1,80000f7c	  x1=0x80000f7c
       16975000	      1696	00000000	00000013	addi	x0,x0,0	  x0:0x00000000
       16985000	      1697	80000f50	00000013	addi	x0,x0,0	  x0:0x00000000
       16995000	      1698	80000f54	0540036f	jal	x6,80000f54	  x6=0x80000f54
       17005000	      1699	00000000	00000013	addi	x0,x0,0	  x0:0x00000000
       17015000	      1700	80000fa4	00000013	addi	x0,x0,0	  x0:0x00000000
       17025000	      1701	80000fa8	a7cb3113	sltiu	x2,x22,-1412	 x22:0x80000efc  x2=0x00000001
       17035000	      1702	80000fac	044000ef	jal	x1,80000fac	  x1=0x80000fac
       17045000	      1703	00000000	00000013	addi	x0,x0,0	  x0:0x00000000
       17055000	      1704	80000fec	00000013	addi	x0,x0,0	  x0:0x00000000
       17065000	      1705	80000ff0	ff9ff0ef	jal	x1,80000ff0	  x1=0x80000ff0
       17075000	      1706	00000000	00000013	addi	x0,x0,0	  x0:0x00000000
       17085000	      1707	80000fe4	00000013	addi	x0,x0,0	  x0:0x00000000
       17095000	      1708	80000fe8	01c000ef	jal	x1,80000fe8	  x1=0x80000fe8
       17105000	      1709	00000000	00000013	addi	x0,x0,0	  x0:0x00000000
       17115000	      1710	80001000	00000013	addi	x0,x0,0	  x0:0x00000000
       17125000	      1711	80001004	004000ef	jal	x1,80001004	  x1=0x80001004
       17135000	      1712	00000000	00000013	addi	x0,x0,0	  x0:0x00000000
       17145000	      1713	80001004	00000013	addi	x0,x0,0	  x0:0x00000000
       17155000	      1714	80001008	008000ef	jal	x1,80001008	  x1=0x80001008
       17165000	      1715	00000000	00000013	addi	x0,x0,0	  x0:0x00000000
       17175000	      1716	8000100c	00000013	addi	x0,x0,0	  x0:0x00000000
       17185000	      1717	80001010	fc5ffb6f	jal	x22,80001010	 x22=0x80001010
       17195000	      1718	00000000	00000013	addi	x0,x0,0	  x0:0x00000000
       17205000	      1719	80000fd0	00000013	addi	x0,x0,0	  x0:0x00000000
       17215000	      1720	80000fd4	040000ef	jal	x1,80000fd4	  x1=0x80000fd4
       17225000	      1721	00000000	00000013	addi	x0,x0,0	  x0:0x00000000
       17235000	      1722	80001010	00000013	addi	x0,x0,0	  x0:0x00000000
       17245000	      1723	80001014	fb9ff0ef	jal	x1,80001014	  x1=0x80001014
       17255000	      1724	00000000	00000013	addi	x0,x0,0	  x0:0x00000000
       17265000	      1725	80000fc8	00000013	addi	x0,x0,0	  x0:0x00000000
       17275000	      1726	80000fcc	0340046f	jal	x8,80000fcc	  x8=0x80000fcc
       17285000	      1727	00000000	00000013	addi	x0,x0,0	  x0:0x00000000
       17295000	      1728	80000ffc	00000013	addi	x0,x0,0	  x0:0x00000000
       17305000	      1729	80001000	fd9ff0ef	jal	x1,80001000	  x1=0x80001000
       17315000	      1730	00000000	00000013	addi	x0,x0,0	  x0:0x00000000
       17325000	      1731	80000fd4	00000013	addi	x0,x0,0	  x0:0x00000000
       17335000	      1732	80000fd8	01c000ef	jal	x1,80000fd8	  x1=0x80000fd8
       17345000	      1733	00000000	00000013	addi	x0,x0,0	  x0:0x00000000
       17355000	      1734	80000ff0	00000013	addi	x0,x0,0	  x0:0x00000000
       17365000	      1735	80000ff4	fd1ff36f	jal	x6,80000ff4	  x6=0x80000ff4
       17375000	      1736	00000000	00000013	addi	x0,x0,0	  x0:0x00000000
       17385000	      1737	80000fc0	00000013	addi	x0,x0,0	  x0:0x00000000
       17395000	      1738	80000fc4	048000ef	jal	x1,80000fc4	  x1=0x80000fc4
       17405000	      1739	00000000	00000013	addi	x0,x0,0	  x0:0x00000000
       17415000	      1740	80001008	00000013	addi	x0,x0,0	  x0:0x00000000
       17425000	      1741	8000100c	fb1ff2ef	jal	x5,8000100c	  x5=0x8000100c
       17435000	      1742	00000000	00000013	addi	x0,x0,0	  x0:0x00000000
       17445000	      1743	80000fb8	00000013	addi	x0,x0,0	  x0:0x00000000
       17455000	      1744	80000fbc	ffdff0ef	jal	x1,80000fbc	  x1=0x80000fbc
       17465000	      1745	00000000	00000013	addi	x0,x0,0	  x0:0x00000000
       17475000	      1746	80000fb4	00000013	addi	x0,x0,0	  x0:0x00000000
       17485000	      1747	80000fb8	ff9ff36f	jal	x6,80000fb8	  x6=0x80000fb8
       17495000	      1748	00000000	00000013	addi	x0,x0,0	  x0:0x00000000
       17505000	      1749	80000fac	00000013	addi	x0,x0,0	  x0:0x00000000
       17515000	      1750	80000fb0	06800a6f	jal	x20,80000fb0	 x20=0x80000fb0
       17525000	      1751	00000000	00000013	addi	x0,x0,0	  x0:0x00000000
       17535000	      1752	80001014	00000013	addi	x0,x0,0	  x0:0x00000000
       17545000	      1753	80001018	fe1ff56f	jal	x10,80001018	 x10=0x80001018
       17555000	      1754	00000000	00000013	addi	x0,x0,0	  x0:0x00000000
       17565000	      1755	80000ff4	00000013	addi	x0,x0,0	  x0:0x00000000
       17575000	      1756	80000ff8	fe9ff36f	jal	x6,80000ff8	  x6=0x80000ff8
       17585000	      1757	00000000	00000013	addi	x0,x0,0	  x0:0x00000000
       17595000	      1758	80000fdc	00000013	addi	x0,x0,0	  x0:0x00000000
       17605000	      1759	80000fe0	00c000ef	jal	x1,80000fe0	  x1=0x80000fe0
       17615000	      1760	00000000	00000013	addi	x0,x0,0	  x0:0x00000000
       17625000	      1761	80000fe8	00000013	addi	x0,x0,0	  x0:0x00000000
       17635000	      1762	80000fec	fe5ff16f	jal	x2,80000fec	  x2=0x80000fec
       17645000	      1763	00000000	00000013	addi	x0,x0,0	  x0:0x00000000
       17655000	      1764	80000fcc	00000013	addi	x0,x0,0	  x0:0x00000000
       17665000	      1765	80000fd0	00c0016f	jal	x2,80000fd0	  x2=0x80000fd0
       17675000	      1766	00000000	00000013	addi	x0,x0,0	  x0:0x00000000
       17685000	      1767	80000fd8	00000013	addi	x0,x0,0	  x0:0x00000000
       17695000	      1768	80000fdc	020000ef	jal	x1,80000fdc	  x1=0x80000fdc
       17705000	      1769	00000000	00000013	addi	x0,x0,0	  x0:0x00000000
       17715000	      1770	80000ff8	00000013	addi	x0,x0,0	  x0:0x00000000
       17725000	      1771	80000ffc	fe9ff0ef	jal	x1,80000ffc	  x1=0x80000ffc
       17735000	      1772	00000000	00000013	addi	x0,x0,0	  x0:0x00000000
       17745000	      1773	80000fe0	00000013	addi	x0,x0,0	  x0:0x00000000
       17755000	      1774	80000fe4	fddff0ef	jal	x1,80000fe4	  x1=0x80000fe4
       17765000	      1775	00000000	00000013	addi	x0,x0,0	  x0:0x00000000
       17775000	      1776	80000fbc	00000013	addi	x0,x0,0	  x0:0x00000000
       17785000	      1777	80000fc0	ff5ff1ef	jal	x3,80000fc0	  x3=0x80000fc0
       17795000	      1778	00000000	00000013	addi	x0,x0,0	  x0:0x00000000
       17805000	      1779	80000fb0	00000013	addi	x0,x0,0	  x0:0x00000000
       17815000	      1780	80000fb4	014000ef	jal	x1,80000fb4	  x1=0x80000fb4
       17825000	      1781	00000000	00000013	addi	x0,x0,0	  x0:0x00000000
       17835000	      1782	80000fc4	00000013	addi	x0,x0,0	  x0:0x00000000
       17845000	      1783	80000fc8	054000ef	jal	x1,80000fc8	  x1=0x80000fc8
       17855000	      1784	00000000	00000013	addi	x0,x0,0	  x0:0x00000000
       17865000	      1785	80001018	00000013	addi	x0,x0,0	  x0:0x00000000
       17875000	      1786	8000101c	002f1033	sll	x0,x30,x2	 x30:0x80000dd8  x2:0x80000fd0
       17885000	      1787	80001020	03afd263	bge	x31,x26,80001044	 x31:0x80000f80 x26:0x80000f5c
       17895000	      1788	00000000	00000013	addi	x0,x0,0	  x0:0x00000000
       17905000	      1789	80001040	00000013	addi	x0,x0,0	  x0:0x00000000
       17915000	      1790	80001044	40035813	srai	x16,x6,0x0	  x6:0x80000ff8 x16=0x80000ff8
       17925000	      1791	80001048	000b1e33	sll	x28,x22,x0	 x22:0x80001010  x0:0x00000000 x28=0x80001010
       17935000	      1792	8000104c	78890093	addi	x1,x18,1928	 x18:0x80000a50  x1=0x800011d8
       17945000	      1793	80001050	00480633	add	x12,x16,x4	 x16:0x80000ff8  x4:0x80000e94 x12=0x00001e8c
       17955000	      1794	80001054	018e8e63	beq	x29,x24,80001070	 x29:0x80000f84 x24:0x80000f0c
       17965000	      1795	80001058	013a4033	xor	x0,x20,x19	 x20:0x80000fb0 x19:0x0000015c
       17975000	      1796	8000105c	014b8333	add	x6,x23,x20	 x23:0x80009f64 x20:0x80000fb0  x6=0x0000af14
       17985000	      1797	80001060	035ec263	blt	x29,x21,80001084	 x29:0x80000f84 x21:0x80000ca8
       17995000	      1798	80001064	00784663	blt	x16,x7,80001070	 x16:0x80000ff8  x7:0x80000f34
       18005000	      1799	80001068	00eb5313	srli	x6,x22,0xe	 x22:0x80001010  x6=0x00020000
       18015000	      1800	8000106c	00be9263	bne	x29,x11,80001070	 x29:0x80000f84 x11:0x80000ee0
       18025000	      1801	00000000	00000013	addi	x0,x0,0	  x0:0x00000000
       18035000	      1802	8000106c	00000013	addi	x0,x0,0	  x0:0x00000000
       18045000	      1803	80001070	40e55e13	srai	x28,x10,0xe	 x10:0x80001018 x28=0xfffe0000
       18055000	      1804	80001074	c8e58013	addi	x0,x11,-882	 x11:0x80000ee0
       18065000	      1805	80001078	00cd7263	bgeu	x26,x12,8000107c	 x26:0x80000f5c x12:0x00001e8c
       18075000	      1806	00000000	00000013	addi	x0,x0,0	  x0:0x00000000
       18085000	      1807	80001078	00000013	addi	x0,x0,0	  x0:0x00000000
       18095000	      1808	8000107c	05f01663	bne	x0,x31,800010c8	  x0:0x00000000 x31:0x80000f80
       18105000	      1809	00000000	00000013	addi	x0,x0,0	  x0:0x00000000
       18115000	      1810	800010c4	00000013	addi	x0,x0,0	  x0:0x00000000
       18125000	      1811	800010c8	41200033	sub	x0,x0,x18	  x0:0x00000000 x18:0x80000a50
       18135000	      1812	800010cc	038b6863	bltu	x22,x24,800010fc	 x22:0x80001010 x24:0x80000f0c
       18145000	      1813	800010d0	02121863	bne	x4,x1,80001100	  x4:0x80000e94  x1:0x800011d8
       18155000	      1814	00000000	00000013	addi	x0,x0,0	  x0:0x00000000
       18165000	      1815	800010fc	00000013	addi	x0,x0,0	  x0:0x00000000
       18175000	      1816	80001100	40865c93	srai	x25,x12,0x8	 x12:0x00001e8c x25=0x0000001e
       18185000	      1817	80001104	016eacb3	slt	x25,x29,x22	 x29:0x80000f84 x22:0x80001010 x25=0x00000001
       18195000	      1818	80001108	00ea5fb3	srl	x31,x20,x14	 x20:0x80000fb0 x14:0x00000004 x31=0x080000fb
       18205000	      1819	8000110c	76f4f397	auipc	x7,0x76f4f	  x7=0xf6f50108
       18215000	      1820	80001110	00bfdf33	srl	x30,x31,x11	 x31:0x080000fb x11:0x80000ee0 x30=0x080000fb
       18225000	      1821	80001114	40de5f13	srai	x30,x28,0xd	 x28:0xfffe0000 x30=0xfffffff0
       18235000	      1822	80001118	051a0063	beq	x20,x17,80001158	 x20:0x80000fb0 x17:0x80009fc4
       18245000	      1823	8000111c	00f24033	xor	x0,x4,x15	  x4:0x80000e94 x15:0x80000e10
       18255000	      1824	80001120	9b794393	xori	x7,x18,-1609	 x18:0x80000a50  x7=0x7ffff3e7
       18265000	      1825	80001124	05a9f263	bgeu	x19,x26,80001168	 x19:0x0000015c x26:0x80000f5c
       18275000	      1826	80001128	40405b33	sra	x22,x0,x4	  x0:0x00000000  x4:0x80000e94 x22=0x00000000
       18285000	      1827	8000112c	01855913	srli	x18,x10,0x18	 x10:0x80001018 x18=0x00000080
       18295000	      1828	80001130	00000013	addi	x0,x0,0	  x0:0x00000000
       18305000	      1829	80001134	90a93513	sltiu	x10,x18,-1782	 x18:0x00000080 x10=0x00000001
       18315000	      1830	80001138	0090d7b3	srl	x15,x1,x9	  x1:0x800011d8  x9:0x80000de8 x15=0x00800011
       18325000	      1831	8000113c	486e12b7	lui	x5,0x486e1	  x5=0x486e1000
       18335000	      1832	80001140	005fb3b3	sltu	x7,x31,x5	 x31:0x080000fb  x5:0x486e1000  x7=0x00000001
       18345000	      1833	80001144	0167e863	bltu	x15,x22,80001154	 x15:0x00800011 x22:0x00000000
       18355000	      1834	80001148	1d4d4613	xori	x12,x26,468	 x26:0x80000f5c x12=0x80000e88
       18365000	      1835	8000114c	00df95b3	sll	x11,x31,x13	 x31:0x080000fb x13:0x80000c20 x11=0x080000fb
       18375000	      1836	80001150	40f3d493	srai	x9,x7,0xf	  x7:0x00000001  x9=0x00000000
       18385000	      1837	80001154	44eb2f93	slti	x31,x22,1102	 x22:0x00000000 x31=0x00000001
       18395000	      1838	80001158	d21d2e13	slti	x28,x26,-735	 x26:0x80000f5c x28=0x00000001
       18405000	      1839	8000115c	00000013	addi	x0,x0,0	  x0:0x00000000
       18415000	      1840	80001160	cd8e4297	auipc	x5,0xcd8e4	  x5=0x4d8e515c
       18425000	      1841	80001164	048fd263	bge	x31,x8,800011a8	 x31:0x00000001  x8:0x80000fcc
       18435000	      1842	00000000	00000013	addi	x0,x0,0	  x0:0x00000000
       18445000	      1843	800011a4	00000013	addi	x0,x0,0	  x0:0x00000000
       18455000	      1844	800011a8	4195dc13	srai	x24,x11,0x19	 x11:0x080000fb x24=0x00000004
       18465000	      1845	800011ac	00000013	addi	x0,x0,0	  x0:0x00000000
       18475000	      1846	800011b0	006bdc13	srli	x24,x23,0x6	 x23:0x80009f64 x24=0x0200027d
       18485000	      1847	800011b4	dc1e0993	addi	x19,x28,-575	 x28:0x00000001 x19=0xfffffdc2
       18495000	      1848	800011b8	b9c06d13	ori	x26,x0,-1124	  x0:0x00000000 x26=0xfffffb9c
       18505000	      1849	800011bc	00336833	or	x16,x6,x3	  x6:0x00020000  x3:0x80000fc0 x16=0x80020fc0
       18515000	      1850	800011c0	dc84cc13	xori	x24,x9,-568	  x9:0x00000000 x24=0xfffffdc8
       18525000	      1851	800011c4	637fec17	auipc	x24,0x637fe	 x24=0xe37ff1c0
       18535000	      1852	800011c8	00a939b3	sltu	x19,x18,x10	 x18:0x00000080 x10:0x00000001 x19=0x00000000
       18545000	      1853	800011cc	012aa633	slt	x12,x21,x18	 x21:0x80000ca8 x18:0x00000080 x12=0x00000001
       18555000	      1854	800011d0	00000013	addi	x0,x0,0	  x0:0x00000000
       18565000	      1855	800011d4	ed298eb7	lui	x29,0xed298	 x29=0xed298000
       18575000	      1856	800011d8	05998263	beq	x19,x25,8000121c	 x19:0x00000000 x25:0x00000001
       18585000	      1857	800011dc	40e35513	srai	x10,x6,0xe	  x6:0x00020000 x10=0x00000008
       18595000	      1858	800011e0	00000013	addi	x0,x0,0	  x0:0x00000000
       18605000	      1859	800011e4	01d69233	sll	x4,x13,x29	 x13:0x80000c20 x29:0xed298000  x4=0x80000c20
       18615000	      1860	800011e8	014f5c13	srli	x24,x30,0x14	 x30:0xfffffff0 x24=0x00000fff
       18625000	      1861	800011ec	30ea7e17	auipc	x28,0x30ea7	 x28=0xb0ea81e8
       18635000	      1862	800011f0	417f0ab3	sub	x21,x30,x23	 x30:0xfffffff0 x23:0x80009f64 x21=0x7fff608c
       18645000	      1863	800011f4	aa750a97	auipc	x21,0xaa750	 x21=0x2a7511f0
       18655000	      1864	800011f8	0030d0b3	srl	x1,x1,x3	  x1:0x800011d8  x3:0x80000fc0  x1=0x800011d8
       18665000	      1865	800011fc	0008f463	bgeu	x17,x0,80001204	 x17:0x80009fc4  x0:0x00000000
       18675000	      1866	00000000	00000013	addi	x0,x0,0	  x0:0x00000000
       18685000	      1867	80001200	00000013	addi	x0,x0,0	  x0:0x00000000
       18695000	      1868	80001204	03801263	bne	x0,x24,80001228	  x0:0x00000000 x24:0x00000fff
       18705000	      1869	00000000	00000013	addi	x0,x0,0	  x0:0x00000000
       18715000	      1870	80001224	00000013	addi	x0,x0,0	  x0:0x00000000
       18725000	      1871	80001228	00cdea33	or	x20,x27,x12	 x27:0x80000eb0 x12:0x00000001 x20=0x80000eb1
       18735000	      1872	8000122c	009c54b3	srl	x9,x24,x9	 x24:0x00000fff  x9:0x00000000  x9=0x00000fff
       18745000	      1873	80001230	018c9ab3	sll	x21,x25,x24	 x25:0x00000001 x24:0x00000fff x21=0x80000000
       18755000	      1874	80001234	41a25f33	sra	x30,x4,x26	  x4:0x80000c20 x26:0xfffffb9c x30=0xfffffff8
       18765000	      1875	80001238	01de1633	sll	x12,x28,x29	 x28:0xb0ea81e8 x29:0xed298000 x12=0xb0ea81e8
       18775000	      1876	8000123c	00f01eb3	sll	x29,x0,x15	  x0:0x00000000 x15:0x00800011 x29=0x00000000
       18785000	      1877	80001240	030c9863	bne	x25,x16,80001270	 x25:0x00000001 x16:0x80020fc0
       18795000	      1878	00000000	00000013	addi	x0,x0,0	  x0:0x00000000
       18805000	      1879	8000126c	00000013	addi	x0,x0,0	  x0:0x00000000
       18815000	      1880	80001270	00fbbd33	sltu	x26,x23,x15	 x23:0x80009f64 x15:0x00800011 x26=0x00000000
       18825000	      1881	80001274	6a8bb413	sltiu	x8,x23,1704	 x23:0x80009f64  x8=0x00000000
       18835000	      1882	80001278	a1c5ba13	sltiu	x20,x11,-1508	 x11:0x080000fb x20=0x00000001
       18845000	      1883	8000127c	01d159b3	srl	x19,x2,x29	  x2:0x80000fd0 x29:0x00000000 x19=0x80000fd0
       18855000	      1884	80001280	41ce0133	sub	x2,x28,x28	 x28:0xb0ea81e8 x28:0xb0ea81e8  x2=0x00000000
       18865000	      1885	80001284	95c6fd13	andi	x26,x13,-1700	 x13:0x80000c20 x26=0x80000800
       18875000	      1886	80001288	4054d933	sra	x18,x9,x5	  x9:0x00000fff  x5:0x4d8e515c x18=0x00000000
       18885000	      1887	8000128c	0015f633	and	x12,x11,x1	 x11:0x080000fb  x1:0x800011d8 x12=0x000000d8
       18895000	      1888	80001290	05351263	bne	x10,x19,800012d4	 x10:0x00000008 x19:0x80000fd0
       18905000	      1889	00000000	00000013	addi	x0,x0,0	  x0:0x00000000
       18915000	      1890	800012d0	00000013	addi	x0,x0,0	  x0:0x00000000
       18925000	      1891	800012d4	04498063	beq	x19,x4,80001314	 x19:0x80000fd0  x4:0x80000c20
       18935000	      1892	800012d8	7b1fe093	ori	x1,x31,1969	 x31:0x00000001  x1=0x000007b1
       18945000	      1893	800012dc	db822997	auipc	x19,0xdb822	 x19=0x5b8232d8
       18955000	      1894	800012e0	bd782e13	slti	x28,x16,-1065	 x16:0x80020fc0 x28=0x00000001
       18965000	      1895	800012e4	005784b3	add	x9,x15,x5	 x15:0x00800011  x5:0x4d8e515c  x9=0x4e0e516d
       18975000	      1896	800012e8	01bb1513	slli	x10,x22,0x1b	 x22:0x00000000 x10=0x00000000
       18985000	      1897	800012ec	00d4dd33	srl	x26,x9,x13	  x9:0x4e0e516d x13:0x80000c20 x26=0x4e0e516d
       18995000	      1898	800012f0	003f5ab3	srl	x21,x30,x3	 x30:0xfffffff8  x3:0x80000fc0 x21=0xfffffff8
       19005000	      1899	800012f4	01f12333	slt	x6,x2,x31	  x2:0x00000000 x31:0x00000001  x6=0x00000001
       19015000	      1900	800012f8	038b6c63	bltu	x22,x24,80001330	 x22:0x00000000 x24:0x00000fff
       19025000	      1901	00000000	00000013	addi	x0,x0,0	  x0:0x00000000
       19035000	      1902	8000132c	00000013	addi	x0,x0,0	  x0:0x00000000
       19045000	      1903	80001330	ea192993	slti	x19,x18,-351	 x18:0x00000000 x19=0x00000000
       19055000	      1904	80001334	5428a393	slti	x7,x17,1346	 x17:0x80009fc4  x7=0x00000001
       19065000	      1905	80001338	4064d3b3	sra	x7,x9,x6	  x9:0x4e0e516d  x6:0x00000001  x7=0x270728b6
       19075000	      1906	8000133c	6a4a2b13	slti	x22,x20,1700	 x20:0x00000001 x22=0x00000001
       19085000	      1907	80001340	2f5b4993	xori	x19,x22,757	 x22:0x00000001 x19=0x000002f4
       19095000	      1908	80001344	0e5eb2b7	lui	x5,0xe5eb	  x5=0x0e5eb000
       19105000	      1909	80001348	01c000ef	jal	x1,80001348	  x1=0x80001348
       19115000	      1910	00000000	00000013	addi	x0,x0,0	  x0:0x00000000
       19125000	      1911	80001360	00000013	addi	x0,x0,0	  x0:0x00000000
       19135000	      1912	80001364	ff1ff36f	jal	x6,80001364	  x6=0x80001364
       19145000	      1913	00000000	00000013	addi	x0,x0,0	  x0:0x00000000
       19155000	      1914	80001350	00000013	addi	x0,x0,0	  x0:0x00000000
       19165000	      1915	80001354	ff9ff0ef	jal	x1,80001354	  x1=0x80001354
       19175000	      1916	00000000	00000013	addi	x0,x0,0	  x0:0x00000000
       19185000	      1917	80001348	00000013	addi	x0,x0,0	  x0:0x00000000
       19195000	      1918	8000134c	02c000ef	jal	x1,8000134c	  x1=0x8000134c
       19205000	      1919	00000000	00000013	addi	x0,x0,0	  x0:0x00000000
       19215000	      1920	80001374	00000013	addi	x0,x0,0	  x0:0x00000000
       19225000	      1921	80001378	fe1ff36f	jal	x6,80001378	  x6=0x80001378
       19235000	      1922	00000000	00000013	addi	x0,x0,0	  x0:0x00000000
       19245000	      1923	80001354	00000013	addi	x0,x0,0	  x0:0x00000000
       19255000	      1924	80001358	0280036f	jal	x6,80001358	  x6=0x80001358
       19265000	      1925	00000000	00000013	addi	x0,x0,0	  x0:0x00000000
       19275000	      1926	8000137c	00000013	addi	x0,x0,0	  x0:0x00000000
       19285000	      1927	80001380	fedff0ef	jal	x1,80001380	  x1=0x80001380
       19295000	      1928	00000000	00000013	addi	x0,x0,0	  x0:0x00000000
       19305000	      1929	80001368	00000013	addi	x0,x0,0	  x0:0x00000000
       19315000	      1930	8000136c	fe5ff0ef	jal	x1,8000136c	  x1=0x8000136c
       19325000	      1931	00000000	00000013	addi	x0,x0,0	  x0:0x00000000
       19335000	      1932	8000134c	00000013	addi	x0,x0,0	  x0:0x00000000
       19345000	      1933	80001350	018000ef	jal	x1,80001350	  x1=0x80001350
       19355000	      1934	00000000	00000013	addi	x0,x0,0	  x0:0x00000000
       19365000	      1935	80001364	00000013	addi	x0,x0,0	  x0:0x00000000
       19375000	      1936	80001368	00c000ef	jal	x1,80001368	  x1=0x80001368
       19385000	      1937	00000000	00000013	addi	x0,x0,0	  x0:0x00000000
       19395000	      1938	80001370	00000013	addi	x0,x0,0	  x0:0x00000000
       19405000	      1939	80001374	008000ef	jal	x1,80001374	  x1=0x80001374
       19415000	      1940	00000000	00000013	addi	x0,x0,0	  x0:0x00000000
       19425000	      1941	80001378	00000013	addi	x0,x0,0	  x0:0x00000000
       19435000	      1942	8000137c	ff5ff0ef	jal	x1,8000137c	  x1=0x8000137c
       19445000	      1943	00000000	00000013	addi	x0,x0,0	  x0:0x00000000
       19455000	      1944	8000136c	00000013	addi	x0,x0,0	  x0:0x00000000
       19465000	      1945	80001370	fedff0ef	jal	x1,80001370	  x1=0x80001370
       19475000	      1946	00000000	00000013	addi	x0,x0,0	  x0:0x00000000
       19485000	      1947	80001358	00000013	addi	x0,x0,0	  x0:0x00000000
       19495000	      1948	8000135c	004001ef	jal	x3,8000135c	  x3=0x8000135c
       19505000	      1949	00000000	00000013	addi	x0,x0,0	  x0:0x00000000
       19515000	      1950	8000135c	00000013	addi	x0,x0,0	  x0:0x00000000
       19525000	      1951	80001360	024000ef	jal	x1,80001360	  x1=0x80001360
       19535000	      1952	00000000	00000013	addi	x0,x0,0	  x0:0x00000000
       19545000	      1953	80001380	00000013	addi	x0,x0,0	  x0:0x00000000
       19555000	      1954	80001384	4107dfb3	sra	x31,x15,x16	 x15:0x00800011 x16:0x80020fc0 x31=0x00800011
       19565000	      1955	80001388	00691533	sll	x10,x18,x6	 x18:0x00000000  x6:0x80001358 x10=0x00000000
       19575000	      1956	8000138c	41a486b3	sub	x13,x9,x26	  x9:0x4e0e516d x26:0x4e0e516d x13=0x00000000
       19585000	      1957	80001390	40695033	sra	x0,x18,x6	 x18:0x00000000  x6:0x80001358
       19595000	      1958	80001394	9643ec13	ori	x24,x7,-1692	  x7:0x270728b6 x24=0xfffff9f6
       19605000	      1959	80001398	bf69f593	andi	x11,x19,-1034	 x19:0x000002f4 x11=0x000002f4
       19615000	      1960	8000139c	01db8fb3	add	x31,x23,x29	 x23:0x80009f64 x29:0x00000000 x31=0x80009f64
       19625000	      1961	800013a0	41985913	srai	x18,x16,0x19	 x16:0x80020fc0 x18=0xffffffc0
       19635000	      1962	800013a4	01a447b3	xor	x15,x8,x26	  x8:0x00000000 x26:0x4e0e516d x15=0x4e0e516d
       19645000	      1963	800013a8	00159133	sll	x2,x11,x1	 x11:0x000002f4  x1:0x80001360  x2=0x000002f4
       19655000	      1964	800013ac	f9f71037	lui	x0,0xf9f71	
       19665000	      1965	800013b0	00f021b3	slt	x3,x0,x15	  x0:0x00000000 x15:0x4e0e516d  x3=0x00000001
       19675000	      1966	800013b4	67b34613	xori	x12,x6,1659	  x6:0x80001358 x12=0x80001523
       19685000	      1967	800013b8	0403e663	bltu	x7,x0,80001404	  x7:0x270728b6  x0:0x00000000
       19695000	      1968	800013bc	00f2bcb3	sltu	x25,x5,x15	  x5:0x0e5eb000 x15:0x4e0e516d x25=0x00000001
       19705000	      1969	800013c0	0412f263	bgeu	x5,x1,80001404	  x5:0x0e5eb000  x1:0x80001360
       19715000	      1970	800013c4	0025f1b3	and	x3,x11,x2	 x11:0x000002f4  x2:0x000002f4  x3=0x000002f4
       19725000	      1971	800013c8	f3632313	slti	x6,x6,-202	  x6:0x80001358  x6=0x00000001
       19735000	      1972	800013cc	00d99a33	sll	x20,x19,x13	 x19:0x000002f4 x13:0x00000000 x20=0x000002f4
       19745000	      1973	800013d0	01d1fcb3	and	x25,x3,x29	  x3:0x000002f4 x29:0x00000000 x25=0x00000000
       19755000	      1974	800013d4	142de613	ori	x12,x27,322	 x27:0x80000eb0 x12=0x80000ff2
       19765000	      1975	800013d8	bc44ae93	slti	x29,x9,-1084	  x9:0x4e0e516d x29=0x00000000
       19775000	      1976	800013dc	04305663	bge	x0,x3,80001428	  x0:0x00000000  x3:0x000002f4
       19785000	      1977	800013e0	0124dd13	srli	x26,x9,0x12	  x9:0x4e0e516d x26=0x00001383
       19795000	      1978	800013e4	00e94ab3	xor	x21,x18,x14	 x18:0xffffffc0 x14:0x00000004 x21=0xffffffc4
       19805000	      1979	800013e8	02291863	bne	x18,x2,80001418	 x18:0xffffffc0  x2:0x000002f4
       19815000	      1980	00000000	00000013	addi	x0,x0,0	  x0:0x00000000
       19825000	      1981	80001414	00000013	addi	x0,x0,0	  x0:0x00000000
       19835000	      1982	80001418	85fb2213	slti	x4,x22,-1953	 x22:0x00000001  x4=0x00000000
       19845000	      1983	8000141c	00e76233	or	x4,x14,x14	 x14:0x00000004 x14:0x00000004  x4=0x00000004
       19855000	      1984	80001420	00d8dc33	srl	x24,x17,x13	 x17:0x80009fc4 x13:0x00000000 x24=0x80009fc4
       19865000	      1985	80001424	00dc8633	add	x12,x25,x13	 x25:0x00000000 x13:0x00000000 x12=0x00000000
       19875000	      1986	80001428	0dacad13	slti	x26,x25,218	 x25:0x00000000 x26=0x00000001
       19885000	      1987	8000142c	411c5433	sra	x8,x24,x17	 x24:0x80009fc4 x17:0x80009fc4  x8=0xf80009fc
       19895000	      1988	80001430	67e5f293	andi	x5,x11,1662	 x11:0x000002f4  x5=0x00000274
       19905000	      1989	80001434	04b08263	beq	x1,x11,80001478	  x1:0x80001360 x11:0x000002f4
       19915000	      1990	80001438	b5d16b17	auipc	x22,0xb5d16	 x22=0x35d17434
       19925000	      1991	8000143c	00000013	addi	x0,x0,0	  x0:0x00000000
       19935000	      1992	80001440	02790263	beq	x18,x7,80001464	 x18:0xffffffc0  x7:0x270728b6
       19945000	      1993	80001444	00cd5c63	bge	x26,x12,8000145c	 x26:0x00000001 x12:0x00000000
       19955000	      1994	00000000	00000013	addi	x0,x0,0	  x0:0x00000000
       19965000	      1995	80001458	00000013	addi	x0,x0,0	  x0:0x00000000
       19975000	      1996	8000145c	00bab6b3	sltu	x13,x21,x11	 x21:0xffffffc4 x11:0x000002f4 x13=0x00000000
       19985000	      1997	80001460	40f7d833	sra	x16,x15,x15	 x15:0x4e0e516d x15:0x4e0e516d x16=0x00027072
       19995000	      1998	80001464	00c7d263	bge	x15,x12,80001468	 x15:0x4e0e516d x12:0x00000000
       20005000	      1999	00000000	00000013	addi	x0,x0,0	  x0:0x00000000
       20015000	      2000	80001464	00000013	addi	x0,x0,0	  x0:0x00000000
       20025000	      2001	80001468	016ca4b3	slt	x9,x25,x22	 x25:0x00000000 x22:0x35d17434  x9=0x00000001
       20035000	      2002	8000146c	01317463	bgeu	x2,x19,80001474	  x2:0x000002f4 x19:0x000002f4
       20045000	      2003	00000000	00000013	addi	x0,x0,0	  x0:0x00000000
       20055000	      2004	80001470	00000013	addi	x0,x0,0	  x0:0x00000000
       20065000	      2005	80001474	00000013	addi	x0,x0,0	  x0:0x00000000
       20075000	      2006	80001478	0fa29937	lui	x18,0xfa29	 x18=0x0fa29000
       20085000	      2007	8000147c	044d6663	bltu	x26,x4,800014c8	 x26:0x00000001  x4:0x00000004
       20095000	      2008	00000000	00000013	addi	x0,x0,0	  x0:0x00000000
       20105000	      2009	800014c4	00000013	addi	x0,x0,0	  x0:0x00000000
       20115000	      2010	800014c8	019e1533	sll	x10,x28,x25	 x28:0x00000001 x25:0x00000000 x10=0x00000001
       20125000	      2011	800014cc	019fde33	srl	x28,x31,x25	 x31:0x80009f64 x25:0x00000000 x28=0x80009f64
       20135000	      2012	800014d0	d14e3093	sltiu	x1,x28,-748	 x28:0x80009f64  x1=0x00000001
       20145000	      2013	800014d4	40ac02b3	sub	x5,x24,x10	 x24:0x80009fc4 x10:0x00000001  x5=0x80009fc3
       20155000	      2014	800014d8	01a15213	srli	x4,x2,0x1a	  x2:0x000002f4  x4=0x00000000
       20165000	      2015	800014dc	88814417	auipc	x8,0x88814	  x8=0x088154d8
       20175000	      2016	800014e0	01ec2933	slt	x18,x24,x30	 x24:0x80009fc4 x30:0xfffffff8 x18=0x00000001
       20185000	      2017	800014e4	405553b3	sra	x7,x10,x5	 x10:0x00000001  x5:0x80009fc3  x7=0x00000000
       20195000	      2018	800014e8	009f6eb3	or	x29,x30,x9	 x30:0xfffffff8  x9:0x00000001 x29=0xfffffff9
       20205000	      2019	800014ec	0476d663	bge	x13,x7,80001538	 x13:0x00000000  x7:0x00000000
       20215000	      2020	00000000	00000013	addi	x0,x0,0	  x0:0x00000000
       20225000	      2021	80001534	00000013	addi	x0,x0,0	  x0:0x00000000
       20235000	      2022	80001538	0111d663	bge	x3,x17,80001544	  x3:0x000002f4 x17:0x80009fc4
       20245000	      2023	00000000	00000013	addi	x0,x0,0	  x0:0x00000000
       20255000	      2024	80001540	00000013	addi	x0,x0,0	  x0:0x00000000
       20265000	      2025	80001544	00074263	blt	x14,x0,80001548	 x14:0x00000004  x0:0x00000000
       20275000	      2026	80001548	04434063	blt	x6,x4,80001588	  x6:0x00000001  x4:0x00000000
       20285000	      2027	8000154c	011c36b3	sltu	x13,x24,x17	 x24:0x80009fc4 x17:0x80009fc4 x13=0x00000000
       20295000	      2028	80001550	008f6863	bltu	x30,x8,80001560	 x30:0xfffffff8  x8:0x088154d8
       20305000	      2029	80001554	003840b3	xor	x1,x16,x3	 x16:0x00027072  x3:0x000002f4  x1=0x00027286
       20315000	      2030	80001558	feb77a93	andi	x21,x14,-21	 x14:0x00000004 x21=0x00000000
       20325000	      2031	8000155c	0311e263	bltu	x3,x17,80001580	  x3:0x000002f4 x17:0x80009fc4
       20335000	      2032	00000000	00000013	addi	x0,x0,0	  x0:0x00000000
       20345000	      2033	8000157c	00000013	addi	x0,x0,0	  x0:0x00000000
       20355000	      2034	80001580	054a1263	bne	x20,x20,800015c4	 x20:0x000002f4 x20:0x000002f4
       20365000	      2035	80001584	41348db3	sub	x27,x9,x19	  x9:0x00000001 x19:0x000002f4 x27=0xfffffd0d
       20375000	      2036	80001588	042f5663	bge	x30,x2,800015d4	 x30:0xfffffff8  x2:0x000002f4
       20385000	      2037	8000158c	01584863	blt	x16,x21,8000159c	 x16:0x00027072 x21:0x00000000
       20395000	      2038	80001590	01bc4cb3	xor	x25,x24,x27	 x24:0x80009fc4 x27:0xfffffd0d x25=0x7fff62c9
       20405000	      2039	80001594	01daf663	bgeu	x21,x29,800015a0	 x21:0x00000000 x29:0xfffffff9
       20415000	      2040	80001598	034fe263	bltu	x31,x20,800015bc	 x31:0x80009f64 x20:0x000002f4
       20425000	      2041	8000159c	a44aa793	slti	x15,x21,-1468	 x21:0x00000000 x15=0x00000000
       20435000	      2042	800015a0	01799e93	slli	x29,x19,0x17	 x19:0x000002f4 x29=0x7a000000
       20445000	      2043	800015a4	411f5333	sra	x6,x30,x17	 x30:0xfffffff8 x17:0x80009fc4  x6=0xffffffff
       20455000	      2044	800015a8	0063de13	srli	x28,x7,0x6	  x7:0x00000000 x28=0x00000000
       20465000	      2045	800015ac	2eba2f97	auipc	x31,0x2eba2	 x31=0xaeba35a8
       20475000	      2046	800015b0	0052fdb3	and	x27,x5,x5	  x5:0x80009fc3  x5:0x80009fc3 x27=0x80009fc3
       20485000	      2047	800015b4	01b554b3	srl	x9,x10,x27	 x10:0x00000001 x27:0x80009fc3  x9=0x00000000
       20495000	      2048	800015b8	05144263	blt	x8,x17,800015fc	  x8:0x088154d8 x17:0x80009fc4
       20505000	      2049	800015bc	017154b3	srl	x9,x2,x23	  x2:0x000002f4 x23:0x80009f64  x9=0x0000002f
       20515000	      2050	800015c0	d75cae37	lui	x28,0xd75ca	 x28=0xd75ca000
       20525000	      2051	800015c4	9e820593	addi	x11,x4,-1560	  x4:0x00000000 x11=0xfffff9e8
       20535000	      2052	800015c8	00000013	addi	x0,x0,0	  x0:0x00000000
       20545000	      2053	800015cc	01981a13	slli	x20,x16,0x19	 x16:0x00027072 x20=0xe4000000
       20555000	      2054	800015d0	40d65d33	sra	x26,x12,x13	 x12:0x00000000 x13:0x00000000 x26=0x00000000
       20565000	      2055	800015d4	01aca133	slt	x2,x25,x26	 x25:0x7fff62c9 x26:0x00000000  x2=0x00000000
       20575000	      2056	800015d8	0db10a13	addi	x20,x2,219	  x2:0x00000000 x20=0x000000db
       20585000	      2057	800015dc	1dbe2293	slti	x5,x28,475	 x28:0xd75ca000  x5=0x00000001
       20595000	      2058	800015e0	0030f2b3	and	x5,x1,x3	  x1:0x00027286  x3:0x000002f4  x5=0x00000284
       20605000	      2059	800015e4	01485833	srl	x16,x16,x20	 x16:0x00027072 x20:0x000000db x16=0x00000000
       20615000	      2060	800015e8	01a03033	sltu	x0,x0,x26	  x0:0x00000000 x26:0x00000000
       20625000	      2061	800015ec	0027e233	or	x4,x15,x2	 x15:0x00000000  x2:0x00000000  x4=0x00000000
       20635000	      2062	800015f0	c5c32917	auipc	x18,0xc5c32	 x18=0x45c335ec
       20645000	      2063	800015f4	4122dc33	sra	x24,x5,x18	  x5:0x00000284 x18:0x45c335ec x24=0x00000000
       20655000	      2064	800015f8	c04e4997	auipc	x19,0xc04e4	 x19=0x404e55f4
       20665000	      2065	800015fc	013d0e63	beq	x26,x19,80001618	 x26:0x00000000 x19:0x404e55f4
       20675000	      2066	80001600	b7253d13	sltiu	x26,x10,-1166	 x10:0x00000001 x26=0x00000001
       20685000	      2067	80001604	0407d663	bge	x15,x0,80001650	 x15:0x00000000  x0:0x00000000
       20695000	      2068	00000000	00000013	addi	x0,x0,0	  x0:0x00000000
       20705000	      2069	8000164c	00000013	addi	x0,x0,0	  x0:0x00000000
       20715000	      2070	80001650	f2464d93	xori	x27,x12,-220	 x12:0x00000000 x27=0xffffff24
       20725000	      2071	80001654	40cf0fb3	sub	x31,x30,x12	 x30:0xfffffff8 x12:0x00000000 x31=0xfffffff8
       20735000	      2072	80001658	028000ef	jal	x1,80001658	  x1=0x80001658
       20745000	      2073	00000000	00000013	addi	x0,x0,0	  x0:0x00000000
       20755000	      2074	8000167c	00000013	addi	x0,x0,0	  x0:0x00000000
       20765000	      2075	80001680	018000ef	jal	x1,80001680	  x1=0x80001680
       20775000	      2076	00000000	00000013	addi	x0,x0,0	  x0:0x00000000
       20785000	      2077	80001694	00000013	addi	x0,x0,0	  x0:0x00000000
       20795000	      2078	80001698	0240036f	jal	x6,80001698	  x6=0x80001698
       20805000	      2079	00000000	00000013	addi	x0,x0,0	  x0:0x00000000
       20815000	      2080	800016b8	00000013	addi	x0,x0,0	  x0:0x00000000
       20825000	      2081	800016bc	00c000ef	jal	x1,800016bc	  x1=0x800016bc
       20835000	      2082	00000000	00000013	addi	x0,x0,0	  x0:0x00000000
       20845000	      2083	800016c4	00000013	addi	x0,x0,0	  x0:0x00000000
       20855000	      2084	800016c8	fb5ff36f	jal	x6,800016c8	  x6=0x800016c8
       20865000	      2085	00000000	00000013	addi	x0,x0,0	  x0:0x00000000
       20875000	      2086	80001678	00000013	addi	x0,x0,0	  x0:0x00000000
       20885000	      2087	8000167c	fedff0ef	jal	x1,8000167c	  x1=0x8000167c
       20895000	      2088	00000000	00000013	addi	x0,x0,0	  x0:0x00000000
       20905000	      2089	80001664	00000013	addi	x0,x0,0	  x0:0x00000000
       20915000	      2090	80001668	0480036f	jal	x6,80001668	  x6=0x80001668
       20925000	      2091	00000000	00000013	addi	x0,x0,0	  x0:0x00000000
       20935000	      2092	800016ac	00000013	addi	x0,x0,0	  x0:0x00000000
       20945000	      2093	800016b0	fddff16f	jal	x2,800016b0	  x2=0x800016b0
       20955000	      2094	00000000	00000013	addi	x0,x0,0	  x0:0x00000000
       20965000	      2095	80001688	00000013	addi	x0,x0,0	  x0:0x00000000
       20975000	      2096	8000168c	014000ef	jal	x1,8000168c	  x1=0x8000168c
       20985000	      2097	00000000	00000013	addi	x0,x0,0	  x0:0x00000000
       20995000	      2098	8000169c	00000013	addi	x0,x0,0	  x0:0x00000000
       21005000	      2099	800016a0	0180036f	jal	x6,800016a0	  x6=0x800016a0
       21015000	      2100	00000000	00000013	addi	x0,x0,0	  x0:0x00000000
       21025000	      2101	800016b4	00000013	addi	x0,x0,0	  x0:0x00000000
       21035000	      2102	800016b8	fa5ff0ef	jal	x1,800016b8	  x1=0x800016b8
       21045000	      2103	00000000	00000013	addi	x0,x0,0	  x0:0x00000000
       21055000	      2104	80001658	00000013	addi	x0,x0,0	  x0:0x00000000
       21065000	      2105	8000165c	0100016f	jal	x2,8000165c	  x2=0x8000165c
       21075000	      2106	00000000	00000013	addi	x0,x0,0	  x0:0x00000000
       21085000	      2107	80001668	00000013	addi	x0,x0,0	  x0:0x00000000
       21095000	      2108	8000166c	008000ef	jal	x1,8000166c	  x1=0x8000166c
       21105000	      2109	00000000	00000013	addi	x0,x0,0	  x0:0x00000000
       21115000	      2110	80001670	00000013	addi	x0,x0,0	  x0:0x00000000
       21125000	      2111	80001674	0400016f	jal	x2,80001674	  x2=0x80001674
       21135000	      2112	00000000	00000013	addi	x0,x0,0	  x0:0x00000000
       21145000	      2113	800016b0	00000013	addi	x0,x0,0	  x0:0x00000000
       21155000	      2114	800016b4	fd1ff0ef	jal	x1,800016b4	  x1=0x800016b4
       21165000	      2115	00000000	00000013	addi	x0,x0,0	  x0:0x00000000
       21175000	      2116	80001680	00000013	addi	x0,x0,0	  x0:0x00000000
       21185000	      2117	80001684	fedff36f	jal	x6,80001684	  x6=0x80001684
       21195000	      2118	00000000	00000013	addi	x0,x0,0	  x0:0x00000000
       21205000	      2119	8000166c	00000013	addi	x0,x0,0	  x0:0x00000000
       21215000	      2120	80001670	008000ef	jal	x1,80001670	  x1=0x80001670
       21225000	      2121	00000000	00000013	addi	x0,x0,0	  x0:0x00000000
       21235000	      2122	80001674	00000013	addi	x0,x0,0	  x0:0x00000000
       21245000	      2123	80001678	0480036f	jal	x6,80001678	  x6=0x80001678
       21255000	      2124	00000000	00000013	addi	x0,x0,0	  x0:0x00000000
       21265000	      2125	800016bc	00000013	addi	x0,x0,0	  x0:0x00000000
       21275000	      2126	800016c0	fd5ff0ef	jal	x1,800016c0	  x1=0x800016c0
       21285000	      2127	00000000	00000013	addi	x0,x0,0	  x0:0x00000000
       21295000	      2128	80001690	00000013	addi	x0,x0,0	  x0:0x00000000
       21305000	      2129	80001694	010000ef	jal	x1,80001694	  x1=0x80001694
       21315000	      2130	00000000	00000013	addi	x0,x0,0	  x0:0x00000000
       21325000	      2131	800016a0	00000013	addi	x0,x0,0	  x0:0x00000000
       21335000	      2132	800016a4	008000ef	jal	x1,800016a4	  x1=0x800016a4
       21345000	      2133	00000000	00000013	addi	x0,x0,0	  x0:0x00000000
       21355000	      2134	800016a8	00000013	addi	x0,x0,0	  x0:0x00000000
       21365000	      2135	800016ac	fb9ff0ef	jal	x1,800016ac	  x1=0x800016ac
       21375000	      2136	00000000	00000013	addi	x0,x0,0	  x0:0x00000000
       21385000	      2137	80001660	00000013	addi	x0,x0,0	  x0:0x00000000
       21395000	      2138	80001664	02c0036f	jal	x6,80001664	  x6=0x80001664
       21405000	      2139	00000000	00000013	addi	x0,x0,0	  x0:0x00000000
       21415000	      2140	8000168c	00000013	addi	x0,x0,0	  x0:0x00000000
       21425000	      2141	80001690	fd1ff26f	jal	x4,80001690	  x4=0x80001690
       21435000	      2142	00000000	00000013	addi	x0,x0,0	  x0:0x00000000
       21445000	      2143	8000165c	00000013	addi	x0,x0,0	  x0:0x00000000
       21455000	      2144	80001660	03c000ef	jal	x1,80001660	  x1=0x80001660
       21465000	      2145	00000000	00000013	addi	x0,x0,0	  x0:0x00000000
       21475000	      2146	80001698	00000013	addi	x0,x0,0	  x0:0x00000000
       21485000	      2147	8000169c	00c000ef	jal	x1,8000169c	  x1=0x8000169c
       21495000	      2148	00000000	00000013	addi	x0,x0,0	  x0:0x00000000
       21505000	      2149	800016a4	00000013	addi	x0,x0,0	  x0:0x00000000
       21515000	      2150	800016a8	fe1ff0ef	jal	x1,800016a8	  x1=0x800016a8
       21525000	      2151	00000000	00000013	addi	x0,x0,0	  x0:0x00000000
       21535000	      2152	80001684	00000013	addi	x0,x0,0	  x0:0x00000000
       21545000	      2153	80001688	03c0016f	jal	x2,80001688	  x2=0x80001688
       21555000	      2154	00000000	00000013	addi	x0,x0,0	  x0:0x00000000
       21565000	      2155	800016c0	00000013	addi	x0,x0,0	  x0:0x00000000
       21575000	      2156	800016c4	008005ef	jal	x11,800016c4	 x11=0x800016c4
       21585000	      2157	00000000	00000013	addi	x0,x0,0	  x0:0x00000000
       21595000	      2158	800016c8	00000013	addi	x0,x0,0	  x0:0x00000000
       21605000	      2159	800016cc	951db213	sltiu	x4,x27,-1711	 x27:0xffffff24  x4=0x00000000
       21615000	      2160	800016d0	01dc9b33	sll	x22,x25,x29	 x25:0x7fff62c9 x29:0x7a000000 x22=0x7fff62c9
       21625000	      2161	800016d4	13051237	lui	x4,0x13051	  x4=0x13051000
       21635000	      2162	800016d8	0193ceb3	xor	x29,x7,x25	  x7:0x00000000 x25:0x7fff62c9 x29=0x7fff62c9
       21645000	      2163	800016dc	651f0c13	addi	x24,x30,1617	 x30:0xfffffff8 x24=0x00000649
       21655000	      2164	800016e0	013d5a93	srli	x21,x26,0x13	 x26:0x00000001 x21=0x00000000
       21665000	      2165	800016e4	09737593	andi	x11,x6,151	  x6:0x80001664 x11=0x00000004
       21675000	      2166	800016e8	a1124d93	xori	x27,x4,-1519	  x4:0x13051000 x27=0xecfaea11
       21685000	      2167	800016ec	005d3d33	sltu	x26,x26,x5	 x26:0x00000001  x5:0x00000284 x26=0x00000001
       21695000	      2168	800016f0	000d9eb3	sll	x29,x27,x0	 x27:0xecfaea11  x0:0x00000000 x29=0xecfaea11
       21705000	      2169	800016f4	00af7333	and	x6,x30,x10	 x30:0xfffffff8 x10:0x00000001  x6=0x00000000
       21715000	      2170	800016f8	00f419b3	sll	x19,x8,x15	  x8:0x088154d8 x15:0x00000000 x19=0x088154d8
       21725000	      2171	800016fc	00e59813	slli	x16,x11,0xe	 x11:0x00000004 x16=0x00010000
       21735000	      2172	80001700	01dc5c33	srl	x24,x24,x29	 x24:0x00000649 x29:0xecfaea11 x24=0x00000000
       21745000	      2173	80001704	aaddcfb7	lui	x31,0xaaddc	 x31=0xaaddc000
       21755000	      2174	80001708	41d959b3	sra	x19,x18,x29	 x18:0x45c335ec x29:0xecfaea11 x19=0x000022e1
       21765000	      2175	8000170c	86623913	sltiu	x18,x4,-1946	  x4:0x13051000 x18=0x00000001
       21775000	      2176	80001710	f02f00b7	lui	x1,0xf02f0	  x1=0xf02f0000
       21785000	      2177	80001714	01f0dc93	srli	x25,x1,0x1f	  x1:0xf02f0000 x25=0x00000001
       21795000	      2178	80001718	0096a033	slt	x0,x13,x9	 x13:0x00000000  x9:0x0000002f
       21805000	      2179	8000171c	003ddeb3	srl	x29,x27,x3	 x27:0xecfaea11  x3:0x000002f4 x29=0x00000ecf
       21815000	      2180	80001720	23c9c613	xori	x12,x19,572	 x19:0x000022e1 x12=0x000020dd
       21825000	      2181	80001724	0180f7b3	and	x15,x1,x24	  x1:0xf02f0000 x24:0x00000000 x15=0x00000000
       21835000	      2182	80001728	009a8c63	beq	x21,x9,80001740	 x21:0x00000000  x9:0x0000002f
       21845000	      2183	8000172c	00f20e33	add	x28,x4,x15	  x4:0x13051000 x15:0x00000000 x28=0x13051000
       21855000	      2184	80001730	04141263	bne	x8,x1,80001774	  x8:0x088154d8  x1:0xf02f0000
       21865000	      2185	00000000	00000013	addi	x0,x0,0	  x0:0x00000000
       21875000	      2186	80001770	00000013	addi	x0,x0,0	  x0:0x00000000
       21885000	      2187	80001774	00309663	bne	x1,x3,80001780	  x1:0xf02f0000  x3:0x000002f4
       21895000	      2188	00000000	00000013	addi	x0,x0,0	  x0:0x00000000
       21905000	      2189	8000177c	00000013	addi	x0,x0,0	  x0:0x00000000
       21915000	      2190	80001780	32617817	auipc	x16,0x32617	 x16=0xb261877c
       21925000	      2191	80001784	02415263	bge	x2,x4,800017a8	  x2:0x80001688  x4:0x13051000
       21935000	      2192	80001788	03208c63	beq	x1,x18,800017c0	  x1:0xf02f0000 x18:0x00000001
       21945000	      2193	8000178c	04ac9063	bne	x25,x10,800017cc	 x25:0x00000001 x10:0x00000001
       21955000	      2194	80001790	0d5b3a93	sltiu	x21,x22,213	 x22:0x7fff62c9 x21=0x00000000
       21965000	      2195	80001794	00ce9c33	sll	x24,x29,x12	 x29:0x00000ecf x12:0x000020dd x24=0xe0000000
       21975000	      2196	80001798	00414e33	xor	x28,x2,x4	  x2:0x80001688  x4:0x13051000 x28=0x93050688
       21985000	      2197	8000179c	01e4dc13	srli	x24,x9,0x1e	  x9:0x0000002f x24=0x00000000
       21995000	      2198	800017a0	f294cf13	xori	x30,x9,-215	  x9:0x0000002f x30=0xffffff06
       22005000	      2199	800017a4	413a5833	sra	x16,x20,x19	 x20:0x000000db x19:0x000022e1 x16=0x0000006d
       22015000	      2200	800017a8	03f1f263	bgeu	x3,x31,800017cc	  x3:0x000002f4 x31:0xaaddc000
       22025000	      2201	800017ac	0029d863	bge	x19,x2,800017bc	 x19:0x000022e1  x2:0x80001688
       22035000	      2202	00000000	00000013	addi	x0,x0,0	  x0:0x00000000
       22045000	      2203	800017b8	00000013	addi	x0,x0,0	  x0:0x00000000
       22055000	      2204	800017bc	412b5813	srai	x16,x22,0x12	 x22:0x7fff62c9 x16=0x00001fff
       22065000	      2205	800017c0	c1e58593	addi	x11,x11,-994	 x11:0x00000004 x11=0xfffffc22
       22075000	      2206	800017c4	05949663	bne	x9,x25,80001810	  x9:0x0000002f x25:0x00000001
       22085000	      2207	00000000	00000013	addi	x0,x0,0	  x0:0x00000000
       22095000	      2208	8000180c	00000013	addi	x0,x0,0	  x0:0x00000000
       22105000	      2209	80001810	03130663	beq	x6,x17,8000183c	  x6:0x00000000 x17:0x80009fc4
       22115000	      2210	80001814	a8547113	andi	x2,x8,-1403	  x8:0x088154d8  x2=0x08815080
       22125000	      2211	80001818	410c89b3	sub	x19,x25,x16	 x25:0x00000001 x16:0x00001fff x19=0xffffe002
       22135000	      2212	8000181c	00485933	srl	x18,x16,x4	 x16:0x00001fff  x4:0x13051000 x18=0x00001fff
       22145000	      2213	80001820	407b8933	sub	x18,x23,x7	 x23:0x80009f64  x7:0x00000000 x18=0x80009f64
       22155000	      2214	80001824	412ede33	sra	x28,x29,x18	 x29:0x00000ecf x18:0x80009f64 x28=0x000000ec
       22165000	      2215	80001828	01082133	slt	x2,x16,x16	 x16:0x00001fff x16:0x00001fff  x2=0x00000000
       22175000	      2216	8000182c	0443f263	bgeu	x7,x4,80001870	  x7:0x00000000  x4:0x13051000
       22185000	      2217	80001830	01f4e233	or	x4,x9,x31	  x9:0x0000002f x31:0xaaddc000  x4=0xaaddc02f
       22195000	      2218	80001834	02a4d863	bge	x9,x10,80001864	  x9:0x0000002f x10:0x00000001
       22205000	      2219	00000000	00000013	addi	x0,x0,0	  x0:0x00000000
       22215000	      2220	80001860	00000013	addi	x0,x0,0	  x0:0x00000000
       22225000	      2221	80001864	41830a33	sub	x20,x6,x24	  x6:0x00000000 x24:0x00000000 x20=0x00000000
       22235000	      2222	80001868	4109d513	srai	x10,x19,0x10	 x19:0xffffe002 x10=0xffffffff
       22245000	      2223	8000186c	02d94863	blt	x18,x13,8000189c	 x18:0x80009f64 x13:0x00000000
       22255000	      2224	00000000	00000013	addi	x0,x0,0	  x0:0x00000000
       22265000	      2225	80001898	00000013	addi	x0,x0,0	  x0:0x00000000
       22275000	      2226	8000189c	00401113	slli	x2,x0,0x4	  x0:0x00000000  x2=0x00000000
       22285000	      2227	800018a0	003f1793	slli	x15,x30,0x3	 x30:0xffffff06 x15=0xfffff830
       22295000	      2228	800018a4	00000013	addi	x0,x0,0	  x0:0x00000000
       22305000	      2229	800018a8	4114dd33	sra	x26,x9,x17	  x9:0x0000002f x17:0x80009fc4 x26=0x00000002
       22315000	      2230	800018ac	01039493	slli	x9,x7,0x10	  x7:0x00000000  x9=0x00000000
       22325000	      2231	800018b0	01146263	bltu	x8,x17,800018b4	  x8:0x088154d8 x17:0x80009fc4
       22335000	      2232	00000000	00000013	addi	x0,x0,0	  x0:0x00000000
       22345000	      2233	800018b0	00000013	addi	x0,x0,0	  x0:0x00000000
       22355000	      2234	800018b4	f0930e93	addi	x29,x6,-247	  x6:0x00000000 x29=0xffffff09
       22365000	      2235	800018b8	705fa917	auipc	x18,0x705fa	 x18=0xf05fb8b4
       22375000	      2236	800018bc	022e4663	blt	x28,x2,800018e8	 x28:0x000000ec  x2:0x00000000
       22385000	      2237	800018c0	4102b213	sltiu	x4,x5,1040	  x5:0x00000284  x4=0x00000001
       22395000	      2238	800018c4	00663b33	sltu	x22,x12,x6	 x12:0x000020dd  x6:0x00000000 x22=0x00000000
       22405000	      2239	800018c8	001d8663	beq	x27,x1,800018d4	 x27:0xecfaea11  x1:0xf02f0000
       22415000	      2240	800018cc	eb1e4193	xori	x3,x28,-335	 x28:0x000000ec  x3=0xfffffe5d
       22425000	      2241	800018d0	01be9313	slli	x6,x29,0x1b	 x29:0xffffff09  x6=0x48000000
       22435000	      2242	800018d4	401a5313	srai	x6,x20,0x1	 x20:0x00000000  x6=0x00000000
       22445000	      2243	800018d8	044be663	bltu	x23,x4,80001924	 x23:0x80009f64  x4:0x00000001
       22455000	      2244	800018dc	f358a337	lui	x6,0xf358a	  x6=0xf358a000
       22465000	      2245	800018e0	6741e513	ori	x10,x3,1652	  x3:0xfffffe5d x10=0xfffffe7d
       22475000	      2246	800018e4	01428333	add	x6,x5,x20	  x5:0x00000284 x20:0x00000000  x6=0x00000284
       22485000	      2247	800018e8	00dfba33	sltu	x20,x31,x13	 x31:0xaaddc000 x13:0x00000000 x20=0x00000000
       22495000	      2248	800018ec	40bb5633	sra	x12,x22,x11	 x22:0x00000000 x11:0xfffffc22 x12=0x00000000
       22505000	      2249	800018f0	0435f263	bgeu	x11,x3,80001934	 x11:0xfffffc22  x3:0xfffffe5d
       22515000	      2250	800018f4	647fc013	xori	x0,x31,1607	 x31:0xaaddc000
       22525000	      2251	800018f8	005659b3	srl	x19,x12,x5	 x12:0x00000000  x5:0x00000284 x19=0x00000000
       22535000	      2252	800018fc	ded6c113	xori	x2,x13,-531	 x13:0x00000000  x2=0xfffffded
       22545000	      2253	80001900	0a0d0037	lui	x0,0xa0d0	
       22555000	      2254	80001904	f4236cb7	lui	x25,0xf4236	 x25=0xf4236000
       22565000	      2255	80001908	018f2db3	slt	x27,x30,x24	 x30:0xffffff06 x24:0x00000000 x27=0x00000001
       22575000	      2256	8000190c	eb1bc497	auipc	x9,0xeb1bc	  x9=0x6b1bd908
       22585000	      2257	80001910	005bc033	xor	x0,x23,x5	 x23:0x80009f64  x5:0x00000284
       22595000	      2258	80001914	a305b513	sltiu	x10,x11,-1488	 x11:0xfffffc22 x10=0x00000000
       22605000	      2259	80001918	000c7663	bgeu	x24,x0,80001924	 x24:0x00000000  x0:0x00000000
       22615000	      2260	00000000	00000013	addi	x0,x0,0	  x0:0x00000000
       22625000	      2261	80001920	00000013	addi	x0,x0,0	  x0:0x00000000
       22635000	      2262	80001924	04820263	beq	x4,x8,80001968	  x4:0x00000001  x8:0x088154d8
       22645000	      2263	80001928	41f4dd33	sra	x26,x9,x31	  x9:0x6b1bd908 x31:0xaaddc000 x26=0x6b1bd908
       22655000	      2264	8000192c	00d31a33	sll	x20,x6,x13	  x6:0x00000284 x13:0x00000000 x20=0x00000284
       22665000	      2265	80001930	80472113	slti	x2,x14,-2044	 x14:0x00000004  x2=0x00000000
       22675000	      2266	80001934	0125ee33	or	x28,x11,x18	 x11:0xfffffc22 x18:0xf05fb8b4 x28=0xfffffcb6
       22685000	      2267	80001938	0187e263	bltu	x15,x24,8000193c	 x15:0xfffff830 x24:0x00000000
       22695000	      2268	8000193c	0ecd7313	andi	x6,x26,236	 x26:0x6b1bd908  x6=0x00000008
       22705000	      2269	80001940	a28b6db7	lui	x27,0xa28b6	 x27=0xa28b6000
       22715000	      2270	80001944	4dc27a13	andi	x20,x4,1244	  x4:0x00000001 x20=0x00000000
       22725000	      2271	80001948	403a8cb3	sub	x25,x21,x3	 x21:0x00000000  x3:0xfffffe5d x25=0x000001a3
       22735000	      2272	8000194c	33f83fb7	lui	x31,0x33f83	 x31=0x33f83000
       22745000	      2273	80001950	00000013	addi	x0,x0,0	  x0:0x00000000
       22755000	      2274	80001954	025dd863	bge	x27,x5,80001984	 x27:0xa28b6000  x5:0x00000284
       22765000	      2275	80001958	00000013	addi	x0,x0,0	  x0:0x00000000
       22775000	      2276	8000195c	00ed0463	beq	x26,x14,80001964	 x26:0x6b1bd908 x14:0x00000004
       22785000	      2277	80001960	4076d833	sra	x16,x13,x7	 x13:0x00000000  x7:0x00000000 x16=0x00000000
       22795000	      2278	80001964	004ea4b3	slt	x9,x29,x4	 x29:0xffffff09  x4:0x00000001  x9=0x00000001
       22805000	      2279	80001968	000afe33	and	x28,x21,x0	 x21:0x00000000  x0:0x00000000 x28=0x00000000
       22815000	      2280	8000196c	f5296e93	ori	x29,x18,-174	 x18:0xf05fb8b4 x29=0xfffffff6
       22825000	      2281	80001970	00de5e63	bge	x28,x13,8000198c	 x28:0x00000000 x13:0x00000000
       22835000	      2282	00000000	00000013	addi	x0,x0,0	  x0:0x00000000
       22845000	      2283	80001988	00000013	addi	x0,x0,0	  x0:0x00000000
       22855000	      2284	8000198c	00fde033	or	x0,x27,x15	 x27:0xa28b6000 x15:0xfffff830
       22865000	      2285	80001990	131bffb7	lui	x31,0x131bf	 x31=0x131bf000
       22875000	      2286	80001994	397ea213	slti	x4,x29,919	 x29:0xfffffff6  x4=0x00000001
       22885000	      2287	80001998	40dcde33	sra	x28,x25,x13	 x25:0x000001a3 x13:0x00000000 x28=0x000001a3
       22895000	      2288	8000199c	015744b3	xor	x9,x14,x21	 x14:0x00000004 x21:0x00000000  x9=0x00000004
       22905000	      2289	800019a0	cb150813	addi	x16,x10,-847	 x10:0x00000000 x16=0xfffffcb1
       22915000	      2290	800019a4	004e5933	srl	x18,x28,x4	 x28:0x000001a3  x4:0x00000001 x18=0x000000d1
       22925000	      2291	800019a8	19a26693	ori	x13,x4,410	  x4:0x00000001 x13=0x0000019b
       22935000	      2292	800019ac	00afac33	slt	x24,x31,x10	 x31:0x131bf000 x10:0x00000000 x24=0x00000000
       22945000	      2293	800019b0	01823eb3	sltu	x29,x4,x24	  x4:0x00000001 x24:0x00000000 x29=0x00000000
       22955000	      2294	800019b4	041c4663	blt	x24,x1,80001a00	 x24:0x00000000  x1:0xf02f0000
       22965000	      2295	800019b8	00339613	slli	x12,x7,0x3	  x7:0x00000000 x12=0x00000000
       22975000	      2296	800019bc	01031c13	slli	x24,x6,0x10	  x6:0x00000008 x24=0x00080000
       22985000	      2297	800019c0	04bc6063	bltu	x24,x11,80001a00	 x24:0x00080000 x11:0xfffffc22
       22995000	      2298	00000000	00000013	addi	x0,x0,0	  x0:0x00000000
       23005000	      2299	800019fc	00000013	addi	x0,x0,0	  x0:0x00000000
       23015000	      2300	80001a00	0090dc63	bge	x1,x9,80001a18	  x1:0xf02f0000  x9:0x00000004
       23025000	      2301	80001a04	00e4dd33	srl	x26,x9,x14	  x9:0x00000004 x14:0x00000004 x26=0x00000000
       23035000	      2302	80001a08	037f6663	bltu	x30,x23,80001a34	 x30:0xffffff06 x23:0x80009f64
       23045000	      2303	80001a0c	e2922597	auipc	x11,0xe2922	 x11=0x62923a08
       23055000	      2304	80001a10	00f87133	and	x2,x16,x15	 x16:0xfffffcb1 x15:0xfffff830  x2=0xfffff830
       23065000	      2305	80001a14	f3b8ad37	lui	x26,0xf3b8a	 x26=0xf3b8a000
       23075000	      2306	80001a18	790d8693	addi	x13,x27,1936	 x27:0xa28b6000 x13=0xa28b6790
       23085000	      2307	80001a1c	007bb533	sltu	x10,x23,x7	 x23:0x80009f64  x7:0x00000000 x10=0x00000000
       23095000	      2308	80001a20	01a6c863	blt	x13,x26,80001a30	 x13:0xa28b6790 x26:0xf3b8a000
       23105000	      2309	00000000	00000013	addi	x0,x0,0	  x0:0x00000000
       23115000	      2310	80001a2c	00000013	addi	x0,x0,0	  x0:0x00000000
       23125000	      2311	80001a30	f6f8c013	xori	x0,x17,-145	 x17:0x80009fc4
       23135000	      2312	80001a34	00309593	slli	x11,x1,0x3	  x1:0xf02f0000 x11=0x81780000
       23145000	      2313	80001a38	0345d863	bge	x11,x20,80001a68	 x11:0x81780000 x20:0x00000000
       23155000	      2314	80001a3c	002fb533	sltu	x10,x31,x2	 x31:0x131bf000  x2:0xfffff830 x10=0x00000001
       23165000	      2315	80001a40	415c59b3	sra	x19,x24,x21	 x24:0x00080000 x21:0x00000000 x19=0x00080000
       23175000	      2316	80001a44	018c9933	sll	x18,x25,x24	 x25:0x000001a3 x24:0x00080000 x18=0x000001a3
       23185000	      2317	80001a48	41a7d233	sra	x4,x15,x26	 x15:0xfffff830 x26:0xf3b8a000  x4=0xfffff830
       23195000	      2318	80001a4c	419005b3	sub	x11,x0,x25	  x0:0x00000000 x25:0x000001a3 x11=0xfffffe5d
       23205000	      2319	80001a50	8ef46e13	ori	x28,x8,-1809	  x8:0x088154d8 x28=0xfffffcff
       23215000	      2320	80001a54	01968a33	add	x20,x13,x25	 x13:0xa28b6790 x25:0x000001a3 x20=0xa28b6933
       23225000	      2321	80001a58	01d81b33	sll	x22,x16,x29	 x16:0xfffffcb1 x29:0x00000000 x22=0xfffffcb1
       23235000	      2322	80001a5c	4183f817	auipc	x16,0x4183f	 x16=0xc1840a58
       23245000	      2323	80001a60	00b07b33	and	x22,x0,x11	  x0:0x00000000 x11:0xfffffe5d x22=0x00000000
       23255000	      2324	80001a64	05387263	bgeu	x16,x19,80001aa8	 x16:0xc1840a58 x19:0x00080000
       23265000	      2325	00000000	00000013	addi	x0,x0,0	  x0:0x00000000
       23275000	      2326	80001aa4	00000013	addi	x0,x0,0	  x0:0x00000000
       23285000	      2327	80001aa8	550893b7	lui	x7,0x55089	  x7=0x55089000
       23295000	      2328	80001aac	00ff2633	slt	x12,x30,x15	 x30:0xffffff06 x15:0xfffff830 x12=0x00000000
       23305000	      2329	80001ab0	5a1eb613	sltiu	x12,x29,1441	 x29:0x00000000 x12=0x00000001
       23315000	      2330	80001ab4	01ec54b3	srl	x9,x24,x30	 x24:0x00080000 x30:0xffffff06  x9=0x00002000
       23325000	      2331	80001ab8	00e36463	bltu	x6,x14,80001ac0	  x6:0x00000008 x14:0x00000004
       23335000	      2332	80001abc	01e20333	add	x6,x4,x30	  x4:0xfffff830 x30:0xffffff06  x6=0xfffff736
       23345000	      2333	80001ac0	04b9e263	bltu	x19,x11,80001b04	 x19:0x00080000 x11:0xfffffe5d
       23355000	      2334	00000000	00000013	addi	x0,x0,0	  x0:0x00000000
       23365000	      2335	80001b00	00000013	addi	x0,x0,0	  x0:0x00000000
       23375000	      2336	80001b04	0162aa33	slt	x20,x5,x22	  x5:0x00000284 x22:0x00000000 x20=0x00000000
       23385000	      2337	80001b08	01ab9a93	slli	x21,x23,0x1a	 x23:0x80009f64 x21=0x90000000
       23395000	      2338	80001b0c	03998263	beq	x19,x25,80001b30	 x19:0x00080000 x25:0x000001a3
       23405000	      2339	80001b10	017860b3	or	x1,x16,x23	 x16:0xc1840a58 x23:0x80009f64  x1=0xc1849f7c
       23415000	      2340	80001b14	011e0463	beq	x28,x17,80001b1c	 x28:0xfffffcff x17:0x80009fc4
       23425000	      2341	80001b18	950c4d93	xori	x27,x24,-1712	 x24:0x00080000 x27=0xfff7f950
       23435000	      2342	80001b1c	ecd8ed93	ori	x27,x17,-307	 x17:0x80009fc4 x27=0xffffffcd
       23445000	      2343	80001b20	40d65133	sra	x2,x12,x13	 x12:0x00000001 x13:0xa28b6790  x2=0x00000000
       23455000	      2344	80001b24	01dbc433	xor	x8,x23,x29	 x23:0x80009f64 x29:0x00000000  x8=0x80009f64
       23465000	      2345	80001b28	00000013	addi	x0,x0,0	  x0:0x00000000
       23475000	      2346	80001b2c	128f7593	andi	x11,x30,296	 x30:0xffffff06 x11=0x00000100
       23485000	      2347	80001b30	011ed133	srl	x2,x29,x17	 x29:0x00000000 x17:0x80009fc4  x2=0x00000000
       23495000	      2348	80001b34	000d9413	slli	x8,x27,0x0	 x27:0xffffffcd  x8=0xffffffcd
       23505000	      2349	80001b38	004bcfb3	xor	x31,x23,x4	 x23:0x80009f64  x4:0xfffff830 x31=0x7fff6754
       23515000	      2350	80001b3c	bd042a13	slti	x20,x8,-1072	  x8:0xffffffcd x20=0x00000000
       23525000	      2351	80001b40	03a11263	bne	x2,x26,80001b64	  x2:0x00000000 x26:0xf3b8a000
       23535000	      2352	00000000	00000013	addi	x0,x0,0	  x0:0x00000000
       23545000	      2353	80001b60	00000013	addi	x0,x0,0	  x0:0x00000000
       23555000	      2354	80001b64	d483a593	slti	x11,x7,-696	  x7:0x55089000 x11=0x00000000
       23565000	      2355	80001b68	5dcf2913	slti	x18,x30,1500	 x30:0xffffff06 x18=0x00000001
       23575000	      2356	80001b6c	01a86ab3	or	x21,x16,x26	 x16:0xc1840a58 x26:0xf3b8a000 x21=0xf3bcaa58
       23585000	      2357	80001b70	0082afb3	slt	x31,x5,x8	  x5:0x00000284  x8:0xffffffcd x31=0x00000000
       23595000	      2358	80001b74	03950663	beq	x10,x25,80001ba0	 x10:0x00000001 x25:0x000001a3
       23605000	      2359	80001b78	362ef6b7	lui	x13,0x362ef	 x13=0x362ef000
       23615000	      2360	80001b7c	91d46613	ori	x12,x8,-1763	  x8:0xffffffcd x12=0xffffffdd
       23625000	      2361	80001b80	05527663	bgeu	x4,x21,80001bcc	  x4:0xfffff830 x21:0xf3bcaa58
       23635000	      2362	00000000	00000013	addi	x0,x0,0	  x0:0x00000000
       23645000	      2363	80001bc8	00000013	addi	x0,x0,0	  x0:0x00000000
       23655000	      2364	80001bcc	018026b3	slt	x13,x0,x24	  x0:0x00000000 x24:0x00080000 x13=0x00000001
       23665000	      2365	80001bd0	032b8263	beq	x23,x18,80001bf4	 x23:0x80009f64 x18:0x00000001
       23675000	      2366	80001bd4	02697863	bgeu	x18,x6,80001c04	 x18:0x00000001  x6:0xfffff736
       23685000	      2367	80001bd8	016603b3	add	x7,x12,x22	 x12:0xffffffdd x22:0x00000000  x7=0xffffffdd
       23695000	      2368	80001bdc	00fa0f33	add	x30,x20,x15	 x20:0x00000000 x15:0xfffff830 x30=0xfffff830
       23705000	      2369	80001be0	85250f93	addi	x31,x10,-1966	 x10:0x00000001 x31=0xfffff853
       23715000	      2370	80001be4	01d4cf33	xor	x30,x9,x29	  x9:0x00002000 x29:0x00000000 x30=0x00002000
       23725000	      2371	80001be8	c387ce97	auipc	x29,0xc387c	 x29=0x4387dbe4
       23735000	      2372	80001bec	0144f663	bgeu	x9,x20,80001bf8	  x9:0x00002000 x20:0x00000000
       23745000	      2373	00000000	00000013	addi	x0,x0,0	  x0:0x00000000
       23755000	      2374	80001bf4	00000013	addi	x0,x0,0	  x0:0x00000000
       23765000	      2375	80001bf8	01d5e263	bltu	x11,x29,80001bfc	 x11:0x00000000 x29:0x4387dbe4
       23775000	      2376	00000000	00000013	addi	x0,x0,0	  x0:0x00000000
       23785000	      2377	80001bf8	00000013	addi	x0,x0,0	  x0:0x00000000
       23795000	      2378	80001bfc	0102fd33	and	x26,x5,x16	  x5:0x00000284 x16:0xc1840a58 x26=0x00000200
       23805000	      2379	80001c00	7bf7ec13	ori	x24,x15,1983	 x15:0xfffff830 x24=0xffffffbf
       23815000	      2380	80001c04	05b4d263	bge	x9,x27,80001c48	  x9:0x00002000 x27:0xffffffcd
       23825000	      2381	00000000	00000013	addi	x0,x0,0	  x0:0x00000000
       23835000	      2382	80001c44	00000013	addi	x0,x0,0	  x0:0x00000000
       23845000	      2383	80001c48	01919f93	slli	x31,x3,0x19	  x3:0xfffffe5d x31=0xba000000
       23855000	      2384	80001c4c	014dba33	sltu	x20,x27,x20	 x27:0xffffffcd x20:0x00000000 x20=0x00000000
       23865000	      2385	80001c50	012c06b3	add	x13,x24,x18	 x24:0xffffffbf x18:0x00000001 x13=0xffffffc0
       23875000	      2386	80001c54	0112b833	sltu	x16,x5,x17	  x5:0x00000284 x17:0x80009fc4 x16=0x00000001
       23885000	      2387	80001c58	01b24c63	blt	x4,x27,80001c70	  x4:0xfffff830 x27:0xffffffcd
       23895000	      2388	00000000	00000013	addi	x0,x0,0	  x0:0x00000000
       23905000	      2389	80001c6c	00000013	addi	x0,x0,0	  x0:0x00000000
       23915000	      2390	80001c70	00acf3b3	and	x7,x25,x10	 x25:0x000001a3 x10:0x00000001  x7=0x00000001
       23925000	      2391	80001c74	0186fb33	and	x22,x13,x24	 x13:0xffffffc0 x24:0xffffffbf x22=0xffffff80
       23935000	      2392	80001c78	5af4cb13	xori	x22,x9,1455	  x9:0x00002000 x22=0x000025af
       23945000	      2393	80001c7c	3550a793	slti	x15,x1,853	  x1:0xc1849f7c x15=0x00000001
       23955000	      2394	80001c80	86cc2a13	slti	x20,x24,-1940	 x24:0xffffffbf x20=0x00000000
       23965000	      2395	80001c84	05d9f263	bgeu	x19,x29,80001cc8	 x19:0x00080000 x29:0x4387dbe4
       23975000	      2396	80001c88	4bd74913	xori	x18,x14,1213	 x14:0x00000004 x18=0x000004b9
       23985000	      2397	80001c8c	0288e863	bltu	x17,x8,80001cbc	 x17:0x80009fc4  x8:0xffffffcd
       23995000	      2398	00000000	00000013	addi	x0,x0,0	  x0:0x00000000
       24005000	      2399	80001cb8	00000013	addi	x0,x0,0	  x0:0x00000000
       24015000	      2400	80001cbc	e8c6ce93	xori	x29,x13,-372	 x13:0xffffffc0 x29=0x0000014c
       24025000	      2401	80001cc0	c814b113	sltiu	x2,x9,-895	  x9:0x00002000  x2=0x00000001
       24035000	      2402	80001cc4	4120d933	sra	x18,x1,x18	  x1:0xc1849f7c x18:0x000004b9 x18=0xffffffe0
       24045000	      2403	80001cc8	018782b3	add	x5,x15,x24	 x15:0x00000001 x24:0xffffffbf  x5=0xffffffc0
       24055000	      2404	80001ccc	00000013	addi	x0,x0,0	  x0:0x00000000
       24065000	      2405	80001cd0	405fd7b3	sra	x15,x31,x5	 x31:0xba000000  x5:0xffffffc0 x15=0xba000000
       24075000	      2406	80001cd4	019ffb33	and	x22,x31,x25	 x31:0xba000000 x25:0x000001a3 x22=0x00000000
       24085000	      2407	80001cd8	f9cb2193	slti	x3,x22,-100	 x22:0x00000000  x3=0x00000000
       24095000	      2408	80001cdc	00c0e463	bltu	x1,x12,80001ce4	  x1:0xc1849f7c x12:0xffffffdd
       24105000	      2409	00000000	00000013	addi	x0,x0,0	  x0:0x00000000
       24115000	      2410	80001ce0	00000013	addi	x0,x0,0	  x0:0x00000000
       24125000	      2411	80001ce4	04098063	beq	x19,x0,80001d24	 x19:0x00080000  x0:0x00000000
       24135000	      2412	80001ce8	02a1e863	bltu	x3,x10,80001d18	  x3:0x00000000 x10:0x00000001
       24145000	      2413	00000000	00000013	addi	x0,x0,0	  x0:0x00000000
       24155000	      2414	80001d14	00000013	addi	x0,x0,0	  x0:0x00000000
       24165000	      2415	80001d18	00c1ddb3	srl	x27,x3,x12	  x3:0x00000000 x12:0xffffffdd x27=0x00000000
       24175000	      2416	80001d1c	40b25f13	srai	x30,x4,0xb	  x4:0xfffff830 x30=0xffffffff
       24185000	      2417	80001d20	05a8e263	bltu	x17,x26,80001d64	 x17:0x80009fc4 x26:0x00000200
       24195000	      2418	80001d24	006c3033	sltu	x0,x24,x6	 x24:0xffffffbf  x6:0xfffff736
       24205000	      2419	80001d28	ca79ae37	lui	x28,0xca79a	 x28=0xca79a000
       24215000	      2420	80001d2c	41b28533	sub	x10,x5,x27	  x5:0xffffffc0 x27:0x00000000 x10=0xffffffc0
       24225000	      2421	80001d30	01f85863	bge	x16,x31,80001d40	 x16:0x00000001 x31:0xba000000
       24235000	      2422	00000000	00000013	addi	x0,x0,0	  x0:0x00000000
       24245000	      2423	80001d3c	00000013	addi	x0,x0,0	  x0:0x00000000
       24255000	      2424	80001d40	05c88063	beq	x17,x28,80001d80	 x17:0x80009fc4 x28:0xca79a000
       24265000	      2425	80001d44	00b09a13	slli	x20,x1,0xb	  x1:0xc1849f7c x20=0x24fbe000
       24275000	      2426	80001d48	01b1f4b3	and	x9,x3,x27	  x3:0x00000000 x27:0x00000000  x9=0x00000000
       24285000	      2427	80001d4c	01698833	add	x16,x19,x22	 x19:0x00080000 x22:0x00000000 x16=0x00080000
       24295000	      2428	80001d50	1d077d13	andi	x26,x14,464	 x14:0x00000004 x26=0x00000000
       24305000	      2429	80001d54	00000013	addi	x0,x0,0	  x0:0x00000000
       24315000	      2430	80001d58	4022d993	srai	x19,x5,0x2	  x5:0xffffffc0 x19=0xfffffff0
       24325000	      2431	80001d5c	00b7c833	xor	x16,x15,x11	 x15:0xba000000 x11:0x00000000 x16=0xba000000
       24335000	      2432	80001d60	59d3f013	andi	x0,x7,1437	  x7:0x00000001
       24345000	      2433	80001d64	2230b1b7	lui	x3,0x2230b	  x3=0x2230b000
       24355000	      2434	80001d68	021ff263	bgeu	x31,x1,80001d8c	 x31:0xba000000  x1:0xc1849f7c
       24365000	      2435	80001d6c	f1294f93	xori	x31,x18,-238	 x18:0xffffffe0 x31=0x000000f2
       24375000	      2436	80001d70	00825c13	srli	x24,x4,0x8	  x4:0xfffff830 x24=0x00fffff8
       24385000	      2437	80001d74	40385833	sra	x16,x16,x3	 x16:0xba000000  x3:0x2230b000 x16=0xba000000
       24395000	      2438	80001d78	05d69663	bne	x13,x29,80001dc4	 x13:0xffffffc0 x29:0x0000014c
       24405000	      2439	00000000	00000013	addi	x0,x0,0	  x0:0x00000000
       24415000	      2440	80001dc0	00000013	addi	x0,x0,0	  x0:0x00000000
       24425000	      2441	80001dc4	407fdc93	srai	x25,x31,0x7	 x31:0x000000f2 x25=0x00000001
       24435000	      2442	80001dc8	01cc12b3	sll	x5,x24,x28	 x24:0x00fffff8 x28:0xca79a000  x5=0x00fffff8
       24445000	      2443	80001dcc	02117c63	bgeu	x2,x1,80001e04	  x2:0x00000001  x1:0xc1849f7c
       24455000	      2444	80001dd0	01262fb3	slt	x31,x12,x18	 x12:0xffffffdd x18:0xffffffe0 x31=0x00000001
       24465000	      2445	80001dd4	5804f237	lui	x4,0x5804f	  x4=0x5804f000
       24475000	      2446	80001dd8	5ade8193	addi	x3,x29,1453	 x29:0x0000014c  x3=0x000006f9
       24485000	      2447	80001ddc	0138e133	or	x2,x17,x19	 x17:0x80009fc4 x19:0xfffffff0  x2=0xfffffff4
       24495000	      2448	80001de0	00a4c7b3	xor	x15,x9,x10	  x9:0x00000000 x10:0xffffffc0 x15=0xffffffc0
       24505000	      2449	80001de4	005252b3	srl	x5,x4,x5	  x4:0x5804f000  x5:0x00fffff8  x5=0x00000058
       24515000	      2450	80001de8	018fd3b3	srl	x7,x31,x24	 x31:0x00000001 x24:0x00fffff8  x7=0x00000000
       24525000	      2451	80001dec	012d7e63	bgeu	x26,x18,80001e08	 x26:0x00000000 x18:0xffffffe0
       24535000	      2452	80001df0	00a806b3	add	x13,x16,x10	 x16:0xba000000 x10:0xffffffc0 x13=0xb9ffffc0
       24545000	      2453	80001df4	019a9313	slli	x6,x21,0x19	 x21:0xf3bcaa58  x6=0xb0000000
       24555000	      2454	80001df8	018d8863	beq	x27,x24,80001e08	 x27:0x00000000 x24:0x00fffff8
       24565000	      2455	80001dfc	013336b3	sltu	x13,x6,x19	  x6:0xb0000000 x19:0xfffffff0 x13=0x00000001
       24575000	      2456	80001e00	81534c13	xori	x24,x6,-2027	  x6:0xb0000000 x24=0x4ffff815
       24585000	      2457	80001e04	00ab5313	srli	x6,x22,0xa	 x22:0x00000000  x6=0x00000000
       24595000	      2458	80001e08	01aa11b3	sll	x3,x20,x26	 x20:0x24fbe000 x26:0x00000000  x3=0x24fbe000
       24605000	      2459	80001e0c	00000013	addi	x0,x0,0	  x0:0x00000000
       24615000	      2460	80001e10	4153d593	srai	x11,x7,0x15	  x7:0x00000000 x11=0x00000000
       24625000	      2461	80001e14	001d1cb3	sll	x25,x26,x1	 x26:0x00000000  x1:0xc1849f7c x25=0x00000000
       24635000	      2462	80001e18	a0c0af93	slti	x31,x1,-1524	  x1:0xc1849f7c x31=0x00000001
       24645000	      2463	80001e1c	da0aa593	slti	x11,x21,-608	 x21:0xf3bcaa58 x11=0x00000001
       24655000	      2464	80001e20	00000013	addi	x0,x0,0	  x0:0x00000000
       24665000	      2465	80001e24	00000013	addi	x0,x0,0	  x0:0x00000000
       24675000	      2466	80001e28	00000013	addi	x0,x0,0	  x0:0x00000000
       24685000	      2467	80001e2c	36f1f493	andi	x9,x3,879	  x3:0x24fbe000  x9=0x00000000
       24695000	      2468	80001e30	01e46533	or	x10,x8,x30	  x8:0xffffffcd x30:0xffffffff x10=0xffffffff
       24705000	      2469	80001e34	01311e33	sll	x28,x2,x19	  x2:0xfffffff4 x19:0xfffffff0 x28=0xfff40000
       24715000	      2470	80001e38	04ed8663	beq	x27,x14,80001e84	 x27:0x00000000 x14:0x00000004
       24725000	      2471	80001e3c	41370a33	sub	x20,x14,x19	 x14:0x00000004 x19:0xfffffff0 x20=0x00000014
       24735000	      2472	80001e40	933a9e17	auipc	x28,0x933a9	 x28=0x133aae3c
       24745000	      2473	80001e44	ed4e0613	addi	x12,x28,-300	 x28:0x133aae3c x12=0x133aad10
       24755000	      2474	80001e48	01893c33	sltu	x24,x18,x24	 x18:0xffffffe0 x24:0x4ffff815 x24=0x00000000
       24765000	      2475	80001e4c	40bf8433	sub	x8,x31,x11	 x31:0x00000001 x11:0x00000001  x8=0x00000000
       24775000	      2476	80001e50	fe8d0997	auipc	x19,0xfe8d0	 x19=0x7e8d1e4c
       24785000	      2477	80001e54	006ebf33	sltu	x30,x29,x6	 x29:0x0000014c  x6:0x00000000 x30=0x00000000
       24795000	      2478	80001e58	01a65863	bge	x12,x26,80001e68	 x12:0x133aad10 x26:0x00000000
       24805000	      2479	00000000	00000013	addi	x0,x0,0	  x0:0x00000000
       24815000	      2480	80001e64	00000013	addi	x0,x0,0	  x0:0x00000000
       24825000	      2481	80001e68	004aaf33	slt	x30,x21,x4	 x21:0xf3bcaa58  x4:0x5804f000 x30=0x00000001
       24835000	      2482	80001e6c	b1084b13	xori	x22,x16,-1264	 x16:0xba000000 x22=0x45fffb10
       24845000	      2483	80001e70	01041913	slli	x18,x8,0x10	  x8:0x00000000 x18=0x00000000
       24855000	      2484	80001e74	0034dd93	srli	x27,x9,0x3	  x9:0x00000000 x27=0x00000000
       24865000	      2485	80001e78	407cd393	srai	x7,x25,0x7	 x25:0x00000000  x7=0x00000000
       24875000	      2486	80001e7c	e2287937	lui	x18,0xe2287	 x18=0xe2287000
       24885000	      2487	80001e80	007f4933	xor	x18,x30,x7	 x30:0x00000001  x7:0x00000000 x18=0x00000001
       24895000	      2488	80001e84	005ed7b3	srl	x15,x29,x5	 x29:0x0000014c  x5:0x00000058 x15=0x00000000
       24905000	      2489	80001e88	d737ce93	xori	x29,x15,-653	 x15:0x00000000 x29=0xfffffd73
       24915000	      2490	80001e8c	00377eb3	and	x29,x14,x3	 x14:0x00000004  x3:0x24fbe000 x29=0x00000000
       24925000	      2491	80001e90	409a89b3	sub	x19,x21,x9	 x21:0xf3bcaa58  x9:0x00000000 x19=0xf3bcaa58
       24935000	      2492	80001e94	e99e8513	addi	x10,x29,-359	 x29:0x00000000 x10=0xfffffe99
       24945000	      2493	80001e98	7f2aa093	slti	x1,x21,2034	 x21:0xf3bcaa58  x1=0x00000001
       24955000	      2494	80001e9c	0061c0b3	xor	x1,x3,x6	  x3:0x24fbe000  x6:0x00000000  x1=0x24fbe000
       24965000	      2495	80001ea0	01bdc633	xor	x12,x27,x27	 x27:0x00000000 x27:0x00000000 x12=0x00000000
       24975000	      2496	80001ea4	d889e213	ori	x4,x19,-632	 x19:0xf3bcaa58  x4=0xffffffd8
       24985000	      2497	80001ea8	60fe2a13	slti	x20,x28,1551	 x28:0x133aae3c x20=0x00000000
       24995000	      2498	80001eac	05015063	bge	x2,x16,80001eec	  x2:0xfffffff4 x16:0xba000000
       25005000	      2499	00000000	00000013	addi	x0,x0,0	  x0:0x00000000
       25015000	      2500	80001ee8	00000013	addi	x0,x0,0	  x0:0x00000000
       25025000	      2501	80001eec	40708cb3	sub	x25,x1,x7	  x1:0x24fbe000  x7:0x00000000 x25=0x24fbe000
       25035000	      2502	80001ef0	d1d67693	andi	x13,x12,-739	 x12:0x00000000 x13=0x00000000
       25045000	      2503	80001ef4	0122ed33	or	x26,x5,x18	  x5:0x00000058 x18:0x00000001 x26=0x00000059
       25055000	      2504	80001ef8	f9b7e313	ori	x6,x15,-101	 x15:0x00000000  x6=0xffffff9b
       25065000	      2505	80001efc	01e59433	sll	x8,x11,x30	 x11:0x00000001 x30:0x00000001  x8=0x00000002
       25075000	      2506	80001f00	05629263	bne	x5,x22,80001f44	  x5:0x00000058 x22:0x45fffb10
       25085000	      2507	00000000	00000013	addi	x0,x0,0	  x0:0x00000000
       25095000	      2508	80001f40	00000013	addi	x0,x0,0	  x0:0x00000000
       25105000	      2509	80001f44	03716263	bltu	x2,x23,80001f68	  x2:0xfffffff4 x23:0x80009f64
       25115000	      2510	80001f48	04c48263	beq	x9,x12,80001f8c	  x9:0x00000000 x12:0x00000000
       25125000	      2511	00000000	00000013	addi	x0,x0,0	  x0:0x00000000
       25135000	      2512	80001f88	00000013	addi	x0,x0,0	  x0:0x00000000
       25145000	      2513	80001f8c	01c7f663	bgeu	x15,x28,80001f98	 x15:0x00000000 x28:0x133aae3c
       25155000	      2514	80001f90	b0c42113	slti	x2,x8,-1268	  x8:0x00000002  x2=0x00000000
       25165000	      2515	80001f94	0052d093	srli	x1,x5,0x5	  x5:0x00000058  x1=0x00000002
       25175000	      2516	80001f98	41bb0d33	sub	x26,x22,x27	 x22:0x45fffb10 x27:0x00000000 x26=0x45fffb10
       25185000	      2517	80001f9c	03380263	beq	x16,x19,80001fc0	 x16:0xba000000 x19:0xf3bcaa58
       25195000	      2518	80001fa0	41e75513	srai	x10,x14,0x1e	 x14:0x00000004 x10=0x00000000
       25205000	      2519	80001fa4	417055b3	sra	x11,x0,x23	  x0:0x00000000 x23:0x80009f64 x11=0x00000000
       25215000	      2520	80001fa8	010f0e33	add	x28,x30,x16	 x30:0x00000001 x16:0xba000000 x28=0xba000001
       25225000	      2521	80001fac	b6cad697	auipc	x13,0xb6cad	 x13=0x36caefa8
       25235000	      2522	80001fb0	05f4d263	bge	x9,x31,80001ff4	  x9:0x00000000 x31:0x00000001
       25245000	      2523	80001fb4	a689f513	andi	x10,x19,-1432	 x19:0xf3bcaa58 x10=0xf3bcaa48
       25255000	      2524	80001fb8	00000013	addi	x0,x0,0	  x0:0x00000000
       25265000	      2525	80001fbc	01ff7263	bgeu	x30,x31,80001fc0	 x30:0x00000001 x31:0x00000001
       25275000	      2526	00000000	00000013	addi	x0,x0,0	  x0:0x00000000
       25285000	      2527	80001fbc	00000013	addi	x0,x0,0	  x0:0x00000000
       25295000	      2528	80001fc0	018f9a33	sll	x20,x31,x24	 x31:0x00000001 x24:0x00000000 x20=0x00000001
       25305000	      2529	80001fc4	41b0d033	sra	x0,x1,x27	  x1:0x00000002 x27:0x00000000
       25315000	      2530	80001fc8	05a74663	blt	x14,x26,80002014	 x14:0x00000004 x26:0x45fffb10
       25325000	      2531	00000000	00000013	addi	x0,x0,0	  x0:0x00000000
       25335000	      2532	80002010	00000013	addi	x0,x0,0	  x0:0x00000000
       25345000	      2533	80002014	00605a93	srli	x21,x0,0x6	  x0:0x00000000 x21=0x00000000
       25355000	      2534	80002018	253b0793	addi	x15,x22,595	 x22:0x45fffb10 x15=0x45fffd63
       25365000	      2535	8000201c	e998fc93	andi	x25,x17,-359	 x17:0x80009fc4 x25=0x80009e80
       25375000	      2536	80002020	baf40913	addi	x18,x8,-1105	  x8:0x00000002 x18=0xfffffbb1
       25385000	      2537	80002024	01878a33	add	x20,x15,x24	 x15:0x45fffd63 x24:0x00000000 x20=0x45fffd63
       25395000	      2538	80002028	004b23b3	slt	x7,x22,x4	 x22:0x45fffb10  x4:0xffffffd8  x7=0x00000000
       25405000	      2539	8000202c	0089afb3	slt	x31,x19,x8	 x19:0xf3bcaa58  x8:0x00000002 x31=0x00000001
       25415000	      2540	80002030	054af263	bgeu	x21,x20,80002074	 x21:0x00000000 x20:0x45fffd63
       25425000	      2541	80002034	00d3de33	srl	x28,x7,x13	  x7:0x00000000 x13:0x36caefa8 x28=0x00000000
       25435000	      2542	80002038	005df463	bgeu	x27,x5,80002040	 x27:0x00000000  x5:0x00000058
       25445000	      2543	8000203c	00000013	addi	x0,x0,0	  x0:0x00000000
       25455000	      2544	80002040	41dc5613	srai	x12,x24,0x1d	 x24:0x00000000 x12=0x00000000
       25465000	      2545	80002044	00aed033	srl	x0,x29,x10	 x29:0x00000000 x10:0xf3bcaa48
       25475000	      2546	80002048	41a58533	sub	x10,x11,x26	 x11:0x00000000 x26:0x45fffb10 x10=0xba0004f0
       25485000	      2547	8000204c	1fafb397	auipc	x7,0x1fafb	  x7=0x9fafd048
       25495000	      2548	80002050	01099133	sll	x2,x19,x16	 x19:0xf3bcaa58 x16:0xba000000  x2=0xf3bcaa58
       25505000	      2549	80002054	1f8ba797	auipc	x15,0x1f8ba	 x15=0x9f8bc050
       25515000	      2550	80002058	40b85fb3	sra	x31,x16,x11	 x16:0xba000000 x11:0x00000000 x31=0xba000000
       25525000	      2551	8000205c	01f69833	sll	x16,x13,x31	 x13:0x36caefa8 x31:0xba000000 x16=0x36caefa8
       25535000	      2552	80002060	41805b13	srai	x22,x0,0x18	  x0:0x00000000 x22=0x00000000
       25545000	      2553	80002064	04ed8063	beq	x27,x14,800020a4	 x27:0x00000000 x14:0x00000004
       25555000	      2554	80002068	41a653b3	sra	x7,x12,x26	 x12:0x00000000 x26:0x45fffb10  x7=0x00000000
       25565000	      2555	8000206c	70958693	addi	x13,x11,1801	 x11:0x00000000 x13=0x00000709
       25575000	      2556	80002070	fe557a93	andi	x21,x10,-27	 x10:0xba0004f0 x21=0xba0004e0
       25585000	      2557	80002074	017a10b3	sll	x1,x20,x23	 x20:0x45fffd63 x23:0x80009f64  x1=0x5fffd630
       25595000	      2558	80002078	00a49593	slli	x11,x9,0xa	  x9:0x00000000 x11=0x00000000
       25605000	      2559	8000207c	018edc63	bge	x29,x24,80002094	 x29:0x00000000 x24:0x00000000
       25615000	      2560	00000000	00000013	addi	x0,x0,0	  x0:0x00000000
       25625000	      2561	80002090	00000013	addi	x0,x0,0	  x0:0x00000000
       25635000	      2562	80002094	01124e63	blt	x4,x17,800020b0	  x4:0xffffffd8 x17:0x80009fc4
       25645000	      2563	80002098	01d0bfb3	sltu	x31,x1,x29	  x1:0x5fffd630 x29:0x00000000 x31=0x00000000
       25655000	      2564	8000209c	03228663	beq	x5,x18,800020c8	  x5:0x00000058 x18:0xfffffbb1
       25665000	      2565	800020a0	411659b3	sra	x19,x12,x17	 x12:0x00000000 x17:0x80009fc4 x19=0x00000000
       25675000	      2566	800020a4	0d9f8093	addi	x1,x31,217	 x31:0x00000000  x1=0x000000d9
       25685000	      2567	800020a8	012c9cb3	sll	x25,x25,x18	 x25:0x80009e80 x18:0xfffffbb1 x25=0x3d000000
       25695000	      2568	800020ac	01566133	or	x2,x12,x21	 x12:0x00000000 x21:0xba0004e0  x2=0xba0004e0
       25705000	      2569	800020b0	dadcb017	auipc	x0,0xdadcb	
       25715000	      2570	800020b4	013bf9b3	and	x19,x23,x19	 x23:0x80009f64 x19:0x00000000 x19=0x00000000
       25725000	      2571	800020b8	01710db3	add	x27,x2,x23	  x2:0xba0004e0 x23:0x80009f64 x27=0x3a00a444
       25735000	      2572	800020bc	00e17333	and	x6,x2,x14	  x2:0xba0004e0 x14:0x00000004  x6=0x00000000
       25745000	      2573	800020c0	0018bc33	sltu	x24,x17,x1	 x17:0x80009fc4  x1:0x000000d9 x24=0x00000000
       25755000	      2574	800020c4	0cde2493	slti	x9,x28,205	 x28:0x00000000  x9=0x00000001
       25765000	      2575	800020c8	01945b33	srl	x22,x8,x25	  x8:0x00000002 x25:0x3d000000 x22=0x00000002
       25775000	      2576	800020cc	025be263	bltu	x23,x5,800020f0	 x23:0x80009f64  x5:0x00000058
       25785000	      2577	800020d0	84ac6513	ori	x10,x24,-1974	 x24:0x00000000 x10=0xfffff84a
       25795000	      2578	800020d4	00913cb3	sltu	x25,x2,x9	  x2:0xba0004e0  x9:0x00000001 x25=0x00000000
       25805000	      2579	800020d8	00b543b3	xor	x7,x10,x11	 x10:0xfffff84a x11:0x00000000  x7=0xfffff84a
       25815000	      2580	800020dc	41005513	srai	x10,x0,0x10	  x0:0x00000000 x10=0x00000000
       25825000	      2581	800020e0	41538133	sub	x2,x7,x21	  x7:0xfffff84a x21:0xba0004e0  x2=0x45fff36a
       25835000	      2582	800020e4	b97d2e13	slti	x28,x26,-1129	 x26:0x45fffb10 x28=0x00000000
       25845000	      2583	800020e8	00000013	addi	x0,x0,0	  x0:0x00000000
       25855000	      2584	800020ec	c0e36f13	ori	x30,x6,-1010	  x6:0x00000000 x30=0xfffffc0e
       25865000	      2585	800020f0	03cbe863	bltu	x23,x28,80002120	 x23:0x80009f64 x28:0x00000000
       25875000	      2586	800020f4	038e8863	beq	x29,x24,80002124	 x29:0x00000000 x24:0x00000000
       25885000	      2587	00000000	00000013	addi	x0,x0,0	  x0:0x00000000
       25895000	      2588	80002120	00000013	addi	x0,x0,0	  x0:0x00000000
       25905000	      2589	80002124	13f77f13	andi	x30,x14,319	 x14:0x00000004 x30=0x00000004
       25915000	      2590	80002128	00e39263	bne	x7,x14,8000212c	  x7:0xfffff84a x14:0x00000004
       25925000	      2591	00000000	00000013	addi	x0,x0,0	  x0:0x00000000
       25935000	      2592	80002128	00000013	addi	x0,x0,0	  x0:0x00000000
       25945000	      2593	8000212c	08afd463	bge	x31,x10,800021b4	 x31:0x00000000 x10:0x00000000
       25955000	      2594	00000000	00000013	addi	x0,x0,0	  x0:0x00000000
       25965000	      2595	800021b0	00000013	addi	x0,x0,0	  x0:0x00000000
       25975000	      2596	800021b4	01e4e0b3	or	x1,x9,x30	  x9:0x00000001 x30:0x00000004  x1=0x00000005
       25985000	      2597	800021b8	00dda233	slt	x4,x27,x13	 x27:0x3a00a444 x13:0x00000709  x4=0x00000000
       25995000	      2598	800021bc	97083993	sltiu	x19,x16,-1680	 x16:0x36caefa8 x19=0x00000001
       26005000	      2599	800021c0	a098fe93	andi	x29,x17,-1527	 x17:0x80009fc4 x29=0x80009a00
       26015000	      2600	800021c4	016e5663	bge	x28,x22,800021d0	 x28:0x00000000 x22:0x00000002
       26025000	      2601	800021c8	05d0e263	bltu	x1,x29,8000220c	  x1:0x00000005 x29:0x80009a00
       26035000	      2602	00000000	00000013	addi	x0,x0,0	  x0:0x00000000
       26045000	      2603	80002208	00000013	addi	x0,x0,0	  x0:0x00000000
       26055000	      2604	8000220c	01ca9533	sll	x10,x21,x28	 x21:0xba0004e0 x28:0x00000000 x10=0xba0004e0
       26065000	      2605	80002210	012f7433	and	x8,x30,x18	 x30:0x00000004 x18:0xfffffbb1  x8=0x00000000
       26075000	      2606	80002214	00221e33	sll	x28,x4,x2	  x4:0x00000000  x2:0x45fff36a x28=0x00000000
       26085000	      2607	80002218	00211863	bne	x2,x2,80002228	  x2:0x45fff36a  x2:0x45fff36a
       26095000	      2608	8000221c	01721a13	slli	x20,x4,0x17	  x4:0x00000000 x20=0x00000000
       26105000	      2609	80002220	0472f263	bgeu	x5,x7,80002264	  x5:0x00000058  x7:0xfffff84a
       26115000	      2610	80002224	01181b13	slli	x22,x16,0x11	 x16:0x36caefa8 x22=0xdf500000
       26125000	      2611	80002228	00a54db3	xor	x27,x10,x10	 x10:0xba0004e0 x10:0xba0004e0 x27=0x00000000
       26135000	      2612	8000222c	05300863	beq	x0,x19,8000227c	  x0:0x00000000 x19:0x00000001
       26145000	      2613	80002230	00e26597	auipc	x11,0xe26	 x11=0x80e2822c
       26155000	      2614	80002234	3c90fa13	andi	x20,x1,969	  x1:0x00000005 x20=0x00000001
       26165000	      2615	80002238	00000013	addi	x0,x0,0	  x0:0x00000000
       26175000	      2616	8000223c	010636b3	sltu	x13,x12,x16	 x12:0x00000000 x16:0x36caefa8 x13=0x00000001
       26185000	      2617	80002240	dd74b513	sltiu	x10,x9,-553	  x9:0x00000001 x10=0x00000001
       26195000	      2618	80002244	007b7033	and	x0,x22,x7	 x22:0xdf500000  x7:0xfffff84a
       26205000	      2619	80002248	40c751b3	sra	x3,x14,x12	 x14:0x00000004 x12:0x00000000  x3=0x00000004
       26215000	      2620	8000224c	00b51cb3	sll	x25,x10,x11	 x10:0x00000001 x11:0x80e2822c x25=0x00001000
       26225000	      2621	80002250	0096d463	bge	x13,x9,80002258	 x13:0x00000001  x9:0x00000001
       26235000	      2622	00000000	00000013	addi	x0,x0,0	  x0:0x00000000
       26245000	      2623	80002254	00000013	addi	x0,x0,0	  x0:0x00000000
       26255000	      2624	80002258	0141f9b3	and	x19,x3,x20	  x3:0x00000004 x20:0x00000001 x19=0x00000000
       26265000	      2625	8000225c	40ff5013	srai	x0,x30,0xf	 x30:0x00000004
       26275000	      2626	80002260	00000013	addi	x0,x0,0	  x0:0x00000000
       26285000	      2627	80002264	00000013	addi	x0,x0,0	  x0:0x00000000
       26295000	      2628	80002268	00368b33	add	x22,x13,x3	 x13:0x00000001  x3:0x00000004 x22=0x00000005
       26305000	      2629	8000226c	059fc663	blt	x31,x25,800022b8	 x31:0x00000000 x25:0x00001000
       26315000	      2630	00000000	00000013	addi	x0,x0,0	  x0:0x00000000
       26325000	      2631	800022b4	00000013	addi	x0,x0,0	  x0:0x00000000
       26335000	      2632	800022b8	008ede33	srl	x28,x29,x8	 x29:0x80009a00  x8:0x00000000 x28=0x80009a00
       26345000	      2633	800022bc	01d81f93	slli	x31,x16,0x1d	 x16:0x36caefa8 x31=0x00000000
       26355000	      2634	800022c0	012b4db3	xor	x27,x22,x18	 x22:0x00000005 x18:0xfffffbb1 x27=0xfffffbb4
       26365000	      2635	800022c4	00766d33	or	x26,x12,x7	 x12:0x00000000  x7:0xfffff84a x26=0xfffff84a
       26375000	      2636	800022c8	00de5c13	srli	x24,x28,0xd	 x28:0x80009a00 x24=0x00040004
       26385000	      2637	800022cc	22b9be13	sltiu	x28,x19,555	 x19:0x00000000 x28=0x00000001
       26395000	      2638	800022d0	342a7fb7	lui	x31,0x342a7	 x31=0x342a7000
       26405000	      2639	800022d4	5d80f113	andi	x2,x1,1496	  x1:0x00000005  x2=0x00000000
       26415000	      2640	800022d8	0195e433	or	x8,x11,x25	 x11:0x80e2822c x25:0x00001000  x8=0x80e2922c
       26425000	      2641	800022dc	00f69233	sll	x4,x13,x15	 x13:0x00000001 x15:0x9f8bc050  x4=0x00010000
       26435000	      2642	800022e0	0e777a93	andi	x21,x14,231	 x14:0x00000004 x21=0x00000004
       26445000	      2643	800022e4	c10e0693	addi	x13,x28,-1008	 x28:0x00000001 x13=0xfffffc11
       26455000	      2644	800022e8	018e2b33	slt	x22,x28,x24	 x28:0x00000001 x24:0x00040004 x22=0x00000001
       26465000	      2645	800022ec	011c69b3	or	x19,x24,x17	 x24:0x00040004 x17:0x80009fc4 x19=0x80049fc4
       26475000	      2646	800022f0	287f9797	auipc	x15,0x287f9	 x15=0xa87fb2ec
       26485000	      2647	800022f4	00456263	bltu	x10,x4,800022f8	 x10:0x00000001  x4:0x00010000
       26495000	      2648	00000000	00000013	addi	x0,x0,0	  x0:0x00000000
       26505000	      2649	800022f4	00000013	addi	x0,x0,0	  x0:0x00000000
       26515000	      2650	800022f8	0c602413	slti	x8,x0,198	  x0:0x00000000  x8=0x00000001
       26525000	      2651	800022fc	00651c13	slli	x24,x10,0x6	 x10:0x00000001 x24=0x00000040
       26535000	      2652	80002300	01d41633	sll	x12,x8,x29	  x8:0x00000001 x29:0x80009a00 x12=0x00000001
       26545000	      2653	80002304	003c54b3	srl	x9,x24,x3	 x24:0x00000040  x3:0x00000004  x9=0x00000004
       26555000	      2654	80002308	0f260093	addi	x1,x12,242	 x12:0x00000001  x1=0x000000f3
       26565000	      2655	8000230c	03505663	bge	x0,x21,80002338	  x0:0x00000000 x21:0x00000004
       26575000	      2656	80002310	73b40993	addi	x19,x8,1851	  x8:0x00000001 x19=0x0000073c
       26585000	      2657	80002314	9800ba93	sltiu	x21,x1,-1664	  x1:0x000000f3 x21=0x00000001
       26595000	      2658	80002318	01c81fb3	sll	x31,x16,x28	 x16:0x36caefa8 x28:0x00000001 x31=0x6d95df50
       26605000	      2659	8000231c	006551b3	srl	x3,x10,x6	 x10:0x00000001  x6:0x00000000  x3=0x00000001
       26615000	      2660	80002320	f29e3593	sltiu	x11,x28,-215	 x28:0x00000001 x11=0x00000001
       26625000	      2661	80002324	4094dc13	srai	x24,x9,0x9	  x9:0x00000004 x24=0x00000000
       26635000	      2662	80002328	d28d0a13	addi	x20,x26,-728	 x26:0xfffff84a x20=0xfffff572
       26645000	      2663	8000232c	601cbab7	lui	x21,0x601cb	 x21=0x601cb000
       26655000	      2664	80002330	00000013	addi	x0,x0,0	  x0:0x00000000
       26665000	      2665	80002334	01d32e33	slt	x28,x6,x29	  x6:0x00000000 x29:0x80009a00 x28=0x00000000
       26675000	      2666	80002338	0012e433	or	x8,x5,x1	  x5:0x00000058  x1:0x000000f3  x8=0x000000fb
       26685000	      2667	8000233c	99ce2293	slti	x5,x28,-1636	 x28:0x00000000  x5=0x00000000
       26695000	      2668	80002340	0564c663	blt	x9,x22,8000238c	  x9:0x00000004 x22:0x00000001
       26705000	      2669	80002344	0979c013	xori	x0,x19,151	 x19:0x0000073c
       26715000	      2670	80002348	2606a993	slti	x19,x13,608	 x13:0xfffffc11 x19=0x00000001
       26725000	      2671	8000234c	00c259b3	srl	x19,x4,x12	  x4:0x00010000 x12:0x00000001 x19=0x00008000
       26735000	      2672	80002350	05501263	bne	x0,x21,80002394	  x0:0x00000000 x21:0x601cb000
       26745000	      2673	00000000	00000013	addi	x0,x0,0	  x0:0x00000000
       26755000	      2674	80002390	00000013	addi	x0,x0,0	  x0:0x00000000
       26765000	      2675	80002394	01c59593	slli	x11,x11,0x1c	 x11:0x00000001 x11=0x10000000
       26775000	      2676	80002398	41615513	srai	x10,x2,0x16	  x2:0x00000000 x10=0x00000000
       26785000	      2677	8000239c	00000013	addi	x0,x0,0	  x0:0x00000000
       26795000	      2678	800023a0	007f9533	sll	x10,x31,x7	 x31:0x6d95df50  x7:0xfffff84a x10=0x577d4000
       26805000	      2679	800023a4	45382b13	slti	x22,x16,1107	 x16:0x36caefa8 x22=0x00000000
       26815000	      2680	800023a8	402e5113	srai	x2,x28,0x2	 x28:0x00000000  x2=0x00000000
       26825000	      2681	800023ac	40c45a93	srai	x21,x8,0xc	  x8:0x000000fb x21=0x00000000
       26835000	      2682	800023b0	4ce5f013	andi	x0,x11,1230	 x11:0x10000000
       26845000	      2683	800023b4	00af1413	slli	x8,x30,0xa	 x30:0x00000004  x8=0x00001000
       26855000	      2684	800023b8	41c2d413	srai	x8,x5,0x1c	  x5:0x00000000  x8=0x00000000
       26865000	      2685	800023bc	ed907813	andi	x16,x0,-295	  x0:0x00000000 x16=0x00000000
       26875000	      2686	800023c0	016b5233	srl	x4,x22,x22	 x22:0x00000000 x22:0x00000000  x4=0x00000000
       26885000	      2687	800023c4	ed96c913	xori	x18,x13,-295	 x13:0xfffffc11 x18=0x000002c8
       26895000	      2688	800023c8	969486b7	lui	x13,0x96948	 x13=0x96948000
       26905000	      2689	800023cc	00d28463	beq	x5,x13,800023d4	  x5:0x00000000 x13:0x96948000
       26915000	      2690	800023d0	04094863	blt	x18,x0,80002420	 x18:0x000002c8  x0:0x00000000
       26925000	      2691	800023d4	40860f33	sub	x30,x12,x8	 x12:0x00000001  x8:0x00000000 x30=0x00000001
       26935000	      2692	800023d8	41f15c13	srai	x24,x2,0x1f	  x2:0x00000000 x24=0x00000000
       26945000	      2693	800023dc	04c41263	bne	x8,x12,80002420	  x8:0x00000000 x12:0x00000001
       26955000	      2694	00000000	00000013	addi	x0,x0,0	  x0:0x00000000
       26965000	      2695	8000241c	00000013	addi	x0,x0,0	  x0:0x00000000
       26975000	      2696	80002420	004699b3	sll	x19,x13,x4	 x13:0x96948000  x4:0x00000000 x19=0x96948000
       26985000	      2697	80002424	04fb9063	bne	x23,x15,80002464	 x23:0x80009f64 x15:0xa87fb2ec
       26995000	      2698	00000000	00000013	addi	x0,x0,0	  x0:0x00000000
       27005000	      2699	80002460	00000013	addi	x0,x0,0	  x0:0x00000000
       27015000	      2700	80002464	0166c913	xori	x18,x13,22	 x13:0x96948000 x18=0x96948016
       27025000	      2701	80002468	0132cd33	xor	x26,x5,x19	  x5:0x00000000 x19:0x96948000 x26=0x96948000
       27035000	      2702	8000246c	0932d663	bge	x5,x19,800024f8	  x5:0x00000000 x19:0x96948000
       27045000	      2703	00000000	00000013	addi	x0,x0,0	  x0:0x00000000
       27055000	      2704	800024f4	00000013	addi	x0,x0,0	  x0:0x00000000
       27065000	      2705	800024f8	01edc833	xor	x16,x27,x30	 x27:0xfffffbb4 x30:0x00000001 x16=0xfffffbb5
       27075000	      2706	800024fc	009a9263	bne	x21,x9,80002500	 x21:0x00000000  x9:0x00000004
       27085000	      2707	00000000	00000013	addi	x0,x0,0	  x0:0x00000000
       27095000	      2708	800024fc	00000013	addi	x0,x0,0	  x0:0x00000000
       27105000	      2709	80002500	00000013	addi	x0,x0,0	  x0:0x00000000
       27115000	      2710	80002504	018d1313	slli	x6,x26,0x18	 x26:0x96948000  x6=0x00000000
       27125000	      2711	80002508	01e3ccb3	xor	x25,x7,x30	  x7:0xfffff84a x30:0x00000001 x25=0xfffff84b
       27135000	      2712	8000250c	01dc1cb3	sll	x25,x24,x29	 x24:0x00000000 x29:0x80009a00 x25=0x00000000
       27145000	      2713	80002510	000c3c33	sltu	x24,x24,x0	 x24:0x00000000  x0:0x00000000 x24=0x00000000
       27155000	      2714	80002514	02c71863	bne	x14,x12,80002544	 x14:0x00000004 x12:0x00000001
       27165000	      2715	00000000	00000013	addi	x0,x0,0	  x0:0x00000000
       27175000	      2716	80002540	00000013	addi	x0,x0,0	  x0:0x00000000
       27185000	      2717	80002544	00000013	addi	x0,x0,0	  x0:0x00000000
       27195000	      2718	80002548	00d39463	bne	x7,x13,80002550	  x7:0xfffff84a x13:0x96948000
       27205000	      2719	00000000	00000013	addi	x0,x0,0	  x0:0x00000000
       27215000	      2720	8000254c	00000013	addi	x0,x0,0	  x0:0x00000000
       27225000	      2721	80002550	0032d663	bge	x5,x3,8000255c	  x5:0x00000000  x3:0x00000001
       27235000	      2722	80002554	00525263	bge	x4,x5,80002558	  x4:0x00000000  x5:0x00000000
       27245000	      2723	00000000	00000013	addi	x0,x0,0	  x0:0x00000000
       27255000	      2724	80002554	00000013	addi	x0,x0,0	  x0:0x00000000
       27265000	      2725	80002558	46fc1b37	lui	x22,0x46fc1	 x22=0x46fc1000
       27275000	      2726	8000255c	80803013	sltiu	x0,x0,-2040	  x0:0x00000000
       27285000	      2727	80002560	01dc77b3	and	x15,x24,x29	 x24:0x00000000 x29:0x80009a00 x15=0x00000000
       27295000	      2728	80002564	835fe113	ori	x2,x31,-1995	 x31:0x6d95df50  x2=0xffffff75
       27305000	      2729	80002568	01aca433	slt	x8,x25,x26	 x25:0x00000000 x26:0x96948000  x8=0x00000000
       27315000	      2730	8000256c	41505a33	sra	x20,x0,x21	  x0:0x00000000 x21:0x00000000 x20=0x00000000
       27325000	      2731	80002570	012af833	and	x16,x21,x18	 x21:0x00000000 x18:0x96948016 x16=0x00000000
       27335000	      2732	80002574	41b7df93	srai	x31,x15,0x1b	 x15:0x00000000 x31=0x00000000
       27345000	      2733	80002578	014bc233	xor	x4,x23,x20	 x23:0x80009f64 x20:0x00000000  x4=0x80009f64
       27355000	      2734	8000257c	05fdc063	blt	x27,x31,800025bc	 x27:0xfffffbb4 x31:0x00000000
       27365000	      2735	00000000	00000013	addi	x0,x0,0	  x0:0x00000000
       27375000	      2736	800025b8	00000013	addi	x0,x0,0	  x0:0x00000000
       27385000	      2737	800025bc	00000013	addi	x0,x0,0	  x0:0x00000000
       27395000	      2738	800025c0	41e9da13	srai	x20,x19,0x1e	 x19:0x96948000 x20=0xfffffffe
       27405000	      2739	800025c4	00cff4b3	and	x9,x31,x12	 x31:0x00000000 x12:0x00000001  x9=0x00000000
       27415000	      2740	800025c8	1df54c93	xori	x25,x10,479	 x10:0x577d4000 x25=0x577d41df
       27425000	      2741	800025cc	05421263	bne	x4,x20,80002610	  x4:0x80009f64 x20:0xfffffffe
       27435000	      2742	00000000	00000013	addi	x0,x0,0	  x0:0x00000000
       27445000	      2743	8000260c	00000013	addi	x0,x0,0	  x0:0x00000000
       27455000	      2744	80002610	01f2eeb3	or	x29,x5,x31	  x5:0x00000000 x31:0x00000000 x29=0x00000000
       27465000	      2745	80002614	a3323f37	lui	x30,0xa3323	 x30=0xa3323000
       27475000	      2746	80002618	017b87b3	add	x15,x23,x23	 x23:0x80009f64 x23:0x80009f64 x15=0x00013ec8
       27485000	      2747	8000261c	051f1263	bne	x30,x17,80002660	 x30:0xa3323000 x17:0x80009fc4
       27495000	      2748	00000000	00000013	addi	x0,x0,0	  x0:0x00000000
       27505000	      2749	8000265c	00000013	addi	x0,x0,0	  x0:0x00000000
       27515000	      2750	80002660	05b57663	bgeu	x10,x27,800026ac	 x10:0x577d4000 x27:0xfffffbb4
       27525000	      2751	80002664	00da1863	bne	x20,x13,80002674	 x20:0xfffffffe x13:0x96948000
       27535000	      2752	00000000	00000013	addi	x0,x0,0	  x0:0x00000000
       27545000	      2753	80002670	00000013	addi	x0,x0,0	  x0:0x00000000
       27555000	      2754	80002674	01cc77b3	and	x15,x24,x28	 x24:0x00000000 x28:0x00000000 x15=0x00000000
       27565000	      2755	80002678	0499f263	bgeu	x19,x9,800026bc	 x19:0x96948000  x9:0x00000000
       27575000	      2756	00000000	00000013	addi	x0,x0,0	  x0:0x00000000
       27585000	      2757	800026b8	00000013	addi	x0,x0,0	  x0:0x00000000
       27595000	      2758	800026bc	aed5bc13	sltiu	x24,x11,-1299	 x11:0x10000000 x24=0x00000001
       27605000	      2759	800026c0	002864b3	or	x9,x16,x2	 x16:0x00000000  x2:0xffffff75  x9=0xffffff75
       27615000	      2760	800026c4	41e009b3	sub	x19,x0,x30	  x0:0x00000000 x30:0xa3323000 x19=0x5ccdd000
       27625000	      2761	800026c8	e67a6d97	auipc	x27,0xe67a6	 x27=0x667a86c4
       27635000	      2762	800026cc	01e76263	bltu	x14,x30,800026d0	 x14:0x00000004 x30:0xa3323000
       27645000	      2763	00000000	00000013	addi	x0,x0,0	  x0:0x00000000
       27655000	      2764	800026cc	00000013	addi	x0,x0,0	  x0:0x00000000
       27665000	      2765	800026d0	ad492693	slti	x13,x18,-1324	 x18:0x96948016 x13=0x00000001
       27675000	      2766	800026d4	00d29393	slli	x7,x5,0xd	  x5:0x00000000  x7=0x00000000
       27685000	      2767	800026d8	00ed5693	srli	x13,x26,0xe	 x26:0x96948000 x13=0x00025a52
       27695000	      2768	800026dc	017f1463	bne	x30,x23,800026e4	 x30:0xa3323000 x23:0x80009f64
       27705000	      2769	00000000	00000013	addi	x0,x0,0	  x0:0x00000000
       27715000	      2770	800026e0	00000013	addi	x0,x0,0	  x0:0x00000000
       27725000	      2771	800026e4	40a0d813	srai	x16,x1,0xa	  x1:0x000000f3 x16=0x00000000
       27735000	      2772	800026e8	00a3b233	sltu	x4,x7,x10	  x7:0x00000000 x10:0x577d4000  x4=0x00000001
       27745000	      2773	800026ec	00ee4633	xor	x12,x28,x14	 x28:0x00000000 x14:0x00000004 x12=0x00000004
       27755000	      2774	800026f0	003caa33	slt	x20,x25,x3	 x25:0x577d41df  x3:0x00000001 x20=0x00000000
       27765000	      2775	800026f4	00c1f333	and	x6,x3,x12	  x3:0x00000001 x12:0x00000004  x6=0x00000000
       27775000	      2776	800026f8	01ce42b3	xor	x5,x28,x28	 x28:0x00000000 x28:0x00000000  x5=0x00000000
       27785000	      2777	800026fc	00601193	slli	x3,x0,0x6	  x0:0x00000000  x3=0x00000000
       27795000	      2778	80002700	40f75333	sra	x6,x14,x15	 x14:0x00000004 x15:0x00000000  x6=0x00000004
       27805000	      2779	80002704	01966833	or	x16,x12,x25	 x12:0x00000004 x25:0x577d41df x16=0x577d41df
       27815000	      2780	80002708	ad982997	auipc	x19,0xad982	 x19=0x2d984704
       27825000	      2781	8000270c	035f4263	blt	x30,x21,80002730	 x30:0xa3323000 x21:0x00000000
       27835000	      2782	00000000	00000013	addi	x0,x0,0	  x0:0x00000000
       27845000	      2783	8000272c	00000013	addi	x0,x0,0	  x0:0x00000000
       27855000	      2784	80002730	41130b33	sub	x22,x6,x17	  x6:0x00000004 x17:0x80009fc4 x22=0x7fff6040
       27865000	      2785	80002734	019f1a13	slli	x20,x30,0x19	 x30:0xa3323000 x20=0x00000000
       27875000	      2786	80002738	d98ebf97	auipc	x31,0xd98eb	 x31=0x598ed734
       27885000	      2787	8000273c	05b39263	bne	x7,x27,80002780	  x7:0x00000000 x27:0x667a86c4
       27895000	      2788	00000000	00000013	addi	x0,x0,0	  x0:0x00000000
       27905000	      2789	8000277c	00000013	addi	x0,x0,0	  x0:0x00000000
       27915000	      2790	80002780	006db5b3	sltu	x11,x27,x6	 x27:0x667a86c4  x6:0x00000004 x11=0x00000000
       27925000	      2791	80002784	000bd593	srli	x11,x23,0x0	 x23:0x80009f64 x11=0x80009f64
       27935000	      2792	80002788	f811e693	ori	x13,x3,-127	  x3:0x00000000 x13=0xffffff81
       27945000	      2793	8000278c	01e5b533	sltu	x10,x11,x30	 x11:0x80009f64 x30:0xa3323000 x10=0x00000001
       27955000	      2794	80002790	00000013	addi	x0,x0,0	  x0:0x00000000
       27965000	      2795	80002794	00d93033	sltu	x0,x18,x13	 x18:0x96948016 x13:0xffffff81
       27975000	      2796	80002798	08065463	bge	x12,x0,80002820	 x12:0x00000004  x0:0x00000000
       27985000	      2797	00000000	00000013	addi	x0,x0,0	  x0:0x00000000
       27995000	      2798	8000281c	00000013	addi	x0,x0,0	  x0:0x00000000
       28005000	      2799	80002820	2c7d9f97	auipc	x31,0x2c7d9	 x31=0xac7db81c
       28015000	      2800	80002824	6f707db7	lui	x27,0x6f707	 x27=0x6f707000
       28025000	      2801	80002828	00db1f13	slli	x30,x22,0xd	 x22:0x7fff6040 x30=0xec080000
       28035000	      2802	8000282c	40a48b33	sub	x22,x9,x10	  x9:0xffffff75 x10:0x00000001 x22=0xffffff74
       28045000	      2803	80002830	00000013	addi	x0,x0,0	  x0:0x00000000
       28055000	      2804	80002834	004ba083	lw	x1,4(x23)	 x23:0x80009f64  x1=0x80000128 PA:0x80009f68
       28065000	      2805	80002838	020b8b93	addi	x23,x23,32	 x23:0x80009f64 x23=0x80009f84
       28075000	      2806	8000283c	0137eeb3	or	x29,x15,x19	 x15:0x00000000 x19:0x2d984704 x29=0x2d984704
       28085000	      2807	80002840	41225933	sra	x18,x4,x18	  x4:0x00000001 x18:0x96948016 x18=0x00000000
       28095000	      2808	80002844	0073b5b3	sltu	x11,x7,x7	  x7:0x00000000  x7:0x00000000 x11=0x00000000
       28105000	      2809	80002848	00008693	addi	x13,x1,0	  x1:0x80000128 x13=0x80000128
       28115000	      2810	8000284c	000686e7	jalr	x13,x13,0	 x13:0x80000128 x13=0x8000284c
       28125000	      2811	00000000	00000013	addi	x0,x0,0	  x0:0x00000000
       28135000	      2812	80000128	00000013	addi	x0,x0,0	  x0:0x00000000
       28145000	      2813	8000012c	00419093	slli	x1,x3,0x4	  x3:0x00000000  x1=0x00000000
       28155000	      2814	80000130	00004e97	auipc	x29,0x4	 x29=0x8000412c
       28165000	      2815	80000134	2a4e8e93	addi	x29,x29,676	 x29:0x8000412c x29=0x800043d0
       28175000	      2816	80000138	21ce8e93	addi	x29,x29,540	 x29:0x800043d0 x29=0x800045ec
       28185000	      2817	8000013c	98116093	ori	x1,x2,-1663	  x2:0xffffff75  x1=0xfffffff5
       28195000	      2818	80000140	d92a7e13	andi	x28,x20,-622	 x20:0x00000000 x28=0x00000000
       28205000	      2819	80000144	01beee33	or	x28,x29,x27	 x29:0x800045ec x27:0x6f707000 x28=0xef7075ec
       28215000	      2820	80000148	41008e33	sub	x28,x1,x16	  x1:0xfffffff5 x16:0x577d41df x28=0xa882be16
       28225000	      2821	8000014c	3ac80937	lui	x18,0x3ac80	 x18=0x3ac80000
       28235000	      2822	80000150	01519933	sll	x18,x3,x21	  x3:0x00000000 x21:0x00000000 x18=0x00000000
       28245000	      2823	80000154	010e5333	srl	x6,x28,x16	 x28:0xa882be16 x16:0x577d41df  x6=0x00000001
       28255000	      2824	80000158	01f426b3	slt	x13,x8,x31	  x8:0x00000000 x31:0xac7db81c x13=0x00000000
       28265000	      2825	8000015c	d496f017	auipc	x0,0xd496f	
       28275000	      2826	80000160	de5e80e7	jalr	x1,x29,-539	 x29:0x800045ec  x1=0x80000160
       28285000	      2827	00000000	00000013	addi	x0,x0,0	  x0:0x00000000
       28295000	      2828	800043d0	00000013	addi	x0,x0,0	  x0:0x00000000
       28305000	      2829	800043d4	00db9463	bne	x23,x13,800043dc	 x23:0x80009f84 x13:0x00000000
       28315000	      2830	00000000	00000013	addi	x0,x0,0	  x0:0x00000000
       28325000	      2831	800043d8	00000013	addi	x0,x0,0	  x0:0x00000000
       28335000	      2832	800043dc	fc4b8b93	addi	x23,x23,-60	 x23:0x80009f84 x23=0x80009f48
       28345000	      2833	800043e0	01bd4033	xor	x0,x26,x27	 x26:0x96948000 x27:0x6f707000
       28355000	      2834	800043e4	aed06913	ori	x18,x0,-1299	  x0:0x00000000 x18=0xfffffaed
       28365000	      2835	800043e8	006a5f93	srli	x31,x20,0x6	 x20:0x00000000 x31=0x00000000
       28375000	      2836	800043ec	57002813	slti	x16,x0,1392	  x0:0x00000000 x16=0x00000001
       28385000	      2837	800043f0	01e86f33	or	x30,x16,x30	 x16:0x00000001 x30:0xec080000 x30=0xec080001
       28395000	      2838	800043f4	001ba223	sw	x1,4(x23)	 x23:0x80009f48  x1:0x80000160 PA:0x80009f4c
       28405000	      2839	800043f8	940d3c13	sltiu	x24,x26,-1728	 x26:0x96948000 x24=0x00000001
       28415000	      2840	800043fc	002a5993	srli	x19,x20,0x2	 x20:0x00000000 x19=0x00000000
       28425000	      2841	80004400	015e9813	slli	x16,x29,0x15	 x29:0x800045ec x16=0xbd800000
       28435000	      2842	80004404	f6b29137	lui	x2,0xf6b29	  x2=0xf6b29000
       28445000	      2843	80004408	ffffea17	auipc	x20,0xffffe	 x20=0x80002404
       28455000	      2844	8000440c	448a0a13	addi	x20,x20,1096	 x20:0x80002404 x20=0x8000284c
       28465000	      2845	80004410	00000013	addi	x0,x0,0	  x0:0x00000000
       28475000	      2846	80004414	854deab7	lui	x21,0x854de	 x21=0x854de000
       28485000	      2847	80004418	00000013	addi	x0,x0,0	  x0:0x00000000
       28495000	      2848	8000441c	015799b3	sll	x19,x15,x21	 x15:0x00000000 x21:0x854de000 x19=0x00000000
       28505000	      2849	80004420	1cca0a13	addi	x20,x20,460	 x20:0x8000284c x20=0x80002a18
       28515000	      2850	80004424	0156ef33	or	x30,x13,x21	 x13:0x00000000 x21:0x854de000 x30=0x854de000
       28525000	      2851	80004428	011c9493	slli	x9,x25,0x11	 x25:0x577d41df  x9=0x83be0000
       28535000	      2852	8000442c	e279ac93	slti	x25,x19,-473	 x19:0x00000000 x25=0x00000000
       28545000	      2853	80004430	01a55f33	srl	x30,x10,x26	 x10:0x00000001 x26:0x96948000 x30=0x00000001
       28555000	      2854	80004434	01824463	blt	x4,x24,8000443c	  x4:0x00000001 x24:0x00000001
       28565000	      2855	80004438	01d6f4b3	and	x9,x13,x29	 x13:0x00000000 x29:0x800045ec  x9=0x00000000
       28575000	      2856	8000443c	e35a00e7	jalr	x1,x20,-459	 x20:0x80002a18  x1=0x8000443c
       28585000	      2857	00000000	00000013	addi	x0,x0,0	  x0:0x00000000
       28595000	      2858	8000284c	00000013	addi	x0,x0,0	  x0:0x00000000
       28605000	      2859	80002850	fd4b8b93	addi	x23,x23,-44	 x23:0x80009f48 x23=0x80009f1c
       28615000	      2860	80002854	416587b3	sub	x15,x11,x22	 x11:0x00000000 x22:0xffffff74 x15=0x0000008c
       28625000	      2861	80002858	001ba223	sw	x1,4(x23)	 x23:0x80009f1c  x1:0x8000443c PA:0x80009f20
       28635000	      2862	8000285c	12ff8397	auipc	x7,0x12ff8	  x7=0x92ffa858
       28645000	      2863	80002860	016e8933	add	x18,x29,x22	 x29:0x800045ec x22:0xffffff74 x18=0x80004560
       28655000	      2864	80002864	ebfca513	slti	x10,x25,-321	 x25:0x00000000 x10=0x00000000
       28665000	      2865	80002868	00db07b3	add	x15,x22,x13	 x22:0xffffff74 x13:0x00000000 x15=0xffffff74
       28675000	      2866	8000286c	01299cb3	sll	x25,x19,x18	 x19:0x00000000 x18:0x80004560 x25=0x00000000
       28685000	      2867	80002870	003ad693	srli	x13,x21,0x3	 x21:0x854de000 x13=0x10a9bc00
       28695000	      2868	80002874	019bc233	xor	x4,x23,x25	 x23:0x80009f1c x25:0x00000000  x4=0x80009f1c
       28705000	      2869	80002878	41fd5b13	srai	x22,x26,0x1f	 x26:0x96948000 x22=0xffffffff
       28715000	      2870	8000287c	e00f3113	sltiu	x2,x30,-512	 x30:0x00000001  x2=0x00000001
       28725000	      2871	80002880	c3998d13	addi	x26,x19,-967	 x19:0x00000000 x26=0xfffffc39
       28735000	      2872	80002884	00002697	auipc	x13,0x2	 x13=0x80004880
       28745000	      2873	80002888	98c68693	addi	x13,x13,-1652	 x13:0x80004880 x13=0x8000420c
       28755000	      2874	8000288c	79715217	auipc	x4,0x79715	  x4=0xf9717888
       28765000	      2875	80002890	be677013	andi	x0,x14,-1050	 x14:0x00000004
       28775000	      2876	80002894	24868693	addi	x13,x13,584	 x13:0x8000420c x13=0x80004454
       28785000	      2877	80002898	016b9013	slli	x0,x23,0x16	 x23:0x80009f1c
       28795000	      2878	8000289c	0ef70a93	addi	x21,x14,239	 x14:0x00000004 x21=0x000000f3
       28805000	      2879	800028a0	00267463	bgeu	x12,x2,800028a8	 x12:0x00000004  x2:0x00000001
       28815000	      2880	00000000	00000013	addi	x0,x0,0	  x0:0x00000000
       28825000	      2881	800028a4	00000013	addi	x0,x0,0	  x0:0x00000000
       28835000	      2882	800028a8	db9680e7	jalr	x1,x13,-583	 x13:0x80004454  x1=0x800028a8
       28845000	      2883	00000000	00000013	addi	x0,x0,0	  x0:0x00000000
       28855000	      2884	8000420c	00000013	addi	x0,x0,0	  x0:0x00000000
       28865000	      2885	80004210	67e7ad13	slti	x26,x15,1662	 x15:0xffffff74 x26=0x00000001
       28875000	      2886	80004214	00000013	addi	x0,x0,0	  x0:0x00000000
       28885000	      2887	80004218	005aefb3	or	x31,x21,x5	 x21:0x000000f3  x5:0x00000000 x31=0x000000f3
       28895000	      2888	8000421c	fdcb8b93	addi	x23,x23,-36	 x23:0x80009f1c x23=0x80009ef8
       28905000	      2889	80004220	001ba223	sw	x1,4(x23)	 x23:0x80009ef8  x1:0x800028a8 PA:0x80009efc
       28915000	      2890	80004224	41b08033	sub	x0,x1,x27	  x1:0x800028a8 x27:0x6f707000
       28925000	      2891	80004228	f4113317	auipc	x6,0xf4113	  x6=0x74117224
       28935000	      2892	8000422c	02c000ef	jal	x1,8000422c	  x1=0x8000422c
       28945000	      2893	00000000	00000013	addi	x0,x0,0	  x0:0x00000000
       28955000	      2894	80004254	00000013	addi	x0,x0,0	  x0:0x00000000
       28965000	      2895	80004258	ffdff26f	jal	x4,80004258	  x4=0x80004258
       28975000	      2896	00000000	00000013	addi	x0,x0,0	  x0:0x00000000
       28985000	      2897	80004250	00000013	addi	x0,x0,0	  x0:0x00000000
       28995000	      2898	80004254	fe5ff0ef	jal	x1,80004254	  x1=0x80004254
       29005000	      2899	00000000	00000013	addi	x0,x0,0	  x0:0x00000000
       29015000	      2900	80004234	00000013	addi	x0,x0,0	  x0:0x00000000
       29025000	      2901	80004238	ffdff0ef	jal	x1,80004238	  x1=0x80004238
       29035000	      2902	00000000	00000013	addi	x0,x0,0	  x0:0x00000000
       29045000	      2903	80004230	00000013	addi	x0,x0,0	  x0:0x00000000
       29055000	      2904	80004234	028007ef	jal	x15,80004234	 x15=0x80004234
       29065000	      2905	00000000	00000013	addi	x0,x0,0	  x0:0x00000000
       29075000	      2906	80004258	00000013	addi	x0,x0,0	  x0:0x00000000
       29085000	      2907	8000425c	fe1ff1ef	jal	x3,8000425c	  x3=0x8000425c
       29095000	      2908	00000000	00000013	addi	x0,x0,0	  x0:0x00000000
       29105000	      2909	80004238	00000013	addi	x0,x0,0	  x0:0x00000000
       29115000	      2910	8000423c	00c000ef	jal	x1,8000423c	  x1=0x8000423c
       29125000	      2911	00000000	00000013	addi	x0,x0,0	  x0:0x00000000
       29135000	      2912	80004244	00000013	addi	x0,x0,0	  x0:0x00000000
       29145000	      2913	80004248	0180036f	jal	x6,80004248	  x6=0x80004248
       29155000	      2914	00000000	00000013	addi	x0,x0,0	  x0:0x00000000
       29165000	      2915	8000425c	00000013	addi	x0,x0,0	  x0:0x00000000
       29175000	      2916	80004260	fe5ff0ef	jal	x1,80004260	  x1=0x80004260
       29185000	      2917	00000000	00000013	addi	x0,x0,0	  x0:0x00000000
       29195000	      2918	80004240	00000013	addi	x0,x0,0	  x0:0x00000000
       29205000	      2919	80004244	fedff0ef	jal	x1,80004244	  x1=0x80004244
       29215000	      2920	00000000	00000013	addi	x0,x0,0	  x0:0x00000000
       29225000	      2921	8000422c	00000013	addi	x0,x0,0	  x0:0x00000000
       29235000	      2922	80004230	020000ef	jal	x1,80004230	  x1=0x80004230
       29245000	      2923	00000000	00000013	addi	x0,x0,0	  x0:0x00000000
       29255000	      2924	8000424c	00000013	addi	x0,x0,0	  x0:0x00000000
       29265000	      2925	80004250	ff1ff0ef	jal	x1,80004250	  x1=0x80004250
       29275000	      2926	00000000	00000013	addi	x0,x0,0	  x0:0x00000000
       29285000	      2927	8000423c	00000013	addi	x0,x0,0	  x0:0x00000000
       29295000	      2928	80004240	00c000ef	jal	x1,80004240	  x1=0x80004240
       29305000	      2929	00000000	00000013	addi	x0,x0,0	  x0:0x00000000
       29315000	      2930	80004248	00000013	addi	x0,x0,0	  x0:0x00000000
       29325000	      2931	8000424c	018000ef	jal	x1,8000424c	  x1=0x8000424c
       29335000	      2932	00000000	00000013	addi	x0,x0,0	  x0:0x00000000
       29345000	      2933	80004260	00000013	addi	x0,x0,0	  x0:0x00000000
       29355000	      2934	80004264	004ec4b3	xor	x9,x29,x4	 x29:0x800045ec  x4:0x80004258  x9=0x000007b4
       29365000	      2935	80004268	90a86013	ori	x0,x16,-1782	 x16:0xbd800000
       29375000	      2936	8000426c	db78fc13	andi	x24,x17,-585	 x17:0x80009fc4 x24=0x80009d84
       29385000	      2937	80004270	9f07ed93	ori	x27,x15,-1552	 x15:0x80004234 x27=0xfffffbf4
       29395000	      2938	80004274	00a42233	slt	x4,x8,x10	  x8:0x00000000 x10:0x00000000  x4=0x00000000
       29405000	      2939	80004278	46ada513	slti	x10,x27,1130	 x27:0xfffffbf4 x10=0x00000001
       29415000	      2940	8000427c	011d9e93	slli	x29,x27,0x11	 x27:0xfffffbf4 x29=0xf7e80000
       29425000	      2941	80004280	03dd9a63	bne	x27,x29,800042b4	 x27:0xfffffbf4 x29:0xf7e80000
       29435000	      2942	00000000	00000013	addi	x0,x0,0	  x0:0x00000000
       29445000	      2943	800042b0	00000013	addi	x0,x0,0	  x0:0x00000000
       29455000	      2944	800042b4	e8428e13	addi	x28,x5,-380	  x5:0x00000000 x28=0xfffffe84
       29465000	      2945	800042b8	00a61463	bne	x12,x10,800042c0	 x12:0x00000004 x10:0x00000001
       29475000	      2946	00000000	00000013	addi	x0,x0,0	  x0:0x00000000
       29485000	      2947	800042bc	00000013	addi	x0,x0,0	  x0:0x00000000
       29495000	      2948	800042c0	82043513	sltiu	x10,x8,-2016	  x8:0x00000000 x10=0x00000001
       29505000	      2949	800042c4	00df3033	sltu	x0,x30,x13	 x30:0x00000001 x13:0x80004454
       29515000	      2950	800042c8	10e3bc13	sltiu	x24,x7,270	  x7:0x92ffa858 x24=0x00000000
       29525000	      2951	800042cc	d20f2b13	slti	x22,x30,-736	 x30:0x00000001 x22=0x00000000
       29535000	      2952	800042d0	7d9b3593	sltiu	x11,x22,2009	 x22:0x00000000 x11=0x00000001
       29545000	      2953	800042d4	008a20b3	slt	x1,x20,x8	 x20:0x80002a18  x8:0x00000000  x1=0x00000001
       29555000	      2954	800042d8	0153d3b3	srl	x7,x7,x21	  x7:0x92ffa858 x21:0x000000f3  x7=0x0000125f
       29565000	      2955	800042dc	0025de93	srli	x29,x11,0x2	 x11:0x00000001 x29=0x00000000
       29575000	      2956	800042e0	01059213	slli	x4,x11,0x10	 x11:0x00000001  x4=0x00010000
       29585000	      2957	800042e4	01da0a63	beq	x20,x29,800042f8	 x20:0x80002a18 x29:0x00000000
       29595000	      2958	800042e8	a23437b7	lui	x15,0xa2343	 x15=0xa2343000
       29605000	      2959	800042ec	04f70663	beq	x14,x15,80004338	 x14:0x00000004 x15:0xa2343000
       29615000	      2960	800042f0	af2f4c93	xori	x25,x30,-1294	 x30:0x00000001 x25=0xfffffaf3
       29625000	      2961	800042f4	0197c4b3	xor	x9,x15,x25	 x15:0xa2343000 x25:0xfffffaf3  x9=0x5dcbcaf3
       29635000	      2962	800042f8	01cd79b3	and	x19,x26,x28	 x26:0x00000001 x28:0xfffffe84 x19=0x00000000
       29645000	      2963	800042fc	000a0263	beq	x20,x0,80004300	 x20:0x80002a18  x0:0x00000000
       29655000	      2964	80004300	1837c213	xori	x4,x15,387	 x15:0xa2343000  x4=0xa2343183
       29665000	      2965	80004304	412cd813	srai	x16,x25,0x12	 x25:0xfffffaf3 x16=0xffffffff
       29675000	      2966	80004308	0002a6b3	slt	x13,x5,x0	  x5:0x00000000  x0:0x00000000 x13=0x00000000
       29685000	      2967	8000430c	68af4797	auipc	x15,0x68af4	 x15=0xe8af8308
       29695000	      2968	80004310	ece9a293	slti	x5,x19,-306	 x19:0x00000000  x5=0x00000000
       29705000	      2969	80004314	6d5ce293	ori	x5,x25,1749	 x25:0xfffffaf3  x5=0xfffffef7
       29715000	      2970	80004318	012b9d13	slli	x26,x23,0x12	 x23:0x80009ef8 x26=0x7be00000
       29725000	      2971	8000431c	050f0063	beq	x30,x16,8000435c	 x30:0x00000001 x16:0xffffffff
       29735000	      2972	80004320	a7f3c997	auipc	x19,0xa7f3c	 x19=0x27f4031c
       29745000	      2973	80004324	01e48db3	add	x27,x9,x30	  x9:0x5dcbcaf3 x30:0x00000001 x27=0x5dcbcaf4
       29755000	      2974	80004328	02590a63	beq	x18,x5,8000435c	 x18:0x80004560  x5:0xfffffef7
       29765000	      2975	8000432c	00000013	addi	x0,x0,0	  x0:0x00000000
       29775000	      2976	80004330	39ae3493	sltiu	x9,x28,922	 x28:0xfffffe84  x9=0x00000000
       29785000	      2977	80004334	01d1b233	sltu	x4,x3,x29	  x3:0x8000425c x29:0x00000000  x4=0x00000000
       29795000	      2978	80004338	85ee4493	xori	x9,x28,-1954	 x28:0xfffffe84  x9=0x000006da
       29805000	      2979	8000433c	0035e463	bltu	x11,x3,80004344	 x11:0x00000001  x3:0x8000425c
       29815000	      2980	00000000	00000013	addi	x0,x0,0	  x0:0x00000000
       29825000	      2981	80004340	00000013	addi	x0,x0,0	  x0:0x00000000
       29835000	      2982	80004344	05079063	bne	x15,x16,80004384	 x15:0xe8af8308 x16:0xffffffff
       29845000	      2983	00000000	00000013	addi	x0,x0,0	  x0:0x00000000
       29855000	      2984	80004380	00000013	addi	x0,x0,0	  x0:0x00000000
       29865000	      2985	80004384	0110ce63	blt	x1,x17,800043a0	  x1:0x00000001 x17:0x80009fc4
       29875000	      2986	80004388	01255c63	bge	x10,x18,800043a0	 x10:0x00000001 x18:0x80004560
       29885000	      2987	00000000	00000013	addi	x0,x0,0	  x0:0x00000000
       29895000	      2988	8000439c	00000013	addi	x0,x0,0	  x0:0x00000000
       29905000	      2989	800043a0	aefc4437	lui	x8,0xaefc4	  x8=0xaefc4000
       29915000	      2990	800043a4	a6784313	xori	x6,x16,-1433	 x16:0xffffffff  x6=0x00000598
       29925000	      2991	800043a8	004ba083	lw	x1,4(x23)	 x23:0x80009ef8  x1=0x800028a8 PA:0x80009efc
       29935000	      2992	800043ac	bc654b13	xori	x22,x10,-1082	 x10:0x00000001 x22=0xfffffbc7
       29945000	      2993	800043b0	024b8b93	addi	x23,x23,36	 x23:0x80009ef8 x23=0x80009f1c
       29955000	      2994	800043b4	014b6633	or	x12,x22,x20	 x22:0xfffffbc7 x20:0x80002a18 x12=0xfffffbdf
       29965000	      2995	800043b8	0112bd33	sltu	x26,x5,x17	  x5:0xfffffef7 x17:0x80009fc4 x26=0x00000000
       29975000	      2996	800043bc	40640833	sub	x16,x8,x6	  x8:0xaefc4000  x6:0x00000598 x16=0xaefc3a68
       29985000	      2997	800043c0	013d7933	and	x18,x26,x19	 x26:0x00000000 x19:0x27f4031c x18=0x00000000
       29995000	      2998	800043c4	01554f33	xor	x30,x10,x21	 x10:0x00000001 x21:0x000000f3 x30=0x000000f2
       30005000	      2999	800043c8	00000013	addi	x0,x0,0	  x0:0x00000000
       30015000	      3000	800043cc	00108513	addi	x10,x1,1	  x1:0x800028a8 x10=0x800028a9
       30025000	      3001	800043d0	00050567	jalr	x10,x10,0	 x10:0x800028a9 x10=0x800043d0
       30035000	      3002	00000000	00000013	addi	x0,x0,0	  x0:0x00000000
       30045000	      3003	800028a8	00000013	addi	x0,x0,0	  x0:0x00000000
       30055000	      3004	800028ac	06c000ef	jal	x1,800028ac	  x1=0x800028ac
       30065000	      3005	00000000	00000013	addi	x0,x0,0	  x0:0x00000000
       30075000	      3006	80002914	00000013	addi	x0,x0,0	  x0:0x00000000
       30085000	      3007	80002918	fe5ff0ef	jal	x1,80002918	  x1=0x80002918
       30095000	      3008	00000000	00000013	addi	x0,x0,0	  x0:0x00000000
       30105000	      3009	800028f8	00000013	addi	x0,x0,0	  x0:0x00000000
       30115000	      3010	800028fc	028002ef	jal	x5,800028fc	  x5=0x800028fc
       30125000	      3011	00000000	00000013	addi	x0,x0,0	  x0:0x00000000
       30135000	      3012	80002920	00000013	addi	x0,x0,0	  x0:0x00000000
       30145000	      3013	80002924	fcdff36f	jal	x6,80002924	  x6=0x80002924
       30155000	      3014	00000000	00000013	addi	x0,x0,0	  x0:0x00000000
       30165000	      3015	800028ec	00000013	addi	x0,x0,0	  x0:0x00000000
       30175000	      3016	800028f0	fedff66f	jal	x12,800028f0	 x12=0x800028f0
       30185000	      3017	00000000	00000013	addi	x0,x0,0	  x0:0x00000000
       30195000	      3018	800028d8	00000013	addi	x0,x0,0	  x0:0x00000000
       30205000	      3019	800028dc	0380036f	jal	x6,800028dc	  x6=0x800028dc
       30215000	      3020	00000000	00000013	addi	x0,x0,0	  x0:0x00000000
       30225000	      3021	80002910	00000013	addi	x0,x0,0	  x0:0x00000000
       30235000	      3022	80002914	fbdff0ef	jal	x1,80002914	  x1=0x80002914
       30245000	      3023	00000000	00000013	addi	x0,x0,0	  x0:0x00000000
       30255000	      3024	800028cc	00000013	addi	x0,x0,0	  x0:0x00000000
       30265000	      3025	800028d0	0180036f	jal	x6,800028d0	  x6=0x800028d0
       30275000	      3026	00000000	00000013	addi	x0,x0,0	  x0:0x00000000
       30285000	      3027	800028e4	00000013	addi	x0,x0,0	  x0:0x00000000
       30295000	      3028	800028e8	0380016f	jal	x2,800028e8	  x2=0x800028e8
       30305000	      3029	00000000	00000013	addi	x0,x0,0	  x0:0x00000000
       30315000	      3030	8000291c	00000013	addi	x0,x0,0	  x0:0x00000000
       30325000	      3031	80002920	fb9ff0ef	jal	x1,80002920	  x1=0x80002920
       30335000	      3032	00000000	00000013	addi	x0,x0,0	  x0:0x00000000
       30345000	      3033	800028d4	00000013	addi	x0,x0,0	  x0:0x00000000
       30355000	      3034	800028d8	0140026f	jal	x4,800028d8	  x4=0x800028d8
       30365000	      3035	00000000	00000013	addi	x0,x0,0	  x0:0x00000000
       30375000	      3036	800028e8	00000013	addi	x0,x0,0	  x0:0x00000000
       30385000	      3037	800028ec	ff9ff36f	jal	x6,800028ec	  x6=0x800028ec
       30395000	      3038	00000000	00000013	addi	x0,x0,0	  x0:0x00000000
       30405000	      3039	800028e0	00000013	addi	x0,x0,0	  x0:0x00000000
       30415000	      3040	800028e4	014000ef	jal	x1,800028e4	  x1=0x800028e4
       30425000	      3041	00000000	00000013	addi	x0,x0,0	  x0:0x00000000
       30435000	      3042	800028f4	00000013	addi	x0,x0,0	  x0:0x00000000
       30445000	      3043	800028f8	fddff4ef	jal	x9,800028f8	  x9=0x800028f8
       30455000	      3044	00000000	00000013	addi	x0,x0,0	  x0:0x00000000
       30465000	      3045	800028d0	00000013	addi	x0,x0,0	  x0:0x00000000
       30475000	      3046	800028d4	04800d6f	jal	x26,800028d4	 x26=0x800028d4
       30485000	      3047	00000000	00000013	addi	x0,x0,0	  x0:0x00000000
       30495000	      3048	80002918	00000013	addi	x0,x0,0	  x0:0x00000000
       30505000	      3049	8000291c	fedffaef	jal	x21,8000291c	 x21=0x8000291c
       30515000	      3050	00000000	00000013	addi	x0,x0,0	  x0:0x00000000
       30525000	      3051	80002904	00000013	addi	x0,x0,0	  x0:0x00000000
       30535000	      3052	80002908	fbdff0ef	jal	x1,80002908	  x1=0x80002908
       30545000	      3053	00000000	00000013	addi	x0,x0,0	  x0:0x00000000
       30555000	      3054	800028c0	00000013	addi	x0,x0,0	  x0:0x00000000
       30565000	      3055	800028c4	00800d6f	jal	x26,800028c4	 x26=0x800028c4
       30575000	      3056	00000000	00000013	addi	x0,x0,0	  x0:0x00000000
       30585000	      3057	800028c8	00000013	addi	x0,x0,0	  x0:0x00000000
       30595000	      3058	800028cc	fe5ff36f	jal	x6,800028cc	  x6=0x800028cc
       30605000	      3059	00000000	00000013	addi	x0,x0,0	  x0:0x00000000
       30615000	      3060	800028ac	00000013	addi	x0,x0,0	  x0:0x00000000
       30625000	      3061	800028b0	00c000ef	jal	x1,800028b0	  x1=0x800028b0
       30635000	      3062	00000000	00000013	addi	x0,x0,0	  x0:0x00000000
       30645000	      3063	800028b8	00000013	addi	x0,x0,0	  x0:0x00000000
       30655000	      3064	800028bc	05400b6f	jal	x22,800028bc	 x22=0x800028bc
       30665000	      3065	00000000	00000013	addi	x0,x0,0	  x0:0x00000000
       30675000	      3066	8000290c	00000013	addi	x0,x0,0	  x0:0x00000000
       30685000	      3067	80002910	fb9ff4ef	jal	x9,80002910	  x9=0x80002910
       30695000	      3068	00000000	00000013	addi	x0,x0,0	  x0:0x00000000
       30705000	      3069	800028c4	00000013	addi	x0,x0,0	  x0:0x00000000
       30715000	      3070	800028c8	03c0036f	jal	x6,800028c8	  x6=0x800028c8
       30725000	      3071	00000000	00000013	addi	x0,x0,0	  x0:0x00000000
       30735000	      3072	80002900	00000013	addi	x0,x0,0	  x0:0x00000000
       30745000	      3073	80002904	fddff0ef	jal	x1,80002904	  x1=0x80002904
       30755000	      3074	00000000	00000013	addi	x0,x0,0	  x0:0x00000000
       30765000	      3075	800028dc	00000013	addi	x0,x0,0	  x0:0x00000000
       30775000	      3076	800028e0	0200086f	jal	x16,800028e0	 x16=0x800028e0
       30785000	      3077	00000000	00000013	addi	x0,x0,0	  x0:0x00000000
       30795000	      3078	800028fc	00000013	addi	x0,x0,0	  x0:0x00000000
       30805000	      3079	80002900	fc1ff0ef	jal	x1,80002900	  x1=0x80002900
       30815000	      3080	00000000	00000013	addi	x0,x0,0	  x0:0x00000000
       30825000	      3081	800028bc	00000013	addi	x0,x0,0	  x0:0x00000000
       30835000	      3082	800028c0	ff5ff0ef	jal	x1,800028c0	  x1=0x800028c0
       30845000	      3083	00000000	00000013	addi	x0,x0,0	  x0:0x00000000
       30855000	      3084	800028b0	00000013	addi	x0,x0,0	  x0:0x00000000
       30865000	      3085	800028b4	04000e6f	jal	x28,800028b4	 x28=0x800028b4
       30875000	      3086	00000000	00000013	addi	x0,x0,0	  x0:0x00000000
       30885000	      3087	800028f0	00000013	addi	x0,x0,0	  x0:0x00000000
       30895000	      3088	800028f4	fc5ffcef	jal	x25,800028f4	 x25=0x800028f4
       30905000	      3089	00000000	00000013	addi	x0,x0,0	  x0:0x00000000
       30915000	      3090	800028b4	00000013	addi	x0,x0,0	  x0:0x00000000
       30925000	      3091	800028b8	05400aef	jal	x21,800028b8	 x21=0x800028b8
       30935000	      3092	00000000	00000013	addi	x0,x0,0	  x0:0x00000000
       30945000	      3093	80002908	00000013	addi	x0,x0,0	  x0:0x00000000
       30955000	      3094	8000290c	01c000ef	jal	x1,8000290c	  x1=0x8000290c
       30965000	      3095	00000000	00000013	addi	x0,x0,0	  x0:0x00000000
       30975000	      3096	80002924	00000013	addi	x0,x0,0	  x0:0x00000000
       30985000	      3097	80002928	0f006813	ori	x16,x0,240	  x0:0x00000000 x16=0x000000f0
       30995000	      3098	8000292c	004000ef	jal	x1,8000292c	  x1=0x8000292c
       31005000	      3099	00000000	00000013	addi	x0,x0,0	  x0:0x00000000
       31015000	      3100	8000292c	00000013	addi	x0,x0,0	  x0:0x00000000
       31025000	      3101	80002930	004000ef	jal	x1,80002930	  x1=0x80002930
       31035000	      3102	00000000	00000013	addi	x0,x0,0	  x0:0x00000000
       31045000	      3103	80002930	00000013	addi	x0,x0,0	  x0:0x00000000
       31055000	      3104	80002934	0540016f	jal	x2,80002934	  x2=0x80002934
       31065000	      3105	00000000	00000013	addi	x0,x0,0	  x0:0x00000000
       31075000	      3106	80002984	00000013	addi	x0,x0,0	  x0:0x00000000
       31085000	      3107	80002988	ff1ff0ef	jal	x1,80002988	  x1=0x80002988
       31095000	      3108	00000000	00000013	addi	x0,x0,0	  x0:0x00000000
       31105000	      3109	80002974	00000013	addi	x0,x0,0	  x0:0x00000000
       31115000	      3110	80002978	fd1ff0ef	jal	x1,80002978	  x1=0x80002978
       31125000	      3111	00000000	00000013	addi	x0,x0,0	  x0:0x00000000
       31135000	      3112	80002944	00000013	addi	x0,x0,0	  x0:0x00000000
       31145000	      3113	80002948	024000ef	jal	x1,80002948	  x1=0x80002948
       31155000	      3114	00000000	00000013	addi	x0,x0,0	  x0:0x00000000
       31165000	      3115	80002968	00000013	addi	x0,x0,0	  x0:0x00000000
       31175000	      3116	8000296c	0280036f	jal	x6,8000296c	  x6=0x8000296c
       31185000	      3117	00000000	00000013	addi	x0,x0,0	  x0:0x00000000
       31195000	      3118	80002990	00000013	addi	x0,x0,0	  x0:0x00000000
       31205000	      3119	80002994	ffdff0ef	jal	x1,80002994	  x1=0x80002994
       31215000	      3120	00000000	00000013	addi	x0,x0,0	  x0:0x00000000
       31225000	      3121	8000298c	00000013	addi	x0,x0,0	  x0:0x00000000
       31235000	      3122	80002990	fc5ff16f	jal	x2,80002990	  x2=0x80002990
       31245000	      3123	00000000	00000013	addi	x0,x0,0	  x0:0x00000000
       31255000	      3124	80002950	00000013	addi	x0,x0,0	  x0:0x00000000
       31265000	      3125	80002954	0300036f	jal	x6,80002954	  x6=0x80002954
       31275000	      3126	00000000	00000013	addi	x0,x0,0	  x0:0x00000000
       31285000	      3127	80002980	00000013	addi	x0,x0,0	  x0:0x00000000
       31295000	      3128	80002984	fc9ff36f	jal	x6,80002984	  x6=0x80002984
       31305000	      3129	00000000	00000013	addi	x0,x0,0	  x0:0x00000000
       31315000	      3130	80002948	00000013	addi	x0,x0,0	  x0:0x00000000
       31325000	      3131	8000294c	0280036f	jal	x6,8000294c	  x6=0x8000294c
       31335000	      3132	00000000	00000013	addi	x0,x0,0	  x0:0x00000000
       31345000	      3133	80002970	00000013	addi	x0,x0,0	  x0:0x00000000
       31355000	      3134	80002974	ff1ffc6f	jal	x24,80002974	 x24=0x80002974
       31365000	      3135	00000000	00000013	addi	x0,x0,0	  x0:0x00000000
       31375000	      3136	80002960	00000013	addi	x0,x0,0	  x0:0x00000000
       31385000	      3137	80002964	018000ef	jal	x1,80002964	  x1=0x80002964
       31395000	      3138	00000000	00000013	addi	x0,x0,0	  x0:0x00000000
       31405000	      3139	80002978	00000013	addi	x0,x0,0	  x0:0x00000000
       31415000	      3140	8000297c	ff5ff36f	jal	x6,8000297c	  x6=0x8000297c
       31425000	      3141	00000000	00000013	addi	x0,x0,0	  x0:0x00000000
       31435000	      3142	8000296c	00000013	addi	x0,x0,0	  x0:0x00000000
       31445000	      3143	80002970	fd5ff0ef	jal	x1,80002970	  x1=0x80002970
       31455000	      3144	00000000	00000013	addi	x0,x0,0	  x0:0x00000000
       31465000	      3145	80002940	00000013	addi	x0,x0,0	  x0:0x00000000
       31475000	      3146	80002944	03c001ef	jal	x3,80002944	  x3=0x80002944
       31485000	      3147	00000000	00000013	addi	x0,x0,0	  x0:0x00000000
       31495000	      3148	8000297c	00000013	addi	x0,x0,0	  x0:0x00000000
       31505000	      3149	80002980	fb9ff1ef	jal	x3,80002980	  x3=0x80002980
       31515000	      3150	00000000	00000013	addi	x0,x0,0	  x0:0x00000000
       31525000	      3151	80002934	00000013	addi	x0,x0,0	  x0:0x00000000
       31535000	      3152	80002938	0540036f	jal	x6,80002938	  x6=0x80002938
       31545000	      3153	00000000	00000013	addi	x0,x0,0	  x0:0x00000000
       31555000	      3154	80002988	00000013	addi	x0,x0,0	  x0:0x00000000
       31565000	      3155	8000298c	fd1ff0ef	jal	x1,8000298c	  x1=0x8000298c
       31575000	      3156	00000000	00000013	addi	x0,x0,0	  x0:0x00000000
       31585000	      3157	80002958	00000013	addi	x0,x0,0	  x0:0x00000000
       31595000	      3158	8000295c	ff5ff0ef	jal	x1,8000295c	  x1=0x8000295c
       31605000	      3159	00000000	00000013	addi	x0,x0,0	  x0:0x00000000
       31615000	      3160	8000294c	00000013	addi	x0,x0,0	  x0:0x00000000
       31625000	      3161	80002950	010000ef	jal	x1,80002950	  x1=0x80002950
       31635000	      3162	00000000	00000013	addi	x0,x0,0	  x0:0x00000000
       31645000	      3163	8000295c	00000013	addi	x0,x0,0	  x0:0x00000000
       31655000	      3164	80002960	008000ef	jal	x1,80002960	  x1=0x80002960
       31665000	      3165	00000000	00000013	addi	x0,x0,0	  x0:0x00000000
       31675000	      3166	80002964	00000013	addi	x0,x0,0	  x0:0x00000000
       31685000	      3167	80002968	fd9ffaef	jal	x21,80002968	 x21=0x80002968
       31695000	      3168	00000000	00000013	addi	x0,x0,0	  x0:0x00000000
       31705000	      3169	8000293c	00000013	addi	x0,x0,0	  x0:0x00000000
       31715000	      3170	80002940	0180036f	jal	x6,80002940	  x6=0x80002940
       31725000	      3171	00000000	00000013	addi	x0,x0,0	  x0:0x00000000
       31735000	      3172	80002954	00000013	addi	x0,x0,0	  x0:0x00000000
       31745000	      3173	80002958	fe5ff0ef	jal	x1,80002958	  x1=0x80002958
       31755000	      3174	00000000	00000013	addi	x0,x0,0	  x0:0x00000000
       31765000	      3175	80002938	00000013	addi	x0,x0,0	  x0:0x00000000
       31775000	      3176	8000293c	05c0036f	jal	x6,8000293c	  x6=0x8000293c
       31785000	      3177	00000000	00000013	addi	x0,x0,0	  x0:0x00000000
       31795000	      3178	80002994	00000013	addi	x0,x0,0	  x0:0x00000000
       31805000	      3179	80002998	00df13b3	sll	x7,x30,x13	 x30:0x000000f2 x13:0x00000000  x7=0x000000f2
       31815000	      3180	8000299c	03c000ef	jal	x1,8000299c	  x1=0x8000299c
       31825000	      3181	00000000	00000013	addi	x0,x0,0	  x0:0x00000000
       31835000	      3182	800029d4	00000013	addi	x0,x0,0	  x0:0x00000000
       31845000	      3183	800029d8	ff5ff0ef	jal	x1,800029d8	  x1=0x800029d8
       31855000	      3184	00000000	00000013	addi	x0,x0,0	  x0:0x00000000
       31865000	      3185	800029c8	00000013	addi	x0,x0,0	  x0:0x00000000
       31875000	      3186	800029cc	ff1ff0ef	jal	x1,800029cc	  x1=0x800029cc
       31885000	      3187	00000000	00000013	addi	x0,x0,0	  x0:0x00000000
       31895000	      3188	800029b8	00000013	addi	x0,x0,0	  x0:0x00000000
       31905000	      3189	800029bc	008000ef	jal	x1,800029bc	  x1=0x800029bc
       31915000	      3190	00000000	00000013	addi	x0,x0,0	  x0:0x00000000
       31925000	      3191	800029c0	00000013	addi	x0,x0,0	  x0:0x00000000
       31935000	      3192	800029c4	ffdff1ef	jal	x3,800029c4	  x3=0x800029c4
       31945000	      3193	00000000	00000013	addi	x0,x0,0	  x0:0x00000000
       31955000	      3194	800029bc	00000013	addi	x0,x0,0	  x0:0x00000000
       31965000	      3195	800029c0	ff1ffeef	jal	x29,800029c0	 x29=0x800029c0
       31975000	      3196	00000000	00000013	addi	x0,x0,0	  x0:0x00000000
       31985000	      3197	800029ac	00000013	addi	x0,x0,0	  x0:0x00000000
       31995000	      3198	800029b0	0040016f	jal	x2,800029b0	  x2=0x800029b0
       32005000	      3199	00000000	00000013	addi	x0,x0,0	  x0:0x00000000
       32015000	      3200	800029b0	00000013	addi	x0,x0,0	  x0:0x00000000
       32025000	      3201	800029b4	020000ef	jal	x1,800029b4	  x1=0x800029b4
       32035000	      3202	00000000	00000013	addi	x0,x0,0	  x0:0x00000000
       32045000	      3203	800029d0	00000013	addi	x0,x0,0	  x0:0x00000000
       32055000	      3204	800029d4	fd1ffeef	jal	x29,800029d4	 x29=0x800029d4
       32065000	      3205	00000000	00000013	addi	x0,x0,0	  x0:0x00000000
       32075000	      3206	800029a0	00000013	addi	x0,x0,0	  x0:0x00000000
       32085000	      3207	800029a4	ffdff0ef	jal	x1,800029a4	  x1=0x800029a4
       32095000	      3208	00000000	00000013	addi	x0,x0,0	  x0:0x00000000
       32105000	      3209	8000299c	00000013	addi	x0,x0,0	  x0:0x00000000
       32115000	      3210	800029a0	018000ef	jal	x1,800029a0	  x1=0x800029a0
       32125000	      3211	00000000	00000013	addi	x0,x0,0	  x0:0x00000000
       32135000	      3212	800029b4	00000013	addi	x0,x0,0	  x0:0x00000000
       32145000	      3213	800029b8	024000ef	jal	x1,800029b8	  x1=0x800029b8
       32155000	      3214	00000000	00000013	addi	x0,x0,0	  x0:0x00000000
       32165000	      3215	800029d8	00000013	addi	x0,x0,0	  x0:0x00000000
       32175000	      3216	800029dc	fd1ff0ef	jal	x1,800029dc	  x1=0x800029dc
       32185000	      3217	00000000	00000013	addi	x0,x0,0	  x0:0x00000000
       32195000	      3218	800029a8	00000013	addi	x0,x0,0	  x0:0x00000000
       32205000	      3219	800029ac	024000ef	jal	x1,800029ac	  x1=0x800029ac
       32215000	      3220	00000000	00000013	addi	x0,x0,0	  x0:0x00000000
       32225000	      3221	800029cc	00000013	addi	x0,x0,0	  x0:0x00000000
       32235000	      3222	800029d0	ff9ff0ef	jal	x1,800029d0	  x1=0x800029d0
       32245000	      3223	00000000	00000013	addi	x0,x0,0	  x0:0x00000000
       32255000	      3224	800029c4	00000013	addi	x0,x0,0	  x0:0x00000000
       32265000	      3225	800029c8	fe1ff0ef	jal	x1,800029c8	  x1=0x800029c8
       32275000	      3226	00000000	00000013	addi	x0,x0,0	  x0:0x00000000
       32285000	      3227	800029a4	00000013	addi	x0,x0,0	  x0:0x00000000
       32295000	      3228	800029a8	038000ef	jal	x1,800029a8	  x1=0x800029a8
       32305000	      3229	00000000	00000013	addi	x0,x0,0	  x0:0x00000000
       32315000	      3230	800029dc	00000013	addi	x0,x0,0	  x0:0x00000000
       32325000	      3231	800029e0	854e3413	sltiu	x8,x28,-1964	 x28:0x800028b4  x8=0x00000001
       32335000	      3232	800029e4	02c000ef	jal	x1,800029e4	  x1=0x800029e4
       32345000	      3233	00000000	00000013	addi	x0,x0,0	  x0:0x00000000
       32355000	      3234	80002a0c	00000013	addi	x0,x0,0	  x0:0x00000000
       32365000	      3235	80002a10	fddff36f	jal	x6,80002a10	  x6=0x80002a10
       32375000	      3236	00000000	00000013	addi	x0,x0,0	  x0:0x00000000
       32385000	      3237	800029e8	00000013	addi	x0,x0,0	  x0:0x00000000
       32395000	      3238	800029ec	014000ef	jal	x1,800029ec	  x1=0x800029ec
       32405000	      3239	00000000	00000013	addi	x0,x0,0	  x0:0x00000000
       32415000	      3240	800029fc	00000013	addi	x0,x0,0	  x0:0x00000000
       32425000	      3241	80002a00	ff1ff0ef	jal	x1,80002a00	  x1=0x80002a00
       32435000	      3242	00000000	00000013	addi	x0,x0,0	  x0:0x00000000
       32445000	      3243	800029ec	00000013	addi	x0,x0,0	  x0:0x00000000
       32455000	      3244	800029f0	018000ef	jal	x1,800029f0	  x1=0x800029f0
       32465000	      3245	00000000	00000013	addi	x0,x0,0	  x0:0x00000000
       32475000	      3246	80002a04	00000013	addi	x0,x0,0	  x0:0x00000000
       32485000	      3247	80002a08	ffdff0ef	jal	x1,80002a08	  x1=0x80002a08
       32495000	      3248	00000000	00000013	addi	x0,x0,0	  x0:0x00000000
       32505000	      3249	80002a00	00000013	addi	x0,x0,0	  x0:0x00000000
       32515000	      3250	80002a04	ff5ff0ef	jal	x1,80002a04	  x1=0x80002a04
       32525000	      3251	00000000	00000013	addi	x0,x0,0	  x0:0x00000000
       32535000	      3252	800029f4	00000013	addi	x0,x0,0	  x0:0x00000000
       32545000	      3253	800029f8	01c00e6f	jal	x28,800029f8	 x28=0x800029f8
       32555000	      3254	00000000	00000013	addi	x0,x0,0	  x0:0x00000000
       32565000	      3255	80002a10	00000013	addi	x0,x0,0	  x0:0x00000000
       32575000	      3256	80002a14	ff9ff0ef	jal	x1,80002a14	  x1=0x80002a14
       32585000	      3257	00000000	00000013	addi	x0,x0,0	  x0:0x00000000
       32595000	      3258	80002a08	00000013	addi	x0,x0,0	  x0:0x00000000
       32605000	      3259	80002a0c	ff1ffdef	jal	x27,80002a0c	 x27=0x80002a0c
       32615000	      3260	00000000	00000013	addi	x0,x0,0	  x0:0x00000000
       32625000	      3261	800029f8	00000013	addi	x0,x0,0	  x0:0x00000000
       32635000	      3262	800029fc	fedff0ef	jal	x1,800029fc	  x1=0x800029fc
       32645000	      3263	00000000	00000013	addi	x0,x0,0	  x0:0x00000000
       32655000	      3264	800029e4	00000013	addi	x0,x0,0	  x0:0x00000000
       32665000	      3265	800029e8	00c0036f	jal	x6,800029e8	  x6=0x800029e8
       32675000	      3266	00000000	00000013	addi	x0,x0,0	  x0:0x00000000
       32685000	      3267	800029f0	00000013	addi	x0,x0,0	  x0:0x00000000
       32695000	      3268	800029f4	0240016f	jal	x2,800029f4	  x2=0x800029f4
       32705000	      3269	00000000	00000013	addi	x0,x0,0	  x0:0x00000000
       32715000	      3270	80002a14	00000013	addi	x0,x0,0	  x0:0x00000000
       32725000	      3271	80002a18	004000ef	jal	x1,80002a18	  x1=0x80002a18
       32735000	      3272	00000000	00000013	addi	x0,x0,0	  x0:0x00000000
       32745000	      3273	80002a18	00000013	addi	x0,x0,0	  x0:0x00000000
       32755000	      3274	80002a1c	004000ef	jal	x1,80002a1c	  x1=0x80002a1c
       32765000	      3275	00000000	00000013	addi	x0,x0,0	  x0:0x00000000
       32775000	      3276	80002a1c	00000013	addi	x0,x0,0	  x0:0x00000000
       32785000	      3277	80002a20	1a0e4093	xori	x1,x28,416	 x28:0x800029f8  x1=0x80002858
       32795000	      3278	80002a24	018000ef	jal	x1,80002a24	  x1=0x80002a24
       32805000	      3279	00000000	00000013	addi	x0,x0,0	  x0:0x00000000
       32815000	      3280	80002a38	00000013	addi	x0,x0,0	  x0:0x00000000
       32825000	      3281	80002a3c	010000ef	jal	x1,80002a3c	  x1=0x80002a3c
       32835000	      3282	00000000	00000013	addi	x0,x0,0	  x0:0x00000000
       32845000	      3283	80002a48	00000013	addi	x0,x0,0	  x0:0x00000000
       32855000	      3284	80002a4c	fe5ff36f	jal	x6,80002a4c	  x6=0x80002a4c
       32865000	      3285	00000000	00000013	addi	x0,x0,0	  x0:0x00000000
       32875000	      3286	80002a2c	00000013	addi	x0,x0,0	  x0:0x00000000
       32885000	      3287	80002a30	ff9ff0ef	jal	x1,80002a30	  x1=0x80002a30
       32895000	      3288	00000000	00000013	addi	x0,x0,0	  x0:0x00000000
       32905000	      3289	80002a24	00000013	addi	x0,x0,0	  x0:0x00000000
       32915000	      3290	80002a28	018000ef	jal	x1,80002a28	  x1=0x80002a28
       32925000	      3291	00000000	00000013	addi	x0,x0,0	  x0:0x00000000
       32935000	      3292	80002a3c	00000013	addi	x0,x0,0	  x0:0x00000000
       32945000	      3293	80002a40	fedff36f	jal	x6,80002a40	  x6=0x80002a40
       32955000	      3294	00000000	00000013	addi	x0,x0,0	  x0:0x00000000
       32965000	      3295	80002a28	00000013	addi	x0,x0,0	  x0:0x00000000
       32975000	      3296	80002a2c	008000ef	jal	x1,80002a2c	  x1=0x80002a2c
       32985000	      3297	00000000	00000013	addi	x0,x0,0	  x0:0x00000000
       32995000	      3298	80002a30	00000013	addi	x0,x0,0	  x0:0x00000000
       33005000	      3299	80002a34	01c000ef	jal	x1,80002a34	  x1=0x80002a34
       33015000	      3300	00000000	00000013	addi	x0,x0,0	  x0:0x00000000
       33025000	      3301	80002a4c	00000013	addi	x0,x0,0	  x0:0x00000000
       33035000	      3302	80002a50	ff9ff36f	jal	x6,80002a50	  x6=0x80002a50
       33045000	      3303	00000000	00000013	addi	x0,x0,0	  x0:0x00000000
       33055000	      3304	80002a44	00000013	addi	x0,x0,0	  x0:0x00000000
       33065000	      3305	80002a48	ffdff2ef	jal	x5,80002a48	  x5=0x80002a48
       33075000	      3306	00000000	00000013	addi	x0,x0,0	  x0:0x00000000
       33085000	      3307	80002a40	00000013	addi	x0,x0,0	  x0:0x00000000
       33095000	      3308	80002a44	ff5ff0ef	jal	x1,80002a44	  x1=0x80002a44
       33105000	      3309	00000000	00000013	addi	x0,x0,0	  x0:0x00000000
       33115000	      3310	80002a34	00000013	addi	x0,x0,0	  x0:0x00000000
       33125000	      3311	80002a38	01c0036f	jal	x6,80002a38	  x6=0x80002a38
       33135000	      3312	00000000	00000013	addi	x0,x0,0	  x0:0x00000000
       33145000	      3313	80002a50	00000013	addi	x0,x0,0	  x0:0x00000000
       33155000	      3314	80002a54	004000ef	jal	x1,80002a54	  x1=0x80002a54
       33165000	      3315	00000000	00000013	addi	x0,x0,0	  x0:0x00000000
       33175000	      3316	80002a54	00000013	addi	x0,x0,0	  x0:0x00000000
       33185000	      3317	80002a58	8ecc7a37	lui	x20,0x8ecc7	 x20=0x8ecc7000
       33195000	      3318	80002a5c	028000ef	jal	x1,80002a5c	  x1=0x80002a5c
       33205000	      3319	00000000	00000013	addi	x0,x0,0	  x0:0x00000000
       33215000	      3320	80002a80	00000013	addi	x0,x0,0	  x0:0x00000000
       33225000	      3321	80002a84	048000ef	jal	x1,80002a84	  x1=0x80002a84
       33235000	      3322	00000000	00000013	addi	x0,x0,0	  x0:0x00000000
       33245000	      3323	80002ac8	00000013	addi	x0,x0,0	  x0:0x00000000
       33255000	      3324	80002acc	fd9ff0ef	jal	x1,80002acc	  x1=0x80002acc
       33265000	      3325	00000000	00000013	addi	x0,x0,0	  x0:0x00000000
       33275000	      3326	80002aa0	00000013	addi	x0,x0,0	  x0:0x00000000
       33285000	      3327	80002aa4	fe9ff6ef	jal	x13,80002aa4	 x13=0x80002aa4
       33295000	      3328	00000000	00000013	addi	x0,x0,0	  x0:0x00000000
       33305000	      3329	80002a88	00000013	addi	x0,x0,0	  x0:0x00000000
       33315000	      3330	80002a8c	ff5ff36f	jal	x6,80002a8c	  x6=0x80002a8c
       33325000	      3331	00000000	00000013	addi	x0,x0,0	  x0:0x00000000
       33335000	      3332	80002a7c	00000013	addi	x0,x0,0	  x0:0x00000000
       33345000	      3333	80002a80	030000ef	jal	x1,80002a80	  x1=0x80002a80
       33355000	      3334	00000000	00000013	addi	x0,x0,0	  x0:0x00000000
       33365000	      3335	80002aac	00000013	addi	x0,x0,0	  x0:0x00000000
       33375000	      3336	80002ab0	fb5ff5ef	jal	x11,80002ab0	 x11=0x80002ab0
       33385000	      3337	00000000	00000013	addi	x0,x0,0	  x0:0x00000000
       33395000	      3338	80002a60	00000013	addi	x0,x0,0	  x0:0x00000000
       33405000	      3339	80002a64	0180036f	jal	x6,80002a64	  x6=0x80002a64
       33415000	      3340	00000000	00000013	addi	x0,x0,0	  x0:0x00000000
       33425000	      3341	80002a78	00000013	addi	x0,x0,0	  x0:0x00000000
       33435000	      3342	80002a7c	024007ef	jal	x15,80002a7c	 x15=0x80002a7c
       33445000	      3343	00000000	00000013	addi	x0,x0,0	  x0:0x00000000
       33455000	      3344	80002a9c	00000013	addi	x0,x0,0	  x0:0x00000000
       33465000	      3345	80002aa0	fe9ff0ef	jal	x1,80002aa0	  x1=0x80002aa0
       33475000	      3346	00000000	00000013	addi	x0,x0,0	  x0:0x00000000
       33485000	      3347	80002a84	00000013	addi	x0,x0,0	  x0:0x00000000
       33495000	      3348	80002a88	008003ef	jal	x7,80002a88	  x7=0x80002a88
       33505000	      3349	00000000	00000013	addi	x0,x0,0	  x0:0x00000000
       33515000	      3350	80002a8c	00000013	addi	x0,x0,0	  x0:0x00000000
       33525000	      3351	80002a90	044000ef	jal	x1,80002a90	  x1=0x80002a90
       33535000	      3352	00000000	00000013	addi	x0,x0,0	  x0:0x00000000
       33545000	      3353	80002ad0	00000013	addi	x0,x0,0	  x0:0x00000000
       33555000	      3354	80002ad4	fedfffef	jal	x31,80002ad4	 x31=0x80002ad4
       33565000	      3355	00000000	00000013	addi	x0,x0,0	  x0:0x00000000
       33575000	      3356	80002abc	00000013	addi	x0,x0,0	  x0:0x00000000
       33585000	      3357	80002ac0	fddff36f	jal	x6,80002ac0	  x6=0x80002ac0
       33595000	      3358	00000000	00000013	addi	x0,x0,0	  x0:0x00000000
       33605000	      3359	80002a98	00000013	addi	x0,x0,0	  x0:0x00000000
       33615000	      3360	80002a9c	fcdffeef	jal	x29,80002a9c	 x29=0x80002a9c
       33625000	      3361	00000000	00000013	addi	x0,x0,0	  x0:0x00000000
       33635000	      3362	80002a64	00000013	addi	x0,x0,0	  x0:0x00000000
       33645000	      3363	80002a68	0680036f	jal	x6,80002a68	  x6=0x80002a68
       33655000	      3364	00000000	00000013	addi	x0,x0,0	  x0:0x00000000
       33665000	      3365	80002acc	00000013	addi	x0,x0,0	  x0:0x00000000
       33675000	      3366	80002ad0	fc9ff36f	jal	x6,80002ad0	  x6=0x80002ad0
       33685000	      3367	00000000	00000013	addi	x0,x0,0	  x0:0x00000000
       33695000	      3368	80002a94	00000013	addi	x0,x0,0	  x0:0x00000000
       33705000	      3369	80002a98	0240036f	jal	x6,80002a98	  x6=0x80002a98
       33715000	      3370	00000000	00000013	addi	x0,x0,0	  x0:0x00000000
       33725000	      3371	80002ab8	00000013	addi	x0,x0,0	  x0:0x00000000
       33735000	      3372	80002abc	fd9ffdef	jal	x27,80002abc	 x27=0x80002abc
       33745000	      3373	00000000	00000013	addi	x0,x0,0	  x0:0x00000000
       33755000	      3374	80002a90	00000013	addi	x0,x0,0	  x0:0x00000000
       33765000	      3375	80002a94	fe5ff0ef	jal	x1,80002a94	  x1=0x80002a94
       33775000	      3376	00000000	00000013	addi	x0,x0,0	  x0:0x00000000
       33785000	      3377	80002a74	00000013	addi	x0,x0,0	  x0:0x00000000
       33795000	      3378	80002a78	fe9ffc6f	jal	x24,80002a78	 x24=0x80002a78
       33805000	      3379	00000000	00000013	addi	x0,x0,0	  x0:0x00000000
       33815000	      3380	80002a5c	00000013	addi	x0,x0,0	  x0:0x00000000
       33825000	      3381	80002a60	0680086f	jal	x16,80002a60	 x16=0x80002a60
       33835000	      3382	00000000	00000013	addi	x0,x0,0	  x0:0x00000000
       33845000	      3383	80002ac4	00000013	addi	x0,x0,0	  x0:0x00000000
       33855000	      3384	80002ac8	fe5ff36f	jal	x6,80002ac8	  x6=0x80002ac8
       33865000	      3385	00000000	00000013	addi	x0,x0,0	  x0:0x00000000
       33875000	      3386	80002aa8	00000013	addi	x0,x0,0	  x0:0x00000000
       33885000	      3387	80002aac	fc9ff0ef	jal	x1,80002aac	  x1=0x80002aac
       33895000	      3388	00000000	00000013	addi	x0,x0,0	  x0:0x00000000
       33905000	      3389	80002a70	00000013	addi	x0,x0,0	  x0:0x00000000
       33915000	      3390	80002a74	ffdff0ef	jal	x1,80002a74	  x1=0x80002a74
       33925000	      3391	00000000	00000013	addi	x0,x0,0	  x0:0x00000000
       33935000	      3392	80002a6c	00000013	addi	x0,x0,0	  x0:0x00000000
       33945000	      3393	80002a70	038000ef	jal	x1,80002a70	  x1=0x80002a70
       33955000	      3394	00000000	00000013	addi	x0,x0,0	  x0:0x00000000
       33965000	      3395	80002aa4	00000013	addi	x0,x0,0	  x0:0x00000000
       33975000	      3396	80002aa8	010000ef	jal	x1,80002aa8	  x1=0x80002aa8
       33985000	      3397	00000000	00000013	addi	x0,x0,0	  x0:0x00000000
       33995000	      3398	80002ab4	00000013	addi	x0,x0,0	  x0:0x00000000
       34005000	      3399	80002ab8	00c001ef	jal	x3,80002ab8	  x3=0x80002ab8
       34015000	      3400	00000000	00000013	addi	x0,x0,0	  x0:0x00000000
       34025000	      3401	80002ac0	00000013	addi	x0,x0,0	  x0:0x00000000
       34035000	      3402	80002ac4	fa9ff5ef	jal	x11,80002ac4	 x11=0x80002ac4
       34045000	      3403	00000000	00000013	addi	x0,x0,0	  x0:0x00000000
       34055000	      3404	80002a68	00000013	addi	x0,x0,0	  x0:0x00000000
       34065000	      3405	80002a6c	04800eef	jal	x29,80002a6c	 x29=0x80002a6c
       34075000	      3406	00000000	00000013	addi	x0,x0,0	  x0:0x00000000
       34085000	      3407	80002ab0	00000013	addi	x0,x0,0	  x0:0x00000000
       34095000	      3408	80002ab4	024000ef	jal	x1,80002ab4	  x1=0x80002ab4
       34105000	      3409	00000000	00000013	addi	x0,x0,0	  x0:0x00000000
       34115000	      3410	80002ad4	00000013	addi	x0,x0,0	  x0:0x00000000
       34125000	      3411	80002ad8	00daa833	slt	x16,x21,x13	 x21:0x80002968 x13:0x80002aa4 x16=0x00000001
       34135000	      3412	80002adc	044000ef	jal	x1,80002adc	  x1=0x80002adc
       34145000	      3413	00000000	00000013	addi	x0,x0,0	  x0:0x00000000
       34155000	      3414	80002b1c	00000013	addi	x0,x0,0	  x0:0x00000000
       34165000	      3415	80002b20	01400a6f	jal	x20,80002b20	 x20=0x80002b20
       34175000	      3416	00000000	00000013	addi	x0,x0,0	  x0:0x00000000
       34185000	      3417	80002b30	00000013	addi	x0,x0,0	  x0:0x00000000
       34195000	      3418	80002b34	ff5ff36f	jal	x6,80002b34	  x6=0x80002b34
       34205000	      3419	00000000	00000013	addi	x0,x0,0	  x0:0x00000000
       34215000	      3420	80002b24	00000013	addi	x0,x0,0	  x0:0x00000000
       34225000	      3421	80002b28	ff1ff26f	jal	x4,80002b28	  x4=0x80002b28
       34235000	      3422	00000000	00000013	addi	x0,x0,0	  x0:0x00000000
       34245000	      3423	80002b14	00000013	addi	x0,x0,0	  x0:0x00000000
       34255000	      3424	80002b18	0040036f	jal	x6,80002b18	  x6=0x80002b18
       34265000	      3425	00000000	00000013	addi	x0,x0,0	  x0:0x00000000
       34275000	      3426	80002b18	00000013	addi	x0,x0,0	  x0:0x00000000
       34285000	      3427	80002b1c	01c00e6f	jal	x28,80002b1c	 x28=0x80002b1c
       34295000	      3428	00000000	00000013	addi	x0,x0,0	  x0:0x00000000
       34305000	      3429	80002b34	00000013	addi	x0,x0,0	  x0:0x00000000
       34315000	      3430	80002b38	fd5fffef	jal	x31,80002b38	 x31=0x80002b38
       34325000	      3431	00000000	00000013	addi	x0,x0,0	  x0:0x00000000
       34335000	      3432	80002b08	00000013	addi	x0,x0,0	  x0:0x00000000
       34345000	      3433	80002b0c	fddff36f	jal	x6,80002b0c	  x6=0x80002b0c
       34355000	      3434	00000000	00000013	addi	x0,x0,0	  x0:0x00000000
       34365000	      3435	80002ae4	00000013	addi	x0,x0,0	  x0:0x00000000
       34375000	      3436	80002ae8	010002ef	jal	x5,80002ae8	  x5=0x80002ae8
       34385000	      3437	00000000	00000013	addi	x0,x0,0	  x0:0x00000000
       34395000	      3438	80002af4	00000013	addi	x0,x0,0	  x0:0x00000000
       34405000	      3439	80002af8	ffdff0ef	jal	x1,80002af8	  x1=0x80002af8
       34415000	      3440	00000000	00000013	addi	x0,x0,0	  x0:0x00000000
       34425000	      3441	80002af0	00000013	addi	x0,x0,0	  x0:0x00000000
       34435000	      3442	80002af4	fedff36f	jal	x6,80002af4	  x6=0x80002af4
       34445000	      3443	00000000	00000013	addi	x0,x0,0	  x0:0x00000000
       34455000	      3444	80002adc	00000013	addi	x0,x0,0	  x0:0x00000000
       34465000	      3445	80002ae0	04400fef	jal	x31,80002ae0	 x31=0x80002ae0
       34475000	      3446	00000000	00000013	addi	x0,x0,0	  x0:0x00000000
       34485000	      3447	80002b20	00000013	addi	x0,x0,0	  x0:0x00000000
       34495000	      3448	80002b24	fc9ff0ef	jal	x1,80002b24	  x1=0x80002b24
       34505000	      3449	00000000	00000013	addi	x0,x0,0	  x0:0x00000000
       34515000	      3450	80002ae8	00000013	addi	x0,x0,0	  x0:0x00000000
       34525000	      3451	80002aec	01c00d6f	jal	x26,80002aec	 x26=0x80002aec
       34535000	      3452	00000000	00000013	addi	x0,x0,0	  x0:0x00000000
       34545000	      3453	80002b04	00000013	addi	x0,x0,0	  x0:0x00000000
       34555000	      3454	80002b08	ff9ff0ef	jal	x1,80002b08	  x1=0x80002b08
       34565000	      3455	00000000	00000013	addi	x0,x0,0	  x0:0x00000000
       34575000	      3456	80002afc	00000013	addi	x0,x0,0	  x0:0x00000000
       34585000	      3457	80002b00	fe5ffeef	jal	x29,80002b00	 x29=0x80002b00
       34595000	      3458	00000000	00000013	addi	x0,x0,0	  x0:0x00000000
       34605000	      3459	80002ae0	00000013	addi	x0,x0,0	  x0:0x00000000
       34615000	      3460	80002ae4	03000aef	jal	x21,80002ae4	 x21=0x80002ae4
       34625000	      3461	00000000	00000013	addi	x0,x0,0	  x0:0x00000000
       34635000	      3462	80002b10	00000013	addi	x0,x0,0	  x0:0x00000000
       34645000	      3463	80002b14	ffdff0ef	jal	x1,80002b14	  x1=0x80002b14
       34655000	      3464	00000000	00000013	addi	x0,x0,0	  x0:0x00000000
       34665000	      3465	80002b0c	00000013	addi	x0,x0,0	  x0:0x00000000
       34675000	      3466	80002b10	ff5ff0ef	jal	x1,80002b10	  x1=0x80002b10
       34685000	      3467	00000000	00000013	addi	x0,x0,0	  x0:0x00000000
       34695000	      3468	80002b00	00000013	addi	x0,x0,0	  x0:0x00000000
       34705000	      3469	80002b04	02c0036f	jal	x6,80002b04	  x6=0x80002b04
       34715000	      3470	00000000	00000013	addi	x0,x0,0	  x0:0x00000000
       34725000	      3471	80002b2c	00000013	addi	x0,x0,0	  x0:0x00000000
       34735000	      3472	80002b30	ffdff36f	jal	x6,80002b30	  x6=0x80002b30
       34745000	      3473	00000000	00000013	addi	x0,x0,0	  x0:0x00000000
       34755000	      3474	80002b28	00000013	addi	x0,x0,0	  x0:0x00000000
       34765000	      3475	80002b2c	fc5ff36f	jal	x6,80002b2c	  x6=0x80002b2c
       34775000	      3476	00000000	00000013	addi	x0,x0,0	  x0:0x00000000
       34785000	      3477	80002aec	00000013	addi	x0,x0,0	  x0:0x00000000
       34795000	      3478	80002af0	00c000ef	jal	x1,80002af0	  x1=0x80002af0
       34805000	      3479	00000000	00000013	addi	x0,x0,0	  x0:0x00000000
       34815000	      3480	80002af8	00000013	addi	x0,x0,0	  x0:0x00000000
       34825000	      3481	80002afc	040009ef	jal	x19,80002afc	 x19=0x80002afc
       34835000	      3482	00000000	00000013	addi	x0,x0,0	  x0:0x00000000
       34845000	      3483	80002b38	00000013	addi	x0,x0,0	  x0:0x00000000
       34855000	      3484	80002b3c	018e95b3	sll	x11,x29,x24	 x29:0x80002b00 x24:0x80002a78 x11=0x00000000
       34865000	      3485	80002b40	034000ef	jal	x1,80002b40	  x1=0x80002b40
       34875000	      3486	00000000	00000013	addi	x0,x0,0	  x0:0x00000000
       34885000	      3487	80002b70	00000013	addi	x0,x0,0	  x0:0x00000000
       34895000	      3488	80002b74	ff9ff16f	jal	x2,80002b74	  x2=0x80002b74
       34905000	      3489	00000000	00000013	addi	x0,x0,0	  x0:0x00000000
       34915000	      3490	80002b68	00000013	addi	x0,x0,0	  x0:0x00000000
       34925000	      3491	80002b6c	fddff0ef	jal	x1,80002b6c	  x1=0x80002b6c
       34935000	      3492	00000000	00000013	addi	x0,x0,0	  x0:0x00000000
       34945000	      3493	80002b44	00000013	addi	x0,x0,0	  x0:0x00000000
       34955000	      3494	80002b48	044000ef	jal	x1,80002b48	  x1=0x80002b48
       34965000	      3495	00000000	00000013	addi	x0,x0,0	  x0:0x00000000
       34975000	      3496	80002b88	00000013	addi	x0,x0,0	  x0:0x00000000
       34985000	      3497	80002b8c	fd5ff0ef	jal	x1,80002b8c	  x1=0x80002b8c
       34995000	      3498	00000000	00000013	addi	x0,x0,0	  x0:0x00000000
       35005000	      3499	80002b5c	00000013	addi	x0,x0,0	  x0:0x00000000
       35015000	      3500	80002b60	fedffeef	jal	x29,80002b60	 x29=0x80002b60
       35025000	      3501	00000000	00000013	addi	x0,x0,0	  x0:0x00000000
       35035000	      3502	80002b48	00000013	addi	x0,x0,0	  x0:0x00000000
       35045000	      3503	80002b4c	02c000ef	jal	x1,80002b4c	  x1=0x80002b4c
       35055000	      3504	00000000	00000013	addi	x0,x0,0	  x0:0x00000000
       35065000	      3505	80002b74	00000013	addi	x0,x0,0	  x0:0x00000000
       35075000	      3506	80002b78	fe5ff46f	jal	x8,80002b78	  x8=0x80002b78
       35085000	      3507	00000000	00000013	addi	x0,x0,0	  x0:0x00000000
       35095000	      3508	80002b58	00000013	addi	x0,x0,0	  x0:0x00000000
       35105000	      3509	80002b5c	02800b6f	jal	x22,80002b5c	 x22=0x80002b5c
       35115000	      3510	00000000	00000013	addi	x0,x0,0	  x0:0x00000000
       35125000	      3511	80002b80	00000013	addi	x0,x0,0	  x0:0x00000000
       35135000	      3512	80002b84	fc1ffb6f	jal	x22,80002b84	 x22=0x80002b84
       35145000	      3513	00000000	00000013	addi	x0,x0,0	  x0:0x00000000
       35155000	      3514	80002b40	00000013	addi	x0,x0,0	  x0:0x00000000
       35165000	      3515	80002b44	00c0016f	jal	x2,80002b44	  x2=0x80002b44
       35175000	      3516	00000000	00000013	addi	x0,x0,0	  x0:0x00000000
       35185000	      3517	80002b4c	00000013	addi	x0,x0,0	  x0:0x00000000
       35195000	      3518	80002b50	02c0036f	jal	x6,80002b50	  x6=0x80002b50
       35205000	      3519	00000000	00000013	addi	x0,x0,0	  x0:0x00000000
       35215000	      3520	80002b78	00000013	addi	x0,x0,0	  x0:0x00000000
       35225000	      3521	80002b7c	fd9ffeef	jal	x29,80002b7c	 x29=0x80002b7c
       35235000	      3522	00000000	00000013	addi	x0,x0,0	  x0:0x00000000
       35245000	      3523	80002b50	00000013	addi	x0,x0,0	  x0:0x00000000
       35255000	      3524	80002b54	010000ef	jal	x1,80002b54	  x1=0x80002b54
       35265000	      3525	00000000	00000013	addi	x0,x0,0	  x0:0x00000000
       35275000	      3526	80002b60	00000013	addi	x0,x0,0	  x0:0x00000000
       35285000	      3527	80002b64	00c00c6f	jal	x24,80002b64	 x24=0x80002b64
       35295000	      3528	00000000	00000013	addi	x0,x0,0	  x0:0x00000000
       35305000	      3529	80002b6c	00000013	addi	x0,x0,0	  x0:0x00000000
       35315000	      3530	80002b70	010000ef	jal	x1,80002b70	  x1=0x80002b70
       35325000	      3531	00000000	00000013	addi	x0,x0,0	  x0:0x00000000
       35335000	      3532	80002b7c	00000013	addi	x0,x0,0	  x0:0x00000000
       35345000	      3533	80002b80	00800a6f	jal	x20,80002b80	 x20=0x80002b80
       35355000	      3534	00000000	00000013	addi	x0,x0,0	  x0:0x00000000
       35365000	      3535	80002b84	00000013	addi	x0,x0,0	  x0:0x00000000
       35375000	      3536	80002b88	fe1ff0ef	jal	x1,80002b88	  x1=0x80002b88
       35385000	      3537	00000000	00000013	addi	x0,x0,0	  x0:0x00000000
       35395000	      3538	80002b64	00000013	addi	x0,x0,0	  x0:0x00000000
       35405000	      3539	80002b68	ff1fffef	jal	x31,80002b68	 x31=0x80002b68
       35415000	      3540	00000000	00000013	addi	x0,x0,0	  x0:0x00000000
       35425000	      3541	80002b54	00000013	addi	x0,x0,0	  x0:0x00000000
       35435000	      3542	80002b58	038000ef	jal	x1,80002b58	  x1=0x80002b58
       35445000	      3543	00000000	00000013	addi	x0,x0,0	  x0:0x00000000
       35455000	      3544	80002b8c	00000013	addi	x0,x0,0	  x0:0x00000000
       35465000	      3545	80002b90	3ca87993	andi	x19,x16,970	 x16:0x00000001 x19=0x00000000
       35475000	      3546	80002b94	03c000ef	jal	x1,80002b94	  x1=0x80002b94
       35485000	      3547	00000000	00000013	addi	x0,x0,0	  x0:0x00000000
       35495000	      3548	80002bcc	00000013	addi	x0,x0,0	  x0:0x00000000
       35505000	      3549	80002bd0	ff1ff0ef	jal	x1,80002bd0	  x1=0x80002bd0
       35515000	      3550	00000000	00000013	addi	x0,x0,0	  x0:0x00000000
       35525000	      3551	80002bbc	00000013	addi	x0,x0,0	  x0:0x00000000
       35535000	      3552	80002bc0	0080016f	jal	x2,80002bc0	  x2=0x80002bc0
       35545000	      3553	00000000	00000013	addi	x0,x0,0	  x0:0x00000000
       35555000	      3554	80002bc4	00000013	addi	x0,x0,0	  x0:0x00000000
       35565000	      3555	80002bc8	ffdff0ef	jal	x1,80002bc8	  x1=0x80002bc8
       35575000	      3556	00000000	00000013	addi	x0,x0,0	  x0:0x00000000
       35585000	      3557	80002bc0	00000013	addi	x0,x0,0	  x0:0x00000000
       35595000	      3558	80002bc4	fd9ff0ef	jal	x1,80002bc4	  x1=0x80002bc4
       35605000	      3559	00000000	00000013	addi	x0,x0,0	  x0:0x00000000
       35615000	      3560	80002b98	00000013	addi	x0,x0,0	  x0:0x00000000
       35625000	      3561	80002b9c	ffdff36f	jal	x6,80002b9c	  x6=0x80002b9c
       35635000	      3562	00000000	00000013	addi	x0,x0,0	  x0:0x00000000
       35645000	      3563	80002b94	00000013	addi	x0,x0,0	  x0:0x00000000
       35655000	      3564	80002b98	024000ef	jal	x1,80002b98	  x1=0x80002b98
       35665000	      3565	00000000	00000013	addi	x0,x0,0	  x0:0x00000000
       35675000	      3566	80002bb8	00000013	addi	x0,x0,0	  x0:0x00000000
       35685000	      3567	80002bbc	ff1ff3ef	jal	x7,80002bbc	  x7=0x80002bbc
       35695000	      3568	00000000	00000013	addi	x0,x0,0	  x0:0x00000000
       35705000	      3569	80002ba8	00000013	addi	x0,x0,0	  x0:0x00000000
       35715000	      3570	80002bac	ffdff96f	jal	x18,80002bac	 x18=0x80002bac
       35725000	      3571	00000000	00000013	addi	x0,x0,0	  x0:0x00000000
       35735000	      3572	80002ba4	00000013	addi	x0,x0,0	  x0:0x00000000
       35745000	      3573	80002ba8	02c0036f	jal	x6,80002ba8	  x6=0x80002ba8
       35755000	      3574	00000000	00000013	addi	x0,x0,0	  x0:0x00000000
       35765000	      3575	80002bd0	00000013	addi	x0,x0,0	  x0:0x00000000
       35775000	      3576	80002bd4	fddff16f	jal	x2,80002bd4	  x2=0x80002bd4
       35785000	      3577	00000000	00000013	addi	x0,x0,0	  x0:0x00000000
       35795000	      3578	80002bac	00000013	addi	x0,x0,0	  x0:0x00000000
       35805000	      3579	80002bb0	028000ef	jal	x1,80002bb0	  x1=0x80002bb0
       35815000	      3580	00000000	00000013	addi	x0,x0,0	  x0:0x00000000
       35825000	      3581	80002bd4	00000013	addi	x0,x0,0	  x0:0x00000000
       35835000	      3582	80002bd8	fcdff9ef	jal	x19,80002bd8	 x19=0x80002bd8
       35845000	      3583	00000000	00000013	addi	x0,x0,0	  x0:0x00000000
       35855000	      3584	80002ba0	00000013	addi	x0,x0,0	  x0:0x00000000
       35865000	      3585	80002ba4	ffdff0ef	jal	x1,80002ba4	  x1=0x80002ba4
       35875000	      3586	00000000	00000013	addi	x0,x0,0	  x0:0x00000000
       35885000	      3587	80002b9c	00000013	addi	x0,x0,0	  x0:0x00000000
       35895000	      3588	80002ba0	02c000ef	jal	x1,80002ba0	  x1=0x80002ba0
       35905000	      3589	00000000	00000013	addi	x0,x0,0	  x0:0x00000000
       35915000	      3590	80002bc8	00000013	addi	x0,x0,0	  x0:0x00000000
       35925000	      3591	80002bcc	fe9ff0ef	jal	x1,80002bcc	  x1=0x80002bcc
       35935000	      3592	00000000	00000013	addi	x0,x0,0	  x0:0x00000000
       35945000	      3593	80002bb0	00000013	addi	x0,x0,0	  x0:0x00000000
       35955000	      3594	80002bb4	0040046f	jal	x8,80002bb4	  x8=0x80002bb4
       35965000	      3595	00000000	00000013	addi	x0,x0,0	  x0:0x00000000
       35975000	      3596	80002bb4	00000013	addi	x0,x0,0	  x0:0x00000000
       35985000	      3597	80002bb8	0240036f	jal	x6,80002bb8	  x6=0x80002bb8
       35995000	      3598	00000000	00000013	addi	x0,x0,0	  x0:0x00000000
       36005000	      3599	80002bd8	00000013	addi	x0,x0,0	  x0:0x00000000
       36015000	      3600	80002bdc	0187dab3	srl	x21,x15,x24	 x15:0x80002a7c x24:0x80002b64 x21=0x080002a7
       36025000	      3601	80002be0	024000ef	jal	x1,80002be0	  x1=0x80002be0
       36035000	      3602	00000000	00000013	addi	x0,x0,0	  x0:0x00000000
       36045000	      3603	80002c00	00000013	addi	x0,x0,0	  x0:0x00000000
       36055000	      3604	80002c04	ffdff0ef	jal	x1,80002c04	  x1=0x80002c04
       36065000	      3605	00000000	00000013	addi	x0,x0,0	  x0:0x00000000
       36075000	      3606	80002bfc	00000013	addi	x0,x0,0	  x0:0x00000000
       36085000	      3607	80002c00	ff9ff0ef	jal	x1,80002c00	  x1=0x80002c00
       36095000	      3608	00000000	00000013	addi	x0,x0,0	  x0:0x00000000
       36105000	      3609	80002bf4	00000013	addi	x0,x0,0	  x0:0x00000000
       36115000	      3610	80002bf8	05000eef	jal	x29,80002bf8	 x29=0x80002bf8
       36125000	      3611	00000000	00000013	addi	x0,x0,0	  x0:0x00000000
       36135000	      3612	80002c44	00000013	addi	x0,x0,0	  x0:0x00000000
       36145000	      3613	80002c48	fedff0ef	jal	x1,80002c48	  x1=0x80002c48
       36155000	      3614	00000000	00000013	addi	x0,x0,0	  x0:0x00000000
       36165000	      3615	80002c30	00000013	addi	x0,x0,0	  x0:0x00000000
       36175000	      3616	80002c34	ffdff0ef	jal	x1,80002c34	  x1=0x80002c34
       36185000	      3617	00000000	00000013	addi	x0,x0,0	  x0:0x00000000
       36195000	      3618	80002c2c	00000013	addi	x0,x0,0	  x0:0x00000000
       36205000	      3619	80002c30	fb5ff0ef	jal	x1,80002c30	  x1=0x80002c30
       36215000	      3620	00000000	00000013	addi	x0,x0,0	  x0:0x00000000
       36225000	      3621	80002be0	00000013	addi	x0,x0,0	  x0:0x00000000
       36235000	      3622	80002be4	034000ef	jal	x1,80002be4	  x1=0x80002be4
       36245000	      3623	00000000	00000013	addi	x0,x0,0	  x0:0x00000000
       36255000	      3624	80002c14	00000013	addi	x0,x0,0	  x0:0x00000000
       36265000	      3625	80002c18	034000ef	jal	x1,80002c18	  x1=0x80002c18
       36275000	      3626	00000000	00000013	addi	x0,x0,0	  x0:0x00000000
       36285000	      3627	80002c48	00000013	addi	x0,x0,0	  x0:0x00000000
       36295000	      3628	80002c4c	fa9ff36f	jal	x6,80002c4c	  x6=0x80002c4c
       36305000	      3629	00000000	00000013	addi	x0,x0,0	  x0:0x00000000
       36315000	      3630	80002bf0	00000013	addi	x0,x0,0	  x0:0x00000000
       36325000	      3631	80002bf4	014000ef	jal	x1,80002bf4	  x1=0x80002bf4
       36335000	      3632	00000000	00000013	addi	x0,x0,0	  x0:0x00000000
       36345000	      3633	80002c04	00000013	addi	x0,x0,0	  x0:0x00000000
       36355000	      3634	80002c08	0200036f	jal	x6,80002c08	  x6=0x80002c08
       36365000	      3635	00000000	00000013	addi	x0,x0,0	  x0:0x00000000
       36375000	      3636	80002c24	00000013	addi	x0,x0,0	  x0:0x00000000
       36385000	      3637	80002c28	fe9ff2ef	jal	x5,80002c28	  x5=0x80002c28
       36395000	      3638	00000000	00000013	addi	x0,x0,0	  x0:0x00000000
       36405000	      3639	80002c0c	00000013	addi	x0,x0,0	  x0:0x00000000
       36415000	      3640	80002c10	02c000ef	jal	x1,80002c10	  x1=0x80002c10
       36425000	      3641	00000000	00000013	addi	x0,x0,0	  x0:0x00000000
       36435000	      3642	80002c38	00000013	addi	x0,x0,0	  x0:0x00000000
       36445000	      3643	80002c3c	fe1ff36f	jal	x6,80002c3c	  x6=0x80002c3c
       36455000	      3644	00000000	00000013	addi	x0,x0,0	  x0:0x00000000
       36465000	      3645	80002c18	00000013	addi	x0,x0,0	  x0:0x00000000
       36475000	      3646	80002c1c	fcdff36f	jal	x6,80002c1c	  x6=0x80002c1c
       36485000	      3647	00000000	00000013	addi	x0,x0,0	  x0:0x00000000
       36495000	      3648	80002be4	00000013	addi	x0,x0,0	  x0:0x00000000
       36505000	      3649	80002be8	0040036f	jal	x6,80002be8	  x6=0x80002be8
       36515000	      3650	00000000	00000013	addi	x0,x0,0	  x0:0x00000000
       36525000	      3651	80002be8	00000013	addi	x0,x0,0	  x0:0x00000000
       36535000	      3652	80002bec	058002ef	jal	x5,80002bec	  x5=0x80002bec
       36545000	      3653	00000000	00000013	addi	x0,x0,0	  x0:0x00000000
       36555000	      3654	80002c40	00000013	addi	x0,x0,0	  x0:0x00000000
       36565000	      3655	80002c44	ff5ff2ef	jal	x5,80002c44	  x5=0x80002c44
       36575000	      3656	00000000	00000013	addi	x0,x0,0	  x0:0x00000000
       36585000	      3657	80002c34	00000013	addi	x0,x0,0	  x0:0x00000000
       36595000	      3658	80002c38	ff5ff36f	jal	x6,80002c38	  x6=0x80002c38
       36605000	      3659	00000000	00000013	addi	x0,x0,0	  x0:0x00000000
       36615000	      3660	80002c28	00000013	addi	x0,x0,0	  x0:0x00000000
       36625000	      3661	80002c2c	fe1ff7ef	jal	x15,80002c2c	 x15=0x80002c2c
       36635000	      3662	00000000	00000013	addi	x0,x0,0	  x0:0x00000000
       36645000	      3663	80002c08	00000013	addi	x0,x0,0	  x0:0x00000000
       36655000	      3664	80002c0c	ff1ff36f	jal	x6,80002c0c	  x6=0x80002c0c
       36665000	      3665	00000000	00000013	addi	x0,x0,0	  x0:0x00000000
       36675000	      3666	80002bf8	00000013	addi	x0,x0,0	  x0:0x00000000
       36685000	      3667	80002bfc	024000ef	jal	x1,80002bfc	  x1=0x80002bfc
       36695000	      3668	00000000	00000013	addi	x0,x0,0	  x0:0x00000000
       36705000	      3669	80002c1c	00000013	addi	x0,x0,0	  x0:0x00000000
       36715000	      3670	80002c20	ff5ff0ef	jal	x1,80002c20	  x1=0x80002c20
       36725000	      3671	00000000	00000013	addi	x0,x0,0	  x0:0x00000000
       36735000	      3672	80002c10	00000013	addi	x0,x0,0	  x0:0x00000000
       36745000	      3673	80002c14	02c000ef	jal	x1,80002c14	  x1=0x80002c14
       36755000	      3674	00000000	00000013	addi	x0,x0,0	  x0:0x00000000
       36765000	      3675	80002c3c	00000013	addi	x0,x0,0	  x0:0x00000000
       36775000	      3676	80002c40	fe5ff86f	jal	x16,80002c40	 x16=0x80002c40
       36785000	      3677	00000000	00000013	addi	x0,x0,0	  x0:0x00000000
       36795000	      3678	80002c20	00000013	addi	x0,x0,0	  x0:0x00000000
       36805000	      3679	80002c24	fcdff36f	jal	x6,80002c24	  x6=0x80002c24
       36815000	      3680	00000000	00000013	addi	x0,x0,0	  x0:0x00000000
       36825000	      3681	80002bec	00000013	addi	x0,x0,0	  x0:0x00000000
       36835000	      3682	80002bf0	06000fef	jal	x31,80002bf0	 x31=0x80002bf0
       36845000	      3683	00000000	00000013	addi	x0,x0,0	  x0:0x00000000
       36855000	      3684	80002c4c	00000013	addi	x0,x0,0	  x0:0x00000000
       36865000	      3685	80002c50	41edd213	srai	x4,x27,0x1e	 x27:0x80002abc  x4=0xfffffffe
       36875000	      3686	80002c54	024000ef	jal	x1,80002c54	  x1=0x80002c54
       36885000	      3687	00000000	00000013	addi	x0,x0,0	  x0:0x00000000
       36895000	      3688	80002c74	00000013	addi	x0,x0,0	  x0:0x00000000
       36905000	      3689	80002c78	01c002ef	jal	x5,80002c78	  x5=0x80002c78
       36915000	      3690	00000000	00000013	addi	x0,x0,0	  x0:0x00000000
       36925000	      3691	80002c90	00000013	addi	x0,x0,0	  x0:0x00000000
       36935000	      3692	80002c94	01000e6f	jal	x28,80002c94	 x28=0x80002c94
       36945000	      3693	00000000	00000013	addi	x0,x0,0	  x0:0x00000000
       36955000	      3694	80002ca0	00000013	addi	x0,x0,0	  x0:0x00000000
       36965000	      3695	80002ca4	fb9ff0ef	jal	x1,80002ca4	  x1=0x80002ca4
       36975000	      3696	00000000	00000013	addi	x0,x0,0	  x0:0x00000000
       36985000	      3697	80002c58	00000013	addi	x0,x0,0	  x0:0x00000000
       36995000	      3698	80002c5c	018000ef	jal	x1,80002c5c	  x1=0x80002c5c
       37005000	      3699	00000000	00000013	addi	x0,x0,0	  x0:0x00000000
       37015000	      3700	80002c70	00000013	addi	x0,x0,0	  x0:0x00000000
       37025000	      3701	80002c74	02c000ef	jal	x1,80002c74	  x1=0x80002c74
       37035000	      3702	00000000	00000013	addi	x0,x0,0	  x0:0x00000000
       37045000	      3703	80002c9c	00000013	addi	x0,x0,0	  x0:0x00000000
       37055000	      3704	80002ca0	00c0036f	jal	x6,80002ca0	  x6=0x80002ca0
       37065000	      3705	00000000	00000013	addi	x0,x0,0	  x0:0x00000000
       37075000	      3706	80002ca8	00000013	addi	x0,x0,0	  x0:0x00000000
       37085000	      3707	80002cac	fb5ff0ef	jal	x1,80002cac	  x1=0x80002cac
       37095000	      3708	00000000	00000013	addi	x0,x0,0	  x0:0x00000000
       37105000	      3709	80002c5c	00000013	addi	x0,x0,0	  x0:0x00000000
       37115000	      3710	80002c60	004000ef	jal	x1,80002c60	  x1=0x80002c60
       37125000	      3711	00000000	00000013	addi	x0,x0,0	  x0:0x00000000
       37135000	      3712	80002c60	00000013	addi	x0,x0,0	  x0:0x00000000
       37145000	      3713	80002c64	020000ef	jal	x1,80002c64	  x1=0x80002c64
       37155000	      3714	00000000	00000013	addi	x0,x0,0	  x0:0x00000000
       37165000	      3715	80002c80	00000013	addi	x0,x0,0	  x0:0x00000000
       37175000	      3716	80002c84	024000ef	jal	x1,80002c84	  x1=0x80002c84
       37185000	      3717	00000000	00000013	addi	x0,x0,0	  x0:0x00000000
       37195000	      3718	80002ca4	00000013	addi	x0,x0,0	  x0:0x00000000
       37205000	      3719	80002ca8	fc9ff0ef	jal	x1,80002ca8	  x1=0x80002ca8
       37215000	      3720	00000000	00000013	addi	x0,x0,0	  x0:0x00000000
       37225000	      3721	80002c6c	00000013	addi	x0,x0,0	  x0:0x00000000
       37235000	      3722	80002c70	01c000ef	jal	x1,80002c70	  x1=0x80002c70
       37245000	      3723	00000000	00000013	addi	x0,x0,0	  x0:0x00000000
       37255000	      3724	80002c88	00000013	addi	x0,x0,0	  x0:0x00000000
       37265000	      3725	80002c8c	004000ef	jal	x1,80002c8c	  x1=0x80002c8c
       37275000	      3726	00000000	00000013	addi	x0,x0,0	  x0:0x00000000
       37285000	      3727	80002c8c	00000013	addi	x0,x0,0	  x0:0x00000000
       37295000	      3728	80002c90	fedffb6f	jal	x22,80002c90	 x22=0x80002c90
       37305000	      3729	00000000	00000013	addi	x0,x0,0	  x0:0x00000000
       37315000	      3730	80002c78	00000013	addi	x0,x0,0	  x0:0x00000000
       37325000	      3731	80002c7c	fedff0ef	jal	x1,80002c7c	  x1=0x80002c7c
       37335000	      3732	00000000	00000013	addi	x0,x0,0	  x0:0x00000000
       37345000	      3733	80002c64	00000013	addi	x0,x0,0	  x0:0x00000000
       37355000	      3734	80002c68	0180036f	jal	x6,80002c68	  x6=0x80002c68
       37365000	      3735	00000000	00000013	addi	x0,x0,0	  x0:0x00000000
       37375000	      3736	80002c7c	00000013	addi	x0,x0,0	  x0:0x00000000
       37385000	      3737	80002c80	01c002ef	jal	x5,80002c80	  x5=0x80002c80
       37395000	      3738	00000000	00000013	addi	x0,x0,0	  x0:0x00000000
       37405000	      3739	80002c98	00000013	addi	x0,x0,0	  x0:0x00000000
       37415000	      3740	80002c9c	fd1ff0ef	jal	x1,80002c9c	  x1=0x80002c9c
       37425000	      3741	00000000	00000013	addi	x0,x0,0	  x0:0x00000000
       37435000	      3742	80002c68	00000013	addi	x0,x0,0	  x0:0x00000000
       37445000	      3743	80002c6c	01c000ef	jal	x1,80002c6c	  x1=0x80002c6c
       37455000	      3744	00000000	00000013	addi	x0,x0,0	  x0:0x00000000
       37465000	      3745	80002c84	00000013	addi	x0,x0,0	  x0:0x00000000
       37475000	      3746	80002c88	010000ef	jal	x1,80002c88	  x1=0x80002c88
       37485000	      3747	00000000	00000013	addi	x0,x0,0	  x0:0x00000000
       37495000	      3748	80002c94	00000013	addi	x0,x0,0	  x0:0x00000000
       37505000	      3749	80002c98	fc1ff0ef	jal	x1,80002c98	  x1=0x80002c98
       37515000	      3750	00000000	00000013	addi	x0,x0,0	  x0:0x00000000
       37525000	      3751	80002c54	00000013	addi	x0,x0,0	  x0:0x00000000
       37535000	      3752	80002c58	0580036f	jal	x6,80002c58	  x6=0x80002c58
       37545000	      3753	00000000	00000013	addi	x0,x0,0	  x0:0x00000000
       37555000	      3754	80002cac	00000013	addi	x0,x0,0	  x0:0x00000000
       37565000	      3755	80002cb0	4dd1ca13	xori	x20,x3,1245	  x3:0x80002ab8 x20=0x80002e65
       37575000	      3756	80002cb4	018000ef	jal	x1,80002cb4	  x1=0x80002cb4
       37585000	      3757	00000000	00000013	addi	x0,x0,0	  x0:0x00000000
       37595000	      3758	80002cc8	00000013	addi	x0,x0,0	  x0:0x00000000
       37605000	      3759	80002ccc	020000ef	jal	x1,80002ccc	  x1=0x80002ccc
       37615000	      3760	00000000	00000013	addi	x0,x0,0	  x0:0x00000000
       37625000	      3761	80002ce8	00000013	addi	x0,x0,0	  x0:0x00000000
       37635000	      3762	80002cec	fd1ff26f	jal	x4,80002cec	  x4=0x80002cec
       37645000	      3763	00000000	00000013	addi	x0,x0,0	  x0:0x00000000
       37655000	      3764	80002cb8	00000013	addi	x0,x0,0	  x0:0x00000000
       37665000	      3765	80002cbc	028000ef	jal	x1,80002cbc	  x1=0x80002cbc
       37675000	      3766	00000000	00000013	addi	x0,x0,0	  x0:0x00000000
       37685000	      3767	80002ce0	00000013	addi	x0,x0,0	  x0:0x00000000
       37695000	      3768	80002ce4	ff5ff0ef	jal	x1,80002ce4	  x1=0x80002ce4
       37705000	      3769	00000000	00000013	addi	x0,x0,0	  x0:0x00000000
       37715000	      3770	80002cd4	00000013	addi	x0,x0,0	  x0:0x00000000
       37725000	      3771	80002cd8	fe9ff0ef	jal	x1,80002cd8	  x1=0x80002cd8
       37735000	      3772	00000000	00000013	addi	x0,x0,0	  x0:0x00000000
       37745000	      3773	80002cbc	00000013	addi	x0,x0,0	  x0:0x00000000
       37755000	      3774	80002cc0	010000ef	jal	x1,80002cc0	  x1=0x80002cc0
       37765000	      3775	00000000	00000013	addi	x0,x0,0	  x0:0x00000000
       37775000	      3776	80002ccc	00000013	addi	x0,x0,0	  x0:0x00000000
       37785000	      3777	80002cd0	018001ef	jal	x3,80002cd0	  x3=0x80002cd0
       37795000	      3778	00000000	00000013	addi	x0,x0,0	  x0:0x00000000
       37805000	      3779	80002ce4	00000013	addi	x0,x0,0	  x0:0x00000000
       37815000	      3780	80002ce8	fddff0ef	jal	x1,80002ce8	  x1=0x80002ce8
       37825000	      3781	00000000	00000013	addi	x0,x0,0	  x0:0x00000000
       37835000	      3782	80002cc0	00000013	addi	x0,x0,0	  x0:0x00000000
       37845000	      3783	80002cc4	ff5ff0ef	jal	x1,80002cc4	  x1=0x80002cc4
       37855000	      3784	00000000	00000013	addi	x0,x0,0	  x0:0x00000000
       37865000	      3785	80002cb4	00000013	addi	x0,x0,0	  x0:0x00000000
       37875000	      3786	80002cb8	0280036f	jal	x6,80002cb8	  x6=0x80002cb8
       37885000	      3787	00000000	00000013	addi	x0,x0,0	  x0:0x00000000
       37895000	      3788	80002cdc	00000013	addi	x0,x0,0	  x0:0x00000000
       37905000	      3789	80002ce0	ff5ff0ef	jal	x1,80002ce0	  x1=0x80002ce0
       37915000	      3790	00000000	00000013	addi	x0,x0,0	  x0:0x00000000
       37925000	      3791	80002cd0	00000013	addi	x0,x0,0	  x0:0x00000000
       37935000	      3792	80002cd4	ff5ff2ef	jal	x5,80002cd4	  x5=0x80002cd4
       37945000	      3793	00000000	00000013	addi	x0,x0,0	  x0:0x00000000
       37955000	      3794	80002cc4	00000013	addi	x0,x0,0	  x0:0x00000000
       37965000	      3795	80002cc8	014000ef	jal	x1,80002cc8	  x1=0x80002cc8
       37975000	      3796	00000000	00000013	addi	x0,x0,0	  x0:0x00000000
       37985000	      3797	80002cd8	00000013	addi	x0,x0,0	  x0:0x00000000
       37995000	      3798	80002cdc	014003ef	jal	x7,80002cdc	  x7=0x80002cdc
       38005000	      3799	00000000	00000013	addi	x0,x0,0	  x0:0x00000000
       38015000	      3800	80002cec	00000013	addi	x0,x0,0	  x0:0x00000000
       38025000	      3801	80002cf0	b7f70e13	addi	x28,x14,-1153	 x14:0x00000004 x28=0xfffffb83
       38035000	      3802	80002cf4	004000ef	jal	x1,80002cf4	  x1=0x80002cf4
       38045000	      3803	00000000	00000013	addi	x0,x0,0	  x0:0x00000000
       38055000	      3804	80002cf4	00000013	addi	x0,x0,0	  x0:0x00000000
       38065000	      3805	80002cf8	034000ef	jal	x1,80002cf8	  x1=0x80002cf8
       38075000	      3806	00000000	00000013	addi	x0,x0,0	  x0:0x00000000
       38085000	      3807	80002d28	00000013	addi	x0,x0,0	  x0:0x00000000
       38095000	      3808	80002d2c	fd9ff0ef	jal	x1,80002d2c	  x1=0x80002d2c
       38105000	      3809	00000000	00000013	addi	x0,x0,0	  x0:0x00000000
       38115000	      3810	80002d00	00000013	addi	x0,x0,0	  x0:0x00000000
       38125000	      3811	80002d04	02c000ef	jal	x1,80002d04	  x1=0x80002d04
       38135000	      3812	00000000	00000013	addi	x0,x0,0	  x0:0x00000000
       38145000	      3813	80002d2c	00000013	addi	x0,x0,0	  x0:0x00000000
       38155000	      3814	80002d30	fcdff0ef	jal	x1,80002d30	  x1=0x80002d30
       38165000	      3815	00000000	00000013	addi	x0,x0,0	  x0:0x00000000
       38175000	      3816	80002cf8	00000013	addi	x0,x0,0	  x0:0x00000000
       38185000	      3817	80002cfc	01000a6f	jal	x20,80002cfc	 x20=0x80002cfc
       38195000	      3818	00000000	00000013	addi	x0,x0,0	  x0:0x00000000
       38205000	      3819	80002d08	00000013	addi	x0,x0,0	  x0:0x00000000
       38215000	      3820	80002d0c	028000ef	jal	x1,80002d0c	  x1=0x80002d0c
       38225000	      3821	00000000	00000013	addi	x0,x0,0	  x0:0x00000000
       38235000	      3822	80002d30	00000013	addi	x0,x0,0	  x0:0x00000000
       38245000	      3823	80002d34	0100036f	jal	x6,80002d34	  x6=0x80002d34
       38255000	      3824	00000000	00000013	addi	x0,x0,0	  x0:0x00000000
       38265000	      3825	80002d40	00000013	addi	x0,x0,0	  x0:0x00000000
       38275000	      3826	80002d44	fd9ffc6f	jal	x24,80002d44	 x24=0x80002d44
       38285000	      3827	00000000	00000013	addi	x0,x0,0	  x0:0x00000000
       38295000	      3828	80002d18	00000013	addi	x0,x0,0	  x0:0x00000000
       38305000	      3829	80002d1c	004000ef	jal	x1,80002d1c	  x1=0x80002d1c
       38315000	      3830	00000000	00000013	addi	x0,x0,0	  x0:0x00000000
       38325000	      3831	80002d1c	00000013	addi	x0,x0,0	  x0:0x00000000
       38335000	      3832	80002d20	020000ef	jal	x1,80002d20	  x1=0x80002d20
       38345000	      3833	00000000	00000013	addi	x0,x0,0	  x0:0x00000000
       38355000	      3834	80002d3c	00000013	addi	x0,x0,0	  x0:0x00000000
       38365000	      3835	80002d40	fc9ff2ef	jal	x5,80002d40	  x5=0x80002d40
       38375000	      3836	00000000	00000013	addi	x0,x0,0	  x0:0x00000000
       38385000	      3837	80002d04	00000013	addi	x0,x0,0	  x0:0x00000000
       38395000	      3838	80002d08	0400036f	jal	x6,80002d08	  x6=0x80002d08
       38405000	      3839	00000000	00000013	addi	x0,x0,0	  x0:0x00000000
       38415000	      3840	80002d44	00000013	addi	x0,x0,0	  x0:0x00000000
       38425000	      3841	80002d48	fd1ff5ef	jal	x11,80002d48	 x11=0x80002d48
       38435000	      3842	00000000	00000013	addi	x0,x0,0	  x0:0x00000000
       38445000	      3843	80002d14	00000013	addi	x0,x0,0	  x0:0x00000000
       38455000	      3844	80002d18	ff9ff0ef	jal	x1,80002d18	  x1=0x80002d18
       38465000	      3845	00000000	00000013	addi	x0,x0,0	  x0:0x00000000
       38475000	      3846	80002d0c	00000013	addi	x0,x0,0	  x0:0x00000000
       38485000	      3847	80002d10	028000ef	jal	x1,80002d10	  x1=0x80002d10
       38495000	      3848	00000000	00000013	addi	x0,x0,0	  x0:0x00000000
       38505000	      3849	80002d34	00000013	addi	x0,x0,0	  x0:0x00000000
       38515000	      3850	80002d38	fedff1ef	jal	x3,80002d38	  x3=0x80002d38
       38525000	      3851	00000000	00000013	addi	x0,x0,0	  x0:0x00000000
       38535000	      3852	80002d20	00000013	addi	x0,x0,0	  x0:0x00000000
       38545000	      3853	80002d24	ff1ff9ef	jal	x19,80002d24	 x19=0x80002d24
       38555000	      3854	00000000	00000013	addi	x0,x0,0	  x0:0x00000000
       38565000	      3855	80002d10	00000013	addi	x0,x0,0	  x0:0x00000000
       38575000	      3856	80002d14	028007ef	jal	x15,80002d14	 x15=0x80002d14
       38585000	      3857	00000000	00000013	addi	x0,x0,0	  x0:0x00000000
       38595000	      3858	80002d38	00000013	addi	x0,x0,0	  x0:0x00000000
       38605000	      3859	80002d3c	fedfff6f	jal	x30,80002d3c	 x30=0x80002d3c
       38615000	      3860	00000000	00000013	addi	x0,x0,0	  x0:0x00000000
       38625000	      3861	80002d24	00000013	addi	x0,x0,0	  x0:0x00000000
       38635000	      3862	80002d28	fd9ff26f	jal	x4,80002d28	  x4=0x80002d28
       38645000	      3863	00000000	00000013	addi	x0,x0,0	  x0:0x00000000
       38655000	      3864	80002cfc	00000013	addi	x0,x0,0	  x0:0x00000000
       38665000	      3865	80002d00	04c0036f	jal	x6,80002d00	  x6=0x80002d00
       38675000	      3866	00000000	00000013	addi	x0,x0,0	  x0:0x00000000
       38685000	      3867	80002d48	00000013	addi	x0,x0,0	  x0:0x00000000
       38695000	      3868	80002d4c	01e182b3	add	x5,x3,x30	  x3:0x80002d38 x30:0x80002d3c  x5=0x00005a74
       38705000	      3869	80002d50	03c000ef	jal	x1,80002d50	  x1=0x80002d50
       38715000	      3870	00000000	00000013	addi	x0,x0,0	  x0:0x00000000
       38725000	      3871	80002d88	00000013	addi	x0,x0,0	  x0:0x00000000
       38735000	      3872	80002d8c	fd9ff0ef	jal	x1,80002d8c	  x1=0x80002d8c
       38745000	      3873	00000000	00000013	addi	x0,x0,0	  x0:0x00000000
       38755000	      3874	80002d60	00000013	addi	x0,x0,0	  x0:0x00000000
       38765000	      3875	80002d64	0100056f	jal	x10,80002d64	 x10=0x80002d64
       38775000	      3876	00000000	00000013	addi	x0,x0,0	  x0:0x00000000
       38785000	      3877	80002d70	00000013	addi	x0,x0,0	  x0:0x00000000
       38795000	      3878	80002d74	010002ef	jal	x5,80002d74	  x5=0x80002d74
       38805000	      3879	00000000	00000013	addi	x0,x0,0	  x0:0x00000000
       38815000	      3880	80002d80	00000013	addi	x0,x0,0	  x0:0x00000000
       38825000	      3881	80002d84	fddff16f	jal	x2,80002d84	  x2=0x80002d84
       38835000	      3882	00000000	00000013	addi	x0,x0,0	  x0:0x00000000
       38845000	      3883	80002d5c	00000013	addi	x0,x0,0	  x0:0x00000000
       38855000	      3884	80002d60	ff9ff0ef	jal	x1,80002d60	  x1=0x80002d60
       38865000	      3885	00000000	00000013	addi	x0,x0,0	  x0:0x00000000
       38875000	      3886	80002d54	00000013	addi	x0,x0,0	  x0:0x00000000
       38885000	      3887	80002d58	03c0026f	jal	x4,80002d58	  x4=0x80002d58
       38895000	      3888	00000000	00000013	addi	x0,x0,0	  x0:0x00000000
       38905000	      3889	80002d90	00000013	addi	x0,x0,0	  x0:0x00000000
       38915000	      3890	80002d94	fd5ff0ef	jal	x1,80002d94	  x1=0x80002d94
       38925000	      3891	00000000	00000013	addi	x0,x0,0	  x0:0x00000000
       38935000	      3892	80002d64	00000013	addi	x0,x0,0	  x0:0x00000000
       38945000	      3893	80002d68	02800a6f	jal	x20,80002d68	 x20=0x80002d68
       38955000	      3894	00000000	00000013	addi	x0,x0,0	  x0:0x00000000
       38965000	      3895	80002d8c	00000013	addi	x0,x0,0	  x0:0x00000000
       38975000	      3896	80002d90	ff1ff0ef	jal	x1,80002d90	  x1=0x80002d90
       38985000	      3897	00000000	00000013	addi	x0,x0,0	  x0:0x00000000
       38995000	      3898	80002d7c	00000013	addi	x0,x0,0	  x0:0x00000000
       39005000	      3899	80002d80	ff9ff2ef	jal	x5,80002d80	  x5=0x80002d80
       39015000	      3900	00000000	00000013	addi	x0,x0,0	  x0:0x00000000
       39025000	      3901	80002d74	00000013	addi	x0,x0,0	  x0:0x00000000
       39035000	      3902	80002d78	fddff36f	jal	x6,80002d78	  x6=0x80002d78
       39045000	      3903	00000000	00000013	addi	x0,x0,0	  x0:0x00000000
       39055000	      3904	80002d50	00000013	addi	x0,x0,0	  x0:0x00000000
       39065000	      3905	80002d54	0180036f	jal	x6,80002d54	  x6=0x80002d54
       39075000	      3906	00000000	00000013	addi	x0,x0,0	  x0:0x00000000
       39085000	      3907	80002d68	00000013	addi	x0,x0,0	  x0:0x00000000
       39095000	      3908	80002d6c	01000a6f	jal	x20,80002d6c	 x20=0x80002d6c
       39105000	      3909	00000000	00000013	addi	x0,x0,0	  x0:0x00000000
       39115000	      3910	80002d78	00000013	addi	x0,x0,0	  x0:0x00000000
       39125000	      3911	80002d7c	00c000ef	jal	x1,80002d7c	  x1=0x80002d7c
       39135000	      3912	00000000	00000013	addi	x0,x0,0	  x0:0x00000000
       39145000	      3913	80002d84	00000013	addi	x0,x0,0	  x0:0x00000000
       39155000	      3914	80002d88	fd5ff0ef	jal	x1,80002d88	  x1=0x80002d88
       39165000	      3915	00000000	00000013	addi	x0,x0,0	  x0:0x00000000
       39175000	      3916	80002d58	00000013	addi	x0,x0,0	  x0:0x00000000
       39185000	      3917	80002d5c	0140036f	jal	x6,80002d5c	  x6=0x80002d5c
       39195000	      3918	00000000	00000013	addi	x0,x0,0	  x0:0x00000000
       39205000	      3919	80002d6c	00000013	addi	x0,x0,0	  x0:0x00000000
       39215000	      3920	80002d70	028003ef	jal	x7,80002d70	  x7=0x80002d70
       39225000	      3921	00000000	00000013	addi	x0,x0,0	  x0:0x00000000
       39235000	      3922	80002d94	00000013	addi	x0,x0,0	  x0:0x00000000
       39245000	      3923	80002d98	c378b593	sltiu	x11,x17,-969	 x17:0x80009fc4 x11=0x00000001
       39255000	      3924	80002d9c	05c000ef	jal	x1,80002d9c	  x1=0x80002d9c
       39265000	      3925	00000000	00000013	addi	x0,x0,0	  x0:0x00000000
       39275000	      3926	80002df4	00000013	addi	x0,x0,0	  x0:0x00000000
       39285000	      3927	80002df8	fc9ff0ef	jal	x1,80002df8	  x1=0x80002df8
       39295000	      3928	00000000	00000013	addi	x0,x0,0	  x0:0x00000000
       39305000	      3929	80002dbc	00000013	addi	x0,x0,0	  x0:0x00000000
       39315000	      3930	80002dc0	0140036f	jal	x6,80002dc0	  x6=0x80002dc0
       39325000	      3931	00000000	00000013	addi	x0,x0,0	  x0:0x00000000
       39335000	      3932	80002dd0	00000013	addi	x0,x0,0	  x0:0x00000000
       39345000	      3933	80002dd4	fd1ff36f	jal	x6,80002dd4	  x6=0x80002dd4
       39355000	      3934	00000000	00000013	addi	x0,x0,0	  x0:0x00000000
       39365000	      3935	80002da0	00000013	addi	x0,x0,0	  x0:0x00000000
       39375000	      3936	80002da4	004001ef	jal	x3,80002da4	  x3=0x80002da4
       39385000	      3937	00000000	00000013	addi	x0,x0,0	  x0:0x00000000
       39395000	      3938	80002da4	00000013	addi	x0,x0,0	  x0:0x00000000
       39405000	      3939	80002da8	05c0036f	jal	x6,80002da8	  x6=0x80002da8
       39415000	      3940	00000000	00000013	addi	x0,x0,0	  x0:0x00000000
       39425000	      3941	80002e00	00000013	addi	x0,x0,0	  x0:0x00000000
       39435000	      3942	80002e04	fb1ff4ef	jal	x9,80002e04	  x9=0x80002e04
       39445000	      3943	00000000	00000013	addi	x0,x0,0	  x0:0x00000000
       39455000	      3944	80002db0	00000013	addi	x0,x0,0	  x0:0x00000000
       39465000	      3945	80002db4	04c000ef	jal	x1,80002db4	  x1=0x80002db4
       39475000	      3946	00000000	00000013	addi	x0,x0,0	  x0:0x00000000
       39485000	      3947	80002dfc	00000013	addi	x0,x0,0	  x0:0x00000000
       39495000	      3948	80002e00	fb1ff36f	jal	x6,80002e00	  x6=0x80002e00
       39505000	      3949	00000000	00000013	addi	x0,x0,0	  x0:0x00000000
       39515000	      3950	80002dac	00000013	addi	x0,x0,0	  x0:0x00000000
       39525000	      3951	80002db0	ff1ff6ef	jal	x13,80002db0	 x13=0x80002db0
       39535000	      3952	00000000	00000013	addi	x0,x0,0	  x0:0x00000000
       39545000	      3953	80002d9c	00000013	addi	x0,x0,0	  x0:0x00000000
       39555000	      3954	80002da0	05c001ef	jal	x3,80002da0	  x3=0x80002da0
       39565000	      3955	00000000	00000013	addi	x0,x0,0	  x0:0x00000000
       39575000	      3956	80002df8	00000013	addi	x0,x0,0	  x0:0x00000000
       39585000	      3957	80002dfc	fc1ff0ef	jal	x1,80002dfc	  x1=0x80002dfc
       39595000	      3958	00000000	00000013	addi	x0,x0,0	  x0:0x00000000
       39605000	      3959	80002db8	00000013	addi	x0,x0,0	  x0:0x00000000
       39615000	      3960	80002dbc	0380036f	jal	x6,80002dbc	  x6=0x80002dbc
       39625000	      3961	00000000	00000013	addi	x0,x0,0	  x0:0x00000000
       39635000	      3962	80002df0	00000013	addi	x0,x0,0	  x0:0x00000000
       39645000	      3963	80002df4	fe5ff36f	jal	x6,80002df4	  x6=0x80002df4
       39655000	      3964	00000000	00000013	addi	x0,x0,0	  x0:0x00000000
       39665000	      3965	80002dd4	00000013	addi	x0,x0,0	  x0:0x00000000
       39675000	      3966	80002dd8	fe1ff26f	jal	x4,80002dd8	  x4=0x80002dd8
       39685000	      3967	00000000	00000013	addi	x0,x0,0	  x0:0x00000000
       39695000	      3968	80002db4	00000013	addi	x0,x0,0	  x0:0x00000000
       39705000	      3969	80002db8	ff5ffb6f	jal	x22,80002db8	 x22=0x80002db8
       39715000	      3970	00000000	00000013	addi	x0,x0,0	  x0:0x00000000
       39725000	      3971	80002da8	00000013	addi	x0,x0,0	  x0:0x00000000
       39735000	      3972	80002dac	060000ef	jal	x1,80002dac	  x1=0x80002dac
       39745000	      3973	00000000	00000013	addi	x0,x0,0	  x0:0x00000000
       39755000	      3974	80002e08	00000013	addi	x0,x0,0	  x0:0x00000000
       39765000	      3975	80002e0c	fbdffd6f	jal	x26,80002e0c	 x26=0x80002e0c
       39775000	      3976	00000000	00000013	addi	x0,x0,0	  x0:0x00000000
       39785000	      3977	80002dc4	00000013	addi	x0,x0,0	  x0:0x00000000
       39795000	      3978	80002dc8	0400096f	jal	x18,80002dc8	 x18=0x80002dc8
       39805000	      3979	00000000	00000013	addi	x0,x0,0	  x0:0x00000000
       39815000	      3980	80002e04	00000013	addi	x0,x0,0	  x0:0x00000000
       39825000	      3981	80002e08	fd5ff36f	jal	x6,80002e08	  x6=0x80002e08
       39835000	      3982	00000000	00000013	addi	x0,x0,0	  x0:0x00000000
       39845000	      3983	80002dd8	00000013	addi	x0,x0,0	  x0:0x00000000
       39855000	      3984	80002ddc	ff1ff0ef	jal	x1,80002ddc	  x1=0x80002ddc
       39865000	      3985	00000000	00000013	addi	x0,x0,0	  x0:0x00000000
       39875000	      3986	80002dc8	00000013	addi	x0,x0,0	  x0:0x00000000
       39885000	      3987	80002dcc	0200026f	jal	x4,80002dcc	  x4=0x80002dcc
       39895000	      3988	00000000	00000013	addi	x0,x0,0	  x0:0x00000000
       39905000	      3989	80002de8	00000013	addi	x0,x0,0	  x0:0x00000000
       39915000	      3990	80002dec	fd9ff0ef	jal	x1,80002dec	  x1=0x80002dec
       39925000	      3991	00000000	00000013	addi	x0,x0,0	  x0:0x00000000
       39935000	      3992	80002dc0	00000013	addi	x0,x0,0	  x0:0x00000000
       39945000	      3993	80002dc4	01c000ef	jal	x1,80002dc4	  x1=0x80002dc4
       39955000	      3994	00000000	00000013	addi	x0,x0,0	  x0:0x00000000
       39965000	      3995	80002ddc	00000013	addi	x0,x0,0	  x0:0x00000000
       39975000	      3996	80002de0	008000ef	jal	x1,80002de0	  x1=0x80002de0
       39985000	      3997	00000000	00000013	addi	x0,x0,0	  x0:0x00000000
       39995000	      3998	80002de4	00000013	addi	x0,x0,0	  x0:0x00000000
       40005000	      3999	80002de8	ffdff0ef	jal	x1,80002de8	  x1=0x80002de8
       40015000	      4000	00000000	00000013	addi	x0,x0,0	  x0:0x00000000
       40025000	      4001	80002de0	00000013	addi	x0,x0,0	  x0:0x00000000
       40035000	      4002	80002de4	fedff0ef	jal	x1,80002de4	  x1=0x80002de4
       40045000	      4003	00000000	00000013	addi	x0,x0,0	  x0:0x00000000
       40055000	      4004	80002dcc	00000013	addi	x0,x0,0	  x0:0x00000000
       40065000	      4005	80002dd0	020000ef	jal	x1,80002dd0	  x1=0x80002dd0
       40075000	      4006	00000000	00000013	addi	x0,x0,0	  x0:0x00000000
       40085000	      4007	80002dec	00000013	addi	x0,x0,0	  x0:0x00000000
       40095000	      4008	80002df0	020000ef	jal	x1,80002df0	  x1=0x80002df0
       40105000	      4009	00000000	00000013	addi	x0,x0,0	  x0:0x00000000
       40115000	      4010	80002e0c	00000013	addi	x0,x0,0	  x0:0x00000000
       40125000	      4011	80002e10	ae0d2013	slti	x0,x26,-1312	 x26:0x80002e0c
       40135000	      4012	80002e14	034000ef	jal	x1,80002e14	  x1=0x80002e14
       40145000	      4013	00000000	00000013	addi	x0,x0,0	  x0:0x00000000
       40155000	      4014	80002e44	00000013	addi	x0,x0,0	  x0:0x00000000
       40165000	      4015	80002e48	ffdff36f	jal	x6,80002e48	  x6=0x80002e48
       40175000	      4016	00000000	00000013	addi	x0,x0,0	  x0:0x00000000
       40185000	      4017	80002e40	00000013	addi	x0,x0,0	  x0:0x00000000
       40195000	      4018	80002e44	fddff26f	jal	x4,80002e44	  x4=0x80002e44
       40205000	      4019	00000000	00000013	addi	x0,x0,0	  x0:0x00000000
       40215000	      4020	80002e1c	00000013	addi	x0,x0,0	  x0:0x00000000
       40225000	      4021	80002e20	00c00fef	jal	x31,80002e20	 x31=0x80002e20
       40235000	      4022	00000000	00000013	addi	x0,x0,0	  x0:0x00000000
       40245000	      4023	80002e28	00000013	addi	x0,x0,0	  x0:0x00000000
       40255000	      4024	80002e2c	fedff0ef	jal	x1,80002e2c	  x1=0x80002e2c
       40265000	      4025	00000000	00000013	addi	x0,x0,0	  x0:0x00000000
       40275000	      4026	80002e14	00000013	addi	x0,x0,0	  x0:0x00000000
       40285000	      4027	80002e18	024000ef	jal	x1,80002e18	  x1=0x80002e18
       40295000	      4028	00000000	00000013	addi	x0,x0,0	  x0:0x00000000
       40305000	      4029	80002e38	00000013	addi	x0,x0,0	  x0:0x00000000
       40315000	      4030	80002e3c	0040026f	jal	x4,80002e3c	  x4=0x80002e3c
       40325000	      4031	00000000	00000013	addi	x0,x0,0	  x0:0x00000000
       40335000	      4032	80002e3c	00000013	addi	x0,x0,0	  x0:0x00000000
       40345000	      4033	80002e40	ff9ff0ef	jal	x1,80002e40	  x1=0x80002e40
       40355000	      4034	00000000	00000013	addi	x0,x0,0	  x0:0x00000000
       40365000	      4035	80002e34	00000013	addi	x0,x0,0	  x0:0x00000000
       40375000	      4036	80002e38	01400cef	jal	x25,80002e38	 x25=0x80002e38
       40385000	      4037	00000000	00000013	addi	x0,x0,0	  x0:0x00000000
       40395000	      4038	80002e48	00000013	addi	x0,x0,0	  x0:0x00000000
       40405000	      4039	80002e4c	fe5ffdef	jal	x27,80002e4c	 x27=0x80002e4c
       40415000	      4040	00000000	00000013	addi	x0,x0,0	  x0:0x00000000
       40425000	      4041	80002e2c	00000013	addi	x0,x0,0	  x0:0x00000000
       40435000	      4042	80002e30	0040036f	jal	x6,80002e30	  x6=0x80002e30
       40445000	      4043	00000000	00000013	addi	x0,x0,0	  x0:0x00000000
       40455000	      4044	80002e30	00000013	addi	x0,x0,0	  x0:0x00000000
       40465000	      4045	80002e34	fe9ff0ef	jal	x1,80002e34	  x1=0x80002e34
       40475000	      4046	00000000	00000013	addi	x0,x0,0	  x0:0x00000000
       40485000	      4047	80002e18	00000013	addi	x0,x0,0	  x0:0x00000000
       40495000	      4048	80002e1c	008000ef	jal	x1,80002e1c	  x1=0x80002e1c
       40505000	      4049	00000000	00000013	addi	x0,x0,0	  x0:0x00000000
       40515000	      4050	80002e20	00000013	addi	x0,x0,0	  x0:0x00000000
       40525000	      4051	80002e24	0040036f	jal	x6,80002e24	  x6=0x80002e24
       40535000	      4052	00000000	00000013	addi	x0,x0,0	  x0:0x00000000
       40545000	      4053	80002e24	00000013	addi	x0,x0,0	  x0:0x00000000
       40555000	      4054	80002e28	028000ef	jal	x1,80002e28	  x1=0x80002e28
       40565000	      4055	00000000	00000013	addi	x0,x0,0	  x0:0x00000000
       40575000	      4056	80002e4c	00000013	addi	x0,x0,0	  x0:0x00000000
       40585000	      4057	80002e50	0040016f	jal	x2,80002e50	  x2=0x80002e50
       40595000	      4058	00000000	00000013	addi	x0,x0,0	  x0:0x00000000
       40605000	      4059	80002e50	00000013	addi	x0,x0,0	  x0:0x00000000
       40615000	      4060	80002e54	00ed9193	slli	x3,x27,0xe	 x27:0x80002e4c  x3=0x0b930000
       40625000	      4061	80002e58	034000ef	jal	x1,80002e58	  x1=0x80002e58
       40635000	      4062	00000000	00000013	addi	x0,x0,0	  x0:0x00000000
       40645000	      4063	80002e88	00000013	addi	x0,x0,0	  x0:0x00000000
       40655000	      4064	80002e8c	00c000ef	jal	x1,80002e8c	  x1=0x80002e8c
       40665000	      4065	00000000	00000013	addi	x0,x0,0	  x0:0x00000000
       40675000	      4066	80002e94	00000013	addi	x0,x0,0	  x0:0x00000000
       40685000	      4067	80002e98	fedff2ef	jal	x5,80002e98	  x5=0x80002e98
       40695000	      4068	00000000	00000013	addi	x0,x0,0	  x0:0x00000000
       40705000	      4069	80002e80	00000013	addi	x0,x0,0	  x0:0x00000000
       40715000	      4070	80002e84	0380026f	jal	x4,80002e84	  x4=0x80002e84
       40725000	      4071	00000000	00000013	addi	x0,x0,0	  x0:0x00000000
       40735000	      4072	80002eb8	00000013	addi	x0,x0,0	  x0:0x00000000
       40745000	      4073	80002ebc	fedff4ef	jal	x9,80002ebc	  x9=0x80002ebc
       40755000	      4074	00000000	00000013	addi	x0,x0,0	  x0:0x00000000
       40765000	      4075	80002ea4	00000013	addi	x0,x0,0	  x0:0x00000000
       40775000	      4076	80002ea8	008000ef	jal	x1,80002ea8	  x1=0x80002ea8
       40785000	      4077	00000000	00000013	addi	x0,x0,0	  x0:0x00000000
       40795000	      4078	80002eac	00000013	addi	x0,x0,0	  x0:0x00000000
       40805000	      4079	80002eb0	010000ef	jal	x1,80002eb0	  x1=0x80002eb0
       40815000	      4080	00000000	00000013	addi	x0,x0,0	  x0:0x00000000
       40825000	      4081	80002ebc	00000013	addi	x0,x0,0	  x0:0x00000000
       40835000	      4082	80002ec0	fd5ff0ef	jal	x1,80002ec0	  x1=0x80002ec0
       40845000	      4083	00000000	00000013	addi	x0,x0,0	  x0:0x00000000
       40855000	      4084	80002e90	00000013	addi	x0,x0,0	  x0:0x00000000
       40865000	      4085	80002e94	00c000ef	jal	x1,80002e94	  x1=0x80002e94
       40875000	      4086	00000000	00000013	addi	x0,x0,0	  x0:0x00000000
       40885000	      4087	80002e9c	00000013	addi	x0,x0,0	  x0:0x00000000
       40895000	      4088	80002ea0	fd5ff0ef	jal	x1,80002ea0	  x1=0x80002ea0
       40905000	      4089	00000000	00000013	addi	x0,x0,0	  x0:0x00000000
       40915000	      4090	80002e70	00000013	addi	x0,x0,0	  x0:0x00000000
       40925000	      4091	80002e74	0300036f	jal	x6,80002e74	  x6=0x80002e74
       40935000	      4092	00000000	00000013	addi	x0,x0,0	  x0:0x00000000
       40945000	      4093	80002ea0	00000013	addi	x0,x0,0	  x0:0x00000000
       40955000	      4094	80002ea4	014000ef	jal	x1,80002ea4	  x1=0x80002ea4
       40965000	      4095	00000000	00000013	addi	x0,x0,0	  x0:0x00000000
       40975000	      4096	80002eb4	00000013	addi	x0,x0,0	  x0:0x00000000
       40985000	      4097	80002eb8	fb5ff36f	jal	x6,80002eb8	  x6=0x80002eb8
       40995000	      4098	00000000	00000013	addi	x0,x0,0	  x0:0x00000000
       41005000	      4099	80002e68	00000013	addi	x0,x0,0	  x0:0x00000000
       41015000	      4100	80002e6c	05c0036f	jal	x6,80002e6c	  x6=0x80002e6c
       41025000	      4101	00000000	00000013	addi	x0,x0,0	  x0:0x00000000
       41035000	      4102	80002ec4	00000013	addi	x0,x0,0	  x0:0x00000000
       41045000	      4103	80002ec8	fd5ff1ef	jal	x3,80002ec8	  x3=0x80002ec8
       41055000	      4104	00000000	00000013	addi	x0,x0,0	  x0:0x00000000
       41065000	      4105	80002e98	00000013	addi	x0,x0,0	  x0:0x00000000
       41075000	      4106	80002e9c	fc9ff0ef	jal	x1,80002e9c	  x1=0x80002e9c
       41085000	      4107	00000000	00000013	addi	x0,x0,0	  x0:0x00000000
       41095000	      4108	80002e60	00000013	addi	x0,x0,0	  x0:0x00000000
       41105000	      4109	80002e64	0180036f	jal	x6,80002e64	  x6=0x80002e64
       41115000	      4110	00000000	00000013	addi	x0,x0,0	  x0:0x00000000
       41125000	      4111	80002e78	00000013	addi	x0,x0,0	  x0:0x00000000
       41135000	      4112	80002e7c	038000ef	jal	x1,80002e7c	  x1=0x80002e7c
       41145000	      4113	00000000	00000013	addi	x0,x0,0	  x0:0x00000000
       41155000	      4114	80002eb0	00000013	addi	x0,x0,0	  x0:0x00000000
       41165000	      4115	80002eb4	fd5ff0ef	jal	x1,80002eb4	  x1=0x80002eb4
       41175000	      4116	00000000	00000013	addi	x0,x0,0	  x0:0x00000000
       41185000	      4117	80002e84	00000013	addi	x0,x0,0	  x0:0x00000000
       41195000	      4118	80002e88	ff9ff0ef	jal	x1,80002e88	  x1=0x80002e88
       41205000	      4119	00000000	00000013	addi	x0,x0,0	  x0:0x00000000
       41215000	      4120	80002e7c	00000013	addi	x0,x0,0	  x0:0x00000000
       41225000	      4121	80002e80	fe9ff0ef	jal	x1,80002e80	  x1=0x80002e80
       41235000	      4122	00000000	00000013	addi	x0,x0,0	  x0:0x00000000
       41245000	      4123	80002e64	00000013	addi	x0,x0,0	  x0:0x00000000
       41255000	      4124	80002e68	0100016f	jal	x2,80002e68	  x2=0x80002e68
       41265000	      4125	00000000	00000013	addi	x0,x0,0	  x0:0x00000000
       41275000	      4126	80002e74	00000013	addi	x0,x0,0	  x0:0x00000000
       41285000	      4127	80002e78	018000ef	jal	x1,80002e78	  x1=0x80002e78
       41295000	      4128	00000000	00000013	addi	x0,x0,0	  x0:0x00000000
       41305000	      4129	80002e8c	00000013	addi	x0,x0,0	  x0:0x00000000
       41315000	      4130	80002e90	01c000ef	jal	x1,80002e90	  x1=0x80002e90
       41325000	      4131	00000000	00000013	addi	x0,x0,0	  x0:0x00000000
       41335000	      4132	80002ea8	00000013	addi	x0,x0,0	  x0:0x00000000
       41345000	      4133	80002eac	fb5ff0ef	jal	x1,80002eac	  x1=0x80002eac
       41355000	      4134	00000000	00000013	addi	x0,x0,0	  x0:0x00000000
       41365000	      4135	80002e5c	00000013	addi	x0,x0,0	  x0:0x00000000
       41375000	      4136	80002e60	0100066f	jal	x12,80002e60	 x12=0x80002e60
       41385000	      4137	00000000	00000013	addi	x0,x0,0	  x0:0x00000000
       41395000	      4138	80002e6c	00000013	addi	x0,x0,0	  x0:0x00000000
       41405000	      4139	80002e70	fedff0ef	jal	x1,80002e70	  x1=0x80002e70
       41415000	      4140	00000000	00000013	addi	x0,x0,0	  x0:0x00000000
       41425000	      4141	80002e58	00000013	addi	x0,x0,0	  x0:0x00000000
       41435000	      4142	80002e5c	068000ef	jal	x1,80002e5c	  x1=0x80002e5c
       41445000	      4143	00000000	00000013	addi	x0,x0,0	  x0:0x00000000
       41455000	      4144	80002ec0	00000013	addi	x0,x0,0	  x0:0x00000000
       41465000	      4145	80002ec4	008000ef	jal	x1,80002ec4	  x1=0x80002ec4
       41475000	      4146	00000000	00000013	addi	x0,x0,0	  x0:0x00000000
       41485000	      4147	80002ec8	00000013	addi	x0,x0,0	  x0:0x00000000
       41495000	      4148	80002ecc	01483fb3	sltu	x31,x16,x20	 x16:0x80002c40 x20:0x80002d6c x31=0x00000001
       41505000	      4149	80002ed0	0df30513	addi	x10,x6,223	  x6:0x80002e64 x10=0x80002f43
       41515000	      4150	80002ed4	417b5313	srai	x6,x22,0x17	 x22:0x80002db8  x6=0xffffff00
       41525000	      4151	80002ed8	01fb94b3	sll	x9,x23,x31	 x23:0x80009f1c x31:0x00000001  x9=0x00013e38
       41535000	      4152	80002edc	01720c63	beq	x4,x23,80002ef4	  x4:0x80002e84 x23:0x80009f1c
       41545000	      4153	80002ee0	01fa5e93	srli	x29,x20,0x1f	 x20:0x80002d6c x29=0x00000001
       41555000	      4154	80002ee4	dbc42c93	slti	x25,x8,-580	  x8:0x80002bb4 x25=0x00000001
       41565000	      4155	80002ee8	8b771f17	auipc	x30,0x8b771	 x30=0x0b773ee4
       41575000	      4156	80002eec	011dce63	blt	x27,x17,80002f08	 x27:0x80002e4c x17:0x80009fc4
       41585000	      4157	00000000	00000013	addi	x0,x0,0	  x0:0x00000000
       41595000	      4158	80002f04	00000013	addi	x0,x0,0	  x0:0x00000000
       41605000	      4159	80002f08	0117ce33	xor	x28,x15,x17	 x15:0x80002d14 x17:0x80009fc4 x28=0x0000b2d0
       41615000	      4160	80002f0c	00e42f33	slt	x30,x8,x14	  x8:0x80002bb4 x14:0x00000004 x30=0x00000001
       41625000	      4161	80002f10	03707863	bgeu	x0,x23,80002f40	  x0:0x00000000 x23:0x80009f1c
       41635000	      4162	80002f14	00575b13	srli	x22,x14,0x5	 x14:0x00000004 x22=0x00000000
       41645000	      4163	80002f18	011d5333	srl	x6,x26,x17	 x26:0x80002e0c x17:0x80009fc4  x6=0x080002e0
       41655000	      4164	80002f1c	00e8c233	xor	x4,x17,x14	 x17:0x80009fc4 x14:0x00000004  x4=0x80009fc0
       41665000	      4165	80002f20	deeabe13	sltiu	x28,x21,-530	 x21:0x080002a7 x28=0x00000001
       41675000	      4166	80002f24	018aeab3	or	x21,x21,x24	 x21:0x080002a7 x24:0x80002d44 x21=0x88002fe7
       41685000	      4167	80002f28	01d19c63	bne	x3,x29,80002f40	  x3:0x80002ec8 x29:0x00000001
       41695000	      4168	00000000	00000013	addi	x0,x0,0	  x0:0x00000000
       41705000	      4169	80002f3c	00000013	addi	x0,x0,0	  x0:0x00000000
       41715000	      4170	80002f40	00961493	slli	x9,x12,0x9	 x12:0x80002e60  x9=0x005cc000
       41725000	      4171	80002f44	14bb0593	addi	x11,x22,331	 x22:0x00000000 x11=0x0000014b
       41735000	      4172	80002f48	00147c63	bgeu	x8,x1,80002f60	  x8:0x80002bb4  x1:0x80002ec4
       41745000	      4173	80002f4c	00ff2e33	slt	x28,x30,x15	 x30:0x00000001 x15:0x80002d14 x28=0x00000000
       41755000	      4174	80002f50	41d25693	srai	x13,x4,0x1d	  x4:0x80009fc0 x13=0xfffffffc
       41765000	      4175	80002f54	0055dc33	srl	x24,x11,x5	 x11:0x0000014b  x5:0x80002e98 x24=0x00000000
       41775000	      4176	80002f58	11c36913	ori	x18,x6,284	  x6:0x080002e0 x18=0x080003fc
       41785000	      4177	80002f5c	05cac863	blt	x21,x28,80002fac	 x21:0x88002fe7 x28:0x00000000
       41795000	      4178	00000000	00000013	addi	x0,x0,0	  x0:0x00000000
       41805000	      4179	80002fa8	00000013	addi	x0,x0,0	  x0:0x00000000
       41815000	      4180	80002fac	052c1663	bne	x24,x18,80002ff8	 x24:0x00000000 x18:0x080003fc
       41825000	      4181	00000000	00000013	addi	x0,x0,0	  x0:0x00000000
       41835000	      4182	80002ff4	00000013	addi	x0,x0,0	  x0:0x00000000
       41845000	      4183	80002ff8	b8ceb613	sltiu	x12,x29,-1140	 x29:0x00000001 x12=0x00000001
       41855000	      4184	80002ffc	017a2e33	slt	x28,x20,x23	 x20:0x80002d6c x23:0x80009f1c x28=0x00000001
       41865000	      4185	80003000	017b81b3	add	x3,x23,x23	 x23:0x80009f1c x23:0x80009f1c  x3=0x00013e38
       41875000	      4186	80003004	01bd5c93	srli	x25,x26,0x1b	 x26:0x80002e0c x25=0x00000010
       41885000	      4187	80003008	00025813	srli	x16,x4,0x0	  x4:0x80009fc0 x16=0x80009fc0
       41895000	      4188	8000300c	40950d33	sub	x26,x10,x9	 x10:0x80002f43  x9:0x005cc000 x26=0x7fa36f43
       41905000	      4189	80003010	01481413	slli	x8,x16,0x14	 x16:0x80009fc0  x8=0xfc000000
       41915000	      4190	80003014	00000013	addi	x0,x0,0	  x0:0x00000000
       41925000	      4191	80003018	81044c17	auipc	x24,0x81044	 x24=0x01047014
       41935000	      4192	8000301c	00d0efb3	or	x31,x1,x13	  x1:0x80002ec4 x13:0xfffffffc x31=0xfffffffc
       41945000	      4193	80003020	018e1333	sll	x6,x28,x24	 x28:0x00000001 x24:0x01047014  x6=0x00100000
       41955000	      4194	80003024	aa6e0513	addi	x10,x28,-1370	 x28:0x00000001 x10=0xfffffaa7
       41965000	      4195	80003028	015ddf33	srl	x30,x27,x21	 x27:0x80002e4c x21:0x88002fe7 x30=0x0100005c
       41975000	      4196	8000302c	00161533	sll	x10,x12,x1	 x12:0x00000001  x1:0x80002ec4 x10=0x00000010
       41985000	      4197	80003030	00000013	addi	x0,x0,0	  x0:0x00000000
       41995000	      4198	80003034	017f9193	slli	x3,x31,0x17	 x31:0xfffffffc  x3=0xfe000000
       42005000	      4199	80003038	0109dcb3	srl	x25,x19,x16	 x19:0x80002d24 x16:0x80009fc0 x25=0x80002d24
       42015000	      4200	8000303c	019b81b3	add	x3,x23,x25	 x23:0x80009f1c x25:0x80002d24  x3=0x0000cc40
       42025000	      4201	80003040	01b93cb3	sltu	x25,x18,x27	 x18:0x080003fc x27:0x80002e4c x25=0x00000001
       42035000	      4202	80003044	01031613	slli	x12,x6,0x10	  x6:0x00100000 x12=0x00000000
       42045000	      4203	80003048	00387e63	bgeu	x16,x3,80003064	 x16:0x80009fc0  x3:0x0000cc40
       42055000	      4204	00000000	00000013	addi	x0,x0,0	  x0:0x00000000
       42065000	      4205	80003060	00000013	addi	x0,x0,0	  x0:0x00000000
       42075000	      4206	80003064	41b382b3	sub	x5,x7,x27	  x7:0x80002d70 x27:0x80002e4c  x5=0xffffff24
       42085000	      4207	80003068	40b1d993	srai	x19,x3,0xb	  x3:0x0000cc40 x19=0x00000019
       42095000	      4208	8000306c	0110f633	and	x12,x1,x17	  x1:0x80002ec4 x17:0x80009fc4 x12=0x80000ec4
       42105000	      4209	80003070	ce177813	andi	x16,x14,-799	 x14:0x00000004 x16=0x00000000
       42115000	      4210	80003074	0068d233	srl	x4,x17,x6	 x17:0x80009fc4  x6:0x00100000  x4=0x80009fc4
       42125000	      4211	80003078	4162d1b3	sra	x3,x5,x22	  x5:0xffffff24 x22:0x00000000  x3=0xffffff24
       42135000	      4212	8000307c	418502b3	sub	x5,x10,x24	 x10:0x00000010 x24:0x01047014  x5=0xfefb8ffc
       42145000	      4213	80003080	04779063	bne	x15,x7,800030c0	 x15:0x80002d14  x7:0x80002d70
       42155000	      4214	00000000	00000013	addi	x0,x0,0	  x0:0x00000000
       42165000	      4215	800030bc	00000013	addi	x0,x0,0	  x0:0x00000000
       42175000	      4216	800030c0	a9ba0513	addi	x10,x20,-1381	 x20:0x80002d6c x10=0x80002807
       42185000	      4217	800030c4	03701463	bne	x0,x23,800030ec	  x0:0x00000000 x23:0x80009f1c
       42195000	      4218	00000000	00000013	addi	x0,x0,0	  x0:0x00000000
       42205000	      4219	800030e8	00000013	addi	x0,x0,0	  x0:0x00000000
       42215000	      4220	800030ec	0041cfb3	xor	x31,x3,x4	  x3:0xffffff24  x4:0x80009fc4 x31=0x7fff60e0
       42225000	      4221	800030f0	01e780b3	add	x1,x15,x30	 x15:0x80002d14 x30:0x0100005c  x1=0x81002d70
       42235000	      4222	800030f4	3908b393	sltiu	x7,x17,912	 x17:0x80009fc4  x7=0x00000000
       42245000	      4223	800030f8	c4673f93	sltiu	x31,x14,-954	 x14:0x00000004 x31=0x00000001
       42255000	      4224	800030fc	f7df0793	addi	x15,x30,-131	 x30:0x0100005c x15=0x00ffffd9
       42265000	      4225	80003100	01d300b3	add	x1,x6,x29	  x6:0x00100000 x29:0x00000001  x1=0x00100001
       42275000	      4226	80003104	01d794b3	sll	x9,x15,x29	 x15:0x00ffffd9 x29:0x00000001  x9=0x01ffffb2
       42285000	      4227	80003108	007bcf93	xori	x31,x23,7	 x23:0x80009f1c x31=0x80009f1b
       42295000	      4228	8000310c	00000013	addi	x0,x0,0	  x0:0x00000000
       42305000	      4229	80003110	05716063	bltu	x2,x23,80003150	  x2:0x80002e68 x23:0x80009f1c
       42315000	      4230	00000000	00000013	addi	x0,x0,0	  x0:0x00000000
       42325000	      4231	8000314c	00000013	addi	x0,x0,0	  x0:0x00000000
       42335000	      4232	80003150	ebd9e013	ori	x0,x19,-323	 x19:0x00000019
       42345000	      4233	80003154	008320b3	slt	x1,x6,x8	  x6:0x00100000  x8:0xfc000000  x1=0x00000000
       42355000	      4234	80003158	e13dbf93	sltiu	x31,x27,-493	 x27:0x80002e4c x31=0x00000001
       42365000	      4235	8000315c	40c2df13	srai	x30,x5,0xc	  x5:0xfefb8ffc x30=0xffffefb8
       42375000	      4236	80003160	c501f293	andi	x5,x3,-944	  x3:0xffffff24  x5=0xfffffc00
       42385000	      4237	80003164	00b3e663	bltu	x7,x11,80003170	  x7:0x00000000 x11:0x0000014b
       42395000	      4238	00000000	00000013	addi	x0,x0,0	  x0:0x00000000
       42405000	      4239	8000316c	00000013	addi	x0,x0,0	  x0:0x00000000
       42415000	      4240	80003170	40235793	srai	x15,x6,0x2	  x6:0x00100000 x15=0x00040000
       42425000	      4241	80003174	00aa1463	bne	x20,x10,8000317c	 x20:0x80002d6c x10:0x80002807
       42435000	      4242	00000000	00000013	addi	x0,x0,0	  x0:0x00000000
       42445000	      4243	80003178	00000013	addi	x0,x0,0	  x0:0x00000000
       42455000	      4244	8000317c	001170b3	and	x1,x2,x1	  x2:0x80002e68  x1:0x00000000  x1=0x00000000
       42465000	      4245	80003180	48a80e13	addi	x28,x16,1162	 x16:0x00000000 x28=0x0000048a
       42475000	      4246	80003184	0556a613	slti	x12,x13,85	 x13:0xfffffffc x12=0x00000001
       42485000	      4247	80003188	01814d33	xor	x26,x2,x24	  x2:0x80002e68 x24:0x01047014 x26=0x81045e7c
       42495000	      4248	8000318c	006b73b3	and	x7,x22,x6	 x22:0x00000000  x6:0x00100000  x7=0x00000000
       42505000	      4249	80003190	bce12b13	slti	x22,x2,-1074	  x2:0x80002e68 x22=0x00000001
       42515000	      4250	80003194	eee9f613	andi	x12,x19,-274	 x19:0x00000019 x12=0x00000008
       42525000	      4251	80003198	00a09033	sll	x0,x1,x10	  x1:0x00000000 x10:0x80002807
       42535000	      4252	8000319c	402ede33	sra	x28,x29,x2	 x29:0x00000001  x2:0x80002e68 x28=0x00000000
       42545000	      4253	800031a0	04c29063	bne	x5,x12,800031e0	  x5:0xfffffc00 x12:0x00000008
       42555000	      4254	00000000	00000013	addi	x0,x0,0	  x0:0x00000000
       42565000	      4255	800031dc	00000013	addi	x0,x0,0	  x0:0x00000000
       42575000	      4256	800031e0	00b12833	slt	x16,x2,x11	  x2:0x80002e68 x11:0x0000014b x16=0x00000001
       42585000	      4257	800031e4	478d0493	addi	x9,x26,1144	 x26:0x81045e7c  x9=0x810462f4
       42595000	      4258	800031e8	4193d933	sra	x18,x7,x25	  x7:0x00000000 x25:0x00000001 x18=0x00000000
       42605000	      4259	800031ec	0142ce63	blt	x5,x20,80003208	  x5:0xfffffc00 x20:0x80002d6c
       42615000	      4260	800031f0	01ea9b33	sll	x22,x21,x30	 x21:0x88002fe7 x30:0xffffefb8 x22=0xe7000000
       42625000	      4261	800031f4	00000013	addi	x0,x0,0	  x0:0x00000000
       42635000	      4262	800031f8	b97b9e97	auipc	x29,0xb97b9	 x29=0x397bc1f4
       42645000	      4263	800031fc	052ed063	bge	x29,x18,8000323c	 x29:0x397bc1f4 x18:0x00000000
       42655000	      4264	00000000	00000013	addi	x0,x0,0	  x0:0x00000000
       42665000	      4265	80003238	00000013	addi	x0,x0,0	  x0:0x00000000
       42675000	      4266	8000323c	03bd5863	bge	x26,x27,8000326c	 x26:0x81045e7c x27:0x80002e4c
       42685000	      4267	00000000	00000013	addi	x0,x0,0	  x0:0x00000000
       42695000	      4268	80003268	00000013	addi	x0,x0,0	  x0:0x00000000
       42705000	      4269	8000326c	40485393	srai	x7,x16,0x4	 x16:0x00000001  x7=0x00000000
       42715000	      4270	80003270	01916ab3	or	x21,x2,x25	  x2:0x80002e68 x25:0x00000001 x21=0x80002e69
       42725000	      4271	80003274	f88c7f93	andi	x31,x24,-120	 x24:0x01047014 x31=0x01047000
       42735000	      4272	80003278	02c64863	blt	x12,x12,800032a8	 x12:0x00000008 x12:0x00000008
       42745000	      4273	8000327c	00000013	addi	x0,x0,0	  x0:0x00000000
       42755000	      4274	80003280	001ce233	or	x4,x25,x1	 x25:0x00000001  x1:0x00000000  x4=0x00000001
       42765000	      4275	80003284	407a8833	sub	x16,x21,x7	 x21:0x80002e69  x7:0x00000000 x16=0x80002e69
       42775000	      4276	80003288	165905b7	lui	x11,0x16590	 x11=0x16590000
       42785000	      4277	8000328c	00ab9a33	sll	x20,x23,x10	 x23:0x80009f1c x10:0x80002807 x20=0x004f8e00
       42795000	      4278	80003290	40edd133	sra	x2,x27,x14	 x27:0x80002e4c x14:0x00000004  x2=0xf80002e4
       42805000	      4279	80003294	00fb5863	bge	x22,x15,800032a4	 x22:0xe7000000 x15:0x00040000
       42815000	      4280	80003298	01d3dc63	bge	x7,x29,800032b0	  x7:0x00000000 x29:0x397bc1f4
       42825000	      4281	8000329c	d5364d13	xori	x26,x12,-685	 x12:0x00000008 x26=0xfffffd5b
       42835000	      4282	800032a0	00000013	addi	x0,x0,0	  x0:0x00000000
       42845000	      4283	800032a4	400c5a33	sra	x20,x24,x0	 x24:0x01047014  x0:0x00000000 x20=0x01047014
       42855000	      4284	800032a8	01a387b3	add	x15,x7,x26	  x7:0x00000000 x26:0xfffffd5b x15=0xfffffd5b
       42865000	      4285	800032ac	ae534a93	xori	x21,x6,-1307	  x6:0x00100000 x21=0xffeffae5
       42875000	      4286	800032b0	02878263	beq	x15,x8,800032d4	 x15:0xfffffd5b  x8:0xfc000000
       42885000	      4287	800032b4	01d90eb3	add	x29,x18,x29	 x18:0x00000000 x29:0x397bc1f4 x29=0x397bc1f4
       42895000	      4288	800032b8	e6973617	auipc	x12,0xe6973	 x12=0x669762b4
       42905000	      4289	800032bc	3fde8793	addi	x15,x29,1021	 x29:0x397bc1f4 x15=0x397bc5f1
       42915000	      4290	800032c0	00e35663	bge	x6,x14,800032cc	  x6:0x00100000 x14:0x00000004
       42925000	      4291	00000000	00000013	addi	x0,x0,0	  x0:0x00000000
       42935000	      4292	800032c8	00000013	addi	x0,x0,0	  x0:0x00000000
       42945000	      4293	800032cc	0215c863	blt	x11,x1,800032fc	 x11:0x16590000  x1:0x00000000
       42955000	      4294	800032d0	eaf40b13	addi	x22,x8,-337	  x8:0xfc000000 x22=0xfbfffeaf
       42965000	      4295	800032d4	2601d4b7	lui	x9,0x2601d	  x9=0x2601d000
       42975000	      4296	800032d8	00f19cb3	sll	x25,x3,x15	  x3:0xffffff24 x15:0x397bc5f1 x25=0xfe480000
       42985000	      4297	800032dc	008cb5b3	sltu	x11,x25,x8	 x25:0xfe480000  x8:0xfc000000 x11=0x00000000
       42995000	      4298	800032e0	ab04f493	andi	x9,x9,-1360	  x9:0x2601d000  x9=0x2601d000
       43005000	      4299	800032e4	01c971b3	and	x3,x18,x28	 x18:0x00000000 x28:0x00000000  x3=0x00000000
       43015000	      4300	800032e8	00ce9a33	sll	x20,x29,x12	 x29:0x397bc1f4 x12:0x669762b4 x20=0x1f400000
       43025000	      4301	800032ec	40025b13	srai	x22,x4,0x0	  x4:0x00000001 x22=0x00000001
       43035000	      4302	800032f0	00b67d33	and	x26,x12,x11	 x12:0x669762b4 x11:0x00000000 x26=0x00000000
       43045000	      4303	800032f4	c1a9ab37	lui	x22,0xc1a9a	 x22=0xc1a9a000
       43055000	      4304	800032f8	005b51b3	srl	x3,x22,x5	 x22:0xc1a9a000  x5:0xfffffc00  x3=0xc1a9a000
       43065000	      4305	800032fc	00fed313	srli	x6,x29,0xf	 x29:0x397bc1f4  x6=0x000072f7
       43075000	      4306	80003300	1d37ddb7	lui	x27,0x1d37d	 x27=0x1d37d000
       43085000	      4307	80003304	0070fa33	and	x20,x1,x7	  x1:0x00000000  x7:0x00000000 x20=0x00000000
       43095000	      4308	80003308	0000cd33	xor	x26,x1,x0	  x1:0x00000000  x0:0x00000000 x26=0x00000000
       43105000	      4309	8000330c	0067b533	sltu	x10,x15,x6	 x15:0x397bc5f1  x6:0x000072f7 x10=0x00000000
       43115000	      4310	80003310	012702b3	add	x5,x14,x18	 x14:0x00000004 x18:0x00000000  x5=0x00000004
       43125000	      4311	80003314	a908b293	sltiu	x5,x17,-1392	 x17:0x80009fc4  x5=0x00000001
       43135000	      4312	80003318	02418863	beq	x3,x4,80003348	  x3:0xc1a9a000  x4:0x00000001
       43145000	      4313	8000331c	00324833	xor	x16,x4,x3	  x4:0x00000001  x3:0xc1a9a000 x16=0xc1a9a001
       43155000	      4314	80003320	e7504c13	xori	x24,x0,-395	  x0:0x00000000 x24=0xfffffe75
       43165000	      4315	80003324	0029e863	bltu	x19,x2,80003334	 x19:0x00000019  x2:0xf80002e4
       43175000	      4316	00000000	00000013	addi	x0,x0,0	  x0:0x00000000
       43185000	      4317	80003330	00000013	addi	x0,x0,0	  x0:0x00000000
       43195000	      4318	80003334	71d76697	auipc	x13,0x71d76	 x13=0xf1d79330
       43205000	      4319	80003338	017dd263	bge	x27,x23,8000333c	 x27:0x1d37d000 x23:0x80009f1c
       43215000	      4320	00000000	00000013	addi	x0,x0,0	  x0:0x00000000
       43225000	      4321	80003338	00000013	addi	x0,x0,0	  x0:0x00000000
       43235000	      4322	8000333c	01407663	bgeu	x0,x20,80003348	  x0:0x00000000 x20:0x00000000
       43245000	      4323	00000000	00000013	addi	x0,x0,0	  x0:0x00000000
       43255000	      4324	80003344	00000013	addi	x0,x0,0	  x0:0x00000000
       43265000	      4325	80003348	002cd263	bge	x25,x2,8000334c	 x25:0xfe480000  x2:0xf80002e4
       43275000	      4326	00000000	00000013	addi	x0,x0,0	  x0:0x00000000
       43285000	      4327	80003348	00000013	addi	x0,x0,0	  x0:0x00000000
       43295000	      4328	8000334c	01b96d33	or	x26,x18,x27	 x18:0x00000000 x27:0x1d37d000 x26=0x1d37d000
       43305000	      4329	80003350	05331063	bne	x6,x19,80003390	  x6:0x000072f7 x19:0x00000019
       43315000	      4330	00000000	00000013	addi	x0,x0,0	  x0:0x00000000
       43325000	      4331	8000338c	00000013	addi	x0,x0,0	  x0:0x00000000
       43335000	      4332	80003390	01521e33	sll	x28,x4,x21	  x4:0x00000001 x21:0xffeffae5 x28=0x00000020
       43345000	      4333	80003394	36df8d17	auipc	x26,0x36df8	 x26=0xb6dfb390
       43355000	      4334	80003398	eed07fb7	lui	x31,0xeed07	 x31=0xeed07000
       43365000	      4335	8000339c	41785433	sra	x8,x16,x23	 x16:0xc1a9a001 x23:0x80009f1c  x8=0xfffffffc
       43375000	      4336	800033a0	1d508e93	addi	x29,x1,469	  x1:0x00000000 x29=0x000001d5
       43385000	      4337	800033a4	00715013	srli	x0,x2,0x7	  x2:0xf80002e4
       43395000	      4338	800033a8	41f603b3	sub	x7,x12,x31	 x12:0x669762b4 x31:0xeed07000  x7=0x77c6f2b4
       43405000	      4339	800033ac	4efd7c93	andi	x25,x26,1263	 x26:0xb6dfb390 x25=0x00000080
       43415000	      4340	800033b0	06de9263	bne	x29,x13,80003414	 x29:0x000001d5 x13:0xf1d79330
       43425000	      4341	00000000	00000013	addi	x0,x0,0	  x0:0x00000000
       43435000	      4342	80003410	00000013	addi	x0,x0,0	  x0:0x00000000
       43445000	      4343	80003414	bd26f837	lui	x16,0xbd26f	 x16=0xbd26f000
       43455000	      4344	80003418	0133fe63	bgeu	x7,x19,80003434	  x7:0x77c6f2b4 x19:0x00000019
       43465000	      4345	00000000	00000013	addi	x0,x0,0	  x0:0x00000000
       43475000	      4346	80003430	00000013	addi	x0,x0,0	  x0:0x00000000
       43485000	      4347	80003434	1196ceb7	lui	x29,0x1196c	 x29=0x1196c000
       43495000	      4348	80003438	97729e37	lui	x28,0x97729	 x28=0x97729000
       43505000	      4349	8000343c	a82b3593	sltiu	x11,x22,-1406	 x22:0xc1a9a000 x11=0x00000001
       43515000	      4350	80003440	04d28663	beq	x5,x13,8000348c	  x5:0x00000001 x13:0xf1d79330
       43525000	      4351	80003444	4093df33	sra	x30,x7,x9	  x7:0x77c6f2b4  x9:0x2601d000 x30=0x77c6f2b4
       43535000	      4352	80003448	54a26513	ori	x10,x4,1354	  x4:0x00000001 x10=0x0000054b
       43545000	      4353	8000344c	02d95463	bge	x18,x13,80003474	 x18:0x00000000 x13:0xf1d79330
       43555000	      4354	00000000	00000013	addi	x0,x0,0	  x0:0x00000000
       43565000	      4355	80003470	00000013	addi	x0,x0,0	  x0:0x00000000
       43575000	      4356	80003474	04e84063	blt	x16,x14,800034b4	 x16:0xbd26f000 x14:0x00000004
       43585000	      4357	00000000	00000013	addi	x0,x0,0	  x0:0x00000000
       43595000	      4358	800034b0	00000013	addi	x0,x0,0	  x0:0x00000000
       43605000	      4359	800034b4	00e91793	slli	x15,x18,0xe	 x18:0x00000000 x15=0x00000000
       43615000	      4360	800034b8	0da30337	lui	x6,0xda30	  x6=0x0da30000
       43625000	      4361	800034bc	48573993	sltiu	x19,x14,1157	 x14:0x00000004 x19=0x00000001
       43635000	      4362	800034c0	0368c863	blt	x17,x22,800034f0	 x17:0x80009fc4 x22:0xc1a9a000
       43645000	      4363	00000000	00000013	addi	x0,x0,0	  x0:0x00000000
       43655000	      4364	800034ec	00000013	addi	x0,x0,0	  x0:0x00000000
       43665000	      4365	800034f0	010a99b3	sll	x19,x21,x16	 x21:0xffeffae5 x16:0xbd26f000 x19=0xffeffae5
       43675000	      4366	800034f4	1c0cad13	slti	x26,x25,448	 x25:0x00000080 x26=0x00000001
       43685000	      4367	800034f8	f9474593	xori	x11,x14,-108	 x14:0x00000004 x11=0xffffff90
       43695000	      4368	800034fc	01f6d093	srli	x1,x13,0x1f	 x13:0xf1d79330  x1=0x00000001
       43705000	      4369	80003500	f1248593	addi	x11,x9,-238	  x9:0x2601d000 x11=0x2601cf12
       43715000	      4370	80003504	f47e4f13	xori	x30,x28,-185	 x28:0x97729000 x30=0x688d6f47
       43725000	      4371	80003508	018f83b3	add	x7,x31,x24	 x31:0xeed07000 x24:0xfffffe75  x7=0xeed06e75
       43735000	      4372	8000350c	02c000ef	jal	x1,8000350c	  x1=0x8000350c
       43745000	      4373	00000000	00000013	addi	x0,x0,0	  x0:0x00000000
       43755000	      4374	80003534	00000013	addi	x0,x0,0	  x0:0x00000000
       43765000	      4375	80003538	01c0036f	jal	x6,80003538	  x6=0x80003538
       43775000	      4376	00000000	00000013	addi	x0,x0,0	  x0:0x00000000
       43785000	      4377	80003550	00000013	addi	x0,x0,0	  x0:0x00000000
       43795000	      4378	80003554	0040036f	jal	x6,80003554	  x6=0x80003554
       43805000	      4379	00000000	00000013	addi	x0,x0,0	  x0:0x00000000
       43815000	      4380	80003554	00000013	addi	x0,x0,0	  x0:0x00000000
       43825000	      4381	80003558	fddff0ef	jal	x1,80003558	  x1=0x80003558
       43835000	      4382	00000000	00000013	addi	x0,x0,0	  x0:0x00000000
       43845000	      4383	80003530	00000013	addi	x0,x0,0	  x0:0x00000000
       43855000	      4384	80003534	fddffcef	jal	x25,80003534	 x25=0x80003534
       43865000	      4385	00000000	00000013	addi	x0,x0,0	  x0:0x00000000
       43875000	      4386	8000350c	00000013	addi	x0,x0,0	  x0:0x00000000
       43885000	      4387	80003510	02000e6f	jal	x28,80003510	 x28=0x80003510
       43895000	      4388	00000000	00000013	addi	x0,x0,0	  x0:0x00000000
       43905000	      4389	8000352c	00000013	addi	x0,x0,0	  x0:0x00000000
       43915000	      4390	80003530	fe9ff1ef	jal	x3,80003530	  x3=0x80003530
       43925000	      4391	00000000	00000013	addi	x0,x0,0	  x0:0x00000000
       43935000	      4392	80003514	00000013	addi	x0,x0,0	  x0:0x00000000
       43945000	      4393	80003518	00400eef	jal	x29,80003518	 x29=0x80003518
       43955000	      4394	00000000	00000013	addi	x0,x0,0	  x0:0x00000000
       43965000	      4395	80003518	00000013	addi	x0,x0,0	  x0:0x00000000
       43975000	      4396	8000351c	0440036f	jal	x6,8000351c	  x6=0x8000351c
       43985000	      4397	00000000	00000013	addi	x0,x0,0	  x0:0x00000000
       43995000	      4398	8000355c	00000013	addi	x0,x0,0	  x0:0x00000000
       44005000	      4399	80003560	fe5ff26f	jal	x4,80003560	  x4=0x80003560
       44015000	      4400	00000000	00000013	addi	x0,x0,0	  x0:0x00000000
       44025000	      4401	80003540	00000013	addi	x0,x0,0	  x0:0x00000000
       44035000	      4402	80003544	ff9ff16f	jal	x2,80003544	  x2=0x80003544
       44045000	      4403	00000000	00000013	addi	x0,x0,0	  x0:0x00000000
       44055000	      4404	80003538	00000013	addi	x0,x0,0	  x0:0x00000000
       44065000	      4405	8000353c	fd9ff36f	jal	x6,8000353c	  x6=0x8000353c
       44075000	      4406	00000000	00000013	addi	x0,x0,0	  x0:0x00000000
       44085000	      4407	80003510	00000013	addi	x0,x0,0	  x0:0x00000000
       44095000	      4408	80003514	03c000ef	jal	x1,80003514	  x1=0x80003514
       44105000	      4409	00000000	00000013	addi	x0,x0,0	  x0:0x00000000
       44115000	      4410	8000354c	00000013	addi	x0,x0,0	  x0:0x00000000
       44125000	      4411	80003550	0140036f	jal	x6,80003550	  x6=0x80003550
       44135000	      4412	00000000	00000013	addi	x0,x0,0	  x0:0x00000000
       44145000	      4413	80003560	00000013	addi	x0,x0,0	  x0:0x00000000
       44155000	      4414	80003564	008000ef	jal	x1,80003564	  x1=0x80003564
       44165000	      4415	00000000	00000013	addi	x0,x0,0	  x0:0x00000000
       44175000	      4416	80003568	00000013	addi	x0,x0,0	  x0:0x00000000
       44185000	      4417	8000356c	ffdff2ef	jal	x5,8000356c	  x5=0x8000356c
       44195000	      4418	00000000	00000013	addi	x0,x0,0	  x0:0x00000000
       44205000	      4419	80003564	00000013	addi	x0,x0,0	  x0:0x00000000
       44215000	      4420	80003568	fc5ff0ef	jal	x1,80003568	  x1=0x80003568
       44225000	      4421	00000000	00000013	addi	x0,x0,0	  x0:0x00000000
       44235000	      4422	80003528	00000013	addi	x0,x0,0	  x0:0x00000000
       44245000	      4423	8000352c	020000ef	jal	x1,8000352c	  x1=0x8000352c
       44255000	      4424	00000000	00000013	addi	x0,x0,0	  x0:0x00000000
       44265000	      4425	80003548	00000013	addi	x0,x0,0	  x0:0x00000000
       44275000	      4426	8000354c	fd9ff0ef	jal	x1,8000354c	  x1=0x8000354c
       44285000	      4427	00000000	00000013	addi	x0,x0,0	  x0:0x00000000
       44295000	      4428	80003520	00000013	addi	x0,x0,0	  x0:0x00000000
       44305000	      4429	80003524	01c0036f	jal	x6,80003524	  x6=0x80003524
       44315000	      4430	00000000	00000013	addi	x0,x0,0	  x0:0x00000000
       44325000	      4431	8000353c	00000013	addi	x0,x0,0	  x0:0x00000000
       44335000	      4432	80003540	008000ef	jal	x1,80003540	  x1=0x80003540
       44345000	      4433	00000000	00000013	addi	x0,x0,0	  x0:0x00000000
       44355000	      4434	80003544	00000013	addi	x0,x0,0	  x0:0x00000000
       44365000	      4435	80003548	fe1ff0ef	jal	x1,80003548	  x1=0x80003548
       44375000	      4436	00000000	00000013	addi	x0,x0,0	  x0:0x00000000
       44385000	      4437	80003524	00000013	addi	x0,x0,0	  x0:0x00000000
       44395000	      4438	80003528	ff9ff0ef	jal	x1,80003528	  x1=0x80003528
       44405000	      4439	00000000	00000013	addi	x0,x0,0	  x0:0x00000000
       44415000	      4440	8000351c	00000013	addi	x0,x0,0	  x0:0x00000000
       44425000	      4441	80003520	03c0016f	jal	x2,80003520	  x2=0x80003520
       44435000	      4442	00000000	00000013	addi	x0,x0,0	  x0:0x00000000
       44445000	      4443	80003558	00000013	addi	x0,x0,0	  x0:0x00000000
       44455000	      4444	8000355c	01400b6f	jal	x22,8000355c	 x22=0x8000355c
       44465000	      4445	00000000	00000013	addi	x0,x0,0	  x0:0x00000000
       44475000	      4446	8000356c	00000013	addi	x0,x0,0	  x0:0x00000000
       44485000	      4447	80003570	00000013	addi	x0,x0,0	  x0:0x00000000
       44495000	      4448	80003574	78726913	ori	x18,x4,1927	  x4:0x80003560 x18=0x800037e7
       44505000	      4449	80003578	006d9c63	bne	x27,x6,80003590	 x27:0x1d37d000  x6:0x80003524
       44515000	      4450	00000000	00000013	addi	x0,x0,0	  x0:0x00000000
       44525000	      4451	8000358c	00000013	addi	x0,x0,0	  x0:0x00000000
       44535000	      4452	80003590	0125fd33	and	x26,x11,x18	 x11:0x2601cf12 x18:0x800037e7 x26=0x00000702
       44545000	      4453	80003594	07ba6113	ori	x2,x20,123	 x20:0x00000000  x2=0x0000007b
       44555000	      4454	80003598	00395693	srli	x13,x18,0x3	 x18:0x800037e7 x13=0x100006fc
       44565000	      4455	8000359c	e4104b13	xori	x22,x0,-447	  x0:0x00000000 x22=0xfffffe41
       44575000	      4456	800035a0	01544c63	blt	x8,x21,800035b8	  x8:0xfffffffc x21:0xffeffae5
       44585000	      4457	800035a4	626a0393	addi	x7,x20,1574	 x20:0x00000000  x7=0x00000626
       44595000	      4458	800035a8	0056b533	sltu	x10,x13,x5	 x13:0x100006fc  x5:0x8000356c x10=0x00000001
       44605000	      4459	800035ac	b0272d13	slti	x26,x14,-1278	 x14:0x00000004 x26=0x00000000
       44615000	      4460	800035b0	41955193	srai	x3,x10,0x19	 x10:0x00000001  x3=0x00000000
       44625000	      4461	800035b4	011c5db3	srl	x27,x24,x17	 x24:0xfffffe75 x17:0x80009fc4 x27=0x0fffffe7
       44635000	      4462	800035b8	020ef863	bgeu	x29,x0,800035e8	 x29:0x80003518  x0:0x00000000
       44645000	      4463	00000000	00000013	addi	x0,x0,0	  x0:0x00000000
       44655000	      4464	800035e4	00000013	addi	x0,x0,0	  x0:0x00000000
       44665000	      4465	800035e8	01dff5b3	and	x11,x31,x29	 x31:0xeed07000 x29:0x80003518 x11=0x80003000
       44675000	      4466	800035ec	00000013	addi	x0,x0,0	  x0:0x00000000
       44685000	      4467	800035f0	04ba0b13	addi	x22,x20,75	 x20:0x00000000 x22=0x0000004b
       44695000	      4468	800035f4	00f733b3	sltu	x7,x14,x15	 x14:0x00000004 x15:0x00000000  x7=0x00000000
       44705000	      4469	800035f8	c1ccc817	auipc	x16,0xc1ccc	 x16=0x41ccf5f4
       44715000	      4470	800035fc	000b3633	sltu	x12,x22,x0	 x22:0x0000004b  x0:0x00000000 x12=0x00000000
       44725000	      4471	80003600	5c937317	auipc	x6,0x5c937	  x6=0xdc93a5fc
       44735000	      4472	80003604	9d2d6d13	ori	x26,x26,-1582	 x26:0x00000000 x26=0xfffff9d2
       44745000	      4473	80003608	00396fb3	or	x31,x18,x3	 x18:0x800037e7  x3:0x00000000 x31=0x800037e7
       44755000	      4474	8000360c	403addb3	sra	x27,x21,x3	 x21:0xffeffae5  x3:0x00000000 x27=0xffeffae5
       44765000	      4475	80003610	dfeabf13	sltiu	x30,x21,-514	 x21:0xffeffae5 x30=0x00000001
       44775000	      4476	80003614	00430633	add	x12,x6,x4	  x6:0xdc93a5fc  x4:0x80003560 x12=0x5c93db5c
       44785000	      4477	80003618	00000013	addi	x0,x0,0	  x0:0x00000000
       44795000	      4478	8000361c	00aa5e33	srl	x28,x20,x10	 x20:0x00000000 x10:0x00000001 x28=0x00000000
       44805000	      4479	80003620	4077d993	srai	x19,x15,0x7	 x15:0x00000000 x19=0x00000000
       44815000	      4480	80003624	409d89b3	sub	x19,x27,x9	 x27:0xffeffae5  x9:0x2601d000 x19=0xd9ee2ae5
       44825000	      4481	80003628	00559613	slli	x12,x11,0x5	 x11:0x80003000 x12=0x00060000
       44835000	      4482	8000362c	00000013	addi	x0,x0,0	  x0:0x00000000
       44845000	      4483	80003630	013af2b3	and	x5,x21,x19	 x21:0xffeffae5 x19:0xd9ee2ae5  x5=0xd9ee2ae5
       44855000	      4484	80003634	01166fb3	or	x31,x12,x17	 x12:0x00060000 x17:0x80009fc4 x31=0x80069fc4
       44865000	      4485	80003638	008da7b3	slt	x15,x27,x8	 x27:0xffeffae5  x8:0xfffffffc x15=0x00000001
       44875000	      4486	8000363c	010a5233	srl	x4,x20,x16	 x20:0x00000000 x16:0x41ccf5f4  x4=0x00000000
       44885000	      4487	80003640	40dfdd93	srai	x27,x31,0xd	 x31:0x80069fc4 x27=0xfffc0034
       44895000	      4488	80003644	4079d993	srai	x19,x19,0x7	 x19:0xd9ee2ae5 x19=0xffb3dc55
       44905000	      4489	80003648	01195eb3	srl	x29,x18,x17	 x18:0x800037e7 x17:0x80009fc4 x29=0x0800037e
       44915000	      4490	8000364c	014c7ab3	and	x21,x24,x20	 x24:0xfffffe75 x20:0x00000000 x21=0x00000000
       44925000	      4491	80003650	05034213	xori	x4,x6,80	  x6:0xdc93a5fc  x4=0xdc93a5ac
       44935000	      4492	80003654	00171633	sll	x12,x14,x1	 x14:0x00000004  x1:0x80003528 x12=0x00000400
       44945000	      4493	80003658	01744ab3	xor	x21,x8,x23	  x8:0xfffffffc x23:0x80009f1c x21=0x7fff60e0
       44955000	      4494	8000365c	40590433	sub	x8,x18,x5	 x18:0x800037e7  x5:0xd9ee2ae5  x8=0xa6120d02
       44965000	      4495	80003660	019bfe63	bgeu	x23,x25,8000367c	 x23:0x80009f1c x25:0x80003534
       44975000	      4496	00000000	00000013	addi	x0,x0,0	  x0:0x00000000
       44985000	      4497	80003678	00000013	addi	x0,x0,0	  x0:0x00000000
       44995000	      4498	8000367c	bafb6413	ori	x8,x22,-1105	 x22:0x0000004b  x8=0xfffffbef
       45005000	      4499	80003680	01237c63	bgeu	x6,x18,80003698	  x6:0xdc93a5fc x18:0x800037e7
       45015000	      4500	00000000	00000013	addi	x0,x0,0	  x0:0x00000000
       45025000	      4501	80003694	00000013	addi	x0,x0,0	  x0:0x00000000
       45035000	      4502	80003698	018d6333	or	x6,x26,x24	 x26:0xfffff9d2 x24:0xfffffe75  x6=0xfffffff7
       45045000	      4503	8000369c	00ec1493	slli	x9,x24,0xe	 x24:0xfffffe75  x9=0xff9d4000
       45055000	      4504	800036a0	01330463	beq	x6,x19,800036a8	  x6:0xfffffff7 x19:0xffb3dc55
       45065000	      4505	800036a4	00f81793	slli	x15,x16,0xf	 x16:0x41ccf5f4 x15=0x7afa0000
       45075000	      4506	800036a8	f5a1ac13	slti	x24,x3,-166	  x3:0x00000000 x24=0x00000000
       45085000	      4507	800036ac	05776263	bltu	x14,x23,800036f0	 x14:0x00000004 x23:0x80009f1c
       45095000	      4508	00000000	00000013	addi	x0,x0,0	  x0:0x00000000
       45105000	      4509	800036ec	00000013	addi	x0,x0,0	  x0:0x00000000
       45115000	      4510	800036f0	137f2993	slti	x19,x30,311	 x30:0x00000001 x19=0x00000001
       45125000	      4511	800036f4	01b5f863	bgeu	x11,x27,80003704	 x11:0x80003000 x27:0xfffc0034
       45135000	      4512	800036f8	e8cbbc93	sltiu	x25,x23,-372	 x23:0x80009f1c x25=0x00000001
       45145000	      4513	800036fc	405784b3	sub	x9,x15,x5	 x15:0x7afa0000  x5:0xd9ee2ae5  x9=0xa10bd51b
       45155000	      4514	80003700	000dc463	blt	x27,x0,80003708	 x27:0xfffc0034  x0:0x00000000
       45165000	      4515	00000000	00000013	addi	x0,x0,0	  x0:0x00000000
       45175000	      4516	80003704	00000013	addi	x0,x0,0	  x0:0x00000000
       45185000	      4517	80003708	00000013	addi	x0,x0,0	  x0:0x00000000
       45195000	      4518	8000370c	9084ef17	auipc	x30,0x9084e	 x30=0x10851708
       45205000	      4519	80003710	de06f237	lui	x4,0xde06f	  x4=0xde06f000
       45215000	      4520	80003714	00621eb3	sll	x29,x4,x6	  x4:0xde06f000  x6:0xfffffff7 x29=0x00000000
       45225000	      4521	80003718	03044863	blt	x8,x16,80003748	  x8:0xfffffbef x16:0x41ccf5f4
       45235000	      4522	00000000	00000013	addi	x0,x0,0	  x0:0x00000000
       45245000	      4523	80003744	00000013	addi	x0,x0,0	  x0:0x00000000
       45255000	      4524	80003748	015b85b3	add	x11,x23,x21	 x23:0x80009f1c x21:0x7fff60e0 x11=0xfffffffc
       45265000	      4525	8000374c	02d90863	beq	x18,x13,8000377c	 x18:0x800037e7 x13:0x100006fc
       45275000	      4526	80003750	f5611a37	lui	x20,0xf5611	 x20=0xf5611000
       45285000	      4527	80003754	686a6f13	ori	x30,x20,1670	 x20:0xf5611000 x30=0xf5611686
       45295000	      4528	80003758	01365b13	srli	x22,x12,0x13	 x12:0x00000400 x22=0x00000000
       45305000	      4529	8000375c	36156c93	ori	x25,x10,865	 x10:0x00000001 x25=0x00000361
       45315000	      4530	80003760	017932b3	sltu	x5,x18,x23	 x18:0x800037e7 x23:0x80009f1c  x5=0x00000001
       45325000	      4531	80003764	205823b7	lui	x7,0x20582	  x7=0x20582000
       45335000	      4532	80003768	0161a7b3	slt	x15,x3,x22	  x3:0x00000000 x22:0x00000000 x15=0x00000000
       45345000	      4533	8000376c	b68a6913	ori	x18,x20,-1176	 x20:0xf5611000 x18=0xfffffb68
       45355000	      4534	80003770	01fd1cb3	sll	x25,x26,x31	 x26:0xfffff9d2 x31:0x80069fc4 x25=0xffff9d20
       45365000	      4535	80003774	01d9c263	blt	x19,x29,80003778	 x19:0x00000001 x29:0x00000000
       45375000	      4536	80003778	0506d663	bge	x13,x16,800037c4	 x13:0x100006fc x16:0x41ccf5f4
       45385000	      4537	8000377c	405bdf13	srai	x30,x23,0x5	 x23:0x80009f1c x30=0xfc0004f8
       45395000	      4538	80003780	01cbd493	srli	x9,x23,0x1c	 x23:0x80009f1c  x9=0x00000008
       45405000	      4539	80003784	0546c663	blt	x13,x20,800037d0	 x13:0x100006fc x20:0xf5611000
       45415000	      4540	80003788	3e5cb793	sltiu	x15,x25,997	 x25:0xffff9d20 x15=0x00000000
       45425000	      4541	8000378c	0009c1b3	xor	x3,x19,x0	 x19:0x00000001  x0:0x00000000  x3=0x00000001
       45435000	      4542	80003790	cf952f93	slti	x31,x10,-775	 x10:0x00000001 x31=0x00000000
       45445000	      4543	80003794	01e1f533	and	x10,x3,x30	  x3:0x00000001 x30:0xfc0004f8 x10=0x00000000
       45455000	      4544	80003798	013436b3	sltu	x13,x8,x19	  x8:0xfffffbef x19:0x00000001 x13=0x00000000
       45465000	      4545	8000379c	41745493	srai	x9,x8,0x17	  x8:0xfffffbef  x9=0xffffffff
       45475000	      4546	800037a0	40e600b3	sub	x1,x12,x14	 x12:0x00000400 x14:0x00000004  x1=0x000003fc
       45485000	      4547	800037a4	003a2133	slt	x2,x20,x3	 x20:0xf5611000  x3:0x00000001  x2=0x00000001
       45495000	      4548	800037a8	008a8133	add	x2,x21,x8	 x21:0x7fff60e0  x8:0xfffffbef  x2=0x7fff5ccf
       45505000	      4549	800037ac	0edae813	ori	x16,x21,237	 x21:0x7fff60e0 x16=0x7fff60ed
       45515000	      4550	800037b0	01e90663	beq	x18,x30,800037bc	 x18:0xfffffb68 x30:0xfc0004f8
       45525000	      4551	800037b4	815c4593	xori	x11,x24,-2027	 x24:0x00000000 x11=0xfffff815
       45535000	      4552	800037b8	dfa06e93	ori	x29,x0,-518	  x0:0x00000000 x29=0xfffffdfa
       45545000	      4553	800037bc	416b52b3	sra	x5,x22,x22	 x22:0x00000000 x22:0x00000000  x5=0x00000000
       45555000	      4554	800037c0	00ab7433	and	x8,x22,x10	 x22:0x00000000 x10:0x00000000  x8=0x00000000
       45565000	      4555	800037c4	01b89e63	bne	x17,x27,800037e0	 x17:0x80009fc4 x27:0xfffc0034
       45575000	      4556	00000000	00000013	addi	x0,x0,0	  x0:0x00000000
       45585000	      4557	800037dc	00000013	addi	x0,x0,0	  x0:0x00000000
       45595000	      4558	800037e0	415c8f33	sub	x30,x25,x21	 x25:0xffff9d20 x21:0x7fff60e0 x30=0x80003c40
       45605000	      4559	800037e4	003a7c33	and	x24,x20,x3	 x20:0xf5611000  x3:0x00000001 x24=0x00000000
       45615000	      4560	800037e8	407b56b3	sra	x13,x22,x7	 x22:0x00000000  x7:0x20582000 x13=0x00000000
       45625000	      4561	800037ec	00588663	beq	x17,x5,800037f8	 x17:0x80009fc4  x5:0x00000000
       45635000	      4562	800037f0	40605313	srai	x6,x0,0x6	  x0:0x00000000  x6=0x00000000
       45645000	      4563	800037f4	41f002b3	sub	x5,x0,x31	  x0:0x00000000 x31:0x00000000  x5=0x00000000
       45655000	      4564	800037f8	0f4def13	ori	x30,x27,244	 x27:0xfffc0034 x30=0xfffc00f4
       45665000	      4565	800037fc	03a7c863	blt	x15,x26,8000382c	 x15:0x00000000 x26:0xfffff9d2
       45675000	      4566	80003800	011c1933	sll	x18,x24,x17	 x24:0x00000000 x17:0x80009fc4 x18=0x00000000
       45685000	      4567	80003804	80fe6793	ori	x15,x28,-2033	 x28:0x00000000 x15=0xfffff80f
       45695000	      4568	80003808	00ec9e33	sll	x28,x25,x14	 x25:0xffff9d20 x14:0x00000004 x28=0xfff9d200
       45705000	      4569	8000380c	0031ea33	or	x20,x3,x3	  x3:0x00000001  x3:0x00000001 x20=0x00000001
       45715000	      4570	80003810	c79ec537	lui	x10,0xc79ec	 x10=0xc79ec000
       45725000	      4571	80003814	009c17b3	sll	x15,x24,x9	 x24:0x00000000  x9:0xffffffff x15=0x00000000
       45735000	      4572	80003818	40288933	sub	x18,x17,x2	 x17:0x80009fc4  x2:0x7fff5ccf x18=0x000142f5
       45745000	      4573	8000381c	006cd193	srli	x3,x25,0x6	 x25:0xffff9d20  x3=0x03fffe74
       45755000	      4574	80003820	0a980293	addi	x5,x16,169	 x16:0x7fff60ed  x5=0x7fff6196
       45765000	      4575	80003824	8adca913	slti	x18,x25,-1875	 x25:0xffff9d20 x18=0x00000001
       45775000	      4576	80003828	008b7933	and	x18,x22,x8	 x22:0x00000000  x8:0x00000000 x18=0x00000000
       45785000	      4577	8000382c	3f49f093	andi	x1,x19,1012	 x19:0x00000001  x1=0x00000000
       45795000	      4578	80003830	4c6c65b7	lui	x11,0x4c6c6	 x11=0x4c6c6000
       45805000	      4579	80003834	01dcca33	xor	x20,x25,x29	 x25:0xffff9d20 x29:0xfffffdfa x20=0x000060da
       45815000	      4580	80003838	05b5d063	bge	x11,x27,80003878	 x11:0x4c6c6000 x27:0xfffc0034
       45825000	      4581	00000000	00000013	addi	x0,x0,0	  x0:0x00000000
       45835000	      4582	80003874	00000013	addi	x0,x0,0	  x0:0x00000000
       45845000	      4583	80003878	01411133	sll	x2,x2,x20	  x2:0x7fff5ccf x20:0x000060da  x2=0x3c000000
       45855000	      4584	8000387c	51726e93	ori	x29,x4,1303	  x4:0xde06f000 x29=0xde06f517
       45865000	      4585	80003880	40ed0ab3	sub	x21,x26,x14	 x26:0xfffff9d2 x14:0x00000004 x21=0xfffff9ce
       45875000	      4586	80003884	00c84e33	xor	x28,x16,x12	 x16:0x7fff60ed x12:0x00000400 x28=0x7fff64ed
       45885000	      4587	80003888	86ccbc93	sltiu	x25,x25,-1940	 x25:0xffff9d20 x25=0x00000001
       45895000	      4588	8000388c	0013d413	srli	x8,x7,0x1	  x7:0x20582000  x8=0x102c1000
       45905000	      4589	80003890	019ded33	or	x26,x27,x25	 x27:0xfffc0034 x25:0x00000001 x26=0xfffc0035
       45915000	      4590	80003894	7794ff13	andi	x30,x9,1913	  x9:0xffffffff x30=0x00000779
       45925000	      4591	80003898	0056d5b3	srl	x11,x13,x5	 x13:0x00000000  x5:0x7fff6196 x11=0x00000000
       45935000	      4592	8000389c	64486793	ori	x15,x16,1604	 x16:0x7fff60ed x15=0x7fff66ed
       45945000	      4593	800038a0	004df233	and	x4,x27,x4	 x27:0xfffc0034  x4:0xde06f000  x4=0xde040000
       45955000	      4594	800038a4	00a20263	beq	x4,x10,800038a8	  x4:0xde040000 x10:0xc79ec000
       45965000	      4595	800038a8	b1d14493	xori	x9,x2,-1251	  x2:0x3c000000  x9=0xc3fffb1d
       45975000	      4596	800038ac	01d55eb3	srl	x29,x10,x29	 x10:0xc79ec000 x29:0xde06f517 x29=0x0000018f
       45985000	      4597	800038b0	00706533	or	x10,x0,x7	  x0:0x00000000  x7:0x20582000 x10=0x20582000
       45995000	      4598	800038b4	40a30a33	sub	x20,x6,x10	  x6:0x00000000 x10:0x20582000 x20=0xdfa7e000
       46005000	      4599	800038b8	003f6533	or	x10,x30,x3	 x30:0x00000779  x3:0x03fffe74 x10=0x03ffff7d
       46015000	      4600	800038bc	bbd552b7	lui	x5,0xbbd55	  x5=0xbbd55000
       46025000	      4601	800038c0	e3804213	xori	x4,x0,-456	  x0:0x00000000  x4=0xfffffe38
       46035000	      4602	800038c4	01018863	beq	x3,x16,800038d4	  x3:0x03fffe74 x16:0x7fff60ed
       46045000	      4603	800038c8	0149fc63	bgeu	x19,x20,800038e0	 x19:0x00000001 x20:0xdfa7e000
       46055000	      4604	800038cc	02adc013	xori	x0,x27,42	 x27:0xfffc0034
       46065000	      4605	800038d0	00f0ae33	slt	x28,x1,x15	  x1:0x00000000 x15:0x7fff66ed x28=0x00000001
       46075000	      4606	800038d4	41368b33	sub	x22,x13,x19	 x13:0x00000000 x19:0x00000001 x22=0xffffffff
       46085000	      4607	800038d8	70192c93	slti	x25,x18,1793	 x18:0x00000000 x25=0x00000001
       46095000	      4608	800038dc	00e9dc63	bge	x19,x14,800038f4	 x19:0x00000001 x14:0x00000004
       46105000	      4609	800038e0	049ff263	bgeu	x31,x9,80003924	 x31:0x00000000  x9:0xc3fffb1d
       46115000	      4610	800038e4	02775863	bge	x14,x7,80003914	 x14:0x00000004  x7:0x20582000
       46125000	      4611	800038e8	202c7613	andi	x12,x24,514	 x24:0x00000000 x12=0x00000000
       46135000	      4612	800038ec	00a95e63	bge	x18,x10,80003908	 x18:0x00000000 x10:0x03ffff7d
       46145000	      4613	800038f0	0084d913	srli	x18,x9,0x8	  x9:0xc3fffb1d x18=0x00c3fffb
       46155000	      4614	800038f4	00ab1017	auipc	x0,0xab1	
       46165000	      4615	800038f8	95397513	andi	x10,x18,-1709	 x18:0x00c3fffb x10=0x00c3f953
       46175000	      4616	800038fc	00e70eb3	add	x29,x14,x14	 x14:0x00000004 x14:0x00000004 x29=0x00000008
       46185000	      4617	80003900	40e750b3	sra	x1,x14,x14	 x14:0x00000004 x14:0x00000004  x1=0x00000000
       46195000	      4618	80003904	002ce2b3	or	x5,x25,x2	 x25:0x00000001  x2:0x3c000000  x5=0x3c000001
       46205000	      4619	80003908	0112d6b3	srl	x13,x5,x17	  x5:0x3c000001 x17:0x80009fc4 x13=0x03c00000
       46215000	      4620	8000390c	4153af93	slti	x31,x7,1045	  x7:0x20582000 x31=0x00000000
       46225000	      4621	80003910	6ade7093	andi	x1,x28,1709	 x28:0x00000001  x1=0x00000001
       46235000	      4622	80003914	8c884f93	xori	x31,x16,-1848	 x16:0x7fff60ed x31=0x80009825
       46245000	      4623	80003918	01849913	slli	x18,x9,0x18	  x9:0xc3fffb1d x18=0x1d000000
       46255000	      4624	8000391c	01aa7c63	bgeu	x20,x26,80003934	 x20:0xdfa7e000 x26:0xfffc0035
       46265000	      4625	80003920	00000013	addi	x0,x0,0	  x0:0x00000000
       46275000	      4626	80003924	07c38f13	addi	x30,x7,124	  x7:0x20582000 x30=0x2058207c
       46285000	      4627	80003928	03be1863	bne	x28,x27,80003958	 x28:0x00000001 x27:0xfffc0034
       46295000	      4628	00000000	00000013	addi	x0,x0,0	  x0:0x00000000
       46305000	      4629	80003954	00000013	addi	x0,x0,0	  x0:0x00000000
       46315000	      4630	80003958	02654813	xori	x16,x10,38	 x10:0x00c3f953 x16=0x00c3f975
       46325000	      4631	8000395c	008b7133	and	x2,x22,x8	 x22:0xffffffff  x8:0x102c1000  x2=0x102c1000
       46335000	      4632	80003960	013372b3	and	x5,x6,x19	  x6:0x00000000 x19:0x00000001  x5=0x00000000
       46345000	      4633	80003964	b3feae13	slti	x28,x29,-1217	 x29:0x00000008 x28=0x00000000
       46355000	      4634	80003968	003aee63	bltu	x21,x3,80003984	 x21:0xfffff9ce  x3:0x03fffe74
       46365000	      4635	8000396c	02c69863	bne	x13,x12,8000399c	 x13:0x03c00000 x12:0x00000000
       46375000	      4636	00000000	00000013	addi	x0,x0,0	  x0:0x00000000
       46385000	      4637	80003998	00000013	addi	x0,x0,0	  x0:0x00000000
       46395000	      4638	8000399c	4b77fa37	lui	x20,0x4b77f	 x20=0x4b77f000
       46405000	      4639	800039a0	627e4f37	lui	x30,0x627e4	 x30=0x627e4000
       46415000	      4640	800039a4	0121dc63	bge	x3,x18,800039bc	  x3:0x03fffe74 x18:0x1d000000
       46425000	      4641	800039a8	009c7fb3	and	x31,x24,x9	 x24:0x00000000  x9:0xc3fffb1d x31=0x00000000
       46435000	      4642	800039ac	f5d7cd97	auipc	x27,0xf5d7c	 x27=0x75d7f9a8
       46445000	      4643	800039b0	44a0e413	ori	x8,x1,1098	  x1:0x00000001  x8=0x0000044b
       46455000	      4644	800039b4	0153b5b3	sltu	x11,x7,x21	  x7:0x20582000 x21:0xfffff9ce x11=0x00000001
       46465000	      4645	800039b8	cfb6e693	ori	x13,x13,-773	 x13:0x03c00000 x13=0xfffffcfb
       46475000	      4646	800039bc	008ec263	blt	x29,x8,800039c0	 x29:0x00000008  x8:0x0000044b
       46485000	      4647	00000000	00000013	addi	x0,x0,0	  x0:0x00000000
       46495000	      4648	800039bc	00000013	addi	x0,x0,0	  x0:0x00000000
       46505000	      4649	800039c0	414a5033	sra	x0,x20,x20	 x20:0x4b77f000 x20:0x4b77f000
       46515000	      4650	800039c4	0a23ec63	bltu	x7,x2,80003a7c	  x7:0x20582000  x2:0x102c1000
       46525000	      4651	800039c8	cf63cf93	xori	x31,x7,-778	  x7:0x20582000 x31=0xdfa7dcf6
       46535000	      4652	800039cc	0a8ed463	bge	x29,x8,80003a74	 x29:0x00000008  x8:0x0000044b
       46545000	      4653	800039d0	0aeb9463	bne	x23,x14,80003a78	 x23:0x80009f1c x14:0x00000004
       46555000	      4654	00000000	00000013	addi	x0,x0,0	  x0:0x00000000
       46565000	      4655	80003a74	00000013	addi	x0,x0,0	  x0:0x00000000
       46575000	      4656	80003a78	00526863	bltu	x4,x5,80003a88	  x4:0xfffffe38  x5:0x00000000
       46585000	      4657	80003a7c	0017b333	sltu	x6,x15,x1	 x15:0x7fff66ed  x1:0x00000001  x6=0x00000000
       46595000	      4658	80003a80	01355233	srl	x4,x10,x19	 x10:0x00c3f953 x19:0x00000001  x4=0x0061fca9
       46605000	      4659	80003a84	01dff463	bgeu	x31,x29,80003a8c	 x31:0xdfa7dcf6 x29:0x00000008
       46615000	      4660	00000000	00000013	addi	x0,x0,0	  x0:0x00000000
       46625000	      4661	80003a88	00000013	addi	x0,x0,0	  x0:0x00000000
       46635000	      4662	80003a8c	40f25033	sra	x0,x4,x15	  x4:0x0061fca9 x15:0x7fff66ed
       46645000	      4663	80003a90	00014c63	blt	x2,x0,80003aa8	  x2:0x102c1000  x0:0x00000000
       46655000	      4664	80003a94	41db5313	srai	x6,x22,0x1d	 x22:0xffffffff  x6=0xffffffff
       46665000	      4665	80003a98	2aadce93	xori	x29,x27,682	 x27:0x75d7f9a8 x29=0x75d7fb02
       46675000	      4666	80003a9c	a5e53b13	sltiu	x22,x10,-1442	 x10:0x00c3f953 x22=0x00000001
       46685000	      4667	80003aa0	0083e863	bltu	x7,x8,80003ab0	  x7:0x20582000  x8:0x0000044b
       46695000	      4668	80003aa4	010bf263	bgeu	x23,x16,80003aa8	 x23:0x80009f1c x16:0x00c3f975
       46705000	      4669	00000000	00000013	addi	x0,x0,0	  x0:0x00000000
       46715000	      4670	80003aa4	00000013	addi	x0,x0,0	  x0:0x00000000
       46725000	      4671	80003aa8	414b5233	sra	x4,x22,x20	 x22:0x00000001 x20:0x4b77f000  x4=0x00000001
       46735000	      4672	80003aac	1c6f2b13	slti	x22,x30,454	 x30:0x627e4000 x22=0x00000000
       46745000	      4673	80003ab0	00000013	addi	x0,x0,0	  x0:0x00000000
       46755000	      4674	80003ab4	01b0b6b3	sltu	x13,x1,x27	  x1:0x00000001 x27:0x75d7f9a8 x13=0x00000001
       46765000	      4675	80003ab8	00a8e1b3	or	x3,x17,x10	 x17:0x80009fc4 x10:0x00c3f953  x3=0x80c3ffd7
       46775000	      4676	80003abc	03224863	blt	x4,x18,80003aec	  x4:0x00000001 x18:0x1d000000
       46785000	      4677	00000000	00000013	addi	x0,x0,0	  x0:0x00000000
       46795000	      4678	80003ae8	00000013	addi	x0,x0,0	  x0:0x00000000
       46805000	      4679	80003aec	be1fa917	auipc	x18,0xbe1fa	 x18=0x3e1fdae8
       46815000	      4680	80003af0	05b51663	bne	x10,x27,80003b3c	 x10:0x00c3f953 x27:0x75d7f9a8
       46825000	      4681	00000000	00000013	addi	x0,x0,0	  x0:0x00000000
       46835000	      4682	80003b38	00000013	addi	x0,x0,0	  x0:0x00000000
       46845000	      4683	80003b3c	00976e63	bltu	x14,x9,80003b58	 x14:0x00000004  x9:0xc3fffb1d
       46855000	      4684	00000000	00000013	addi	x0,x0,0	  x0:0x00000000
       46865000	      4685	80003b54	00000013	addi	x0,x0,0	  x0:0x00000000
       46875000	      4686	80003b58	01db9633	sll	x12,x23,x29	 x23:0x80009f1c x29:0x75d7fb02 x12=0x00027c70
       46885000	      4687	80003b5c	01291633	sll	x12,x18,x18	 x18:0x3e1fdae8 x18:0x3e1fdae8 x12=0x1fdae800
       46895000	      4688	80003b60	02ee0863	beq	x28,x14,80003b90	 x28:0x00000000 x14:0x00000004
       46905000	      4689	80003b64	011035b3	sltu	x11,x0,x17	  x0:0x00000000 x17:0x80009fc4 x11=0x00000001
       46915000	      4690	80003b68	007112b3	sll	x5,x2,x7	  x2:0x102c1000  x7:0x20582000  x5=0x102c1000
       46925000	      4691	80003b6c	e6126693	ori	x13,x4,-415	  x4:0x00000001 x13=0xfffffe61
       46935000	      4692	80003b70	019840b3	xor	x1,x16,x25	 x16:0x00c3f975 x25:0x00000001  x1=0x00c3f974
       46945000	      4693	80003b74	dc57b293	sltiu	x5,x15,-571	 x15:0x7fff66ed  x5=0x00000001
       46955000	      4694	80003b78	01855263	bge	x10,x24,80003b7c	 x10:0x00c3f953 x24:0x00000000
       46965000	      4695	00000000	00000013	addi	x0,x0,0	  x0:0x00000000
       46975000	      4696	80003b78	00000013	addi	x0,x0,0	  x0:0x00000000
       46985000	      4697	80003b7c	bb92ed13	ori	x26,x5,-1095	  x5:0x00000001 x26=0xfffffbb9
       46995000	      4698	80003b80	01a02d33	slt	x26,x0,x26	  x0:0x00000000 x26:0xfffffbb9 x26=0x00000000
       47005000	      4699	80003b84	a1a23093	sltiu	x1,x4,-1510	  x4:0x00000001  x1=0x00000001
       47015000	      4700	80003b88	01d09a13	slli	x20,x1,0x1d	  x1:0x00000001 x20=0x20000000
       47025000	      4701	80003b8c	3855c293	xori	x5,x11,901	 x11:0x00000001  x5=0x00000384
       47035000	      4702	80003b90	01069663	bne	x13,x16,80003b9c	 x13:0xfffffe61 x16:0x00c3f975
       47045000	      4703	00000000	00000013	addi	x0,x0,0	  x0:0x00000000
       47055000	      4704	80003b98	00000013	addi	x0,x0,0	  x0:0x00000000
       47065000	      4705	80003b9c	00000013	addi	x0,x0,0	  x0:0x00000000
       47075000	      4706	80003ba0	01f839b3	sltu	x19,x16,x31	 x16:0x00c3f975 x31:0xdfa7dcf6 x19=0x00000001
       47085000	      4707	80003ba4	05e20063	beq	x4,x30,80003be4	  x4:0x00000001 x30:0x627e4000
       47095000	      4708	80003ba8	004bc533	xor	x10,x23,x4	 x23:0x80009f1c  x4:0x00000001 x10=0x80009f1d
       47105000	      4709	80003bac	0ad32813	slti	x16,x6,173	  x6:0xffffffff x16=0x00000001
       47115000	      4710	80003bb0	037de263	bltu	x27,x23,80003bd4	 x27:0x75d7f9a8 x23:0x80009f1c
       47125000	      4711	00000000	00000013	addi	x0,x0,0	  x0:0x00000000
       47135000	      4712	80003bd0	00000013	addi	x0,x0,0	  x0:0x00000000
       47145000	      4713	80003bd4	01619933	sll	x18,x3,x22	  x3:0x80c3ffd7 x22:0x00000000 x18=0x80c3ffd7
       47155000	      4714	80003bd8	00c39663	bne	x7,x12,80003be4	  x7:0x20582000 x12:0x1fdae800
       47165000	      4715	00000000	00000013	addi	x0,x0,0	  x0:0x00000000
       47175000	      4716	80003be0	00000013	addi	x0,x0,0	  x0:0x00000000
       47185000	      4717	80003be4	05b64663	blt	x12,x27,80003c30	 x12:0x1fdae800 x27:0x75d7f9a8
       47195000	      4718	00000000	00000013	addi	x0,x0,0	  x0:0x00000000
       47205000	      4719	80003c2c	00000013	addi	x0,x0,0	  x0:0x00000000
       47215000	      4720	80003c30	00000013	addi	x0,x0,0	  x0:0x00000000
       47225000	      4721	80003c34	02621b37	lui	x22,0x2621	 x22=0x02621000
       47235000	      4722	80003c38	53fc0f13	addi	x30,x24,1343	 x24:0x00000000 x30=0x0000053f
       47245000	      4723	80003c3c	00d69093	slli	x1,x13,0xd	 x13:0xfffffe61  x1=0xffcc2000
       47255000	      4724	80003c40	402bd533	sra	x10,x23,x2	 x23:0x80009f1c  x2:0x102c1000 x10=0x80009f1c
       47265000	      4725	80003c44	059cc863	blt	x25,x25,80003c94	 x25:0x00000001 x25:0x00000001
       47275000	      4726	80003c48	41f2dc33	sra	x24,x5,x31	  x5:0x00000384 x31:0xdfa7dcf6 x24=0x00000000
       47285000	      4727	80003c4c	65693813	sltiu	x16,x18,1622	 x18:0x80c3ffd7 x16=0x00000000
       47295000	      4728	80003c50	e5220437	lui	x8,0xe5220	  x8=0xe5220000
       47305000	      4729	80003c54	63402393	slti	x7,x0,1588	  x0:0x00000000  x7=0x00000001
       47315000	      4730	80003c58	00000013	addi	x0,x0,0	  x0:0x00000000
       47325000	      4731	80003c5c	00bacfb3	xor	x31,x21,x11	 x21:0xfffff9ce x11:0x00000001 x31=0xfffff9cf
       47335000	      4732	80003c60	01a36133	or	x2,x6,x26	  x6:0xffffffff x26:0x00000000  x2=0xffffffff
       47345000	      4733	80003c64	ec8e4c13	xori	x24,x28,-312	 x28:0x00000000 x24=0xfffffec8
       47355000	      4734	80003c68	014d5c63	bge	x26,x20,80003c80	 x26:0x00000000 x20:0x20000000
       47365000	      4735	80003c6c	41385b13	srai	x22,x16,0x13	 x16:0x00000000 x22=0x00000000
       47375000	      4736	80003c70	02c60463	beq	x12,x12,80003c98	 x12:0x1fdae800 x12:0x1fdae800
       47385000	      4737	00000000	00000013	addi	x0,x0,0	  x0:0x00000000
       47395000	      4738	80003c94	00000013	addi	x0,x0,0	  x0:0x00000000
       47405000	      4739	80003c98	01fb5c33	srl	x24,x22,x31	 x22:0x00000000 x31:0xfffff9cf x24=0x00000000
       47415000	      4740	80003c9c	01c71213	slli	x4,x14,0x1c	 x14:0x00000004  x4=0x40000000
       47425000	      4741	80003ca0	0033fe63	bgeu	x7,x3,80003cbc	  x7:0x00000001  x3:0x80c3ffd7
       47435000	      4742	80003ca4	01b399b3	sll	x19,x7,x27	  x7:0x00000001 x27:0x75d7f9a8 x19=0x00000100
       47445000	      4743	80003ca8	01a0f233	and	x4,x1,x26	  x1:0xffcc2000 x26:0x00000000  x4=0x00000000
       47455000	      4744	80003cac	01644263	blt	x8,x22,80003cb0	  x8:0xe5220000 x22:0x00000000
       47465000	      4745	00000000	00000013	addi	x0,x0,0	  x0:0x00000000
       47475000	      4746	80003cac	00000013	addi	x0,x0,0	  x0:0x00000000
       47485000	      4747	80003cb0	00a61313	slli	x6,x12,0xa	 x12:0x1fdae800  x6=0x6ba00000
       47495000	      4748	80003cb4	d31c0613	addi	x12,x24,-719	 x24:0x00000000 x12=0xfffffd31
       47505000	      4749	80003cb8	0097e463	bltu	x15,x9,80003cc0	 x15:0x7fff66ed  x9:0xc3fffb1d
       47515000	      4750	00000000	00000013	addi	x0,x0,0	  x0:0x00000000
       47525000	      4751	80003cbc	00000013	addi	x0,x0,0	  x0:0x00000000
       47535000	      4752	80003cc0	00061193	slli	x3,x12,0x0	 x12:0xfffffd31  x3=0xfffffd31
       47545000	      4753	80003cc4	406986b3	sub	x13,x19,x6	 x19:0x00000100  x6:0x6ba00000 x13=0x94600100
       47555000	      4754	80003cc8	00f3f633	and	x12,x7,x15	  x7:0x00000001 x15:0x7fff66ed x12=0x00000001
       47565000	      4755	80003ccc	84f94393	xori	x7,x18,-1969	 x18:0x80c3ffd7  x7=0x7f3c0798
       47575000	      4756	80003cd0	0144e533	or	x10,x9,x20	  x9:0xc3fffb1d x20:0x20000000 x10=0xe3fffb1d
       47585000	      4757	80003cd4	046a9063	bne	x21,x6,80003d14	 x21:0xfffff9ce  x6:0x6ba00000
       47595000	      4758	00000000	00000013	addi	x0,x0,0	  x0:0x00000000
       47605000	      4759	80003d10	00000013	addi	x0,x0,0	  x0:0x00000000
       47615000	      4760	80003d14	014b9263	bne	x23,x20,80003d18	 x23:0x80009f1c x20:0x20000000
       47625000	      4761	00000000	00000013	addi	x0,x0,0	  x0:0x00000000
       47635000	      4762	80003d14	00000013	addi	x0,x0,0	  x0:0x00000000
       47645000	      4763	80003d18	000f8463	beq	x31,x0,80003d20	 x31:0xfffff9cf  x0:0x00000000
       47655000	      4764	80003d1c	00000013	addi	x0,x0,0	  x0:0x00000000
       47665000	      4765	80003d20	b3bfa217	auipc	x4,0xb3bfa	  x4=0x33bfdd1c
       47675000	      4766	80003d24	bf03f393	andi	x7,x7,-1040	  x7:0x7f3c0798  x7=0x7f3c0390
       47685000	      4767	80003d28	cf510197	auipc	x3,0xcf510	  x3=0x4f513d24
       47695000	      4768	80003d2c	71d07c37	lui	x24,0x71d07	 x24=0x71d07000
       47705000	      4769	80003d30	00da6fb3	or	x31,x20,x13	 x20:0x20000000 x13:0x94600100 x31=0xb4600100
       47715000	      4770	80003d34	fecbe093	ori	x1,x23,-20	 x23:0x80009f1c  x1=0xfffffffc
       47725000	      4771	80003d38	01630433	add	x8,x6,x22	  x6:0x6ba00000 x22:0x00000000  x8=0x6ba00000
       47735000	      4772	80003d3c	0029bfb3	sltu	x31,x19,x2	 x19:0x00000100  x2:0xffffffff x31=0x00000001
       47745000	      4773	80003d40	40c58833	sub	x16,x11,x12	 x11:0x00000001 x12:0x00000001 x16=0x00000000
       47755000	      4774	80003d44	6a2a3437	lui	x8,0x6a2a3	  x8=0x6a2a3000
       47765000	      4775	80003d48	e917b397	auipc	x7,0xe917b	  x7=0x6917ed44
       47775000	      4776	80003d4c	001113b3	sll	x7,x2,x1	  x2:0xffffffff  x1:0xfffffffc  x7=0xf0000000
       47785000	      4777	80003d50	b99dee37	lui	x28,0xb99de	 x28=0xb99de000
       47795000	      4778	80003d54	35684813	xori	x16,x16,854	 x16:0x00000000 x16=0x00000356
       47805000	      4779	80003d58	50f3aa93	slti	x21,x7,1295	  x7:0xf0000000 x21=0x00000001
       47815000	      4780	80003d5c	0124c3b3	xor	x7,x9,x18	  x9:0xc3fffb1d x18:0x80c3ffd7  x7=0x433c04ca
       47825000	      4781	80003d60	01213933	sltu	x18,x2,x18	  x2:0xffffffff x18:0x80c3ffd7 x18=0x00000000
       47835000	      4782	80003d64	01c0fc63	bgeu	x1,x28,80003d7c	  x1:0xfffffffc x28:0xb99de000
       47845000	      4783	00000000	00000013	addi	x0,x0,0	  x0:0x00000000
       47855000	      4784	80003d78	00000013	addi	x0,x0,0	  x0:0x00000000
       47865000	      4785	80003d7c	018e8cb3	add	x25,x29,x24	 x29:0x75d7fb02 x24:0x71d07000 x25=0xe7a86b02
       47875000	      4786	80003d80	00000013	addi	x0,x0,0	  x0:0x00000000
       47885000	      4787	80003d84	0133ec63	bltu	x7,x19,80003d9c	  x7:0x433c04ca x19:0x00000100
       47895000	      4788	80003d88	012e59b3	srl	x19,x28,x18	 x28:0xb99de000 x18:0x00000000 x19=0xb99de000
       47905000	      4789	80003d8c	017b0c33	add	x24,x22,x23	 x22:0x00000000 x23:0x80009f1c x24=0x80009f1c
       47915000	      4790	80003d90	9bde0293	addi	x5,x28,-1603	 x28:0xb99de000  x5=0xb99dd9bd
       47925000	      4791	80003d94	01e71863	bne	x14,x30,80003da4	 x14:0x00000004 x30:0x0000053f
       47935000	      4792	00000000	00000013	addi	x0,x0,0	  x0:0x00000000
       47945000	      4793	80003da0	00000013	addi	x0,x0,0	  x0:0x00000000
       47955000	      4794	80003da4	41bed7b3	sra	x15,x29,x27	 x29:0x75d7fb02 x27:0x75d7f9a8 x15=0x0075d7fb
       47965000	      4795	80003da8	001eec33	or	x24,x29,x1	 x29:0x75d7fb02  x1:0xfffffffc x24=0xfffffffe
       47975000	      4796	80003dac	0086d193	srli	x3,x13,0x8	 x13:0x94600100  x3=0x00946001
       47985000	      4797	80003db0	a1ad4313	xori	x6,x26,-1510	 x26:0x00000000  x6=0xfffffa1a
       47995000	      4798	80003db4	068d8e63	beq	x27,x8,80003e30	 x27:0x75d7f9a8  x8:0x6a2a3000
       48005000	      4799	80003db8	3208fc93	andi	x25,x17,800	 x17:0x80009fc4 x25=0x00000300
       48015000	      4800	80003dbc	4ca5f993	andi	x19,x11,1226	 x11:0x00000001 x19=0x00000000
       48025000	      4801	80003dc0	00000013	addi	x0,x0,0	  x0:0x00000000
       48035000	      4802	80003dc4	0067d333	srl	x6,x15,x6	 x15:0x0075d7fb  x6:0xfffffa1a  x6=0x00000000
       48045000	      4803	80003dc8	00000697	auipc	x13,0x0	 x13=0x80003dc4
       48055000	      4804	80003dcc	44868693	addi	x13,x13,1096	 x13:0x80003dc4 x13=0x8000420c
       48065000	      4805	80003dd0	4c4f0c37	lui	x24,0x4c4f0	 x24=0x4c4f0000
       48075000	      4806	80003dd4	41900633	sub	x12,x0,x25	  x0:0x00000000 x25:0x00000300 x12=0xfffffd00
       48085000	      4807	80003dd8	00168693	addi	x13,x13,1	 x13:0x8000420c x13=0x8000420d
       48095000	      4808	80003ddc	00eb6663	bltu	x22,x14,80003de8	 x22:0x00000000 x14:0x00000004
       48105000	      4809	00000000	00000013	addi	x0,x0,0	  x0:0x00000000
       48115000	      4810	80003de4	00000013	addi	x0,x0,0	  x0:0x00000000
       48125000	      4811	80003de8	fff680e7	jalr	x1,x13,-1	 x13:0x8000420d  x1=0x80003de8
       48135000	      4812	00000000	00000013	addi	x0,x0,0	  x0:0x00000000
       48145000	      4813	8000420c	00000013	addi	x0,x0,0	  x0:0x00000000
       48155000	      4814	80004210	67e7ad13	slti	x26,x15,1662	 x15:0x0075d7fb x26=0x00000000
       48165000	      4815	80004214	00000013	addi	x0,x0,0	  x0:0x00000000
       48175000	      4816	80004218	005aefb3	or	x31,x21,x5	 x21:0x00000001  x5:0xb99dd9bd x31=0xb99dd9bd
       48185000	      4817	8000421c	fdcb8b93	addi	x23,x23,-36	 x23:0x80009f1c x23=0x80009ef8
       48195000	      4818	80004220	001ba223	sw	x1,4(x23)	 x23:0x80009ef8  x1:0x80003de8 PA:0x80009efc
       48205000	      4819	80004224	41b08033	sub	x0,x1,x27	  x1:0x80003de8 x27:0x75d7f9a8
       48215000	      4820	80004228	f4113317	auipc	x6,0xf4113	  x6=0x74117224
       48225000	      4821	8000422c	02c000ef	jal	x1,8000422c	  x1=0x8000422c
       48235000	      4822	00000000	00000013	addi	x0,x0,0	  x0:0x00000000
       48245000	      4823	80004254	00000013	addi	x0,x0,0	  x0:0x00000000
       48255000	      4824	80004258	ffdff26f	jal	x4,80004258	  x4=0x80004258
       48265000	      4825	00000000	00000013	addi	x0,x0,0	  x0:0x00000000
       48275000	      4826	80004250	00000013	addi	x0,x0,0	  x0:0x00000000
       48285000	      4827	80004254	fe5ff0ef	jal	x1,80004254	  x1=0x80004254
       48295000	      4828	00000000	00000013	addi	x0,x0,0	  x0:0x00000000
       48305000	      4829	80004234	00000013	addi	x0,x0,0	  x0:0x00000000
       48315000	      4830	80004238	ffdff0ef	jal	x1,80004238	  x1=0x80004238
       48325000	      4831	00000000	00000013	addi	x0,x0,0	  x0:0x00000000
       48335000	      4832	80004230	00000013	addi	x0,x0,0	  x0:0x00000000
       48345000	      4833	80004234	028007ef	jal	x15,80004234	 x15=0x80004234
       48355000	      4834	00000000	00000013	addi	x0,x0,0	  x0:0x00000000
       48365000	      4835	80004258	00000013	addi	x0,x0,0	  x0:0x00000000
       48375000	      4836	8000425c	fe1ff1ef	jal	x3,8000425c	  x3=0x8000425c
       48385000	      4837	00000000	00000013	addi	x0,x0,0	  x0:0x00000000
       48395000	      4838	80004238	00000013	addi	x0,x0,0	  x0:0x00000000
       48405000	      4839	8000423c	00c000ef	jal	x1,8000423c	  x1=0x8000423c
       48415000	      4840	00000000	00000013	addi	x0,x0,0	  x0:0x00000000
       48425000	      4841	80004244	00000013	addi	x0,x0,0	  x0:0x00000000
       48435000	      4842	80004248	0180036f	jal	x6,80004248	  x6=0x80004248
       48445000	      4843	00000000	00000013	addi	x0,x0,0	  x0:0x00000000
       48455000	      4844	8000425c	00000013	addi	x0,x0,0	  x0:0x00000000
       48465000	      4845	80004260	fe5ff0ef	jal	x1,80004260	  x1=0x80004260
       48475000	      4846	00000000	00000013	addi	x0,x0,0	  x0:0x00000000
       48485000	      4847	80004240	00000013	addi	x0,x0,0	  x0:0x00000000
       48495000	      4848	80004244	fedff0ef	jal	x1,80004244	  x1=0x80004244
       48505000	      4849	00000000	00000013	addi	x0,x0,0	  x0:0x00000000
       48515000	      4850	8000422c	00000013	addi	x0,x0,0	  x0:0x00000000
       48525000	      4851	80004230	020000ef	jal	x1,80004230	  x1=0x80004230
       48535000	      4852	00000000	00000013	addi	x0,x0,0	  x0:0x00000000
       48545000	      4853	8000424c	00000013	addi	x0,x0,0	  x0:0x00000000
       48555000	      4854	80004250	ff1ff0ef	jal	x1,80004250	  x1=0x80004250
       48565000	      4855	00000000	00000013	addi	x0,x0,0	  x0:0x00000000
       48575000	      4856	8000423c	00000013	addi	x0,x0,0	  x0:0x00000000
       48585000	      4857	80004240	00c000ef	jal	x1,80004240	  x1=0x80004240
       48595000	      4858	00000000	00000013	addi	x0,x0,0	  x0:0x00000000
       48605000	      4859	80004248	00000013	addi	x0,x0,0	  x0:0x00000000
       48615000	      4860	8000424c	018000ef	jal	x1,8000424c	  x1=0x8000424c
       48625000	      4861	00000000	00000013	addi	x0,x0,0	  x0:0x00000000
       48635000	      4862	80004260	00000013	addi	x0,x0,0	  x0:0x00000000
       48645000	      4863	80004264	004ec4b3	xor	x9,x29,x4	 x29:0x75d7fb02  x4:0x80004258  x9=0xf5d7b95a
       48655000	      4864	80004268	90a86013	ori	x0,x16,-1782	 x16:0x00000356
       48665000	      4865	8000426c	db78fc13	andi	x24,x17,-585	 x17:0x80009fc4 x24=0x80009d84
       48675000	      4866	80004270	9f07ed93	ori	x27,x15,-1552	 x15:0x80004234 x27=0xfffffbf4
       48685000	      4867	80004274	00a42233	slt	x4,x8,x10	  x8:0x6a2a3000 x10:0xe3fffb1d  x4=0x00000000
       48695000	      4868	80004278	46ada513	slti	x10,x27,1130	 x27:0xfffffbf4 x10=0x00000001
       48705000	      4869	8000427c	011d9e93	slli	x29,x27,0x11	 x27:0xfffffbf4 x29=0xf7e80000
       48715000	      4870	80004280	03dd9a63	bne	x27,x29,800042b4	 x27:0xfffffbf4 x29:0xf7e80000
       48725000	      4871	00000000	00000013	addi	x0,x0,0	  x0:0x00000000
       48735000	      4872	800042b0	00000013	addi	x0,x0,0	  x0:0x00000000
       48745000	      4873	800042b4	e8428e13	addi	x28,x5,-380	  x5:0xb99dd9bd x28=0xb99dd841
       48755000	      4874	800042b8	00a61463	bne	x12,x10,800042c0	 x12:0xfffffd00 x10:0x00000001
       48765000	      4875	00000000	00000013	addi	x0,x0,0	  x0:0x00000000
       48775000	      4876	800042bc	00000013	addi	x0,x0,0	  x0:0x00000000
       48785000	      4877	800042c0	82043513	sltiu	x10,x8,-2016	  x8:0x6a2a3000 x10=0x00000001
       48795000	      4878	800042c4	00df3033	sltu	x0,x30,x13	 x30:0x0000053f x13:0x8000420d
       48805000	      4879	800042c8	10e3bc13	sltiu	x24,x7,270	  x7:0x433c04ca x24=0x00000000
       48815000	      4880	800042cc	d20f2b13	slti	x22,x30,-736	 x30:0x0000053f x22=0x00000000
       48825000	      4881	800042d0	7d9b3593	sltiu	x11,x22,2009	 x22:0x00000000 x11=0x00000001
       48835000	      4882	800042d4	008a20b3	slt	x1,x20,x8	 x20:0x20000000  x8:0x6a2a3000  x1=0x00000001
       48845000	      4883	800042d8	0153d3b3	srl	x7,x7,x21	  x7:0x433c04ca x21:0x00000001  x7=0x219e0265
       48855000	      4884	800042dc	0025de93	srli	x29,x11,0x2	 x11:0x00000001 x29=0x00000000
       48865000	      4885	800042e0	01059213	slli	x4,x11,0x10	 x11:0x00000001  x4=0x00010000
       48875000	      4886	800042e4	01da0a63	beq	x20,x29,800042f8	 x20:0x20000000 x29:0x00000000
       48885000	      4887	800042e8	a23437b7	lui	x15,0xa2343	 x15=0xa2343000
       48895000	      4888	800042ec	04f70663	beq	x14,x15,80004338	 x14:0x00000004 x15:0xa2343000
       48905000	      4889	800042f0	af2f4c93	xori	x25,x30,-1294	 x30:0x0000053f x25=0xffffffcd
       48915000	      4890	800042f4	0197c4b3	xor	x9,x15,x25	 x15:0xa2343000 x25:0xffffffcd  x9=0x5dcbcfcd
       48925000	      4891	800042f8	01cd79b3	and	x19,x26,x28	 x26:0x00000000 x28:0xb99dd841 x19=0x00000000
       48935000	      4892	800042fc	000a0263	beq	x20,x0,80004300	 x20:0x20000000  x0:0x00000000
       48945000	      4893	80004300	1837c213	xori	x4,x15,387	 x15:0xa2343000  x4=0xa2343183
       48955000	      4894	80004304	412cd813	srai	x16,x25,0x12	 x25:0xffffffcd x16=0xffffffff
       48965000	      4895	80004308	0002a6b3	slt	x13,x5,x0	  x5:0xb99dd9bd  x0:0x00000000 x13=0x00000001
       48975000	      4896	8000430c	68af4797	auipc	x15,0x68af4	 x15=0xe8af8308
       48985000	      4897	80004310	ece9a293	slti	x5,x19,-306	 x19:0x00000000  x5=0x00000000
       48995000	      4898	80004314	6d5ce293	ori	x5,x25,1749	 x25:0xffffffcd  x5=0xffffffdd
       49005000	      4899	80004318	012b9d13	slli	x26,x23,0x12	 x23:0x80009ef8 x26=0x7be00000
       49015000	      4900	8000431c	050f0063	beq	x30,x16,8000435c	 x30:0x0000053f x16:0xffffffff
       49025000	      4901	80004320	a7f3c997	auipc	x19,0xa7f3c	 x19=0x27f4031c
       49035000	      4902	80004324	01e48db3	add	x27,x9,x30	  x9:0x5dcbcfcd x30:0x0000053f x27=0x5dcbd50c
       49045000	      4903	80004328	02590a63	beq	x18,x5,8000435c	 x18:0x00000000  x5:0xffffffdd
       49055000	      4904	8000432c	00000013	addi	x0,x0,0	  x0:0x00000000
       49065000	      4905	80004330	39ae3493	sltiu	x9,x28,922	 x28:0xb99dd841  x9=0x00000000
       49075000	      4906	80004334	01d1b233	sltu	x4,x3,x29	  x3:0x8000425c x29:0x00000000  x4=0x00000000
       49085000	      4907	80004338	85ee4493	xori	x9,x28,-1954	 x28:0xb99dd841  x9=0x4662201f
       49095000	      4908	8000433c	0035e463	bltu	x11,x3,80004344	 x11:0x00000001  x3:0x8000425c
       49105000	      4909	00000000	00000013	addi	x0,x0,0	  x0:0x00000000
       49115000	      4910	80004340	00000013	addi	x0,x0,0	  x0:0x00000000
       49125000	      4911	80004344	05079063	bne	x15,x16,80004384	 x15:0xe8af8308 x16:0xffffffff
       49135000	      4912	00000000	00000013	addi	x0,x0,0	  x0:0x00000000
       49145000	      4913	80004380	00000013	addi	x0,x0,0	  x0:0x00000000
       49155000	      4914	80004384	0110ce63	blt	x1,x17,800043a0	  x1:0x00000001 x17:0x80009fc4
       49165000	      4915	80004388	01255c63	bge	x10,x18,800043a0	 x10:0x00000001 x18:0x00000000
       49175000	      4916	00000000	00000013	addi	x0,x0,0	  x0:0x00000000
       49185000	      4917	8000439c	00000013	addi	x0,x0,0	  x0:0x00000000
       49195000	      4918	800043a0	aefc4437	lui	x8,0xaefc4	  x8=0xaefc4000
       49205000	      4919	800043a4	a6784313	xori	x6,x16,-1433	 x16:0xffffffff  x6=0x00000598
       49215000	      4920	800043a8	004ba083	lw	x1,4(x23)	 x23:0x80009ef8  x1=0x80003de8 PA:0x80009efc
       49225000	      4921	800043ac	bc654b13	xori	x22,x10,-1082	 x10:0x00000001 x22=0xfffffbc7
       49235000	      4922	800043b0	024b8b93	addi	x23,x23,36	 x23:0x80009ef8 x23=0x80009f1c
       49245000	      4923	800043b4	014b6633	or	x12,x22,x20	 x22:0xfffffbc7 x20:0x20000000 x12=0xfffffbc7
       49255000	      4924	800043b8	0112bd33	sltu	x26,x5,x17	  x5:0xffffffdd x17:0x80009fc4 x26=0x00000000
       49265000	      4925	800043bc	40640833	sub	x16,x8,x6	  x8:0xaefc4000  x6:0x00000598 x16=0xaefc3a68
       49275000	      4926	800043c0	013d7933	and	x18,x26,x19	 x26:0x00000000 x19:0x27f4031c x18=0x00000000
       49285000	      4927	800043c4	01554f33	xor	x30,x10,x21	 x10:0x00000001 x21:0x00000001 x30=0x00000000
       49295000	      4928	800043c8	00000013	addi	x0,x0,0	  x0:0x00000000
       49305000	      4929	800043cc	00108513	addi	x10,x1,1	  x1:0x80003de8 x10=0x80003de9
       49315000	      4930	800043d0	00050567	jalr	x10,x10,0	 x10:0x80003de9 x10=0x800043d0
       49325000	      4931	00000000	00000013	addi	x0,x0,0	  x0:0x00000000
       49335000	      4932	80003de8	00000013	addi	x0,x0,0	  x0:0x00000000
       49345000	      4933	80003dec	01684fb3	xor	x31,x16,x22	 x16:0xaefc3a68 x22:0xfffffbc7 x31=0x5103c1af
       49355000	      4934	80003df0	00c8b7b3	sltu	x15,x17,x12	 x17:0x80009fc4 x12:0xfffffbc7 x15=0x00000001
       49365000	      4935	80003df4	74144e93	xori	x29,x8,1857	  x8:0xaefc4000 x29=0xaefc4741
       49375000	      4936	80003df8	03d36863	bltu	x6,x29,80003e28	  x6:0x00000598 x29:0xaefc4741
       49385000	      4937	00000000	00000013	addi	x0,x0,0	  x0:0x00000000
       49395000	      4938	80003e24	00000013	addi	x0,x0,0	  x0:0x00000000
       49405000	      4939	80003e28	01596333	or	x6,x18,x21	 x18:0x00000000 x21:0x00000001  x6=0x00000001
       49415000	      4940	80003e2c	04fdc263	blt	x27,x15,80003e70	 x27:0x5dcbd50c x15:0x00000001
       49425000	      4941	80003e30	b0190413	addi	x8,x18,-1279	 x18:0x00000000  x8=0xfffffb01
       49435000	      4942	80003e34	01ca5193	srli	x3,x20,0x1c	 x20:0x20000000  x3=0x00000002
       49445000	      4943	80003e38	0073ca33	xor	x20,x7,x7	  x7:0x219e0265  x7:0x219e0265 x20=0x00000000
       49455000	      4944	80003e3c	017cde63	bge	x25,x23,80003e58	 x25:0xffffffcd x23:0x80009f1c
       49465000	      4945	00000000	00000013	addi	x0,x0,0	  x0:0x00000000
       49475000	      4946	80003e54	00000013	addi	x0,x0,0	  x0:0x00000000
       49485000	      4947	80003e58	01445c63	bge	x8,x20,80003e70	  x8:0xfffffb01 x20:0x00000000
       49495000	      4948	80003e5c	0054e0b3	or	x1,x9,x5	  x9:0x4662201f  x5:0xffffffdd  x1=0xffffffdf
       49505000	      4949	80003e60	41500f33	sub	x30,x0,x21	  x0:0x00000000 x21:0x00000001 x30=0xffffffff
       49515000	      4950	80003e64	0190e0b3	or	x1,x1,x25	  x1:0xffffffdf x25:0xffffffcd  x1=0xffffffdf
       49525000	      4951	80003e68	4069ddb3	sra	x27,x19,x6	 x19:0x27f4031c  x6:0x00000001 x27=0x13fa018e
       49535000	      4952	80003e6c	000b84b3	add	x9,x23,x0	 x23:0x80009f1c  x0:0x00000000  x9=0x80009f1c
       49545000	      4953	80003e70	0019d693	srli	x13,x19,0x1	 x19:0x27f4031c x13=0x13fa018e
       49555000	      4954	80003e74	00000013	addi	x0,x0,0	  x0:0x00000000
       49565000	      4955	80003e78	01468c33	add	x24,x13,x20	 x13:0x13fa018e x20:0x00000000 x24=0x13fa018e
       49575000	      4956	80003e7c	02017863	bgeu	x2,x0,80003eac	  x2:0xffffffff  x0:0x00000000
       49585000	      4957	00000000	00000013	addi	x0,x0,0	  x0:0x00000000
       49595000	      4958	80003ea8	00000013	addi	x0,x0,0	  x0:0x00000000
       49605000	      4959	80003eac	019544b3	xor	x9,x10,x25	 x10:0x800043d0 x25:0xffffffcd  x9=0x7fffbc1d
       49615000	      4960	80003eb0	025df263	bgeu	x27,x5,80003ed4	 x27:0x13fa018e  x5:0xffffffdd
       49625000	      4961	80003eb4	4086d813	srai	x16,x13,0x8	 x13:0x13fa018e x16=0x0013fa01
       49635000	      4962	80003eb8	00311263	bne	x2,x3,80003ebc	  x2:0xffffffff  x3:0x00000002
       49645000	      4963	00000000	00000013	addi	x0,x0,0	  x0:0x00000000
       49655000	      4964	80003eb8	00000013	addi	x0,x0,0	  x0:0x00000000
       49665000	      4965	80003ebc	00ed9233	sll	x4,x27,x14	 x27:0x13fa018e x14:0x00000004  x4=0x3fa018e0
       49675000	      4966	80003ec0	d8338b13	addi	x22,x7,-637	  x7:0x219e0265 x22=0x219dffe8
       49685000	      4967	80003ec4	2e988e13	addi	x28,x17,745	 x17:0x80009fc4 x28=0x8000a2ad
       49695000	      4968	80003ec8	38940193	addi	x3,x8,905	  x8:0xfffffb01  x3=0xfffffe8a
       49705000	      4969	80003ecc	00000013	addi	x0,x0,0	  x0:0x00000000
       49715000	      4970	80003ed0	9163c793	xori	x15,x7,-1770	  x7:0x219e0265 x15=0xde61fb73
       49725000	      4971	80003ed4	003e8833	add	x16,x29,x3	 x29:0xaefc4741  x3:0xfffffe8a x16=0xaefc45cb
       49735000	      4972	80003ed8	61aa45b7	lui	x11,0x61aa4	 x11=0x61aa4000
       49745000	      4973	80003edc	0154d313	srli	x6,x9,0x15	  x9:0x7fffbc1d  x6=0x000003ff
       49755000	      4974	80003ee0	6a07b497	auipc	x9,0x6a07b	  x9=0xea07eedc
       49765000	      4975	80003ee4	0309f463	bgeu	x19,x16,80003f0c	 x19:0x27f4031c x16:0xaefc45cb
       49775000	      4976	80003ee8	009fc863	blt	x31,x9,80003ef8	 x31:0x5103c1af  x9:0xea07eedc
       49785000	      4977	80003eec	40b65e93	srai	x29,x12,0xb	 x12:0xfffffbc7 x29=0xffffffff
       49795000	      4978	80003ef0	01a4dd33	srl	x26,x9,x26	  x9:0xea07eedc x26:0x00000000 x26=0xea07eedc
       49805000	      4979	80003ef4	40385133	sra	x2,x16,x3	 x16:0xaefc45cb  x3:0xfffffe8a  x2=0xffebbf11
       49815000	      4980	80003ef8	5a16ed13	ori	x26,x13,1441	 x13:0x13fa018e x26=0x13fa05af
       49825000	      4981	80003efc	00d8b133	sltu	x2,x17,x13	 x17:0x80009fc4 x13:0x13fa018e  x2=0x00000000
       49835000	      4982	80003f00	00ccc263	blt	x25,x12,80003f04	 x25:0xffffffcd x12:0xfffffbc7
       49845000	      4983	80003f04	00676133	or	x2,x14,x6	 x14:0x00000004  x6:0x000003ff  x2=0x000003ff
       49855000	      4984	80003f08	d567e993	ori	x19,x15,-682	 x15:0xde61fb73 x19=0xffffff77
       49865000	      4985	80003f0c	014cc0b3	xor	x1,x25,x20	 x25:0xffffffcd x20:0x00000000  x1=0xffffffcd
       49875000	      4986	80003f10	01932cb3	slt	x25,x6,x25	  x6:0x000003ff x25:0xffffffcd x25=0x00000000
       49885000	      4987	80003f14	00b60a33	add	x20,x12,x11	 x12:0xfffffbc7 x11:0x61aa4000 x20=0x61aa3bc7
       49895000	      4988	80003f18	02e00863	beq	x0,x14,80003f48	  x0:0x00000000 x14:0x00000004
       49905000	      4989	80003f1c	00b80463	beq	x16,x11,80003f24	 x16:0xaefc45cb x11:0x61aa4000
       49915000	      4990	80003f20	0066d9b3	srl	x19,x13,x6	 x13:0x13fa018e  x6:0x000003ff x19=0x00000000
       49925000	      4991	80003f24	00949e63	bne	x9,x9,80003f40	  x9:0xea07eedc  x9:0xea07eedc
       49935000	      4992	80003f28	41918a33	sub	x20,x3,x25	  x3:0xfffffe8a x25:0x00000000 x20=0xfffffe8a
       49945000	      4993	80003f2c	c7dbb513	sltiu	x10,x23,-899	 x23:0x80009f1c x10=0x00000001
       49955000	      4994	80003f30	0367e863	bltu	x15,x22,80003f60	 x15:0xde61fb73 x22:0x219dffe8
       49965000	      4995	80003f34	00909a13	slli	x20,x1,0x9	  x1:0xffffffcd x20=0xffff9a00
       49975000	      4996	80003f38	00e4c7b3	xor	x15,x9,x14	  x9:0xea07eedc x14:0x00000004 x15=0xea07eed8
       49985000	      4997	80003f3c	03042c37	lui	x24,0x3042	 x24=0x03042000
       49995000	      4998	80003f40	0589d063	bge	x19,x24,80003f80	 x19:0x00000000 x24:0x03042000
       50005000	      4999	80003f44	05c19617	auipc	x12,0x5c19	 x12=0x85c1cf40
       50015000	      5000	80003f48	3982f613	andi	x12,x5,920	  x5:0xffffffdd x12=0x00000398
       50025000	      5001	80003f4c	7f72e817	auipc	x16,0x7f72e	 x16=0xff731f48
       50035000	      5002	80003f50	025e5863	bge	x28,x5,80003f80	 x28:0x8000a2ad  x5:0xffffffdd
       50045000	      5003	80003f54	00907eb3	and	x29,x0,x9	  x0:0x00000000  x9:0xea07eedc x29=0x00000000
       50055000	      5004	80003f58	009f5293	srli	x5,x30,0x9	 x30:0xffffffff  x5=0x007fffff
       50065000	      5005	80003f5c	c0577c93	andi	x25,x14,-1019	 x14:0x00000004 x25=0x00000004
       50075000	      5006	80003f60	90978813	addi	x16,x15,-1783	 x15:0xea07eed8 x16=0xea07e7e1
       50085000	      5007	80003f64	00886663	bltu	x16,x8,80003f70	 x16:0xea07e7e1  x8:0xfffffb01
       50095000	      5008	00000000	00000013	addi	x0,x0,0	  x0:0x00000000
       50105000	      5009	80003f6c	00000013	addi	x0,x0,0	  x0:0x00000000
       50115000	      5010	80003f70	006e1a33	sll	x20,x28,x6	 x28:0x8000a2ad  x6:0x000003ff x20=0x80000000
       50125000	      5011	80003f74	cad1f0b7	lui	x1,0xcad1f	  x1=0xcad1f000
       50135000	      5012	80003f78	00d8ba33	sltu	x20,x17,x13	 x17:0x80009fc4 x13:0x13fa018e x20=0x00000000
       50145000	      5013	80003f7c	212a2993	slti	x19,x20,530	 x20:0x00000000 x19=0x00000001
       50155000	      5014	80003f80	467e3a93	sltiu	x21,x28,1127	 x28:0x8000a2ad x21=0x00000000
       50165000	      5015	80003f84	011a5613	srli	x12,x20,0x11	 x20:0x00000000 x12=0x00000000
       50175000	      5016	80003f88	0144c263	blt	x9,x20,80003f8c	  x9:0xea07eedc x20:0x00000000
       50185000	      5017	00000000	00000013	addi	x0,x0,0	  x0:0x00000000
       50195000	      5018	80003f88	00000013	addi	x0,x0,0	  x0:0x00000000
       50205000	      5019	80003f8c	a95c3413	sltiu	x8,x24,-1387	 x24:0x03042000  x8=0x00000001
       50215000	      5020	80003f90	7700a297	auipc	x5,0x7700a	  x5=0xf700df8c
       50225000	      5021	80003f94	00719793	slli	x15,x3,0x7	  x3:0xfffffe8a x15=0xffff4500
       50235000	      5022	80003f98	f4143e93	sltiu	x29,x8,-191	  x8:0x00000001 x29=0x00000001
       50245000	      5023	80003f9c	004d1663	bne	x26,x4,80003fa8	 x26:0x13fa05af  x4:0x3fa018e0
       50255000	      5024	00000000	00000013	addi	x0,x0,0	  x0:0x00000000
       50265000	      5025	80003fa4	00000013	addi	x0,x0,0	  x0:0x00000000
       50275000	      5026	80003fa8	0ef2eb13	ori	x22,x5,239	  x5:0xf700df8c x22=0xf700dfef
       50285000	      5027	80003fac	00645f13	srli	x30,x8,0x6	  x8:0x00000001 x30=0x00000000
       50295000	      5028	80003fb0	d6646413	ori	x8,x8,-666	  x8:0x00000001  x8=0xfffffd67
       50305000	      5029	80003fb4	4164d493	srai	x9,x9,0x16	  x9:0xea07eedc  x9=0xffffffa8
       50315000	      5030	80003fb8	dbca1ab7	lui	x21,0xdbca1	 x21=0xdbca1000
       50325000	      5031	80003fbc	050e9063	bne	x29,x16,80003ffc	 x29:0x00000001 x16:0xea07e7e1
       50335000	      5032	00000000	00000013	addi	x0,x0,0	  x0:0x00000000
       50345000	      5033	80003ff8	00000013	addi	x0,x0,0	  x0:0x00000000
       50355000	      5034	80003ffc	50754b13	xori	x22,x10,1287	 x10:0x00000001 x22=0x00000506
       50365000	      5035	80004000	011c7c33	and	x24,x24,x17	 x24:0x03042000 x17:0x80009fc4 x24=0x00000000
       50375000	      5036	80004004	004ba083	lw	x1,4(x23)	 x23:0x80009f1c  x1=0x8000443c PA:0x80009f20
       50385000	      5037	80004008	124ae793	ori	x15,x21,292	 x21:0xdbca1000 x15=0xdbca1124
       50395000	      5038	8000400c	02cb8b93	addi	x23,x23,44	 x23:0x80009f1c x23=0x80009f48
       50405000	      5039	80004010	65e3ba93	sltiu	x21,x7,1630	  x7:0x219e0265 x21=0x00000000
       50415000	      5040	80004014	00008613	addi	x12,x1,0	  x1:0x8000443c x12=0x8000443c
       50425000	      5041	80004018	00060667	jalr	x12,x12,0	 x12:0x8000443c x12=0x80004018
       50435000	      5042	00000000	00000013	addi	x0,x0,0	  x0:0x00000000
       50445000	      5043	8000443c	00000013	addi	x0,x0,0	  x0:0x00000000
       50455000	      5044	80004440	0115f633	and	x12,x11,x17	 x11:0x61aa4000 x17:0x80009fc4 x12=0x00000000
       50465000	      5045	80004444	01155613	srli	x12,x10,0x11	 x10:0x00000001 x12=0x00000000
       50475000	      5046	80004448	00000013	addi	x0,x0,0	  x0:0x00000000
       50485000	      5047	8000444c	004b4c63	blt	x22,x4,80004464	 x22:0x00000506  x4:0x3fa018e0
       50495000	      5048	00000000	00000013	addi	x0,x0,0	  x0:0x00000000
       50505000	      5049	80004460	00000013	addi	x0,x0,0	  x0:0x00000000
       50515000	      5050	80004464	becfe0ef	jal	x1,80004464	  x1=0x80004464
       50525000	      5051	00000000	00000013	addi	x0,x0,0	  x0:0x00000000
       50535000	      5052	8000284c	00000013	addi	x0,x0,0	  x0:0x00000000
       50545000	      5053	80002850	fd4b8b93	addi	x23,x23,-44	 x23:0x80009f48 x23=0x80009f1c
       50555000	      5054	80002854	416587b3	sub	x15,x11,x22	 x11:0x61aa4000 x22:0x00000506 x15=0x61aa3afa
       50565000	      5055	80002858	001ba223	sw	x1,4(x23)	 x23:0x80009f1c  x1:0x80004464 PA:0x80009f20
       50575000	      5056	8000285c	12ff8397	auipc	x7,0x12ff8	  x7=0x92ffa858
       50585000	      5057	80002860	016e8933	add	x18,x29,x22	 x29:0x00000001 x22:0x00000506 x18=0x00000507
       50595000	      5058	80002864	ebfca513	slti	x10,x25,-321	 x25:0x00000004 x10=0x00000000
       50605000	      5059	80002868	00db07b3	add	x15,x22,x13	 x22:0x00000506 x13:0x13fa018e x15=0x13fa0694
       50615000	      5060	8000286c	01299cb3	sll	x25,x19,x18	 x19:0x00000001 x18:0x00000507 x25=0x00000080
       50625000	      5061	80002870	003ad693	srli	x13,x21,0x3	 x21:0x00000000 x13=0x00000000
       50635000	      5062	80002874	019bc233	xor	x4,x23,x25	 x23:0x80009f1c x25:0x00000080  x4=0x80009f9c
       50645000	      5063	80002878	41fd5b13	srai	x22,x26,0x1f	 x26:0x13fa05af x22=0x00000000
       50655000	      5064	8000287c	e00f3113	sltiu	x2,x30,-512	 x30:0x00000000  x2=0x00000001
       50665000	      5065	80002880	c3998d13	addi	x26,x19,-967	 x19:0x00000001 x26=0xfffffc3a
       50675000	      5066	80002884	00002697	auipc	x13,0x2	 x13=0x80004880
       50685000	      5067	80002888	98c68693	addi	x13,x13,-1652	 x13:0x80004880 x13=0x8000420c
       50695000	      5068	8000288c	79715217	auipc	x4,0x79715	  x4=0xf9717888
       50705000	      5069	80002890	be677013	andi	x0,x14,-1050	 x14:0x00000004
       50715000	      5070	80002894	24868693	addi	x13,x13,584	 x13:0x8000420c x13=0x80004454
       50725000	      5071	80002898	016b9013	slli	x0,x23,0x16	 x23:0x80009f1c
       50735000	      5072	8000289c	0ef70a93	addi	x21,x14,239	 x14:0x00000004 x21=0x000000f3
       50745000	      5073	800028a0	00267463	bgeu	x12,x2,800028a8	 x12:0x00000000  x2:0x00000001
       50755000	      5074	800028a4	7dd98593	addi	x11,x19,2013	 x19:0x00000001 x11=0x000007de
       50765000	      5075	800028a8	db9680e7	jalr	x1,x13,-583	 x13:0x80004454  x1=0x800028a8
       50775000	      5076	00000000	00000013	addi	x0,x0,0	  x0:0x00000000
       50785000	      5077	8000420c	00000013	addi	x0,x0,0	  x0:0x00000000
       50795000	      5078	80004210	67e7ad13	slti	x26,x15,1662	 x15:0x13fa0694 x26=0x00000000
       50805000	      5079	80004214	00000013	addi	x0,x0,0	  x0:0x00000000
       50815000	      5080	80004218	005aefb3	or	x31,x21,x5	 x21:0x000000f3  x5:0xf700df8c x31=0xf700dfff
       50825000	      5081	8000421c	fdcb8b93	addi	x23,x23,-36	 x23:0x80009f1c x23=0x80009ef8
       50835000	      5082	80004220	001ba223	sw	x1,4(x23)	 x23:0x80009ef8  x1:0x800028a8 PA:0x80009efc
       50845000	      5083	80004224	41b08033	sub	x0,x1,x27	  x1:0x800028a8 x27:0x13fa018e
       50855000	      5084	80004228	f4113317	auipc	x6,0xf4113	  x6=0x74117224
       50865000	      5085	8000422c	02c000ef	jal	x1,8000422c	  x1=0x8000422c
       50875000	      5086	00000000	00000013	addi	x0,x0,0	  x0:0x00000000
       50885000	      5087	80004254	00000013	addi	x0,x0,0	  x0:0x00000000
       50895000	      5088	80004258	ffdff26f	jal	x4,80004258	  x4=0x80004258
       50905000	      5089	00000000	00000013	addi	x0,x0,0	  x0:0x00000000
       50915000	      5090	80004250	00000013	addi	x0,x0,0	  x0:0x00000000
       50925000	      5091	80004254	fe5ff0ef	jal	x1,80004254	  x1=0x80004254
       50935000	      5092	00000000	00000013	addi	x0,x0,0	  x0:0x00000000
       50945000	      5093	80004234	00000013	addi	x0,x0,0	  x0:0x00000000
       50955000	      5094	80004238	ffdff0ef	jal	x1,80004238	  x1=0x80004238
       50965000	      5095	00000000	00000013	addi	x0,x0,0	  x0:0x00000000
       50975000	      5096	80004230	00000013	addi	x0,x0,0	  x0:0x00000000
       50985000	      5097	80004234	028007ef	jal	x15,80004234	 x15=0x80004234
       50995000	      5098	00000000	00000013	addi	x0,x0,0	  x0:0x00000000
       51005000	      5099	80004258	00000013	addi	x0,x0,0	  x0:0x00000000
       51015000	      5100	8000425c	fe1ff1ef	jal	x3,8000425c	  x3=0x8000425c
       51025000	      5101	00000000	00000013	addi	x0,x0,0	  x0:0x00000000
       51035000	      5102	80004238	00000013	addi	x0,x0,0	  x0:0x00000000
       51045000	      5103	8000423c	00c000ef	jal	x1,8000423c	  x1=0x8000423c
       51055000	      5104	00000000	00000013	addi	x0,x0,0	  x0:0x00000000
       51065000	      5105	80004244	00000013	addi	x0,x0,0	  x0:0x00000000
       51075000	      5106	80004248	0180036f	jal	x6,80004248	  x6=0x80004248
       51085000	      5107	00000000	00000013	addi	x0,x0,0	  x0:0x00000000
       51095000	      5108	8000425c	00000013	addi	x0,x0,0	  x0:0x00000000
       51105000	      5109	80004260	fe5ff0ef	jal	x1,80004260	  x1=0x80004260
       51115000	      5110	00000000	00000013	addi	x0,x0,0	  x0:0x00000000
       51125000	      5111	80004240	00000013	addi	x0,x0,0	  x0:0x00000000
       51135000	      5112	80004244	fedff0ef	jal	x1,80004244	  x1=0x80004244
       51145000	      5113	00000000	00000013	addi	x0,x0,0	  x0:0x00000000
       51155000	      5114	8000422c	00000013	addi	x0,x0,0	  x0:0x00000000
       51165000	      5115	80004230	020000ef	jal	x1,80004230	  x1=0x80004230
       51175000	      5116	00000000	00000013	addi	x0,x0,0	  x0:0x00000000
       51185000	      5117	8000424c	00000013	addi	x0,x0,0	  x0:0x00000000
       51195000	      5118	80004250	ff1ff0ef	jal	x1,80004250	  x1=0x80004250
       51205000	      5119	00000000	00000013	addi	x0,x0,0	  x0:0x00000000
       51215000	      5120	8000423c	00000013	addi	x0,x0,0	  x0:0x00000000
       51225000	      5121	80004240	00c000ef	jal	x1,80004240	  x1=0x80004240
       51235000	      5122	00000000	00000013	addi	x0,x0,0	  x0:0x00000000
       51245000	      5123	80004248	00000013	addi	x0,x0,0	  x0:0x00000000
       51255000	      5124	8000424c	018000ef	jal	x1,8000424c	  x1=0x8000424c
       51265000	      5125	00000000	00000013	addi	x0,x0,0	  x0:0x00000000
       51275000	      5126	80004260	00000013	addi	x0,x0,0	  x0:0x00000000
       51285000	      5127	80004264	004ec4b3	xor	x9,x29,x4	 x29:0x00000001  x4:0x80004258  x9=0x80004259
       51295000	      5128	80004268	90a86013	ori	x0,x16,-1782	 x16:0xea07e7e1
       51305000	      5129	8000426c	db78fc13	andi	x24,x17,-585	 x17:0x80009fc4 x24=0x80009d84
       51315000	      5130	80004270	9f07ed93	ori	x27,x15,-1552	 x15:0x80004234 x27=0xfffffbf4
       51325000	      5131	80004274	00a42233	slt	x4,x8,x10	  x8:0xfffffd67 x10:0x00000000  x4=0x00000001
       51335000	      5132	80004278	46ada513	slti	x10,x27,1130	 x27:0xfffffbf4 x10=0x00000001
       51345000	      5133	8000427c	011d9e93	slli	x29,x27,0x11	 x27:0xfffffbf4 x29=0xf7e80000
       51355000	      5134	80004280	03dd9a63	bne	x27,x29,800042b4	 x27:0xfffffbf4 x29:0xf7e80000
       51365000	      5135	00000000	00000013	addi	x0,x0,0	  x0:0x00000000
       51375000	      5136	800042b0	00000013	addi	x0,x0,0	  x0:0x00000000
       51385000	      5137	800042b4	e8428e13	addi	x28,x5,-380	  x5:0xf700df8c x28=0xf700de10
       51395000	      5138	800042b8	00a61463	bne	x12,x10,800042c0	 x12:0x00000000 x10:0x00000001
       51405000	      5139	00000000	00000013	addi	x0,x0,0	  x0:0x00000000
       51415000	      5140	800042bc	00000013	addi	x0,x0,0	  x0:0x00000000
       51425000	      5141	800042c0	82043513	sltiu	x10,x8,-2016	  x8:0xfffffd67 x10=0x00000000
       51435000	      5142	800042c4	00df3033	sltu	x0,x30,x13	 x30:0x00000000 x13:0x80004454
       51445000	      5143	800042c8	10e3bc13	sltiu	x24,x7,270	  x7:0x92ffa858 x24=0x00000000
       51455000	      5144	800042cc	d20f2b13	slti	x22,x30,-736	 x30:0x00000000 x22=0x00000000
       51465000	      5145	800042d0	7d9b3593	sltiu	x11,x22,2009	 x22:0x00000000 x11=0x00000001
       51475000	      5146	800042d4	008a20b3	slt	x1,x20,x8	 x20:0x00000000  x8:0xfffffd67  x1=0x00000000
       51485000	      5147	800042d8	0153d3b3	srl	x7,x7,x21	  x7:0x92ffa858 x21:0x000000f3  x7=0x0000125f
       51495000	      5148	800042dc	0025de93	srli	x29,x11,0x2	 x11:0x00000001 x29=0x00000000
       51505000	      5149	800042e0	01059213	slli	x4,x11,0x10	 x11:0x00000001  x4=0x00010000
       51515000	      5150	800042e4	01da0a63	beq	x20,x29,800042f8	 x20:0x00000000 x29:0x00000000
       51525000	      5151	00000000	00000013	addi	x0,x0,0	  x0:0x00000000
       51535000	      5152	800042f4	00000013	addi	x0,x0,0	  x0:0x00000000
       51545000	      5153	800042f8	01cd79b3	and	x19,x26,x28	 x26:0x00000000 x28:0xf700de10 x19=0x00000000
       51555000	      5154	800042fc	000a0263	beq	x20,x0,80004300	 x20:0x00000000  x0:0x00000000
       51565000	      5155	00000000	00000013	addi	x0,x0,0	  x0:0x00000000
       51575000	      5156	800042fc	00000013	addi	x0,x0,0	  x0:0x00000000
       51585000	      5157	80004300	1837c213	xori	x4,x15,387	 x15:0x80004234  x4=0x800043b7
       51595000	      5158	80004304	412cd813	srai	x16,x25,0x12	 x25:0x00000080 x16=0x00000000
       51605000	      5159	80004308	0002a6b3	slt	x13,x5,x0	  x5:0xf700df8c  x0:0x00000000 x13=0x00000001
       51615000	      5160	8000430c	68af4797	auipc	x15,0x68af4	 x15=0xe8af8308
       51625000	      5161	80004310	ece9a293	slti	x5,x19,-306	 x19:0x00000000  x5=0x00000000
       51635000	      5162	80004314	6d5ce293	ori	x5,x25,1749	 x25:0x00000080  x5=0x000006d5
       51645000	      5163	80004318	012b9d13	slli	x26,x23,0x12	 x23:0x80009ef8 x26=0x7be00000
       51655000	      5164	8000431c	050f0063	beq	x30,x16,8000435c	 x30:0x00000000 x16:0x00000000
       51665000	      5165	00000000	00000013	addi	x0,x0,0	  x0:0x00000000
       51675000	      5166	80004358	00000013	addi	x0,x0,0	  x0:0x00000000
       51685000	      5167	8000435c	05129263	bne	x5,x17,800043a0	  x5:0x000006d5 x17:0x80009fc4
       51695000	      5168	00000000	00000013	addi	x0,x0,0	  x0:0x00000000
       51705000	      5169	8000439c	00000013	addi	x0,x0,0	  x0:0x00000000
       51715000	      5170	800043a0	aefc4437	lui	x8,0xaefc4	  x8=0xaefc4000
       51725000	      5171	800043a4	a6784313	xori	x6,x16,-1433	 x16:0x00000000  x6=0xfffffa67
       51735000	      5172	800043a8	004ba083	lw	x1,4(x23)	 x23:0x80009ef8  x1=0x800028a8 PA:0x80009efc
       51745000	      5173	800043ac	bc654b13	xori	x22,x10,-1082	 x10:0x00000000 x22=0xfffffbc6
       51755000	      5174	800043b0	024b8b93	addi	x23,x23,36	 x23:0x80009ef8 x23=0x80009f1c
       51765000	      5175	800043b4	014b6633	or	x12,x22,x20	 x22:0xfffffbc6 x20:0x00000000 x12=0xfffffbc6
       51775000	      5176	800043b8	0112bd33	sltu	x26,x5,x17	  x5:0x000006d5 x17:0x80009fc4 x26=0x00000001
       51785000	      5177	800043bc	40640833	sub	x16,x8,x6	  x8:0xaefc4000  x6:0xfffffa67 x16=0xaefc4599
       51795000	      5178	800043c0	013d7933	and	x18,x26,x19	 x26:0x00000001 x19:0x00000000 x18=0x00000000
       51805000	      5179	800043c4	01554f33	xor	x30,x10,x21	 x10:0x00000000 x21:0x000000f3 x30=0x000000f3
       51815000	      5180	800043c8	00000013	addi	x0,x0,0	  x0:0x00000000
       51825000	      5181	800043cc	00108513	addi	x10,x1,1	  x1:0x800028a8 x10=0x800028a9
       51835000	      5182	800043d0	00050567	jalr	x10,x10,0	 x10:0x800028a9 x10=0x800043d0
       51845000	      5183	00000000	00000013	addi	x0,x0,0	  x0:0x00000000
       51855000	      5184	800028a8	00000013	addi	x0,x0,0	  x0:0x00000000
       51865000	      5185	800028ac	06c000ef	jal	x1,800028ac	  x1=0x800028ac
       51875000	      5186	00000000	00000013	addi	x0,x0,0	  x0:0x00000000
       51885000	      5187	80002914	00000013	addi	x0,x0,0	  x0:0x00000000
       51895000	      5188	80002918	fe5ff0ef	jal	x1,80002918	  x1=0x80002918
       51905000	      5189	00000000	00000013	addi	x0,x0,0	  x0:0x00000000
       51915000	      5190	800028f8	00000013	addi	x0,x0,0	  x0:0x00000000
       51925000	      5191	800028fc	028002ef	jal	x5,800028fc	  x5=0x800028fc
       51935000	      5192	00000000	00000013	addi	x0,x0,0	  x0:0x00000000
       51945000	      5193	80002920	00000013	addi	x0,x0,0	  x0:0x00000000
       51955000	      5194	80002924	fcdff36f	jal	x6,80002924	  x6=0x80002924
       51965000	      5195	00000000	00000013	addi	x0,x0,0	  x0:0x00000000
       51975000	      5196	800028ec	00000013	addi	x0,x0,0	  x0:0x00000000
       51985000	      5197	800028f0	fedff66f	jal	x12,800028f0	 x12=0x800028f0
       51995000	      5198	00000000	00000013	addi	x0,x0,0	  x0:0x00000000
       52005000	      5199	800028d8	00000013	addi	x0,x0,0	  x0:0x00000000
       52015000	      5200	800028dc	0380036f	jal	x6,800028dc	  x6=0x800028dc
       52025000	      5201	00000000	00000013	addi	x0,x0,0	  x0:0x00000000
       52035000	      5202	80002910	00000013	addi	x0,x0,0	  x0:0x00000000
       52045000	      5203	80002914	fbdff0ef	jal	x1,80002914	  x1=0x80002914
       52055000	      5204	00000000	00000013	addi	x0,x0,0	  x0:0x00000000
       52065000	      5205	800028cc	00000013	addi	x0,x0,0	  x0:0x00000000
       52075000	      5206	800028d0	0180036f	jal	x6,800028d0	  x6=0x800028d0
       52085000	      5207	00000000	00000013	addi	x0,x0,0	  x0:0x00000000
       52095000	      5208	800028e4	00000013	addi	x0,x0,0	  x0:0x00000000
       52105000	      5209	800028e8	0380016f	jal	x2,800028e8	  x2=0x800028e8
       52115000	      5210	00000000	00000013	addi	x0,x0,0	  x0:0x00000000
       52125000	      5211	8000291c	00000013	addi	x0,x0,0	  x0:0x00000000
       52135000	      5212	80002920	fb9ff0ef	jal	x1,80002920	  x1=0x80002920
       52145000	      5213	00000000	00000013	addi	x0,x0,0	  x0:0x00000000
       52155000	      5214	800028d4	00000013	addi	x0,x0,0	  x0:0x00000000
       52165000	      5215	800028d8	0140026f	jal	x4,800028d8	  x4=0x800028d8
       52175000	      5216	00000000	00000013	addi	x0,x0,0	  x0:0x00000000
       52185000	      5217	800028e8	00000013	addi	x0,x0,0	  x0:0x00000000
       52195000	      5218	800028ec	ff9ff36f	jal	x6,800028ec	  x6=0x800028ec
       52205000	      5219	00000000	00000013	addi	x0,x0,0	  x0:0x00000000
       52215000	      5220	800028e0	00000013	addi	x0,x0,0	  x0:0x00000000
       52225000	      5221	800028e4	014000ef	jal	x1,800028e4	  x1=0x800028e4
       52235000	      5222	00000000	00000013	addi	x0,x0,0	  x0:0x00000000
       52245000	      5223	800028f4	00000013	addi	x0,x0,0	  x0:0x00000000
       52255000	      5224	800028f8	fddff4ef	jal	x9,800028f8	  x9=0x800028f8
       52265000	      5225	00000000	00000013	addi	x0,x0,0	  x0:0x00000000
       52275000	      5226	800028d0	00000013	addi	x0,x0,0	  x0:0x00000000
       52285000	      5227	800028d4	04800d6f	jal	x26,800028d4	 x26=0x800028d4
       52295000	      5228	00000000	00000013	addi	x0,x0,0	  x0:0x00000000
       52305000	      5229	80002918	00000013	addi	x0,x0,0	  x0:0x00000000
       52315000	      5230	8000291c	fedffaef	jal	x21,8000291c	 x21=0x8000291c
       52325000	      5231	00000000	00000013	addi	x0,x0,0	  x0:0x00000000
       52335000	      5232	80002904	00000013	addi	x0,x0,0	  x0:0x00000000
       52345000	      5233	80002908	fbdff0ef	jal	x1,80002908	  x1=0x80002908
       52355000	      5234	00000000	00000013	addi	x0,x0,0	  x0:0x00000000
       52365000	      5235	800028c0	00000013	addi	x0,x0,0	  x0:0x00000000
       52375000	      5236	800028c4	00800d6f	jal	x26,800028c4	 x26=0x800028c4
       52385000	      5237	00000000	00000013	addi	x0,x0,0	  x0:0x00000000
       52395000	      5238	800028c8	00000013	addi	x0,x0,0	  x0:0x00000000
       52405000	      5239	800028cc	fe5ff36f	jal	x6,800028cc	  x6=0x800028cc
       52415000	      5240	00000000	00000013	addi	x0,x0,0	  x0:0x00000000
       52425000	      5241	800028ac	00000013	addi	x0,x0,0	  x0:0x00000000
       52435000	      5242	800028b0	00c000ef	jal	x1,800028b0	  x1=0x800028b0
       52445000	      5243	00000000	00000013	addi	x0,x0,0	  x0:0x00000000
       52455000	      5244	800028b8	00000013	addi	x0,x0,0	  x0:0x00000000
       52465000	      5245	800028bc	05400b6f	jal	x22,800028bc	 x22=0x800028bc
       52475000	      5246	00000000	00000013	addi	x0,x0,0	  x0:0x00000000
       52485000	      5247	8000290c	00000013	addi	x0,x0,0	  x0:0x00000000
       52495000	      5248	80002910	fb9ff4ef	jal	x9,80002910	  x9=0x80002910
       52505000	      5249	00000000	00000013	addi	x0,x0,0	  x0:0x00000000
       52515000	      5250	800028c4	00000013	addi	x0,x0,0	  x0:0x00000000
       52525000	      5251	800028c8	03c0036f	jal	x6,800028c8	  x6=0x800028c8
       52535000	      5252	00000000	00000013	addi	x0,x0,0	  x0:0x00000000
       52545000	      5253	80002900	00000013	addi	x0,x0,0	  x0:0x00000000
       52555000	      5254	80002904	fddff0ef	jal	x1,80002904	  x1=0x80002904
       52565000	      5255	00000000	00000013	addi	x0,x0,0	  x0:0x00000000
       52575000	      5256	800028dc	00000013	addi	x0,x0,0	  x0:0x00000000
       52585000	      5257	800028e0	0200086f	jal	x16,800028e0	 x16=0x800028e0
       52595000	      5258	00000000	00000013	addi	x0,x0,0	  x0:0x00000000
       52605000	      5259	800028fc	00000013	addi	x0,x0,0	  x0:0x00000000
       52615000	      5260	80002900	fc1ff0ef	jal	x1,80002900	  x1=0x80002900
       52625000	      5261	00000000	00000013	addi	x0,x0,0	  x0:0x00000000
       52635000	      5262	800028bc	00000013	addi	x0,x0,0	  x0:0x00000000
       52645000	      5263	800028c0	ff5ff0ef	jal	x1,800028c0	  x1=0x800028c0
       52655000	      5264	00000000	00000013	addi	x0,x0,0	  x0:0x00000000
       52665000	      5265	800028b0	00000013	addi	x0,x0,0	  x0:0x00000000
       52675000	      5266	800028b4	04000e6f	jal	x28,800028b4	 x28=0x800028b4
       52685000	      5267	00000000	00000013	addi	x0,x0,0	  x0:0x00000000
       52695000	      5268	800028f0	00000013	addi	x0,x0,0	  x0:0x00000000
       52705000	      5269	800028f4	fc5ffcef	jal	x25,800028f4	 x25=0x800028f4
       52715000	      5270	00000000	00000013	addi	x0,x0,0	  x0:0x00000000
       52725000	      5271	800028b4	00000013	addi	x0,x0,0	  x0:0x00000000
       52735000	      5272	800028b8	05400aef	jal	x21,800028b8	 x21=0x800028b8
       52745000	      5273	00000000	00000013	addi	x0,x0,0	  x0:0x00000000
       52755000	      5274	80002908	00000013	addi	x0,x0,0	  x0:0x00000000
       52765000	      5275	8000290c	01c000ef	jal	x1,8000290c	  x1=0x8000290c
       52775000	      5276	00000000	00000013	addi	x0,x0,0	  x0:0x00000000
       52785000	      5277	80002924	00000013	addi	x0,x0,0	  x0:0x00000000
       52795000	      5278	80002928	0f006813	ori	x16,x0,240	  x0:0x00000000 x16=0x000000f0
       52805000	      5279	8000292c	004000ef	jal	x1,8000292c	  x1=0x8000292c
       52815000	      5280	00000000	00000013	addi	x0,x0,0	  x0:0x00000000
       52825000	      5281	8000292c	00000013	addi	x0,x0,0	  x0:0x00000000
       52835000	      5282	80002930	004000ef	jal	x1,80002930	  x1=0x80002930
       52845000	      5283	00000000	00000013	addi	x0,x0,0	  x0:0x00000000
       52855000	      5284	80002930	00000013	addi	x0,x0,0	  x0:0x00000000
       52865000	      5285	80002934	0540016f	jal	x2,80002934	  x2=0x80002934
       52875000	      5286	00000000	00000013	addi	x0,x0,0	  x0:0x00000000
       52885000	      5287	80002984	00000013	addi	x0,x0,0	  x0:0x00000000
       52895000	      5288	80002988	ff1ff0ef	jal	x1,80002988	  x1=0x80002988
       52905000	      5289	00000000	00000013	addi	x0,x0,0	  x0:0x00000000
       52915000	      5290	80002974	00000013	addi	x0,x0,0	  x0:0x00000000
       52925000	      5291	80002978	fd1ff0ef	jal	x1,80002978	  x1=0x80002978
       52935000	      5292	00000000	00000013	addi	x0,x0,0	  x0:0x00000000
       52945000	      5293	80002944	00000013	addi	x0,x0,0	  x0:0x00000000
       52955000	      5294	80002948	024000ef	jal	x1,80002948	  x1=0x80002948
       52965000	      5295	00000000	00000013	addi	x0,x0,0	  x0:0x00000000
       52975000	      5296	80002968	00000013	addi	x0,x0,0	  x0:0x00000000
       52985000	      5297	8000296c	0280036f	jal	x6,8000296c	  x6=0x8000296c
       52995000	      5298	00000000	00000013	addi	x0,x0,0	  x0:0x00000000
       53005000	      5299	80002990	00000013	addi	x0,x0,0	  x0:0x00000000
       53015000	      5300	80002994	ffdff0ef	jal	x1,80002994	  x1=0x80002994
       53025000	      5301	00000000	00000013	addi	x0,x0,0	  x0:0x00000000
       53035000	      5302	8000298c	00000013	addi	x0,x0,0	  x0:0x00000000
       53045000	      5303	80002990	fc5ff16f	jal	x2,80002990	  x2=0x80002990
       53055000	      5304	00000000	00000013	addi	x0,x0,0	  x0:0x00000000
       53065000	      5305	80002950	00000013	addi	x0,x0,0	  x0:0x00000000
       53075000	      5306	80002954	0300036f	jal	x6,80002954	  x6=0x80002954
       53085000	      5307	00000000	00000013	addi	x0,x0,0	  x0:0x00000000
       53095000	      5308	80002980	00000013	addi	x0,x0,0	  x0:0x00000000
       53105000	      5309	80002984	fc9ff36f	jal	x6,80002984	  x6=0x80002984
       53115000	      5310	00000000	00000013	addi	x0,x0,0	  x0:0x00000000
       53125000	      5311	80002948	00000013	addi	x0,x0,0	  x0:0x00000000
       53135000	      5312	8000294c	0280036f	jal	x6,8000294c	  x6=0x8000294c
       53145000	      5313	00000000	00000013	addi	x0,x0,0	  x0:0x00000000
       53155000	      5314	80002970	00000013	addi	x0,x0,0	  x0:0x00000000
       53165000	      5315	80002974	ff1ffc6f	jal	x24,80002974	 x24=0x80002974
       53175000	      5316	00000000	00000013	addi	x0,x0,0	  x0:0x00000000
       53185000	      5317	80002960	00000013	addi	x0,x0,0	  x0:0x00000000
       53195000	      5318	80002964	018000ef	jal	x1,80002964	  x1=0x80002964
       53205000	      5319	00000000	00000013	addi	x0,x0,0	  x0:0x00000000
       53215000	      5320	80002978	00000013	addi	x0,x0,0	  x0:0x00000000
       53225000	      5321	8000297c	ff5ff36f	jal	x6,8000297c	  x6=0x8000297c
       53235000	      5322	00000000	00000013	addi	x0,x0,0	  x0:0x00000000
       53245000	      5323	8000296c	00000013	addi	x0,x0,0	  x0:0x00000000
       53255000	      5324	80002970	fd5ff0ef	jal	x1,80002970	  x1=0x80002970
       53265000	      5325	00000000	00000013	addi	x0,x0,0	  x0:0x00000000
       53275000	      5326	80002940	00000013	addi	x0,x0,0	  x0:0x00000000
       53285000	      5327	80002944	03c001ef	jal	x3,80002944	  x3=0x80002944
       53295000	      5328	00000000	00000013	addi	x0,x0,0	  x0:0x00000000
       53305000	      5329	8000297c	00000013	addi	x0,x0,0	  x0:0x00000000
       53315000	      5330	80002980	fb9ff1ef	jal	x3,80002980	  x3=0x80002980
       53325000	      5331	00000000	00000013	addi	x0,x0,0	  x0:0x00000000
       53335000	      5332	80002934	00000013	addi	x0,x0,0	  x0:0x00000000
       53345000	      5333	80002938	0540036f	jal	x6,80002938	  x6=0x80002938
       53355000	      5334	00000000	00000013	addi	x0,x0,0	  x0:0x00000000
       53365000	      5335	80002988	00000013	addi	x0,x0,0	  x0:0x00000000
       53375000	      5336	8000298c	fd1ff0ef	jal	x1,8000298c	  x1=0x8000298c
       53385000	      5337	00000000	00000013	addi	x0,x0,0	  x0:0x00000000
       53395000	      5338	80002958	00000013	addi	x0,x0,0	  x0:0x00000000
       53405000	      5339	8000295c	ff5ff0ef	jal	x1,8000295c	  x1=0x8000295c
       53415000	      5340	00000000	00000013	addi	x0,x0,0	  x0:0x00000000
       53425000	      5341	8000294c	00000013	addi	x0,x0,0	  x0:0x00000000
       53435000	      5342	80002950	010000ef	jal	x1,80002950	  x1=0x80002950
       53445000	      5343	00000000	00000013	addi	x0,x0,0	  x0:0x00000000
       53455000	      5344	8000295c	00000013	addi	x0,x0,0	  x0:0x00000000
       53465000	      5345	80002960	008000ef	jal	x1,80002960	  x1=0x80002960
       53475000	      5346	00000000	00000013	addi	x0,x0,0	  x0:0x00000000
       53485000	      5347	80002964	00000013	addi	x0,x0,0	  x0:0x00000000
       53495000	      5348	80002968	fd9ffaef	jal	x21,80002968	 x21=0x80002968
       53505000	      5349	00000000	00000013	addi	x0,x0,0	  x0:0x00000000
       53515000	      5350	8000293c	00000013	addi	x0,x0,0	  x0:0x00000000
       53525000	      5351	80002940	0180036f	jal	x6,80002940	  x6=0x80002940
       53535000	      5352	00000000	00000013	addi	x0,x0,0	  x0:0x00000000
       53545000	      5353	80002954	00000013	addi	x0,x0,0	  x0:0x00000000
       53555000	      5354	80002958	fe5ff0ef	jal	x1,80002958	  x1=0x80002958
       53565000	      5355	00000000	00000013	addi	x0,x0,0	  x0:0x00000000
       53575000	      5356	80002938	00000013	addi	x0,x0,0	  x0:0x00000000
       53585000	      5357	8000293c	05c0036f	jal	x6,8000293c	  x6=0x8000293c
       53595000	      5358	00000000	00000013	addi	x0,x0,0	  x0:0x00000000
       53605000	      5359	80002994	00000013	addi	x0,x0,0	  x0:0x00000000
       53615000	      5360	80002998	00df13b3	sll	x7,x30,x13	 x30:0x000000f3 x13:0x00000001  x7=0x000001e6
       53625000	      5361	8000299c	03c000ef	jal	x1,8000299c	  x1=0x8000299c
       53635000	      5362	00000000	00000013	addi	x0,x0,0	  x0:0x00000000
       53645000	      5363	800029d4	00000013	addi	x0,x0,0	  x0:0x00000000
       53655000	      5364	800029d8	ff5ff0ef	jal	x1,800029d8	  x1=0x800029d8
       53665000	      5365	00000000	00000013	addi	x0,x0,0	  x0:0x00000000
       53675000	      5366	800029c8	00000013	addi	x0,x0,0	  x0:0x00000000
       53685000	      5367	800029cc	ff1ff0ef	jal	x1,800029cc	  x1=0x800029cc
       53695000	      5368	00000000	00000013	addi	x0,x0,0	  x0:0x00000000
       53705000	      5369	800029b8	00000013	addi	x0,x0,0	  x0:0x00000000
       53715000	      5370	800029bc	008000ef	jal	x1,800029bc	  x1=0x800029bc
       53725000	      5371	00000000	00000013	addi	x0,x0,0	  x0:0x00000000
       53735000	      5372	800029c0	00000013	addi	x0,x0,0	  x0:0x00000000
       53745000	      5373	800029c4	ffdff1ef	jal	x3,800029c4	  x3=0x800029c4
       53755000	      5374	00000000	00000013	addi	x0,x0,0	  x0:0x00000000
       53765000	      5375	800029bc	00000013	addi	x0,x0,0	  x0:0x00000000
       53775000	      5376	800029c0	ff1ffeef	jal	x29,800029c0	 x29=0x800029c0
       53785000	      5377	00000000	00000013	addi	x0,x0,0	  x0:0x00000000
       53795000	      5378	800029ac	00000013	addi	x0,x0,0	  x0:0x00000000
       53805000	      5379	800029b0	0040016f	jal	x2,800029b0	  x2=0x800029b0
       53815000	      5380	00000000	00000013	addi	x0,x0,0	  x0:0x00000000
       53825000	      5381	800029b0	00000013	addi	x0,x0,0	  x0:0x00000000
       53835000	      5382	800029b4	020000ef	jal	x1,800029b4	  x1=0x800029b4
       53845000	      5383	00000000	00000013	addi	x0,x0,0	  x0:0x00000000
       53855000	      5384	800029d0	00000013	addi	x0,x0,0	  x0:0x00000000
       53865000	      5385	800029d4	fd1ffeef	jal	x29,800029d4	 x29=0x800029d4
       53875000	      5386	00000000	00000013	addi	x0,x0,0	  x0:0x00000000
       53885000	      5387	800029a0	00000013	addi	x0,x0,0	  x0:0x00000000
       53895000	      5388	800029a4	ffdff0ef	jal	x1,800029a4	  x1=0x800029a4
       53905000	      5389	00000000	00000013	addi	x0,x0,0	  x0:0x00000000
       53915000	      5390	8000299c	00000013	addi	x0,x0,0	  x0:0x00000000
       53925000	      5391	800029a0	018000ef	jal	x1,800029a0	  x1=0x800029a0
       53935000	      5392	00000000	00000013	addi	x0,x0,0	  x0:0x00000000
       53945000	      5393	800029b4	00000013	addi	x0,x0,0	  x0:0x00000000
       53955000	      5394	800029b8	024000ef	jal	x1,800029b8	  x1=0x800029b8
       53965000	      5395	00000000	00000013	addi	x0,x0,0	  x0:0x00000000
       53975000	      5396	800029d8	00000013	addi	x0,x0,0	  x0:0x00000000
       53985000	      5397	800029dc	fd1ff0ef	jal	x1,800029dc	  x1=0x800029dc
       53995000	      5398	00000000	00000013	addi	x0,x0,0	  x0:0x00000000
       54005000	      5399	800029a8	00000013	addi	x0,x0,0	  x0:0x00000000
       54015000	      5400	800029ac	024000ef	jal	x1,800029ac	  x1=0x800029ac
       54025000	      5401	00000000	00000013	addi	x0,x0,0	  x0:0x00000000
       54035000	      5402	800029cc	00000013	addi	x0,x0,0	  x0:0x00000000
       54045000	      5403	800029d0	ff9ff0ef	jal	x1,800029d0	  x1=0x800029d0
       54055000	      5404	00000000	00000013	addi	x0,x0,0	  x0:0x00000000
       54065000	      5405	800029c4	00000013	addi	x0,x0,0	  x0:0x00000000
       54075000	      5406	800029c8	fe1ff0ef	jal	x1,800029c8	  x1=0x800029c8
       54085000	      5407	00000000	00000013	addi	x0,x0,0	  x0:0x00000000
       54095000	      5408	800029a4	00000013	addi	x0,x0,0	  x0:0x00000000
       54105000	      5409	800029a8	038000ef	jal	x1,800029a8	  x1=0x800029a8
       54115000	      5410	00000000	00000013	addi	x0,x0,0	  x0:0x00000000
       54125000	      5411	800029dc	00000013	addi	x0,x0,0	  x0:0x00000000
       54135000	      5412	800029e0	854e3413	sltiu	x8,x28,-1964	 x28:0x800028b4  x8=0x00000001
       54145000	      5413	800029e4	02c000ef	jal	x1,800029e4	  x1=0x800029e4
       54155000	      5414	00000000	00000013	addi	x0,x0,0	  x0:0x00000000
       54165000	      5415	80002a0c	00000013	addi	x0,x0,0	  x0:0x00000000
       54175000	      5416	80002a10	fddff36f	jal	x6,80002a10	  x6=0x80002a10
       54185000	      5417	00000000	00000013	addi	x0,x0,0	  x0:0x00000000
       54195000	      5418	800029e8	00000013	addi	x0,x0,0	  x0:0x00000000
       54205000	      5419	800029ec	014000ef	jal	x1,800029ec	  x1=0x800029ec
       54215000	      5420	00000000	00000013	addi	x0,x0,0	  x0:0x00000000
       54225000	      5421	800029fc	00000013	addi	x0,x0,0	  x0:0x00000000
       54235000	      5422	80002a00	ff1ff0ef	jal	x1,80002a00	  x1=0x80002a00
       54245000	      5423	00000000	00000013	addi	x0,x0,0	  x0:0x00000000
       54255000	      5424	800029ec	00000013	addi	x0,x0,0	  x0:0x00000000
       54265000	      5425	800029f0	018000ef	jal	x1,800029f0	  x1=0x800029f0
       54275000	      5426	00000000	00000013	addi	x0,x0,0	  x0:0x00000000
       54285000	      5427	80002a04	00000013	addi	x0,x0,0	  x0:0x00000000
       54295000	      5428	80002a08	ffdff0ef	jal	x1,80002a08	  x1=0x80002a08
       54305000	      5429	00000000	00000013	addi	x0,x0,0	  x0:0x00000000
       54315000	      5430	80002a00	00000013	addi	x0,x0,0	  x0:0x00000000
       54325000	      5431	80002a04	ff5ff0ef	jal	x1,80002a04	  x1=0x80002a04
       54335000	      5432	00000000	00000013	addi	x0,x0,0	  x0:0x00000000
       54345000	      5433	800029f4	00000013	addi	x0,x0,0	  x0:0x00000000
       54355000	      5434	800029f8	01c00e6f	jal	x28,800029f8	 x28=0x800029f8
       54365000	      5435	00000000	00000013	addi	x0,x0,0	  x0:0x00000000
       54375000	      5436	80002a10	00000013	addi	x0,x0,0	  x0:0x00000000
       54385000	      5437	80002a14	ff9ff0ef	jal	x1,80002a14	  x1=0x80002a14
       54395000	      5438	00000000	00000013	addi	x0,x0,0	  x0:0x00000000
       54405000	      5439	80002a08	00000013	addi	x0,x0,0	  x0:0x00000000
       54415000	      5440	80002a0c	ff1ffdef	jal	x27,80002a0c	 x27=0x80002a0c
       54425000	      5441	00000000	00000013	addi	x0,x0,0	  x0:0x00000000
       54435000	      5442	800029f8	00000013	addi	x0,x0,0	  x0:0x00000000
       54445000	      5443	800029fc	fedff0ef	jal	x1,800029fc	  x1=0x800029fc
       54455000	      5444	00000000	00000013	addi	x0,x0,0	  x0:0x00000000
       54465000	      5445	800029e4	00000013	addi	x0,x0,0	  x0:0x00000000
       54475000	      5446	800029e8	00c0036f	jal	x6,800029e8	  x6=0x800029e8
       54485000	      5447	00000000	00000013	addi	x0,x0,0	  x0:0x00000000
       54495000	      5448	800029f0	00000013	addi	x0,x0,0	  x0:0x00000000
       54505000	      5449	800029f4	0240016f	jal	x2,800029f4	  x2=0x800029f4
       54515000	      5450	00000000	00000013	addi	x0,x0,0	  x0:0x00000000
       54525000	      5451	80002a14	00000013	addi	x0,x0,0	  x0:0x00000000
       54535000	      5452	80002a18	004000ef	jal	x1,80002a18	  x1=0x80002a18
       54545000	      5453	00000000	00000013	addi	x0,x0,0	  x0:0x00000000
       54555000	      5454	80002a18	00000013	addi	x0,x0,0	  x0:0x00000000
       54565000	      5455	80002a1c	004000ef	jal	x1,80002a1c	  x1=0x80002a1c
       54575000	      5456	00000000	00000013	addi	x0,x0,0	  x0:0x00000000
       54585000	      5457	80002a1c	00000013	addi	x0,x0,0	  x0:0x00000000
       54595000	      5458	80002a20	1a0e4093	xori	x1,x28,416	 x28:0x800029f8  x1=0x80002858
       54605000	      5459	80002a24	018000ef	jal	x1,80002a24	  x1=0x80002a24
       54615000	      5460	00000000	00000013	addi	x0,x0,0	  x0:0x00000000
       54625000	      5461	80002a38	00000013	addi	x0,x0,0	  x0:0x00000000
       54635000	      5462	80002a3c	010000ef	jal	x1,80002a3c	  x1=0x80002a3c
       54645000	      5463	00000000	00000013	addi	x0,x0,0	  x0:0x00000000
       54655000	      5464	80002a48	00000013	addi	x0,x0,0	  x0:0x00000000
       54665000	      5465	80002a4c	fe5ff36f	jal	x6,80002a4c	  x6=0x80002a4c
       54675000	      5466	00000000	00000013	addi	x0,x0,0	  x0:0x00000000
       54685000	      5467	80002a2c	00000013	addi	x0,x0,0	  x0:0x00000000
       54695000	      5468	80002a30	ff9ff0ef	jal	x1,80002a30	  x1=0x80002a30
       54705000	      5469	00000000	00000013	addi	x0,x0,0	  x0:0x00000000
       54715000	      5470	80002a24	00000013	addi	x0,x0,0	  x0:0x00000000
       54725000	      5471	80002a28	018000ef	jal	x1,80002a28	  x1=0x80002a28
       54735000	      5472	00000000	00000013	addi	x0,x0,0	  x0:0x00000000
       54745000	      5473	80002a3c	00000013	addi	x0,x0,0	  x0:0x00000000
       54755000	      5474	80002a40	fedff36f	jal	x6,80002a40	  x6=0x80002a40
       54765000	      5475	00000000	00000013	addi	x0,x0,0	  x0:0x00000000
       54775000	      5476	80002a28	00000013	addi	x0,x0,0	  x0:0x00000000
       54785000	      5477	80002a2c	008000ef	jal	x1,80002a2c	  x1=0x80002a2c
       54795000	      5478	00000000	00000013	addi	x0,x0,0	  x0:0x00000000
       54805000	      5479	80002a30	00000013	addi	x0,x0,0	  x0:0x00000000
       54815000	      5480	80002a34	01c000ef	jal	x1,80002a34	  x1=0x80002a34
       54825000	      5481	00000000	00000013	addi	x0,x0,0	  x0:0x00000000
       54835000	      5482	80002a4c	00000013	addi	x0,x0,0	  x0:0x00000000
       54845000	      5483	80002a50	ff9ff36f	jal	x6,80002a50	  x6=0x80002a50
       54855000	      5484	00000000	00000013	addi	x0,x0,0	  x0:0x00000000
       54865000	      5485	80002a44	00000013	addi	x0,x0,0	  x0:0x00000000
       54875000	      5486	80002a48	ffdff2ef	jal	x5,80002a48	  x5=0x80002a48
       54885000	      5487	00000000	00000013	addi	x0,x0,0	  x0:0x00000000
       54895000	      5488	80002a40	00000013	addi	x0,x0,0	  x0:0x00000000
       54905000	      5489	80002a44	ff5ff0ef	jal	x1,80002a44	  x1=0x80002a44
       54915000	      5490	00000000	00000013	addi	x0,x0,0	  x0:0x00000000
       54925000	      5491	80002a34	00000013	addi	x0,x0,0	  x0:0x00000000
       54935000	      5492	80002a38	01c0036f	jal	x6,80002a38	  x6=0x80002a38
       54945000	      5493	00000000	00000013	addi	x0,x0,0	  x0:0x00000000
       54955000	      5494	80002a50	00000013	addi	x0,x0,0	  x0:0x00000000
       54965000	      5495	80002a54	004000ef	jal	x1,80002a54	  x1=0x80002a54
       54975000	      5496	00000000	00000013	addi	x0,x0,0	  x0:0x00000000
       54985000	      5497	80002a54	00000013	addi	x0,x0,0	  x0:0x00000000
       54995000	      5498	80002a58	8ecc7a37	lui	x20,0x8ecc7	 x20=0x8ecc7000
       55005000	      5499	80002a5c	028000ef	jal	x1,80002a5c	  x1=0x80002a5c
       55015000	      5500	00000000	00000013	addi	x0,x0,0	  x0:0x00000000
       55025000	      5501	80002a80	00000013	addi	x0,x0,0	  x0:0x00000000
       55035000	      5502	80002a84	048000ef	jal	x1,80002a84	  x1=0x80002a84
       55045000	      5503	00000000	00000013	addi	x0,x0,0	  x0:0x00000000
       55055000	      5504	80002ac8	00000013	addi	x0,x0,0	  x0:0x00000000
       55065000	      5505	80002acc	fd9ff0ef	jal	x1,80002acc	  x1=0x80002acc
       55075000	      5506	00000000	00000013	addi	x0,x0,0	  x0:0x00000000
       55085000	      5507	80002aa0	00000013	addi	x0,x0,0	  x0:0x00000000
       55095000	      5508	80002aa4	fe9ff6ef	jal	x13,80002aa4	 x13=0x80002aa4
       55105000	      5509	00000000	00000013	addi	x0,x0,0	  x0:0x00000000
       55115000	      5510	80002a88	00000013	addi	x0,x0,0	  x0:0x00000000
       55125000	      5511	80002a8c	ff5ff36f	jal	x6,80002a8c	  x6=0x80002a8c
       55135000	      5512	00000000	00000013	addi	x0,x0,0	  x0:0x00000000
       55145000	      5513	80002a7c	00000013	addi	x0,x0,0	  x0:0x00000000
       55155000	      5514	80002a80	030000ef	jal	x1,80002a80	  x1=0x80002a80
       55165000	      5515	00000000	00000013	addi	x0,x0,0	  x0:0x00000000
       55175000	      5516	80002aac	00000013	addi	x0,x0,0	  x0:0x00000000
       55185000	      5517	80002ab0	fb5ff5ef	jal	x11,80002ab0	 x11=0x80002ab0
       55195000	      5518	00000000	00000013	addi	x0,x0,0	  x0:0x00000000
       55205000	      5519	80002a60	00000013	addi	x0,x0,0	  x0:0x00000000
       55215000	      5520	80002a64	0180036f	jal	x6,80002a64	  x6=0x80002a64
       55225000	      5521	00000000	00000013	addi	x0,x0,0	  x0:0x00000000
       55235000	      5522	80002a78	00000013	addi	x0,x0,0	  x0:0x00000000
       55245000	      5523	80002a7c	024007ef	jal	x15,80002a7c	 x15=0x80002a7c
       55255000	      5524	00000000	00000013	addi	x0,x0,0	  x0:0x00000000
       55265000	      5525	80002a9c	00000013	addi	x0,x0,0	  x0:0x00000000
       55275000	      5526	80002aa0	fe9ff0ef	jal	x1,80002aa0	  x1=0x80002aa0
       55285000	      5527	00000000	00000013	addi	x0,x0,0	  x0:0x00000000
       55295000	      5528	80002a84	00000013	addi	x0,x0,0	  x0:0x00000000
       55305000	      5529	80002a88	008003ef	jal	x7,80002a88	  x7=0x80002a88
       55315000	      5530	00000000	00000013	addi	x0,x0,0	  x0:0x00000000
       55325000	      5531	80002a8c	00000013	addi	x0,x0,0	  x0:0x00000000
       55335000	      5532	80002a90	044000ef	jal	x1,80002a90	  x1=0x80002a90
       55345000	      5533	00000000	00000013	addi	x0,x0,0	  x0:0x00000000
       55355000	      5534	80002ad0	00000013	addi	x0,x0,0	  x0:0x00000000
       55365000	      5535	80002ad4	fedfffef	jal	x31,80002ad4	 x31=0x80002ad4
       55375000	      5536	00000000	00000013	addi	x0,x0,0	  x0:0x00000000
       55385000	      5537	80002abc	00000013	addi	x0,x0,0	  x0:0x00000000
       55395000	      5538	80002ac0	fddff36f	jal	x6,80002ac0	  x6=0x80002ac0
       55405000	      5539	00000000	00000013	addi	x0,x0,0	  x0:0x00000000
       55415000	      5540	80002a98	00000013	addi	x0,x0,0	  x0:0x00000000
       55425000	      5541	80002a9c	fcdffeef	jal	x29,80002a9c	 x29=0x80002a9c
       55435000	      5542	00000000	00000013	addi	x0,x0,0	  x0:0x00000000
       55445000	      5543	80002a64	00000013	addi	x0,x0,0	  x0:0x00000000
       55455000	      5544	80002a68	0680036f	jal	x6,80002a68	  x6=0x80002a68
       55465000	      5545	00000000	00000013	addi	x0,x0,0	  x0:0x00000000
       55475000	      5546	80002acc	00000013	addi	x0,x0,0	  x0:0x00000000
       55485000	      5547	80002ad0	fc9ff36f	jal	x6,80002ad0	  x6=0x80002ad0
       55495000	      5548	00000000	00000013	addi	x0,x0,0	  x0:0x00000000
       55505000	      5549	80002a94	00000013	addi	x0,x0,0	  x0:0x00000000
       55515000	      5550	80002a98	0240036f	jal	x6,80002a98	  x6=0x80002a98
       55525000	      5551	00000000	00000013	addi	x0,x0,0	  x0:0x00000000
       55535000	      5552	80002ab8	00000013	addi	x0,x0,0	  x0:0x00000000
       55545000	      5553	80002abc	fd9ffdef	jal	x27,80002abc	 x27=0x80002abc
       55555000	      5554	00000000	00000013	addi	x0,x0,0	  x0:0x00000000
       55565000	      5555	80002a90	00000013	addi	x0,x0,0	  x0:0x00000000
       55575000	      5556	80002a94	fe5ff0ef	jal	x1,80002a94	  x1=0x80002a94
       55585000	      5557	00000000	00000013	addi	x0,x0,0	  x0:0x00000000
       55595000	      5558	80002a74	00000013	addi	x0,x0,0	  x0:0x00000000
       55605000	      5559	80002a78	fe9ffc6f	jal	x24,80002a78	 x24=0x80002a78
       55615000	      5560	00000000	00000013	addi	x0,x0,0	  x0:0x00000000
       55625000	      5561	80002a5c	00000013	addi	x0,x0,0	  x0:0x00000000
       55635000	      5562	80002a60	0680086f	jal	x16,80002a60	 x16=0x80002a60
       55645000	      5563	00000000	00000013	addi	x0,x0,0	  x0:0x00000000
       55655000	      5564	80002ac4	00000013	addi	x0,x0,0	  x0:0x00000000
       55665000	      5565	80002ac8	fe5ff36f	jal	x6,80002ac8	  x6=0x80002ac8
       55675000	      5566	00000000	00000013	addi	x0,x0,0	  x0:0x00000000
       55685000	      5567	80002aa8	00000013	addi	x0,x0,0	  x0:0x00000000
       55695000	      5568	80002aac	fc9ff0ef	jal	x1,80002aac	  x1=0x80002aac
       55705000	      5569	00000000	00000013	addi	x0,x0,0	  x0:0x00000000
       55715000	      5570	80002a70	00000013	addi	x0,x0,0	  x0:0x00000000
       55725000	      5571	80002a74	ffdff0ef	jal	x1,80002a74	  x1=0x80002a74
       55735000	      5572	00000000	00000013	addi	x0,x0,0	  x0:0x00000000
       55745000	      5573	80002a6c	00000013	addi	x0,x0,0	  x0:0x00000000
       55755000	      5574	80002a70	038000ef	jal	x1,80002a70	  x1=0x80002a70
       55765000	      5575	00000000	00000013	addi	x0,x0,0	  x0:0x00000000
       55775000	      5576	80002aa4	00000013	addi	x0,x0,0	  x0:0x00000000
       55785000	      5577	80002aa8	010000ef	jal	x1,80002aa8	  x1=0x80002aa8
       55795000	      5578	00000000	00000013	addi	x0,x0,0	  x0:0x00000000
       55805000	      5579	80002ab4	00000013	addi	x0,x0,0	  x0:0x00000000
       55815000	      5580	80002ab8	00c001ef	jal	x3,80002ab8	  x3=0x80002ab8
       55825000	      5581	00000000	00000013	addi	x0,x0,0	  x0:0x00000000
       55835000	      5582	80002ac0	00000013	addi	x0,x0,0	  x0:0x00000000
       55845000	      5583	80002ac4	fa9ff5ef	jal	x11,80002ac4	 x11=0x80002ac4
       55855000	      5584	00000000	00000013	addi	x0,x0,0	  x0:0x00000000
       55865000	      5585	80002a68	00000013	addi	x0,x0,0	  x0:0x00000000
       55875000	      5586	80002a6c	04800eef	jal	x29,80002a6c	 x29=0x80002a6c
       55885000	      5587	00000000	00000013	addi	x0,x0,0	  x0:0x00000000
       55895000	      5588	80002ab0	00000013	addi	x0,x0,0	  x0:0x00000000
       55905000	      5589	80002ab4	024000ef	jal	x1,80002ab4	  x1=0x80002ab4
       55915000	      5590	00000000	00000013	addi	x0,x0,0	  x0:0x00000000
       55925000	      5591	80002ad4	00000013	addi	x0,x0,0	  x0:0x00000000
       55935000	      5592	80002ad8	00daa833	slt	x16,x21,x13	 x21:0x80002968 x13:0x80002aa4 x16=0x00000001
       55945000	      5593	80002adc	044000ef	jal	x1,80002adc	  x1=0x80002adc
       55955000	      5594	00000000	00000013	addi	x0,x0,0	  x0:0x00000000
       55965000	      5595	80002b1c	00000013	addi	x0,x0,0	  x0:0x00000000
       55975000	      5596	80002b20	01400a6f	jal	x20,80002b20	 x20=0x80002b20
       55985000	      5597	00000000	00000013	addi	x0,x0,0	  x0:0x00000000
       55995000	      5598	80002b30	00000013	addi	x0,x0,0	  x0:0x00000000
       56005000	      5599	80002b34	ff5ff36f	jal	x6,80002b34	  x6=0x80002b34
       56015000	      5600	00000000	00000013	addi	x0,x0,0	  x0:0x00000000
       56025000	      5601	80002b24	00000013	addi	x0,x0,0	  x0:0x00000000
       56035000	      5602	80002b28	ff1ff26f	jal	x4,80002b28	  x4=0x80002b28
       56045000	      5603	00000000	00000013	addi	x0,x0,0	  x0:0x00000000
       56055000	      5604	80002b14	00000013	addi	x0,x0,0	  x0:0x00000000
       56065000	      5605	80002b18	0040036f	jal	x6,80002b18	  x6=0x80002b18
       56075000	      5606	00000000	00000013	addi	x0,x0,0	  x0:0x00000000
       56085000	      5607	80002b18	00000013	addi	x0,x0,0	  x0:0x00000000
       56095000	      5608	80002b1c	01c00e6f	jal	x28,80002b1c	 x28=0x80002b1c
       56105000	      5609	00000000	00000013	addi	x0,x0,0	  x0:0x00000000
       56115000	      5610	80002b34	00000013	addi	x0,x0,0	  x0:0x00000000
       56125000	      5611	80002b38	fd5fffef	jal	x31,80002b38	 x31=0x80002b38
       56135000	      5612	00000000	00000013	addi	x0,x0,0	  x0:0x00000000
       56145000	      5613	80002b08	00000013	addi	x0,x0,0	  x0:0x00000000
       56155000	      5614	80002b0c	fddff36f	jal	x6,80002b0c	  x6=0x80002b0c
       56165000	      5615	00000000	00000013	addi	x0,x0,0	  x0:0x00000000
       56175000	      5616	80002ae4	00000013	addi	x0,x0,0	  x0:0x00000000
       56185000	      5617	80002ae8	010002ef	jal	x5,80002ae8	  x5=0x80002ae8
       56195000	      5618	00000000	00000013	addi	x0,x0,0	  x0:0x00000000
       56205000	      5619	80002af4	00000013	addi	x0,x0,0	  x0:0x00000000
       56215000	      5620	80002af8	ffdff0ef	jal	x1,80002af8	  x1=0x80002af8
       56225000	      5621	00000000	00000013	addi	x0,x0,0	  x0:0x00000000
       56235000	      5622	80002af0	00000013	addi	x0,x0,0	  x0:0x00000000
       56245000	      5623	80002af4	fedff36f	jal	x6,80002af4	  x6=0x80002af4
       56255000	      5624	00000000	00000013	addi	x0,x0,0	  x0:0x00000000
       56265000	      5625	80002adc	00000013	addi	x0,x0,0	  x0:0x00000000
       56275000	      5626	80002ae0	04400fef	jal	x31,80002ae0	 x31=0x80002ae0
       56285000	      5627	00000000	00000013	addi	x0,x0,0	  x0:0x00000000
       56295000	      5628	80002b20	00000013	addi	x0,x0,0	  x0:0x00000000
       56305000	      5629	80002b24	fc9ff0ef	jal	x1,80002b24	  x1=0x80002b24
       56315000	      5630	00000000	00000013	addi	x0,x0,0	  x0:0x00000000
       56325000	      5631	80002ae8	00000013	addi	x0,x0,0	  x0:0x00000000
       56335000	      5632	80002aec	01c00d6f	jal	x26,80002aec	 x26=0x80002aec
       56345000	      5633	00000000	00000013	addi	x0,x0,0	  x0:0x00000000
       56355000	      5634	80002b04	00000013	addi	x0,x0,0	  x0:0x00000000
       56365000	      5635	80002b08	ff9ff0ef	jal	x1,80002b08	  x1=0x80002b08
       56375000	      5636	00000000	00000013	addi	x0,x0,0	  x0:0x00000000
       56385000	      5637	80002afc	00000013	addi	x0,x0,0	  x0:0x00000000
       56395000	      5638	80002b00	fe5ffeef	jal	x29,80002b00	 x29=0x80002b00
       56405000	      5639	00000000	00000013	addi	x0,x0,0	  x0:0x00000000
       56415000	      5640	80002ae0	00000013	addi	x0,x0,0	  x0:0x00000000
       56425000	      5641	80002ae4	03000aef	jal	x21,80002ae4	 x21=0x80002ae4
       56435000	      5642	00000000	00000013	addi	x0,x0,0	  x0:0x00000000
       56445000	      5643	80002b10	00000013	addi	x0,x0,0	  x0:0x00000000
       56455000	      5644	80002b14	ffdff0ef	jal	x1,80002b14	  x1=0x80002b14
       56465000	      5645	00000000	00000013	addi	x0,x0,0	  x0:0x00000000
       56475000	      5646	80002b0c	00000013	addi	x0,x0,0	  x0:0x00000000
       56485000	      5647	80002b10	ff5ff0ef	jal	x1,80002b10	  x1=0x80002b10
       56495000	      5648	00000000	00000013	addi	x0,x0,0	  x0:0x00000000
       56505000	      5649	80002b00	00000013	addi	x0,x0,0	  x0:0x00000000
       56515000	      5650	80002b04	02c0036f	jal	x6,80002b04	  x6=0x80002b04
       56525000	      5651	00000000	00000013	addi	x0,x0,0	  x0:0x00000000
       56535000	      5652	80002b2c	00000013	addi	x0,x0,0	  x0:0x00000000
       56545000	      5653	80002b30	ffdff36f	jal	x6,80002b30	  x6=0x80002b30
       56555000	      5654	00000000	00000013	addi	x0,x0,0	  x0:0x00000000
       56565000	      5655	80002b28	00000013	addi	x0,x0,0	  x0:0x00000000
       56575000	      5656	80002b2c	fc5ff36f	jal	x6,80002b2c	  x6=0x80002b2c
       56585000	      5657	00000000	00000013	addi	x0,x0,0	  x0:0x00000000
       56595000	      5658	80002aec	00000013	addi	x0,x0,0	  x0:0x00000000
       56605000	      5659	80002af0	00c000ef	jal	x1,80002af0	  x1=0x80002af0
       56615000	      5660	00000000	00000013	addi	x0,x0,0	  x0:0x00000000
       56625000	      5661	80002af8	00000013	addi	x0,x0,0	  x0:0x00000000
       56635000	      5662	80002afc	040009ef	jal	x19,80002afc	 x19=0x80002afc
       56645000	      5663	00000000	00000013	addi	x0,x0,0	  x0:0x00000000
       56655000	      5664	80002b38	00000013	addi	x0,x0,0	  x0:0x00000000
       56665000	      5665	80002b3c	018e95b3	sll	x11,x29,x24	 x29:0x80002b00 x24:0x80002a78 x11=0x00000000
       56675000	      5666	80002b40	034000ef	jal	x1,80002b40	  x1=0x80002b40
       56685000	      5667	00000000	00000013	addi	x0,x0,0	  x0:0x00000000
       56695000	      5668	80002b70	00000013	addi	x0,x0,0	  x0:0x00000000
       56705000	      5669	80002b74	ff9ff16f	jal	x2,80002b74	  x2=0x80002b74
       56715000	      5670	00000000	00000013	addi	x0,x0,0	  x0:0x00000000
       56725000	      5671	80002b68	00000013	addi	x0,x0,0	  x0:0x00000000
       56735000	      5672	80002b6c	fddff0ef	jal	x1,80002b6c	  x1=0x80002b6c
       56745000	      5673	00000000	00000013	addi	x0,x0,0	  x0:0x00000000
       56755000	      5674	80002b44	00000013	addi	x0,x0,0	  x0:0x00000000
       56765000	      5675	80002b48	044000ef	jal	x1,80002b48	  x1=0x80002b48
       56775000	      5676	00000000	00000013	addi	x0,x0,0	  x0:0x00000000
       56785000	      5677	80002b88	00000013	addi	x0,x0,0	  x0:0x00000000
       56795000	      5678	80002b8c	fd5ff0ef	jal	x1,80002b8c	  x1=0x80002b8c
       56805000	      5679	00000000	00000013	addi	x0,x0,0	  x0:0x00000000
       56815000	      5680	80002b5c	00000013	addi	x0,x0,0	  x0:0x00000000
       56825000	      5681	80002b60	fedffeef	jal	x29,80002b60	 x29=0x80002b60
       56835000	      5682	00000000	00000013	addi	x0,x0,0	  x0:0x00000000
       56845000	      5683	80002b48	00000013	addi	x0,x0,0	  x0:0x00000000
       56855000	      5684	80002b4c	02c000ef	jal	x1,80002b4c	  x1=0x80002b4c
       56865000	      5685	00000000	00000013	addi	x0,x0,0	  x0:0x00000000
       56875000	      5686	80002b74	00000013	addi	x0,x0,0	  x0:0x00000000
       56885000	      5687	80002b78	fe5ff46f	jal	x8,80002b78	  x8=0x80002b78
       56895000	      5688	00000000	00000013	addi	x0,x0,0	  x0:0x00000000
       56905000	      5689	80002b58	00000013	addi	x0,x0,0	  x0:0x00000000
       56915000	      5690	80002b5c	02800b6f	jal	x22,80002b5c	 x22=0x80002b5c
       56925000	      5691	00000000	00000013	addi	x0,x0,0	  x0:0x00000000
       56935000	      5692	80002b80	00000013	addi	x0,x0,0	  x0:0x00000000
       56945000	      5693	80002b84	fc1ffb6f	jal	x22,80002b84	 x22=0x80002b84
       56955000	      5694	00000000	00000013	addi	x0,x0,0	  x0:0x00000000
       56965000	      5695	80002b40	00000013	addi	x0,x0,0	  x0:0x00000000
       56975000	      5696	80002b44	00c0016f	jal	x2,80002b44	  x2=0x80002b44
       56985000	      5697	00000000	00000013	addi	x0,x0,0	  x0:0x00000000
       56995000	      5698	80002b4c	00000013	addi	x0,x0,0	  x0:0x00000000
       57005000	      5699	80002b50	02c0036f	jal	x6,80002b50	  x6=0x80002b50
       57015000	      5700	00000000	00000013	addi	x0,x0,0	  x0:0x00000000
       57025000	      5701	80002b78	00000013	addi	x0,x0,0	  x0:0x00000000
       57035000	      5702	80002b7c	fd9ffeef	jal	x29,80002b7c	 x29=0x80002b7c
       57045000	      5703	00000000	00000013	addi	x0,x0,0	  x0:0x00000000
       57055000	      5704	80002b50	00000013	addi	x0,x0,0	  x0:0x00000000
       57065000	      5705	80002b54	010000ef	jal	x1,80002b54	  x1=0x80002b54
       57075000	      5706	00000000	00000013	addi	x0,x0,0	  x0:0x00000000
       57085000	      5707	80002b60	00000013	addi	x0,x0,0	  x0:0x00000000
       57095000	      5708	80002b64	00c00c6f	jal	x24,80002b64	 x24=0x80002b64
       57105000	      5709	00000000	00000013	addi	x0,x0,0	  x0:0x00000000
       57115000	      5710	80002b6c	00000013	addi	x0,x0,0	  x0:0x00000000
       57125000	      5711	80002b70	010000ef	jal	x1,80002b70	  x1=0x80002b70
       57135000	      5712	00000000	00000013	addi	x0,x0,0	  x0:0x00000000
       57145000	      5713	80002b7c	00000013	addi	x0,x0,0	  x0:0x00000000
       57155000	      5714	80002b80	00800a6f	jal	x20,80002b80	 x20=0x80002b80
       57165000	      5715	00000000	00000013	addi	x0,x0,0	  x0:0x00000000
       57175000	      5716	80002b84	00000013	addi	x0,x0,0	  x0:0x00000000
       57185000	      5717	80002b88	fe1ff0ef	jal	x1,80002b88	  x1=0x80002b88
       57195000	      5718	00000000	00000013	addi	x0,x0,0	  x0:0x00000000
       57205000	      5719	80002b64	00000013	addi	x0,x0,0	  x0:0x00000000
       57215000	      5720	80002b68	ff1fffef	jal	x31,80002b68	 x31=0x80002b68
       57225000	      5721	00000000	00000013	addi	x0,x0,0	  x0:0x00000000
       57235000	      5722	80002b54	00000013	addi	x0,x0,0	  x0:0x00000000
       57245000	      5723	80002b58	038000ef	jal	x1,80002b58	  x1=0x80002b58
       57255000	      5724	00000000	00000013	addi	x0,x0,0	  x0:0x00000000
       57265000	      5725	80002b8c	00000013	addi	x0,x0,0	  x0:0x00000000
       57275000	      5726	80002b90	3ca87993	andi	x19,x16,970	 x16:0x00000001 x19=0x00000000
       57285000	      5727	80002b94	03c000ef	jal	x1,80002b94	  x1=0x80002b94
       57295000	      5728	00000000	00000013	addi	x0,x0,0	  x0:0x00000000
       57305000	      5729	80002bcc	00000013	addi	x0,x0,0	  x0:0x00000000
       57315000	      5730	80002bd0	ff1ff0ef	jal	x1,80002bd0	  x1=0x80002bd0
       57325000	      5731	00000000	00000013	addi	x0,x0,0	  x0:0x00000000
       57335000	      5732	80002bbc	00000013	addi	x0,x0,0	  x0:0x00000000
       57345000	      5733	80002bc0	0080016f	jal	x2,80002bc0	  x2=0x80002bc0
       57355000	      5734	00000000	00000013	addi	x0,x0,0	  x0:0x00000000
       57365000	      5735	80002bc4	00000013	addi	x0,x0,0	  x0:0x00000000
       57375000	      5736	80002bc8	ffdff0ef	jal	x1,80002bc8	  x1=0x80002bc8
       57385000	      5737	00000000	00000013	addi	x0,x0,0	  x0:0x00000000
       57395000	      5738	80002bc0	00000013	addi	x0,x0,0	  x0:0x00000000
       57405000	      5739	80002bc4	fd9ff0ef	jal	x1,80002bc4	  x1=0x80002bc4
       57415000	      5740	00000000	00000013	addi	x0,x0,0	  x0:0x00000000
       57425000	      5741	80002b98	00000013	addi	x0,x0,0	  x0:0x00000000
       57435000	      5742	80002b9c	ffdff36f	jal	x6,80002b9c	  x6=0x80002b9c
       57445000	      5743	00000000	00000013	addi	x0,x0,0	  x0:0x00000000
       57455000	      5744	80002b94	00000013	addi	x0,x0,0	  x0:0x00000000
       57465000	      5745	80002b98	024000ef	jal	x1,80002b98	  x1=0x80002b98
       57475000	      5746	00000000	00000013	addi	x0,x0,0	  x0:0x00000000
       57485000	      5747	80002bb8	00000013	addi	x0,x0,0	  x0:0x00000000
       57495000	      5748	80002bbc	ff1ff3ef	jal	x7,80002bbc	  x7=0x80002bbc
       57505000	      5749	00000000	00000013	addi	x0,x0,0	  x0:0x00000000
       57515000	      5750	80002ba8	00000013	addi	x0,x0,0	  x0:0x00000000
       57525000	      5751	80002bac	ffdff96f	jal	x18,80002bac	 x18=0x80002bac
       57535000	      5752	00000000	00000013	addi	x0,x0,0	  x0:0x00000000
       57545000	      5753	80002ba4	00000013	addi	x0,x0,0	  x0:0x00000000
       57555000	      5754	80002ba8	02c0036f	jal	x6,80002ba8	  x6=0x80002ba8
       57565000	      5755	00000000	00000013	addi	x0,x0,0	  x0:0x00000000
       57575000	      5756	80002bd0	00000013	addi	x0,x0,0	  x0:0x00000000
       57585000	      5757	80002bd4	fddff16f	jal	x2,80002bd4	  x2=0x80002bd4
       57595000	      5758	00000000	00000013	addi	x0,x0,0	  x0:0x00000000
       57605000	      5759	80002bac	00000013	addi	x0,x0,0	  x0:0x00000000
       57615000	      5760	80002bb0	028000ef	jal	x1,80002bb0	  x1=0x80002bb0
       57625000	      5761	00000000	00000013	addi	x0,x0,0	  x0:0x00000000
       57635000	      5762	80002bd4	00000013	addi	x0,x0,0	  x0:0x00000000
       57645000	      5763	80002bd8	fcdff9ef	jal	x19,80002bd8	 x19=0x80002bd8
       57655000	      5764	00000000	00000013	addi	x0,x0,0	  x0:0x00000000
       57665000	      5765	80002ba0	00000013	addi	x0,x0,0	  x0:0x00000000
       57675000	      5766	80002ba4	ffdff0ef	jal	x1,80002ba4	  x1=0x80002ba4
       57685000	      5767	00000000	00000013	addi	x0,x0,0	  x0:0x00000000
       57695000	      5768	80002b9c	00000013	addi	x0,x0,0	  x0:0x00000000
       57705000	      5769	80002ba0	02c000ef	jal	x1,80002ba0	  x1=0x80002ba0
       57715000	      5770	00000000	00000013	addi	x0,x0,0	  x0:0x00000000
       57725000	      5771	80002bc8	00000013	addi	x0,x0,0	  x0:0x00000000
       57735000	      5772	80002bcc	fe9ff0ef	jal	x1,80002bcc	  x1=0x80002bcc
       57745000	      5773	00000000	00000013	addi	x0,x0,0	  x0:0x00000000
       57755000	      5774	80002bb0	00000013	addi	x0,x0,0	  x0:0x00000000
       57765000	      5775	80002bb4	0040046f	jal	x8,80002bb4	  x8=0x80002bb4
       57775000	      5776	00000000	00000013	addi	x0,x0,0	  x0:0x00000000
       57785000	      5777	80002bb4	00000013	addi	x0,x0,0	  x0:0x00000000
       57795000	      5778	80002bb8	0240036f	jal	x6,80002bb8	  x6=0x80002bb8
       57805000	      5779	00000000	00000013	addi	x0,x0,0	  x0:0x00000000
       57815000	      5780	80002bd8	00000013	addi	x0,x0,0	  x0:0x00000000
       57825000	      5781	80002bdc	0187dab3	srl	x21,x15,x24	 x15:0x80002a7c x24:0x80002b64 x21=0x080002a7
       57835000	      5782	80002be0	024000ef	jal	x1,80002be0	  x1=0x80002be0
       57845000	      5783	00000000	00000013	addi	x0,x0,0	  x0:0x00000000
       57855000	      5784	80002c00	00000013	addi	x0,x0,0	  x0:0x00000000
       57865000	      5785	80002c04	ffdff0ef	jal	x1,80002c04	  x1=0x80002c04
       57875000	      5786	00000000	00000013	addi	x0,x0,0	  x0:0x00000000
       57885000	      5787	80002bfc	00000013	addi	x0,x0,0	  x0:0x00000000
       57895000	      5788	80002c00	ff9ff0ef	jal	x1,80002c00	  x1=0x80002c00
       57905000	      5789	00000000	00000013	addi	x0,x0,0	  x0:0x00000000
       57915000	      5790	80002bf4	00000013	addi	x0,x0,0	  x0:0x00000000
       57925000	      5791	80002bf8	05000eef	jal	x29,80002bf8	 x29=0x80002bf8
       57935000	      5792	00000000	00000013	addi	x0,x0,0	  x0:0x00000000
       57945000	      5793	80002c44	00000013	addi	x0,x0,0	  x0:0x00000000
       57955000	      5794	80002c48	fedff0ef	jal	x1,80002c48	  x1=0x80002c48
       57965000	      5795	00000000	00000013	addi	x0,x0,0	  x0:0x00000000
       57975000	      5796	80002c30	00000013	addi	x0,x0,0	  x0:0x00000000
       57985000	      5797	80002c34	ffdff0ef	jal	x1,80002c34	  x1=0x80002c34
       57995000	      5798	00000000	00000013	addi	x0,x0,0	  x0:0x00000000
       58005000	      5799	80002c2c	00000013	addi	x0,x0,0	  x0:0x00000000
       58015000	      5800	80002c30	fb5ff0ef	jal	x1,80002c30	  x1=0x80002c30
       58025000	      5801	00000000	00000013	addi	x0,x0,0	  x0:0x00000000
       58035000	      5802	80002be0	00000013	addi	x0,x0,0	  x0:0x00000000
       58045000	      5803	80002be4	034000ef	jal	x1,80002be4	  x1=0x80002be4
       58055000	      5804	00000000	00000013	addi	x0,x0,0	  x0:0x00000000
       58065000	      5805	80002c14	00000013	addi	x0,x0,0	  x0:0x00000000
       58075000	      5806	80002c18	034000ef	jal	x1,80002c18	  x1=0x80002c18
       58085000	      5807	00000000	00000013	addi	x0,x0,0	  x0:0x00000000
       58095000	      5808	80002c48	00000013	addi	x0,x0,0	  x0:0x00000000
       58105000	      5809	80002c4c	fa9ff36f	jal	x6,80002c4c	  x6=0x80002c4c
       58115000	      5810	00000000	00000013	addi	x0,x0,0	  x0:0x00000000
       58125000	      5811	80002bf0	00000013	addi	x0,x0,0	  x0:0x00000000
       58135000	      5812	80002bf4	014000ef	jal	x1,80002bf4	  x1=0x80002bf4
       58145000	      5813	00000000	00000013	addi	x0,x0,0	  x0:0x00000000
       58155000	      5814	80002c04	00000013	addi	x0,x0,0	  x0:0x00000000
       58165000	      5815	80002c08	0200036f	jal	x6,80002c08	  x6=0x80002c08
       58175000	      5816	00000000	00000013	addi	x0,x0,0	  x0:0x00000000
       58185000	      5817	80002c24	00000013	addi	x0,x0,0	  x0:0x00000000
       58195000	      5818	80002c28	fe9ff2ef	jal	x5,80002c28	  x5=0x80002c28
       58205000	      5819	00000000	00000013	addi	x0,x0,0	  x0:0x00000000
       58215000	      5820	80002c0c	00000013	addi	x0,x0,0	  x0:0x00000000
       58225000	      5821	80002c10	02c000ef	jal	x1,80002c10	  x1=0x80002c10
       58235000	      5822	00000000	00000013	addi	x0,x0,0	  x0:0x00000000
       58245000	      5823	80002c38	00000013	addi	x0,x0,0	  x0:0x00000000
       58255000	      5824	80002c3c	fe1ff36f	jal	x6,80002c3c	  x6=0x80002c3c
       58265000	      5825	00000000	00000013	addi	x0,x0,0	  x0:0x00000000
       58275000	      5826	80002c18	00000013	addi	x0,x0,0	  x0:0x00000000
       58285000	      5827	80002c1c	fcdff36f	jal	x6,80002c1c	  x6=0x80002c1c
       58295000	      5828	00000000	00000013	addi	x0,x0,0	  x0:0x00000000
       58305000	      5829	80002be4	00000013	addi	x0,x0,0	  x0:0x00000000
       58315000	      5830	80002be8	0040036f	jal	x6,80002be8	  x6=0x80002be8
       58325000	      5831	00000000	00000013	addi	x0,x0,0	  x0:0x00000000
       58335000	      5832	80002be8	00000013	addi	x0,x0,0	  x0:0x00000000
       58345000	      5833	80002bec	058002ef	jal	x5,80002bec	  x5=0x80002bec
       58355000	      5834	00000000	00000013	addi	x0,x0,0	  x0:0x00000000
       58365000	      5835	80002c40	00000013	addi	x0,x0,0	  x0:0x00000000
       58375000	      5836	80002c44	ff5ff2ef	jal	x5,80002c44	  x5=0x80002c44
       58385000	      5837	00000000	00000013	addi	x0,x0,0	  x0:0x00000000
       58395000	      5838	80002c34	00000013	addi	x0,x0,0	  x0:0x00000000
       58405000	      5839	80002c38	ff5ff36f	jal	x6,80002c38	  x6=0x80002c38
       58415000	      5840	00000000	00000013	addi	x0,x0,0	  x0:0x00000000
       58425000	      5841	80002c28	00000013	addi	x0,x0,0	  x0:0x00000000
       58435000	      5842	80002c2c	fe1ff7ef	jal	x15,80002c2c	 x15=0x80002c2c
       58445000	      5843	00000000	00000013	addi	x0,x0,0	  x0:0x00000000
       58455000	      5844	80002c08	00000013	addi	x0,x0,0	  x0:0x00000000
       58465000	      5845	80002c0c	ff1ff36f	jal	x6,80002c0c	  x6=0x80002c0c
       58475000	      5846	00000000	00000013	addi	x0,x0,0	  x0:0x00000000
       58485000	      5847	80002bf8	00000013	addi	x0,x0,0	  x0:0x00000000
       58495000	      5848	80002bfc	024000ef	jal	x1,80002bfc	  x1=0x80002bfc
       58505000	      5849	00000000	00000013	addi	x0,x0,0	  x0:0x00000000
       58515000	      5850	80002c1c	00000013	addi	x0,x0,0	  x0:0x00000000
       58525000	      5851	80002c20	ff5ff0ef	jal	x1,80002c20	  x1=0x80002c20
       58535000	      5852	00000000	00000013	addi	x0,x0,0	  x0:0x00000000
       58545000	      5853	80002c10	00000013	addi	x0,x0,0	  x0:0x00000000
       58555000	      5854	80002c14	02c000ef	jal	x1,80002c14	  x1=0x80002c14
       58565000	      5855	00000000	00000013	addi	x0,x0,0	  x0:0x00000000
       58575000	      5856	80002c3c	00000013	addi	x0,x0,0	  x0:0x00000000
       58585000	      5857	80002c40	fe5ff86f	jal	x16,80002c40	 x16=0x80002c40
       58595000	      5858	00000000	00000013	addi	x0,x0,0	  x0:0x00000000
       58605000	      5859	80002c20	00000013	addi	x0,x0,0	  x0:0x00000000
       58615000	      5860	80002c24	fcdff36f	jal	x6,80002c24	  x6=0x80002c24
       58625000	      5861	00000000	00000013	addi	x0,x0,0	  x0:0x00000000
       58635000	      5862	80002bec	00000013	addi	x0,x0,0	  x0:0x00000000
       58645000	      5863	80002bf0	06000fef	jal	x31,80002bf0	 x31=0x80002bf0
       58655000	      5864	00000000	00000013	addi	x0,x0,0	  x0:0x00000000
       58665000	      5865	80002c4c	00000013	addi	x0,x0,0	  x0:0x00000000
       58675000	      5866	80002c50	41edd213	srai	x4,x27,0x1e	 x27:0x80002abc  x4=0xfffffffe
       58685000	      5867	80002c54	024000ef	jal	x1,80002c54	  x1=0x80002c54
       58695000	      5868	00000000	00000013	addi	x0,x0,0	  x0:0x00000000
       58705000	      5869	80002c74	00000013	addi	x0,x0,0	  x0:0x00000000
       58715000	      5870	80002c78	01c002ef	jal	x5,80002c78	  x5=0x80002c78
       58725000	      5871	00000000	00000013	addi	x0,x0,0	  x0:0x00000000
       58735000	      5872	80002c90	00000013	addi	x0,x0,0	  x0:0x00000000
       58745000	      5873	80002c94	01000e6f	jal	x28,80002c94	 x28=0x80002c94
       58755000	      5874	00000000	00000013	addi	x0,x0,0	  x0:0x00000000
       58765000	      5875	80002ca0	00000013	addi	x0,x0,0	  x0:0x00000000
       58775000	      5876	80002ca4	fb9ff0ef	jal	x1,80002ca4	  x1=0x80002ca4
       58785000	      5877	00000000	00000013	addi	x0,x0,0	  x0:0x00000000
       58795000	      5878	80002c58	00000013	addi	x0,x0,0	  x0:0x00000000
       58805000	      5879	80002c5c	018000ef	jal	x1,80002c5c	  x1=0x80002c5c
       58815000	      5880	00000000	00000013	addi	x0,x0,0	  x0:0x00000000
       58825000	      5881	80002c70	00000013	addi	x0,x0,0	  x0:0x00000000
       58835000	      5882	80002c74	02c000ef	jal	x1,80002c74	  x1=0x80002c74
       58845000	      5883	00000000	00000013	addi	x0,x0,0	  x0:0x00000000
       58855000	      5884	80002c9c	00000013	addi	x0,x0,0	  x0:0x00000000
       58865000	      5885	80002ca0	00c0036f	jal	x6,80002ca0	  x6=0x80002ca0
       58875000	      5886	00000000	00000013	addi	x0,x0,0	  x0:0x00000000
       58885000	      5887	80002ca8	00000013	addi	x0,x0,0	  x0:0x00000000
       58895000	      5888	80002cac	fb5ff0ef	jal	x1,80002cac	  x1=0x80002cac
       58905000	      5889	00000000	00000013	addi	x0,x0,0	  x0:0x00000000
       58915000	      5890	80002c5c	00000013	addi	x0,x0,0	  x0:0x00000000
       58925000	      5891	80002c60	004000ef	jal	x1,80002c60	  x1=0x80002c60
       58935000	      5892	00000000	00000013	addi	x0,x0,0	  x0:0x00000000
       58945000	      5893	80002c60	00000013	addi	x0,x0,0	  x0:0x00000000
       58955000	      5894	80002c64	020000ef	jal	x1,80002c64	  x1=0x80002c64
       58965000	      5895	00000000	00000013	addi	x0,x0,0	  x0:0x00000000
       58975000	      5896	80002c80	00000013	addi	x0,x0,0	  x0:0x00000000
       58985000	      5897	80002c84	024000ef	jal	x1,80002c84	  x1=0x80002c84
       58995000	      5898	00000000	00000013	addi	x0,x0,0	  x0:0x00000000
       59005000	      5899	80002ca4	00000013	addi	x0,x0,0	  x0:0x00000000
       59015000	      5900	80002ca8	fc9ff0ef	jal	x1,80002ca8	  x1=0x80002ca8
       59025000	      5901	00000000	00000013	addi	x0,x0,0	  x0:0x00000000
       59035000	      5902	80002c6c	00000013	addi	x0,x0,0	  x0:0x00000000
       59045000	      5903	80002c70	01c000ef	jal	x1,80002c70	  x1=0x80002c70
       59055000	      5904	00000000	00000013	addi	x0,x0,0	  x0:0x00000000
       59065000	      5905	80002c88	00000013	addi	x0,x0,0	  x0:0x00000000
       59075000	      5906	80002c8c	004000ef	jal	x1,80002c8c	  x1=0x80002c8c
       59085000	      5907	00000000	00000013	addi	x0,x0,0	  x0:0x00000000
       59095000	      5908	80002c8c	00000013	addi	x0,x0,0	  x0:0x00000000
       59105000	      5909	80002c90	fedffb6f	jal	x22,80002c90	 x22=0x80002c90
       59115000	      5910	00000000	00000013	addi	x0,x0,0	  x0:0x00000000
       59125000	      5911	80002c78	00000013	addi	x0,x0,0	  x0:0x00000000
       59135000	      5912	80002c7c	fedff0ef	jal	x1,80002c7c	  x1=0x80002c7c
       59145000	      5913	00000000	00000013	addi	x0,x0,0	  x0:0x00000000
       59155000	      5914	80002c64	00000013	addi	x0,x0,0	  x0:0x00000000
       59165000	      5915	80002c68	0180036f	jal	x6,80002c68	  x6=0x80002c68
       59175000	      5916	00000000	00000013	addi	x0,x0,0	  x0:0x00000000
       59185000	      5917	80002c7c	00000013	addi	x0,x0,0	  x0:0x00000000
       59195000	      5918	80002c80	01c002ef	jal	x5,80002c80	  x5=0x80002c80
       59205000	      5919	00000000	00000013	addi	x0,x0,0	  x0:0x00000000
       59215000	      5920	80002c98	00000013	addi	x0,x0,0	  x0:0x00000000
       59225000	      5921	80002c9c	fd1ff0ef	jal	x1,80002c9c	  x1=0x80002c9c
       59235000	      5922	00000000	00000013	addi	x0,x0,0	  x0:0x00000000
       59245000	      5923	80002c68	00000013	addi	x0,x0,0	  x0:0x00000000
       59255000	      5924	80002c6c	01c000ef	jal	x1,80002c6c	  x1=0x80002c6c
       59265000	      5925	00000000	00000013	addi	x0,x0,0	  x0:0x00000000
       59275000	      5926	80002c84	00000013	addi	x0,x0,0	  x0:0x00000000
       59285000	      5927	80002c88	010000ef	jal	x1,80002c88	  x1=0x80002c88
       59295000	      5928	00000000	00000013	addi	x0,x0,0	  x0:0x00000000
       59305000	      5929	80002c94	00000013	addi	x0,x0,0	  x0:0x00000000
       59315000	      5930	80002c98	fc1ff0ef	jal	x1,80002c98	  x1=0x80002c98
       59325000	      5931	00000000	00000013	addi	x0,x0,0	  x0:0x00000000
       59335000	      5932	80002c54	00000013	addi	x0,x0,0	  x0:0x00000000
       59345000	      5933	80002c58	0580036f	jal	x6,80002c58	  x6=0x80002c58
       59355000	      5934	00000000	00000013	addi	x0,x0,0	  x0:0x00000000
       59365000	      5935	80002cac	00000013	addi	x0,x0,0	  x0:0x00000000
       59375000	      5936	80002cb0	4dd1ca13	xori	x20,x3,1245	  x3:0x80002ab8 x20=0x80002e65
       59385000	      5937	80002cb4	018000ef	jal	x1,80002cb4	  x1=0x80002cb4
       59395000	      5938	00000000	00000013	addi	x0,x0,0	  x0:0x00000000
       59405000	      5939	80002cc8	00000013	addi	x0,x0,0	  x0:0x00000000
       59415000	      5940	80002ccc	020000ef	jal	x1,80002ccc	  x1=0x80002ccc
       59425000	      5941	00000000	00000013	addi	x0,x0,0	  x0:0x00000000
       59435000	      5942	80002ce8	00000013	addi	x0,x0,0	  x0:0x00000000
       59445000	      5943	80002cec	fd1ff26f	jal	x4,80002cec	  x4=0x80002cec
       59455000	      5944	00000000	00000013	addi	x0,x0,0	  x0:0x00000000
       59465000	      5945	80002cb8	00000013	addi	x0,x0,0	  x0:0x00000000
       59475000	      5946	80002cbc	028000ef	jal	x1,80002cbc	  x1=0x80002cbc
       59485000	      5947	00000000	00000013	addi	x0,x0,0	  x0:0x00000000
       59495000	      5948	80002ce0	00000013	addi	x0,x0,0	  x0:0x00000000
       59505000	      5949	80002ce4	ff5ff0ef	jal	x1,80002ce4	  x1=0x80002ce4
       59515000	      5950	00000000	00000013	addi	x0,x0,0	  x0:0x00000000
       59525000	      5951	80002cd4	00000013	addi	x0,x0,0	  x0:0x00000000
       59535000	      5952	80002cd8	fe9ff0ef	jal	x1,80002cd8	  x1=0x80002cd8
       59545000	      5953	00000000	00000013	addi	x0,x0,0	  x0:0x00000000
       59555000	      5954	80002cbc	00000013	addi	x0,x0,0	  x0:0x00000000
       59565000	      5955	80002cc0	010000ef	jal	x1,80002cc0	  x1=0x80002cc0
       59575000	      5956	00000000	00000013	addi	x0,x0,0	  x0:0x00000000
       59585000	      5957	80002ccc	00000013	addi	x0,x0,0	  x0:0x00000000
       59595000	      5958	80002cd0	018001ef	jal	x3,80002cd0	  x3=0x80002cd0
       59605000	      5959	00000000	00000013	addi	x0,x0,0	  x0:0x00000000
       59615000	      5960	80002ce4	00000013	addi	x0,x0,0	  x0:0x00000000
       59625000	      5961	80002ce8	fddff0ef	jal	x1,80002ce8	  x1=0x80002ce8
       59635000	      5962	00000000	00000013	addi	x0,x0,0	  x0:0x00000000
       59645000	      5963	80002cc0	00000013	addi	x0,x0,0	  x0:0x00000000
       59655000	      5964	80002cc4	ff5ff0ef	jal	x1,80002cc4	  x1=0x80002cc4
       59665000	      5965	00000000	00000013	addi	x0,x0,0	  x0:0x00000000
       59675000	      5966	80002cb4	00000013	addi	x0,x0,0	  x0:0x00000000
       59685000	      5967	80002cb8	0280036f	jal	x6,80002cb8	  x6=0x80002cb8
       59695000	      5968	00000000	00000013	addi	x0,x0,0	  x0:0x00000000
       59705000	      5969	80002cdc	00000013	addi	x0,x0,0	  x0:0x00000000
       59715000	      5970	80002ce0	ff5ff0ef	jal	x1,80002ce0	  x1=0x80002ce0
       59725000	      5971	00000000	00000013	addi	x0,x0,0	  x0:0x00000000
       59735000	      5972	80002cd0	00000013	addi	x0,x0,0	  x0:0x00000000
       59745000	      5973	80002cd4	ff5ff2ef	jal	x5,80002cd4	  x5=0x80002cd4
       59755000	      5974	00000000	00000013	addi	x0,x0,0	  x0:0x00000000
       59765000	      5975	80002cc4	00000013	addi	x0,x0,0	  x0:0x00000000
       59775000	      5976	80002cc8	014000ef	jal	x1,80002cc8	  x1=0x80002cc8
       59785000	      5977	00000000	00000013	addi	x0,x0,0	  x0:0x00000000
       59795000	      5978	80002cd8	00000013	addi	x0,x0,0	  x0:0x00000000
       59805000	      5979	80002cdc	014003ef	jal	x7,80002cdc	  x7=0x80002cdc
       59815000	      5980	00000000	00000013	addi	x0,x0,0	  x0:0x00000000
       59825000	      5981	80002cec	00000013	addi	x0,x0,0	  x0:0x00000000
       59835000	      5982	80002cf0	b7f70e13	addi	x28,x14,-1153	 x14:0x00000004 x28=0xfffffb83
       59845000	      5983	80002cf4	004000ef	jal	x1,80002cf4	  x1=0x80002cf4
       59855000	      5984	00000000	00000013	addi	x0,x0,0	  x0:0x00000000
       59865000	      5985	80002cf4	00000013	addi	x0,x0,0	  x0:0x00000000
       59875000	      5986	80002cf8	034000ef	jal	x1,80002cf8	  x1=0x80002cf8
       59885000	      5987	00000000	00000013	addi	x0,x0,0	  x0:0x00000000
       59895000	      5988	80002d28	00000013	addi	x0,x0,0	  x0:0x00000000
       59905000	      5989	80002d2c	fd9ff0ef	jal	x1,80002d2c	  x1=0x80002d2c
       59915000	      5990	00000000	00000013	addi	x0,x0,0	  x0:0x00000000
       59925000	      5991	80002d00	00000013	addi	x0,x0,0	  x0:0x00000000
       59935000	      5992	80002d04	02c000ef	jal	x1,80002d04	  x1=0x80002d04
       59945000	      5993	00000000	00000013	addi	x0,x0,0	  x0:0x00000000
       59955000	      5994	80002d2c	00000013	addi	x0,x0,0	  x0:0x00000000
       59965000	      5995	80002d30	fcdff0ef	jal	x1,80002d30	  x1=0x80002d30
       59975000	      5996	00000000	00000013	addi	x0,x0,0	  x0:0x00000000
       59985000	      5997	80002cf8	00000013	addi	x0,x0,0	  x0:0x00000000
       59995000	      5998	80002cfc	01000a6f	jal	x20,80002cfc	 x20=0x80002cfc
       60005000	      5999	00000000	00000013	addi	x0,x0,0	  x0:0x00000000
       60015000	      6000	80002d08	00000013	addi	x0,x0,0	  x0:0x00000000
       60025000	      6001	80002d0c	028000ef	jal	x1,80002d0c	  x1=0x80002d0c
       60035000	      6002	00000000	00000013	addi	x0,x0,0	  x0:0x00000000
       60045000	      6003	80002d30	00000013	addi	x0,x0,0	  x0:0x00000000
       60055000	      6004	80002d34	0100036f	jal	x6,80002d34	  x6=0x80002d34
       60065000	      6005	00000000	00000013	addi	x0,x0,0	  x0:0x00000000
       60075000	      6006	80002d40	00000013	addi	x0,x0,0	  x0:0x00000000
       60085000	      6007	80002d44	fd9ffc6f	jal	x24,80002d44	 x24=0x80002d44
       60095000	      6008	00000000	00000013	addi	x0,x0,0	  x0:0x00000000
       60105000	      6009	80002d18	00000013	addi	x0,x0,0	  x0:0x00000000
       60115000	      6010	80002d1c	004000ef	jal	x1,80002d1c	  x1=0x80002d1c
       60125000	      6011	00000000	00000013	addi	x0,x0,0	  x0:0x00000000
       60135000	      6012	80002d1c	00000013	addi	x0,x0,0	  x0:0x00000000
       60145000	      6013	80002d20	020000ef	jal	x1,80002d20	  x1=0x80002d20
       60155000	      6014	00000000	00000013	addi	x0,x0,0	  x0:0x00000000
       60165000	      6015	80002d3c	00000013	addi	x0,x0,0	  x0:0x00000000
       60175000	      6016	80002d40	fc9ff2ef	jal	x5,80002d40	  x5=0x80002d40
       60185000	      6017	00000000	00000013	addi	x0,x0,0	  x0:0x00000000
       60195000	      6018	80002d04	00000013	addi	x0,x0,0	  x0:0x00000000
       60205000	      6019	80002d08	0400036f	jal	x6,80002d08	  x6=0x80002d08
       60215000	      6020	00000000	00000013	addi	x0,x0,0	  x0:0x00000000
       60225000	      6021	80002d44	00000013	addi	x0,x0,0	  x0:0x00000000
       60235000	      6022	80002d48	fd1ff5ef	jal	x11,80002d48	 x11=0x80002d48
       60245000	      6023	00000000	00000013	addi	x0,x0,0	  x0:0x00000000
       60255000	      6024	80002d14	00000013	addi	x0,x0,0	  x0:0x00000000
       60265000	      6025	80002d18	ff9ff0ef	jal	x1,80002d18	  x1=0x80002d18
       60275000	      6026	00000000	00000013	addi	x0,x0,0	  x0:0x00000000
       60285000	      6027	80002d0c	00000013	addi	x0,x0,0	  x0:0x00000000
       60295000	      6028	80002d10	028000ef	jal	x1,80002d10	  x1=0x80002d10
       60305000	      6029	00000000	00000013	addi	x0,x0,0	  x0:0x00000000
       60315000	      6030	80002d34	00000013	addi	x0,x0,0	  x0:0x00000000
       60325000	      6031	80002d38	fedff1ef	jal	x3,80002d38	  x3=0x80002d38
       60335000	      6032	00000000	00000013	addi	x0,x0,0	  x0:0x00000000
       60345000	      6033	80002d20	00000013	addi	x0,x0,0	  x0:0x00000000
       60355000	      6034	80002d24	ff1ff9ef	jal	x19,80002d24	 x19=0x80002d24
       60365000	      6035	00000000	00000013	addi	x0,x0,0	  x0:0x00000000
       60375000	      6036	80002d10	00000013	addi	x0,x0,0	  x0:0x00000000
       60385000	      6037	80002d14	028007ef	jal	x15,80002d14	 x15=0x80002d14
       60395000	      6038	00000000	00000013	addi	x0,x0,0	  x0:0x00000000
       60405000	      6039	80002d38	00000013	addi	x0,x0,0	  x0:0x00000000
       60415000	      6040	80002d3c	fedfff6f	jal	x30,80002d3c	 x30=0x80002d3c
       60425000	      6041	00000000	00000013	addi	x0,x0,0	  x0:0x00000000
       60435000	      6042	80002d24	00000013	addi	x0,x0,0	  x0:0x00000000
       60445000	      6043	80002d28	fd9ff26f	jal	x4,80002d28	  x4=0x80002d28
       60455000	      6044	00000000	00000013	addi	x0,x0,0	  x0:0x00000000
       60465000	      6045	80002cfc	00000013	addi	x0,x0,0	  x0:0x00000000
       60475000	      6046	80002d00	04c0036f	jal	x6,80002d00	  x6=0x80002d00
       60485000	      6047	00000000	00000013	addi	x0,x0,0	  x0:0x00000000
       60495000	      6048	80002d48	00000013	addi	x0,x0,0	  x0:0x00000000
       60505000	      6049	80002d4c	01e182b3	add	x5,x3,x30	  x3:0x80002d38 x30:0x80002d3c  x5=0x00005a74
       60515000	      6050	80002d50	03c000ef	jal	x1,80002d50	  x1=0x80002d50
       60525000	      6051	00000000	00000013	addi	x0,x0,0	  x0:0x00000000
       60535000	      6052	80002d88	00000013	addi	x0,x0,0	  x0:0x00000000
       60545000	      6053	80002d8c	fd9ff0ef	jal	x1,80002d8c	  x1=0x80002d8c
       60555000	      6054	00000000	00000013	addi	x0,x0,0	  x0:0x00000000
       60565000	      6055	80002d60	00000013	addi	x0,x0,0	  x0:0x00000000
       60575000	      6056	80002d64	0100056f	jal	x10,80002d64	 x10=0x80002d64
       60585000	      6057	00000000	00000013	addi	x0,x0,0	  x0:0x00000000
       60595000	      6058	80002d70	00000013	addi	x0,x0,0	  x0:0x00000000
       60605000	      6059	80002d74	010002ef	jal	x5,80002d74	  x5=0x80002d74
       60615000	      6060	00000000	00000013	addi	x0,x0,0	  x0:0x00000000
       60625000	      6061	80002d80	00000013	addi	x0,x0,0	  x0:0x00000000
       60635000	      6062	80002d84	fddff16f	jal	x2,80002d84	  x2=0x80002d84
       60645000	      6063	00000000	00000013	addi	x0,x0,0	  x0:0x00000000
       60655000	      6064	80002d5c	00000013	addi	x0,x0,0	  x0:0x00000000
       60665000	      6065	80002d60	ff9ff0ef	jal	x1,80002d60	  x1=0x80002d60
       60675000	      6066	00000000	00000013	addi	x0,x0,0	  x0:0x00000000
       60685000	      6067	80002d54	00000013	addi	x0,x0,0	  x0:0x00000000
       60695000	      6068	80002d58	03c0026f	jal	x4,80002d58	  x4=0x80002d58
       60705000	      6069	00000000	00000013	addi	x0,x0,0	  x0:0x00000000
       60715000	      6070	80002d90	00000013	addi	x0,x0,0	  x0:0x00000000
       60725000	      6071	80002d94	fd5ff0ef	jal	x1,80002d94	  x1=0x80002d94
       60735000	      6072	00000000	00000013	addi	x0,x0,0	  x0:0x00000000
       60745000	      6073	80002d64	00000013	addi	x0,x0,0	  x0:0x00000000
       60755000	      6074	80002d68	02800a6f	jal	x20,80002d68	 x20=0x80002d68
       60765000	      6075	00000000	00000013	addi	x0,x0,0	  x0:0x00000000
       60775000	      6076	80002d8c	00000013	addi	x0,x0,0	  x0:0x00000000
       60785000	      6077	80002d90	ff1ff0ef	jal	x1,80002d90	  x1=0x80002d90
       60795000	      6078	00000000	00000013	addi	x0,x0,0	  x0:0x00000000
       60805000	      6079	80002d7c	00000013	addi	x0,x0,0	  x0:0x00000000
       60815000	      6080	80002d80	ff9ff2ef	jal	x5,80002d80	  x5=0x80002d80
       60825000	      6081	00000000	00000013	addi	x0,x0,0	  x0:0x00000000
       60835000	      6082	80002d74	00000013	addi	x0,x0,0	  x0:0x00000000
       60845000	      6083	80002d78	fddff36f	jal	x6,80002d78	  x6=0x80002d78
       60855000	      6084	00000000	00000013	addi	x0,x0,0	  x0:0x00000000
       60865000	      6085	80002d50	00000013	addi	x0,x0,0	  x0:0x00000000
       60875000	      6086	80002d54	0180036f	jal	x6,80002d54	  x6=0x80002d54
       60885000	      6087	00000000	00000013	addi	x0,x0,0	  x0:0x00000000
       60895000	      6088	80002d68	00000013	addi	x0,x0,0	  x0:0x00000000
       60905000	      6089	80002d6c	01000a6f	jal	x20,80002d6c	 x20=0x80002d6c
       60915000	      6090	00000000	00000013	addi	x0,x0,0	  x0:0x00000000
       60925000	      6091	80002d78	00000013	addi	x0,x0,0	  x0:0x00000000
       60935000	      6092	80002d7c	00c000ef	jal	x1,80002d7c	  x1=0x80002d7c
       60945000	      6093	00000000	00000013	addi	x0,x0,0	  x0:0x00000000
       60955000	      6094	80002d84	00000013	addi	x0,x0,0	  x0:0x00000000
       60965000	      6095	80002d88	fd5ff0ef	jal	x1,80002d88	  x1=0x80002d88
       60975000	      6096	00000000	00000013	addi	x0,x0,0	  x0:0x00000000
       60985000	      6097	80002d58	00000013	addi	x0,x0,0	  x0:0x00000000
       60995000	      6098	80002d5c	0140036f	jal	x6,80002d5c	  x6=0x80002d5c
       61005000	      6099	00000000	00000013	addi	x0,x0,0	  x0:0x00000000
       61015000	      6100	80002d6c	00000013	addi	x0,x0,0	  x0:0x00000000
       61025000	      6101	80002d70	028003ef	jal	x7,80002d70	  x7=0x80002d70
       61035000	      6102	00000000	00000013	addi	x0,x0,0	  x0:0x00000000
       61045000	      6103	80002d94	00000013	addi	x0,x0,0	  x0:0x00000000
       61055000	      6104	80002d98	c378b593	sltiu	x11,x17,-969	 x17:0x80009fc4 x11=0x00000001
       61065000	      6105	80002d9c	05c000ef	jal	x1,80002d9c	  x1=0x80002d9c
       61075000	      6106	00000000	00000013	addi	x0,x0,0	  x0:0x00000000
       61085000	      6107	80002df4	00000013	addi	x0,x0,0	  x0:0x00000000
       61095000	      6108	80002df8	fc9ff0ef	jal	x1,80002df8	  x1=0x80002df8
       61105000	      6109	00000000	00000013	addi	x0,x0,0	  x0:0x00000000
       61115000	      6110	80002dbc	00000013	addi	x0,x0,0	  x0:0x00000000
       61125000	      6111	80002dc0	0140036f	jal	x6,80002dc0	  x6=0x80002dc0
       61135000	      6112	00000000	00000013	addi	x0,x0,0	  x0:0x00000000
       61145000	      6113	80002dd0	00000013	addi	x0,x0,0	  x0:0x00000000
       61155000	      6114	80002dd4	fd1ff36f	jal	x6,80002dd4	  x6=0x80002dd4
       61165000	      6115	00000000	00000013	addi	x0,x0,0	  x0:0x00000000
       61175000	      6116	80002da0	00000013	addi	x0,x0,0	  x0:0x00000000
       61185000	      6117	80002da4	004001ef	jal	x3,80002da4	  x3=0x80002da4
       61195000	      6118	00000000	00000013	addi	x0,x0,0	  x0:0x00000000
       61205000	      6119	80002da4	00000013	addi	x0,x0,0	  x0:0x00000000
       61215000	      6120	80002da8	05c0036f	jal	x6,80002da8	  x6=0x80002da8
       61225000	      6121	00000000	00000013	addi	x0,x0,0	  x0:0x00000000
       61235000	      6122	80002e00	00000013	addi	x0,x0,0	  x0:0x00000000
       61245000	      6123	80002e04	fb1ff4ef	jal	x9,80002e04	  x9=0x80002e04
       61255000	      6124	00000000	00000013	addi	x0,x0,0	  x0:0x00000000
       61265000	      6125	80002db0	00000013	addi	x0,x0,0	  x0:0x00000000
       61275000	      6126	80002db4	04c000ef	jal	x1,80002db4	  x1=0x80002db4
       61285000	      6127	00000000	00000013	addi	x0,x0,0	  x0:0x00000000
       61295000	      6128	80002dfc	00000013	addi	x0,x0,0	  x0:0x00000000
       61305000	      6129	80002e00	fb1ff36f	jal	x6,80002e00	  x6=0x80002e00
       61315000	      6130	00000000	00000013	addi	x0,x0,0	  x0:0x00000000
       61325000	      6131	80002dac	00000013	addi	x0,x0,0	  x0:0x00000000
       61335000	      6132	80002db0	ff1ff6ef	jal	x13,80002db0	 x13=0x80002db0
       61345000	      6133	00000000	00000013	addi	x0,x0,0	  x0:0x00000000
       61355000	      6134	80002d9c	00000013	addi	x0,x0,0	  x0:0x00000000
       61365000	      6135	80002da0	05c001ef	jal	x3,80002da0	  x3=0x80002da0
       61375000	      6136	00000000	00000013	addi	x0,x0,0	  x0:0x00000000
       61385000	      6137	80002df8	00000013	addi	x0,x0,0	  x0:0x00000000
       61395000	      6138	80002dfc	fc1ff0ef	jal	x1,80002dfc	  x1=0x80002dfc
       61405000	      6139	00000000	00000013	addi	x0,x0,0	  x0:0x00000000
       61415000	      6140	80002db8	00000013	addi	x0,x0,0	  x0:0x00000000
       61425000	      6141	80002dbc	0380036f	jal	x6,80002dbc	  x6=0x80002dbc
       61435000	      6142	00000000	00000013	addi	x0,x0,0	  x0:0x00000000
       61445000	      6143	80002df0	00000013	addi	x0,x0,0	  x0:0x00000000
       61455000	      6144	80002df4	fe5ff36f	jal	x6,80002df4	  x6=0x80002df4
       61465000	      6145	00000000	00000013	addi	x0,x0,0	  x0:0x00000000
       61475000	      6146	80002dd4	00000013	addi	x0,x0,0	  x0:0x00000000
       61485000	      6147	80002dd8	fe1ff26f	jal	x4,80002dd8	  x4=0x80002dd8
       61495000	      6148	00000000	00000013	addi	x0,x0,0	  x0:0x00000000
       61505000	      6149	80002db4	00000013	addi	x0,x0,0	  x0:0x00000000
       61515000	      6150	80002db8	ff5ffb6f	jal	x22,80002db8	 x22=0x80002db8
       61525000	      6151	00000000	00000013	addi	x0,x0,0	  x0:0x00000000
       61535000	      6152	80002da8	00000013	addi	x0,x0,0	  x0:0x00000000
       61545000	      6153	80002dac	060000ef	jal	x1,80002dac	  x1=0x80002dac
       61555000	      6154	00000000	00000013	addi	x0,x0,0	  x0:0x00000000
       61565000	      6155	80002e08	00000013	addi	x0,x0,0	  x0:0x00000000
       61575000	      6156	80002e0c	fbdffd6f	jal	x26,80002e0c	 x26=0x80002e0c
       61585000	      6157	00000000	00000013	addi	x0,x0,0	  x0:0x00000000
       61595000	      6158	80002dc4	00000013	addi	x0,x0,0	  x0:0x00000000
       61605000	      6159	80002dc8	0400096f	jal	x18,80002dc8	 x18=0x80002dc8
       61615000	      6160	00000000	00000013	addi	x0,x0,0	  x0:0x00000000
       61625000	      6161	80002e04	00000013	addi	x0,x0,0	  x0:0x00000000
       61635000	      6162	80002e08	fd5ff36f	jal	x6,80002e08	  x6=0x80002e08
       61645000	      6163	00000000	00000013	addi	x0,x0,0	  x0:0x00000000
       61655000	      6164	80002dd8	00000013	addi	x0,x0,0	  x0:0x00000000
       61665000	      6165	80002ddc	ff1ff0ef	jal	x1,80002ddc	  x1=0x80002ddc
       61675000	      6166	00000000	00000013	addi	x0,x0,0	  x0:0x00000000
       61685000	      6167	80002dc8	00000013	addi	x0,x0,0	  x0:0x00000000
       61695000	      6168	80002dcc	0200026f	jal	x4,80002dcc	  x4=0x80002dcc
       61705000	      6169	00000000	00000013	addi	x0,x0,0	  x0:0x00000000
       61715000	      6170	80002de8	00000013	addi	x0,x0,0	  x0:0x00000000
       61725000	      6171	80002dec	fd9ff0ef	jal	x1,80002dec	  x1=0x80002dec
       61735000	      6172	00000000	00000013	addi	x0,x0,0	  x0:0x00000000
       61745000	      6173	80002dc0	00000013	addi	x0,x0,0	  x0:0x00000000
       61755000	      6174	80002dc4	01c000ef	jal	x1,80002dc4	  x1=0x80002dc4
       61765000	      6175	00000000	00000013	addi	x0,x0,0	  x0:0x00000000
       61775000	      6176	80002ddc	00000013	addi	x0,x0,0	  x0:0x00000000
       61785000	      6177	80002de0	008000ef	jal	x1,80002de0	  x1=0x80002de0
       61795000	      6178	00000000	00000013	addi	x0,x0,0	  x0:0x00000000
       61805000	      6179	80002de4	00000013	addi	x0,x0,0	  x0:0x00000000
       61815000	      6180	80002de8	ffdff0ef	jal	x1,80002de8	  x1=0x80002de8
       61825000	      6181	00000000	00000013	addi	x0,x0,0	  x0:0x00000000
       61835000	      6182	80002de0	00000013	addi	x0,x0,0	  x0:0x00000000
       61845000	      6183	80002de4	fedff0ef	jal	x1,80002de4	  x1=0x80002de4
       61855000	      6184	00000000	00000013	addi	x0,x0,0	  x0:0x00000000
       61865000	      6185	80002dcc	00000013	addi	x0,x0,0	  x0:0x00000000
       61875000	      6186	80002dd0	020000ef	jal	x1,80002dd0	  x1=0x80002dd0
       61885000	      6187	00000000	00000013	addi	x0,x0,0	  x0:0x00000000
       61895000	      6188	80002dec	00000013	addi	x0,x0,0	  x0:0x00000000
       61905000	      6189	80002df0	020000ef	jal	x1,80002df0	  x1=0x80002df0
       61915000	      6190	00000000	00000013	addi	x0,x0,0	  x0:0x00000000
       61925000	      6191	80002e0c	00000013	addi	x0,x0,0	  x0:0x00000000
       61935000	      6192	80002e10	ae0d2013	slti	x0,x26,-1312	 x26:0x80002e0c
       61945000	      6193	80002e14	034000ef	jal	x1,80002e14	  x1=0x80002e14
       61955000	      6194	00000000	00000013	addi	x0,x0,0	  x0:0x00000000
       61965000	      6195	80002e44	00000013	addi	x0,x0,0	  x0:0x00000000
       61975000	      6196	80002e48	ffdff36f	jal	x6,80002e48	  x6=0x80002e48
       61985000	      6197	00000000	00000013	addi	x0,x0,0	  x0:0x00000000
       61995000	      6198	80002e40	00000013	addi	x0,x0,0	  x0:0x00000000
       62005000	      6199	80002e44	fddff26f	jal	x4,80002e44	  x4=0x80002e44
       62015000	      6200	00000000	00000013	addi	x0,x0,0	  x0:0x00000000
       62025000	      6201	80002e1c	00000013	addi	x0,x0,0	  x0:0x00000000
       62035000	      6202	80002e20	00c00fef	jal	x31,80002e20	 x31=0x80002e20
       62045000	      6203	00000000	00000013	addi	x0,x0,0	  x0:0x00000000
       62055000	      6204	80002e28	00000013	addi	x0,x0,0	  x0:0x00000000
       62065000	      6205	80002e2c	fedff0ef	jal	x1,80002e2c	  x1=0x80002e2c
       62075000	      6206	00000000	00000013	addi	x0,x0,0	  x0:0x00000000
       62085000	      6207	80002e14	00000013	addi	x0,x0,0	  x0:0x00000000
       62095000	      6208	80002e18	024000ef	jal	x1,80002e18	  x1=0x80002e18
       62105000	      6209	00000000	00000013	addi	x0,x0,0	  x0:0x00000000
       62115000	      6210	80002e38	00000013	addi	x0,x0,0	  x0:0x00000000
       62125000	      6211	80002e3c	0040026f	jal	x4,80002e3c	  x4=0x80002e3c
       62135000	      6212	00000000	00000013	addi	x0,x0,0	  x0:0x00000000
       62145000	      6213	80002e3c	00000013	addi	x0,x0,0	  x0:0x00000000
       62155000	      6214	80002e40	ff9ff0ef	jal	x1,80002e40	  x1=0x80002e40
       62165000	      6215	00000000	00000013	addi	x0,x0,0	  x0:0x00000000
       62175000	      6216	80002e34	00000013	addi	x0,x0,0	  x0:0x00000000
       62185000	      6217	80002e38	01400cef	jal	x25,80002e38	 x25=0x80002e38
       62195000	      6218	00000000	00000013	addi	x0,x0,0	  x0:0x00000000
       62205000	      6219	80002e48	00000013	addi	x0,x0,0	  x0:0x00000000
       62215000	      6220	80002e4c	fe5ffdef	jal	x27,80002e4c	 x27=0x80002e4c
       62225000	      6221	00000000	00000013	addi	x0,x0,0	  x0:0x00000000
       62235000	      6222	80002e2c	00000013	addi	x0,x0,0	  x0:0x00000000
       62245000	      6223	80002e30	0040036f	jal	x6,80002e30	  x6=0x80002e30
       62255000	      6224	00000000	00000013	addi	x0,x0,0	  x0:0x00000000
       62265000	      6225	80002e30	00000013	addi	x0,x0,0	  x0:0x00000000
       62275000	      6226	80002e34	fe9ff0ef	jal	x1,80002e34	  x1=0x80002e34
       62285000	      6227	00000000	00000013	addi	x0,x0,0	  x0:0x00000000
       62295000	      6228	80002e18	00000013	addi	x0,x0,0	  x0:0x00000000
       62305000	      6229	80002e1c	008000ef	jal	x1,80002e1c	  x1=0x80002e1c
       62315000	      6230	00000000	00000013	addi	x0,x0,0	  x0:0x00000000
       62325000	      6231	80002e20	00000013	addi	x0,x0,0	  x0:0x00000000
       62335000	      6232	80002e24	0040036f	jal	x6,80002e24	  x6=0x80002e24
       62345000	      6233	00000000	00000013	addi	x0,x0,0	  x0:0x00000000
       62355000	      6234	80002e24	00000013	addi	x0,x0,0	  x0:0x00000000
       62365000	      6235	80002e28	028000ef	jal	x1,80002e28	  x1=0x80002e28
       62375000	      6236	00000000	00000013	addi	x0,x0,0	  x0:0x00000000
       62385000	      6237	80002e4c	00000013	addi	x0,x0,0	  x0:0x00000000
       62395000	      6238	80002e50	0040016f	jal	x2,80002e50	  x2=0x80002e50
       62405000	      6239	00000000	00000013	addi	x0,x0,0	  x0:0x00000000
       62415000	      6240	80002e50	00000013	addi	x0,x0,0	  x0:0x00000000
       62425000	      6241	80002e54	00ed9193	slli	x3,x27,0xe	 x27:0x80002e4c  x3=0x0b930000
       62435000	      6242	80002e58	034000ef	jal	x1,80002e58	  x1=0x80002e58
       62445000	      6243	00000000	00000013	addi	x0,x0,0	  x0:0x00000000
       62455000	      6244	80002e88	00000013	addi	x0,x0,0	  x0:0x00000000
       62465000	      6245	80002e8c	00c000ef	jal	x1,80002e8c	  x1=0x80002e8c
       62475000	      6246	00000000	00000013	addi	x0,x0,0	  x0:0x00000000
       62485000	      6247	80002e94	00000013	addi	x0,x0,0	  x0:0x00000000
       62495000	      6248	80002e98	fedff2ef	jal	x5,80002e98	  x5=0x80002e98
       62505000	      6249	00000000	00000013	addi	x0,x0,0	  x0:0x00000000
       62515000	      6250	80002e80	00000013	addi	x0,x0,0	  x0:0x00000000
       62525000	      6251	80002e84	0380026f	jal	x4,80002e84	  x4=0x80002e84
       62535000	      6252	00000000	00000013	addi	x0,x0,0	  x0:0x00000000
       62545000	      6253	80002eb8	00000013	addi	x0,x0,0	  x0:0x00000000
       62555000	      6254	80002ebc	fedff4ef	jal	x9,80002ebc	  x9=0x80002ebc
       62565000	      6255	00000000	00000013	addi	x0,x0,0	  x0:0x00000000
       62575000	      6256	80002ea4	00000013	addi	x0,x0,0	  x0:0x00000000
       62585000	      6257	80002ea8	008000ef	jal	x1,80002ea8	  x1=0x80002ea8
       62595000	      6258	00000000	00000013	addi	x0,x0,0	  x0:0x00000000
       62605000	      6259	80002eac	00000013	addi	x0,x0,0	  x0:0x00000000
       62615000	      6260	80002eb0	010000ef	jal	x1,80002eb0	  x1=0x80002eb0
       62625000	      6261	00000000	00000013	addi	x0,x0,0	  x0:0x00000000
       62635000	      6262	80002ebc	00000013	addi	x0,x0,0	  x0:0x00000000
       62645000	      6263	80002ec0	fd5ff0ef	jal	x1,80002ec0	  x1=0x80002ec0
       62655000	      6264	00000000	00000013	addi	x0,x0,0	  x0:0x00000000
       62665000	      6265	80002e90	00000013	addi	x0,x0,0	  x0:0x00000000
       62675000	      6266	80002e94	00c000ef	jal	x1,80002e94	  x1=0x80002e94
       62685000	      6267	00000000	00000013	addi	x0,x0,0	  x0:0x00000000
       62695000	      6268	80002e9c	00000013	addi	x0,x0,0	  x0:0x00000000
       62705000	      6269	80002ea0	fd5ff0ef	jal	x1,80002ea0	  x1=0x80002ea0
       62715000	      6270	00000000	00000013	addi	x0,x0,0	  x0:0x00000000
       62725000	      6271	80002e70	00000013	addi	x0,x0,0	  x0:0x00000000
       62735000	      6272	80002e74	0300036f	jal	x6,80002e74	  x6=0x80002e74
       62745000	      6273	00000000	00000013	addi	x0,x0,0	  x0:0x00000000
       62755000	      6274	80002ea0	00000013	addi	x0,x0,0	  x0:0x00000000
       62765000	      6275	80002ea4	014000ef	jal	x1,80002ea4	  x1=0x80002ea4
       62775000	      6276	00000000	00000013	addi	x0,x0,0	  x0:0x00000000
       62785000	      6277	80002eb4	00000013	addi	x0,x0,0	  x0:0x00000000
       62795000	      6278	80002eb8	fb5ff36f	jal	x6,80002eb8	  x6=0x80002eb8
       62805000	      6279	00000000	00000013	addi	x0,x0,0	  x0:0x00000000
       62815000	      6280	80002e68	00000013	addi	x0,x0,0	  x0:0x00000000
       62825000	      6281	80002e6c	05c0036f	jal	x6,80002e6c	  x6=0x80002e6c
       62835000	      6282	00000000	00000013	addi	x0,x0,0	  x0:0x00000000
       62845000	      6283	80002ec4	00000013	addi	x0,x0,0	  x0:0x00000000
       62855000	      6284	80002ec8	fd5ff1ef	jal	x3,80002ec8	  x3=0x80002ec8
       62865000	      6285	00000000	00000013	addi	x0,x0,0	  x0:0x00000000
       62875000	      6286	80002e98	00000013	addi	x0,x0,0	  x0:0x00000000
       62885000	      6287	80002e9c	fc9ff0ef	jal	x1,80002e9c	  x1=0x80002e9c
       62895000	      6288	00000000	00000013	addi	x0,x0,0	  x0:0x00000000
       62905000	      6289	80002e60	00000013	addi	x0,x0,0	  x0:0x00000000
       62915000	      6290	80002e64	0180036f	jal	x6,80002e64	  x6=0x80002e64
       62925000	      6291	00000000	00000013	addi	x0,x0,0	  x0:0x00000000
       62935000	      6292	80002e78	00000013	addi	x0,x0,0	  x0:0x00000000
       62945000	      6293	80002e7c	038000ef	jal	x1,80002e7c	  x1=0x80002e7c
       62955000	      6294	00000000	00000013	addi	x0,x0,0	  x0:0x00000000
       62965000	      6295	80002eb0	00000013	addi	x0,x0,0	  x0:0x00000000
       62975000	      6296	80002eb4	fd5ff0ef	jal	x1,80002eb4	  x1=0x80002eb4
       62985000	      6297	00000000	00000013	addi	x0,x0,0	  x0:0x00000000
       62995000	      6298	80002e84	00000013	addi	x0,x0,0	  x0:0x00000000
       63005000	      6299	80002e88	ff9ff0ef	jal	x1,80002e88	  x1=0x80002e88
       63015000	      6300	00000000	00000013	addi	x0,x0,0	  x0:0x00000000
       63025000	      6301	80002e7c	00000013	addi	x0,x0,0	  x0:0x00000000
       63035000	      6302	80002e80	fe9ff0ef	jal	x1,80002e80	  x1=0x80002e80
       63045000	      6303	00000000	00000013	addi	x0,x0,0	  x0:0x00000000
       63055000	      6304	80002e64	00000013	addi	x0,x0,0	  x0:0x00000000
       63065000	      6305	80002e68	0100016f	jal	x2,80002e68	  x2=0x80002e68
       63075000	      6306	00000000	00000013	addi	x0,x0,0	  x0:0x00000000
       63085000	      6307	80002e74	00000013	addi	x0,x0,0	  x0:0x00000000
       63095000	      6308	80002e78	018000ef	jal	x1,80002e78	  x1=0x80002e78
       63105000	      6309	00000000	00000013	addi	x0,x0,0	  x0:0x00000000
       63115000	      6310	80002e8c	00000013	addi	x0,x0,0	  x0:0x00000000
       63125000	      6311	80002e90	01c000ef	jal	x1,80002e90	  x1=0x80002e90
       63135000	      6312	00000000	00000013	addi	x0,x0,0	  x0:0x00000000
       63145000	      6313	80002ea8	00000013	addi	x0,x0,0	  x0:0x00000000
       63155000	      6314	80002eac	fb5ff0ef	jal	x1,80002eac	  x1=0x80002eac
       63165000	      6315	00000000	00000013	addi	x0,x0,0	  x0:0x00000000
       63175000	      6316	80002e5c	00000013	addi	x0,x0,0	  x0:0x00000000
       63185000	      6317	80002e60	0100066f	jal	x12,80002e60	 x12=0x80002e60
       63195000	      6318	00000000	00000013	addi	x0,x0,0	  x0:0x00000000
       63205000	      6319	80002e6c	00000013	addi	x0,x0,0	  x0:0x00000000
       63215000	      6320	80002e70	fedff0ef	jal	x1,80002e70	  x1=0x80002e70
       63225000	      6321	00000000	00000013	addi	x0,x0,0	  x0:0x00000000
       63235000	      6322	80002e58	00000013	addi	x0,x0,0	  x0:0x00000000
       63245000	      6323	80002e5c	068000ef	jal	x1,80002e5c	  x1=0x80002e5c
       63255000	      6324	00000000	00000013	addi	x0,x0,0	  x0:0x00000000
       63265000	      6325	80002ec0	00000013	addi	x0,x0,0	  x0:0x00000000
       63275000	      6326	80002ec4	008000ef	jal	x1,80002ec4	  x1=0x80002ec4
       63285000	      6327	00000000	00000013	addi	x0,x0,0	  x0:0x00000000
       63295000	      6328	80002ec8	00000013	addi	x0,x0,0	  x0:0x00000000
       63305000	      6329	80002ecc	01483fb3	sltu	x31,x16,x20	 x16:0x80002c40 x20:0x80002d6c x31=0x00000001
       63315000	      6330	80002ed0	0df30513	addi	x10,x6,223	  x6:0x80002e64 x10=0x80002f43
       63325000	      6331	80002ed4	417b5313	srai	x6,x22,0x17	 x22:0x80002db8  x6=0xffffff00
       63335000	      6332	80002ed8	01fb94b3	sll	x9,x23,x31	 x23:0x80009f1c x31:0x00000001  x9=0x00013e38
       63345000	      6333	80002edc	01720c63	beq	x4,x23,80002ef4	  x4:0x80002e84 x23:0x80009f1c
       63355000	      6334	80002ee0	01fa5e93	srli	x29,x20,0x1f	 x20:0x80002d6c x29=0x00000001
       63365000	      6335	80002ee4	dbc42c93	slti	x25,x8,-580	  x8:0x80002bb4 x25=0x00000001
       63375000	      6336	80002ee8	8b771f17	auipc	x30,0x8b771	 x30=0x0b773ee4
       63385000	      6337	80002eec	011dce63	blt	x27,x17,80002f08	 x27:0x80002e4c x17:0x80009fc4
       63395000	      6338	00000000	00000013	addi	x0,x0,0	  x0:0x00000000
       63405000	      6339	80002f04	00000013	addi	x0,x0,0	  x0:0x00000000
       63415000	      6340	80002f08	0117ce33	xor	x28,x15,x17	 x15:0x80002d14 x17:0x80009fc4 x28=0x0000b2d0
       63425000	      6341	80002f0c	00e42f33	slt	x30,x8,x14	  x8:0x80002bb4 x14:0x00000004 x30=0x00000001
       63435000	      6342	80002f10	03707863	bgeu	x0,x23,80002f40	  x0:0x00000000 x23:0x80009f1c
       63445000	      6343	80002f14	00575b13	srli	x22,x14,0x5	 x14:0x00000004 x22=0x00000000
       63455000	      6344	80002f18	011d5333	srl	x6,x26,x17	 x26:0x80002e0c x17:0x80009fc4  x6=0x080002e0
       63465000	      6345	80002f1c	00e8c233	xor	x4,x17,x14	 x17:0x80009fc4 x14:0x00000004  x4=0x80009fc0
       63475000	      6346	80002f20	deeabe13	sltiu	x28,x21,-530	 x21:0x080002a7 x28=0x00000001
       63485000	      6347	80002f24	018aeab3	or	x21,x21,x24	 x21:0x080002a7 x24:0x80002d44 x21=0x88002fe7
       63495000	      6348	80002f28	01d19c63	bne	x3,x29,80002f40	  x3:0x80002ec8 x29:0x00000001
       63505000	      6349	00000000	00000013	addi	x0,x0,0	  x0:0x00000000
       63515000	      6350	80002f3c	00000013	addi	x0,x0,0	  x0:0x00000000
       63525000	      6351	80002f40	00961493	slli	x9,x12,0x9	 x12:0x80002e60  x9=0x005cc000
       63535000	      6352	80002f44	14bb0593	addi	x11,x22,331	 x22:0x00000000 x11=0x0000014b
       63545000	      6353	80002f48	00147c63	bgeu	x8,x1,80002f60	  x8:0x80002bb4  x1:0x80002ec4
       63555000	      6354	80002f4c	00ff2e33	slt	x28,x30,x15	 x30:0x00000001 x15:0x80002d14 x28=0x00000000
       63565000	      6355	80002f50	41d25693	srai	x13,x4,0x1d	  x4:0x80009fc0 x13=0xfffffffc
       63575000	      6356	80002f54	0055dc33	srl	x24,x11,x5	 x11:0x0000014b  x5:0x80002e98 x24=0x00000000
       63585000	      6357	80002f58	11c36913	ori	x18,x6,284	  x6:0x080002e0 x18=0x080003fc
       63595000	      6358	80002f5c	05cac863	blt	x21,x28,80002fac	 x21:0x88002fe7 x28:0x00000000
       63605000	      6359	00000000	00000013	addi	x0,x0,0	  x0:0x00000000
       63615000	      6360	80002fa8	00000013	addi	x0,x0,0	  x0:0x00000000
       63625000	      6361	80002fac	052c1663	bne	x24,x18,80002ff8	 x24:0x00000000 x18:0x080003fc
       63635000	      6362	00000000	00000013	addi	x0,x0,0	  x0:0x00000000
       63645000	      6363	80002ff4	00000013	addi	x0,x0,0	  x0:0x00000000
       63655000	      6364	80002ff8	b8ceb613	sltiu	x12,x29,-1140	 x29:0x00000001 x12=0x00000001
       63665000	      6365	80002ffc	017a2e33	slt	x28,x20,x23	 x20:0x80002d6c x23:0x80009f1c x28=0x00000001
       63675000	      6366	80003000	017b81b3	add	x3,x23,x23	 x23:0x80009f1c x23:0x80009f1c  x3=0x00013e38
       63685000	      6367	80003004	01bd5c93	srli	x25,x26,0x1b	 x26:0x80002e0c x25=0x00000010
       63695000	      6368	80003008	00025813	srli	x16,x4,0x0	  x4:0x80009fc0 x16=0x80009fc0
       63705000	      6369	8000300c	40950d33	sub	x26,x10,x9	 x10:0x80002f43  x9:0x005cc000 x26=0x7fa36f43
       63715000	      6370	80003010	01481413	slli	x8,x16,0x14	 x16:0x80009fc0  x8=0xfc000000
       63725000	      6371	80003014	00000013	addi	x0,x0,0	  x0:0x00000000
       63735000	      6372	80003018	81044c17	auipc	x24,0x81044	 x24=0x01047014
       63745000	      6373	8000301c	00d0efb3	or	x31,x1,x13	  x1:0x80002ec4 x13:0xfffffffc x31=0xfffffffc
       63755000	      6374	80003020	018e1333	sll	x6,x28,x24	 x28:0x00000001 x24:0x01047014  x6=0x00100000
       63765000	      6375	80003024	aa6e0513	addi	x10,x28,-1370	 x28:0x00000001 x10=0xfffffaa7
       63775000	      6376	80003028	015ddf33	srl	x30,x27,x21	 x27:0x80002e4c x21:0x88002fe7 x30=0x0100005c
       63785000	      6377	8000302c	00161533	sll	x10,x12,x1	 x12:0x00000001  x1:0x80002ec4 x10=0x00000010
       63795000	      6378	80003030	00000013	addi	x0,x0,0	  x0:0x00000000
       63805000	      6379	80003034	017f9193	slli	x3,x31,0x17	 x31:0xfffffffc  x3=0xfe000000
       63815000	      6380	80003038	0109dcb3	srl	x25,x19,x16	 x19:0x80002d24 x16:0x80009fc0 x25=0x80002d24
       63825000	      6381	8000303c	019b81b3	add	x3,x23,x25	 x23:0x80009f1c x25:0x80002d24  x3=0x0000cc40
       63835000	      6382	80003040	01b93cb3	sltu	x25,x18,x27	 x18:0x080003fc x27:0x80002e4c x25=0x00000001
       63845000	      6383	80003044	01031613	slli	x12,x6,0x10	  x6:0x00100000 x12=0x00000000
       63855000	      6384	80003048	00387e63	bgeu	x16,x3,80003064	 x16:0x80009fc0  x3:0x0000cc40
       63865000	      6385	00000000	00000013	addi	x0,x0,0	  x0:0x00000000
       63875000	      6386	80003060	00000013	addi	x0,x0,0	  x0:0x00000000
       63885000	      6387	80003064	41b382b3	sub	x5,x7,x27	  x7:0x80002d70 x27:0x80002e4c  x5=0xffffff24
       63895000	      6388	80003068	40b1d993	srai	x19,x3,0xb	  x3:0x0000cc40 x19=0x00000019
       63905000	      6389	8000306c	0110f633	and	x12,x1,x17	  x1:0x80002ec4 x17:0x80009fc4 x12=0x80000ec4
       63915000	      6390	80003070	ce177813	andi	x16,x14,-799	 x14:0x00000004 x16=0x00000000
       63925000	      6391	80003074	0068d233	srl	x4,x17,x6	 x17:0x80009fc4  x6:0x00100000  x4=0x80009fc4
       63935000	      6392	80003078	4162d1b3	sra	x3,x5,x22	  x5:0xffffff24 x22:0x00000000  x3=0xffffff24
       63945000	      6393	8000307c	418502b3	sub	x5,x10,x24	 x10:0x00000010 x24:0x01047014  x5=0xfefb8ffc
       63955000	      6394	80003080	04779063	bne	x15,x7,800030c0	 x15:0x80002d14  x7:0x80002d70
       63965000	      6395	00000000	00000013	addi	x0,x0,0	  x0:0x00000000
       63975000	      6396	800030bc	00000013	addi	x0,x0,0	  x0:0x00000000
       63985000	      6397	800030c0	a9ba0513	addi	x10,x20,-1381	 x20:0x80002d6c x10=0x80002807
       63995000	      6398	800030c4	03701463	bne	x0,x23,800030ec	  x0:0x00000000 x23:0x80009f1c
       64005000	      6399	00000000	00000013	addi	x0,x0,0	  x0:0x00000000
       64015000	      6400	800030e8	00000013	addi	x0,x0,0	  x0:0x00000000
       64025000	      6401	800030ec	0041cfb3	xor	x31,x3,x4	  x3:0xffffff24  x4:0x80009fc4 x31=0x7fff60e0
       64035000	      6402	800030f0	01e780b3	add	x1,x15,x30	 x15:0x80002d14 x30:0x0100005c  x1=0x81002d70
       64045000	      6403	800030f4	3908b393	sltiu	x7,x17,912	 x17:0x80009fc4  x7=0x00000000
       64055000	      6404	800030f8	c4673f93	sltiu	x31,x14,-954	 x14:0x00000004 x31=0x00000001
       64065000	      6405	800030fc	f7df0793	addi	x15,x30,-131	 x30:0x0100005c x15=0x00ffffd9
       64075000	      6406	80003100	01d300b3	add	x1,x6,x29	  x6:0x00100000 x29:0x00000001  x1=0x00100001
       64085000	      6407	80003104	01d794b3	sll	x9,x15,x29	 x15:0x00ffffd9 x29:0x00000001  x9=0x01ffffb2
       64095000	      6408	80003108	007bcf93	xori	x31,x23,7	 x23:0x80009f1c x31=0x80009f1b
       64105000	      6409	8000310c	00000013	addi	x0,x0,0	  x0:0x00000000
       64115000	      6410	80003110	05716063	bltu	x2,x23,80003150	  x2:0x80002e68 x23:0x80009f1c
       64125000	      6411	00000000	00000013	addi	x0,x0,0	  x0:0x00000000
       64135000	      6412	8000314c	00000013	addi	x0,x0,0	  x0:0x00000000
       64145000	      6413	80003150	ebd9e013	ori	x0,x19,-323	 x19:0x00000019
       64155000	      6414	80003154	008320b3	slt	x1,x6,x8	  x6:0x00100000  x8:0xfc000000  x1=0x00000000
       64165000	      6415	80003158	e13dbf93	sltiu	x31,x27,-493	 x27:0x80002e4c x31=0x00000001
       64175000	      6416	8000315c	40c2df13	srai	x30,x5,0xc	  x5:0xfefb8ffc x30=0xffffefb8
       64185000	      6417	80003160	c501f293	andi	x5,x3,-944	  x3:0xffffff24  x5=0xfffffc00
       64195000	      6418	80003164	00b3e663	bltu	x7,x11,80003170	  x7:0x00000000 x11:0x0000014b
       64205000	      6419	00000000	00000013	addi	x0,x0,0	  x0:0x00000000
       64215000	      6420	8000316c	00000013	addi	x0,x0,0	  x0:0x00000000
       64225000	      6421	80003170	40235793	srai	x15,x6,0x2	  x6:0x00100000 x15=0x00040000
       64235000	      6422	80003174	00aa1463	bne	x20,x10,8000317c	 x20:0x80002d6c x10:0x80002807
       64245000	      6423	00000000	00000013	addi	x0,x0,0	  x0:0x00000000
       64255000	      6424	80003178	00000013	addi	x0,x0,0	  x0:0x00000000
       64265000	      6425	8000317c	001170b3	and	x1,x2,x1	  x2:0x80002e68  x1:0x00000000  x1=0x00000000
       64275000	      6426	80003180	48a80e13	addi	x28,x16,1162	 x16:0x00000000 x28=0x0000048a
       64285000	      6427	80003184	0556a613	slti	x12,x13,85	 x13:0xfffffffc x12=0x00000001
       64295000	      6428	80003188	01814d33	xor	x26,x2,x24	  x2:0x80002e68 x24:0x01047014 x26=0x81045e7c
       64305000	      6429	8000318c	006b73b3	and	x7,x22,x6	 x22:0x00000000  x6:0x00100000  x7=0x00000000
       64315000	      6430	80003190	bce12b13	slti	x22,x2,-1074	  x2:0x80002e68 x22=0x00000001
       64325000	      6431	80003194	eee9f613	andi	x12,x19,-274	 x19:0x00000019 x12=0x00000008
       64335000	      6432	80003198	00a09033	sll	x0,x1,x10	  x1:0x00000000 x10:0x80002807
       64345000	      6433	8000319c	402ede33	sra	x28,x29,x2	 x29:0x00000001  x2:0x80002e68 x28=0x00000000
       64355000	      6434	800031a0	04c29063	bne	x5,x12,800031e0	  x5:0xfffffc00 x12:0x00000008
       64365000	      6435	00000000	00000013	addi	x0,x0,0	  x0:0x00000000
       64375000	      6436	800031dc	00000013	addi	x0,x0,0	  x0:0x00000000
       64385000	      6437	800031e0	00b12833	slt	x16,x2,x11	  x2:0x80002e68 x11:0x0000014b x16=0x00000001
       64395000	      6438	800031e4	478d0493	addi	x9,x26,1144	 x26:0x81045e7c  x9=0x810462f4
       64405000	      6439	800031e8	4193d933	sra	x18,x7,x25	  x7:0x00000000 x25:0x00000001 x18=0x00000000
       64415000	      6440	800031ec	0142ce63	blt	x5,x20,80003208	  x5:0xfffffc00 x20:0x80002d6c
       64425000	      6441	800031f0	01ea9b33	sll	x22,x21,x30	 x21:0x88002fe7 x30:0xffffefb8 x22=0xe7000000
       64435000	      6442	800031f4	00000013	addi	x0,x0,0	  x0:0x00000000
       64445000	      6443	800031f8	b97b9e97	auipc	x29,0xb97b9	 x29=0x397bc1f4
       64455000	      6444	800031fc	052ed063	bge	x29,x18,8000323c	 x29:0x397bc1f4 x18:0x00000000
       64465000	      6445	00000000	00000013	addi	x0,x0,0	  x0:0x00000000
       64475000	      6446	80003238	00000013	addi	x0,x0,0	  x0:0x00000000
       64485000	      6447	8000323c	03bd5863	bge	x26,x27,8000326c	 x26:0x81045e7c x27:0x80002e4c
       64495000	      6448	00000000	00000013	addi	x0,x0,0	  x0:0x00000000
       64505000	      6449	80003268	00000013	addi	x0,x0,0	  x0:0x00000000
       64515000	      6450	8000326c	40485393	srai	x7,x16,0x4	 x16:0x00000001  x7=0x00000000
       64525000	      6451	80003270	01916ab3	or	x21,x2,x25	  x2:0x80002e68 x25:0x00000001 x21=0x80002e69
       64535000	      6452	80003274	f88c7f93	andi	x31,x24,-120	 x24:0x01047014 x31=0x01047000
       64545000	      6453	80003278	02c64863	blt	x12,x12,800032a8	 x12:0x00000008 x12:0x00000008
       64555000	      6454	8000327c	00000013	addi	x0,x0,0	  x0:0x00000000
       64565000	      6455	80003280	001ce233	or	x4,x25,x1	 x25:0x00000001  x1:0x00000000  x4=0x00000001
       64575000	      6456	80003284	407a8833	sub	x16,x21,x7	 x21:0x80002e69  x7:0x00000000 x16=0x80002e69
       64585000	      6457	80003288	165905b7	lui	x11,0x16590	 x11=0x16590000
       64595000	      6458	8000328c	00ab9a33	sll	x20,x23,x10	 x23:0x80009f1c x10:0x80002807 x20=0x004f8e00
       64605000	      6459	80003290	40edd133	sra	x2,x27,x14	 x27:0x80002e4c x14:0x00000004  x2=0xf80002e4
       64615000	      6460	80003294	00fb5863	bge	x22,x15,800032a4	 x22:0xe7000000 x15:0x00040000
       64625000	      6461	80003298	01d3dc63	bge	x7,x29,800032b0	  x7:0x00000000 x29:0x397bc1f4
       64635000	      6462	8000329c	d5364d13	xori	x26,x12,-685	 x12:0x00000008 x26=0xfffffd5b
       64645000	      6463	800032a0	00000013	addi	x0,x0,0	  x0:0x00000000
       64655000	      6464	800032a4	400c5a33	sra	x20,x24,x0	 x24:0x01047014  x0:0x00000000 x20=0x01047014
       64665000	      6465	800032a8	01a387b3	add	x15,x7,x26	  x7:0x00000000 x26:0xfffffd5b x15=0xfffffd5b
       64675000	      6466	800032ac	ae534a93	xori	x21,x6,-1307	  x6:0x00100000 x21=0xffeffae5
       64685000	      6467	800032b0	02878263	beq	x15,x8,800032d4	 x15:0xfffffd5b  x8:0xfc000000
       64695000	      6468	800032b4	01d90eb3	add	x29,x18,x29	 x18:0x00000000 x29:0x397bc1f4 x29=0x397bc1f4
       64705000	      6469	800032b8	e6973617	auipc	x12,0xe6973	 x12=0x669762b4
       64715000	      6470	800032bc	3fde8793	addi	x15,x29,1021	 x29:0x397bc1f4 x15=0x397bc5f1
       64725000	      6471	800032c0	00e35663	bge	x6,x14,800032cc	  x6:0x00100000 x14:0x00000004
       64735000	      6472	00000000	00000013	addi	x0,x0,0	  x0:0x00000000
       64745000	      6473	800032c8	00000013	addi	x0,x0,0	  x0:0x00000000
       64755000	      6474	800032cc	0215c863	blt	x11,x1,800032fc	 x11:0x16590000  x1:0x00000000
       64765000	      6475	800032d0	eaf40b13	addi	x22,x8,-337	  x8:0xfc000000 x22=0xfbfffeaf
       64775000	      6476	800032d4	2601d4b7	lui	x9,0x2601d	  x9=0x2601d000
       64785000	      6477	800032d8	00f19cb3	sll	x25,x3,x15	  x3:0xffffff24 x15:0x397bc5f1 x25=0xfe480000
       64795000	      6478	800032dc	008cb5b3	sltu	x11,x25,x8	 x25:0xfe480000  x8:0xfc000000 x11=0x00000000
       64805000	      6479	800032e0	ab04f493	andi	x9,x9,-1360	  x9:0x2601d000  x9=0x2601d000
       64815000	      6480	800032e4	01c971b3	and	x3,x18,x28	 x18:0x00000000 x28:0x00000000  x3=0x00000000
       64825000	      6481	800032e8	00ce9a33	sll	x20,x29,x12	 x29:0x397bc1f4 x12:0x669762b4 x20=0x1f400000
       64835000	      6482	800032ec	40025b13	srai	x22,x4,0x0	  x4:0x00000001 x22=0x00000001
       64845000	      6483	800032f0	00b67d33	and	x26,x12,x11	 x12:0x669762b4 x11:0x00000000 x26=0x00000000
       64855000	      6484	800032f4	c1a9ab37	lui	x22,0xc1a9a	 x22=0xc1a9a000
       64865000	      6485	800032f8	005b51b3	srl	x3,x22,x5	 x22:0xc1a9a000  x5:0xfffffc00  x3=0xc1a9a000
       64875000	      6486	800032fc	00fed313	srli	x6,x29,0xf	 x29:0x397bc1f4  x6=0x000072f7
       64885000	      6487	80003300	1d37ddb7	lui	x27,0x1d37d	 x27=0x1d37d000
       64895000	      6488	80003304	0070fa33	and	x20,x1,x7	  x1:0x00000000  x7:0x00000000 x20=0x00000000
       64905000	      6489	80003308	0000cd33	xor	x26,x1,x0	  x1:0x00000000  x0:0x00000000 x26=0x00000000
       64915000	      6490	8000330c	0067b533	sltu	x10,x15,x6	 x15:0x397bc5f1  x6:0x000072f7 x10=0x00000000
       64925000	      6491	80003310	012702b3	add	x5,x14,x18	 x14:0x00000004 x18:0x00000000  x5=0x00000004
       64935000	      6492	80003314	a908b293	sltiu	x5,x17,-1392	 x17:0x80009fc4  x5=0x00000001
       64945000	      6493	80003318	02418863	beq	x3,x4,80003348	  x3:0xc1a9a000  x4:0x00000001
       64955000	      6494	8000331c	00324833	xor	x16,x4,x3	  x4:0x00000001  x3:0xc1a9a000 x16=0xc1a9a001
       64965000	      6495	80003320	e7504c13	xori	x24,x0,-395	  x0:0x00000000 x24=0xfffffe75
       64975000	      6496	80003324	0029e863	bltu	x19,x2,80003334	 x19:0x00000019  x2:0xf80002e4
       64985000	      6497	00000000	00000013	addi	x0,x0,0	  x0:0x00000000
       64995000	      6498	80003330	00000013	addi	x0,x0,0	  x0:0x00000000
       65005000	      6499	80003334	71d76697	auipc	x13,0x71d76	 x13=0xf1d79330
       65015000	      6500	80003338	017dd263	bge	x27,x23,8000333c	 x27:0x1d37d000 x23:0x80009f1c
       65025000	      6501	00000000	00000013	addi	x0,x0,0	  x0:0x00000000
       65035000	      6502	80003338	00000013	addi	x0,x0,0	  x0:0x00000000
       65045000	      6503	8000333c	01407663	bgeu	x0,x20,80003348	  x0:0x00000000 x20:0x00000000
       65055000	      6504	00000000	00000013	addi	x0,x0,0	  x0:0x00000000
       65065000	      6505	80003344	00000013	addi	x0,x0,0	  x0:0x00000000
       65075000	      6506	80003348	002cd263	bge	x25,x2,8000334c	 x25:0xfe480000  x2:0xf80002e4
       65085000	      6507	00000000	00000013	addi	x0,x0,0	  x0:0x00000000
       65095000	      6508	80003348	00000013	addi	x0,x0,0	  x0:0x00000000
       65105000	      6509	8000334c	01b96d33	or	x26,x18,x27	 x18:0x00000000 x27:0x1d37d000 x26=0x1d37d000
       65115000	      6510	80003350	05331063	bne	x6,x19,80003390	  x6:0x000072f7 x19:0x00000019
       65125000	      6511	00000000	00000013	addi	x0,x0,0	  x0:0x00000000
       65135000	      6512	8000338c	00000013	addi	x0,x0,0	  x0:0x00000000
       65145000	      6513	80003390	01521e33	sll	x28,x4,x21	  x4:0x00000001 x21:0xffeffae5 x28=0x00000020
       65155000	      6514	80003394	36df8d17	auipc	x26,0x36df8	 x26=0xb6dfb390
       65165000	      6515	80003398	eed07fb7	lui	x31,0xeed07	 x31=0xeed07000
       65175000	      6516	8000339c	41785433	sra	x8,x16,x23	 x16:0xc1a9a001 x23:0x80009f1c  x8=0xfffffffc
       65185000	      6517	800033a0	1d508e93	addi	x29,x1,469	  x1:0x00000000 x29=0x000001d5
       65195000	      6518	800033a4	00715013	srli	x0,x2,0x7	  x2:0xf80002e4
       65205000	      6519	800033a8	41f603b3	sub	x7,x12,x31	 x12:0x669762b4 x31:0xeed07000  x7=0x77c6f2b4
       65215000	      6520	800033ac	4efd7c93	andi	x25,x26,1263	 x26:0xb6dfb390 x25=0x00000080
       65225000	      6521	800033b0	06de9263	bne	x29,x13,80003414	 x29:0x000001d5 x13:0xf1d79330
       65235000	      6522	00000000	00000013	addi	x0,x0,0	  x0:0x00000000
       65245000	      6523	80003410	00000013	addi	x0,x0,0	  x0:0x00000000
       65255000	      6524	80003414	bd26f837	lui	x16,0xbd26f	 x16=0xbd26f000
       65265000	      6525	80003418	0133fe63	bgeu	x7,x19,80003434	  x7:0x77c6f2b4 x19:0x00000019
       65275000	      6526	00000000	00000013	addi	x0,x0,0	  x0:0x00000000
       65285000	      6527	80003430	00000013	addi	x0,x0,0	  x0:0x00000000
       65295000	      6528	80003434	1196ceb7	lui	x29,0x1196c	 x29=0x1196c000
       65305000	      6529	80003438	97729e37	lui	x28,0x97729	 x28=0x97729000
       65315000	      6530	8000343c	a82b3593	sltiu	x11,x22,-1406	 x22:0xc1a9a000 x11=0x00000001
       65325000	      6531	80003440	04d28663	beq	x5,x13,8000348c	  x5:0x00000001 x13:0xf1d79330
       65335000	      6532	80003444	4093df33	sra	x30,x7,x9	  x7:0x77c6f2b4  x9:0x2601d000 x30=0x77c6f2b4
       65345000	      6533	80003448	54a26513	ori	x10,x4,1354	  x4:0x00000001 x10=0x0000054b
       65355000	      6534	8000344c	02d95463	bge	x18,x13,80003474	 x18:0x00000000 x13:0xf1d79330
       65365000	      6535	00000000	00000013	addi	x0,x0,0	  x0:0x00000000
       65375000	      6536	80003470	00000013	addi	x0,x0,0	  x0:0x00000000
       65385000	      6537	80003474	04e84063	blt	x16,x14,800034b4	 x16:0xbd26f000 x14:0x00000004
       65395000	      6538	00000000	00000013	addi	x0,x0,0	  x0:0x00000000
       65405000	      6539	800034b0	00000013	addi	x0,x0,0	  x0:0x00000000
       65415000	      6540	800034b4	00e91793	slli	x15,x18,0xe	 x18:0x00000000 x15=0x00000000
       65425000	      6541	800034b8	0da30337	lui	x6,0xda30	  x6=0x0da30000
       65435000	      6542	800034bc	48573993	sltiu	x19,x14,1157	 x14:0x00000004 x19=0x00000001
       65445000	      6543	800034c0	0368c863	blt	x17,x22,800034f0	 x17:0x80009fc4 x22:0xc1a9a000
       65455000	      6544	00000000	00000013	addi	x0,x0,0	  x0:0x00000000
       65465000	      6545	800034ec	00000013	addi	x0,x0,0	  x0:0x00000000
       65475000	      6546	800034f0	010a99b3	sll	x19,x21,x16	 x21:0xffeffae5 x16:0xbd26f000 x19=0xffeffae5
       65485000	      6547	800034f4	1c0cad13	slti	x26,x25,448	 x25:0x00000080 x26=0x00000001
       65495000	      6548	800034f8	f9474593	xori	x11,x14,-108	 x14:0x00000004 x11=0xffffff90
       65505000	      6549	800034fc	01f6d093	srli	x1,x13,0x1f	 x13:0xf1d79330  x1=0x00000001
       65515000	      6550	80003500	f1248593	addi	x11,x9,-238	  x9:0x2601d000 x11=0x2601cf12
       65525000	      6551	80003504	f47e4f13	xori	x30,x28,-185	 x28:0x97729000 x30=0x688d6f47
       65535000	      6552	80003508	018f83b3	add	x7,x31,x24	 x31:0xeed07000 x24:0xfffffe75  x7=0xeed06e75
       65545000	      6553	8000350c	02c000ef	jal	x1,8000350c	  x1=0x8000350c
       65555000	      6554	00000000	00000013	addi	x0,x0,0	  x0:0x00000000
       65565000	      6555	80003534	00000013	addi	x0,x0,0	  x0:0x00000000
       65575000	      6556	80003538	01c0036f	jal	x6,80003538	  x6=0x80003538
       65585000	      6557	00000000	00000013	addi	x0,x0,0	  x0:0x00000000
       65595000	      6558	80003550	00000013	addi	x0,x0,0	  x0:0x00000000
       65605000	      6559	80003554	0040036f	jal	x6,80003554	  x6=0x80003554
       65615000	      6560	00000000	00000013	addi	x0,x0,0	  x0:0x00000000
       65625000	      6561	80003554	00000013	addi	x0,x0,0	  x0:0x00000000
       65635000	      6562	80003558	fddff0ef	jal	x1,80003558	  x1=0x80003558
       65645000	      6563	00000000	00000013	addi	x0,x0,0	  x0:0x00000000
       65655000	      6564	80003530	00000013	addi	x0,x0,0	  x0:0x00000000
       65665000	      6565	80003534	fddffcef	jal	x25,80003534	 x25=0x80003534
       65675000	      6566	00000000	00000013	addi	x0,x0,0	  x0:0x00000000
       65685000	      6567	8000350c	00000013	addi	x0,x0,0	  x0:0x00000000
       65695000	      6568	80003510	02000e6f	jal	x28,80003510	 x28=0x80003510
       65705000	      6569	00000000	00000013	addi	x0,x0,0	  x0:0x00000000
       65715000	      6570	8000352c	00000013	addi	x0,x0,0	  x0:0x00000000
       65725000	      6571	80003530	fe9ff1ef	jal	x3,80003530	  x3=0x80003530
       65735000	      6572	00000000	00000013	addi	x0,x0,0	  x0:0x00000000
       65745000	      6573	80003514	00000013	addi	x0,x0,0	  x0:0x00000000
       65755000	      6574	80003518	00400eef	jal	x29,80003518	 x29=0x80003518
       65765000	      6575	00000000	00000013	addi	x0,x0,0	  x0:0x00000000
       65775000	      6576	80003518	00000013	addi	x0,x0,0	  x0:0x00000000
       65785000	      6577	8000351c	0440036f	jal	x6,8000351c	  x6=0x8000351c
       65795000	      6578	00000000	00000013	addi	x0,x0,0	  x0:0x00000000
       65805000	      6579	8000355c	00000013	addi	x0,x0,0	  x0:0x00000000
       65815000	      6580	80003560	fe5ff26f	jal	x4,80003560	  x4=0x80003560
       65825000	      6581	00000000	00000013	addi	x0,x0,0	  x0:0x00000000
       65835000	      6582	80003540	00000013	addi	x0,x0,0	  x0:0x00000000
       65845000	      6583	80003544	ff9ff16f	jal	x2,80003544	  x2=0x80003544
       65855000	      6584	00000000	00000013	addi	x0,x0,0	  x0:0x00000000
       65865000	      6585	80003538	00000013	addi	x0,x0,0	  x0:0x00000000
       65875000	      6586	8000353c	fd9ff36f	jal	x6,8000353c	  x6=0x8000353c
       65885000	      6587	00000000	00000013	addi	x0,x0,0	  x0:0x00000000
       65895000	      6588	80003510	00000013	addi	x0,x0,0	  x0:0x00000000
       65905000	      6589	80003514	03c000ef	jal	x1,80003514	  x1=0x80003514
       65915000	      6590	00000000	00000013	addi	x0,x0,0	  x0:0x00000000
       65925000	      6591	8000354c	00000013	addi	x0,x0,0	  x0:0x00000000
       65935000	      6592	80003550	0140036f	jal	x6,80003550	  x6=0x80003550
       65945000	      6593	00000000	00000013	addi	x0,x0,0	  x0:0x00000000
       65955000	      6594	80003560	00000013	addi	x0,x0,0	  x0:0x00000000
       65965000	      6595	80003564	008000ef	jal	x1,80003564	  x1=0x80003564
       65975000	      6596	00000000	00000013	addi	x0,x0,0	  x0:0x00000000
       65985000	      6597	80003568	00000013	addi	x0,x0,0	  x0:0x00000000
       65995000	      6598	8000356c	ffdff2ef	jal	x5,8000356c	  x5=0x8000356c
       66005000	      6599	00000000	00000013	addi	x0,x0,0	  x0:0x00000000
       66015000	      6600	80003564	00000013	addi	x0,x0,0	  x0:0x00000000
       66025000	      6601	80003568	fc5ff0ef	jal	x1,80003568	  x1=0x80003568
       66035000	      6602	00000000	00000013	addi	x0,x0,0	  x0:0x00000000
       66045000	      6603	80003528	00000013	addi	x0,x0,0	  x0:0x00000000
       66055000	      6604	8000352c	020000ef	jal	x1,8000352c	  x1=0x8000352c
       66065000	      6605	00000000	00000013	addi	x0,x0,0	  x0:0x00000000
       66075000	      6606	80003548	00000013	addi	x0,x0,0	  x0:0x00000000
       66085000	      6607	8000354c	fd9ff0ef	jal	x1,8000354c	  x1=0x8000354c
       66095000	      6608	00000000	00000013	addi	x0,x0,0	  x0:0x00000000
       66105000	      6609	80003520	00000013	addi	x0,x0,0	  x0:0x00000000
       66115000	      6610	80003524	01c0036f	jal	x6,80003524	  x6=0x80003524
       66125000	      6611	00000000	00000013	addi	x0,x0,0	  x0:0x00000000
       66135000	      6612	8000353c	00000013	addi	x0,x0,0	  x0:0x00000000
       66145000	      6613	80003540	008000ef	jal	x1,80003540	  x1=0x80003540
       66155000	      6614	00000000	00000013	addi	x0,x0,0	  x0:0x00000000
       66165000	      6615	80003544	00000013	addi	x0,x0,0	  x0:0x00000000
       66175000	      6616	80003548	fe1ff0ef	jal	x1,80003548	  x1=0x80003548
       66185000	      6617	00000000	00000013	addi	x0,x0,0	  x0:0x00000000
       66195000	      6618	80003524	00000013	addi	x0,x0,0	  x0:0x00000000
       66205000	      6619	80003528	ff9ff0ef	jal	x1,80003528	  x1=0x80003528
       66215000	      6620	00000000	00000013	addi	x0,x0,0	  x0:0x00000000
       66225000	      6621	8000351c	00000013	addi	x0,x0,0	  x0:0x00000000
       66235000	      6622	80003520	03c0016f	jal	x2,80003520	  x2=0x80003520
       66245000	      6623	00000000	00000013	addi	x0,x0,0	  x0:0x00000000
       66255000	      6624	80003558	00000013	addi	x0,x0,0	  x0:0x00000000
       66265000	      6625	8000355c	01400b6f	jal	x22,8000355c	 x22=0x8000355c
       66275000	      6626	00000000	00000013	addi	x0,x0,0	  x0:0x00000000
       66285000	      6627	8000356c	00000013	addi	x0,x0,0	  x0:0x00000000
       66295000	      6628	80003570	00000013	addi	x0,x0,0	  x0:0x00000000
       66305000	      6629	80003574	78726913	ori	x18,x4,1927	  x4:0x80003560 x18=0x800037e7
       66315000	      6630	80003578	006d9c63	bne	x27,x6,80003590	 x27:0x1d37d000  x6:0x80003524
       66325000	      6631	00000000	00000013	addi	x0,x0,0	  x0:0x00000000
       66335000	      6632	8000358c	00000013	addi	x0,x0,0	  x0:0x00000000
       66345000	      6633	80003590	0125fd33	and	x26,x11,x18	 x11:0x2601cf12 x18:0x800037e7 x26=0x00000702
       66355000	      6634	80003594	07ba6113	ori	x2,x20,123	 x20:0x00000000  x2=0x0000007b
       66365000	      6635	80003598	00395693	srli	x13,x18,0x3	 x18:0x800037e7 x13=0x100006fc
       66375000	      6636	8000359c	e4104b13	xori	x22,x0,-447	  x0:0x00000000 x22=0xfffffe41
       66385000	      6637	800035a0	01544c63	blt	x8,x21,800035b8	  x8:0xfffffffc x21:0xffeffae5
       66395000	      6638	800035a4	626a0393	addi	x7,x20,1574	 x20:0x00000000  x7=0x00000626
       66405000	      6639	800035a8	0056b533	sltu	x10,x13,x5	 x13:0x100006fc  x5:0x8000356c x10=0x00000001
       66415000	      6640	800035ac	b0272d13	slti	x26,x14,-1278	 x14:0x00000004 x26=0x00000000
       66425000	      6641	800035b0	41955193	srai	x3,x10,0x19	 x10:0x00000001  x3=0x00000000
       66435000	      6642	800035b4	011c5db3	srl	x27,x24,x17	 x24:0xfffffe75 x17:0x80009fc4 x27=0x0fffffe7
       66445000	      6643	800035b8	020ef863	bgeu	x29,x0,800035e8	 x29:0x80003518  x0:0x00000000
       66455000	      6644	00000000	00000013	addi	x0,x0,0	  x0:0x00000000
       66465000	      6645	800035e4	00000013	addi	x0,x0,0	  x0:0x00000000
       66475000	      6646	800035e8	01dff5b3	and	x11,x31,x29	 x31:0xeed07000 x29:0x80003518 x11=0x80003000
       66485000	      6647	800035ec	00000013	addi	x0,x0,0	  x0:0x00000000
       66495000	      6648	800035f0	04ba0b13	addi	x22,x20,75	 x20:0x00000000 x22=0x0000004b
       66505000	      6649	800035f4	00f733b3	sltu	x7,x14,x15	 x14:0x00000004 x15:0x00000000  x7=0x00000000
       66515000	      6650	800035f8	c1ccc817	auipc	x16,0xc1ccc	 x16=0x41ccf5f4
       66525000	      6651	800035fc	000b3633	sltu	x12,x22,x0	 x22:0x0000004b  x0:0x00000000 x12=0x00000000
       66535000	      6652	80003600	5c937317	auipc	x6,0x5c937	  x6=0xdc93a5fc
       66545000	      6653	80003604	9d2d6d13	ori	x26,x26,-1582	 x26:0x00000000 x26=0xfffff9d2
       66555000	      6654	80003608	00396fb3	or	x31,x18,x3	 x18:0x800037e7  x3:0x00000000 x31=0x800037e7
       66565000	      6655	8000360c	403addb3	sra	x27,x21,x3	 x21:0xffeffae5  x3:0x00000000 x27=0xffeffae5
       66575000	      6656	80003610	dfeabf13	sltiu	x30,x21,-514	 x21:0xffeffae5 x30=0x00000001
       66585000	      6657	80003614	00430633	add	x12,x6,x4	  x6:0xdc93a5fc  x4:0x80003560 x12=0x5c93db5c
       66595000	      6658	80003618	00000013	addi	x0,x0,0	  x0:0x00000000
       66605000	      6659	8000361c	00aa5e33	srl	x28,x20,x10	 x20:0x00000000 x10:0x00000001 x28=0x00000000
       66615000	      6660	80003620	4077d993	srai	x19,x15,0x7	 x15:0x00000000 x19=0x00000000
       66625000	      6661	80003624	409d89b3	sub	x19,x27,x9	 x27:0xffeffae5  x9:0x2601d000 x19=0xd9ee2ae5
       66635000	      6662	80003628	00559613	slli	x12,x11,0x5	 x11:0x80003000 x12=0x00060000
       66645000	      6663	8000362c	00000013	addi	x0,x0,0	  x0:0x00000000
       66655000	      6664	80003630	013af2b3	and	x5,x21,x19	 x21:0xffeffae5 x19:0xd9ee2ae5  x5=0xd9ee2ae5
       66665000	      6665	80003634	01166fb3	or	x31,x12,x17	 x12:0x00060000 x17:0x80009fc4 x31=0x80069fc4
       66675000	      6666	80003638	008da7b3	slt	x15,x27,x8	 x27:0xffeffae5  x8:0xfffffffc x15=0x00000001
       66685000	      6667	8000363c	010a5233	srl	x4,x20,x16	 x20:0x00000000 x16:0x41ccf5f4  x4=0x00000000
       66695000	      6668	80003640	40dfdd93	srai	x27,x31,0xd	 x31:0x80069fc4 x27=0xfffc0034
       66705000	      6669	80003644	4079d993	srai	x19,x19,0x7	 x19:0xd9ee2ae5 x19=0xffb3dc55
       66715000	      6670	80003648	01195eb3	srl	x29,x18,x17	 x18:0x800037e7 x17:0x80009fc4 x29=0x0800037e
       66725000	      6671	8000364c	014c7ab3	and	x21,x24,x20	 x24:0xfffffe75 x20:0x00000000 x21=0x00000000
       66735000	      6672	80003650	05034213	xori	x4,x6,80	  x6:0xdc93a5fc  x4=0xdc93a5ac
       66745000	      6673	80003654	00171633	sll	x12,x14,x1	 x14:0x00000004  x1:0x80003528 x12=0x00000400
       66755000	      6674	80003658	01744ab3	xor	x21,x8,x23	  x8:0xfffffffc x23:0x80009f1c x21=0x7fff60e0
       66765000	      6675	8000365c	40590433	sub	x8,x18,x5	 x18:0x800037e7  x5:0xd9ee2ae5  x8=0xa6120d02
       66775000	      6676	80003660	019bfe63	bgeu	x23,x25,8000367c	 x23:0x80009f1c x25:0x80003534
       66785000	      6677	00000000	00000013	addi	x0,x0,0	  x0:0x00000000
       66795000	      6678	80003678	00000013	addi	x0,x0,0	  x0:0x00000000
       66805000	      6679	8000367c	bafb6413	ori	x8,x22,-1105	 x22:0x0000004b  x8=0xfffffbef
       66815000	      6680	80003680	01237c63	bgeu	x6,x18,80003698	  x6:0xdc93a5fc x18:0x800037e7
       66825000	      6681	00000000	00000013	addi	x0,x0,0	  x0:0x00000000
       66835000	      6682	80003694	00000013	addi	x0,x0,0	  x0:0x00000000
       66845000	      6683	80003698	018d6333	or	x6,x26,x24	 x26:0xfffff9d2 x24:0xfffffe75  x6=0xfffffff7
       66855000	      6684	8000369c	00ec1493	slli	x9,x24,0xe	 x24:0xfffffe75  x9=0xff9d4000
       66865000	      6685	800036a0	01330463	beq	x6,x19,800036a8	  x6:0xfffffff7 x19:0xffb3dc55
       66875000	      6686	800036a4	00f81793	slli	x15,x16,0xf	 x16:0x41ccf5f4 x15=0x7afa0000
       66885000	      6687	800036a8	f5a1ac13	slti	x24,x3,-166	  x3:0x00000000 x24=0x00000000
       66895000	      6688	800036ac	05776263	bltu	x14,x23,800036f0	 x14:0x00000004 x23:0x80009f1c
       66905000	      6689	00000000	00000013	addi	x0,x0,0	  x0:0x00000000
       66915000	      6690	800036ec	00000013	addi	x0,x0,0	  x0:0x00000000
       66925000	      6691	800036f0	137f2993	slti	x19,x30,311	 x30:0x00000001 x19=0x00000001
       66935000	      6692	800036f4	01b5f863	bgeu	x11,x27,80003704	 x11:0x80003000 x27:0xfffc0034
       66945000	      6693	800036f8	e8cbbc93	sltiu	x25,x23,-372	 x23:0x80009f1c x25=0x00000001
       66955000	      6694	800036fc	405784b3	sub	x9,x15,x5	 x15:0x7afa0000  x5:0xd9ee2ae5  x9=0xa10bd51b
       66965000	      6695	80003700	000dc463	blt	x27,x0,80003708	 x27:0xfffc0034  x0:0x00000000
       66975000	      6696	00000000	00000013	addi	x0,x0,0	  x0:0x00000000
       66985000	      6697	80003704	00000013	addi	x0,x0,0	  x0:0x00000000
       66995000	      6698	80003708	00000013	addi	x0,x0,0	  x0:0x00000000
       67005000	      6699	8000370c	9084ef17	auipc	x30,0x9084e	 x30=0x10851708
       67015000	      6700	80003710	de06f237	lui	x4,0xde06f	  x4=0xde06f000
       67025000	      6701	80003714	00621eb3	sll	x29,x4,x6	  x4:0xde06f000  x6:0xfffffff7 x29=0x00000000
       67035000	      6702	80003718	03044863	blt	x8,x16,80003748	  x8:0xfffffbef x16:0x41ccf5f4
       67045000	      6703	00000000	00000013	addi	x0,x0,0	  x0:0x00000000
       67055000	      6704	80003744	00000013	addi	x0,x0,0	  x0:0x00000000
       67065000	      6705	80003748	015b85b3	add	x11,x23,x21	 x23:0x80009f1c x21:0x7fff60e0 x11=0xfffffffc
       67075000	      6706	8000374c	02d90863	beq	x18,x13,8000377c	 x18:0x800037e7 x13:0x100006fc
       67085000	      6707	80003750	f5611a37	lui	x20,0xf5611	 x20=0xf5611000
       67095000	      6708	80003754	686a6f13	ori	x30,x20,1670	 x20:0xf5611000 x30=0xf5611686
       67105000	      6709	80003758	01365b13	srli	x22,x12,0x13	 x12:0x00000400 x22=0x00000000
       67115000	      6710	8000375c	36156c93	ori	x25,x10,865	 x10:0x00000001 x25=0x00000361
       67125000	      6711	80003760	017932b3	sltu	x5,x18,x23	 x18:0x800037e7 x23:0x80009f1c  x5=0x00000001
       67135000	      6712	80003764	205823b7	lui	x7,0x20582	  x7=0x20582000
       67145000	      6713	80003768	0161a7b3	slt	x15,x3,x22	  x3:0x00000000 x22:0x00000000 x15=0x00000000
       67155000	      6714	8000376c	b68a6913	ori	x18,x20,-1176	 x20:0xf5611000 x18=0xfffffb68
       67165000	      6715	80003770	01fd1cb3	sll	x25,x26,x31	 x26:0xfffff9d2 x31:0x80069fc4 x25=0xffff9d20
       67175000	      6716	80003774	01d9c263	blt	x19,x29,80003778	 x19:0x00000001 x29:0x00000000
       67185000	      6717	80003778	0506d663	bge	x13,x16,800037c4	 x13:0x100006fc x16:0x41ccf5f4
       67195000	      6718	8000377c	405bdf13	srai	x30,x23,0x5	 x23:0x80009f1c x30=0xfc0004f8
       67205000	      6719	80003780	01cbd493	srli	x9,x23,0x1c	 x23:0x80009f1c  x9=0x00000008
       67215000	      6720	80003784	0546c663	blt	x13,x20,800037d0	 x13:0x100006fc x20:0xf5611000
       67225000	      6721	80003788	3e5cb793	sltiu	x15,x25,997	 x25:0xffff9d20 x15=0x00000000
       67235000	      6722	8000378c	0009c1b3	xor	x3,x19,x0	 x19:0x00000001  x0:0x00000000  x3=0x00000001
       67245000	      6723	80003790	cf952f93	slti	x31,x10,-775	 x10:0x00000001 x31=0x00000000
       67255000	      6724	80003794	01e1f533	and	x10,x3,x30	  x3:0x00000001 x30:0xfc0004f8 x10=0x00000000
       67265000	      6725	80003798	013436b3	sltu	x13,x8,x19	  x8:0xfffffbef x19:0x00000001 x13=0x00000000
       67275000	      6726	8000379c	41745493	srai	x9,x8,0x17	  x8:0xfffffbef  x9=0xffffffff
       67285000	      6727	800037a0	40e600b3	sub	x1,x12,x14	 x12:0x00000400 x14:0x00000004  x1=0x000003fc
       67295000	      6728	800037a4	003a2133	slt	x2,x20,x3	 x20:0xf5611000  x3:0x00000001  x2=0x00000001
       67305000	      6729	800037a8	008a8133	add	x2,x21,x8	 x21:0x7fff60e0  x8:0xfffffbef  x2=0x7fff5ccf
       67315000	      6730	800037ac	0edae813	ori	x16,x21,237	 x21:0x7fff60e0 x16=0x7fff60ed
       67325000	      6731	800037b0	01e90663	beq	x18,x30,800037bc	 x18:0xfffffb68 x30:0xfc0004f8
       67335000	      6732	800037b4	815c4593	xori	x11,x24,-2027	 x24:0x00000000 x11=0xfffff815
       67345000	      6733	800037b8	dfa06e93	ori	x29,x0,-518	  x0:0x00000000 x29=0xfffffdfa
       67355000	      6734	800037bc	416b52b3	sra	x5,x22,x22	 x22:0x00000000 x22:0x00000000  x5=0x00000000
       67365000	      6735	800037c0	00ab7433	and	x8,x22,x10	 x22:0x00000000 x10:0x00000000  x8=0x00000000
       67375000	      6736	800037c4	01b89e63	bne	x17,x27,800037e0	 x17:0x80009fc4 x27:0xfffc0034
       67385000	      6737	00000000	00000013	addi	x0,x0,0	  x0:0x00000000
       67395000	      6738	800037dc	00000013	addi	x0,x0,0	  x0:0x00000000
       67405000	      6739	800037e0	415c8f33	sub	x30,x25,x21	 x25:0xffff9d20 x21:0x7fff60e0 x30=0x80003c40
       67415000	      6740	800037e4	003a7c33	and	x24,x20,x3	 x20:0xf5611000  x3:0x00000001 x24=0x00000000
       67425000	      6741	800037e8	407b56b3	sra	x13,x22,x7	 x22:0x00000000  x7:0x20582000 x13=0x00000000
       67435000	      6742	800037ec	00588663	beq	x17,x5,800037f8	 x17:0x80009fc4  x5:0x00000000
       67445000	      6743	800037f0	40605313	srai	x6,x0,0x6	  x0:0x00000000  x6=0x00000000
       67455000	      6744	800037f4	41f002b3	sub	x5,x0,x31	  x0:0x00000000 x31:0x00000000  x5=0x00000000
       67465000	      6745	800037f8	0f4def13	ori	x30,x27,244	 x27:0xfffc0034 x30=0xfffc00f4
       67475000	      6746	800037fc	03a7c863	blt	x15,x26,8000382c	 x15:0x00000000 x26:0xfffff9d2
       67485000	      6747	80003800	011c1933	sll	x18,x24,x17	 x24:0x00000000 x17:0x80009fc4 x18=0x00000000
       67495000	      6748	80003804	80fe6793	ori	x15,x28,-2033	 x28:0x00000000 x15=0xfffff80f
       67505000	      6749	80003808	00ec9e33	sll	x28,x25,x14	 x25:0xffff9d20 x14:0x00000004 x28=0xfff9d200
       67515000	      6750	8000380c	0031ea33	or	x20,x3,x3	  x3:0x00000001  x3:0x00000001 x20=0x00000001
       67525000	      6751	80003810	c79ec537	lui	x10,0xc79ec	 x10=0xc79ec000
       67535000	      6752	80003814	009c17b3	sll	x15,x24,x9	 x24:0x00000000  x9:0xffffffff x15=0x00000000
       67545000	      6753	80003818	40288933	sub	x18,x17,x2	 x17:0x80009fc4  x2:0x7fff5ccf x18=0x000142f5
       67555000	      6754	8000381c	006cd193	srli	x3,x25,0x6	 x25:0xffff9d20  x3=0x03fffe74
       67565000	      6755	80003820	0a980293	addi	x5,x16,169	 x16:0x7fff60ed  x5=0x7fff6196
       67575000	      6756	80003824	8adca913	slti	x18,x25,-1875	 x25:0xffff9d20 x18=0x00000001
       67585000	      6757	80003828	008b7933	and	x18,x22,x8	 x22:0x00000000  x8:0x00000000 x18=0x00000000
       67595000	      6758	8000382c	3f49f093	andi	x1,x19,1012	 x19:0x00000001  x1=0x00000000
       67605000	      6759	80003830	4c6c65b7	lui	x11,0x4c6c6	 x11=0x4c6c6000
       67615000	      6760	80003834	01dcca33	xor	x20,x25,x29	 x25:0xffff9d20 x29:0xfffffdfa x20=0x000060da
       67625000	      6761	80003838	05b5d063	bge	x11,x27,80003878	 x11:0x4c6c6000 x27:0xfffc0034
       67635000	      6762	00000000	00000013	addi	x0,x0,0	  x0:0x00000000
       67645000	      6763	80003874	00000013	addi	x0,x0,0	  x0:0x00000000
       67655000	      6764	80003878	01411133	sll	x2,x2,x20	  x2:0x7fff5ccf x20:0x000060da  x2=0x3c000000
       67665000	      6765	8000387c	51726e93	ori	x29,x4,1303	  x4:0xde06f000 x29=0xde06f517
       67675000	      6766	80003880	40ed0ab3	sub	x21,x26,x14	 x26:0xfffff9d2 x14:0x00000004 x21=0xfffff9ce
       67685000	      6767	80003884	00c84e33	xor	x28,x16,x12	 x16:0x7fff60ed x12:0x00000400 x28=0x7fff64ed
       67695000	      6768	80003888	86ccbc93	sltiu	x25,x25,-1940	 x25:0xffff9d20 x25=0x00000001
       67705000	      6769	8000388c	0013d413	srli	x8,x7,0x1	  x7:0x20582000  x8=0x102c1000
       67715000	      6770	80003890	019ded33	or	x26,x27,x25	 x27:0xfffc0034 x25:0x00000001 x26=0xfffc0035
       67725000	      6771	80003894	7794ff13	andi	x30,x9,1913	  x9:0xffffffff x30=0x00000779
       67735000	      6772	80003898	0056d5b3	srl	x11,x13,x5	 x13:0x00000000  x5:0x7fff6196 x11=0x00000000
       67745000	      6773	8000389c	64486793	ori	x15,x16,1604	 x16:0x7fff60ed x15=0x7fff66ed
       67755000	      6774	800038a0	004df233	and	x4,x27,x4	 x27:0xfffc0034  x4:0xde06f000  x4=0xde040000
       67765000	      6775	800038a4	00a20263	beq	x4,x10,800038a8	  x4:0xde040000 x10:0xc79ec000
       67775000	      6776	800038a8	b1d14493	xori	x9,x2,-1251	  x2:0x3c000000  x9=0xc3fffb1d
       67785000	      6777	800038ac	01d55eb3	srl	x29,x10,x29	 x10:0xc79ec000 x29:0xde06f517 x29=0x0000018f
       67795000	      6778	800038b0	00706533	or	x10,x0,x7	  x0:0x00000000  x7:0x20582000 x10=0x20582000
       67805000	      6779	800038b4	40a30a33	sub	x20,x6,x10	  x6:0x00000000 x10:0x20582000 x20=0xdfa7e000
       67815000	      6780	800038b8	003f6533	or	x10,x30,x3	 x30:0x00000779  x3:0x03fffe74 x10=0x03ffff7d
       67825000	      6781	800038bc	bbd552b7	lui	x5,0xbbd55	  x5=0xbbd55000
       67835000	      6782	800038c0	e3804213	xori	x4,x0,-456	  x0:0x00000000  x4=0xfffffe38
       67845000	      6783	800038c4	01018863	beq	x3,x16,800038d4	  x3:0x03fffe74 x16:0x7fff60ed
       67855000	      6784	800038c8	0149fc63	bgeu	x19,x20,800038e0	 x19:0x00000001 x20:0xdfa7e000
       67865000	      6785	800038cc	02adc013	xori	x0,x27,42	 x27:0xfffc0034
       67875000	      6786	800038d0	00f0ae33	slt	x28,x1,x15	  x1:0x00000000 x15:0x7fff66ed x28=0x00000001
       67885000	      6787	800038d4	41368b33	sub	x22,x13,x19	 x13:0x00000000 x19:0x00000001 x22=0xffffffff
       67895000	      6788	800038d8	70192c93	slti	x25,x18,1793	 x18:0x00000000 x25=0x00000001
       67905000	      6789	800038dc	00e9dc63	bge	x19,x14,800038f4	 x19:0x00000001 x14:0x00000004
       67915000	      6790	800038e0	049ff263	bgeu	x31,x9,80003924	 x31:0x00000000  x9:0xc3fffb1d
       67925000	      6791	800038e4	02775863	bge	x14,x7,80003914	 x14:0x00000004  x7:0x20582000
       67935000	      6792	800038e8	202c7613	andi	x12,x24,514	 x24:0x00000000 x12=0x00000000
       67945000	      6793	800038ec	00a95e63	bge	x18,x10,80003908	 x18:0x00000000 x10:0x03ffff7d
       67955000	      6794	800038f0	0084d913	srli	x18,x9,0x8	  x9:0xc3fffb1d x18=0x00c3fffb
       67965000	      6795	800038f4	00ab1017	auipc	x0,0xab1	
       67975000	      6796	800038f8	95397513	andi	x10,x18,-1709	 x18:0x00c3fffb x10=0x00c3f953
       67985000	      6797	800038fc	00e70eb3	add	x29,x14,x14	 x14:0x00000004 x14:0x00000004 x29=0x00000008
       67995000	      6798	80003900	40e750b3	sra	x1,x14,x14	 x14:0x00000004 x14:0x00000004  x1=0x00000000
       68005000	      6799	80003904	002ce2b3	or	x5,x25,x2	 x25:0x00000001  x2:0x3c000000  x5=0x3c000001
       68015000	      6800	80003908	0112d6b3	srl	x13,x5,x17	  x5:0x3c000001 x17:0x80009fc4 x13=0x03c00000
       68025000	      6801	8000390c	4153af93	slti	x31,x7,1045	  x7:0x20582000 x31=0x00000000
       68035000	      6802	80003910	6ade7093	andi	x1,x28,1709	 x28:0x00000001  x1=0x00000001
       68045000	      6803	80003914	8c884f93	xori	x31,x16,-1848	 x16:0x7fff60ed x31=0x80009825
       68055000	      6804	80003918	01849913	slli	x18,x9,0x18	  x9:0xc3fffb1d x18=0x1d000000
       68065000	      6805	8000391c	01aa7c63	bgeu	x20,x26,80003934	 x20:0xdfa7e000 x26:0xfffc0035
       68075000	      6806	80003920	00000013	addi	x0,x0,0	  x0:0x00000000
       68085000	      6807	80003924	07c38f13	addi	x30,x7,124	  x7:0x20582000 x30=0x2058207c
       68095000	      6808	80003928	03be1863	bne	x28,x27,80003958	 x28:0x00000001 x27:0xfffc0034
       68105000	      6809	00000000	00000013	addi	x0,x0,0	  x0:0x00000000
       68115000	      6810	80003954	00000013	addi	x0,x0,0	  x0:0x00000000
       68125000	      6811	80003958	02654813	xori	x16,x10,38	 x10:0x00c3f953 x16=0x00c3f975
       68135000	      6812	8000395c	008b7133	and	x2,x22,x8	 x22:0xffffffff  x8:0x102c1000  x2=0x102c1000
       68145000	      6813	80003960	013372b3	and	x5,x6,x19	  x6:0x00000000 x19:0x00000001  x5=0x00000000
       68155000	      6814	80003964	b3feae13	slti	x28,x29,-1217	 x29:0x00000008 x28=0x00000000
       68165000	      6815	80003968	003aee63	bltu	x21,x3,80003984	 x21:0xfffff9ce  x3:0x03fffe74
       68175000	      6816	8000396c	02c69863	bne	x13,x12,8000399c	 x13:0x03c00000 x12:0x00000000
       68185000	      6817	00000000	00000013	addi	x0,x0,0	  x0:0x00000000
       68195000	      6818	80003998	00000013	addi	x0,x0,0	  x0:0x00000000
       68205000	      6819	8000399c	4b77fa37	lui	x20,0x4b77f	 x20=0x4b77f000
       68215000	      6820	800039a0	627e4f37	lui	x30,0x627e4	 x30=0x627e4000
       68225000	      6821	800039a4	0121dc63	bge	x3,x18,800039bc	  x3:0x03fffe74 x18:0x1d000000
       68235000	      6822	800039a8	009c7fb3	and	x31,x24,x9	 x24:0x00000000  x9:0xc3fffb1d x31=0x00000000
       68245000	      6823	800039ac	f5d7cd97	auipc	x27,0xf5d7c	 x27=0x75d7f9a8
       68255000	      6824	800039b0	44a0e413	ori	x8,x1,1098	  x1:0x00000001  x8=0x0000044b
       68265000	      6825	800039b4	0153b5b3	sltu	x11,x7,x21	  x7:0x20582000 x21:0xfffff9ce x11=0x00000001
       68275000	      6826	800039b8	cfb6e693	ori	x13,x13,-773	 x13:0x03c00000 x13=0xfffffcfb
       68285000	      6827	800039bc	008ec263	blt	x29,x8,800039c0	 x29:0x00000008  x8:0x0000044b
       68295000	      6828	00000000	00000013	addi	x0,x0,0	  x0:0x00000000
       68305000	      6829	800039bc	00000013	addi	x0,x0,0	  x0:0x00000000
       68315000	      6830	800039c0	414a5033	sra	x0,x20,x20	 x20:0x4b77f000 x20:0x4b77f000
       68325000	      6831	800039c4	0a23ec63	bltu	x7,x2,80003a7c	  x7:0x20582000  x2:0x102c1000
       68335000	      6832	800039c8	cf63cf93	xori	x31,x7,-778	  x7:0x20582000 x31=0xdfa7dcf6
       68345000	      6833	800039cc	0a8ed463	bge	x29,x8,80003a74	 x29:0x00000008  x8:0x0000044b
       68355000	      6834	800039d0	0aeb9463	bne	x23,x14,80003a78	 x23:0x80009f1c x14:0x00000004
       68365000	      6835	00000000	00000013	addi	x0,x0,0	  x0:0x00000000
       68375000	      6836	80003a74	00000013	addi	x0,x0,0	  x0:0x00000000
       68385000	      6837	80003a78	00526863	bltu	x4,x5,80003a88	  x4:0xfffffe38  x5:0x00000000
       68395000	      6838	80003a7c	0017b333	sltu	x6,x15,x1	 x15:0x7fff66ed  x1:0x00000001  x6=0x00000000
       68405000	      6839	80003a80	01355233	srl	x4,x10,x19	 x10:0x00c3f953 x19:0x00000001  x4=0x0061fca9
       68415000	      6840	80003a84	01dff463	bgeu	x31,x29,80003a8c	 x31:0xdfa7dcf6 x29:0x00000008
       68425000	      6841	00000000	00000013	addi	x0,x0,0	  x0:0x00000000
       68435000	      6842	80003a88	00000013	addi	x0,x0,0	  x0:0x00000000
       68445000	      6843	80003a8c	40f25033	sra	x0,x4,x15	  x4:0x0061fca9 x15:0x7fff66ed
       68455000	      6844	80003a90	00014c63	blt	x2,x0,80003aa8	  x2:0x102c1000  x0:0x00000000
       68465000	      6845	80003a94	41db5313	srai	x6,x22,0x1d	 x22:0xffffffff  x6=0xffffffff
       68475000	      6846	80003a98	2aadce93	xori	x29,x27,682	 x27:0x75d7f9a8 x29=0x75d7fb02
       68485000	      6847	80003a9c	a5e53b13	sltiu	x22,x10,-1442	 x10:0x00c3f953 x22=0x00000001
       68495000	      6848	80003aa0	0083e863	bltu	x7,x8,80003ab0	  x7:0x20582000  x8:0x0000044b
       68505000	      6849	80003aa4	010bf263	bgeu	x23,x16,80003aa8	 x23:0x80009f1c x16:0x00c3f975
       68515000	      6850	00000000	00000013	addi	x0,x0,0	  x0:0x00000000
       68525000	      6851	80003aa4	00000013	addi	x0,x0,0	  x0:0x00000000
       68535000	      6852	80003aa8	414b5233	sra	x4,x22,x20	 x22:0x00000001 x20:0x4b77f000  x4=0x00000001
       68545000	      6853	80003aac	1c6f2b13	slti	x22,x30,454	 x30:0x627e4000 x22=0x00000000
       68555000	      6854	80003ab0	00000013	addi	x0,x0,0	  x0:0x00000000
       68565000	      6855	80003ab4	01b0b6b3	sltu	x13,x1,x27	  x1:0x00000001 x27:0x75d7f9a8 x13=0x00000001
       68575000	      6856	80003ab8	00a8e1b3	or	x3,x17,x10	 x17:0x80009fc4 x10:0x00c3f953  x3=0x80c3ffd7
       68585000	      6857	80003abc	03224863	blt	x4,x18,80003aec	  x4:0x00000001 x18:0x1d000000
       68595000	      6858	00000000	00000013	addi	x0,x0,0	  x0:0x00000000
       68605000	      6859	80003ae8	00000013	addi	x0,x0,0	  x0:0x00000000
       68615000	      6860	80003aec	be1fa917	auipc	x18,0xbe1fa	 x18=0x3e1fdae8
       68625000	      6861	80003af0	05b51663	bne	x10,x27,80003b3c	 x10:0x00c3f953 x27:0x75d7f9a8
       68635000	      6862	00000000	00000013	addi	x0,x0,0	  x0:0x00000000
       68645000	      6863	80003b38	00000013	addi	x0,x0,0	  x0:0x00000000
       68655000	      6864	80003b3c	00976e63	bltu	x14,x9,80003b58	 x14:0x00000004  x9:0xc3fffb1d
       68665000	      6865	00000000	00000013	addi	x0,x0,0	  x0:0x00000000
       68675000	      6866	80003b54	00000013	addi	x0,x0,0	  x0:0x00000000
       68685000	      6867	80003b58	01db9633	sll	x12,x23,x29	 x23:0x80009f1c x29:0x75d7fb02 x12=0x00027c70
       68695000	      6868	80003b5c	01291633	sll	x12,x18,x18	 x18:0x3e1fdae8 x18:0x3e1fdae8 x12=0x1fdae800
       68705000	      6869	80003b60	02ee0863	beq	x28,x14,80003b90	 x28:0x00000000 x14:0x00000004
       68715000	      6870	80003b64	011035b3	sltu	x11,x0,x17	  x0:0x00000000 x17:0x80009fc4 x11=0x00000001
       68725000	      6871	80003b68	007112b3	sll	x5,x2,x7	  x2:0x102c1000  x7:0x20582000  x5=0x102c1000
       68735000	      6872	80003b6c	e6126693	ori	x13,x4,-415	  x4:0x00000001 x13=0xfffffe61
       68745000	      6873	80003b70	019840b3	xor	x1,x16,x25	 x16:0x00c3f975 x25:0x00000001  x1=0x00c3f974
       68755000	      6874	80003b74	dc57b293	sltiu	x5,x15,-571	 x15:0x7fff66ed  x5=0x00000001
       68765000	      6875	80003b78	01855263	bge	x10,x24,80003b7c	 x10:0x00c3f953 x24:0x00000000
       68775000	      6876	00000000	00000013	addi	x0,x0,0	  x0:0x00000000
       68785000	      6877	80003b78	00000013	addi	x0,x0,0	  x0:0x00000000
       68795000	      6878	80003b7c	bb92ed13	ori	x26,x5,-1095	  x5:0x00000001 x26=0xfffffbb9
       68805000	      6879	80003b80	01a02d33	slt	x26,x0,x26	  x0:0x00000000 x26:0xfffffbb9 x26=0x00000000
       68815000	      6880	80003b84	a1a23093	sltiu	x1,x4,-1510	  x4:0x00000001  x1=0x00000001
       68825000	      6881	80003b88	01d09a13	slli	x20,x1,0x1d	  x1:0x00000001 x20=0x20000000
       68835000	      6882	80003b8c	3855c293	xori	x5,x11,901	 x11:0x00000001  x5=0x00000384
       68845000	      6883	80003b90	01069663	bne	x13,x16,80003b9c	 x13:0xfffffe61 x16:0x00c3f975
       68855000	      6884	00000000	00000013	addi	x0,x0,0	  x0:0x00000000
       68865000	      6885	80003b98	00000013	addi	x0,x0,0	  x0:0x00000000
       68875000	      6886	80003b9c	00000013	addi	x0,x0,0	  x0:0x00000000
       68885000	      6887	80003ba0	01f839b3	sltu	x19,x16,x31	 x16:0x00c3f975 x31:0xdfa7dcf6 x19=0x00000001
       68895000	      6888	80003ba4	05e20063	beq	x4,x30,80003be4	  x4:0x00000001 x30:0x627e4000
       68905000	      6889	80003ba8	004bc533	xor	x10,x23,x4	 x23:0x80009f1c  x4:0x00000001 x10=0x80009f1d
       68915000	      6890	80003bac	0ad32813	slti	x16,x6,173	  x6:0xffffffff x16=0x00000001
       68925000	      6891	80003bb0	037de263	bltu	x27,x23,80003bd4	 x27:0x75d7f9a8 x23:0x80009f1c
       68935000	      6892	00000000	00000013	addi	x0,x0,0	  x0:0x00000000
       68945000	      6893	80003bd0	00000013	addi	x0,x0,0	  x0:0x00000000
       68955000	      6894	80003bd4	01619933	sll	x18,x3,x22	  x3:0x80c3ffd7 x22:0x00000000 x18=0x80c3ffd7
       68965000	      6895	80003bd8	00c39663	bne	x7,x12,80003be4	  x7:0x20582000 x12:0x1fdae800
       68975000	      6896	00000000	00000013	addi	x0,x0,0	  x0:0x00000000
       68985000	      6897	80003be0	00000013	addi	x0,x0,0	  x0:0x00000000
       68995000	      6898	80003be4	05b64663	blt	x12,x27,80003c30	 x12:0x1fdae800 x27:0x75d7f9a8
       69005000	      6899	00000000	00000013	addi	x0,x0,0	  x0:0x00000000
       69015000	      6900	80003c2c	00000013	addi	x0,x0,0	  x0:0x00000000
       69025000	      6901	80003c30	00000013	addi	x0,x0,0	  x0:0x00000000
       69035000	      6902	80003c34	02621b37	lui	x22,0x2621	 x22=0x02621000
       69045000	      6903	80003c38	53fc0f13	addi	x30,x24,1343	 x24:0x00000000 x30=0x0000053f
       69055000	      6904	80003c3c	00d69093	slli	x1,x13,0xd	 x13:0xfffffe61  x1=0xffcc2000
       69065000	      6905	80003c40	402bd533	sra	x10,x23,x2	 x23:0x80009f1c  x2:0x102c1000 x10=0x80009f1c
       69075000	      6906	80003c44	059cc863	blt	x25,x25,80003c94	 x25:0x00000001 x25:0x00000001
       69085000	      6907	80003c48	41f2dc33	sra	x24,x5,x31	  x5:0x00000384 x31:0xdfa7dcf6 x24=0x00000000
       69095000	      6908	80003c4c	65693813	sltiu	x16,x18,1622	 x18:0x80c3ffd7 x16=0x00000000
       69105000	      6909	80003c50	e5220437	lui	x8,0xe5220	  x8=0xe5220000
       69115000	      6910	80003c54	63402393	slti	x7,x0,1588	  x0:0x00000000  x7=0x00000001
       69125000	      6911	80003c58	00000013	addi	x0,x0,0	  x0:0x00000000
       69135000	      6912	80003c5c	00bacfb3	xor	x31,x21,x11	 x21:0xfffff9ce x11:0x00000001 x31=0xfffff9cf
       69145000	      6913	80003c60	01a36133	or	x2,x6,x26	  x6:0xffffffff x26:0x00000000  x2=0xffffffff
       69155000	      6914	80003c64	ec8e4c13	xori	x24,x28,-312	 x28:0x00000000 x24=0xfffffec8
       69165000	      6915	80003c68	014d5c63	bge	x26,x20,80003c80	 x26:0x00000000 x20:0x20000000
       69175000	      6916	80003c6c	41385b13	srai	x22,x16,0x13	 x16:0x00000000 x22=0x00000000
       69185000	      6917	80003c70	02c60463	beq	x12,x12,80003c98	 x12:0x1fdae800 x12:0x1fdae800
       69195000	      6918	00000000	00000013	addi	x0,x0,0	  x0:0x00000000
       69205000	      6919	80003c94	00000013	addi	x0,x0,0	  x0:0x00000000
       69215000	      6920	80003c98	01fb5c33	srl	x24,x22,x31	 x22:0x00000000 x31:0xfffff9cf x24=0x00000000
       69225000	      6921	80003c9c	01c71213	slli	x4,x14,0x1c	 x14:0x00000004  x4=0x40000000
       69235000	      6922	80003ca0	0033fe63	bgeu	x7,x3,80003cbc	  x7:0x00000001  x3:0x80c3ffd7
       69245000	      6923	80003ca4	01b399b3	sll	x19,x7,x27	  x7:0x00000001 x27:0x75d7f9a8 x19=0x00000100
       69255000	      6924	80003ca8	01a0f233	and	x4,x1,x26	  x1:0xffcc2000 x26:0x00000000  x4=0x00000000
       69265000	      6925	80003cac	01644263	blt	x8,x22,80003cb0	  x8:0xe5220000 x22:0x00000000
       69275000	      6926	00000000	00000013	addi	x0,x0,0	  x0:0x00000000
       69285000	      6927	80003cac	00000013	addi	x0,x0,0	  x0:0x00000000
       69295000	      6928	80003cb0	00a61313	slli	x6,x12,0xa	 x12:0x1fdae800  x6=0x6ba00000
       69305000	      6929	80003cb4	d31c0613	addi	x12,x24,-719	 x24:0x00000000 x12=0xfffffd31
       69315000	      6930	80003cb8	0097e463	bltu	x15,x9,80003cc0	 x15:0x7fff66ed  x9:0xc3fffb1d
       69325000	      6931	00000000	00000013	addi	x0,x0,0	  x0:0x00000000
       69335000	      6932	80003cbc	00000013	addi	x0,x0,0	  x0:0x00000000
       69345000	      6933	80003cc0	00061193	slli	x3,x12,0x0	 x12:0xfffffd31  x3=0xfffffd31
       69355000	      6934	80003cc4	406986b3	sub	x13,x19,x6	 x19:0x00000100  x6:0x6ba00000 x13=0x94600100
       69365000	      6935	80003cc8	00f3f633	and	x12,x7,x15	  x7:0x00000001 x15:0x7fff66ed x12=0x00000001
       69375000	      6936	80003ccc	84f94393	xori	x7,x18,-1969	 x18:0x80c3ffd7  x7=0x7f3c0798
       69385000	      6937	80003cd0	0144e533	or	x10,x9,x20	  x9:0xc3fffb1d x20:0x20000000 x10=0xe3fffb1d
       69395000	      6938	80003cd4	046a9063	bne	x21,x6,80003d14	 x21:0xfffff9ce  x6:0x6ba00000
       69405000	      6939	00000000	00000013	addi	x0,x0,0	  x0:0x00000000
       69415000	      6940	80003d10	00000013	addi	x0,x0,0	  x0:0x00000000
       69425000	      6941	80003d14	014b9263	bne	x23,x20,80003d18	 x23:0x80009f1c x20:0x20000000
       69435000	      6942	00000000	00000013	addi	x0,x0,0	  x0:0x00000000
       69445000	      6943	80003d14	00000013	addi	x0,x0,0	  x0:0x00000000
       69455000	      6944	80003d18	000f8463	beq	x31,x0,80003d20	 x31:0xfffff9cf  x0:0x00000000
       69465000	      6945	80003d1c	00000013	addi	x0,x0,0	  x0:0x00000000
       69475000	      6946	80003d20	b3bfa217	auipc	x4,0xb3bfa	  x4=0x33bfdd1c
       69485000	      6947	80003d24	bf03f393	andi	x7,x7,-1040	  x7:0x7f3c0798  x7=0x7f3c0390
       69495000	      6948	80003d28	cf510197	auipc	x3,0xcf510	  x3=0x4f513d24
       69505000	      6949	80003d2c	71d07c37	lui	x24,0x71d07	 x24=0x71d07000
       69515000	      6950	80003d30	00da6fb3	or	x31,x20,x13	 x20:0x20000000 x13:0x94600100 x31=0xb4600100
       69525000	      6951	80003d34	fecbe093	ori	x1,x23,-20	 x23:0x80009f1c  x1=0xfffffffc
       69535000	      6952	80003d38	01630433	add	x8,x6,x22	  x6:0x6ba00000 x22:0x00000000  x8=0x6ba00000
       69545000	      6953	80003d3c	0029bfb3	sltu	x31,x19,x2	 x19:0x00000100  x2:0xffffffff x31=0x00000001
       69555000	      6954	80003d40	40c58833	sub	x16,x11,x12	 x11:0x00000001 x12:0x00000001 x16=0x00000000
       69565000	      6955	80003d44	6a2a3437	lui	x8,0x6a2a3	  x8=0x6a2a3000
       69575000	      6956	80003d48	e917b397	auipc	x7,0xe917b	  x7=0x6917ed44
       69585000	      6957	80003d4c	001113b3	sll	x7,x2,x1	  x2:0xffffffff  x1:0xfffffffc  x7=0xf0000000
       69595000	      6958	80003d50	b99dee37	lui	x28,0xb99de	 x28=0xb99de000
       69605000	      6959	80003d54	35684813	xori	x16,x16,854	 x16:0x00000000 x16=0x00000356
       69615000	      6960	80003d58	50f3aa93	slti	x21,x7,1295	  x7:0xf0000000 x21=0x00000001
       69625000	      6961	80003d5c	0124c3b3	xor	x7,x9,x18	  x9:0xc3fffb1d x18:0x80c3ffd7  x7=0x433c04ca
       69635000	      6962	80003d60	01213933	sltu	x18,x2,x18	  x2:0xffffffff x18:0x80c3ffd7 x18=0x00000000
       69645000	      6963	80003d64	01c0fc63	bgeu	x1,x28,80003d7c	  x1:0xfffffffc x28:0xb99de000
       69655000	      6964	00000000	00000013	addi	x0,x0,0	  x0:0x00000000
       69665000	      6965	80003d78	00000013	addi	x0,x0,0	  x0:0x00000000
       69675000	      6966	80003d7c	018e8cb3	add	x25,x29,x24	 x29:0x75d7fb02 x24:0x71d07000 x25=0xe7a86b02
       69685000	      6967	80003d80	00000013	addi	x0,x0,0	  x0:0x00000000
       69695000	      6968	80003d84	0133ec63	bltu	x7,x19,80003d9c	  x7:0x433c04ca x19:0x00000100
       69705000	      6969	80003d88	012e59b3	srl	x19,x28,x18	 x28:0xb99de000 x18:0x00000000 x19=0xb99de000
       69715000	      6970	80003d8c	017b0c33	add	x24,x22,x23	 x22:0x00000000 x23:0x80009f1c x24=0x80009f1c
       69725000	      6971	80003d90	9bde0293	addi	x5,x28,-1603	 x28:0xb99de000  x5=0xb99dd9bd
       69735000	      6972	80003d94	01e71863	bne	x14,x30,80003da4	 x14:0x00000004 x30:0x0000053f
       69745000	      6973	00000000	00000013	addi	x0,x0,0	  x0:0x00000000
       69755000	      6974	80003da0	00000013	addi	x0,x0,0	  x0:0x00000000
       69765000	      6975	80003da4	41bed7b3	sra	x15,x29,x27	 x29:0x75d7fb02 x27:0x75d7f9a8 x15=0x0075d7fb
       69775000	      6976	80003da8	001eec33	or	x24,x29,x1	 x29:0x75d7fb02  x1:0xfffffffc x24=0xfffffffe
       69785000	      6977	80003dac	0086d193	srli	x3,x13,0x8	 x13:0x94600100  x3=0x00946001
       69795000	      6978	80003db0	a1ad4313	xori	x6,x26,-1510	 x26:0x00000000  x6=0xfffffa1a
       69805000	      6979	80003db4	068d8e63	beq	x27,x8,80003e30	 x27:0x75d7f9a8  x8:0x6a2a3000
       69815000	      6980	80003db8	3208fc93	andi	x25,x17,800	 x17:0x80009fc4 x25=0x00000300
       69825000	      6981	80003dbc	4ca5f993	andi	x19,x11,1226	 x11:0x00000001 x19=0x00000000
       69835000	      6982	80003dc0	00000013	addi	x0,x0,0	  x0:0x00000000
       69845000	      6983	80003dc4	0067d333	srl	x6,x15,x6	 x15:0x0075d7fb  x6:0xfffffa1a  x6=0x00000000
       69855000	      6984	80003dc8	00000697	auipc	x13,0x0	 x13=0x80003dc4
       69865000	      6985	80003dcc	44868693	addi	x13,x13,1096	 x13:0x80003dc4 x13=0x8000420c
       69875000	      6986	80003dd0	4c4f0c37	lui	x24,0x4c4f0	 x24=0x4c4f0000
       69885000	      6987	80003dd4	41900633	sub	x12,x0,x25	  x0:0x00000000 x25:0x00000300 x12=0xfffffd00
       69895000	      6988	80003dd8	00168693	addi	x13,x13,1	 x13:0x8000420c x13=0x8000420d
       69905000	      6989	80003ddc	00eb6663	bltu	x22,x14,80003de8	 x22:0x00000000 x14:0x00000004
       69915000	      6990	00000000	00000013	addi	x0,x0,0	  x0:0x00000000
       69925000	      6991	80003de4	00000013	addi	x0,x0,0	  x0:0x00000000
       69935000	      6992	80003de8	fff680e7	jalr	x1,x13,-1	 x13:0x8000420d  x1=0x80003de8
       69945000	      6993	00000000	00000013	addi	x0,x0,0	  x0:0x00000000
       69955000	      6994	8000420c	00000013	addi	x0,x0,0	  x0:0x00000000
       69965000	      6995	80004210	67e7ad13	slti	x26,x15,1662	 x15:0x0075d7fb x26=0x00000000
       69975000	      6996	80004214	00000013	addi	x0,x0,0	  x0:0x00000000
       69985000	      6997	80004218	005aefb3	or	x31,x21,x5	 x21:0x00000001  x5:0xb99dd9bd x31=0xb99dd9bd
       69995000	      6998	8000421c	fdcb8b93	addi	x23,x23,-36	 x23:0x80009f1c x23=0x80009ef8
       70005000	      6999	80004220	001ba223	sw	x1,4(x23)	 x23:0x80009ef8  x1:0x80003de8 PA:0x80009efc
       70015000	      7000	80004224	41b08033	sub	x0,x1,x27	  x1:0x80003de8 x27:0x75d7f9a8
       70025000	      7001	80004228	f4113317	auipc	x6,0xf4113	  x6=0x74117224
       70035000	      7002	8000422c	02c000ef	jal	x1,8000422c	  x1=0x8000422c
       70045000	      7003	00000000	00000013	addi	x0,x0,0	  x0:0x00000000
       70055000	      7004	80004254	00000013	addi	x0,x0,0	  x0:0x00000000
       70065000	      7005	80004258	ffdff26f	jal	x4,80004258	  x4=0x80004258
       70075000	      7006	00000000	00000013	addi	x0,x0,0	  x0:0x00000000
       70085000	      7007	80004250	00000013	addi	x0,x0,0	  x0:0x00000000
       70095000	      7008	80004254	fe5ff0ef	jal	x1,80004254	  x1=0x80004254
       70105000	      7009	00000000	00000013	addi	x0,x0,0	  x0:0x00000000
       70115000	      7010	80004234	00000013	addi	x0,x0,0	  x0:0x00000000
       70125000	      7011	80004238	ffdff0ef	jal	x1,80004238	  x1=0x80004238
       70135000	      7012	00000000	00000013	addi	x0,x0,0	  x0:0x00000000
       70145000	      7013	80004230	00000013	addi	x0,x0,0	  x0:0x00000000
       70155000	      7014	80004234	028007ef	jal	x15,80004234	 x15=0x80004234
       70165000	      7015	00000000	00000013	addi	x0,x0,0	  x0:0x00000000
       70175000	      7016	80004258	00000013	addi	x0,x0,0	  x0:0x00000000
       70185000	      7017	8000425c	fe1ff1ef	jal	x3,8000425c	  x3=0x8000425c
       70195000	      7018	00000000	00000013	addi	x0,x0,0	  x0:0x00000000
       70205000	      7019	80004238	00000013	addi	x0,x0,0	  x0:0x00000000
       70215000	      7020	8000423c	00c000ef	jal	x1,8000423c	  x1=0x8000423c
       70225000	      7021	00000000	00000013	addi	x0,x0,0	  x0:0x00000000
       70235000	      7022	80004244	00000013	addi	x0,x0,0	  x0:0x00000000
       70245000	      7023	80004248	0180036f	jal	x6,80004248	  x6=0x80004248
       70255000	      7024	00000000	00000013	addi	x0,x0,0	  x0:0x00000000
       70265000	      7025	8000425c	00000013	addi	x0,x0,0	  x0:0x00000000
       70275000	      7026	80004260	fe5ff0ef	jal	x1,80004260	  x1=0x80004260
       70285000	      7027	00000000	00000013	addi	x0,x0,0	  x0:0x00000000
       70295000	      7028	80004240	00000013	addi	x0,x0,0	  x0:0x00000000
       70305000	      7029	80004244	fedff0ef	jal	x1,80004244	  x1=0x80004244
       70315000	      7030	00000000	00000013	addi	x0,x0,0	  x0:0x00000000
       70325000	      7031	8000422c	00000013	addi	x0,x0,0	  x0:0x00000000
       70335000	      7032	80004230	020000ef	jal	x1,80004230	  x1=0x80004230
       70345000	      7033	00000000	00000013	addi	x0,x0,0	  x0:0x00000000
       70355000	      7034	8000424c	00000013	addi	x0,x0,0	  x0:0x00000000
       70365000	      7035	80004250	ff1ff0ef	jal	x1,80004250	  x1=0x80004250
       70375000	      7036	00000000	00000013	addi	x0,x0,0	  x0:0x00000000
       70385000	      7037	8000423c	00000013	addi	x0,x0,0	  x0:0x00000000
       70395000	      7038	80004240	00c000ef	jal	x1,80004240	  x1=0x80004240
       70405000	      7039	00000000	00000013	addi	x0,x0,0	  x0:0x00000000
       70415000	      7040	80004248	00000013	addi	x0,x0,0	  x0:0x00000000
       70425000	      7041	8000424c	018000ef	jal	x1,8000424c	  x1=0x8000424c
       70435000	      7042	00000000	00000013	addi	x0,x0,0	  x0:0x00000000
       70445000	      7043	80004260	00000013	addi	x0,x0,0	  x0:0x00000000
       70455000	      7044	80004264	004ec4b3	xor	x9,x29,x4	 x29:0x75d7fb02  x4:0x80004258  x9=0xf5d7b95a
       70465000	      7045	80004268	90a86013	ori	x0,x16,-1782	 x16:0x00000356
       70475000	      7046	8000426c	db78fc13	andi	x24,x17,-585	 x17:0x80009fc4 x24=0x80009d84
       70485000	      7047	80004270	9f07ed93	ori	x27,x15,-1552	 x15:0x80004234 x27=0xfffffbf4
       70495000	      7048	80004274	00a42233	slt	x4,x8,x10	  x8:0x6a2a3000 x10:0xe3fffb1d  x4=0x00000000
       70505000	      7049	80004278	46ada513	slti	x10,x27,1130	 x27:0xfffffbf4 x10=0x00000001
       70515000	      7050	8000427c	011d9e93	slli	x29,x27,0x11	 x27:0xfffffbf4 x29=0xf7e80000
       70525000	      7051	80004280	03dd9a63	bne	x27,x29,800042b4	 x27:0xfffffbf4 x29:0xf7e80000
       70535000	      7052	00000000	00000013	addi	x0,x0,0	  x0:0x00000000
       70545000	      7053	800042b0	00000013	addi	x0,x0,0	  x0:0x00000000
       70555000	      7054	800042b4	e8428e13	addi	x28,x5,-380	  x5:0xb99dd9bd x28=0xb99dd841
       70565000	      7055	800042b8	00a61463	bne	x12,x10,800042c0	 x12:0xfffffd00 x10:0x00000001
       70575000	      7056	00000000	00000013	addi	x0,x0,0	  x0:0x00000000
       70585000	      7057	800042bc	00000013	addi	x0,x0,0	  x0:0x00000000
       70595000	      7058	800042c0	82043513	sltiu	x10,x8,-2016	  x8:0x6a2a3000 x10=0x00000001
       70605000	      7059	800042c4	00df3033	sltu	x0,x30,x13	 x30:0x0000053f x13:0x8000420d
       70615000	      7060	800042c8	10e3bc13	sltiu	x24,x7,270	  x7:0x433c04ca x24=0x00000000
       70625000	      7061	800042cc	d20f2b13	slti	x22,x30,-736	 x30:0x0000053f x22=0x00000000
       70635000	      7062	800042d0	7d9b3593	sltiu	x11,x22,2009	 x22:0x00000000 x11=0x00000001
       70645000	      7063	800042d4	008a20b3	slt	x1,x20,x8	 x20:0x20000000  x8:0x6a2a3000  x1=0x00000001
       70655000	      7064	800042d8	0153d3b3	srl	x7,x7,x21	  x7:0x433c04ca x21:0x00000001  x7=0x219e0265
       70665000	      7065	800042dc	0025de93	srli	x29,x11,0x2	 x11:0x00000001 x29=0x00000000
       70675000	      7066	800042e0	01059213	slli	x4,x11,0x10	 x11:0x00000001  x4=0x00010000
       70685000	      7067	800042e4	01da0a63	beq	x20,x29,800042f8	 x20:0x20000000 x29:0x00000000
       70695000	      7068	800042e8	a23437b7	lui	x15,0xa2343	 x15=0xa2343000
       70705000	      7069	800042ec	04f70663	beq	x14,x15,80004338	 x14:0x00000004 x15:0xa2343000
       70715000	      7070	800042f0	af2f4c93	xori	x25,x30,-1294	 x30:0x0000053f x25=0xffffffcd
       70725000	      7071	800042f4	0197c4b3	xor	x9,x15,x25	 x15:0xa2343000 x25:0xffffffcd  x9=0x5dcbcfcd
       70735000	      7072	800042f8	01cd79b3	and	x19,x26,x28	 x26:0x00000000 x28:0xb99dd841 x19=0x00000000
       70745000	      7073	800042fc	000a0263	beq	x20,x0,80004300	 x20:0x20000000  x0:0x00000000
       70755000	      7074	80004300	1837c213	xori	x4,x15,387	 x15:0xa2343000  x4=0xa2343183
       70765000	      7075	80004304	412cd813	srai	x16,x25,0x12	 x25:0xffffffcd x16=0xffffffff
       70775000	      7076	80004308	0002a6b3	slt	x13,x5,x0	  x5:0xb99dd9bd  x0:0x00000000 x13=0x00000001
       70785000	      7077	8000430c	68af4797	auipc	x15,0x68af4	 x15=0xe8af8308
       70795000	      7078	80004310	ece9a293	slti	x5,x19,-306	 x19:0x00000000  x5=0x00000000
       70805000	      7079	80004314	6d5ce293	ori	x5,x25,1749	 x25:0xffffffcd  x5=0xffffffdd
       70815000	      7080	80004318	012b9d13	slli	x26,x23,0x12	 x23:0x80009ef8 x26=0x7be00000
       70825000	      7081	8000431c	050f0063	beq	x30,x16,8000435c	 x30:0x0000053f x16:0xffffffff
       70835000	      7082	80004320	a7f3c997	auipc	x19,0xa7f3c	 x19=0x27f4031c
       70845000	      7083	80004324	01e48db3	add	x27,x9,x30	  x9:0x5dcbcfcd x30:0x0000053f x27=0x5dcbd50c
       70855000	      7084	80004328	02590a63	beq	x18,x5,8000435c	 x18:0x00000000  x5:0xffffffdd
       70865000	      7085	8000432c	00000013	addi	x0,x0,0	  x0:0x00000000
       70875000	      7086	80004330	39ae3493	sltiu	x9,x28,922	 x28:0xb99dd841  x9=0x00000000
       70885000	      7087	80004334	01d1b233	sltu	x4,x3,x29	  x3:0x8000425c x29:0x00000000  x4=0x00000000
       70895000	      7088	80004338	85ee4493	xori	x9,x28,-1954	 x28:0xb99dd841  x9=0x4662201f
       70905000	      7089	8000433c	0035e463	bltu	x11,x3,80004344	 x11:0x00000001  x3:0x8000425c
       70915000	      7090	00000000	00000013	addi	x0,x0,0	  x0:0x00000000
       70925000	      7091	80004340	00000013	addi	x0,x0,0	  x0:0x00000000
       70935000	      7092	80004344	05079063	bne	x15,x16,80004384	 x15:0xe8af8308 x16:0xffffffff
       70945000	      7093	00000000	00000013	addi	x0,x0,0	  x0:0x00000000
       70955000	      7094	80004380	00000013	addi	x0,x0,0	  x0:0x00000000
       70965000	      7095	80004384	0110ce63	blt	x1,x17,800043a0	  x1:0x00000001 x17:0x80009fc4
       70975000	      7096	80004388	01255c63	bge	x10,x18,800043a0	 x10:0x00000001 x18:0x00000000
       70985000	      7097	00000000	00000013	addi	x0,x0,0	  x0:0x00000000
       70995000	      7098	8000439c	00000013	addi	x0,x0,0	  x0:0x00000000
       71005000	      7099	800043a0	aefc4437	lui	x8,0xaefc4	  x8=0xaefc4000
       71015000	      7100	800043a4	a6784313	xori	x6,x16,-1433	 x16:0xffffffff  x6=0x00000598
       71025000	      7101	800043a8	004ba083	lw	x1,4(x23)	 x23:0x80009ef8  x1=0x80003de8 PA:0x80009efc
       71035000	      7102	800043ac	bc654b13	xori	x22,x10,-1082	 x10:0x00000001 x22=0xfffffbc7
       71045000	      7103	800043b0	024b8b93	addi	x23,x23,36	 x23:0x80009ef8 x23=0x80009f1c
       71055000	      7104	800043b4	014b6633	or	x12,x22,x20	 x22:0xfffffbc7 x20:0x20000000 x12=0xfffffbc7
       71065000	      7105	800043b8	0112bd33	sltu	x26,x5,x17	  x5:0xffffffdd x17:0x80009fc4 x26=0x00000000
       71075000	      7106	800043bc	40640833	sub	x16,x8,x6	  x8:0xaefc4000  x6:0x00000598 x16=0xaefc3a68
       71085000	      7107	800043c0	013d7933	and	x18,x26,x19	 x26:0x00000000 x19:0x27f4031c x18=0x00000000
       71095000	      7108	800043c4	01554f33	xor	x30,x10,x21	 x10:0x00000001 x21:0x00000001 x30=0x00000000
       71105000	      7109	800043c8	00000013	addi	x0,x0,0	  x0:0x00000000
       71115000	      7110	800043cc	00108513	addi	x10,x1,1	  x1:0x80003de8 x10=0x80003de9
       71125000	      7111	800043d0	00050567	jalr	x10,x10,0	 x10:0x80003de9 x10=0x800043d0
       71135000	      7112	00000000	00000013	addi	x0,x0,0	  x0:0x00000000
       71145000	      7113	80003de8	00000013	addi	x0,x0,0	  x0:0x00000000
       71155000	      7114	80003dec	01684fb3	xor	x31,x16,x22	 x16:0xaefc3a68 x22:0xfffffbc7 x31=0x5103c1af
       71165000	      7115	80003df0	00c8b7b3	sltu	x15,x17,x12	 x17:0x80009fc4 x12:0xfffffbc7 x15=0x00000001
       71175000	      7116	80003df4	74144e93	xori	x29,x8,1857	  x8:0xaefc4000 x29=0xaefc4741
       71185000	      7117	80003df8	03d36863	bltu	x6,x29,80003e28	  x6:0x00000598 x29:0xaefc4741
       71195000	      7118	00000000	00000013	addi	x0,x0,0	  x0:0x00000000
       71205000	      7119	80003e24	00000013	addi	x0,x0,0	  x0:0x00000000
       71215000	      7120	80003e28	01596333	or	x6,x18,x21	 x18:0x00000000 x21:0x00000001  x6=0x00000001
       71225000	      7121	80003e2c	04fdc263	blt	x27,x15,80003e70	 x27:0x5dcbd50c x15:0x00000001
       71235000	      7122	80003e30	b0190413	addi	x8,x18,-1279	 x18:0x00000000  x8=0xfffffb01
       71245000	      7123	80003e34	01ca5193	srli	x3,x20,0x1c	 x20:0x20000000  x3=0x00000002
       71255000	      7124	80003e38	0073ca33	xor	x20,x7,x7	  x7:0x219e0265  x7:0x219e0265 x20=0x00000000
       71265000	      7125	80003e3c	017cde63	bge	x25,x23,80003e58	 x25:0xffffffcd x23:0x80009f1c
       71275000	      7126	00000000	00000013	addi	x0,x0,0	  x0:0x00000000
       71285000	      7127	80003e54	00000013	addi	x0,x0,0	  x0:0x00000000
       71295000	      7128	80003e58	01445c63	bge	x8,x20,80003e70	  x8:0xfffffb01 x20:0x00000000
       71305000	      7129	80003e5c	0054e0b3	or	x1,x9,x5	  x9:0x4662201f  x5:0xffffffdd  x1=0xffffffdf
       71315000	      7130	80003e60	41500f33	sub	x30,x0,x21	  x0:0x00000000 x21:0x00000001 x30=0xffffffff
       71325000	      7131	80003e64	0190e0b3	or	x1,x1,x25	  x1:0xffffffdf x25:0xffffffcd  x1=0xffffffdf
       71335000	      7132	80003e68	4069ddb3	sra	x27,x19,x6	 x19:0x27f4031c  x6:0x00000001 x27=0x13fa018e
       71345000	      7133	80003e6c	000b84b3	add	x9,x23,x0	 x23:0x80009f1c  x0:0x00000000  x9=0x80009f1c
       71355000	      7134	80003e70	0019d693	srli	x13,x19,0x1	 x19:0x27f4031c x13=0x13fa018e
       71365000	      7135	80003e74	00000013	addi	x0,x0,0	  x0:0x00000000
       71375000	      7136	80003e78	01468c33	add	x24,x13,x20	 x13:0x13fa018e x20:0x00000000 x24=0x13fa018e
       71385000	      7137	80003e7c	02017863	bgeu	x2,x0,80003eac	  x2:0xffffffff  x0:0x00000000
       71395000	      7138	00000000	00000013	addi	x0,x0,0	  x0:0x00000000
       71405000	      7139	80003ea8	00000013	addi	x0,x0,0	  x0:0x00000000
       71415000	      7140	80003eac	019544b3	xor	x9,x10,x25	 x10:0x800043d0 x25:0xffffffcd  x9=0x7fffbc1d
       71425000	      7141	80003eb0	025df263	bgeu	x27,x5,80003ed4	 x27:0x13fa018e  x5:0xffffffdd
       71435000	      7142	80003eb4	4086d813	srai	x16,x13,0x8	 x13:0x13fa018e x16=0x0013fa01
       71445000	      7143	80003eb8	00311263	bne	x2,x3,80003ebc	  x2:0xffffffff  x3:0x00000002
       71455000	      7144	00000000	00000013	addi	x0,x0,0	  x0:0x00000000
       71465000	      7145	80003eb8	00000013	addi	x0,x0,0	  x0:0x00000000
       71475000	      7146	80003ebc	00ed9233	sll	x4,x27,x14	 x27:0x13fa018e x14:0x00000004  x4=0x3fa018e0
       71485000	      7147	80003ec0	d8338b13	addi	x22,x7,-637	  x7:0x219e0265 x22=0x219dffe8
       71495000	      7148	80003ec4	2e988e13	addi	x28,x17,745	 x17:0x80009fc4 x28=0x8000a2ad
       71505000	      7149	80003ec8	38940193	addi	x3,x8,905	  x8:0xfffffb01  x3=0xfffffe8a
       71515000	      7150	80003ecc	00000013	addi	x0,x0,0	  x0:0x00000000
       71525000	      7151	80003ed0	9163c793	xori	x15,x7,-1770	  x7:0x219e0265 x15=0xde61fb73
       71535000	      7152	80003ed4	003e8833	add	x16,x29,x3	 x29:0xaefc4741  x3:0xfffffe8a x16=0xaefc45cb
       71545000	      7153	80003ed8	61aa45b7	lui	x11,0x61aa4	 x11=0x61aa4000
       71555000	      7154	80003edc	0154d313	srli	x6,x9,0x15	  x9:0x7fffbc1d  x6=0x000003ff
       71565000	      7155	80003ee0	6a07b497	auipc	x9,0x6a07b	  x9=0xea07eedc
       71575000	      7156	80003ee4	0309f463	bgeu	x19,x16,80003f0c	 x19:0x27f4031c x16:0xaefc45cb
       71585000	      7157	80003ee8	009fc863	blt	x31,x9,80003ef8	 x31:0x5103c1af  x9:0xea07eedc
       71595000	      7158	80003eec	40b65e93	srai	x29,x12,0xb	 x12:0xfffffbc7 x29=0xffffffff
       71605000	      7159	80003ef0	01a4dd33	srl	x26,x9,x26	  x9:0xea07eedc x26:0x00000000 x26=0xea07eedc
       71615000	      7160	80003ef4	40385133	sra	x2,x16,x3	 x16:0xaefc45cb  x3:0xfffffe8a  x2=0xffebbf11
       71625000	      7161	80003ef8	5a16ed13	ori	x26,x13,1441	 x13:0x13fa018e x26=0x13fa05af
       71635000	      7162	80003efc	00d8b133	sltu	x2,x17,x13	 x17:0x80009fc4 x13:0x13fa018e  x2=0x00000000
       71645000	      7163	80003f00	00ccc263	blt	x25,x12,80003f04	 x25:0xffffffcd x12:0xfffffbc7
       71655000	      7164	80003f04	00676133	or	x2,x14,x6	 x14:0x00000004  x6:0x000003ff  x2=0x000003ff
       71665000	      7165	80003f08	d567e993	ori	x19,x15,-682	 x15:0xde61fb73 x19=0xffffff77
       71675000	      7166	80003f0c	014cc0b3	xor	x1,x25,x20	 x25:0xffffffcd x20:0x00000000  x1=0xffffffcd
       71685000	      7167	80003f10	01932cb3	slt	x25,x6,x25	  x6:0x000003ff x25:0xffffffcd x25=0x00000000
       71695000	      7168	80003f14	00b60a33	add	x20,x12,x11	 x12:0xfffffbc7 x11:0x61aa4000 x20=0x61aa3bc7
       71705000	      7169	80003f18	02e00863	beq	x0,x14,80003f48	  x0:0x00000000 x14:0x00000004
       71715000	      7170	80003f1c	00b80463	beq	x16,x11,80003f24	 x16:0xaefc45cb x11:0x61aa4000
       71725000	      7171	80003f20	0066d9b3	srl	x19,x13,x6	 x13:0x13fa018e  x6:0x000003ff x19=0x00000000
       71735000	      7172	80003f24	00949e63	bne	x9,x9,80003f40	  x9:0xea07eedc  x9:0xea07eedc
       71745000	      7173	80003f28	41918a33	sub	x20,x3,x25	  x3:0xfffffe8a x25:0x00000000 x20=0xfffffe8a
       71755000	      7174	80003f2c	c7dbb513	sltiu	x10,x23,-899	 x23:0x80009f1c x10=0x00000001
       71765000	      7175	80003f30	0367e863	bltu	x15,x22,80003f60	 x15:0xde61fb73 x22:0x219dffe8
       71775000	      7176	80003f34	00909a13	slli	x20,x1,0x9	  x1:0xffffffcd x20=0xffff9a00
       71785000	      7177	80003f38	00e4c7b3	xor	x15,x9,x14	  x9:0xea07eedc x14:0x00000004 x15=0xea07eed8
       71795000	      7178	80003f3c	03042c37	lui	x24,0x3042	 x24=0x03042000
       71805000	      7179	80003f40	0589d063	bge	x19,x24,80003f80	 x19:0x00000000 x24:0x03042000
       71815000	      7180	80003f44	05c19617	auipc	x12,0x5c19	 x12=0x85c1cf40
       71825000	      7181	80003f48	3982f613	andi	x12,x5,920	  x5:0xffffffdd x12=0x00000398
       71835000	      7182	80003f4c	7f72e817	auipc	x16,0x7f72e	 x16=0xff731f48
       71845000	      7183	80003f50	025e5863	bge	x28,x5,80003f80	 x28:0x8000a2ad  x5:0xffffffdd
       71855000	      7184	80003f54	00907eb3	and	x29,x0,x9	  x0:0x00000000  x9:0xea07eedc x29=0x00000000
       71865000	      7185	80003f58	009f5293	srli	x5,x30,0x9	 x30:0xffffffff  x5=0x007fffff
       71875000	      7186	80003f5c	c0577c93	andi	x25,x14,-1019	 x14:0x00000004 x25=0x00000004
       71885000	      7187	80003f60	90978813	addi	x16,x15,-1783	 x15:0xea07eed8 x16=0xea07e7e1
       71895000	      7188	80003f64	00886663	bltu	x16,x8,80003f70	 x16:0xea07e7e1  x8:0xfffffb01
       71905000	      7189	00000000	00000013	addi	x0,x0,0	  x0:0x00000000
       71915000	      7190	80003f6c	00000013	addi	x0,x0,0	  x0:0x00000000
       71925000	      7191	80003f70	006e1a33	sll	x20,x28,x6	 x28:0x8000a2ad  x6:0x000003ff x20=0x80000000
       71935000	      7192	80003f74	cad1f0b7	lui	x1,0xcad1f	  x1=0xcad1f000
       71945000	      7193	80003f78	00d8ba33	sltu	x20,x17,x13	 x17:0x80009fc4 x13:0x13fa018e x20=0x00000000
       71955000	      7194	80003f7c	212a2993	slti	x19,x20,530	 x20:0x00000000 x19=0x00000001
       71965000	      7195	80003f80	467e3a93	sltiu	x21,x28,1127	 x28:0x8000a2ad x21=0x00000000
       71975000	      7196	80003f84	011a5613	srli	x12,x20,0x11	 x20:0x00000000 x12=0x00000000
       71985000	      7197	80003f88	0144c263	blt	x9,x20,80003f8c	  x9:0xea07eedc x20:0x00000000
       71995000	      7198	00000000	00000013	addi	x0,x0,0	  x0:0x00000000
       72005000	      7199	80003f88	00000013	addi	x0,x0,0	  x0:0x00000000
       72015000	      7200	80003f8c	a95c3413	sltiu	x8,x24,-1387	 x24:0x03042000  x8=0x00000001
       72025000	      7201	80003f90	7700a297	auipc	x5,0x7700a	  x5=0xf700df8c
       72035000	      7202	80003f94	00719793	slli	x15,x3,0x7	  x3:0xfffffe8a x15=0xffff4500
       72045000	      7203	80003f98	f4143e93	sltiu	x29,x8,-191	  x8:0x00000001 x29=0x00000001
       72055000	      7204	80003f9c	004d1663	bne	x26,x4,80003fa8	 x26:0x13fa05af  x4:0x3fa018e0
       72065000	      7205	00000000	00000013	addi	x0,x0,0	  x0:0x00000000
       72075000	      7206	80003fa4	00000013	addi	x0,x0,0	  x0:0x00000000
       72085000	      7207	80003fa8	0ef2eb13	ori	x22,x5,239	  x5:0xf700df8c x22=0xf700dfef
       72095000	      7208	80003fac	00645f13	srli	x30,x8,0x6	  x8:0x00000001 x30=0x00000000
       72105000	      7209	80003fb0	d6646413	ori	x8,x8,-666	  x8:0x00000001  x8=0xfffffd67
       72115000	      7210	80003fb4	4164d493	srai	x9,x9,0x16	  x9:0xea07eedc  x9=0xffffffa8
       72125000	      7211	80003fb8	dbca1ab7	lui	x21,0xdbca1	 x21=0xdbca1000
       72135000	      7212	80003fbc	050e9063	bne	x29,x16,80003ffc	 x29:0x00000001 x16:0xea07e7e1
       72145000	      7213	00000000	00000013	addi	x0,x0,0	  x0:0x00000000
       72155000	      7214	80003ff8	00000013	addi	x0,x0,0	  x0:0x00000000
       72165000	      7215	80003ffc	50754b13	xori	x22,x10,1287	 x10:0x00000001 x22=0x00000506
       72175000	      7216	80004000	011c7c33	and	x24,x24,x17	 x24:0x03042000 x17:0x80009fc4 x24=0x00000000
       72185000	      7217	80004004	004ba083	lw	x1,4(x23)	 x23:0x80009f1c  x1=0x80004464 PA:0x80009f20
       72195000	      7218	80004008	124ae793	ori	x15,x21,292	 x21:0xdbca1000 x15=0xdbca1124
       72205000	      7219	8000400c	02cb8b93	addi	x23,x23,44	 x23:0x80009f1c x23=0x80009f48
       72215000	      7220	80004010	65e3ba93	sltiu	x21,x7,1630	  x7:0x219e0265 x21=0x00000000
       72225000	      7221	80004014	00008613	addi	x12,x1,0	  x1:0x80004464 x12=0x80004464
       72235000	      7222	80004018	00060667	jalr	x12,x12,0	 x12:0x80004464 x12=0x80004018
       72245000	      7223	00000000	00000013	addi	x0,x0,0	  x0:0x00000000
       72255000	      7224	80004464	00000013	addi	x0,x0,0	  x0:0x00000000
       72265000	      7225	80004468	004000ef	jal	x1,80004468	  x1=0x80004468
       72275000	      7226	00000000	00000013	addi	x0,x0,0	  x0:0x00000000
       72285000	      7227	80004468	00000013	addi	x0,x0,0	  x0:0x00000000
       72295000	      7228	8000446c	058003ef	jal	x7,8000446c	  x7=0x8000446c
       72305000	      7229	00000000	00000013	addi	x0,x0,0	  x0:0x00000000
       72315000	      7230	800044c0	00000013	addi	x0,x0,0	  x0:0x00000000
       72325000	      7231	800044c4	fe9ff0ef	jal	x1,800044c4	  x1=0x800044c4
       72335000	      7232	00000000	00000013	addi	x0,x0,0	  x0:0x00000000
       72345000	      7233	800044a8	00000013	addi	x0,x0,0	  x0:0x00000000
       72355000	      7234	800044ac	fd5ff0ef	jal	x1,800044ac	  x1=0x800044ac
       72365000	      7235	00000000	00000013	addi	x0,x0,0	  x0:0x00000000
       72375000	      7236	8000447c	00000013	addi	x0,x0,0	  x0:0x00000000
       72385000	      7237	80004480	05c0066f	jal	x12,80004480	 x12=0x80004480
       72395000	      7238	00000000	00000013	addi	x0,x0,0	  x0:0x00000000
       72405000	      7239	800044d8	00000013	addi	x0,x0,0	  x0:0x00000000
       72415000	      7240	800044dc	fa1ff0ef	jal	x1,800044dc	  x1=0x800044dc
       72425000	      7241	00000000	00000013	addi	x0,x0,0	  x0:0x00000000
       72435000	      7242	80004478	00000013	addi	x0,x0,0	  x0:0x00000000
       72445000	      7243	8000447c	ff9ffcef	jal	x25,8000447c	 x25=0x8000447c
       72455000	      7244	00000000	00000013	addi	x0,x0,0	  x0:0x00000000
       72465000	      7245	80004470	00000013	addi	x0,x0,0	  x0:0x00000000
       72475000	      7246	80004474	0040036f	jal	x6,80004474	  x6=0x80004474
       72485000	      7247	00000000	00000013	addi	x0,x0,0	  x0:0x00000000
       72495000	      7248	80004474	00000013	addi	x0,x0,0	  x0:0x00000000
       72505000	      7249	80004478	068000ef	jal	x1,80004478	  x1=0x80004478
       72515000	      7250	00000000	00000013	addi	x0,x0,0	  x0:0x00000000
       72525000	      7251	800044dc	00000013	addi	x0,x0,0	  x0:0x00000000
       72535000	      7252	800044e0	fadff36f	jal	x6,800044e0	  x6=0x800044e0
       72545000	      7253	00000000	00000013	addi	x0,x0,0	  x0:0x00000000
       72555000	      7254	80004488	00000013	addi	x0,x0,0	  x0:0x00000000
       72565000	      7255	8000448c	030000ef	jal	x1,8000448c	  x1=0x8000448c
       72575000	      7256	00000000	00000013	addi	x0,x0,0	  x0:0x00000000
       72585000	      7257	800044b8	00000013	addi	x0,x0,0	  x0:0x00000000
       72595000	      7258	800044bc	fedff0ef	jal	x1,800044bc	  x1=0x800044bc
       72605000	      7259	00000000	00000013	addi	x0,x0,0	  x0:0x00000000
       72615000	      7260	800044a4	00000013	addi	x0,x0,0	  x0:0x00000000
       72625000	      7261	800044a8	020000ef	jal	x1,800044a8	  x1=0x800044a8
       72635000	      7262	00000000	00000013	addi	x0,x0,0	  x0:0x00000000
       72645000	      7263	800044c4	00000013	addi	x0,x0,0	  x0:0x00000000
       72655000	      7264	800044c8	ff1ff36f	jal	x6,800044c8	  x6=0x800044c8
       72665000	      7265	00000000	00000013	addi	x0,x0,0	  x0:0x00000000
       72675000	      7266	800044b4	00000013	addi	x0,x0,0	  x0:0x00000000
       72685000	      7267	800044b8	fddff0ef	jal	x1,800044b8	  x1=0x800044b8
       72695000	      7268	00000000	00000013	addi	x0,x0,0	  x0:0x00000000
       72705000	      7269	80004490	00000013	addi	x0,x0,0	  x0:0x00000000
       72715000	      7270	80004494	ff5ff0ef	jal	x1,80004494	  x1=0x80004494
       72725000	      7271	00000000	00000013	addi	x0,x0,0	  x0:0x00000000
       72735000	      7272	80004484	00000013	addi	x0,x0,0	  x0:0x00000000
       72745000	      7273	80004488	04c00def	jal	x27,80004488	 x27=0x80004488
       72755000	      7274	00000000	00000013	addi	x0,x0,0	  x0:0x00000000
       72765000	      7275	800044d0	00000013	addi	x0,x0,0	  x0:0x00000000
       72775000	      7276	800044d4	fe1fff6f	jal	x30,800044d4	 x30=0x800044d4
       72785000	      7277	00000000	00000013	addi	x0,x0,0	  x0:0x00000000
       72795000	      7278	800044b0	00000013	addi	x0,x0,0	  x0:0x00000000
       72805000	      7279	800044b4	ffdff2ef	jal	x5,800044b4	  x5=0x800044b4
       72815000	      7280	00000000	00000013	addi	x0,x0,0	  x0:0x00000000
       72825000	      7281	800044ac	00000013	addi	x0,x0,0	  x0:0x00000000
       72835000	      7282	800044b0	fc1ff36f	jal	x6,800044b0	  x6=0x800044b0
       72845000	      7283	00000000	00000013	addi	x0,x0,0	  x0:0x00000000
       72855000	      7284	8000446c	00000013	addi	x0,x0,0	  x0:0x00000000
       72865000	      7285	80004470	05000fef	jal	x31,80004470	 x31=0x80004470
       72875000	      7286	00000000	00000013	addi	x0,x0,0	  x0:0x00000000
       72885000	      7287	800044bc	00000013	addi	x0,x0,0	  x0:0x00000000
       72895000	      7288	800044c0	010000ef	jal	x1,800044c0	  x1=0x800044c0
       72905000	      7289	00000000	00000013	addi	x0,x0,0	  x0:0x00000000
       72915000	      7290	800044cc	00000013	addi	x0,x0,0	  x0:0x00000000
       72925000	      7291	800044d0	0080036f	jal	x6,800044d0	  x6=0x800044d0
       72935000	      7292	00000000	00000013	addi	x0,x0,0	  x0:0x00000000
       72945000	      7293	800044d4	00000013	addi	x0,x0,0	  x0:0x00000000
       72955000	      7294	800044d8	fc9ff0ef	jal	x1,800044d8	  x1=0x800044d8
       72965000	      7295	00000000	00000013	addi	x0,x0,0	  x0:0x00000000
       72975000	      7296	8000449c	00000013	addi	x0,x0,0	  x0:0x00000000
       72985000	      7297	800044a0	fe5ff0ef	jal	x1,800044a0	  x1=0x800044a0
       72995000	      7298	00000000	00000013	addi	x0,x0,0	  x0:0x00000000
       73005000	      7299	80004480	00000013	addi	x0,x0,0	  x0:0x00000000
       73015000	      7300	80004484	018005ef	jal	x11,80004484	 x11=0x80004484
       73025000	      7301	00000000	00000013	addi	x0,x0,0	  x0:0x00000000
       73035000	      7302	80004498	00000013	addi	x0,x0,0	  x0:0x00000000
       73045000	      7303	8000449c	00800d6f	jal	x26,8000449c	 x26=0x8000449c
       73055000	      7304	00000000	00000013	addi	x0,x0,0	  x0:0x00000000
       73065000	      7305	800044a0	00000013	addi	x0,x0,0	  x0:0x00000000
       73075000	      7306	800044a4	ff5ff36f	jal	x6,800044a4	  x6=0x800044a4
       73085000	      7307	00000000	00000013	addi	x0,x0,0	  x0:0x00000000
       73095000	      7308	80004494	00000013	addi	x0,x0,0	  x0:0x00000000
       73105000	      7309	80004498	ff9ff0ef	jal	x1,80004498	  x1=0x80004498
       73115000	      7310	00000000	00000013	addi	x0,x0,0	  x0:0x00000000
       73125000	      7311	8000448c	00000013	addi	x0,x0,0	  x0:0x00000000
       73135000	      7312	80004490	03c0036f	jal	x6,80004490	  x6=0x80004490
       73145000	      7313	00000000	00000013	addi	x0,x0,0	  x0:0x00000000
       73155000	      7314	800044c8	00000013	addi	x0,x0,0	  x0:0x00000000
       73165000	      7315	800044cc	018000ef	jal	x1,800044cc	  x1=0x800044cc
       73175000	      7316	00000000	00000013	addi	x0,x0,0	  x0:0x00000000
       73185000	      7317	800044e0	00000013	addi	x0,x0,0	  x0:0x00000000
       73195000	      7318	800044e4	de42c093	xori	x1,x5,-540	  x5:0x800044b4  x1=0x7fffb950
       73205000	      7319	800044e8	030000ef	jal	x1,800044e8	  x1=0x800044e8
       73215000	      7320	00000000	00000013	addi	x0,x0,0	  x0:0x00000000
       73225000	      7321	80004514	00000013	addi	x0,x0,0	  x0:0x00000000
       73235000	      7322	80004518	02c000ef	jal	x1,80004518	  x1=0x80004518
       73245000	      7323	00000000	00000013	addi	x0,x0,0	  x0:0x00000000
       73255000	      7324	80004540	00000013	addi	x0,x0,0	  x0:0x00000000
       73265000	      7325	80004544	fb9ff36f	jal	x6,80004544	  x6=0x80004544
       73275000	      7326	00000000	00000013	addi	x0,x0,0	  x0:0x00000000
       73285000	      7327	800044f8	00000013	addi	x0,x0,0	  x0:0x00000000
       73295000	      7328	800044fc	008000ef	jal	x1,800044fc	  x1=0x800044fc
       73305000	      7329	00000000	00000013	addi	x0,x0,0	  x0:0x00000000
       73315000	      7330	80004500	00000013	addi	x0,x0,0	  x0:0x00000000
       73325000	      7331	80004504	028000ef	jal	x1,80004504	  x1=0x80004504
       73335000	      7332	00000000	00000013	addi	x0,x0,0	  x0:0x00000000
       73345000	      7333	80004528	00000013	addi	x0,x0,0	  x0:0x00000000
       73355000	      7334	8000452c	00c000ef	jal	x1,8000452c	  x1=0x8000452c
       73365000	      7335	00000000	00000013	addi	x0,x0,0	  x0:0x00000000
       73375000	      7336	80004534	00000013	addi	x0,x0,0	  x0:0x00000000
       73385000	      7337	80004538	fe9ffb6f	jal	x22,80004538	 x22=0x80004538
       73395000	      7338	00000000	00000013	addi	x0,x0,0	  x0:0x00000000
       73405000	      7339	8000451c	00000013	addi	x0,x0,0	  x0:0x00000000
       73415000	      7340	80004520	fd1ff0ef	jal	x1,80004520	  x1=0x80004520
       73425000	      7341	00000000	00000013	addi	x0,x0,0	  x0:0x00000000
       73435000	      7342	800044ec	00000013	addi	x0,x0,0	  x0:0x00000000
       73445000	      7343	800044f0	044000ef	jal	x1,800044f0	  x1=0x800044f0
       73455000	      7344	00000000	00000013	addi	x0,x0,0	  x0:0x00000000
       73465000	      7345	80004530	00000013	addi	x0,x0,0	  x0:0x00000000
       73475000	      7346	80004534	008000ef	jal	x1,80004534	  x1=0x80004534
       73485000	      7347	00000000	00000013	addi	x0,x0,0	  x0:0x00000000
       73495000	      7348	80004538	00000013	addi	x0,x0,0	  x0:0x00000000
       73505000	      7349	8000453c	fd5ff0ef	jal	x1,8000453c	  x1=0x8000453c
       73515000	      7350	00000000	00000013	addi	x0,x0,0	  x0:0x00000000
       73525000	      7351	8000450c	00000013	addi	x0,x0,0	  x0:0x00000000
       73535000	      7352	80004510	0040036f	jal	x6,80004510	  x6=0x80004510
       73545000	      7353	00000000	00000013	addi	x0,x0,0	  x0:0x00000000
       73555000	      7354	80004510	00000013	addi	x0,x0,0	  x0:0x00000000
       73565000	      7355	80004514	010000ef	jal	x1,80004514	  x1=0x80004514
       73575000	      7356	00000000	00000013	addi	x0,x0,0	  x0:0x00000000
       73585000	      7357	80004520	00000013	addi	x0,x0,0	  x0:0x00000000
       73595000	      7358	80004524	fe9ff0ef	jal	x1,80004524	  x1=0x80004524
       73605000	      7359	00000000	00000013	addi	x0,x0,0	  x0:0x00000000
       73615000	      7360	80004508	00000013	addi	x0,x0,0	  x0:0x00000000
       73625000	      7361	8000450c	fe1ff0ef	jal	x1,8000450c	  x1=0x8000450c
       73635000	      7362	00000000	00000013	addi	x0,x0,0	  x0:0x00000000
       73645000	      7363	800044e8	00000013	addi	x0,x0,0	  x0:0x00000000
       73655000	      7364	800044ec	054000ef	jal	x1,800044ec	  x1=0x800044ec
       73665000	      7365	00000000	00000013	addi	x0,x0,0	  x0:0x00000000
       73675000	      7366	8000453c	00000013	addi	x0,x0,0	  x0:0x00000000
       73685000	      7367	80004540	fb5ff56f	jal	x10,80004540	 x10=0x80004540
       73695000	      7368	00000000	00000013	addi	x0,x0,0	  x0:0x00000000
       73705000	      7369	800044f0	00000013	addi	x0,x0,0	  x0:0x00000000
       73715000	      7370	800044f4	0540046f	jal	x8,800044f4	  x8=0x800044f4
       73725000	      7371	00000000	00000013	addi	x0,x0,0	  x0:0x00000000
       73735000	      7372	80004544	00000013	addi	x0,x0,0	  x0:0x00000000
       73745000	      7373	80004548	fe1ff0ef	jal	x1,80004548	  x1=0x80004548
       73755000	      7374	00000000	00000013	addi	x0,x0,0	  x0:0x00000000
       73765000	      7375	80004524	00000013	addi	x0,x0,0	  x0:0x00000000
       73775000	      7376	80004528	fe1ff7ef	jal	x15,80004528	 x15=0x80004528
       73785000	      7377	00000000	00000013	addi	x0,x0,0	  x0:0x00000000
       73795000	      7378	80004504	00000013	addi	x0,x0,0	  x0:0x00000000
       73805000	      7379	80004508	ff1ff36f	jal	x6,80004508	  x6=0x80004508
       73815000	      7380	00000000	00000013	addi	x0,x0,0	  x0:0x00000000
       73825000	      7381	800044f4	00000013	addi	x0,x0,0	  x0:0x00000000
       73835000	      7382	800044f8	008000ef	jal	x1,800044f8	  x1=0x800044f8
       73845000	      7383	00000000	00000013	addi	x0,x0,0	  x0:0x00000000
       73855000	      7384	800044fc	00000013	addi	x0,x0,0	  x0:0x00000000
       73865000	      7385	80004500	03000eef	jal	x29,80004500	 x29=0x80004500
       73875000	      7386	00000000	00000013	addi	x0,x0,0	  x0:0x00000000
       73885000	      7387	8000452c	00000013	addi	x0,x0,0	  x0:0x00000000
       73895000	      7388	80004530	fedffb6f	jal	x22,80004530	 x22=0x80004530
       73905000	      7389	00000000	00000013	addi	x0,x0,0	  x0:0x00000000
       73915000	      7390	80004518	00000013	addi	x0,x0,0	  x0:0x00000000
       73925000	      7391	8000451c	030000ef	jal	x1,8000451c	  x1=0x8000451c
       73935000	      7392	00000000	00000013	addi	x0,x0,0	  x0:0x00000000
       73945000	      7393	80004548	00000013	addi	x0,x0,0	  x0:0x00000000
       73955000	      7394	8000454c	41aa0933	sub	x18,x20,x26	 x20:0x00000000 x26:0x8000449c x18=0x7fffbb64
       73965000	      7395	80004550	028000ef	jal	x1,80004550	  x1=0x80004550
       73975000	      7396	00000000	00000013	addi	x0,x0,0	  x0:0x00000000
       73985000	      7397	80004574	00000013	addi	x0,x0,0	  x0:0x00000000
       73995000	      7398	80004578	fddff4ef	jal	x9,80004578	  x9=0x80004578
       74005000	      7399	00000000	00000013	addi	x0,x0,0	  x0:0x00000000
       74015000	      7400	80004550	00000013	addi	x0,x0,0	  x0:0x00000000
       74025000	      7401	80004554	03c0096f	jal	x18,80004554	 x18=0x80004554
       74035000	      7402	00000000	00000013	addi	x0,x0,0	  x0:0x00000000
       74045000	      7403	8000458c	00000013	addi	x0,x0,0	  x0:0x00000000
       74055000	      7404	80004590	fd1ff36f	jal	x6,80004590	  x6=0x80004590
       74065000	      7405	00000000	00000013	addi	x0,x0,0	  x0:0x00000000
       74075000	      7406	8000455c	00000013	addi	x0,x0,0	  x0:0x00000000
       74085000	      7407	80004560	020000ef	jal	x1,80004560	  x1=0x80004560
       74095000	      7408	00000000	00000013	addi	x0,x0,0	  x0:0x00000000
       74105000	      7409	8000457c	00000013	addi	x0,x0,0	  x0:0x00000000
       74115000	      7410	80004580	00c004ef	jal	x9,80004580	  x9=0x80004580
       74125000	      7411	00000000	00000013	addi	x0,x0,0	  x0:0x00000000
       74135000	      7412	80004588	00000013	addi	x0,x0,0	  x0:0x00000000
       74145000	      7413	8000458c	fd1ff0ef	jal	x1,8000458c	  x1=0x8000458c
       74155000	      7414	00000000	00000013	addi	x0,x0,0	  x0:0x00000000
       74165000	      7415	80004558	00000013	addi	x0,x0,0	  x0:0x00000000
       74175000	      7416	8000455c	008000ef	jal	x1,8000455c	  x1=0x8000455c
       74185000	      7417	00000000	00000013	addi	x0,x0,0	  x0:0x00000000
       74195000	      7418	80004560	00000013	addi	x0,x0,0	  x0:0x00000000
       74205000	      7419	80004564	ff5ffdef	jal	x27,80004564	 x27=0x80004564
       74215000	      7420	00000000	00000013	addi	x0,x0,0	  x0:0x00000000
       74225000	      7421	80004554	00000013	addi	x0,x0,0	  x0:0x00000000
       74235000	      7422	80004558	0140036f	jal	x6,80004558	  x6=0x80004558
       74245000	      7423	00000000	00000013	addi	x0,x0,0	  x0:0x00000000
       74255000	      7424	80004568	00000013	addi	x0,x0,0	  x0:0x00000000
       74265000	      7425	8000456c	01c000ef	jal	x1,8000456c	  x1=0x8000456c
       74275000	      7426	00000000	00000013	addi	x0,x0,0	  x0:0x00000000
       74285000	      7427	80004584	00000013	addi	x0,x0,0	  x0:0x00000000
       74295000	      7428	80004588	ffdff56f	jal	x10,80004588	 x10=0x80004588
       74305000	      7429	00000000	00000013	addi	x0,x0,0	  x0:0x00000000
       74315000	      7430	80004580	00000013	addi	x0,x0,0	  x0:0x00000000
       74325000	      7431	80004584	ff1ff7ef	jal	x15,80004584	 x15=0x80004584
       74335000	      7432	00000000	00000013	addi	x0,x0,0	  x0:0x00000000
       74345000	      7433	80004570	00000013	addi	x0,x0,0	  x0:0x00000000
       74355000	      7434	80004574	ffdff0ef	jal	x1,80004574	  x1=0x80004574
       74365000	      7435	00000000	00000013	addi	x0,x0,0	  x0:0x00000000
       74375000	      7436	8000456c	00000013	addi	x0,x0,0	  x0:0x00000000
       74385000	      7437	80004570	ff9ff0ef	jal	x1,80004570	  x1=0x80004570
       74395000	      7438	00000000	00000013	addi	x0,x0,0	  x0:0x00000000
       74405000	      7439	80004564	00000013	addi	x0,x0,0	  x0:0x00000000
       74415000	      7440	80004568	0140026f	jal	x4,80004568	  x4=0x80004568
       74425000	      7441	00000000	00000013	addi	x0,x0,0	  x0:0x00000000
       74435000	      7442	80004578	00000013	addi	x0,x0,0	  x0:0x00000000
       74445000	      7443	8000457c	018002ef	jal	x5,8000457c	  x5=0x8000457c
       74455000	      7444	00000000	00000013	addi	x0,x0,0	  x0:0x00000000
       74465000	      7445	80004590	00000013	addi	x0,x0,0	  x0:0x00000000
       74475000	      7446	80004594	5d101217	auipc	x4,0x5d101	  x4=0xdd105590
       74485000	      7447	80004598	013c5b33	srl	x22,x24,x19	 x24:0x00000000 x19:0x00000001 x22=0x00000000
       74495000	      7448	8000459c	40225fb3	sra	x31,x4,x2	  x4:0xdd105590  x2:0x000003ff x31=0xffffffff
       74505000	      7449	800045a0	00739663	bne	x7,x7,800045ac	  x7:0x8000446c  x7:0x8000446c
       74515000	      7450	800045a4	01730833	add	x16,x6,x23	  x6:0x80004558 x23:0x80009f48 x16=0x0000e4a0
       74525000	      7451	800045a8	03c75663	bge	x14,x28,800045d4	 x14:0x00000004 x28:0x8000a2ad
       74535000	      7452	00000000	00000013	addi	x0,x0,0	  x0:0x00000000
       74545000	      7453	800045d0	00000013	addi	x0,x0,0	  x0:0x00000000
       74555000	      7454	800045d4	00029c93	slli	x25,x5,0x0	  x5:0x8000457c x25=0x8000457c
       74565000	      7455	800045d8	0086aeb3	slt	x29,x13,x8	 x13:0x13fa018e  x8:0x800044f4 x29=0x00000000
       74575000	      7456	800045dc	03f90463	beq	x18,x31,80004604	 x18:0x80004554 x31:0xffffffff
       74585000	      7457	800045e0	016e0233	add	x4,x28,x22	 x28:0x8000a2ad x22:0x00000000  x4=0x8000a2ad
       74595000	      7458	800045e4	001de633	or	x12,x27,x1	 x27:0x80004564  x1:0x80004570 x12=0x80004574
       74605000	      7459	800045e8	019c7333	and	x6,x24,x25	 x24:0x00000000 x25:0x8000457c  x6=0x00000000
       74615000	      7460	800045ec	496a5997	auipc	x19,0x496a5	 x19=0xc96a95e8
       74625000	      7461	800045f0	d5d17813	andi	x16,x2,-675	  x2:0x000003ff x16=0x0000015d
       74635000	      7462	800045f4	01551663	bne	x10,x21,80004600	 x10:0x80004588 x21:0x00000000
       74645000	      7463	00000000	00000013	addi	x0,x0,0	  x0:0x00000000
       74655000	      7464	800045fc	00000013	addi	x0,x0,0	  x0:0x00000000
       74665000	      7465	80004600	010651b3	srl	x3,x12,x16	 x12:0x80004574 x16:0x0000015d  x3=0x00000004
       74675000	      7466	80004604	016176b3	and	x13,x2,x22	  x2:0x000003ff x22:0x00000000 x13=0x00000000
       74685000	      7467	80004608	c99781b7	lui	x3,0xc9978	  x3=0xc9978000
       74695000	      7468	8000460c	01f81e13	slli	x28,x16,0x1f	 x16:0x0000015d x28=0x80000000
       74705000	      7469	80004610	e4503393	sltiu	x7,x0,-443	  x0:0x00000000  x7=0x00000001
       74715000	      7470	80004614	01623433	sltu	x8,x4,x22	  x4:0x8000a2ad x22:0x00000000  x8=0x00000000
       74725000	      7471	80004618	00d4ec63	bltu	x9,x13,80004630	  x9:0x80004580 x13:0x00000000
       74735000	      7472	8000461c	b70fb293	sltiu	x5,x31,-1168	 x31:0xffffffff  x5=0x00000000
       74745000	      7473	80004620	d7187c13	andi	x24,x16,-655	 x16:0x0000015d x24=0x00000151
       74755000	      7474	80004624	01fe0eb3	add	x29,x28,x31	 x28:0x80000000 x31:0xffffffff x29=0x7fffffff
       74765000	      7475	80004628	032c9863	bne	x25,x18,80004658	 x25:0x8000457c x18:0x80004554
       74775000	      7476	00000000	00000013	addi	x0,x0,0	  x0:0x00000000
       74785000	      7477	80004654	00000013	addi	x0,x0,0	  x0:0x00000000
       74795000	      7478	80004658	656efb17	auipc	x22,0x656ef	 x22=0xe56f3654
       74805000	      7479	8000465c	419d0ab3	sub	x21,x26,x25	 x26:0x8000449c x25:0x8000457c x21=0xffffff20
       74815000	      7480	80004660	01561813	slli	x16,x12,0x15	 x12:0x80004574 x16=0xae800000
       74825000	      7481	80004664	01815863	bge	x2,x24,80004674	  x2:0x000003ff x24:0x00000151
       74835000	      7482	00000000	00000013	addi	x0,x0,0	  x0:0x00000000
       74845000	      7483	80004670	00000013	addi	x0,x0,0	  x0:0x00000000
       74855000	      7484	80004674	02d88263	beq	x17,x13,80004698	 x17:0x80009fc4 x13:0x00000000
       74865000	      7485	80004678	40830533	sub	x10,x6,x8	  x6:0x00000000  x8:0x00000000 x10=0x00000000
       74875000	      7486	8000467c	89783913	sltiu	x18,x16,-1897	 x16:0xae800000 x18=0x00000001
       74885000	      7487	80004680	001dbf33	sltu	x30,x27,x1	 x27:0x80004564  x1:0x80004570 x30=0x00000001
       74895000	      7488	80004684	b074f993	andi	x19,x9,-1273	  x9:0x80004580 x19=0x80004100
       74905000	      7489	80004688	03c59063	bne	x11,x28,800046a8	 x11:0x80004484 x28:0x80000000
       74915000	      7490	00000000	00000013	addi	x0,x0,0	  x0:0x00000000
       74925000	      7491	800046a4	00000013	addi	x0,x0,0	  x0:0x00000000
       74935000	      7492	800046a8	027f0a63	beq	x30,x7,800046dc	 x30:0x00000001  x7:0x00000001
       74945000	      7493	00000000	00000013	addi	x0,x0,0	  x0:0x00000000
       74955000	      7494	800046d8	00000013	addi	x0,x0,0	  x0:0x00000000
       74965000	      7495	800046dc	40145ab3	sra	x21,x8,x1	  x8:0x00000000  x1:0x80004570 x21=0x00000000
       74975000	      7496	800046e0	883b0313	addi	x6,x22,-1917	 x22:0xe56f3654  x6=0xe56f2ed7
       74985000	      7497	800046e4	00af6c63	bltu	x30,x10,800046fc	 x30:0x00000001 x10:0x00000000
       74995000	      7498	800046e8	3395f793	andi	x15,x11,825	 x11:0x80004484 x15=0x00000000
       75005000	      7499	800046ec	31cda493	slti	x9,x27,796	 x27:0x80004564  x9=0x00000001
       75015000	      7500	800046f0	eb60ec37	lui	x24,0xeb60e	 x24=0xeb60e000
       75025000	      7501	800046f4	00000013	addi	x0,x0,0	  x0:0x00000000
       75035000	      7502	800046f8	8796ba93	sltiu	x21,x13,-1927	 x13:0x00000000 x21=0x00000001
       75045000	      7503	800046fc	02a66063	bltu	x12,x10,8000471c	 x12:0x80004574 x10:0x00000000
       75055000	      7504	80004700	0171d663	bge	x3,x23,8000470c	  x3:0xc9978000 x23:0x80009f48
       75065000	      7505	00000000	00000013	addi	x0,x0,0	  x0:0x00000000
       75075000	      7506	80004708	00000013	addi	x0,x0,0	  x0:0x00000000
       75085000	      7507	8000470c	5ced8113	addi	x2,x27,1486	 x27:0x80004564  x2=0x80004b32
       75095000	      7508	80004710	4049d113	srai	x2,x19,0x4	 x19:0x80004100  x2=0xf8000410
       75105000	      7509	80004714	b2402813	slti	x16,x0,-1244	  x0:0x00000000 x16=0x00000000
       75115000	      7510	80004718	01a91513	slli	x10,x18,0x1a	 x18:0x00000001 x10=0x04000000
       75125000	      7511	8000471c	c87d8a13	addi	x20,x27,-889	 x27:0x80004564 x20=0x800041eb
       75135000	      7512	80004720	000cecb3	or	x25,x25,x0	 x25:0x8000457c  x0:0x00000000 x25=0x8000457c
       75145000	      7513	80004724	00f9b833	sltu	x16,x19,x15	 x19:0x80004100 x15:0x00000000 x16=0x00000000
       75155000	      7514	80004728	b55b8993	addi	x19,x23,-1195	 x23:0x80009f48 x19=0x80009a9d
       75165000	      7515	8000472c	1af74013	xori	x0,x14,431	 x14:0x00000004
       75175000	      7516	80004730	02c69063	bne	x13,x12,80004750	 x13:0x00000000 x12:0x80004574
       75185000	      7517	00000000	00000013	addi	x0,x0,0	  x0:0x00000000
       75195000	      7518	8000474c	00000013	addi	x0,x0,0	  x0:0x00000000
       75205000	      7519	80004750	01ea5f13	srli	x30,x20,0x1e	 x20:0x800041eb x30=0x00000002
       75215000	      7520	80004754	5c044f93	xori	x31,x8,1472	  x8:0x00000000 x31=0x000005c0
       75225000	      7521	80004758	007f3cb3	sltu	x25,x30,x7	 x30:0x00000002  x7:0x00000001 x25=0x00000000
       75235000	      7522	8000475c	01a2dc33	srl	x24,x5,x26	  x5:0x00000000 x26:0x8000449c x24=0x00000000
       75245000	      7523	80004760	0213ec63	bltu	x7,x1,80004798	  x7:0x00000001  x1:0x80004570
       75255000	      7524	00000000	00000013	addi	x0,x0,0	  x0:0x00000000
       75265000	      7525	80004794	00000013	addi	x0,x0,0	  x0:0x00000000
       75275000	      7526	80004798	00910db3	add	x27,x2,x9	  x2:0xf8000410  x9:0x00000001 x27=0xf8000411
       75285000	      7527	8000479c	01455313	srli	x6,x10,0x14	 x10:0x04000000  x6=0x00000040
       75295000	      7528	800047a0	e48d0f13	addi	x30,x26,-440	 x26:0x8000449c x30=0x800042e4
       75305000	      7529	800047a4	30b94013	xori	x0,x18,779	 x18:0x00000001
       75315000	      7530	800047a8	009fc2b3	xor	x5,x31,x9	 x31:0x000005c0  x9:0x00000001  x5=0x000005c1
       75325000	      7531	800047ac	03e26c63	bltu	x4,x30,800047e4	  x4:0x8000a2ad x30:0x800042e4
       75335000	      7532	800047b0	5365e413	ori	x8,x11,1334	 x11:0x80004484  x8=0x800045b6
       75345000	      7533	800047b4	015fc933	xor	x18,x31,x21	 x31:0x000005c0 x21:0x00000001 x18=0x000005c1
       75355000	      7534	800047b8	018493b3	sll	x7,x9,x24	  x9:0x00000001 x24:0x00000000  x7=0x00000001
       75365000	      7535	800047bc	0167c7b3	xor	x15,x15,x22	 x15:0x00000000 x22:0xe56f3654 x15=0xe56f3654
       75375000	      7536	800047c0	40248f33	sub	x30,x9,x2	  x9:0x00000001  x2:0xf8000410 x30=0x07fffbf1
       75385000	      7537	800047c4	02168863	beq	x13,x1,800047f4	 x13:0x00000000  x1:0x80004570
       75395000	      7538	800047c8	0660e013	ori	x0,x1,102	  x1:0x80004570
       75405000	      7539	800047cc	d992bd93	sltiu	x27,x5,-615	  x5:0x000005c1 x27=0x00000001
       75415000	      7540	800047d0	2d0e8397	auipc	x7,0x2d0e8	  x7=0xad0ec7cc
       75425000	      7541	800047d4	01609e33	sll	x28,x1,x22	  x1:0x80004570 x22:0xe56f3654 x28=0x57000000
       75435000	      7542	800047d8	06058797	auipc	x15,0x6058	 x15=0x8605c7d4
       75445000	      7543	800047dc	cc43f013	andi	x0,x7,-828	  x7:0xad0ec7cc
       75455000	      7544	800047e0	00478833	add	x16,x15,x4	 x15:0x8605c7d4  x4:0x8000a2ad x16=0x06066a81
       75465000	      7545	800047e4	0189fab3	and	x21,x19,x24	 x19:0x80009a9d x24:0x00000000 x21=0x00000000
       75475000	      7546	800047e8	004d5c33	srl	x24,x26,x4	 x26:0x8000449c  x4:0x8000a2ad x24=0x00040002
       75485000	      7547	800047ec	00491913	slli	x18,x18,0x4	 x18:0x000005c1 x18=0x00005c10
       75495000	      7548	800047f0	00000013	addi	x0,x0,0	  x0:0x00000000
       75505000	      7549	800047f4	41ef52b3	sra	x5,x30,x30	 x30:0x07fffbf1 x30:0x07fffbf1  x5=0x000003ff
       75515000	      7550	800047f8	fe603c93	sltiu	x25,x0,-26	  x0:0x00000000 x25=0x00000001
       75525000	      7551	800047fc	0186f233	and	x4,x13,x24	 x13:0x00000000 x24:0x00040002  x4=0x00000000
       75535000	      7552	80004800	e250dab7	lui	x21,0xe250d	 x21=0xe250d000
       75545000	      7553	80004804	03484463	blt	x16,x20,8000482c	 x16:0x06066a81 x20:0x800041eb
       75555000	      7554	80004808	026ff463	bgeu	x31,x6,80004830	 x31:0x000005c0  x6:0x00000040
       75565000	      7555	00000000	00000013	addi	x0,x0,0	  x0:0x00000000
       75575000	      7556	8000482c	00000013	addi	x0,x0,0	  x0:0x00000000
       75585000	      7557	80004830	21a6ed93	ori	x27,x13,538	 x13:0x00000000 x27=0x0000021a
       75595000	      7558	80004834	00b11c93	slli	x25,x2,0xb	  x2:0xf8000410 x25=0x00208000
       75605000	      7559	80004838	db85a613	slti	x12,x11,-584	 x11:0x80004484 x12=0x00000001
       75615000	      7560	8000483c	0209d063	bge	x19,x0,8000485c	 x19:0x80009a9d  x0:0x00000000
       75625000	      7561	80004840	00239033	sll	x0,x7,x2	  x7:0xad0ec7cc  x2:0xf8000410
       75635000	      7562	80004844	01a41093	slli	x1,x8,0x1a	  x8:0x800045b6  x1=0xd8000000
       75645000	      7563	80004848	00000013	addi	x0,x0,0	  x0:0x00000000
       75655000	      7564	8000484c	8e9bc813	xori	x16,x23,-1815	 x23:0x80009f48 x16=0x7fff67a1
       75665000	      7565	80004850	412a0eb3	sub	x29,x20,x18	 x20:0x800041eb x18:0x00005c10 x29=0x7fffe5db
       75675000	      7566	80004854	c3b52c13	slti	x24,x10,-965	 x10:0x04000000 x24=0x00000000
       75685000	      7567	80004858	00244263	blt	x8,x2,8000485c	  x8:0x800045b6  x2:0xf8000410
       75695000	      7568	00000000	00000013	addi	x0,x0,0	  x0:0x00000000
       75705000	      7569	80004858	00000013	addi	x0,x0,0	  x0:0x00000000
       75715000	      7570	8000485c	001ba433	slt	x8,x23,x1	 x23:0x80009f48  x1:0xd8000000  x8=0x00000001
       75725000	      7571	80004860	005567b3	or	x15,x10,x5	 x10:0x04000000  x5:0x000003ff x15=0x040003ff
       75735000	      7572	80004864	015b52b3	srl	x5,x22,x21	 x22:0xe56f3654 x21:0xe250d000  x5=0xe56f3654
       75745000	      7573	80004868	004ba083	lw	x1,4(x23)	 x23:0x80009f48  x1=0x80000160 PA:0x80009f4c
       75755000	      7574	8000486c	03cb8b93	addi	x23,x23,60	 x23:0x80009f48 x23=0x80009f84
       75765000	      7575	80004870	010784b3	add	x9,x15,x16	 x15:0x040003ff x16:0x7fff67a1  x9=0x83ff6ba0
       75775000	      7576	80004874	407e37b7	lui	x15,0x407e3	 x15=0x407e3000
       75785000	      7577	80004878	0119d693	srli	x13,x19,0x11	 x19:0x80009a9d x13=0x00004000
       75795000	      7578	8000487c	00108d93	addi	x27,x1,1	  x1:0x80000160 x27=0x80000161
       75805000	      7579	80004880	000d8de7	jalr	x27,x27,0	 x27:0x80000161 x27=0x80004880
       75815000	      7580	00000000	00000013	addi	x0,x0,0	  x0:0x00000000
       75825000	      7581	80000160	00000013	addi	x0,x0,0	  x0:0x00000000
       75835000	      7582	80000164	004000ef	jal	x1,80000164	  x1=0x80000164
       75845000	      7583	00000000	00000013	addi	x0,x0,0	  x0:0x00000000
       75855000	      7584	80000164	00000013	addi	x0,x0,0	  x0:0x00000000
       75865000	      7585	80000168	04c000ef	jal	x1,80000168	  x1=0x80000168
       75875000	      7586	00000000	00000013	addi	x0,x0,0	  x0:0x00000000
       75885000	      7587	800001b0	00000013	addi	x0,x0,0	  x0:0x00000000
       75895000	      7588	800001b4	fd1ffc6f	jal	x24,800001b4	 x24=0x800001b4
       75905000	      7589	00000000	00000013	addi	x0,x0,0	  x0:0x00000000
       75915000	      7590	80000180	00000013	addi	x0,x0,0	  x0:0x00000000
       75925000	      7591	80000184	0040016f	jal	x2,80000184	  x2=0x80000184
       75935000	      7592	00000000	00000013	addi	x0,x0,0	  x0:0x00000000
       75945000	      7593	80000184	00000013	addi	x0,x0,0	  x0:0x00000000
       75955000	      7594	80000188	004000ef	jal	x1,80000188	  x1=0x80000188
       75965000	      7595	00000000	00000013	addi	x0,x0,0	  x0:0x00000000
       75975000	      7596	80000188	00000013	addi	x0,x0,0	  x0:0x00000000
       75985000	      7597	8000018c	0100036f	jal	x6,8000018c	  x6=0x8000018c
       75995000	      7598	00000000	00000013	addi	x0,x0,0	  x0:0x00000000
       76005000	      7599	80000198	00000013	addi	x0,x0,0	  x0:0x00000000
       76015000	      7600	8000019c	fd9ff0ef	jal	x1,8000019c	  x1=0x8000019c
       76025000	      7601	00000000	00000013	addi	x0,x0,0	  x0:0x00000000
       76035000	      7602	80000170	00000013	addi	x0,x0,0	  x0:0x00000000
       76045000	      7603	80000174	0480036f	jal	x6,80000174	  x6=0x80000174
       76055000	      7604	00000000	00000013	addi	x0,x0,0	  x0:0x00000000
       76065000	      7605	800001b8	00000013	addi	x0,x0,0	  x0:0x00000000
       76075000	      7606	800001bc	fc5ff0ef	jal	x1,800001bc	  x1=0x800001bc
       76085000	      7607	00000000	00000013	addi	x0,x0,0	  x0:0x00000000
       76095000	      7608	8000017c	00000013	addi	x0,x0,0	  x0:0x00000000
       76105000	      7609	80000180	01800d6f	jal	x26,80000180	 x26=0x80000180
       76115000	      7610	00000000	00000013	addi	x0,x0,0	  x0:0x00000000
       76125000	      7611	80000194	00000013	addi	x0,x0,0	  x0:0x00000000
       76135000	      7612	80000198	fe5ff0ef	jal	x1,80000198	  x1=0x80000198
       76145000	      7613	00000000	00000013	addi	x0,x0,0	  x0:0x00000000
       76155000	      7614	80000178	00000013	addi	x0,x0,0	  x0:0x00000000
       76165000	      7615	8000017c	ff5ff2ef	jal	x5,8000017c	  x5=0x8000017c
       76175000	      7616	00000000	00000013	addi	x0,x0,0	  x0:0x00000000
       76185000	      7617	8000016c	00000013	addi	x0,x0,0	  x0:0x00000000
       76195000	      7618	80000170	020000ef	jal	x1,80000170	  x1=0x80000170
       76205000	      7619	00000000	00000013	addi	x0,x0,0	  x0:0x00000000
       76215000	      7620	8000018c	00000013	addi	x0,x0,0	  x0:0x00000000
       76225000	      7621	80000190	fddff46f	jal	x8,80000190	  x8=0x80000190
       76235000	      7622	00000000	00000013	addi	x0,x0,0	  x0:0x00000000
       76245000	      7623	80000168	00000013	addi	x0,x0,0	  x0:0x00000000
       76255000	      7624	8000016c	03400cef	jal	x25,8000016c	 x25=0x8000016c
       76265000	      7625	00000000	00000013	addi	x0,x0,0	  x0:0x00000000
       76275000	      7626	8000019c	00000013	addi	x0,x0,0	  x0:0x00000000
       76285000	      7627	800001a0	018000ef	jal	x1,800001a0	  x1=0x800001a0
       76295000	      7628	00000000	00000013	addi	x0,x0,0	  x0:0x00000000
       76305000	      7629	800001b4	00000013	addi	x0,x0,0	  x0:0x00000000
       76315000	      7630	800001b8	ff5ff0ef	jal	x1,800001b8	  x1=0x800001b8
       76325000	      7631	00000000	00000013	addi	x0,x0,0	  x0:0x00000000
       76335000	      7632	800001a8	00000013	addi	x0,x0,0	  x0:0x00000000
       76345000	      7633	800001ac	004000ef	jal	x1,800001ac	  x1=0x800001ac
       76355000	      7634	00000000	00000013	addi	x0,x0,0	  x0:0x00000000
       76365000	      7635	800001ac	00000013	addi	x0,x0,0	  x0:0x00000000
       76375000	      7636	800001b0	fe5ffc6f	jal	x24,800001b0	 x24=0x800001b0
       76385000	      7637	00000000	00000013	addi	x0,x0,0	  x0:0x00000000
       76395000	      7638	80000190	00000013	addi	x0,x0,0	  x0:0x00000000
       76405000	      7639	80000194	014000ef	jal	x1,80000194	  x1=0x80000194
       76415000	      7640	00000000	00000013	addi	x0,x0,0	  x0:0x00000000
       76425000	      7641	800001a4	00000013	addi	x0,x0,0	  x0:0x00000000
       76435000	      7642	800001a8	ffdff36f	jal	x6,800001a8	  x6=0x800001a8
       76445000	      7643	00000000	00000013	addi	x0,x0,0	  x0:0x00000000
       76455000	      7644	800001a0	00000013	addi	x0,x0,0	  x0:0x00000000
       76465000	      7645	800001a4	fd5ff36f	jal	x6,800001a4	  x6=0x800001a4
       76475000	      7646	00000000	00000013	addi	x0,x0,0	  x0:0x00000000
       76485000	      7647	80000174	00000013	addi	x0,x0,0	  x0:0x00000000
       76495000	      7648	80000178	0480036f	jal	x6,80000178	  x6=0x80000178
       76505000	      7649	00000000	00000013	addi	x0,x0,0	  x0:0x00000000
       76515000	      7650	800001bc	00000013	addi	x0,x0,0	  x0:0x00000000
       76525000	      7651	800001c0	0061f933	and	x18,x3,x6	  x3:0xc9978000  x6:0x80000178 x18=0x80000000
       76535000	      7652	800001c4	060000ef	jal	x1,800001c4	  x1=0x800001c4
       76545000	      7653	00000000	00000013	addi	x0,x0,0	  x0:0x00000000
       76555000	      7654	80000220	00000013	addi	x0,x0,0	  x0:0x00000000
       76565000	      7655	80000224	ff9ff36f	jal	x6,80000224	  x6=0x80000224
       76575000	      7656	00000000	00000013	addi	x0,x0,0	  x0:0x00000000
       76585000	      7657	80000218	00000013	addi	x0,x0,0	  x0:0x00000000
       76595000	      7658	8000021c	fd1ff0ef	jal	x1,8000021c	  x1=0x8000021c
       76605000	      7659	00000000	00000013	addi	x0,x0,0	  x0:0x00000000
       76615000	      7660	800001e8	00000013	addi	x0,x0,0	  x0:0x00000000
       76625000	      7661	800001ec	ff5ff0ef	jal	x1,800001ec	  x1=0x800001ec
       76635000	      7662	00000000	00000013	addi	x0,x0,0	  x0:0x00000000
       76645000	      7663	800001dc	00000013	addi	x0,x0,0	  x0:0x00000000
       76655000	      7664	800001e0	0480036f	jal	x6,800001e0	  x6=0x800001e0
       76665000	      7665	00000000	00000013	addi	x0,x0,0	  x0:0x00000000
       76675000	      7666	80000224	00000013	addi	x0,x0,0	  x0:0x00000000
       76685000	      7667	80000228	fd5ffa6f	jal	x20,80000228	 x20=0x80000228
       76695000	      7668	00000000	00000013	addi	x0,x0,0	  x0:0x00000000
       76705000	      7669	800001f8	00000013	addi	x0,x0,0	  x0:0x00000000
       76715000	      7670	800001fc	fd1ff0ef	jal	x1,800001fc	  x1=0x800001fc
       76725000	      7671	00000000	00000013	addi	x0,x0,0	  x0:0x00000000
       76735000	      7672	800001c8	00000013	addi	x0,x0,0	  x0:0x00000000
       76745000	      7673	800001cc	02400f6f	jal	x30,800001cc	 x30=0x800001cc
       76755000	      7674	00000000	00000013	addi	x0,x0,0	  x0:0x00000000
       76765000	      7675	800001ec	00000013	addi	x0,x0,0	  x0:0x00000000
       76775000	      7676	800001f0	fedff0ef	jal	x1,800001f0	  x1=0x800001f0
       76785000	      7677	00000000	00000013	addi	x0,x0,0	  x0:0x00000000
       76795000	      7678	800001d8	00000013	addi	x0,x0,0	  x0:0x00000000
       76805000	      7679	800001dc	008000ef	jal	x1,800001dc	  x1=0x800001dc
       76815000	      7680	00000000	00000013	addi	x0,x0,0	  x0:0x00000000
       76825000	      7681	800001e0	00000013	addi	x0,x0,0	  x0:0x00000000
       76835000	      7682	800001e4	004000ef	jal	x1,800001e4	  x1=0x800001e4
       76845000	      7683	00000000	00000013	addi	x0,x0,0	  x0:0x00000000
       76855000	      7684	800001e4	00000013	addi	x0,x0,0	  x0:0x00000000
       76865000	      7685	800001e8	02c00fef	jal	x31,800001e8	 x31=0x800001e8
       76875000	      7686	00000000	00000013	addi	x0,x0,0	  x0:0x00000000
       76885000	      7687	80000210	00000013	addi	x0,x0,0	  x0:0x00000000
       76895000	      7688	80000214	0040066f	jal	x12,80000214	 x12=0x80000214
       76905000	      7689	00000000	00000013	addi	x0,x0,0	  x0:0x00000000
       76915000	      7690	80000214	00000013	addi	x0,x0,0	  x0:0x00000000
       76925000	      7691	80000218	ff1ff36f	jal	x6,80000218	  x6=0x80000218
       76935000	      7692	00000000	00000013	addi	x0,x0,0	  x0:0x00000000
       76945000	      7693	80000204	00000013	addi	x0,x0,0	  x0:0x00000000
       76955000	      7694	80000208	ffdff0ef	jal	x1,80000208	  x1=0x80000208
       76965000	      7695	00000000	00000013	addi	x0,x0,0	  x0:0x00000000
       76975000	      7696	80000200	00000013	addi	x0,x0,0	  x0:0x00000000
       76985000	      7697	80000204	ff5ff36f	jal	x6,80000204	  x6=0x80000204
       76995000	      7698	00000000	00000013	addi	x0,x0,0	  x0:0x00000000
       77005000	      7699	800001f4	00000013	addi	x0,x0,0	  x0:0x00000000
       77015000	      7700	800001f8	0180036f	jal	x6,800001f8	  x6=0x800001f8
       77025000	      7701	00000000	00000013	addi	x0,x0,0	  x0:0x00000000
       77035000	      7702	8000020c	00000013	addi	x0,x0,0	  x0:0x00000000
       77045000	      7703	80000210	ffdff0ef	jal	x1,80000210	  x1=0x80000210
       77055000	      7704	00000000	00000013	addi	x0,x0,0	  x0:0x00000000
       77065000	      7705	80000208	00000013	addi	x0,x0,0	  x0:0x00000000
       77075000	      7706	8000020c	fc9ff0ef	jal	x1,8000020c	  x1=0x8000020c
       77085000	      7707	00000000	00000013	addi	x0,x0,0	  x0:0x00000000
       77095000	      7708	800001d0	00000013	addi	x0,x0,0	  x0:0x00000000
       77105000	      7709	800001d4	ffdff0ef	jal	x1,800001d4	  x1=0x800001d4
       77115000	      7710	00000000	00000013	addi	x0,x0,0	  x0:0x00000000
       77125000	      7711	800001cc	00000013	addi	x0,x0,0	  x0:0x00000000
       77135000	      7712	800001d0	008000ef	jal	x1,800001d0	  x1=0x800001d0
       77145000	      7713	00000000	00000013	addi	x0,x0,0	  x0:0x00000000
       77155000	      7714	800001d4	00000013	addi	x0,x0,0	  x0:0x00000000
       77165000	      7715	800001d8	ff1ff26f	jal	x4,800001d8	  x4=0x800001d8
       77175000	      7716	00000000	00000013	addi	x0,x0,0	  x0:0x00000000
       77185000	      7717	800001c4	00000013	addi	x0,x0,0	  x0:0x00000000
       77195000	      7718	800001c8	038000ef	jal	x1,800001c8	  x1=0x800001c8
       77205000	      7719	00000000	00000013	addi	x0,x0,0	  x0:0x00000000
       77215000	      7720	800001fc	00000013	addi	x0,x0,0	  x0:0x00000000
       77225000	      7721	80000200	020000ef	jal	x1,80000200	  x1=0x80000200
       77235000	      7722	00000000	00000013	addi	x0,x0,0	  x0:0x00000000
       77245000	      7723	8000021c	00000013	addi	x0,x0,0	  x0:0x00000000
       77255000	      7724	80000220	fd5ff36f	jal	x6,80000220	  x6=0x80000220
       77265000	      7725	00000000	00000013	addi	x0,x0,0	  x0:0x00000000
       77275000	      7726	800001f0	00000013	addi	x0,x0,0	  x0:0x00000000
       77285000	      7727	800001f4	03800def	jal	x27,800001f4	 x27=0x800001f4
       77295000	      7728	00000000	00000013	addi	x0,x0,0	  x0:0x00000000
       77305000	      7729	80000228	00000013	addi	x0,x0,0	  x0:0x00000000
       77315000	      7730	8000022c	008dd013	srli	x0,x27,0x8	 x27:0x800001f4
       77325000	      7731	80000230	044000ef	jal	x1,80000230	  x1=0x80000230
       77335000	      7732	00000000	00000013	addi	x0,x0,0	  x0:0x00000000
       77345000	      7733	80000270	00000013	addi	x0,x0,0	  x0:0x00000000
       77355000	      7734	80000274	01c000ef	jal	x1,80000274	  x1=0x80000274
       77365000	      7735	00000000	00000013	addi	x0,x0,0	  x0:0x00000000
       77375000	      7736	8000028c	00000013	addi	x0,x0,0	  x0:0x00000000
       77385000	      7737	80000290	fa9ff36f	jal	x6,80000290	  x6=0x80000290
       77395000	      7738	00000000	00000013	addi	x0,x0,0	  x0:0x00000000
       77405000	      7739	80000234	00000013	addi	x0,x0,0	  x0:0x00000000
       77415000	      7740	80000238	050000ef	jal	x1,80000238	  x1=0x80000238
       77425000	      7741	00000000	00000013	addi	x0,x0,0	  x0:0x00000000
       77435000	      7742	80000284	00000013	addi	x0,x0,0	  x0:0x00000000
       77445000	      7743	80000288	014001ef	jal	x3,80000288	  x3=0x80000288
       77455000	      7744	00000000	00000013	addi	x0,x0,0	  x0:0x00000000
       77465000	      7745	80000298	00000013	addi	x0,x0,0	  x0:0x00000000
       77475000	      7746	8000029c	ff1ff0ef	jal	x1,8000029c	  x1=0x8000029c
       77485000	      7747	00000000	00000013	addi	x0,x0,0	  x0:0x00000000
       77495000	      7748	80000288	00000013	addi	x0,x0,0	  x0:0x00000000
       77505000	      7749	8000028c	fddffa6f	jal	x20,8000028c	 x20=0x8000028c
       77515000	      7750	00000000	00000013	addi	x0,x0,0	  x0:0x00000000
       77525000	      7751	80000264	00000013	addi	x0,x0,0	  x0:0x00000000
       77535000	      7752	80000268	0300036f	jal	x6,80000268	  x6=0x80000268
       77545000	      7753	00000000	00000013	addi	x0,x0,0	  x0:0x00000000
       77555000	      7754	80000294	00000013	addi	x0,x0,0	  x0:0x00000000
       77565000	      7755	80000298	fe9ff0ef	jal	x1,80000298	  x1=0x80000298
       77575000	      7756	00000000	00000013	addi	x0,x0,0	  x0:0x00000000
       77585000	      7757	8000027c	00000013	addi	x0,x0,0	  x0:0x00000000
       77595000	      7758	80000280	01400e6f	jal	x28,80000280	 x28=0x80000280
       77605000	      7759	00000000	00000013	addi	x0,x0,0	  x0:0x00000000
       77615000	      7760	80000290	00000013	addi	x0,x0,0	  x0:0x00000000
       77625000	      7761	80000294	fc5ff0ef	jal	x1,80000294	  x1=0x80000294
       77635000	      7762	00000000	00000013	addi	x0,x0,0	  x0:0x00000000
       77645000	      7763	80000254	00000013	addi	x0,x0,0	  x0:0x00000000
       77655000	      7764	80000258	fddffd6f	jal	x26,80000258	 x26=0x80000258
       77665000	      7765	00000000	00000013	addi	x0,x0,0	  x0:0x00000000
       77675000	      7766	80000230	00000013	addi	x0,x0,0	  x0:0x00000000
       77685000	      7767	80000234	01c00def	jal	x27,80000234	 x27=0x80000234
       77695000	      7768	00000000	00000013	addi	x0,x0,0	  x0:0x00000000
       77705000	      7769	8000024c	00000013	addi	x0,x0,0	  x0:0x00000000
       77715000	      7770	80000250	014009ef	jal	x19,80000250	 x19=0x80000250
       77725000	      7771	00000000	00000013	addi	x0,x0,0	  x0:0x00000000
       77735000	      7772	80000260	00000013	addi	x0,x0,0	  x0:0x00000000
       77745000	      7773	80000264	008000ef	jal	x1,80000264	  x1=0x80000264
       77755000	      7774	00000000	00000013	addi	x0,x0,0	  x0:0x00000000
       77765000	      7775	80000268	00000013	addi	x0,x0,0	  x0:0x00000000
       77775000	      7776	8000026c	ff1ffb6f	jal	x22,8000026c	 x22=0x8000026c
       77785000	      7777	00000000	00000013	addi	x0,x0,0	  x0:0x00000000
       77795000	      7778	80000258	00000013	addi	x0,x0,0	  x0:0x00000000
       77805000	      7779	8000025c	fedff36f	jal	x6,8000025c	  x6=0x8000025c
       77815000	      7780	00000000	00000013	addi	x0,x0,0	  x0:0x00000000
       77825000	      7781	80000244	00000013	addi	x0,x0,0	  x0:0x00000000
       77835000	      7782	80000248	018000ef	jal	x1,80000248	  x1=0x80000248
       77845000	      7783	00000000	00000013	addi	x0,x0,0	  x0:0x00000000
       77855000	      7784	8000025c	00000013	addi	x0,x0,0	  x0:0x00000000
       77865000	      7785	80000260	fedff36f	jal	x6,80000260	  x6=0x80000260
       77875000	      7786	00000000	00000013	addi	x0,x0,0	  x0:0x00000000
       77885000	      7787	80000248	00000013	addi	x0,x0,0	  x0:0x00000000
       77895000	      7788	8000024c	03000def	jal	x27,8000024c	 x27=0x8000024c
       77905000	      7789	00000000	00000013	addi	x0,x0,0	  x0:0x00000000
       77915000	      7790	80000278	00000013	addi	x0,x0,0	  x0:0x00000000
       77925000	      7791	8000027c	fd9ff36f	jal	x6,8000027c	  x6=0x8000027c
       77935000	      7792	00000000	00000013	addi	x0,x0,0	  x0:0x00000000
       77945000	      7793	80000250	00000013	addi	x0,x0,0	  x0:0x00000000
       77955000	      7794	80000254	fe9ff0ef	jal	x1,80000254	  x1=0x80000254
       77965000	      7795	00000000	00000013	addi	x0,x0,0	  x0:0x00000000
       77975000	      7796	80000238	00000013	addi	x0,x0,0	  x0:0x00000000
       77985000	      7797	8000023c	03c00f6f	jal	x30,8000023c	 x30=0x8000023c
       77995000	      7798	00000000	00000013	addi	x0,x0,0	  x0:0x00000000
       78005000	      7799	80000274	00000013	addi	x0,x0,0	  x0:0x00000000
       78015000	      7800	80000278	00c00fef	jal	x31,80000278	 x31=0x80000278
       78025000	      7801	00000000	00000013	addi	x0,x0,0	  x0:0x00000000
       78035000	      7802	80000280	00000013	addi	x0,x0,0	  x0:0x00000000
       78045000	      7803	80000284	fedff0ef	jal	x1,80000284	  x1=0x80000284
       78055000	      7804	00000000	00000013	addi	x0,x0,0	  x0:0x00000000
       78065000	      7805	8000026c	00000013	addi	x0,x0,0	  x0:0x00000000
       78075000	      7806	80000270	fd1ff0ef	jal	x1,80000270	  x1=0x80000270
       78085000	      7807	00000000	00000013	addi	x0,x0,0	  x0:0x00000000
       78095000	      7808	8000023c	00000013	addi	x0,x0,0	  x0:0x00000000
       78105000	      7809	80000240	004000ef	jal	x1,80000240	  x1=0x80000240
       78115000	      7810	00000000	00000013	addi	x0,x0,0	  x0:0x00000000
       78125000	      7811	80000240	00000013	addi	x0,x0,0	  x0:0x00000000
       78135000	      7812	80000244	05c0036f	jal	x6,80000244	  x6=0x80000244
       78145000	      7813	00000000	00000013	addi	x0,x0,0	  x0:0x00000000
       78155000	      7814	8000029c	00000013	addi	x0,x0,0	  x0:0x00000000
       78165000	      7815	800002a0	40c1d9b3	sra	x19,x3,x12	  x3:0x80000288 x12:0x80000214 x19=0xfffff800
       78175000	      7816	800002a4	01c000ef	jal	x1,800002a4	  x1=0x800002a4
       78185000	      7817	00000000	00000013	addi	x0,x0,0	  x0:0x00000000
       78195000	      7818	800002bc	00000013	addi	x0,x0,0	  x0:0x00000000
       78205000	      7819	800002c0	01c0036f	jal	x6,800002c0	  x6=0x800002c0
       78215000	      7820	00000000	00000013	addi	x0,x0,0	  x0:0x00000000
       78225000	      7821	800002d8	00000013	addi	x0,x0,0	  x0:0x00000000
       78235000	      7822	800002dc	fd5ff0ef	jal	x1,800002dc	  x1=0x800002dc
       78245000	      7823	00000000	00000013	addi	x0,x0,0	  x0:0x00000000
       78255000	      7824	800002ac	00000013	addi	x0,x0,0	  x0:0x00000000
       78265000	      7825	800002b0	014000ef	jal	x1,800002b0	  x1=0x800002b0
       78275000	      7826	00000000	00000013	addi	x0,x0,0	  x0:0x00000000
       78285000	      7827	800002c0	00000013	addi	x0,x0,0	  x0:0x00000000
       78295000	      7828	800002c4	008000ef	jal	x1,800002c4	  x1=0x800002c4
       78305000	      7829	00000000	00000013	addi	x0,x0,0	  x0:0x00000000
       78315000	      7830	800002c8	00000013	addi	x0,x0,0	  x0:0x00000000
       78325000	      7831	800002cc	00c006ef	jal	x13,800002cc	 x13=0x800002cc
       78335000	      7832	00000000	00000013	addi	x0,x0,0	  x0:0x00000000
       78345000	      7833	800002d4	00000013	addi	x0,x0,0	  x0:0x00000000
       78355000	      7834	800002d8	fd5ff86f	jal	x16,800002d8	 x16=0x800002d8
       78365000	      7835	00000000	00000013	addi	x0,x0,0	  x0:0x00000000
       78375000	      7836	800002a8	00000013	addi	x0,x0,0	  x0:0x00000000
       78385000	      7837	800002ac	008004ef	jal	x9,800002ac	  x9=0x800002ac
       78395000	      7838	00000000	00000013	addi	x0,x0,0	  x0:0x00000000
       78405000	      7839	800002b0	00000013	addi	x0,x0,0	  x0:0x00000000
       78415000	      7840	800002b4	02c00def	jal	x27,800002b4	 x27=0x800002b4
       78425000	      7841	00000000	00000013	addi	x0,x0,0	  x0:0x00000000
       78435000	      7842	800002dc	00000013	addi	x0,x0,0	  x0:0x00000000
       78445000	      7843	800002e0	fe9ff6ef	jal	x13,800002e0	 x13=0x800002e0
       78455000	      7844	00000000	00000013	addi	x0,x0,0	  x0:0x00000000
       78465000	      7845	800002c4	00000013	addi	x0,x0,0	  x0:0x00000000
       78475000	      7846	800002c8	00c0036f	jal	x6,800002c8	  x6=0x800002c8
       78485000	      7847	00000000	00000013	addi	x0,x0,0	  x0:0x00000000
       78495000	      7848	800002d0	00000013	addi	x0,x0,0	  x0:0x00000000
       78505000	      7849	800002d4	ffdff0ef	jal	x1,800002d4	  x1=0x800002d4
       78515000	      7850	00000000	00000013	addi	x0,x0,0	  x0:0x00000000
       78525000	      7851	800002cc	00000013	addi	x0,x0,0	  x0:0x00000000
       78535000	      7852	800002d0	fedff0ef	jal	x1,800002d0	  x1=0x800002d0
       78545000	      7853	00000000	00000013	addi	x0,x0,0	  x0:0x00000000
       78555000	      7854	800002b8	00000013	addi	x0,x0,0	  x0:0x00000000
       78565000	      7855	800002bc	fedff0ef	jal	x1,800002bc	  x1=0x800002bc
       78575000	      7856	00000000	00000013	addi	x0,x0,0	  x0:0x00000000
       78585000	      7857	800002a4	00000013	addi	x0,x0,0	  x0:0x00000000
       78595000	      7858	800002a8	010000ef	jal	x1,800002a8	  x1=0x800002a8
       78605000	      7859	00000000	00000013	addi	x0,x0,0	  x0:0x00000000
       78615000	      7860	800002b4	00000013	addi	x0,x0,0	  x0:0x00000000
       78625000	      7861	800002b8	02c0036f	jal	x6,800002b8	  x6=0x800002b8
       78635000	      7862	00000000	00000013	addi	x0,x0,0	  x0:0x00000000
       78645000	      7863	800002e0	00000013	addi	x0,x0,0	  x0:0x00000000
       78655000	      7864	800002e4	004000ef	jal	x1,800002e4	  x1=0x800002e4
       78665000	      7865	00000000	00000013	addi	x0,x0,0	  x0:0x00000000
       78675000	      7866	800002e4	00000013	addi	x0,x0,0	  x0:0x00000000
       78685000	      7867	800002e8	40f250b3	sra	x1,x4,x15	  x4:0x800001d8 x15:0x407e3000  x1=0x800001d8
       78695000	      7868	800002ec	01db36b3	sltu	x13,x22,x29	 x22:0x8000026c x29:0x7fffe5db x13=0x00000000
       78705000	      7869	800002f0	40985f13	srai	x30,x16,0x9	 x16:0x800002d8 x30=0xffc00001
       78715000	      7870	800002f4	01aeca33	xor	x20,x29,x26	 x29:0x7fffe5db x26:0x80000258 x20=0xffffe783
       78725000	      7871	800002f8	018d1913	slli	x18,x26,0x18	 x26:0x80000258 x18=0x58000000
       78735000	      7872	800002fc	00001fb3	sll	x31,x0,x0	  x0:0x00000000  x0:0x00000000 x31=0x00000000
       78745000	      7873	80000300	c7efe017	auipc	x0,0xc7efe	
       78755000	      7874	80000304	0024d413	srli	x8,x9,0x2	  x9:0x800002ac  x8=0x200000ab
       78765000	      7875	80000308	009ad513	srli	x10,x21,0x9	 x21:0xe250d000 x10=0x00712868
       78775000	      7876	8000030c	ef103e13	sltiu	x28,x0,-271	  x0:0x00000000 x28=0x00000001
       78785000	      7877	80000310	007fa4b3	slt	x9,x31,x7	 x31:0x00000000  x7:0xad0ec7cc  x9=0x00000000
       78795000	      7878	80000314	676e0993	addi	x19,x28,1654	 x28:0x00000001 x19=0x00000677
       78805000	      7879	80000318	1c67c213	xori	x4,x15,454	 x15:0x407e3000  x4=0x407e31c6
       78815000	      7880	8000031c	324b7f93	andi	x31,x22,804	 x22:0x8000026c x31=0x00000224
       78825000	      7881	80000320	02ff4e63	blt	x30,x15,8000035c	 x30:0xffc00001 x15:0x407e3000
       78835000	      7882	00000000	00000013	addi	x0,x0,0	  x0:0x00000000
       78845000	      7883	80000358	00000013	addi	x0,x0,0	  x0:0x00000000
       78855000	      7884	8000035c	019de663	bltu	x27,x25,80000368	 x27:0x800002b4 x25:0x8000016c
       78865000	      7885	80000360	00857a33	and	x20,x10,x8	 x10:0x00712868  x8:0x200000ab x20=0x00000028
       78875000	      7886	80000364	00000013	addi	x0,x0,0	  x0:0x00000000
       78885000	      7887	80000368	0536d063	bge	x13,x19,800003a8	 x13:0x00000000 x19:0x00000677
       78895000	      7888	8000036c	3b19cd93	xori	x27,x19,945	 x19:0x00000677 x27=0x000005c6
       78905000	      7889	80000370	001730b3	sltu	x1,x14,x1	 x14:0x00000004  x1:0x800001d8  x1=0x00000001
       78915000	      7890	80000374	01eade93	srli	x29,x21,0x1e	 x21:0xe250d000 x29=0x00000003
       78925000	      7891	80000378	01578933	add	x18,x15,x21	 x15:0x407e3000 x21:0xe250d000 x18=0x22cf0000
       78935000	      7892	8000037c	02217c63	bgeu	x2,x2,800003b4	  x2:0x80000184  x2:0x80000184
       78945000	      7893	00000000	00000013	addi	x0,x0,0	  x0:0x00000000
       78955000	      7894	800003b0	00000013	addi	x0,x0,0	  x0:0x00000000
       78965000	      7895	800003b4	f20b8337	lui	x6,0xf20b8	  x6=0xf20b8000
       78975000	      7896	800003b8	00951813	slli	x16,x10,0x9	 x10:0x00712868 x16=0xe250d000
       78985000	      7897	800003bc	01999093	slli	x1,x19,0x19	 x19:0x00000677  x1=0xee000000
       78995000	      7898	800003c0	01721793	slli	x15,x4,0x17	  x4:0x407e31c6 x15=0xe3000000
       79005000	      7899	800003c4	04ee8663	beq	x29,x14,80000410	 x29:0x00000003 x14:0x00000004
       79015000	      7900	800003c8	25238393	addi	x7,x7,594	  x7:0xad0ec7cc  x7=0xad0eca1e
       79025000	      7901	800003cc	cf77e013	ori	x0,x15,-777	 x15:0xe3000000
       79035000	      7902	800003d0	02a60a63	beq	x12,x10,80000404	 x12:0x80000214 x10:0x00712868
       79045000	      7903	800003d4	05936263	bltu	x6,x25,80000418	  x6:0xf20b8000 x25:0x8000016c
       79055000	      7904	800003d8	4119d133	sra	x2,x19,x17	 x19:0x00000677 x17:0x80009fc4  x2=0x00000067
       79065000	      7905	800003dc	40a90333	sub	x6,x18,x10	 x18:0x22cf0000 x10:0x00712868  x6=0x225dd798
       79075000	      7906	800003e0	02daf663	bgeu	x21,x13,8000040c	 x21:0xe250d000 x13:0x00000000
       79085000	      7907	00000000	00000013	addi	x0,x0,0	  x0:0x00000000
       79095000	      7908	80000408	00000013	addi	x0,x0,0	  x0:0x00000000
       79105000	      7909	8000040c	01eed633	srl	x12,x29,x30	 x29:0x00000003 x30:0xffc00001 x12=0x00000001
       79115000	      7910	80000410	000f31b3	sltu	x3,x30,x0	 x30:0xffc00001  x0:0x00000000  x3=0x00000000
       79125000	      7911	80000414	002604b3	add	x9,x12,x2	 x12:0x00000001  x2:0x00000067  x9=0x00000068
       79135000	      7912	80000418	01985533	srl	x10,x16,x25	 x16:0xe250d000 x25:0x8000016c x10=0x000e250d
       79145000	      7913	8000041c	9adf0293	addi	x5,x30,-1619	 x30:0xffc00001  x5=0xffbff9ae
       79155000	      7914	80000420	407b5013	srai	x0,x22,0x7	 x22:0x8000026c
       79165000	      7915	80000424	41a6d113	srai	x2,x13,0x1a	 x13:0x00000000  x2=0x00000000
       79175000	      7916	80000428	00bb5ab3	srl	x21,x22,x11	 x22:0x8000026c x11:0x80004484 x21=0x08000026
       79185000	      7917	8000042c	e1deeb13	ori	x22,x29,-483	 x29:0x00000003 x22=0xfffffe1f
       79195000	      7918	80000430	01c614b3	sll	x9,x12,x28	 x12:0x00000001 x28:0x00000001  x9=0x00000002
       79205000	      7919	80000434	01fa0533	add	x10,x20,x31	 x20:0x00000028 x31:0x00000224 x10=0x0000024c
       79215000	      7920	80000438	01ea6cb3	or	x25,x20,x30	 x20:0x00000028 x30:0xffc00001 x25=0xffc00029
       79225000	      7921	8000043c	01e8c9b3	xor	x19,x17,x30	 x17:0x80009fc4 x30:0xffc00001 x19=0x7fc09fc5
       79235000	      7922	80000440	004d1a63	bne	x26,x4,80000454	 x26:0x80000258  x4:0x407e31c6
       79245000	      7923	00000000	00000013	addi	x0,x0,0	  x0:0x00000000
       79255000	      7924	80000450	00000013	addi	x0,x0,0	  x0:0x00000000
       79265000	      7925	80000454	41f30eb3	sub	x29,x6,x31	  x6:0x225dd798 x31:0x00000224 x29=0x225dd574
       79275000	      7926	80000458	41e78ab3	sub	x21,x15,x30	 x15:0xe3000000 x30:0xffc00001 x21=0xe33fffff
       79285000	      7927	8000045c	72a67993	andi	x19,x12,1834	 x12:0x00000001 x19=0x00000000
       79295000	      7928	80000460	9348c593	xori	x11,x17,-1740	 x17:0x80009fc4 x11=0x7fff66f0
       79305000	      7929	80000464	05900263	beq	x0,x25,800004a8	  x0:0x00000000 x25:0xffc00029
       79315000	      7930	80000468	001e47b3	xor	x15,x28,x1	 x28:0x00000001  x1:0xee000000 x15=0xee000001
       79325000	      7931	8000046c	00e71033	sll	x0,x14,x14	 x14:0x00000004 x14:0x00000004
       79335000	      7932	80000470	41a4da33	sra	x20,x9,x26	  x9:0x00000002 x26:0x80000258 x20=0x00000000
       79345000	      7933	80000474	e3e9c013	xori	x0,x19,-450	 x19:0x00000000
       79355000	      7934	80000478	00f996b3	sll	x13,x19,x15	 x19:0x00000000 x15:0xee000001 x13=0x00000000
       79365000	      7935	8000047c	3fae4537	lui	x10,0x3fae4	 x10=0x3fae4000
       79375000	      7936	80000480	cb9b7a93	andi	x21,x22,-839	 x22:0xfffffe1f x21=0xfffffc19
       79385000	      7937	80000484	40720033	sub	x0,x4,x7	  x4:0x407e31c6  x7:0xad0eca1e
       79395000	      7938	80000488	00000013	addi	x0,x0,0	  x0:0x00000000
       79405000	      7939	8000048c	03a64063	blt	x12,x26,800004ac	 x12:0x00000001 x26:0x80000258
       79415000	      7940	80000490	00535c93	srli	x25,x6,0x5	  x6:0x225dd798 x25=0x0112eebc
       79425000	      7941	80000494	2c4f2c13	slti	x24,x30,708	 x30:0xffc00001 x24=0x00000001
       79435000	      7942	80000498	042f6063	bltu	x30,x2,800004d8	 x30:0xffc00001  x2:0x00000000
       79445000	      7943	8000049c	758d3993	sltiu	x19,x26,1880	 x26:0x80000258 x19=0x00000000
       79455000	      7944	800004a0	7c16af37	lui	x30,0x7c16a	 x30=0x7c16a000
       79465000	      7945	800004a4	00eee833	or	x16,x29,x14	 x29:0x225dd574 x14:0x00000004 x16=0x225dd574
       79475000	      7946	800004a8	005ac9b3	xor	x19,x21,x5	 x21:0xfffffc19  x5:0xffbff9ae x19=0x004005b7
       79485000	      7947	800004ac	00966ab3	or	x21,x12,x9	 x12:0x00000001  x9:0x00000002 x21=0x00000003
       79495000	      7948	800004b0	0034da93	srli	x21,x9,0x3	  x9:0x00000002 x21=0x00000000
       79505000	      7949	800004b4	83d4d037	lui	x0,0x83d4d	
       79515000	      7950	800004b8	b4a4ea93	ori	x21,x9,-1206	  x9:0x00000002 x21=0xfffffb4a
       79525000	      7951	800004bc	5faabc13	sltiu	x24,x21,1530	 x21:0xfffffb4a x24=0x00000000
       79535000	      7952	800004c0	9331b593	sltiu	x11,x3,-1741	  x3:0x00000000 x11=0x00000001
       79545000	      7953	800004c4	a871c213	xori	x4,x3,-1401	  x3:0x00000000  x4=0xfffffa87
       79555000	      7954	800004c8	89658c93	addi	x25,x11,-1898	 x11:0x00000001 x25=0xfffff897
       79565000	      7955	800004cc	03742e13	slti	x28,x8,55	  x8:0x200000ab x28=0x00000000
       79575000	      7956	800004d0	05db8863	beq	x23,x29,80000520	 x23:0x80009f84 x29:0x225dd574
       79585000	      7957	800004d4	02c89063	bne	x17,x12,800004f4	 x17:0x80009fc4 x12:0x00000001
       79595000	      7958	00000000	00000013	addi	x0,x0,0	  x0:0x00000000
       79605000	      7959	800004f0	00000013	addi	x0,x0,0	  x0:0x00000000
       79615000	      7960	800004f4	ca45f413	andi	x8,x11,-860	 x11:0x00000001  x8=0x00000000
       79625000	      7961	800004f8	01617463	bgeu	x2,x22,80000500	  x2:0x00000000 x22:0xfffffe1f
       79635000	      7962	800004fc	78086513	ori	x10,x16,1920	 x16:0x225dd574 x10=0x225dd7f4
       79645000	      7963	80000500	f817a993	slti	x19,x15,-127	 x15:0xee000001 x19=0x00000001
       79655000	      7964	80000504	025a6463	bltu	x20,x5,8000052c	 x20:0x00000000  x5:0xffbff9ae
       79665000	      7965	00000000	00000013	addi	x0,x0,0	  x0:0x00000000
       79675000	      7966	80000528	00000013	addi	x0,x0,0	  x0:0x00000000
       79685000	      7967	8000052c	00000013	addi	x0,x0,0	  x0:0x00000000
       79695000	      7968	80000530	01c25033	srl	x0,x4,x28	  x4:0xfffffa87 x28:0x00000000
       79705000	      7969	80000534	0151f663	bgeu	x3,x21,80000540	  x3:0x00000000 x21:0xfffffb4a
       79715000	      7970	80000538	002c1813	slli	x16,x24,0x2	 x24:0x00000000 x16=0x00000000
       79725000	      7971	8000053c	01651113	slli	x2,x10,0x16	 x10:0x225dd7f4  x2=0xfd000000
       79735000	      7972	80000540	01450a33	add	x20,x10,x20	 x10:0x225dd7f4 x20:0x00000000 x20=0x225dd7f4
       79745000	      7973	80000544	c364ce13	xori	x28,x9,-970	  x9:0x00000002 x28=0xfffffc34
       79755000	      7974	80000548	01a43ab3	sltu	x21,x8,x26	  x8:0x00000000 x26:0x80000258 x21=0x00000001
       79765000	      7975	8000054c	0093f863	bgeu	x7,x9,8000055c	  x7:0xad0eca1e  x9:0x00000002
       79775000	      7976	00000000	00000013	addi	x0,x0,0	  x0:0x00000000
       79785000	      7977	80000558	00000013	addi	x0,x0,0	  x0:0x00000000
       79795000	      7978	8000055c	07ab4a63	blt	x22,x26,800005d0	 x22:0xfffffe1f x26:0x80000258
       79805000	      7979	80000560	0076e2b3	or	x5,x13,x7	 x13:0x00000000  x7:0xad0eca1e  x5=0xad0eca1e
       79815000	      7980	80000564	9a86fab7	lui	x21,0x9a86f	 x21=0x9a86f000
       79825000	      7981	80000568	014a5333	srl	x6,x20,x20	 x20:0x225dd7f4 x20:0x225dd7f4  x6=0x00000225
       79835000	      7982	8000056c	01ed3c33	sltu	x24,x26,x30	 x26:0x80000258 x30:0x7c16a000 x24=0x00000000
       79845000	      7983	80000570	004ad193	srli	x3,x21,0x4	 x21:0x9a86f000  x3=0x09a86f00
       79855000	      7984	80000574	40c4d213	srai	x4,x9,0xc	  x9:0x00000002  x4=0x00000000
       79865000	      7985	80000578	f9a1a193	slti	x3,x3,-102	  x3:0x09a86f00  x3=0x00000000
       79875000	      7986	8000057c	00000697	auipc	x13,0x0	 x13=0x80000578
       79885000	      7987	80000580	17c68693	addi	x13,x13,380	 x13:0x80000578 x13=0x800006f4
       79895000	      7988	80000584	00a499b3	sll	x19,x9,x10	  x9:0x00000002 x10:0x225dd7f4 x19=0x00200000
       79905000	      7989	80000588	00392633	slt	x12,x18,x3	 x18:0x22cf0000  x3:0x00000000 x12=0x00000000
       79915000	      7990	8000058c	94a30213	addi	x4,x6,-1718	  x6:0x00000225  x4=0xfffffb6f
       79925000	      7991	80000590	db268693	addi	x13,x13,-590	 x13:0x800006f4 x13=0x800004a6
       79935000	      7992	80000594	01769a13	slli	x20,x13,0x17	 x13:0x800004a6 x20=0x53000000
       79945000	      7993	80000598	004d9eb3	sll	x29,x27,x4	 x27:0x000005c6  x4:0xfffffb6f x29=0x02e30000
       79955000	      7994	8000059c	24f680e7	jalr	x1,x13,591	 x13:0x800004a6  x1=0x8000059c
       79965000	      7995	00000000	00000013	addi	x0,x0,0	  x0:0x00000000
       79975000	      7996	800006f4	00000013	addi	x0,x0,0	  x0:0x00000000
       79985000	      7997	800006f8	132a2513	slti	x10,x20,306	 x20:0x53000000 x10=0x00000000
       79995000	      7998	800006fc	fe0b8b93	addi	x23,x23,-32	 x23:0x80009f84 x23=0x80009f64
       80005000	      7999	80000700	eb66aa93	slti	x21,x13,-330	 x13:0x800004a6 x21=0x00000001
       80015000	      8000	80000704	001ba223	sw	x1,4(x23)	 x23:0x80009f64  x1:0x8000059c PA:0x80009f68
       80025000	      8001	80000708	416803b3	sub	x7,x16,x22	 x16:0x00000000 x22:0xfffffe1f  x7=0x000001e1
       80035000	      8002	8000070c	020000ef	jal	x1,8000070c	  x1=0x8000070c
       80045000	      8003	00000000	00000013	addi	x0,x0,0	  x0:0x00000000
       80055000	      8004	80000728	00000013	addi	x0,x0,0	  x0:0x00000000
       80065000	      8005	8000072c	fe5ff0ef	jal	x1,8000072c	  x1=0x8000072c
       80075000	      8006	00000000	00000013	addi	x0,x0,0	  x0:0x00000000
       80085000	      8007	8000070c	00000013	addi	x0,x0,0	  x0:0x00000000
       80095000	      8008	80000710	018009ef	jal	x19,80000710	 x19=0x80000710
       80105000	      8009	00000000	00000013	addi	x0,x0,0	  x0:0x00000000
       80115000	      8010	80000724	00000013	addi	x0,x0,0	  x0:0x00000000
       80125000	      8011	80000728	ffdff46f	jal	x8,80000728	  x8=0x80000728
       80135000	      8012	00000000	00000013	addi	x0,x0,0	  x0:0x00000000
       80145000	      8013	80000720	00000013	addi	x0,x0,0	  x0:0x00000000
       80155000	      8014	80000724	ff1ff36f	jal	x6,80000724	  x6=0x80000724
       80165000	      8015	00000000	00000013	addi	x0,x0,0	  x0:0x00000000
       80175000	      8016	80000710	00000013	addi	x0,x0,0	  x0:0x00000000
       80185000	      8017	80000714	00c001ef	jal	x3,80000714	  x3=0x80000714
       80195000	      8018	00000000	00000013	addi	x0,x0,0	  x0:0x00000000
       80205000	      8019	8000071c	00000013	addi	x0,x0,0	  x0:0x00000000
       80215000	      8020	80000720	ffdff0ef	jal	x1,80000720	  x1=0x80000720
       80225000	      8021	00000000	00000013	addi	x0,x0,0	  x0:0x00000000
       80235000	      8022	80000718	00000013	addi	x0,x0,0	  x0:0x00000000
       80245000	      8023	8000071c	018000ef	jal	x1,8000071c	  x1=0x8000071c
       80255000	      8024	00000000	00000013	addi	x0,x0,0	  x0:0x00000000
       80265000	      8025	80000730	00000013	addi	x0,x0,0	  x0:0x00000000
       80275000	      8026	80000734	ffdff36f	jal	x6,80000734	  x6=0x80000734
       80285000	      8027	00000000	00000013	addi	x0,x0,0	  x0:0x00000000
       80295000	      8028	8000072c	00000013	addi	x0,x0,0	  x0:0x00000000
       80305000	      8029	80000730	fe9ff36f	jal	x6,80000730	  x6=0x80000730
       80315000	      8030	00000000	00000013	addi	x0,x0,0	  x0:0x00000000
       80325000	      8031	80000714	00000013	addi	x0,x0,0	  x0:0x00000000
       80335000	      8032	80000718	020000ef	jal	x1,80000718	  x1=0x80000718
       80345000	      8033	00000000	00000013	addi	x0,x0,0	  x0:0x00000000
       80355000	      8034	80000734	00000013	addi	x0,x0,0	  x0:0x00000000
       80365000	      8035	80000738	41cd5033	sra	x0,x26,x28	 x26:0x80000258 x28:0xfffffc34
       80375000	      8036	8000073c	020000ef	jal	x1,8000073c	  x1=0x8000073c
       80385000	      8037	00000000	00000013	addi	x0,x0,0	  x0:0x00000000
       80395000	      8038	80000758	00000013	addi	x0,x0,0	  x0:0x00000000
       80405000	      8039	8000075c	ff1ff2ef	jal	x5,8000075c	  x5=0x8000075c
       80415000	      8040	00000000	00000013	addi	x0,x0,0	  x0:0x00000000
       80425000	      8041	80000748	00000013	addi	x0,x0,0	  x0:0x00000000
       80435000	      8042	8000074c	004000ef	jal	x1,8000074c	  x1=0x8000074c
       80445000	      8043	00000000	00000013	addi	x0,x0,0	  x0:0x00000000
       80455000	      8044	8000074c	00000013	addi	x0,x0,0	  x0:0x00000000
       80465000	      8045	80000750	ff1ff0ef	jal	x1,80000750	  x1=0x80000750
       80475000	      8046	00000000	00000013	addi	x0,x0,0	  x0:0x00000000
       80485000	      8047	8000073c	00000013	addi	x0,x0,0	  x0:0x00000000
       80495000	      8048	80000740	0080036f	jal	x6,80000740	  x6=0x80000740
       80505000	      8049	00000000	00000013	addi	x0,x0,0	  x0:0x00000000
       80515000	      8050	80000744	00000013	addi	x0,x0,0	  x0:0x00000000
       80525000	      8051	80000748	0100016f	jal	x2,80000748	  x2=0x80000748
       80535000	      8052	00000000	00000013	addi	x0,x0,0	  x0:0x00000000
       80545000	      8053	80000754	00000013	addi	x0,x0,0	  x0:0x00000000
       80555000	      8054	80000758	008000ef	jal	x1,80000758	  x1=0x80000758
       80565000	      8055	00000000	00000013	addi	x0,x0,0	  x0:0x00000000
       80575000	      8056	8000075c	00000013	addi	x0,x0,0	  x0:0x00000000
       80585000	      8057	80000760	fe5ff66f	jal	x12,80000760	 x12=0x80000760
       80595000	      8058	00000000	00000013	addi	x0,x0,0	  x0:0x00000000
       80605000	      8059	80000740	00000013	addi	x0,x0,0	  x0:0x00000000
       80615000	      8060	80000744	0100026f	jal	x4,80000744	  x4=0x80000744
       80625000	      8061	00000000	00000013	addi	x0,x0,0	  x0:0x00000000
       80635000	      8062	80000750	00000013	addi	x0,x0,0	  x0:0x00000000
       80645000	      8063	80000754	010000ef	jal	x1,80000754	  x1=0x80000754
       80655000	      8064	00000000	00000013	addi	x0,x0,0	  x0:0x00000000
       80665000	      8065	80000760	00000013	addi	x0,x0,0	  x0:0x00000000
       80675000	      8066	80000764	004000ef	jal	x1,80000764	  x1=0x80000764
       80685000	      8067	00000000	00000013	addi	x0,x0,0	  x0:0x00000000
       80695000	      8068	80000764	00000013	addi	x0,x0,0	  x0:0x00000000
       80705000	      8069	80000768	32243493	sltiu	x9,x8,802	  x8:0x80000728  x9=0x00000000
       80715000	      8070	8000076c	054000ef	jal	x1,8000076c	  x1=0x8000076c
       80725000	      8071	00000000	00000013	addi	x0,x0,0	  x0:0x00000000
       80735000	      8072	800007bc	00000013	addi	x0,x0,0	  x0:0x00000000
       80745000	      8073	800007c0	fb1ff0ef	jal	x1,800007c0	  x1=0x800007c0
       80755000	      8074	00000000	00000013	addi	x0,x0,0	  x0:0x00000000
       80765000	      8075	8000076c	00000013	addi	x0,x0,0	  x0:0x00000000
       80775000	      8076	80000770	014000ef	jal	x1,80000770	  x1=0x80000770
       80785000	      8077	00000000	00000013	addi	x0,x0,0	  x0:0x00000000
       80795000	      8078	80000780	00000013	addi	x0,x0,0	  x0:0x00000000
       80805000	      8079	80000784	0400036f	jal	x6,80000784	  x6=0x80000784
       80815000	      8080	00000000	00000013	addi	x0,x0,0	  x0:0x00000000
       80825000	      8081	800007c0	00000013	addi	x0,x0,0	  x0:0x00000000
       80835000	      8082	800007c4	ff5ff0ef	jal	x1,800007c4	  x1=0x800007c4
       80845000	      8083	00000000	00000013	addi	x0,x0,0	  x0:0x00000000
       80855000	      8084	800007b4	00000013	addi	x0,x0,0	  x0:0x00000000
       80865000	      8085	800007b8	fc5ff36f	jal	x6,800007b8	  x6=0x800007b8
       80875000	      8086	00000000	00000013	addi	x0,x0,0	  x0:0x00000000
       80885000	      8087	80000778	00000013	addi	x0,x0,0	  x0:0x00000000
       80895000	      8088	8000077c	014006ef	jal	x13,8000077c	 x13=0x8000077c
       80905000	      8089	00000000	00000013	addi	x0,x0,0	  x0:0x00000000
       80915000	      8090	8000078c	00000013	addi	x0,x0,0	  x0:0x00000000
       80925000	      8091	80000790	ff9ffdef	jal	x27,80000790	 x27=0x80000790
       80935000	      8092	00000000	00000013	addi	x0,x0,0	  x0:0x00000000
       80945000	      8093	80000784	00000013	addi	x0,x0,0	  x0:0x00000000
       80955000	      8094	80000788	028000ef	jal	x1,80000788	  x1=0x80000788
       80965000	      8095	00000000	00000013	addi	x0,x0,0	  x0:0x00000000
       80975000	      8096	800007ac	00000013	addi	x0,x0,0	  x0:0x00000000
       80985000	      8097	800007b0	00c0036f	jal	x6,800007b0	  x6=0x800007b0
       80995000	      8098	00000000	00000013	addi	x0,x0,0	  x0:0x00000000
       81005000	      8099	800007b8	00000013	addi	x0,x0,0	  x0:0x00000000
       81015000	      8100	800007bc	fc5ff0ef	jal	x1,800007bc	  x1=0x800007bc
       81025000	      8101	00000000	00000013	addi	x0,x0,0	  x0:0x00000000
       81035000	      8102	8000077c	00000013	addi	x0,x0,0	  x0:0x00000000
       81045000	      8103	80000780	ff9ff36f	jal	x6,80000780	  x6=0x80000780
       81055000	      8104	00000000	00000013	addi	x0,x0,0	  x0:0x00000000
       81065000	      8105	80000774	00000013	addi	x0,x0,0	  x0:0x00000000
       81075000	      8106	80000778	0240036f	jal	x6,80000778	  x6=0x80000778
       81085000	      8107	00000000	00000013	addi	x0,x0,0	  x0:0x00000000
       81095000	      8108	80000798	00000013	addi	x0,x0,0	  x0:0x00000000
       81105000	      8109	8000079c	ff9ff0ef	jal	x1,8000079c	  x1=0x8000079c
       81115000	      8110	00000000	00000013	addi	x0,x0,0	  x0:0x00000000
       81125000	      8111	80000790	00000013	addi	x0,x0,0	  x0:0x00000000
       81135000	      8112	80000794	00c00aef	jal	x21,80000794	 x21=0x80000794
       81145000	      8113	00000000	00000013	addi	x0,x0,0	  x0:0x00000000
       81155000	      8114	8000079c	00000013	addi	x0,x0,0	  x0:0x00000000
       81165000	      8115	800007a0	00c007ef	jal	x15,800007a0	 x15=0x800007a0
       81175000	      8116	00000000	00000013	addi	x0,x0,0	  x0:0x00000000
       81185000	      8117	800007a8	00000013	addi	x0,x0,0	  x0:0x00000000
       81195000	      8118	800007ac	01c0016f	jal	x2,800007ac	  x2=0x800007ac
       81205000	      8119	00000000	00000013	addi	x0,x0,0	  x0:0x00000000
       81215000	      8120	800007c4	00000013	addi	x0,x0,0	  x0:0x00000000
       81225000	      8121	800007c8	fedff36f	jal	x6,800007c8	  x6=0x800007c8
       81235000	      8122	00000000	00000013	addi	x0,x0,0	  x0:0x00000000
       81245000	      8123	800007b0	00000013	addi	x0,x0,0	  x0:0x00000000
       81255000	      8124	800007b4	ff5ff0ef	jal	x1,800007b4	  x1=0x800007b4
       81265000	      8125	00000000	00000013	addi	x0,x0,0	  x0:0x00000000
       81275000	      8126	800007a4	00000013	addi	x0,x0,0	  x0:0x00000000
       81285000	      8127	800007a8	0240036f	jal	x6,800007a8	  x6=0x800007a8
       81295000	      8128	00000000	00000013	addi	x0,x0,0	  x0:0x00000000
       81305000	      8129	800007c8	00000013	addi	x0,x0,0	  x0:0x00000000
       81315000	      8130	800007cc	fa9ff36f	jal	x6,800007cc	  x6=0x800007cc
       81325000	      8131	00000000	00000013	addi	x0,x0,0	  x0:0x00000000
       81335000	      8132	80000770	00000013	addi	x0,x0,0	  x0:0x00000000
       81345000	      8133	80000774	018001ef	jal	x3,80000774	  x3=0x80000774
       81355000	      8134	00000000	00000013	addi	x0,x0,0	  x0:0x00000000
       81365000	      8135	80000788	00000013	addi	x0,x0,0	  x0:0x00000000
       81375000	      8136	8000078c	0180036f	jal	x6,8000078c	  x6=0x8000078c
       81385000	      8137	00000000	00000013	addi	x0,x0,0	  x0:0x00000000
       81395000	      8138	800007a0	00000013	addi	x0,x0,0	  x0:0x00000000
       81405000	      8139	800007a4	ff5ff0ef	jal	x1,800007a4	  x1=0x800007a4
       81415000	      8140	00000000	00000013	addi	x0,x0,0	  x0:0x00000000
       81425000	      8141	80000794	00000013	addi	x0,x0,0	  x0:0x00000000
       81435000	      8142	80000798	0380036f	jal	x6,80000798	  x6=0x80000798
       81445000	      8143	00000000	00000013	addi	x0,x0,0	  x0:0x00000000
       81455000	      8144	800007cc	00000013	addi	x0,x0,0	  x0:0x00000000
       81465000	      8145	800007d0	0707f513	andi	x10,x15,112	 x15:0x800007a0 x10=0x00000020
       81475000	      8146	800007d4	028000ef	jal	x1,800007d4	  x1=0x800007d4
       81485000	      8147	00000000	00000013	addi	x0,x0,0	  x0:0x00000000
       81495000	      8148	800007f8	00000013	addi	x0,x0,0	  x0:0x00000000
       81505000	      8149	800007fc	024000ef	jal	x1,800007fc	  x1=0x800007fc
       81515000	      8150	00000000	00000013	addi	x0,x0,0	  x0:0x00000000
       81525000	      8151	8000081c	00000013	addi	x0,x0,0	  x0:0x00000000
       81535000	      8152	80000820	fedff1ef	jal	x3,80000820	  x3=0x80000820
       81545000	      8153	00000000	00000013	addi	x0,x0,0	  x0:0x00000000
       81555000	      8154	80000808	00000013	addi	x0,x0,0	  x0:0x00000000
       81565000	      8155	8000080c	fe1ff0ef	jal	x1,8000080c	  x1=0x8000080c
       81575000	      8156	00000000	00000013	addi	x0,x0,0	  x0:0x00000000
       81585000	      8157	800007e8	00000013	addi	x0,x0,0	  x0:0x00000000
       81595000	      8158	800007ec	01c000ef	jal	x1,800007ec	  x1=0x800007ec
       81605000	      8159	00000000	00000013	addi	x0,x0,0	  x0:0x00000000
       81615000	      8160	80000804	00000013	addi	x0,x0,0	  x0:0x00000000
       81625000	      8161	80000808	00c000ef	jal	x1,80000808	  x1=0x80000808
       81635000	      8162	00000000	00000013	addi	x0,x0,0	  x0:0x00000000
       81645000	      8163	80000810	00000013	addi	x0,x0,0	  x0:0x00000000
       81655000	      8164	80000814	ffdff0ef	jal	x1,80000814	  x1=0x80000814
       81665000	      8165	00000000	00000013	addi	x0,x0,0	  x0:0x00000000
       81675000	      8166	8000080c	00000013	addi	x0,x0,0	  x0:0x00000000
       81685000	      8167	80000810	0080066f	jal	x12,80000810	 x12=0x80000810
       81695000	      8168	00000000	00000013	addi	x0,x0,0	  x0:0x00000000
       81705000	      8169	80000814	00000013	addi	x0,x0,0	  x0:0x00000000
       81715000	      8170	80000818	fedffeef	jal	x29,80000818	 x29=0x80000818
       81725000	      8171	00000000	00000013	addi	x0,x0,0	  x0:0x00000000
       81735000	      8172	80000800	00000013	addi	x0,x0,0	  x0:0x00000000
       81745000	      8173	80000804	ffdff36f	jal	x6,80000804	  x6=0x80000804
       81755000	      8174	00000000	00000013	addi	x0,x0,0	  x0:0x00000000
       81765000	      8175	800007fc	00000013	addi	x0,x0,0	  x0:0x00000000
       81775000	      8176	80000800	fe9ff16f	jal	x2,80000800	  x2=0x80000800
       81785000	      8177	00000000	00000013	addi	x0,x0,0	  x0:0x00000000
       81795000	      8178	800007e4	00000013	addi	x0,x0,0	  x0:0x00000000
       81805000	      8179	800007e8	0480066f	jal	x12,800007e8	 x12=0x800007e8
       81815000	      8180	00000000	00000013	addi	x0,x0,0	  x0:0x00000000
       81825000	      8181	8000082c	00000013	addi	x0,x0,0	  x0:0x00000000
       81835000	      8182	80000830	fa9ff0ef	jal	x1,80000830	  x1=0x80000830
       81845000	      8183	00000000	00000013	addi	x0,x0,0	  x0:0x00000000
       81855000	      8184	800007d4	00000013	addi	x0,x0,0	  x0:0x00000000
       81865000	      8185	800007d8	018000ef	jal	x1,800007d8	  x1=0x800007d8
       81875000	      8186	00000000	00000013	addi	x0,x0,0	  x0:0x00000000
       81885000	      8187	800007ec	00000013	addi	x0,x0,0	  x0:0x00000000
       81895000	      8188	800007f0	0040036f	jal	x6,800007f0	  x6=0x800007f0
       81905000	      8189	00000000	00000013	addi	x0,x0,0	  x0:0x00000000
       81915000	      8190	800007f0	00000013	addi	x0,x0,0	  x0:0x00000000
       81925000	      8191	800007f4	fe9ff0ef	jal	x1,800007f4	  x1=0x800007f4
       81935000	      8192	00000000	00000013	addi	x0,x0,0	  x0:0x00000000
       81945000	      8193	800007d8	00000013	addi	x0,x0,0	  x0:0x00000000
       81955000	      8194	800007dc	008005ef	jal	x11,800007dc	 x11=0x800007dc
       81965000	      8195	00000000	00000013	addi	x0,x0,0	  x0:0x00000000
       81975000	      8196	800007e0	00000013	addi	x0,x0,0	  x0:0x00000000
       81985000	      8197	800007e4	0440036f	jal	x6,800007e4	  x6=0x800007e4
       81995000	      8198	00000000	00000013	addi	x0,x0,0	  x0:0x00000000
       82005000	      8199	80000824	00000013	addi	x0,x0,0	  x0:0x00000000
       82015000	      8200	80000828	0040046f	jal	x8,80000828	  x8=0x80000828
       82025000	      8201	00000000	00000013	addi	x0,x0,0	  x0:0x00000000
       82035000	      8202	80000828	00000013	addi	x0,x0,0	  x0:0x00000000
       82045000	      8203	8000082c	ff1ff0ef	jal	x1,8000082c	  x1=0x8000082c
       82055000	      8204	00000000	00000013	addi	x0,x0,0	  x0:0x00000000
       82065000	      8205	80000818	00000013	addi	x0,x0,0	  x0:0x00000000
       82075000	      8206	8000081c	0080036f	jal	x6,8000081c	  x6=0x8000081c
       82085000	      8207	00000000	00000013	addi	x0,x0,0	  x0:0x00000000
       82095000	      8208	80000820	00000013	addi	x0,x0,0	  x0:0x00000000
       82105000	      8209	80000824	fd5ff0ef	jal	x1,80000824	  x1=0x80000824
       82115000	      8210	00000000	00000013	addi	x0,x0,0	  x0:0x00000000
       82125000	      8211	800007f4	00000013	addi	x0,x0,0	  x0:0x00000000
       82135000	      8212	800007f8	fe9ff0ef	jal	x1,800007f8	  x1=0x800007f8
       82145000	      8213	00000000	00000013	addi	x0,x0,0	  x0:0x00000000
       82155000	      8214	800007dc	00000013	addi	x0,x0,0	  x0:0x00000000
       82165000	      8215	800007e0	054000ef	jal	x1,800007e0	  x1=0x800007e0
       82175000	      8216	00000000	00000013	addi	x0,x0,0	  x0:0x00000000
       82185000	      8217	80000830	00000013	addi	x0,x0,0	  x0:0x00000000
       82195000	      8218	80000834	004000ef	jal	x1,80000834	  x1=0x80000834
       82205000	      8219	00000000	00000013	addi	x0,x0,0	  x0:0x00000000
       82215000	      8220	80000834	00000013	addi	x0,x0,0	  x0:0x00000000
       82225000	      8221	80000838	b9cecd17	auipc	x26,0xb9cec	 x26=0x39cec834
       82235000	      8222	8000083c	040000ef	jal	x1,8000083c	  x1=0x8000083c
       82245000	      8223	00000000	00000013	addi	x0,x0,0	  x0:0x00000000
       82255000	      8224	80000878	00000013	addi	x0,x0,0	  x0:0x00000000
       82265000	      8225	8000087c	fe9ff0ef	jal	x1,8000087c	  x1=0x8000087c
       82275000	      8226	00000000	00000013	addi	x0,x0,0	  x0:0x00000000
       82285000	      8227	80000860	00000013	addi	x0,x0,0	  x0:0x00000000
       82295000	      8228	80000864	0340036f	jal	x6,80000864	  x6=0x80000864
       82305000	      8229	00000000	00000013	addi	x0,x0,0	  x0:0x00000000
       82315000	      8230	80000894	00000013	addi	x0,x0,0	  x0:0x00000000
       82325000	      8231	80000898	fd9ffb6f	jal	x22,80000898	 x22=0x80000898
       82335000	      8232	00000000	00000013	addi	x0,x0,0	  x0:0x00000000
       82345000	      8233	8000086c	00000013	addi	x0,x0,0	  x0:0x00000000
       82355000	      8234	80000870	fe1ff36f	jal	x6,80000870	  x6=0x80000870
       82365000	      8235	00000000	00000013	addi	x0,x0,0	  x0:0x00000000
       82375000	      8236	8000084c	00000013	addi	x0,x0,0	  x0:0x00000000
       82385000	      8237	80000850	ffdff36f	jal	x6,80000850	  x6=0x80000850
       82395000	      8238	00000000	00000013	addi	x0,x0,0	  x0:0x00000000
       82405000	      8239	80000848	00000013	addi	x0,x0,0	  x0:0x00000000
       82415000	      8240	8000084c	0480016f	jal	x2,8000084c	  x2=0x8000084c
       82425000	      8241	00000000	00000013	addi	x0,x0,0	  x0:0x00000000
       82435000	      8242	80000890	00000013	addi	x0,x0,0	  x0:0x00000000
       82445000	      8243	80000894	fc1ff0ef	jal	x1,80000894	  x1=0x80000894
       82455000	      8244	00000000	00000013	addi	x0,x0,0	  x0:0x00000000
       82465000	      8245	80000850	00000013	addi	x0,x0,0	  x0:0x00000000
       82475000	      8246	80000854	ff1ff36f	jal	x6,80000854	  x6=0x80000854
       82485000	      8247	00000000	00000013	addi	x0,x0,0	  x0:0x00000000
       82495000	      8248	80000840	00000013	addi	x0,x0,0	  x0:0x00000000
       82505000	      8249	80000844	04c0036f	jal	x6,80000844	  x6=0x80000844
       82515000	      8250	00000000	00000013	addi	x0,x0,0	  x0:0x00000000
       82525000	      8251	8000088c	00000013	addi	x0,x0,0	  x0:0x00000000
       82535000	      8252	80000890	fb1ff0ef	jal	x1,80000890	  x1=0x80000890
       82545000	      8253	00000000	00000013	addi	x0,x0,0	  x0:0x00000000
       82555000	      8254	8000083c	00000013	addi	x0,x0,0	  x0:0x00000000
       82565000	      8255	80000840	04c000ef	jal	x1,80000840	  x1=0x80000840
       82575000	      8256	00000000	00000013	addi	x0,x0,0	  x0:0x00000000
       82585000	      8257	80000888	00000013	addi	x0,x0,0	  x0:0x00000000
       82595000	      8258	8000088c	fedff0ef	jal	x1,8000088c	  x1=0x8000088c
       82605000	      8259	00000000	00000013	addi	x0,x0,0	  x0:0x00000000
       82615000	      8260	80000874	00000013	addi	x0,x0,0	  x0:0x00000000
       82625000	      8261	80000878	00c00fef	jal	x31,80000878	 x31=0x80000878
       82635000	      8262	00000000	00000013	addi	x0,x0,0	  x0:0x00000000
       82645000	      8263	80000880	00000013	addi	x0,x0,0	  x0:0x00000000
       82655000	      8264	80000884	fddff0ef	jal	x1,80000884	  x1=0x80000884
       82665000	      8265	00000000	00000013	addi	x0,x0,0	  x0:0x00000000
       82675000	      8266	8000085c	00000013	addi	x0,x0,0	  x0:0x00000000
       82685000	      8267	80000860	ffdff16f	jal	x2,80000860	  x2=0x80000860
       82695000	      8268	00000000	00000013	addi	x0,x0,0	  x0:0x00000000
       82705000	      8269	80000858	00000013	addi	x0,x0,0	  x0:0x00000000
       82715000	      8270	8000085c	0240026f	jal	x4,8000085c	  x4=0x8000085c
       82725000	      8271	00000000	00000013	addi	x0,x0,0	  x0:0x00000000
       82735000	      8272	8000087c	00000013	addi	x0,x0,0	  x0:0x00000000
       82745000	      8273	80000880	fedfff6f	jal	x30,80000880	 x30=0x80000880
       82755000	      8274	00000000	00000013	addi	x0,x0,0	  x0:0x00000000
       82765000	      8275	80000868	00000013	addi	x0,x0,0	  x0:0x00000000
       82775000	      8276	8000086c	008000ef	jal	x1,8000086c	  x1=0x8000086c
       82785000	      8277	00000000	00000013	addi	x0,x0,0	  x0:0x00000000
       82795000	      8278	80000870	00000013	addi	x0,x0,0	  x0:0x00000000
       82805000	      8279	80000874	fe5ff0ef	jal	x1,80000874	  x1=0x80000874
       82815000	      8280	00000000	00000013	addi	x0,x0,0	  x0:0x00000000
       82825000	      8281	80000854	00000013	addi	x0,x0,0	  x0:0x00000000
       82835000	      8282	80000858	ff1ffaef	jal	x21,80000858	 x21=0x80000858
       82845000	      8283	00000000	00000013	addi	x0,x0,0	  x0:0x00000000
       82855000	      8284	80000844	00000013	addi	x0,x0,0	  x0:0x00000000
       82865000	      8285	80000848	0200036f	jal	x6,80000848	  x6=0x80000848
       82875000	      8286	00000000	00000013	addi	x0,x0,0	  x0:0x00000000
       82885000	      8287	80000864	00000013	addi	x0,x0,0	  x0:0x00000000
       82895000	      8288	80000868	020000ef	jal	x1,80000868	  x1=0x80000868
       82905000	      8289	00000000	00000013	addi	x0,x0,0	  x0:0x00000000
       82915000	      8290	80000884	00000013	addi	x0,x0,0	  x0:0x00000000
       82925000	      8291	80000888	0140036f	jal	x6,80000888	  x6=0x80000888
       82935000	      8292	00000000	00000013	addi	x0,x0,0	  x0:0x00000000
       82945000	      8293	80000898	00000013	addi	x0,x0,0	  x0:0x00000000
       82955000	      8294	8000089c	b366b913	sltiu	x18,x13,-1226	 x13:0x8000077c x18=0x00000001
       82965000	      8295	800008a0	030000ef	jal	x1,800008a0	  x1=0x800008a0
       82975000	      8296	00000000	00000013	addi	x0,x0,0	  x0:0x00000000
       82985000	      8297	800008cc	00000013	addi	x0,x0,0	  x0:0x00000000
       82995000	      8298	800008d0	018000ef	jal	x1,800008d0	  x1=0x800008d0
       83005000	      8299	00000000	00000013	addi	x0,x0,0	  x0:0x00000000
       83015000	      8300	800008e4	00000013	addi	x0,x0,0	  x0:0x00000000
       83025000	      8301	800008e8	00c0036f	jal	x6,800008e8	  x6=0x800008e8
       83035000	      8302	00000000	00000013	addi	x0,x0,0	  x0:0x00000000
       83045000	      8303	800008f0	00000013	addi	x0,x0,0	  x0:0x00000000
       83055000	      8304	800008f4	fb1ff36f	jal	x6,800008f4	  x6=0x800008f4
       83065000	      8305	00000000	00000013	addi	x0,x0,0	  x0:0x00000000
       83075000	      8306	800008a0	00000013	addi	x0,x0,0	  x0:0x00000000
       83085000	      8307	800008a4	05c000ef	jal	x1,800008a4	  x1=0x800008a4
       83095000	      8308	00000000	00000013	addi	x0,x0,0	  x0:0x00000000
       83105000	      8309	800008fc	00000013	addi	x0,x0,0	  x0:0x00000000
       83115000	      8310	80000900	fcdff36f	jal	x6,80000900	  x6=0x80000900
       83125000	      8311	00000000	00000013	addi	x0,x0,0	  x0:0x00000000
       83135000	      8312	800008c8	00000013	addi	x0,x0,0	  x0:0x00000000
       83145000	      8313	800008cc	0240036f	jal	x6,800008cc	  x6=0x800008cc
       83155000	      8314	00000000	00000013	addi	x0,x0,0	  x0:0x00000000
       83165000	      8315	800008ec	00000013	addi	x0,x0,0	  x0:0x00000000
       83175000	      8316	800008f0	fb9ff36f	jal	x6,800008f0	  x6=0x800008f0
       83185000	      8317	00000000	00000013	addi	x0,x0,0	  x0:0x00000000
       83195000	      8318	800008a4	00000013	addi	x0,x0,0	  x0:0x00000000
       83205000	      8319	800008a8	01c000ef	jal	x1,800008a8	  x1=0x800008a8
       83215000	      8320	00000000	00000013	addi	x0,x0,0	  x0:0x00000000
       83225000	      8321	800008c0	00000013	addi	x0,x0,0	  x0:0x00000000
       83235000	      8322	800008c4	020000ef	jal	x1,800008c4	  x1=0x800008c4
       83245000	      8323	00000000	00000013	addi	x0,x0,0	  x0:0x00000000
       83255000	      8324	800008e0	00000013	addi	x0,x0,0	  x0:0x00000000
       83265000	      8325	800008e4	ff9ff2ef	jal	x5,800008e4	  x5=0x800008e4
       83275000	      8326	00000000	00000013	addi	x0,x0,0	  x0:0x00000000
       83285000	      8327	800008d8	00000013	addi	x0,x0,0	  x0:0x00000000
       83295000	      8328	800008dc	01c0036f	jal	x6,800008dc	  x6=0x800008dc
       83305000	      8329	00000000	00000013	addi	x0,x0,0	  x0:0x00000000
       83315000	      8330	800008f4	00000013	addi	x0,x0,0	  x0:0x00000000
       83325000	      8331	800008f8	fd1ff3ef	jal	x7,800008f8	  x7=0x800008f8
       83335000	      8332	00000000	00000013	addi	x0,x0,0	  x0:0x00000000
       83345000	      8333	800008c4	00000013	addi	x0,x0,0	  x0:0x00000000
       83355000	      8334	800008c8	0180036f	jal	x6,800008c8	  x6=0x800008c8
       83365000	      8335	00000000	00000013	addi	x0,x0,0	  x0:0x00000000
       83375000	      8336	800008dc	00000013	addi	x0,x0,0	  x0:0x00000000
       83385000	      8337	800008e0	fddffe6f	jal	x28,800008e0	 x28=0x800008e0
       83395000	      8338	00000000	00000013	addi	x0,x0,0	  x0:0x00000000
       83405000	      8339	800008b8	00000013	addi	x0,x0,0	  x0:0x00000000
       83415000	      8340	800008bc	004002ef	jal	x5,800008bc	  x5=0x800008bc
       83425000	      8341	00000000	00000013	addi	x0,x0,0	  x0:0x00000000
       83435000	      8342	800008bc	00000013	addi	x0,x0,0	  x0:0x00000000
       83445000	      8343	800008c0	0140036f	jal	x6,800008c0	  x6=0x800008c0
       83455000	      8344	00000000	00000013	addi	x0,x0,0	  x0:0x00000000
       83465000	      8345	800008d0	00000013	addi	x0,x0,0	  x0:0x00000000
       83475000	      8346	800008d4	03c00cef	jal	x25,800008d4	 x25=0x800008d4
       83485000	      8347	00000000	00000013	addi	x0,x0,0	  x0:0x00000000
       83495000	      8348	8000090c	00000013	addi	x0,x0,0	  x0:0x00000000
       83505000	      8349	80000910	ff5ff36f	jal	x6,80000910	  x6=0x80000910
       83515000	      8350	00000000	00000013	addi	x0,x0,0	  x0:0x00000000
       83525000	      8351	80000900	00000013	addi	x0,x0,0	  x0:0x00000000
       83535000	      8352	80000904	fa9ff5ef	jal	x11,80000904	 x11=0x80000904
       83545000	      8353	00000000	00000013	addi	x0,x0,0	  x0:0x00000000
       83555000	      8354	800008a8	00000013	addi	x0,x0,0	  x0:0x00000000
       83565000	      8355	800008ac	00c0096f	jal	x18,800008ac	 x18=0x800008ac
       83575000	      8356	00000000	00000013	addi	x0,x0,0	  x0:0x00000000
       83585000	      8357	800008b4	00000013	addi	x0,x0,0	  x0:0x00000000
       83595000	      8358	800008b8	0200016f	jal	x2,800008b8	  x2=0x800008b8
       83605000	      8359	00000000	00000013	addi	x0,x0,0	  x0:0x00000000
       83615000	      8360	800008d4	00000013	addi	x0,x0,0	  x0:0x00000000
       83625000	      8361	800008d8	fd9ff0ef	jal	x1,800008d8	  x1=0x800008d8
       83635000	      8362	00000000	00000013	addi	x0,x0,0	  x0:0x00000000
       83645000	      8363	800008ac	00000013	addi	x0,x0,0	  x0:0x00000000
       83655000	      8364	800008b0	04c0036f	jal	x6,800008b0	  x6=0x800008b0
       83665000	      8365	00000000	00000013	addi	x0,x0,0	  x0:0x00000000
       83675000	      8366	800008f8	00000013	addi	x0,x0,0	  x0:0x00000000
       83685000	      8367	800008fc	010000ef	jal	x1,800008fc	  x1=0x800008fc
       83695000	      8368	00000000	00000013	addi	x0,x0,0	  x0:0x00000000
       83705000	      8369	80000908	00000013	addi	x0,x0,0	  x0:0x00000000
       83715000	      8370	8000090c	ffdff0ef	jal	x1,8000090c	  x1=0x8000090c
       83725000	      8371	00000000	00000013	addi	x0,x0,0	  x0:0x00000000
       83735000	      8372	80000904	00000013	addi	x0,x0,0	  x0:0x00000000
       83745000	      8373	80000908	fadff36f	jal	x6,80000908	  x6=0x80000908
       83755000	      8374	00000000	00000013	addi	x0,x0,0	  x0:0x00000000
       83765000	      8375	800008b0	00000013	addi	x0,x0,0	  x0:0x00000000
       83775000	      8376	800008b4	038000ef	jal	x1,800008b4	  x1=0x800008b4
       83785000	      8377	00000000	00000013	addi	x0,x0,0	  x0:0x00000000
       83795000	      8378	800008e8	00000013	addi	x0,x0,0	  x0:0x00000000
       83805000	      8379	800008ec	028000ef	jal	x1,800008ec	  x1=0x800008ec
       83815000	      8380	00000000	00000013	addi	x0,x0,0	  x0:0x00000000
       83825000	      8381	80000910	00000013	addi	x0,x0,0	  x0:0x00000000
       83835000	      8382	80000914	013446b3	xor	x13,x8,x19	  x8:0x80000828 x19:0x80000710 x13=0x00000f38
       83845000	      8383	80000918	038000ef	jal	x1,80000918	  x1=0x80000918
       83855000	      8384	00000000	00000013	addi	x0,x0,0	  x0:0x00000000
       83865000	      8385	8000094c	00000013	addi	x0,x0,0	  x0:0x00000000
       83875000	      8386	80000950	ff9ff1ef	jal	x3,80000950	  x3=0x80000950
       83885000	      8387	00000000	00000013	addi	x0,x0,0	  x0:0x00000000
       83895000	      8388	80000944	00000013	addi	x0,x0,0	  x0:0x00000000
       83905000	      8389	80000948	028000ef	jal	x1,80000948	  x1=0x80000948
       83915000	      8390	00000000	00000013	addi	x0,x0,0	  x0:0x00000000
       83925000	      8391	8000096c	00000013	addi	x0,x0,0	  x0:0x00000000
       83935000	      8392	80000970	fc5ff36f	jal	x6,80000970	  x6=0x80000970
       83945000	      8393	00000000	00000013	addi	x0,x0,0	  x0:0x00000000
       83955000	      8394	80000930	00000013	addi	x0,x0,0	  x0:0x00000000
       83965000	      8395	80000934	010003ef	jal	x7,80000934	  x7=0x80000934
       83975000	      8396	00000000	00000013	addi	x0,x0,0	  x0:0x00000000
       83985000	      8397	80000940	00000013	addi	x0,x0,0	  x0:0x00000000
       83995000	      8398	80000944	048000ef	jal	x1,80000944	  x1=0x80000944
       84005000	      8399	00000000	00000013	addi	x0,x0,0	  x0:0x00000000
       84015000	      8400	80000988	00000013	addi	x0,x0,0	  x0:0x00000000
       84025000	      8401	8000098c	ff9ff36f	jal	x6,8000098c	  x6=0x8000098c
       84035000	      8402	00000000	00000013	addi	x0,x0,0	  x0:0x00000000
       84045000	      8403	80000980	00000013	addi	x0,x0,0	  x0:0x00000000
       84055000	      8404	80000984	fddff36f	jal	x6,80000984	  x6=0x80000984
       84065000	      8405	00000000	00000013	addi	x0,x0,0	  x0:0x00000000
       84075000	      8406	8000095c	00000013	addi	x0,x0,0	  x0:0x00000000
       84085000	      8407	80000960	fcdff2ef	jal	x5,80000960	  x5=0x80000960
       84095000	      8408	00000000	00000013	addi	x0,x0,0	  x0:0x00000000
       84105000	      8409	80000928	00000013	addi	x0,x0,0	  x0:0x00000000
       84115000	      8410	8000092c	ffdff0ef	jal	x1,8000092c	  x1=0x8000092c
       84125000	      8411	00000000	00000013	addi	x0,x0,0	  x0:0x00000000
       84135000	      8412	80000924	00000013	addi	x0,x0,0	  x0:0x00000000
       84145000	      8413	80000928	00800fef	jal	x31,80000928	 x31=0x80000928
       84155000	      8414	00000000	00000013	addi	x0,x0,0	  x0:0x00000000
       84165000	      8415	8000092c	00000013	addi	x0,x0,0	  x0:0x00000000
       84175000	      8416	80000930	fedff36f	jal	x6,80000930	  x6=0x80000930
       84185000	      8417	00000000	00000013	addi	x0,x0,0	  x0:0x00000000
       84195000	      8418	80000918	00000013	addi	x0,x0,0	  x0:0x00000000
       84205000	      8419	8000091c	040000ef	jal	x1,8000091c	  x1=0x8000091c
       84215000	      8420	00000000	00000013	addi	x0,x0,0	  x0:0x00000000
       84225000	      8421	80000958	00000013	addi	x0,x0,0	  x0:0x00000000
       84235000	      8422	8000095c	0200036f	jal	x6,8000095c	  x6=0x8000095c
       84245000	      8423	00000000	00000013	addi	x0,x0,0	  x0:0x00000000
       84255000	      8424	80000978	00000013	addi	x0,x0,0	  x0:0x00000000
       84265000	      8425	8000097c	fa5ff36f	jal	x6,8000097c	  x6=0x8000097c
       84275000	      8426	00000000	00000013	addi	x0,x0,0	  x0:0x00000000
       84285000	      8427	8000091c	00000013	addi	x0,x0,0	  x0:0x00000000
       84295000	      8428	80000920	0580036f	jal	x6,80000920	  x6=0x80000920
       84305000	      8429	00000000	00000013	addi	x0,x0,0	  x0:0x00000000
       84315000	      8430	80000974	00000013	addi	x0,x0,0	  x0:0x00000000
       84325000	      8431	80000978	0080026f	jal	x4,80000978	  x4=0x80000978
       84335000	      8432	00000000	00000013	addi	x0,x0,0	  x0:0x00000000
       84345000	      8433	8000097c	00000013	addi	x0,x0,0	  x0:0x00000000
       84355000	      8434	80000980	0080036f	jal	x6,80000980	  x6=0x80000980
       84365000	      8435	00000000	00000013	addi	x0,x0,0	  x0:0x00000000
       84375000	      8436	80000984	00000013	addi	x0,x0,0	  x0:0x00000000
       84385000	      8437	80000988	fc5ff36f	jal	x6,80000988	  x6=0x80000988
       84395000	      8438	00000000	00000013	addi	x0,x0,0	  x0:0x00000000
       84405000	      8439	80000948	00000013	addi	x0,x0,0	  x0:0x00000000
       84415000	      8440	8000094c	ff5ff1ef	jal	x3,8000094c	  x3=0x8000094c
       84425000	      8441	00000000	00000013	addi	x0,x0,0	  x0:0x00000000
       84435000	      8442	8000093c	00000013	addi	x0,x0,0	  x0:0x00000000
       84445000	      8443	80000940	ffdff16f	jal	x2,80000940	  x2=0x80000940
       84455000	      8444	00000000	00000013	addi	x0,x0,0	  x0:0x00000000
       84465000	      8445	80000938	00000013	addi	x0,x0,0	  x0:0x00000000
       84475000	      8446	8000093c	0380046f	jal	x8,8000093c	  x8=0x8000093c
       84485000	      8447	00000000	00000013	addi	x0,x0,0	  x0:0x00000000
       84495000	      8448	80000970	00000013	addi	x0,x0,0	  x0:0x00000000
       84505000	      8449	80000974	fe1ff36f	jal	x6,80000974	  x6=0x80000974
       84515000	      8450	00000000	00000013	addi	x0,x0,0	  x0:0x00000000
       84525000	      8451	80000950	00000013	addi	x0,x0,0	  x0:0x00000000
       84535000	      8452	80000954	0100086f	jal	x16,80000954	 x16=0x80000954
       84545000	      8453	00000000	00000013	addi	x0,x0,0	  x0:0x00000000
       84555000	      8454	80000960	00000013	addi	x0,x0,0	  x0:0x00000000
       84565000	      8455	80000964	fc1ff36f	jal	x6,80000964	  x6=0x80000964
       84575000	      8456	00000000	00000013	addi	x0,x0,0	  x0:0x00000000
       84585000	      8457	80000920	00000013	addi	x0,x0,0	  x0:0x00000000
       84595000	      8458	80000924	014001ef	jal	x3,80000924	  x3=0x80000924
       84605000	      8459	00000000	00000013	addi	x0,x0,0	  x0:0x00000000
       84615000	      8460	80000934	00000013	addi	x0,x0,0	  x0:0x00000000
       84625000	      8461	80000938	034000ef	jal	x1,80000938	  x1=0x80000938
       84635000	      8462	00000000	00000013	addi	x0,x0,0	  x0:0x00000000
       84645000	      8463	80000968	00000013	addi	x0,x0,0	  x0:0x00000000
       84655000	      8464	8000096c	fedff56f	jal	x10,8000096c	 x10=0x8000096c
       84665000	      8465	00000000	00000013	addi	x0,x0,0	  x0:0x00000000
       84675000	      8466	80000954	00000013	addi	x0,x0,0	  x0:0x00000000
       84685000	      8467	80000958	0100046f	jal	x8,80000958	  x8=0x80000958
       84695000	      8468	00000000	00000013	addi	x0,x0,0	  x0:0x00000000
       84705000	      8469	80000964	00000013	addi	x0,x0,0	  x0:0x00000000
       84715000	      8470	80000968	028000ef	jal	x1,80000968	  x1=0x80000968
       84725000	      8471	00000000	00000013	addi	x0,x0,0	  x0:0x00000000
       84735000	      8472	8000098c	00000013	addi	x0,x0,0	  x0:0x00000000
       84745000	      8473	80000990	00000013	addi	x0,x0,0	  x0:0x00000000
       84755000	      8474	80000994	064000ef	jal	x1,80000994	  x1=0x80000994
       84765000	      8475	00000000	00000013	addi	x0,x0,0	  x0:0x00000000
       84775000	      8476	800009f4	00000013	addi	x0,x0,0	  x0:0x00000000
       84785000	      8477	800009f8	ff5ff0ef	jal	x1,800009f8	  x1=0x800009f8
       84795000	      8478	00000000	00000013	addi	x0,x0,0	  x0:0x00000000
       84805000	      8479	800009e8	00000013	addi	x0,x0,0	  x0:0x00000000
       84815000	      8480	800009ec	fddff0ef	jal	x1,800009ec	  x1=0x800009ec
       84825000	      8481	00000000	00000013	addi	x0,x0,0	  x0:0x00000000
       84835000	      8482	800009c4	00000013	addi	x0,x0,0	  x0:0x00000000
       84845000	      8483	800009c8	fddff36f	jal	x6,800009c8	  x6=0x800009c8
       84855000	      8484	00000000	00000013	addi	x0,x0,0	  x0:0x00000000
       84865000	      8485	800009a0	00000013	addi	x0,x0,0	  x0:0x00000000
       84875000	      8486	800009a4	01800cef	jal	x25,800009a4	 x25=0x800009a4
       84885000	      8487	00000000	00000013	addi	x0,x0,0	  x0:0x00000000
       84895000	      8488	800009b8	00000013	addi	x0,x0,0	  x0:0x00000000
       84905000	      8489	800009bc	ff1ff4ef	jal	x9,800009bc	  x9=0x800009bc
       84915000	      8490	00000000	00000013	addi	x0,x0,0	  x0:0x00000000
       84925000	      8491	800009a8	00000013	addi	x0,x0,0	  x0:0x00000000
       84935000	      8492	800009ac	018000ef	jal	x1,800009ac	  x1=0x800009ac
       84945000	      8493	00000000	00000013	addi	x0,x0,0	  x0:0x00000000
       84955000	      8494	800009c0	00000013	addi	x0,x0,0	  x0:0x00000000
       84965000	      8495	800009c4	018002ef	jal	x5,800009c4	  x5=0x800009c4
       84975000	      8496	00000000	00000013	addi	x0,x0,0	  x0:0x00000000
       84985000	      8497	800009d8	00000013	addi	x0,x0,0	  x0:0x00000000
       84995000	      8498	800009dc	028000ef	jal	x1,800009dc	  x1=0x800009dc
       85005000	      8499	00000000	00000013	addi	x0,x0,0	  x0:0x00000000
       85015000	      8500	80000a00	00000013	addi	x0,x0,0	  x0:0x00000000
       85025000	      8501	80000a04	f99ff0ef	jal	x1,80000a04	  x1=0x80000a04
       85035000	      8502	00000000	00000013	addi	x0,x0,0	  x0:0x00000000
       85045000	      8503	80000998	00000013	addi	x0,x0,0	  x0:0x00000000
       85055000	      8504	8000099c	038000ef	jal	x1,8000099c	  x1=0x8000099c
       85065000	      8505	00000000	00000013	addi	x0,x0,0	  x0:0x00000000
       85075000	      8506	800009d0	00000013	addi	x0,x0,0	  x0:0x00000000
       85085000	      8507	800009d4	02c000ef	jal	x1,800009d4	  x1=0x800009d4
       85095000	      8508	00000000	00000013	addi	x0,x0,0	  x0:0x00000000
       85105000	      8509	800009fc	00000013	addi	x0,x0,0	  x0:0x00000000
       85115000	      8510	80000a00	fb1ff36f	jal	x6,80000a00	  x6=0x80000a00
       85125000	      8511	00000000	00000013	addi	x0,x0,0	  x0:0x00000000
       85135000	      8512	800009ac	00000013	addi	x0,x0,0	  x0:0x00000000
       85145000	      8513	800009b0	0040036f	jal	x6,800009b0	  x6=0x800009b0
       85155000	      8514	00000000	00000013	addi	x0,x0,0	  x0:0x00000000
       85165000	      8515	800009b0	00000013	addi	x0,x0,0	  x0:0x00000000
       85175000	      8516	800009b4	fe5ff16f	jal	x2,800009b4	  x2=0x800009b4
       85185000	      8517	00000000	00000013	addi	x0,x0,0	  x0:0x00000000
       85195000	      8518	80000994	00000013	addi	x0,x0,0	  x0:0x00000000
       85205000	      8519	80000998	0640036f	jal	x6,80000998	  x6=0x80000998
       85215000	      8520	00000000	00000013	addi	x0,x0,0	  x0:0x00000000
       85225000	      8521	800009f8	00000013	addi	x0,x0,0	  x0:0x00000000
       85235000	      8522	800009fc	ff9ffd6f	jal	x26,800009fc	 x26=0x800009fc
       85245000	      8523	00000000	00000013	addi	x0,x0,0	  x0:0x00000000
       85255000	      8524	800009f0	00000013	addi	x0,x0,0	  x0:0x00000000
       85265000	      8525	800009f4	fb5ff7ef	jal	x15,800009f4	 x15=0x800009f4
       85275000	      8526	00000000	00000013	addi	x0,x0,0	  x0:0x00000000
       85285000	      8527	800009a4	00000013	addi	x0,x0,0	  x0:0x00000000
       85295000	      8528	800009a8	0480036f	jal	x6,800009a8	  x6=0x800009a8
       85305000	      8529	00000000	00000013	addi	x0,x0,0	  x0:0x00000000
       85315000	      8530	800009ec	00000013	addi	x0,x0,0	  x0:0x00000000
       85325000	      8531	800009f0	01800fef	jal	x31,800009f0	 x31=0x800009f0
       85335000	      8532	00000000	00000013	addi	x0,x0,0	  x0:0x00000000
       85345000	      8533	80000a04	00000013	addi	x0,x0,0	  x0:0x00000000
       85355000	      8534	80000a08	f99ff86f	jal	x16,80000a08	 x16=0x80000a08
       85365000	      8535	00000000	00000013	addi	x0,x0,0	  x0:0x00000000
       85375000	      8536	8000099c	00000013	addi	x0,x0,0	  x0:0x00000000
       85385000	      8537	800009a0	02c000ef	jal	x1,800009a0	  x1=0x800009a0
       85395000	      8538	00000000	00000013	addi	x0,x0,0	  x0:0x00000000
       85405000	      8539	800009c8	00000013	addi	x0,x0,0	  x0:0x00000000
       85415000	      8540	800009cc	0140016f	jal	x2,800009cc	  x2=0x800009cc
       85425000	      8541	00000000	00000013	addi	x0,x0,0	  x0:0x00000000
       85435000	      8542	800009dc	00000013	addi	x0,x0,0	  x0:0x00000000
       85445000	      8543	800009e0	fe1ff0ef	jal	x1,800009e0	  x1=0x800009e0
       85455000	      8544	00000000	00000013	addi	x0,x0,0	  x0:0x00000000
       85465000	      8545	800009bc	00000013	addi	x0,x0,0	  x0:0x00000000
       85475000	      8546	800009c0	024000ef	jal	x1,800009c0	  x1=0x800009c0
       85485000	      8547	00000000	00000013	addi	x0,x0,0	  x0:0x00000000
       85495000	      8548	800009e0	00000013	addi	x0,x0,0	  x0:0x00000000
       85505000	      8549	800009e4	ff5ff36f	jal	x6,800009e4	  x6=0x800009e4
       85515000	      8550	00000000	00000013	addi	x0,x0,0	  x0:0x00000000
       85525000	      8551	800009d4	00000013	addi	x0,x0,0	  x0:0x00000000
       85535000	      8552	800009d8	0100036f	jal	x6,800009d8	  x6=0x800009d8
       85545000	      8553	00000000	00000013	addi	x0,x0,0	  x0:0x00000000
       85555000	      8554	800009e4	00000013	addi	x0,x0,0	  x0:0x00000000
       85565000	      8555	800009e8	fe9ff36f	jal	x6,800009e8	  x6=0x800009e8
       85575000	      8556	00000000	00000013	addi	x0,x0,0	  x0:0x00000000
       85585000	      8557	800009cc	00000013	addi	x0,x0,0	  x0:0x00000000
       85595000	      8558	800009d0	fe9ff26f	jal	x4,800009d0	  x4=0x800009d0
       85605000	      8559	00000000	00000013	addi	x0,x0,0	  x0:0x00000000
       85615000	      8560	800009b4	00000013	addi	x0,x0,0	  x0:0x00000000
       85625000	      8561	800009b8	054000ef	jal	x1,800009b8	  x1=0x800009b8
       85635000	      8562	00000000	00000013	addi	x0,x0,0	  x0:0x00000000
       85645000	      8563	80000a08	00000013	addi	x0,x0,0	  x0:0x00000000
       85655000	      8564	80000a0c	9913e797	auipc	x15,0x9913e	 x15=0x1913ea08
       85665000	      8565	80000a10	038000ef	jal	x1,80000a10	  x1=0x80000a10
       85675000	      8566	00000000	00000013	addi	x0,x0,0	  x0:0x00000000
       85685000	      8567	80000a44	00000013	addi	x0,x0,0	  x0:0x00000000
       85695000	      8568	80000a48	01800fef	jal	x31,80000a48	 x31=0x80000a48
       85705000	      8569	00000000	00000013	addi	x0,x0,0	  x0:0x00000000
       85715000	      8570	80000a5c	00000013	addi	x0,x0,0	  x0:0x00000000
       85725000	      8571	80000a60	fe5ff0ef	jal	x1,80000a60	  x1=0x80000a60
       85735000	      8572	00000000	00000013	addi	x0,x0,0	  x0:0x00000000
       85745000	      8573	80000a40	00000013	addi	x0,x0,0	  x0:0x00000000
       85755000	      8574	80000a44	018000ef	jal	x1,80000a44	  x1=0x80000a44
       85765000	      8575	00000000	00000013	addi	x0,x0,0	  x0:0x00000000
       85775000	      8576	80000a58	00000013	addi	x0,x0,0	  x0:0x00000000
       85785000	      8577	80000a5c	0200036f	jal	x6,80000a5c	  x6=0x80000a5c
       85795000	      8578	00000000	00000013	addi	x0,x0,0	  x0:0x00000000
       85805000	      8579	80000a78	00000013	addi	x0,x0,0	  x0:0x00000000
       85815000	      8580	80000a7c	f99ff66f	jal	x12,80000a7c	 x12=0x80000a7c
       85825000	      8581	00000000	00000013	addi	x0,x0,0	  x0:0x00000000
       85835000	      8582	80000a10	00000013	addi	x0,x0,0	  x0:0x00000000
       85845000	      8583	80000a14	01c0036f	jal	x6,80000a14	  x6=0x80000a14
       85855000	      8584	00000000	00000013	addi	x0,x0,0	  x0:0x00000000
       85865000	      8585	80000a2c	00000013	addi	x0,x0,0	  x0:0x00000000
       85875000	      8586	80000a30	0340036f	jal	x6,80000a30	  x6=0x80000a30
       85885000	      8587	00000000	00000013	addi	x0,x0,0	  x0:0x00000000
       85895000	      8588	80000a60	00000013	addi	x0,x0,0	  x0:0x00000000
       85905000	      8589	80000a64	00800fef	jal	x31,80000a64	 x31=0x80000a64
       85915000	      8590	00000000	00000013	addi	x0,x0,0	  x0:0x00000000
       85925000	      8591	80000a68	00000013	addi	x0,x0,0	  x0:0x00000000
       85935000	      8592	80000a6c	fcdffd6f	jal	x26,80000a6c	 x26=0x80000a6c
       85945000	      8593	00000000	00000013	addi	x0,x0,0	  x0:0x00000000
       85955000	      8594	80000a34	00000013	addi	x0,x0,0	  x0:0x00000000
       85965000	      8595	80000a38	004000ef	jal	x1,80000a38	  x1=0x80000a38
       85975000	      8596	00000000	00000013	addi	x0,x0,0	  x0:0x00000000
       85985000	      8597	80000a38	00000013	addi	x0,x0,0	  x0:0x00000000
       85995000	      8598	80000a3c	fddff0ef	jal	x1,80000a3c	  x1=0x80000a3c
       86005000	      8599	00000000	00000013	addi	x0,x0,0	  x0:0x00000000
       86015000	      8600	80000a14	00000013	addi	x0,x0,0	  x0:0x00000000
       86025000	      8601	80000a18	0500046f	jal	x8,80000a18	  x8=0x80000a18
       86035000	      8602	00000000	00000013	addi	x0,x0,0	  x0:0x00000000
       86045000	      8603	80000a64	00000013	addi	x0,x0,0	  x0:0x00000000
       86055000	      8604	80000a68	fc1ff36f	jal	x6,80000a68	  x6=0x80000a68
       86065000	      8605	00000000	00000013	addi	x0,x0,0	  x0:0x00000000
       86075000	      8606	80000a24	00000013	addi	x0,x0,0	  x0:0x00000000
       86085000	      8607	80000a28	04c0016f	jal	x2,80000a28	  x2=0x80000a28
       86095000	      8608	00000000	00000013	addi	x0,x0,0	  x0:0x00000000
       86105000	      8609	80000a70	00000013	addi	x0,x0,0	  x0:0x00000000
       86115000	      8610	80000a74	fb9ff0ef	jal	x1,80000a74	  x1=0x80000a74
       86125000	      8611	00000000	00000013	addi	x0,x0,0	  x0:0x00000000
       86135000	      8612	80000a28	00000013	addi	x0,x0,0	  x0:0x00000000
       86145000	      8613	80000a2c	04c000ef	jal	x1,80000a2c	  x1=0x80000a2c
       86155000	      8614	00000000	00000013	addi	x0,x0,0	  x0:0x00000000
       86165000	      8615	80000a74	00000013	addi	x0,x0,0	  x0:0x00000000
       86175000	      8616	80000a78	fe1ffaef	jal	x21,80000a78	 x21=0x80000a78
       86185000	      8617	00000000	00000013	addi	x0,x0,0	  x0:0x00000000
       86195000	      8618	80000a54	00000013	addi	x0,x0,0	  x0:0x00000000
       86205000	      8619	80000a58	fc5ff0ef	jal	x1,80000a58	  x1=0x80000a58
       86215000	      8620	00000000	00000013	addi	x0,x0,0	  x0:0x00000000
       86225000	      8621	80000a18	00000013	addi	x0,x0,0	  x0:0x00000000
       86235000	      8622	80000a1c	030000ef	jal	x1,80000a1c	  x1=0x80000a1c
       86245000	      8623	00000000	00000013	addi	x0,x0,0	  x0:0x00000000
       86255000	      8624	80000a48	00000013	addi	x0,x0,0	  x0:0x00000000
       86265000	      8625	80000a4c	00400aef	jal	x21,80000a4c	 x21=0x80000a4c
       86275000	      8626	00000000	00000013	addi	x0,x0,0	  x0:0x00000000
       86285000	      8627	80000a4c	00000013	addi	x0,x0,0	  x0:0x00000000
       86295000	      8628	80000a50	0040096f	jal	x18,80000a50	 x18=0x80000a50
       86305000	      8629	00000000	00000013	addi	x0,x0,0	  x0:0x00000000
       86315000	      8630	80000a50	00000013	addi	x0,x0,0	  x0:0x00000000
       86325000	      8631	80000a54	fe1ffe6f	jal	x28,80000a54	 x28=0x80000a54
       86335000	      8632	00000000	00000013	addi	x0,x0,0	  x0:0x00000000
       86345000	      8633	80000a30	00000013	addi	x0,x0,0	  x0:0x00000000
       86355000	      8634	80000a34	ff1ff0ef	jal	x1,80000a34	  x1=0x80000a34
       86365000	      8635	00000000	00000013	addi	x0,x0,0	  x0:0x00000000
       86375000	      8636	80000a20	00000013	addi	x0,x0,0	  x0:0x00000000
       86385000	      8637	80000a24	01c000ef	jal	x1,80000a24	  x1=0x80000a24
       86395000	      8638	00000000	00000013	addi	x0,x0,0	  x0:0x00000000
       86405000	      8639	80000a3c	00000013	addi	x0,x0,0	  x0:0x00000000
       86415000	      8640	80000a40	fe1ff0ef	jal	x1,80000a40	  x1=0x80000a40
       86425000	      8641	00000000	00000013	addi	x0,x0,0	  x0:0x00000000
       86435000	      8642	80000a1c	00000013	addi	x0,x0,0	  x0:0x00000000
       86445000	      8643	80000a20	050000ef	jal	x1,80000a20	  x1=0x80000a20
       86455000	      8644	00000000	00000013	addi	x0,x0,0	  x0:0x00000000
       86465000	      8645	80000a6c	00000013	addi	x0,x0,0	  x0:0x00000000
       86475000	      8646	80000a70	01000f6f	jal	x30,80000a70	 x30=0x80000a70
       86485000	      8647	00000000	00000013	addi	x0,x0,0	  x0:0x00000000
       86495000	      8648	80000a7c	00000013	addi	x0,x0,0	  x0:0x00000000
       86505000	      8649	80000a80	00663133	sltu	x2,x12,x6	 x12:0x80000a7c  x6:0x80000a68  x2=0x00000000
       86515000	      8650	80000a84	010000ef	jal	x1,80000a84	  x1=0x80000a84
       86525000	      8651	00000000	00000013	addi	x0,x0,0	  x0:0x00000000
       86535000	      8652	80000a90	00000013	addi	x0,x0,0	  x0:0x00000000
       86545000	      8653	80000a94	ff9ff0ef	jal	x1,80000a94	  x1=0x80000a94
       86555000	      8654	00000000	00000013	addi	x0,x0,0	  x0:0x00000000
       86565000	      8655	80000a88	00000013	addi	x0,x0,0	  x0:0x00000000
       86575000	      8656	80000a8c	004009ef	jal	x19,80000a8c	 x19=0x80000a8c
       86585000	      8657	00000000	00000013	addi	x0,x0,0	  x0:0x00000000
       86595000	      8658	80000a8c	00000013	addi	x0,x0,0	  x0:0x00000000
       86605000	      8659	80000a90	014000ef	jal	x1,80000a90	  x1=0x80000a90
       86615000	      8660	00000000	00000013	addi	x0,x0,0	  x0:0x00000000
       86625000	      8661	80000aa0	00000013	addi	x0,x0,0	  x0:0x00000000
       86635000	      8662	80000aa4	018000ef	jal	x1,80000aa4	  x1=0x80000aa4
       86645000	      8663	00000000	00000013	addi	x0,x0,0	  x0:0x00000000
       86655000	      8664	80000ab8	00000013	addi	x0,x0,0	  x0:0x00000000
       86665000	      8665	80000abc	ff5ff0ef	jal	x1,80000abc	  x1=0x80000abc
       86675000	      8666	00000000	00000013	addi	x0,x0,0	  x0:0x00000000
       86685000	      8667	80000aac	00000013	addi	x0,x0,0	  x0:0x00000000
       86695000	      8668	80000ab0	ff1ff0ef	jal	x1,80000ab0	  x1=0x80000ab0
       86705000	      8669	00000000	00000013	addi	x0,x0,0	  x0:0x00000000
       86715000	      8670	80000a9c	00000013	addi	x0,x0,0	  x0:0x00000000
       86725000	      8671	80000aa0	ffdfffef	jal	x31,80000aa0	 x31=0x80000aa0
       86735000	      8672	00000000	00000013	addi	x0,x0,0	  x0:0x00000000
       86745000	      8673	80000a98	00000013	addi	x0,x0,0	  x0:0x00000000
       86755000	      8674	80000a9c	fedff0ef	jal	x1,80000a9c	  x1=0x80000a9c
       86765000	      8675	00000000	00000013	addi	x0,x0,0	  x0:0x00000000
       86775000	      8676	80000a84	00000013	addi	x0,x0,0	  x0:0x00000000
       86785000	      8677	80000a88	024000ef	jal	x1,80000a88	  x1=0x80000a88
       86795000	      8678	00000000	00000013	addi	x0,x0,0	  x0:0x00000000
       86805000	      8679	80000aa8	00000013	addi	x0,x0,0	  x0:0x00000000
       86815000	      8680	80000aac	00c005ef	jal	x11,80000aac	 x11=0x80000aac
       86825000	      8681	00000000	00000013	addi	x0,x0,0	  x0:0x00000000
       86835000	      8682	80000ab4	00000013	addi	x0,x0,0	  x0:0x00000000
       86845000	      8683	80000ab8	ffdffcef	jal	x25,80000ab8	 x25=0x80000ab8
       86855000	      8684	00000000	00000013	addi	x0,x0,0	  x0:0x00000000
       86865000	      8685	80000ab0	00000013	addi	x0,x0,0	  x0:0x00000000
       86875000	      8686	80000ab4	00c000ef	jal	x1,80000ab4	  x1=0x80000ab4
       86885000	      8687	00000000	00000013	addi	x0,x0,0	  x0:0x00000000
       86895000	      8688	80000abc	00000013	addi	x0,x0,0	  x0:0x00000000
       86905000	      8689	80000ac0	00c000ef	jal	x1,80000ac0	  x1=0x80000ac0
       86915000	      8690	00000000	00000013	addi	x0,x0,0	  x0:0x00000000
       86925000	      8691	80000ac8	00000013	addi	x0,x0,0	  x0:0x00000000
       86935000	      8692	80000acc	0100036f	jal	x6,80000acc	  x6=0x80000acc
       86945000	      8693	00000000	00000013	addi	x0,x0,0	  x0:0x00000000
       86955000	      8694	80000ad8	00000013	addi	x0,x0,0	  x0:0x00000000
       86965000	      8695	80000adc	fe9ff0ef	jal	x1,80000adc	  x1=0x80000adc
       86975000	      8696	00000000	00000013	addi	x0,x0,0	  x0:0x00000000
       86985000	      8697	80000ac0	00000013	addi	x0,x0,0	  x0:0x00000000
       86995000	      8698	80000ac4	fe5ff0ef	jal	x1,80000ac4	  x1=0x80000ac4
       87005000	      8699	00000000	00000013	addi	x0,x0,0	  x0:0x00000000
       87015000	      8700	80000aa4	00000013	addi	x0,x0,0	  x0:0x00000000
       87025000	      8701	80000aa8	038000ef	jal	x1,80000aa8	  x1=0x80000aa8
       87035000	      8702	00000000	00000013	addi	x0,x0,0	  x0:0x00000000
       87045000	      8703	80000adc	00000013	addi	x0,x0,0	  x0:0x00000000
       87055000	      8704	80000ae0	fb9ff1ef	jal	x3,80000ae0	  x3=0x80000ae0
       87065000	      8705	00000000	00000013	addi	x0,x0,0	  x0:0x00000000
       87075000	      8706	80000a94	00000013	addi	x0,x0,0	  x0:0x00000000
       87085000	      8707	80000a98	03800f6f	jal	x30,80000a98	 x30=0x80000a98
       87095000	      8708	00000000	00000013	addi	x0,x0,0	  x0:0x00000000
       87105000	      8709	80000acc	00000013	addi	x0,x0,0	  x0:0x00000000
       87115000	      8710	80000ad0	0080086f	jal	x16,80000ad0	 x16=0x80000ad0
       87125000	      8711	00000000	00000013	addi	x0,x0,0	  x0:0x00000000
       87135000	      8712	80000ad4	00000013	addi	x0,x0,0	  x0:0x00000000
       87145000	      8713	80000ad8	ffdff0ef	jal	x1,80000ad8	  x1=0x80000ad8
       87155000	      8714	00000000	00000013	addi	x0,x0,0	  x0:0x00000000
       87165000	      8715	80000ad0	00000013	addi	x0,x0,0	  x0:0x00000000
       87175000	      8716	80000ad4	ff5ff26f	jal	x4,80000ad4	  x4=0x80000ad4
       87185000	      8717	00000000	00000013	addi	x0,x0,0	  x0:0x00000000
       87195000	      8718	80000ac4	00000013	addi	x0,x0,0	  x0:0x00000000
       87205000	      8719	80000ac8	01c000ef	jal	x1,80000ac8	  x1=0x80000ac8
       87215000	      8720	00000000	00000013	addi	x0,x0,0	  x0:0x00000000
       87225000	      8721	80000ae0	00000013	addi	x0,x0,0	  x0:0x00000000
       87235000	      8722	80000ae4	69857217	auipc	x4,0x69857	  x4=0xe9857ae0
       87245000	      8723	80000ae8	034000ef	jal	x1,80000ae8	  x1=0x80000ae8
       87255000	      8724	00000000	00000013	addi	x0,x0,0	  x0:0x00000000
       87265000	      8725	80000b18	00000013	addi	x0,x0,0	  x0:0x00000000
       87275000	      8726	80000b1c	fe5ff0ef	jal	x1,80000b1c	  x1=0x80000b1c
       87285000	      8727	00000000	00000013	addi	x0,x0,0	  x0:0x00000000
       87295000	      8728	80000afc	00000013	addi	x0,x0,0	  x0:0x00000000
       87305000	      8729	80000b00	038000ef	jal	x1,80000b00	  x1=0x80000b00
       87315000	      8730	00000000	00000013	addi	x0,x0,0	  x0:0x00000000
       87325000	      8731	80000b34	00000013	addi	x0,x0,0	  x0:0x00000000
       87335000	      8732	80000b38	ff5ff36f	jal	x6,80000b38	  x6=0x80000b38
       87345000	      8733	00000000	00000013	addi	x0,x0,0	  x0:0x00000000
       87355000	      8734	80000b28	00000013	addi	x0,x0,0	  x0:0x00000000
       87365000	      8735	80000b2c	ffdff36f	jal	x6,80000b2c	  x6=0x80000b2c
       87375000	      8736	00000000	00000013	addi	x0,x0,0	  x0:0x00000000
       87385000	      8737	80000b24	00000013	addi	x0,x0,0	  x0:0x00000000
       87395000	      8738	80000b28	fc5fff6f	jal	x30,80000b28	 x30=0x80000b28
       87405000	      8739	00000000	00000013	addi	x0,x0,0	  x0:0x00000000
       87415000	      8740	80000ae8	00000013	addi	x0,x0,0	  x0:0x00000000
       87425000	      8741	80000aec	01c000ef	jal	x1,80000aec	  x1=0x80000aec
       87435000	      8742	00000000	00000013	addi	x0,x0,0	  x0:0x00000000
       87445000	      8743	80000b04	00000013	addi	x0,x0,0	  x0:0x00000000
       87455000	      8744	80000b08	0340036f	jal	x6,80000b08	  x6=0x80000b08
       87465000	      8745	00000000	00000013	addi	x0,x0,0	  x0:0x00000000
       87475000	      8746	80000b38	00000013	addi	x0,x0,0	  x0:0x00000000
       87485000	      8747	80000b3c	fc9ff0ef	jal	x1,80000b3c	  x1=0x80000b3c
       87495000	      8748	00000000	00000013	addi	x0,x0,0	  x0:0x00000000
       87505000	      8749	80000b00	00000013	addi	x0,x0,0	  x0:0x00000000
       87515000	      8750	80000b04	ff1ff36f	jal	x6,80000b04	  x6=0x80000b04
       87525000	      8751	00000000	00000013	addi	x0,x0,0	  x0:0x00000000
       87535000	      8752	80000af0	00000013	addi	x0,x0,0	  x0:0x00000000
       87545000	      8753	80000af4	03c000ef	jal	x1,80000af4	  x1=0x80000af4
       87555000	      8754	00000000	00000013	addi	x0,x0,0	  x0:0x00000000
       87565000	      8755	80000b2c	00000013	addi	x0,x0,0	  x0:0x00000000
       87575000	      8756	80000b30	fe1ff0ef	jal	x1,80000b30	  x1=0x80000b30
       87585000	      8757	00000000	00000013	addi	x0,x0,0	  x0:0x00000000
       87595000	      8758	80000b0c	00000013	addi	x0,x0,0	  x0:0x00000000
       87605000	      8759	80000b10	fedff0ef	jal	x1,80000b10	  x1=0x80000b10
       87615000	      8760	00000000	00000013	addi	x0,x0,0	  x0:0x00000000
       87625000	      8761	80000af8	00000013	addi	x0,x0,0	  x0:0x00000000
       87635000	      8762	80000afc	0180086f	jal	x16,80000afc	 x16=0x80000afc
       87645000	      8763	00000000	00000013	addi	x0,x0,0	  x0:0x00000000
       87655000	      8764	80000b10	00000013	addi	x0,x0,0	  x0:0x00000000
       87665000	      8765	80000b14	fe5ff2ef	jal	x5,80000b14	  x5=0x80000b14
       87675000	      8766	00000000	00000013	addi	x0,x0,0	  x0:0x00000000
       87685000	      8767	80000af4	00000013	addi	x0,x0,0	  x0:0x00000000
       87695000	      8768	80000af8	02c000ef	jal	x1,80000af8	  x1=0x80000af8
       87705000	      8769	00000000	00000013	addi	x0,x0,0	  x0:0x00000000
       87715000	      8770	80000b20	00000013	addi	x0,x0,0	  x0:0x00000000
       87725000	      8771	80000b24	ffdff0ef	jal	x1,80000b24	  x1=0x80000b24
       87735000	      8772	00000000	00000013	addi	x0,x0,0	  x0:0x00000000
       87745000	      8773	80000b1c	00000013	addi	x0,x0,0	  x0:0x00000000
       87755000	      8774	80000b20	fd1ff36f	jal	x6,80000b20	  x6=0x80000b20
       87765000	      8775	00000000	00000013	addi	x0,x0,0	  x0:0x00000000
       87775000	      8776	80000aec	00000013	addi	x0,x0,0	  x0:0x00000000
       87785000	      8777	80000af0	028000ef	jal	x1,80000af0	  x1=0x80000af0
       87795000	      8778	00000000	00000013	addi	x0,x0,0	  x0:0x00000000
       87805000	      8779	80000b14	00000013	addi	x0,x0,0	  x0:0x00000000
       87815000	      8780	80000b18	01c000ef	jal	x1,80000b18	  x1=0x80000b18
       87825000	      8781	00000000	00000013	addi	x0,x0,0	  x0:0x00000000
       87835000	      8782	80000b30	00000013	addi	x0,x0,0	  x0:0x00000000
       87845000	      8783	80000b34	00c0036f	jal	x6,80000b34	  x6=0x80000b34
       87855000	      8784	00000000	00000013	addi	x0,x0,0	  x0:0x00000000
       87865000	      8785	80000b3c	00000013	addi	x0,x0,0	  x0:0x00000000
       87875000	      8786	80000b40	fcdff7ef	jal	x15,80000b40	 x15=0x80000b40
       87885000	      8787	00000000	00000013	addi	x0,x0,0	  x0:0x00000000
       87895000	      8788	80000b08	00000013	addi	x0,x0,0	  x0:0x00000000
       87905000	      8789	80000b0c	0380036f	jal	x6,80000b0c	  x6=0x80000b0c
       87915000	      8790	00000000	00000013	addi	x0,x0,0	  x0:0x00000000
       87925000	      8791	80000b40	00000013	addi	x0,x0,0	  x0:0x00000000
       87935000	      8792	80000b44	651aad17	auipc	x26,0x651aa	 x26=0xe51aab40
       87945000	      8793	80000b48	050000ef	jal	x1,80000b48	  x1=0x80000b48
       87955000	      8794	00000000	00000013	addi	x0,x0,0	  x0:0x00000000
       87965000	      8795	80000b94	00000013	addi	x0,x0,0	  x0:0x00000000
       87975000	      8796	80000b98	fddff66f	jal	x12,80000b98	 x12=0x80000b98
       87985000	      8797	00000000	00000013	addi	x0,x0,0	  x0:0x00000000
       87995000	      8798	80000b70	00000013	addi	x0,x0,0	  x0:0x00000000
       88005000	      8799	80000b74	030000ef	jal	x1,80000b74	  x1=0x80000b74
       88015000	      8800	00000000	00000013	addi	x0,x0,0	  x0:0x00000000
       88025000	      8801	80000ba0	00000013	addi	x0,x0,0	  x0:0x00000000
       88035000	      8802	80000ba4	fadff36f	jal	x6,80000ba4	  x6=0x80000ba4
       88045000	      8803	00000000	00000013	addi	x0,x0,0	  x0:0x00000000
       88055000	      8804	80000b4c	00000013	addi	x0,x0,0	  x0:0x00000000
       88065000	      8805	80000b50	028001ef	jal	x3,80000b50	  x3=0x80000b50
       88075000	      8806	00000000	00000013	addi	x0,x0,0	  x0:0x00000000
       88085000	      8807	80000b74	00000013	addi	x0,x0,0	  x0:0x00000000
       88095000	      8808	80000b78	0240036f	jal	x6,80000b78	  x6=0x80000b78
       88105000	      8809	00000000	00000013	addi	x0,x0,0	  x0:0x00000000
       88115000	      8810	80000b98	00000013	addi	x0,x0,0	  x0:0x00000000
       88125000	      8811	80000b9c	00c000ef	jal	x1,80000b9c	  x1=0x80000b9c
       88135000	      8812	00000000	00000013	addi	x0,x0,0	  x0:0x00000000
       88145000	      8813	80000ba4	00000013	addi	x0,x0,0	  x0:0x00000000
       88155000	      8814	80000ba8	fd9ff0ef	jal	x1,80000ba8	  x1=0x80000ba8
       88165000	      8815	00000000	00000013	addi	x0,x0,0	  x0:0x00000000
       88175000	      8816	80000b7c	00000013	addi	x0,x0,0	  x0:0x00000000
       88185000	      8817	80000b80	004000ef	jal	x1,80000b80	  x1=0x80000b80
       88195000	      8818	00000000	00000013	addi	x0,x0,0	  x0:0x00000000
       88205000	      8819	80000b80	00000013	addi	x0,x0,0	  x0:0x00000000
       88215000	      8820	80000b84	fe1ff0ef	jal	x1,80000b84	  x1=0x80000b84
       88225000	      8821	00000000	00000013	addi	x0,x0,0	  x0:0x00000000
       88235000	      8822	80000b60	00000013	addi	x0,x0,0	  x0:0x00000000
       88245000	      8823	80000b64	ff1ff0ef	jal	x1,80000b64	  x1=0x80000b64
       88255000	      8824	00000000	00000013	addi	x0,x0,0	  x0:0x00000000
       88265000	      8825	80000b50	00000013	addi	x0,x0,0	  x0:0x00000000
       88275000	      8826	80000b54	ff9ff0ef	jal	x1,80000b54	  x1=0x80000b54
       88285000	      8827	00000000	00000013	addi	x0,x0,0	  x0:0x00000000
       88295000	      8828	80000b48	00000013	addi	x0,x0,0	  x0:0x00000000
       88305000	      8829	80000b4c	044000ef	jal	x1,80000b4c	  x1=0x80000b4c
       88315000	      8830	00000000	00000013	addi	x0,x0,0	  x0:0x00000000
       88325000	      8831	80000b8c	00000013	addi	x0,x0,0	  x0:0x00000000
       88335000	      8832	80000b90	fe1ff0ef	jal	x1,80000b90	  x1=0x80000b90
       88345000	      8833	00000000	00000013	addi	x0,x0,0	  x0:0x00000000
       88355000	      8834	80000b6c	00000013	addi	x0,x0,0	  x0:0x00000000
       88365000	      8835	80000b70	018000ef	jal	x1,80000b70	  x1=0x80000b70
       88375000	      8836	00000000	00000013	addi	x0,x0,0	  x0:0x00000000
       88385000	      8837	80000b84	00000013	addi	x0,x0,0	  x0:0x00000000
       88395000	      8838	80000b88	fe5ff0ef	jal	x1,80000b88	  x1=0x80000b88
       88405000	      8839	00000000	00000013	addi	x0,x0,0	  x0:0x00000000
       88415000	      8840	80000b68	00000013	addi	x0,x0,0	  x0:0x00000000
       88425000	      8841	80000b6c	ff1ff36f	jal	x6,80000b6c	  x6=0x80000b6c
       88435000	      8842	00000000	00000013	addi	x0,x0,0	  x0:0x00000000
       88445000	      8843	80000b58	00000013	addi	x0,x0,0	  x0:0x00000000
       88455000	      8844	80000b5c	038000ef	jal	x1,80000b5c	  x1=0x80000b5c
       88465000	      8845	00000000	00000013	addi	x0,x0,0	  x0:0x00000000
       88475000	      8846	80000b90	00000013	addi	x0,x0,0	  x0:0x00000000
       88485000	      8847	80000b94	fcdff0ef	jal	x1,80000b94	  x1=0x80000b94
       88495000	      8848	00000000	00000013	addi	x0,x0,0	  x0:0x00000000
       88505000	      8849	80000b5c	00000013	addi	x0,x0,0	  x0:0x00000000
       88515000	      8850	80000b60	01c0016f	jal	x2,80000b60	  x2=0x80000b60
       88525000	      8851	00000000	00000013	addi	x0,x0,0	  x0:0x00000000
       88535000	      8852	80000b78	00000013	addi	x0,x0,0	  x0:0x00000000
       88545000	      8853	80000b7c	fddff0ef	jal	x1,80000b7c	  x1=0x80000b7c
       88555000	      8854	00000000	00000013	addi	x0,x0,0	  x0:0x00000000
       88565000	      8855	80000b54	00000013	addi	x0,x0,0	  x0:0x00000000
       88575000	      8856	80000b58	048000ef	jal	x1,80000b58	  x1=0x80000b58
       88585000	      8857	00000000	00000013	addi	x0,x0,0	  x0:0x00000000
       88595000	      8858	80000b9c	00000013	addi	x0,x0,0	  x0:0x00000000
       88605000	      8859	80000ba0	fedff0ef	jal	x1,80000ba0	  x1=0x80000ba0
       88615000	      8860	00000000	00000013	addi	x0,x0,0	  x0:0x00000000
       88625000	      8861	80000b88	00000013	addi	x0,x0,0	  x0:0x00000000
       88635000	      8862	80000b8c	fddffcef	jal	x25,80000b8c	 x25=0x80000b8c
       88645000	      8863	00000000	00000013	addi	x0,x0,0	  x0:0x00000000
       88655000	      8864	80000b64	00000013	addi	x0,x0,0	  x0:0x00000000
       88665000	      8865	80000b68	044007ef	jal	x15,80000b68	 x15=0x80000b68
       88675000	      8866	00000000	00000013	addi	x0,x0,0	  x0:0x00000000
       88685000	      8867	80000ba8	00000013	addi	x0,x0,0	  x0:0x00000000
       88695000	      8868	80000bac	e1033f13	sltiu	x30,x6,-496	  x6:0x80000b6c x30=0x00000001
       88705000	      8869	80000bb0	020000ef	jal	x1,80000bb0	  x1=0x80000bb0
       88715000	      8870	00000000	00000013	addi	x0,x0,0	  x0:0x00000000
       88725000	      8871	80000bcc	00000013	addi	x0,x0,0	  x0:0x00000000
       88735000	      8872	80000bd0	fe5ff26f	jal	x4,80000bd0	  x4=0x80000bd0
       88745000	      8873	00000000	00000013	addi	x0,x0,0	  x0:0x00000000
       88755000	      8874	80000bb0	00000013	addi	x0,x0,0	  x0:0x00000000
       88765000	      8875	80000bb4	06400c6f	jal	x24,80000bb4	 x24=0x80000bb4
       88775000	      8876	00000000	00000013	addi	x0,x0,0	  x0:0x00000000
       88785000	      8877	80000c14	00000013	addi	x0,x0,0	  x0:0x00000000
       88795000	      8878	80000c18	fd1ff36f	jal	x6,80000c18	  x6=0x80000c18
       88805000	      8879	00000000	00000013	addi	x0,x0,0	  x0:0x00000000
       88815000	      8880	80000be4	00000013	addi	x0,x0,0	  x0:0x00000000
       88825000	      8881	80000be8	0180016f	jal	x2,80000be8	  x2=0x80000be8
       88835000	      8882	00000000	00000013	addi	x0,x0,0	  x0:0x00000000
       88845000	      8883	80000bfc	00000013	addi	x0,x0,0	  x0:0x00000000
       88855000	      8884	80000c00	fbdff36f	jal	x6,80000c00	  x6=0x80000c00
       88865000	      8885	00000000	00000013	addi	x0,x0,0	  x0:0x00000000
       88875000	      8886	80000bb8	00000013	addi	x0,x0,0	  x0:0x00000000
       88885000	      8887	80000bbc	0200036f	jal	x6,80000bbc	  x6=0x80000bbc
       88895000	      8888	00000000	00000013	addi	x0,x0,0	  x0:0x00000000
       88905000	      8889	80000bd8	00000013	addi	x0,x0,0	  x0:0x00000000
       88915000	      8890	80000bdc	ffdff0ef	jal	x1,80000bdc	  x1=0x80000bdc
       88925000	      8891	00000000	00000013	addi	x0,x0,0	  x0:0x00000000
       88935000	      8892	80000bd4	00000013	addi	x0,x0,0	  x0:0x00000000
       88945000	      8893	80000bd8	014000ef	jal	x1,80000bd8	  x1=0x80000bd8
       88955000	      8894	00000000	00000013	addi	x0,x0,0	  x0:0x00000000
       88965000	      8895	80000be8	00000013	addi	x0,x0,0	  x0:0x00000000
       88975000	      8896	80000bec	030000ef	jal	x1,80000bec	  x1=0x80000bec
       88985000	      8897	00000000	00000013	addi	x0,x0,0	  x0:0x00000000
       88995000	      8898	80000c18	00000013	addi	x0,x0,0	  x0:0x00000000
       89005000	      8899	80000c1c	fa9ff0ef	jal	x1,80000c1c	  x1=0x80000c1c
       89015000	      8900	00000000	00000013	addi	x0,x0,0	  x0:0x00000000
       89025000	      8901	80000bc0	00000013	addi	x0,x0,0	  x0:0x00000000
       89035000	      8902	80000bc4	008000ef	jal	x1,80000bc4	  x1=0x80000bc4
       89045000	      8903	00000000	00000013	addi	x0,x0,0	  x0:0x00000000
       89055000	      8904	80000bc8	00000013	addi	x0,x0,0	  x0:0x00000000
       89065000	      8905	80000bcc	008000ef	jal	x1,80000bcc	  x1=0x80000bcc
       89075000	      8906	00000000	00000013	addi	x0,x0,0	  x0:0x00000000
       89085000	      8907	80000bd0	00000013	addi	x0,x0,0	  x0:0x00000000
       89095000	      8908	80000bd4	ff5ff36f	jal	x6,80000bd4	  x6=0x80000bd4
       89105000	      8909	00000000	00000013	addi	x0,x0,0	  x0:0x00000000
       89115000	      8910	80000bc4	00000013	addi	x0,x0,0	  x0:0x00000000
       89125000	      8911	80000bc8	030000ef	jal	x1,80000bc8	  x1=0x80000bc8
       89135000	      8912	00000000	00000013	addi	x0,x0,0	  x0:0x00000000
       89145000	      8913	80000bf4	00000013	addi	x0,x0,0	  x0:0x00000000
       89155000	      8914	80000bf8	fe9ff0ef	jal	x1,80000bf8	  x1=0x80000bf8
       89165000	      8915	00000000	00000013	addi	x0,x0,0	  x0:0x00000000
       89175000	      8916	80000bdc	00000013	addi	x0,x0,0	  x0:0x00000000
       89185000	      8917	80000be0	044007ef	jal	x15,80000be0	 x15=0x80000be0
       89195000	      8918	00000000	00000013	addi	x0,x0,0	  x0:0x00000000
       89205000	      8919	80000c20	00000013	addi	x0,x0,0	  x0:0x00000000
       89215000	      8920	80000c24	f95ff36f	jal	x6,80000c24	  x6=0x80000c24
       89225000	      8921	00000000	00000013	addi	x0,x0,0	  x0:0x00000000
       89235000	      8922	80000bb4	00000013	addi	x0,x0,0	  x0:0x00000000
       89245000	      8923	80000bb8	050000ef	jal	x1,80000bb8	  x1=0x80000bb8
       89255000	      8924	00000000	00000013	addi	x0,x0,0	  x0:0x00000000
       89265000	      8925	80000c04	00000013	addi	x0,x0,0	  x0:0x00000000
       89275000	      8926	80000c08	008000ef	jal	x1,80000c08	  x1=0x80000c08
       89285000	      8927	00000000	00000013	addi	x0,x0,0	  x0:0x00000000
       89295000	      8928	80000c0c	00000013	addi	x0,x0,0	  x0:0x00000000
       89305000	      8929	80000c10	ff5ffe6f	jal	x28,80000c10	 x28=0x80000c10
       89315000	      8930	00000000	00000013	addi	x0,x0,0	  x0:0x00000000
       89325000	      8931	80000c00	00000013	addi	x0,x0,0	  x0:0x00000000
       89335000	      8932	80000c04	fbdffb6f	jal	x22,80000c04	 x22=0x80000c04
       89345000	      8933	00000000	00000013	addi	x0,x0,0	  x0:0x00000000
       89355000	      8934	80000bbc	00000013	addi	x0,x0,0	  x0:0x00000000
       89365000	      8935	80000bc0	03c000ef	jal	x1,80000bc0	  x1=0x80000bc0
       89375000	      8936	00000000	00000013	addi	x0,x0,0	  x0:0x00000000
       89385000	      8937	80000bf8	00000013	addi	x0,x0,0	  x0:0x00000000
       89395000	      8938	80000bfc	ff9ff0ef	jal	x1,80000bfc	  x1=0x80000bfc
       89405000	      8939	00000000	00000013	addi	x0,x0,0	  x0:0x00000000
       89415000	      8940	80000bf0	00000013	addi	x0,x0,0	  x0:0x00000000
       89425000	      8941	80000bf4	ff1ffe6f	jal	x28,80000bf4	 x28=0x80000bf4
       89435000	      8942	00000000	00000013	addi	x0,x0,0	  x0:0x00000000
       89445000	      8943	80000be0	00000013	addi	x0,x0,0	  x0:0x00000000
       89455000	      8944	80000be4	030000ef	jal	x1,80000be4	  x1=0x80000be4
       89465000	      8945	00000000	00000013	addi	x0,x0,0	  x0:0x00000000
       89475000	      8946	80000c10	00000013	addi	x0,x0,0	  x0:0x00000000
       89485000	      8947	80000c14	00c0036f	jal	x6,80000c14	  x6=0x80000c14
       89495000	      8948	00000000	00000013	addi	x0,x0,0	  x0:0x00000000
       89505000	      8949	80000c1c	00000013	addi	x0,x0,0	  x0:0x00000000
       89515000	      8950	80000c20	fd1ff6ef	jal	x13,80000c20	 x13=0x80000c20
       89525000	      8951	00000000	00000013	addi	x0,x0,0	  x0:0x00000000
       89535000	      8952	80000bec	00000013	addi	x0,x0,0	  x0:0x00000000
       89545000	      8953	80000bf0	01c000ef	jal	x1,80000bf0	  x1=0x80000bf0
       89555000	      8954	00000000	00000013	addi	x0,x0,0	  x0:0x00000000
       89565000	      8955	80000c08	00000013	addi	x0,x0,0	  x0:0x00000000
       89575000	      8956	80000c0c	01c0036f	jal	x6,80000c0c	  x6=0x80000c0c
       89585000	      8957	00000000	00000013	addi	x0,x0,0	  x0:0x00000000
       89595000	      8958	80000c24	00000013	addi	x0,x0,0	  x0:0x00000000
       89605000	      8959	80000c28	413109b3	sub	x19,x2,x19	  x2:0x80000be8 x19:0x80000a8c x19=0x0000015c
       89615000	      8960	80000c2c	044000ef	jal	x1,80000c2c	  x1=0x80000c2c
       89625000	      8961	00000000	00000013	addi	x0,x0,0	  x0:0x00000000
       89635000	      8962	80000c6c	00000013	addi	x0,x0,0	  x0:0x00000000
       89645000	      8963	80000c70	008000ef	jal	x1,80000c70	  x1=0x80000c70
       89655000	      8964	00000000	00000013	addi	x0,x0,0	  x0:0x00000000
       89665000	      8965	80000c74	00000013	addi	x0,x0,0	  x0:0x00000000
       89675000	      8966	80000c78	00c000ef	jal	x1,80000c78	  x1=0x80000c78
       89685000	      8967	00000000	00000013	addi	x0,x0,0	  x0:0x00000000
       89695000	      8968	80000c80	00000013	addi	x0,x0,0	  x0:0x00000000
       89705000	      8969	80000c84	fbdff1ef	jal	x3,80000c84	  x3=0x80000c84
       89715000	      8970	00000000	00000013	addi	x0,x0,0	  x0:0x00000000
       89725000	      8971	80000c3c	00000013	addi	x0,x0,0	  x0:0x00000000
       89735000	      8972	80000c40	034000ef	jal	x1,80000c40	  x1=0x80000c40
       89745000	      8973	00000000	00000013	addi	x0,x0,0	  x0:0x00000000
       89755000	      8974	80000c70	00000013	addi	x0,x0,0	  x0:0x00000000
       89765000	      8975	80000c74	fc5ff0ef	jal	x1,80000c74	  x1=0x80000c74
       89775000	      8976	00000000	00000013	addi	x0,x0,0	  x0:0x00000000
       89785000	      8977	80000c34	00000013	addi	x0,x0,0	  x0:0x00000000
       89795000	      8978	80000c38	02c003ef	jal	x7,80000c38	  x7=0x80000c38
       89805000	      8979	00000000	00000013	addi	x0,x0,0	  x0:0x00000000
       89815000	      8980	80000c60	00000013	addi	x0,x0,0	  x0:0x00000000
       89825000	      8981	80000c64	ffdffd6f	jal	x26,80000c64	 x26=0x80000c64
       89835000	      8982	00000000	00000013	addi	x0,x0,0	  x0:0x00000000
       89845000	      8983	80000c5c	00000013	addi	x0,x0,0	  x0:0x00000000
       89855000	      8984	80000c60	fe9ff36f	jal	x6,80000c60	  x6=0x80000c60
       89865000	      8985	00000000	00000013	addi	x0,x0,0	  x0:0x00000000
       89875000	      8986	80000c44	00000013	addi	x0,x0,0	  x0:0x00000000
       89885000	      8987	80000c48	038000ef	jal	x1,80000c48	  x1=0x80000c48
       89895000	      8988	00000000	00000013	addi	x0,x0,0	  x0:0x00000000
       89905000	      8989	80000c7c	00000013	addi	x0,x0,0	  x0:0x00000000
       89915000	      8990	80000c80	fb1ff2ef	jal	x5,80000c80	  x5=0x80000c80
       89925000	      8991	00000000	00000013	addi	x0,x0,0	  x0:0x00000000
       89935000	      8992	80000c2c	00000013	addi	x0,x0,0	  x0:0x00000000
       89945000	      8993	80000c30	004000ef	jal	x1,80000c30	  x1=0x80000c30
       89955000	      8994	00000000	00000013	addi	x0,x0,0	  x0:0x00000000
       89965000	      8995	80000c30	00000013	addi	x0,x0,0	  x0:0x00000000
       89975000	      8996	80000c34	038000ef	jal	x1,80000c34	  x1=0x80000c34
       89985000	      8997	00000000	00000013	addi	x0,x0,0	  x0:0x00000000
       89995000	      8998	80000c68	00000013	addi	x0,x0,0	  x0:0x00000000
       90005000	      8999	80000c6c	028000ef	jal	x1,80000c6c	  x1=0x80000c6c
       90015000	      9000	00000000	00000013	addi	x0,x0,0	  x0:0x00000000
       90025000	      9001	80000c90	00000013	addi	x0,x0,0	  x0:0x00000000
       90035000	      9002	80000c94	fc1ff0ef	jal	x1,80000c94	  x1=0x80000c94
       90045000	      9003	00000000	00000013	addi	x0,x0,0	  x0:0x00000000
       90055000	      9004	80000c50	00000013	addi	x0,x0,0	  x0:0x00000000
       90065000	      9005	80000c54	ff1ff36f	jal	x6,80000c54	  x6=0x80000c54
       90075000	      9006	00000000	00000013	addi	x0,x0,0	  x0:0x00000000
       90085000	      9007	80000c40	00000013	addi	x0,x0,0	  x0:0x00000000
       90095000	      9008	80000c44	ff9ff26f	jal	x4,80000c44	  x4=0x80000c44
       90105000	      9009	00000000	00000013	addi	x0,x0,0	  x0:0x00000000
       90115000	      9010	80000c38	00000013	addi	x0,x0,0	  x0:0x00000000
       90125000	      9011	80000c3c	04c000ef	jal	x1,80000c3c	  x1=0x80000c3c
       90135000	      9012	00000000	00000013	addi	x0,x0,0	  x0:0x00000000
       90145000	      9013	80000c84	00000013	addi	x0,x0,0	  x0:0x00000000
       90155000	      9014	80000c88	004000ef	jal	x1,80000c88	  x1=0x80000c88
       90165000	      9015	00000000	00000013	addi	x0,x0,0	  x0:0x00000000
       90175000	      9016	80000c88	00000013	addi	x0,x0,0	  x0:0x00000000
       90185000	      9017	80000c8c	fd1ff0ef	jal	x1,80000c8c	  x1=0x80000c8c
       90195000	      9018	00000000	00000013	addi	x0,x0,0	  x0:0x00000000
       90205000	      9019	80000c58	00000013	addi	x0,x0,0	  x0:0x00000000
       90215000	      9020	80000c5c	ff1ff0ef	jal	x1,80000c5c	  x1=0x80000c5c
       90225000	      9021	00000000	00000013	addi	x0,x0,0	  x0:0x00000000
       90235000	      9022	80000c48	00000013	addi	x0,x0,0	  x0:0x00000000
       90245000	      9023	80000c4c	030003ef	jal	x7,80000c4c	  x7=0x80000c4c
       90255000	      9024	00000000	00000013	addi	x0,x0,0	  x0:0x00000000
       90265000	      9025	80000c78	00000013	addi	x0,x0,0	  x0:0x00000000
       90275000	      9026	80000c7c	fddff36f	jal	x6,80000c7c	  x6=0x80000c7c
       90285000	      9027	00000000	00000013	addi	x0,x0,0	  x0:0x00000000
       90295000	      9028	80000c54	00000013	addi	x0,x0,0	  x0:0x00000000
       90305000	      9029	80000c58	010000ef	jal	x1,80000c58	  x1=0x80000c58
       90315000	      9030	00000000	00000013	addi	x0,x0,0	  x0:0x00000000
       90325000	      9031	80000c64	00000013	addi	x0,x0,0	  x0:0x00000000
       90335000	      9032	80000c68	fe9ff16f	jal	x2,80000c68	  x2=0x80000c68
       90345000	      9033	00000000	00000013	addi	x0,x0,0	  x0:0x00000000
       90355000	      9034	80000c4c	00000013	addi	x0,x0,0	  x0:0x00000000
       90365000	      9035	80000c50	040000ef	jal	x1,80000c50	  x1=0x80000c50
       90375000	      9036	00000000	00000013	addi	x0,x0,0	  x0:0x00000000
       90385000	      9037	80000c8c	00000013	addi	x0,x0,0	  x0:0x00000000
       90395000	      9038	80000c90	008003ef	jal	x7,80000c90	  x7=0x80000c90
       90405000	      9039	00000000	00000013	addi	x0,x0,0	  x0:0x00000000
       90415000	      9040	80000c94	00000013	addi	x0,x0,0	  x0:0x00000000
       90425000	      9041	80000c98	00dbde93	srli	x29,x23,0xd	 x23:0x80009f64 x29=0x00040004
       90435000	      9042	80000c9c	050000ef	jal	x1,80000c9c	  x1=0x80000c9c
       90445000	      9043	00000000	00000013	addi	x0,x0,0	  x0:0x00000000
       90455000	      9044	80000ce8	00000013	addi	x0,x0,0	  x0:0x00000000
       90465000	      9045	80000cec	00800f6f	jal	x30,80000cec	 x30=0x80000cec
       90475000	      9046	00000000	00000013	addi	x0,x0,0	  x0:0x00000000
       90485000	      9047	80000cf0	00000013	addi	x0,x0,0	  x0:0x00000000
       90495000	      9048	80000cf4	ffdff36f	jal	x6,80000cf4	  x6=0x80000cf4
       90505000	      9049	00000000	00000013	addi	x0,x0,0	  x0:0x00000000
       90515000	      9050	80000cec	00000013	addi	x0,x0,0	  x0:0x00000000
       90525000	      9051	80000cf0	01000eef	jal	x29,80000cf0	 x29=0x80000cf0
       90535000	      9052	00000000	00000013	addi	x0,x0,0	  x0:0x00000000
       90545000	      9053	80000cfc	00000013	addi	x0,x0,0	  x0:0x00000000
       90555000	      9054	80000d00	fd5ff1ef	jal	x3,80000d00	  x3=0x80000d00
       90565000	      9055	00000000	00000013	addi	x0,x0,0	  x0:0x00000000
       90575000	      9056	80000cd0	00000013	addi	x0,x0,0	  x0:0x00000000
       90585000	      9057	80000cd4	00c000ef	jal	x1,80000cd4	  x1=0x80000cd4
       90595000	      9058	00000000	00000013	addi	x0,x0,0	  x0:0x00000000
       90605000	      9059	80000cdc	00000013	addi	x0,x0,0	  x0:0x00000000
       90615000	      9060	80000ce0	ff9fffef	jal	x31,80000ce0	 x31=0x80000ce0
       90625000	      9061	00000000	00000013	addi	x0,x0,0	  x0:0x00000000
       90635000	      9062	80000cd4	00000013	addi	x0,x0,0	  x0:0x00000000
       90645000	      9063	80000cd8	02c000ef	jal	x1,80000cd8	  x1=0x80000cd8
       90655000	      9064	00000000	00000013	addi	x0,x0,0	  x0:0x00000000
       90665000	      9065	80000d00	00000013	addi	x0,x0,0	  x0:0x00000000
       90675000	      9066	80000d04	fe1ff0ef	jal	x1,80000d04	  x1=0x80000d04
       90685000	      9067	00000000	00000013	addi	x0,x0,0	  x0:0x00000000
       90695000	      9068	80000ce0	00000013	addi	x0,x0,0	  x0:0x00000000
       90705000	      9069	80000ce4	fd9ff36f	jal	x6,80000ce4	  x6=0x80000ce4
       90715000	      9070	00000000	00000013	addi	x0,x0,0	  x0:0x00000000
       90725000	      9071	80000cb8	00000013	addi	x0,x0,0	  x0:0x00000000
       90735000	      9072	80000cbc	040000ef	jal	x1,80000cbc	  x1=0x80000cbc
       90745000	      9073	00000000	00000013	addi	x0,x0,0	  x0:0x00000000
       90755000	      9074	80000cf8	00000013	addi	x0,x0,0	  x0:0x00000000
       90765000	      9075	80000cfc	fbdfffef	jal	x31,80000cfc	 x31=0x80000cfc
       90775000	      9076	00000000	00000013	addi	x0,x0,0	  x0:0x00000000
       90785000	      9077	80000cb4	00000013	addi	x0,x0,0	  x0:0x00000000
       90795000	      9078	80000cb8	fe9ff0ef	jal	x1,80000cb8	  x1=0x80000cb8
       90805000	      9079	00000000	00000013	addi	x0,x0,0	  x0:0x00000000
       90815000	      9080	80000c9c	00000013	addi	x0,x0,0	  x0:0x00000000
       90825000	      9081	80000ca0	0200036f	jal	x6,80000ca0	  x6=0x80000ca0
       90835000	      9082	00000000	00000013	addi	x0,x0,0	  x0:0x00000000
       90845000	      9083	80000cbc	00000013	addi	x0,x0,0	  x0:0x00000000
       90855000	      9084	80000cc0	008000ef	jal	x1,80000cc0	  x1=0x80000cc0
       90865000	      9085	00000000	00000013	addi	x0,x0,0	  x0:0x00000000
       90875000	      9086	80000cc4	00000013	addi	x0,x0,0	  x0:0x00000000
       90885000	      9087	80000cc8	020000ef	jal	x1,80000cc8	  x1=0x80000cc8
       90895000	      9088	00000000	00000013	addi	x0,x0,0	  x0:0x00000000
       90905000	      9089	80000ce4	00000013	addi	x0,x0,0	  x0:0x00000000
       90915000	      9090	80000ce8	ff5ff46f	jal	x8,80000ce8	  x8=0x80000ce8
       90925000	      9091	00000000	00000013	addi	x0,x0,0	  x0:0x00000000
       90935000	      9092	80000cd8	00000013	addi	x0,x0,0	  x0:0x00000000
       90945000	      9093	80000cdc	ff5ff0ef	jal	x1,80000cdc	  x1=0x80000cdc
       90955000	      9094	00000000	00000013	addi	x0,x0,0	  x0:0x00000000
       90965000	      9095	80000ccc	00000013	addi	x0,x0,0	  x0:0x00000000
       90975000	      9096	80000cd0	ffdff0ef	jal	x1,80000cd0	  x1=0x80000cd0
       90985000	      9097	00000000	00000013	addi	x0,x0,0	  x0:0x00000000
       90995000	      9098	80000cc8	00000013	addi	x0,x0,0	  x0:0x00000000
       91005000	      9099	80000ccc	ff9ff0ef	jal	x1,80000ccc	  x1=0x80000ccc
       91015000	      9100	00000000	00000013	addi	x0,x0,0	  x0:0x00000000
       91025000	      9101	80000cc0	00000013	addi	x0,x0,0	  x0:0x00000000
       91035000	      9102	80000cc4	034000ef	jal	x1,80000cc4	  x1=0x80000cc4
       91045000	      9103	00000000	00000013	addi	x0,x0,0	  x0:0x00000000
       91055000	      9104	80000cf4	00000013	addi	x0,x0,0	  x0:0x00000000
       91065000	      9105	80000cf8	fb1ff36f	jal	x6,80000cf8	  x6=0x80000cf8
       91075000	      9106	00000000	00000013	addi	x0,x0,0	  x0:0x00000000
       91085000	      9107	80000ca4	00000013	addi	x0,x0,0	  x0:0x00000000
       91095000	      9108	80000ca8	00800aef	jal	x21,80000ca8	 x21=0x80000ca8
       91105000	      9109	00000000	00000013	addi	x0,x0,0	  x0:0x00000000
       91115000	      9110	80000cac	00000013	addi	x0,x0,0	  x0:0x00000000
       91125000	      9111	80000cb0	ff5ff0ef	jal	x1,80000cb0	  x1=0x80000cb0
       91135000	      9112	00000000	00000013	addi	x0,x0,0	  x0:0x00000000
       91145000	      9113	80000ca0	00000013	addi	x0,x0,0	  x0:0x00000000
       91155000	      9114	80000ca4	01000fef	jal	x31,80000ca4	 x31=0x80000ca4
       91165000	      9115	00000000	00000013	addi	x0,x0,0	  x0:0x00000000
       91175000	      9116	80000cb0	00000013	addi	x0,x0,0	  x0:0x00000000
       91185000	      9117	80000cb4	ff9ff0ef	jal	x1,80000cb4	  x1=0x80000cb4
       91195000	      9118	00000000	00000013	addi	x0,x0,0	  x0:0x00000000
       91205000	      9119	80000ca8	00000013	addi	x0,x0,0	  x0:0x00000000
       91215000	      9120	80000cac	05c000ef	jal	x1,80000cac	  x1=0x80000cac
       91225000	      9121	00000000	00000013	addi	x0,x0,0	  x0:0x00000000
       91235000	      9122	80000d04	00000013	addi	x0,x0,0	  x0:0x00000000
       91245000	      9123	80000d08	7233f293	andi	x5,x7,1827	  x7:0x80000c90  x5=0x00000400
       91255000	      9124	80000d0c	010000ef	jal	x1,80000d0c	  x1=0x80000d0c
       91265000	      9125	00000000	00000013	addi	x0,x0,0	  x0:0x00000000
       91275000	      9126	80000d18	00000013	addi	x0,x0,0	  x0:0x00000000
       91285000	      9127	80000d1c	04c000ef	jal	x1,80000d1c	  x1=0x80000d1c
       91295000	      9128	00000000	00000013	addi	x0,x0,0	  x0:0x00000000
       91305000	      9129	80000d64	00000013	addi	x0,x0,0	  x0:0x00000000
       91315000	      9130	80000d68	ff5ff36f	jal	x6,80000d68	  x6=0x80000d68
       91325000	      9131	00000000	00000013	addi	x0,x0,0	  x0:0x00000000
       91335000	      9132	80000d58	00000013	addi	x0,x0,0	  x0:0x00000000
       91345000	      9133	80000d5c	fd5ff56f	jal	x10,80000d5c	 x10=0x80000d5c
       91355000	      9134	00000000	00000013	addi	x0,x0,0	  x0:0x00000000
       91365000	      9135	80000d2c	00000013	addi	x0,x0,0	  x0:0x00000000
       91375000	      9136	80000d30	ff9ff0ef	jal	x1,80000d30	  x1=0x80000d30
       91385000	      9137	00000000	00000013	addi	x0,x0,0	  x0:0x00000000
       91395000	      9138	80000d24	00000013	addi	x0,x0,0	  x0:0x00000000
       91405000	      9139	80000d28	010007ef	jal	x15,80000d28	 x15=0x80000d28
       91415000	      9140	00000000	00000013	addi	x0,x0,0	  x0:0x00000000
       91425000	      9141	80000d34	00000013	addi	x0,x0,0	  x0:0x00000000
       91435000	      9142	80000d38	fe9ffe6f	jal	x28,80000d38	 x28=0x80000d38
       91445000	      9143	00000000	00000013	addi	x0,x0,0	  x0:0x00000000
       91455000	      9144	80000d1c	00000013	addi	x0,x0,0	  x0:0x00000000
       91465000	      9145	80000d20	01c000ef	jal	x1,80000d20	  x1=0x80000d20
       91475000	      9146	00000000	00000013	addi	x0,x0,0	  x0:0x00000000
       91485000	      9147	80000d38	00000013	addi	x0,x0,0	  x0:0x00000000
       91495000	      9148	80000d3c	038000ef	jal	x1,80000d3c	  x1=0x80000d3c
       91505000	      9149	00000000	00000013	addi	x0,x0,0	  x0:0x00000000
       91515000	      9150	80000d70	00000013	addi	x0,x0,0	  x0:0x00000000
       91525000	      9151	80000d74	ff9ff26f	jal	x4,80000d74	  x4=0x80000d74
       91535000	      9152	00000000	00000013	addi	x0,x0,0	  x0:0x00000000
       91545000	      9153	80000d68	00000013	addi	x0,x0,0	  x0:0x00000000
       91555000	      9154	80000d6c	ff9ff0ef	jal	x1,80000d6c	  x1=0x80000d6c
       91565000	      9155	00000000	00000013	addi	x0,x0,0	  x0:0x00000000
       91575000	      9156	80000d60	00000013	addi	x0,x0,0	  x0:0x00000000
       91585000	      9157	80000d64	00c000ef	jal	x1,80000d64	  x1=0x80000d64
       91595000	      9158	00000000	00000013	addi	x0,x0,0	  x0:0x00000000
       91605000	      9159	80000d6c	00000013	addi	x0,x0,0	  x0:0x00000000
       91615000	      9160	80000d70	fe9ff0ef	jal	x1,80000d70	  x1=0x80000d70
       91625000	      9161	00000000	00000013	addi	x0,x0,0	  x0:0x00000000
       91635000	      9162	80000d54	00000013	addi	x0,x0,0	  x0:0x00000000
       91645000	      9163	80000d58	fbdff36f	jal	x6,80000d58	  x6=0x80000d58
       91655000	      9164	00000000	00000013	addi	x0,x0,0	  x0:0x00000000
       91665000	      9165	80000d10	00000013	addi	x0,x0,0	  x0:0x00000000
       91675000	      9166	80000d14	040000ef	jal	x1,80000d14	  x1=0x80000d14
       91685000	      9167	00000000	00000013	addi	x0,x0,0	  x0:0x00000000
       91695000	      9168	80000d50	00000013	addi	x0,x0,0	  x0:0x00000000
       91705000	      9169	80000d54	ffdff1ef	jal	x3,80000d54	  x3=0x80000d54
       91715000	      9170	00000000	00000013	addi	x0,x0,0	  x0:0x00000000
       91725000	      9171	80000d4c	00000013	addi	x0,x0,0	  x0:0x00000000
       91735000	      9172	80000d50	fd5ff0ef	jal	x1,80000d50	  x1=0x80000d50
       91745000	      9173	00000000	00000013	addi	x0,x0,0	  x0:0x00000000
       91755000	      9174	80000d20	00000013	addi	x0,x0,0	  x0:0x00000000
       91765000	      9175	80000d24	fedff0ef	jal	x1,80000d24	  x1=0x80000d24
       91775000	      9176	00000000	00000013	addi	x0,x0,0	  x0:0x00000000
       91785000	      9177	80000d0c	00000013	addi	x0,x0,0	  x0:0x00000000
       91795000	      9178	80000d10	050000ef	jal	x1,80000d10	  x1=0x80000d10
       91805000	      9179	00000000	00000013	addi	x0,x0,0	  x0:0x00000000
       91815000	      9180	80000d5c	00000013	addi	x0,x0,0	  x0:0x00000000
       91825000	      9181	80000d60	fcdff0ef	jal	x1,80000d60	  x1=0x80000d60
       91835000	      9182	00000000	00000013	addi	x0,x0,0	  x0:0x00000000
       91845000	      9183	80000d28	00000013	addi	x0,x0,0	  x0:0x00000000
       91855000	      9184	80000d2c	020000ef	jal	x1,80000d2c	  x1=0x80000d2c
       91865000	      9185	00000000	00000013	addi	x0,x0,0	  x0:0x00000000
       91875000	      9186	80000d48	00000013	addi	x0,x0,0	  x0:0x00000000
       91885000	      9187	80000d4c	fcdfffef	jal	x31,80000d4c	 x31=0x80000d4c
       91895000	      9188	00000000	00000013	addi	x0,x0,0	  x0:0x00000000
       91905000	      9189	80000d14	00000013	addi	x0,x0,0	  x0:0x00000000
       91915000	      9190	80000d18	01c0036f	jal	x6,80000d18	  x6=0x80000d18
       91925000	      9191	00000000	00000013	addi	x0,x0,0	  x0:0x00000000
       91935000	      9192	80000d30	00000013	addi	x0,x0,0	  x0:0x00000000
       91945000	      9193	80000d34	014000ef	jal	x1,80000d34	  x1=0x80000d34
       91955000	      9194	00000000	00000013	addi	x0,x0,0	  x0:0x00000000
       91965000	      9195	80000d44	00000013	addi	x0,x0,0	  x0:0x00000000
       91975000	      9196	80000d48	ff9ff0ef	jal	x1,80000d48	  x1=0x80000d48
       91985000	      9197	00000000	00000013	addi	x0,x0,0	  x0:0x00000000
       91995000	      9198	80000d3c	00000013	addi	x0,x0,0	  x0:0x00000000
       92005000	      9199	80000d40	0040036f	jal	x6,80000d40	  x6=0x80000d40
       92015000	      9200	00000000	00000013	addi	x0,x0,0	  x0:0x00000000
       92025000	      9201	80000d40	00000013	addi	x0,x0,0	  x0:0x00000000
       92035000	      9202	80000d44	034000ef	jal	x1,80000d44	  x1=0x80000d44
       92045000	      9203	00000000	00000013	addi	x0,x0,0	  x0:0x00000000
       92055000	      9204	80000d74	00000013	addi	x0,x0,0	  x0:0x00000000
       92065000	      9205	80000d78	f9dec513	xori	x10,x29,-99	 x29:0x80000cf0 x10=0x7ffff36d
       92075000	      9206	80000d7c	030000ef	jal	x1,80000d7c	  x1=0x80000d7c
       92085000	      9207	00000000	00000013	addi	x0,x0,0	  x0:0x00000000
       92095000	      9208	80000da8	00000013	addi	x0,x0,0	  x0:0x00000000
       92105000	      9209	80000dac	008000ef	jal	x1,80000dac	  x1=0x80000dac
       92115000	      9210	00000000	00000013	addi	x0,x0,0	  x0:0x00000000
       92125000	      9211	80000db0	00000013	addi	x0,x0,0	  x0:0x00000000
       92135000	      9212	80000db4	01000def	jal	x27,80000db4	 x27=0x80000db4
       92145000	      9213	00000000	00000013	addi	x0,x0,0	  x0:0x00000000
       92155000	      9214	80000dc0	00000013	addi	x0,x0,0	  x0:0x00000000
       92165000	      9215	80000dc4	014000ef	jal	x1,80000dc4	  x1=0x80000dc4
       92175000	      9216	00000000	00000013	addi	x0,x0,0	  x0:0x00000000
       92185000	      9217	80000dd4	00000013	addi	x0,x0,0	  x0:0x00000000
       92195000	      9218	80000dd8	fadfff6f	jal	x30,80000dd8	 x30=0x80000dd8
       92205000	      9219	00000000	00000013	addi	x0,x0,0	  x0:0x00000000
       92215000	      9220	80000d80	00000013	addi	x0,x0,0	  x0:0x00000000
       92225000	      9221	80000d84	068000ef	jal	x1,80000d84	  x1=0x80000d84
       92235000	      9222	00000000	00000013	addi	x0,x0,0	  x0:0x00000000
       92245000	      9223	80000de8	00000013	addi	x0,x0,0	  x0:0x00000000
       92255000	      9224	80000dec	fb5ff0ef	jal	x1,80000dec	  x1=0x80000dec
       92265000	      9225	00000000	00000013	addi	x0,x0,0	  x0:0x00000000
       92275000	      9226	80000d9c	00000013	addi	x0,x0,0	  x0:0x00000000
       92285000	      9227	80000da0	03c0036f	jal	x6,80000da0	  x6=0x80000da0
       92295000	      9228	00000000	00000013	addi	x0,x0,0	  x0:0x00000000
       92305000	      9229	80000dd8	00000013	addi	x0,x0,0	  x0:0x00000000
       92315000	      9230	80000ddc	004000ef	jal	x1,80000ddc	  x1=0x80000ddc
       92325000	      9231	00000000	00000013	addi	x0,x0,0	  x0:0x00000000
       92335000	      9232	80000ddc	00000013	addi	x0,x0,0	  x0:0x00000000
       92345000	      9233	80000de0	ff1ff16f	jal	x2,80000de0	  x2=0x80000de0
       92355000	      9234	00000000	00000013	addi	x0,x0,0	  x0:0x00000000
       92365000	      9235	80000dcc	00000013	addi	x0,x0,0	  x0:0x00000000
       92375000	      9236	80000dd0	fc9ff46f	jal	x8,80000dd0	  x8=0x80000dd0
       92385000	      9237	00000000	00000013	addi	x0,x0,0	  x0:0x00000000
       92395000	      9238	80000d94	00000013	addi	x0,x0,0	  x0:0x00000000
       92405000	      9239	80000d98	ff9ff0ef	jal	x1,80000d98	  x1=0x80000d98
       92415000	      9240	00000000	00000013	addi	x0,x0,0	  x0:0x00000000
       92425000	      9241	80000d8c	00000013	addi	x0,x0,0	  x0:0x00000000
       92435000	      9242	80000d90	020000ef	jal	x1,80000d90	  x1=0x80000d90
       92445000	      9243	00000000	00000013	addi	x0,x0,0	  x0:0x00000000
       92455000	      9244	80000dac	00000013	addi	x0,x0,0	  x0:0x00000000
       92465000	      9245	80000db0	ff9ff36f	jal	x6,80000db0	  x6=0x80000db0
       92475000	      9246	00000000	00000013	addi	x0,x0,0	  x0:0x00000000
       92485000	      9247	80000da4	00000013	addi	x0,x0,0	  x0:0x00000000
       92495000	      9248	80000da8	040000ef	jal	x1,80000da8	  x1=0x80000da8
       92505000	      9249	00000000	00000013	addi	x0,x0,0	  x0:0x00000000
       92515000	      9250	80000de4	00000013	addi	x0,x0,0	  x0:0x00000000
       92525000	      9251	80000de8	fadff4ef	jal	x9,80000de8	  x9=0x80000de8
       92535000	      9252	00000000	00000013	addi	x0,x0,0	  x0:0x00000000
       92545000	      9253	80000d90	00000013	addi	x0,x0,0	  x0:0x00000000
       92555000	      9254	80000d94	0100026f	jal	x4,80000d94	  x4=0x80000d94
       92565000	      9255	00000000	00000013	addi	x0,x0,0	  x0:0x00000000
       92575000	      9256	80000da0	00000013	addi	x0,x0,0	  x0:0x00000000
       92585000	      9257	80000da4	fddff0ef	jal	x1,80000da4	  x1=0x80000da4
       92595000	      9258	00000000	00000013	addi	x0,x0,0	  x0:0x00000000
       92605000	      9259	80000d7c	00000013	addi	x0,x0,0	  x0:0x00000000
       92615000	      9260	80000d80	008000ef	jal	x1,80000d80	  x1=0x80000d80
       92625000	      9261	00000000	00000013	addi	x0,x0,0	  x0:0x00000000
       92635000	      9262	80000d84	00000013	addi	x0,x0,0	  x0:0x00000000
       92645000	      9263	80000d88	05c00b6f	jal	x22,80000d88	 x22=0x80000d88
       92655000	      9264	00000000	00000013	addi	x0,x0,0	  x0:0x00000000
       92665000	      9265	80000de0	00000013	addi	x0,x0,0	  x0:0x00000000
       92675000	      9266	80000de4	fb9ff0ef	jal	x1,80000de4	  x1=0x80000de4
       92685000	      9267	00000000	00000013	addi	x0,x0,0	  x0:0x00000000
       92695000	      9268	80000d98	00000013	addi	x0,x0,0	  x0:0x00000000
       92705000	      9269	80000d9c	054000ef	jal	x1,80000d9c	  x1=0x80000d9c
       92715000	      9270	00000000	00000013	addi	x0,x0,0	  x0:0x00000000
       92725000	      9271	80000dec	00000013	addi	x0,x0,0	  x0:0x00000000
       92735000	      9272	80000df0	fd9ff0ef	jal	x1,80000df0	  x1=0x80000df0
       92745000	      9273	00000000	00000013	addi	x0,x0,0	  x0:0x00000000
       92755000	      9274	80000dc4	00000013	addi	x0,x0,0	  x0:0x00000000
       92765000	      9275	80000dc8	fc5ff36f	jal	x6,80000dc8	  x6=0x80000dc8
       92775000	      9276	00000000	00000013	addi	x0,x0,0	  x0:0x00000000
       92785000	      9277	80000d88	00000013	addi	x0,x0,0	  x0:0x00000000
       92795000	      9278	80000d8c	030000ef	jal	x1,80000d8c	  x1=0x80000d8c
       92805000	      9279	00000000	00000013	addi	x0,x0,0	  x0:0x00000000
       92815000	      9280	80000db8	00000013	addi	x0,x0,0	  x0:0x00000000
       92825000	      9281	80000dbc	010003ef	jal	x7,80000dbc	  x7=0x80000dbc
       92835000	      9282	00000000	00000013	addi	x0,x0,0	  x0:0x00000000
       92845000	      9283	80000dc8	00000013	addi	x0,x0,0	  x0:0x00000000
       92855000	      9284	80000dcc	fedff36f	jal	x6,80000dcc	  x6=0x80000dcc
       92865000	      9285	00000000	00000013	addi	x0,x0,0	  x0:0x00000000
       92875000	      9286	80000db4	00000013	addi	x0,x0,0	  x0:0x00000000
       92885000	      9287	80000db8	01c000ef	jal	x1,80000db8	  x1=0x80000db8
       92895000	      9288	00000000	00000013	addi	x0,x0,0	  x0:0x00000000
       92905000	      9289	80000dd0	00000013	addi	x0,x0,0	  x0:0x00000000
       92915000	      9290	80000dd4	fedff0ef	jal	x1,80000dd4	  x1=0x80000dd4
       92925000	      9291	00000000	00000013	addi	x0,x0,0	  x0:0x00000000
       92935000	      9292	80000dbc	00000013	addi	x0,x0,0	  x0:0x00000000
       92945000	      9293	80000dc0	0340036f	jal	x6,80000dc0	  x6=0x80000dc0
       92955000	      9294	00000000	00000013	addi	x0,x0,0	  x0:0x00000000
       92965000	      9295	80000df0	00000013	addi	x0,x0,0	  x0:0x00000000
       92975000	      9296	80000df4	e44cda37	lui	x20,0xe44cd	 x20=0xe44cd000
       92985000	      9297	80000df8	028000ef	jal	x1,80000df8	  x1=0x80000df8
       92995000	      9298	00000000	00000013	addi	x0,x0,0	  x0:0x00000000
       93005000	      9299	80000e1c	00000013	addi	x0,x0,0	  x0:0x00000000
       93015000	      9300	80000e20	00c00fef	jal	x31,80000e20	 x31=0x80000e20
       93025000	      9301	00000000	00000013	addi	x0,x0,0	  x0:0x00000000
       93035000	      9302	80000e28	00000013	addi	x0,x0,0	  x0:0x00000000
       93045000	      9303	80000e2c	fddff0ef	jal	x1,80000e2c	  x1=0x80000e2c
       93055000	      9304	00000000	00000013	addi	x0,x0,0	  x0:0x00000000
       93065000	      9305	80000e04	00000013	addi	x0,x0,0	  x0:0x00000000
       93075000	      9306	80000e08	00c000ef	jal	x1,80000e08	  x1=0x80000e08
       93085000	      9307	00000000	00000013	addi	x0,x0,0	  x0:0x00000000
       93095000	      9308	80000e10	00000013	addi	x0,x0,0	  x0:0x00000000
       93105000	      9309	80000e14	0340036f	jal	x6,80000e14	  x6=0x80000e14
       93115000	      9310	00000000	00000013	addi	x0,x0,0	  x0:0x00000000
       93125000	      9311	80000e44	00000013	addi	x0,x0,0	  x0:0x00000000
       93135000	      9312	80000e48	fd1ff0ef	jal	x1,80000e48	  x1=0x80000e48
       93145000	      9313	00000000	00000013	addi	x0,x0,0	  x0:0x00000000
       93155000	      9314	80000e14	00000013	addi	x0,x0,0	  x0:0x00000000
       93165000	      9315	80000e18	fedfffef	jal	x31,80000e18	 x31=0x80000e18
       93175000	      9316	00000000	00000013	addi	x0,x0,0	  x0:0x00000000
       93185000	      9317	80000e00	00000013	addi	x0,x0,0	  x0:0x00000000
       93195000	      9318	80000e04	00c0036f	jal	x6,80000e04	  x6=0x80000e04
       93205000	      9319	00000000	00000013	addi	x0,x0,0	  x0:0x00000000
       93215000	      9320	80000e0c	00000013	addi	x0,x0,0	  x0:0x00000000
       93225000	      9321	80000e10	044007ef	jal	x15,80000e10	 x15=0x80000e10
       93235000	      9322	00000000	00000013	addi	x0,x0,0	  x0:0x00000000
       93245000	      9323	80000e50	00000013	addi	x0,x0,0	  x0:0x00000000
       93255000	      9324	80000e54	fadffc6f	jal	x24,80000e54	 x24=0x80000e54
       93265000	      9325	00000000	00000013	addi	x0,x0,0	  x0:0x00000000
       93275000	      9326	80000dfc	00000013	addi	x0,x0,0	  x0:0x00000000
       93285000	      9327	80000e00	0400046f	jal	x8,80000e00	  x8=0x80000e00
       93295000	      9328	00000000	00000013	addi	x0,x0,0	  x0:0x00000000
       93305000	      9329	80000e3c	00000013	addi	x0,x0,0	  x0:0x00000000
       93315000	      9330	80000e40	ff9ff0ef	jal	x1,80000e40	  x1=0x80000e40
       93325000	      9331	00000000	00000013	addi	x0,x0,0	  x0:0x00000000
       93335000	      9332	80000e34	00000013	addi	x0,x0,0	  x0:0x00000000
       93345000	      9333	80000e38	004000ef	jal	x1,80000e38	  x1=0x80000e38
       93355000	      9334	00000000	00000013	addi	x0,x0,0	  x0:0x00000000
       93365000	      9335	80000e38	00000013	addi	x0,x0,0	  x0:0x00000000
       93375000	      9336	80000e3c	fe9ff0ef	jal	x1,80000e3c	  x1=0x80000e3c
       93385000	      9337	00000000	00000013	addi	x0,x0,0	  x0:0x00000000
       93395000	      9338	80000e20	00000013	addi	x0,x0,0	  x0:0x00000000
       93405000	      9339	80000e24	02c00cef	jal	x25,80000e24	 x25=0x80000e24
       93415000	      9340	00000000	00000013	addi	x0,x0,0	  x0:0x00000000
       93425000	      9341	80000e4c	00000013	addi	x0,x0,0	  x0:0x00000000
       93435000	      9342	80000e50	fe5ff0ef	jal	x1,80000e50	  x1=0x80000e50
       93445000	      9343	00000000	00000013	addi	x0,x0,0	  x0:0x00000000
       93455000	      9344	80000e30	00000013	addi	x0,x0,0	  x0:0x00000000
       93465000	      9345	80000e34	ffdff0ef	jal	x1,80000e34	  x1=0x80000e34
       93475000	      9346	00000000	00000013	addi	x0,x0,0	  x0:0x00000000
       93485000	      9347	80000e2c	00000013	addi	x0,x0,0	  x0:0x00000000
       93495000	      9348	80000e30	fddfffef	jal	x31,80000e30	 x31=0x80000e30
       93505000	      9349	00000000	00000013	addi	x0,x0,0	  x0:0x00000000
       93515000	      9350	80000e08	00000013	addi	x0,x0,0	  x0:0x00000000
       93525000	      9351	80000e0c	ff1ff0ef	jal	x1,80000e0c	  x1=0x80000e0c
       93535000	      9352	00000000	00000013	addi	x0,x0,0	  x0:0x00000000
       93545000	      9353	80000df8	00000013	addi	x0,x0,0	  x0:0x00000000
       93555000	      9354	80000dfc	0480036f	jal	x6,80000dfc	  x6=0x80000dfc
       93565000	      9355	00000000	00000013	addi	x0,x0,0	  x0:0x00000000
       93575000	      9356	80000e40	00000013	addi	x0,x0,0	  x0:0x00000000
       93585000	      9357	80000e44	fe5ff0ef	jal	x1,80000e44	  x1=0x80000e44
       93595000	      9358	00000000	00000013	addi	x0,x0,0	  x0:0x00000000
       93605000	      9359	80000e24	00000013	addi	x0,x0,0	  x0:0x00000000
       93615000	      9360	80000e28	024000ef	jal	x1,80000e28	  x1=0x80000e28
       93625000	      9361	00000000	00000013	addi	x0,x0,0	  x0:0x00000000
       93635000	      9362	80000e48	00000013	addi	x0,x0,0	  x0:0x00000000
       93645000	      9363	80000e4c	fd1ff0ef	jal	x1,80000e4c	  x1=0x80000e4c
       93655000	      9364	00000000	00000013	addi	x0,x0,0	  x0:0x00000000
       93665000	      9365	80000e18	00000013	addi	x0,x0,0	  x0:0x00000000
       93675000	      9366	80000e1c	03c000ef	jal	x1,80000e1c	  x1=0x80000e1c
       93685000	      9367	00000000	00000013	addi	x0,x0,0	  x0:0x00000000
       93695000	      9368	80000e54	00000013	addi	x0,x0,0	  x0:0x00000000
       93705000	      9369	80000e58	c48a8c13	addi	x24,x21,-952	 x21:0x80000ca8 x24=0x800008f0
       93715000	      9370	80000e5c	02c000ef	jal	x1,80000e5c	  x1=0x80000e5c
       93725000	      9371	00000000	00000013	addi	x0,x0,0	  x0:0x00000000
       93735000	      9372	80000e84	00000013	addi	x0,x0,0	  x0:0x00000000
       93745000	      9373	80000e88	fedff0ef	jal	x1,80000e88	  x1=0x80000e88
       93755000	      9374	00000000	00000013	addi	x0,x0,0	  x0:0x00000000
       93765000	      9375	80000e70	00000013	addi	x0,x0,0	  x0:0x00000000
       93775000	      9376	80000e74	ff9ff0ef	jal	x1,80000e74	  x1=0x80000e74
       93785000	      9377	00000000	00000013	addi	x0,x0,0	  x0:0x00000000
       93795000	      9378	80000e68	00000013	addi	x0,x0,0	  x0:0x00000000
       93805000	      9379	80000e6c	024000ef	jal	x1,80000e6c	  x1=0x80000e6c
       93815000	      9380	00000000	00000013	addi	x0,x0,0	  x0:0x00000000
       93825000	      9381	80000e8c	00000013	addi	x0,x0,0	  x0:0x00000000
       93835000	      9382	80000e90	fe1ff36f	jal	x6,80000e90	  x6=0x80000e90
       93845000	      9383	00000000	00000013	addi	x0,x0,0	  x0:0x00000000
       93855000	      9384	80000e6c	00000013	addi	x0,x0,0	  x0:0x00000000
       93865000	      9385	80000e70	ff9ff0ef	jal	x1,80000e70	  x1=0x80000e70
       93875000	      9386	00000000	00000013	addi	x0,x0,0	  x0:0x00000000
       93885000	      9387	80000e64	00000013	addi	x0,x0,0	  x0:0x00000000
       93895000	      9388	80000e68	010000ef	jal	x1,80000e68	  x1=0x80000e68
       93905000	      9389	00000000	00000013	addi	x0,x0,0	  x0:0x00000000
       93915000	      9390	80000e74	00000013	addi	x0,x0,0	  x0:0x00000000
       93925000	      9391	80000e78	0040036f	jal	x6,80000e78	  x6=0x80000e78
       93935000	      9392	00000000	00000013	addi	x0,x0,0	  x0:0x00000000
       93945000	      9393	80000e78	00000013	addi	x0,x0,0	  x0:0x00000000
       93955000	      9394	80000e7c	0180046f	jal	x8,80000e7c	  x8=0x80000e7c
       93965000	      9395	00000000	00000013	addi	x0,x0,0	  x0:0x00000000
       93975000	      9396	80000e90	00000013	addi	x0,x0,0	  x0:0x00000000
       93985000	      9397	80000e94	ff1ff26f	jal	x4,80000e94	  x4=0x80000e94
       93995000	      9398	00000000	00000013	addi	x0,x0,0	  x0:0x00000000
       94005000	      9399	80000e80	00000013	addi	x0,x0,0	  x0:0x00000000
       94015000	      9400	80000e84	ffdff0ef	jal	x1,80000e84	  x1=0x80000e84
       94025000	      9401	00000000	00000013	addi	x0,x0,0	  x0:0x00000000
       94035000	      9402	80000e7c	00000013	addi	x0,x0,0	  x0:0x00000000
       94045000	      9403	80000e80	fe5ff0ef	jal	x1,80000e80	  x1=0x80000e80
       94055000	      9404	00000000	00000013	addi	x0,x0,0	  x0:0x00000000
       94065000	      9405	80000e60	00000013	addi	x0,x0,0	  x0:0x00000000
       94075000	      9406	80000e64	ffdff36f	jal	x6,80000e64	  x6=0x80000e64
       94085000	      9407	00000000	00000013	addi	x0,x0,0	  x0:0x00000000
       94095000	      9408	80000e5c	00000013	addi	x0,x0,0	  x0:0x00000000
       94105000	      9409	80000e60	02c000ef	jal	x1,80000e60	  x1=0x80000e60
       94115000	      9410	00000000	00000013	addi	x0,x0,0	  x0:0x00000000
       94125000	      9411	80000e88	00000013	addi	x0,x0,0	  x0:0x00000000
       94135000	      9412	80000e8c	00c001ef	jal	x3,80000e8c	  x3=0x80000e8c
       94145000	      9413	00000000	00000013	addi	x0,x0,0	  x0:0x00000000
       94155000	      9414	80000e94	00000013	addi	x0,x0,0	  x0:0x00000000
       94165000	      9415	80000e98	405603b3	sub	x7,x12,x5	 x12:0x80000b98  x5:0x00000400  x7=0x80000798
       94175000	      9416	80000e9c	02c000ef	jal	x1,80000e9c	  x1=0x80000e9c
       94185000	      9417	00000000	00000013	addi	x0,x0,0	  x0:0x00000000
       94195000	      9418	80000ec4	00000013	addi	x0,x0,0	  x0:0x00000000
       94205000	      9419	80000ec8	ffdff0ef	jal	x1,80000ec8	  x1=0x80000ec8
       94215000	      9420	00000000	00000013	addi	x0,x0,0	  x0:0x00000000
       94225000	      9421	80000ec0	00000013	addi	x0,x0,0	  x0:0x00000000
       94235000	      9422	80000ec4	fe5ff36f	jal	x6,80000ec4	  x6=0x80000ec4
       94245000	      9423	00000000	00000013	addi	x0,x0,0	  x0:0x00000000
       94255000	      9424	80000ea4	00000013	addi	x0,x0,0	  x0:0x00000000
       94265000	      9425	80000ea8	ffdff0ef	jal	x1,80000ea8	  x1=0x80000ea8
       94275000	      9426	00000000	00000013	addi	x0,x0,0	  x0:0x00000000
       94285000	      9427	80000ea0	00000013	addi	x0,x0,0	  x0:0x00000000
       94295000	      9428	80000ea4	0080036f	jal	x6,80000ea4	  x6=0x80000ea4
       94305000	      9429	00000000	00000013	addi	x0,x0,0	  x0:0x00000000
       94315000	      9430	80000ea8	00000013	addi	x0,x0,0	  x0:0x00000000
       94325000	      9431	80000eac	014002ef	jal	x5,80000eac	  x5=0x80000eac
       94335000	      9432	00000000	00000013	addi	x0,x0,0	  x0:0x00000000
       94345000	      9433	80000ebc	00000013	addi	x0,x0,0	  x0:0x00000000
       94355000	      9434	80000ec0	010003ef	jal	x7,80000ec0	  x7=0x80000ec0
       94365000	      9435	00000000	00000013	addi	x0,x0,0	  x0:0x00000000
       94375000	      9436	80000ecc	00000013	addi	x0,x0,0	  x0:0x00000000
       94385000	      9437	80000ed0	fd1ff36f	jal	x6,80000ed0	  x6=0x80000ed0
       94395000	      9438	00000000	00000013	addi	x0,x0,0	  x0:0x00000000
       94405000	      9439	80000e9c	00000013	addi	x0,x0,0	  x0:0x00000000
       94415000	      9440	80000ea0	01c0036f	jal	x6,80000ea0	  x6=0x80000ea0
       94425000	      9441	00000000	00000013	addi	x0,x0,0	  x0:0x00000000
       94435000	      9442	80000eb8	00000013	addi	x0,x0,0	  x0:0x00000000
       94445000	      9443	80000ebc	ff9ff0ef	jal	x1,80000ebc	  x1=0x80000ebc
       94455000	      9444	00000000	00000013	addi	x0,x0,0	  x0:0x00000000
       94465000	      9445	80000eb0	00000013	addi	x0,x0,0	  x0:0x00000000
       94475000	      9446	80000eb4	018000ef	jal	x1,80000eb4	  x1=0x80000eb4
       94485000	      9447	00000000	00000013	addi	x0,x0,0	  x0:0x00000000
       94495000	      9448	80000ec8	00000013	addi	x0,x0,0	  x0:0x00000000
       94505000	      9449	80000ecc	fe5ff0ef	jal	x1,80000ecc	  x1=0x80000ecc
       94515000	      9450	00000000	00000013	addi	x0,x0,0	  x0:0x00000000
       94525000	      9451	80000eac	00000013	addi	x0,x0,0	  x0:0x00000000
       94535000	      9452	80000eb0	00800def	jal	x27,80000eb0	 x27=0x80000eb0
       94545000	      9453	00000000	00000013	addi	x0,x0,0	  x0:0x00000000
       94555000	      9454	80000eb4	00000013	addi	x0,x0,0	  x0:0x00000000
       94565000	      9455	80000eb8	01c000ef	jal	x1,80000eb8	  x1=0x80000eb8
       94575000	      9456	00000000	00000013	addi	x0,x0,0	  x0:0x00000000
       94585000	      9457	80000ed0	00000013	addi	x0,x0,0	  x0:0x00000000
       94595000	      9458	80000ed4	00bc5513	srli	x10,x24,0xb	 x24:0x800008f0 x10=0x00100001
       94605000	      9459	80000ed8	014000ef	jal	x1,80000ed8	  x1=0x80000ed8
       94615000	      9460	00000000	00000013	addi	x0,x0,0	  x0:0x00000000
       94625000	      9461	80000ee8	00000013	addi	x0,x0,0	  x0:0x00000000
       94635000	      9462	80000eec	018000ef	jal	x1,80000eec	  x1=0x80000eec
       94645000	      9463	00000000	00000013	addi	x0,x0,0	  x0:0x00000000
       94655000	      9464	80000f00	00000013	addi	x0,x0,0	  x0:0x00000000
       94665000	      9465	80000f04	ff1ff36f	jal	x6,80000f04	  x6=0x80000f04
       94675000	      9466	00000000	00000013	addi	x0,x0,0	  x0:0x00000000
       94685000	      9467	80000ef0	00000013	addi	x0,x0,0	  x0:0x00000000
       94695000	      9468	80000ef4	fedff16f	jal	x2,80000ef4	  x2=0x80000ef4
       94705000	      9469	00000000	00000013	addi	x0,x0,0	  x0:0x00000000
       94715000	      9470	80000edc	00000013	addi	x0,x0,0	  x0:0x00000000
       94725000	      9471	80000ee0	050005ef	jal	x11,80000ee0	 x11=0x80000ee0
       94735000	      9472	00000000	00000013	addi	x0,x0,0	  x0:0x00000000
       94745000	      9473	80000f2c	00000013	addi	x0,x0,0	  x0:0x00000000
       94755000	      9474	80000f30	00c000ef	jal	x1,80000f30	  x1=0x80000f30
       94765000	      9475	00000000	00000013	addi	x0,x0,0	  x0:0x00000000
       94775000	      9476	80000f38	00000013	addi	x0,x0,0	  x0:0x00000000
       94785000	      9477	80000f3c	fe5ff0ef	jal	x1,80000f3c	  x1=0x80000f3c
       94795000	      9478	00000000	00000013	addi	x0,x0,0	  x0:0x00000000
       94805000	      9479	80000f1c	00000013	addi	x0,x0,0	  x0:0x00000000
       94815000	      9480	80000f20	fc5ff0ef	jal	x1,80000f20	  x1=0x80000f20
       94825000	      9481	00000000	00000013	addi	x0,x0,0	  x0:0x00000000
       94835000	      9482	80000ee0	00000013	addi	x0,x0,0	  x0:0x00000000
       94845000	      9483	80000ee4	02c000ef	jal	x1,80000ee4	  x1=0x80000ee4
       94855000	      9484	00000000	00000013	addi	x0,x0,0	  x0:0x00000000
       94865000	      9485	80000f0c	00000013	addi	x0,x0,0	  x0:0x00000000
       94875000	      9486	80000f10	fd9ff36f	jal	x6,80000f10	  x6=0x80000f10
       94885000	      9487	00000000	00000013	addi	x0,x0,0	  x0:0x00000000
       94895000	      9488	80000ee4	00000013	addi	x0,x0,0	  x0:0x00000000
       94905000	      9489	80000ee8	0340036f	jal	x6,80000ee8	  x6=0x80000ee8
       94915000	      9490	00000000	00000013	addi	x0,x0,0	  x0:0x00000000
       94925000	      9491	80000f18	00000013	addi	x0,x0,0	  x0:0x00000000
       94935000	      9492	80000f1c	0240016f	jal	x2,80000f1c	  x2=0x80000f1c
       94945000	      9493	00000000	00000013	addi	x0,x0,0	  x0:0x00000000
       94955000	      9494	80000f3c	00000013	addi	x0,x0,0	  x0:0x00000000
       94965000	      9495	80000f40	f9dff0ef	jal	x1,80000f40	  x1=0x80000f40
       94975000	      9496	00000000	00000013	addi	x0,x0,0	  x0:0x00000000
       94985000	      9497	80000ed8	00000013	addi	x0,x0,0	  x0:0x00000000
       94995000	      9498	80000edc	038000ef	jal	x1,80000edc	  x1=0x80000edc
       95005000	      9499	00000000	00000013	addi	x0,x0,0	  x0:0x00000000
       95015000	      9500	80000f10	00000013	addi	x0,x0,0	  x0:0x00000000
       95025000	      9501	80000f14	010000ef	jal	x1,80000f14	  x1=0x80000f14
       95035000	      9502	00000000	00000013	addi	x0,x0,0	  x0:0x00000000
       95045000	      9503	80000f20	00000013	addi	x0,x0,0	  x0:0x00000000
       95055000	      9504	80000f24	fe5ff36f	jal	x6,80000f24	  x6=0x80000f24
       95065000	      9505	00000000	00000013	addi	x0,x0,0	  x0:0x00000000
       95075000	      9506	80000f04	00000013	addi	x0,x0,0	  x0:0x00000000
       95085000	      9507	80000f08	030000ef	jal	x1,80000f08	  x1=0x80000f08
       95095000	      9508	00000000	00000013	addi	x0,x0,0	  x0:0x00000000
       95105000	      9509	80000f34	00000013	addi	x0,x0,0	  x0:0x00000000
       95115000	      9510	80000f38	ff1ff0ef	jal	x1,80000f38	  x1=0x80000f38
       95125000	      9511	00000000	00000013	addi	x0,x0,0	  x0:0x00000000
       95135000	      9512	80000f24	00000013	addi	x0,x0,0	  x0:0x00000000
       95145000	      9513	80000f28	fd9ff0ef	jal	x1,80000f28	  x1=0x80000f28
       95155000	      9514	00000000	00000013	addi	x0,x0,0	  x0:0x00000000
       95165000	      9515	80000efc	00000013	addi	x0,x0,0	  x0:0x00000000
       95175000	      9516	80000f00	ff1ff0ef	jal	x1,80000f00	  x1=0x80000f00
       95185000	      9517	00000000	00000013	addi	x0,x0,0	  x0:0x00000000
       95195000	      9518	80000eec	00000013	addi	x0,x0,0	  x0:0x00000000
       95205000	      9519	80000ef0	01c000ef	jal	x1,80000ef0	  x1=0x80000ef0
       95215000	      9520	00000000	00000013	addi	x0,x0,0	  x0:0x00000000
       95225000	      9521	80000f08	00000013	addi	x0,x0,0	  x0:0x00000000
       95235000	      9522	80000f0c	02000c6f	jal	x24,80000f0c	 x24=0x80000f0c
       95245000	      9523	00000000	00000013	addi	x0,x0,0	  x0:0x00000000
       95255000	      9524	80000f28	00000013	addi	x0,x0,0	  x0:0x00000000
       95265000	      9525	80000f2c	fedff36f	jal	x6,80000f2c	  x6=0x80000f2c
       95275000	      9526	00000000	00000013	addi	x0,x0,0	  x0:0x00000000
       95285000	      9527	80000f14	00000013	addi	x0,x0,0	  x0:0x00000000
       95295000	      9528	80000f18	01c000ef	jal	x1,80000f18	  x1=0x80000f18
       95305000	      9529	00000000	00000013	addi	x0,x0,0	  x0:0x00000000
       95315000	      9530	80000f30	00000013	addi	x0,x0,0	  x0:0x00000000
       95325000	      9531	80000f34	fc9ff3ef	jal	x7,80000f34	  x7=0x80000f34
       95335000	      9532	00000000	00000013	addi	x0,x0,0	  x0:0x00000000
       95345000	      9533	80000ef8	00000013	addi	x0,x0,0	  x0:0x00000000
       95355000	      9534	80000efc	ffdffb6f	jal	x22,80000efc	 x22=0x80000efc
       95365000	      9535	00000000	00000013	addi	x0,x0,0	  x0:0x00000000
       95375000	      9536	80000ef4	00000013	addi	x0,x0,0	  x0:0x00000000
       95385000	      9537	80000ef8	04c000ef	jal	x1,80000ef8	  x1=0x80000ef8
       95395000	      9538	00000000	00000013	addi	x0,x0,0	  x0:0x00000000
       95405000	      9539	80000f40	00000013	addi	x0,x0,0	  x0:0x00000000
       95415000	      9540	80000f44	0095df93	srli	x31,x11,0x9	 x11:0x80000ee0 x31=0x00400007
       95425000	      9541	80000f48	040000ef	jal	x1,80000f48	  x1=0x80000f48
       95435000	      9542	00000000	00000013	addi	x0,x0,0	  x0:0x00000000
       95445000	      9543	80000f84	00000013	addi	x0,x0,0	  x0:0x00000000
       95455000	      9544	80000f88	fd5ff36f	jal	x6,80000f88	  x6=0x80000f88
       95465000	      9545	00000000	00000013	addi	x0,x0,0	  x0:0x00000000
       95475000	      9546	80000f58	00000013	addi	x0,x0,0	  x0:0x00000000
       95485000	      9547	80000f5c	ff1ffd6f	jal	x26,80000f5c	 x26=0x80000f5c
       95495000	      9548	00000000	00000013	addi	x0,x0,0	  x0:0x00000000
       95505000	      9549	80000f48	00000013	addi	x0,x0,0	  x0:0x00000000
       95515000	      9550	80000f4c	014000ef	jal	x1,80000f4c	  x1=0x80000f4c
       95525000	      9551	00000000	00000013	addi	x0,x0,0	  x0:0x00000000
       95535000	      9552	80000f5c	00000013	addi	x0,x0,0	  x0:0x00000000
       95545000	      9553	80000f60	030000ef	jal	x1,80000f60	  x1=0x80000f60
       95555000	      9554	00000000	00000013	addi	x0,x0,0	  x0:0x00000000
       95565000	      9555	80000f8c	00000013	addi	x0,x0,0	  x0:0x00000000
       95575000	      9556	80000f90	00c000ef	jal	x1,80000f90	  x1=0x80000f90
       95585000	      9557	00000000	00000013	addi	x0,x0,0	  x0:0x00000000
       95595000	      9558	80000f98	00000013	addi	x0,x0,0	  x0:0x00000000
       95605000	      9559	80000f9c	fd9ff0ef	jal	x1,80000f9c	  x1=0x80000f9c
       95615000	      9560	00000000	00000013	addi	x0,x0,0	  x0:0x00000000
       95625000	      9561	80000f70	00000013	addi	x0,x0,0	  x0:0x00000000
       95635000	      9562	80000f74	018000ef	jal	x1,80000f74	  x1=0x80000f74
       95645000	      9563	00000000	00000013	addi	x0,x0,0	  x0:0x00000000
       95655000	      9564	80000f88	00000013	addi	x0,x0,0	  x0:0x00000000
       95665000	      9565	80000f8c	fd9ff2ef	jal	x5,80000f8c	  x5=0x80000f8c
       95675000	      9566	00000000	00000013	addi	x0,x0,0	  x0:0x00000000
       95685000	      9567	80000f60	00000013	addi	x0,x0,0	  x0:0x00000000
       95695000	      9568	80000f64	fedff36f	jal	x6,80000f64	  x6=0x80000f64
       95705000	      9569	00000000	00000013	addi	x0,x0,0	  x0:0x00000000
       95715000	      9570	80000f4c	00000013	addi	x0,x0,0	  x0:0x00000000
       95725000	      9571	80000f50	0540036f	jal	x6,80000f50	  x6=0x80000f50
       95735000	      9572	00000000	00000013	addi	x0,x0,0	  x0:0x00000000
       95745000	      9573	80000fa0	00000013	addi	x0,x0,0	  x0:0x00000000
       95755000	      9574	80000fa4	fcdff0ef	jal	x1,80000fa4	  x1=0x80000fa4
       95765000	      9575	00000000	00000013	addi	x0,x0,0	  x0:0x00000000
       95775000	      9576	80000f6c	00000013	addi	x0,x0,0	  x0:0x00000000
       95785000	      9577	80000f70	0100036f	jal	x6,80000f70	  x6=0x80000f70
       95795000	      9578	00000000	00000013	addi	x0,x0,0	  x0:0x00000000
       95805000	      9579	80000f7c	00000013	addi	x0,x0,0	  x0:0x00000000
       95815000	      9580	80000f80	ff9fffef	jal	x31,80000f80	 x31=0x80000f80
       95825000	      9581	00000000	00000013	addi	x0,x0,0	  x0:0x00000000
       95835000	      9582	80000f74	00000013	addi	x0,x0,0	  x0:0x00000000
       95845000	      9583	80000f78	fe1ff36f	jal	x6,80000f78	  x6=0x80000f78
       95855000	      9584	00000000	00000013	addi	x0,x0,0	  x0:0x00000000
       95865000	      9585	80000f54	00000013	addi	x0,x0,0	  x0:0x00000000
       95875000	      9586	80000f58	02c000ef	jal	x1,80000f58	  x1=0x80000f58
       95885000	      9587	00000000	00000013	addi	x0,x0,0	  x0:0x00000000
       95895000	      9588	80000f80	00000013	addi	x0,x0,0	  x0:0x00000000
       95905000	      9589	80000f84	fe9ffeef	jal	x29,80000f84	 x29=0x80000f84
       95915000	      9590	00000000	00000013	addi	x0,x0,0	  x0:0x00000000
       95925000	      9591	80000f68	00000013	addi	x0,x0,0	  x0:0x00000000
       95935000	      9592	80000f6c	028000ef	jal	x1,80000f6c	  x1=0x80000f6c
       95945000	      9593	00000000	00000013	addi	x0,x0,0	  x0:0x00000000
       95955000	      9594	80000f90	00000013	addi	x0,x0,0	  x0:0x00000000
       95965000	      9595	80000f94	fd5ff0ef	jal	x1,80000f94	  x1=0x80000f94
       95975000	      9596	00000000	00000013	addi	x0,x0,0	  x0:0x00000000
       95985000	      9597	80000f64	00000013	addi	x0,x0,0	  x0:0x00000000
       95995000	      9598	80000f68	030000ef	jal	x1,80000f68	  x1=0x80000f68
       96005000	      9599	00000000	00000013	addi	x0,x0,0	  x0:0x00000000
       96015000	      9600	80000f94	00000013	addi	x0,x0,0	  x0:0x00000000
       96025000	      9601	80000f98	0080036f	jal	x6,80000f98	  x6=0x80000f98
       96035000	      9602	00000000	00000013	addi	x0,x0,0	  x0:0x00000000
       96045000	      9603	80000f9c	00000013	addi	x0,x0,0	  x0:0x00000000
       96055000	      9604	80000fa0	fddff36f	jal	x6,80000fa0	  x6=0x80000fa0
       96065000	      9605	00000000	00000013	addi	x0,x0,0	  x0:0x00000000
       96075000	      9606	80000f78	00000013	addi	x0,x0,0	  x0:0x00000000
       96085000	      9607	80000f7c	fd9ff0ef	jal	x1,80000f7c	  x1=0x80000f7c
       96095000	      9608	00000000	00000013	addi	x0,x0,0	  x0:0x00000000
       96105000	      9609	80000f50	00000013	addi	x0,x0,0	  x0:0x00000000
       96115000	      9610	80000f54	0540036f	jal	x6,80000f54	  x6=0x80000f54
       96125000	      9611	00000000	00000013	addi	x0,x0,0	  x0:0x00000000
       96135000	      9612	80000fa4	00000013	addi	x0,x0,0	  x0:0x00000000
       96145000	      9613	80000fa8	a7cb3113	sltiu	x2,x22,-1412	 x22:0x80000efc  x2=0x00000001
       96155000	      9614	80000fac	044000ef	jal	x1,80000fac	  x1=0x80000fac
       96165000	      9615	00000000	00000013	addi	x0,x0,0	  x0:0x00000000
       96175000	      9616	80000fec	00000013	addi	x0,x0,0	  x0:0x00000000
       96185000	      9617	80000ff0	ff9ff0ef	jal	x1,80000ff0	  x1=0x80000ff0
       96195000	      9618	00000000	00000013	addi	x0,x0,0	  x0:0x00000000
       96205000	      9619	80000fe4	00000013	addi	x0,x0,0	  x0:0x00000000
       96215000	      9620	80000fe8	01c000ef	jal	x1,80000fe8	  x1=0x80000fe8
       96225000	      9621	00000000	00000013	addi	x0,x0,0	  x0:0x00000000
       96235000	      9622	80001000	00000013	addi	x0,x0,0	  x0:0x00000000
       96245000	      9623	80001004	004000ef	jal	x1,80001004	  x1=0x80001004
       96255000	      9624	00000000	00000013	addi	x0,x0,0	  x0:0x00000000
       96265000	      9625	80001004	00000013	addi	x0,x0,0	  x0:0x00000000
       96275000	      9626	80001008	008000ef	jal	x1,80001008	  x1=0x80001008
       96285000	      9627	00000000	00000013	addi	x0,x0,0	  x0:0x00000000
       96295000	      9628	8000100c	00000013	addi	x0,x0,0	  x0:0x00000000
       96305000	      9629	80001010	fc5ffb6f	jal	x22,80001010	 x22=0x80001010
       96315000	      9630	00000000	00000013	addi	x0,x0,0	  x0:0x00000000
       96325000	      9631	80000fd0	00000013	addi	x0,x0,0	  x0:0x00000000
       96335000	      9632	80000fd4	040000ef	jal	x1,80000fd4	  x1=0x80000fd4
       96345000	      9633	00000000	00000013	addi	x0,x0,0	  x0:0x00000000
       96355000	      9634	80001010	00000013	addi	x0,x0,0	  x0:0x00000000
       96365000	      9635	80001014	fb9ff0ef	jal	x1,80001014	  x1=0x80001014
       96375000	      9636	00000000	00000013	addi	x0,x0,0	  x0:0x00000000
       96385000	      9637	80000fc8	00000013	addi	x0,x0,0	  x0:0x00000000
       96395000	      9638	80000fcc	0340046f	jal	x8,80000fcc	  x8=0x80000fcc
       96405000	      9639	00000000	00000013	addi	x0,x0,0	  x0:0x00000000
       96415000	      9640	80000ffc	00000013	addi	x0,x0,0	  x0:0x00000000
       96425000	      9641	80001000	fd9ff0ef	jal	x1,80001000	  x1=0x80001000
       96435000	      9642	00000000	00000013	addi	x0,x0,0	  x0:0x00000000
       96445000	      9643	80000fd4	00000013	addi	x0,x0,0	  x0:0x00000000
       96455000	      9644	80000fd8	01c000ef	jal	x1,80000fd8	  x1=0x80000fd8
       96465000	      9645	00000000	00000013	addi	x0,x0,0	  x0:0x00000000
       96475000	      9646	80000ff0	00000013	addi	x0,x0,0	  x0:0x00000000
       96485000	      9647	80000ff4	fd1ff36f	jal	x6,80000ff4	  x6=0x80000ff4
       96495000	      9648	00000000	00000013	addi	x0,x0,0	  x0:0x00000000
       96505000	      9649	80000fc0	00000013	addi	x0,x0,0	  x0:0x00000000
       96515000	      9650	80000fc4	048000ef	jal	x1,80000fc4	  x1=0x80000fc4
       96525000	      9651	00000000	00000013	addi	x0,x0,0	  x0:0x00000000
       96535000	      9652	80001008	00000013	addi	x0,x0,0	  x0:0x00000000
       96545000	      9653	8000100c	fb1ff2ef	jal	x5,8000100c	  x5=0x8000100c
       96555000	      9654	00000000	00000013	addi	x0,x0,0	  x0:0x00000000
       96565000	      9655	80000fb8	00000013	addi	x0,x0,0	  x0:0x00000000
       96575000	      9656	80000fbc	ffdff0ef	jal	x1,80000fbc	  x1=0x80000fbc
       96585000	      9657	00000000	00000013	addi	x0,x0,0	  x0:0x00000000
       96595000	      9658	80000fb4	00000013	addi	x0,x0,0	  x0:0x00000000
       96605000	      9659	80000fb8	ff9ff36f	jal	x6,80000fb8	  x6=0x80000fb8
       96615000	      9660	00000000	00000013	addi	x0,x0,0	  x0:0x00000000
       96625000	      9661	80000fac	00000013	addi	x0,x0,0	  x0:0x00000000
       96635000	      9662	80000fb0	06800a6f	jal	x20,80000fb0	 x20=0x80000fb0
       96645000	      9663	00000000	00000013	addi	x0,x0,0	  x0:0x00000000
       96655000	      9664	80001014	00000013	addi	x0,x0,0	  x0:0x00000000
       96665000	      9665	80001018	fe1ff56f	jal	x10,80001018	 x10=0x80001018
       96675000	      9666	00000000	00000013	addi	x0,x0,0	  x0:0x00000000
       96685000	      9667	80000ff4	00000013	addi	x0,x0,0	  x0:0x00000000
       96695000	      9668	80000ff8	fe9ff36f	jal	x6,80000ff8	  x6=0x80000ff8
       96705000	      9669	00000000	00000013	addi	x0,x0,0	  x0:0x00000000
       96715000	      9670	80000fdc	00000013	addi	x0,x0,0	  x0:0x00000000
       96725000	      9671	80000fe0	00c000ef	jal	x1,80000fe0	  x1=0x80000fe0
       96735000	      9672	00000000	00000013	addi	x0,x0,0	  x0:0x00000000
       96745000	      9673	80000fe8	00000013	addi	x0,x0,0	  x0:0x00000000
       96755000	      9674	80000fec	fe5ff16f	jal	x2,80000fec	  x2=0x80000fec
       96765000	      9675	00000000	00000013	addi	x0,x0,0	  x0:0x00000000
       96775000	      9676	80000fcc	00000013	addi	x0,x0,0	  x0:0x00000000
       96785000	      9677	80000fd0	00c0016f	jal	x2,80000fd0	  x2=0x80000fd0
       96795000	      9678	00000000	00000013	addi	x0,x0,0	  x0:0x00000000
       96805000	      9679	80000fd8	00000013	addi	x0,x0,0	  x0:0x00000000
       96815000	      9680	80000fdc	020000ef	jal	x1,80000fdc	  x1=0x80000fdc
       96825000	      9681	00000000	00000013	addi	x0,x0,0	  x0:0x00000000
       96835000	      9682	80000ff8	00000013	addi	x0,x0,0	  x0:0x00000000
       96845000	      9683	80000ffc	fe9ff0ef	jal	x1,80000ffc	  x1=0x80000ffc
       96855000	      9684	00000000	00000013	addi	x0,x0,0	  x0:0x00000000
       96865000	      9685	80000fe0	00000013	addi	x0,x0,0	  x0:0x00000000
       96875000	      9686	80000fe4	fddff0ef	jal	x1,80000fe4	  x1=0x80000fe4
       96885000	      9687	00000000	00000013	addi	x0,x0,0	  x0:0x00000000
       96895000	      9688	80000fbc	00000013	addi	x0,x0,0	  x0:0x00000000
       96905000	      9689	80000fc0	ff5ff1ef	jal	x3,80000fc0	  x3=0x80000fc0
       96915000	      9690	00000000	00000013	addi	x0,x0,0	  x0:0x00000000
       96925000	      9691	80000fb0	00000013	addi	x0,x0,0	  x0:0x00000000
       96935000	      9692	80000fb4	014000ef	jal	x1,80000fb4	  x1=0x80000fb4
       96945000	      9693	00000000	00000013	addi	x0,x0,0	  x0:0x00000000
       96955000	      9694	80000fc4	00000013	addi	x0,x0,0	  x0:0x00000000
       96965000	      9695	80000fc8	054000ef	jal	x1,80000fc8	  x1=0x80000fc8
       96975000	      9696	00000000	00000013	addi	x0,x0,0	  x0:0x00000000
       96985000	      9697	80001018	00000013	addi	x0,x0,0	  x0:0x00000000
       96995000	      9698	8000101c	002f1033	sll	x0,x30,x2	 x30:0x80000dd8  x2:0x80000fd0
       97005000	      9699	80001020	03afd263	bge	x31,x26,80001044	 x31:0x80000f80 x26:0x80000f5c
       97015000	      9700	00000000	00000013	addi	x0,x0,0	  x0:0x00000000
       97025000	      9701	80001040	00000013	addi	x0,x0,0	  x0:0x00000000
       97035000	      9702	80001044	40035813	srai	x16,x6,0x0	  x6:0x80000ff8 x16=0x80000ff8
       97045000	      9703	80001048	000b1e33	sll	x28,x22,x0	 x22:0x80001010  x0:0x00000000 x28=0x80001010
       97055000	      9704	8000104c	78890093	addi	x1,x18,1928	 x18:0x80000a50  x1=0x800011d8
       97065000	      9705	80001050	00480633	add	x12,x16,x4	 x16:0x80000ff8  x4:0x80000e94 x12=0x00001e8c
       97075000	      9706	80001054	018e8e63	beq	x29,x24,80001070	 x29:0x80000f84 x24:0x80000f0c
       97085000	      9707	80001058	013a4033	xor	x0,x20,x19	 x20:0x80000fb0 x19:0x0000015c
       97095000	      9708	8000105c	014b8333	add	x6,x23,x20	 x23:0x80009f64 x20:0x80000fb0  x6=0x0000af14
       97105000	      9709	80001060	035ec263	blt	x29,x21,80001084	 x29:0x80000f84 x21:0x80000ca8
       97115000	      9710	80001064	00784663	blt	x16,x7,80001070	 x16:0x80000ff8  x7:0x80000f34
       97125000	      9711	80001068	00eb5313	srli	x6,x22,0xe	 x22:0x80001010  x6=0x00020000
       97135000	      9712	8000106c	00be9263	bne	x29,x11,80001070	 x29:0x80000f84 x11:0x80000ee0
       97145000	      9713	00000000	00000013	addi	x0,x0,0	  x0:0x00000000
       97155000	      9714	8000106c	00000013	addi	x0,x0,0	  x0:0x00000000
       97165000	      9715	80001070	40e55e13	srai	x28,x10,0xe	 x10:0x80001018 x28=0xfffe0000
       97175000	      9716	80001074	c8e58013	addi	x0,x11,-882	 x11:0x80000ee0
       97185000	      9717	80001078	00cd7263	bgeu	x26,x12,8000107c	 x26:0x80000f5c x12:0x00001e8c
       97195000	      9718	00000000	00000013	addi	x0,x0,0	  x0:0x00000000
       97205000	      9719	80001078	00000013	addi	x0,x0,0	  x0:0x00000000
       97215000	      9720	8000107c	05f01663	bne	x0,x31,800010c8	  x0:0x00000000 x31:0x80000f80
       97225000	      9721	00000000	00000013	addi	x0,x0,0	  x0:0x00000000
       97235000	      9722	800010c4	00000013	addi	x0,x0,0	  x0:0x00000000
       97245000	      9723	800010c8	41200033	sub	x0,x0,x18	  x0:0x00000000 x18:0x80000a50
       97255000	      9724	800010cc	038b6863	bltu	x22,x24,800010fc	 x22:0x80001010 x24:0x80000f0c
       97265000	      9725	800010d0	02121863	bne	x4,x1,80001100	  x4:0x80000e94  x1:0x800011d8
       97275000	      9726	00000000	00000013	addi	x0,x0,0	  x0:0x00000000
       97285000	      9727	800010fc	00000013	addi	x0,x0,0	  x0:0x00000000
       97295000	      9728	80001100	40865c93	srai	x25,x12,0x8	 x12:0x00001e8c x25=0x0000001e
       97305000	      9729	80001104	016eacb3	slt	x25,x29,x22	 x29:0x80000f84 x22:0x80001010 x25=0x00000001
       97315000	      9730	80001108	00ea5fb3	srl	x31,x20,x14	 x20:0x80000fb0 x14:0x00000004 x31=0x080000fb
       97325000	      9731	8000110c	76f4f397	auipc	x7,0x76f4f	  x7=0xf6f50108
       97335000	      9732	80001110	00bfdf33	srl	x30,x31,x11	 x31:0x080000fb x11:0x80000ee0 x30=0x080000fb
       97345000	      9733	80001114	40de5f13	srai	x30,x28,0xd	 x28:0xfffe0000 x30=0xfffffff0
       97355000	      9734	80001118	051a0063	beq	x20,x17,80001158	 x20:0x80000fb0 x17:0x80009fc4
       97365000	      9735	8000111c	00f24033	xor	x0,x4,x15	  x4:0x80000e94 x15:0x80000e10
       97375000	      9736	80001120	9b794393	xori	x7,x18,-1609	 x18:0x80000a50  x7=0x7ffff3e7
       97385000	      9737	80001124	05a9f263	bgeu	x19,x26,80001168	 x19:0x0000015c x26:0x80000f5c
       97395000	      9738	80001128	40405b33	sra	x22,x0,x4	  x0:0x00000000  x4:0x80000e94 x22=0x00000000
       97405000	      9739	8000112c	01855913	srli	x18,x10,0x18	 x10:0x80001018 x18=0x00000080
       97415000	      9740	80001130	00000013	addi	x0,x0,0	  x0:0x00000000
       97425000	      9741	80001134	90a93513	sltiu	x10,x18,-1782	 x18:0x00000080 x10=0x00000001
       97435000	      9742	80001138	0090d7b3	srl	x15,x1,x9	  x1:0x800011d8  x9:0x80000de8 x15=0x00800011
       97445000	      9743	8000113c	486e12b7	lui	x5,0x486e1	  x5=0x486e1000
       97455000	      9744	80001140	005fb3b3	sltu	x7,x31,x5	 x31:0x080000fb  x5:0x486e1000  x7=0x00000001
       97465000	      9745	80001144	0167e863	bltu	x15,x22,80001154	 x15:0x00800011 x22:0x00000000
       97475000	      9746	80001148	1d4d4613	xori	x12,x26,468	 x26:0x80000f5c x12=0x80000e88
       97485000	      9747	8000114c	00df95b3	sll	x11,x31,x13	 x31:0x080000fb x13:0x80000c20 x11=0x080000fb
       97495000	      9748	80001150	40f3d493	srai	x9,x7,0xf	  x7:0x00000001  x9=0x00000000
       97505000	      9749	80001154	44eb2f93	slti	x31,x22,1102	 x22:0x00000000 x31=0x00000001
       97515000	      9750	80001158	d21d2e13	slti	x28,x26,-735	 x26:0x80000f5c x28=0x00000001
       97525000	      9751	8000115c	00000013	addi	x0,x0,0	  x0:0x00000000
       97535000	      9752	80001160	cd8e4297	auipc	x5,0xcd8e4	  x5=0x4d8e515c
       97545000	      9753	80001164	048fd263	bge	x31,x8,800011a8	 x31:0x00000001  x8:0x80000fcc
       97555000	      9754	00000000	00000013	addi	x0,x0,0	  x0:0x00000000
       97565000	      9755	800011a4	00000013	addi	x0,x0,0	  x0:0x00000000
       97575000	      9756	800011a8	4195dc13	srai	x24,x11,0x19	 x11:0x080000fb x24=0x00000004
       97585000	      9757	800011ac	00000013	addi	x0,x0,0	  x0:0x00000000
       97595000	      9758	800011b0	006bdc13	srli	x24,x23,0x6	 x23:0x80009f64 x24=0x0200027d
       97605000	      9759	800011b4	dc1e0993	addi	x19,x28,-575	 x28:0x00000001 x19=0xfffffdc2
       97615000	      9760	800011b8	b9c06d13	ori	x26,x0,-1124	  x0:0x00000000 x26=0xfffffb9c
       97625000	      9761	800011bc	00336833	or	x16,x6,x3	  x6:0x00020000  x3:0x80000fc0 x16=0x80020fc0
       97635000	      9762	800011c0	dc84cc13	xori	x24,x9,-568	  x9:0x00000000 x24=0xfffffdc8
       97645000	      9763	800011c4	637fec17	auipc	x24,0x637fe	 x24=0xe37ff1c0
       97655000	      9764	800011c8	00a939b3	sltu	x19,x18,x10	 x18:0x00000080 x10:0x00000001 x19=0x00000000
       97665000	      9765	800011cc	012aa633	slt	x12,x21,x18	 x21:0x80000ca8 x18:0x00000080 x12=0x00000001
       97675000	      9766	800011d0	00000013	addi	x0,x0,0	  x0:0x00000000
       97685000	      9767	800011d4	ed298eb7	lui	x29,0xed298	 x29=0xed298000
       97695000	      9768	800011d8	05998263	beq	x19,x25,8000121c	 x19:0x00000000 x25:0x00000001
       97705000	      9769	800011dc	40e35513	srai	x10,x6,0xe	  x6:0x00020000 x10=0x00000008
       97715000	      9770	800011e0	00000013	addi	x0,x0,0	  x0:0x00000000
       97725000	      9771	800011e4	01d69233	sll	x4,x13,x29	 x13:0x80000c20 x29:0xed298000  x4=0x80000c20
       97735000	      9772	800011e8	014f5c13	srli	x24,x30,0x14	 x30:0xfffffff0 x24=0x00000fff
       97745000	      9773	800011ec	30ea7e17	auipc	x28,0x30ea7	 x28=0xb0ea81e8
       97755000	      9774	800011f0	417f0ab3	sub	x21,x30,x23	 x30:0xfffffff0 x23:0x80009f64 x21=0x7fff608c
       97765000	      9775	800011f4	aa750a97	auipc	x21,0xaa750	 x21=0x2a7511f0
       97775000	      9776	800011f8	0030d0b3	srl	x1,x1,x3	  x1:0x800011d8  x3:0x80000fc0  x1=0x800011d8
       97785000	      9777	800011fc	0008f463	bgeu	x17,x0,80001204	 x17:0x80009fc4  x0:0x00000000
       97795000	      9778	00000000	00000013	addi	x0,x0,0	  x0:0x00000000
       97805000	      9779	80001200	00000013	addi	x0,x0,0	  x0:0x00000000
       97815000	      9780	80001204	03801263	bne	x0,x24,80001228	  x0:0x00000000 x24:0x00000fff
       97825000	      9781	00000000	00000013	addi	x0,x0,0	  x0:0x00000000
       97835000	      9782	80001224	00000013	addi	x0,x0,0	  x0:0x00000000
       97845000	      9783	80001228	00cdea33	or	x20,x27,x12	 x27:0x80000eb0 x12:0x00000001 x20=0x80000eb1
       97855000	      9784	8000122c	009c54b3	srl	x9,x24,x9	 x24:0x00000fff  x9:0x00000000  x9=0x00000fff
       97865000	      9785	80001230	018c9ab3	sll	x21,x25,x24	 x25:0x00000001 x24:0x00000fff x21=0x80000000
       97875000	      9786	80001234	41a25f33	sra	x30,x4,x26	  x4:0x80000c20 x26:0xfffffb9c x30=0xfffffff8
       97885000	      9787	80001238	01de1633	sll	x12,x28,x29	 x28:0xb0ea81e8 x29:0xed298000 x12=0xb0ea81e8
       97895000	      9788	8000123c	00f01eb3	sll	x29,x0,x15	  x0:0x00000000 x15:0x00800011 x29=0x00000000
       97905000	      9789	80001240	030c9863	bne	x25,x16,80001270	 x25:0x00000001 x16:0x80020fc0
       97915000	      9790	00000000	00000013	addi	x0,x0,0	  x0:0x00000000
       97925000	      9791	8000126c	00000013	addi	x0,x0,0	  x0:0x00000000
       97935000	      9792	80001270	00fbbd33	sltu	x26,x23,x15	 x23:0x80009f64 x15:0x00800011 x26=0x00000000
       97945000	      9793	80001274	6a8bb413	sltiu	x8,x23,1704	 x23:0x80009f64  x8=0x00000000
       97955000	      9794	80001278	a1c5ba13	sltiu	x20,x11,-1508	 x11:0x080000fb x20=0x00000001
       97965000	      9795	8000127c	01d159b3	srl	x19,x2,x29	  x2:0x80000fd0 x29:0x00000000 x19=0x80000fd0
       97975000	      9796	80001280	41ce0133	sub	x2,x28,x28	 x28:0xb0ea81e8 x28:0xb0ea81e8  x2=0x00000000
       97985000	      9797	80001284	95c6fd13	andi	x26,x13,-1700	 x13:0x80000c20 x26=0x80000800
       97995000	      9798	80001288	4054d933	sra	x18,x9,x5	  x9:0x00000fff  x5:0x4d8e515c x18=0x00000000
       98005000	      9799	8000128c	0015f633	and	x12,x11,x1	 x11:0x080000fb  x1:0x800011d8 x12=0x000000d8
       98015000	      9800	80001290	05351263	bne	x10,x19,800012d4	 x10:0x00000008 x19:0x80000fd0
       98025000	      9801	00000000	00000013	addi	x0,x0,0	  x0:0x00000000
       98035000	      9802	800012d0	00000013	addi	x0,x0,0	  x0:0x00000000
       98045000	      9803	800012d4	04498063	beq	x19,x4,80001314	 x19:0x80000fd0  x4:0x80000c20
       98055000	      9804	800012d8	7b1fe093	ori	x1,x31,1969	 x31:0x00000001  x1=0x000007b1
       98065000	      9805	800012dc	db822997	auipc	x19,0xdb822	 x19=0x5b8232d8
       98075000	      9806	800012e0	bd782e13	slti	x28,x16,-1065	 x16:0x80020fc0 x28=0x00000001
       98085000	      9807	800012e4	005784b3	add	x9,x15,x5	 x15:0x00800011  x5:0x4d8e515c  x9=0x4e0e516d
       98095000	      9808	800012e8	01bb1513	slli	x10,x22,0x1b	 x22:0x00000000 x10=0x00000000
       98105000	      9809	800012ec	00d4dd33	srl	x26,x9,x13	  x9:0x4e0e516d x13:0x80000c20 x26=0x4e0e516d
       98115000	      9810	800012f0	003f5ab3	srl	x21,x30,x3	 x30:0xfffffff8  x3:0x80000fc0 x21=0xfffffff8
       98125000	      9811	800012f4	01f12333	slt	x6,x2,x31	  x2:0x00000000 x31:0x00000001  x6=0x00000001
       98135000	      9812	800012f8	038b6c63	bltu	x22,x24,80001330	 x22:0x00000000 x24:0x00000fff
       98145000	      9813	00000000	00000013	addi	x0,x0,0	  x0:0x00000000
       98155000	      9814	8000132c	00000013	addi	x0,x0,0	  x0:0x00000000
       98165000	      9815	80001330	ea192993	slti	x19,x18,-351	 x18:0x00000000 x19=0x00000000
       98175000	      9816	80001334	5428a393	slti	x7,x17,1346	 x17:0x80009fc4  x7=0x00000001
       98185000	      9817	80001338	4064d3b3	sra	x7,x9,x6	  x9:0x4e0e516d  x6:0x00000001  x7=0x270728b6
       98195000	      9818	8000133c	6a4a2b13	slti	x22,x20,1700	 x20:0x00000001 x22=0x00000001
       98205000	      9819	80001340	2f5b4993	xori	x19,x22,757	 x22:0x00000001 x19=0x000002f4
       98215000	      9820	80001344	0e5eb2b7	lui	x5,0xe5eb	  x5=0x0e5eb000
       98225000	      9821	80001348	01c000ef	jal	x1,80001348	  x1=0x80001348
       98235000	      9822	00000000	00000013	addi	x0,x0,0	  x0:0x00000000
       98245000	      9823	80001360	00000013	addi	x0,x0,0	  x0:0x00000000
       98255000	      9824	80001364	ff1ff36f	jal	x6,80001364	  x6=0x80001364
       98265000	      9825	00000000	00000013	addi	x0,x0,0	  x0:0x00000000
       98275000	      9826	80001350	00000013	addi	x0,x0,0	  x0:0x00000000
       98285000	      9827	80001354	ff9ff0ef	jal	x1,80001354	  x1=0x80001354
       98295000	      9828	00000000	00000013	addi	x0,x0,0	  x0:0x00000000
       98305000	      9829	80001348	00000013	addi	x0,x0,0	  x0:0x00000000
       98315000	      9830	8000134c	02c000ef	jal	x1,8000134c	  x1=0x8000134c
       98325000	      9831	00000000	00000013	addi	x0,x0,0	  x0:0x00000000
       98335000	      9832	80001374	00000013	addi	x0,x0,0	  x0:0x00000000
       98345000	      9833	80001378	fe1ff36f	jal	x6,80001378	  x6=0x80001378
       98355000	      9834	00000000	00000013	addi	x0,x0,0	  x0:0x00000000
       98365000	      9835	80001354	00000013	addi	x0,x0,0	  x0:0x00000000
       98375000	      9836	80001358	0280036f	jal	x6,80001358	  x6=0x80001358
       98385000	      9837	00000000	00000013	addi	x0,x0,0	  x0:0x00000000
       98395000	      9838	8000137c	00000013	addi	x0,x0,0	  x0:0x00000000
       98405000	      9839	80001380	fedff0ef	jal	x1,80001380	  x1=0x80001380
       98415000	      9840	00000000	00000013	addi	x0,x0,0	  x0:0x00000000
       98425000	      9841	80001368	00000013	addi	x0,x0,0	  x0:0x00000000
       98435000	      9842	8000136c	fe5ff0ef	jal	x1,8000136c	  x1=0x8000136c
       98445000	      9843	00000000	00000013	addi	x0,x0,0	  x0:0x00000000
       98455000	      9844	8000134c	00000013	addi	x0,x0,0	  x0:0x00000000
       98465000	      9845	80001350	018000ef	jal	x1,80001350	  x1=0x80001350
       98475000	      9846	00000000	00000013	addi	x0,x0,0	  x0:0x00000000
       98485000	      9847	80001364	00000013	addi	x0,x0,0	  x0:0x00000000
       98495000	      9848	80001368	00c000ef	jal	x1,80001368	  x1=0x80001368
       98505000	      9849	00000000	00000013	addi	x0,x0,0	  x0:0x00000000
       98515000	      9850	80001370	00000013	addi	x0,x0,0	  x0:0x00000000
       98525000	      9851	80001374	008000ef	jal	x1,80001374	  x1=0x80001374
       98535000	      9852	00000000	00000013	addi	x0,x0,0	  x0:0x00000000
       98545000	      9853	80001378	00000013	addi	x0,x0,0	  x0:0x00000000
       98555000	      9854	8000137c	ff5ff0ef	jal	x1,8000137c	  x1=0x8000137c
       98565000	      9855	00000000	00000013	addi	x0,x0,0	  x0:0x00000000
       98575000	      9856	8000136c	00000013	addi	x0,x0,0	  x0:0x00000000
       98585000	      9857	80001370	fedff0ef	jal	x1,80001370	  x1=0x80001370
       98595000	      9858	00000000	00000013	addi	x0,x0,0	  x0:0x00000000
       98605000	      9859	80001358	00000013	addi	x0,x0,0	  x0:0x00000000
       98615000	      9860	8000135c	004001ef	jal	x3,8000135c	  x3=0x8000135c
       98625000	      9861	00000000	00000013	addi	x0,x0,0	  x0:0x00000000
       98635000	      9862	8000135c	00000013	addi	x0,x0,0	  x0:0x00000000
       98645000	      9863	80001360	024000ef	jal	x1,80001360	  x1=0x80001360
       98655000	      9864	00000000	00000013	addi	x0,x0,0	  x0:0x00000000
       98665000	      9865	80001380	00000013	addi	x0,x0,0	  x0:0x00000000
       98675000	      9866	80001384	4107dfb3	sra	x31,x15,x16	 x15:0x00800011 x16:0x80020fc0 x31=0x00800011
       98685000	      9867	80001388	00691533	sll	x10,x18,x6	 x18:0x00000000  x6:0x80001358 x10=0x00000000
       98695000	      9868	8000138c	41a486b3	sub	x13,x9,x26	  x9:0x4e0e516d x26:0x4e0e516d x13=0x00000000
       98705000	      9869	80001390	40695033	sra	x0,x18,x6	 x18:0x00000000  x6:0x80001358
       98715000	      9870	80001394	9643ec13	ori	x24,x7,-1692	  x7:0x270728b6 x24=0xfffff9f6
       98725000	      9871	80001398	bf69f593	andi	x11,x19,-1034	 x19:0x000002f4 x11=0x000002f4
       98735000	      9872	8000139c	01db8fb3	add	x31,x23,x29	 x23:0x80009f64 x29:0x00000000 x31=0x80009f64
       98745000	      9873	800013a0	41985913	srai	x18,x16,0x19	 x16:0x80020fc0 x18=0xffffffc0
       98755000	      9874	800013a4	01a447b3	xor	x15,x8,x26	  x8:0x00000000 x26:0x4e0e516d x15=0x4e0e516d
       98765000	      9875	800013a8	00159133	sll	x2,x11,x1	 x11:0x000002f4  x1:0x80001360  x2=0x000002f4
       98775000	      9876	800013ac	f9f71037	lui	x0,0xf9f71	
       98785000	      9877	800013b0	00f021b3	slt	x3,x0,x15	  x0:0x00000000 x15:0x4e0e516d  x3=0x00000001
       98795000	      9878	800013b4	67b34613	xori	x12,x6,1659	  x6:0x80001358 x12=0x80001523
       98805000	      9879	800013b8	0403e663	bltu	x7,x0,80001404	  x7:0x270728b6  x0:0x00000000
       98815000	      9880	800013bc	00f2bcb3	sltu	x25,x5,x15	  x5:0x0e5eb000 x15:0x4e0e516d x25=0x00000001
       98825000	      9881	800013c0	0412f263	bgeu	x5,x1,80001404	  x5:0x0e5eb000  x1:0x80001360
       98835000	      9882	800013c4	0025f1b3	and	x3,x11,x2	 x11:0x000002f4  x2:0x000002f4  x3=0x000002f4
       98845000	      9883	800013c8	f3632313	slti	x6,x6,-202	  x6:0x80001358  x6=0x00000001
       98855000	      9884	800013cc	00d99a33	sll	x20,x19,x13	 x19:0x000002f4 x13:0x00000000 x20=0x000002f4
       98865000	      9885	800013d0	01d1fcb3	and	x25,x3,x29	  x3:0x000002f4 x29:0x00000000 x25=0x00000000
       98875000	      9886	800013d4	142de613	ori	x12,x27,322	 x27:0x80000eb0 x12=0x80000ff2
       98885000	      9887	800013d8	bc44ae93	slti	x29,x9,-1084	  x9:0x4e0e516d x29=0x00000000
       98895000	      9888	800013dc	04305663	bge	x0,x3,80001428	  x0:0x00000000  x3:0x000002f4
       98905000	      9889	800013e0	0124dd13	srli	x26,x9,0x12	  x9:0x4e0e516d x26=0x00001383
       98915000	      9890	800013e4	00e94ab3	xor	x21,x18,x14	 x18:0xffffffc0 x14:0x00000004 x21=0xffffffc4
       98925000	      9891	800013e8	02291863	bne	x18,x2,80001418	 x18:0xffffffc0  x2:0x000002f4
       98935000	      9892	00000000	00000013	addi	x0,x0,0	  x0:0x00000000
       98945000	      9893	80001414	00000013	addi	x0,x0,0	  x0:0x00000000
       98955000	      9894	80001418	85fb2213	slti	x4,x22,-1953	 x22:0x00000001  x4=0x00000000
       98965000	      9895	8000141c	00e76233	or	x4,x14,x14	 x14:0x00000004 x14:0x00000004  x4=0x00000004
       98975000	      9896	80001420	00d8dc33	srl	x24,x17,x13	 x17:0x80009fc4 x13:0x00000000 x24=0x80009fc4
       98985000	      9897	80001424	00dc8633	add	x12,x25,x13	 x25:0x00000000 x13:0x00000000 x12=0x00000000
       98995000	      9898	80001428	0dacad13	slti	x26,x25,218	 x25:0x00000000 x26=0x00000001
       99005000	      9899	8000142c	411c5433	sra	x8,x24,x17	 x24:0x80009fc4 x17:0x80009fc4  x8=0xf80009fc
       99015000	      9900	80001430	67e5f293	andi	x5,x11,1662	 x11:0x000002f4  x5=0x00000274
       99025000	      9901	80001434	04b08263	beq	x1,x11,80001478	  x1:0x80001360 x11:0x000002f4
       99035000	      9902	80001438	b5d16b17	auipc	x22,0xb5d16	 x22=0x35d17434
       99045000	      9903	8000143c	00000013	addi	x0,x0,0	  x0:0x00000000
       99055000	      9904	80001440	02790263	beq	x18,x7,80001464	 x18:0xffffffc0  x7:0x270728b6
       99065000	      9905	80001444	00cd5c63	bge	x26,x12,8000145c	 x26:0x00000001 x12:0x00000000
       99075000	      9906	00000000	00000013	addi	x0,x0,0	  x0:0x00000000
       99085000	      9907	80001458	00000013	addi	x0,x0,0	  x0:0x00000000
       99095000	      9908	8000145c	00bab6b3	sltu	x13,x21,x11	 x21:0xffffffc4 x11:0x000002f4 x13=0x00000000
       99105000	      9909	80001460	40f7d833	sra	x16,x15,x15	 x15:0x4e0e516d x15:0x4e0e516d x16=0x00027072
       99115000	      9910	80001464	00c7d263	bge	x15,x12,80001468	 x15:0x4e0e516d x12:0x00000000
       99125000	      9911	00000000	00000013	addi	x0,x0,0	  x0:0x00000000
       99135000	      9912	80001464	00000013	addi	x0,x0,0	  x0:0x00000000
       99145000	      9913	80001468	016ca4b3	slt	x9,x25,x22	 x25:0x00000000 x22:0x35d17434  x9=0x00000001
       99155000	      9914	8000146c	01317463	bgeu	x2,x19,80001474	  x2:0x000002f4 x19:0x000002f4
       99165000	      9915	00000000	00000013	addi	x0,x0,0	  x0:0x00000000
       99175000	      9916	80001470	00000013	addi	x0,x0,0	  x0:0x00000000
       99185000	      9917	80001474	00000013	addi	x0,x0,0	  x0:0x00000000
       99195000	      9918	80001478	0fa29937	lui	x18,0xfa29	 x18=0x0fa29000
       99205000	      9919	8000147c	044d6663	bltu	x26,x4,800014c8	 x26:0x00000001  x4:0x00000004
       99215000	      9920	00000000	00000013	addi	x0,x0,0	  x0:0x00000000
       99225000	      9921	800014c4	00000013	addi	x0,x0,0	  x0:0x00000000
       99235000	      9922	800014c8	019e1533	sll	x10,x28,x25	 x28:0x00000001 x25:0x00000000 x10=0x00000001
       99245000	      9923	800014cc	019fde33	srl	x28,x31,x25	 x31:0x80009f64 x25:0x00000000 x28=0x80009f64
       99255000	      9924	800014d0	d14e3093	sltiu	x1,x28,-748	 x28:0x80009f64  x1=0x00000001
       99265000	      9925	800014d4	40ac02b3	sub	x5,x24,x10	 x24:0x80009fc4 x10:0x00000001  x5=0x80009fc3
       99275000	      9926	800014d8	01a15213	srli	x4,x2,0x1a	  x2:0x000002f4  x4=0x00000000
       99285000	      9927	800014dc	88814417	auipc	x8,0x88814	  x8=0x088154d8
       99295000	      9928	800014e0	01ec2933	slt	x18,x24,x30	 x24:0x80009fc4 x30:0xfffffff8 x18=0x00000001
       99305000	      9929	800014e4	405553b3	sra	x7,x10,x5	 x10:0x00000001  x5:0x80009fc3  x7=0x00000000
       99315000	      9930	800014e8	009f6eb3	or	x29,x30,x9	 x30:0xfffffff8  x9:0x00000001 x29=0xfffffff9
       99325000	      9931	800014ec	0476d663	bge	x13,x7,80001538	 x13:0x00000000  x7:0x00000000
       99335000	      9932	00000000	00000013	addi	x0,x0,0	  x0:0x00000000
       99345000	      9933	80001534	00000013	addi	x0,x0,0	  x0:0x00000000
       99355000	      9934	80001538	0111d663	bge	x3,x17,80001544	  x3:0x000002f4 x17:0x80009fc4
       99365000	      9935	00000000	00000013	addi	x0,x0,0	  x0:0x00000000
       99375000	      9936	80001540	00000013	addi	x0,x0,0	  x0:0x00000000
       99385000	      9937	80001544	00074263	blt	x14,x0,80001548	 x14:0x00000004  x0:0x00000000
       99395000	      9938	80001548	04434063	blt	x6,x4,80001588	  x6:0x00000001  x4:0x00000000
       99405000	      9939	8000154c	011c36b3	sltu	x13,x24,x17	 x24:0x80009fc4 x17:0x80009fc4 x13=0x00000000
       99415000	      9940	80001550	008f6863	bltu	x30,x8,80001560	 x30:0xfffffff8  x8:0x088154d8
       99425000	      9941	80001554	003840b3	xor	x1,x16,x3	 x16:0x00027072  x3:0x000002f4  x1=0x00027286
       99435000	      9942	80001558	feb77a93	andi	x21,x14,-21	 x14:0x00000004 x21=0x00000000
       99445000	      9943	8000155c	0311e263	bltu	x3,x17,80001580	  x3:0x000002f4 x17:0x80009fc4
       99455000	      9944	00000000	00000013	addi	x0,x0,0	  x0:0x00000000
       99465000	      9945	8000157c	00000013	addi	x0,x0,0	  x0:0x00000000
       99475000	      9946	80001580	054a1263	bne	x20,x20,800015c4	 x20:0x000002f4 x20:0x000002f4
       99485000	      9947	80001584	41348db3	sub	x27,x9,x19	  x9:0x00000001 x19:0x000002f4 x27=0xfffffd0d
       99495000	      9948	80001588	042f5663	bge	x30,x2,800015d4	 x30:0xfffffff8  x2:0x000002f4
       99505000	      9949	8000158c	01584863	blt	x16,x21,8000159c	 x16:0x00027072 x21:0x00000000
       99515000	      9950	80001590	01bc4cb3	xor	x25,x24,x27	 x24:0x80009fc4 x27:0xfffffd0d x25=0x7fff62c9
       99525000	      9951	80001594	01daf663	bgeu	x21,x29,800015a0	 x21:0x00000000 x29:0xfffffff9
       99535000	      9952	80001598	034fe263	bltu	x31,x20,800015bc	 x31:0x80009f64 x20:0x000002f4
       99545000	      9953	8000159c	a44aa793	slti	x15,x21,-1468	 x21:0x00000000 x15=0x00000000
       99555000	      9954	800015a0	01799e93	slli	x29,x19,0x17	 x19:0x000002f4 x29=0x7a000000
       99565000	      9955	800015a4	411f5333	sra	x6,x30,x17	 x30:0xfffffff8 x17:0x80009fc4  x6=0xffffffff
       99575000	      9956	800015a8	0063de13	srli	x28,x7,0x6	  x7:0x00000000 x28=0x00000000
       99585000	      9957	800015ac	2eba2f97	auipc	x31,0x2eba2	 x31=0xaeba35a8
       99595000	      9958	800015b0	0052fdb3	and	x27,x5,x5	  x5:0x80009fc3  x5:0x80009fc3 x27=0x80009fc3
       99605000	      9959	800015b4	01b554b3	srl	x9,x10,x27	 x10:0x00000001 x27:0x80009fc3  x9=0x00000000
       99615000	      9960	800015b8	05144263	blt	x8,x17,800015fc	  x8:0x088154d8 x17:0x80009fc4
       99625000	      9961	800015bc	017154b3	srl	x9,x2,x23	  x2:0x000002f4 x23:0x80009f64  x9=0x0000002f
       99635000	      9962	800015c0	d75cae37	lui	x28,0xd75ca	 x28=0xd75ca000
       99645000	      9963	800015c4	9e820593	addi	x11,x4,-1560	  x4:0x00000000 x11=0xfffff9e8
       99655000	      9964	800015c8	00000013	addi	x0,x0,0	  x0:0x00000000
       99665000	      9965	800015cc	01981a13	slli	x20,x16,0x19	 x16:0x00027072 x20=0xe4000000
       99675000	      9966	800015d0	40d65d33	sra	x26,x12,x13	 x12:0x00000000 x13:0x00000000 x26=0x00000000
       99685000	      9967	800015d4	01aca133	slt	x2,x25,x26	 x25:0x7fff62c9 x26:0x00000000  x2=0x00000000
       99695000	      9968	800015d8	0db10a13	addi	x20,x2,219	  x2:0x00000000 x20=0x000000db
       99705000	      9969	800015dc	1dbe2293	slti	x5,x28,475	 x28:0xd75ca000  x5=0x00000001
       99715000	      9970	800015e0	0030f2b3	and	x5,x1,x3	  x1:0x00027286  x3:0x000002f4  x5=0x00000284
       99725000	      9971	800015e4	01485833	srl	x16,x16,x20	 x16:0x00027072 x20:0x000000db x16=0x00000000
       99735000	      9972	800015e8	01a03033	sltu	x0,x0,x26	  x0:0x00000000 x26:0x00000000
       99745000	      9973	800015ec	0027e233	or	x4,x15,x2	 x15:0x00000000  x2:0x00000000  x4=0x00000000
       99755000	      9974	800015f0	c5c32917	auipc	x18,0xc5c32	 x18=0x45c335ec
       99765000	      9975	800015f4	4122dc33	sra	x24,x5,x18	  x5:0x00000284 x18:0x45c335ec x24=0x00000000
       99775000	      9976	800015f8	c04e4997	auipc	x19,0xc04e4	 x19=0x404e55f4
       99785000	      9977	800015fc	013d0e63	beq	x26,x19,80001618	 x26:0x00000000 x19:0x404e55f4
       99795000	      9978	80001600	b7253d13	sltiu	x26,x10,-1166	 x10:0x00000001 x26=0x00000001
       99805000	      9979	80001604	0407d663	bge	x15,x0,80001650	 x15:0x00000000  x0:0x00000000
       99815000	      9980	00000000	00000013	addi	x0,x0,0	  x0:0x00000000
       99825000	      9981	8000164c	00000013	addi	x0,x0,0	  x0:0x00000000
       99835000	      9982	80001650	f2464d93	xori	x27,x12,-220	 x12:0x00000000 x27=0xffffff24
       99845000	      9983	80001654	40cf0fb3	sub	x31,x30,x12	 x30:0xfffffff8 x12:0x00000000 x31=0xfffffff8
       99855000	      9984	80001658	028000ef	jal	x1,80001658	  x1=0x80001658
       99865000	      9985	00000000	00000013	addi	x0,x0,0	  x0:0x00000000
       99875000	      9986	8000167c	00000013	addi	x0,x0,0	  x0:0x00000000
       99885000	      9987	80001680	018000ef	jal	x1,80001680	  x1=0x80001680
       99895000	      9988	00000000	00000013	addi	x0,x0,0	  x0:0x00000000
       99905000	      9989	80001694	00000013	addi	x0,x0,0	  x0:0x00000000
       99915000	      9990	80001698	0240036f	jal	x6,80001698	  x6=0x80001698
       99925000	      9991	00000000	00000013	addi	x0,x0,0	  x0:0x00000000
       99935000	      9992	800016b8	00000013	addi	x0,x0,0	  x0:0x00000000
       99945000	      9993	800016bc	00c000ef	jal	x1,800016bc	  x1=0x800016bc
       99955000	      9994	00000000	00000013	addi	x0,x0,0	  x0:0x00000000
       99965000	      9995	800016c4	00000013	addi	x0,x0,0	  x0:0x00000000
       99975000	      9996	800016c8	fb5ff36f	jal	x6,800016c8	  x6=0x800016c8
       99985000	      9997	00000000	00000013	addi	x0,x0,0	  x0:0x00000000
       99995000	      9998	80001678	00000013	addi	x0,x0,0	  x0:0x00000000
      100005000	      9999	8000167c	fedff0ef	jal	x1,8000167c	  x1=0x8000167c
      100015000	     10000	00000000	00000013	addi	x0,x0,0	  x0:0x00000000
      100025000	     10001	80001664	00000013	addi	x0,x0,0	  x0:0x00000000
      100035000	     10002	80001668	0480036f	jal	x6,80001668	  x6=0x80001668
      100045000	     10003	00000000	00000013	addi	x0,x0,0	  x0:0x00000000
      100055000	     10004	800016ac	00000013	addi	x0,x0,0	  x0:0x00000000
      100065000	     10005	800016b0	fddff16f	jal	x2,800016b0	  x2=0x800016b0
      100075000	     10006	00000000	00000013	addi	x0,x0,0	  x0:0x00000000
      100085000	     10007	80001688	00000013	addi	x0,x0,0	  x0:0x00000000
      100095000	     10008	8000168c	014000ef	jal	x1,8000168c	  x1=0x8000168c
      100105000	     10009	00000000	00000013	addi	x0,x0,0	  x0:0x00000000
      100115000	     10010	8000169c	00000013	addi	x0,x0,0	  x0:0x00000000
      100125000	     10011	800016a0	0180036f	jal	x6,800016a0	  x6=0x800016a0
      100135000	     10012	00000000	00000013	addi	x0,x0,0	  x0:0x00000000
      100145000	     10013	800016b4	00000013	addi	x0,x0,0	  x0:0x00000000
      100155000	     10014	800016b8	fa5ff0ef	jal	x1,800016b8	  x1=0x800016b8
      100165000	     10015	00000000	00000013	addi	x0,x0,0	  x0:0x00000000
      100175000	     10016	80001658	00000013	addi	x0,x0,0	  x0:0x00000000
      100185000	     10017	8000165c	0100016f	jal	x2,8000165c	  x2=0x8000165c
      100195000	     10018	00000000	00000013	addi	x0,x0,0	  x0:0x00000000
      100205000	     10019	80001668	00000013	addi	x0,x0,0	  x0:0x00000000
      100215000	     10020	8000166c	008000ef	jal	x1,8000166c	  x1=0x8000166c
      100225000	     10021	00000000	00000013	addi	x0,x0,0	  x0:0x00000000
      100235000	     10022	80001670	00000013	addi	x0,x0,0	  x0:0x00000000
      100245000	     10023	80001674	0400016f	jal	x2,80001674	  x2=0x80001674
      100255000	     10024	00000000	00000013	addi	x0,x0,0	  x0:0x00000000
      100265000	     10025	800016b0	00000013	addi	x0,x0,0	  x0:0x00000000
      100275000	     10026	800016b4	fd1ff0ef	jal	x1,800016b4	  x1=0x800016b4
      100285000	     10027	00000000	00000013	addi	x0,x0,0	  x0:0x00000000
      100295000	     10028	80001680	00000013	addi	x0,x0,0	  x0:0x00000000
      100305000	     10029	80001684	fedff36f	jal	x6,80001684	  x6=0x80001684
      100315000	     10030	00000000	00000013	addi	x0,x0,0	  x0:0x00000000
      100325000	     10031	8000166c	00000013	addi	x0,x0,0	  x0:0x00000000
      100335000	     10032	80001670	008000ef	jal	x1,80001670	  x1=0x80001670
      100345000	     10033	00000000	00000013	addi	x0,x0,0	  x0:0x00000000
      100355000	     10034	80001674	00000013	addi	x0,x0,0	  x0:0x00000000
      100365000	     10035	80001678	0480036f	jal	x6,80001678	  x6=0x80001678
      100375000	     10036	00000000	00000013	addi	x0,x0,0	  x0:0x00000000
      100385000	     10037	800016bc	00000013	addi	x0,x0,0	  x0:0x00000000
      100395000	     10038	800016c0	fd5ff0ef	jal	x1,800016c0	  x1=0x800016c0
      100405000	     10039	00000000	00000013	addi	x0,x0,0	  x0:0x00000000
      100415000	     10040	80001690	00000013	addi	x0,x0,0	  x0:0x00000000
      100425000	     10041	80001694	010000ef	jal	x1,80001694	  x1=0x80001694
      100435000	     10042	00000000	00000013	addi	x0,x0,0	  x0:0x00000000
      100445000	     10043	800016a0	00000013	addi	x0,x0,0	  x0:0x00000000
      100455000	     10044	800016a4	008000ef	jal	x1,800016a4	  x1=0x800016a4
      100465000	     10045	00000000	00000013	addi	x0,x0,0	  x0:0x00000000
      100475000	     10046	800016a8	00000013	addi	x0,x0,0	  x0:0x00000000
      100485000	     10047	800016ac	fb9ff0ef	jal	x1,800016ac	  x1=0x800016ac
      100495000	     10048	00000000	00000013	addi	x0,x0,0	  x0:0x00000000
      100505000	     10049	80001660	00000013	addi	x0,x0,0	  x0:0x00000000
      100515000	     10050	80001664	02c0036f	jal	x6,80001664	  x6=0x80001664
      100525000	     10051	00000000	00000013	addi	x0,x0,0	  x0:0x00000000
      100535000	     10052	8000168c	00000013	addi	x0,x0,0	  x0:0x00000000
      100545000	     10053	80001690	fd1ff26f	jal	x4,80001690	  x4=0x80001690
      100555000	     10054	00000000	00000013	addi	x0,x0,0	  x0:0x00000000
      100565000	     10055	8000165c	00000013	addi	x0,x0,0	  x0:0x00000000
      100575000	     10056	80001660	03c000ef	jal	x1,80001660	  x1=0x80001660
      100585000	     10057	00000000	00000013	addi	x0,x0,0	  x0:0x00000000
      100595000	     10058	80001698	00000013	addi	x0,x0,0	  x0:0x00000000
      100605000	     10059	8000169c	00c000ef	jal	x1,8000169c	  x1=0x8000169c
      100615000	     10060	00000000	00000013	addi	x0,x0,0	  x0:0x00000000
      100625000	     10061	800016a4	00000013	addi	x0,x0,0	  x0:0x00000000
      100635000	     10062	800016a8	fe1ff0ef	jal	x1,800016a8	  x1=0x800016a8
      100645000	     10063	00000000	00000013	addi	x0,x0,0	  x0:0x00000000
      100655000	     10064	80001684	00000013	addi	x0,x0,0	  x0:0x00000000
      100665000	     10065	80001688	03c0016f	jal	x2,80001688	  x2=0x80001688
      100675000	     10066	00000000	00000013	addi	x0,x0,0	  x0:0x00000000
      100685000	     10067	800016c0	00000013	addi	x0,x0,0	  x0:0x00000000
      100695000	     10068	800016c4	008005ef	jal	x11,800016c4	 x11=0x800016c4
      100705000	     10069	00000000	00000013	addi	x0,x0,0	  x0:0x00000000
      100715000	     10070	800016c8	00000013	addi	x0,x0,0	  x0:0x00000000
      100725000	     10071	800016cc	951db213	sltiu	x4,x27,-1711	 x27:0xffffff24  x4=0x00000000
      100735000	     10072	800016d0	01dc9b33	sll	x22,x25,x29	 x25:0x7fff62c9 x29:0x7a000000 x22=0x7fff62c9
      100745000	     10073	800016d4	13051237	lui	x4,0x13051	  x4=0x13051000
      100755000	     10074	800016d8	0193ceb3	xor	x29,x7,x25	  x7:0x00000000 x25:0x7fff62c9 x29=0x7fff62c9
      100765000	     10075	800016dc	651f0c13	addi	x24,x30,1617	 x30:0xfffffff8 x24=0x00000649
      100775000	     10076	800016e0	013d5a93	srli	x21,x26,0x13	 x26:0x00000001 x21=0x00000000
      100785000	     10077	800016e4	09737593	andi	x11,x6,151	  x6:0x80001664 x11=0x00000004
      100795000	     10078	800016e8	a1124d93	xori	x27,x4,-1519	  x4:0x13051000 x27=0xecfaea11
      100805000	     10079	800016ec	005d3d33	sltu	x26,x26,x5	 x26:0x00000001  x5:0x00000284 x26=0x00000001
      100815000	     10080	800016f0	000d9eb3	sll	x29,x27,x0	 x27:0xecfaea11  x0:0x00000000 x29=0xecfaea11
      100825000	     10081	800016f4	00af7333	and	x6,x30,x10	 x30:0xfffffff8 x10:0x00000001  x6=0x00000000
      100835000	     10082	800016f8	00f419b3	sll	x19,x8,x15	  x8:0x088154d8 x15:0x00000000 x19=0x088154d8
      100845000	     10083	800016fc	00e59813	slli	x16,x11,0xe	 x11:0x00000004 x16=0x00010000
      100855000	     10084	80001700	01dc5c33	srl	x24,x24,x29	 x24:0x00000649 x29:0xecfaea11 x24=0x00000000
      100865000	     10085	80001704	aaddcfb7	lui	x31,0xaaddc	 x31=0xaaddc000
      100875000	     10086	80001708	41d959b3	sra	x19,x18,x29	 x18:0x45c335ec x29:0xecfaea11 x19=0x000022e1
      100885000	     10087	8000170c	86623913	sltiu	x18,x4,-1946	  x4:0x13051000 x18=0x00000001
      100895000	     10088	80001710	f02f00b7	lui	x1,0xf02f0	  x1=0xf02f0000
      100905000	     10089	80001714	01f0dc93	srli	x25,x1,0x1f	  x1:0xf02f0000 x25=0x00000001
      100915000	     10090	80001718	0096a033	slt	x0,x13,x9	 x13:0x00000000  x9:0x0000002f
      100925000	     10091	8000171c	003ddeb3	srl	x29,x27,x3	 x27:0xecfaea11  x3:0x000002f4 x29=0x00000ecf
      100935000	     10092	80001720	23c9c613	xori	x12,x19,572	 x19:0x000022e1 x12=0x000020dd
      100945000	     10093	80001724	0180f7b3	and	x15,x1,x24	  x1:0xf02f0000 x24:0x00000000 x15=0x00000000
      100955000	     10094	80001728	009a8c63	beq	x21,x9,80001740	 x21:0x00000000  x9:0x0000002f
      100965000	     10095	8000172c	00f20e33	add	x28,x4,x15	  x4:0x13051000 x15:0x00000000 x28=0x13051000
      100975000	     10096	80001730	04141263	bne	x8,x1,80001774	  x8:0x088154d8  x1:0xf02f0000
      100985000	     10097	00000000	00000013	addi	x0,x0,0	  x0:0x00000000
      100995000	     10098	80001770	00000013	addi	x0,x0,0	  x0:0x00000000
      101005000	     10099	80001774	00309663	bne	x1,x3,80001780	  x1:0xf02f0000  x3:0x000002f4
      101015000	     10100	00000000	00000013	addi	x0,x0,0	  x0:0x00000000
      101025000	     10101	8000177c	00000013	addi	x0,x0,0	  x0:0x00000000
      101035000	     10102	80001780	32617817	auipc	x16,0x32617	 x16=0xb261877c
      101045000	     10103	80001784	02415263	bge	x2,x4,800017a8	  x2:0x80001688  x4:0x13051000
      101055000	     10104	80001788	03208c63	beq	x1,x18,800017c0	  x1:0xf02f0000 x18:0x00000001
      101065000	     10105	8000178c	04ac9063	bne	x25,x10,800017cc	 x25:0x00000001 x10:0x00000001
      101075000	     10106	80001790	0d5b3a93	sltiu	x21,x22,213	 x22:0x7fff62c9 x21=0x00000000
      101085000	     10107	80001794	00ce9c33	sll	x24,x29,x12	 x29:0x00000ecf x12:0x000020dd x24=0xe0000000
      101095000	     10108	80001798	00414e33	xor	x28,x2,x4	  x2:0x80001688  x4:0x13051000 x28=0x93050688
      101105000	     10109	8000179c	01e4dc13	srli	x24,x9,0x1e	  x9:0x0000002f x24=0x00000000
      101115000	     10110	800017a0	f294cf13	xori	x30,x9,-215	  x9:0x0000002f x30=0xffffff06
      101125000	     10111	800017a4	413a5833	sra	x16,x20,x19	 x20:0x000000db x19:0x000022e1 x16=0x0000006d
      101135000	     10112	800017a8	03f1f263	bgeu	x3,x31,800017cc	  x3:0x000002f4 x31:0xaaddc000
      101145000	     10113	800017ac	0029d863	bge	x19,x2,800017bc	 x19:0x000022e1  x2:0x80001688
      101155000	     10114	00000000	00000013	addi	x0,x0,0	  x0:0x00000000
      101165000	     10115	800017b8	00000013	addi	x0,x0,0	  x0:0x00000000
      101175000	     10116	800017bc	412b5813	srai	x16,x22,0x12	 x22:0x7fff62c9 x16=0x00001fff
      101185000	     10117	800017c0	c1e58593	addi	x11,x11,-994	 x11:0x00000004 x11=0xfffffc22
      101195000	     10118	800017c4	05949663	bne	x9,x25,80001810	  x9:0x0000002f x25:0x00000001
      101205000	     10119	00000000	00000013	addi	x0,x0,0	  x0:0x00000000
      101215000	     10120	8000180c	00000013	addi	x0,x0,0	  x0:0x00000000
      101225000	     10121	80001810	03130663	beq	x6,x17,8000183c	  x6:0x00000000 x17:0x80009fc4
      101235000	     10122	80001814	a8547113	andi	x2,x8,-1403	  x8:0x088154d8  x2=0x08815080
      101245000	     10123	80001818	410c89b3	sub	x19,x25,x16	 x25:0x00000001 x16:0x00001fff x19=0xffffe002
      101255000	     10124	8000181c	00485933	srl	x18,x16,x4	 x16:0x00001fff  x4:0x13051000 x18=0x00001fff
      101265000	     10125	80001820	407b8933	sub	x18,x23,x7	 x23:0x80009f64  x7:0x00000000 x18=0x80009f64
      101275000	     10126	80001824	412ede33	sra	x28,x29,x18	 x29:0x00000ecf x18:0x80009f64 x28=0x000000ec
      101285000	     10127	80001828	01082133	slt	x2,x16,x16	 x16:0x00001fff x16:0x00001fff  x2=0x00000000
      101295000	     10128	8000182c	0443f263	bgeu	x7,x4,80001870	  x7:0x00000000  x4:0x13051000
      101305000	     10129	80001830	01f4e233	or	x4,x9,x31	  x9:0x0000002f x31:0xaaddc000  x4=0xaaddc02f
      101315000	     10130	80001834	02a4d863	bge	x9,x10,80001864	  x9:0x0000002f x10:0x00000001
      101325000	     10131	00000000	00000013	addi	x0,x0,0	  x0:0x00000000
      101335000	     10132	80001860	00000013	addi	x0,x0,0	  x0:0x00000000
      101345000	     10133	80001864	41830a33	sub	x20,x6,x24	  x6:0x00000000 x24:0x00000000 x20=0x00000000
      101355000	     10134	80001868	4109d513	srai	x10,x19,0x10	 x19:0xffffe002 x10=0xffffffff
      101365000	     10135	8000186c	02d94863	blt	x18,x13,8000189c	 x18:0x80009f64 x13:0x00000000
      101375000	     10136	00000000	00000013	addi	x0,x0,0	  x0:0x00000000
      101385000	     10137	80001898	00000013	addi	x0,x0,0	  x0:0x00000000
      101395000	     10138	8000189c	00401113	slli	x2,x0,0x4	  x0:0x00000000  x2=0x00000000
      101405000	     10139	800018a0	003f1793	slli	x15,x30,0x3	 x30:0xffffff06 x15=0xfffff830
      101415000	     10140	800018a4	00000013	addi	x0,x0,0	  x0:0x00000000
      101425000	     10141	800018a8	4114dd33	sra	x26,x9,x17	  x9:0x0000002f x17:0x80009fc4 x26=0x00000002
      101435000	     10142	800018ac	01039493	slli	x9,x7,0x10	  x7:0x00000000  x9=0x00000000
      101445000	     10143	800018b0	01146263	bltu	x8,x17,800018b4	  x8:0x088154d8 x17:0x80009fc4
      101455000	     10144	00000000	00000013	addi	x0,x0,0	  x0:0x00000000
      101465000	     10145	800018b0	00000013	addi	x0,x0,0	  x0:0x00000000
      101475000	     10146	800018b4	f0930e93	addi	x29,x6,-247	  x6:0x00000000 x29=0xffffff09
      101485000	     10147	800018b8	705fa917	auipc	x18,0x705fa	 x18=0xf05fb8b4
      101495000	     10148	800018bc	022e4663	blt	x28,x2,800018e8	 x28:0x000000ec  x2:0x00000000
      101505000	     10149	800018c0	4102b213	sltiu	x4,x5,1040	  x5:0x00000284  x4=0x00000001
      101515000	     10150	800018c4	00663b33	sltu	x22,x12,x6	 x12:0x000020dd  x6:0x00000000 x22=0x00000000
      101525000	     10151	800018c8	001d8663	beq	x27,x1,800018d4	 x27:0xecfaea11  x1:0xf02f0000
      101535000	     10152	800018cc	eb1e4193	xori	x3,x28,-335	 x28:0x000000ec  x3=0xfffffe5d
      101545000	     10153	800018d0	01be9313	slli	x6,x29,0x1b	 x29:0xffffff09  x6=0x48000000
      101555000	     10154	800018d4	401a5313	srai	x6,x20,0x1	 x20:0x00000000  x6=0x00000000
      101565000	     10155	800018d8	044be663	bltu	x23,x4,80001924	 x23:0x80009f64  x4:0x00000001
      101575000	     10156	800018dc	f358a337	lui	x6,0xf358a	  x6=0xf358a000
      101585000	     10157	800018e0	6741e513	ori	x10,x3,1652	  x3:0xfffffe5d x10=0xfffffe7d
      101595000	     10158	800018e4	01428333	add	x6,x5,x20	  x5:0x00000284 x20:0x00000000  x6=0x00000284
      101605000	     10159	800018e8	00dfba33	sltu	x20,x31,x13	 x31:0xaaddc000 x13:0x00000000 x20=0x00000000
      101615000	     10160	800018ec	40bb5633	sra	x12,x22,x11	 x22:0x00000000 x11:0xfffffc22 x12=0x00000000
      101625000	     10161	800018f0	0435f263	bgeu	x11,x3,80001934	 x11:0xfffffc22  x3:0xfffffe5d
      101635000	     10162	800018f4	647fc013	xori	x0,x31,1607	 x31:0xaaddc000
      101645000	     10163	800018f8	005659b3	srl	x19,x12,x5	 x12:0x00000000  x5:0x00000284 x19=0x00000000
      101655000	     10164	800018fc	ded6c113	xori	x2,x13,-531	 x13:0x00000000  x2=0xfffffded
      101665000	     10165	80001900	0a0d0037	lui	x0,0xa0d0	
      101675000	     10166	80001904	f4236cb7	lui	x25,0xf4236	 x25=0xf4236000
      101685000	     10167	80001908	018f2db3	slt	x27,x30,x24	 x30:0xffffff06 x24:0x00000000 x27=0x00000001
      101695000	     10168	8000190c	eb1bc497	auipc	x9,0xeb1bc	  x9=0x6b1bd908
      101705000	     10169	80001910	005bc033	xor	x0,x23,x5	 x23:0x80009f64  x5:0x00000284
      101715000	     10170	80001914	a305b513	sltiu	x10,x11,-1488	 x11:0xfffffc22 x10=0x00000000
      101725000	     10171	80001918	000c7663	bgeu	x24,x0,80001924	 x24:0x00000000  x0:0x00000000
      101735000	     10172	00000000	00000013	addi	x0,x0,0	  x0:0x00000000
      101745000	     10173	80001920	00000013	addi	x0,x0,0	  x0:0x00000000
      101755000	     10174	80001924	04820263	beq	x4,x8,80001968	  x4:0x00000001  x8:0x088154d8
      101765000	     10175	80001928	41f4dd33	sra	x26,x9,x31	  x9:0x6b1bd908 x31:0xaaddc000 x26=0x6b1bd908
      101775000	     10176	8000192c	00d31a33	sll	x20,x6,x13	  x6:0x00000284 x13:0x00000000 x20=0x00000284
      101785000	     10177	80001930	80472113	slti	x2,x14,-2044	 x14:0x00000004  x2=0x00000000
      101795000	     10178	80001934	0125ee33	or	x28,x11,x18	 x11:0xfffffc22 x18:0xf05fb8b4 x28=0xfffffcb6
      101805000	     10179	80001938	0187e263	bltu	x15,x24,8000193c	 x15:0xfffff830 x24:0x00000000
      101815000	     10180	8000193c	0ecd7313	andi	x6,x26,236	 x26:0x6b1bd908  x6=0x00000008
      101825000	     10181	80001940	a28b6db7	lui	x27,0xa28b6	 x27=0xa28b6000
      101835000	     10182	80001944	4dc27a13	andi	x20,x4,1244	  x4:0x00000001 x20=0x00000000
      101845000	     10183	80001948	403a8cb3	sub	x25,x21,x3	 x21:0x00000000  x3:0xfffffe5d x25=0x000001a3
      101855000	     10184	8000194c	33f83fb7	lui	x31,0x33f83	 x31=0x33f83000
      101865000	     10185	80001950	00000013	addi	x0,x0,0	  x0:0x00000000
      101875000	     10186	80001954	025dd863	bge	x27,x5,80001984	 x27:0xa28b6000  x5:0x00000284
      101885000	     10187	80001958	00000013	addi	x0,x0,0	  x0:0x00000000
      101895000	     10188	8000195c	00ed0463	beq	x26,x14,80001964	 x26:0x6b1bd908 x14:0x00000004
      101905000	     10189	80001960	4076d833	sra	x16,x13,x7	 x13:0x00000000  x7:0x00000000 x16=0x00000000
      101915000	     10190	80001964	004ea4b3	slt	x9,x29,x4	 x29:0xffffff09  x4:0x00000001  x9=0x00000001
      101925000	     10191	80001968	000afe33	and	x28,x21,x0	 x21:0x00000000  x0:0x00000000 x28=0x00000000
      101935000	     10192	8000196c	f5296e93	ori	x29,x18,-174	 x18:0xf05fb8b4 x29=0xfffffff6
      101945000	     10193	80001970	00de5e63	bge	x28,x13,8000198c	 x28:0x00000000 x13:0x00000000
      101955000	     10194	00000000	00000013	addi	x0,x0,0	  x0:0x00000000
      101965000	     10195	80001988	00000013	addi	x0,x0,0	  x0:0x00000000
      101975000	     10196	8000198c	00fde033	or	x0,x27,x15	 x27:0xa28b6000 x15:0xfffff830
      101985000	     10197	80001990	131bffb7	lui	x31,0x131bf	 x31=0x131bf000
      101995000	     10198	80001994	397ea213	slti	x4,x29,919	 x29:0xfffffff6  x4=0x00000001
      102005000	     10199	80001998	40dcde33	sra	x28,x25,x13	 x25:0x000001a3 x13:0x00000000 x28=0x000001a3
      102015000	     10200	8000199c	015744b3	xor	x9,x14,x21	 x14:0x00000004 x21:0x00000000  x9=0x00000004
      102025000	     10201	800019a0	cb150813	addi	x16,x10,-847	 x10:0x00000000 x16=0xfffffcb1
      102035000	     10202	800019a4	004e5933	srl	x18,x28,x4	 x28:0x000001a3  x4:0x00000001 x18=0x000000d1
      102045000	     10203	800019a8	19a26693	ori	x13,x4,410	  x4:0x00000001 x13=0x0000019b
      102055000	     10204	800019ac	00afac33	slt	x24,x31,x10	 x31:0x131bf000 x10:0x00000000 x24=0x00000000
      102065000	     10205	800019b0	01823eb3	sltu	x29,x4,x24	  x4:0x00000001 x24:0x00000000 x29=0x00000000
      102075000	     10206	800019b4	041c4663	blt	x24,x1,80001a00	 x24:0x00000000  x1:0xf02f0000
      102085000	     10207	800019b8	00339613	slli	x12,x7,0x3	  x7:0x00000000 x12=0x00000000
      102095000	     10208	800019bc	01031c13	slli	x24,x6,0x10	  x6:0x00000008 x24=0x00080000
      102105000	     10209	800019c0	04bc6063	bltu	x24,x11,80001a00	 x24:0x00080000 x11:0xfffffc22
      102115000	     10210	00000000	00000013	addi	x0,x0,0	  x0:0x00000000
      102125000	     10211	800019fc	00000013	addi	x0,x0,0	  x0:0x00000000
      102135000	     10212	80001a00	0090dc63	bge	x1,x9,80001a18	  x1:0xf02f0000  x9:0x00000004
      102145000	     10213	80001a04	00e4dd33	srl	x26,x9,x14	  x9:0x00000004 x14:0x00000004 x26=0x00000000
      102155000	     10214	80001a08	037f6663	bltu	x30,x23,80001a34	 x30:0xffffff06 x23:0x80009f64
      102165000	     10215	80001a0c	e2922597	auipc	x11,0xe2922	 x11=0x62923a08
      102175000	     10216	80001a10	00f87133	and	x2,x16,x15	 x16:0xfffffcb1 x15:0xfffff830  x2=0xfffff830
      102185000	     10217	80001a14	f3b8ad37	lui	x26,0xf3b8a	 x26=0xf3b8a000
      102195000	     10218	80001a18	790d8693	addi	x13,x27,1936	 x27:0xa28b6000 x13=0xa28b6790
      102205000	     10219	80001a1c	007bb533	sltu	x10,x23,x7	 x23:0x80009f64  x7:0x00000000 x10=0x00000000
      102215000	     10220	80001a20	01a6c863	blt	x13,x26,80001a30	 x13:0xa28b6790 x26:0xf3b8a000
      102225000	     10221	00000000	00000013	addi	x0,x0,0	  x0:0x00000000
      102235000	     10222	80001a2c	00000013	addi	x0,x0,0	  x0:0x00000000
      102245000	     10223	80001a30	f6f8c013	xori	x0,x17,-145	 x17:0x80009fc4
      102255000	     10224	80001a34	00309593	slli	x11,x1,0x3	  x1:0xf02f0000 x11=0x81780000
      102265000	     10225	80001a38	0345d863	bge	x11,x20,80001a68	 x11:0x81780000 x20:0x00000000
      102275000	     10226	80001a3c	002fb533	sltu	x10,x31,x2	 x31:0x131bf000  x2:0xfffff830 x10=0x00000001
      102285000	     10227	80001a40	415c59b3	sra	x19,x24,x21	 x24:0x00080000 x21:0x00000000 x19=0x00080000
      102295000	     10228	80001a44	018c9933	sll	x18,x25,x24	 x25:0x000001a3 x24:0x00080000 x18=0x000001a3
      102305000	     10229	80001a48	41a7d233	sra	x4,x15,x26	 x15:0xfffff830 x26:0xf3b8a000  x4=0xfffff830
      102315000	     10230	80001a4c	419005b3	sub	x11,x0,x25	  x0:0x00000000 x25:0x000001a3 x11=0xfffffe5d
      102325000	     10231	80001a50	8ef46e13	ori	x28,x8,-1809	  x8:0x088154d8 x28=0xfffffcff
      102335000	     10232	80001a54	01968a33	add	x20,x13,x25	 x13:0xa28b6790 x25:0x000001a3 x20=0xa28b6933
      102345000	     10233	80001a58	01d81b33	sll	x22,x16,x29	 x16:0xfffffcb1 x29:0x00000000 x22=0xfffffcb1
      102355000	     10234	80001a5c	4183f817	auipc	x16,0x4183f	 x16=0xc1840a58
      102365000	     10235	80001a60	00b07b33	and	x22,x0,x11	  x0:0x00000000 x11:0xfffffe5d x22=0x00000000
      102375000	     10236	80001a64	05387263	bgeu	x16,x19,80001aa8	 x16:0xc1840a58 x19:0x00080000
      102385000	     10237	00000000	00000013	addi	x0,x0,0	  x0:0x00000000
      102395000	     10238	80001aa4	00000013	addi	x0,x0,0	  x0:0x00000000
      102405000	     10239	80001aa8	550893b7	lui	x7,0x55089	  x7=0x55089000
      102415000	     10240	80001aac	00ff2633	slt	x12,x30,x15	 x30:0xffffff06 x15:0xfffff830 x12=0x00000000
      102425000	     10241	80001ab0	5a1eb613	sltiu	x12,x29,1441	 x29:0x00000000 x12=0x00000001
      102435000	     10242	80001ab4	01ec54b3	srl	x9,x24,x30	 x24:0x00080000 x30:0xffffff06  x9=0x00002000
      102445000	     10243	80001ab8	00e36463	bltu	x6,x14,80001ac0	  x6:0x00000008 x14:0x00000004
      102455000	     10244	80001abc	01e20333	add	x6,x4,x30	  x4:0xfffff830 x30:0xffffff06  x6=0xfffff736
      102465000	     10245	80001ac0	04b9e263	bltu	x19,x11,80001b04	 x19:0x00080000 x11:0xfffffe5d
      102475000	     10246	00000000	00000013	addi	x0,x0,0	  x0:0x00000000
      102485000	     10247	80001b00	00000013	addi	x0,x0,0	  x0:0x00000000
      102495000	     10248	80001b04	0162aa33	slt	x20,x5,x22	  x5:0x00000284 x22:0x00000000 x20=0x00000000
      102505000	     10249	80001b08	01ab9a93	slli	x21,x23,0x1a	 x23:0x80009f64 x21=0x90000000
      102515000	     10250	80001b0c	03998263	beq	x19,x25,80001b30	 x19:0x00080000 x25:0x000001a3
      102525000	     10251	80001b10	017860b3	or	x1,x16,x23	 x16:0xc1840a58 x23:0x80009f64  x1=0xc1849f7c
      102535000	     10252	80001b14	011e0463	beq	x28,x17,80001b1c	 x28:0xfffffcff x17:0x80009fc4
      102545000	     10253	80001b18	950c4d93	xori	x27,x24,-1712	 x24:0x00080000 x27=0xfff7f950
      102555000	     10254	80001b1c	ecd8ed93	ori	x27,x17,-307	 x17:0x80009fc4 x27=0xffffffcd
      102565000	     10255	80001b20	40d65133	sra	x2,x12,x13	 x12:0x00000001 x13:0xa28b6790  x2=0x00000000
      102575000	     10256	80001b24	01dbc433	xor	x8,x23,x29	 x23:0x80009f64 x29:0x00000000  x8=0x80009f64
      102585000	     10257	80001b28	00000013	addi	x0,x0,0	  x0:0x00000000
      102595000	     10258	80001b2c	128f7593	andi	x11,x30,296	 x30:0xffffff06 x11=0x00000100
      102605000	     10259	80001b30	011ed133	srl	x2,x29,x17	 x29:0x00000000 x17:0x80009fc4  x2=0x00000000
      102615000	     10260	80001b34	000d9413	slli	x8,x27,0x0	 x27:0xffffffcd  x8=0xffffffcd
      102625000	     10261	80001b38	004bcfb3	xor	x31,x23,x4	 x23:0x80009f64  x4:0xfffff830 x31=0x7fff6754
      102635000	     10262	80001b3c	bd042a13	slti	x20,x8,-1072	  x8:0xffffffcd x20=0x00000000
      102645000	     10263	80001b40	03a11263	bne	x2,x26,80001b64	  x2:0x00000000 x26:0xf3b8a000
      102655000	     10264	00000000	00000013	addi	x0,x0,0	  x0:0x00000000
      102665000	     10265	80001b60	00000013	addi	x0,x0,0	  x0:0x00000000
      102675000	     10266	80001b64	d483a593	slti	x11,x7,-696	  x7:0x55089000 x11=0x00000000
      102685000	     10267	80001b68	5dcf2913	slti	x18,x30,1500	 x30:0xffffff06 x18=0x00000001
      102695000	     10268	80001b6c	01a86ab3	or	x21,x16,x26	 x16:0xc1840a58 x26:0xf3b8a000 x21=0xf3bcaa58
      102705000	     10269	80001b70	0082afb3	slt	x31,x5,x8	  x5:0x00000284  x8:0xffffffcd x31=0x00000000
      102715000	     10270	80001b74	03950663	beq	x10,x25,80001ba0	 x10:0x00000001 x25:0x000001a3
      102725000	     10271	80001b78	362ef6b7	lui	x13,0x362ef	 x13=0x362ef000
      102735000	     10272	80001b7c	91d46613	ori	x12,x8,-1763	  x8:0xffffffcd x12=0xffffffdd
      102745000	     10273	80001b80	05527663	bgeu	x4,x21,80001bcc	  x4:0xfffff830 x21:0xf3bcaa58
      102755000	     10274	00000000	00000013	addi	x0,x0,0	  x0:0x00000000
      102765000	     10275	80001bc8	00000013	addi	x0,x0,0	  x0:0x00000000
      102775000	     10276	80001bcc	018026b3	slt	x13,x0,x24	  x0:0x00000000 x24:0x00080000 x13=0x00000001
      102785000	     10277	80001bd0	032b8263	beq	x23,x18,80001bf4	 x23:0x80009f64 x18:0x00000001
      102795000	     10278	80001bd4	02697863	bgeu	x18,x6,80001c04	 x18:0x00000001  x6:0xfffff736
      102805000	     10279	80001bd8	016603b3	add	x7,x12,x22	 x12:0xffffffdd x22:0x00000000  x7=0xffffffdd
      102815000	     10280	80001bdc	00fa0f33	add	x30,x20,x15	 x20:0x00000000 x15:0xfffff830 x30=0xfffff830
      102825000	     10281	80001be0	85250f93	addi	x31,x10,-1966	 x10:0x00000001 x31=0xfffff853
      102835000	     10282	80001be4	01d4cf33	xor	x30,x9,x29	  x9:0x00002000 x29:0x00000000 x30=0x00002000
      102845000	     10283	80001be8	c387ce97	auipc	x29,0xc387c	 x29=0x4387dbe4
      102855000	     10284	80001bec	0144f663	bgeu	x9,x20,80001bf8	  x9:0x00002000 x20:0x00000000
      102865000	     10285	00000000	00000013	addi	x0,x0,0	  x0:0x00000000
      102875000	     10286	80001bf4	00000013	addi	x0,x0,0	  x0:0x00000000
      102885000	     10287	80001bf8	01d5e263	bltu	x11,x29,80001bfc	 x11:0x00000000 x29:0x4387dbe4
      102895000	     10288	00000000	00000013	addi	x0,x0,0	  x0:0x00000000
      102905000	     10289	80001bf8	00000013	addi	x0,x0,0	  x0:0x00000000
      102915000	     10290	80001bfc	0102fd33	and	x26,x5,x16	  x5:0x00000284 x16:0xc1840a58 x26=0x00000200
      102925000	     10291	80001c00	7bf7ec13	ori	x24,x15,1983	 x15:0xfffff830 x24=0xffffffbf
      102935000	     10292	80001c04	05b4d263	bge	x9,x27,80001c48	  x9:0x00002000 x27:0xffffffcd
      102945000	     10293	00000000	00000013	addi	x0,x0,0	  x0:0x00000000
      102955000	     10294	80001c44	00000013	addi	x0,x0,0	  x0:0x00000000
      102965000	     10295	80001c48	01919f93	slli	x31,x3,0x19	  x3:0xfffffe5d x31=0xba000000
      102975000	     10296	80001c4c	014dba33	sltu	x20,x27,x20	 x27:0xffffffcd x20:0x00000000 x20=0x00000000
      102985000	     10297	80001c50	012c06b3	add	x13,x24,x18	 x24:0xffffffbf x18:0x00000001 x13=0xffffffc0
      102995000	     10298	80001c54	0112b833	sltu	x16,x5,x17	  x5:0x00000284 x17:0x80009fc4 x16=0x00000001
      103005000	     10299	80001c58	01b24c63	blt	x4,x27,80001c70	  x4:0xfffff830 x27:0xffffffcd
      103015000	     10300	00000000	00000013	addi	x0,x0,0	  x0:0x00000000
      103025000	     10301	80001c6c	00000013	addi	x0,x0,0	  x0:0x00000000
      103035000	     10302	80001c70	00acf3b3	and	x7,x25,x10	 x25:0x000001a3 x10:0x00000001  x7=0x00000001
      103045000	     10303	80001c74	0186fb33	and	x22,x13,x24	 x13:0xffffffc0 x24:0xffffffbf x22=0xffffff80
      103055000	     10304	80001c78	5af4cb13	xori	x22,x9,1455	  x9:0x00002000 x22=0x000025af
      103065000	     10305	80001c7c	3550a793	slti	x15,x1,853	  x1:0xc1849f7c x15=0x00000001
      103075000	     10306	80001c80	86cc2a13	slti	x20,x24,-1940	 x24:0xffffffbf x20=0x00000000
      103085000	     10307	80001c84	05d9f263	bgeu	x19,x29,80001cc8	 x19:0x00080000 x29:0x4387dbe4
      103095000	     10308	80001c88	4bd74913	xori	x18,x14,1213	 x14:0x00000004 x18=0x000004b9
      103105000	     10309	80001c8c	0288e863	bltu	x17,x8,80001cbc	 x17:0x80009fc4  x8:0xffffffcd
      103115000	     10310	00000000	00000013	addi	x0,x0,0	  x0:0x00000000
      103125000	     10311	80001cb8	00000013	addi	x0,x0,0	  x0:0x00000000
      103135000	     10312	80001cbc	e8c6ce93	xori	x29,x13,-372	 x13:0xffffffc0 x29=0x0000014c
      103145000	     10313	80001cc0	c814b113	sltiu	x2,x9,-895	  x9:0x00002000  x2=0x00000001
      103155000	     10314	80001cc4	4120d933	sra	x18,x1,x18	  x1:0xc1849f7c x18:0x000004b9 x18=0xffffffe0
      103165000	     10315	80001cc8	018782b3	add	x5,x15,x24	 x15:0x00000001 x24:0xffffffbf  x5=0xffffffc0
      103175000	     10316	80001ccc	00000013	addi	x0,x0,0	  x0:0x00000000
      103185000	     10317	80001cd0	405fd7b3	sra	x15,x31,x5	 x31:0xba000000  x5:0xffffffc0 x15=0xba000000
      103195000	     10318	80001cd4	019ffb33	and	x22,x31,x25	 x31:0xba000000 x25:0x000001a3 x22=0x00000000
      103205000	     10319	80001cd8	f9cb2193	slti	x3,x22,-100	 x22:0x00000000  x3=0x00000000
      103215000	     10320	80001cdc	00c0e463	bltu	x1,x12,80001ce4	  x1:0xc1849f7c x12:0xffffffdd
      103225000	     10321	00000000	00000013	addi	x0,x0,0	  x0:0x00000000
      103235000	     10322	80001ce0	00000013	addi	x0,x0,0	  x0:0x00000000
      103245000	     10323	80001ce4	04098063	beq	x19,x0,80001d24	 x19:0x00080000  x0:0x00000000
      103255000	     10324	80001ce8	02a1e863	bltu	x3,x10,80001d18	  x3:0x00000000 x10:0x00000001
      103265000	     10325	00000000	00000013	addi	x0,x0,0	  x0:0x00000000
      103275000	     10326	80001d14	00000013	addi	x0,x0,0	  x0:0x00000000
      103285000	     10327	80001d18	00c1ddb3	srl	x27,x3,x12	  x3:0x00000000 x12:0xffffffdd x27=0x00000000
      103295000	     10328	80001d1c	40b25f13	srai	x30,x4,0xb	  x4:0xfffff830 x30=0xffffffff
      103305000	     10329	80001d20	05a8e263	bltu	x17,x26,80001d64	 x17:0x80009fc4 x26:0x00000200
      103315000	     10330	80001d24	006c3033	sltu	x0,x24,x6	 x24:0xffffffbf  x6:0xfffff736
      103325000	     10331	80001d28	ca79ae37	lui	x28,0xca79a	 x28=0xca79a000
      103335000	     10332	80001d2c	41b28533	sub	x10,x5,x27	  x5:0xffffffc0 x27:0x00000000 x10=0xffffffc0
      103345000	     10333	80001d30	01f85863	bge	x16,x31,80001d40	 x16:0x00000001 x31:0xba000000
      103355000	     10334	00000000	00000013	addi	x0,x0,0	  x0:0x00000000
      103365000	     10335	80001d3c	00000013	addi	x0,x0,0	  x0:0x00000000
      103375000	     10336	80001d40	05c88063	beq	x17,x28,80001d80	 x17:0x80009fc4 x28:0xca79a000
      103385000	     10337	80001d44	00b09a13	slli	x20,x1,0xb	  x1:0xc1849f7c x20=0x24fbe000
      103395000	     10338	80001d48	01b1f4b3	and	x9,x3,x27	  x3:0x00000000 x27:0x00000000  x9=0x00000000
      103405000	     10339	80001d4c	01698833	add	x16,x19,x22	 x19:0x00080000 x22:0x00000000 x16=0x00080000
      103415000	     10340	80001d50	1d077d13	andi	x26,x14,464	 x14:0x00000004 x26=0x00000000
      103425000	     10341	80001d54	00000013	addi	x0,x0,0	  x0:0x00000000
      103435000	     10342	80001d58	4022d993	srai	x19,x5,0x2	  x5:0xffffffc0 x19=0xfffffff0
      103445000	     10343	80001d5c	00b7c833	xor	x16,x15,x11	 x15:0xba000000 x11:0x00000000 x16=0xba000000
      103455000	     10344	80001d60	59d3f013	andi	x0,x7,1437	  x7:0x00000001
      103465000	     10345	80001d64	2230b1b7	lui	x3,0x2230b	  x3=0x2230b000
      103475000	     10346	80001d68	021ff263	bgeu	x31,x1,80001d8c	 x31:0xba000000  x1:0xc1849f7c
      103485000	     10347	80001d6c	f1294f93	xori	x31,x18,-238	 x18:0xffffffe0 x31=0x000000f2
      103495000	     10348	80001d70	00825c13	srli	x24,x4,0x8	  x4:0xfffff830 x24=0x00fffff8
      103505000	     10349	80001d74	40385833	sra	x16,x16,x3	 x16:0xba000000  x3:0x2230b000 x16=0xba000000
      103515000	     10350	80001d78	05d69663	bne	x13,x29,80001dc4	 x13:0xffffffc0 x29:0x0000014c
      103525000	     10351	00000000	00000013	addi	x0,x0,0	  x0:0x00000000
      103535000	     10352	80001dc0	00000013	addi	x0,x0,0	  x0:0x00000000
      103545000	     10353	80001dc4	407fdc93	srai	x25,x31,0x7	 x31:0x000000f2 x25=0x00000001
      103555000	     10354	80001dc8	01cc12b3	sll	x5,x24,x28	 x24:0x00fffff8 x28:0xca79a000  x5=0x00fffff8
      103565000	     10355	80001dcc	02117c63	bgeu	x2,x1,80001e04	  x2:0x00000001  x1:0xc1849f7c
      103575000	     10356	80001dd0	01262fb3	slt	x31,x12,x18	 x12:0xffffffdd x18:0xffffffe0 x31=0x00000001
      103585000	     10357	80001dd4	5804f237	lui	x4,0x5804f	  x4=0x5804f000
      103595000	     10358	80001dd8	5ade8193	addi	x3,x29,1453	 x29:0x0000014c  x3=0x000006f9
      103605000	     10359	80001ddc	0138e133	or	x2,x17,x19	 x17:0x80009fc4 x19:0xfffffff0  x2=0xfffffff4
      103615000	     10360	80001de0	00a4c7b3	xor	x15,x9,x10	  x9:0x00000000 x10:0xffffffc0 x15=0xffffffc0
      103625000	     10361	80001de4	005252b3	srl	x5,x4,x5	  x4:0x5804f000  x5:0x00fffff8  x5=0x00000058
      103635000	     10362	80001de8	018fd3b3	srl	x7,x31,x24	 x31:0x00000001 x24:0x00fffff8  x7=0x00000000
      103645000	     10363	80001dec	012d7e63	bgeu	x26,x18,80001e08	 x26:0x00000000 x18:0xffffffe0
      103655000	     10364	80001df0	00a806b3	add	x13,x16,x10	 x16:0xba000000 x10:0xffffffc0 x13=0xb9ffffc0
      103665000	     10365	80001df4	019a9313	slli	x6,x21,0x19	 x21:0xf3bcaa58  x6=0xb0000000
      103675000	     10366	80001df8	018d8863	beq	x27,x24,80001e08	 x27:0x00000000 x24:0x00fffff8
      103685000	     10367	80001dfc	013336b3	sltu	x13,x6,x19	  x6:0xb0000000 x19:0xfffffff0 x13=0x00000001
      103695000	     10368	80001e00	81534c13	xori	x24,x6,-2027	  x6:0xb0000000 x24=0x4ffff815
      103705000	     10369	80001e04	00ab5313	srli	x6,x22,0xa	 x22:0x00000000  x6=0x00000000
      103715000	     10370	80001e08	01aa11b3	sll	x3,x20,x26	 x20:0x24fbe000 x26:0x00000000  x3=0x24fbe000
      103725000	     10371	80001e0c	00000013	addi	x0,x0,0	  x0:0x00000000
      103735000	     10372	80001e10	4153d593	srai	x11,x7,0x15	  x7:0x00000000 x11=0x00000000
      103745000	     10373	80001e14	001d1cb3	sll	x25,x26,x1	 x26:0x00000000  x1:0xc1849f7c x25=0x00000000
      103755000	     10374	80001e18	a0c0af93	slti	x31,x1,-1524	  x1:0xc1849f7c x31=0x00000001
      103765000	     10375	80001e1c	da0aa593	slti	x11,x21,-608	 x21:0xf3bcaa58 x11=0x00000001
      103775000	     10376	80001e20	00000013	addi	x0,x0,0	  x0:0x00000000
      103785000	     10377	80001e24	00000013	addi	x0,x0,0	  x0:0x00000000
      103795000	     10378	80001e28	00000013	addi	x0,x0,0	  x0:0x00000000
      103805000	     10379	80001e2c	36f1f493	andi	x9,x3,879	  x3:0x24fbe000  x9=0x00000000
      103815000	     10380	80001e30	01e46533	or	x10,x8,x30	  x8:0xffffffcd x30:0xffffffff x10=0xffffffff
      103825000	     10381	80001e34	01311e33	sll	x28,x2,x19	  x2:0xfffffff4 x19:0xfffffff0 x28=0xfff40000
      103835000	     10382	80001e38	04ed8663	beq	x27,x14,80001e84	 x27:0x00000000 x14:0x00000004
      103845000	     10383	80001e3c	41370a33	sub	x20,x14,x19	 x14:0x00000004 x19:0xfffffff0 x20=0x00000014
      103855000	     10384	80001e40	933a9e17	auipc	x28,0x933a9	 x28=0x133aae3c
      103865000	     10385	80001e44	ed4e0613	addi	x12,x28,-300	 x28:0x133aae3c x12=0x133aad10
      103875000	     10386	80001e48	01893c33	sltu	x24,x18,x24	 x18:0xffffffe0 x24:0x4ffff815 x24=0x00000000
      103885000	     10387	80001e4c	40bf8433	sub	x8,x31,x11	 x31:0x00000001 x11:0x00000001  x8=0x00000000
      103895000	     10388	80001e50	fe8d0997	auipc	x19,0xfe8d0	 x19=0x7e8d1e4c
      103905000	     10389	80001e54	006ebf33	sltu	x30,x29,x6	 x29:0x0000014c  x6:0x00000000 x30=0x00000000
      103915000	     10390	80001e58	01a65863	bge	x12,x26,80001e68	 x12:0x133aad10 x26:0x00000000
      103925000	     10391	00000000	00000013	addi	x0,x0,0	  x0:0x00000000
      103935000	     10392	80001e64	00000013	addi	x0,x0,0	  x0:0x00000000
      103945000	     10393	80001e68	004aaf33	slt	x30,x21,x4	 x21:0xf3bcaa58  x4:0x5804f000 x30=0x00000001
      103955000	     10394	80001e6c	b1084b13	xori	x22,x16,-1264	 x16:0xba000000 x22=0x45fffb10
      103965000	     10395	80001e70	01041913	slli	x18,x8,0x10	  x8:0x00000000 x18=0x00000000
      103975000	     10396	80001e74	0034dd93	srli	x27,x9,0x3	  x9:0x00000000 x27=0x00000000
      103985000	     10397	80001e78	407cd393	srai	x7,x25,0x7	 x25:0x00000000  x7=0x00000000
      103995000	     10398	80001e7c	e2287937	lui	x18,0xe2287	 x18=0xe2287000
      104005000	     10399	80001e80	007f4933	xor	x18,x30,x7	 x30:0x00000001  x7:0x00000000 x18=0x00000001
      104015000	     10400	80001e84	005ed7b3	srl	x15,x29,x5	 x29:0x0000014c  x5:0x00000058 x15=0x00000000
      104025000	     10401	80001e88	d737ce93	xori	x29,x15,-653	 x15:0x00000000 x29=0xfffffd73
      104035000	     10402	80001e8c	00377eb3	and	x29,x14,x3	 x14:0x00000004  x3:0x24fbe000 x29=0x00000000
      104045000	     10403	80001e90	409a89b3	sub	x19,x21,x9	 x21:0xf3bcaa58  x9:0x00000000 x19=0xf3bcaa58
      104055000	     10404	80001e94	e99e8513	addi	x10,x29,-359	 x29:0x00000000 x10=0xfffffe99
      104065000	     10405	80001e98	7f2aa093	slti	x1,x21,2034	 x21:0xf3bcaa58  x1=0x00000001
      104075000	     10406	80001e9c	0061c0b3	xor	x1,x3,x6	  x3:0x24fbe000  x6:0x00000000  x1=0x24fbe000
      104085000	     10407	80001ea0	01bdc633	xor	x12,x27,x27	 x27:0x00000000 x27:0x00000000 x12=0x00000000
      104095000	     10408	80001ea4	d889e213	ori	x4,x19,-632	 x19:0xf3bcaa58  x4=0xffffffd8
      104105000	     10409	80001ea8	60fe2a13	slti	x20,x28,1551	 x28:0x133aae3c x20=0x00000000
      104115000	     10410	80001eac	05015063	bge	x2,x16,80001eec	  x2:0xfffffff4 x16:0xba000000
      104125000	     10411	00000000	00000013	addi	x0,x0,0	  x0:0x00000000
      104135000	     10412	80001ee8	00000013	addi	x0,x0,0	  x0:0x00000000
      104145000	     10413	80001eec	40708cb3	sub	x25,x1,x7	  x1:0x24fbe000  x7:0x00000000 x25=0x24fbe000
      104155000	     10414	80001ef0	d1d67693	andi	x13,x12,-739	 x12:0x00000000 x13=0x00000000
      104165000	     10415	80001ef4	0122ed33	or	x26,x5,x18	  x5:0x00000058 x18:0x00000001 x26=0x00000059
      104175000	     10416	80001ef8	f9b7e313	ori	x6,x15,-101	 x15:0x00000000  x6=0xffffff9b
      104185000	     10417	80001efc	01e59433	sll	x8,x11,x30	 x11:0x00000001 x30:0x00000001  x8=0x00000002
      104195000	     10418	80001f00	05629263	bne	x5,x22,80001f44	  x5:0x00000058 x22:0x45fffb10
      104205000	     10419	00000000	00000013	addi	x0,x0,0	  x0:0x00000000
      104215000	     10420	80001f40	00000013	addi	x0,x0,0	  x0:0x00000000
      104225000	     10421	80001f44	03716263	bltu	x2,x23,80001f68	  x2:0xfffffff4 x23:0x80009f64
      104235000	     10422	80001f48	04c48263	beq	x9,x12,80001f8c	  x9:0x00000000 x12:0x00000000
      104245000	     10423	00000000	00000013	addi	x0,x0,0	  x0:0x00000000
      104255000	     10424	80001f88	00000013	addi	x0,x0,0	  x0:0x00000000
      104265000	     10425	80001f8c	01c7f663	bgeu	x15,x28,80001f98	 x15:0x00000000 x28:0x133aae3c
      104275000	     10426	80001f90	b0c42113	slti	x2,x8,-1268	  x8:0x00000002  x2=0x00000000
      104285000	     10427	80001f94	0052d093	srli	x1,x5,0x5	  x5:0x00000058  x1=0x00000002
      104295000	     10428	80001f98	41bb0d33	sub	x26,x22,x27	 x22:0x45fffb10 x27:0x00000000 x26=0x45fffb10
      104305000	     10429	80001f9c	03380263	beq	x16,x19,80001fc0	 x16:0xba000000 x19:0xf3bcaa58
      104315000	     10430	80001fa0	41e75513	srai	x10,x14,0x1e	 x14:0x00000004 x10=0x00000000
      104325000	     10431	80001fa4	417055b3	sra	x11,x0,x23	  x0:0x00000000 x23:0x80009f64 x11=0x00000000
      104335000	     10432	80001fa8	010f0e33	add	x28,x30,x16	 x30:0x00000001 x16:0xba000000 x28=0xba000001
      104345000	     10433	80001fac	b6cad697	auipc	x13,0xb6cad	 x13=0x36caefa8
      104355000	     10434	80001fb0	05f4d263	bge	x9,x31,80001ff4	  x9:0x00000000 x31:0x00000001
      104365000	     10435	80001fb4	a689f513	andi	x10,x19,-1432	 x19:0xf3bcaa58 x10=0xf3bcaa48
      104375000	     10436	80001fb8	00000013	addi	x0,x0,0	  x0:0x00000000
      104385000	     10437	80001fbc	01ff7263	bgeu	x30,x31,80001fc0	 x30:0x00000001 x31:0x00000001
      104395000	     10438	00000000	00000013	addi	x0,x0,0	  x0:0x00000000
      104405000	     10439	80001fbc	00000013	addi	x0,x0,0	  x0:0x00000000
      104415000	     10440	80001fc0	018f9a33	sll	x20,x31,x24	 x31:0x00000001 x24:0x00000000 x20=0x00000001
      104425000	     10441	80001fc4	41b0d033	sra	x0,x1,x27	  x1:0x00000002 x27:0x00000000
      104435000	     10442	80001fc8	05a74663	blt	x14,x26,80002014	 x14:0x00000004 x26:0x45fffb10
      104445000	     10443	00000000	00000013	addi	x0,x0,0	  x0:0x00000000
      104455000	     10444	80002010	00000013	addi	x0,x0,0	  x0:0x00000000
      104465000	     10445	80002014	00605a93	srli	x21,x0,0x6	  x0:0x00000000 x21=0x00000000
      104475000	     10446	80002018	253b0793	addi	x15,x22,595	 x22:0x45fffb10 x15=0x45fffd63
      104485000	     10447	8000201c	e998fc93	andi	x25,x17,-359	 x17:0x80009fc4 x25=0x80009e80
      104495000	     10448	80002020	baf40913	addi	x18,x8,-1105	  x8:0x00000002 x18=0xfffffbb1
      104505000	     10449	80002024	01878a33	add	x20,x15,x24	 x15:0x45fffd63 x24:0x00000000 x20=0x45fffd63
      104515000	     10450	80002028	004b23b3	slt	x7,x22,x4	 x22:0x45fffb10  x4:0xffffffd8  x7=0x00000000
      104525000	     10451	8000202c	0089afb3	slt	x31,x19,x8	 x19:0xf3bcaa58  x8:0x00000002 x31=0x00000001
      104535000	     10452	80002030	054af263	bgeu	x21,x20,80002074	 x21:0x00000000 x20:0x45fffd63
      104545000	     10453	80002034	00d3de33	srl	x28,x7,x13	  x7:0x00000000 x13:0x36caefa8 x28=0x00000000
      104555000	     10454	80002038	005df463	bgeu	x27,x5,80002040	 x27:0x00000000  x5:0x00000058
      104565000	     10455	8000203c	00000013	addi	x0,x0,0	  x0:0x00000000
      104575000	     10456	80002040	41dc5613	srai	x12,x24,0x1d	 x24:0x00000000 x12=0x00000000
      104585000	     10457	80002044	00aed033	srl	x0,x29,x10	 x29:0x00000000 x10:0xf3bcaa48
      104595000	     10458	80002048	41a58533	sub	x10,x11,x26	 x11:0x00000000 x26:0x45fffb10 x10=0xba0004f0
      104605000	     10459	8000204c	1fafb397	auipc	x7,0x1fafb	  x7=0x9fafd048
      104615000	     10460	80002050	01099133	sll	x2,x19,x16	 x19:0xf3bcaa58 x16:0xba000000  x2=0xf3bcaa58
      104625000	     10461	80002054	1f8ba797	auipc	x15,0x1f8ba	 x15=0x9f8bc050
      104635000	     10462	80002058	40b85fb3	sra	x31,x16,x11	 x16:0xba000000 x11:0x00000000 x31=0xba000000
      104645000	     10463	8000205c	01f69833	sll	x16,x13,x31	 x13:0x36caefa8 x31:0xba000000 x16=0x36caefa8
      104655000	     10464	80002060	41805b13	srai	x22,x0,0x18	  x0:0x00000000 x22=0x00000000
      104665000	     10465	80002064	04ed8063	beq	x27,x14,800020a4	 x27:0x00000000 x14:0x00000004
      104675000	     10466	80002068	41a653b3	sra	x7,x12,x26	 x12:0x00000000 x26:0x45fffb10  x7=0x00000000
      104685000	     10467	8000206c	70958693	addi	x13,x11,1801	 x11:0x00000000 x13=0x00000709
      104695000	     10468	80002070	fe557a93	andi	x21,x10,-27	 x10:0xba0004f0 x21=0xba0004e0
      104705000	     10469	80002074	017a10b3	sll	x1,x20,x23	 x20:0x45fffd63 x23:0x80009f64  x1=0x5fffd630
      104715000	     10470	80002078	00a49593	slli	x11,x9,0xa	  x9:0x00000000 x11=0x00000000
      104725000	     10471	8000207c	018edc63	bge	x29,x24,80002094	 x29:0x00000000 x24:0x00000000
      104735000	     10472	00000000	00000013	addi	x0,x0,0	  x0:0x00000000
      104745000	     10473	80002090	00000013	addi	x0,x0,0	  x0:0x00000000
      104755000	     10474	80002094	01124e63	blt	x4,x17,800020b0	  x4:0xffffffd8 x17:0x80009fc4
      104765000	     10475	80002098	01d0bfb3	sltu	x31,x1,x29	  x1:0x5fffd630 x29:0x00000000 x31=0x00000000
      104775000	     10476	8000209c	03228663	beq	x5,x18,800020c8	  x5:0x00000058 x18:0xfffffbb1
      104785000	     10477	800020a0	411659b3	sra	x19,x12,x17	 x12:0x00000000 x17:0x80009fc4 x19=0x00000000
      104795000	     10478	800020a4	0d9f8093	addi	x1,x31,217	 x31:0x00000000  x1=0x000000d9
      104805000	     10479	800020a8	012c9cb3	sll	x25,x25,x18	 x25:0x80009e80 x18:0xfffffbb1 x25=0x3d000000
      104815000	     10480	800020ac	01566133	or	x2,x12,x21	 x12:0x00000000 x21:0xba0004e0  x2=0xba0004e0
      104825000	     10481	800020b0	dadcb017	auipc	x0,0xdadcb	
      104835000	     10482	800020b4	013bf9b3	and	x19,x23,x19	 x23:0x80009f64 x19:0x00000000 x19=0x00000000
      104845000	     10483	800020b8	01710db3	add	x27,x2,x23	  x2:0xba0004e0 x23:0x80009f64 x27=0x3a00a444
      104855000	     10484	800020bc	00e17333	and	x6,x2,x14	  x2:0xba0004e0 x14:0x00000004  x6=0x00000000
      104865000	     10485	800020c0	0018bc33	sltu	x24,x17,x1	 x17:0x80009fc4  x1:0x000000d9 x24=0x00000000
      104875000	     10486	800020c4	0cde2493	slti	x9,x28,205	 x28:0x00000000  x9=0x00000001
      104885000	     10487	800020c8	01945b33	srl	x22,x8,x25	  x8:0x00000002 x25:0x3d000000 x22=0x00000002
      104895000	     10488	800020cc	025be263	bltu	x23,x5,800020f0	 x23:0x80009f64  x5:0x00000058
      104905000	     10489	800020d0	84ac6513	ori	x10,x24,-1974	 x24:0x00000000 x10=0xfffff84a
      104915000	     10490	800020d4	00913cb3	sltu	x25,x2,x9	  x2:0xba0004e0  x9:0x00000001 x25=0x00000000
      104925000	     10491	800020d8	00b543b3	xor	x7,x10,x11	 x10:0xfffff84a x11:0x00000000  x7=0xfffff84a
      104935000	     10492	800020dc	41005513	srai	x10,x0,0x10	  x0:0x00000000 x10=0x00000000
      104945000	     10493	800020e0	41538133	sub	x2,x7,x21	  x7:0xfffff84a x21:0xba0004e0  x2=0x45fff36a
      104955000	     10494	800020e4	b97d2e13	slti	x28,x26,-1129	 x26:0x45fffb10 x28=0x00000000
      104965000	     10495	800020e8	00000013	addi	x0,x0,0	  x0:0x00000000
      104975000	     10496	800020ec	c0e36f13	ori	x30,x6,-1010	  x6:0x00000000 x30=0xfffffc0e
      104985000	     10497	800020f0	03cbe863	bltu	x23,x28,80002120	 x23:0x80009f64 x28:0x00000000
      104995000	     10498	800020f4	038e8863	beq	x29,x24,80002124	 x29:0x00000000 x24:0x00000000
      105005000	     10499	00000000	00000013	addi	x0,x0,0	  x0:0x00000000
      105015000	     10500	80002120	00000013	addi	x0,x0,0	  x0:0x00000000
      105025000	     10501	80002124	13f77f13	andi	x30,x14,319	 x14:0x00000004 x30=0x00000004
      105035000	     10502	80002128	00e39263	bne	x7,x14,8000212c	  x7:0xfffff84a x14:0x00000004
      105045000	     10503	00000000	00000013	addi	x0,x0,0	  x0:0x00000000
      105055000	     10504	80002128	00000013	addi	x0,x0,0	  x0:0x00000000
      105065000	     10505	8000212c	08afd463	bge	x31,x10,800021b4	 x31:0x00000000 x10:0x00000000
      105075000	     10506	00000000	00000013	addi	x0,x0,0	  x0:0x00000000
      105085000	     10507	800021b0	00000013	addi	x0,x0,0	  x0:0x00000000
      105095000	     10508	800021b4	01e4e0b3	or	x1,x9,x30	  x9:0x00000001 x30:0x00000004  x1=0x00000005
      105105000	     10509	800021b8	00dda233	slt	x4,x27,x13	 x27:0x3a00a444 x13:0x00000709  x4=0x00000000
      105115000	     10510	800021bc	97083993	sltiu	x19,x16,-1680	 x16:0x36caefa8 x19=0x00000001
      105125000	     10511	800021c0	a098fe93	andi	x29,x17,-1527	 x17:0x80009fc4 x29=0x80009a00
      105135000	     10512	800021c4	016e5663	bge	x28,x22,800021d0	 x28:0x00000000 x22:0x00000002
      105145000	     10513	800021c8	05d0e263	bltu	x1,x29,8000220c	  x1:0x00000005 x29:0x80009a00
      105155000	     10514	00000000	00000013	addi	x0,x0,0	  x0:0x00000000
      105165000	     10515	80002208	00000013	addi	x0,x0,0	  x0:0x00000000
      105175000	     10516	8000220c	01ca9533	sll	x10,x21,x28	 x21:0xba0004e0 x28:0x00000000 x10=0xba0004e0
      105185000	     10517	80002210	012f7433	and	x8,x30,x18	 x30:0x00000004 x18:0xfffffbb1  x8=0x00000000
      105195000	     10518	80002214	00221e33	sll	x28,x4,x2	  x4:0x00000000  x2:0x45fff36a x28=0x00000000
      105205000	     10519	80002218	00211863	bne	x2,x2,80002228	  x2:0x45fff36a  x2:0x45fff36a
      105215000	     10520	8000221c	01721a13	slli	x20,x4,0x17	  x4:0x00000000 x20=0x00000000
      105225000	     10521	80002220	0472f263	bgeu	x5,x7,80002264	  x5:0x00000058  x7:0xfffff84a
      105235000	     10522	80002224	01181b13	slli	x22,x16,0x11	 x16:0x36caefa8 x22=0xdf500000
      105245000	     10523	80002228	00a54db3	xor	x27,x10,x10	 x10:0xba0004e0 x10:0xba0004e0 x27=0x00000000
      105255000	     10524	8000222c	05300863	beq	x0,x19,8000227c	  x0:0x00000000 x19:0x00000001
      105265000	     10525	80002230	00e26597	auipc	x11,0xe26	 x11=0x80e2822c
      105275000	     10526	80002234	3c90fa13	andi	x20,x1,969	  x1:0x00000005 x20=0x00000001
      105285000	     10527	80002238	00000013	addi	x0,x0,0	  x0:0x00000000
      105295000	     10528	8000223c	010636b3	sltu	x13,x12,x16	 x12:0x00000000 x16:0x36caefa8 x13=0x00000001
      105305000	     10529	80002240	dd74b513	sltiu	x10,x9,-553	  x9:0x00000001 x10=0x00000001
      105315000	     10530	80002244	007b7033	and	x0,x22,x7	 x22:0xdf500000  x7:0xfffff84a
      105325000	     10531	80002248	40c751b3	sra	x3,x14,x12	 x14:0x00000004 x12:0x00000000  x3=0x00000004
      105335000	     10532	8000224c	00b51cb3	sll	x25,x10,x11	 x10:0x00000001 x11:0x80e2822c x25=0x00001000
      105345000	     10533	80002250	0096d463	bge	x13,x9,80002258	 x13:0x00000001  x9:0x00000001
      105355000	     10534	00000000	00000013	addi	x0,x0,0	  x0:0x00000000
      105365000	     10535	80002254	00000013	addi	x0,x0,0	  x0:0x00000000
      105375000	     10536	80002258	0141f9b3	and	x19,x3,x20	  x3:0x00000004 x20:0x00000001 x19=0x00000000
      105385000	     10537	8000225c	40ff5013	srai	x0,x30,0xf	 x30:0x00000004
      105395000	     10538	80002260	00000013	addi	x0,x0,0	  x0:0x00000000
      105405000	     10539	80002264	00000013	addi	x0,x0,0	  x0:0x00000000
      105415000	     10540	80002268	00368b33	add	x22,x13,x3	 x13:0x00000001  x3:0x00000004 x22=0x00000005
      105425000	     10541	8000226c	059fc663	blt	x31,x25,800022b8	 x31:0x00000000 x25:0x00001000
      105435000	     10542	00000000	00000013	addi	x0,x0,0	  x0:0x00000000
      105445000	     10543	800022b4	00000013	addi	x0,x0,0	  x0:0x00000000
      105455000	     10544	800022b8	008ede33	srl	x28,x29,x8	 x29:0x80009a00  x8:0x00000000 x28=0x80009a00
      105465000	     10545	800022bc	01d81f93	slli	x31,x16,0x1d	 x16:0x36caefa8 x31=0x00000000
      105475000	     10546	800022c0	012b4db3	xor	x27,x22,x18	 x22:0x00000005 x18:0xfffffbb1 x27=0xfffffbb4
      105485000	     10547	800022c4	00766d33	or	x26,x12,x7	 x12:0x00000000  x7:0xfffff84a x26=0xfffff84a
      105495000	     10548	800022c8	00de5c13	srli	x24,x28,0xd	 x28:0x80009a00 x24=0x00040004
      105505000	     10549	800022cc	22b9be13	sltiu	x28,x19,555	 x19:0x00000000 x28=0x00000001
      105515000	     10550	800022d0	342a7fb7	lui	x31,0x342a7	 x31=0x342a7000
      105525000	     10551	800022d4	5d80f113	andi	x2,x1,1496	  x1:0x00000005  x2=0x00000000
      105535000	     10552	800022d8	0195e433	or	x8,x11,x25	 x11:0x80e2822c x25:0x00001000  x8=0x80e2922c
      105545000	     10553	800022dc	00f69233	sll	x4,x13,x15	 x13:0x00000001 x15:0x9f8bc050  x4=0x00010000
      105555000	     10554	800022e0	0e777a93	andi	x21,x14,231	 x14:0x00000004 x21=0x00000004
      105565000	     10555	800022e4	c10e0693	addi	x13,x28,-1008	 x28:0x00000001 x13=0xfffffc11
      105575000	     10556	800022e8	018e2b33	slt	x22,x28,x24	 x28:0x00000001 x24:0x00040004 x22=0x00000001
      105585000	     10557	800022ec	011c69b3	or	x19,x24,x17	 x24:0x00040004 x17:0x80009fc4 x19=0x80049fc4
      105595000	     10558	800022f0	287f9797	auipc	x15,0x287f9	 x15=0xa87fb2ec
      105605000	     10559	800022f4	00456263	bltu	x10,x4,800022f8	 x10:0x00000001  x4:0x00010000
      105615000	     10560	00000000	00000013	addi	x0,x0,0	  x0:0x00000000
      105625000	     10561	800022f4	00000013	addi	x0,x0,0	  x0:0x00000000
      105635000	     10562	800022f8	0c602413	slti	x8,x0,198	  x0:0x00000000  x8=0x00000001
      105645000	     10563	800022fc	00651c13	slli	x24,x10,0x6	 x10:0x00000001 x24=0x00000040
      105655000	     10564	80002300	01d41633	sll	x12,x8,x29	  x8:0x00000001 x29:0x80009a00 x12=0x00000001
      105665000	     10565	80002304	003c54b3	srl	x9,x24,x3	 x24:0x00000040  x3:0x00000004  x9=0x00000004
      105675000	     10566	80002308	0f260093	addi	x1,x12,242	 x12:0x00000001  x1=0x000000f3
      105685000	     10567	8000230c	03505663	bge	x0,x21,80002338	  x0:0x00000000 x21:0x00000004
      105695000	     10568	80002310	73b40993	addi	x19,x8,1851	  x8:0x00000001 x19=0x0000073c
      105705000	     10569	80002314	9800ba93	sltiu	x21,x1,-1664	  x1:0x000000f3 x21=0x00000001
      105715000	     10570	80002318	01c81fb3	sll	x31,x16,x28	 x16:0x36caefa8 x28:0x00000001 x31=0x6d95df50
      105725000	     10571	8000231c	006551b3	srl	x3,x10,x6	 x10:0x00000001  x6:0x00000000  x3=0x00000001
      105735000	     10572	80002320	f29e3593	sltiu	x11,x28,-215	 x28:0x00000001 x11=0x00000001
      105745000	     10573	80002324	4094dc13	srai	x24,x9,0x9	  x9:0x00000004 x24=0x00000000
      105755000	     10574	80002328	d28d0a13	addi	x20,x26,-728	 x26:0xfffff84a x20=0xfffff572
      105765000	     10575	8000232c	601cbab7	lui	x21,0x601cb	 x21=0x601cb000
      105775000	     10576	80002330	00000013	addi	x0,x0,0	  x0:0x00000000
      105785000	     10577	80002334	01d32e33	slt	x28,x6,x29	  x6:0x00000000 x29:0x80009a00 x28=0x00000000
      105795000	     10578	80002338	0012e433	or	x8,x5,x1	  x5:0x00000058  x1:0x000000f3  x8=0x000000fb
      105805000	     10579	8000233c	99ce2293	slti	x5,x28,-1636	 x28:0x00000000  x5=0x00000000
      105815000	     10580	80002340	0564c663	blt	x9,x22,8000238c	  x9:0x00000004 x22:0x00000001
      105825000	     10581	80002344	0979c013	xori	x0,x19,151	 x19:0x0000073c
      105835000	     10582	80002348	2606a993	slti	x19,x13,608	 x13:0xfffffc11 x19=0x00000001
      105845000	     10583	8000234c	00c259b3	srl	x19,x4,x12	  x4:0x00010000 x12:0x00000001 x19=0x00008000
      105855000	     10584	80002350	05501263	bne	x0,x21,80002394	  x0:0x00000000 x21:0x601cb000
      105865000	     10585	00000000	00000013	addi	x0,x0,0	  x0:0x00000000
      105875000	     10586	80002390	00000013	addi	x0,x0,0	  x0:0x00000000
      105885000	     10587	80002394	01c59593	slli	x11,x11,0x1c	 x11:0x00000001 x11=0x10000000
      105895000	     10588	80002398	41615513	srai	x10,x2,0x16	  x2:0x00000000 x10=0x00000000
      105905000	     10589	8000239c	00000013	addi	x0,x0,0	  x0:0x00000000
      105915000	     10590	800023a0	007f9533	sll	x10,x31,x7	 x31:0x6d95df50  x7:0xfffff84a x10=0x577d4000
      105925000	     10591	800023a4	45382b13	slti	x22,x16,1107	 x16:0x36caefa8 x22=0x00000000
      105935000	     10592	800023a8	402e5113	srai	x2,x28,0x2	 x28:0x00000000  x2=0x00000000
      105945000	     10593	800023ac	40c45a93	srai	x21,x8,0xc	  x8:0x000000fb x21=0x00000000
      105955000	     10594	800023b0	4ce5f013	andi	x0,x11,1230	 x11:0x10000000
      105965000	     10595	800023b4	00af1413	slli	x8,x30,0xa	 x30:0x00000004  x8=0x00001000
      105975000	     10596	800023b8	41c2d413	srai	x8,x5,0x1c	  x5:0x00000000  x8=0x00000000
      105985000	     10597	800023bc	ed907813	andi	x16,x0,-295	  x0:0x00000000 x16=0x00000000
      105995000	     10598	800023c0	016b5233	srl	x4,x22,x22	 x22:0x00000000 x22:0x00000000  x4=0x00000000
      106005000	     10599	800023c4	ed96c913	xori	x18,x13,-295	 x13:0xfffffc11 x18=0x000002c8
      106015000	     10600	800023c8	969486b7	lui	x13,0x96948	 x13=0x96948000
      106025000	     10601	800023cc	00d28463	beq	x5,x13,800023d4	  x5:0x00000000 x13:0x96948000
      106035000	     10602	800023d0	04094863	blt	x18,x0,80002420	 x18:0x000002c8  x0:0x00000000
      106045000	     10603	800023d4	40860f33	sub	x30,x12,x8	 x12:0x00000001  x8:0x00000000 x30=0x00000001
      106055000	     10604	800023d8	41f15c13	srai	x24,x2,0x1f	  x2:0x00000000 x24=0x00000000
      106065000	     10605	800023dc	04c41263	bne	x8,x12,80002420	  x8:0x00000000 x12:0x00000001
      106075000	     10606	00000000	00000013	addi	x0,x0,0	  x0:0x00000000
      106085000	     10607	8000241c	00000013	addi	x0,x0,0	  x0:0x00000000
      106095000	     10608	80002420	004699b3	sll	x19,x13,x4	 x13:0x96948000  x4:0x00000000 x19=0x96948000
      106105000	     10609	80002424	04fb9063	bne	x23,x15,80002464	 x23:0x80009f64 x15:0xa87fb2ec
      106115000	     10610	00000000	00000013	addi	x0,x0,0	  x0:0x00000000
      106125000	     10611	80002460	00000013	addi	x0,x0,0	  x0:0x00000000
      106135000	     10612	80002464	0166c913	xori	x18,x13,22	 x13:0x96948000 x18=0x96948016
      106145000	     10613	80002468	0132cd33	xor	x26,x5,x19	  x5:0x00000000 x19:0x96948000 x26=0x96948000
      106155000	     10614	8000246c	0932d663	bge	x5,x19,800024f8	  x5:0x00000000 x19:0x96948000
      106165000	     10615	00000000	00000013	addi	x0,x0,0	  x0:0x00000000
      106175000	     10616	800024f4	00000013	addi	x0,x0,0	  x0:0x00000000
      106185000	     10617	800024f8	01edc833	xor	x16,x27,x30	 x27:0xfffffbb4 x30:0x00000001 x16=0xfffffbb5
      106195000	     10618	800024fc	009a9263	bne	x21,x9,80002500	 x21:0x00000000  x9:0x00000004
      106205000	     10619	00000000	00000013	addi	x0,x0,0	  x0:0x00000000
      106215000	     10620	800024fc	00000013	addi	x0,x0,0	  x0:0x00000000
      106225000	     10621	80002500	00000013	addi	x0,x0,0	  x0:0x00000000
      106235000	     10622	80002504	018d1313	slli	x6,x26,0x18	 x26:0x96948000  x6=0x00000000
      106245000	     10623	80002508	01e3ccb3	xor	x25,x7,x30	  x7:0xfffff84a x30:0x00000001 x25=0xfffff84b
      106255000	     10624	8000250c	01dc1cb3	sll	x25,x24,x29	 x24:0x00000000 x29:0x80009a00 x25=0x00000000
      106265000	     10625	80002510	000c3c33	sltu	x24,x24,x0	 x24:0x00000000  x0:0x00000000 x24=0x00000000
      106275000	     10626	80002514	02c71863	bne	x14,x12,80002544	 x14:0x00000004 x12:0x00000001
      106285000	     10627	00000000	00000013	addi	x0,x0,0	  x0:0x00000000
      106295000	     10628	80002540	00000013	addi	x0,x0,0	  x0:0x00000000
      106305000	     10629	80002544	00000013	addi	x0,x0,0	  x0:0x00000000
      106315000	     10630	80002548	00d39463	bne	x7,x13,80002550	  x7:0xfffff84a x13:0x96948000
      106325000	     10631	00000000	00000013	addi	x0,x0,0	  x0:0x00000000
      106335000	     10632	8000254c	00000013	addi	x0,x0,0	  x0:0x00000000
      106345000	     10633	80002550	0032d663	bge	x5,x3,8000255c	  x5:0x00000000  x3:0x00000001
      106355000	     10634	80002554	00525263	bge	x4,x5,80002558	  x4:0x00000000  x5:0x00000000
      106365000	     10635	00000000	00000013	addi	x0,x0,0	  x0:0x00000000
      106375000	     10636	80002554	00000013	addi	x0,x0,0	  x0:0x00000000
      106385000	     10637	80002558	46fc1b37	lui	x22,0x46fc1	 x22=0x46fc1000
      106395000	     10638	8000255c	80803013	sltiu	x0,x0,-2040	  x0:0x00000000
      106405000	     10639	80002560	01dc77b3	and	x15,x24,x29	 x24:0x00000000 x29:0x80009a00 x15=0x00000000
      106415000	     10640	80002564	835fe113	ori	x2,x31,-1995	 x31:0x6d95df50  x2=0xffffff75
      106425000	     10641	80002568	01aca433	slt	x8,x25,x26	 x25:0x00000000 x26:0x96948000  x8=0x00000000
      106435000	     10642	8000256c	41505a33	sra	x20,x0,x21	  x0:0x00000000 x21:0x00000000 x20=0x00000000
      106445000	     10643	80002570	012af833	and	x16,x21,x18	 x21:0x00000000 x18:0x96948016 x16=0x00000000
      106455000	     10644	80002574	41b7df93	srai	x31,x15,0x1b	 x15:0x00000000 x31=0x00000000
      106465000	     10645	80002578	014bc233	xor	x4,x23,x20	 x23:0x80009f64 x20:0x00000000  x4=0x80009f64
      106475000	     10646	8000257c	05fdc063	blt	x27,x31,800025bc	 x27:0xfffffbb4 x31:0x00000000
      106485000	     10647	00000000	00000013	addi	x0,x0,0	  x0:0x00000000
      106495000	     10648	800025b8	00000013	addi	x0,x0,0	  x0:0x00000000
      106505000	     10649	800025bc	00000013	addi	x0,x0,0	  x0:0x00000000
      106515000	     10650	800025c0	41e9da13	srai	x20,x19,0x1e	 x19:0x96948000 x20=0xfffffffe
      106525000	     10651	800025c4	00cff4b3	and	x9,x31,x12	 x31:0x00000000 x12:0x00000001  x9=0x00000000
      106535000	     10652	800025c8	1df54c93	xori	x25,x10,479	 x10:0x577d4000 x25=0x577d41df
      106545000	     10653	800025cc	05421263	bne	x4,x20,80002610	  x4:0x80009f64 x20:0xfffffffe
      106555000	     10654	00000000	00000013	addi	x0,x0,0	  x0:0x00000000
      106565000	     10655	8000260c	00000013	addi	x0,x0,0	  x0:0x00000000
      106575000	     10656	80002610	01f2eeb3	or	x29,x5,x31	  x5:0x00000000 x31:0x00000000 x29=0x00000000
      106585000	     10657	80002614	a3323f37	lui	x30,0xa3323	 x30=0xa3323000
      106595000	     10658	80002618	017b87b3	add	x15,x23,x23	 x23:0x80009f64 x23:0x80009f64 x15=0x00013ec8
      106605000	     10659	8000261c	051f1263	bne	x30,x17,80002660	 x30:0xa3323000 x17:0x80009fc4
      106615000	     10660	00000000	00000013	addi	x0,x0,0	  x0:0x00000000
      106625000	     10661	8000265c	00000013	addi	x0,x0,0	  x0:0x00000000
      106635000	     10662	80002660	05b57663	bgeu	x10,x27,800026ac	 x10:0x577d4000 x27:0xfffffbb4
      106645000	     10663	80002664	00da1863	bne	x20,x13,80002674	 x20:0xfffffffe x13:0x96948000
      106655000	     10664	00000000	00000013	addi	x0,x0,0	  x0:0x00000000
      106665000	     10665	80002670	00000013	addi	x0,x0,0	  x0:0x00000000
      106675000	     10666	80002674	01cc77b3	and	x15,x24,x28	 x24:0x00000000 x28:0x00000000 x15=0x00000000
      106685000	     10667	80002678	0499f263	bgeu	x19,x9,800026bc	 x19:0x96948000  x9:0x00000000
      106695000	     10668	00000000	00000013	addi	x0,x0,0	  x0:0x00000000
      106705000	     10669	800026b8	00000013	addi	x0,x0,0	  x0:0x00000000
      106715000	     10670	800026bc	aed5bc13	sltiu	x24,x11,-1299	 x11:0x10000000 x24=0x00000001
      106725000	     10671	800026c0	002864b3	or	x9,x16,x2	 x16:0x00000000  x2:0xffffff75  x9=0xffffff75
      106735000	     10672	800026c4	41e009b3	sub	x19,x0,x30	  x0:0x00000000 x30:0xa3323000 x19=0x5ccdd000
      106745000	     10673	800026c8	e67a6d97	auipc	x27,0xe67a6	 x27=0x667a86c4
      106755000	     10674	800026cc	01e76263	bltu	x14,x30,800026d0	 x14:0x00000004 x30:0xa3323000
      106765000	     10675	00000000	00000013	addi	x0,x0,0	  x0:0x00000000
      106775000	     10676	800026cc	00000013	addi	x0,x0,0	  x0:0x00000000
      106785000	     10677	800026d0	ad492693	slti	x13,x18,-1324	 x18:0x96948016 x13=0x00000001
      106795000	     10678	800026d4	00d29393	slli	x7,x5,0xd	  x5:0x00000000  x7=0x00000000
      106805000	     10679	800026d8	00ed5693	srli	x13,x26,0xe	 x26:0x96948000 x13=0x00025a52
      106815000	     10680	800026dc	017f1463	bne	x30,x23,800026e4	 x30:0xa3323000 x23:0x80009f64
      106825000	     10681	00000000	00000013	addi	x0,x0,0	  x0:0x00000000
      106835000	     10682	800026e0	00000013	addi	x0,x0,0	  x0:0x00000000
      106845000	     10683	800026e4	40a0d813	srai	x16,x1,0xa	  x1:0x000000f3 x16=0x00000000
      106855000	     10684	800026e8	00a3b233	sltu	x4,x7,x10	  x7:0x00000000 x10:0x577d4000  x4=0x00000001
      106865000	     10685	800026ec	00ee4633	xor	x12,x28,x14	 x28:0x00000000 x14:0x00000004 x12=0x00000004
      106875000	     10686	800026f0	003caa33	slt	x20,x25,x3	 x25:0x577d41df  x3:0x00000001 x20=0x00000000
      106885000	     10687	800026f4	00c1f333	and	x6,x3,x12	  x3:0x00000001 x12:0x00000004  x6=0x00000000
      106895000	     10688	800026f8	01ce42b3	xor	x5,x28,x28	 x28:0x00000000 x28:0x00000000  x5=0x00000000
      106905000	     10689	800026fc	00601193	slli	x3,x0,0x6	  x0:0x00000000  x3=0x00000000
      106915000	     10690	80002700	40f75333	sra	x6,x14,x15	 x14:0x00000004 x15:0x00000000  x6=0x00000004
      106925000	     10691	80002704	01966833	or	x16,x12,x25	 x12:0x00000004 x25:0x577d41df x16=0x577d41df
      106935000	     10692	80002708	ad982997	auipc	x19,0xad982	 x19=0x2d984704
      106945000	     10693	8000270c	035f4263	blt	x30,x21,80002730	 x30:0xa3323000 x21:0x00000000
      106955000	     10694	00000000	00000013	addi	x0,x0,0	  x0:0x00000000
      106965000	     10695	8000272c	00000013	addi	x0,x0,0	  x0:0x00000000
      106975000	     10696	80002730	41130b33	sub	x22,x6,x17	  x6:0x00000004 x17:0x80009fc4 x22=0x7fff6040
      106985000	     10697	80002734	019f1a13	slli	x20,x30,0x19	 x30:0xa3323000 x20=0x00000000
      106995000	     10698	80002738	d98ebf97	auipc	x31,0xd98eb	 x31=0x598ed734
      107005000	     10699	8000273c	05b39263	bne	x7,x27,80002780	  x7:0x00000000 x27:0x667a86c4
      107015000	     10700	00000000	00000013	addi	x0,x0,0	  x0:0x00000000
      107025000	     10701	8000277c	00000013	addi	x0,x0,0	  x0:0x00000000
      107035000	     10702	80002780	006db5b3	sltu	x11,x27,x6	 x27:0x667a86c4  x6:0x00000004 x11=0x00000000
      107045000	     10703	80002784	000bd593	srli	x11,x23,0x0	 x23:0x80009f64 x11=0x80009f64
      107055000	     10704	80002788	f811e693	ori	x13,x3,-127	  x3:0x00000000 x13=0xffffff81
      107065000	     10705	8000278c	01e5b533	sltu	x10,x11,x30	 x11:0x80009f64 x30:0xa3323000 x10=0x00000001
      107075000	     10706	80002790	00000013	addi	x0,x0,0	  x0:0x00000000
      107085000	     10707	80002794	00d93033	sltu	x0,x18,x13	 x18:0x96948016 x13:0xffffff81
      107095000	     10708	80002798	08065463	bge	x12,x0,80002820	 x12:0x00000004  x0:0x00000000
      107105000	     10709	00000000	00000013	addi	x0,x0,0	  x0:0x00000000
      107115000	     10710	8000281c	00000013	addi	x0,x0,0	  x0:0x00000000
      107125000	     10711	80002820	2c7d9f97	auipc	x31,0x2c7d9	 x31=0xac7db81c
      107135000	     10712	80002824	6f707db7	lui	x27,0x6f707	 x27=0x6f707000
      107145000	     10713	80002828	00db1f13	slli	x30,x22,0xd	 x22:0x7fff6040 x30=0xec080000
      107155000	     10714	8000282c	40a48b33	sub	x22,x9,x10	  x9:0xffffff75 x10:0x00000001 x22=0xffffff74
      107165000	     10715	80002830	00000013	addi	x0,x0,0	  x0:0x00000000
      107175000	     10716	80002834	004ba083	lw	x1,4(x23)	 x23:0x80009f64  x1=0x8000059c PA:0x80009f68
      107185000	     10717	80002838	020b8b93	addi	x23,x23,32	 x23:0x80009f64 x23=0x80009f84
      107195000	     10718	8000283c	0137eeb3	or	x29,x15,x19	 x15:0x00000000 x19:0x2d984704 x29=0x2d984704
      107205000	     10719	80002840	41225933	sra	x18,x4,x18	  x4:0x00000001 x18:0x96948016 x18=0x00000000
      107215000	     10720	80002844	0073b5b3	sltu	x11,x7,x7	  x7:0x00000000  x7:0x00000000 x11=0x00000000
      107225000	     10721	80002848	00008693	addi	x13,x1,0	  x1:0x8000059c x13=0x8000059c
      107235000	     10722	8000284c	000686e7	jalr	x13,x13,0	 x13:0x8000059c x13=0x8000284c
      107245000	     10723	00000000	00000013	addi	x0,x0,0	  x0:0x00000000
      107255000	     10724	8000059c	00000013	addi	x0,x0,0	  x0:0x00000000
      107265000	     10725	800005a0	001c07b3	add	x15,x24,x1	 x24:0x00000001  x1:0x8000059c x15=0x8000059d
      107275000	     10726	800005a4	05de9463	bne	x29,x29,800005ec	 x29:0x2d984704 x29:0x2d984704
      107285000	     10727	800005a8	007b9663	bne	x23,x7,800005b4	 x23:0x80009f84  x7:0x00000000
      107295000	     10728	00000000	00000013	addi	x0,x0,0	  x0:0x00000000
      107305000	     10729	800005b0	00000013	addi	x0,x0,0	  x0:0x00000000
      107315000	     10730	800005b4	00ad0433	add	x8,x26,x10	 x26:0x96948000 x10:0x00000001  x8=0x96948001
      107325000	     10731	800005b8	414951b3	sra	x3,x18,x20	 x18:0x00000000 x20:0x00000000  x3=0x00000000
      107335000	     10732	800005bc	7fa0f813	andi	x16,x1,2042	  x1:0x8000059c x16=0x00000598
      107345000	     10733	800005c0	4091d293	srai	x5,x3,0x9	  x3:0x00000000  x5=0x00000000
      107355000	     10734	800005c4	00d09a63	bne	x1,x13,800005d8	  x1:0x8000059c x13:0x8000284c
      107365000	     10735	00000000	00000013	addi	x0,x0,0	  x0:0x00000000
      107375000	     10736	800005d4	00000013	addi	x0,x0,0	  x0:0x00000000
      107385000	     10737	800005d8	05bd7663	bgeu	x26,x27,80000624	 x26:0x96948000 x27:0x6f707000
      107395000	     10738	00000000	00000013	addi	x0,x0,0	  x0:0x00000000
      107405000	     10739	80000620	00000013	addi	x0,x0,0	  x0:0x00000000
      107415000	     10740	80000624	12723393	sltiu	x7,x4,295	  x4:0x00000001  x7=0x00000001
      107425000	     10741	80000628	00000013	addi	x0,x0,0	  x0:0x00000000
      107435000	     10742	8000062c	e58f8d93	addi	x27,x31,-424	 x31:0xac7db81c x27=0xac7db674
      107445000	     10743	80000630	f90dc493	xori	x9,x27,-112	 x27:0xac7db674  x9=0x538249e4
      107455000	     10744	80000634	b151d817	auipc	x16,0xb151d	 x16=0x3151d630
      107465000	     10745	80000638	01e79a13	slli	x20,x15,0x1e	 x15:0x8000059d x20=0x40000000
      107475000	     10746	8000063c	010c9913	slli	x18,x25,0x10	 x25:0x577d41df x18=0x41df0000
      107485000	     10747	80000640	012899b3	sll	x19,x17,x18	 x17:0x80009fc4 x18:0x41df0000 x19=0x80009fc4
      107495000	     10748	80000644	028ac393	xori	x7,x21,40	 x21:0x00000000  x7=0x00000028
      107505000	     10749	80000648	818dfd13	andi	x26,x27,-2024	 x27:0xac7db674 x26=0xac7db010
      107515000	     10750	8000064c	992ee813	ori	x16,x29,-1646	 x29:0x2d984704 x16=0xffffff96
      107525000	     10751	80000650	011fc4b3	xor	x9,x31,x17	 x31:0xac7db81c x17:0x80009fc4  x9=0x2c7d27d8
      107535000	     10752	80000654	40de8e33	sub	x28,x29,x13	 x29:0x2d984704 x13:0x8000284c x28=0xad981eb8
      107545000	     10753	80000658	01699013	slli	x0,x19,0x16	 x19:0x80009fc4
      107555000	     10754	8000065c	00b0d293	srli	x5,x1,0xb	  x1:0x8000059c  x5=0x00100000
      107565000	     10755	80000660	00000013	addi	x0,x0,0	  x0:0x00000000
      107575000	     10756	80000664	00a9b0b3	sltu	x1,x19,x10	 x19:0x80009fc4 x10:0x00000001  x1=0x00000000
      107585000	     10757	80000668	d001ee17	auipc	x28,0xd001e	 x28=0x5001e664
      107595000	     10758	8000066c	07f8c463	blt	x17,x31,800006d4	 x17:0x80009fc4 x31:0xac7db81c
      107605000	     10759	00000000	00000013	addi	x0,x0,0	  x0:0x00000000
      107615000	     10760	800006d0	00000013	addi	x0,x0,0	  x0:0x00000000
      107625000	     10761	800006d4	00e25013	srli	x0,x4,0xe	  x4:0x00000001
      107635000	     10762	800006d8	0164c463	blt	x9,x22,800006e0	  x9:0x2c7d27d8 x22:0xffffff74
      107645000	     10763	800006dc	00da0f33	add	x30,x20,x13	 x20:0x40000000 x13:0x8000284c x30=0xc000284c
      107655000	     10764	800006e0	00807fb3	and	x31,x0,x8	  x0:0x00000000  x8:0x96948001 x31=0x00000000
      107665000	     10765	800006e4	00000717	auipc	x14,0x0	 x14=0x800006e0
      107675000	     10766	800006e8	00c70713	addi	x14,x14,12	 x14:0x800006e0 x14=0x800006ec
      107685000	     10767	800006ec	00070067	jalr	x0,x14,0	 x14:0x800006ec
      107695000	     10768	00000000	00000013	addi	x0,x0,0	  x0:0x00000000
      107705000	     10769	800006ec	00000013	addi	x0,x0,0	  x0:0x00000000
      107715000	     10770	800006f0	00100193	addi	x3,x0,1	  x0:0x00000000  x3=0x00000001
      107725000	     10771	800006f4	00000073	ecall	
      107735000	     10772	800006f8	132a2513	slti	x10,x20,306	 x20:0x40000000 x10=0x00000000
