		Time			Cycle	PC		Insn	Decoded instruction	Register and memory contents
          65000	         5	80000004	00000293	addi	x5,x0,0	  x0:0x00000000  x5=0x00000000
          75000	         6	80000008	00000313	addi	x6,x0,0	  x0:0x00000000  x6=0x00000000
          85000	         7	8000000c	00628263	beq	x5,x6,80000010	  x5:0x00000000  x6:0x00000000
          95000	         8	00000000	00000013	addi	x0,x0,0	  x0:0x00000000
         105000	         9	8000000c	00000013	addi	x0,x0,0	  x0:0x00000000
         115000	        10	80000010	00000597	auipc	x11,0x0	 x11=0x8000000c
         125000	        11	80000014	00c58593	addi	x11,x11,12	 x11:0x8000000c x11=0x80000018
         135000	        12	80000018	00058067	jalr	x0,x11,0	 x11:0x80000018
         145000	        13	00000000	00000013	addi	x0,x0,0	  x0:0x00000000
         155000	        14	80000018	00000013	addi	x0,x0,0	  x0:0x00000000
         165000	        15	8000001c	40000337	lui	x6,0x40000	  x6=0x40000000
         175000	        16	80000020	10030313	addi	x6,x6,256	  x6:0x40000000  x6=0x40000100
         185000	        17	80000024	00000013	addi	x0,x0,0	  x0:0x00000000
         195000	        18	80000028	0000af97	auipc	x31,0xa	 x31=0x8000a024
         205000	        19	8000002c	fa0f8f93	addi	x31,x31,-96	 x31:0x8000a024 x31=0x80009fc4
         215000	        20	80000030	00004317	auipc	x6,0x4	  x6=0x8000402c
         225000	        21	80000034	68430313	addi	x6,x6,1668	  x6:0x8000402c  x6=0x800046b0
         235000	        22	80000038	00036313	ori	x6,x6,0	  x6:0x800046b0  x6=0x800046b0
         245000	        23	8000003c	00000013	addi	x0,x0,0	  x0:0x00000000
         255000	        24	80000040	00000317	auipc	x6,0x0	  x6=0x8000003c
         265000	        25	80000044	02030313	addi	x6,x6,32	  x6:0x8000003c  x6=0x8000005c
         275000	        26	80000048	00000013	addi	x0,x0,0	  x0:0x00000000
         285000	        27	8000004c	00000013	addi	x0,x0,0	  x0:0x00000000
         295000	        28	80000050	00002337	lui	x6,0x2	  x6=0x00002000
         305000	        29	80000054	80030313	addi	x6,x6,-2048	  x6:0x00002000  x6=0x00001800
         315000	        30	80000058	00000013	addi	x0,x0,0	  x0:0x00000000
         325000	        31	8000005c	00000013	addi	x0,x0,0	  x0:0x00000000
         335000	        32	80000060	00000013	addi	x0,x0,0	  x0:0x00000000
         345000	        33	80000064	20b2a0b7	lui	x1,0x20b2a	  x1=0x20b2a000
         355000	        34	80000068	fce08093	addi	x1,x1,-50	  x1:0x20b2a000  x1=0x20b29fce
         365000	        35	8000006c	00400113	addi	x2,x0,4	  x0:0x00000000  x2=0x00000004
         375000	        36	80000070	4f7971b7	lui	x3,0x4f797	  x3=0x4f797000
         385000	        37	80000074	82b18193	addi	x3,x3,-2005	  x3:0x4f797000  x3=0x4f79682b
         395000	        38	80000078	17026237	lui	x4,0x17026	  x4=0x17026000
         405000	        39	8000007c	97920213	addi	x4,x4,-1671	  x4:0x17026000  x4=0x17025979
         415000	        40	80000080	00000293	addi	x5,x0,0	  x0:0x00000000  x5=0x00000000
         425000	        41	80000084	00000313	addi	x6,x0,0	  x0:0x00000000  x6=0x00000000
         435000	        42	80000088	00100393	addi	x7,x0,1	  x0:0x00000000  x7=0x00000001
         445000	        43	8000008c	00000413	addi	x8,x0,0	  x0:0x00000000  x8=0x00000000
         455000	        44	80000090	00000493	addi	x9,x0,0	  x0:0x00000000  x9=0x00000000
         465000	        45	80000094	00000513	addi	x10,x0,0	  x0:0x00000000 x10=0x00000000
         475000	        46	80000098	800005b7	lui	x11,0x80000	 x11=0x80000000
         485000	        47	8000009c	00700613	addi	x12,x0,7	  x0:0x00000000 x12=0x00000007
         495000	        48	800000a0	800006b7	lui	x13,0x80000	 x13=0x80000000
         505000	        49	800000a4	fddec737	lui	x14,0xfddec	 x14=0xfddec000
         515000	        50	800000a8	4d670713	addi	x14,x14,1238	 x14:0xfddec000 x14=0xfddec4d6
         525000	        51	800000ac	00000793	addi	x15,x0,0	  x0:0x00000000 x15=0x00000000
         535000	        52	800000b0	56dbd837	lui	x16,0x56dbd	 x16=0x56dbd000
         545000	        53	800000b4	5c580813	addi	x16,x16,1477	 x16:0x56dbd000 x16=0x56dbd5c5
         555000	        54	800000b8	800008b7	lui	x17,0x80000	 x17=0x80000000
         565000	        55	800000bc	80000937	lui	x18,0x80000	 x18=0x80000000
         575000	        56	800000c0	56e659b7	lui	x19,0x56e65	 x19=0x56e65000
         585000	        57	800000c4	7af98993	addi	x19,x19,1967	 x19:0x56e65000 x19=0x56e657af
         595000	        58	800000c8	f635da37	lui	x20,0xf635d	 x20=0xf635d000
         605000	        59	800000cc	d7ea0a13	addi	x20,x20,-642	 x20:0xf635d000 x20=0xf635cd7e
         615000	        60	800000d0	00900b13	addi	x22,x0,9	  x0:0x00000000 x22=0x00000009
         625000	        61	800000d4	80000bb7	lui	x23,0x80000	 x23=0x80000000
         635000	        62	800000d8	80000c37	lui	x24,0x80000	 x24=0x80000000
         645000	        63	800000dc	80000cb7	lui	x25,0x80000	 x25=0x80000000
         655000	        64	800000e0	80000d37	lui	x26,0x80000	 x26=0x80000000
         665000	        65	800000e4	f193ddb7	lui	x27,0xf193d	 x27=0xf193d000
         675000	        66	800000e8	fe5d8d93	addi	x27,x27,-27	 x27:0xf193d000 x27=0xf193cfe5
         685000	        67	800000ec	00b00e13	addi	x28,x0,11	  x0:0x00000000 x28=0x0000000b
         695000	        68	800000f0	ef397eb7	lui	x29,0xef397	 x29=0xef397000
         705000	        69	800000f4	51de8e93	addi	x29,x29,1309	 x29:0xef397000 x29=0xef39751d
         715000	        70	800000f8	80000f37	lui	x30,0x80000	 x30=0x80000000
         725000	        71	800000fc	0000aa97	auipc	x21,0xa	 x21=0x8000a0f8
         735000	        72	80000100	e8ca8a93	addi	x21,x21,-372	 x21:0x8000a0f8 x21=0x80009f84
         745000	        73	80000104	008000ef	jal	x1,80000104	  x1=0x80000104
         755000	        74	00000000	00000013	addi	x0,x0,0	  x0:0x00000000
         765000	        75	80000108	00000013	addi	x0,x0,0	  x0:0x00000000
         775000	        76	8000010c	05c000ef	jal	x1,8000010c	  x1=0x8000010c
         785000	        77	00000000	00000013	addi	x0,x0,0	  x0:0x00000000
         795000	        78	80000164	00000013	addi	x0,x0,0	  x0:0x00000000
         805000	        79	80000168	ff1ff0ef	jal	x1,80000168	  x1=0x80000168
         815000	        80	00000000	00000013	addi	x0,x0,0	  x0:0x00000000
         825000	        81	80000154	00000013	addi	x0,x0,0	  x0:0x00000000
         835000	        82	80000158	fddff0ef	jal	x1,80000158	  x1=0x80000158
         845000	        83	00000000	00000013	addi	x0,x0,0	  x0:0x00000000
         855000	        84	80000130	00000013	addi	x0,x0,0	  x0:0x00000000
         865000	        85	80000134	fd5ffcef	jal	x25,80000134	 x25=0x80000134
         875000	        86	00000000	00000013	addi	x0,x0,0	  x0:0x00000000
         885000	        87	80000104	00000013	addi	x0,x0,0	  x0:0x00000000
         895000	        88	80000108	01c0036f	jal	x6,80000108	  x6=0x80000108
         905000	        89	00000000	00000013	addi	x0,x0,0	  x0:0x00000000
         915000	        90	80000120	00000013	addi	x0,x0,0	  x0:0x00000000
         925000	        91	80000124	02c000ef	jal	x1,80000124	  x1=0x80000124
         935000	        92	00000000	00000013	addi	x0,x0,0	  x0:0x00000000
         945000	        93	8000014c	00000013	addi	x0,x0,0	  x0:0x00000000
         955000	        94	80000150	fc1ff0ef	jal	x1,80000150	  x1=0x80000150
         965000	        95	00000000	00000013	addi	x0,x0,0	  x0:0x00000000
         975000	        96	8000010c	00000013	addi	x0,x0,0	  x0:0x00000000
         985000	        97	80000110	004000ef	jal	x1,80000110	  x1=0x80000110
         995000	        98	00000000	00000013	addi	x0,x0,0	  x0:0x00000000
        1005000	        99	80000110	00000013	addi	x0,x0,0	  x0:0x00000000
        1015000	       100	80000114	008000ef	jal	x1,80000114	  x1=0x80000114
        1025000	       101	00000000	00000013	addi	x0,x0,0	  x0:0x00000000
        1035000	       102	80000118	00000013	addi	x0,x0,0	  x0:0x00000000
        1045000	       103	8000011c	024000ef	jal	x1,8000011c	  x1=0x8000011c
        1055000	       104	00000000	00000013	addi	x0,x0,0	  x0:0x00000000
        1065000	       105	8000013c	00000013	addi	x0,x0,0	  x0:0x00000000
        1075000	       106	80000140	fd9ff6ef	jal	x13,80000140	 x13=0x80000140
        1085000	       107	00000000	00000013	addi	x0,x0,0	  x0:0x00000000
        1095000	       108	80000114	00000013	addi	x0,x0,0	  x0:0x00000000
        1105000	       109	80000118	024000ef	jal	x1,80000118	  x1=0x80000118
        1115000	       110	00000000	00000013	addi	x0,x0,0	  x0:0x00000000
        1125000	       111	80000138	00000013	addi	x0,x0,0	  x0:0x00000000
        1135000	       112	8000013c	ff5ff0ef	jal	x1,8000013c	  x1=0x8000013c
        1145000	       113	00000000	00000013	addi	x0,x0,0	  x0:0x00000000
        1155000	       114	8000012c	00000013	addi	x0,x0,0	  x0:0x00000000
        1165000	       115	80000130	024000ef	jal	x1,80000130	  x1=0x80000130
        1175000	       116	00000000	00000013	addi	x0,x0,0	  x0:0x00000000
        1185000	       117	80000150	00000013	addi	x0,x0,0	  x0:0x00000000
        1195000	       118	80000154	fcdff36f	jal	x6,80000154	  x6=0x80000154
        1205000	       119	00000000	00000013	addi	x0,x0,0	  x0:0x00000000
        1215000	       120	8000011c	00000013	addi	x0,x0,0	  x0:0x00000000
        1225000	       121	80000120	00c000ef	jal	x1,80000120	  x1=0x80000120
        1235000	       122	00000000	00000013	addi	x0,x0,0	  x0:0x00000000
        1245000	       123	80000128	00000013	addi	x0,x0,0	  x0:0x00000000
        1255000	       124	8000012c	00c000ef	jal	x1,8000012c	  x1=0x8000012c
        1265000	       125	00000000	00000013	addi	x0,x0,0	  x0:0x00000000
        1275000	       126	80000134	00000013	addi	x0,x0,0	  x0:0x00000000
        1285000	       127	80000138	02c000ef	jal	x1,80000138	  x1=0x80000138
        1295000	       128	00000000	00000013	addi	x0,x0,0	  x0:0x00000000
        1305000	       129	80000160	00000013	addi	x0,x0,0	  x0:0x00000000
        1315000	       130	80000164	fc5ff0ef	jal	x1,80000164	  x1=0x80000164
        1325000	       131	00000000	00000013	addi	x0,x0,0	  x0:0x00000000
        1335000	       132	80000124	00000013	addi	x0,x0,0	  x0:0x00000000
        1345000	       133	80000128	038000ef	jal	x1,80000128	  x1=0x80000128
        1355000	       134	00000000	00000013	addi	x0,x0,0	  x0:0x00000000
        1365000	       135	8000015c	00000013	addi	x0,x0,0	  x0:0x00000000
        1375000	       136	80000160	fedff36f	jal	x6,80000160	  x6=0x80000160
        1385000	       137	00000000	00000013	addi	x0,x0,0	  x0:0x00000000
        1395000	       138	80000148	00000013	addi	x0,x0,0	  x0:0x00000000
        1405000	       139	8000014c	0100036f	jal	x6,8000014c	  x6=0x8000014c
        1415000	       140	00000000	00000013	addi	x0,x0,0	  x0:0x00000000
        1425000	       141	80000158	00000013	addi	x0,x0,0	  x0:0x00000000
        1435000	       142	8000015c	fedff0ef	jal	x1,8000015c	  x1=0x8000015c
        1445000	       143	00000000	00000013	addi	x0,x0,0	  x0:0x00000000
        1455000	       144	80000144	00000013	addi	x0,x0,0	  x0:0x00000000
        1465000	       145	80000148	ffdff0ef	jal	x1,80000148	  x1=0x80000148
        1475000	       146	00000000	00000013	addi	x0,x0,0	  x0:0x00000000
        1485000	       147	80000140	00000013	addi	x0,x0,0	  x0:0x00000000
        1495000	       148	80000144	0280036f	jal	x6,80000144	  x6=0x80000144
        1505000	       149	00000000	00000013	addi	x0,x0,0	  x0:0x00000000
        1515000	       150	80000168	00000013	addi	x0,x0,0	  x0:0x00000000
        1525000	       151	8000016c	013df9b3	and	x19,x27,x19	 x27:0xf193cfe5 x19:0x56e657af x19=0x508247a5
        1535000	       152	80000170	038000ef	jal	x1,80000170	  x1=0x80000170
        1545000	       153	00000000	00000013	addi	x0,x0,0	  x0:0x00000000
        1555000	       154	800001a4	00000013	addi	x0,x0,0	  x0:0x00000000
        1565000	       155	800001a8	ff1ff0ef	jal	x1,800001a8	  x1=0x800001a8
        1575000	       156	00000000	00000013	addi	x0,x0,0	  x0:0x00000000
        1585000	       157	80000194	00000013	addi	x0,x0,0	  x0:0x00000000
        1595000	       158	80000198	fedffa6f	jal	x20,80000198	 x20=0x80000198
        1605000	       159	00000000	00000013	addi	x0,x0,0	  x0:0x00000000
        1615000	       160	80000180	00000013	addi	x0,x0,0	  x0:0x00000000
        1625000	       161	80000184	ff9ff0ef	jal	x1,80000184	  x1=0x80000184
        1635000	       162	00000000	00000013	addi	x0,x0,0	  x0:0x00000000
        1645000	       163	80000178	00000013	addi	x0,x0,0	  x0:0x00000000
        1655000	       164	8000017c	0340036f	jal	x6,8000017c	  x6=0x8000017c
        1665000	       165	00000000	00000013	addi	x0,x0,0	  x0:0x00000000
        1675000	       166	800001ac	00000013	addi	x0,x0,0	  x0:0x00000000
        1685000	       167	800001b0	fc9ff36f	jal	x6,800001b0	  x6=0x800001b0
        1695000	       168	00000000	00000013	addi	x0,x0,0	  x0:0x00000000
        1705000	       169	80000174	00000013	addi	x0,x0,0	  x0:0x00000000
        1715000	       170	80000178	0400036f	jal	x6,80000178	  x6=0x80000178
        1725000	       171	00000000	00000013	addi	x0,x0,0	  x0:0x00000000
        1735000	       172	800001b4	00000013	addi	x0,x0,0	  x0:0x00000000
        1745000	       173	800001b8	fd5ffb6f	jal	x22,800001b8	 x22=0x800001b8
        1755000	       174	00000000	00000013	addi	x0,x0,0	  x0:0x00000000
        1765000	       175	80000188	00000013	addi	x0,x0,0	  x0:0x00000000
        1775000	       176	8000018c	020000ef	jal	x1,8000018c	  x1=0x8000018c
        1785000	       177	00000000	00000013	addi	x0,x0,0	  x0:0x00000000
        1795000	       178	800001a8	00000013	addi	x0,x0,0	  x0:0x00000000
        1805000	       179	800001ac	ff9ff0ef	jal	x1,800001ac	  x1=0x800001ac
        1815000	       180	00000000	00000013	addi	x0,x0,0	  x0:0x00000000
        1825000	       181	800001a0	00000013	addi	x0,x0,0	  x0:0x00000000
        1835000	       182	800001a4	fd1ff0ef	jal	x1,800001a4	  x1=0x800001a4
        1845000	       183	00000000	00000013	addi	x0,x0,0	  x0:0x00000000
        1855000	       184	80000170	00000013	addi	x0,x0,0	  x0:0x00000000
        1865000	       185	80000174	01c0016f	jal	x2,80000174	  x2=0x80000174
        1875000	       186	00000000	00000013	addi	x0,x0,0	  x0:0x00000000
        1885000	       187	8000018c	00000013	addi	x0,x0,0	  x0:0x00000000
        1895000	       188	80000190	0240016f	jal	x2,80000190	  x2=0x80000190
        1905000	       189	00000000	00000013	addi	x0,x0,0	  x0:0x00000000
        1915000	       190	800001b0	00000013	addi	x0,x0,0	  x0:0x00000000
        1925000	       191	800001b4	fd5ff36f	jal	x6,800001b4	  x6=0x800001b4
        1935000	       192	00000000	00000013	addi	x0,x0,0	  x0:0x00000000
        1945000	       193	80000184	00000013	addi	x0,x0,0	  x0:0x00000000
        1955000	       194	80000188	014000ef	jal	x1,80000188	  x1=0x80000188
        1965000	       195	00000000	00000013	addi	x0,x0,0	  x0:0x00000000
        1975000	       196	80000198	00000013	addi	x0,x0,0	  x0:0x00000000
        1985000	       197	8000019c	ff9ff36f	jal	x6,8000019c	  x6=0x8000019c
        1995000	       198	00000000	00000013	addi	x0,x0,0	  x0:0x00000000
        2005000	       199	80000190	00000013	addi	x0,x0,0	  x0:0x00000000
        2015000	       200	80000194	00c004ef	jal	x9,80000194	  x9=0x80000194
        2025000	       201	00000000	00000013	addi	x0,x0,0	  x0:0x00000000
        2035000	       202	8000019c	00000013	addi	x0,x0,0	  x0:0x00000000
        2045000	       203	800001a0	fe1ff36f	jal	x6,800001a0	  x6=0x800001a0
        2055000	       204	00000000	00000013	addi	x0,x0,0	  x0:0x00000000
        2065000	       205	8000017c	00000013	addi	x0,x0,0	  x0:0x00000000
        2075000	       206	80000180	03c000ef	jal	x1,80000180	  x1=0x80000180
        2085000	       207	00000000	00000013	addi	x0,x0,0	  x0:0x00000000
        2095000	       208	800001b8	00000013	addi	x0,x0,0	  x0:0x00000000
        2105000	       209	800001bc	6a097c93	andi	x25,x18,1696	 x18:0x80000000 x25=0x00000000
        2115000	       210	800001c0	040000ef	jal	x1,800001c0	  x1=0x800001c0
        2125000	       211	00000000	00000013	addi	x0,x0,0	  x0:0x00000000
        2135000	       212	800001fc	00000013	addi	x0,x0,0	  x0:0x00000000
        2145000	       213	80000200	fddff96f	jal	x18,80000200	 x18=0x80000200
        2155000	       214	00000000	00000013	addi	x0,x0,0	  x0:0x00000000
        2165000	       215	800001d8	00000013	addi	x0,x0,0	  x0:0x00000000
        2175000	       216	800001dc	01800cef	jal	x25,800001dc	 x25=0x800001dc
        2185000	       217	00000000	00000013	addi	x0,x0,0	  x0:0x00000000
        2195000	       218	800001f0	00000013	addi	x0,x0,0	  x0:0x00000000
        2205000	       219	800001f4	02c000ef	jal	x1,800001f4	  x1=0x800001f4
        2215000	       220	00000000	00000013	addi	x0,x0,0	  x0:0x00000000
        2225000	       221	8000021c	00000013	addi	x0,x0,0	  x0:0x00000000
        2235000	       222	80000220	fedff0ef	jal	x1,80000220	  x1=0x80000220
        2245000	       223	00000000	00000013	addi	x0,x0,0	  x0:0x00000000
        2255000	       224	80000208	00000013	addi	x0,x0,0	  x0:0x00000000
        2265000	       225	8000020c	fc9ff7ef	jal	x15,8000020c	 x15=0x8000020c
        2275000	       226	00000000	00000013	addi	x0,x0,0	  x0:0x00000000
        2285000	       227	800001d0	00000013	addi	x0,x0,0	  x0:0x00000000
        2295000	       228	800001d4	010000ef	jal	x1,800001d4	  x1=0x800001d4
        2305000	       229	00000000	00000013	addi	x0,x0,0	  x0:0x00000000
        2315000	       230	800001e0	00000013	addi	x0,x0,0	  x0:0x00000000
        2325000	       231	800001e4	008003ef	jal	x7,800001e4	  x7=0x800001e4
        2335000	       232	00000000	00000013	addi	x0,x0,0	  x0:0x00000000
        2345000	       233	800001e8	00000013	addi	x0,x0,0	  x0:0x00000000
        2355000	       234	800001ec	fddff0ef	jal	x1,800001ec	  x1=0x800001ec
        2365000	       235	00000000	00000013	addi	x0,x0,0	  x0:0x00000000
        2375000	       236	800001c4	00000013	addi	x0,x0,0	  x0:0x00000000
        2385000	       237	800001c8	04c0056f	jal	x10,800001c8	 x10=0x800001c8
        2395000	       238	00000000	00000013	addi	x0,x0,0	  x0:0x00000000
        2405000	       239	80000210	00000013	addi	x0,x0,0	  x0:0x00000000
        2415000	       240	80000214	fb1ffdef	jal	x27,80000214	 x27=0x80000214
        2425000	       241	00000000	00000013	addi	x0,x0,0	  x0:0x00000000
        2435000	       242	800001c0	00000013	addi	x0,x0,0	  x0:0x00000000
        2445000	       243	800001c4	04c000ef	jal	x1,800001c4	  x1=0x800001c4
        2455000	       244	00000000	00000013	addi	x0,x0,0	  x0:0x00000000
        2465000	       245	8000020c	00000013	addi	x0,x0,0	  x0:0x00000000
        2475000	       246	80000210	fe9ffd6f	jal	x26,80000210	 x26=0x80000210
        2485000	       247	00000000	00000013	addi	x0,x0,0	  x0:0x00000000
        2495000	       248	800001f4	00000013	addi	x0,x0,0	  x0:0x00000000
        2505000	       249	800001f8	00c000ef	jal	x1,800001f8	  x1=0x800001f8
        2515000	       250	00000000	00000013	addi	x0,x0,0	  x0:0x00000000
        2525000	       251	80000200	00000013	addi	x0,x0,0	  x0:0x00000000
        2535000	       252	80000204	fedff56f	jal	x10,80000204	 x10=0x80000204
        2545000	       253	00000000	00000013	addi	x0,x0,0	  x0:0x00000000
        2555000	       254	800001ec	00000013	addi	x0,x0,0	  x0:0x00000000
        2565000	       255	800001f0	00c000ef	jal	x1,800001f0	  x1=0x800001f0
        2575000	       256	00000000	00000013	addi	x0,x0,0	  x0:0x00000000
        2585000	       257	800001f8	00000013	addi	x0,x0,0	  x0:0x00000000
        2595000	       258	800001fc	01c000ef	jal	x1,800001fc	  x1=0x800001fc
        2605000	       259	00000000	00000013	addi	x0,x0,0	  x0:0x00000000
        2615000	       260	80000214	00000013	addi	x0,x0,0	  x0:0x00000000
        2625000	       261	80000218	fb5ff0ef	jal	x1,80000218	  x1=0x80000218
        2635000	       262	00000000	00000013	addi	x0,x0,0	  x0:0x00000000
        2645000	       263	800001c8	00000013	addi	x0,x0,0	  x0:0x00000000
        2655000	       264	800001cc	03c0036f	jal	x6,800001cc	  x6=0x800001cc
        2665000	       265	00000000	00000013	addi	x0,x0,0	  x0:0x00000000
        2675000	       266	80000204	00000013	addi	x0,x0,0	  x0:0x00000000
        2685000	       267	80000208	014002ef	jal	x5,80000208	  x5=0x80000208
        2695000	       268	00000000	00000013	addi	x0,x0,0	  x0:0x00000000
        2705000	       269	80000218	00000013	addi	x0,x0,0	  x0:0x00000000
        2715000	       270	8000021c	00c000ef	jal	x1,8000021c	  x1=0x8000021c
        2725000	       271	00000000	00000013	addi	x0,x0,0	  x0:0x00000000
        2735000	       272	80000224	00000013	addi	x0,x0,0	  x0:0x00000000
        2745000	       273	80000228	fb1ff0ef	jal	x1,80000228	  x1=0x80000228
        2755000	       274	00000000	00000013	addi	x0,x0,0	  x0:0x00000000
        2765000	       275	800001d4	00000013	addi	x0,x0,0	  x0:0x00000000
        2775000	       276	800001d8	010003ef	jal	x7,800001d8	  x7=0x800001d8
        2785000	       277	00000000	00000013	addi	x0,x0,0	  x0:0x00000000
        2795000	       278	800001e4	00000013	addi	x0,x0,0	  x0:0x00000000
        2805000	       279	800001e8	fe9ff0ef	jal	x1,800001e8	  x1=0x800001e8
        2815000	       280	00000000	00000013	addi	x0,x0,0	  x0:0x00000000
        2825000	       281	800001cc	00000013	addi	x0,x0,0	  x0:0x00000000
        2835000	       282	800001d0	0100096f	jal	x18,800001d0	 x18=0x800001d0
        2845000	       283	00000000	00000013	addi	x0,x0,0	  x0:0x00000000
        2855000	       284	800001dc	00000013	addi	x0,x0,0	  x0:0x00000000
        2865000	       285	800001e0	0440036f	jal	x6,800001e0	  x6=0x800001e0
        2875000	       286	00000000	00000013	addi	x0,x0,0	  x0:0x00000000
        2885000	       287	80000220	00000013	addi	x0,x0,0	  x0:0x00000000
        2895000	       288	80000224	008000ef	jal	x1,80000224	  x1=0x80000224
        2905000	       289	00000000	00000013	addi	x0,x0,0	  x0:0x00000000
        2915000	       290	80000228	00000013	addi	x0,x0,0	  x0:0x00000000
        2925000	       291	8000022c	e651f513	andi	x10,x3,-411	  x3:0x4f79682b x10=0x4f796821
        2935000	       292	80000230	068000ef	jal	x1,80000230	  x1=0x80000230
        2945000	       293	00000000	00000013	addi	x0,x0,0	  x0:0x00000000
        2955000	       294	80000294	00000013	addi	x0,x0,0	  x0:0x00000000
        2965000	       295	80000298	fb9ff36f	jal	x6,80000298	  x6=0x80000298
        2975000	       296	00000000	00000013	addi	x0,x0,0	  x0:0x00000000
        2985000	       297	8000024c	00000013	addi	x0,x0,0	  x0:0x00000000
        2995000	       298	80000250	fe9ffeef	jal	x29,80000250	 x29=0x80000250
        3005000	       299	00000000	00000013	addi	x0,x0,0	  x0:0x00000000
        3015000	       300	80000234	00000013	addi	x0,x0,0	  x0:0x00000000
        3025000	       301	80000238	044000ef	jal	x1,80000238	  x1=0x80000238
        3035000	       302	00000000	00000013	addi	x0,x0,0	  x0:0x00000000
        3045000	       303	80000278	00000013	addi	x0,x0,0	  x0:0x00000000
        3055000	       304	8000027c	020000ef	jal	x1,8000027c	  x1=0x8000027c
        3065000	       305	00000000	00000013	addi	x0,x0,0	  x0:0x00000000
        3075000	       306	80000298	00000013	addi	x0,x0,0	  x0:0x00000000
        3085000	       307	8000029c	fddff16f	jal	x2,8000029c	  x2=0x8000029c
        3095000	       308	00000000	00000013	addi	x0,x0,0	  x0:0x00000000
        3105000	       309	80000274	00000013	addi	x0,x0,0	  x0:0x00000000
        3115000	       310	80000278	fedff36f	jal	x6,80000278	  x6=0x80000278
        3125000	       311	00000000	00000013	addi	x0,x0,0	  x0:0x00000000
        3135000	       312	80000260	00000013	addi	x0,x0,0	  x0:0x00000000
        3145000	       313	80000264	00c0026f	jal	x4,80000264	  x4=0x80000264
        3155000	       314	00000000	00000013	addi	x0,x0,0	  x0:0x00000000
        3165000	       315	8000026c	00000013	addi	x0,x0,0	  x0:0x00000000
        3175000	       316	80000270	01c000ef	jal	x1,80000270	  x1=0x80000270
        3185000	       317	00000000	00000013	addi	x0,x0,0	  x0:0x00000000
        3195000	       318	80000288	00000013	addi	x0,x0,0	  x0:0x00000000
        3205000	       319	8000028c	ff5ffd6f	jal	x26,8000028c	 x26=0x8000028c
        3215000	       320	00000000	00000013	addi	x0,x0,0	  x0:0x00000000
        3225000	       321	8000027c	00000013	addi	x0,x0,0	  x0:0x00000000
        3235000	       322	80000280	014000ef	jal	x1,80000280	  x1=0x80000280
        3245000	       323	00000000	00000013	addi	x0,x0,0	  x0:0x00000000
        3255000	       324	80000290	00000013	addi	x0,x0,0	  x0:0x00000000
        3265000	       325	80000294	fa9ffd6f	jal	x26,80000294	 x26=0x80000294
        3275000	       326	00000000	00000013	addi	x0,x0,0	  x0:0x00000000
        3285000	       327	80000238	00000013	addi	x0,x0,0	  x0:0x00000000
        3295000	       328	8000023c	0680036f	jal	x6,8000023c	  x6=0x8000023c
        3305000	       329	00000000	00000013	addi	x0,x0,0	  x0:0x00000000
        3315000	       330	800002a0	00000013	addi	x0,x0,0	  x0:0x00000000
        3325000	       331	800002a4	f91ff36f	jal	x6,800002a4	  x6=0x800002a4
        3335000	       332	00000000	00000013	addi	x0,x0,0	  x0:0x00000000
        3345000	       333	80000230	00000013	addi	x0,x0,0	  x0:0x00000000
        3355000	       334	80000234	034000ef	jal	x1,80000234	  x1=0x80000234
        3365000	       335	00000000	00000013	addi	x0,x0,0	  x0:0x00000000
        3375000	       336	80000264	00000013	addi	x0,x0,0	  x0:0x00000000
        3385000	       337	80000268	020000ef	jal	x1,80000268	  x1=0x80000268
        3395000	       338	00000000	00000013	addi	x0,x0,0	  x0:0x00000000
        3405000	       339	80000284	00000013	addi	x0,x0,0	  x0:0x00000000
        3415000	       340	80000288	fe5ff0ef	jal	x1,80000288	  x1=0x80000288
        3425000	       341	00000000	00000013	addi	x0,x0,0	  x0:0x00000000
        3435000	       342	80000268	00000013	addi	x0,x0,0	  x0:0x00000000
        3445000	       343	8000026c	0340056f	jal	x10,8000026c	 x10=0x8000026c
        3455000	       344	00000000	00000013	addi	x0,x0,0	  x0:0x00000000
        3465000	       345	8000029c	00000013	addi	x0,x0,0	  x0:0x00000000
        3475000	       346	800002a0	fa9ff2ef	jal	x5,800002a0	  x5=0x800002a0
        3485000	       347	00000000	00000013	addi	x0,x0,0	  x0:0x00000000
        3495000	       348	80000244	00000013	addi	x0,x0,0	  x0:0x00000000
        3505000	       349	80000248	0140036f	jal	x6,80000248	  x6=0x80000248
        3515000	       350	00000000	00000013	addi	x0,x0,0	  x0:0x00000000
        3525000	       351	80000258	00000013	addi	x0,x0,0	  x0:0x00000000
        3535000	       352	8000025c	028000ef	jal	x1,8000025c	  x1=0x8000025c
        3545000	       353	00000000	00000013	addi	x0,x0,0	  x0:0x00000000
        3555000	       354	80000280	00000013	addi	x0,x0,0	  x0:0x00000000
        3565000	       355	80000284	fddff36f	jal	x6,80000284	  x6=0x80000284
        3575000	       356	00000000	00000013	addi	x0,x0,0	  x0:0x00000000
        3585000	       357	8000025c	00000013	addi	x0,x0,0	  x0:0x00000000
        3595000	       358	80000260	0480036f	jal	x6,80000260	  x6=0x80000260
        3605000	       359	00000000	00000013	addi	x0,x0,0	  x0:0x00000000
        3615000	       360	800002a4	00000013	addi	x0,x0,0	  x0:0x00000000
        3625000	       361	800002a8	fa5ff0ef	jal	x1,800002a8	  x1=0x800002a8
        3635000	       362	00000000	00000013	addi	x0,x0,0	  x0:0x00000000
        3645000	       363	80000248	00000013	addi	x0,x0,0	  x0:0x00000000
        3655000	       364	8000024c	0440036f	jal	x6,8000024c	  x6=0x8000024c
        3665000	       365	00000000	00000013	addi	x0,x0,0	  x0:0x00000000
        3675000	       366	8000028c	00000013	addi	x0,x0,0	  x0:0x00000000
        3685000	       367	80000290	fb5ff1ef	jal	x3,80000290	  x3=0x80000290
        3695000	       368	00000000	00000013	addi	x0,x0,0	  x0:0x00000000
        3705000	       369	80000240	00000013	addi	x0,x0,0	  x0:0x00000000
        3715000	       370	80000244	030000ef	jal	x1,80000244	  x1=0x80000244
        3725000	       371	00000000	00000013	addi	x0,x0,0	  x0:0x00000000
        3735000	       372	80000270	00000013	addi	x0,x0,0	  x0:0x00000000
        3745000	       373	80000274	fe1ffcef	jal	x25,80000274	 x25=0x80000274
        3755000	       374	00000000	00000013	addi	x0,x0,0	  x0:0x00000000
        3765000	       375	80000250	00000013	addi	x0,x0,0	  x0:0x00000000
        3775000	       376	80000254	0040036f	jal	x6,80000254	  x6=0x80000254
        3785000	       377	00000000	00000013	addi	x0,x0,0	  x0:0x00000000
        3795000	       378	80000254	00000013	addi	x0,x0,0	  x0:0x00000000
        3805000	       379	80000258	fe9ff0ef	jal	x1,80000258	  x1=0x80000258
        3815000	       380	00000000	00000013	addi	x0,x0,0	  x0:0x00000000
        3825000	       381	8000023c	00000013	addi	x0,x0,0	  x0:0x00000000
        3835000	       382	80000240	06c000ef	jal	x1,80000240	  x1=0x80000240
        3845000	       383	00000000	00000013	addi	x0,x0,0	  x0:0x00000000
        3855000	       384	800002a8	00000013	addi	x0,x0,0	  x0:0x00000000
        3865000	       385	800002ac	403852b3	sra	x5,x16,x3	 x16:0x56dbd5c5  x3:0x80000290  x5=0x000056db
        3875000	       386	800002b0	0af7ad93	slti	x27,x15,175	 x15:0x8000020c x27=0x00000001
        3885000	       387	800002b4	01886c63	bltu	x16,x24,800002cc	 x16:0x56dbd5c5 x24:0x80000000
        3895000	       388	00000000	00000013	addi	x0,x0,0	  x0:0x00000000
        3905000	       389	800002c8	00000013	addi	x0,x0,0	  x0:0x00000000
        3915000	       390	800002cc	00000013	addi	x0,x0,0	  x0:0x00000000
        3925000	       391	800002d0	9460bc13	sltiu	x24,x1,-1722	  x1:0x80000240 x24=0x00000001
        3935000	       392	800002d4	001eb633	sltu	x12,x29,x1	 x29:0x80000250  x1:0x80000240 x12=0x00000000
        3945000	       393	800002d8	f068a513	slti	x10,x17,-250	 x17:0x80000000 x10=0x00000001
        3955000	       394	800002dc	0051a733	slt	x14,x3,x5	  x3:0x80000290  x5:0x000056db x14=0x00000001
        3965000	       395	800002e0	99b2a213	slti	x4,x5,-1637	  x5:0x000056db  x4=0x00000000
        3975000	       396	800002e4	9559c313	xori	x6,x19,-1707	 x19:0x508247a5  x6=0xaf7dbef0
        3985000	       397	800002e8	03b20463	beq	x4,x27,80000310	  x4:0x00000000 x27:0x00000001
        3995000	       398	800002ec	00a48033	add	x0,x9,x10	  x9:0x80000194 x10:0x00000001
        4005000	       399	800002f0	00e24433	xor	x8,x4,x14	  x4:0x00000000 x14:0x00000001  x8=0x00000001
        4015000	       400	800002f4	010e9d13	slli	x26,x29,0x10	 x29:0x80000250 x26=0x02500000
        4025000	       401	800002f8	009ce863	bltu	x25,x9,80000308	 x25:0x80000274  x9:0x80000194
        4035000	       402	800002fc	d8bd3d93	sltiu	x27,x26,-629	 x26:0x02500000 x27=0x00000001
        4045000	       403	80000300	490a2193	slti	x3,x20,1168	 x20:0x80000198  x3=0x00000001
        4055000	       404	80000304	1164c037	lui	x0,0x1164c	
        4065000	       405	80000308	40655e33	sra	x28,x10,x6	 x10:0x00000001  x6:0xaf7dbef0 x28=0x00000000
        4075000	       406	8000030c	03911663	bne	x2,x25,80000338	  x2:0x8000029c x25:0x80000274
        4085000	       407	00000000	00000013	addi	x0,x0,0	  x0:0x00000000
        4095000	       408	80000334	00000013	addi	x0,x0,0	  x0:0x00000000
        4105000	       409	80000338	5ce5a093	slti	x1,x11,1486	 x11:0x80000000  x1=0x00000001
        4115000	       410	8000033c	37038913	addi	x18,x7,880	  x7:0x800001d8 x18=0x80000548
        4125000	       411	80000340	0156d663	bge	x13,x21,8000034c	 x13:0x80000140 x21:0x80009f84
        4135000	       412	80000344	00055c63	bge	x10,x0,8000035c	 x10:0x00000001  x0:0x00000000
        4145000	       413	00000000	00000013	addi	x0,x0,0	  x0:0x00000000
        4155000	       414	80000358	00000013	addi	x0,x0,0	  x0:0x00000000
        4165000	       415	8000035c	00cfa0b3	slt	x1,x31,x12	 x31:0x80009fc4 x12:0x00000000  x1=0x00000001
        4175000	       416	80000360	0154d863	bge	x9,x21,80000370	  x9:0x80000194 x21:0x80009f84
        4185000	       417	80000364	00cd6333	or	x6,x26,x12	 x26:0x02500000 x12:0x00000000  x6=0x02500000
        4195000	       418	80000368	008301b3	add	x3,x6,x8	  x6:0x02500000  x8:0x00000001  x3=0x02500001
        4205000	       419	8000036c	00000013	addi	x0,x0,0	  x0:0x00000000
        4215000	       420	80000370	016c92b3	sll	x5,x25,x22	 x25:0x80000274 x22:0x800001b8  x5=0x74000000
        4225000	       421	80000374	00000013	addi	x0,x0,0	  x0:0x00000000
        4235000	       422	80000378	08eec663	blt	x29,x14,80000404	 x29:0x80000250 x14:0x00000001
        4245000	       423	00000000	00000013	addi	x0,x0,0	  x0:0x00000000
        4255000	       424	80000400	00000013	addi	x0,x0,0	  x0:0x00000000
        4265000	       425	80000404	01db3f33	sltu	x30,x22,x29	 x22:0x800001b8 x29:0x80000250 x30=0x00000001
        4275000	       426	80000408	005f06b3	add	x13,x30,x5	 x30:0x00000001  x5:0x74000000 x13=0x74000001
        4285000	       427	8000040c	00b527b3	slt	x15,x10,x11	 x10:0x00000001 x11:0x80000000 x15=0x00000000
        4295000	       428	80000410	007f7db3	and	x27,x30,x7	 x30:0x00000001  x7:0x800001d8 x27=0x00000000
        4305000	       429	80000414	010df863	bgeu	x27,x16,80000424	 x27:0x00000000 x16:0x56dbd5c5
        4315000	       430	80000418	17988793	addi	x15,x17,377	 x17:0x80000000 x15=0x80000179
        4325000	       431	8000041c	019b5393	srli	x7,x22,0x19	 x22:0x800001b8  x7=0x00000040
        4335000	       432	80000420	0187dc33	srl	x24,x15,x24	 x15:0x80000179 x24:0x00000001 x24=0x400000bc
        4345000	       433	80000424	5456ae93	slti	x29,x13,1349	 x13:0x74000001 x29=0x00000000
        4355000	       434	80000428	01fa7b33	and	x22,x20,x31	 x20:0x80000198 x31:0x80009fc4 x22=0x80000180
        4365000	       435	8000042c	41458833	sub	x16,x11,x20	 x11:0x80000000 x20:0x80000198 x16=0xfffffe68
        4375000	       436	80000430	036ce663	bltu	x25,x22,8000045c	 x25:0x80000274 x22:0x80000180
        4385000	       437	80000434	01678c63	beq	x15,x22,8000044c	 x15:0x80000179 x22:0x80000180
        4395000	       438	80000438	03e05063	bge	x0,x30,80000458	  x0:0x00000000 x30:0x00000001
        4405000	       439	8000043c	41ccd4b3	sra	x9,x25,x28	 x25:0x80000274 x28:0x00000000  x9=0x80000274
        4415000	       440	80000440	00ad6933	or	x18,x26,x10	 x26:0x02500000 x10:0x00000001 x18=0x02500001
        4425000	       441	80000444	0446e063	bltu	x13,x4,80000484	 x13:0x74000001  x4:0x00000000
        4435000	       442	80000448	04b36663	bltu	x6,x11,80000494	  x6:0x02500000 x11:0x80000000
        4445000	       443	00000000	00000013	addi	x0,x0,0	  x0:0x00000000
        4455000	       444	80000490	00000013	addi	x0,x0,0	  x0:0x00000000
        4465000	       445	80000494	016afe63	bgeu	x21,x22,800004b0	 x21:0x80009f84 x22:0x80000180
        4475000	       446	00000000	00000013	addi	x0,x0,0	  x0:0x00000000
        4485000	       447	800004ac	00000013	addi	x0,x0,0	  x0:0x00000000
        4495000	       448	800004b0	05bc6863	bltu	x24,x27,80000500	 x24:0x400000bc x27:0x00000000
        4505000	       449	800004b4	005b8c33	add	x24,x23,x5	 x23:0x80000000  x5:0x74000000 x24=0xf4000000
        4515000	       450	800004b8	00171c63	bne	x14,x1,800004d0	 x14:0x00000001  x1:0x00000001
        4525000	       451	800004bc	0161b6b3	sltu	x13,x3,x22	  x3:0x02500001 x22:0x80000180 x13=0x00000001
        4535000	       452	800004c0	005fde93	srli	x29,x31,0x5	 x31:0x80009fc4 x29=0x040004fe
        4545000	       453	800004c4	010db133	sltu	x2,x27,x16	 x27:0x00000000 x16:0xfffffe68  x2=0x00000001
        4555000	       454	800004c8	0087fe33	and	x28,x15,x8	 x15:0x80000179  x8:0x00000001 x28=0x00000001
        4565000	       455	800004cc	0061e9b3	or	x19,x3,x6	  x3:0x02500001  x6:0x02500000 x19=0x02500001
        4575000	       456	800004d0	00937933	and	x18,x6,x9	  x6:0x02500000  x9:0x80000274 x18=0x00000000
        4585000	       457	800004d4	4b1c5237	lui	x4,0x4b1c5	  x4=0x4b1c5000
        4595000	       458	800004d8	00611f33	sll	x30,x2,x6	  x2:0x00000001  x6:0x02500000 x30=0x00000001
        4605000	       459	800004dc	00ed8433	add	x8,x27,x14	 x27:0x00000000 x14:0x00000001  x8=0x00000001
        4615000	       460	800004e0	40cb8eb3	sub	x29,x23,x12	 x23:0x80000000 x12:0x00000000 x29=0x80000000
        4625000	       461	800004e4	ae8ced93	ori	x27,x25,-1304	 x25:0x80000274 x27=0xfffffafc
        4635000	       462	800004e8	abc84213	xori	x4,x16,-1348	 x16:0xfffffe68  x4=0x000004d4
        4645000	       463	800004ec	01aad613	srli	x12,x21,0x1a	 x21:0x80009f84 x12=0x00000020
        4655000	       464	800004f0	b5a07193	andi	x3,x0,-1190	  x0:0x00000000  x3=0x00000000
        4665000	       465	800004f4	ff043093	sltiu	x1,x8,-16	  x8:0x00000001  x1=0x00000001
        4675000	       466	800004f8	000b2833	slt	x16,x22,x0	 x22:0x80000180  x0:0x00000000 x16=0x00000001
        4685000	       467	800004fc	08071663	bne	x14,x0,80000588	 x14:0x00000001  x0:0x00000000
        4695000	       468	00000000	00000013	addi	x0,x0,0	  x0:0x00000000
        4705000	       469	80000584	00000013	addi	x0,x0,0	  x0:0x00000000
        4715000	       470	80000588	0324fc63	bgeu	x9,x18,800005c0	  x9:0x80000274 x18:0x00000000
        4725000	       471	00000000	00000013	addi	x0,x0,0	  x0:0x00000000
        4735000	       472	800005bc	00000013	addi	x0,x0,0	  x0:0x00000000
        4745000	       473	800005c0	016db033	sltu	x0,x27,x22	 x27:0xfffffafc x22:0x80000180
        4755000	       474	800005c4	01a54c63	blt	x10,x26,800005dc	 x10:0x00000001 x26:0x02500000
        4765000	       475	00000000	00000013	addi	x0,x0,0	  x0:0x00000000
        4775000	       476	800005d8	00000013	addi	x0,x0,0	  x0:0x00000000
        4785000	       477	800005dc	00585b93	srli	x23,x16,0x5	 x16:0x00000001 x23=0x00000000
        4795000	       478	800005e0	017fc533	xor	x10,x31,x23	 x31:0x80009fc4 x23:0x00000000 x10=0x80009fc4
        4805000	       479	800005e4	7f007513	andi	x10,x0,2032	  x0:0x00000000 x10=0x00000000
        4815000	       480	800005e8	001bc933	xor	x18,x23,x1	 x23:0x00000000  x1:0x00000001 x18=0x00000001
        4825000	       481	800005ec	9b386193	ori	x3,x16,-1613	 x16:0x00000001  x3=0xfffff9b3
        4835000	       482	800005f0	01f55c33	srl	x24,x10,x31	 x10:0x00000000 x31:0x80009fc4 x24=0x00000000
        4845000	       483	800005f4	000049b3	xor	x19,x0,x0	  x0:0x00000000  x0:0x00000000 x19=0x00000000
        4855000	       484	800005f8	01196c63	bltu	x18,x17,80000610	 x18:0x00000001 x17:0x80000000
        4865000	       485	00000000	00000013	addi	x0,x0,0	  x0:0x00000000
        4875000	       486	8000060c	00000013	addi	x0,x0,0	  x0:0x00000000
        4885000	       487	80000610	103a3913	sltiu	x18,x20,259	 x20:0x80000198 x18=0x00000000
        4895000	       488	80000614	40c28e33	sub	x28,x5,x12	  x5:0x74000000 x12:0x00000020 x28=0x73ffffe0
        4905000	       489	80000618	ce330e13	addi	x28,x6,-797	  x6:0x02500000 x28=0x024ffce3
        4915000	       490	8000061c	45176413	ori	x8,x14,1105	 x14:0x00000001  x8=0x00000451
        4925000	       491	80000620	7bc80b13	addi	x22,x16,1980	 x16:0x00000001 x22=0x000007bd
        4935000	       492	80000624	f0a42d17	auipc	x26,0xf0a42	 x26=0x70a42620
        4945000	       493	80000628	00dd7db3	and	x27,x26,x13	 x26:0x70a42620 x13:0x00000001 x27=0x00000000
        4955000	       494	8000062c	007fbe33	sltu	x28,x31,x7	 x31:0x80009fc4  x7:0x00000040 x28=0x00000000
        4965000	       495	80000630	00000013	addi	x0,x0,0	  x0:0x00000000
        4975000	       496	80000634	e3647513	andi	x10,x8,-458	  x8:0x00000451 x10=0x00000410
        4985000	       497	80000638	4918f813	andi	x16,x17,1169	 x17:0x80000000 x16=0x00000000
        4995000	       498	8000063c	02781463	bne	x16,x7,80000664	 x16:0x00000000  x7:0x00000040
        5005000	       499	00000000	00000013	addi	x0,x0,0	  x0:0x00000000
        5015000	       500	80000660	00000013	addi	x0,x0,0	  x0:0x00000000
        5025000	       501	80000664	40fbdeb3	sra	x29,x23,x15	 x23:0x00000000 x15:0x80000179 x29=0x00000000
        5035000	       502	80000668	8120ae93	slti	x29,x1,-2030	  x1:0x00000001 x29=0x00000000
        5045000	       503	8000066c	41345a13	srai	x20,x8,0x13	  x8:0x00000451 x20=0x00000000
        5055000	       504	80000670	012b4463	blt	x22,x18,80000678	 x22:0x000007bd x18:0x00000000
        5065000	       505	80000674	04b89863	bne	x17,x11,800006c4	 x17:0x80000000 x11:0x80000000
        5075000	       506	80000678	40fad0b3	sra	x1,x21,x15	 x21:0x80009f84 x15:0x80000179  x1=0xffffffc0
        5085000	       507	8000067c	00de1e33	sll	x28,x28,x13	 x28:0x00000000 x13:0x00000001 x28=0x00000000
        5095000	       508	80000680	14a20d93	addi	x27,x4,330	  x4:0x000004d4 x27=0x0000061e
        5105000	       509	80000684	401b8633	sub	x12,x23,x1	 x23:0x00000000  x1:0xffffffc0 x12=0x00000040
        5115000	       510	80000688	01db9013	slli	x0,x23,0x1d	 x23:0x00000000
        5125000	       511	8000068c	01c0b8b3	sltu	x17,x1,x28	  x1:0xffffffc0 x28:0x00000000 x17=0x00000000
        5135000	       512	80000690	41280e33	sub	x28,x16,x18	 x16:0x00000000 x18:0x00000000 x28=0x00000000
        5145000	       513	80000694	009a9133	sll	x2,x21,x9	 x21:0x80009f84  x9:0x80000274  x2=0xf8400000
        5155000	       514	80000698	00427633	and	x12,x4,x4	  x4:0x000004d4  x4:0x000004d4 x12=0x000004d4
        5165000	       515	8000069c	00ae5793	srli	x15,x28,0xa	 x28:0x00000000 x15=0x00000000
        5175000	       516	800006a0	00003897	auipc	x17,0x3	 x17=0x8000369c
        5185000	       517	800006a4	65c88893	addi	x17,x17,1628	 x17:0x8000369c x17=0x80003cf8
        5195000	       518	800006a8	00847db3	and	x27,x8,x8	  x8:0x00000451  x8:0x00000451 x27=0x00000451
        5205000	       519	800006ac	15388893	addi	x17,x17,339	 x17:0x80003cf8 x17=0x80003e4b
        5215000	       520	800006b0	d95a6e13	ori	x28,x20,-619	 x20:0x00000000 x28=0xfffffd95
        5225000	       521	800006b4	eae880e7	jalr	x1,x17,-338	 x17:0x80003e4b  x1=0x800006b4
        5235000	       522	00000000	00000013	addi	x0,x0,0	  x0:0x00000000
        5245000	       523	80003cf8	00000013	addi	x0,x0,0	  x0:0x00000000
        5255000	       524	80003cfc	fd0a8a93	addi	x21,x21,-48	 x21:0x80009f84 x21=0x80009f54
        5265000	       525	80003d00	279e0c13	addi	x24,x28,633	 x28:0xfffffd95 x24=0x0000000e
        5275000	       526	80003d04	d3500413	addi	x8,x0,-715	  x0:0x00000000  x8=0xfffffd35
        5285000	       527	80003d08	001aa223	sw	x1,4(x21)	 x21:0x80009f54  x1:0x800006b4 PA:0x80009f58
        5295000	       528	80003d0c	01ee1733	sll	x14,x28,x30	 x28:0xfffffd95 x30:0x00000001 x14=0xfffffb2a
        5305000	       529	80003d10	41725a13	srai	x20,x4,0x17	  x4:0x000004d4 x20=0x00000000
        5315000	       530	80003d14	ecfc7313	andi	x6,x24,-305	 x24:0x0000000e  x6=0x0000000e
        5325000	       531	80003d18	50874893	xori	x17,x14,1288	 x14:0xfffffb2a x17=0xfffffe22
        5335000	       532	80003d1c	00d75d33	srl	x26,x14,x13	 x14:0xfffffb2a x13:0x00000001 x26=0x7ffffd95
        5345000	       533	80003d20	00d99813	slli	x16,x19,0xd	 x19:0x00000000 x16=0x00000000
        5355000	       534	80003d24	5ec02937	lui	x18,0x5ec02	 x18=0x5ec02000
        5365000	       535	80003d28	00e5d933	srl	x18,x11,x14	 x11:0x80000000 x14:0xfffffb2a x18=0x00200000
        5375000	       536	80003d2c	005372b3	and	x5,x6,x5	  x6:0x0000000e  x5:0x74000000  x5=0x00000000
        5385000	       537	80003d30	01f69913	slli	x18,x13,0x1f	 x13:0x00000001 x18=0x80000000
        5395000	       538	80003d34	007944b3	xor	x9,x18,x7	 x18:0x80000000  x7:0x00000040  x9=0x80000040
        5405000	       539	80003d38	b04fe0ef	jal	x1,80003d38	  x1=0x80003d38
        5415000	       540	00000000	00000013	addi	x0,x0,0	  x0:0x00000000
        5425000	       541	80002038	00000013	addi	x0,x0,0	  x0:0x00000000
        5435000	       542	8000203c	005458b3	srl	x17,x8,x5	  x8:0xfffffd35  x5:0x00000000 x17=0xfffffd35
        5445000	       543	80002040	ff0a8a93	addi	x21,x21,-16	 x21:0x80009f54 x21=0x80009f44
        5455000	       544	80002044	c219cc13	xori	x24,x19,-991	 x19:0x00000000 x24=0xfffffc21
        5465000	       545	80002048	001aa223	sw	x1,4(x21)	 x21:0x80009f44  x1:0x80003d38 PA:0x80009f48
        5475000	       546	8000204c	01fadd13	srli	x26,x21,0x1f	 x21:0x80009f44 x26=0x00000001
        5485000	       547	80002050	006ce9b3	or	x19,x25,x6	 x25:0x80000274  x6:0x0000000e x19=0x8000027e
        5495000	       548	80002054	ca085737	lui	x14,0xca085	 x14=0xca085000
        5505000	       549	80002058	01f2e8b3	or	x17,x5,x31	  x5:0x00000000 x31:0x80009fc4 x17=0x80009fc4
        5515000	       550	8000205c	01ebc833	xor	x16,x23,x30	 x23:0x00000000 x30:0x00000001 x16=0x00000001
        5525000	       551	80002060	93296b13	ori	x22,x18,-1742	 x18:0x80000000 x22=0xfffff932
        5535000	       552	80002064	be5e4113	xori	x2,x28,-1051	 x28:0xfffffd95  x2=0x00000670
        5545000	       553	80002068	01bffe33	and	x28,x31,x27	 x31:0x80009fc4 x27:0x00000451 x28=0x00000440
        5555000	       554	8000206c	008000ef	jal	x1,8000206c	  x1=0x8000206c
        5565000	       555	00000000	00000013	addi	x0,x0,0	  x0:0x00000000
        5575000	       556	80002070	00000013	addi	x0,x0,0	  x0:0x00000000
        5585000	       557	80002074	018000ef	jal	x1,80002074	  x1=0x80002074
        5595000	       558	00000000	00000013	addi	x0,x0,0	  x0:0x00000000
        5605000	       559	80002088	00000013	addi	x0,x0,0	  x0:0x00000000
        5615000	       560	8000208c	0180036f	jal	x6,8000208c	  x6=0x8000208c
        5625000	       561	00000000	00000013	addi	x0,x0,0	  x0:0x00000000
        5635000	       562	800020a0	00000013	addi	x0,x0,0	  x0:0x00000000
        5645000	       563	800020a4	0100036f	jal	x6,800020a4	  x6=0x800020a4
        5655000	       564	00000000	00000013	addi	x0,x0,0	  x0:0x00000000
        5665000	       565	800020b0	00000013	addi	x0,x0,0	  x0:0x00000000
        5675000	       566	800020b4	ff9ff0ef	jal	x1,800020b4	  x1=0x800020b4
        5685000	       567	00000000	00000013	addi	x0,x0,0	  x0:0x00000000
        5695000	       568	800020a8	00000013	addi	x0,x0,0	  x0:0x00000000
        5705000	       569	800020ac	fe9fff6f	jal	x30,800020ac	 x30=0x800020ac
        5715000	       570	00000000	00000013	addi	x0,x0,0	  x0:0x00000000
        5725000	       571	80002090	00000013	addi	x0,x0,0	  x0:0x00000000
        5735000	       572	80002094	ff5ff0ef	jal	x1,80002094	  x1=0x80002094
        5745000	       573	00000000	00000013	addi	x0,x0,0	  x0:0x00000000
        5755000	       574	80002084	00000013	addi	x0,x0,0	  x0:0x00000000
        5765000	       575	80002088	028002ef	jal	x5,80002088	  x5=0x80002088
        5775000	       576	00000000	00000013	addi	x0,x0,0	  x0:0x00000000
        5785000	       577	800020ac	00000013	addi	x0,x0,0	  x0:0x00000000
        5795000	       578	800020b0	fe1ff9ef	jal	x19,800020b0	 x19=0x800020b0
        5805000	       579	00000000	00000013	addi	x0,x0,0	  x0:0x00000000
        5815000	       580	8000208c	00000013	addi	x0,x0,0	  x0:0x00000000
        5825000	       581	80002090	fe9ff0ef	jal	x1,80002090	  x1=0x80002090
        5835000	       582	00000000	00000013	addi	x0,x0,0	  x0:0x00000000
        5845000	       583	80002074	00000013	addi	x0,x0,0	  x0:0x00000000
        5855000	       584	80002078	ff9ff0ef	jal	x1,80002078	  x1=0x80002078
        5865000	       585	00000000	00000013	addi	x0,x0,0	  x0:0x00000000
        5875000	       586	8000206c	00000013	addi	x0,x0,0	  x0:0x00000000
        5885000	       587	80002070	038000ef	jal	x1,80002070	  x1=0x80002070
        5895000	       588	00000000	00000013	addi	x0,x0,0	  x0:0x00000000
        5905000	       589	800020a4	00000013	addi	x0,x0,0	  x0:0x00000000
        5915000	       590	800020a8	ff1ff36f	jal	x6,800020a8	  x6=0x800020a8
        5925000	       591	00000000	00000013	addi	x0,x0,0	  x0:0x00000000
        5935000	       592	80002094	00000013	addi	x0,x0,0	  x0:0x00000000
        5945000	       593	80002098	0200036f	jal	x6,80002098	  x6=0x80002098
        5955000	       594	00000000	00000013	addi	x0,x0,0	  x0:0x00000000
        5965000	       595	800020b4	00000013	addi	x0,x0,0	  x0:0x00000000
        5975000	       596	800020b8	fe5ff36f	jal	x6,800020b8	  x6=0x800020b8
        5985000	       597	00000000	00000013	addi	x0,x0,0	  x0:0x00000000
        5995000	       598	80002098	00000013	addi	x0,x0,0	  x0:0x00000000
        6005000	       599	8000209c	fe9ff16f	jal	x2,8000209c	  x2=0x8000209c
        6015000	       600	00000000	00000013	addi	x0,x0,0	  x0:0x00000000
        6025000	       601	80002080	00000013	addi	x0,x0,0	  x0:0x00000000
        6035000	       602	80002084	ff9ff0ef	jal	x1,80002084	  x1=0x80002084
        6045000	       603	00000000	00000013	addi	x0,x0,0	  x0:0x00000000
        6055000	       604	80002078	00000013	addi	x0,x0,0	  x0:0x00000000
        6065000	       605	8000207c	024006ef	jal	x13,8000207c	 x13=0x8000207c
        6075000	       606	00000000	00000013	addi	x0,x0,0	  x0:0x00000000
        6085000	       607	8000209c	00000013	addi	x0,x0,0	  x0:0x00000000
        6095000	       608	800020a0	fe1ff0ef	jal	x1,800020a0	  x1=0x800020a0
        6105000	       609	00000000	00000013	addi	x0,x0,0	  x0:0x00000000
        6115000	       610	8000207c	00000013	addi	x0,x0,0	  x0:0x00000000
        6125000	       611	80002080	03c000ef	jal	x1,80002080	  x1=0x80002080
        6135000	       612	00000000	00000013	addi	x0,x0,0	  x0:0x00000000
        6145000	       613	800020b8	00000013	addi	x0,x0,0	  x0:0x00000000
        6155000	       614	800020bc	85917113	andi	x2,x2,-1959	  x2:0x8000209c  x2=0x80002018
        6165000	       615	800020c0	010000ef	jal	x1,800020c0	  x1=0x800020c0
        6175000	       616	00000000	00000013	addi	x0,x0,0	  x0:0x00000000
        6185000	       617	800020cc	00000013	addi	x0,x0,0	  x0:0x00000000
        6195000	       618	800020d0	038000ef	jal	x1,800020d0	  x1=0x800020d0
        6205000	       619	00000000	00000013	addi	x0,x0,0	  x0:0x00000000
        6215000	       620	80002104	00000013	addi	x0,x0,0	  x0:0x00000000
        6225000	       621	80002108	fe1ff36f	jal	x6,80002108	  x6=0x80002108
        6235000	       622	00000000	00000013	addi	x0,x0,0	  x0:0x00000000
        6245000	       623	800020e4	00000013	addi	x0,x0,0	  x0:0x00000000
        6255000	       624	800020e8	038008ef	jal	x17,800020e8	 x17=0x800020e8
        6265000	       625	00000000	00000013	addi	x0,x0,0	  x0:0x00000000
        6275000	       626	8000211c	00000013	addi	x0,x0,0	  x0:0x00000000
        6285000	       627	80002120	fd9ff36f	jal	x6,80002120	  x6=0x80002120
        6295000	       628	00000000	00000013	addi	x0,x0,0	  x0:0x00000000
        6305000	       629	800020f4	00000013	addi	x0,x0,0	  x0:0x00000000
        6315000	       630	800020f8	024000ef	jal	x1,800020f8	  x1=0x800020f8
        6325000	       631	00000000	00000013	addi	x0,x0,0	  x0:0x00000000
        6335000	       632	80002118	00000013	addi	x0,x0,0	  x0:0x00000000
        6345000	       633	8000211c	fe9ff36f	jal	x6,8000211c	  x6=0x8000211c
        6355000	       634	00000000	00000013	addi	x0,x0,0	  x0:0x00000000
        6365000	       635	80002100	00000013	addi	x0,x0,0	  x0:0x00000000
        6375000	       636	80002104	fc1ff0ef	jal	x1,80002104	  x1=0x80002104
        6385000	       637	00000000	00000013	addi	x0,x0,0	  x0:0x00000000
        6395000	       638	800020c0	00000013	addi	x0,x0,0	  x0:0x00000000
        6405000	       639	800020c4	018000ef	jal	x1,800020c4	  x1=0x800020c4
        6415000	       640	00000000	00000013	addi	x0,x0,0	  x0:0x00000000
        6425000	       641	800020d8	00000013	addi	x0,x0,0	  x0:0x00000000
        6435000	       642	800020dc	034000ef	jal	x1,800020dc	  x1=0x800020dc
        6445000	       643	00000000	00000013	addi	x0,x0,0	  x0:0x00000000
        6455000	       644	8000210c	00000013	addi	x0,x0,0	  x0:0x00000000
        6465000	       645	80002110	fe1ffbef	jal	x23,80002110	 x23=0x80002110
        6475000	       646	00000000	00000013	addi	x0,x0,0	  x0:0x00000000
        6485000	       647	800020ec	00000013	addi	x0,x0,0	  x0:0x00000000
        6495000	       648	800020f0	fe9ff0ef	jal	x1,800020f0	  x1=0x800020f0
        6505000	       649	00000000	00000013	addi	x0,x0,0	  x0:0x00000000
        6515000	       650	800020d4	00000013	addi	x0,x0,0	  x0:0x00000000
        6525000	       651	800020d8	00c000ef	jal	x1,800020d8	  x1=0x800020d8
        6535000	       652	00000000	00000013	addi	x0,x0,0	  x0:0x00000000
        6545000	       653	800020e0	00000013	addi	x0,x0,0	  x0:0x00000000
        6555000	       654	800020e4	010000ef	jal	x1,800020e4	  x1=0x800020e4
        6565000	       655	00000000	00000013	addi	x0,x0,0	  x0:0x00000000
        6575000	       656	800020f0	00000013	addi	x0,x0,0	  x0:0x00000000
        6585000	       657	800020f4	fd5ff0ef	jal	x1,800020f4	  x1=0x800020f4
        6595000	       658	00000000	00000013	addi	x0,x0,0	  x0:0x00000000
        6605000	       659	800020c4	00000013	addi	x0,x0,0	  x0:0x00000000
        6615000	       660	800020c8	038000ef	jal	x1,800020c8	  x1=0x800020c8
        6625000	       661	00000000	00000013	addi	x0,x0,0	  x0:0x00000000
        6635000	       662	800020fc	00000013	addi	x0,x0,0	  x0:0x00000000
        6645000	       663	80002100	fe1ff0ef	jal	x1,80002100	  x1=0x80002100
        6655000	       664	00000000	00000013	addi	x0,x0,0	  x0:0x00000000
        6665000	       665	800020dc	00000013	addi	x0,x0,0	  x0:0x00000000
        6675000	       666	800020e0	01c000ef	jal	x1,800020e0	  x1=0x800020e0
        6685000	       667	00000000	00000013	addi	x0,x0,0	  x0:0x00000000
        6695000	       668	800020f8	00000013	addi	x0,x0,0	  x0:0x00000000
        6705000	       669	800020fc	010000ef	jal	x1,800020fc	  x1=0x800020fc
        6715000	       670	00000000	00000013	addi	x0,x0,0	  x0:0x00000000
        6725000	       671	80002108	00000013	addi	x0,x0,0	  x0:0x00000000
        6735000	       672	8000210c	fc9ff0ef	jal	x1,8000210c	  x1=0x8000210c
        6745000	       673	00000000	00000013	addi	x0,x0,0	  x0:0x00000000
        6755000	       674	800020d0	00000013	addi	x0,x0,0	  x0:0x00000000
        6765000	       675	800020d4	ff9ff0ef	jal	x1,800020d4	  x1=0x800020d4
        6775000	       676	00000000	00000013	addi	x0,x0,0	  x0:0x00000000
        6785000	       677	800020c8	00000013	addi	x0,x0,0	  x0:0x00000000
        6795000	       678	800020cc	048002ef	jal	x5,800020cc	  x5=0x800020cc
        6805000	       679	00000000	00000013	addi	x0,x0,0	  x0:0x00000000
        6815000	       680	80002110	00000013	addi	x0,x0,0	  x0:0x00000000
        6825000	       681	80002114	004000ef	jal	x1,80002114	  x1=0x80002114
        6835000	       682	00000000	00000013	addi	x0,x0,0	  x0:0x00000000
        6845000	       683	80002114	00000013	addi	x0,x0,0	  x0:0x00000000
        6855000	       684	80002118	fd5ffeef	jal	x29,80002118	 x29=0x80002118
        6865000	       685	00000000	00000013	addi	x0,x0,0	  x0:0x00000000
        6875000	       686	800020e8	00000013	addi	x0,x0,0	  x0:0x00000000
        6885000	       687	800020ec	0380036f	jal	x6,800020ec	  x6=0x800020ec
        6895000	       688	00000000	00000013	addi	x0,x0,0	  x0:0x00000000
        6905000	       689	80002120	00000013	addi	x0,x0,0	  x0:0x00000000
        6915000	       690	80002124	b333bc93	sltiu	x25,x7,-1229	  x7:0x00000040 x25=0x00000001
        6925000	       691	80002128	00c000ef	jal	x1,80002128	  x1=0x80002128
        6935000	       692	00000000	00000013	addi	x0,x0,0	  x0:0x00000000
        6945000	       693	80002130	00000013	addi	x0,x0,0	  x0:0x00000000
        6955000	       694	80002134	00c000ef	jal	x1,80002134	  x1=0x80002134
        6965000	       695	00000000	00000013	addi	x0,x0,0	  x0:0x00000000
        6975000	       696	8000213c	00000013	addi	x0,x0,0	  x0:0x00000000
        6985000	       697	80002140	018000ef	jal	x1,80002140	  x1=0x80002140
        6995000	       698	00000000	00000013	addi	x0,x0,0	  x0:0x00000000
        7005000	       699	80002154	00000013	addi	x0,x0,0	  x0:0x00000000
        7015000	       700	80002158	ff9ff36f	jal	x6,80002158	  x6=0x80002158
        7025000	       701	00000000	00000013	addi	x0,x0,0	  x0:0x00000000
        7035000	       702	8000214c	00000013	addi	x0,x0,0	  x0:0x00000000
        7045000	       703	80002150	fe1ff1ef	jal	x3,80002150	  x3=0x80002150
        7055000	       704	00000000	00000013	addi	x0,x0,0	  x0:0x00000000
        7065000	       705	8000212c	00000013	addi	x0,x0,0	  x0:0x00000000
        7075000	       706	80002130	018000ef	jal	x1,80002130	  x1=0x80002130
        7085000	       707	00000000	00000013	addi	x0,x0,0	  x0:0x00000000
        7095000	       708	80002144	00000013	addi	x0,x0,0	  x0:0x00000000
        7105000	       709	80002148	fe5ff0ef	jal	x1,80002148	  x1=0x80002148
        7115000	       710	00000000	00000013	addi	x0,x0,0	  x0:0x00000000
        7125000	       711	80002128	00000013	addi	x0,x0,0	  x0:0x00000000
        7135000	       712	8000212c	0280036f	jal	x6,8000212c	  x6=0x8000212c
        7145000	       713	00000000	00000013	addi	x0,x0,0	  x0:0x00000000
        7155000	       714	80002150	00000013	addi	x0,x0,0	  x0:0x00000000
        7165000	       715	80002154	ff9ff36f	jal	x6,80002154	  x6=0x80002154
        7175000	       716	00000000	00000013	addi	x0,x0,0	  x0:0x00000000
        7185000	       717	80002148	00000013	addi	x0,x0,0	  x0:0x00000000
        7195000	       718	8000214c	ff9ff36f	jal	x6,8000214c	  x6=0x8000214c
        7205000	       719	00000000	00000013	addi	x0,x0,0	  x0:0x00000000
        7215000	       720	80002140	00000013	addi	x0,x0,0	  x0:0x00000000
        7225000	       721	80002144	ff9ffb6f	jal	x22,80002144	 x22=0x80002144
        7235000	       722	00000000	00000013	addi	x0,x0,0	  x0:0x00000000
        7245000	       723	80002138	00000013	addi	x0,x0,0	  x0:0x00000000
        7255000	       724	8000213c	ffdff0ef	jal	x1,8000213c	  x1=0x8000213c
        7265000	       725	00000000	00000013	addi	x0,x0,0	  x0:0x00000000
        7275000	       726	80002134	00000013	addi	x0,x0,0	  x0:0x00000000
        7285000	       727	80002138	024000ef	jal	x1,80002138	  x1=0x80002138
        7295000	       728	00000000	00000013	addi	x0,x0,0	  x0:0x00000000
        7305000	       729	80002158	00000013	addi	x0,x0,0	  x0:0x00000000
        7315000	       730	8000215c	4105d893	srai	x17,x11,0x10	 x11:0x80000000 x17=0xffff8000
        7325000	       731	80002160	020000ef	jal	x1,80002160	  x1=0x80002160
        7335000	       732	00000000	00000013	addi	x0,x0,0	  x0:0x00000000
        7345000	       733	8000217c	00000013	addi	x0,x0,0	  x0:0x00000000
        7355000	       734	80002180	004000ef	jal	x1,80002180	  x1=0x80002180
        7365000	       735	00000000	00000013	addi	x0,x0,0	  x0:0x00000000
        7375000	       736	80002180	00000013	addi	x0,x0,0	  x0:0x00000000
        7385000	       737	80002184	008003ef	jal	x7,80002184	  x7=0x80002184
        7395000	       738	00000000	00000013	addi	x0,x0,0	  x0:0x00000000
        7405000	       739	80002188	00000013	addi	x0,x0,0	  x0:0x00000000
        7415000	       740	8000218c	fedff36f	jal	x6,8000218c	  x6=0x8000218c
        7425000	       741	00000000	00000013	addi	x0,x0,0	  x0:0x00000000
        7435000	       742	80002174	00000013	addi	x0,x0,0	  x0:0x00000000
        7445000	       743	80002178	fedff0ef	jal	x1,80002178	  x1=0x80002178
        7455000	       744	00000000	00000013	addi	x0,x0,0	  x0:0x00000000
        7465000	       745	80002160	00000013	addi	x0,x0,0	  x0:0x00000000
        7475000	       746	80002164	02c00a6f	jal	x20,80002164	 x20=0x80002164
        7485000	       747	00000000	00000013	addi	x0,x0,0	  x0:0x00000000
        7495000	       748	8000218c	00000013	addi	x0,x0,0	  x0:0x00000000
        7505000	       749	80002190	fe5ff96f	jal	x18,80002190	 x18=0x80002190
        7515000	       750	00000000	00000013	addi	x0,x0,0	  x0:0x00000000
        7525000	       751	80002170	00000013	addi	x0,x0,0	  x0:0x00000000
        7535000	       752	80002174	ff5ff36f	jal	x6,80002174	  x6=0x80002174
        7545000	       753	00000000	00000013	addi	x0,x0,0	  x0:0x00000000
        7555000	       754	80002164	00000013	addi	x0,x0,0	  x0:0x00000000
        7565000	       755	80002168	0200036f	jal	x6,80002168	  x6=0x80002168
        7575000	       756	00000000	00000013	addi	x0,x0,0	  x0:0x00000000
        7585000	       757	80002184	00000013	addi	x0,x0,0	  x0:0x00000000
        7595000	       758	80002188	ff5ff6ef	jal	x13,80002188	 x13=0x80002188
        7605000	       759	00000000	00000013	addi	x0,x0,0	  x0:0x00000000
        7615000	       760	80002178	00000013	addi	x0,x0,0	  x0:0x00000000
        7625000	       761	8000217c	ff1fff6f	jal	x30,8000217c	 x30=0x8000217c
        7635000	       762	00000000	00000013	addi	x0,x0,0	  x0:0x00000000
        7645000	       763	80002168	00000013	addi	x0,x0,0	  x0:0x00000000
        7655000	       764	8000216c	0040016f	jal	x2,8000216c	  x2=0x8000216c
        7665000	       765	00000000	00000013	addi	x0,x0,0	  x0:0x00000000
        7675000	       766	8000216c	00000013	addi	x0,x0,0	  x0:0x00000000
        7685000	       767	80002170	024000ef	jal	x1,80002170	  x1=0x80002170
        7695000	       768	00000000	00000013	addi	x0,x0,0	  x0:0x00000000
        7705000	       769	80002190	00000013	addi	x0,x0,0	  x0:0x00000000
        7715000	       770	80002194	f0912613	slti	x12,x2,-247	  x2:0x8000216c x12=0x00000001
        7725000	       771	80002198	014000ef	jal	x1,80002198	  x1=0x80002198
        7735000	       772	00000000	00000013	addi	x0,x0,0	  x0:0x00000000
        7745000	       773	800021a8	00000013	addi	x0,x0,0	  x0:0x00000000
        7755000	       774	800021ac	ff5ff0ef	jal	x1,800021ac	  x1=0x800021ac
        7765000	       775	00000000	00000013	addi	x0,x0,0	  x0:0x00000000
        7775000	       776	8000219c	00000013	addi	x0,x0,0	  x0:0x00000000
        7785000	       777	800021a0	020000ef	jal	x1,800021a0	  x1=0x800021a0
        7795000	       778	00000000	00000013	addi	x0,x0,0	  x0:0x00000000
        7805000	       779	800021bc	00000013	addi	x0,x0,0	  x0:0x00000000
        7815000	       780	800021c0	024000ef	jal	x1,800021c0	  x1=0x800021c0
        7825000	       781	00000000	00000013	addi	x0,x0,0	  x0:0x00000000
        7835000	       782	800021e0	00000013	addi	x0,x0,0	  x0:0x00000000
        7845000	       783	800021e4	fedff36f	jal	x6,800021e4	  x6=0x800021e4
        7855000	       784	00000000	00000013	addi	x0,x0,0	  x0:0x00000000
        7865000	       785	800021cc	00000013	addi	x0,x0,0	  x0:0x00000000
        7875000	       786	800021d0	00c000ef	jal	x1,800021d0	  x1=0x800021d0
        7885000	       787	00000000	00000013	addi	x0,x0,0	  x0:0x00000000
        7895000	       788	800021d8	00000013	addi	x0,x0,0	  x0:0x00000000
        7905000	       789	800021dc	fcdff0ef	jal	x1,800021dc	  x1=0x800021dc
        7915000	       790	00000000	00000013	addi	x0,x0,0	  x0:0x00000000
        7925000	       791	800021a4	00000013	addi	x0,x0,0	  x0:0x00000000
        7935000	       792	800021a8	048000ef	jal	x1,800021a8	  x1=0x800021a8
        7945000	       793	00000000	00000013	addi	x0,x0,0	  x0:0x00000000
        7955000	       794	800021ec	00000013	addi	x0,x0,0	  x0:0x00000000
        7965000	       795	800021f0	fe5ff36f	jal	x6,800021f0	  x6=0x800021f0
        7975000	       796	00000000	00000013	addi	x0,x0,0	  x0:0x00000000
        7985000	       797	800021d0	00000013	addi	x0,x0,0	  x0:0x00000000
        7995000	       798	800021d4	fe1ff0ef	jal	x1,800021d4	  x1=0x800021d4
        8005000	       799	00000000	00000013	addi	x0,x0,0	  x0:0x00000000
        8015000	       800	800021b0	00000013	addi	x0,x0,0	  x0:0x00000000
        8025000	       801	800021b4	fe9ff0ef	jal	x1,800021b4	  x1=0x800021b4
        8035000	       802	00000000	00000013	addi	x0,x0,0	  x0:0x00000000
        8045000	       803	80002198	00000013	addi	x0,x0,0	  x0:0x00000000
        8055000	       804	8000219c	014000ef	jal	x1,8000219c	  x1=0x8000219c
        8065000	       805	00000000	00000013	addi	x0,x0,0	  x0:0x00000000
        8075000	       806	800021ac	00000013	addi	x0,x0,0	  x0:0x00000000
        8085000	       807	800021b0	038000ef	jal	x1,800021b0	  x1=0x800021b0
        8095000	       808	00000000	00000013	addi	x0,x0,0	  x0:0x00000000
        8105000	       809	800021e4	00000013	addi	x0,x0,0	  x0:0x00000000
        8115000	       810	800021e8	fddffbef	jal	x23,800021e8	 x23=0x800021e8
        8125000	       811	00000000	00000013	addi	x0,x0,0	  x0:0x00000000
        8135000	       812	800021c0	00000013	addi	x0,x0,0	  x0:0x00000000
        8145000	       813	800021c4	004001ef	jal	x3,800021c4	  x3=0x800021c4
        8155000	       814	00000000	00000013	addi	x0,x0,0	  x0:0x00000000
        8165000	       815	800021c4	00000013	addi	x0,x0,0	  x0:0x00000000
        8175000	       816	800021c8	02c003ef	jal	x7,800021c8	  x7=0x800021c8
        8185000	       817	00000000	00000013	addi	x0,x0,0	  x0:0x00000000
        8195000	       818	800021f0	00000013	addi	x0,x0,0	  x0:0x00000000
        8205000	       819	800021f4	ff9ff0ef	jal	x1,800021f4	  x1=0x800021f4
        8215000	       820	00000000	00000013	addi	x0,x0,0	  x0:0x00000000
        8225000	       821	800021e8	00000013	addi	x0,x0,0	  x0:0x00000000
        8235000	       822	800021ec	ff5ff0ef	jal	x1,800021ec	  x1=0x800021ec
        8245000	       823	00000000	00000013	addi	x0,x0,0	  x0:0x00000000
        8255000	       824	800021dc	00000013	addi	x0,x0,0	  x0:0x00000000
        8265000	       825	800021e0	018000ef	jal	x1,800021e0	  x1=0x800021e0
        8275000	       826	00000000	00000013	addi	x0,x0,0	  x0:0x00000000
        8285000	       827	800021f4	00000013	addi	x0,x0,0	  x0:0x00000000
        8295000	       828	800021f8	fe1ff36f	jal	x6,800021f8	  x6=0x800021f8
        8305000	       829	00000000	00000013	addi	x0,x0,0	  x0:0x00000000
        8315000	       830	800021d4	00000013	addi	x0,x0,0	  x0:0x00000000
        8325000	       831	800021d8	ff5ff0ef	jal	x1,800021d8	  x1=0x800021d8
        8335000	       832	00000000	00000013	addi	x0,x0,0	  x0:0x00000000
        8345000	       833	800021c8	00000013	addi	x0,x0,0	  x0:0x00000000
        8355000	       834	800021cc	fedff0ef	jal	x1,800021cc	  x1=0x800021cc
        8365000	       835	00000000	00000013	addi	x0,x0,0	  x0:0x00000000
        8375000	       836	800021b4	00000013	addi	x0,x0,0	  x0:0x00000000
        8385000	       837	800021b8	fedff0ef	jal	x1,800021b8	  x1=0x800021b8
        8395000	       838	00000000	00000013	addi	x0,x0,0	  x0:0x00000000
        8405000	       839	800021a0	00000013	addi	x0,x0,0	  x0:0x00000000
        8415000	       840	800021a4	0180036f	jal	x6,800021a4	  x6=0x800021a4
        8425000	       841	00000000	00000013	addi	x0,x0,0	  x0:0x00000000
        8435000	       842	800021b8	00000013	addi	x0,x0,0	  x0:0x00000000
        8445000	       843	800021bc	040000ef	jal	x1,800021bc	  x1=0x800021bc
        8455000	       844	00000000	00000013	addi	x0,x0,0	  x0:0x00000000
        8465000	       845	800021f8	00000013	addi	x0,x0,0	  x0:0x00000000
        8475000	       846	800021fc	b04f7493	andi	x9,x30,-1276	 x30:0x8000217c  x9=0x80002104
        8485000	       847	80002200	00c000ef	jal	x1,80002200	  x1=0x80002200
        8495000	       848	00000000	00000013	addi	x0,x0,0	  x0:0x00000000
        8505000	       849	80002208	00000013	addi	x0,x0,0	  x0:0x00000000
        8515000	       850	8000220c	038000ef	jal	x1,8000220c	  x1=0x8000220c
        8525000	       851	00000000	00000013	addi	x0,x0,0	  x0:0x00000000
        8535000	       852	80002240	00000013	addi	x0,x0,0	  x0:0x00000000
        8545000	       853	80002244	00c0036f	jal	x6,80002244	  x6=0x80002244
        8555000	       854	00000000	00000013	addi	x0,x0,0	  x0:0x00000000
        8565000	       855	8000224c	00000013	addi	x0,x0,0	  x0:0x00000000
        8575000	       856	80002250	0140076f	jal	x14,80002250	 x14=0x80002250
        8585000	       857	00000000	00000013	addi	x0,x0,0	  x0:0x00000000
        8595000	       858	80002260	00000013	addi	x0,x0,0	  x0:0x00000000
        8605000	       859	80002264	ff9ff1ef	jal	x3,80002264	  x3=0x80002264
        8615000	       860	00000000	00000013	addi	x0,x0,0	  x0:0x00000000
        8625000	       861	80002258	00000013	addi	x0,x0,0	  x0:0x00000000
        8635000	       862	8000225c	fd9ff0ef	jal	x1,8000225c	  x1=0x8000225c
        8645000	       863	00000000	00000013	addi	x0,x0,0	  x0:0x00000000
        8655000	       864	80002230	00000013	addi	x0,x0,0	  x0:0x00000000
        8665000	       865	80002234	ff5ff0ef	jal	x1,80002234	  x1=0x80002234
        8675000	       866	00000000	00000013	addi	x0,x0,0	  x0:0x00000000
        8685000	       867	80002224	00000013	addi	x0,x0,0	  x0:0x00000000
        8695000	       868	80002228	0440036f	jal	x6,80002228	  x6=0x80002228
        8705000	       869	00000000	00000013	addi	x0,x0,0	  x0:0x00000000
        8715000	       870	80002268	00000013	addi	x0,x0,0	  x0:0x00000000
        8725000	       871	8000226c	fa9ff36f	jal	x6,8000226c	  x6=0x8000226c
        8735000	       872	00000000	00000013	addi	x0,x0,0	  x0:0x00000000
        8745000	       873	80002210	00000013	addi	x0,x0,0	  x0:0x00000000
        8755000	       874	80002214	0340036f	jal	x6,80002214	  x6=0x80002214
        8765000	       875	00000000	00000013	addi	x0,x0,0	  x0:0x00000000
        8775000	       876	80002244	00000013	addi	x0,x0,0	  x0:0x00000000
        8785000	       877	80002248	02000f6f	jal	x30,80002248	 x30=0x80002248
        8795000	       878	00000000	00000013	addi	x0,x0,0	  x0:0x00000000
        8805000	       879	80002264	00000013	addi	x0,x0,0	  x0:0x00000000
        8815000	       880	80002268	fb5fff6f	jal	x30,80002268	 x30=0x80002268
        8825000	       881	00000000	00000013	addi	x0,x0,0	  x0:0x00000000
        8835000	       882	80002218	00000013	addi	x0,x0,0	  x0:0x00000000
        8845000	       883	8000221c	038000ef	jal	x1,8000221c	  x1=0x8000221c
        8855000	       884	00000000	00000013	addi	x0,x0,0	  x0:0x00000000
        8865000	       885	80002250	00000013	addi	x0,x0,0	  x0:0x00000000
        8875000	       886	80002254	004009ef	jal	x19,80002254	 x19=0x80002254
        8885000	       887	00000000	00000013	addi	x0,x0,0	  x0:0x00000000
        8895000	       888	80002254	00000013	addi	x0,x0,0	  x0:0x00000000
        8905000	       889	80002258	ff5ff0ef	jal	x1,80002258	  x1=0x80002258
        8915000	       890	00000000	00000013	addi	x0,x0,0	  x0:0x00000000
        8925000	       891	80002248	00000013	addi	x0,x0,0	  x0:0x00000000
        8935000	       892	8000224c	fe5ff2ef	jal	x5,8000224c	  x5=0x8000224c
        8945000	       893	00000000	00000013	addi	x0,x0,0	  x0:0x00000000
        8955000	       894	8000222c	00000013	addi	x0,x0,0	  x0:0x00000000
        8965000	       895	80002230	fd5ff0ef	jal	x1,80002230	  x1=0x80002230
        8975000	       896	00000000	00000013	addi	x0,x0,0	  x0:0x00000000
        8985000	       897	80002200	00000013	addi	x0,x0,0	  x0:0x00000000
        8995000	       898	80002204	00c0036f	jal	x6,80002204	  x6=0x80002204
        9005000	       899	00000000	00000013	addi	x0,x0,0	  x0:0x00000000
        9015000	       900	8000220c	00000013	addi	x0,x0,0	  x0:0x00000000
        9025000	       901	80002210	01c000ef	jal	x1,80002210	  x1=0x80002210
        9035000	       902	00000000	00000013	addi	x0,x0,0	  x0:0x00000000
        9045000	       903	80002228	00000013	addi	x0,x0,0	  x0:0x00000000
        9055000	       904	8000222c	00c0036f	jal	x6,8000222c	  x6=0x8000222c
        9065000	       905	00000000	00000013	addi	x0,x0,0	  x0:0x00000000
        9075000	       906	80002234	00000013	addi	x0,x0,0	  x0:0x00000000
        9085000	       907	80002238	008000ef	jal	x1,80002238	  x1=0x80002238
        9095000	       908	00000000	00000013	addi	x0,x0,0	  x0:0x00000000
        9105000	       909	8000223c	00000013	addi	x0,x0,0	  x0:0x00000000
        9115000	       910	80002240	0200036f	jal	x6,80002240	  x6=0x80002240
        9125000	       911	00000000	00000013	addi	x0,x0,0	  x0:0x00000000
        9135000	       912	8000225c	00000013	addi	x0,x0,0	  x0:0x00000000
        9145000	       913	80002260	fc1ff0ef	jal	x1,80002260	  x1=0x80002260
        9155000	       914	00000000	00000013	addi	x0,x0,0	  x0:0x00000000
        9165000	       915	8000221c	00000013	addi	x0,x0,0	  x0:0x00000000
        9175000	       916	80002220	01c000ef	jal	x1,80002220	  x1=0x80002220
        9185000	       917	00000000	00000013	addi	x0,x0,0	  x0:0x00000000
        9195000	       918	80002238	00000013	addi	x0,x0,0	  x0:0x00000000
        9205000	       919	8000223c	fe9ff0ef	jal	x1,8000223c	  x1=0x8000223c
        9215000	       920	00000000	00000013	addi	x0,x0,0	  x0:0x00000000
        9225000	       921	80002220	00000013	addi	x0,x0,0	  x0:0x00000000
        9235000	       922	80002224	fe5ff96f	jal	x18,80002224	 x18=0x80002224
        9245000	       923	00000000	00000013	addi	x0,x0,0	  x0:0x00000000
        9255000	       924	80002204	00000013	addi	x0,x0,0	  x0:0x00000000
        9265000	       925	80002208	010000ef	jal	x1,80002208	  x1=0x80002208
        9275000	       926	00000000	00000013	addi	x0,x0,0	  x0:0x00000000
        9285000	       927	80002214	00000013	addi	x0,x0,0	  x0:0x00000000
        9295000	       928	80002218	0580036f	jal	x6,80002218	  x6=0x80002218
        9305000	       929	00000000	00000013	addi	x0,x0,0	  x0:0x00000000
        9315000	       930	8000226c	00000013	addi	x0,x0,0	  x0:0x00000000
        9325000	       931	80002270	413752b3	sra	x5,x14,x19	 x14:0x80002250 x19:0x80002254  x5=0xfffff800
        9335000	       932	80002274	01c000ef	jal	x1,80002274	  x1=0x80002274
        9345000	       933	00000000	00000013	addi	x0,x0,0	  x0:0x00000000
        9355000	       934	8000228c	00000013	addi	x0,x0,0	  x0:0x00000000
        9365000	       935	80002290	00400bef	jal	x23,80002290	 x23=0x80002290
        9375000	       936	00000000	00000013	addi	x0,x0,0	  x0:0x00000000
        9385000	       937	80002290	00000013	addi	x0,x0,0	  x0:0x00000000
        9395000	       938	80002294	fe9ff0ef	jal	x1,80002294	  x1=0x80002294
        9405000	       939	00000000	00000013	addi	x0,x0,0	  x0:0x00000000
        9415000	       940	80002278	00000013	addi	x0,x0,0	  x0:0x00000000
        9425000	       941	8000227c	ffdff0ef	jal	x1,8000227c	  x1=0x8000227c
        9435000	       942	00000000	00000013	addi	x0,x0,0	  x0:0x00000000
        9445000	       943	80002274	00000013	addi	x0,x0,0	  x0:0x00000000
        9455000	       944	80002278	0280036f	jal	x6,80002278	  x6=0x80002278
        9465000	       945	00000000	00000013	addi	x0,x0,0	  x0:0x00000000
        9475000	       946	8000229c	00000013	addi	x0,x0,0	  x0:0x00000000
        9485000	       947	800022a0	ff9ff0ef	jal	x1,800022a0	  x1=0x800022a0
        9495000	       948	00000000	00000013	addi	x0,x0,0	  x0:0x00000000
        9505000	       949	80002294	00000013	addi	x0,x0,0	  x0:0x00000000
        9515000	       950	80002298	ff5ff36f	jal	x6,80002298	  x6=0x80002298
        9525000	       951	00000000	00000013	addi	x0,x0,0	  x0:0x00000000
        9535000	       952	80002288	00000013	addi	x0,x0,0	  x0:0x00000000
        9545000	       953	8000228c	ffdff16f	jal	x2,8000228c	  x2=0x8000228c
        9555000	       954	00000000	00000013	addi	x0,x0,0	  x0:0x00000000
        9565000	       955	80002284	00000013	addi	x0,x0,0	  x0:0x00000000
        9575000	       956	80002288	ff9ff0ef	jal	x1,80002288	  x1=0x80002288
        9585000	       957	00000000	00000013	addi	x0,x0,0	  x0:0x00000000
        9595000	       958	8000227c	00000013	addi	x0,x0,0	  x0:0x00000000
        9605000	       959	80002280	004000ef	jal	x1,80002280	  x1=0x80002280
        9615000	       960	00000000	00000013	addi	x0,x0,0	  x0:0x00000000
        9625000	       961	80002280	00000013	addi	x0,x0,0	  x0:0x00000000
        9635000	       962	80002284	018000ef	jal	x1,80002284	  x1=0x80002284
        9645000	       963	00000000	00000013	addi	x0,x0,0	  x0:0x00000000
        9655000	       964	80002298	00000013	addi	x0,x0,0	  x0:0x00000000
        9665000	       965	8000229c	0080036f	jal	x6,8000229c	  x6=0x8000229c
        9675000	       966	00000000	00000013	addi	x0,x0,0	  x0:0x00000000
        9685000	       967	800022a0	00000013	addi	x0,x0,0	  x0:0x00000000
        9695000	       968	800022a4	00a79633	sll	x12,x15,x10	 x15:0x00000000 x10:0x00000410 x12=0x00000000
        9705000	       969	800022a8	028000ef	jal	x1,800022a8	  x1=0x800022a8
        9715000	       970	00000000	00000013	addi	x0,x0,0	  x0:0x00000000
        9725000	       971	800022cc	00000013	addi	x0,x0,0	  x0:0x00000000
        9735000	       972	800022d0	fedff0ef	jal	x1,800022d0	  x1=0x800022d0
        9745000	       973	00000000	00000013	addi	x0,x0,0	  x0:0x00000000
        9755000	       974	800022b8	00000013	addi	x0,x0,0	  x0:0x00000000
        9765000	       975	800022bc	010000ef	jal	x1,800022bc	  x1=0x800022bc
        9775000	       976	00000000	00000013	addi	x0,x0,0	  x0:0x00000000
        9785000	       977	800022c8	00000013	addi	x0,x0,0	  x0:0x00000000
        9795000	       978	800022cc	02c000ef	jal	x1,800022cc	  x1=0x800022cc
        9805000	       979	00000000	00000013	addi	x0,x0,0	  x0:0x00000000
        9815000	       980	800022f4	00000013	addi	x0,x0,0	  x0:0x00000000
        9825000	       981	800022f8	ff5ff0ef	jal	x1,800022f8	  x1=0x800022f8
        9835000	       982	00000000	00000013	addi	x0,x0,0	  x0:0x00000000
        9845000	       983	800022e8	00000013	addi	x0,x0,0	  x0:0x00000000
        9855000	       984	800022ec	ff5ff0ef	jal	x1,800022ec	  x1=0x800022ec
        9865000	       985	00000000	00000013	addi	x0,x0,0	  x0:0x00000000
        9875000	       986	800022dc	00000013	addi	x0,x0,0	  x0:0x00000000
        9885000	       987	800022e0	fe1ff0ef	jal	x1,800022e0	  x1=0x800022e0
        9895000	       988	00000000	00000013	addi	x0,x0,0	  x0:0x00000000
        9905000	       989	800022bc	00000013	addi	x0,x0,0	  x0:0x00000000
        9915000	       990	800022c0	01800d6f	jal	x26,800022c0	 x26=0x800022c0
        9925000	       991	00000000	00000013	addi	x0,x0,0	  x0:0x00000000
        9935000	       992	800022d4	00000013	addi	x0,x0,0	  x0:0x00000000
        9945000	       993	800022d8	fedff36f	jal	x6,800022d8	  x6=0x800022d8
        9955000	       994	00000000	00000013	addi	x0,x0,0	  x0:0x00000000
        9965000	       995	800022c0	00000013	addi	x0,x0,0	  x0:0x00000000
        9975000	       996	800022c4	0100046f	jal	x8,800022c4	  x8=0x800022c4
        9985000	       997	00000000	00000013	addi	x0,x0,0	  x0:0x00000000
        9995000	       998	800022d0	00000013	addi	x0,x0,0	  x0:0x00000000
       10005000	       999	800022d4	ff5ff36f	jal	x6,800022d4	  x6=0x800022d4
       10015000	      1000	00000000	00000013	addi	x0,x0,0	  x0:0x00000000
       10025000	      1001	800022c4	00000013	addi	x0,x0,0	  x0:0x00000000
       10035000	      1002	800022c8	fe9ff16f	jal	x2,800022c8	  x2=0x800022c8
       10045000	      1003	00000000	00000013	addi	x0,x0,0	  x0:0x00000000
       10055000	      1004	800022ac	00000013	addi	x0,x0,0	  x0:0x00000000
       10065000	      1005	800022b0	0380036f	jal	x6,800022b0	  x6=0x800022b0
       10075000	      1006	00000000	00000013	addi	x0,x0,0	  x0:0x00000000
       10085000	      1007	800022e4	00000013	addi	x0,x0,0	  x0:0x00000000
       10095000	      1008	800022e8	00c0036f	jal	x6,800022e8	  x6=0x800022e8
       10105000	      1009	00000000	00000013	addi	x0,x0,0	  x0:0x00000000
       10115000	      1010	800022f0	00000013	addi	x0,x0,0	  x0:0x00000000
       10125000	      1011	800022f4	fc5ff6ef	jal	x13,800022f4	 x13=0x800022f4
       10135000	      1012	00000000	00000013	addi	x0,x0,0	  x0:0x00000000
       10145000	      1013	800022b4	00000013	addi	x0,x0,0	  x0:0x00000000
       10155000	      1014	800022b8	ff5ff4ef	jal	x9,800022b8	  x9=0x800022b8
       10165000	      1015	00000000	00000013	addi	x0,x0,0	  x0:0x00000000
       10175000	      1016	800022a8	00000013	addi	x0,x0,0	  x0:0x00000000
       10185000	      1017	800022ac	0380036f	jal	x6,800022ac	  x6=0x800022ac
       10195000	      1018	00000000	00000013	addi	x0,x0,0	  x0:0x00000000
       10205000	      1019	800022e0	00000013	addi	x0,x0,0	  x0:0x00000000
       10215000	      1020	800022e4	00c000ef	jal	x1,800022e4	  x1=0x800022e4
       10225000	      1021	00000000	00000013	addi	x0,x0,0	  x0:0x00000000
       10235000	      1022	800022ec	00000013	addi	x0,x0,0	  x0:0x00000000
       10245000	      1023	800022f0	fc5ff0ef	jal	x1,800022f0	  x1=0x800022f0
       10255000	      1024	00000000	00000013	addi	x0,x0,0	  x0:0x00000000
       10265000	      1025	800022b0	00000013	addi	x0,x0,0	  x0:0x00000000
       10275000	      1026	800022b4	0280036f	jal	x6,800022b4	  x6=0x800022b4
       10285000	      1027	00000000	00000013	addi	x0,x0,0	  x0:0x00000000
       10295000	      1028	800022d8	00000013	addi	x0,x0,0	  x0:0x00000000
       10305000	      1029	800022dc	02000d6f	jal	x26,800022dc	 x26=0x800022dc
       10315000	      1030	00000000	00000013	addi	x0,x0,0	  x0:0x00000000
       10325000	      1031	800022f8	00000013	addi	x0,x0,0	  x0:0x00000000
       10335000	      1032	800022fc	00aed313	srli	x6,x29,0xa	 x29:0x80002118  x6=0x00200008
       10345000	      1033	80002300	038000ef	jal	x1,80002300	  x1=0x80002300
       10355000	      1034	00000000	00000013	addi	x0,x0,0	  x0:0x00000000
       10365000	      1035	80002334	00000013	addi	x0,x0,0	  x0:0x00000000
       10375000	      1036	80002338	ff5ff76f	jal	x14,80002338	 x14=0x80002338
       10385000	      1037	00000000	00000013	addi	x0,x0,0	  x0:0x00000000
       10395000	      1038	80002328	00000013	addi	x0,x0,0	  x0:0x00000000
       10405000	      1039	8000232c	010001ef	jal	x3,8000232c	  x3=0x8000232c
       10415000	      1040	00000000	00000013	addi	x0,x0,0	  x0:0x00000000
       10425000	      1041	80002338	00000013	addi	x0,x0,0	  x0:0x00000000
       10435000	      1042	8000233c	fe5ff0ef	jal	x1,8000233c	  x1=0x8000233c
       10445000	      1043	00000000	00000013	addi	x0,x0,0	  x0:0x00000000
       10455000	      1044	8000231c	00000013	addi	x0,x0,0	  x0:0x00000000
       10465000	      1045	80002320	01400b6f	jal	x22,80002320	 x22=0x80002320
       10475000	      1046	00000000	00000013	addi	x0,x0,0	  x0:0x00000000
       10485000	      1047	80002330	00000013	addi	x0,x0,0	  x0:0x00000000
       10495000	      1048	80002334	fd9ff0ef	jal	x1,80002334	  x1=0x80002334
       10505000	      1049	00000000	00000013	addi	x0,x0,0	  x0:0x00000000
       10515000	      1050	80002308	00000013	addi	x0,x0,0	  x0:0x00000000
       10525000	      1051	8000230c	004000ef	jal	x1,8000230c	  x1=0x8000230c
       10535000	      1052	00000000	00000013	addi	x0,x0,0	  x0:0x00000000
       10545000	      1053	8000230c	00000013	addi	x0,x0,0	  x0:0x00000000
       10555000	      1054	80002310	030000ef	jal	x1,80002310	  x1=0x80002310
       10565000	      1055	00000000	00000013	addi	x0,x0,0	  x0:0x00000000
       10575000	      1056	8000233c	00000013	addi	x0,x0,0	  x0:0x00000000
       10585000	      1057	80002340	fd9ff0ef	jal	x1,80002340	  x1=0x80002340
       10595000	      1058	00000000	00000013	addi	x0,x0,0	  x0:0x00000000
       10605000	      1059	80002314	00000013	addi	x0,x0,0	  x0:0x00000000
       10615000	      1060	80002318	010003ef	jal	x7,80002318	  x7=0x80002318
       10625000	      1061	00000000	00000013	addi	x0,x0,0	  x0:0x00000000
       10635000	      1062	80002324	00000013	addi	x0,x0,0	  x0:0x00000000
       10645000	      1063	80002328	fddff36f	jal	x6,80002328	  x6=0x80002328
       10655000	      1064	00000000	00000013	addi	x0,x0,0	  x0:0x00000000
       10665000	      1065	80002300	00000013	addi	x0,x0,0	  x0:0x00000000
       10675000	      1066	80002304	02c0036f	jal	x6,80002304	  x6=0x80002304
       10685000	      1067	00000000	00000013	addi	x0,x0,0	  x0:0x00000000
       10695000	      1068	8000232c	00000013	addi	x0,x0,0	  x0:0x00000000
       10705000	      1069	80002330	fedffdef	jal	x27,80002330	 x27=0x80002330
       10715000	      1070	00000000	00000013	addi	x0,x0,0	  x0:0x00000000
       10725000	      1071	80002318	00000013	addi	x0,x0,0	  x0:0x00000000
       10735000	      1072	8000231c	fedff36f	jal	x6,8000231c	  x6=0x8000231c
       10745000	      1073	00000000	00000013	addi	x0,x0,0	  x0:0x00000000
       10755000	      1074	80002304	00000013	addi	x0,x0,0	  x0:0x00000000
       10765000	      1075	80002308	01c000ef	jal	x1,80002308	  x1=0x80002308
       10775000	      1076	00000000	00000013	addi	x0,x0,0	  x0:0x00000000
       10785000	      1077	80002320	00000013	addi	x0,x0,0	  x0:0x00000000
       10795000	      1078	80002324	ff1ffa6f	jal	x20,80002324	 x20=0x80002324
       10805000	      1079	00000000	00000013	addi	x0,x0,0	  x0:0x00000000
       10815000	      1080	80002310	00000013	addi	x0,x0,0	  x0:0x00000000
       10825000	      1081	80002314	0300036f	jal	x6,80002314	  x6=0x80002314
       10835000	      1082	00000000	00000013	addi	x0,x0,0	  x0:0x00000000
       10845000	      1083	80002340	00000013	addi	x0,x0,0	  x0:0x00000000
       10855000	      1084	80002344	01b46b33	or	x22,x8,x27	  x8:0x800022c4 x27:0x80002330 x22=0x800023f4
       10865000	      1085	80002348	02c000ef	jal	x1,80002348	  x1=0x80002348
       10875000	      1086	00000000	00000013	addi	x0,x0,0	  x0:0x00000000
       10885000	      1087	80002370	00000013	addi	x0,x0,0	  x0:0x00000000
       10895000	      1088	80002374	ff9ff0ef	jal	x1,80002374	  x1=0x80002374
       10905000	      1089	00000000	00000013	addi	x0,x0,0	  x0:0x00000000
       10915000	      1090	80002368	00000013	addi	x0,x0,0	  x0:0x00000000
       10925000	      1091	8000236c	ffdffe6f	jal	x28,8000236c	 x28=0x8000236c
       10935000	      1092	00000000	00000013	addi	x0,x0,0	  x0:0x00000000
       10945000	      1093	80002364	00000013	addi	x0,x0,0	  x0:0x00000000
       10955000	      1094	80002368	ff5ff0ef	jal	x1,80002368	  x1=0x80002368
       10965000	      1095	00000000	00000013	addi	x0,x0,0	  x0:0x00000000
       10975000	      1096	80002358	00000013	addi	x0,x0,0	  x0:0x00000000
       10985000	      1097	8000235c	008008ef	jal	x17,8000235c	 x17=0x8000235c
       10995000	      1098	00000000	00000013	addi	x0,x0,0	  x0:0x00000000
       11005000	      1099	80002360	00000013	addi	x0,x0,0	  x0:0x00000000
       11015000	      1100	80002364	ffdff36f	jal	x6,80002364	  x6=0x80002364
       11025000	      1101	00000000	00000013	addi	x0,x0,0	  x0:0x00000000
       11035000	      1102	8000235c	00000013	addi	x0,x0,0	  x0:0x00000000
       11045000	      1103	80002360	ff9ff36f	jal	x6,80002360	  x6=0x80002360
       11055000	      1104	00000000	00000013	addi	x0,x0,0	  x0:0x00000000
       11065000	      1105	80002354	00000013	addi	x0,x0,0	  x0:0x00000000
       11075000	      1106	80002358	ff5ff86f	jal	x16,80002358	 x16=0x80002358
       11085000	      1107	00000000	00000013	addi	x0,x0,0	  x0:0x00000000
       11095000	      1108	80002348	00000013	addi	x0,x0,0	  x0:0x00000000
       11105000	      1109	8000234c	0240036f	jal	x6,8000234c	  x6=0x8000234c
       11115000	      1110	00000000	00000013	addi	x0,x0,0	  x0:0x00000000
       11125000	      1111	8000236c	00000013	addi	x0,x0,0	  x0:0x00000000
       11135000	      1112	80002370	fe1ff36f	jal	x6,80002370	  x6=0x80002370
       11145000	      1113	00000000	00000013	addi	x0,x0,0	  x0:0x00000000
       11155000	      1114	8000234c	00000013	addi	x0,x0,0	  x0:0x00000000
       11165000	      1115	80002350	004002ef	jal	x5,80002350	  x5=0x80002350
       11175000	      1116	00000000	00000013	addi	x0,x0,0	  x0:0x00000000
       11185000	      1117	80002350	00000013	addi	x0,x0,0	  x0:0x00000000
       11195000	      1118	80002354	0240036f	jal	x6,80002354	  x6=0x80002354
       11205000	      1119	00000000	00000013	addi	x0,x0,0	  x0:0x00000000
       11215000	      1120	80002374	00000013	addi	x0,x0,0	  x0:0x00000000
       11225000	      1121	80002378	c040be93	sltiu	x29,x1,-1020	  x1:0x80002368 x29=0x00000001
       11235000	      1122	8000237c	00c000ef	jal	x1,8000237c	  x1=0x8000237c
       11245000	      1123	00000000	00000013	addi	x0,x0,0	  x0:0x00000000
       11255000	      1124	80002384	00000013	addi	x0,x0,0	  x0:0x00000000
       11265000	      1125	80002388	030000ef	jal	x1,80002388	  x1=0x80002388
       11275000	      1126	00000000	00000013	addi	x0,x0,0	  x0:0x00000000
       11285000	      1127	800023b4	00000013	addi	x0,x0,0	  x0:0x00000000
       11295000	      1128	800023b8	004000ef	jal	x1,800023b8	  x1=0x800023b8
       11305000	      1129	00000000	00000013	addi	x0,x0,0	  x0:0x00000000
       11315000	      1130	800023b8	00000013	addi	x0,x0,0	  x0:0x00000000
       11325000	      1131	800023bc	00c000ef	jal	x1,800023bc	  x1=0x800023bc
       11335000	      1132	00000000	00000013	addi	x0,x0,0	  x0:0x00000000
       11345000	      1133	800023c4	00000013	addi	x0,x0,0	  x0:0x00000000
       11355000	      1134	800023c8	fbdff0ef	jal	x1,800023c8	  x1=0x800023c8
       11365000	      1135	00000000	00000013	addi	x0,x0,0	  x0:0x00000000
       11375000	      1136	80002380	00000013	addi	x0,x0,0	  x0:0x00000000
       11385000	      1137	80002384	018000ef	jal	x1,80002384	  x1=0x80002384
       11395000	      1138	00000000	00000013	addi	x0,x0,0	  x0:0x00000000
       11405000	      1139	80002398	00000013	addi	x0,x0,0	  x0:0x00000000
       11415000	      1140	8000239c	ff5ff0ef	jal	x1,8000239c	  x1=0x8000239c
       11425000	      1141	00000000	00000013	addi	x0,x0,0	  x0:0x00000000
       11435000	      1142	8000238c	00000013	addi	x0,x0,0	  x0:0x00000000
       11445000	      1143	80002390	010000ef	jal	x1,80002390	  x1=0x80002390
       11455000	      1144	00000000	00000013	addi	x0,x0,0	  x0:0x00000000
       11465000	      1145	8000239c	00000013	addi	x0,x0,0	  x0:0x00000000
       11475000	      1146	800023a0	0140036f	jal	x6,800023a0	  x6=0x800023a0
       11485000	      1147	00000000	00000013	addi	x0,x0,0	  x0:0x00000000
       11495000	      1148	800023b0	00000013	addi	x0,x0,0	  x0:0x00000000
       11505000	      1149	800023b4	00c002ef	jal	x5,800023b4	  x5=0x800023b4
       11515000	      1150	00000000	00000013	addi	x0,x0,0	  x0:0x00000000
       11525000	      1151	800023bc	00000013	addi	x0,x0,0	  x0:0x00000000
       11535000	      1152	800023c0	fd5ff76f	jal	x14,800023c0	 x14=0x800023c0
       11545000	      1153	00000000	00000013	addi	x0,x0,0	  x0:0x00000000
       11555000	      1154	80002390	00000013	addi	x0,x0,0	  x0:0x00000000
       11565000	      1155	80002394	014000ef	jal	x1,80002394	  x1=0x80002394
       11575000	      1156	00000000	00000013	addi	x0,x0,0	  x0:0x00000000
       11585000	      1157	800023a4	00000013	addi	x0,x0,0	  x0:0x00000000
       11595000	      1158	800023a8	01c000ef	jal	x1,800023a8	  x1=0x800023a8
       11605000	      1159	00000000	00000013	addi	x0,x0,0	  x0:0x00000000
       11615000	      1160	800023c0	00000013	addi	x0,x0,0	  x0:0x00000000
       11625000	      1161	800023c4	fbdff36f	jal	x6,800023c4	  x6=0x800023c4
       11635000	      1162	00000000	00000013	addi	x0,x0,0	  x0:0x00000000
       11645000	      1163	8000237c	00000013	addi	x0,x0,0	  x0:0x00000000
       11655000	      1164	80002380	02c0036f	jal	x6,80002380	  x6=0x80002380
       11665000	      1165	00000000	00000013	addi	x0,x0,0	  x0:0x00000000
       11675000	      1166	800023a8	00000013	addi	x0,x0,0	  x0:0x00000000
       11685000	      1167	800023ac	ff9ffd6f	jal	x26,800023ac	 x26=0x800023ac
       11695000	      1168	00000000	00000013	addi	x0,x0,0	  x0:0x00000000
       11705000	      1169	800023a0	00000013	addi	x0,x0,0	  x0:0x00000000
       11715000	      1170	800023a4	00c000ef	jal	x1,800023a4	  x1=0x800023a4
       11725000	      1171	00000000	00000013	addi	x0,x0,0	  x0:0x00000000
       11735000	      1172	800023ac	00000013	addi	x0,x0,0	  x0:0x00000000
       11745000	      1173	800023b0	fddff36f	jal	x6,800023b0	  x6=0x800023b0
       11755000	      1174	00000000	00000013	addi	x0,x0,0	  x0:0x00000000
       11765000	      1175	80002388	00000013	addi	x0,x0,0	  x0:0x00000000
       11775000	      1176	8000238c	00c0036f	jal	x6,8000238c	  x6=0x8000238c
       11785000	      1177	00000000	00000013	addi	x0,x0,0	  x0:0x00000000
       11795000	      1178	80002394	00000013	addi	x0,x0,0	  x0:0x00000000
       11805000	      1179	80002398	03400d6f	jal	x26,80002398	 x26=0x80002398
       11815000	      1180	00000000	00000013	addi	x0,x0,0	  x0:0x00000000
       11825000	      1181	800023c8	00000013	addi	x0,x0,0	  x0:0x00000000
       11835000	      1182	800023cc	01005a13	srli	x20,x0,0x10	  x0:0x00000000 x20=0x00000000
       11845000	      1183	800023d0	018000ef	jal	x1,800023d0	  x1=0x800023d0
       11855000	      1184	00000000	00000013	addi	x0,x0,0	  x0:0x00000000
       11865000	      1185	800023e4	00000013	addi	x0,x0,0	  x0:0x00000000
       11875000	      1186	800023e8	01c000ef	jal	x1,800023e8	  x1=0x800023e8
       11885000	      1187	00000000	00000013	addi	x0,x0,0	  x0:0x00000000
       11895000	      1188	80002400	00000013	addi	x0,x0,0	  x0:0x00000000
       11905000	      1189	80002404	0200036f	jal	x6,80002404	  x6=0x80002404
       11915000	      1190	00000000	00000013	addi	x0,x0,0	  x0:0x00000000
       11925000	      1191	80002420	00000013	addi	x0,x0,0	  x0:0x00000000
       11935000	      1192	80002424	ff5ff0ef	jal	x1,80002424	  x1=0x80002424
       11945000	      1193	00000000	00000013	addi	x0,x0,0	  x0:0x00000000
       11955000	      1194	80002414	00000013	addi	x0,x0,0	  x0:0x00000000
       11965000	      1195	80002418	010000ef	jal	x1,80002418	  x1=0x80002418
       11975000	      1196	00000000	00000013	addi	x0,x0,0	  x0:0x00000000
       11985000	      1197	80002424	00000013	addi	x0,x0,0	  x0:0x00000000
       11995000	      1198	80002428	fadff36f	jal	x6,80002428	  x6=0x80002428
       12005000	      1199	00000000	00000013	addi	x0,x0,0	  x0:0x00000000
       12015000	      1200	800023d0	00000013	addi	x0,x0,0	  x0:0x00000000
       12025000	      1201	800023d4	04c001ef	jal	x3,800023d4	  x3=0x800023d4
       12035000	      1202	00000000	00000013	addi	x0,x0,0	  x0:0x00000000
       12045000	      1203	8000241c	00000013	addi	x0,x0,0	  x0:0x00000000
       12055000	      1204	80002420	ff5ff0ef	jal	x1,80002420	  x1=0x80002420
       12065000	      1205	00000000	00000013	addi	x0,x0,0	  x0:0x00000000
       12075000	      1206	80002410	00000013	addi	x0,x0,0	  x0:0x00000000
       12085000	      1207	80002414	fe5ff0ef	jal	x1,80002414	  x1=0x80002414
       12095000	      1208	00000000	00000013	addi	x0,x0,0	  x0:0x00000000
       12105000	      1209	800023f4	00000013	addi	x0,x0,0	  x0:0x00000000
       12115000	      1210	800023f8	ffdff9ef	jal	x19,800023f8	 x19=0x800023f8
       12125000	      1211	00000000	00000013	addi	x0,x0,0	  x0:0x00000000
       12135000	      1212	800023f0	00000013	addi	x0,x0,0	  x0:0x00000000
       12145000	      1213	800023f4	fe5ff0ef	jal	x1,800023f4	  x1=0x800023f4
       12155000	      1214	00000000	00000013	addi	x0,x0,0	  x0:0x00000000
       12165000	      1215	800023d4	00000013	addi	x0,x0,0	  x0:0x00000000
       12175000	      1216	800023d8	030000ef	jal	x1,800023d8	  x1=0x800023d8
       12185000	      1217	00000000	00000013	addi	x0,x0,0	  x0:0x00000000
       12195000	      1218	80002404	00000013	addi	x0,x0,0	  x0:0x00000000
       12205000	      1219	80002408	fd9ff0ef	jal	x1,80002408	  x1=0x80002408
       12215000	      1220	00000000	00000013	addi	x0,x0,0	  x0:0x00000000
       12225000	      1221	800023dc	00000013	addi	x0,x0,0	  x0:0x00000000
       12235000	      1222	800023e0	010000ef	jal	x1,800023e0	  x1=0x800023e0
       12245000	      1223	00000000	00000013	addi	x0,x0,0	  x0:0x00000000
       12255000	      1224	800023ec	00000013	addi	x0,x0,0	  x0:0x00000000
       12265000	      1225	800023f0	0200026f	jal	x4,800023f0	  x4=0x800023f0
       12275000	      1226	00000000	00000013	addi	x0,x0,0	  x0:0x00000000
       12285000	      1227	8000240c	00000013	addi	x0,x0,0	  x0:0x00000000
       12295000	      1228	80002410	fedff0ef	jal	x1,80002410	  x1=0x80002410
       12305000	      1229	00000000	00000013	addi	x0,x0,0	  x0:0x00000000
       12315000	      1230	800023f8	00000013	addi	x0,x0,0	  x0:0x00000000
       12325000	      1231	800023fc	020000ef	jal	x1,800023fc	  x1=0x800023fc
       12335000	      1232	00000000	00000013	addi	x0,x0,0	  x0:0x00000000
       12345000	      1233	80002418	00000013	addi	x0,x0,0	  x0:0x00000000
       12355000	      1234	8000241c	01c000ef	jal	x1,8000241c	  x1=0x8000241c
       12365000	      1235	00000000	00000013	addi	x0,x0,0	  x0:0x00000000
       12375000	      1236	80002434	00000013	addi	x0,x0,0	  x0:0x00000000
       12385000	      1237	80002438	fb5ff0ef	jal	x1,80002438	  x1=0x80002438
       12395000	      1238	00000000	00000013	addi	x0,x0,0	  x0:0x00000000
       12405000	      1239	800023e8	00000013	addi	x0,x0,0	  x0:0x00000000
       12415000	      1240	800023ec	ff1ff9ef	jal	x19,800023ec	 x19=0x800023ec
       12425000	      1241	00000000	00000013	addi	x0,x0,0	  x0:0x00000000
       12435000	      1242	800023d8	00000013	addi	x0,x0,0	  x0:0x00000000
       12445000	      1243	800023dc	0580056f	jal	x10,800023dc	 x10=0x800023dc
       12455000	      1244	00000000	00000013	addi	x0,x0,0	  x0:0x00000000
       12465000	      1245	80002430	00000013	addi	x0,x0,0	  x0:0x00000000
       12475000	      1246	80002434	ff9ff36f	jal	x6,80002434	  x6=0x80002434
       12485000	      1247	00000000	00000013	addi	x0,x0,0	  x0:0x00000000
       12495000	      1248	80002428	00000013	addi	x0,x0,0	  x0:0x00000000
       12505000	      1249	8000242c	004000ef	jal	x1,8000242c	  x1=0x8000242c
       12515000	      1250	00000000	00000013	addi	x0,x0,0	  x0:0x00000000
       12525000	      1251	8000242c	00000013	addi	x0,x0,0	  x0:0x00000000
       12535000	      1252	80002430	fddff2ef	jal	x5,80002430	  x5=0x80002430
       12545000	      1253	00000000	00000013	addi	x0,x0,0	  x0:0x00000000
       12555000	      1254	80002408	00000013	addi	x0,x0,0	  x0:0x00000000
       12565000	      1255	8000240c	ff5ff0ef	jal	x1,8000240c	  x1=0x8000240c
       12575000	      1256	00000000	00000013	addi	x0,x0,0	  x0:0x00000000
       12585000	      1257	800023fc	00000013	addi	x0,x0,0	  x0:0x00000000
       12595000	      1258	80002400	fe5ff0ef	jal	x1,80002400	  x1=0x80002400
       12605000	      1259	00000000	00000013	addi	x0,x0,0	  x0:0x00000000
       12615000	      1260	800023e0	00000013	addi	x0,x0,0	  x0:0x00000000
       12625000	      1261	800023e4	058000ef	jal	x1,800023e4	  x1=0x800023e4
       12635000	      1262	00000000	00000013	addi	x0,x0,0	  x0:0x00000000
       12645000	      1263	80002438	00000013	addi	x0,x0,0	  x0:0x00000000
       12655000	      1264	8000243c	019afbb3	and	x23,x21,x25	 x21:0x80009f44 x25:0x00000001 x23=0x00000000
       12665000	      1265	80002440	028000ef	jal	x1,80002440	  x1=0x80002440
       12675000	      1266	00000000	00000013	addi	x0,x0,0	  x0:0x00000000
       12685000	      1267	80002464	00000013	addi	x0,x0,0	  x0:0x00000000
       12695000	      1268	80002468	00400bef	jal	x23,80002468	 x23=0x80002468
       12705000	      1269	00000000	00000013	addi	x0,x0,0	  x0:0x00000000
       12715000	      1270	80002468	00000013	addi	x0,x0,0	  x0:0x00000000
       12725000	      1271	8000246c	fedff0ef	jal	x1,8000246c	  x1=0x8000246c
       12735000	      1272	00000000	00000013	addi	x0,x0,0	  x0:0x00000000
       12745000	      1273	80002454	00000013	addi	x0,x0,0	  x0:0x00000000
       12755000	      1274	80002458	ff1ff36f	jal	x6,80002458	  x6=0x80002458
       12765000	      1275	00000000	00000013	addi	x0,x0,0	  x0:0x00000000
       12775000	      1276	80002444	00000013	addi	x0,x0,0	  x0:0x00000000
       12785000	      1277	80002448	014000ef	jal	x1,80002448	  x1=0x80002448
       12795000	      1278	00000000	00000013	addi	x0,x0,0	  x0:0x00000000
       12805000	      1279	80002458	00000013	addi	x0,x0,0	  x0:0x00000000
       12815000	      1280	8000245c	00800bef	jal	x23,8000245c	 x23=0x8000245c
       12825000	      1281	00000000	00000013	addi	x0,x0,0	  x0:0x00000000
       12835000	      1282	80002460	00000013	addi	x0,x0,0	  x0:0x00000000
       12845000	      1283	80002464	ff1ff0ef	jal	x1,80002464	  x1=0x80002464
       12855000	      1284	00000000	00000013	addi	x0,x0,0	  x0:0x00000000
       12865000	      1285	80002450	00000013	addi	x0,x0,0	  x0:0x00000000
       12875000	      1286	80002454	ff1ff26f	jal	x4,80002454	  x4=0x80002454
       12885000	      1287	00000000	00000013	addi	x0,x0,0	  x0:0x00000000
       12895000	      1288	80002440	00000013	addi	x0,x0,0	  x0:0x00000000
       12905000	      1289	80002444	0080036f	jal	x6,80002444	  x6=0x80002444
       12915000	      1290	00000000	00000013	addi	x0,x0,0	  x0:0x00000000
       12925000	      1291	80002448	00000013	addi	x0,x0,0	  x0:0x00000000
       12935000	      1292	8000244c	0140036f	jal	x6,8000244c	  x6=0x8000244c
       12945000	      1293	00000000	00000013	addi	x0,x0,0	  x0:0x00000000
       12955000	      1294	8000245c	00000013	addi	x0,x0,0	  x0:0x00000000
       12965000	      1295	80002460	010007ef	jal	x15,80002460	 x15=0x80002460
       12975000	      1296	00000000	00000013	addi	x0,x0,0	  x0:0x00000000
       12985000	      1297	8000246c	00000013	addi	x0,x0,0	  x0:0x00000000
       12995000	      1298	80002470	fe1ff0ef	jal	x1,80002470	  x1=0x80002470
       13005000	      1299	00000000	00000013	addi	x0,x0,0	  x0:0x00000000
       13015000	      1300	8000244c	00000013	addi	x0,x0,0	  x0:0x00000000
       13025000	      1301	80002450	024001ef	jal	x3,80002450	  x3=0x80002450
       13035000	      1302	00000000	00000013	addi	x0,x0,0	  x0:0x00000000
       13045000	      1303	80002470	00000013	addi	x0,x0,0	  x0:0x00000000
       13055000	      1304	80002474	00e067b3	or	x15,x0,x14	  x0:0x00000000 x14:0x800023c0 x15=0x800023c0
       13065000	      1305	80002478	044000ef	jal	x1,80002478	  x1=0x80002478
       13075000	      1306	00000000	00000013	addi	x0,x0,0	  x0:0x00000000
       13085000	      1307	800024b8	00000013	addi	x0,x0,0	  x0:0x00000000
       13095000	      1308	800024bc	00400bef	jal	x23,800024bc	 x23=0x800024bc
       13105000	      1309	00000000	00000013	addi	x0,x0,0	  x0:0x00000000
       13115000	      1310	800024bc	00000013	addi	x0,x0,0	  x0:0x00000000
       13125000	      1311	800024c0	fc1ff0ef	jal	x1,800024c0	  x1=0x800024c0
       13135000	      1312	00000000	00000013	addi	x0,x0,0	  x0:0x00000000
       13145000	      1313	8000247c	00000013	addi	x0,x0,0	  x0:0x00000000
       13155000	      1314	80002480	ffdff0ef	jal	x1,80002480	  x1=0x80002480
       13165000	      1315	00000000	00000013	addi	x0,x0,0	  x0:0x00000000
       13175000	      1316	80002478	00000013	addi	x0,x0,0	  x0:0x00000000
       13185000	      1317	8000247c	010000ef	jal	x1,8000247c	  x1=0x8000247c
       13195000	      1318	00000000	00000013	addi	x0,x0,0	  x0:0x00000000
       13205000	      1319	80002488	00000013	addi	x0,x0,0	  x0:0x00000000
       13215000	      1320	8000248c	010000ef	jal	x1,8000248c	  x1=0x8000248c
       13225000	      1321	00000000	00000013	addi	x0,x0,0	  x0:0x00000000
       13235000	      1322	80002498	00000013	addi	x0,x0,0	  x0:0x00000000
       13245000	      1323	8000249c	ff5ff56f	jal	x10,8000249c	 x10=0x8000249c
       13255000	      1324	00000000	00000013	addi	x0,x0,0	  x0:0x00000000
       13265000	      1325	8000248c	00000013	addi	x0,x0,0	  x0:0x00000000
       13275000	      1326	80002490	0180036f	jal	x6,80002490	  x6=0x80002490
       13285000	      1327	00000000	00000013	addi	x0,x0,0	  x0:0x00000000
       13295000	      1328	800024a4	00000013	addi	x0,x0,0	  x0:0x00000000
       13305000	      1329	800024a8	fe1ff96f	jal	x18,800024a8	 x18=0x800024a8
       13315000	      1330	00000000	00000013	addi	x0,x0,0	  x0:0x00000000
       13325000	      1331	80002484	00000013	addi	x0,x0,0	  x0:0x00000000
       13335000	      1332	80002488	018006ef	jal	x13,80002488	 x13=0x80002488
       13345000	      1333	00000000	00000013	addi	x0,x0,0	  x0:0x00000000
       13355000	      1334	8000249c	00000013	addi	x0,x0,0	  x0:0x00000000
       13365000	      1335	800024a0	fe5ff0ef	jal	x1,800024a0	  x1=0x800024a0
       13375000	      1336	00000000	00000013	addi	x0,x0,0	  x0:0x00000000
       13385000	      1337	80002480	00000013	addi	x0,x0,0	  x0:0x00000000
       13395000	      1338	80002484	020000ef	jal	x1,80002484	  x1=0x80002484
       13405000	      1339	00000000	00000013	addi	x0,x0,0	  x0:0x00000000
       13415000	      1340	800024a0	00000013	addi	x0,x0,0	  x0:0x00000000
       13425000	      1341	800024a4	010000ef	jal	x1,800024a4	  x1=0x800024a4
       13435000	      1342	00000000	00000013	addi	x0,x0,0	  x0:0x00000000
       13445000	      1343	800024b0	00000013	addi	x0,x0,0	  x0:0x00000000
       13455000	      1344	800024b4	ffdff36f	jal	x6,800024b4	  x6=0x800024b4
       13465000	      1345	00000000	00000013	addi	x0,x0,0	  x0:0x00000000
       13475000	      1346	800024ac	00000013	addi	x0,x0,0	  x0:0x00000000
       13485000	      1347	800024b0	018000ef	jal	x1,800024b0	  x1=0x800024b0
       13495000	      1348	00000000	00000013	addi	x0,x0,0	  x0:0x00000000
       13505000	      1349	800024c4	00000013	addi	x0,x0,0	  x0:0x00000000
       13515000	      1350	800024c8	ffdff0ef	jal	x1,800024c8	  x1=0x800024c8
       13525000	      1351	00000000	00000013	addi	x0,x0,0	  x0:0x00000000
       13535000	      1352	800024c0	00000013	addi	x0,x0,0	  x0:0x00000000
       13545000	      1353	800024c4	fd5ff36f	jal	x6,800024c4	  x6=0x800024c4
       13555000	      1354	00000000	00000013	addi	x0,x0,0	  x0:0x00000000
       13565000	      1355	80002494	00000013	addi	x0,x0,0	  x0:0x00000000
       13575000	      1356	80002498	0200086f	jal	x16,80002498	 x16=0x80002498
       13585000	      1357	00000000	00000013	addi	x0,x0,0	  x0:0x00000000
       13595000	      1358	800024b4	00000013	addi	x0,x0,0	  x0:0x00000000
       13605000	      1359	800024b8	014000ef	jal	x1,800024b8	  x1=0x800024b8
       13615000	      1360	00000000	00000013	addi	x0,x0,0	  x0:0x00000000
       13625000	      1361	800024c8	00000013	addi	x0,x0,0	  x0:0x00000000
       13635000	      1362	800024cc	fe1ff0ef	jal	x1,800024cc	  x1=0x800024cc
       13645000	      1363	00000000	00000013	addi	x0,x0,0	  x0:0x00000000
       13655000	      1364	800024a8	00000013	addi	x0,x0,0	  x0:0x00000000
       13665000	      1365	800024ac	fe9ff16f	jal	x2,800024ac	  x2=0x800024ac
       13675000	      1366	00000000	00000013	addi	x0,x0,0	  x0:0x00000000
       13685000	      1367	80002490	00000013	addi	x0,x0,0	  x0:0x00000000
       13695000	      1368	80002494	03c0036f	jal	x6,80002494	  x6=0x80002494
       13705000	      1369	00000000	00000013	addi	x0,x0,0	  x0:0x00000000
       13715000	      1370	800024cc	00000013	addi	x0,x0,0	  x0:0x00000000
       13725000	      1371	800024d0	012f5613	srli	x12,x30,0x12	 x30:0x80002268 x12=0x00002000
       13735000	      1372	800024d4	048000ef	jal	x1,800024d4	  x1=0x800024d4
       13745000	      1373	00000000	00000013	addi	x0,x0,0	  x0:0x00000000
       13755000	      1374	80002518	00000013	addi	x0,x0,0	  x0:0x00000000
       13765000	      1375	8000251c	fc1ff36f	jal	x6,8000251c	  x6=0x8000251c
       13775000	      1376	00000000	00000013	addi	x0,x0,0	  x0:0x00000000
       13785000	      1377	800024d8	00000013	addi	x0,x0,0	  x0:0x00000000
       13795000	      1378	800024dc	0080036f	jal	x6,800024dc	  x6=0x800024dc
       13805000	      1379	00000000	00000013	addi	x0,x0,0	  x0:0x00000000
       13815000	      1380	800024e0	00000013	addi	x0,x0,0	  x0:0x00000000
       13825000	      1381	800024e4	030000ef	jal	x1,800024e4	  x1=0x800024e4
       13835000	      1382	00000000	00000013	addi	x0,x0,0	  x0:0x00000000
       13845000	      1383	80002510	00000013	addi	x0,x0,0	  x0:0x00000000
       13855000	      1384	80002514	ffdff0ef	jal	x1,80002514	  x1=0x80002514
       13865000	      1385	00000000	00000013	addi	x0,x0,0	  x0:0x00000000
       13875000	      1386	8000250c	00000013	addi	x0,x0,0	  x0:0x00000000
       13885000	      1387	80002510	fc9ff36f	jal	x6,80002510	  x6=0x80002510
       13895000	      1388	00000000	00000013	addi	x0,x0,0	  x0:0x00000000
       13905000	      1389	800024d4	00000013	addi	x0,x0,0	  x0:0x00000000
       13915000	      1390	800024d8	0200016f	jal	x2,800024d8	  x2=0x800024d8
       13925000	      1391	00000000	00000013	addi	x0,x0,0	  x0:0x00000000
       13935000	      1392	800024f4	00000013	addi	x0,x0,0	  x0:0x00000000
       13945000	      1393	800024f8	014000ef	jal	x1,800024f8	  x1=0x800024f8
       13955000	      1394	00000000	00000013	addi	x0,x0,0	  x0:0x00000000
       13965000	      1395	80002508	00000013	addi	x0,x0,0	  x0:0x00000000
       13975000	      1396	8000250c	fddff0ef	jal	x1,8000250c	  x1=0x8000250c
       13985000	      1397	00000000	00000013	addi	x0,x0,0	  x0:0x00000000
       13995000	      1398	800024e4	00000013	addi	x0,x0,0	  x0:0x00000000
       14005000	      1399	800024e8	018000ef	jal	x1,800024e8	  x1=0x800024e8
       14015000	      1400	00000000	00000013	addi	x0,x0,0	  x0:0x00000000
       14025000	      1401	800024fc	00000013	addi	x0,x0,0	  x0:0x00000000
       14035000	      1402	80002500	ff5ff0ef	jal	x1,80002500	  x1=0x80002500
       14045000	      1403	00000000	00000013	addi	x0,x0,0	  x0:0x00000000
       14055000	      1404	800024f0	00000013	addi	x0,x0,0	  x0:0x00000000
       14065000	      1405	800024f4	ff9ff0ef	jal	x1,800024f4	  x1=0x800024f4
       14075000	      1406	00000000	00000013	addi	x0,x0,0	  x0:0x00000000
       14085000	      1407	800024e8	00000013	addi	x0,x0,0	  x0:0x00000000
       14095000	      1408	800024ec	01800def	jal	x27,800024ec	 x27=0x800024ec
       14105000	      1409	00000000	00000013	addi	x0,x0,0	  x0:0x00000000
       14115000	      1410	80002500	00000013	addi	x0,x0,0	  x0:0x00000000
       14125000	      1411	80002504	00400bef	jal	x23,80002504	 x23=0x80002504
       14135000	      1412	00000000	00000013	addi	x0,x0,0	  x0:0x00000000
       14145000	      1413	80002504	00000013	addi	x0,x0,0	  x0:0x00000000
       14155000	      1414	80002508	fe9ff36f	jal	x6,80002508	  x6=0x80002508
       14165000	      1415	00000000	00000013	addi	x0,x0,0	  x0:0x00000000
       14175000	      1416	800024ec	00000013	addi	x0,x0,0	  x0:0x00000000
       14185000	      1417	800024f0	00c0036f	jal	x6,800024f0	  x6=0x800024f0
       14195000	      1418	00000000	00000013	addi	x0,x0,0	  x0:0x00000000
       14205000	      1419	800024f8	00000013	addi	x0,x0,0	  x0:0x00000000
       14215000	      1420	800024fc	01c006ef	jal	x13,800024fc	 x13=0x800024fc
       14225000	      1421	00000000	00000013	addi	x0,x0,0	  x0:0x00000000
       14235000	      1422	80002514	00000013	addi	x0,x0,0	  x0:0x00000000
       14245000	      1423	80002518	fc9ff76f	jal	x14,80002518	 x14=0x80002518
       14255000	      1424	00000000	00000013	addi	x0,x0,0	  x0:0x00000000
       14265000	      1425	800024dc	00000013	addi	x0,x0,0	  x0:0x00000000
       14275000	      1426	800024e0	0400086f	jal	x16,800024e0	 x16=0x800024e0
       14285000	      1427	00000000	00000013	addi	x0,x0,0	  x0:0x00000000
       14295000	      1428	8000251c	00000013	addi	x0,x0,0	  x0:0x00000000
       14305000	      1429	80002520	431ff193	andi	x3,x31,1073	 x31:0x80009fc4  x3=0x00000400
       14315000	      1430	80002524	048000ef	jal	x1,80002524	  x1=0x80002524
       14325000	      1431	00000000	00000013	addi	x0,x0,0	  x0:0x00000000
       14335000	      1432	80002568	00000013	addi	x0,x0,0	  x0:0x00000000
       14345000	      1433	8000256c	fbdff36f	jal	x6,8000256c	  x6=0x8000256c
       14355000	      1434	00000000	00000013	addi	x0,x0,0	  x0:0x00000000
       14365000	      1435	80002524	00000013	addi	x0,x0,0	  x0:0x00000000
       14375000	      1436	80002528	0340036f	jal	x6,80002528	  x6=0x80002528
       14385000	      1437	00000000	00000013	addi	x0,x0,0	  x0:0x00000000
       14395000	      1438	80002558	00000013	addi	x0,x0,0	  x0:0x00000000
       14405000	      1439	8000255c	fd5ff36f	jal	x6,8000255c	  x6=0x8000255c
       14415000	      1440	00000000	00000013	addi	x0,x0,0	  x0:0x00000000
       14425000	      1441	8000252c	00000013	addi	x0,x0,0	  x0:0x00000000
       14435000	      1442	80002530	04c0036f	jal	x6,80002530	  x6=0x80002530
       14445000	      1443	00000000	00000013	addi	x0,x0,0	  x0:0x00000000
       14455000	      1444	80002578	00000013	addi	x0,x0,0	  x0:0x00000000
       14465000	      1445	8000257c	ff9ff0ef	jal	x1,8000257c	  x1=0x8000257c
       14475000	      1446	00000000	00000013	addi	x0,x0,0	  x0:0x00000000
       14485000	      1447	80002570	00000013	addi	x0,x0,0	  x0:0x00000000
       14495000	      1448	80002574	00c0076f	jal	x14,80002574	 x14=0x80002574
       14505000	      1449	00000000	00000013	addi	x0,x0,0	  x0:0x00000000
       14515000	      1450	8000257c	00000013	addi	x0,x0,0	  x0:0x00000000
       14525000	      1451	80002580	fb5ff0ef	jal	x1,80002580	  x1=0x80002580
       14535000	      1452	00000000	00000013	addi	x0,x0,0	  x0:0x00000000
       14545000	      1453	80002530	00000013	addi	x0,x0,0	  x0:0x00000000
       14555000	      1454	80002534	0440026f	jal	x4,80002534	  x4=0x80002534
       14565000	      1455	00000000	00000013	addi	x0,x0,0	  x0:0x00000000
       14575000	      1456	80002574	00000013	addi	x0,x0,0	  x0:0x00000000
       14585000	      1457	80002578	fd9ffdef	jal	x27,80002578	 x27=0x80002578
       14595000	      1458	00000000	00000013	addi	x0,x0,0	  x0:0x00000000
       14605000	      1459	8000254c	00000013	addi	x0,x0,0	  x0:0x00000000
       14615000	      1460	80002550	fedff36f	jal	x6,80002550	  x6=0x80002550
       14625000	      1461	00000000	00000013	addi	x0,x0,0	  x0:0x00000000
       14635000	      1462	80002538	00000013	addi	x0,x0,0	  x0:0x00000000
       14645000	      1463	8000253c	008000ef	jal	x1,8000253c	  x1=0x8000253c
       14655000	      1464	00000000	00000013	addi	x0,x0,0	  x0:0x00000000
       14665000	      1465	80002540	00000013	addi	x0,x0,0	  x0:0x00000000
       14675000	      1466	80002544	010000ef	jal	x1,80002544	  x1=0x80002544
       14685000	      1467	00000000	00000013	addi	x0,x0,0	  x0:0x00000000
       14695000	      1468	80002550	00000013	addi	x0,x0,0	  x0:0x00000000
       14705000	      1469	80002554	ff5ff0ef	jal	x1,80002554	  x1=0x80002554
       14715000	      1470	00000000	00000013	addi	x0,x0,0	  x0:0x00000000
       14725000	      1471	80002544	00000013	addi	x0,x0,0	  x0:0x00000000
       14735000	      1472	80002548	020000ef	jal	x1,80002548	  x1=0x80002548
       14745000	      1473	00000000	00000013	addi	x0,x0,0	  x0:0x00000000
       14755000	      1474	80002564	00000013	addi	x0,x0,0	  x0:0x00000000
       14765000	      1475	80002568	fd1ffd6f	jal	x26,80002568	 x26=0x80002568
       14775000	      1476	00000000	00000013	addi	x0,x0,0	  x0:0x00000000
       14785000	      1477	80002534	00000013	addi	x0,x0,0	  x0:0x00000000
       14795000	      1478	80002538	028000ef	jal	x1,80002538	  x1=0x80002538
       14805000	      1479	00000000	00000013	addi	x0,x0,0	  x0:0x00000000
       14815000	      1480	8000255c	00000013	addi	x0,x0,0	  x0:0x00000000
       14825000	      1481	80002560	fcdff0ef	jal	x1,80002560	  x1=0x80002560
       14835000	      1482	00000000	00000013	addi	x0,x0,0	  x0:0x00000000
       14845000	      1483	80002528	00000013	addi	x0,x0,0	  x0:0x00000000
       14855000	      1484	8000252c	02c000ef	jal	x1,8000252c	  x1=0x8000252c
       14865000	      1485	00000000	00000013	addi	x0,x0,0	  x0:0x00000000
       14875000	      1486	80002554	00000013	addi	x0,x0,0	  x0:0x00000000
       14885000	      1487	80002558	fe9ff0ef	jal	x1,80002558	  x1=0x80002558
       14895000	      1488	00000000	00000013	addi	x0,x0,0	  x0:0x00000000
       14905000	      1489	8000253c	00000013	addi	x0,x0,0	  x0:0x00000000
       14915000	      1490	80002540	04c001ef	jal	x3,80002540	  x3=0x80002540
       14925000	      1491	00000000	00000013	addi	x0,x0,0	  x0:0x00000000
       14935000	      1492	80002588	00000013	addi	x0,x0,0	  x0:0x00000000
       14945000	      1493	8000258c	fc1ff0ef	jal	x1,8000258c	  x1=0x8000258c
       14955000	      1494	00000000	00000013	addi	x0,x0,0	  x0:0x00000000
       14965000	      1495	80002548	00000013	addi	x0,x0,0	  x0:0x00000000
       14975000	      1496	8000254c	03c003ef	jal	x7,8000254c	  x7=0x8000254c
       14985000	      1497	00000000	00000013	addi	x0,x0,0	  x0:0x00000000
       14995000	      1498	80002584	00000013	addi	x0,x0,0	  x0:0x00000000
       15005000	      1499	80002588	fe9ffbef	jal	x23,80002588	 x23=0x80002588
       15015000	      1500	00000000	00000013	addi	x0,x0,0	  x0:0x00000000
       15025000	      1501	8000256c	00000013	addi	x0,x0,0	  x0:0x00000000
       15035000	      1502	80002570	014000ef	jal	x1,80002570	  x1=0x80002570
       15045000	      1503	00000000	00000013	addi	x0,x0,0	  x0:0x00000000
       15055000	      1504	80002580	00000013	addi	x0,x0,0	  x0:0x00000000
       15065000	      1505	80002584	fe1ff0ef	jal	x1,80002584	  x1=0x80002584
       15075000	      1506	00000000	00000013	addi	x0,x0,0	  x0:0x00000000
       15085000	      1507	80002560	00000013	addi	x0,x0,0	  x0:0x00000000
       15095000	      1508	80002564	02c000ef	jal	x1,80002564	  x1=0x80002564
       15105000	      1509	00000000	00000013	addi	x0,x0,0	  x0:0x00000000
       15115000	      1510	8000258c	00000013	addi	x0,x0,0	  x0:0x00000000
       15125000	      1511	80002590	001afb33	and	x22,x21,x1	 x21:0x80009f44  x1:0x80002564 x22=0x80000544
       15135000	      1512	80002594	014000ef	jal	x1,80002594	  x1=0x80002594
       15145000	      1513	00000000	00000013	addi	x0,x0,0	  x0:0x00000000
       15155000	      1514	800025a4	00000013	addi	x0,x0,0	  x0:0x00000000
       15165000	      1515	800025a8	020000ef	jal	x1,800025a8	  x1=0x800025a8
       15175000	      1516	00000000	00000013	addi	x0,x0,0	  x0:0x00000000
       15185000	      1517	800025c4	00000013	addi	x0,x0,0	  x0:0x00000000
       15195000	      1518	800025c8	00800cef	jal	x25,800025c8	 x25=0x800025c8
       15205000	      1519	00000000	00000013	addi	x0,x0,0	  x0:0x00000000
       15215000	      1520	800025cc	00000013	addi	x0,x0,0	  x0:0x00000000
       15225000	      1521	800025d0	fd5ff0ef	jal	x1,800025d0	  x1=0x800025d0
       15235000	      1522	00000000	00000013	addi	x0,x0,0	  x0:0x00000000
       15245000	      1523	800025a0	00000013	addi	x0,x0,0	  x0:0x00000000
       15255000	      1524	800025a4	02000def	jal	x27,800025a4	 x27=0x800025a4
       15265000	      1525	00000000	00000013	addi	x0,x0,0	  x0:0x00000000
       15275000	      1526	800025c0	00000013	addi	x0,x0,0	  x0:0x00000000
       15285000	      1527	800025c4	ff1ff0ef	jal	x1,800025c4	  x1=0x800025c4
       15295000	      1528	00000000	00000013	addi	x0,x0,0	  x0:0x00000000
       15305000	      1529	800025b0	00000013	addi	x0,x0,0	  x0:0x00000000
       15315000	      1530	800025b4	0240056f	jal	x10,800025b4	 x10=0x800025b4
       15325000	      1531	00000000	00000013	addi	x0,x0,0	  x0:0x00000000
       15335000	      1532	800025d4	00000013	addi	x0,x0,0	  x0:0x00000000
       15345000	      1533	800025d8	014002ef	jal	x5,800025d8	  x5=0x800025d8
       15355000	      1534	00000000	00000013	addi	x0,x0,0	  x0:0x00000000
       15365000	      1535	800025e8	00000013	addi	x0,x0,0	  x0:0x00000000
       15375000	      1536	800025ec	0040036f	jal	x6,800025ec	  x6=0x800025ec
       15385000	      1537	00000000	00000013	addi	x0,x0,0	  x0:0x00000000
       15395000	      1538	800025ec	00000013	addi	x0,x0,0	  x0:0x00000000
       15405000	      1539	800025f0	ff9ff0ef	jal	x1,800025f0	  x1=0x800025f0
       15415000	      1540	00000000	00000013	addi	x0,x0,0	  x0:0x00000000
       15425000	      1541	800025e4	00000013	addi	x0,x0,0	  x0:0x00000000
       15435000	      1542	800025e8	fd9ff0ef	jal	x1,800025e8	  x1=0x800025e8
       15445000	      1543	00000000	00000013	addi	x0,x0,0	  x0:0x00000000
       15455000	      1544	800025bc	00000013	addi	x0,x0,0	  x0:0x00000000
       15465000	      1545	800025c0	ffdff0ef	jal	x1,800025c0	  x1=0x800025c0
       15475000	      1546	00000000	00000013	addi	x0,x0,0	  x0:0x00000000
       15485000	      1547	800025b8	00000013	addi	x0,x0,0	  x0:0x00000000
       15495000	      1548	800025bc	fe5ff0ef	jal	x1,800025bc	  x1=0x800025bc
       15505000	      1549	00000000	00000013	addi	x0,x0,0	  x0:0x00000000
       15515000	      1550	8000259c	00000013	addi	x0,x0,0	  x0:0x00000000
       15525000	      1551	800025a0	00c0046f	jal	x8,800025a0	  x8=0x800025a0
       15535000	      1552	00000000	00000013	addi	x0,x0,0	  x0:0x00000000
       15545000	      1553	800025a8	00000013	addi	x0,x0,0	  x0:0x00000000
       15555000	      1554	800025ac	030000ef	jal	x1,800025ac	  x1=0x800025ac
       15565000	      1555	00000000	00000013	addi	x0,x0,0	  x0:0x00000000
       15575000	      1556	800025d8	00000013	addi	x0,x0,0	  x0:0x00000000
       15585000	      1557	800025dc	00400def	jal	x27,800025dc	 x27=0x800025dc
       15595000	      1558	00000000	00000013	addi	x0,x0,0	  x0:0x00000000
       15605000	      1559	800025dc	00000013	addi	x0,x0,0	  x0:0x00000000
       15615000	      1560	800025e0	ff5ff0ef	jal	x1,800025e0	  x1=0x800025e0
       15625000	      1561	00000000	00000013	addi	x0,x0,0	  x0:0x00000000
       15635000	      1562	800025d0	00000013	addi	x0,x0,0	  x0:0x00000000
       15645000	      1563	800025d4	fddff0ef	jal	x1,800025d4	  x1=0x800025d4
       15655000	      1564	00000000	00000013	addi	x0,x0,0	  x0:0x00000000
       15665000	      1565	800025ac	00000013	addi	x0,x0,0	  x0:0x00000000
       15675000	      1566	800025b0	01c000ef	jal	x1,800025b0	  x1=0x800025b0
       15685000	      1567	00000000	00000013	addi	x0,x0,0	  x0:0x00000000
       15695000	      1568	800025c8	00000013	addi	x0,x0,0	  x0:0x00000000
       15705000	      1569	800025cc	fd1ff0ef	jal	x1,800025cc	  x1=0x800025cc
       15715000	      1570	00000000	00000013	addi	x0,x0,0	  x0:0x00000000
       15725000	      1571	80002598	00000013	addi	x0,x0,0	  x0:0x00000000
       15735000	      1572	8000259c	01c0036f	jal	x6,8000259c	  x6=0x8000259c
       15745000	      1573	00000000	00000013	addi	x0,x0,0	  x0:0x00000000
       15755000	      1574	800025b4	00000013	addi	x0,x0,0	  x0:0x00000000
       15765000	      1575	800025b8	03c000ef	jal	x1,800025b8	  x1=0x800025b8
       15775000	      1576	00000000	00000013	addi	x0,x0,0	  x0:0x00000000
       15785000	      1577	800025f0	00000013	addi	x0,x0,0	  x0:0x00000000
       15795000	      1578	800025f4	ff1ff0ef	jal	x1,800025f4	  x1=0x800025f4
       15805000	      1579	00000000	00000013	addi	x0,x0,0	  x0:0x00000000
       15815000	      1580	800025e0	00000013	addi	x0,x0,0	  x0:0x00000000
       15825000	      1581	800025e4	fb5ff0ef	jal	x1,800025e4	  x1=0x800025e4
       15835000	      1582	00000000	00000013	addi	x0,x0,0	  x0:0x00000000
       15845000	      1583	80002594	00000013	addi	x0,x0,0	  x0:0x00000000
       15855000	      1584	80002598	060009ef	jal	x19,80002598	 x19=0x80002598
       15865000	      1585	00000000	00000013	addi	x0,x0,0	  x0:0x00000000
       15875000	      1586	800025f4	00000013	addi	x0,x0,0	  x0:0x00000000
       15885000	      1587	800025f8	005f36b3	sltu	x13,x30,x5	 x30:0x80002268  x5:0x800025d8 x13=0x00000001
       15895000	      1588	800025fc	054000ef	jal	x1,800025fc	  x1=0x800025fc
       15905000	      1589	00000000	00000013	addi	x0,x0,0	  x0:0x00000000
       15915000	      1590	8000264c	00000013	addi	x0,x0,0	  x0:0x00000000
       15925000	      1591	80002650	fe5ff0ef	jal	x1,80002650	  x1=0x80002650
       15935000	      1592	00000000	00000013	addi	x0,x0,0	  x0:0x00000000
       15945000	      1593	80002630	00000013	addi	x0,x0,0	  x0:0x00000000
       15955000	      1594	80002634	01800c6f	jal	x24,80002634	 x24=0x80002634
       15965000	      1595	00000000	00000013	addi	x0,x0,0	  x0:0x00000000
       15975000	      1596	80002648	00000013	addi	x0,x0,0	  x0:0x00000000
       15985000	      1597	8000264c	fd1ff36f	jal	x6,8000264c	  x6=0x8000264c
       15995000	      1598	00000000	00000013	addi	x0,x0,0	  x0:0x00000000
       16005000	      1599	80002618	00000013	addi	x0,x0,0	  x0:0x00000000
       16015000	      1600	8000261c	038000ef	jal	x1,8000261c	  x1=0x8000261c
       16025000	      1601	00000000	00000013	addi	x0,x0,0	  x0:0x00000000
       16035000	      1602	80002650	00000013	addi	x0,x0,0	  x0:0x00000000
       16045000	      1603	80002654	fddffb6f	jal	x22,80002654	 x22=0x80002654
       16055000	      1604	00000000	00000013	addi	x0,x0,0	  x0:0x00000000
       16065000	      1605	8000262c	00000013	addi	x0,x0,0	  x0:0x00000000
       16075000	      1606	80002630	fe5ff0ef	jal	x1,80002630	  x1=0x80002630
       16085000	      1607	00000000	00000013	addi	x0,x0,0	  x0:0x00000000
       16095000	      1608	80002610	00000013	addi	x0,x0,0	  x0:0x00000000
       16105000	      1609	80002614	030000ef	jal	x1,80002614	  x1=0x80002614
       16115000	      1610	00000000	00000013	addi	x0,x0,0	  x0:0x00000000
       16125000	      1611	80002640	00000013	addi	x0,x0,0	  x0:0x00000000
       16135000	      1612	80002644	014000ef	jal	x1,80002644	  x1=0x80002644
       16145000	      1613	00000000	00000013	addi	x0,x0,0	  x0:0x00000000
       16155000	      1614	80002654	00000013	addi	x0,x0,0	  x0:0x00000000
       16165000	      1615	80002658	fb1ff4ef	jal	x9,80002658	  x9=0x80002658
       16175000	      1616	00000000	00000013	addi	x0,x0,0	  x0:0x00000000
       16185000	      1617	80002604	00000013	addi	x0,x0,0	  x0:0x00000000
       16195000	      1618	80002608	020000ef	jal	x1,80002608	  x1=0x80002608
       16205000	      1619	00000000	00000013	addi	x0,x0,0	  x0:0x00000000
       16215000	      1620	80002624	00000013	addi	x0,x0,0	  x0:0x00000000
       16225000	      1621	80002628	fe9ff36f	jal	x6,80002628	  x6=0x80002628
       16235000	      1622	00000000	00000013	addi	x0,x0,0	  x0:0x00000000
       16245000	      1623	8000260c	00000013	addi	x0,x0,0	  x0:0x00000000
       16255000	      1624	80002610	030000ef	jal	x1,80002610	  x1=0x80002610
       16265000	      1625	00000000	00000013	addi	x0,x0,0	  x0:0x00000000
       16275000	      1626	8000263c	00000013	addi	x0,x0,0	  x0:0x00000000
       16285000	      1627	80002640	024000ef	jal	x1,80002640	  x1=0x80002640
       16295000	      1628	00000000	00000013	addi	x0,x0,0	  x0:0x00000000
       16305000	      1629	80002660	00000013	addi	x0,x0,0	  x0:0x00000000
       16315000	      1630	80002664	fbdff0ef	jal	x1,80002664	  x1=0x80002664
       16325000	      1631	00000000	00000013	addi	x0,x0,0	  x0:0x00000000
       16335000	      1632	8000261c	00000013	addi	x0,x0,0	  x0:0x00000000
       16345000	      1633	80002620	ff9ff26f	jal	x4,80002620	  x4=0x80002620
       16355000	      1634	00000000	00000013	addi	x0,x0,0	  x0:0x00000000
       16365000	      1635	80002614	00000013	addi	x0,x0,0	  x0:0x00000000
       16375000	      1636	80002618	044002ef	jal	x5,80002618	  x5=0x80002618
       16385000	      1637	00000000	00000013	addi	x0,x0,0	  x0:0x00000000
       16395000	      1638	80002658	00000013	addi	x0,x0,0	  x0:0x00000000
       16405000	      1639	8000265c	fddff0ef	jal	x1,8000265c	  x1=0x8000265c
       16415000	      1640	00000000	00000013	addi	x0,x0,0	  x0:0x00000000
       16425000	      1641	80002634	00000013	addi	x0,x0,0	  x0:0x00000000
       16435000	      1642	80002638	030000ef	jal	x1,80002638	  x1=0x80002638
       16445000	      1643	00000000	00000013	addi	x0,x0,0	  x0:0x00000000
       16455000	      1644	80002664	00000013	addi	x0,x0,0	  x0:0x00000000
       16465000	      1645	80002668	fd5ff0ef	jal	x1,80002668	  x1=0x80002668
       16475000	      1646	00000000	00000013	addi	x0,x0,0	  x0:0x00000000
       16485000	      1647	80002638	00000013	addi	x0,x0,0	  x0:0x00000000
       16495000	      1648	8000263c	fd1ff26f	jal	x4,8000263c	  x4=0x8000263c
       16505000	      1649	00000000	00000013	addi	x0,x0,0	  x0:0x00000000
       16515000	      1650	80002608	00000013	addi	x0,x0,0	  x0:0x00000000
       16525000	      1651	8000260c	ff9ff0ef	jal	x1,8000260c	  x1=0x8000260c
       16535000	      1652	00000000	00000013	addi	x0,x0,0	  x0:0x00000000
       16545000	      1653	80002600	00000013	addi	x0,x0,0	  x0:0x00000000
       16555000	      1654	80002604	028001ef	jal	x3,80002604	  x3=0x80002604
       16565000	      1655	00000000	00000013	addi	x0,x0,0	  x0:0x00000000
       16575000	      1656	80002628	00000013	addi	x0,x0,0	  x0:0x00000000
       16585000	      1657	8000262c	01c002ef	jal	x5,8000262c	  x5=0x8000262c
       16595000	      1658	00000000	00000013	addi	x0,x0,0	  x0:0x00000000
       16605000	      1659	80002644	00000013	addi	x0,x0,0	  x0:0x00000000
       16615000	      1660	80002648	fb9ff36f	jal	x6,80002648	  x6=0x80002648
       16625000	      1661	00000000	00000013	addi	x0,x0,0	  x0:0x00000000
       16635000	      1662	800025fc	00000013	addi	x0,x0,0	  x0:0x00000000
       16645000	      1663	80002600	0600036f	jal	x6,80002600	  x6=0x80002600
       16655000	      1664	00000000	00000013	addi	x0,x0,0	  x0:0x00000000
       16665000	      1665	8000265c	00000013	addi	x0,x0,0	  x0:0x00000000
       16675000	      1666	80002660	fc5ff0ef	jal	x1,80002660	  x1=0x80002660
       16685000	      1667	00000000	00000013	addi	x0,x0,0	  x0:0x00000000
       16695000	      1668	80002620	00000013	addi	x0,x0,0	  x0:0x00000000
       16705000	      1669	80002624	048009ef	jal	x19,80002624	 x19=0x80002624
       16715000	      1670	00000000	00000013	addi	x0,x0,0	  x0:0x00000000
       16725000	      1671	80002668	00000013	addi	x0,x0,0	  x0:0x00000000
       16735000	      1672	8000266c	00c6c1b3	xor	x3,x13,x12	 x13:0x00000001 x12:0x00002000  x3=0x00002001
       16745000	      1673	80002670	004000ef	jal	x1,80002670	  x1=0x80002670
       16755000	      1674	00000000	00000013	addi	x0,x0,0	  x0:0x00000000
       16765000	      1675	80002670	00000013	addi	x0,x0,0	  x0:0x00000000
       16775000	      1676	80002674	0040066f	jal	x12,80002674	 x12=0x80002674
       16785000	      1677	00000000	00000013	addi	x0,x0,0	  x0:0x00000000
       16795000	      1678	80002674	00000013	addi	x0,x0,0	  x0:0x00000000
       16805000	      1679	80002678	0280016f	jal	x2,80002678	  x2=0x80002678
       16815000	      1680	00000000	00000013	addi	x0,x0,0	  x0:0x00000000
       16825000	      1681	8000269c	00000013	addi	x0,x0,0	  x0:0x00000000
       16835000	      1682	800026a0	fddff0ef	jal	x1,800026a0	  x1=0x800026a0
       16845000	      1683	00000000	00000013	addi	x0,x0,0	  x0:0x00000000
       16855000	      1684	80002678	00000013	addi	x0,x0,0	  x0:0x00000000
       16865000	      1685	8000267c	02c0036f	jal	x6,8000267c	  x6=0x8000267c
       16875000	      1686	00000000	00000013	addi	x0,x0,0	  x0:0x00000000
       16885000	      1687	800026a4	00000013	addi	x0,x0,0	  x0:0x00000000
       16895000	      1688	800026a8	00800eef	jal	x29,800026a8	 x29=0x800026a8
       16905000	      1689	00000000	00000013	addi	x0,x0,0	  x0:0x00000000
       16915000	      1690	800026ac	00000013	addi	x0,x0,0	  x0:0x00000000
       16925000	      1691	800026b0	fedff36f	jal	x6,800026b0	  x6=0x800026b0
       16935000	      1692	00000000	00000013	addi	x0,x0,0	  x0:0x00000000
       16945000	      1693	80002698	00000013	addi	x0,x0,0	  x0:0x00000000
       16955000	      1694	8000269c	020000ef	jal	x1,8000269c	  x1=0x8000269c
       16965000	      1695	00000000	00000013	addi	x0,x0,0	  x0:0x00000000
       16975000	      1696	800026b8	00000013	addi	x0,x0,0	  x0:0x00000000
       16985000	      1697	800026bc	00c0036f	jal	x6,800026bc	  x6=0x800026bc
       16995000	      1698	00000000	00000013	addi	x0,x0,0	  x0:0x00000000
       17005000	      1699	800026c4	00000013	addi	x0,x0,0	  x0:0x00000000
       17015000	      1700	800026c8	fc9ff36f	jal	x6,800026c8	  x6=0x800026c8
       17025000	      1701	00000000	00000013	addi	x0,x0,0	  x0:0x00000000
       17035000	      1702	8000268c	00000013	addi	x0,x0,0	  x0:0x00000000
       17045000	      1703	80002690	01c000ef	jal	x1,80002690	  x1=0x80002690
       17055000	      1704	00000000	00000013	addi	x0,x0,0	  x0:0x00000000
       17065000	      1705	800026a8	00000013	addi	x0,x0,0	  x0:0x00000000
       17075000	      1706	800026ac	fe1ff0ef	jal	x1,800026ac	  x1=0x800026ac
       17085000	      1707	00000000	00000013	addi	x0,x0,0	  x0:0x00000000
       17095000	      1708	80002688	00000013	addi	x0,x0,0	  x0:0x00000000
       17105000	      1709	8000268c	02800d6f	jal	x26,8000268c	 x26=0x8000268c
       17115000	      1710	00000000	00000013	addi	x0,x0,0	  x0:0x00000000
       17125000	      1711	800026b0	00000013	addi	x0,x0,0	  x0:0x00000000
       17135000	      1712	800026b4	fd1ff1ef	jal	x3,800026b4	  x3=0x800026b4
       17145000	      1713	00000000	00000013	addi	x0,x0,0	  x0:0x00000000
       17155000	      1714	80002680	00000013	addi	x0,x0,0	  x0:0x00000000
       17165000	      1715	80002684	048000ef	jal	x1,80002684	  x1=0x80002684
       17175000	      1716	00000000	00000013	addi	x0,x0,0	  x0:0x00000000
       17185000	      1717	800026c8	00000013	addi	x0,x0,0	  x0:0x00000000
       17195000	      1718	800026cc	008000ef	jal	x1,800026cc	  x1=0x800026cc
       17205000	      1719	00000000	00000013	addi	x0,x0,0	  x0:0x00000000
       17215000	      1720	800026d0	00000013	addi	x0,x0,0	  x0:0x00000000
       17225000	      1721	800026d4	ff1ff2ef	jal	x5,800026d4	  x5=0x800026d4
       17235000	      1722	00000000	00000013	addi	x0,x0,0	  x0:0x00000000
       17245000	      1723	800026c0	00000013	addi	x0,x0,0	  x0:0x00000000
       17255000	      1724	800026c4	0140036f	jal	x6,800026c4	  x6=0x800026c4
       17265000	      1725	00000000	00000013	addi	x0,x0,0	  x0:0x00000000
       17275000	      1726	800026d4	00000013	addi	x0,x0,0	  x0:0x00000000
       17285000	      1727	800026d8	fa9ff56f	jal	x10,800026d8	 x10=0x800026d8
       17295000	      1728	00000000	00000013	addi	x0,x0,0	  x0:0x00000000
       17305000	      1729	8000267c	00000013	addi	x0,x0,0	  x0:0x00000000
       17315000	      1730	80002680	0140036f	jal	x6,80002680	  x6=0x80002680
       17325000	      1731	00000000	00000013	addi	x0,x0,0	  x0:0x00000000
       17335000	      1732	80002690	00000013	addi	x0,x0,0	  x0:0x00000000
       17345000	      1733	80002694	024000ef	jal	x1,80002694	  x1=0x80002694
       17355000	      1734	00000000	00000013	addi	x0,x0,0	  x0:0x00000000
       17365000	      1735	800026b4	00000013	addi	x0,x0,0	  x0:0x00000000
       17375000	      1736	800026b8	fd1ff6ef	jal	x13,800026b8	 x13=0x800026b8
       17385000	      1737	00000000	00000013	addi	x0,x0,0	  x0:0x00000000
       17395000	      1738	80002684	00000013	addi	x0,x0,0	  x0:0x00000000
       17405000	      1739	80002688	0380036f	jal	x6,80002688	  x6=0x80002688
       17415000	      1740	00000000	00000013	addi	x0,x0,0	  x0:0x00000000
       17425000	      1741	800026bc	00000013	addi	x0,x0,0	  x0:0x00000000
       17435000	      1742	800026c0	010000ef	jal	x1,800026c0	  x1=0x800026c0
       17445000	      1743	00000000	00000013	addi	x0,x0,0	  x0:0x00000000
       17455000	      1744	800026cc	00000013	addi	x0,x0,0	  x0:0x00000000
       17465000	      1745	800026d0	fd5ff0ef	jal	x1,800026d0	  x1=0x800026d0
       17475000	      1746	00000000	00000013	addi	x0,x0,0	  x0:0x00000000
       17485000	      1747	800026a0	00000013	addi	x0,x0,0	  x0:0x00000000
       17495000	      1748	800026a4	ff5ff16f	jal	x2,800026a4	  x2=0x800026a4
       17505000	      1749	00000000	00000013	addi	x0,x0,0	  x0:0x00000000
       17515000	      1750	80002694	00000013	addi	x0,x0,0	  x0:0x00000000
       17525000	      1751	80002698	0440036f	jal	x6,80002698	  x6=0x80002698
       17535000	      1752	00000000	00000013	addi	x0,x0,0	  x0:0x00000000
       17545000	      1753	800026d8	00000013	addi	x0,x0,0	  x0:0x00000000
       17555000	      1754	800026dc	0000d493	srli	x9,x1,0x0	  x1:0x800026d0  x9=0x800026d0
       17565000	      1755	800026e0	038000ef	jal	x1,800026e0	  x1=0x800026e0
       17575000	      1756	00000000	00000013	addi	x0,x0,0	  x0:0x00000000
       17585000	      1757	80002714	00000013	addi	x0,x0,0	  x0:0x00000000
       17595000	      1758	80002718	fe1ff26f	jal	x4,80002718	  x4=0x80002718
       17605000	      1759	00000000	00000013	addi	x0,x0,0	  x0:0x00000000
       17615000	      1760	800026f4	00000013	addi	x0,x0,0	  x0:0x00000000
       17625000	      1761	800026f8	018000ef	jal	x1,800026f8	  x1=0x800026f8
       17635000	      1762	00000000	00000013	addi	x0,x0,0	  x0:0x00000000
       17645000	      1763	8000270c	00000013	addi	x0,x0,0	  x0:0x00000000
       17655000	      1764	80002710	00c000ef	jal	x1,80002710	  x1=0x80002710
       17665000	      1765	00000000	00000013	addi	x0,x0,0	  x0:0x00000000
       17675000	      1766	80002718	00000013	addi	x0,x0,0	  x0:0x00000000
       17685000	      1767	8000271c	00400def	jal	x27,8000271c	 x27=0x8000271c
       17695000	      1768	00000000	00000013	addi	x0,x0,0	  x0:0x00000000
       17705000	      1769	8000271c	00000013	addi	x0,x0,0	  x0:0x00000000
       17715000	      1770	80002720	fd1ff0ef	jal	x1,80002720	  x1=0x80002720
       17725000	      1771	00000000	00000013	addi	x0,x0,0	  x0:0x00000000
       17735000	      1772	800026ec	00000013	addi	x0,x0,0	  x0:0x00000000
       17745000	      1773	800026f0	03400e6f	jal	x28,800026f0	 x28=0x800026f0
       17755000	      1774	00000000	00000013	addi	x0,x0,0	  x0:0x00000000
       17765000	      1775	80002720	00000013	addi	x0,x0,0	  x0:0x00000000
       17775000	      1776	80002724	fddff0ef	jal	x1,80002724	  x1=0x80002724
       17785000	      1777	00000000	00000013	addi	x0,x0,0	  x0:0x00000000
       17795000	      1778	800026fc	00000013	addi	x0,x0,0	  x0:0x00000000
       17805000	      1779	80002700	ffdff0ef	jal	x1,80002700	  x1=0x80002700
       17815000	      1780	00000000	00000013	addi	x0,x0,0	  x0:0x00000000
       17825000	      1781	800026f8	00000013	addi	x0,x0,0	  x0:0x00000000
       17835000	      1782	800026fc	00c000ef	jal	x1,800026fc	  x1=0x800026fc
       17845000	      1783	00000000	00000013	addi	x0,x0,0	  x0:0x00000000
       17855000	      1784	80002704	00000013	addi	x0,x0,0	  x0:0x00000000
       17865000	      1785	80002708	00c000ef	jal	x1,80002708	  x1=0x80002708
       17875000	      1786	00000000	00000013	addi	x0,x0,0	  x0:0x00000000
       17885000	      1787	80002710	00000013	addi	x0,x0,0	  x0:0x00000000
       17895000	      1788	80002714	fe1ffb6f	jal	x22,80002714	 x22=0x80002714
       17905000	      1789	00000000	00000013	addi	x0,x0,0	  x0:0x00000000
       17915000	      1790	800026f0	00000013	addi	x0,x0,0	  x0:0x00000000
       17925000	      1791	800026f4	ff9ffa6f	jal	x20,800026f4	 x20=0x800026f4
       17935000	      1792	00000000	00000013	addi	x0,x0,0	  x0:0x00000000
       17945000	      1793	800026e8	00000013	addi	x0,x0,0	  x0:0x00000000
       17955000	      1794	800026ec	ff9ffdef	jal	x27,800026ec	 x27=0x800026ec
       17965000	      1795	00000000	00000013	addi	x0,x0,0	  x0:0x00000000
       17975000	      1796	800026e0	00000013	addi	x0,x0,0	  x0:0x00000000
       17985000	      1797	800026e4	02800a6f	jal	x20,800026e4	 x20=0x800026e4
       17995000	      1798	00000000	00000013	addi	x0,x0,0	  x0:0x00000000
       18005000	      1799	80002708	00000013	addi	x0,x0,0	  x0:0x00000000
       18015000	      1800	8000270c	ff9ff46f	jal	x8,8000270c	  x8=0x8000270c
       18025000	      1801	00000000	00000013	addi	x0,x0,0	  x0:0x00000000
       18035000	      1802	80002700	00000013	addi	x0,x0,0	  x0:0x00000000
       18045000	      1803	80002704	fe5ff6ef	jal	x13,80002704	 x13=0x80002704
       18055000	      1804	00000000	00000013	addi	x0,x0,0	  x0:0x00000000
       18065000	      1805	800026e4	00000013	addi	x0,x0,0	  x0:0x00000000
       18075000	      1806	800026e8	040000ef	jal	x1,800026e8	  x1=0x800026e8
       18085000	      1807	00000000	00000013	addi	x0,x0,0	  x0:0x00000000
       18095000	      1808	80002724	00000013	addi	x0,x0,0	  x0:0x00000000
       18105000	      1809	80002728	00a9a433	slt	x8,x19,x10	 x19:0x80002624 x10:0x800026d8  x8=0x00000001
       18115000	      1810	8000272c	014000ef	jal	x1,8000272c	  x1=0x8000272c
       18125000	      1811	00000000	00000013	addi	x0,x0,0	  x0:0x00000000
       18135000	      1812	8000273c	00000013	addi	x0,x0,0	  x0:0x00000000
       18145000	      1813	80002740	00c0016f	jal	x2,80002740	  x2=0x80002740
       18155000	      1814	00000000	00000013	addi	x0,x0,0	  x0:0x00000000
       18165000	      1815	80002748	00000013	addi	x0,x0,0	  x0:0x00000000
       18175000	      1816	8000274c	0100036f	jal	x6,8000274c	  x6=0x8000274c
       18185000	      1817	00000000	00000013	addi	x0,x0,0	  x0:0x00000000
       18195000	      1818	80002758	00000013	addi	x0,x0,0	  x0:0x00000000
       18205000	      1819	8000275c	fd5ff26f	jal	x4,8000275c	  x4=0x8000275c
       18215000	      1820	00000000	00000013	addi	x0,x0,0	  x0:0x00000000
       18225000	      1821	8000272c	00000013	addi	x0,x0,0	  x0:0x00000000
       18235000	      1822	80002730	0300026f	jal	x4,80002730	  x4=0x80002730
       18245000	      1823	00000000	00000013	addi	x0,x0,0	  x0:0x00000000
       18255000	      1824	8000275c	00000013	addi	x0,x0,0	  x0:0x00000000
       18265000	      1825	80002760	fe5ff46f	jal	x8,80002760	  x8=0x80002760
       18275000	      1826	00000000	00000013	addi	x0,x0,0	  x0:0x00000000
       18285000	      1827	80002740	00000013	addi	x0,x0,0	  x0:0x00000000
       18295000	      1828	80002744	010000ef	jal	x1,80002744	  x1=0x80002744
       18305000	      1829	00000000	00000013	addi	x0,x0,0	  x0:0x00000000
       18315000	      1830	80002750	00000013	addi	x0,x0,0	  x0:0x00000000
       18325000	      1831	80002754	004000ef	jal	x1,80002754	  x1=0x80002754
       18335000	      1832	00000000	00000013	addi	x0,x0,0	  x0:0x00000000
       18345000	      1833	80002754	00000013	addi	x0,x0,0	  x0:0x00000000
       18355000	      1834	80002758	ff9ff8ef	jal	x17,80002758	 x17=0x80002758
       18365000	      1835	00000000	00000013	addi	x0,x0,0	  x0:0x00000000
       18375000	      1836	8000274c	00000013	addi	x0,x0,0	  x0:0x00000000
       18385000	      1837	80002750	fe5ff0ef	jal	x1,80002750	  x1=0x80002750
       18395000	      1838	00000000	00000013	addi	x0,x0,0	  x0:0x00000000
       18405000	      1839	80002730	00000013	addi	x0,x0,0	  x0:0x00000000
       18415000	      1840	80002734	014000ef	jal	x1,80002734	  x1=0x80002734
       18425000	      1841	00000000	00000013	addi	x0,x0,0	  x0:0x00000000
       18435000	      1842	80002744	00000013	addi	x0,x0,0	  x0:0x00000000
       18445000	      1843	80002748	ff5ff0ef	jal	x1,80002748	  x1=0x80002748
       18455000	      1844	00000000	00000013	addi	x0,x0,0	  x0:0x00000000
       18465000	      1845	80002738	00000013	addi	x0,x0,0	  x0:0x00000000
       18475000	      1846	8000273c	ffdff36f	jal	x6,8000273c	  x6=0x8000273c
       18485000	      1847	00000000	00000013	addi	x0,x0,0	  x0:0x00000000
       18495000	      1848	80002734	00000013	addi	x0,x0,0	  x0:0x00000000
       18505000	      1849	80002738	02c000ef	jal	x1,80002738	  x1=0x80002738
       18515000	      1850	00000000	00000013	addi	x0,x0,0	  x0:0x00000000
       18525000	      1851	80002760	00000013	addi	x0,x0,0	  x0:0x00000000
       18535000	      1852	80002764	99a512b7	lui	x5,0x99a51	  x5=0x99a51000
       18545000	      1853	80002768	0084c233	xor	x4,x9,x8	  x9:0x800026d0  x8:0x80002760  x4=0x000001b0
       18555000	      1854	8000276c	00621c63	bne	x4,x6,80002784	  x4:0x000001b0  x6:0x8000273c
       18565000	      1855	00000000	00000013	addi	x0,x0,0	  x0:0x00000000
       18575000	      1856	80002780	00000013	addi	x0,x0,0	  x0:0x00000000
       18585000	      1857	80002784	01f4bdb3	sltu	x27,x9,x31	  x9:0x800026d0 x31:0x80009fc4 x27=0x00000001
       18595000	      1858	80002788	03fe5063	bge	x28,x31,800027a8	 x28:0x800026f0 x31:0x80009fc4
       18605000	      1859	8000278c	03c7f263	bgeu	x15,x28,800027b0	 x15:0x800023c0 x28:0x800026f0
       18615000	      1860	80002790	0197d0b3	srl	x1,x15,x25	 x15:0x800023c0 x25:0x800025c8  x1=0x00800023
       18625000	      1861	80002794	0067d333	srl	x6,x15,x6	 x15:0x800023c0  x6:0x8000273c  x6=0x00000008
       18635000	      1862	80002798	00000013	addi	x0,x0,0	  x0:0x00000000
       18645000	      1863	8000279c	0179c0b3	xor	x1,x19,x23	 x19:0x80002624 x23:0x80002588  x1=0x000003ac
       18655000	      1864	800027a0	41750d33	sub	x26,x10,x23	 x10:0x800026d8 x23:0x80002588 x26=0x00000150
       18665000	      1865	800027a4	017e81b3	add	x3,x29,x23	 x29:0x800026a8 x23:0x80002588  x3=0x00004c30
       18675000	      1866	800027a8	65564b93	xori	x23,x12,1621	 x12:0x80002674 x23=0x80002021
       18685000	      1867	800027ac	01567263	bgeu	x12,x21,800027b0	 x12:0x80002674 x21:0x80009f44
       18695000	      1868	800027b0	01045533	srl	x10,x8,x16	  x8:0x80002760 x16:0x800024e0 x10=0x80002760
       18705000	      1869	800027b4	fa19ac13	slti	x24,x19,-95	 x19:0x80002624 x24=0x00000001
       18715000	      1870	800027b8	048a7663	bgeu	x20,x8,80002804	 x20:0x800026e4  x8:0x80002760
       18725000	      1871	800027bc	00000013	addi	x0,x0,0	  x0:0x00000000
       18735000	      1872	800027c0	f61cec13	ori	x24,x25,-159	 x25:0x800025c8 x24=0xffffffe9
       18745000	      1873	800027c4	0545e263	bltu	x11,x20,80002808	 x11:0x80000000 x20:0x800026e4
       18755000	      1874	00000000	00000013	addi	x0,x0,0	  x0:0x00000000
       18765000	      1875	80002804	00000013	addi	x0,x0,0	  x0:0x00000000
       18775000	      1876	80002808	61398613	addi	x12,x19,1555	 x19:0x80002624 x12=0x80002c37
       18785000	      1877	8000280c	ca0fbe93	sltiu	x29,x31,-864	 x31:0x80009fc4 x29=0x00000001
       18795000	      1878	80002810	4ca73b93	sltiu	x23,x14,1226	 x14:0x80002574 x23=0x00000000
       18805000	      1879	80002814	17a87093	andi	x1,x16,378	 x16:0x800024e0  x1=0x00000060
       18815000	      1880	80002818	01a5c263	blt	x11,x26,8000281c	 x11:0x80000000 x26:0x00000150
       18825000	      1881	00000000	00000013	addi	x0,x0,0	  x0:0x00000000
       18835000	      1882	80002818	00000013	addi	x0,x0,0	  x0:0x00000000
       18845000	      1883	8000281c	03936063	bltu	x6,x25,8000283c	  x6:0x00000008 x25:0x800025c8
       18855000	      1884	00000000	00000013	addi	x0,x0,0	  x0:0x00000000
       18865000	      1885	80002838	00000013	addi	x0,x0,0	  x0:0x00000000
       18875000	      1886	8000283c	00000013	addi	x0,x0,0	  x0:0x00000000
       18885000	      1887	80002840	0182bcb3	sltu	x25,x5,x24	  x5:0x99a51000 x24:0xffffffe9 x25=0x00000001
       18895000	      1888	80002844	03dd9e63	bne	x27,x29,80002880	 x27:0x00000001 x29:0x00000001
       18905000	      1889	80002848	795cb993	sltiu	x19,x25,1941	 x25:0x00000001 x19=0x00000001
       18915000	      1890	8000284c	01e1e233	or	x4,x3,x30	  x3:0x00004c30 x30:0x80002268  x4=0x80006e78
       18925000	      1891	80002850	39cd7d13	andi	x26,x26,924	 x26:0x00000150 x26=0x00000110
       18935000	      1892	80002854	019f5c13	srli	x24,x30,0x19	 x30:0x80002268 x24=0x00000040
       18945000	      1893	80002858	01b57e63	bgeu	x10,x27,80002874	 x10:0x80002760 x27:0x00000001
       18955000	      1894	00000000	00000013	addi	x0,x0,0	  x0:0x00000000
       18965000	      1895	80002870	00000013	addi	x0,x0,0	  x0:0x00000000
       18975000	      1896	80002874	41ba5bb3	sra	x23,x20,x27	 x20:0x800026e4 x27:0x00000001 x23=0xc0001372
       18985000	      1897	80002878	0187ccb3	xor	x25,x15,x24	 x15:0x800023c0 x24:0x00000040 x25=0x80002380
       18995000	      1898	8000287c	01f39263	bne	x7,x31,80002880	  x7:0x8000254c x31:0x80009fc4
       19005000	      1899	00000000	00000013	addi	x0,x0,0	  x0:0x00000000
       19015000	      1900	8000287c	00000013	addi	x0,x0,0	  x0:0x00000000
       19025000	      1901	80002880	003520b3	slt	x1,x10,x3	 x10:0x80002760  x3:0x00004c30  x1=0x00000001
       19035000	      1902	80002884	ea97a213	slti	x4,x15,-343	 x15:0x800023c0  x4=0x00000001
       19045000	      1903	80002888	0523d463	bge	x7,x18,800028d0	  x7:0x8000254c x18:0x800024a8
       19055000	      1904	00000000	00000013	addi	x0,x0,0	  x0:0x00000000
       19065000	      1905	800028cc	00000013	addi	x0,x0,0	  x0:0x00000000
       19075000	      1906	800028d0	02387463	bgeu	x16,x3,800028f8	 x16:0x800024e0  x3:0x00004c30
       19085000	      1907	00000000	00000013	addi	x0,x0,0	  x0:0x00000000
       19095000	      1908	800028f4	00000013	addi	x0,x0,0	  x0:0x00000000
       19105000	      1909	800028f8	41325eb3	sra	x29,x4,x19	  x4:0x00000001 x19:0x00000001 x29=0x00000000
       19115000	      1910	800028fc	41470c33	sub	x24,x14,x20	 x14:0x80002574 x20:0x800026e4 x24=0xfffffe90
       19125000	      1911	80002900	413907b3	sub	x15,x18,x19	 x18:0x800024a8 x19:0x00000001 x15=0x800024a7
       19135000	      1912	80002904	3232ce13	xori	x28,x5,803	  x5:0x99a51000 x28=0x99a51323
       19145000	      1913	80002908	014f1433	sll	x8,x30,x20	 x30:0x80002268 x20:0x800026e4  x8=0x00022680
       19155000	      1914	8000290c	41045893	srai	x17,x8,0x10	  x8:0x00022680 x17=0x00000002
       19165000	      1915	80002910	00000013	addi	x0,x0,0	  x0:0x00000000
       19175000	      1916	80002914	bf7c79b7	lui	x19,0xbf7c7	 x19=0xbf7c7000
       19185000	      1917	80002918	00fd94b3	sll	x9,x27,x15	 x27:0x00000001 x15:0x800024a7  x9=0x00000080
       19195000	      1918	8000291c	401f5693	srai	x13,x30,0x1	 x30:0x80002268 x13=0xc0001134
       19205000	      1919	80002920	05fb8263	beq	x23,x31,80002964	 x23:0xc0001372 x31:0x80009fc4
       19215000	      1920	80002924	bcf1c813	xori	x16,x3,-1073	  x3:0x00004c30 x16=0xffffb7ff
       19225000	      1921	80002928	01781a13	slli	x20,x16,0x17	 x16:0xffffb7ff x20=0xff800000
       19235000	      1922	8000292c	01229093	slli	x1,x5,0x12	  x5:0x99a51000  x1=0x40000000
       19245000	      1923	80002930	40d85a13	srai	x20,x16,0xd	 x16:0xffffb7ff x20=0xfffffffd
       19255000	      1924	80002934	009af9b3	and	x19,x21,x9	 x21:0x80009f44  x9:0x00000080 x19=0x00000000
       19265000	      1925	80002938	01f15c93	srli	x25,x2,0x1f	  x2:0x80002740 x25=0x00000001
       19275000	      1926	8000293c	41c45393	srai	x7,x8,0x1c	  x8:0x00022680  x7=0x00000000
       19285000	      1927	80002940	00042133	slt	x2,x8,x0	  x8:0x00022680  x0:0x00000000  x2=0x00000000
       19295000	      1928	80002944	04840263	beq	x8,x8,80002988	  x8:0x00022680  x8:0x00022680
       19305000	      1929	00000000	00000013	addi	x0,x0,0	  x0:0x00000000
       19315000	      1930	80002984	00000013	addi	x0,x0,0	  x0:0x00000000
       19325000	      1931	80002988	f394a713	slti	x14,x9,-199	  x9:0x00000080 x14=0x00000000
       19335000	      1932	8000298c	02cd4e63	blt	x26,x12,800029c8	 x26:0x00000110 x12:0x80002c37
       19345000	      1933	80002990	028ce063	bltu	x25,x8,800029b0	 x25:0x00000001  x8:0x00022680
       19355000	      1934	00000000	00000013	addi	x0,x0,0	  x0:0x00000000
       19365000	      1935	800029ac	00000013	addi	x0,x0,0	  x0:0x00000000
       19375000	      1936	800029b0	00866733	or	x14,x12,x8	 x12:0x80002c37  x8:0x00022680 x14=0x80022eb7
       19385000	      1937	800029b4	4398ae93	slti	x29,x17,1081	 x17:0x00000002 x29=0x00000001
       19395000	      1938	800029b8	00d09f13	slli	x30,x1,0xd	  x1:0x40000000 x30=0x00000000
       19405000	      1939	800029bc	00ce4bb3	xor	x23,x28,x12	 x28:0x99a51323 x12:0x80002c37 x23=0x19a53f14
       19415000	      1940	800029c0	005bfb33	and	x22,x23,x5	 x23:0x19a53f14  x5:0x99a51000 x22=0x19a51000
       19425000	      1941	800029c4	0093a8b3	slt	x17,x7,x9	  x7:0x00000000  x9:0x00000080 x17=0x00000001
       19435000	      1942	800029c8	010e5293	srli	x5,x28,0x10	 x28:0x99a51323  x5=0x000099a5
       19445000	      1943	800029cc	02867863	bgeu	x12,x8,800029fc	 x12:0x80002c37  x8:0x00022680
       19455000	      1944	00000000	00000013	addi	x0,x0,0	  x0:0x00000000
       19465000	      1945	800029f8	00000013	addi	x0,x0,0	  x0:0x00000000
       19475000	      1946	800029fc	03c8d063	bge	x17,x28,80002a1c	 x17:0x00000001 x28:0x99a51323
       19485000	      1947	00000000	00000013	addi	x0,x0,0	  x0:0x00000000
       19495000	      1948	80002a18	00000013	addi	x0,x0,0	  x0:0x00000000
       19505000	      1949	80002a1c	e705a113	slti	x2,x11,-400	 x11:0x80000000  x2=0x00000001
       19515000	      1950	80002a20	5149f093	andi	x1,x19,1300	 x19:0x00000000  x1=0x00000000
       19525000	      1951	80002a24	00cdde93	srli	x29,x27,0xc	 x27:0x00000001 x29=0x00000000
       19535000	      1952	80002a28	03da0263	beq	x20,x29,80002a4c	 x20:0xfffffffd x29:0x00000000
       19545000	      1953	80002a2c	00000013	addi	x0,x0,0	  x0:0x00000000
       19555000	      1954	80002a30	34bd0697	auipc	x13,0x34bd0	 x13=0xb4bd2a2c
       19565000	      1955	80002a34	40665333	sra	x6,x12,x6	 x12:0x80002c37  x6:0x00000008  x6=0xff80002c
       19575000	      1956	80002a38	4ea58693	addi	x13,x11,1258	 x11:0x80000000 x13=0x800004ea
       19585000	      1957	80002a3c	00429393	slli	x7,x5,0x4	  x5:0x000099a5  x7=0x00099a50
       19595000	      1958	80002a40	01515493	srli	x9,x2,0x15	  x2:0x00000001  x9=0x00000000
       19605000	      1959	80002a44	2d956913	ori	x18,x10,729	 x10:0x80002760 x18=0x800027f9
       19615000	      1960	80002a48	bce74493	xori	x9,x14,-1074	 x14:0x80022eb7  x9=0x7ffdd579
       19625000	      1961	80002a4c	957e3813	sltiu	x16,x28,-1705	 x28:0x99a51323 x16=0x00000001
       19635000	      1962	80002a50	01c8c833	xor	x16,x17,x28	 x17:0x00000001 x28:0x99a51323 x16=0x99a51322
       19645000	      1963	80002a54	011ef263	bgeu	x29,x17,80002a58	 x29:0x00000000 x17:0x00000001
       19655000	      1964	80002a58	00d3bbb3	sltu	x23,x7,x13	  x7:0x00099a50 x13:0x800004ea x23=0x00000001
       19665000	      1965	80002a5c	0131d6b3	srl	x13,x3,x19	  x3:0x00004c30 x19:0x00000000 x13=0x00004c30
       19675000	      1966	80002a60	00fbe463	bltu	x23,x15,80002a68	 x23:0x00000001 x15:0x800024a7
       19685000	      1967	00000000	00000013	addi	x0,x0,0	  x0:0x00000000
       19695000	      1968	80002a64	00000013	addi	x0,x0,0	  x0:0x00000000
       19705000	      1969	80002a68	65acde97	auipc	x29,0x65acd	 x29=0xe5acfa64
       19715000	      1970	80002a6c	0175dcb3	srl	x25,x11,x23	 x11:0x80000000 x23:0x00000001 x25=0x40000000
       19725000	      1971	80002a70	01f90b33	add	x22,x18,x31	 x18:0x800027f9 x31:0x80009fc4 x22=0x0000c7bd
       19735000	      1972	80002a74	6d276097	auipc	x1,0x6d276	  x1=0xed278a70
       19745000	      1973	80002a78	01831133	sll	x2,x6,x24	  x6:0xff80002c x24:0xfffffe90  x2=0x002c0000
       19755000	      1974	80002a7c	010ae1b3	or	x3,x21,x16	 x21:0x80009f44 x16:0x99a51322  x3=0x99a59f66
       19765000	      1975	80002a80	7ff90d93	addi	x27,x18,2047	 x18:0x800027f9 x27=0x80002ff8
       19775000	      1976	80002a84	45b46413	ori	x8,x8,1115	  x8:0x00022680  x8=0x000226db
       19785000	      1977	80002a88	00460a63	beq	x12,x4,80002a9c	 x12:0x80002c37  x4:0x00000001
       19795000	      1978	80002a8c	0b5d7c63	bgeu	x26,x21,80002b44	 x26:0x00000110 x21:0x80009f44
       19805000	      1979	80002a90	000eec63	bltu	x29,x0,80002aa8	 x29:0xe5acfa64  x0:0x00000000
       19815000	      1980	80002a94	00ea2433	slt	x8,x20,x14	 x20:0xfffffffd x14:0x80022eb7  x8=0x00000000
       19825000	      1981	80002a98	aed8c513	xori	x10,x17,-1299	 x17:0x00000001 x10=0xfffffaec
       19835000	      1982	80002a9c	fefb0197	auipc	x3,0xfefb0	  x3=0x7efb2a98
       19845000	      1983	80002aa0	412087b3	sub	x15,x1,x18	  x1:0xed278a70 x18:0x800027f9 x15=0x6d276277
       19855000	      1984	80002aa4	5ac04e13	xori	x28,x0,1452	  x0:0x00000000 x28=0x000005ac
       19865000	      1985	80002aa8	a0848293	addi	x5,x9,-1528	  x9:0x7ffdd579  x5=0x7ffdcf81
       19875000	      1986	80002aac	010c6263	bltu	x24,x16,80002ab0	 x24:0xfffffe90 x16:0x99a51322
       19885000	      1987	80002ab0	fcedca13	xori	x20,x27,-50	 x27:0x80002ff8 x20=0x7fffd036
       19895000	      1988	80002ab4	08786e63	bltu	x16,x7,80002b50	 x16:0x99a51322  x7:0x00099a50
       19905000	      1989	80002ab8	eb053837	lui	x16,0xeb053	 x16=0xeb053000
       19915000	      1990	80002abc	01a4a2b3	slt	x5,x9,x26	  x9:0x7ffdd579 x26:0x00000110  x5=0x00000000
       19925000	      1991	80002ac0	08cc4e63	blt	x24,x12,80002b5c	 x24:0xfffffe90 x12:0x80002c37
       19935000	      1992	80002ac4	930f0c93	addi	x25,x30,-1744	 x30:0x00000000 x25=0xfffff930
       19945000	      1993	80002ac8	4a610893	addi	x17,x2,1190	  x2:0x002c0000 x17=0x002c04a6
       19955000	      1994	80002acc	f8ae80b7	lui	x1,0xf8ae8	  x1=0xf8ae8000
       19965000	      1995	80002ad0	034000ef	jal	x1,80002ad0	  x1=0x80002ad0
       19975000	      1996	00000000	00000013	addi	x0,x0,0	  x0:0x00000000
       19985000	      1997	80002b00	00000013	addi	x0,x0,0	  x0:0x00000000
       19995000	      1998	80002b04	02c000ef	jal	x1,80002b04	  x1=0x80002b04
       20005000	      1999	00000000	00000013	addi	x0,x0,0	  x0:0x00000000
       20015000	      2000	80002b2c	00000013	addi	x0,x0,0	  x0:0x00000000
       20025000	      2001	80002b30	fe9ff0ef	jal	x1,80002b30	  x1=0x80002b30
       20035000	      2002	00000000	00000013	addi	x0,x0,0	  x0:0x00000000
       20045000	      2003	80002b14	00000013	addi	x0,x0,0	  x0:0x00000000
       20055000	      2004	80002b18	01c0036f	jal	x6,80002b18	  x6=0x80002b18
       20065000	      2005	00000000	00000013	addi	x0,x0,0	  x0:0x00000000
       20075000	      2006	80002b30	00000013	addi	x0,x0,0	  x0:0x00000000
       20085000	      2007	80002b34	fa1ff36f	jal	x6,80002b34	  x6=0x80002b34
       20095000	      2008	00000000	00000013	addi	x0,x0,0	  x0:0x00000000
       20105000	      2009	80002ad0	00000013	addi	x0,x0,0	  x0:0x00000000
       20115000	      2010	80002ad4	0100036f	jal	x6,80002ad4	  x6=0x80002ad4
       20125000	      2011	00000000	00000013	addi	x0,x0,0	  x0:0x00000000
       20135000	      2012	80002ae0	00000013	addi	x0,x0,0	  x0:0x00000000
       20145000	      2013	80002ae4	01c0086f	jal	x16,80002ae4	 x16=0x80002ae4
       20155000	      2014	00000000	00000013	addi	x0,x0,0	  x0:0x00000000
       20165000	      2015	80002afc	00000013	addi	x0,x0,0	  x0:0x00000000
       20175000	      2016	80002b00	010000ef	jal	x1,80002b00	  x1=0x80002b00
       20185000	      2017	00000000	00000013	addi	x0,x0,0	  x0:0x00000000
       20195000	      2018	80002b0c	00000013	addi	x0,x0,0	  x0:0x00000000
       20205000	      2019	80002b10	fe9ff36f	jal	x6,80002b10	  x6=0x80002b10
       20215000	      2020	00000000	00000013	addi	x0,x0,0	  x0:0x00000000
       20225000	      2021	80002af4	00000013	addi	x0,x0,0	  x0:0x00000000
       20235000	      2022	80002af8	0440036f	jal	x6,80002af8	  x6=0x80002af8
       20245000	      2023	00000000	00000013	addi	x0,x0,0	  x0:0x00000000
       20255000	      2024	80002b38	00000013	addi	x0,x0,0	  x0:0x00000000
       20265000	      2025	80002b3c	fadff26f	jal	x4,80002b3c	  x4=0x80002b3c
       20275000	      2026	00000000	00000013	addi	x0,x0,0	  x0:0x00000000
       20285000	      2027	80002ae4	00000013	addi	x0,x0,0	  x0:0x00000000
       20295000	      2028	80002ae8	0340016f	jal	x2,80002ae8	  x2=0x80002ae8
       20305000	      2029	00000000	00000013	addi	x0,x0,0	  x0:0x00000000
       20315000	      2030	80002b18	00000013	addi	x0,x0,0	  x0:0x00000000
       20325000	      2031	80002b1c	00c000ef	jal	x1,80002b1c	  x1=0x80002b1c
       20335000	      2032	00000000	00000013	addi	x0,x0,0	  x0:0x00000000
       20345000	      2033	80002b24	00000013	addi	x0,x0,0	  x0:0x00000000
       20355000	      2034	80002b28	fcdff36f	jal	x6,80002b28	  x6=0x80002b28
       20365000	      2035	00000000	00000013	addi	x0,x0,0	  x0:0x00000000
       20375000	      2036	80002af0	00000013	addi	x0,x0,0	  x0:0x00000000
       20385000	      2037	80002af4	014000ef	jal	x1,80002af4	  x1=0x80002af4
       20395000	      2038	00000000	00000013	addi	x0,x0,0	  x0:0x00000000
       20405000	      2039	80002b04	00000013	addi	x0,x0,0	  x0:0x00000000
       20415000	      2040	80002b08	0040036f	jal	x6,80002b08	  x6=0x80002b08
       20425000	      2041	00000000	00000013	addi	x0,x0,0	  x0:0x00000000
       20435000	      2042	80002b08	00000013	addi	x0,x0,0	  x0:0x00000000
       20445000	      2043	80002b0c	020000ef	jal	x1,80002b0c	  x1=0x80002b0c
       20455000	      2044	00000000	00000013	addi	x0,x0,0	  x0:0x00000000
       20465000	      2045	80002b28	00000013	addi	x0,x0,0	  x0:0x00000000
       20475000	      2046	80002b2c	fadff0ef	jal	x1,80002b2c	  x1=0x80002b2c
       20485000	      2047	00000000	00000013	addi	x0,x0,0	  x0:0x00000000
       20495000	      2048	80002ad4	00000013	addi	x0,x0,0	  x0:0x00000000
       20505000	      2049	80002ad8	014000ef	jal	x1,80002ad8	  x1=0x80002ad8
       20515000	      2050	00000000	00000013	addi	x0,x0,0	  x0:0x00000000
       20525000	      2051	80002ae8	00000013	addi	x0,x0,0	  x0:0x00000000
       20535000	      2052	80002aec	ff1ff0ef	jal	x1,80002aec	  x1=0x80002aec
       20545000	      2053	00000000	00000013	addi	x0,x0,0	  x0:0x00000000
       20555000	      2054	80002ad8	00000013	addi	x0,x0,0	  x0:0x00000000
       20565000	      2055	80002adc	048000ef	jal	x1,80002adc	  x1=0x80002adc
       20575000	      2056	00000000	00000013	addi	x0,x0,0	  x0:0x00000000
       20585000	      2057	80002b20	00000013	addi	x0,x0,0	  x0:0x00000000
       20595000	      2058	80002b24	fbdff0ef	jal	x1,80002b24	  x1=0x80002b24
       20605000	      2059	00000000	00000013	addi	x0,x0,0	  x0:0x00000000
       20615000	      2060	80002adc	00000013	addi	x0,x0,0	  x0:0x00000000
       20625000	      2061	80002ae0	010000ef	jal	x1,80002ae0	  x1=0x80002ae0
       20635000	      2062	00000000	00000013	addi	x0,x0,0	  x0:0x00000000
       20645000	      2063	80002aec	00000013	addi	x0,x0,0	  x0:0x00000000
       20655000	      2064	80002af0	0480036f	jal	x6,80002af0	  x6=0x80002af0
       20665000	      2065	00000000	00000013	addi	x0,x0,0	  x0:0x00000000
       20675000	      2066	80002b34	00000013	addi	x0,x0,0	  x0:0x00000000
       20685000	      2067	80002b38	fc5ff36f	jal	x6,80002b38	  x6=0x80002b38
       20695000	      2068	00000000	00000013	addi	x0,x0,0	  x0:0x00000000
       20705000	      2069	80002af8	00000013	addi	x0,x0,0	  x0:0x00000000
       20715000	      2070	80002afc	0180036f	jal	x6,80002afc	  x6=0x80002afc
       20725000	      2071	00000000	00000013	addi	x0,x0,0	  x0:0x00000000
       20735000	      2072	80002b10	00000013	addi	x0,x0,0	  x0:0x00000000
       20745000	      2073	80002b14	00c000ef	jal	x1,80002b14	  x1=0x80002b14
       20755000	      2074	00000000	00000013	addi	x0,x0,0	  x0:0x00000000
       20765000	      2075	80002b1c	00000013	addi	x0,x0,0	  x0:0x00000000
       20775000	      2076	80002b20	0200036f	jal	x6,80002b20	  x6=0x80002b20
       20785000	      2077	00000000	00000013	addi	x0,x0,0	  x0:0x00000000
       20795000	      2078	80002b3c	00000013	addi	x0,x0,0	  x0:0x00000000
       20805000	      2079	80002b40	004dac33	slt	x24,x27,x4	 x27:0x80002ff8  x4:0x80002b3c x24=0x00000000
       20815000	      2080	80002b44	96b7ad93	slti	x27,x15,-1685	 x15:0x6d276277 x27=0x00000000
       20825000	      2081	80002b48	0324d263	bge	x9,x18,80002b6c	  x9:0x7ffdd579 x18:0x800027f9
       20835000	      2082	00000000	00000013	addi	x0,x0,0	  x0:0x00000000
       20845000	      2083	80002b68	00000013	addi	x0,x0,0	  x0:0x00000000
       20855000	      2084	80002b6c	090bcc63	blt	x23,x16,80002c04	 x23:0x00000001 x16:0x80002ae4
       20865000	      2085	80002b70	41f8d493	srai	x9,x17,0x1f	 x17:0x002c04a6  x9=0x00000000
       20875000	      2086	80002b74	034000ef	jal	x1,80002b74	  x1=0x80002b74
       20885000	      2087	00000000	00000013	addi	x0,x0,0	  x0:0x00000000
       20895000	      2088	80002ba4	00000013	addi	x0,x0,0	  x0:0x00000000
       20905000	      2089	80002ba8	ff5ff0ef	jal	x1,80002ba8	  x1=0x80002ba8
       20915000	      2090	00000000	00000013	addi	x0,x0,0	  x0:0x00000000
       20925000	      2091	80002b98	00000013	addi	x0,x0,0	  x0:0x00000000
       20935000	      2092	80002b9c	02c000ef	jal	x1,80002b9c	  x1=0x80002b9c
       20945000	      2093	00000000	00000013	addi	x0,x0,0	  x0:0x00000000
       20955000	      2094	80002bc4	00000013	addi	x0,x0,0	  x0:0x00000000
       20965000	      2095	80002bc8	ff1ff6ef	jal	x13,80002bc8	 x13=0x80002bc8
       20975000	      2096	00000000	00000013	addi	x0,x0,0	  x0:0x00000000
       20985000	      2097	80002bb4	00000013	addi	x0,x0,0	  x0:0x00000000
       20995000	      2098	80002bb8	0080076f	jal	x14,80002bb8	 x14=0x80002bb8
       21005000	      2099	00000000	00000013	addi	x0,x0,0	  x0:0x00000000
       21015000	      2100	80002bbc	00000013	addi	x0,x0,0	  x0:0x00000000
       21025000	      2101	80002bc0	ff1ff0ef	jal	x1,80002bc0	  x1=0x80002bc0
       21035000	      2102	00000000	00000013	addi	x0,x0,0	  x0:0x00000000
       21045000	      2103	80002bac	00000013	addi	x0,x0,0	  x0:0x00000000
       21055000	      2104	80002bb0	fd1ff0ef	jal	x1,80002bb0	  x1=0x80002bb0
       21065000	      2105	00000000	00000013	addi	x0,x0,0	  x0:0x00000000
       21075000	      2106	80002b7c	00000013	addi	x0,x0,0	  x0:0x00000000
       21085000	      2107	80002b80	02c00e6f	jal	x28,80002b80	 x28=0x80002b80
       21095000	      2108	00000000	00000013	addi	x0,x0,0	  x0:0x00000000
       21105000	      2109	80002ba8	00000013	addi	x0,x0,0	  x0:0x00000000
       21115000	      2110	80002bac	fd1ff0ef	jal	x1,80002bac	  x1=0x80002bac
       21125000	      2111	00000000	00000013	addi	x0,x0,0	  x0:0x00000000
       21135000	      2112	80002b78	00000013	addi	x0,x0,0	  x0:0x00000000
       21145000	      2113	80002b7c	050000ef	jal	x1,80002b7c	  x1=0x80002b7c
       21155000	      2114	00000000	00000013	addi	x0,x0,0	  x0:0x00000000
       21165000	      2115	80002bc8	00000013	addi	x0,x0,0	  x0:0x00000000
       21175000	      2116	80002bcc	fd5ff36f	jal	x6,80002bcc	  x6=0x80002bcc
       21185000	      2117	00000000	00000013	addi	x0,x0,0	  x0:0x00000000
       21195000	      2118	80002b9c	00000013	addi	x0,x0,0	  x0:0x00000000
       21205000	      2119	80002ba0	024000ef	jal	x1,80002ba0	  x1=0x80002ba0
       21215000	      2120	00000000	00000013	addi	x0,x0,0	  x0:0x00000000
       21225000	      2121	80002bc0	00000013	addi	x0,x0,0	  x0:0x00000000
       21235000	      2122	80002bc4	fc9ffbef	jal	x23,80002bc4	 x23=0x80002bc4
       21245000	      2123	00000000	00000013	addi	x0,x0,0	  x0:0x00000000
       21255000	      2124	80002b88	00000013	addi	x0,x0,0	  x0:0x00000000
       21265000	      2125	80002b8c	00c0036f	jal	x6,80002b8c	  x6=0x80002b8c
       21275000	      2126	00000000	00000013	addi	x0,x0,0	  x0:0x00000000
       21285000	      2127	80002b94	00000013	addi	x0,x0,0	  x0:0x00000000
       21295000	      2128	80002b98	fe1ff0ef	jal	x1,80002b98	  x1=0x80002b98
       21305000	      2129	00000000	00000013	addi	x0,x0,0	  x0:0x00000000
       21315000	      2130	80002b74	00000013	addi	x0,x0,0	  x0:0x00000000
       21325000	      2131	80002b78	058000ef	jal	x1,80002b78	  x1=0x80002b78
       21335000	      2132	00000000	00000013	addi	x0,x0,0	  x0:0x00000000
       21345000	      2133	80002bcc	00000013	addi	x0,x0,0	  x0:0x00000000
       21355000	      2134	80002bd0	fc1ff26f	jal	x4,80002bd0	  x4=0x80002bd0
       21365000	      2135	00000000	00000013	addi	x0,x0,0	  x0:0x00000000
       21375000	      2136	80002b8c	00000013	addi	x0,x0,0	  x0:0x00000000
       21385000	      2137	80002b90	ff5ff0ef	jal	x1,80002b90	  x1=0x80002b90
       21395000	      2138	00000000	00000013	addi	x0,x0,0	  x0:0x00000000
       21405000	      2139	80002b80	00000013	addi	x0,x0,0	  x0:0x00000000
       21415000	      2140	80002b84	030000ef	jal	x1,80002b84	  x1=0x80002b84
       21425000	      2141	00000000	00000013	addi	x0,x0,0	  x0:0x00000000
       21435000	      2142	80002bb0	00000013	addi	x0,x0,0	  x0:0x00000000
       21445000	      2143	80002bb4	ff1ff3ef	jal	x7,80002bb4	  x7=0x80002bb4
       21455000	      2144	00000000	00000013	addi	x0,x0,0	  x0:0x00000000
       21465000	      2145	80002ba0	00000013	addi	x0,x0,0	  x0:0x00000000
       21475000	      2146	80002ba4	ff1ff36f	jal	x6,80002ba4	  x6=0x80002ba4
       21485000	      2147	00000000	00000013	addi	x0,x0,0	  x0:0x00000000
       21495000	      2148	80002b90	00000013	addi	x0,x0,0	  x0:0x00000000
       21505000	      2149	80002b94	028003ef	jal	x7,80002b94	  x7=0x80002b94
       21515000	      2150	00000000	00000013	addi	x0,x0,0	  x0:0x00000000
       21525000	      2151	80002bb8	00000013	addi	x0,x0,0	  x0:0x00000000
       21535000	      2152	80002bbc	01800f6f	jal	x30,80002bbc	 x30=0x80002bbc
       21545000	      2153	00000000	00000013	addi	x0,x0,0	  x0:0x00000000
       21555000	      2154	80002bd0	00000013	addi	x0,x0,0	  x0:0x00000000
       21565000	      2155	80002bd4	fb5ff0ef	jal	x1,80002bd4	  x1=0x80002bd4
       21575000	      2156	00000000	00000013	addi	x0,x0,0	  x0:0x00000000
       21585000	      2157	80002b84	00000013	addi	x0,x0,0	  x0:0x00000000
       21595000	      2158	80002b88	050000ef	jal	x1,80002b88	  x1=0x80002b88
       21605000	      2159	00000000	00000013	addi	x0,x0,0	  x0:0x00000000
       21615000	      2160	80002bd4	00000013	addi	x0,x0,0	  x0:0x00000000
       21625000	      2161	80002bd8	016888b3	add	x17,x17,x22	 x17:0x002c04a6 x22:0x0000c7bd x17=0x002ccc63
       21635000	      2162	80002bdc	017c6733	or	x14,x24,x23	 x24:0x00000000 x23:0x80002bc4 x14=0x80002bc4
       21645000	      2163	80002be0	94358f37	lui	x30,0x94358	 x30=0x94358000
       21655000	      2164	80002be4	00c343b3	xor	x7,x6,x12	  x6:0x80002ba4 x12:0x80002c37  x7=0x00000793
       21665000	      2165	80002be8	011e5c93	srli	x25,x28,0x11	 x28:0x80002b80 x25=0x00004000
       21675000	      2166	80002bec	8bbc3693	sltiu	x13,x24,-1861	 x24:0x00000000 x13=0x00000001
       21685000	      2167	80002bf0	0102d533	srl	x10,x5,x16	  x5:0x00000000 x16:0x80002ae4 x10=0x00000000
       21695000	      2168	80002bf4	040bc263	blt	x23,x0,80002c38	 x23:0x80002bc4  x0:0x00000000
       21705000	      2169	00000000	00000013	addi	x0,x0,0	  x0:0x00000000
       21715000	      2170	80002c34	00000013	addi	x0,x0,0	  x0:0x00000000
       21725000	      2171	80002c38	00325cb3	srl	x25,x4,x3	  x4:0x80002bd0  x3:0x7efb2a98 x25=0x00000080
       21735000	      2172	80002c3c	40e502b3	sub	x5,x10,x14	 x10:0x00000000 x14:0x80002bc4  x5=0x7fffd43c
       21745000	      2173	80002c40	00c0f833	and	x16,x1,x12	  x1:0x80002b88 x12:0x80002c37 x16=0x80002800
       21755000	      2174	80002c44	04d71263	bne	x14,x13,80002c88	 x14:0x80002bc4 x13:0x00000001
       21765000	      2175	00000000	00000013	addi	x0,x0,0	  x0:0x00000000
       21775000	      2176	80002c84	00000013	addi	x0,x0,0	  x0:0x00000000
       21785000	      2177	80002c88	01ff51b3	srl	x3,x30,x31	 x30:0x94358000 x31:0x80009fc4  x3=0x09435800
       21795000	      2178	80002c8c	283c0c93	addi	x25,x24,643	 x24:0x00000000 x25=0x00000283
       21805000	      2179	80002c90	80bc8c37	lui	x24,0x80bc8	 x24=0x80bc8000
       21815000	      2180	80002c94	ebd53c13	sltiu	x24,x10,-323	 x10:0x00000000 x24=0x00000001
       21825000	      2181	80002c98	01947b33	and	x22,x8,x25	  x8:0x00000000 x25:0x00000283 x22=0x00000000
       21835000	      2182	80002c9c	40d35d13	srai	x26,x6,0xd	  x6:0x80002ba4 x26=0xfffc0001
       21845000	      2183	80002ca0	04540cb7	lui	x25,0x4540	 x25=0x04540000
       21855000	      2184	80002ca4	00000013	addi	x0,x0,0	  x0:0x00000000
       21865000	      2185	80002ca8	02968863	beq	x13,x9,80002cd8	 x13:0x00000001  x9:0x00000000
       21875000	      2186	80002cac	0333c263	blt	x7,x19,80002cd0	  x7:0x00000793 x19:0x00000000
       21885000	      2187	80002cb0	01661d33	sll	x26,x12,x22	 x12:0x80002c37 x22:0x00000000 x26=0x80002c37
       21895000	      2188	80002cb4	00000013	addi	x0,x0,0	  x0:0x00000000
       21905000	      2189	80002cb8	00f7dd13	srli	x26,x15,0xf	 x15:0x6d276277 x26=0x0000da4e
       21915000	      2190	80002cbc	36594e93	xori	x29,x18,869	 x18:0x800027f9 x29=0x8000249c
       21925000	      2191	80002cc0	86a87793	andi	x15,x16,-1942	 x16:0x80002800 x15=0x80002800
       21935000	      2192	80002cc4	405c0933	sub	x18,x24,x5	 x24:0x00000001  x5:0x7fffd43c x18=0x80002bc5
       21945000	      2193	80002cc8	01a05cb3	srl	x25,x0,x26	  x0:0x00000000 x26:0x0000da4e x25=0x00000000
       21955000	      2194	80002ccc	9fed4493	xori	x9,x26,-1538	 x26:0x0000da4e  x9=0xffff23b0
       21965000	      2195	80002cd0	01065bb3	srl	x23,x12,x16	 x12:0x80002c37 x16:0x80002800 x23=0x80002c37
       21975000	      2196	80002cd4	fbb72013	slti	x0,x14,-69	 x14:0x80002bc4
       21985000	      2197	80002cd8	22206b93	ori	x23,x0,546	  x0:0x00000000 x23=0x00000222
       21995000	      2198	80002cdc	0088cc33	xor	x24,x17,x8	 x17:0x002ccc63  x8:0x00000000 x24=0x002ccc63
       22005000	      2199	80002ce0	d1ee0093	addi	x1,x28,-738	 x28:0x80002b80  x1=0x8000289e
       22015000	      2200	80002ce4	4082d6b3	sra	x13,x5,x8	  x5:0x7fffd43c  x8:0x00000000 x13=0x7fffd43c
       22025000	      2201	80002ce8	4039d893	srai	x17,x19,0x3	 x19:0x00000000 x17=0x00000000
       22035000	      2202	80002cec	01a74133	xor	x2,x14,x26	 x14:0x80002bc4 x26:0x0000da4e  x2=0x8000f18a
       22045000	      2203	80002cf0	37139197	auipc	x3,0x37139	  x3=0xb713bcec
       22055000	      2204	80002cf4	e0230613	addi	x12,x6,-510	  x6:0x80002ba4 x12=0x800029a6
       22065000	      2205	80002cf8	05458263	beq	x11,x20,80002d3c	 x11:0x80000000 x20:0x7fffd036
       22075000	      2206	80002cfc	03f6c463	blt	x13,x31,80002d24	 x13:0x7fffd43c x31:0x80009fc4
       22085000	      2207	80002d00	01d034b3	sltu	x9,x0,x29	  x0:0x00000000 x29:0x8000249c  x9=0x00000001
       22095000	      2208	80002d04	40d2dc93	srai	x25,x5,0xd	  x5:0x7fffd43c x25=0x0003fffe
       22105000	      2209	80002d08	0461c263	blt	x3,x6,80002d4c	  x3:0xb713bcec  x6:0x80002ba4
       22115000	      2210	80002d0c	bc544113	xori	x2,x8,-1083	  x8:0x00000000  x2=0xfffffbc5
       22125000	      2211	80002d10	02dc9063	bne	x25,x13,80002d30	 x25:0x0003fffe x13:0x7fffd43c
       22135000	      2212	00000000	00000013	addi	x0,x0,0	  x0:0x00000000
       22145000	      2213	80002d2c	00000013	addi	x0,x0,0	  x0:0x00000000
       22155000	      2214	80002d30	41f68733	sub	x14,x13,x31	 x13:0x7fffd43c x31:0x80009fc4 x14=0xffff3478
       22165000	      2215	80002d34	d5a82013	slti	x0,x16,-678	 x16:0x80002800
       22175000	      2216	80002d38	01fbe263	bltu	x23,x31,80002d3c	 x23:0x00000222 x31:0x80009fc4
       22185000	      2217	00000000	00000013	addi	x0,x0,0	  x0:0x00000000
       22195000	      2218	80002d38	00000013	addi	x0,x0,0	  x0:0x00000000
       22205000	      2219	80002d3c	022d5263	bge	x26,x2,80002d60	 x26:0x0000da4e  x2:0xfffffbc5
       22215000	      2220	00000000	00000013	addi	x0,x0,0	  x0:0x00000000
       22225000	      2221	80002d5c	00000013	addi	x0,x0,0	  x0:0x00000000
       22235000	      2222	80002d60	5e6d4c17	auipc	x24,0x5e6d4	 x24=0xde6d6d5c
       22245000	      2223	80002d64	79cc2e13	slti	x28,x24,1948	 x24:0xde6d6d5c x28=0x00000001
       22255000	      2224	80002d68	40b25633	sra	x12,x4,x11	  x4:0x80002bd0 x11:0x80000000 x12=0x80002bd0
       22265000	      2225	80002d6c	01f41193	slli	x3,x8,0x1f	  x8:0x00000000  x3=0x00000000
       22275000	      2226	80002d70	00a4d833	srl	x16,x9,x10	  x9:0x00000001 x10:0x00000000 x16=0x00000001
       22285000	      2227	80002d74	d9085097	auipc	x1,0xd9085	  x1=0x59087d70
       22295000	      2228	80002d78	05019663	bne	x3,x16,80002dc4	  x3:0x00000000 x16:0x00000001
       22305000	      2229	00000000	00000013	addi	x0,x0,0	  x0:0x00000000
       22315000	      2230	80002dc0	00000013	addi	x0,x0,0	  x0:0x00000000
       22325000	      2231	80002dc4	01480e63	beq	x16,x20,80002de0	 x16:0x00000001 x20:0x7fffd036
       22335000	      2232	80002dc8	00069a63	bne	x13,x0,80002ddc	 x13:0x7fffd43c  x0:0x00000000
       22345000	      2233	00000000	00000013	addi	x0,x0,0	  x0:0x00000000
       22355000	      2234	80002dd8	00000013	addi	x0,x0,0	  x0:0x00000000
       22365000	      2235	80002ddc	32912013	slti	x0,x2,809	  x2:0xfffffbc5
       22375000	      2236	80002de0	009e50b3	srl	x1,x28,x9	 x28:0x00000001  x9:0x00000001  x1=0x00000000
       22385000	      2237	80002de4	ac3c2013	slti	x0,x24,-1341	 x24:0xde6d6d5c
       22395000	      2238	80002de8	47c34313	xori	x6,x6,1148	  x6:0x80002ba4  x6=0x80002fd8
       22405000	      2239	80002dec	5ad2a393	slti	x7,x5,1453	  x5:0x7fffd43c  x7=0x00000000
       22415000	      2240	80002df0	018c6e63	bltu	x24,x24,80002e0c	 x24:0xde6d6d5c x24:0xde6d6d5c
       22425000	      2241	80002df4	019c5793	srli	x15,x24,0x19	 x24:0xde6d6d5c x15=0x0000006f
       22435000	      2242	80002df8	04b66463	bltu	x12,x11,80002e40	 x12:0x80002bd0 x11:0x80000000
       22445000	      2243	80002dfc	00000013	addi	x0,x0,0	  x0:0x00000000
       22455000	      2244	80002e00	1f446f13	ori	x30,x8,500	  x8:0x00000000 x30=0x000001f4
       22465000	      2245	80002e04	00fe6833	or	x16,x28,x15	 x28:0x00000001 x15:0x0000006f x16=0x0000006f
       22475000	      2246	80002e08	005c6633	or	x12,x24,x5	 x24:0xde6d6d5c  x5:0x7fffd43c x12=0xfffffd7c
       22485000	      2247	80002e0c	01282833	slt	x16,x16,x18	 x16:0x0000006f x18:0x80002bc5 x16=0x00000000
       22495000	      2248	80002e10	00c38333	add	x6,x7,x12	  x7:0x00000000 x12:0xfffffd7c  x6=0xfffffd7c
       22505000	      2249	80002e14	b1c45417	auipc	x8,0xb1c45	  x8=0x31c47e10
       22515000	      2250	80002e18	0046b233	sltu	x4,x13,x4	 x13:0x7fffd43c  x4:0x80002bd0  x4=0x00000001
       22525000	      2251	80002e1c	01f28c33	add	x24,x5,x31	  x5:0x7fffd43c x31:0x80009fc4 x24=0x00007400
       22535000	      2252	80002e20	01fb7663	bgeu	x22,x31,80002e2c	 x22:0x00000000 x31:0x80009fc4
       22545000	      2253	80002e24	012506b3	add	x13,x10,x18	 x10:0x00000000 x18:0x80002bc5 x13=0x80002bc5
       22555000	      2254	80002e28	007c4c33	xor	x24,x24,x7	 x24:0x00007400  x7:0x00000000 x24=0x00007400
       22565000	      2255	80002e2c	4058d3b3	sra	x7,x17,x5	 x17:0x00000000  x5:0x7fffd43c  x7=0x00000000
       22575000	      2256	80002e30	4cbac0b7	lui	x1,0x4cbac	  x1=0x4cbac000
       22585000	      2257	80002e34	00c261b3	or	x3,x4,x12	  x4:0x00000001 x12:0xfffffd7c  x3=0xfffffd7d
       22595000	      2258	80002e38	ca212db7	lui	x27,0xca212	 x27=0xca212000
       22605000	      2259	80002e3c	e6c14793	xori	x15,x2,-404	  x2:0xfffffbc5 x15=0x000005a9
       22615000	      2260	80002e40	0050b833	sltu	x16,x1,x5	  x1:0x4cbac000  x5:0x7fffd43c x16=0x00000001
       22625000	      2261	80002e44	00befa63	bgeu	x29,x11,80002e58	 x29:0x8000249c x11:0x80000000
       22635000	      2262	00000000	00000013	addi	x0,x0,0	  x0:0x00000000
       22645000	      2263	80002e54	00000013	addi	x0,x0,0	  x0:0x00000000
       22655000	      2264	80002e58	e25a7013	andi	x0,x20,-475	 x20:0x7fffd036
       22665000	      2265	80002e5c	003ddb13	srli	x22,x27,0x3	 x27:0xca212000 x22=0x19442400
       22675000	      2266	80002e60	ddebd237	lui	x4,0xddebd	  x4=0xddebd000
       22685000	      2267	80002e64	c460e713	ori	x14,x1,-954	  x1:0x4cbac000 x14=0xfffffc46
       22695000	      2268	80002e68	006d0663	beq	x26,x6,80002e74	 x26:0x0000da4e  x6:0xfffffd7c
       22705000	      2269	80002e6c	03d76463	bltu	x14,x29,80002e94	 x14:0xfffffc46 x29:0x8000249c
       22715000	      2270	80002e70	1db12713	slti	x14,x2,475	  x2:0xfffffbc5 x14=0x00000001
       22725000	      2271	80002e74	01826833	or	x16,x4,x24	  x4:0xddebd000 x24:0x00007400 x16=0xddebf400
       22735000	      2272	80002e78	0176f263	bgeu	x13,x23,80002e7c	 x13:0x80002bc5 x23:0x00000222
       22745000	      2273	00000000	00000013	addi	x0,x0,0	  x0:0x00000000
       22755000	      2274	80002e78	00000013	addi	x0,x0,0	  x0:0x00000000
       22765000	      2275	80002e7c	a85c0893	addi	x17,x24,-1403	 x24:0x00007400 x17=0x00006e85
       22775000	      2276	80002e80	01b207b3	add	x15,x4,x27	  x4:0xddebd000 x27:0xca212000 x15=0xa80cf000
       22785000	      2277	80002e84	d4d63913	sltiu	x18,x12,-691	 x12:0xfffffd7c x18=0x00000000
       22795000	      2278	80002e88	b425a297	auipc	x5,0xb425a	  x5=0x3425ce84
       22805000	      2279	80002e8c	00fe2533	slt	x10,x28,x15	 x28:0x00000001 x15:0xa80cf000 x10=0x00000000
       22815000	      2280	80002e90	01489d13	slli	x26,x17,0x14	 x17:0x00006e85 x26=0xe8500000
       22825000	      2281	80002e94	02e51063	bne	x10,x14,80002eb4	 x10:0x00000000 x14:0x00000001
       22835000	      2282	00000000	00000013	addi	x0,x0,0	  x0:0x00000000
       22845000	      2283	80002eb0	00000013	addi	x0,x0,0	  x0:0x00000000
       22855000	      2284	80002eb4	01734263	blt	x6,x23,80002eb8	  x6:0xfffffd7c x23:0x00000222
       22865000	      2285	00000000	00000013	addi	x0,x0,0	  x0:0x00000000
       22875000	      2286	80002eb4	00000013	addi	x0,x0,0	  x0:0x00000000
       22885000	      2287	80002eb8	404e86b3	sub	x13,x29,x4	 x29:0x8000249c  x4:0xddebd000 x13=0xa214549c
       22895000	      2288	80002ebc	00ce68b3	or	x17,x28,x12	 x28:0x00000001 x12:0xfffffd7c x17=0xfffffd7d
       22905000	      2289	80002ec0	ffd9ec93	ori	x25,x19,-3	 x19:0x00000000 x25=0xfffffffd
       22915000	      2290	80002ec4	00361b13	slli	x22,x12,0x3	 x12:0xfffffd7c x22=0xffffebe0
       22925000	      2291	80002ec8	8502f613	andi	x12,x5,-1968	  x5:0x3425ce84 x12=0x3425c800
       22935000	      2292	80002ecc	4101dc33	sra	x24,x3,x16	  x3:0xfffffd7d x16:0xddebf400 x24=0xfffffd7d
       22945000	      2293	80002ed0	004a9f13	slli	x30,x21,0x4	 x21:0x80009f44 x30=0x0009f440
       22955000	      2294	80002ed4	402ed113	srai	x2,x29,0x2	 x29:0x8000249c  x2=0xe0000927
       22965000	      2295	80002ed8	ce6d6793	ori	x15,x26,-794	 x26:0xe8500000 x15=0xfffffce6
       22975000	      2296	80002edc	00e8fa33	and	x20,x17,x14	 x17:0xfffffd7d x14:0x00000001 x20=0x00000001
       22985000	      2297	80002ee0	0123f133	and	x2,x7,x18	  x7:0x00000000 x18:0x00000000  x2=0x00000000
       22995000	      2298	80002ee4	00c5f463	bgeu	x11,x12,80002eec	 x11:0x80000000 x12:0x3425c800
       23005000	      2299	00000000	00000013	addi	x0,x0,0	  x0:0x00000000
       23015000	      2300	80002ee8	00000013	addi	x0,x0,0	  x0:0x00000000
       23025000	      2301	80002eec	00c433b3	sltu	x7,x8,x12	  x8:0x31c47e10 x12:0x3425c800  x7=0x00000001
       23035000	      2302	80002ef0	011ad393	srli	x7,x21,0x11	 x21:0x80009f44  x7=0x00004000
       23045000	      2303	80002ef4	3542e993	ori	x19,x5,852	  x5:0x3425ce84 x19=0x3425cfd4
       23055000	      2304	80002ef8	034f7463	bgeu	x30,x20,80002f20	 x30:0x0009f440 x20:0x00000001
       23065000	      2305	00000000	00000013	addi	x0,x0,0	  x0:0x00000000
       23075000	      2306	80002f1c	00000013	addi	x0,x0,0	  x0:0x00000000
       23085000	      2307	80002f20	00000013	addi	x0,x0,0	  x0:0x00000000
       23095000	      2308	80002f24	0442c263	blt	x5,x4,80002f68	  x5:0x3425ce84  x4:0xddebd000
       23105000	      2309	80002f28	005ddb33	srl	x22,x27,x5	 x27:0xca212000  x5:0x3425ce84 x22=0x0ca21200
       23115000	      2310	80002f2c	ece57993	andi	x19,x10,-306	 x10:0x00000000 x19=0x00000000
       23125000	      2311	80002f30	b9917117	auipc	x2,0xb9917	  x2=0x39919f2c
       23135000	      2312	80002f34	911206b7	lui	x13,0x91120	 x13=0x91120000
       23145000	      2313	80002f38	3664a217	auipc	x4,0x3664a	  x4=0xb664cf34
       23155000	      2314	80002f3c	0185aa33	slt	x20,x11,x24	 x11:0x80000000 x24:0xfffffd7d x20=0x00000001
       23165000	      2315	80002f40	03830463	beq	x6,x24,80002f68	  x6:0xfffffd7c x24:0xfffffd7d
       23175000	      2316	80002f44	59297b93	andi	x23,x18,1426	 x18:0x00000000 x23=0x00000000
       23185000	      2317	80002f48	41925033	sra	x0,x4,x25	  x4:0xb664cf34 x25:0xfffffffd
       23195000	      2318	80002f4c	04316693	ori	x13,x2,67	  x2:0x39919f2c x13=0x39919f6f
       23205000	      2319	80002f50	00a4c2b3	xor	x5,x9,x10	  x9:0x00000001 x10:0x00000000  x5=0x00000001
       23215000	      2320	80002f54	00c5fc63	bgeu	x11,x12,80002f6c	 x11:0x80000000 x12:0x3425c800
       23225000	      2321	00000000	00000013	addi	x0,x0,0	  x0:0x00000000
       23235000	      2322	80002f68	00000013	addi	x0,x0,0	  x0:0x00000000
       23245000	      2323	80002f6c	01f30c33	add	x24,x6,x31	  x6:0xfffffd7c x31:0x80009fc4 x24=0x80009d40
       23255000	      2324	80002f70	09aadbb7	lui	x23,0x9aad	 x23=0x09aad000
       23265000	      2325	80002f74	000d9b13	slli	x22,x27,0x0	 x27:0xca212000 x22=0xca212000
       23275000	      2326	80002f78	00fdce63	blt	x27,x15,80002f94	 x27:0xca212000 x15:0xfffffce6
       23285000	      2327	00000000	00000013	addi	x0,x0,0	  x0:0x00000000
       23295000	      2328	80002f90	00000013	addi	x0,x0,0	  x0:0x00000000
       23305000	      2329	80002f94	008466b3	or	x13,x8,x8	  x8:0x31c47e10  x8:0x31c47e10 x13=0x31c47e10
       23315000	      2330	80002f98	00de3333	sltu	x6,x28,x13	 x28:0x00000001 x13:0x31c47e10  x6=0x00000001
       23325000	      2331	80002f9c	40155f33	sra	x30,x10,x1	 x10:0x00000000  x1:0x4cbac000 x30=0x00000000
       23335000	      2332	80002fa0	2f47eb13	ori	x22,x15,756	 x15:0xfffffce6 x22=0xfffffef6
       23345000	      2333	80002fa4	02c78863	beq	x15,x12,80002fd4	 x15:0xfffffce6 x12:0x3425c800
       23355000	      2334	80002fa8	06f43313	sltiu	x6,x8,111	  x8:0x31c47e10  x6=0x00000000
       23365000	      2335	80002fac	01dddd93	srli	x27,x27,0x1d	 x27:0xca212000 x27=0x00000006
       23375000	      2336	80002fb0	024a8e63	beq	x21,x4,80002fec	 x21:0x80009f44  x4:0xb664cf34
       23385000	      2337	80002fb4	1cc62497	auipc	x9,0x1cc62	  x9=0x9cc64fb0
       23395000	      2338	80002fb8	02dac263	blt	x21,x13,80002fdc	 x21:0x80009f44 x13:0x31c47e10
       23405000	      2339	00000000	00000013	addi	x0,x0,0	  x0:0x00000000
       23415000	      2340	80002fd8	00000013	addi	x0,x0,0	  x0:0x00000000
       23425000	      2341	80002fdc	34ac6217	auipc	x4,0x34ac6	  x4=0xb4ac8fd8
       23435000	      2342	80002fe0	07c24d93	xori	x27,x4,124	  x4:0xb4ac8fd8 x27=0xb4ac8fa4
       23445000	      2343	80002fe4	0031a433	slt	x8,x3,x3	  x3:0xfffffd7d  x3:0xfffffd7d  x8=0x00000000
       23455000	      2344	80002fe8	b95a0813	addi	x16,x20,-1131	 x20:0x00000001 x16=0xfffffb96
       23465000	      2345	80002fec	002529b3	slt	x19,x10,x2	 x10:0x00000000  x2:0x39919f2c x19=0x00000001
       23475000	      2346	80002ff0	0051b4b3	sltu	x9,x3,x5	  x3:0xfffffd7d  x5:0x00000001  x9=0x00000000
       23485000	      2347	80002ff4	003c0a63	beq	x24,x3,80003008	 x24:0x80009d40  x3:0xfffffd7d
       23495000	      2348	80002ff8	01d3d533	srl	x10,x7,x29	  x7:0x00004000 x29:0x8000249c x10=0x00000000
       23505000	      2349	80002ffc	19ef8b13	addi	x22,x31,414	 x31:0x80009fc4 x22=0x8000a162
       23515000	      2350	80003000	0028a8b3	slt	x17,x17,x2	 x17:0xfffffd7d  x2:0x39919f2c x17=0x00000001
       23525000	      2351	80003004	010b97b3	sll	x15,x23,x16	 x23:0x09aad000 x16:0xfffffb96 x15=0x00000000
       23535000	      2352	80003008	017db133	sltu	x2,x27,x23	 x27:0xb4ac8fa4 x23:0x09aad000  x2=0x00000000
       23545000	      2353	8000300c	405a5913	srai	x18,x20,0x5	 x20:0x00000001 x18=0x00000000
       23555000	      2354	80003010	03b56663	bltu	x10,x27,8000303c	 x10:0x00000000 x27:0xb4ac8fa4
       23565000	      2355	00000000	00000013	addi	x0,x0,0	  x0:0x00000000
       23575000	      2356	80003038	00000013	addi	x0,x0,0	  x0:0x00000000
       23585000	      2357	8000303c	009764b3	or	x9,x14,x9	 x14:0x00000001  x9:0x00000000  x9=0x00000001
       23595000	      2358	80003040	01e9ba33	sltu	x20,x19,x30	 x19:0x00000001 x30:0x00000000 x20=0x00000000
       23605000	      2359	80003044	04281663	bne	x16,x2,80003090	 x16:0xfffffb96  x2:0x00000000
       23615000	      2360	00000000	00000013	addi	x0,x0,0	  x0:0x00000000
       23625000	      2361	8000308c	00000013	addi	x0,x0,0	  x0:0x00000000
       23635000	      2362	80003090	553af137	lui	x2,0x553af	  x2=0x553af000
       23645000	      2363	80003094	00505633	srl	x12,x0,x5	  x0:0x00000000  x5:0x00000001 x12=0x00000000
       23655000	      2364	80003098	01b08eb3	add	x29,x1,x27	  x1:0x4cbac000 x27:0xb4ac8fa4 x29=0x01674fa4
       23665000	      2365	8000309c	4f6f2a37	lui	x20,0x4f6f2	 x20=0x4f6f2000
       23675000	      2366	800030a0	017ea3b3	slt	x7,x29,x23	 x29:0x01674fa4 x23:0x09aad000  x7=0x00000001
       23685000	      2367	800030a4	40d28393	addi	x7,x5,1037	  x5:0x00000001  x7=0x0000040e
       23695000	      2368	800030a8	028a0063	beq	x20,x8,800030c8	 x20:0x4f6f2000  x8:0x00000000
       23705000	      2369	800030ac	8afd7613	andi	x12,x26,-1873	 x26:0xe8500000 x12=0xe8500000
       23715000	      2370	800030b0	00e3cdb3	xor	x27,x7,x14	  x7:0x0000040e x14:0x00000001 x27=0x0000040f
       23725000	      2371	800030b4	b5708d97	auipc	x27,0xb5708	 x27=0x3570b0b0
       23735000	      2372	800030b8	4009df33	sra	x30,x19,x0	 x19:0x00000001  x0:0x00000000 x30=0x00000001
       23745000	      2373	800030bc	00833933	sltu	x18,x6,x8	  x6:0x00000000  x8:0x00000000 x18=0x00000000
       23755000	      2374	800030c0	00754d33	xor	x26,x10,x7	 x10:0x00000000  x7:0x0000040e x26=0x0000040e
       23765000	      2375	800030c4	0322e863	bltu	x5,x18,800030f4	  x5:0x00000001 x18:0x00000000
       23775000	      2376	800030c8	01f68133	add	x2,x13,x31	 x13:0x31c47e10 x31:0x80009fc4  x2=0xb1c51dd4
       23785000	      2377	800030cc	404bdcb3	sra	x25,x23,x4	 x23:0x09aad000  x4:0xb4ac8fd8 x25=0x00000009
       23795000	      2378	800030d0	c581c917	auipc	x18,0xc581c	 x18=0x4581f0cc
       23805000	      2379	800030d4	16dfbc13	sltiu	x24,x31,365	 x31:0x80009fc4 x24=0x00000000
       23815000	      2380	800030d8	00000013	addi	x0,x0,0	  x0:0x00000000
       23825000	      2381	800030dc	4013d393	srai	x7,x7,0x1	  x7:0x0000040e  x7=0x00000207
       23835000	      2382	800030e0	01b61a13	slli	x20,x12,0x1b	 x12:0xe8500000 x20=0x00000000
       23845000	      2383	800030e4	70ea89b7	lui	x19,0x70ea8	 x19=0x70ea8000
       23855000	      2384	800030e8	0022da63	bge	x5,x2,800030fc	  x5:0x00000001  x2:0xb1c51dd4
       23865000	      2385	00000000	00000013	addi	x0,x0,0	  x0:0x00000000
       23875000	      2386	800030f8	00000013	addi	x0,x0,0	  x0:0x00000000
       23885000	      2387	800030fc	002f1a63	bne	x30,x2,80003110	 x30:0x00000001  x2:0xb1c51dd4
       23895000	      2388	00000000	00000013	addi	x0,x0,0	  x0:0x00000000
       23905000	      2389	8000310c	00000013	addi	x0,x0,0	  x0:0x00000000
       23915000	      2390	80003110	d9d7c413	xori	x8,x15,-611	 x15:0x00000000  x8=0xfffffd9d
       23925000	      2391	80003114	418cda33	sra	x20,x25,x24	 x25:0x00000009 x24:0x00000000 x20=0x00000009
       23935000	      2392	80003118	05084263	blt	x16,x16,8000315c	 x16:0xfffffb96 x16:0xfffffb96
       23945000	      2393	8000311c	02d6e263	bltu	x13,x13,80003140	 x13:0x31c47e10 x13:0x31c47e10
       23955000	      2394	80003120	06b8ab93	slti	x23,x17,107	 x17:0x00000001 x23=0x00000001
       23965000	      2395	80003124	07bac693	xori	x13,x21,123	 x21:0x80009f44 x13=0x80009f3f
       23975000	      2396	80003128	012e9993	slli	x19,x29,0x12	 x29:0x01674fa4 x19=0x3e900000
       23985000	      2397	8000312c	004dcd33	xor	x26,x27,x4	 x27:0x3570b0b0  x4:0xb4ac8fd8 x26=0x81dc3f68
       23995000	      2398	80003130	002287b3	add	x15,x5,x2	  x5:0x00000001  x2:0xb1c51dd4 x15=0xb1c51dd5
       24005000	      2399	80003134	1d843e13	sltiu	x28,x8,472	  x8:0xfffffd9d x28=0x00000000
       24015000	      2400	80003138	8f0c3613	sltiu	x12,x24,-1808	 x24:0x00000000 x12=0x00000001
       24025000	      2401	8000313c	013fa633	slt	x12,x31,x19	 x31:0x80009fc4 x19:0x3e900000 x12=0x00000001
       24035000	      2402	80003140	01aa1c93	slli	x25,x20,0x1a	 x20:0x00000009 x25=0x24000000
       24045000	      2403	80003144	0494c263	blt	x9,x9,80003188	  x9:0x00000001  x9:0x00000001
       24055000	      2404	80003148	062ee793	ori	x15,x29,98	 x29:0x01674fa4 x15=0x01674fe6
       24065000	      2405	8000314c	014b6cb3	or	x25,x22,x20	 x22:0x8000a162 x20:0x00000009 x25=0x8000a16b
       24075000	      2406	80003150	41550b33	sub	x22,x10,x21	 x10:0x00000000 x21:0x80009f44 x22=0x7fff60bc
       24085000	      2407	80003154	02cc9863	bne	x25,x12,80003184	 x25:0x8000a16b x12:0x00000001
       24095000	      2408	00000000	00000013	addi	x0,x0,0	  x0:0x00000000
       24105000	      2409	80003180	00000013	addi	x0,x0,0	  x0:0x00000000
       24115000	      2410	80003184	038cf263	bgeu	x25,x24,800031a8	 x25:0x8000a16b x24:0x00000000
       24125000	      2411	00000000	00000013	addi	x0,x0,0	  x0:0x00000000
       24135000	      2412	800031a4	00000013	addi	x0,x0,0	  x0:0x00000000
       24145000	      2413	800031a8	41b4d213	srai	x4,x9,0x1b	  x9:0x00000001  x4=0x00000000
       24155000	      2414	800031ac	0019da63	bge	x19,x1,800031c0	 x19:0x3e900000  x1:0x4cbac000
       24165000	      2415	800031b0	03014863	blt	x2,x16,800031e0	  x2:0xb1c51dd4 x16:0xfffffb96
       24175000	      2416	00000000	00000013	addi	x0,x0,0	  x0:0x00000000
       24185000	      2417	800031dc	00000013	addi	x0,x0,0	  x0:0x00000000
       24195000	      2418	800031e0	e4574993	xori	x19,x14,-443	 x14:0x00000001 x19=0xfffffe44
       24205000	      2419	800031e4	004fd093	srli	x1,x31,0x4	 x31:0x80009fc4  x1=0x080009fc
       24215000	      2420	800031e8	00341cb3	sll	x25,x8,x3	  x8:0xfffffd9d  x3:0xfffffd7d x25=0xa0000000
       24225000	      2421	800031ec	bd5f4793	xori	x15,x30,-1067	 x30:0x00000001 x15=0xfffffbd4
       24235000	      2422	800031f0	00000013	addi	x0,x0,0	  x0:0x00000000
       24245000	      2423	800031f4	00ea9993	slli	x19,x21,0xe	 x21:0x80009f44 x19=0x27d10000
       24255000	      2424	800031f8	01a38eb3	add	x29,x7,x26	  x7:0x00000207 x26:0x81dc3f68 x29=0x81dc416f
       24265000	      2425	800031fc	013739b3	sltu	x19,x14,x19	 x14:0x00000001 x19:0x27d10000 x19=0x00000001
       24275000	      2426	80003200	016ea2b3	slt	x5,x29,x22	 x29:0x81dc416f x22:0x7fff60bc  x5=0x00000001
       24285000	      2427	80003204	4103d493	srai	x9,x7,0x10	  x7:0x00000207  x9=0x00000000
       24295000	      2428	80003208	00a22233	slt	x4,x4,x10	  x4:0x00000000 x10:0x00000000  x4=0x00000000
       24305000	      2429	8000320c	00d4b0b3	sltu	x1,x9,x13	  x9:0x00000000 x13:0x80009f3f  x1=0x00000001
       24315000	      2430	80003210	58cbb213	sltiu	x4,x23,1420	 x23:0x00000001  x4=0x00000001
       24325000	      2431	80003214	015c1433	sll	x8,x24,x21	 x24:0x00000000 x21:0x80009f44  x8=0x00000000
       24335000	      2432	80003218	3edf3197	auipc	x3,0x3edf3	  x3=0xbedf6214
       24345000	      2433	8000321c	92a26e93	ori	x29,x4,-1750	  x4:0x00000001 x29=0xfffff92b
       24355000	      2434	80003220	007093b3	sll	x7,x1,x7	  x1:0x00000001  x7:0x00000207  x7=0x00000080
       24365000	      2435	80003224	59675297	auipc	x5,0x59675	  x5=0xd9678220
       24375000	      2436	80003228	6b5cc713	xori	x14,x25,1717	 x25:0xa0000000 x14=0xa00006b5
       24385000	      2437	8000322c	4250e693	ori	x13,x1,1061	  x1:0x00000001 x13=0x00000425
       24395000	      2438	80003230	0084c0b3	xor	x1,x9,x8	  x9:0x00000000  x8:0x00000000  x1=0x00000000
       24405000	      2439	80003234	00b1adb3	slt	x27,x3,x11	  x3:0xbedf6214 x11:0x80000000 x27=0x00000000
       24415000	      2440	80003238	0118de93	srli	x29,x17,0x11	 x17:0x00000001 x29=0x00000000
       24425000	      2441	8000323c	005f5493	srli	x9,x30,0x5	 x30:0x00000001  x9=0x00000000
       24435000	      2442	80003240	4178bd93	sltiu	x27,x17,1047	 x17:0x00000001 x27=0x00000001
       24445000	      2443	80003244	01759793	slli	x15,x11,0x17	 x11:0x80000000 x15=0x00000000
       24455000	      2444	80003248	e75ce793	ori	x15,x25,-395	 x25:0xa0000000 x15=0xfffffe75
       24465000	      2445	8000324c	54c24093	xori	x1,x4,1356	  x4:0x00000001  x1=0x0000054d
       24475000	      2446	80003250	4e633413	sltiu	x8,x6,1254	  x6:0x00000000  x8=0x00000001
       24485000	      2447	80003254	40570133	sub	x2,x14,x5	 x14:0xa00006b5  x5:0xd9678220  x2=0xc6988495
       24495000	      2448	80003258	0195d263	bge	x11,x25,8000325c	 x11:0x80000000 x25:0xa0000000
       24505000	      2449	8000325c	0987bd13	sltiu	x26,x15,152	 x15:0xfffffe75 x26=0x00000000
       24515000	      2450	80003260	03e3f263	bgeu	x7,x30,80003284	  x7:0x00000080 x30:0x00000001
       24525000	      2451	00000000	00000013	addi	x0,x0,0	  x0:0x00000000
       24535000	      2452	80003280	00000013	addi	x0,x0,0	  x0:0x00000000
       24545000	      2453	80003284	008b1833	sll	x16,x22,x8	 x22:0x7fff60bc  x8:0x00000001 x16=0xfffec178
       24555000	      2454	80003288	51941437	lui	x8,0x51941	  x8=0x51941000
       24565000	      2455	8000328c	007373b3	and	x7,x6,x7	  x6:0x00000000  x7:0x00000080  x7=0x00000000
       24575000	      2456	80003290	419a5b93	srai	x23,x20,0x19	 x20:0x00000009 x23=0x00000000
       24585000	      2457	80003294	03a27e63	bgeu	x4,x26,800032d0	  x4:0x00000001 x26:0x00000000
       24595000	      2458	00000000	00000013	addi	x0,x0,0	  x0:0x00000000
       24605000	      2459	800032cc	00000013	addi	x0,x0,0	  x0:0x00000000
       24615000	      2460	800032d0	01770c33	add	x24,x14,x23	 x14:0xa00006b5 x23:0x00000000 x24=0xa00006b5
       24625000	      2461	800032d4	5c937293	andi	x5,x6,1481	  x6:0x00000000  x5=0x00000000
       24635000	      2462	800032d8	415b8eb3	sub	x29,x23,x21	 x23:0x00000000 x21:0x80009f44 x29=0x7fff60bc
       24645000	      2463	800032dc	03ea8863	beq	x21,x30,8000330c	 x21:0x80009f44 x30:0x00000001
       24655000	      2464	800032e0	dce26b13	ori	x22,x4,-562	  x4:0x00000001 x22=0xfffffdcf
       24665000	      2465	800032e4	02a99063	bne	x19,x10,80003304	 x19:0x00000001 x10:0x00000000
       24675000	      2466	00000000	00000013	addi	x0,x0,0	  x0:0x00000000
       24685000	      2467	80003300	00000013	addi	x0,x0,0	  x0:0x00000000
       24695000	      2468	80003304	408ad233	sra	x4,x21,x8	 x21:0x80009f44  x8:0x51941000  x4=0x80009f44
       24705000	      2469	80003308	00000013	addi	x0,x0,0	  x0:0x00000000
       24715000	      2470	8000330c	0199fa63	bgeu	x19,x25,80003320	 x19:0x00000001 x25:0xa0000000
       24725000	      2471	80003310	54aabb93	sltiu	x23,x21,1354	 x21:0x80009f44 x23=0x00000000
       24735000	      2472	80003314	570d4e93	xori	x29,x26,1392	 x26:0x00000000 x29=0x00000570
       24745000	      2473	80003318	54eeb713	sltiu	x14,x29,1358	 x29:0x00000570 x14=0x00000000
       24755000	      2474	8000331c	00b09663	bne	x1,x11,80003328	  x1:0x0000054d x11:0x80000000
       24765000	      2475	00000000	00000013	addi	x0,x0,0	  x0:0x00000000
       24775000	      2476	80003324	00000013	addi	x0,x0,0	  x0:0x00000000
       24785000	      2477	80003328	41ec5093	srai	x1,x24,0x1e	 x24:0xa00006b5  x1=0xfffffffe
       24795000	      2478	8000332c	22d5a113	slti	x2,x11,557	 x11:0x80000000  x2=0x00000001
       24805000	      2479	80003330	410e5f13	srai	x30,x28,0x10	 x28:0x00000000 x30=0x00000000
       24815000	      2480	80003334	01720cb3	add	x25,x4,x23	  x4:0x80009f44 x23:0x00000000 x25=0x80009f44
       24825000	      2481	80003338	017036b3	sltu	x13,x0,x23	  x0:0x00000000 x23:0x00000000 x13=0x00000000
       24835000	      2482	8000333c	01ffce63	blt	x31,x31,80003358	 x31:0x80009fc4 x31:0x80009fc4
       24845000	      2483	80003340	017fd6b3	srl	x13,x31,x23	 x31:0x80009fc4 x23:0x00000000 x13=0x80009fc4
       24855000	      2484	80003344	3063ef13	ori	x30,x7,774	  x7:0x00000000 x30=0x00000306
       24865000	      2485	80003348	4bd4e813	ori	x16,x9,1213	  x9:0x00000000 x16=0x000004bd
       24875000	      2486	8000334c	f4577693	andi	x13,x14,-187	 x14:0x00000000 x13=0x00000000
       24885000	      2487	80003350	01eee0b3	or	x1,x29,x30	 x29:0x00000570 x30:0x00000306  x1=0x00000776
       24895000	      2488	80003354	40bdd133	sra	x2,x27,x11	 x27:0x00000001 x11:0x80000000  x2=0x00000001
       24905000	      2489	80003358	01f281b3	add	x3,x5,x31	  x5:0x00000000 x31:0x80009fc4  x3=0x80009fc4
       24915000	      2490	8000335c	0196d093	srli	x1,x13,0x19	 x13:0x00000000  x1=0x00000000
       24925000	      2491	80003360	00583d33	sltu	x26,x16,x5	 x16:0x000004bd  x5:0x00000000 x26=0x00000000
       24935000	      2492	80003364	00e05993	srli	x19,x0,0xe	  x0:0x00000000 x19=0x00000000
       24945000	      2493	80003368	00154cb3	xor	x25,x10,x1	 x10:0x00000000  x1:0x00000000 x25=0x00000000
       24955000	      2494	8000336c	40ef04b3	sub	x9,x30,x14	 x30:0x00000306 x14:0x00000000  x9=0x00000306
       24965000	      2495	80003370	12ed2c93	slti	x25,x26,302	 x26:0x00000000 x25=0x00000001
       24975000	      2496	80003374	006796b3	sll	x13,x15,x6	 x15:0xfffffe75  x6:0x00000000 x13=0xfffffe75
       24985000	      2497	80003378	00a37433	and	x8,x6,x10	  x6:0x00000000 x10:0x00000000  x8=0x00000000
       24995000	      2498	8000337c	7065ebb7	lui	x23,0x7065e	 x23=0x7065e000
       25005000	      2499	80003380	0343f063	bgeu	x7,x20,800033a0	  x7:0x00000000 x20:0x00000009
       25015000	      2500	80003384	01346c33	or	x24,x8,x19	  x8:0x00000000 x19:0x00000000 x24=0x00000000
       25025000	      2501	80003388	01080233	add	x4,x16,x16	 x16:0x000004bd x16:0x000004bd  x4=0x0000097a
       25035000	      2502	8000338c	00000013	addi	x0,x0,0	  x0:0x00000000
       25045000	      2503	80003390	bb2cad93	slti	x27,x25,-1102	 x25:0x00000001 x27=0x00000000
       25055000	      2504	80003394	00000013	addi	x0,x0,0	  x0:0x00000000
       25065000	      2505	80003398	ff9ea937	lui	x18,0xff9ea	 x18=0xff9ea000
       25075000	      2506	8000339c	03ab7263	bgeu	x22,x26,800033c0	 x22:0xfffffdcf x26:0x00000000
       25085000	      2507	00000000	00000013	addi	x0,x0,0	  x0:0x00000000
       25095000	      2508	800033bc	00000013	addi	x0,x0,0	  x0:0x00000000
       25105000	      2509	800033c0	412958b3	sra	x17,x18,x18	 x18:0xff9ea000 x18:0xff9ea000 x17=0xff9ea000
       25115000	      2510	800033c4	411bdc33	sra	x24,x23,x17	 x23:0x7065e000 x17:0xff9ea000 x24=0x7065e000
       25125000	      2511	800033c8	009a9833	sll	x16,x21,x9	 x21:0x80009f44  x9:0x00000306 x16=0x0027d100
       25135000	      2512	800033cc	01c47eb3	and	x29,x8,x28	  x8:0x00000000 x28:0x00000000 x29=0x00000000
       25145000	      2513	800033d0	00fc7a33	and	x20,x24,x15	 x24:0x7065e000 x15:0xfffffe75 x20=0x7065e000
       25155000	      2514	800033d4	40fd00b3	sub	x1,x26,x15	 x26:0x00000000 x15:0xfffffe75  x1=0x0000018b
       25165000	      2515	800033d8	00b89633	sll	x12,x17,x11	 x17:0xff9ea000 x11:0x80000000 x12=0xff9ea000
       25175000	      2516	800033dc	41320db3	sub	x27,x4,x19	  x4:0x0000097a x19:0x00000000 x27=0x0000097a
       25185000	      2517	800033e0	41c55c33	sra	x24,x10,x28	 x10:0x00000000 x28:0x00000000 x24=0x00000000
       25195000	      2518	800033e4	ab1f2f13	slti	x30,x30,-1359	 x30:0x00000306 x30=0x00000000
       25205000	      2519	800033e8	6e86f013	andi	x0,x13,1768	 x13:0xfffffe75
       25215000	      2520	800033ec	00000013	addi	x0,x0,0	  x0:0x00000000
       25225000	      2521	800033f0	e7576993	ori	x19,x14,-395	 x14:0x00000000 x19=0xfffffe75
       25235000	      2522	800033f4	0039bb13	sltiu	x22,x19,3	 x19:0xfffffe75 x22=0x00000000
       25245000	      2523	800033f8	41fbd1b3	sra	x3,x23,x31	 x23:0x7065e000 x31:0x80009fc4  x3=0x07065e00
       25255000	      2524	800033fc	01190463	beq	x18,x17,80003404	 x18:0xff9ea000 x17:0xff9ea000
       25265000	      2525	00000000	00000013	addi	x0,x0,0	  x0:0x00000000
       25275000	      2526	80003400	00000013	addi	x0,x0,0	  x0:0x00000000
       25285000	      2527	80003404	41118133	sub	x2,x3,x17	  x3:0x07065e00 x17:0xff9ea000  x2=0x0767be00
       25295000	      2528	80003408	00481913	slli	x18,x16,0x4	 x16:0x0027d100 x18=0x027d1000
       25305000	      2529	8000340c	059c9663	bne	x25,x25,80003458	 x25:0x00000001 x25:0x00000001
       25315000	      2530	80003410	0191da63	bge	x3,x25,80003424	  x3:0x07065e00 x25:0x00000001
       25325000	      2531	00000000	00000013	addi	x0,x0,0	  x0:0x00000000
       25335000	      2532	80003420	00000013	addi	x0,x0,0	  x0:0x00000000
       25345000	      2533	80003424	010d7cb3	and	x25,x26,x16	 x26:0x00000000 x16:0x0027d100 x25=0x00000000
       25355000	      2534	80003428	ff8bcb93	xori	x23,x23,-8	 x23:0x7065e000 x23=0x8f9a1ff8
       25365000	      2535	8000342c	00d627b3	slt	x15,x12,x13	 x12:0xff9ea000 x13:0xfffffe75 x15=0x00000001
       25375000	      2536	80003430	e1fe4393	xori	x7,x28,-481	 x28:0x00000000  x7=0xfffffe1f
       25385000	      2537	80003434	01235213	srli	x4,x6,0x12	  x6:0x00000000  x4=0x00000000
       25395000	      2538	80003438	01c5e533	or	x10,x11,x28	 x11:0x80000000 x28:0x00000000 x10=0x80000000
       25405000	      2539	8000343c	0370e863	bltu	x1,x23,8000346c	  x1:0x0000018b x23:0x8f9a1ff8
       25415000	      2540	00000000	00000013	addi	x0,x0,0	  x0:0x00000000
       25425000	      2541	80003468	00000013	addi	x0,x0,0	  x0:0x00000000
       25435000	      2542	8000346c	01a5b9b3	sltu	x19,x11,x26	 x11:0x80000000 x26:0x00000000 x19=0x00000000
       25445000	      2543	80003470	01b08e63	beq	x1,x27,8000348c	  x1:0x0000018b x27:0x0000097a
       25455000	      2544	80003474	003f80b3	add	x1,x31,x3	 x31:0x80009fc4  x3:0x07065e00  x1=0x8706fdc4
       25465000	      2545	80003478	4158d333	sra	x6,x17,x21	 x17:0xff9ea000 x21:0x80009f44  x6=0xfff9ea00
       25475000	      2546	8000347c	06438a13	addi	x20,x7,100	  x7:0xfffffe1f x20=0xfffffe83
       25485000	      2547	80003480	4132d813	srai	x16,x5,0x13	  x5:0x00000000 x16=0x00000000
       25495000	      2548	80003484	002c2733	slt	x14,x24,x2	 x24:0x00000000  x2:0x0767be00 x14=0x00000001
       25505000	      2549	80003488	04850263	beq	x10,x8,800034cc	 x10:0x80000000  x8:0x00000000
       25515000	      2550	8000348c	00fb9393	slli	x7,x23,0xf	 x23:0x8f9a1ff8  x7=0x0ffc0000
       25525000	      2551	80003490	0056de63	bge	x13,x5,800034ac	 x13:0xfffffe75  x5:0x00000000
       25535000	      2552	80003494	0109a033	slt	x0,x19,x16	 x19:0x00000000 x16:0x00000000
       25545000	      2553	80003498	01698333	add	x6,x19,x22	 x19:0x00000000 x22:0x00000000  x6=0x00000000
       25555000	      2554	8000349c	01191793	slli	x15,x18,0x11	 x18:0x027d1000 x15=0x20000000
       25565000	      2555	800034a0	d707ce93	xori	x29,x15,-656	 x15:0x20000000 x29=0xdffffd70
       25575000	      2556	800034a4	0159db13	srli	x22,x19,0x15	 x19:0x00000000 x22=0x00000000
       25585000	      2557	800034a8	008b3d33	sltu	x26,x22,x8	 x22:0x00000000  x8:0x00000000 x26=0x00000000
       25595000	      2558	800034ac	005a33b3	sltu	x7,x20,x5	 x20:0xfffffe83  x5:0x00000000  x7=0x00000000
       25605000	      2559	800034b0	98b4f693	andi	x13,x9,-1653	  x9:0x00000306 x13=0x00000102
       25615000	      2560	800034b4	86ccd217	auipc	x4,0x86ccd	  x4=0x06cd04b0
       25625000	      2561	800034b8	01fd52b3	srl	x5,x26,x31	 x26:0x00000000 x31:0x80009fc4  x5=0x00000000
       25635000	      2562	800034bc	03ef4863	blt	x30,x30,800034ec	 x30:0x00000000 x30:0x00000000
       25645000	      2563	800034c0	029e5063	bge	x28,x9,800034e0	 x28:0x00000000  x9:0x00000306
       25655000	      2564	800034c4	004deb33	or	x22,x27,x4	 x27:0x0000097a  x4:0x06cd04b0 x22=0x06cd0dfa
       25665000	      2565	800034c8	017488b3	add	x17,x9,x23	  x9:0x00000306 x23:0x8f9a1ff8 x17=0x8f9a22fe
       25675000	      2566	800034cc	28eeb113	sltiu	x2,x29,654	 x29:0xdffffd70  x2=0x00000000
       25685000	      2567	800034d0	00c8d413	srli	x8,x17,0xc	 x17:0x8f9a22fe  x8=0x0008f9a2
       25695000	      2568	800034d4	00000013	addi	x0,x0,0	  x0:0x00000000
       25705000	      2569	800034d8	012efbb3	and	x23,x29,x18	 x29:0xdffffd70 x18:0x027d1000 x23=0x027d1000
       25715000	      2570	800034dc	0162ca63	blt	x5,x22,800034f0	  x5:0x00000000 x22:0x06cd0dfa
       25725000	      2571	00000000	00000013	addi	x0,x0,0	  x0:0x00000000
       25735000	      2572	800034ec	00000013	addi	x0,x0,0	  x0:0x00000000
       25745000	      2573	800034f0	0150d663	bge	x1,x21,800034fc	  x1:0x8706fdc4 x21:0x80009f44
       25755000	      2574	00000000	00000013	addi	x0,x0,0	  x0:0x00000000
       25765000	      2575	800034f8	00000013	addi	x0,x0,0	  x0:0x00000000
       25775000	      2576	800034fc	01a54a63	blt	x10,x26,80003510	 x10:0x80000000 x26:0x00000000
       25785000	      2577	00000000	00000013	addi	x0,x0,0	  x0:0x00000000
       25795000	      2578	8000350c	00000013	addi	x0,x0,0	  x0:0x00000000
       25805000	      2579	80003510	0398c063	blt	x17,x25,80003530	 x17:0x8f9a22fe x25:0x00000000
       25815000	      2580	00000000	00000013	addi	x0,x0,0	  x0:0x00000000
       25825000	      2581	8000352c	00000013	addi	x0,x0,0	  x0:0x00000000
       25835000	      2582	80003530	03f8e663	bltu	x17,x31,8000355c	 x17:0x8f9a22fe x31:0x80009fc4
       25845000	      2583	80003534	04a5d263	bge	x11,x10,80003578	 x11:0x80000000 x10:0x80000000
       25855000	      2584	00000000	00000013	addi	x0,x0,0	  x0:0x00000000
       25865000	      2585	80003574	00000013	addi	x0,x0,0	  x0:0x00000000
       25875000	      2586	80003578	00c59b33	sll	x22,x11,x12	 x11:0x80000000 x12:0xff9ea000 x22=0x80000000
       25885000	      2587	8000357c	0172e933	or	x18,x5,x23	  x5:0x00000000 x23:0x027d1000 x18=0x027d1000
       25895000	      2588	80003580	4051d493	srai	x9,x3,0x5	  x3:0x07065e00  x9=0x003832f0
       25905000	      2589	80003584	01566cb3	or	x25,x12,x21	 x12:0xff9ea000 x21:0x80009f44 x25=0xff9ebf44
       25915000	      2590	80003588	40ea8db3	sub	x27,x21,x14	 x21:0x80009f44 x14:0x00000001 x27=0x80009f43
       25925000	      2591	8000358c	15d43113	sltiu	x2,x8,349	  x8:0x0008f9a2  x2=0x00000000
       25935000	      2592	80003590	d58ff693	andi	x13,x31,-680	 x31:0x80009fc4 x13=0x80009d40
       25945000	      2593	80003594	40155633	sra	x12,x10,x1	 x10:0x80000000  x1:0x8706fdc4 x12=0xf8000000
       25955000	      2594	80003598	015459b3	srl	x19,x8,x21	  x8:0x0008f9a2 x21:0x80009f44 x19=0x00008f9a
       25965000	      2595	8000359c	008c07b3	add	x15,x24,x8	 x24:0x00000000  x8:0x0008f9a2 x15=0x0008f9a2
       25975000	      2596	800035a0	b66f3e37	lui	x28,0xb66f3	 x28=0xb66f3000
       25985000	      2597	800035a4	01e5b2b3	sltu	x5,x11,x30	 x11:0x80000000 x30:0x00000000  x5=0x00000000
       25995000	      2598	800035a8	0ad02d93	slti	x27,x0,173	  x0:0x00000000 x27=0x00000001
       26005000	      2599	800035ac	fd51c413	xori	x8,x3,-43	  x3:0x07065e00  x8=0xf8f9a1d5
       26015000	      2600	800035b0	01acd393	srli	x7,x25,0x1a	 x25:0xff9ebf44  x7=0x0000003f
       26025000	      2601	800035b4	04428263	beq	x5,x4,800035f8	  x5:0x00000000  x4:0x06cd04b0
       26035000	      2602	800035b8	67beff17	auipc	x30,0x67bef	 x30=0xe7bf25b4
       26045000	      2603	800035bc	40100033	sub	x0,x0,x1	  x0:0x00000000  x1:0x8706fdc4
       26055000	      2604	800035c0	5b172613	slti	x12,x14,1457	 x14:0x00000001 x12=0x00000001
       26065000	      2605	800035c4	406150b3	sra	x1,x2,x6	  x2:0x00000000  x6:0x00000000  x1=0x00000000
       26075000	      2606	800035c8	002bd4b3	srl	x9,x23,x2	 x23:0x027d1000  x2:0x00000000  x9=0x027d1000
       26085000	      2607	800035cc	df123113	sltiu	x2,x4,-527	  x4:0x06cd04b0  x2=0x00000001
       26095000	      2608	800035d0	40e407b3	sub	x15,x8,x14	  x8:0xf8f9a1d5 x14:0x00000001 x15=0xf8f9a1d4
       26105000	      2609	800035d4	00d15a63	bge	x2,x13,800035e8	  x2:0x00000001 x13:0x80009d40
       26115000	      2610	00000000	00000013	addi	x0,x0,0	  x0:0x00000000
       26125000	      2611	800035e4	00000013	addi	x0,x0,0	  x0:0x00000000
       26135000	      2612	800035e8	007f22b3	slt	x5,x30,x7	 x30:0xe7bf25b4  x7:0x0000003f  x5=0x00000001
       26145000	      2613	800035ec	4018d0b3	sra	x1,x17,x1	 x17:0x8f9a22fe  x1:0x00000000  x1=0x8f9a22fe
       26155000	      2614	800035f0	ed7dbb13	sltiu	x22,x27,-297	 x27:0x00000001 x22=0x00000001
       26165000	      2615	800035f4	035d9863	bne	x27,x21,80003624	 x27:0x00000001 x21:0x80009f44
       26175000	      2616	00000000	00000013	addi	x0,x0,0	  x0:0x00000000
       26185000	      2617	80003620	00000013	addi	x0,x0,0	  x0:0x00000000
       26195000	      2618	80003624	0137c4b3	xor	x9,x15,x19	 x15:0xf8f9a1d4 x19:0x00008f9a  x9=0xf8f92e4e
       26205000	      2619	80003628	41a1d513	srai	x10,x3,0x1a	  x3:0x07065e00 x10=0x00000001
       26215000	      2620	8000362c	40ce0833	sub	x16,x28,x12	 x28:0xb66f3000 x12:0x00000001 x16=0xb66f2fff
       26225000	      2621	80003630	2f812e17	auipc	x28,0x2f812	 x28=0xaf81562c
       26235000	      2622	80003634	bdf8e413	ori	x8,x17,-1057	 x17:0x8f9a22fe  x8=0xfffffbff
       26245000	      2623	80003638	01bd2c33	slt	x24,x26,x27	 x26:0x00000000 x27:0x00000001 x24=0x00000001
       26255000	      2624	8000363c	00119413	slli	x8,x3,0x1	  x3:0x07065e00  x8=0x0e0cbc00
       26265000	      2625	80003640	f3c4e613	ori	x12,x9,-196	  x9:0xf8f92e4e x12=0xffffff7e
       26275000	      2626	80003644	00af4233	xor	x4,x30,x10	 x30:0xe7bf25b4 x10:0x00000001  x4=0xe7bf25b5
       26285000	      2627	80003648	00113b33	sltu	x22,x2,x1	  x2:0x00000001  x1:0x8f9a22fe x22=0x00000001
       26295000	      2628	8000364c	f2907f13	andi	x30,x0,-215	  x0:0x00000000 x30=0x00000000
       26305000	      2629	80003650	01c5d113	srli	x2,x11,0x1c	 x11:0x80000000  x2=0x00000008
       26315000	      2630	80003654	502a8113	addi	x2,x21,1282	 x21:0x80009f44  x2=0x8000a446
       26325000	      2631	80003658	e0eca313	slti	x6,x25,-498	 x25:0xff9ebf44  x6=0x00000001
       26335000	      2632	8000365c	f6282e93	slti	x29,x16,-158	 x16:0xb66f2fff x29=0x00000001
       26345000	      2633	80003660	01c07333	and	x6,x0,x28	  x0:0x00000000 x28:0xaf81562c  x6=0x00000000
       26355000	      2634	80003664	d9b49997	auipc	x19,0xd9b49	 x19=0x59b4c660
       26365000	      2635	80003668	02414863	blt	x2,x4,80003698	  x2:0x8000a446  x4:0xe7bf25b5
       26375000	      2636	00000000	00000013	addi	x0,x0,0	  x0:0x00000000
       26385000	      2637	80003694	00000013	addi	x0,x0,0	  x0:0x00000000
       26395000	      2638	80003698	5c1f4993	xori	x19,x30,1473	 x30:0x00000000 x19=0x000005c1
       26405000	      2639	8000369c	404ed3b3	sra	x7,x29,x4	 x29:0x00000001  x4:0xe7bf25b5  x7=0x00000000
       26415000	      2640	800036a0	00edaa33	slt	x20,x27,x14	 x27:0x00000001 x14:0x00000001 x20=0x00000000
       26425000	      2641	800036a4	410b53b3	sra	x7,x22,x16	 x22:0x00000001 x16:0xb66f2fff  x7=0x00000000
       26435000	      2642	800036a8	20d12293	slti	x5,x2,525	  x2:0x8000a446  x5=0x00000001
       26445000	      2643	800036ac	01f02eb3	slt	x29,x0,x31	  x0:0x00000000 x31:0x80009fc4 x29=0x00000000
       26455000	      2644	800036b0	01ef4133	xor	x2,x30,x30	 x30:0x00000000 x30:0x00000000  x2=0x00000000
       26465000	      2645	800036b4	01651f13	slli	x30,x10,0x16	 x10:0x00000001 x30=0x00400000
       26475000	      2646	800036b8	0046e533	or	x10,x13,x4	 x13:0x80009d40  x4:0xe7bf25b5 x10=0xe7bfbdf5
       26485000	      2647	800036bc	01dca733	slt	x14,x25,x29	 x25:0xff9ebf44 x29:0x00000000 x14=0x00000001
       26495000	      2648	800036c0	43ba61b7	lui	x3,0x43ba6	  x3=0x43ba6000
       26505000	      2649	800036c4	03651263	bne	x10,x22,800036e8	 x10:0xe7bfbdf5 x22:0x00000001
       26515000	      2650	00000000	00000013	addi	x0,x0,0	  x0:0x00000000
       26525000	      2651	800036e4	00000013	addi	x0,x0,0	  x0:0x00000000
       26535000	      2652	800036e8	418f4313	xori	x6,x30,1048	 x30:0x00400000  x6=0x00400418
       26545000	      2653	800036ec	015801b3	add	x3,x16,x21	 x16:0xb66f2fff x21:0x80009f44  x3=0x366fcf43
       26555000	      2654	800036f0	015298b3	sll	x17,x5,x21	  x5:0x00000001 x21:0x80009f44 x17=0x00000010
       26565000	      2655	800036f4	054e9263	bne	x29,x20,80003738	 x29:0x00000000 x20:0x00000000
       26575000	      2656	800036f8	00cf5093	srli	x1,x30,0xc	 x30:0x00400000  x1=0x00000400
       26585000	      2657	800036fc	032cd263	bge	x25,x18,80003720	 x25:0xff9ebf44 x18:0x027d1000
       26595000	      2658	80003700	004ce263	bltu	x25,x4,80003704	 x25:0xff9ebf44  x4:0xe7bf25b5
       26605000	      2659	80003704	0275e663	bltu	x11,x7,80003730	 x11:0x80000000  x7:0x00000000
       26615000	      2660	80003708	eb070f13	addi	x30,x14,-336	 x14:0x00000001 x30=0xfffffeb1
       26625000	      2661	8000370c	00e07c63	bgeu	x0,x14,80003724	  x0:0x00000000 x14:0x00000001
       26635000	      2662	80003710	00d2b6b3	sltu	x13,x5,x13	  x5:0x00000001 x13:0x80009d40 x13=0x00000001
       26645000	      2663	80003714	03c2d063	bge	x5,x28,80003734	  x5:0x00000001 x28:0xaf81562c
       26655000	      2664	00000000	00000013	addi	x0,x0,0	  x0:0x00000000
       26665000	      2665	80003730	00000013	addi	x0,x0,0	  x0:0x00000000
       26675000	      2666	80003734	8cdaf893	andi	x17,x21,-1843	 x21:0x80009f44 x17=0x80009844
       26685000	      2667	80003738	018ff263	bgeu	x31,x24,8000373c	 x31:0x80009fc4 x24:0x00000001
       26695000	      2668	00000000	00000013	addi	x0,x0,0	  x0:0x00000000
       26705000	      2669	80003738	00000013	addi	x0,x0,0	  x0:0x00000000
       26715000	      2670	8000373c	2e3e8d93	addi	x27,x29,739	 x29:0x00000000 x27=0x000002e3
       26725000	      2671	80003740	8a4c0993	addi	x19,x24,-1884	 x24:0x00000001 x19=0xfffff8a5
       26735000	      2672	80003744	01a31213	slli	x4,x6,0x1a	  x6:0x00400418  x4=0x60000000
       26745000	      2673	80003748	964fc893	xori	x17,x31,-1692	 x31:0x80009fc4 x17=0x7fff66a0
       26755000	      2674	8000374c	0077d013	srli	x0,x15,0x7	 x15:0xf8f9a1d4
       26765000	      2675	80003750	01e10263	beq	x2,x30,80003754	  x2:0x00000000 x30:0xfffffeb1
       26775000	      2676	80003754	75a68d93	addi	x27,x13,1882	 x13:0x00000001 x27=0x0000075b
       26785000	      2677	80003758	00aeb133	sltu	x2,x29,x10	 x29:0x00000000 x10:0xe7bfbdf5  x2=0x00000001
       26795000	      2678	8000375c	5e513213	sltiu	x4,x2,1509	  x2:0x00000001  x4=0x00000001
       26805000	      2679	80003760	00f857b3	srl	x15,x16,x15	 x16:0xb66f2fff x15:0xf8f9a1d4 x15=0x00000b66
       26815000	      2680	80003764	00939993	slli	x19,x7,0x9	  x7:0x00000000 x19=0x00000000
       26825000	      2681	80003768	d5f0b317	auipc	x6,0xd5f0b	  x6=0x55f0e764
       26835000	      2682	8000376c	03de4e63	blt	x28,x29,800037a8	 x28:0xaf81562c x29:0x00000000
       26845000	      2683	00000000	00000013	addi	x0,x0,0	  x0:0x00000000
       26855000	      2684	800037a4	00000013	addi	x0,x0,0	  x0:0x00000000
       26865000	      2685	800037a8	05391463	bne	x18,x19,800037f0	 x18:0x027d1000 x19:0x00000000
       26875000	      2686	00000000	00000013	addi	x0,x0,0	  x0:0x00000000
       26885000	      2687	800037ec	00000013	addi	x0,x0,0	  x0:0x00000000
       26895000	      2688	800037f0	40fc5cb3	sra	x25,x24,x15	 x24:0x00000001 x15:0x00000b66 x25=0x00000000
       26905000	      2689	800037f4	7db1b337	lui	x6,0x7db1b	  x6=0x7db1b000
       26915000	      2690	800037f8	0296c263	blt	x13,x9,8000381c	 x13:0x00000001  x9:0xf8f92e4e
       26925000	      2691	800037fc	37f6e313	ori	x6,x13,895	 x13:0x00000001  x6=0x0000037f
       26935000	      2692	80003800	017c1c13	slli	x24,x24,0x17	 x24:0x00000001 x24=0x00800000
       26945000	      2693	80003804	00465213	srli	x4,x12,0x4	 x12:0xffffff7e  x4=0x0ffffff7
       26955000	      2694	80003808	00b42eb3	slt	x29,x8,x11	  x8:0x0e0cbc00 x11:0x80000000 x29=0x00000000
       26965000	      2695	8000380c	00df6a63	bltu	x30,x13,80003820	 x30:0xfffffeb1 x13:0x00000001
       26975000	      2696	80003810	03d57863	bgeu	x10,x29,80003840	 x10:0xe7bfbdf5 x29:0x00000000
       26985000	      2697	00000000	00000013	addi	x0,x0,0	  x0:0x00000000
       26995000	      2698	8000383c	00000013	addi	x0,x0,0	  x0:0x00000000
       27005000	      2699	80003840	007d5b13	srli	x22,x26,0x7	 x26:0x00000000 x22=0x00000000
       27015000	      2700	80003844	00000013	addi	x0,x0,0	  x0:0x00000000
       27025000	      2701	80003848	01fa0433	add	x8,x20,x31	 x20:0x00000000 x31:0x80009fc4  x8=0x80009fc4
       27035000	      2702	8000384c	000a4c63	blt	x20,x0,80003864	 x20:0x00000000  x0:0x00000000
       27045000	      2703	80003850	03b21463	bne	x4,x27,80003878	  x4:0x0ffffff7 x27:0x0000075b
       27055000	      2704	00000000	00000013	addi	x0,x0,0	  x0:0x00000000
       27065000	      2705	80003874	00000013	addi	x0,x0,0	  x0:0x00000000
       27075000	      2706	80003878	0190a2b3	slt	x5,x1,x25	  x1:0x00000400 x25:0x00000000  x5=0x00000000
       27085000	      2707	8000387c	24085117	auipc	x2,0x24085	  x2=0xa4088878
       27095000	      2708	80003880	0056b933	sltu	x18,x13,x5	 x13:0x00000001  x5:0x00000000 x18=0x00000000
       27105000	      2709	80003884	41ebd333	sra	x6,x23,x30	 x23:0x027d1000 x30:0xfffffeb1  x6=0x0000013e
       27115000	      2710	80003888	01aee233	or	x4,x29,x26	 x29:0x00000000 x26:0x00000000  x4=0x00000000
       27125000	      2711	8000388c	4819a413	slti	x8,x19,1153	 x19:0x00000000  x8=0x00000001
       27135000	      2712	80003890	001064b3	or	x9,x0,x1	  x0:0x00000000  x1:0x00000400  x9=0x00000400
       27145000	      2713	80003894	a1180b93	addi	x23,x16,-1519	 x16:0xb66f2fff x23=0xb66f2a10
       27155000	      2714	80003898	34083493	sltiu	x9,x16,832	 x16:0xb66f2fff  x9=0x00000000
       27165000	      2715	8000389c	41eed393	srai	x7,x29,0x1e	 x29:0x00000000  x7=0x00000000
       27175000	      2716	800038a0	016fe663	bltu	x31,x22,800038ac	 x31:0x80009fc4 x22:0x00000000
       27185000	      2717	800038a4	173ae393	ori	x7,x21,371	 x21:0x80009f44  x7=0x80009f77
       27195000	      2718	800038a8	00cd20b3	slt	x1,x26,x12	 x26:0x00000000 x12:0xffffff7e  x1=0x00000000
       27205000	      2719	800038ac	33ba41b7	lui	x3,0x33ba4	  x3=0x33ba4000
       27215000	      2720	800038b0	4183d513	srai	x10,x7,0x18	  x7:0x80009f77 x10=0xffffff80
       27225000	      2721	800038b4	00add933	srl	x18,x27,x10	 x27:0x0000075b x10:0xffffff80 x18=0x0000075b
       27235000	      2722	800038b8	04eb5663	bge	x22,x14,80003904	 x22:0x00000000 x14:0x00000001
       27245000	      2723	800038bc	03a9ce63	blt	x19,x26,800038f8	 x19:0x00000000 x26:0x00000000
       27255000	      2724	800038c0	6bc0b913	sltiu	x18,x1,1724	  x1:0x00000000 x18=0x00000001
       27265000	      2725	800038c4	016b64b3	or	x9,x22,x22	 x22:0x00000000 x22:0x00000000  x9=0x00000000
       27275000	      2726	800038c8	31fcaf13	slti	x30,x25,799	 x25:0x00000000 x30=0x00000001
       27285000	      2727	800038cc	91d52713	slti	x14,x10,-1763	 x10:0xffffff80 x14=0x00000000
       27295000	      2728	800038d0	00d9d033	srl	x0,x19,x13	 x19:0x00000000 x13:0x00000001
       27305000	      2729	800038d4	00355263	bge	x10,x3,800038d8	 x10:0xffffff80  x3:0x33ba4000
       27315000	      2730	800038d8	00000013	addi	x0,x0,0	  x0:0x00000000
       27325000	      2731	800038dc	00000013	addi	x0,x0,0	  x0:0x00000000
       27335000	      2732	800038e0	fb3d2e93	slti	x29,x26,-77	 x26:0x00000000 x29=0x00000000
       27345000	      2733	800038e4	968ab993	sltiu	x19,x21,-1688	 x21:0x80009f44 x19=0x00000001
       27355000	      2734	800038e8	03d06663	bltu	x0,x29,80003914	  x0:0x00000000 x29:0x00000000
       27365000	      2735	800038ec	00d5f9b3	and	x19,x11,x13	 x11:0x80000000 x13:0x00000001 x19=0x00000000
       27375000	      2736	800038f0	4100db13	srai	x22,x1,0x10	  x1:0x00000000 x22=0x00000000
       27385000	      2737	800038f4	7b59c413	xori	x8,x19,1973	 x19:0x00000000  x8=0x000007b5
       27395000	      2738	800038f8	01b3c733	xor	x14,x7,x27	  x7:0x80009f77 x27:0x0000075b x14=0x8000982c
       27405000	      2739	800038fc	40c1d433	sra	x8,x3,x12	  x3:0x33ba4000 x12:0xffffff7e  x8=0x00000000
       27415000	      2740	80003900	00000013	addi	x0,x0,0	  x0:0x00000000
       27425000	      2741	80003904	7b5dd137	lui	x2,0x7b5dd	  x2=0x7b5dd000
       27435000	      2742	80003908	00f6e1b3	or	x3,x13,x15	 x13:0x00000001 x15:0x00000b66  x3=0x00000b67
       27445000	      2743	8000390c	01739a33	sll	x20,x7,x23	  x7:0x80009f77 x23:0xb66f2a10 x20=0x9f770000
       27455000	      2744	80003910	00e8db13	srli	x22,x17,0xe	 x17:0x7fff66a0 x22=0x0001fffd
       27465000	      2745	80003914	926b6cb7	lui	x25,0x926b6	 x25=0x926b6000
       27475000	      2746	80003918	05a87263	bgeu	x16,x26,8000395c	 x16:0xb66f2fff x26:0x00000000
       27485000	      2747	00000000	00000013	addi	x0,x0,0	  x0:0x00000000
       27495000	      2748	80003958	00000013	addi	x0,x0,0	  x0:0x00000000
       27505000	      2749	8000395c	019bc4b3	xor	x9,x23,x25	 x23:0xb66f2a10 x25:0x926b6000  x9=0x24044a10
       27515000	      2750	80003960	0293c263	blt	x7,x9,80003984	  x7:0x80009f77  x9:0x24044a10
       27525000	      2751	00000000	00000013	addi	x0,x0,0	  x0:0x00000000
       27535000	      2752	80003980	00000013	addi	x0,x0,0	  x0:0x00000000
       27545000	      2753	80003984	01d29793	slli	x15,x5,0x1d	  x5:0x00000000 x15=0x00000000
       27555000	      2754	80003988	49d47d93	andi	x27,x8,1181	  x8:0x00000000 x27=0x00000000
       27565000	      2755	8000398c	05e9c263	blt	x19,x30,800039d0	 x19:0x00000000 x30:0x00000001
       27575000	      2756	00000000	00000013	addi	x0,x0,0	  x0:0x00000000
       27585000	      2757	800039cc	00000013	addi	x0,x0,0	  x0:0x00000000
       27595000	      2758	800039d0	0078d093	srli	x1,x17,0x7	 x17:0x7fff66a0  x1=0x00fffecd
       27605000	      2759	800039d4	48deecb7	lui	x25,0x48dee	 x25=0x48dee000
       27615000	      2760	800039d8	71467d97	auipc	x27,0x71467	 x27=0xf146a9d4
       27625000	      2761	800039dc	002a9c93	slli	x25,x21,0x2	 x21:0x80009f44 x25=0x00027d10
       27635000	      2762	800039e0	00299713	slli	x14,x19,0x2	 x19:0x00000000 x14=0x00000000
       27645000	      2763	800039e4	01bac033	xor	x0,x21,x27	 x21:0x80009f44 x27:0xf146a9d4
       27655000	      2764	800039e8	c829a697	auipc	x13,0xc829a	 x13=0x4829d9e4
       27665000	      2765	800039ec	0e47cf13	xori	x30,x15,228	 x15:0x00000000 x30=0x000000e4
       27675000	      2766	800039f0	00000013	addi	x0,x0,0	  x0:0x00000000
       27685000	      2767	800039f4	01227cb3	and	x25,x4,x18	  x4:0x00000000 x18:0x00000001 x25=0x00000000
       27695000	      2768	800039f8	4091d6b3	sra	x13,x3,x9	  x3:0x00000b67  x9:0x24044a10 x13=0x00000000
       27705000	      2769	800039fc	607ce093	ori	x1,x25,1543	 x25:0x00000000  x1=0x00000607
       27715000	      2770	80003a00	8f19b793	sltiu	x15,x19,-1807	 x19:0x00000000 x15=0x00000001
       27725000	      2771	80003a04	01bcf333	and	x6,x25,x27	 x25:0x00000000 x27:0xf146a9d4  x6=0x00000000
       27735000	      2772	80003a08	790ac613	xori	x12,x21,1936	 x21:0x80009f44 x12=0x800098d4
       27745000	      2773	80003a0c	009d10b3	sll	x1,x26,x9	 x26:0x00000000  x9:0x24044a10  x1=0x00000000
       27755000	      2774	80003a10	00665113	srli	x2,x12,0x6	 x12:0x800098d4  x2=0x02000263
       27765000	      2775	80003a14	00900e63	beq	x0,x9,80003a30	  x0:0x00000000  x9:0x24044a10
       27775000	      2776	80003a18	016eb9b3	sltu	x19,x29,x22	 x29:0x00000000 x22:0x0001fffd x19=0x00000001
       27785000	      2777	80003a1c	0097c633	xor	x12,x15,x9	 x15:0x00000001  x9:0x24044a10 x12=0x24044a11
       27795000	      2778	80003a20	0171a7b3	slt	x15,x3,x23	  x3:0x00000b67 x23:0xb66f2a10 x15=0x00000000
       27805000	      2779	80003a24	00da6d33	or	x26,x20,x13	 x20:0x9f770000 x13:0x00000000 x26=0x9f770000
       27815000	      2780	80003a28	00a99263	bne	x19,x10,80003a2c	 x19:0x00000001 x10:0xffffff80
       27825000	      2781	00000000	00000013	addi	x0,x0,0	  x0:0x00000000
       27835000	      2782	80003a28	00000013	addi	x0,x0,0	  x0:0x00000000
       27845000	      2783	80003a2c	012eb833	sltu	x16,x29,x18	 x29:0x00000000 x18:0x00000001 x16=0x00000001
       27855000	      2784	80003a30	4ef1b693	sltiu	x13,x3,1263	  x3:0x00000b67 x13=0x00000000
       27865000	      2785	80003a34	00fc0eb3	add	x29,x24,x15	 x24:0x00800000 x15:0x00000000 x29=0x00800000
       27875000	      2786	80003a38	40a8d2b3	sra	x5,x17,x10	 x17:0x7fff66a0 x10:0xffffff80  x5=0x7fff66a0
       27885000	      2787	80003a3c	0044c7b3	xor	x15,x9,x4	  x9:0x24044a10  x4:0x00000000 x15=0x24044a10
       27895000	      2788	80003a40	6738c313	xori	x6,x17,1651	 x17:0x7fff66a0  x6=0x7fff60d3
       27905000	      2789	80003a44	f8c0d497	auipc	x9,0xf8c0d	  x9=0x78c10a40
       27915000	      2790	80003a48	b9ed8693	addi	x13,x27,-1122	 x27:0xf146a9d4 x13=0xf146a572
       27925000	      2791	80003a4c	018558b3	srl	x17,x10,x24	 x10:0xffffff80 x24:0x00800000 x17=0xffffff80
       27935000	      2792	80003a50	ad94e993	ori	x19,x9,-1319	  x9:0x78c10a40 x19=0xfffffad9
       27945000	      2793	80003a54	00f283b3	add	x7,x5,x15	  x5:0x7fff66a0 x15:0x24044a10  x7=0xa403b0b0
       27955000	      2794	80003a58	01ff6933	or	x18,x30,x31	 x30:0x000000e4 x31:0x80009fc4 x18=0x80009fe4
       27965000	      2795	80003a5c	407cdc33	sra	x24,x25,x7	 x25:0x00000000  x7:0xa403b0b0 x24=0x00000000
       27975000	      2796	80003a60	005c5463	bge	x24,x5,80003a68	 x24:0x00000000  x5:0x7fff66a0
       27985000	      2797	80003a64	ee79cb13	xori	x22,x19,-281	 x19:0xfffffad9 x22=0x0000043e
       27995000	      2798	80003a68	07124463	blt	x4,x17,80003ad0	  x4:0x00000000 x17:0xffffff80
       28005000	      2799	80003a6c	85c73c93	sltiu	x25,x14,-1956	 x14:0x00000000 x25=0x00000001
       28015000	      2800	80003a70	004000ef	jal	x1,80003a70	  x1=0x80003a70
       28025000	      2801	00000000	00000013	addi	x0,x0,0	  x0:0x00000000
       28035000	      2802	80003a70	00000013	addi	x0,x0,0	  x0:0x00000000
       28045000	      2803	80003a74	0300016f	jal	x2,80003a74	  x2=0x80003a74
       28055000	      2804	00000000	00000013	addi	x0,x0,0	  x0:0x00000000
       28065000	      2805	80003aa0	00000013	addi	x0,x0,0	  x0:0x00000000
       28075000	      2806	80003aa4	ff1ff36f	jal	x6,80003aa4	  x6=0x80003aa4
       28085000	      2807	00000000	00000013	addi	x0,x0,0	  x0:0x00000000
       28095000	      2808	80003a90	00000013	addi	x0,x0,0	  x0:0x00000000
       28105000	      2809	80003a94	004002ef	jal	x5,80003a94	  x5=0x80003a94
       28115000	      2810	00000000	00000013	addi	x0,x0,0	  x0:0x00000000
       28125000	      2811	80003a94	00000013	addi	x0,x0,0	  x0:0x00000000
       28135000	      2812	80003a98	fe9ff0ef	jal	x1,80003a98	  x1=0x80003a98
       28145000	      2813	00000000	00000013	addi	x0,x0,0	  x0:0x00000000
       28155000	      2814	80003a7c	00000013	addi	x0,x0,0	  x0:0x00000000
       28165000	      2815	80003a80	020002ef	jal	x5,80003a80	  x5=0x80003a80
       28175000	      2816	00000000	00000013	addi	x0,x0,0	  x0:0x00000000
       28185000	      2817	80003a9c	00000013	addi	x0,x0,0	  x0:0x00000000
       28195000	      2818	80003aa0	ffdff0ef	jal	x1,80003aa0	  x1=0x80003aa0
       28205000	      2819	00000000	00000013	addi	x0,x0,0	  x0:0x00000000
       28215000	      2820	80003a98	00000013	addi	x0,x0,0	  x0:0x00000000
       28225000	      2821	80003a9c	0140016f	jal	x2,80003a9c	  x2=0x80003a9c
       28235000	      2822	00000000	00000013	addi	x0,x0,0	  x0:0x00000000
       28245000	      2823	80003aac	00000013	addi	x0,x0,0	  x0:0x00000000
       28255000	      2824	80003ab0	ffdff36f	jal	x6,80003ab0	  x6=0x80003ab0
       28265000	      2825	00000000	00000013	addi	x0,x0,0	  x0:0x00000000
       28275000	      2826	80003aa8	00000013	addi	x0,x0,0	  x0:0x00000000
       28285000	      2827	80003aac	fe5ff36f	jal	x6,80003aac	  x6=0x80003aac
       28295000	      2828	00000000	00000013	addi	x0,x0,0	  x0:0x00000000
       28305000	      2829	80003a8c	00000013	addi	x0,x0,0	  x0:0x00000000
       28315000	      2830	80003a90	ff5ff0ef	jal	x1,80003a90	  x1=0x80003a90
       28325000	      2831	00000000	00000013	addi	x0,x0,0	  x0:0x00000000
       28335000	      2832	80003a80	00000013	addi	x0,x0,0	  x0:0x00000000
       28345000	      2833	80003a84	004000ef	jal	x1,80003a84	  x1=0x80003a84
       28355000	      2834	00000000	00000013	addi	x0,x0,0	  x0:0x00000000
       28365000	      2835	80003a84	00000013	addi	x0,x0,0	  x0:0x00000000
       28375000	      2836	80003a88	02c000ef	jal	x1,80003a88	  x1=0x80003a88
       28385000	      2837	00000000	00000013	addi	x0,x0,0	  x0:0x00000000
       28395000	      2838	80003ab0	00000013	addi	x0,x0,0	  x0:0x00000000
       28405000	      2839	80003ab4	fc5ff0ef	jal	x1,80003ab4	  x1=0x80003ab4
       28415000	      2840	00000000	00000013	addi	x0,x0,0	  x0:0x00000000
       28425000	      2841	80003a74	00000013	addi	x0,x0,0	  x0:0x00000000
       28435000	      2842	80003a78	0140096f	jal	x18,80003a78	 x18=0x80003a78
       28445000	      2843	00000000	00000013	addi	x0,x0,0	  x0:0x00000000
       28455000	      2844	80003a88	00000013	addi	x0,x0,0	  x0:0x00000000
       28465000	      2845	80003a8c	01c008ef	jal	x17,80003a8c	 x17=0x80003a8c
       28475000	      2846	00000000	00000013	addi	x0,x0,0	  x0:0x00000000
       28485000	      2847	80003aa4	00000013	addi	x0,x0,0	  x0:0x00000000
       28495000	      2848	80003aa8	fd5ff0ef	jal	x1,80003aa8	  x1=0x80003aa8
       28505000	      2849	00000000	00000013	addi	x0,x0,0	  x0:0x00000000
       28515000	      2850	80003a78	00000013	addi	x0,x0,0	  x0:0x00000000
       28525000	      2851	80003a7c	03c009ef	jal	x19,80003a7c	 x19=0x80003a7c
       28535000	      2852	00000000	00000013	addi	x0,x0,0	  x0:0x00000000
       28545000	      2853	80003ab4	00000013	addi	x0,x0,0	  x0:0x00000000
       28555000	      2854	80003ab8	01184b33	xor	x22,x16,x17	 x16:0x00000001 x17:0x80003a8c x22=0x80003a8d
       28565000	      2855	80003abc	00232333	slt	x6,x6,x2	  x6:0x80003aac  x2:0x80003a9c  x6=0x00000000
       28575000	      2856	80003ac0	40dd5d93	srai	x27,x26,0xd	 x26:0x9f770000 x27=0xfffcfbb8
       28585000	      2857	80003ac4	aeaef397	auipc	x7,0xaeaef	  x7=0x2eaf2ac0
       28595000	      2858	80003ac8	04ce9263	bne	x29,x12,80003b0c	 x29:0x00800000 x12:0x24044a11
       28605000	      2859	00000000	00000013	addi	x0,x0,0	  x0:0x00000000
       28615000	      2860	80003b08	00000013	addi	x0,x0,0	  x0:0x00000000
       28625000	      2861	80003b0c	01b2da63	bge	x5,x27,80003b20	  x5:0x80003a80 x27:0xfffcfbb8
       28635000	      2862	80003b10	412e5b93	srai	x23,x28,0x12	 x28:0xaf81562c x23=0xffffebe0
       28645000	      2863	80003b14	531bca13	xori	x20,x23,1329	 x23:0xffffebe0 x20=0xffffeed1
       28655000	      2864	80003b18	016a1b13	slli	x22,x20,0x16	 x20:0xffffeed1 x22=0xb4400000
       28665000	      2865	80003b1c	001eb8b3	sltu	x17,x29,x1	 x29:0x00800000  x1:0x80003aa8 x17=0x00000001
       28675000	      2866	80003b20	015c2333	slt	x6,x24,x21	 x24:0x00000000 x21:0x80009f44  x6=0x00000000
       28685000	      2867	80003b24	0400c263	blt	x1,x0,80003b68	  x1:0x80003aa8  x0:0x00000000
       28695000	      2868	00000000	00000013	addi	x0,x0,0	  x0:0x00000000
       28705000	      2869	80003b64	00000013	addi	x0,x0,0	  x0:0x00000000
       28715000	      2870	80003b68	06671663	bne	x14,x6,80003bd4	 x14:0x00000000  x6:0x00000000
       28725000	      2871	80003b6c	008ba9b3	slt	x19,x23,x8	 x23:0xffffebe0  x8:0x00000000 x19=0x00000001
       28735000	      2872	80003b70	038000ef	jal	x1,80003b70	  x1=0x80003b70
       28745000	      2873	00000000	00000013	addi	x0,x0,0	  x0:0x00000000
       28755000	      2874	80003ba4	00000013	addi	x0,x0,0	  x0:0x00000000
       28765000	      2875	80003ba8	ff5ffd6f	jal	x26,80003ba8	 x26=0x80003ba8
       28775000	      2876	00000000	00000013	addi	x0,x0,0	  x0:0x00000000
       28785000	      2877	80003b98	00000013	addi	x0,x0,0	  x0:0x00000000
       28795000	      2878	80003b9c	ffdff0ef	jal	x1,80003b9c	  x1=0x80003b9c
       28805000	      2879	00000000	00000013	addi	x0,x0,0	  x0:0x00000000
       28815000	      2880	80003b94	00000013	addi	x0,x0,0	  x0:0x00000000
       28825000	      2881	80003b98	ff9ff0ef	jal	x1,80003b98	  x1=0x80003b98
       28835000	      2882	00000000	00000013	addi	x0,x0,0	  x0:0x00000000
       28845000	      2883	80003b8c	00000013	addi	x0,x0,0	  x0:0x00000000
       28855000	      2884	80003b90	fe5ff0ef	jal	x1,80003b90	  x1=0x80003b90
       28865000	      2885	00000000	00000013	addi	x0,x0,0	  x0:0x00000000
       28875000	      2886	80003b70	00000013	addi	x0,x0,0	  x0:0x00000000
       28885000	      2887	80003b74	010000ef	jal	x1,80003b74	  x1=0x80003b74
       28895000	      2888	00000000	00000013	addi	x0,x0,0	  x0:0x00000000
       28905000	      2889	80003b80	00000013	addi	x0,x0,0	  x0:0x00000000
       28915000	      2890	80003b84	0040036f	jal	x6,80003b84	  x6=0x80003b84
       28925000	      2891	00000000	00000013	addi	x0,x0,0	  x0:0x00000000
       28935000	      2892	80003b84	00000013	addi	x0,x0,0	  x0:0x00000000
       28945000	      2893	80003b88	ff1ff36f	jal	x6,80003b88	  x6=0x80003b88
       28955000	      2894	00000000	00000013	addi	x0,x0,0	  x0:0x00000000
       28965000	      2895	80003b74	00000013	addi	x0,x0,0	  x0:0x00000000
       28975000	      2896	80003b78	0380016f	jal	x2,80003b78	  x2=0x80003b78
       28985000	      2897	00000000	00000013	addi	x0,x0,0	  x0:0x00000000
       28995000	      2898	80003bac	00000013	addi	x0,x0,0	  x0:0x00000000
       29005000	      2899	80003bb0	fe5ff36f	jal	x6,80003bb0	  x6=0x80003bb0
       29015000	      2900	00000000	00000013	addi	x0,x0,0	  x0:0x00000000
       29025000	      2901	80003b90	00000013	addi	x0,x0,0	  x0:0x00000000
       29035000	      2902	80003b94	00c000ef	jal	x1,80003b94	  x1=0x80003b94
       29045000	      2903	00000000	00000013	addi	x0,x0,0	  x0:0x00000000
       29055000	      2904	80003b9c	00000013	addi	x0,x0,0	  x0:0x00000000
       29065000	      2905	80003ba0	00c00bef	jal	x23,80003ba0	 x23=0x80003ba0
       29075000	      2906	00000000	00000013	addi	x0,x0,0	  x0:0x00000000
       29085000	      2907	80003ba8	00000013	addi	x0,x0,0	  x0:0x00000000
       29095000	      2908	80003bac	fd1ff36f	jal	x6,80003bac	  x6=0x80003bac
       29105000	      2909	00000000	00000013	addi	x0,x0,0	  x0:0x00000000
       29115000	      2910	80003b78	00000013	addi	x0,x0,0	  x0:0x00000000
       29125000	      2911	80003b7c	01000bef	jal	x23,80003b7c	 x23=0x80003b7c
       29135000	      2912	00000000	00000013	addi	x0,x0,0	  x0:0x00000000
       29145000	      2913	80003b88	00000013	addi	x0,x0,0	  x0:0x00000000
       29155000	      2914	80003b8c	ff5ff36f	jal	x6,80003b8c	  x6=0x80003b8c
       29165000	      2915	00000000	00000013	addi	x0,x0,0	  x0:0x00000000
       29175000	      2916	80003b7c	00000013	addi	x0,x0,0	  x0:0x00000000
       29185000	      2917	80003b80	0240036f	jal	x6,80003b80	  x6=0x80003b80
       29195000	      2918	00000000	00000013	addi	x0,x0,0	  x0:0x00000000
       29205000	      2919	80003ba0	00000013	addi	x0,x0,0	  x0:0x00000000
       29215000	      2920	80003ba4	0100036f	jal	x6,80003ba4	  x6=0x80003ba4
       29225000	      2921	00000000	00000013	addi	x0,x0,0	  x0:0x00000000
       29235000	      2922	80003bb0	00000013	addi	x0,x0,0	  x0:0x00000000
       29245000	      2923	80003bb4	0101eeb3	or	x29,x3,x16	  x3:0x00000b67 x16:0x00000001 x29=0x00000b67
       29255000	      2924	80003bb8	00f16c63	bltu	x2,x15,80003bd0	  x2:0x80003b78 x15:0x24044a10
       29265000	      2925	80003bbc	008e23b3	slt	x7,x28,x8	 x28:0xaf81562c  x8:0x00000000  x7=0x00000001
       29275000	      2926	80003bc0	01590263	beq	x18,x21,80003bc4	 x18:0x80003a78 x21:0x80009f44
       29285000	      2927	80003bc4	02396263	bltu	x18,x3,80003be8	 x18:0x80003a78  x3:0x00000b67
       29295000	      2928	80003bc8	006bc263	blt	x23,x6,80003bcc	 x23:0x80003b7c  x6:0x80003ba4
       29305000	      2929	00000000	00000013	addi	x0,x0,0	  x0:0x00000000
       29315000	      2930	80003bc8	00000013	addi	x0,x0,0	  x0:0x00000000
       29325000	      2931	80003bcc	0166d433	srl	x8,x13,x22	 x13:0xf146a572 x22:0xb4400000  x8=0xf146a572
       29335000	      2932	80003bd0	408a5093	srai	x1,x20,0x8	 x20:0xffffeed1  x1=0xffffffee
       29345000	      2933	80003bd4	09413013	sltiu	x0,x2,148	  x2:0x80003b78
       29355000	      2934	80003bd8	02ca0863	beq	x20,x12,80003c08	 x20:0xffffeed1 x12:0x24044a11
       29365000	      2935	80003bdc	018e9293	slli	x5,x29,0x18	 x29:0x00000b67  x5=0x67000000
       29375000	      2936	80003be0	99540137	lui	x2,0x99540	  x2=0x99540000
       29385000	      2937	80003be4	5067fa13	andi	x20,x15,1286	 x15:0x24044a10 x20=0x00000000
       29395000	      2938	80003be8	352dc093	xori	x1,x27,850	 x27:0xfffcfbb8  x1=0xfffcf8ea
       29405000	      2939	80003bec	a77c6013	ori	x0,x24,-1417	 x24:0x00000000
       29415000	      2940	80003bf0	01595733	srl	x14,x18,x21	 x18:0x80003a78 x21:0x80009f44 x14=0x080003a7
       29425000	      2941	80003bf4	01be6933	or	x18,x28,x27	 x28:0xaf81562c x27:0xfffcfbb8 x18=0xfffdffbc
       29435000	      2942	80003bf8	015026b3	slt	x13,x0,x21	  x0:0x00000000 x21:0x80009f44 x13=0x00000000
       29445000	      2943	80003bfc	b9e4cb93	xori	x23,x9,-1122	  x9:0x78c10a40 x23=0x873ef1de
       29455000	      2944	80003c00	3a08e313	ori	x6,x17,928	 x17:0x00000001  x6=0x000003a1
       29465000	      2945	80003c04	4007d713	srai	x14,x15,0x0	 x15:0x24044a10 x14=0x24044a10
       29475000	      2946	80003c08	05a35663	bge	x6,x26,80003c54	  x6:0x000003a1 x26:0x80003ba8
       29485000	      2947	00000000	00000013	addi	x0,x0,0	  x0:0x00000000
       29495000	      2948	80003c50	00000013	addi	x0,x0,0	  x0:0x00000000
       29505000	      2949	80003c54	00000013	addi	x0,x0,0	  x0:0x00000000
       29515000	      2950	80003c58	7472f113	andi	x2,x5,1863	  x5:0x67000000  x2=0x00000000
       29525000	      2951	80003c5c	01a68033	add	x0,x13,x26	 x13:0x00000000 x26:0x80003ba8
       29535000	      2952	80003c60	4064dd13	srai	x26,x9,0x6	  x9:0x78c10a40 x26=0x01e30429
       29545000	      2953	80003c64	03b16813	ori	x16,x2,59	  x2:0x00000000 x16=0x0000003b
       29555000	      2954	80003c68	0111bdb3	sltu	x27,x3,x17	  x3:0x00000b67 x17:0x00000001 x27=0x00000000
       29565000	      2955	80003c6c	db0ae693	ori	x13,x21,-592	 x21:0x80009f44 x13=0xfffffff4
       29575000	      2956	80003c70	1af76413	ori	x8,x14,431	 x14:0x24044a10  x8=0x24044bbf
       29585000	      2957	80003c74	017d9c13	slli	x24,x27,0x17	 x27:0x00000000 x24=0x00000000
       29595000	      2958	80003c78	00000013	addi	x0,x0,0	  x0:0x00000000
       29605000	      2959	80003c7c	028c6463	bltu	x24,x8,80003ca4	 x24:0x00000000  x8:0x24044bbf
       29615000	      2960	00000000	00000013	addi	x0,x0,0	  x0:0x00000000
       29625000	      2961	80003ca0	00000013	addi	x0,x0,0	  x0:0x00000000
       29635000	      2962	80003ca4	00611093	slli	x1,x2,0x6	  x2:0x00000000  x1=0x00000000
       29645000	      2963	80003ca8	03da9063	bne	x21,x29,80003cc8	 x21:0x80009f44 x29:0x00000b67
       29655000	      2964	00000000	00000013	addi	x0,x0,0	  x0:0x00000000
       29665000	      2965	80003cc4	00000013	addi	x0,x0,0	  x0:0x00000000
       29675000	      2966	80003cc8	004c1863	bne	x24,x4,80003cd8	 x24:0x00000000  x4:0x00000000
       29685000	      2967	80003ccc	40d609b3	sub	x19,x12,x13	 x12:0x24044a11 x13:0xfffffff4 x19=0x24044a1d
       29695000	      2968	80003cd0	001bc463	blt	x23,x1,80003cd8	 x23:0x873ef1de  x1:0x00000000
       29705000	      2969	00000000	00000013	addi	x0,x0,0	  x0:0x00000000
       29715000	      2970	80003cd4	00000013	addi	x0,x0,0	  x0:0x00000000
       29725000	      2971	80003cd8	01310333	add	x6,x2,x19	  x2:0x00000000 x19:0x24044a1d  x6=0x24044a1d
       29735000	      2972	80003cdc	58966713	ori	x14,x12,1417	 x12:0x24044a11 x14=0x24044f99
       29745000	      2973	80003ce0	004aa083	lw	x1,4(x21)	 x21:0x80009f44  x1=0x80003d38 PA:0x80009f48
       29755000	      2974	80003ce4	88b5f693	andi	x13,x11,-1909	 x11:0x80000000 x13=0x80000000
       29765000	      2975	80003ce8	40ca51b3	sra	x3,x20,x12	 x20:0x00000000 x12:0x24044a11  x3=0x00000000
       29775000	      2976	80003cec	010a8a93	addi	x21,x21,16	 x21:0x80009f44 x21=0x80009f54
       29785000	      2977	80003cf0	01939033	sll	x0,x7,x25	  x7:0x00000001 x25:0x00000001
       29795000	      2978	80003cf4	00008313	addi	x6,x1,0	  x1:0x80003d38  x6=0x80003d38
       29805000	      2979	80003cf8	00030367	jalr	x6,x6,0	  x6:0x80003d38  x6=0x80003cf8
       29815000	      2980	00000000	00000013	addi	x0,x0,0	  x0:0x00000000
       29825000	      2981	80003d38	00000013	addi	x0,x0,0	  x0:0x00000000
       29835000	      2982	80003d3c	c0494693	xori	x13,x18,-1020	 x18:0xfffdffbc x13=0x000203b8
       29845000	      2983	80003d40	01af9db3	sll	x27,x31,x26	 x31:0x80009fc4 x26:0x01e30429 x27=0x013f8800
       29855000	      2984	80003d44	00bcd293	srli	x5,x25,0xb	 x25:0x00000001  x5=0x00000000
       29865000	      2985	80003d48	ffffd317	auipc	x6,0xffffd	  x6=0x80000d44
       29875000	      2986	80003d4c	c1030313	addi	x6,x6,-1008	  x6:0x80000d44  x6=0x80000954
       29885000	      2987	80003d50	e8a30313	addi	x6,x6,-374	  x6:0x80000954  x6=0x800007de
       29895000	      2988	80003d54	00289193	slli	x3,x17,0x2	 x17:0x00000001  x3=0x00000004
       29905000	      2989	80003d58	7d8e9bb7	lui	x23,0x7d8e9	 x23=0x7d8e9000
       29915000	      2990	80003d5c	177300e7	jalr	x1,x6,375	  x6:0x800007de  x1=0x80003d5c
       29925000	      2991	00000000	00000013	addi	x0,x0,0	  x0:0x00000000
       29935000	      2992	80000954	00000013	addi	x0,x0,0	  x0:0x00000000
       29945000	      2993	80000958	32b80893	addi	x17,x16,811	 x16:0x0000003b x17=0x00000366
       29955000	      2994	8000095c	d5f86293	ori	x5,x16,-673	 x16:0x0000003b  x5=0xfffffd7f
       29965000	      2995	80000960	010d0863	beq	x26,x16,80000970	 x26:0x01e30429 x16:0x0000003b
       29975000	      2996	80000964	4021d633	sra	x12,x3,x2	  x3:0x00000004  x2:0x00000000 x12=0x00000004
       29985000	      2997	80000968	0167d793	srli	x15,x15,0x16	 x15:0x24044a10 x15=0x00000090
       29995000	      2998	8000096c	409b86b3	sub	x13,x23,x9	 x23:0x7d8e9000  x9:0x78c10a40 x13=0x04cd85c0
       30005000	      2999	80000970	fe8a8a93	addi	x21,x21,-24	 x21:0x80009f54 x21=0x80009f3c
       30015000	      3000	80000974	cac52e13	slti	x28,x10,-852	 x10:0xffffff80 x28=0x00000000
       30025000	      3001	80000978	001aa223	sw	x1,4(x21)	 x21:0x80009f3c  x1:0x80003d5c PA:0x80009f40
       30035000	      3002	8000097c	01a4fd33	and	x26,x9,x26	  x9:0x78c10a40 x26:0x01e30429 x26=0x00c10000
       30045000	      3003	80000980	39c67f37	lui	x30,0x39c67	 x30=0x39c67000
       30055000	      3004	80000984	01b129b3	slt	x19,x2,x27	  x2:0x00000000 x27:0x013f8800 x19=0x00000001
       30065000	      3005	80000988	00000217	auipc	x4,0x0	  x4=0x80000984
       30075000	      3006	8000098c	f1c20213	addi	x4,x4,-228	  x4:0x80000984  x4=0x800008a0
       30085000	      3007	80000990	418e0433	sub	x8,x28,x24	 x28:0x00000000 x24:0x00000000  x8=0x00000000
       30095000	      3008	80000994	00c3a133	slt	x2,x7,x12	  x7:0x00000001 x12:0x00000004  x2=0x00000001
       30105000	      3009	80000998	83f0bc93	sltiu	x25,x1,-1985	  x1:0x80003d5c x25=0x00000001
       30115000	      3010	8000099c	a4eebb13	sltiu	x22,x29,-1458	 x29:0x00000b67 x22=0x00000001
       30125000	      3011	800009a0	f0620213	addi	x4,x4,-250	  x4:0x800008a0  x4=0x800007a6
       30135000	      3012	800009a4	012a0133	add	x2,x20,x18	 x20:0x00000000 x18:0xfffdffbc  x2=0xfffdffbc
       30145000	      3013	800009a8	0fb200e7	jalr	x1,x4,251	  x4:0x800007a6  x1=0x800009a8
       30155000	      3014	00000000	00000013	addi	x0,x0,0	  x0:0x00000000
       30165000	      3015	800008a0	00000013	addi	x0,x0,0	  x0:0x00000000
       30175000	      3016	800008a4	00a14663	blt	x2,x10,800008b0	  x2:0xfffdffbc x10:0xffffff80
       30185000	      3017	00000000	00000013	addi	x0,x0,0	  x0:0x00000000
       30195000	      3018	800008ac	00000013	addi	x0,x0,0	  x0:0x00000000
       30205000	      3019	800008b0	fe0a8a93	addi	x21,x21,-32	 x21:0x80009f3c x21=0x80009f1c
       30215000	      3020	800008b4	4064d133	sra	x2,x9,x6	  x9:0x78c10a40  x6:0x800007de  x2=0x00000001
       30225000	      3021	800008b8	554cf493	andi	x9,x25,1364	 x25:0x00000001  x9=0x00000000
       30235000	      3022	800008bc	001aa223	sw	x1,4(x21)	 x21:0x80009f1c  x1:0x800009a8 PA:0x80009f20
       30245000	      3023	800008c0	415a5193	srai	x3,x20,0x15	 x20:0x00000000  x3=0x00000000
       30255000	      3024	800008c4	001e53b3	srl	x7,x28,x1	 x28:0x00000000  x1:0x800009a8  x7=0x00000000
       30265000	      3025	800008c8	01f2c833	xor	x16,x5,x31	  x5:0xfffffd7f x31:0x80009fc4 x16=0x7fff62bb
       30275000	      3026	800008cc	44373993	sltiu	x19,x14,1091	 x14:0x24044f99 x19=0x00000000
       30285000	      3027	800008d0	009eb533	sltu	x10,x29,x9	 x29:0x00000b67  x9:0x00000000 x10=0x00000000
       30295000	      3028	800008d4	008cc863	blt	x25,x8,800008e4	 x25:0x00000001  x8:0x00000000
       30305000	      3029	800008d8	02809663	bne	x1,x8,80000904	  x1:0x800009a8  x8:0x00000000
       30315000	      3030	00000000	00000013	addi	x0,x0,0	  x0:0x00000000
       30325000	      3031	80000900	00000013	addi	x0,x0,0	  x0:0x00000000
       30335000	      3032	80000904	0289f663	bgeu	x19,x8,80000930	 x19:0x00000000  x8:0x00000000
       30345000	      3033	00000000	00000013	addi	x0,x0,0	  x0:0x00000000
       30355000	      3034	8000092c	00000013	addi	x0,x0,0	  x0:0x00000000
       30365000	      3035	80000930	01f04633	xor	x12,x0,x31	  x0:0x00000000 x31:0x80009fc4 x12=0x80009fc4
       30375000	      3036	80000934	00ed58b3	srl	x17,x26,x14	 x26:0x00c10000 x14:0x24044f99 x17=0x00000000
       30385000	      3037	80000938	99738013	addi	x0,x7,-1641	  x7:0x00000000
       30395000	      3038	8000093c	004aa083	lw	x1,4(x21)	 x21:0x80009f1c  x1=0x800009a8 PA:0x80009f20
       30405000	      3039	80000940	1cd29797	auipc	x15,0x1cd29	 x15=0x9cd2993c
       30415000	      3040	80000944	020a8a93	addi	x21,x21,32	 x21:0x80009f1c x21=0x80009f3c
       30425000	      3041	80000948	4172d8b3	sra	x17,x5,x23	  x5:0xfffffd7f x23:0x7d8e9000 x17=0xfffffd7f
       30435000	      3042	8000094c	00d5c9b3	xor	x19,x11,x13	 x11:0x80000000 x13:0x04cd85c0 x19=0x84cd85c0
       30445000	      3043	80000950	00108e13	addi	x28,x1,1	  x1:0x800009a8 x28=0x800009a9
       30455000	      3044	80000954	000e0e67	jalr	x28,x28,0	 x28:0x800009a9 x28=0x80000954
       30465000	      3045	00000000	00000013	addi	x0,x0,0	  x0:0x00000000
       30475000	      3046	800009a8	00000013	addi	x0,x0,0	  x0:0x00000000
       30485000	      3047	800009ac	00125133	srl	x2,x4,x1	  x4:0x800007a6  x1:0x800009a8  x2=0x00800007
       30495000	      3048	800009b0	409f0333	sub	x6,x30,x9	 x30:0x39c67000  x9:0x00000000  x6=0x39c67000
       30505000	      3049	800009b4	01571913	slli	x18,x14,0x15	 x14:0x24044f99 x18=0xf3200000
       30515000	      3050	800009b8	006ce733	or	x14,x25,x6	 x25:0x00000001  x6:0x39c67000 x14=0x39c67001
       30525000	      3051	800009bc	41ded433	sra	x8,x29,x29	 x29:0x00000b67 x29:0x00000b67  x8=0x00000016
       30535000	      3052	800009c0	00e21113	slli	x2,x4,0xe	  x4:0x800007a6  x2=0x01e98000
       30545000	      3053	800009c4	4a56fb13	andi	x22,x13,1189	 x13:0x04cd85c0 x22=0x00000480
       30555000	      3054	800009c8	019ec2b3	xor	x5,x29,x25	 x29:0x00000b67 x25:0x00000001  x5=0x00000b66
       30565000	      3055	800009cc	2ad030ef	jal	x1,800009cc	  x1=0x800009cc
       30575000	      3056	00000000	00000013	addi	x0,x0,0	  x0:0x00000000
       30585000	      3057	80004474	00000013	addi	x0,x0,0	  x0:0x00000000
       30595000	      3058	80004478	380064b7	lui	x9,0x38006	  x9=0x38006000
       30605000	      3059	8000447c	019ad413	srli	x8,x21,0x19	 x21:0x80009f3c  x8=0x00000040
       30615000	      3060	80004480	01b64463	blt	x12,x27,80004488	 x12:0x80009fc4 x27:0x013f8800
       30625000	      3061	00000000	00000013	addi	x0,x0,0	  x0:0x00000000
       30635000	      3062	80004484	00000013	addi	x0,x0,0	  x0:0x00000000
       30645000	      3063	80004488	fc0a8a93	addi	x21,x21,-64	 x21:0x80009f3c x21=0x80009efc
       30655000	      3064	8000448c	014e4d33	xor	x26,x28,x20	 x28:0x80000954 x20:0x00000000 x26=0x80000954
       30665000	      3065	80004490	0064fa33	and	x20,x9,x6	  x9:0x38006000  x6:0x39c67000 x20=0x38006000
       30675000	      3066	80004494	bc86bd13	sltiu	x26,x13,-1080	 x13:0x04cd85c0 x26=0x00000001
       30685000	      3067	80004498	00000013	addi	x0,x0,0	  x0:0x00000000
       30695000	      3068	8000449c	00c41b33	sll	x22,x8,x12	  x8:0x00000040 x12:0x80009fc4 x22=0x00000400
       30705000	      3069	800044a0	001aa223	sw	x1,4(x21)	 x21:0x80009efc  x1:0x800009cc PA:0x80009f00
       30715000	      3070	800044a4	2111c993	xori	x19,x3,529	  x3:0x00000000 x19=0x00000211
       30725000	      3071	800044a8	01f5e8b3	or	x17,x11,x31	 x11:0x80000000 x31:0x80009fc4 x17=0x80009fc4
       30735000	      3072	800044ac	018000ef	jal	x1,800044ac	  x1=0x800044ac
       30745000	      3073	00000000	00000013	addi	x0,x0,0	  x0:0x00000000
       30755000	      3074	800044c0	00000013	addi	x0,x0,0	  x0:0x00000000
       30765000	      3075	800044c4	02800f6f	jal	x30,800044c4	 x30=0x800044c4
       30775000	      3076	00000000	00000013	addi	x0,x0,0	  x0:0x00000000
       30785000	      3077	800044e8	00000013	addi	x0,x0,0	  x0:0x00000000
       30795000	      3078	800044ec	fe9ff0ef	jal	x1,800044ec	  x1=0x800044ec
       30805000	      3079	00000000	00000013	addi	x0,x0,0	  x0:0x00000000
       30815000	      3080	800044d0	00000013	addi	x0,x0,0	  x0:0x00000000
       30825000	      3081	800044d4	ff5ff36f	jal	x6,800044d4	  x6=0x800044d4
       30835000	      3082	00000000	00000013	addi	x0,x0,0	  x0:0x00000000
       30845000	      3083	800044c4	00000013	addi	x0,x0,0	  x0:0x00000000
       30855000	      3084	800044c8	03c000ef	jal	x1,800044c8	  x1=0x800044c8
       30865000	      3085	00000000	00000013	addi	x0,x0,0	  x0:0x00000000
       30875000	      3086	80004500	00000013	addi	x0,x0,0	  x0:0x00000000
       30885000	      3087	80004504	fe1ff0ef	jal	x1,80004504	  x1=0x80004504
       30895000	      3088	00000000	00000013	addi	x0,x0,0	  x0:0x00000000
       30905000	      3089	800044e0	00000013	addi	x0,x0,0	  x0:0x00000000
       30915000	      3090	800044e4	004000ef	jal	x1,800044e4	  x1=0x800044e4
       30925000	      3091	00000000	00000013	addi	x0,x0,0	  x0:0x00000000
       30935000	      3092	800044e4	00000013	addi	x0,x0,0	  x0:0x00000000
       30945000	      3093	800044e8	ff9ff0ef	jal	x1,800044e8	  x1=0x800044e8
       30955000	      3094	00000000	00000013	addi	x0,x0,0	  x0:0x00000000
       30965000	      3095	800044dc	00000013	addi	x0,x0,0	  x0:0x00000000
       30975000	      3096	800044e0	fd1ff0ef	jal	x1,800044e0	  x1=0x800044e0
       30985000	      3097	00000000	00000013	addi	x0,x0,0	  x0:0x00000000
       30995000	      3098	800044ac	00000013	addi	x0,x0,0	  x0:0x00000000
       31005000	      3099	800044b0	058000ef	jal	x1,800044b0	  x1=0x800044b0
       31015000	      3100	00000000	00000013	addi	x0,x0,0	  x0:0x00000000
       31025000	      3101	80004504	00000013	addi	x0,x0,0	  x0:0x00000000
       31035000	      3102	80004508	fadff0ef	jal	x1,80004508	  x1=0x80004508
       31045000	      3103	00000000	00000013	addi	x0,x0,0	  x0:0x00000000
       31055000	      3104	800044b0	00000013	addi	x0,x0,0	  x0:0x00000000
       31065000	      3105	800044b4	00c000ef	jal	x1,800044b4	  x1=0x800044b4
       31075000	      3106	00000000	00000013	addi	x0,x0,0	  x0:0x00000000
       31085000	      3107	800044bc	00000013	addi	x0,x0,0	  x0:0x00000000
       31095000	      3108	800044c0	ff9ff0ef	jal	x1,800044c0	  x1=0x800044c0
       31105000	      3109	00000000	00000013	addi	x0,x0,0	  x0:0x00000000
       31115000	      3110	800044b4	00000013	addi	x0,x0,0	  x0:0x00000000
       31125000	      3111	800044b8	03c0096f	jal	x18,800044b8	 x18=0x800044b8
       31135000	      3112	00000000	00000013	addi	x0,x0,0	  x0:0x00000000
       31145000	      3113	800044f0	00000013	addi	x0,x0,0	  x0:0x00000000
       31155000	      3114	800044f4	fe9ffc6f	jal	x24,800044f4	 x24=0x800044f4
       31165000	      3115	00000000	00000013	addi	x0,x0,0	  x0:0x00000000
       31175000	      3116	800044d8	00000013	addi	x0,x0,0	  x0:0x00000000
       31185000	      3117	800044dc	0300026f	jal	x4,800044dc	  x4=0x800044dc
       31195000	      3118	00000000	00000013	addi	x0,x0,0	  x0:0x00000000
       31205000	      3119	80004508	00000013	addi	x0,x0,0	  x0:0x00000000
       31215000	      3120	8000450c	fb1ff56f	jal	x10,8000450c	 x10=0x8000450c
       31225000	      3121	00000000	00000013	addi	x0,x0,0	  x0:0x00000000
       31235000	      3122	800044b8	00000013	addi	x0,x0,0	  x0:0x00000000
       31245000	      3123	800044bc	034000ef	jal	x1,800044bc	  x1=0x800044bc
       31255000	      3124	00000000	00000013	addi	x0,x0,0	  x0:0x00000000
       31265000	      3125	800044ec	00000013	addi	x0,x0,0	  x0:0x00000000
       31275000	      3126	800044f0	008000ef	jal	x1,800044f0	  x1=0x800044f0
       31285000	      3127	00000000	00000013	addi	x0,x0,0	  x0:0x00000000
       31295000	      3128	800044f4	00000013	addi	x0,x0,0	  x0:0x00000000
       31305000	      3129	800044f8	0080056f	jal	x10,800044f8	 x10=0x800044f8
       31315000	      3130	00000000	00000013	addi	x0,x0,0	  x0:0x00000000
       31325000	      3131	800044fc	00000013	addi	x0,x0,0	  x0:0x00000000
       31335000	      3132	80004500	ffdff0ef	jal	x1,80004500	  x1=0x80004500
       31345000	      3133	00000000	00000013	addi	x0,x0,0	  x0:0x00000000
       31355000	      3134	800044f8	00000013	addi	x0,x0,0	  x0:0x00000000
       31365000	      3135	800044fc	fd1ff0ef	jal	x1,800044fc	  x1=0x800044fc
       31375000	      3136	00000000	00000013	addi	x0,x0,0	  x0:0x00000000
       31385000	      3137	800044c8	00000013	addi	x0,x0,0	  x0:0x00000000
       31395000	      3138	800044cc	004000ef	jal	x1,800044cc	  x1=0x800044cc
       31405000	      3139	00000000	00000013	addi	x0,x0,0	  x0:0x00000000
       31415000	      3140	800044cc	00000013	addi	x0,x0,0	  x0:0x00000000
       31425000	      3141	800044d0	008000ef	jal	x1,800044d0	  x1=0x800044d0
       31435000	      3142	00000000	00000013	addi	x0,x0,0	  x0:0x00000000
       31445000	      3143	800044d4	00000013	addi	x0,x0,0	  x0:0x00000000
       31455000	      3144	800044d8	038000ef	jal	x1,800044d8	  x1=0x800044d8
       31465000	      3145	00000000	00000013	addi	x0,x0,0	  x0:0x00000000
       31475000	      3146	8000450c	00000013	addi	x0,x0,0	  x0:0x00000000
       31485000	      3147	80004510	01245f13	srli	x30,x8,0x12	  x8:0x00000040 x30=0x00000000
       31495000	      3148	80004514	00a34cb3	xor	x25,x6,x10	  x6:0x800044d4 x10:0x800044f8 x25=0x0000002c
       31505000	      3149	80004518	0155f8b3	and	x17,x11,x21	 x11:0x80000000 x21:0x80009efc x17=0x80000000
       31515000	      3150	8000451c	01fca633	slt	x12,x25,x31	 x25:0x0000002c x31:0x80009fc4 x12=0x00000000
       31525000	      3151	80004520	010a5863	bge	x20,x16,80004530	 x20:0x38006000 x16:0x7fff62bb
       31535000	      3152	80004524	008e5bb3	srl	x23,x28,x8	 x28:0x80000954  x8:0x00000040 x23=0x80000954
       31545000	      3153	80004528	00dbc833	xor	x16,x23,x13	 x23:0x80000954 x13:0x04cd85c0 x16=0x84cd8c94
       31555000	      3154	8000452c	009e9633	sll	x12,x29,x9	 x29:0x00000b67  x9:0x38006000 x12=0x00000b67
       31565000	      3155	80004530	d4438637	lui	x12,0xd4438	 x12=0xd4438000
       31575000	      3156	80004534	01ec36b3	sltu	x13,x24,x30	 x24:0x800044f4 x30:0x00000000 x13=0x00000000
       31585000	      3157	80004538	03a1e463	bltu	x3,x26,80004560	  x3:0x00000000 x26:0x00000001
       31595000	      3158	00000000	00000013	addi	x0,x0,0	  x0:0x00000000
       31605000	      3159	8000455c	00000013	addi	x0,x0,0	  x0:0x00000000
       31615000	      3160	80004560	03298e63	beq	x19,x18,8000459c	 x19:0x00000211 x18:0x800044b8
       31625000	      3161	80004564	01b01913	slli	x18,x0,0x1b	  x0:0x00000000 x18=0x00000000
       31635000	      3162	80004568	3c7a2517	auipc	x10,0x3c7a2	 x10=0xbc7a6564
       31645000	      3163	8000456c	01714b33	xor	x22,x2,x23	  x2:0x01e98000 x23:0x80000954 x22=0x81e98954
       31655000	      3164	80004570	97277913	andi	x18,x14,-1678	 x14:0x39c67001 x18=0x39c67000
       31665000	      3165	80004574	016f7463	bgeu	x30,x22,8000457c	 x30:0x00000000 x22:0x81e98954
       31675000	      3166	80004578	e9010137	lui	x2,0xe9010	  x2=0xe9010000
       31685000	      3167	8000457c	3007c693	xori	x13,x15,768	 x15:0x9cd2993c x13=0x9cd29a3c
       31695000	      3168	80004580	0136a7b3	slt	x15,x13,x19	 x13:0x9cd29a3c x19:0x00000211 x15=0x00000001
       31705000	      3169	80004584	017e9013	slli	x0,x29,0x17	 x29:0x00000b67
       31715000	      3170	80004588	94c8ac93	slti	x25,x17,-1716	 x17:0x80000000 x25=0x00000001
       31725000	      3171	8000458c	4193d493	srai	x9,x7,0x19	  x7:0x00000000  x9=0x00000000
       31735000	      3172	80004590	ab64c917	auipc	x18,0xab64c	 x18=0x2b65058c
       31745000	      3173	80004594	01b5a6b3	slt	x13,x11,x27	 x11:0x80000000 x27:0x013f8800 x13=0x00000001
       31755000	      3174	80004598	019fc233	xor	x4,x31,x25	 x31:0x80009fc4 x25:0x00000001  x4=0x80009fc5
       31765000	      3175	8000459c	04cc5863	bge	x24,x12,800045ec	 x24:0x800044f4 x12:0xd4438000
       31775000	      3176	800045a0	023c8263	beq	x25,x3,800045c4	 x25:0x00000001  x3:0x00000000
       31785000	      3177	800045a4	c40e3393	sltiu	x7,x28,-960	 x28:0x80000954  x7=0x00000001
       31795000	      3178	800045a8	02dd9e63	bne	x27,x13,800045e4	 x27:0x013f8800 x13:0x00000001
       31805000	      3179	00000000	00000013	addi	x0,x0,0	  x0:0x00000000
       31815000	      3180	800045e0	00000013	addi	x0,x0,0	  x0:0x00000000
       31825000	      3181	800045e4	3abb1197	auipc	x3,0x3abb1	  x3=0xbabb55e0
       31835000	      3182	800045e8	001b5893	srli	x17,x22,0x1	 x22:0x81e98954 x17=0x40f4c4aa
       31845000	      3183	800045ec	9a23cc13	xori	x24,x7,-1630	  x7:0x00000001 x24=0xfffff9a3
       31855000	      3184	800045f0	d5010c93	addi	x25,x2,-688	  x2:0xe9010000 x25=0xe900fd50
       31865000	      3185	800045f4	00c53433	sltu	x8,x10,x12	 x10:0xbc7a6564 x12:0xd4438000  x8=0x00000001
       31875000	      3186	800045f8	006c2c33	slt	x24,x24,x6	 x24:0xfffff9a3  x6:0x800044d4 x24=0x00000000
       31885000	      3187	800045fc	85236393	ori	x7,x6,-1966	  x6:0x800044d4  x7=0xfffffcd6
       31895000	      3188	80004600	0025e7b3	or	x15,x11,x2	 x11:0x80000000  x2:0xe9010000 x15=0xe9010000
       31905000	      3189	80004604	41445f13	srai	x30,x8,0x14	  x8:0x00000001 x30=0x00000000
       31915000	      3190	80004608	00551b93	slli	x23,x10,0x5	 x10:0xbc7a6564 x23=0x8f4cac80
       31925000	      3191	8000460c	03098863	beq	x19,x16,8000463c	 x19:0x00000211 x16:0x84cd8c94
       31935000	      3192	80004610	03121663	bne	x4,x17,8000463c	  x4:0x80009fc5 x17:0x40f4c4aa
       31945000	      3193	00000000	00000013	addi	x0,x0,0	  x0:0x00000000
       31955000	      3194	80004638	00000013	addi	x0,x0,0	  x0:0x00000000
       31965000	      3195	8000463c	00be9733	sll	x14,x29,x11	 x29:0x00000b67 x11:0x80000000 x14=0x00000b67
       31975000	      3196	80004640	02aa7463	bgeu	x20,x10,80004668	 x20:0x38006000 x10:0xbc7a6564
       31985000	      3197	80004644	40ab00b3	sub	x1,x22,x10	 x22:0x81e98954 x10:0xbc7a6564  x1=0xc56f23f0
       31995000	      3198	80004648	0154f263	bgeu	x9,x21,8000464c	  x9:0x00000000 x21:0x80009efc
       32005000	      3199	8000464c	012a5b93	srli	x23,x20,0x12	 x20:0x38006000 x23=0x00000e00
       32015000	      3200	80004650	01274663	blt	x14,x18,8000465c	 x14:0x00000b67 x18:0x2b65058c
       32025000	      3201	00000000	00000013	addi	x0,x0,0	  x0:0x00000000
       32035000	      3202	80004658	00000013	addi	x0,x0,0	  x0:0x00000000
       32045000	      3203	8000465c	40d259b3	sra	x19,x4,x13	  x4:0x80009fc5 x13:0x00000001 x19=0xc0004fe2
       32055000	      3204	80004660	0187fc63	bgeu	x15,x24,80004678	 x15:0xe9010000 x24:0x00000000
       32065000	      3205	00000000	00000013	addi	x0,x0,0	  x0:0x00000000
       32075000	      3206	80004674	00000013	addi	x0,x0,0	  x0:0x00000000
       32085000	      3207	80004678	0034f533	and	x10,x9,x3	  x9:0x00000000  x3:0xbabb55e0 x10=0x00000000
       32095000	      3208	8000467c	00000013	addi	x0,x0,0	  x0:0x00000000
       32105000	      3209	80004680	c2ee8513	addi	x10,x29,-978	 x29:0x00000b67 x10=0x00000795
       32115000	      3210	80004684	004aa083	lw	x1,4(x21)	 x21:0x80009efc  x1=0x800009cc PA:0x80009f00
       32125000	      3211	80004688	004bd213	srli	x4,x23,0x4	 x23:0x00000e00  x4=0x000000e0
       32135000	      3212	8000468c	040a8a93	addi	x21,x21,64	 x21:0x80009efc x21=0x80009f3c
       32145000	      3213	80004690	879a4693	xori	x13,x20,-1927	 x20:0x38006000 x13=0xc7ff9879
       32155000	      3214	80004694	406e8f33	sub	x30,x29,x6	 x29:0x00000b67  x6:0x800044d4 x30=0x7fffc693
       32165000	      3215	80004698	9480c113	xori	x2,x1,-1720	  x1:0x800009cc  x2=0x7ffff084
       32175000	      3216	8000469c	00008e13	addi	x28,x1,0	  x1:0x800009cc x28=0x800009cc
       32185000	      3217	800046a0	000e0e67	jalr	x28,x28,0	 x28:0x800009cc x28=0x800046a0
       32195000	      3218	00000000	00000013	addi	x0,x0,0	  x0:0x00000000
       32205000	      3219	800009cc	00000013	addi	x0,x0,0	  x0:0x00000000
       32215000	      3220	800009d0	01c000ef	jal	x1,800009d0	  x1=0x800009d0
       32225000	      3221	00000000	00000013	addi	x0,x0,0	  x0:0x00000000
       32235000	      3222	800009e8	00000013	addi	x0,x0,0	  x0:0x00000000
       32245000	      3223	800009ec	fe9ff0ef	jal	x1,800009ec	  x1=0x800009ec
       32255000	      3224	00000000	00000013	addi	x0,x0,0	  x0:0x00000000
       32265000	      3225	800009d0	00000013	addi	x0,x0,0	  x0:0x00000000
       32275000	      3226	800009d4	038000ef	jal	x1,800009d4	  x1=0x800009d4
       32285000	      3227	00000000	00000013	addi	x0,x0,0	  x0:0x00000000
       32295000	      3228	80000a08	00000013	addi	x0,x0,0	  x0:0x00000000
       32305000	      3229	80000a0c	ff9ff0ef	jal	x1,80000a0c	  x1=0x80000a0c
       32315000	      3230	00000000	00000013	addi	x0,x0,0	  x0:0x00000000
       32325000	      3231	80000a00	00000013	addi	x0,x0,0	  x0:0x00000000
       32335000	      3232	80000a04	00c000ef	jal	x1,80000a04	  x1=0x80000a04
       32345000	      3233	00000000	00000013	addi	x0,x0,0	  x0:0x00000000
       32355000	      3234	80000a0c	00000013	addi	x0,x0,0	  x0:0x00000000
       32365000	      3235	80000a10	ff1ff0ef	jal	x1,80000a10	  x1=0x80000a10
       32375000	      3236	00000000	00000013	addi	x0,x0,0	  x0:0x00000000
       32385000	      3237	800009fc	00000013	addi	x0,x0,0	  x0:0x00000000
       32395000	      3238	80000a00	ffdff26f	jal	x4,80000a00	  x4=0x80000a00
       32405000	      3239	00000000	00000013	addi	x0,x0,0	  x0:0x00000000
       32415000	      3240	800009f8	00000013	addi	x0,x0,0	  x0:0x00000000
       32425000	      3241	800009fc	fe1ff2ef	jal	x5,800009fc	  x5=0x800009fc
       32435000	      3242	00000000	00000013	addi	x0,x0,0	  x0:0x00000000
       32445000	      3243	800009d8	00000013	addi	x0,x0,0	  x0:0x00000000
       32455000	      3244	800009dc	ffdff36f	jal	x6,800009dc	  x6=0x800009dc
       32465000	      3245	00000000	00000013	addi	x0,x0,0	  x0:0x00000000
       32475000	      3246	800009d4	00000013	addi	x0,x0,0	  x0:0x00000000
       32485000	      3247	800009d8	0080046f	jal	x8,800009d8	  x8=0x800009d8
       32495000	      3248	00000000	00000013	addi	x0,x0,0	  x0:0x00000000
       32505000	      3249	800009dc	00000013	addi	x0,x0,0	  x0:0x00000000
       32515000	      3250	800009e0	014000ef	jal	x1,800009e0	  x1=0x800009e0
       32525000	      3251	00000000	00000013	addi	x0,x0,0	  x0:0x00000000
       32535000	      3252	800009f0	00000013	addi	x0,x0,0	  x0:0x00000000
       32545000	      3253	800009f4	01400c6f	jal	x24,800009f4	 x24=0x800009f4
       32555000	      3254	00000000	00000013	addi	x0,x0,0	  x0:0x00000000
       32565000	      3255	80000a04	00000013	addi	x0,x0,0	  x0:0x00000000
       32575000	      3256	80000a08	ff1ff0ef	jal	x1,80000a08	  x1=0x80000a08
       32585000	      3257	00000000	00000013	addi	x0,x0,0	  x0:0x00000000
       32595000	      3258	800009f4	00000013	addi	x0,x0,0	  x0:0x00000000
       32605000	      3259	800009f8	ff1ff36f	jal	x6,800009f8	  x6=0x800009f8
       32615000	      3260	00000000	00000013	addi	x0,x0,0	  x0:0x00000000
       32625000	      3261	800009e4	00000013	addi	x0,x0,0	  x0:0x00000000
       32635000	      3262	800009e8	00800e6f	jal	x28,800009e8	 x28=0x800009e8
       32645000	      3263	00000000	00000013	addi	x0,x0,0	  x0:0x00000000
       32655000	      3264	800009ec	00000013	addi	x0,x0,0	  x0:0x00000000
       32665000	      3265	800009f0	ff5ff36f	jal	x6,800009f0	  x6=0x800009f0
       32675000	      3266	00000000	00000013	addi	x0,x0,0	  x0:0x00000000
       32685000	      3267	800009e0	00000013	addi	x0,x0,0	  x0:0x00000000
       32695000	      3268	800009e4	030000ef	jal	x1,800009e4	  x1=0x800009e4
       32705000	      3269	00000000	00000013	addi	x0,x0,0	  x0:0x00000000
       32715000	      3270	80000a10	00000013	addi	x0,x0,0	  x0:0x00000000
       32725000	      3271	80000a14	ae86b413	sltiu	x8,x13,-1304	 x13:0xc7ff9879  x8=0x00000001
       32735000	      3272	80000a18	00c000ef	jal	x1,80000a18	  x1=0x80000a18
       32745000	      3273	00000000	00000013	addi	x0,x0,0	  x0:0x00000000
       32755000	      3274	80000a20	00000013	addi	x0,x0,0	  x0:0x00000000
       32765000	      3275	80000a24	0080046f	jal	x8,80000a24	  x8=0x80000a24
       32775000	      3276	00000000	00000013	addi	x0,x0,0	  x0:0x00000000
       32785000	      3277	80000a28	00000013	addi	x0,x0,0	  x0:0x00000000
       32795000	      3278	80000a2c	ffdffdef	jal	x27,80000a2c	 x27=0x80000a2c
       32805000	      3279	00000000	00000013	addi	x0,x0,0	  x0:0x00000000
       32815000	      3280	80000a24	00000013	addi	x0,x0,0	  x0:0x00000000
       32825000	      3281	80000a28	03c00a6f	jal	x20,80000a28	 x20=0x80000a28
       32835000	      3282	00000000	00000013	addi	x0,x0,0	  x0:0x00000000
       32845000	      3283	80000a60	00000013	addi	x0,x0,0	  x0:0x00000000
       32855000	      3284	80000a64	fb9ff76f	jal	x14,80000a64	 x14=0x80000a64
       32865000	      3285	00000000	00000013	addi	x0,x0,0	  x0:0x00000000
       32875000	      3286	80000a18	00000013	addi	x0,x0,0	  x0:0x00000000
       32885000	      3287	80000a1c	03400cef	jal	x25,80000a1c	 x25=0x80000a1c
       32895000	      3288	00000000	00000013	addi	x0,x0,0	  x0:0x00000000
       32905000	      3289	80000a4c	00000013	addi	x0,x0,0	  x0:0x00000000
       32915000	      3290	80000a50	fedffb6f	jal	x22,80000a50	 x22=0x80000a50
       32925000	      3291	00000000	00000013	addi	x0,x0,0	  x0:0x00000000
       32935000	      3292	80000a38	00000013	addi	x0,x0,0	  x0:0x00000000
       32945000	      3293	80000a3c	01c000ef	jal	x1,80000a3c	  x1=0x80000a3c
       32955000	      3294	00000000	00000013	addi	x0,x0,0	  x0:0x00000000
       32965000	      3295	80000a54	00000013	addi	x0,x0,0	  x0:0x00000000
       32975000	      3296	80000a58	fc9ff56f	jal	x10,80000a58	 x10=0x80000a58
       32985000	      3297	00000000	00000013	addi	x0,x0,0	  x0:0x00000000
       32995000	      3298	80000a1c	00000013	addi	x0,x0,0	  x0:0x00000000
       33005000	      3299	80000a20	0500036f	jal	x6,80000a20	  x6=0x80000a20
       33015000	      3300	00000000	00000013	addi	x0,x0,0	  x0:0x00000000
       33025000	      3301	80000a6c	00000013	addi	x0,x0,0	  x0:0x00000000
       33035000	      3302	80000a70	fd5ff36f	jal	x6,80000a70	  x6=0x80000a70
       33045000	      3303	00000000	00000013	addi	x0,x0,0	  x0:0x00000000
       33055000	      3304	80000a40	00000013	addi	x0,x0,0	  x0:0x00000000
       33065000	      3305	80000a44	0280016f	jal	x2,80000a44	  x2=0x80000a44
       33075000	      3306	00000000	00000013	addi	x0,x0,0	  x0:0x00000000
       33085000	      3307	80000a68	00000013	addi	x0,x0,0	  x0:0x00000000
       33095000	      3308	80000a6c	018000ef	jal	x1,80000a6c	  x1=0x80000a6c
       33105000	      3309	00000000	00000013	addi	x0,x0,0	  x0:0x00000000
       33115000	      3310	80000a80	00000013	addi	x0,x0,0	  x0:0x00000000
       33125000	      3311	80000a84	ff9ff0ef	jal	x1,80000a84	  x1=0x80000a84
       33135000	      3312	00000000	00000013	addi	x0,x0,0	  x0:0x00000000
       33145000	      3313	80000a78	00000013	addi	x0,x0,0	  x0:0x00000000
       33155000	      3314	80000a7c	fcdff0ef	jal	x1,80000a7c	  x1=0x80000a7c
       33165000	      3315	00000000	00000013	addi	x0,x0,0	  x0:0x00000000
       33175000	      3316	80000a44	00000013	addi	x0,x0,0	  x0:0x00000000
       33185000	      3317	80000a48	038000ef	jal	x1,80000a48	  x1=0x80000a48
       33195000	      3318	00000000	00000013	addi	x0,x0,0	  x0:0x00000000
       33205000	      3319	80000a7c	00000013	addi	x0,x0,0	  x0:0x00000000
       33215000	      3320	80000a80	fb9ff0ef	jal	x1,80000a80	  x1=0x80000a80
       33225000	      3321	00000000	00000013	addi	x0,x0,0	  x0:0x00000000
       33235000	      3322	80000a34	00000013	addi	x0,x0,0	  x0:0x00000000
       33245000	      3323	80000a38	028000ef	jal	x1,80000a38	  x1=0x80000a38
       33255000	      3324	00000000	00000013	addi	x0,x0,0	  x0:0x00000000
       33265000	      3325	80000a5c	00000013	addi	x0,x0,0	  x0:0x00000000
       33275000	      3326	80000a60	fe1ff6ef	jal	x13,80000a60	 x13=0x80000a60
       33285000	      3327	00000000	00000013	addi	x0,x0,0	  x0:0x00000000
       33295000	      3328	80000a3c	00000013	addi	x0,x0,0	  x0:0x00000000
       33305000	      3329	80000a40	03400eef	jal	x29,80000a40	 x29=0x80000a40
       33315000	      3330	00000000	00000013	addi	x0,x0,0	  x0:0x00000000
       33325000	      3331	80000a70	00000013	addi	x0,x0,0	  x0:0x00000000
       33335000	      3332	80000a74	fd9ff0ef	jal	x1,80000a74	  x1=0x80000a74
       33345000	      3333	00000000	00000013	addi	x0,x0,0	  x0:0x00000000
       33355000	      3334	80000a48	00000013	addi	x0,x0,0	  x0:0x00000000
       33365000	      3335	80000a4c	03c0036f	jal	x6,80000a4c	  x6=0x80000a4c
       33375000	      3336	00000000	00000013	addi	x0,x0,0	  x0:0x00000000
       33385000	      3337	80000a84	00000013	addi	x0,x0,0	  x0:0x00000000
       33395000	      3338	80000a88	ff1ff36f	jal	x6,80000a88	  x6=0x80000a88
       33405000	      3339	00000000	00000013	addi	x0,x0,0	  x0:0x00000000
       33415000	      3340	80000a74	00000013	addi	x0,x0,0	  x0:0x00000000
       33425000	      3341	80000a78	fb9ff0ef	jal	x1,80000a78	  x1=0x80000a78
       33435000	      3342	00000000	00000013	addi	x0,x0,0	  x0:0x00000000
       33445000	      3343	80000a2c	00000013	addi	x0,x0,0	  x0:0x00000000
       33455000	      3344	80000a30	0380036f	jal	x6,80000a30	  x6=0x80000a30
       33465000	      3345	00000000	00000013	addi	x0,x0,0	  x0:0x00000000
       33475000	      3346	80000a64	00000013	addi	x0,x0,0	  x0:0x00000000
       33485000	      3347	80000a68	fedff56f	jal	x10,80000a68	 x10=0x80000a68
       33495000	      3348	00000000	00000013	addi	x0,x0,0	  x0:0x00000000
       33505000	      3349	80000a50	00000013	addi	x0,x0,0	  x0:0x00000000
       33515000	      3350	80000a54	008000ef	jal	x1,80000a54	  x1=0x80000a54
       33525000	      3351	00000000	00000013	addi	x0,x0,0	  x0:0x00000000
       33535000	      3352	80000a58	00000013	addi	x0,x0,0	  x0:0x00000000
       33545000	      3353	80000a5c	fd9ff96f	jal	x18,80000a5c	 x18=0x80000a5c
       33555000	      3354	00000000	00000013	addi	x0,x0,0	  x0:0x00000000
       33565000	      3355	80000a30	00000013	addi	x0,x0,0	  x0:0x00000000
       33575000	      3356	80000a34	058000ef	jal	x1,80000a34	  x1=0x80000a34
       33585000	      3357	00000000	00000013	addi	x0,x0,0	  x0:0x00000000
       33595000	      3358	80000a88	00000013	addi	x0,x0,0	  x0:0x00000000
       33605000	      3359	80000a8c	40a85533	sra	x10,x16,x10	 x16:0x84cd8c94 x10:0x80000a68 x10=0xff84cd8c
       33615000	      3360	80000a90	00c000ef	jal	x1,80000a90	  x1=0x80000a90
       33625000	      3361	00000000	00000013	addi	x0,x0,0	  x0:0x00000000
       33635000	      3362	80000a98	00000013	addi	x0,x0,0	  x0:0x00000000
       33645000	      3363	80000a9c	010000ef	jal	x1,80000a9c	  x1=0x80000a9c
       33655000	      3364	00000000	00000013	addi	x0,x0,0	  x0:0x00000000
       33665000	      3365	80000aa8	00000013	addi	x0,x0,0	  x0:0x00000000
       33675000	      3366	80000aac	fe9ff0ef	jal	x1,80000aac	  x1=0x80000aac
       33685000	      3367	00000000	00000013	addi	x0,x0,0	  x0:0x00000000
       33695000	      3368	80000a90	00000013	addi	x0,x0,0	  x0:0x00000000
       33705000	      3369	80000a94	014000ef	jal	x1,80000a94	  x1=0x80000a94
       33715000	      3370	00000000	00000013	addi	x0,x0,0	  x0:0x00000000
       33725000	      3371	80000aa4	00000013	addi	x0,x0,0	  x0:0x00000000
       33735000	      3372	80000aa8	014002ef	jal	x5,80000aa8	  x5=0x80000aa8
       33745000	      3373	00000000	00000013	addi	x0,x0,0	  x0:0x00000000
       33755000	      3374	80000ab8	00000013	addi	x0,x0,0	  x0:0x00000000
       33765000	      3375	80000abc	fe5ff0ef	jal	x1,80000abc	  x1=0x80000abc
       33775000	      3376	00000000	00000013	addi	x0,x0,0	  x0:0x00000000
       33785000	      3377	80000a9c	00000013	addi	x0,x0,0	  x0:0x00000000
       33795000	      3378	80000aa0	ff9ff36f	jal	x6,80000aa0	  x6=0x80000aa0
       33805000	      3379	00000000	00000013	addi	x0,x0,0	  x0:0x00000000
       33815000	      3380	80000a94	00000013	addi	x0,x0,0	  x0:0x00000000
       33825000	      3381	80000a98	0180036f	jal	x6,80000a98	  x6=0x80000a98
       33835000	      3382	00000000	00000013	addi	x0,x0,0	  x0:0x00000000
       33845000	      3383	80000aac	00000013	addi	x0,x0,0	  x0:0x00000000
       33855000	      3384	80000ab0	ff5ff2ef	jal	x5,80000ab0	  x5=0x80000ab0
       33865000	      3385	00000000	00000013	addi	x0,x0,0	  x0:0x00000000
       33875000	      3386	80000aa0	00000013	addi	x0,x0,0	  x0:0x00000000
       33885000	      3387	80000aa4	0100036f	jal	x6,80000aa4	  x6=0x80000aa4
       33895000	      3388	00000000	00000013	addi	x0,x0,0	  x0:0x00000000
       33905000	      3389	80000ab0	00000013	addi	x0,x0,0	  x0:0x00000000
       33915000	      3390	80000ab4	004000ef	jal	x1,80000ab4	  x1=0x80000ab4
       33925000	      3391	00000000	00000013	addi	x0,x0,0	  x0:0x00000000
       33935000	      3392	80000ab4	00000013	addi	x0,x0,0	  x0:0x00000000
       33945000	      3393	80000ab8	008000ef	jal	x1,80000ab8	  x1=0x80000ab8
       33955000	      3394	00000000	00000013	addi	x0,x0,0	  x0:0x00000000
       33965000	      3395	80000abc	00000013	addi	x0,x0,0	  x0:0x00000000
       33975000	      3396	80000ac0	00756733	or	x14,x10,x7	 x10:0xff84cd8c  x7:0xfffffcd6 x14=0xfffffdde
       33985000	      3397	80000ac4	024000ef	jal	x1,80000ac4	  x1=0x80000ac4
       33995000	      3398	00000000	00000013	addi	x0,x0,0	  x0:0x00000000
       34005000	      3399	80000ae4	00000013	addi	x0,x0,0	  x0:0x00000000
       34015000	      3400	80000ae8	01800e6f	jal	x28,80000ae8	 x28=0x80000ae8
       34025000	      3401	00000000	00000013	addi	x0,x0,0	  x0:0x00000000
       34035000	      3402	80000afc	00000013	addi	x0,x0,0	  x0:0x00000000
       34045000	      3403	80000b00	00c000ef	jal	x1,80000b00	  x1=0x80000b00
       34055000	      3404	00000000	00000013	addi	x0,x0,0	  x0:0x00000000
       34065000	      3405	80000b08	00000013	addi	x0,x0,0	  x0:0x00000000
       34075000	      3406	80000b0c	fe1ff0ef	jal	x1,80000b0c	  x1=0x80000b0c
       34085000	      3407	00000000	00000013	addi	x0,x0,0	  x0:0x00000000
       34095000	      3408	80000ae8	00000013	addi	x0,x0,0	  x0:0x00000000
       34105000	      3409	80000aec	0040096f	jal	x18,80000aec	 x18=0x80000aec
       34115000	      3410	00000000	00000013	addi	x0,x0,0	  x0:0x00000000
       34125000	      3411	80000aec	00000013	addi	x0,x0,0	  x0:0x00000000
       34135000	      3412	80000af0	ff5ff0ef	jal	x1,80000af0	  x1=0x80000af0
       34145000	      3413	00000000	00000013	addi	x0,x0,0	  x0:0x00000000
       34155000	      3414	80000ae0	00000013	addi	x0,x0,0	  x0:0x00000000
       34165000	      3415	80000ae4	020000ef	jal	x1,80000ae4	  x1=0x80000ae4
       34175000	      3416	00000000	00000013	addi	x0,x0,0	  x0:0x00000000
       34185000	      3417	80000b00	00000013	addi	x0,x0,0	  x0:0x00000000
       34195000	      3418	80000b04	00c000ef	jal	x1,80000b04	  x1=0x80000b04
       34205000	      3419	00000000	00000013	addi	x0,x0,0	  x0:0x00000000
       34215000	      3420	80000b0c	00000013	addi	x0,x0,0	  x0:0x00000000
       34225000	      3421	80000b10	014000ef	jal	x1,80000b10	  x1=0x80000b10
       34235000	      3422	00000000	00000013	addi	x0,x0,0	  x0:0x00000000
       34245000	      3423	80000b20	00000013	addi	x0,x0,0	  x0:0x00000000
       34255000	      3424	80000b24	008000ef	jal	x1,80000b24	  x1=0x80000b24
       34265000	      3425	00000000	00000013	addi	x0,x0,0	  x0:0x00000000
       34275000	      3426	80000b28	00000013	addi	x0,x0,0	  x0:0x00000000
       34285000	      3427	80000b2c	f9dff36f	jal	x6,80000b2c	  x6=0x80000b2c
       34295000	      3428	00000000	00000013	addi	x0,x0,0	  x0:0x00000000
       34305000	      3429	80000ac4	00000013	addi	x0,x0,0	  x0:0x00000000
       34315000	      3430	80000ac8	0100036f	jal	x6,80000ac8	  x6=0x80000ac8
       34325000	      3431	00000000	00000013	addi	x0,x0,0	  x0:0x00000000
       34335000	      3432	80000ad4	00000013	addi	x0,x0,0	  x0:0x00000000
       34345000	      3433	80000ad8	01c000ef	jal	x1,80000ad8	  x1=0x80000ad8
       34355000	      3434	00000000	00000013	addi	x0,x0,0	  x0:0x00000000
       34365000	      3435	80000af0	00000013	addi	x0,x0,0	  x0:0x00000000
       34375000	      3436	80000af4	02c001ef	jal	x3,80000af4	  x3=0x80000af4
       34385000	      3437	00000000	00000013	addi	x0,x0,0	  x0:0x00000000
       34395000	      3438	80000b1c	00000013	addi	x0,x0,0	  x0:0x00000000
       34405000	      3439	80000b20	fddffcef	jal	x25,80000b20	 x25=0x80000b20
       34415000	      3440	00000000	00000013	addi	x0,x0,0	  x0:0x00000000
       34425000	      3441	80000af8	00000013	addi	x0,x0,0	  x0:0x00000000
       34435000	      3442	80000afc	fd9ff36f	jal	x6,80000afc	  x6=0x80000afc
       34445000	      3443	00000000	00000013	addi	x0,x0,0	  x0:0x00000000
       34455000	      3444	80000ad0	00000013	addi	x0,x0,0	  x0:0x00000000
       34465000	      3445	80000ad4	034001ef	jal	x3,80000ad4	  x3=0x80000ad4
       34475000	      3446	00000000	00000013	addi	x0,x0,0	  x0:0x00000000
       34485000	      3447	80000b04	00000013	addi	x0,x0,0	  x0:0x00000000
       34495000	      3448	80000b08	00c000ef	jal	x1,80000b08	  x1=0x80000b08
       34505000	      3449	00000000	00000013	addi	x0,x0,0	  x0:0x00000000
       34515000	      3450	80000b10	00000013	addi	x0,x0,0	  x0:0x00000000
       34525000	      3451	80000b14	fcdff0ef	jal	x1,80000b14	  x1=0x80000b14
       34535000	      3452	00000000	00000013	addi	x0,x0,0	  x0:0x00000000
       34545000	      3453	80000adc	00000013	addi	x0,x0,0	  x0:0x00000000
       34555000	      3454	80000ae0	03c000ef	jal	x1,80000ae0	  x1=0x80000ae0
       34565000	      3455	00000000	00000013	addi	x0,x0,0	  x0:0x00000000
       34575000	      3456	80000b18	00000013	addi	x0,x0,0	  x0:0x00000000
       34585000	      3457	80000b1c	ffdff1ef	jal	x3,80000b1c	  x3=0x80000b1c
       34595000	      3458	00000000	00000013	addi	x0,x0,0	  x0:0x00000000
       34605000	      3459	80000b14	00000013	addi	x0,x0,0	  x0:0x00000000
       34615000	      3460	80000b18	010000ef	jal	x1,80000b18	  x1=0x80000b18
       34625000	      3461	00000000	00000013	addi	x0,x0,0	  x0:0x00000000
       34635000	      3462	80000b24	00000013	addi	x0,x0,0	  x0:0x00000000
       34645000	      3463	80000b28	fa9ff1ef	jal	x3,80000b28	  x3=0x80000b28
       34655000	      3464	00000000	00000013	addi	x0,x0,0	  x0:0x00000000
       34665000	      3465	80000acc	00000013	addi	x0,x0,0	  x0:0x00000000
       34675000	      3466	80000ad0	00c0036f	jal	x6,80000ad0	  x6=0x80000ad0
       34685000	      3467	00000000	00000013	addi	x0,x0,0	  x0:0x00000000
       34695000	      3468	80000ad8	00000013	addi	x0,x0,0	  x0:0x00000000
       34705000	      3469	80000adc	01c000ef	jal	x1,80000adc	  x1=0x80000adc
       34715000	      3470	00000000	00000013	addi	x0,x0,0	  x0:0x00000000
       34725000	      3471	80000af4	00000013	addi	x0,x0,0	  x0:0x00000000
       34735000	      3472	80000af8	038000ef	jal	x1,80000af8	  x1=0x80000af8
       34745000	      3473	00000000	00000013	addi	x0,x0,0	  x0:0x00000000
       34755000	      3474	80000b2c	00000013	addi	x0,x0,0	  x0:0x00000000
       34765000	      3475	80000b30	f9dff36f	jal	x6,80000b30	  x6=0x80000b30
       34775000	      3476	00000000	00000013	addi	x0,x0,0	  x0:0x00000000
       34785000	      3477	80000ac8	00000013	addi	x0,x0,0	  x0:0x00000000
       34795000	      3478	80000acc	06800a6f	jal	x20,80000acc	 x20=0x80000acc
       34805000	      3479	00000000	00000013	addi	x0,x0,0	  x0:0x00000000
       34815000	      3480	80000b30	00000013	addi	x0,x0,0	  x0:0x00000000
       34825000	      3481	80000b34	00d639b3	sltu	x19,x12,x13	 x12:0xd4438000 x13:0x80000a60 x19=0x00000000
       34835000	      3482	80000b38	030000ef	jal	x1,80000b38	  x1=0x80000b38
       34845000	      3483	00000000	00000013	addi	x0,x0,0	  x0:0x00000000
       34855000	      3484	80000b64	00000013	addi	x0,x0,0	  x0:0x00000000
       34865000	      3485	80000b68	fe1ff0ef	jal	x1,80000b68	  x1=0x80000b68
       34875000	      3486	00000000	00000013	addi	x0,x0,0	  x0:0x00000000
       34885000	      3487	80000b44	00000013	addi	x0,x0,0	  x0:0x00000000
       34895000	      3488	80000b48	024000ef	jal	x1,80000b48	  x1=0x80000b48
       34905000	      3489	00000000	00000013	addi	x0,x0,0	  x0:0x00000000
       34915000	      3490	80000b68	00000013	addi	x0,x0,0	  x0:0x00000000
       34925000	      3491	80000b6c	008000ef	jal	x1,80000b6c	  x1=0x80000b6c
       34935000	      3492	00000000	00000013	addi	x0,x0,0	  x0:0x00000000
       34945000	      3493	80000b70	00000013	addi	x0,x0,0	  x0:0x00000000
       34955000	      3494	80000b74	fe1fff6f	jal	x30,80000b74	 x30=0x80000b74
       34965000	      3495	00000000	00000013	addi	x0,x0,0	  x0:0x00000000
       34975000	      3496	80000b50	00000013	addi	x0,x0,0	  x0:0x00000000
       34985000	      3497	80000b54	024000ef	jal	x1,80000b54	  x1=0x80000b54
       34995000	      3498	00000000	00000013	addi	x0,x0,0	  x0:0x00000000
       35005000	      3499	80000b74	00000013	addi	x0,x0,0	  x0:0x00000000
       35015000	      3500	80000b78	fe9ff9ef	jal	x19,80000b78	 x19=0x80000b78
       35025000	      3501	00000000	00000013	addi	x0,x0,0	  x0:0x00000000
       35035000	      3502	80000b5c	00000013	addi	x0,x0,0	  x0:0x00000000
       35045000	      3503	80000b60	ffdfff6f	jal	x30,80000b60	 x30=0x80000b60
       35055000	      3504	00000000	00000013	addi	x0,x0,0	  x0:0x00000000
       35065000	      3505	80000b58	00000013	addi	x0,x0,0	  x0:0x00000000
       35075000	      3506	80000b5c	fe9ff0ef	jal	x1,80000b5c	  x1=0x80000b5c
       35085000	      3507	00000000	00000013	addi	x0,x0,0	  x0:0x00000000
       35095000	      3508	80000b40	00000013	addi	x0,x0,0	  x0:0x00000000
       35105000	      3509	80000b44	ffdff0ef	jal	x1,80000b44	  x1=0x80000b44
       35115000	      3510	00000000	00000013	addi	x0,x0,0	  x0:0x00000000
       35125000	      3511	80000b3c	00000013	addi	x0,x0,0	  x0:0x00000000
       35135000	      3512	80000b40	00c004ef	jal	x9,80000b40	  x9=0x80000b40
       35145000	      3513	00000000	00000013	addi	x0,x0,0	  x0:0x00000000
       35155000	      3514	80000b48	00000013	addi	x0,x0,0	  x0:0x00000000
       35165000	      3515	80000b4c	024000ef	jal	x1,80000b4c	  x1=0x80000b4c
       35175000	      3516	00000000	00000013	addi	x0,x0,0	  x0:0x00000000
       35185000	      3517	80000b6c	00000013	addi	x0,x0,0	  x0:0x00000000
       35195000	      3518	80000b70	fe1ff0ef	jal	x1,80000b70	  x1=0x80000b70
       35205000	      3519	00000000	00000013	addi	x0,x0,0	  x0:0x00000000
       35215000	      3520	80000b4c	00000013	addi	x0,x0,0	  x0:0x00000000
       35225000	      3521	80000b50	0080036f	jal	x6,80000b50	  x6=0x80000b50
       35235000	      3522	00000000	00000013	addi	x0,x0,0	  x0:0x00000000
       35245000	      3523	80000b54	00000013	addi	x0,x0,0	  x0:0x00000000
       35255000	      3524	80000b58	00c000ef	jal	x1,80000b58	  x1=0x80000b58
       35265000	      3525	00000000	00000013	addi	x0,x0,0	  x0:0x00000000
       35275000	      3526	80000b60	00000013	addi	x0,x0,0	  x0:0x00000000
       35285000	      3527	80000b64	fd9ff0ef	jal	x1,80000b64	  x1=0x80000b64
       35295000	      3528	00000000	00000013	addi	x0,x0,0	  x0:0x00000000
       35305000	      3529	80000b38	00000013	addi	x0,x0,0	  x0:0x00000000
       35315000	      3530	80000b3c	0400036f	jal	x6,80000b3c	  x6=0x80000b3c
       35325000	      3531	00000000	00000013	addi	x0,x0,0	  x0:0x00000000
       35335000	      3532	80000b78	00000013	addi	x0,x0,0	  x0:0x00000000
       35345000	      3533	80000b7c	00749293	slli	x5,x9,0x7	  x9:0x80000b40  x5=0x0005a000
       35355000	      3534	80000b80	014000ef	jal	x1,80000b80	  x1=0x80000b80
       35365000	      3535	00000000	00000013	addi	x0,x0,0	  x0:0x00000000
       35375000	      3536	80000b90	00000013	addi	x0,x0,0	  x0:0x00000000
       35385000	      3537	80000b94	00c000ef	jal	x1,80000b94	  x1=0x80000b94
       35395000	      3538	00000000	00000013	addi	x0,x0,0	  x0:0x00000000
       35405000	      3539	80000b9c	00000013	addi	x0,x0,0	  x0:0x00000000
       35415000	      3540	80000ba0	ff9ff0ef	jal	x1,80000ba0	  x1=0x80000ba0
       35425000	      3541	00000000	00000013	addi	x0,x0,0	  x0:0x00000000
       35435000	      3542	80000b94	00000013	addi	x0,x0,0	  x0:0x00000000
       35445000	      3543	80000b98	030000ef	jal	x1,80000b98	  x1=0x80000b98
       35455000	      3544	00000000	00000013	addi	x0,x0,0	  x0:0x00000000
       35465000	      3545	80000bc4	00000013	addi	x0,x0,0	  x0:0x00000000
       35475000	      3546	80000bc8	ff1ff0ef	jal	x1,80000bc8	  x1=0x80000bc8
       35485000	      3547	00000000	00000013	addi	x0,x0,0	  x0:0x00000000
       35495000	      3548	80000bb4	00000013	addi	x0,x0,0	  x0:0x00000000
       35505000	      3549	80000bb8	0200036f	jal	x6,80000bb8	  x6=0x80000bb8
       35515000	      3550	00000000	00000013	addi	x0,x0,0	  x0:0x00000000
       35525000	      3551	80000bd4	00000013	addi	x0,x0,0	  x0:0x00000000
       35535000	      3552	80000bd8	fc5ff26f	jal	x4,80000bd8	  x4=0x80000bd8
       35545000	      3553	00000000	00000013	addi	x0,x0,0	  x0:0x00000000
       35555000	      3554	80000b98	00000013	addi	x0,x0,0	  x0:0x00000000
       35565000	      3555	80000b9c	0340036f	jal	x6,80000b9c	  x6=0x80000b9c
       35575000	      3556	00000000	00000013	addi	x0,x0,0	  x0:0x00000000
       35585000	      3557	80000bcc	00000013	addi	x0,x0,0	  x0:0x00000000
       35595000	      3558	80000bd0	fd9ff86f	jal	x16,80000bd0	 x16=0x80000bd0
       35605000	      3559	00000000	00000013	addi	x0,x0,0	  x0:0x00000000
       35615000	      3560	80000ba4	00000013	addi	x0,x0,0	  x0:0x00000000
       35625000	      3561	80000ba8	fe1ff0ef	jal	x1,80000ba8	  x1=0x80000ba8
       35635000	      3562	00000000	00000013	addi	x0,x0,0	  x0:0x00000000
       35645000	      3563	80000b84	00000013	addi	x0,x0,0	  x0:0x00000000
       35655000	      3564	80000b88	04c000ef	jal	x1,80000b88	  x1=0x80000b88
       35665000	      3565	00000000	00000013	addi	x0,x0,0	  x0:0x00000000
       35675000	      3566	80000bd0	00000013	addi	x0,x0,0	  x0:0x00000000
       35685000	      3567	80000bd4	fd9fff6f	jal	x30,80000bd4	 x30=0x80000bd4
       35695000	      3568	00000000	00000013	addi	x0,x0,0	  x0:0x00000000
       35705000	      3569	80000ba8	00000013	addi	x0,x0,0	  x0:0x00000000
       35715000	      3570	80000bac	ff9ff0ef	jal	x1,80000bac	  x1=0x80000bac
       35725000	      3571	00000000	00000013	addi	x0,x0,0	  x0:0x00000000
       35735000	      3572	80000ba0	00000013	addi	x0,x0,0	  x0:0x00000000
       35745000	      3573	80000ba4	fedff0ef	jal	x1,80000ba4	  x1=0x80000ba4
       35755000	      3574	00000000	00000013	addi	x0,x0,0	  x0:0x00000000
       35765000	      3575	80000b8c	00000013	addi	x0,x0,0	  x0:0x00000000
       35775000	      3576	80000b90	0300036f	jal	x6,80000b90	  x6=0x80000b90
       35785000	      3577	00000000	00000013	addi	x0,x0,0	  x0:0x00000000
       35795000	      3578	80000bbc	00000013	addi	x0,x0,0	  x0:0x00000000
       35805000	      3579	80000bc0	fc5ff0ef	jal	x1,80000bc0	  x1=0x80000bc0
       35815000	      3580	00000000	00000013	addi	x0,x0,0	  x0:0x00000000
       35825000	      3581	80000b80	00000013	addi	x0,x0,0	  x0:0x00000000
       35835000	      3582	80000b84	040001ef	jal	x3,80000b84	  x3=0x80000b84
       35845000	      3583	00000000	00000013	addi	x0,x0,0	  x0:0x00000000
       35855000	      3584	80000bc0	00000013	addi	x0,x0,0	  x0:0x00000000
       35865000	      3585	80000bc4	018000ef	jal	x1,80000bc4	  x1=0x80000bc4
       35875000	      3586	00000000	00000013	addi	x0,x0,0	  x0:0x00000000
       35885000	      3587	80000bd8	00000013	addi	x0,x0,0	  x0:0x00000000
       35895000	      3588	80000bdc	fb1ff36f	jal	x6,80000bdc	  x6=0x80000bdc
       35905000	      3589	00000000	00000013	addi	x0,x0,0	  x0:0x00000000
       35915000	      3590	80000b88	00000013	addi	x0,x0,0	  x0:0x00000000
       35925000	      3591	80000b8c	030000ef	jal	x1,80000b8c	  x1=0x80000b8c
       35935000	      3592	00000000	00000013	addi	x0,x0,0	  x0:0x00000000
       35945000	      3593	80000bb8	00000013	addi	x0,x0,0	  x0:0x00000000
       35955000	      3594	80000bbc	ff9ff0ef	jal	x1,80000bbc	  x1=0x80000bbc
       35965000	      3595	00000000	00000013	addi	x0,x0,0	  x0:0x00000000
       35975000	      3596	80000bb0	00000013	addi	x0,x0,0	  x0:0x00000000
       35985000	      3597	80000bb4	01800e6f	jal	x28,80000bb4	 x28=0x80000bb4
       35995000	      3598	00000000	00000013	addi	x0,x0,0	  x0:0x00000000
       36005000	      3599	80000bc8	00000013	addi	x0,x0,0	  x0:0x00000000
       36015000	      3600	80000bcc	fe5ff0ef	jal	x1,80000bcc	  x1=0x80000bcc
       36025000	      3601	00000000	00000013	addi	x0,x0,0	  x0:0x00000000
       36035000	      3602	80000bac	00000013	addi	x0,x0,0	  x0:0x00000000
       36045000	      3603	80000bb0	030000ef	jal	x1,80000bb0	  x1=0x80000bb0
       36055000	      3604	00000000	00000013	addi	x0,x0,0	  x0:0x00000000
       36065000	      3605	80000bdc	00000013	addi	x0,x0,0	  x0:0x00000000
       36075000	      3606	80000be0	01835db3	srl	x27,x6,x24	  x6:0x80000bdc x24:0x800009f4 x27=0x00000800
       36085000	      3607	80000be4	014000ef	jal	x1,80000be4	  x1=0x80000be4
       36095000	      3608	00000000	00000013	addi	x0,x0,0	  x0:0x00000000
       36105000	      3609	80000bf4	00000013	addi	x0,x0,0	  x0:0x00000000
       36115000	      3610	80000bf8	ff9ff36f	jal	x6,80000bf8	  x6=0x80000bf8
       36125000	      3611	00000000	00000013	addi	x0,x0,0	  x0:0x00000000
       36135000	      3612	80000bec	00000013	addi	x0,x0,0	  x0:0x00000000
       36145000	      3613	80000bf0	02c000ef	jal	x1,80000bf0	  x1=0x80000bf0
       36155000	      3614	00000000	00000013	addi	x0,x0,0	  x0:0x00000000
       36165000	      3615	80000c18	00000013	addi	x0,x0,0	  x0:0x00000000
       36175000	      3616	80000c1c	fedffe6f	jal	x28,80000c1c	 x28=0x80000c1c
       36185000	      3617	00000000	00000013	addi	x0,x0,0	  x0:0x00000000
       36195000	      3618	80000c04	00000013	addi	x0,x0,0	  x0:0x00000000
       36205000	      3619	80000c08	ffdff0ef	jal	x1,80000c08	  x1=0x80000c08
       36215000	      3620	00000000	00000013	addi	x0,x0,0	  x0:0x00000000
       36225000	      3621	80000c00	00000013	addi	x0,x0,0	  x0:0x00000000
       36235000	      3622	80000c04	fe9ff46f	jal	x8,80000c04	  x8=0x80000c04
       36245000	      3623	00000000	00000013	addi	x0,x0,0	  x0:0x00000000
       36255000	      3624	80000be8	00000013	addi	x0,x0,0	  x0:0x00000000
       36265000	      3625	80000bec	020000ef	jal	x1,80000bec	  x1=0x80000bec
       36275000	      3626	00000000	00000013	addi	x0,x0,0	  x0:0x00000000
       36285000	      3627	80000c08	00000013	addi	x0,x0,0	  x0:0x00000000
       36295000	      3628	80000c0c	004000ef	jal	x1,80000c0c	  x1=0x80000c0c
       36305000	      3629	00000000	00000013	addi	x0,x0,0	  x0:0x00000000
       36315000	      3630	80000c0c	00000013	addi	x0,x0,0	  x0:0x00000000
       36325000	      3631	80000c10	01c000ef	jal	x1,80000c10	  x1=0x80000c10
       36335000	      3632	00000000	00000013	addi	x0,x0,0	  x0:0x00000000
       36345000	      3633	80000c28	00000013	addi	x0,x0,0	  x0:0x00000000
       36355000	      3634	80000c2c	ffdff96f	jal	x18,80000c2c	 x18=0x80000c2c
       36365000	      3635	00000000	00000013	addi	x0,x0,0	  x0:0x00000000
       36375000	      3636	80000c24	00000013	addi	x0,x0,0	  x0:0x00000000
       36385000	      3637	80000c28	fd5ff36f	jal	x6,80000c28	  x6=0x80000c28
       36395000	      3638	00000000	00000013	addi	x0,x0,0	  x0:0x00000000
       36405000	      3639	80000bf8	00000013	addi	x0,x0,0	  x0:0x00000000
       36415000	      3640	80000bfc	01c000ef	jal	x1,80000bfc	  x1=0x80000bfc
       36425000	      3641	00000000	00000013	addi	x0,x0,0	  x0:0x00000000
       36435000	      3642	80000c14	00000013	addi	x0,x0,0	  x0:0x00000000
       36445000	      3643	80000c18	01800c6f	jal	x24,80000c18	 x24=0x80000c18
       36455000	      3644	00000000	00000013	addi	x0,x0,0	  x0:0x00000000
       36465000	      3645	80000c2c	00000013	addi	x0,x0,0	  x0:0x00000000
       36475000	      3646	80000c30	ff5ff9ef	jal	x19,80000c30	 x19=0x80000c30
       36485000	      3647	00000000	00000013	addi	x0,x0,0	  x0:0x00000000
       36495000	      3648	80000c20	00000013	addi	x0,x0,0	  x0:0x00000000
       36505000	      3649	80000c24	fc5ff0ef	jal	x1,80000c24	  x1=0x80000c24
       36515000	      3650	00000000	00000013	addi	x0,x0,0	  x0:0x00000000
       36525000	      3651	80000be4	00000013	addi	x0,x0,0	  x0:0x00000000
       36535000	      3652	80000be8	02c0036f	jal	x6,80000be8	  x6=0x80000be8
       36545000	      3653	00000000	00000013	addi	x0,x0,0	  x0:0x00000000
       36555000	      3654	80000c10	00000013	addi	x0,x0,0	  x0:0x00000000
       36565000	      3655	80000c14	fe1ff9ef	jal	x19,80000c14	 x19=0x80000c14
       36575000	      3656	00000000	00000013	addi	x0,x0,0	  x0:0x00000000
       36585000	      3657	80000bf0	00000013	addi	x0,x0,0	  x0:0x00000000
       36595000	      3658	80000bf4	00c000ef	jal	x1,80000bf4	  x1=0x80000bf4
       36605000	      3659	00000000	00000013	addi	x0,x0,0	  x0:0x00000000
       36615000	      3660	80000bfc	00000013	addi	x0,x0,0	  x0:0x00000000
       36625000	      3661	80000c00	020004ef	jal	x9,80000c00	  x9=0x80000c00
       36635000	      3662	00000000	00000013	addi	x0,x0,0	  x0:0x00000000
       36645000	      3663	80000c1c	00000013	addi	x0,x0,0	  x0:0x00000000
       36655000	      3664	80000c20	014000ef	jal	x1,80000c20	  x1=0x80000c20
       36665000	      3665	00000000	00000013	addi	x0,x0,0	  x0:0x00000000
       36675000	      3666	80000c30	00000013	addi	x0,x0,0	  x0:0x00000000
       36685000	      3667	80000c34	00139133	sll	x2,x7,x1	  x7:0xfffffcd6  x1:0x80000c20  x2=0xfffffcd6
       36695000	      3668	80000c38	034000ef	jal	x1,80000c38	  x1=0x80000c38
       36705000	      3669	00000000	00000013	addi	x0,x0,0	  x0:0x00000000
       36715000	      3670	80000c68	00000013	addi	x0,x0,0	  x0:0x00000000
       36725000	      3671	80000c6c	fe5ffcef	jal	x25,80000c6c	 x25=0x80000c6c
       36735000	      3672	00000000	00000013	addi	x0,x0,0	  x0:0x00000000
       36745000	      3673	80000c4c	00000013	addi	x0,x0,0	  x0:0x00000000
       36755000	      3674	80000c50	020000ef	jal	x1,80000c50	  x1=0x80000c50
       36765000	      3675	00000000	00000013	addi	x0,x0,0	  x0:0x00000000
       36775000	      3676	80000c6c	00000013	addi	x0,x0,0	  x0:0x00000000
       36785000	      3677	80000c70	0180036f	jal	x6,80000c70	  x6=0x80000c70
       36795000	      3678	00000000	00000013	addi	x0,x0,0	  x0:0x00000000
       36805000	      3679	80000c84	00000013	addi	x0,x0,0	  x0:0x00000000
       36815000	      3680	80000c88	01800f6f	jal	x30,80000c88	 x30=0x80000c88
       36825000	      3681	00000000	00000013	addi	x0,x0,0	  x0:0x00000000
       36835000	      3682	80000c9c	00000013	addi	x0,x0,0	  x0:0x00000000
       36845000	      3683	80000ca0	004001ef	jal	x3,80000ca0	  x3=0x80000ca0
       36855000	      3684	00000000	00000013	addi	x0,x0,0	  x0:0x00000000
       36865000	      3685	80000ca0	00000013	addi	x0,x0,0	  x0:0x00000000
       36875000	      3686	80000ca4	fc1ff36f	jal	x6,80000ca4	  x6=0x80000ca4
       36885000	      3687	00000000	00000013	addi	x0,x0,0	  x0:0x00000000
       36895000	      3688	80000c60	00000013	addi	x0,x0,0	  x0:0x00000000
       36905000	      3689	80000c64	038004ef	jal	x9,80000c64	  x9=0x80000c64
       36915000	      3690	00000000	00000013	addi	x0,x0,0	  x0:0x00000000
       36925000	      3691	80000c98	00000013	addi	x0,x0,0	  x0:0x00000000
       36935000	      3692	80000c9c	fb9ff0ef	jal	x1,80000c9c	  x1=0x80000c9c
       36945000	      3693	00000000	00000013	addi	x0,x0,0	  x0:0x00000000
       36955000	      3694	80000c50	00000013	addi	x0,x0,0	  x0:0x00000000
       36965000	      3695	80000c54	054001ef	jal	x3,80000c54	  x3=0x80000c54
       36975000	      3696	00000000	00000013	addi	x0,x0,0	  x0:0x00000000
       36985000	      3697	80000ca4	00000013	addi	x0,x0,0	  x0:0x00000000
       36995000	      3698	80000ca8	fd9ff36f	jal	x6,80000ca8	  x6=0x80000ca8
       37005000	      3699	00000000	00000013	addi	x0,x0,0	  x0:0x00000000
       37015000	      3700	80000c7c	00000013	addi	x0,x0,0	  x0:0x00000000
       37025000	      3701	80000c80	fddff36f	jal	x6,80000c80	  x6=0x80000c80
       37035000	      3702	00000000	00000013	addi	x0,x0,0	  x0:0x00000000
       37045000	      3703	80000c58	00000013	addi	x0,x0,0	  x0:0x00000000
       37055000	      3704	80000c5c	fe9ff36f	jal	x6,80000c5c	  x6=0x80000c5c
       37065000	      3705	00000000	00000013	addi	x0,x0,0	  x0:0x00000000
       37075000	      3706	80000c40	00000013	addi	x0,x0,0	  x0:0x00000000
       37085000	      3707	80000c44	ffdffb6f	jal	x22,80000c44	 x22=0x80000c44
       37095000	      3708	00000000	00000013	addi	x0,x0,0	  x0:0x00000000
       37105000	      3709	80000c3c	00000013	addi	x0,x0,0	  x0:0x00000000
       37115000	      3710	80000c40	02000c6f	jal	x24,80000c40	 x24=0x80000c40
       37125000	      3711	00000000	00000013	addi	x0,x0,0	  x0:0x00000000
       37135000	      3712	80000c5c	00000013	addi	x0,x0,0	  x0:0x00000000
       37145000	      3713	80000c60	00800d6f	jal	x26,80000c60	 x26=0x80000c60
       37155000	      3714	00000000	00000013	addi	x0,x0,0	  x0:0x00000000
       37165000	      3715	80000c64	00000013	addi	x0,x0,0	  x0:0x00000000
       37175000	      3716	80000c68	030000ef	jal	x1,80000c68	  x1=0x80000c68
       37185000	      3717	00000000	00000013	addi	x0,x0,0	  x0:0x00000000
       37195000	      3718	80000c94	00000013	addi	x0,x0,0	  x0:0x00000000
       37205000	      3719	80000c98	fa5ff0ef	jal	x1,80000c98	  x1=0x80000c98
       37215000	      3720	00000000	00000013	addi	x0,x0,0	  x0:0x00000000
       37225000	      3721	80000c38	00000013	addi	x0,x0,0	  x0:0x00000000
       37235000	      3722	80000c3c	03c0036f	jal	x6,80000c3c	  x6=0x80000c3c
       37245000	      3723	00000000	00000013	addi	x0,x0,0	  x0:0x00000000
       37255000	      3724	80000c74	00000013	addi	x0,x0,0	  x0:0x00000000
       37265000	      3725	80000c78	01c000ef	jal	x1,80000c78	  x1=0x80000c78
       37275000	      3726	00000000	00000013	addi	x0,x0,0	  x0:0x00000000
       37285000	      3727	80000c90	00000013	addi	x0,x0,0	  x0:0x00000000
       37295000	      3728	80000c94	ff9ff36f	jal	x6,80000c94	  x6=0x80000c94
       37305000	      3729	00000000	00000013	addi	x0,x0,0	  x0:0x00000000
       37315000	      3730	80000c88	00000013	addi	x0,x0,0	  x0:0x00000000
       37325000	      3731	80000c8c	fcdff0ef	jal	x1,80000c8c	  x1=0x80000c8c
       37335000	      3732	00000000	00000013	addi	x0,x0,0	  x0:0x00000000
       37345000	      3733	80000c54	00000013	addi	x0,x0,0	  x0:0x00000000
       37355000	      3734	80000c58	0380036f	jal	x6,80000c58	  x6=0x80000c58
       37365000	      3735	00000000	00000013	addi	x0,x0,0	  x0:0x00000000
       37375000	      3736	80000c8c	00000013	addi	x0,x0,0	  x0:0x00000000
       37385000	      3737	80000c90	fe5ff0ef	jal	x1,80000c90	  x1=0x80000c90
       37395000	      3738	00000000	00000013	addi	x0,x0,0	  x0:0x00000000
       37405000	      3739	80000c70	00000013	addi	x0,x0,0	  x0:0x00000000
       37415000	      3740	80000c74	010008ef	jal	x17,80000c74	 x17=0x80000c74
       37425000	      3741	00000000	00000013	addi	x0,x0,0	  x0:0x00000000
       37435000	      3742	80000c80	00000013	addi	x0,x0,0	  x0:0x00000000
       37445000	      3743	80000c84	ff9ff0ef	jal	x1,80000c84	  x1=0x80000c84
       37455000	      3744	00000000	00000013	addi	x0,x0,0	  x0:0x00000000
       37465000	      3745	80000c78	00000013	addi	x0,x0,0	  x0:0x00000000
       37475000	      3746	80000c7c	fd1ff36f	jal	x6,80000c7c	  x6=0x80000c7c
       37485000	      3747	00000000	00000013	addi	x0,x0,0	  x0:0x00000000
       37495000	      3748	80000c48	00000013	addi	x0,x0,0	  x0:0x00000000
       37505000	      3749	80000c4c	ffdff0ef	jal	x1,80000c4c	  x1=0x80000c4c
       37515000	      3750	00000000	00000013	addi	x0,x0,0	  x0:0x00000000
       37525000	      3751	80000c44	00000013	addi	x0,x0,0	  x0:0x00000000
       37535000	      3752	80000c48	0640036f	jal	x6,80000c48	  x6=0x80000c48
       37545000	      3753	00000000	00000013	addi	x0,x0,0	  x0:0x00000000
       37555000	      3754	80000ca8	00000013	addi	x0,x0,0	  x0:0x00000000
       37565000	      3755	80000cac	4060d333	sra	x6,x1,x6	  x1:0x80000c4c  x6:0x80000c48  x6=0xff80000c
       37575000	      3756	80000cb0	054000ef	jal	x1,80000cb0	  x1=0x80000cb0
       37585000	      3757	00000000	00000013	addi	x0,x0,0	  x0:0x00000000
       37595000	      3758	80000d00	00000013	addi	x0,x0,0	  x0:0x00000000
       37605000	      3759	80000d04	ff9ff36f	jal	x6,80000d04	  x6=0x80000d04
       37615000	      3760	00000000	00000013	addi	x0,x0,0	  x0:0x00000000
       37625000	      3761	80000cf8	00000013	addi	x0,x0,0	  x0:0x00000000
       37635000	      3762	80000cfc	fc9fff6f	jal	x30,80000cfc	 x30=0x80000cfc
       37645000	      3763	00000000	00000013	addi	x0,x0,0	  x0:0x00000000
       37655000	      3764	80000cc0	00000013	addi	x0,x0,0	  x0:0x00000000
       37665000	      3765	80000cc4	054000ef	jal	x1,80000cc4	  x1=0x80000cc4
       37675000	      3766	00000000	00000013	addi	x0,x0,0	  x0:0x00000000
       37685000	      3767	80000d14	00000013	addi	x0,x0,0	  x0:0x00000000
       37695000	      3768	80000d18	fd9ff0ef	jal	x1,80000d18	  x1=0x80000d18
       37705000	      3769	00000000	00000013	addi	x0,x0,0	  x0:0x00000000
       37715000	      3770	80000cec	00000013	addi	x0,x0,0	  x0:0x00000000
       37725000	      3771	80000cf0	fd9ff36f	jal	x6,80000cf0	  x6=0x80000cf0
       37735000	      3772	00000000	00000013	addi	x0,x0,0	  x0:0x00000000
       37745000	      3773	80000cc4	00000013	addi	x0,x0,0	  x0:0x00000000
       37755000	      3774	80000cc8	0600036f	jal	x6,80000cc8	  x6=0x80000cc8
       37765000	      3775	00000000	00000013	addi	x0,x0,0	  x0:0x00000000
       37775000	      3776	80000d24	00000013	addi	x0,x0,0	  x0:0x00000000
       37785000	      3777	80000d28	f99ff36f	jal	x6,80000d28	  x6=0x80000d28
       37795000	      3778	00000000	00000013	addi	x0,x0,0	  x0:0x00000000
       37805000	      3779	80000cbc	00000013	addi	x0,x0,0	  x0:0x00000000
       37815000	      3780	80000cc0	0180036f	jal	x6,80000cc0	  x6=0x80000cc0
       37825000	      3781	00000000	00000013	addi	x0,x0,0	  x0:0x00000000
       37835000	      3782	80000cd4	00000013	addi	x0,x0,0	  x0:0x00000000
       37845000	      3783	80000cd8	038000ef	jal	x1,80000cd8	  x1=0x80000cd8
       37855000	      3784	00000000	00000013	addi	x0,x0,0	  x0:0x00000000
       37865000	      3785	80000d0c	00000013	addi	x0,x0,0	  x0:0x00000000
       37875000	      3786	80000d10	ff1ff36f	jal	x6,80000d10	  x6=0x80000d10
       37885000	      3787	00000000	00000013	addi	x0,x0,0	  x0:0x00000000
       37895000	      3788	80000cfc	00000013	addi	x0,x0,0	  x0:0x00000000
       37905000	      3789	80000d00	fb5ff0ef	jal	x1,80000d00	  x1=0x80000d00
       37915000	      3790	00000000	00000013	addi	x0,x0,0	  x0:0x00000000
       37925000	      3791	80000cb0	00000013	addi	x0,x0,0	  x0:0x00000000
       37935000	      3792	80000cb4	018000ef	jal	x1,80000cb4	  x1=0x80000cb4
       37945000	      3793	00000000	00000013	addi	x0,x0,0	  x0:0x00000000
       37955000	      3794	80000cc8	00000013	addi	x0,x0,0	  x0:0x00000000
       37965000	      3795	80000ccc	050000ef	jal	x1,80000ccc	  x1=0x80000ccc
       37975000	      3796	00000000	00000013	addi	x0,x0,0	  x0:0x00000000
       37985000	      3797	80000d18	00000013	addi	x0,x0,0	  x0:0x00000000
       37995000	      3798	80000d1c	ff9ffe6f	jal	x28,80000d1c	 x28=0x80000d1c
       38005000	      3799	00000000	00000013	addi	x0,x0,0	  x0:0x00000000
       38015000	      3800	80000d10	00000013	addi	x0,x0,0	  x0:0x00000000
       38025000	      3801	80000d14	fcdff0ef	jal	x1,80000d14	  x1=0x80000d14
       38035000	      3802	00000000	00000013	addi	x0,x0,0	  x0:0x00000000
       38045000	      3803	80000cdc	00000013	addi	x0,x0,0	  x0:0x00000000
       38055000	      3804	80000ce0	ffdff0ef	jal	x1,80000ce0	  x1=0x80000ce0
       38065000	      3805	00000000	00000013	addi	x0,x0,0	  x0:0x00000000
       38075000	      3806	80000cd8	00000013	addi	x0,x0,0	  x0:0x00000000
       38085000	      3807	80000cdc	fddff0ef	jal	x1,80000cdc	  x1=0x80000cdc
       38095000	      3808	00000000	00000013	addi	x0,x0,0	  x0:0x00000000
       38105000	      3809	80000cb4	00000013	addi	x0,x0,0	  x0:0x00000000
       38115000	      3810	80000cb8	0300036f	jal	x6,80000cb8	  x6=0x80000cb8
       38125000	      3811	00000000	00000013	addi	x0,x0,0	  x0:0x00000000
       38135000	      3812	80000ce4	00000013	addi	x0,x0,0	  x0:0x00000000
       38145000	      3813	80000ce8	ffdff0ef	jal	x1,80000ce8	  x1=0x80000ce8
       38155000	      3814	00000000	00000013	addi	x0,x0,0	  x0:0x00000000
       38165000	      3815	80000ce0	00000013	addi	x0,x0,0	  x0:0x00000000
       38175000	      3816	80000ce4	fedff36f	jal	x6,80000ce4	  x6=0x80000ce4
       38185000	      3817	00000000	00000013	addi	x0,x0,0	  x0:0x00000000
       38195000	      3818	80000ccc	00000013	addi	x0,x0,0	  x0:0x00000000
       38205000	      3819	80000cd0	fedff7ef	jal	x15,80000cd0	 x15=0x80000cd0
       38215000	      3820	00000000	00000013	addi	x0,x0,0	  x0:0x00000000
       38225000	      3821	80000cb8	00000013	addi	x0,x0,0	  x0:0x00000000
       38235000	      3822	80000cbc	0300016f	jal	x2,80000cbc	  x2=0x80000cbc
       38245000	      3823	00000000	00000013	addi	x0,x0,0	  x0:0x00000000
       38255000	      3824	80000ce8	00000013	addi	x0,x0,0	  x0:0x00000000
       38265000	      3825	80000cec	fe9ff86f	jal	x16,80000cec	 x16=0x80000cec
       38275000	      3826	00000000	00000013	addi	x0,x0,0	  x0:0x00000000
       38285000	      3827	80000cd0	00000013	addi	x0,x0,0	  x0:0x00000000
       38295000	      3828	80000cd4	024001ef	jal	x3,80000cd4	  x3=0x80000cd4
       38305000	      3829	00000000	00000013	addi	x0,x0,0	  x0:0x00000000
       38315000	      3830	80000cf4	00000013	addi	x0,x0,0	  x0:0x00000000
       38325000	      3831	80000cf8	02c0036f	jal	x6,80000cf8	  x6=0x80000cf8
       38335000	      3832	00000000	00000013	addi	x0,x0,0	  x0:0x00000000
       38345000	      3833	80000d20	00000013	addi	x0,x0,0	  x0:0x00000000
       38355000	      3834	80000d24	fd1ff0ef	jal	x1,80000d24	  x1=0x80000d24
       38365000	      3835	00000000	00000013	addi	x0,x0,0	  x0:0x00000000
       38375000	      3836	80000cf0	00000013	addi	x0,x0,0	  x0:0x00000000
       38385000	      3837	80000cf4	014000ef	jal	x1,80000cf4	  x1=0x80000cf4
       38395000	      3838	00000000	00000013	addi	x0,x0,0	  x0:0x00000000
       38405000	      3839	80000d04	00000013	addi	x0,x0,0	  x0:0x00000000
       38415000	      3840	80000d08	0040026f	jal	x4,80000d08	  x4=0x80000d08
       38425000	      3841	00000000	00000013	addi	x0,x0,0	  x0:0x00000000
       38435000	      3842	80000d08	00000013	addi	x0,x0,0	  x0:0x00000000
       38445000	      3843	80000d0c	014000ef	jal	x1,80000d0c	  x1=0x80000d0c
       38455000	      3844	00000000	00000013	addi	x0,x0,0	  x0:0x00000000
       38465000	      3845	80000d1c	00000013	addi	x0,x0,0	  x0:0x00000000
       38475000	      3846	80000d20	00c0036f	jal	x6,80000d20	  x6=0x80000d20
       38485000	      3847	00000000	00000013	addi	x0,x0,0	  x0:0x00000000
       38495000	      3848	80000d28	00000013	addi	x0,x0,0	  x0:0x00000000
       38505000	      3849	80000d2c	066f2e93	slti	x29,x30,102	 x30:0x80000cfc x29=0x00000001
       38515000	      3850	80000d30	01c000ef	jal	x1,80000d30	  x1=0x80000d30
       38525000	      3851	00000000	00000013	addi	x0,x0,0	  x0:0x00000000
       38535000	      3852	80000d48	00000013	addi	x0,x0,0	  x0:0x00000000
       38545000	      3853	80000d4c	00c000ef	jal	x1,80000d4c	  x1=0x80000d4c
       38555000	      3854	00000000	00000013	addi	x0,x0,0	  x0:0x00000000
       38565000	      3855	80000d54	00000013	addi	x0,x0,0	  x0:0x00000000
       38575000	      3856	80000d58	fe9ff36f	jal	x6,80000d58	  x6=0x80000d58
       38585000	      3857	00000000	00000013	addi	x0,x0,0	  x0:0x00000000
       38595000	      3858	80000d3c	00000013	addi	x0,x0,0	  x0:0x00000000
       38605000	      3859	80000d40	038000ef	jal	x1,80000d40	  x1=0x80000d40
       38615000	      3860	00000000	00000013	addi	x0,x0,0	  x0:0x00000000
       38625000	      3861	80000d74	00000013	addi	x0,x0,0	  x0:0x00000000
       38635000	      3862	80000d78	fd1ff46f	jal	x8,80000d78	  x8=0x80000d78
       38645000	      3863	00000000	00000013	addi	x0,x0,0	  x0:0x00000000
       38655000	      3864	80000d44	00000013	addi	x0,x0,0	  x0:0x00000000
       38665000	      3865	80000d48	02c0036f	jal	x6,80000d48	  x6=0x80000d48
       38675000	      3866	00000000	00000013	addi	x0,x0,0	  x0:0x00000000
       38685000	      3867	80000d70	00000013	addi	x0,x0,0	  x0:0x00000000
       38695000	      3868	80000d74	008000ef	jal	x1,80000d74	  x1=0x80000d74
       38705000	      3869	00000000	00000013	addi	x0,x0,0	  x0:0x00000000
       38715000	      3870	80000d78	00000013	addi	x0,x0,0	  x0:0x00000000
       38725000	      3871	80000d7c	fc9ff36f	jal	x6,80000d7c	  x6=0x80000d7c
       38735000	      3872	00000000	00000013	addi	x0,x0,0	  x0:0x00000000
       38745000	      3873	80000d40	00000013	addi	x0,x0,0	  x0:0x00000000
       38755000	      3874	80000d44	0280016f	jal	x2,80000d44	  x2=0x80000d44
       38765000	      3875	00000000	00000013	addi	x0,x0,0	  x0:0x00000000
       38775000	      3876	80000d68	00000013	addi	x0,x0,0	  x0:0x00000000
       38785000	      3877	80000d6c	fe5ff36f	jal	x6,80000d6c	  x6=0x80000d6c
       38795000	      3878	00000000	00000013	addi	x0,x0,0	  x0:0x00000000
       38805000	      3879	80000d4c	00000013	addi	x0,x0,0	  x0:0x00000000
       38815000	      3880	80000d50	00400eef	jal	x29,80000d50	 x29=0x80000d50
       38825000	      3881	00000000	00000013	addi	x0,x0,0	  x0:0x00000000
       38835000	      3882	80000d50	00000013	addi	x0,x0,0	  x0:0x00000000
       38845000	      3883	80000d54	fe5fff6f	jal	x30,80000d54	 x30=0x80000d54
       38855000	      3884	00000000	00000013	addi	x0,x0,0	  x0:0x00000000
       38865000	      3885	80000d34	00000013	addi	x0,x0,0	  x0:0x00000000
       38875000	      3886	80000d38	02c00c6f	jal	x24,80000d38	 x24=0x80000d38
       38885000	      3887	00000000	00000013	addi	x0,x0,0	  x0:0x00000000
       38895000	      3888	80000d60	00000013	addi	x0,x0,0	  x0:0x00000000
       38905000	      3889	80000d64	01c0076f	jal	x14,80000d64	 x14=0x80000d64
       38915000	      3890	00000000	00000013	addi	x0,x0,0	  x0:0x00000000
       38925000	      3891	80000d7c	00000013	addi	x0,x0,0	  x0:0x00000000
       38935000	      3892	80000d80	fe1ff0ef	jal	x1,80000d80	  x1=0x80000d80
       38945000	      3893	00000000	00000013	addi	x0,x0,0	  x0:0x00000000
       38955000	      3894	80000d5c	00000013	addi	x0,x0,0	  x0:0x00000000
       38965000	      3895	80000d60	fd5ff6ef	jal	x13,80000d60	 x13=0x80000d60
       38975000	      3896	00000000	00000013	addi	x0,x0,0	  x0:0x00000000
       38985000	      3897	80000d30	00000013	addi	x0,x0,0	  x0:0x00000000
       38995000	      3898	80000d34	034002ef	jal	x5,80000d34	  x5=0x80000d34
       39005000	      3899	00000000	00000013	addi	x0,x0,0	  x0:0x00000000
       39015000	      3900	80000d64	00000013	addi	x0,x0,0	  x0:0x00000000
       39025000	      3901	80000d68	fd5ffbef	jal	x23,80000d68	 x23=0x80000d68
       39035000	      3902	00000000	00000013	addi	x0,x0,0	  x0:0x00000000
       39045000	      3903	80000d38	00000013	addi	x0,x0,0	  x0:0x00000000
       39055000	      3904	80000d3c	0340036f	jal	x6,80000d3c	  x6=0x80000d3c
       39065000	      3905	00000000	00000013	addi	x0,x0,0	  x0:0x00000000
       39075000	      3906	80000d6c	00000013	addi	x0,x0,0	  x0:0x00000000
       39085000	      3907	80000d70	fedff36f	jal	x6,80000d70	  x6=0x80000d70
       39095000	      3908	00000000	00000013	addi	x0,x0,0	  x0:0x00000000
       39105000	      3909	80000d58	00000013	addi	x0,x0,0	  x0:0x00000000
       39115000	      3910	80000d5c	02800bef	jal	x23,80000d5c	 x23=0x80000d5c
       39125000	      3911	00000000	00000013	addi	x0,x0,0	  x0:0x00000000
       39135000	      3912	80000d80	00000013	addi	x0,x0,0	  x0:0x00000000
       39145000	      3913	80000d84	0040036f	jal	x6,80000d84	  x6=0x80000d84
       39155000	      3914	00000000	00000013	addi	x0,x0,0	  x0:0x00000000
       39165000	      3915	80000d84	00000013	addi	x0,x0,0	  x0:0x00000000
       39175000	      3916	80000d88	97ad1337	lui	x6,0x97ad1	  x6=0x97ad1000
       39185000	      3917	80000d8c	00c000ef	jal	x1,80000d8c	  x1=0x80000d8c
       39195000	      3918	00000000	00000013	addi	x0,x0,0	  x0:0x00000000
       39205000	      3919	80000d94	00000013	addi	x0,x0,0	  x0:0x00000000
       39215000	      3920	80000d98	044000ef	jal	x1,80000d98	  x1=0x80000d98
       39225000	      3921	00000000	00000013	addi	x0,x0,0	  x0:0x00000000
       39235000	      3922	80000dd8	00000013	addi	x0,x0,0	  x0:0x00000000
       39245000	      3923	80000ddc	014000ef	jal	x1,80000ddc	  x1=0x80000ddc
       39255000	      3924	00000000	00000013	addi	x0,x0,0	  x0:0x00000000
       39265000	      3925	80000dec	00000013	addi	x0,x0,0	  x0:0x00000000
       39275000	      3926	80000df0	fddff0ef	jal	x1,80000df0	  x1=0x80000df0
       39285000	      3927	00000000	00000013	addi	x0,x0,0	  x0:0x00000000
       39295000	      3928	80000dc8	00000013	addi	x0,x0,0	  x0:0x00000000
       39305000	      3929	80000dcc	02c0036f	jal	x6,80000dcc	  x6=0x80000dcc
       39315000	      3930	00000000	00000013	addi	x0,x0,0	  x0:0x00000000
       39325000	      3931	80000df4	00000013	addi	x0,x0,0	  x0:0x00000000
       39335000	      3932	80000df8	f99ff76f	jal	x14,80000df8	 x14=0x80000df8
       39345000	      3933	00000000	00000013	addi	x0,x0,0	  x0:0x00000000
       39355000	      3934	80000d8c	00000013	addi	x0,x0,0	  x0:0x00000000
       39365000	      3935	80000d90	058000ef	jal	x1,80000d90	  x1=0x80000d90
       39375000	      3936	00000000	00000013	addi	x0,x0,0	  x0:0x00000000
       39385000	      3937	80000de4	00000013	addi	x0,x0,0	  x0:0x00000000
       39395000	      3938	80000de8	004000ef	jal	x1,80000de8	  x1=0x80000de8
       39405000	      3939	00000000	00000013	addi	x0,x0,0	  x0:0x00000000
       39415000	      3940	80000de8	00000013	addi	x0,x0,0	  x0:0x00000000
       39425000	      3941	80000dec	ff9ff0ef	jal	x1,80000dec	  x1=0x80000dec
       39435000	      3942	00000000	00000013	addi	x0,x0,0	  x0:0x00000000
       39445000	      3943	80000de0	00000013	addi	x0,x0,0	  x0:0x00000000
       39455000	      3944	80000de4	fd1ff36f	jal	x6,80000de4	  x6=0x80000de4
       39465000	      3945	00000000	00000013	addi	x0,x0,0	  x0:0x00000000
       39475000	      3946	80000db0	00000013	addi	x0,x0,0	  x0:0x00000000
       39485000	      3947	80000db4	0200036f	jal	x6,80000db4	  x6=0x80000db4
       39495000	      3948	00000000	00000013	addi	x0,x0,0	  x0:0x00000000
       39505000	      3949	80000dd0	00000013	addi	x0,x0,0	  x0:0x00000000
       39515000	      3950	80000dd4	ff5ff0ef	jal	x1,80000dd4	  x1=0x80000dd4
       39525000	      3951	00000000	00000013	addi	x0,x0,0	  x0:0x00000000
       39535000	      3952	80000dc4	00000013	addi	x0,x0,0	  x0:0x00000000
       39545000	      3953	80000dc8	ff9ff36f	jal	x6,80000dc8	  x6=0x80000dc8
       39555000	      3954	00000000	00000013	addi	x0,x0,0	  x0:0x00000000
       39565000	      3955	80000dbc	00000013	addi	x0,x0,0	  x0:0x00000000
       39575000	      3956	80000dc0	fe5ff96f	jal	x18,80000dc0	 x18=0x80000dc0
       39585000	      3957	00000000	00000013	addi	x0,x0,0	  x0:0x00000000
       39595000	      3958	80000da0	00000013	addi	x0,x0,0	  x0:0x00000000
       39605000	      3959	80000da4	02c000ef	jal	x1,80000da4	  x1=0x80000da4
       39615000	      3960	00000000	00000013	addi	x0,x0,0	  x0:0x00000000
       39625000	      3961	80000dcc	00000013	addi	x0,x0,0	  x0:0x00000000
       39635000	      3962	80000dd0	fd1ff0ef	jal	x1,80000dd0	  x1=0x80000dd0
       39645000	      3963	00000000	00000013	addi	x0,x0,0	  x0:0x00000000
       39655000	      3964	80000d9c	00000013	addi	x0,x0,0	  x0:0x00000000
       39665000	      3965	80000da0	0240036f	jal	x6,80000da0	  x6=0x80000da0
       39675000	      3966	00000000	00000013	addi	x0,x0,0	  x0:0x00000000
       39685000	      3967	80000dc0	00000013	addi	x0,x0,0	  x0:0x00000000
       39695000	      3968	80000dc4	030000ef	jal	x1,80000dc4	  x1=0x80000dc4
       39705000	      3969	00000000	00000013	addi	x0,x0,0	  x0:0x00000000
       39715000	      3970	80000df0	00000013	addi	x0,x0,0	  x0:0x00000000
       39725000	      3971	80000df4	fb5ff0ef	jal	x1,80000df4	  x1=0x80000df4
       39735000	      3972	00000000	00000013	addi	x0,x0,0	  x0:0x00000000
       39745000	      3973	80000da4	00000013	addi	x0,x0,0	  x0:0x00000000
       39755000	      3974	80000da8	014000ef	jal	x1,80000da8	  x1=0x80000da8
       39765000	      3975	00000000	00000013	addi	x0,x0,0	  x0:0x00000000
       39775000	      3976	80000db8	00000013	addi	x0,x0,0	  x0:0x00000000
       39785000	      3977	80000dbc	01c000ef	jal	x1,80000dbc	  x1=0x80000dbc
       39795000	      3978	00000000	00000013	addi	x0,x0,0	  x0:0x00000000
       39805000	      3979	80000dd4	00000013	addi	x0,x0,0	  x0:0x00000000
       39815000	      3980	80000dd8	fd9ffd6f	jal	x26,80000dd8	 x26=0x80000dd8
       39825000	      3981	00000000	00000013	addi	x0,x0,0	  x0:0x00000000
       39835000	      3982	80000dac	00000013	addi	x0,x0,0	  x0:0x00000000
       39845000	      3983	80000db0	fedff36f	jal	x6,80000db0	  x6=0x80000db0
       39855000	      3984	00000000	00000013	addi	x0,x0,0	  x0:0x00000000
       39865000	      3985	80000d98	00000013	addi	x0,x0,0	  x0:0x00000000
       39875000	      3986	80000d9c	ff9ff36f	jal	x6,80000d9c	  x6=0x80000d9c
       39885000	      3987	00000000	00000013	addi	x0,x0,0	  x0:0x00000000
       39895000	      3988	80000d90	00000013	addi	x0,x0,0	  x0:0x00000000
       39905000	      3989	80000d94	0180036f	jal	x6,80000d94	  x6=0x80000d94
       39915000	      3990	00000000	00000013	addi	x0,x0,0	  x0:0x00000000
       39925000	      3991	80000da8	00000013	addi	x0,x0,0	  x0:0x00000000
       39935000	      3992	80000dac	00c000ef	jal	x1,80000dac	  x1=0x80000dac
       39945000	      3993	00000000	00000013	addi	x0,x0,0	  x0:0x00000000
       39955000	      3994	80000db4	00000013	addi	x0,x0,0	  x0:0x00000000
       39965000	      3995	80000db8	0280046f	jal	x8,80000db8	  x8=0x80000db8
       39975000	      3996	00000000	00000013	addi	x0,x0,0	  x0:0x00000000
       39985000	      3997	80000ddc	00000013	addi	x0,x0,0	  x0:0x00000000
       39995000	      3998	80000de0	01c000ef	jal	x1,80000de0	  x1=0x80000de0
       40005000	      3999	00000000	00000013	addi	x0,x0,0	  x0:0x00000000
       40015000	      4000	80000df8	00000013	addi	x0,x0,0	  x0:0x00000000
       40025000	      4001	80000dfc	a1fdf793	andi	x15,x27,-1505	 x27:0x00000800 x15=0x00000800
       40035000	      4002	80000e00	00c000ef	jal	x1,80000e00	  x1=0x80000e00
       40045000	      4003	00000000	00000013	addi	x0,x0,0	  x0:0x00000000
       40055000	      4004	80000e08	00000013	addi	x0,x0,0	  x0:0x00000000
       40065000	      4005	80000e0c	01c002ef	jal	x5,80000e0c	  x5=0x80000e0c
       40075000	      4006	00000000	00000013	addi	x0,x0,0	  x0:0x00000000
       40085000	      4007	80000e24	00000013	addi	x0,x0,0	  x0:0x00000000
       40095000	      4008	80000e28	03000b6f	jal	x22,80000e28	 x22=0x80000e28
       40105000	      4009	00000000	00000013	addi	x0,x0,0	  x0:0x00000000
       40115000	      4010	80000e54	00000013	addi	x0,x0,0	  x0:0x00000000
       40125000	      4011	80000e58	fddff0ef	jal	x1,80000e58	  x1=0x80000e58
       40135000	      4012	00000000	00000013	addi	x0,x0,0	  x0:0x00000000
       40145000	      4013	80000e30	00000013	addi	x0,x0,0	  x0:0x00000000
       40155000	      4014	80000e34	fddffc6f	jal	x24,80000e34	 x24=0x80000e34
       40165000	      4015	00000000	00000013	addi	x0,x0,0	  x0:0x00000000
       40175000	      4016	80000e0c	00000013	addi	x0,x0,0	  x0:0x00000000
       40185000	      4017	80000e10	014000ef	jal	x1,80000e10	  x1=0x80000e10
       40195000	      4018	00000000	00000013	addi	x0,x0,0	  x0:0x00000000
       40205000	      4019	80000e20	00000013	addi	x0,x0,0	  x0:0x00000000
       40215000	      4020	80000e24	044000ef	jal	x1,80000e24	  x1=0x80000e24
       40225000	      4021	00000000	00000013	addi	x0,x0,0	  x0:0x00000000
       40235000	      4022	80000e64	00000013	addi	x0,x0,0	  x0:0x00000000
       40245000	      4023	80000e68	fd5ff0ef	jal	x1,80000e68	  x1=0x80000e68
       40255000	      4024	00000000	00000013	addi	x0,x0,0	  x0:0x00000000
       40265000	      4025	80000e38	00000013	addi	x0,x0,0	  x0:0x00000000
       40275000	      4026	80000e3c	008000ef	jal	x1,80000e3c	  x1=0x80000e3c
       40285000	      4027	00000000	00000013	addi	x0,x0,0	  x0:0x00000000
       40295000	      4028	80000e40	00000013	addi	x0,x0,0	  x0:0x00000000
       40305000	      4029	80000e44	fddff0ef	jal	x1,80000e44	  x1=0x80000e44
       40315000	      4030	00000000	00000013	addi	x0,x0,0	  x0:0x00000000
       40325000	      4031	80000e1c	00000013	addi	x0,x0,0	  x0:0x00000000
       40335000	      4032	80000e20	0340036f	jal	x6,80000e20	  x6=0x80000e20
       40345000	      4033	00000000	00000013	addi	x0,x0,0	  x0:0x00000000
       40355000	      4034	80000e50	00000013	addi	x0,x0,0	  x0:0x00000000
       40365000	      4035	80000e54	ffdff2ef	jal	x5,80000e54	  x5=0x80000e54
       40375000	      4036	00000000	00000013	addi	x0,x0,0	  x0:0x00000000
       40385000	      4037	80000e4c	00000013	addi	x0,x0,0	  x0:0x00000000
       40395000	      4038	80000e50	fe9ff0ef	jal	x1,80000e50	  x1=0x80000e50
       40405000	      4039	00000000	00000013	addi	x0,x0,0	  x0:0x00000000
       40415000	      4040	80000e34	00000013	addi	x0,x0,0	  x0:0x00000000
       40425000	      4041	80000e38	010004ef	jal	x9,80000e38	  x9=0x80000e38
       40435000	      4042	00000000	00000013	addi	x0,x0,0	  x0:0x00000000
       40445000	      4043	80000e44	00000013	addi	x0,x0,0	  x0:0x00000000
       40455000	      4044	80000e48	fe9ff96f	jal	x18,80000e48	 x18=0x80000e48
       40465000	      4045	00000000	00000013	addi	x0,x0,0	  x0:0x00000000
       40475000	      4046	80000e2c	00000013	addi	x0,x0,0	  x0:0x00000000
       40485000	      4047	80000e30	0340036f	jal	x6,80000e30	  x6=0x80000e30
       40495000	      4048	00000000	00000013	addi	x0,x0,0	  x0:0x00000000
       40505000	      4049	80000e60	00000013	addi	x0,x0,0	  x0:0x00000000
       40515000	      4050	80000e64	fddff0ef	jal	x1,80000e64	  x1=0x80000e64
       40525000	      4051	00000000	00000013	addi	x0,x0,0	  x0:0x00000000
       40535000	      4052	80000e3c	00000013	addi	x0,x0,0	  x0:0x00000000
       40545000	      4053	80000e40	fedff0ef	jal	x1,80000e40	  x1=0x80000e40
       40555000	      4054	00000000	00000013	addi	x0,x0,0	  x0:0x00000000
       40565000	      4055	80000e28	00000013	addi	x0,x0,0	  x0:0x00000000
       40575000	      4056	80000e2c	fedff0ef	jal	x1,80000e2c	  x1=0x80000e2c
       40585000	      4057	00000000	00000013	addi	x0,x0,0	  x0:0x00000000
       40595000	      4058	80000e14	00000013	addi	x0,x0,0	  x0:0x00000000
       40605000	      4059	80000e18	00400f6f	jal	x30,80000e18	 x30=0x80000e18
       40615000	      4060	00000000	00000013	addi	x0,x0,0	  x0:0x00000000
       40625000	      4061	80000e18	00000013	addi	x0,x0,0	  x0:0x00000000
       40635000	      4062	80000e1c	0300036f	jal	x6,80000e1c	  x6=0x80000e1c
       40645000	      4063	00000000	00000013	addi	x0,x0,0	  x0:0x00000000
       40655000	      4064	80000e48	00000013	addi	x0,x0,0	  x0:0x00000000
       40665000	      4065	80000e4c	014003ef	jal	x7,80000e4c	  x7=0x80000e4c
       40675000	      4066	00000000	00000013	addi	x0,x0,0	  x0:0x00000000
       40685000	      4067	80000e5c	00000013	addi	x0,x0,0	  x0:0x00000000
       40695000	      4068	80000e60	ffdff0ef	jal	x1,80000e60	  x1=0x80000e60
       40705000	      4069	00000000	00000013	addi	x0,x0,0	  x0:0x00000000
       40715000	      4070	80000e58	00000013	addi	x0,x0,0	  x0:0x00000000
       40725000	      4071	80000e5c	fa9ff36f	jal	x6,80000e5c	  x6=0x80000e5c
       40735000	      4072	00000000	00000013	addi	x0,x0,0	  x0:0x00000000
       40745000	      4073	80000e00	00000013	addi	x0,x0,0	  x0:0x00000000
       40755000	      4074	80000e04	068000ef	jal	x1,80000e04	  x1=0x80000e04
       40765000	      4075	00000000	00000013	addi	x0,x0,0	  x0:0x00000000
       40775000	      4076	80000e68	00000013	addi	x0,x0,0	  x0:0x00000000
       40785000	      4077	80000e6c	fa9ff0ef	jal	x1,80000e6c	  x1=0x80000e6c
       40795000	      4078	00000000	00000013	addi	x0,x0,0	  x0:0x00000000
       40805000	      4079	80000e10	00000013	addi	x0,x0,0	  x0:0x00000000
       40815000	      4080	80000e14	ff5ffc6f	jal	x24,80000e14	 x24=0x80000e14
       40825000	      4081	00000000	00000013	addi	x0,x0,0	  x0:0x00000000
       40835000	      4082	80000e04	00000013	addi	x0,x0,0	  x0:0x00000000
       40845000	      4083	80000e08	068000ef	jal	x1,80000e08	  x1=0x80000e08
       40855000	      4084	00000000	00000013	addi	x0,x0,0	  x0:0x00000000
       40865000	      4085	80000e6c	00000013	addi	x0,x0,0	  x0:0x00000000
       40875000	      4086	80000e70	0030b1b3	sltu	x3,x1,x3	  x1:0x80000e08  x3:0x80000cd4  x3=0x00000000
       40885000	      4087	80000e74	060000ef	jal	x1,80000e74	  x1=0x80000e74
       40895000	      4088	00000000	00000013	addi	x0,x0,0	  x0:0x00000000
       40905000	      4089	80000ed0	00000013	addi	x0,x0,0	  x0:0x00000000
       40915000	      4090	80000ed4	fadff36f	jal	x6,80000ed4	  x6=0x80000ed4
       40925000	      4091	00000000	00000013	addi	x0,x0,0	  x0:0x00000000
       40935000	      4092	80000e7c	00000013	addi	x0,x0,0	  x0:0x00000000
       40945000	      4093	80000e80	0600086f	jal	x16,80000e80	 x16=0x80000e80
       40955000	      4094	00000000	00000013	addi	x0,x0,0	  x0:0x00000000
       40965000	      4095	80000edc	00000013	addi	x0,x0,0	  x0:0x00000000
       40975000	      4096	80000ee0	fb9ff36f	jal	x6,80000ee0	  x6=0x80000ee0
       40985000	      4097	00000000	00000013	addi	x0,x0,0	  x0:0x00000000
       40995000	      4098	80000e94	00000013	addi	x0,x0,0	  x0:0x00000000
       41005000	      4099	80000e98	0300036f	jal	x6,80000e98	  x6=0x80000e98
       41015000	      4100	00000000	00000013	addi	x0,x0,0	  x0:0x00000000
       41025000	      4101	80000ec4	00000013	addi	x0,x0,0	  x0:0x00000000
       41035000	      4102	80000ec8	008000ef	jal	x1,80000ec8	  x1=0x80000ec8
       41045000	      4103	00000000	00000013	addi	x0,x0,0	  x0:0x00000000
       41055000	      4104	80000ecc	00000013	addi	x0,x0,0	  x0:0x00000000
       41065000	      4105	80000ed0	fadff0ef	jal	x1,80000ed0	  x1=0x80000ed0
       41075000	      4106	00000000	00000013	addi	x0,x0,0	  x0:0x00000000
       41085000	      4107	80000e78	00000013	addi	x0,x0,0	  x0:0x00000000
       41095000	      4108	80000e7c	018000ef	jal	x1,80000e7c	  x1=0x80000e7c
       41105000	      4109	00000000	00000013	addi	x0,x0,0	  x0:0x00000000
       41115000	      4110	80000e90	00000013	addi	x0,x0,0	  x0:0x00000000
       41125000	      4111	80000e94	ffdff0ef	jal	x1,80000e94	  x1=0x80000e94
       41135000	      4112	00000000	00000013	addi	x0,x0,0	  x0:0x00000000
       41145000	      4113	80000e8c	00000013	addi	x0,x0,0	  x0:0x00000000
       41155000	      4114	80000e90	01c000ef	jal	x1,80000e90	  x1=0x80000e90
       41165000	      4115	00000000	00000013	addi	x0,x0,0	  x0:0x00000000
       41175000	      4116	80000ea8	00000013	addi	x0,x0,0	  x0:0x00000000
       41185000	      4117	80000eac	fd9ff96f	jal	x18,80000eac	 x18=0x80000eac
       41195000	      4118	00000000	00000013	addi	x0,x0,0	  x0:0x00000000
       41205000	      4119	80000e80	00000013	addi	x0,x0,0	  x0:0x00000000
       41215000	      4120	80000e84	040004ef	jal	x9,80000e84	  x9=0x80000e84
       41225000	      4121	00000000	00000013	addi	x0,x0,0	  x0:0x00000000
       41235000	      4122	80000ec0	00000013	addi	x0,x0,0	  x0:0x00000000
       41245000	      4123	80000ec4	fc5ff0ef	jal	x1,80000ec4	  x1=0x80000ec4
       41255000	      4124	00000000	00000013	addi	x0,x0,0	  x0:0x00000000
       41265000	      4125	80000e84	00000013	addi	x0,x0,0	  x0:0x00000000
       41275000	      4126	80000e88	0180036f	jal	x6,80000e88	  x6=0x80000e88
       41285000	      4127	00000000	00000013	addi	x0,x0,0	  x0:0x00000000
       41295000	      4128	80000e9c	00000013	addi	x0,x0,0	  x0:0x00000000
       41305000	      4129	80000ea0	014000ef	jal	x1,80000ea0	  x1=0x80000ea0
       41315000	      4130	00000000	00000013	addi	x0,x0,0	  x0:0x00000000
       41325000	      4131	80000eb0	00000013	addi	x0,x0,0	  x0:0x00000000
       41335000	      4132	80000eb4	ff1ff0ef	jal	x1,80000eb4	  x1=0x80000eb4
       41345000	      4133	00000000	00000013	addi	x0,x0,0	  x0:0x00000000
       41355000	      4134	80000ea0	00000013	addi	x0,x0,0	  x0:0x00000000
       41365000	      4135	80000ea4	0280036f	jal	x6,80000ea4	  x6=0x80000ea4
       41375000	      4136	00000000	00000013	addi	x0,x0,0	  x0:0x00000000
       41385000	      4137	80000ec8	00000013	addi	x0,x0,0	  x0:0x00000000
       41395000	      4138	80000ecc	fe5ff36f	jal	x6,80000ecc	  x6=0x80000ecc
       41405000	      4139	00000000	00000013	addi	x0,x0,0	  x0:0x00000000
       41415000	      4140	80000eac	00000013	addi	x0,x0,0	  x0:0x00000000
       41425000	      4141	80000eb0	008000ef	jal	x1,80000eb0	  x1=0x80000eb0
       41435000	      4142	00000000	00000013	addi	x0,x0,0	  x0:0x00000000
       41445000	      4143	80000eb4	00000013	addi	x0,x0,0	  x0:0x00000000
       41455000	      4144	80000eb8	00400cef	jal	x25,80000eb8	 x25=0x80000eb8
       41465000	      4145	00000000	00000013	addi	x0,x0,0	  x0:0x00000000
       41475000	      4146	80000eb8	00000013	addi	x0,x0,0	  x0:0x00000000
       41485000	      4147	80000ebc	fd1ff0ef	jal	x1,80000ebc	  x1=0x80000ebc
       41495000	      4148	00000000	00000013	addi	x0,x0,0	  x0:0x00000000
       41505000	      4149	80000e88	00000013	addi	x0,x0,0	  x0:0x00000000
       41515000	      4150	80000e8c	034000ef	jal	x1,80000e8c	  x1=0x80000e8c
       41525000	      4151	00000000	00000013	addi	x0,x0,0	  x0:0x00000000
       41535000	      4152	80000ebc	00000013	addi	x0,x0,0	  x0:0x00000000
       41545000	      4153	80000ec0	fddff0ef	jal	x1,80000ec0	  x1=0x80000ec0
       41555000	      4154	00000000	00000013	addi	x0,x0,0	  x0:0x00000000
       41565000	      4155	80000e98	00000013	addi	x0,x0,0	  x0:0x00000000
       41575000	      4156	80000e9c	0480016f	jal	x2,80000e9c	  x2=0x80000e9c
       41585000	      4157	00000000	00000013	addi	x0,x0,0	  x0:0x00000000
       41595000	      4158	80000ee0	00000013	addi	x0,x0,0	  x0:0x00000000
       41605000	      4159	80000ee4	fc5ff0ef	jal	x1,80000ee4	  x1=0x80000ee4
       41615000	      4160	00000000	00000013	addi	x0,x0,0	  x0:0x00000000
       41625000	      4161	80000ea4	00000013	addi	x0,x0,0	  x0:0x00000000
       41635000	      4162	80000ea8	fd1ff0ef	jal	x1,80000ea8	  x1=0x80000ea8
       41645000	      4163	00000000	00000013	addi	x0,x0,0	  x0:0x00000000
       41655000	      4164	80000e74	00000013	addi	x0,x0,0	  x0:0x00000000
       41665000	      4165	80000e78	064000ef	jal	x1,80000e78	  x1=0x80000e78
       41675000	      4166	00000000	00000013	addi	x0,x0,0	  x0:0x00000000
       41685000	      4167	80000ed8	00000013	addi	x0,x0,0	  x0:0x00000000
       41695000	      4168	80000edc	ffdff26f	jal	x4,80000edc	  x4=0x80000edc
       41705000	      4169	00000000	00000013	addi	x0,x0,0	  x0:0x00000000
       41715000	      4170	80000ed4	00000013	addi	x0,x0,0	  x0:0x00000000
       41725000	      4171	80000ed8	010000ef	jal	x1,80000ed8	  x1=0x80000ed8
       41735000	      4172	00000000	00000013	addi	x0,x0,0	  x0:0x00000000
       41745000	      4173	80000ee4	00000013	addi	x0,x0,0	  x0:0x00000000
       41755000	      4174	80000ee8	016c5433	srl	x8,x24,x22	 x24:0x80000e14 x22:0x80000e28  x8=0x0080000e
       41765000	      4175	80000eec	040000ef	jal	x1,80000eec	  x1=0x80000eec
       41775000	      4176	00000000	00000013	addi	x0,x0,0	  x0:0x00000000
       41785000	      4177	80000f28	00000013	addi	x0,x0,0	  x0:0x00000000
       41795000	      4178	80000f2c	fe5ff1ef	jal	x3,80000f2c	  x3=0x80000f2c
       41805000	      4179	00000000	00000013	addi	x0,x0,0	  x0:0x00000000
       41815000	      4180	80000f0c	00000013	addi	x0,x0,0	  x0:0x00000000
       41825000	      4181	80000f10	054000ef	jal	x1,80000f10	  x1=0x80000f10
       41835000	      4182	00000000	00000013	addi	x0,x0,0	  x0:0x00000000
       41845000	      4183	80000f60	00000013	addi	x0,x0,0	  x0:0x00000000
       41855000	      4184	80000f64	fb9ff4ef	jal	x9,80000f64	  x9=0x80000f64
       41865000	      4185	00000000	00000013	addi	x0,x0,0	  x0:0x00000000
       41875000	      4186	80000f18	00000013	addi	x0,x0,0	  x0:0x00000000
       41885000	      4187	80000f1c	0140036f	jal	x6,80000f1c	  x6=0x80000f1c
       41895000	      4188	00000000	00000013	addi	x0,x0,0	  x0:0x00000000
       41905000	      4189	80000f2c	00000013	addi	x0,x0,0	  x0:0x00000000
       41915000	      4190	80000f30	020000ef	jal	x1,80000f30	  x1=0x80000f30
       41925000	      4191	00000000	00000013	addi	x0,x0,0	  x0:0x00000000
       41935000	      4192	80000f4c	00000013	addi	x0,x0,0	  x0:0x00000000
       41945000	      4193	80000f50	fb1ff0ef	jal	x1,80000f50	  x1=0x80000f50
       41955000	      4194	00000000	00000013	addi	x0,x0,0	  x0:0x00000000
       41965000	      4195	80000efc	00000013	addi	x0,x0,0	  x0:0x00000000
       41975000	      4196	80000f00	0480036f	jal	x6,80000f00	  x6=0x80000f00
       41985000	      4197	00000000	00000013	addi	x0,x0,0	  x0:0x00000000
       41995000	      4198	80000f44	00000013	addi	x0,x0,0	  x0:0x00000000
       42005000	      4199	80000f48	ffdff0ef	jal	x1,80000f48	  x1=0x80000f48
       42015000	      4200	00000000	00000013	addi	x0,x0,0	  x0:0x00000000
       42025000	      4201	80000f40	00000013	addi	x0,x0,0	  x0:0x00000000
       42035000	      4202	80000f44	01c0076f	jal	x14,80000f44	 x14=0x80000f44
       42045000	      4203	00000000	00000013	addi	x0,x0,0	  x0:0x00000000
       42055000	      4204	80000f5c	00000013	addi	x0,x0,0	  x0:0x00000000
       42065000	      4205	80000f60	f9dff36f	jal	x6,80000f60	  x6=0x80000f60
       42075000	      4206	00000000	00000013	addi	x0,x0,0	  x0:0x00000000
       42085000	      4207	80000ef8	00000013	addi	x0,x0,0	  x0:0x00000000
       42095000	      4208	80000efc	044000ef	jal	x1,80000efc	  x1=0x80000efc
       42105000	      4209	00000000	00000013	addi	x0,x0,0	  x0:0x00000000
       42115000	      4210	80000f3c	00000013	addi	x0,x0,0	  x0:0x00000000
       42125000	      4211	80000f40	fd5ff0ef	jal	x1,80000f40	  x1=0x80000f40
       42135000	      4212	00000000	00000013	addi	x0,x0,0	  x0:0x00000000
       42145000	      4213	80000f10	00000013	addi	x0,x0,0	  x0:0x00000000
       42155000	      4214	80000f14	fe5ff0ef	jal	x1,80000f14	  x1=0x80000f14
       42165000	      4215	00000000	00000013	addi	x0,x0,0	  x0:0x00000000
       42175000	      4216	80000ef4	00000013	addi	x0,x0,0	  x0:0x00000000
       42185000	      4217	80000ef8	02c000ef	jal	x1,80000ef8	  x1=0x80000ef8
       42195000	      4218	00000000	00000013	addi	x0,x0,0	  x0:0x00000000
       42205000	      4219	80000f20	00000013	addi	x0,x0,0	  x0:0x00000000
       42215000	      4220	80000f24	fd1ff36f	jal	x6,80000f24	  x6=0x80000f24
       42225000	      4221	00000000	00000013	addi	x0,x0,0	  x0:0x00000000
       42235000	      4222	80000ef0	00000013	addi	x0,x0,0	  x0:0x00000000
       42245000	      4223	80000ef4	060000ef	jal	x1,80000ef4	  x1=0x80000ef4
       42255000	      4224	00000000	00000013	addi	x0,x0,0	  x0:0x00000000
       42265000	      4225	80000f50	00000013	addi	x0,x0,0	  x0:0x00000000
       42275000	      4226	80000f54	004000ef	jal	x1,80000f54	  x1=0x80000f54
       42285000	      4227	00000000	00000013	addi	x0,x0,0	  x0:0x00000000
       42295000	      4228	80000f54	00000013	addi	x0,x0,0	  x0:0x00000000
       42305000	      4229	80000f58	fe5ff0ef	jal	x1,80000f58	  x1=0x80000f58
       42315000	      4230	00000000	00000013	addi	x0,x0,0	  x0:0x00000000
       42325000	      4231	80000f38	00000013	addi	x0,x0,0	  x0:0x00000000
       42335000	      4232	80000f3c	010003ef	jal	x7,80000f3c	  x7=0x80000f3c
       42345000	      4233	00000000	00000013	addi	x0,x0,0	  x0:0x00000000
       42355000	      4234	80000f48	00000013	addi	x0,x0,0	  x0:0x00000000
       42365000	      4235	80000f4c	fbdff0ef	jal	x1,80000f4c	  x1=0x80000f4c
       42375000	      4236	00000000	00000013	addi	x0,x0,0	  x0:0x00000000
       42385000	      4237	80000f04	00000013	addi	x0,x0,0	  x0:0x00000000
       42395000	      4238	80000f08	054002ef	jal	x5,80000f08	  x5=0x80000f08
       42405000	      4239	00000000	00000013	addi	x0,x0,0	  x0:0x00000000
       42415000	      4240	80000f58	00000013	addi	x0,x0,0	  x0:0x00000000
       42425000	      4241	80000f5c	fcdff0ef	jal	x1,80000f5c	  x1=0x80000f5c
       42435000	      4242	00000000	00000013	addi	x0,x0,0	  x0:0x00000000
       42445000	      4243	80000f24	00000013	addi	x0,x0,0	  x0:0x00000000
       42455000	      4244	80000f28	fc9ff1ef	jal	x3,80000f28	  x3=0x80000f28
       42465000	      4245	00000000	00000013	addi	x0,x0,0	  x0:0x00000000
       42475000	      4246	80000eec	00000013	addi	x0,x0,0	  x0:0x00000000
       42485000	      4247	80000ef0	028000ef	jal	x1,80000ef0	  x1=0x80000ef0
       42495000	      4248	00000000	00000013	addi	x0,x0,0	  x0:0x00000000
       42505000	      4249	80000f14	00000013	addi	x0,x0,0	  x0:0x00000000
       42515000	      4250	80000f18	ff5ffc6f	jal	x24,80000f18	 x24=0x80000f18
       42525000	      4251	00000000	00000013	addi	x0,x0,0	  x0:0x00000000
       42535000	      4252	80000f08	00000013	addi	x0,x0,0	  x0:0x00000000
       42545000	      4253	80000f0c	02c0076f	jal	x14,80000f0c	 x14=0x80000f0c
       42555000	      4254	00000000	00000013	addi	x0,x0,0	  x0:0x00000000
       42565000	      4255	80000f34	00000013	addi	x0,x0,0	  x0:0x00000000
       42575000	      4256	80000f38	fcdff0ef	jal	x1,80000f38	  x1=0x80000f38
       42585000	      4257	00000000	00000013	addi	x0,x0,0	  x0:0x00000000
       42595000	      4258	80000f00	00000013	addi	x0,x0,0	  x0:0x00000000
       42605000	      4259	80000f04	0300036f	jal	x6,80000f04	  x6=0x80000f04
       42615000	      4260	00000000	00000013	addi	x0,x0,0	  x0:0x00000000
       42625000	      4261	80000f30	00000013	addi	x0,x0,0	  x0:0x00000000
       42635000	      4262	80000f34	fedff0ef	jal	x1,80000f34	  x1=0x80000f34
       42645000	      4263	00000000	00000013	addi	x0,x0,0	  x0:0x00000000
       42655000	      4264	80000f1c	00000013	addi	x0,x0,0	  x0:0x00000000
       42665000	      4265	80000f20	048000ef	jal	x1,80000f20	  x1=0x80000f20
       42675000	      4266	00000000	00000013	addi	x0,x0,0	  x0:0x00000000
       42685000	      4267	80000f64	00000013	addi	x0,x0,0	  x0:0x00000000
       42695000	      4268	80000f68	0104b433	sltu	x8,x9,x16	  x9:0x80000f64 x16:0x80000e80  x8=0x00000000
       42705000	      4269	80000f6c	034000ef	jal	x1,80000f6c	  x1=0x80000f6c
       42715000	      4270	00000000	00000013	addi	x0,x0,0	  x0:0x00000000
       42725000	      4271	80000f9c	00000013	addi	x0,x0,0	  x0:0x00000000
       42735000	      4272	80000fa0	fd9ff0ef	jal	x1,80000fa0	  x1=0x80000fa0
       42745000	      4273	00000000	00000013	addi	x0,x0,0	  x0:0x00000000
       42755000	      4274	80000f74	00000013	addi	x0,x0,0	  x0:0x00000000
       42765000	      4275	80000f78	018002ef	jal	x5,80000f78	  x5=0x80000f78
       42775000	      4276	00000000	00000013	addi	x0,x0,0	  x0:0x00000000
       42785000	      4277	80000f8c	00000013	addi	x0,x0,0	  x0:0x00000000
       42795000	      4278	80000f90	ff9ff0ef	jal	x1,80000f90	  x1=0x80000f90
       42805000	      4279	00000000	00000013	addi	x0,x0,0	  x0:0x00000000
       42815000	      4280	80000f84	00000013	addi	x0,x0,0	  x0:0x00000000
       42825000	      4281	80000f88	010006ef	jal	x13,80000f88	 x13=0x80000f88
       42835000	      4282	00000000	00000013	addi	x0,x0,0	  x0:0x00000000
       42845000	      4283	80000f94	00000013	addi	x0,x0,0	  x0:0x00000000
       42855000	      4284	80000f98	fedff0ef	jal	x1,80000f98	  x1=0x80000f98
       42865000	      4285	00000000	00000013	addi	x0,x0,0	  x0:0x00000000
       42875000	      4286	80000f80	00000013	addi	x0,x0,0	  x0:0x00000000
       42885000	      4287	80000f84	0180036f	jal	x6,80000f84	  x6=0x80000f84
       42895000	      4288	00000000	00000013	addi	x0,x0,0	  x0:0x00000000
       42905000	      4289	80000f98	00000013	addi	x0,x0,0	  x0:0x00000000
       42915000	      4290	80000f9c	ff9ff0ef	jal	x1,80000f9c	  x1=0x80000f9c
       42925000	      4291	00000000	00000013	addi	x0,x0,0	  x0:0x00000000
       42935000	      4292	80000f90	00000013	addi	x0,x0,0	  x0:0x00000000
       42945000	      4293	80000f94	fe1ff16f	jal	x2,80000f94	  x2=0x80000f94
       42955000	      4294	00000000	00000013	addi	x0,x0,0	  x0:0x00000000
       42965000	      4295	80000f70	00000013	addi	x0,x0,0	  x0:0x00000000
       42975000	      4296	80000f74	ffdff0ef	jal	x1,80000f74	  x1=0x80000f74
       42985000	      4297	00000000	00000013	addi	x0,x0,0	  x0:0x00000000
       42995000	      4298	80000f6c	00000013	addi	x0,x0,0	  x0:0x00000000
       43005000	      4299	80000f70	0100036f	jal	x6,80000f70	  x6=0x80000f70
       43015000	      4300	00000000	00000013	addi	x0,x0,0	  x0:0x00000000
       43025000	      4301	80000f7c	00000013	addi	x0,x0,0	  x0:0x00000000
       43035000	      4302	80000f80	ffdff26f	jal	x4,80000f80	  x4=0x80000f80
       43045000	      4303	00000000	00000013	addi	x0,x0,0	  x0:0x00000000
       43055000	      4304	80000f78	00000013	addi	x0,x0,0	  x0:0x00000000
       43065000	      4305	80000f7c	010009ef	jal	x19,80000f7c	 x19=0x80000f7c
       43075000	      4306	00000000	00000013	addi	x0,x0,0	  x0:0x00000000
       43085000	      4307	80000f88	00000013	addi	x0,x0,0	  x0:0x00000000
       43095000	      4308	80000f8c	01800bef	jal	x23,80000f8c	 x23=0x80000f8c
       43105000	      4309	00000000	00000013	addi	x0,x0,0	  x0:0x00000000
       43115000	      4310	80000fa0	00000013	addi	x0,x0,0	  x0:0x00000000
       43125000	      4311	80000fa4	0e864e37	lui	x28,0xe864	 x28=0x0e864000
       43135000	      4312	80000fa8	018000ef	jal	x1,80000fa8	  x1=0x80000fa8
       43145000	      4313	00000000	00000013	addi	x0,x0,0	  x0:0x00000000
       43155000	      4314	80000fbc	00000013	addi	x0,x0,0	  x0:0x00000000
       43165000	      4315	80000fc0	004001ef	jal	x3,80000fc0	  x3=0x80000fc0
       43175000	      4316	00000000	00000013	addi	x0,x0,0	  x0:0x00000000
       43185000	      4317	80000fc0	00000013	addi	x0,x0,0	  x0:0x00000000
       43195000	      4318	80000fc4	004000ef	jal	x1,80000fc4	  x1=0x80000fc4
       43205000	      4319	00000000	00000013	addi	x0,x0,0	  x0:0x00000000
       43215000	      4320	80000fc4	00000013	addi	x0,x0,0	  x0:0x00000000
       43225000	      4321	80000fc8	008000ef	jal	x1,80000fc8	  x1=0x80000fc8
       43235000	      4322	00000000	00000013	addi	x0,x0,0	  x0:0x00000000
       43245000	      4323	80000fcc	00000013	addi	x0,x0,0	  x0:0x00000000
       43255000	      4324	80000fd0	004000ef	jal	x1,80000fd0	  x1=0x80000fd0
       43265000	      4325	00000000	00000013	addi	x0,x0,0	  x0:0x00000000
       43275000	      4326	80000fd0	00000013	addi	x0,x0,0	  x0:0x00000000
       43285000	      4327	80000fd4	fd9ff66f	jal	x12,80000fd4	 x12=0x80000fd4
       43295000	      4328	00000000	00000013	addi	x0,x0,0	  x0:0x00000000
       43305000	      4329	80000fa8	00000013	addi	x0,x0,0	  x0:0x00000000
       43315000	      4330	80000fac	00c000ef	jal	x1,80000fac	  x1=0x80000fac
       43325000	      4331	00000000	00000013	addi	x0,x0,0	  x0:0x00000000
       43335000	      4332	80000fb4	00000013	addi	x0,x0,0	  x0:0x00000000
       43345000	      4333	80000fb8	0040036f	jal	x6,80000fb8	  x6=0x80000fb8
       43355000	      4334	00000000	00000013	addi	x0,x0,0	  x0:0x00000000
       43365000	      4335	80000fb8	00000013	addi	x0,x0,0	  x0:0x00000000
       43375000	      4336	80000fbc	ff9ff36f	jal	x6,80000fbc	  x6=0x80000fbc
       43385000	      4337	00000000	00000013	addi	x0,x0,0	  x0:0x00000000
       43395000	      4338	80000fb0	00000013	addi	x0,x0,0	  x0:0x00000000
       43405000	      4339	80000fb4	018000ef	jal	x1,80000fb4	  x1=0x80000fb4
       43415000	      4340	00000000	00000013	addi	x0,x0,0	  x0:0x00000000
       43425000	      4341	80000fc8	00000013	addi	x0,x0,0	  x0:0x00000000
       43435000	      4342	80000fcc	fe5ff36f	jal	x6,80000fcc	  x6=0x80000fcc
       43445000	      4343	00000000	00000013	addi	x0,x0,0	  x0:0x00000000
       43455000	      4344	80000fac	00000013	addi	x0,x0,0	  x0:0x00000000
       43465000	      4345	80000fb0	028000ef	jal	x1,80000fb0	  x1=0x80000fb0
       43475000	      4346	00000000	00000013	addi	x0,x0,0	  x0:0x00000000
       43485000	      4347	80000fd4	00000013	addi	x0,x0,0	  x0:0x00000000
       43495000	      4348	80000fd8	006802b3	add	x5,x16,x6	 x16:0x80000e80  x6:0x80000fcc  x5=0x00001e4c
       43505000	      4349	80000fdc	fa30f697	auipc	x13,0xfa30f	 x13=0x7a30ffd8
       43515000	      4350	80000fe0	003370b3	and	x1,x6,x3	  x6:0x80000fcc  x3:0x80000fc0  x1=0x80000fc0
       43525000	      4351	80000fe4	1351dc37	lui	x24,0x1351d	 x24=0x1351d000
       43535000	      4352	80000fe8	025d7063	bgeu	x26,x5,80001008	 x26:0x80000dd8  x5:0x00001e4c
       43545000	      4353	00000000	00000013	addi	x0,x0,0	  x0:0x00000000
       43555000	      4354	80001004	00000013	addi	x0,x0,0	  x0:0x00000000
       43565000	      4355	80001008	002dd793	srli	x15,x27,0x2	 x27:0x00000800 x15=0x00000200
       43575000	      4356	8000100c	00365db3	srl	x27,x12,x3	 x12:0x80000fd4  x3:0x80000fc0 x27=0x80000fd4
       43585000	      4357	80001010	f5e4ad93	slti	x27,x9,-162	  x9:0x80000f64 x27=0x00000001
       43595000	      4358	80001014	0ab17063	bgeu	x2,x11,800010b4	  x2:0x80000f94 x11:0x80000000
       43605000	      4359	00000000	00000013	addi	x0,x0,0	  x0:0x00000000
       43615000	      4360	800010b0	00000013	addi	x0,x0,0	  x0:0x00000000
       43625000	      4361	800010b4	89848a37	lui	x20,0x89848	 x20=0x89848000
       43635000	      4362	800010b8	0016e333	or	x6,x13,x1	 x13:0x7a30ffd8  x1:0x80000fc0  x6=0xfa30ffd8
       43645000	      4363	800010bc	37413e93	sltiu	x29,x2,884	  x2:0x80000f94 x29=0x00000000
       43655000	      4364	800010c0	00ae8663	beq	x29,x10,800010cc	 x29:0x00000000 x10:0xff84cd8c
       43665000	      4365	800010c4	ab68f613	andi	x12,x17,-1354	 x17:0x80000c74 x12=0x80000834
       43675000	      4366	800010c8	03d3d663	bge	x7,x29,800010f4	  x7:0x80000f3c x29:0x00000000
       43685000	      4367	800010cc	fb002a13	slti	x20,x0,-80	  x0:0x00000000 x20=0x00000000
       43695000	      4368	800010d0	41175213	srai	x4,x14,0x11	 x14:0x80000f0c  x4=0xffffc000
       43705000	      4369	800010d4	5a47e893	ori	x17,x15,1444	 x15:0x00000200 x17=0x000007a4
       43715000	      4370	800010d8	dd9aee13	ori	x28,x21,-551	 x21:0x80009f3c x28=0xfffffffd
       43725000	      4371	800010dc	013bf863	bgeu	x23,x19,800010ec	 x23:0x80000f8c x19:0x80000f7c
       43735000	      4372	00000000	00000013	addi	x0,x0,0	  x0:0x00000000
       43745000	      4373	800010e8	00000013	addi	x0,x0,0	  x0:0x00000000
       43755000	      4374	800010ec	0025c463	blt	x11,x2,800010f4	 x11:0x80000000  x2:0x80000f94
       43765000	      4375	00000000	00000013	addi	x0,x0,0	  x0:0x00000000
       43775000	      4376	800010f0	00000013	addi	x0,x0,0	  x0:0x00000000
       43785000	      4377	800010f4	03c21863	bne	x4,x28,80001124	  x4:0xffffc000 x28:0xfffffffd
       43795000	      4378	00000000	00000013	addi	x0,x0,0	  x0:0x00000000
       43805000	      4379	80001120	00000013	addi	x0,x0,0	  x0:0x00000000
       43815000	      4380	80001124	00535213	srli	x4,x6,0x5	  x6:0xfa30ffd8  x4=0x07d187fe
       43825000	      4381	80001128	02a86663	bltu	x16,x10,80001154	 x16:0x80000e80 x10:0xff84cd8c
       43835000	      4382	00000000	00000013	addi	x0,x0,0	  x0:0x00000000
       43845000	      4383	80001150	00000013	addi	x0,x0,0	  x0:0x00000000
       43855000	      4384	80001154	080c8c63	beq	x25,x0,800011ec	 x25:0x80000eb8  x0:0x00000000
       43865000	      4385	80001158	41a0d713	srai	x14,x1,0x1a	  x1:0x80000fc0 x14=0xffffffe0
       43875000	      4386	8000115c	0149cbb3	xor	x23,x19,x20	 x19:0x80000f7c x20:0x00000000 x23=0x80000f7c
       43885000	      4387	80001160	0a9ffa63	bgeu	x31,x9,80001214	 x31:0x80009fc4  x9:0x80000f64
       43895000	      4388	00000000	00000013	addi	x0,x0,0	  x0:0x00000000
       43905000	      4389	80001210	00000013	addi	x0,x0,0	  x0:0x00000000
       43915000	      4390	80001214	01f21733	sll	x14,x4,x31	  x4:0x07d187fe x31:0x80009fc4 x14=0x7d187fe0
       43925000	      4391	80001218	00000013	addi	x0,x0,0	  x0:0x00000000
       43935000	      4392	8000121c	fe032d93	slti	x27,x6,-32	  x6:0xfa30ffd8 x27=0x00000001
       43945000	      4393	80001220	00b101b3	add	x3,x2,x11	  x2:0x80000f94 x11:0x80000000  x3=0x00000f94
       43955000	      4394	80001224	a75cf517	auipc	x10,0xa75cf	 x10=0x275d0220
       43965000	      4395	80001228	01d9c433	xor	x8,x19,x29	 x19:0x80000f7c x29:0x00000000  x8=0x80000f7c
       43975000	      4396	8000122c	006ccd33	xor	x26,x25,x6	 x25:0x80000eb8  x6:0xfa30ffd8 x26=0x7a30f160
       43985000	      4397	80001230	011c8433	add	x8,x25,x17	 x25:0x80000eb8 x17:0x000007a4  x8=0x8000165c
       43995000	      4398	80001234	03334e63	blt	x6,x19,80001270	  x6:0xfa30ffd8 x19:0x80000f7c
       44005000	      4399	80001238	01077a33	and	x20,x14,x16	 x14:0x7d187fe0 x16:0x80000e80 x20=0x00000e80
       44015000	      4400	8000123c	017eb2b3	sltu	x5,x29,x23	 x29:0x00000000 x23:0x80000f7c  x5=0x00000001
       44025000	      4401	80001240	01fc7663	bgeu	x24,x31,8000124c	 x24:0x1351d000 x31:0x80009fc4
       44035000	      4402	80001244	03ea6663	bltu	x20,x30,80001270	 x20:0x00000e80 x30:0x80000e18
       44045000	      4403	00000000	00000013	addi	x0,x0,0	  x0:0x00000000
       44055000	      4404	8000126c	00000013	addi	x0,x0,0	  x0:0x00000000
       44065000	      4405	80001270	043f5463	bge	x30,x3,800012b8	 x30:0x80000e18  x3:0x00000f94
       44075000	      4406	80001274	f0dc0693	addi	x13,x24,-243	 x24:0x1351d000 x13=0x1351cf0d
       44085000	      4407	80001278	28c71637	lui	x12,0x28c71	 x12=0x28c71000
       44095000	      4408	8000127c	001c0eb3	add	x29,x24,x1	 x24:0x1351d000  x1:0x80000fc0 x29=0x9351dfc0
       44105000	      4409	80001280	b3c4c613	xori	x12,x9,-1220	  x9:0x80000f64 x12=0x7ffff458
       44115000	      4410	80001284	0049d663	bge	x19,x4,80001290	 x19:0x80000f7c  x4:0x07d187fe
       44125000	      4411	80001288	02041063	bne	x8,x0,800012a8	  x8:0x8000165c  x0:0x00000000
       44135000	      4412	00000000	00000013	addi	x0,x0,0	  x0:0x00000000
       44145000	      4413	800012a4	00000013	addi	x0,x0,0	  x0:0x00000000
       44155000	      4414	800012a8	01a8db93	srli	x23,x17,0x1a	 x17:0x000007a4 x23=0x00000000
       44165000	      4415	800012ac	01b6aeb3	slt	x29,x13,x27	 x13:0x1351cf0d x27:0x00000001 x29=0x00000000
       44175000	      4416	800012b0	414d5a33	sra	x20,x26,x20	 x26:0x7a30f160 x20:0x00000e80 x20=0x7a30f160
       44185000	      4417	800012b4	00000013	addi	x0,x0,0	  x0:0x00000000
       44195000	      4418	800012b8	01009493	slli	x9,x1,0x10	  x1:0x80000fc0  x9=0x0fc00000
       44205000	      4419	800012bc	01ba4c33	xor	x24,x20,x27	 x20:0x7a30f160 x27:0x00000001 x24=0x7a30f161
       44215000	      4420	800012c0	01e07313	andi	x6,x0,30	  x0:0x00000000  x6=0x00000000
       44225000	      4421	800012c4	00000013	addi	x0,x0,0	  x0:0x00000000
       44235000	      4422	800012c8	41f30233	sub	x4,x6,x31	  x6:0x00000000 x31:0x80009fc4  x4=0x7fff603c
       44245000	      4423	800012cc	c5028313	addi	x6,x5,-944	  x5:0x00000001  x6=0xfffffc51
       44255000	      4424	800012d0	8566f293	andi	x5,x13,-1962	 x13:0x1351cf0d  x5=0x1351c804
       44265000	      4425	800012d4	002c7863	bgeu	x24,x2,800012e4	 x24:0x7a30f161  x2:0x80000f94
       44275000	      4426	800012d8	00042e33	slt	x28,x8,x0	  x8:0x8000165c  x0:0x00000000 x28=0x00000001
       44285000	      4427	800012dc	00a41913	slli	x18,x8,0xa	  x8:0x8000165c x18=0x00597000
       44295000	      4428	800012e0	00d9a033	slt	x0,x19,x13	 x19:0x80000f7c x13:0x1351cf0d
       44305000	      4429	800012e4	00a10a63	beq	x2,x10,800012f8	  x2:0x80000f94 x10:0x275d0220
       44315000	      4430	800012e8	01341993	slli	x19,x8,0x13	  x8:0x8000165c x19=0xb2e00000
       44325000	      4431	800012ec	017b4463	blt	x22,x23,800012f4	 x22:0x80000e28 x23:0x00000000
       44335000	      4432	00000000	00000013	addi	x0,x0,0	  x0:0x00000000
       44345000	      4433	800012f0	00000013	addi	x0,x0,0	  x0:0x00000000
       44355000	      4434	800012f4	088b4d93	xori	x27,x22,136	 x22:0x80000e28 x27=0x80000ea0
       44365000	      4435	800012f8	41cc0eb3	sub	x29,x24,x28	 x24:0x7a30f161 x28:0x00000001 x29=0x7a30f160
       44375000	      4436	800012fc	01e0d233	srl	x4,x1,x30	  x1:0x80000fc0 x30:0x80000e18  x4=0x00000080
       44385000	      4437	80001300	03120e63	beq	x4,x17,8000133c	  x4:0x00000080 x17:0x000007a4
       44395000	      4438	80001304	018e51b3	srl	x3,x28,x24	 x28:0x00000001 x24:0x7a30f161  x3=0x00000000
       44405000	      4439	80001308	d34e6897	auipc	x17,0xd34e6	 x17=0x534e7304
       44415000	      4440	8000130c	02466463	bltu	x12,x4,80001334	 x12:0x7ffff458  x4:0x00000080
       44425000	      4441	80001310	440dcd13	xori	x26,x27,1088	 x27:0x80000ea0 x26=0x80000ae0
       44435000	      4442	80001314	003e96b3	sll	x13,x29,x3	 x29:0x7a30f160  x3:0x00000000 x13=0x7a30f160
       44445000	      4443	80001318	2e6db093	sltiu	x1,x27,742	 x27:0x80000ea0  x1=0x00000000
       44455000	      4444	8000131c	f7913193	sltiu	x3,x2,-135	  x2:0x80000f94  x3=0x00000001
       44465000	      4445	80001320	01dced33	or	x26,x25,x29	 x25:0x80000eb8 x29:0x7a30f160 x26=0xfa30fff8
       44475000	      4446	80001324	b10fba13	sltiu	x20,x31,-1264	 x31:0x80009fc4 x20=0x00000001
       44485000	      4447	80001328	d6288293	addi	x5,x17,-670	 x17:0x534e7304  x5=0x534e7066
       44495000	      4448	8000132c	a6aa3393	sltiu	x7,x20,-1430	 x20:0x00000001  x7=0x00000001
       44505000	      4449	80001330	04c68863	beq	x13,x12,80001380	 x13:0x7a30f160 x12:0x7ffff458
       44515000	      4450	80001334	00bf6a33	or	x20,x30,x11	 x30:0x80000e18 x11:0x80000000 x20=0x80000e18
       44525000	      4451	80001338	1bd9eb13	ori	x22,x19,445	 x19:0xb2e00000 x22=0xb2e001bd
       44535000	      4452	8000133c	005a7263	bgeu	x20,x5,80001340	 x20:0x80000e18  x5:0x534e7066
       44545000	      4453	00000000	00000013	addi	x0,x0,0	  x0:0x00000000
       44555000	      4454	8000133c	00000013	addi	x0,x0,0	  x0:0x00000000
       44565000	      4455	80001340	00bbae33	slt	x28,x23,x11	 x23:0x00000000 x11:0x80000000 x28=0x00000000
       44575000	      4456	80001344	004c42b3	xor	x5,x24,x4	 x24:0x7a30f161  x4:0x00000080  x5=0x7a30f1e1
       44585000	      4457	80001348	b24972b7	lui	x5,0xb2497	  x5=0xb2497000
       44595000	      4458	8000134c	77365417	auipc	x8,0x77365	  x8=0xf7366348
       44605000	      4459	80001350	01b884b3	add	x9,x17,x27	 x17:0x534e7304 x27:0x80000ea0  x9=0xd34e81a4
       44615000	      4460	80001354	01fd4033	xor	x0,x26,x31	 x26:0xfa30fff8 x31:0x80009fc4
       44625000	      4461	80001358	348f0913	addi	x18,x30,840	 x30:0x80000e18 x18=0x80001160
       44635000	      4462	8000135c	03dcda63	bge	x25,x29,80001390	 x25:0x80000eb8 x29:0x7a30f160
       44645000	      4463	80001360	ba954613	xori	x12,x10,-1111	 x10:0x275d0220 x12=0xd8a2f989
       44655000	      4464	80001364	00a18d33	add	x26,x3,x10	  x3:0x00000001 x10:0x275d0220 x26=0x275d0221
       44665000	      4465	80001368	02918e63	beq	x3,x9,800013a4	  x3:0x00000001  x9:0xd34e81a4
       44675000	      4466	8000136c	00000013	addi	x0,x0,0	  x0:0x00000000
       44685000	      4467	80001370	c7118a13	addi	x20,x3,-911	  x3:0x00000001 x20=0xfffffc72
       44695000	      4468	80001374	00000013	addi	x0,x0,0	  x0:0x00000000
       44705000	      4469	80001378	77373713	sltiu	x14,x14,1907	 x14:0x7d187fe0 x14=0x00000000
       44715000	      4470	8000137c	00000013	addi	x0,x0,0	  x0:0x00000000
       44725000	      4471	80001380	03439c63	bne	x7,x20,800013b8	  x7:0x00000001 x20:0xfffffc72
       44735000	      4472	00000000	00000013	addi	x0,x0,0	  x0:0x00000000
       44745000	      4473	800013b4	00000013	addi	x0,x0,0	  x0:0x00000000
       44755000	      4474	800013b8	40700333	sub	x6,x0,x7	  x0:0x00000000  x7:0x00000001  x6=0xffffffff
       44765000	      4475	800013bc	017d2833	slt	x16,x26,x23	 x26:0x275d0221 x23:0x00000000 x16=0x00000000
       44775000	      4476	800013c0	5d644097	auipc	x1,0x5d644	  x1=0xdd6453bc
       44785000	      4477	800013c4	7de10c93	addi	x25,x2,2014	  x2:0x80000f94 x25=0x80001772
       44795000	      4478	800013c8	01e59013	slli	x0,x11,0x1e	 x11:0x80000000
       44805000	      4479	800013cc	40a65c93	srai	x25,x12,0xa	 x12:0xd8a2f989 x25=0xfff628be
       44815000	      4480	800013d0	01945713	srli	x14,x8,0x19	  x8:0xf7366348 x14=0x0000007b
       44825000	      4481	800013d4	416708b3	sub	x17,x14,x22	 x14:0x0000007b x22:0xb2e001bd x17=0x4d1ffebe
       44835000	      4482	800013d8	0046b2b3	sltu	x5,x13,x4	 x13:0x7a30f160  x4:0x00000080  x5=0x00000000
       44845000	      4483	800013dc	3748bb13	sltiu	x22,x17,884	 x17:0x4d1ffebe x22=0x00000000
       44855000	      4484	800013e0	003a8533	add	x10,x21,x3	 x21:0x80009f3c  x3:0x00000001 x10=0x80009f3d
       44865000	      4485	800013e4	0373fc63	bgeu	x7,x23,8000141c	  x7:0x00000001 x23:0x00000000
       44875000	      4486	00000000	00000013	addi	x0,x0,0	  x0:0x00000000
       44885000	      4487	80001418	00000013	addi	x0,x0,0	  x0:0x00000000
       44895000	      4488	8000141c	2a777337	lui	x6,0x2a777	  x6=0x2a777000
       44905000	      4489	80001420	38320097	auipc	x1,0x38320	  x1=0xb832141c
       44915000	      4490	80001424	015c6533	or	x10,x24,x21	 x24:0x7a30f161 x21:0x80009f3c x10=0xfa30ff7d
       44925000	      4491	80001428	0221c263	blt	x3,x2,8000144c	  x3:0x00000001  x2:0x80000f94
       44935000	      4492	8000142c	9c5b3113	sltiu	x2,x22,-1595	 x22:0x00000000  x2=0x00000001
       44945000	      4493	80001430	00020c33	add	x24,x4,x0	  x4:0x00000080  x0:0x00000000 x24=0x00000080
       44955000	      4494	80001434	451f7213	andi	x4,x30,1105	 x30:0x80000e18  x4=0x00000410
       44965000	      4495	80001438	00000013	addi	x0,x0,0	  x0:0x00000000
       44975000	      4496	8000143c	82508c13	addi	x24,x1,-2011	  x1:0xb832141c x24=0xb8320c41
       44985000	      4497	80001440	012c9493	slli	x9,x25,0x12	 x25:0xfff628be  x9=0xa2f80000
       44995000	      4498	80001444	05420463	beq	x4,x20,8000148c	  x4:0x00000410 x20:0xfffffc72
       45005000	      4499	80001448	d9162393	slti	x7,x12,-623	 x12:0xd8a2f989  x7=0x00000001
       45015000	      4500	8000144c	40535bb3	sra	x23,x6,x5	  x6:0x2a777000  x5:0x00000000 x23=0x2a777000
       45025000	      4501	80001450	15c53913	sltiu	x18,x10,348	 x10:0xfa30ff7d x18=0x00000000
       45035000	      4502	80001454	03374463	blt	x14,x19,8000147c	 x14:0x0000007b x19:0xb2e00000
       45045000	      4503	80001458	00645293	srli	x5,x8,0x6	  x8:0xf7366348  x5=0x03dcd98d
       45055000	      4504	8000145c	0141d493	srli	x9,x3,0x14	  x3:0x00000001  x9=0x00000000
       45065000	      4505	80001460	01365463	bge	x12,x19,80001468	 x12:0xd8a2f989 x19:0xb2e00000
       45075000	      4506	00000000	00000013	addi	x0,x0,0	  x0:0x00000000
       45085000	      4507	80001464	00000013	addi	x0,x0,0	  x0:0x00000000
       45095000	      4508	80001468	004a9533	sll	x10,x21,x4	 x21:0x80009f3c  x4:0x00000410 x10=0x9f3c0000
       45105000	      4509	8000146c	8fbea293	slti	x5,x29,-1797	 x29:0x7a30f160  x5=0x00000000
       45115000	      4510	80001470	00575513	srli	x10,x14,0x5	 x14:0x0000007b x10=0x00000003
       45125000	      4511	80001474	019d1b33	sll	x22,x26,x25	 x26:0x275d0221 x25:0xfff628be x22=0x40000000
       45135000	      4512	80001478	d8150713	addi	x14,x10,-639	 x10:0x00000003 x14=0xfffffd84
       45145000	      4513	8000147c	03c7dc63	bge	x15,x28,800014b4	 x15:0x00000200 x28:0x00000000
       45155000	      4514	00000000	00000013	addi	x0,x0,0	  x0:0x00000000
       45165000	      4515	800014b0	00000013	addi	x0,x0,0	  x0:0x00000000
       45175000	      4516	800014b4	0048c663	blt	x17,x4,800014c0	 x17:0x4d1ffebe  x4:0x00000410
       45185000	      4517	800014b8	02774663	blt	x14,x7,800014e4	 x14:0xfffffd84  x7:0x00000001
       45195000	      4518	00000000	00000013	addi	x0,x0,0	  x0:0x00000000
       45205000	      4519	800014e0	00000013	addi	x0,x0,0	  x0:0x00000000
       45215000	      4520	800014e4	05437663	bgeu	x6,x20,80001530	  x6:0x2a777000 x20:0xfffffc72
       45225000	      4521	800014e8	01e19933	sll	x18,x3,x30	  x3:0x00000001 x30:0x80000e18 x18=0x01000000
       45235000	      4522	800014ec	03940e63	beq	x8,x25,80001528	  x8:0xf7366348 x25:0xfff628be
       45245000	      4523	800014f0	40c45533	sra	x10,x8,x12	  x8:0xf7366348 x12:0xd8a2f989 x10=0xfffb9b31
       45255000	      4524	800014f4	00d51493	slli	x9,x10,0xd	 x10:0xfffb9b31  x9=0x73662000
       45265000	      4525	800014f8	40ef0893	addi	x17,x30,1038	 x30:0x80000e18 x17=0x80001226
       45275000	      4526	800014fc	a76c9237	lui	x4,0xa76c9	  x4=0xa76c9000
       45285000	      4527	80001500	b51303b7	lui	x7,0xb5130	  x7=0xb5130000
       45295000	      4528	80001504	00000013	addi	x0,x0,0	  x0:0x00000000
       45305000	      4529	80001508	0074fa33	and	x20,x9,x7	  x9:0x73662000  x7:0xb5130000 x20=0x31020000
       45315000	      4530	8000150c	0119e333	or	x6,x19,x17	 x19:0xb2e00000 x17:0x80001226  x6=0xb2e01226
       45325000	      4531	80001510	7ecb7f13	andi	x30,x22,2028	 x22:0x40000000 x30=0x00000000
       45335000	      4532	80001514	c34a8293	addi	x5,x21,-972	 x21:0x80009f3c  x5=0x80009b70
       45345000	      4533	80001518	0199f663	bgeu	x19,x25,80001524	 x19:0xb2e00000 x25:0xfff628be
       45355000	      4534	8000151c	0091e6b3	or	x13,x3,x9	  x3:0x00000001  x9:0x73662000 x13=0x73662001
       45365000	      4535	80001520	0090a4b3	slt	x9,x1,x9	  x1:0xb832141c  x9:0x73662000  x9=0x00000001
       45375000	      4536	80001524	faf38913	addi	x18,x7,-81	  x7:0xb5130000 x18=0xb512ffaf
       45385000	      4537	80001528	005c2a33	slt	x20,x24,x5	 x24:0xb8320c41  x5:0x80009b70 x20=0x00000000
       45395000	      4538	8000152c	01d07733	and	x14,x0,x29	  x0:0x00000000 x29:0x7a30f160 x14=0x00000000
       45405000	      4539	80001530	40ac0633	sub	x12,x24,x10	 x24:0xb8320c41 x10:0xfffb9b31 x12=0xb8367110
       45415000	      4540	80001534	01921633	sll	x12,x4,x25	  x4:0xa76c9000 x25:0xfff628be x12=0x00000000
       45425000	      4541	80001538	04b26863	bltu	x4,x11,80001588	  x4:0xa76c9000 x11:0x80000000
       45435000	      4542	8000153c	01395863	bge	x18,x19,8000154c	 x18:0xb512ffaf x19:0xb2e00000
       45445000	      4543	00000000	00000013	addi	x0,x0,0	  x0:0x00000000
       45455000	      4544	80001548	00000013	addi	x0,x0,0	  x0:0x00000000
       45465000	      4545	8000154c	01c58663	beq	x11,x28,80001558	 x11:0x80000000 x28:0x00000000
       45475000	      4546	80001550	004e9693	slli	x13,x29,0x4	 x29:0x7a30f160 x13=0xa30f1600
       45485000	      4547	80001554	006bfeb3	and	x29,x23,x6	 x23:0x2a777000  x6:0xb2e01226 x29=0x22601000
       45495000	      4548	80001558	01bb4bb3	xor	x23,x22,x27	 x22:0x40000000 x27:0x80000ea0 x23=0xc0000ea0
       45505000	      4549	8000155c	039e7863	bgeu	x28,x25,8000158c	 x28:0x00000000 x25:0xfff628be
       45515000	      4550	80001560	414c5333	sra	x6,x24,x20	 x24:0xb8320c41 x20:0x00000000  x6=0xb8320c41
       45525000	      4551	80001564	00fe8933	add	x18,x29,x15	 x29:0x22601000 x15:0x00000200 x18=0x22601200
       45535000	      4552	80001568	02887263	bgeu	x16,x8,8000158c	 x16:0x00000000  x8:0xf7366348
       45545000	      4553	8000156c	00261d33	sll	x26,x12,x2	 x12:0x00000000  x2:0x00000001 x26=0x00000000
       45555000	      4554	80001570	019229b3	slt	x19,x4,x25	  x4:0xa76c9000 x25:0xfff628be x19=0x00000001
       45565000	      4555	80001574	03c55c63	bge	x10,x28,800015ac	 x10:0xfffb9b31 x28:0x00000000
       45575000	      4556	80001578	40400733	sub	x14,x0,x4	  x0:0x00000000  x4:0xa76c9000 x14=0x58937000
       45585000	      4557	8000157c	00000013	addi	x0,x0,0	  x0:0x00000000
       45595000	      4558	80001580	4178dd33	sra	x26,x17,x23	 x17:0x80001226 x23:0xc0000ea0 x26=0x80001226
       45605000	      4559	80001584	01f3dc33	srl	x24,x7,x31	  x7:0xb5130000 x31:0x80009fc4 x24=0x0b513000
       45615000	      4560	80001588	0095f6b3	and	x13,x11,x9	 x11:0x80000000  x9:0x00000001 x13=0x00000000
       45625000	      4561	8000158c	6e168d13	addi	x26,x13,1761	 x13:0x00000000 x26=0x000006e1
       45635000	      4562	80001590	02e5c063	blt	x11,x14,800015b0	 x11:0x80000000 x14:0x58937000
       45645000	      4563	00000000	00000013	addi	x0,x0,0	  x0:0x00000000
       45655000	      4564	800015ac	00000013	addi	x0,x0,0	  x0:0x00000000
       45665000	      4565	800015b0	40338db3	sub	x27,x7,x3	  x7:0xb5130000  x3:0x00000001 x27=0xb512ffff
       45675000	      4566	800015b4	59eaa813	slti	x16,x21,1438	 x21:0x80009f3c x16=0x00000001
       45685000	      4567	800015b8	00770333	add	x6,x14,x7	 x14:0x58937000  x7:0xb5130000  x6=0x0da67000
       45695000	      4568	800015bc	2651eb13	ori	x22,x3,613	  x3:0x00000001 x22=0x00000265
       45705000	      4569	800015c0	012a62b3	or	x5,x20,x18	 x20:0x00000000 x18:0x22601200  x5=0x22601200
       45715000	      4570	800015c4	00121d93	slli	x27,x4,0x1	  x4:0xa76c9000 x27=0x4ed92000
       45725000	      4571	800015c8	023cf663	bgeu	x25,x3,800015f4	 x25:0xfff628be  x3:0x00000001
       45735000	      4572	00000000	00000013	addi	x0,x0,0	  x0:0x00000000
       45745000	      4573	800015f0	00000013	addi	x0,x0,0	  x0:0x00000000
       45755000	      4574	800015f4	000e44b3	xor	x9,x28,x0	 x28:0x00000000  x0:0x00000000  x9=0x00000000
       45765000	      4575	800015f8	f2604e93	xori	x29,x0,-218	  x0:0x00000000 x29=0xffffff26
       45775000	      4576	800015fc	00665c93	srli	x25,x12,0x6	 x12:0x00000000 x25=0x00000000
       45785000	      4577	80001600	00980b33	add	x22,x16,x9	 x16:0x00000001  x9:0x00000000 x22=0x00000001
       45795000	      4578	80001604	a7fd4997	auipc	x19,0xa7fd4	 x19=0x27fd5600
       45805000	      4579	80001608	0044bdb3	sltu	x27,x9,x4	  x9:0x00000000  x4:0xa76c9000 x27=0x00000001
       45815000	      4580	8000160c	ba875217	auipc	x4,0xba875	  x4=0x3a876608
       45825000	      4581	80001610	412e0833	sub	x16,x28,x18	 x28:0x00000000 x18:0x22601200 x16=0xdd9fee00
       45835000	      4582	80001614	054df463	bgeu	x27,x20,8000165c	 x27:0x00000001 x20:0x00000000
       45845000	      4583	00000000	00000013	addi	x0,x0,0	  x0:0x00000000
       45855000	      4584	80001658	00000013	addi	x0,x0,0	  x0:0x00000000
       45865000	      4585	8000165c	d786e213	ori	x4,x13,-648	 x13:0x00000000  x4=0xfffffd78
       45875000	      4586	80001660	0250fa63	bgeu	x1,x5,80001694	  x1:0xb832141c  x5:0x22601200
       45885000	      4587	00000000	00000013	addi	x0,x0,0	  x0:0x00000000
       45895000	      4588	80001690	00000013	addi	x0,x0,0	  x0:0x00000000
       45905000	      4589	80001694	00b88463	beq	x17,x11,8000169c	 x17:0x80001226 x11:0x80000000
       45915000	      4590	80001698	d0a32b93	slti	x23,x6,-758	  x6:0x0da67000 x23=0x00000000
       45925000	      4591	8000169c	fbbc6b93	ori	x23,x24,-69	 x24:0x0b513000 x23=0xffffffbb
       45935000	      4592	800016a0	003e8eb3	add	x29,x29,x3	 x29:0xffffff26  x3:0x00000001 x29=0xffffff27
       45945000	      4593	800016a4	057e0463	beq	x28,x23,800016ec	 x28:0x00000000 x23:0xffffffbb
       45955000	      4594	800016a8	00ca2333	slt	x6,x20,x12	 x20:0x00000000 x12:0x00000000  x6=0x00000000
       45965000	      4595	800016ac	44362b13	slti	x22,x12,1091	 x12:0x00000000 x22=0x00000001
       45975000	      4596	800016b0	01380633	add	x12,x16,x19	 x16:0xdd9fee00 x19:0x27fd5600 x12=0x059d4400
       45985000	      4597	800016b4	0128c033	xor	x0,x17,x18	 x17:0x80001226 x18:0x22601200
       45995000	      4598	800016b8	00401313	slli	x6,x0,0x4	  x0:0x00000000  x6=0x00000000
       46005000	      4599	800016bc	01f55793	srli	x15,x10,0x1f	 x10:0xfffb9b31 x15=0x00000001
       46015000	      4600	800016c0	409bd033	sra	x0,x23,x9	 x23:0xffffffbb  x9:0x00000000
       46025000	      4601	800016c4	00ce5d13	srli	x26,x28,0xc	 x28:0x00000000 x26=0x00000000
       46035000	      4602	800016c8	40add613	srai	x12,x27,0xa	 x27:0x00000001 x12=0x00000000
       46045000	      4603	800016cc	005d9863	bne	x27,x5,800016dc	 x27:0x00000001  x5:0x22601200
       46055000	      4604	00000000	00000013	addi	x0,x0,0	  x0:0x00000000
       46065000	      4605	800016d8	00000013	addi	x0,x0,0	  x0:0x00000000
       46075000	      4606	800016dc	40c6d613	srai	x12,x13,0xc	 x13:0x00000000 x12=0x00000000
       46085000	      4607	800016e0	01f23633	sltu	x12,x4,x31	  x4:0xfffffd78 x31:0x80009fc4 x12=0x00000000
       46095000	      4608	800016e4	d5d3eb13	ori	x22,x7,-675	  x7:0xb5130000 x22=0xfffffd5d
       46105000	      4609	800016e8	34d8b293	sltiu	x5,x17,845	 x17:0x80001226  x5=0x00000000
       46115000	      4610	800016ec	012c9813	slli	x16,x25,0x12	 x25:0x00000000 x16=0x00000000
       46125000	      4611	800016f0	0543c463	blt	x7,x20,80001738	  x7:0xb5130000 x20:0x00000000
       46135000	      4612	00000000	00000013	addi	x0,x0,0	  x0:0x00000000
       46145000	      4613	80001734	00000013	addi	x0,x0,0	  x0:0x00000000
       46155000	      4614	80001738	02908c63	beq	x1,x9,80001770	  x1:0xb832141c  x9:0x00000000
       46165000	      4615	8000173c	01d7f463	bgeu	x15,x29,80001744	 x15:0x00000001 x29:0xffffff27
       46175000	      4616	80001740	00e25693	srli	x13,x4,0xe	  x4:0xfffffd78 x13=0x0003ffff
       46185000	      4617	80001744	de4f6313	ori	x6,x30,-540	 x30:0x00000000  x6=0xfffffde4
       46195000	      4618	80001748	68c4be13	sltiu	x28,x9,1676	  x9:0x00000000 x28=0x00000001
       46205000	      4619	8000174c	016c46b3	xor	x13,x24,x22	 x24:0x0b513000 x22:0xfffffd5d x13=0xf4aecd5d
       46215000	      4620	80001750	008cca33	xor	x20,x25,x8	 x25:0x00000000  x8:0xf7366348 x20=0xf7366348
       46225000	      4621	80001754	415fd693	srai	x13,x31,0x15	 x31:0x80009fc4 x13=0xfffffc00
       46235000	      4622	80001758	e1137993	andi	x19,x6,-495	  x6:0xfffffde4 x19=0xfffffc00
       46245000	      4623	8000175c	80992613	slti	x12,x18,-2039	 x18:0x22601200 x12=0x00000000
       46255000	      4624	80001760	9c8ab713	sltiu	x14,x21,-1592	 x21:0x80009f3c x14=0x00000001
       46265000	      4625	80001764	38d6bc13	sltiu	x24,x13,909	 x13:0xfffffc00 x24=0x00000000
       46275000	      4626	80001768	3eefae93	slti	x29,x31,1006	 x31:0x80009fc4 x29=0x00000001
       46285000	      4627	8000176c	0231fe63	bgeu	x3,x3,800017a8	  x3:0x00000001  x3:0x00000001
       46295000	      4628	00000000	00000013	addi	x0,x0,0	  x0:0x00000000
       46305000	      4629	800017a4	00000013	addi	x0,x0,0	  x0:0x00000000
       46315000	      4630	800017a8	00412533	slt	x10,x2,x4	  x2:0x00000001  x4:0xfffffd78 x10=0x00000000
       46325000	      4631	800017ac	4132dc93	srai	x25,x5,0x13	  x5:0x00000000 x25=0x00000000
       46335000	      4632	800017b0	00def663	bgeu	x29,x13,800017bc	 x29:0x00000001 x13:0xfffffc00
       46345000	      4633	800017b4	2375b493	sltiu	x9,x11,567	 x11:0x80000000  x9=0x00000000
       46355000	      4634	800017b8	01035833	srl	x16,x6,x16	  x6:0xfffffde4 x16:0x00000000 x16=0xfffffde4
       46365000	      4635	800017bc	4110d1b3	sra	x3,x1,x17	  x1:0xb832141c x17:0x80001226  x3=0xfee0c850
       46375000	      4636	800017c0	08b4b313	sltiu	x6,x9,139	  x9:0x00000000  x6=0x00000001
       46385000	      4637	800017c4	018786b3	add	x13,x15,x24	 x15:0x00000001 x24:0x00000000 x13=0x00000001
       46395000	      4638	800017c8	02460063	beq	x12,x4,800017e8	 x12:0x00000000  x4:0xfffffd78
       46405000	      4639	800017cc	002a7eb3	and	x29,x20,x2	 x20:0xf7366348  x2:0x00000001 x29=0x00000000
       46415000	      4640	800017d0	010fdc93	srli	x25,x31,0x10	 x31:0x80009fc4 x25=0x00008000
       46425000	      4641	800017d4	0034e1b3	or	x3,x9,x3	  x9:0x00000000  x3:0xfee0c850  x3=0xfee0c850
       46435000	      4642	800017d8	011701b3	add	x3,x14,x17	 x14:0x00000001 x17:0x80001226  x3=0x80001227
       46445000	      4643	800017dc	03561e63	bne	x12,x21,80001818	 x12:0x00000000 x21:0x80009f3c
       46455000	      4644	00000000	00000013	addi	x0,x0,0	  x0:0x00000000
       46465000	      4645	80001814	00000013	addi	x0,x0,0	  x0:0x00000000
       46475000	      4646	80001818	0335e463	bltu	x11,x19,80001840	 x11:0x80000000 x19:0xfffffc00
       46485000	      4647	00000000	00000013	addi	x0,x0,0	  x0:0x00000000
       46495000	      4648	8000183c	00000013	addi	x0,x0,0	  x0:0x00000000
       46505000	      4649	80001840	01db3c33	sltu	x24,x22,x29	 x22:0xfffffd5d x29:0x00000000 x24=0x00000000
       46515000	      4650	80001844	45dee517	auipc	x10,0x45dee	 x10=0xc5def840
       46525000	      4651	80001848	056e0663	beq	x28,x22,80001894	 x28:0x00000001 x22:0xfffffd5d
       46535000	      4652	8000184c	027f8c63	beq	x31,x7,80001884	 x31:0x80009fc4  x7:0xb5130000
       46545000	      4653	80001850	038df263	bgeu	x27,x24,80001874	 x27:0x00000001 x24:0x00000000
       46555000	      4654	00000000	00000013	addi	x0,x0,0	  x0:0x00000000
       46565000	      4655	80001870	00000013	addi	x0,x0,0	  x0:0x00000000
       46575000	      4656	80001874	03a0d863	bge	x1,x26,800018a4	  x1:0xb832141c x26:0x00000000
       46585000	      4657	80001878	03fcdc63	bge	x25,x31,800018b0	 x25:0x00008000 x31:0x80009fc4
       46595000	      4658	00000000	00000013	addi	x0,x0,0	  x0:0x00000000
       46605000	      4659	800018ac	00000013	addi	x0,x0,0	  x0:0x00000000
       46615000	      4660	800018b0	404486b3	sub	x13,x9,x4	  x9:0x00000000  x4:0xfffffd78 x13=0x00000288
       46625000	      4661	800018b4	005b8033	add	x0,x23,x5	 x23:0xffffffbb  x5:0x00000000
       46635000	      4662	800018b8	00c000ef	jal	x1,800018b8	  x1=0x800018b8
       46645000	      4663	00000000	00000013	addi	x0,x0,0	  x0:0x00000000
       46655000	      4664	800018c0	00000013	addi	x0,x0,0	  x0:0x00000000
       46665000	      4665	800018c4	02c000ef	jal	x1,800018c4	  x1=0x800018c4
       46675000	      4666	00000000	00000013	addi	x0,x0,0	  x0:0x00000000
       46685000	      4667	800018ec	00000013	addi	x0,x0,0	  x0:0x00000000
       46695000	      4668	800018f0	fd1ff36f	jal	x6,800018f0	  x6=0x800018f0
       46705000	      4669	00000000	00000013	addi	x0,x0,0	  x0:0x00000000
       46715000	      4670	800018bc	00000013	addi	x0,x0,0	  x0:0x00000000
       46725000	      4671	800018c0	0340036f	jal	x6,800018c0	  x6=0x800018c0
       46735000	      4672	00000000	00000013	addi	x0,x0,0	  x0:0x00000000
       46745000	      4673	800018f0	00000013	addi	x0,x0,0	  x0:0x00000000
       46755000	      4674	800018f4	008000ef	jal	x1,800018f4	  x1=0x800018f4
       46765000	      4675	00000000	00000013	addi	x0,x0,0	  x0:0x00000000
       46775000	      4676	800018f8	00000013	addi	x0,x0,0	  x0:0x00000000
       46785000	      4677	800018fc	fd9ff36f	jal	x6,800018fc	  x6=0x800018fc
       46795000	      4678	00000000	00000013	addi	x0,x0,0	  x0:0x00000000
       46805000	      4679	800018d0	00000013	addi	x0,x0,0	  x0:0x00000000
       46815000	      4680	800018d4	ffdff36f	jal	x6,800018d4	  x6=0x800018d4
       46825000	      4681	00000000	00000013	addi	x0,x0,0	  x0:0x00000000
       46835000	      4682	800018cc	00000013	addi	x0,x0,0	  x0:0x00000000
       46845000	      4683	800018d0	01c0096f	jal	x18,800018d0	 x18=0x800018d0
       46855000	      4684	00000000	00000013	addi	x0,x0,0	  x0:0x00000000
       46865000	      4685	800018e8	00000013	addi	x0,x0,0	  x0:0x00000000
       46875000	      4686	800018ec	ffdff0ef	jal	x1,800018ec	  x1=0x800018ec
       46885000	      4687	00000000	00000013	addi	x0,x0,0	  x0:0x00000000
       46895000	      4688	800018e4	00000013	addi	x0,x0,0	  x0:0x00000000
       46905000	      4689	800018e8	01000a6f	jal	x20,800018e8	 x20=0x800018e8
       46915000	      4690	00000000	00000013	addi	x0,x0,0	  x0:0x00000000
       46925000	      4691	800018f4	00000013	addi	x0,x0,0	  x0:0x00000000
       46935000	      4692	800018f8	fd1ff0ef	jal	x1,800018f8	  x1=0x800018f8
       46945000	      4693	00000000	00000013	addi	x0,x0,0	  x0:0x00000000
       46955000	      4694	800018c4	00000013	addi	x0,x0,0	  x0:0x00000000
       46965000	      4695	800018c8	01c0026f	jal	x4,800018c8	  x4=0x800018c8
       46975000	      4696	00000000	00000013	addi	x0,x0,0	  x0:0x00000000
       46985000	      4697	800018e0	00000013	addi	x0,x0,0	  x0:0x00000000
       46995000	      4698	800018e4	ff5ff0ef	jal	x1,800018e4	  x1=0x800018e4
       47005000	      4699	00000000	00000013	addi	x0,x0,0	  x0:0x00000000
       47015000	      4700	800018d4	00000013	addi	x0,x0,0	  x0:0x00000000
       47025000	      4701	800018d8	ff5ff0ef	jal	x1,800018d8	  x1=0x800018d8
       47035000	      4702	00000000	00000013	addi	x0,x0,0	  x0:0x00000000
       47045000	      4703	800018c8	00000013	addi	x0,x0,0	  x0:0x00000000
       47055000	      4704	800018cc	0140016f	jal	x2,800018cc	  x2=0x800018cc
       47065000	      4705	00000000	00000013	addi	x0,x0,0	  x0:0x00000000
       47075000	      4706	800018dc	00000013	addi	x0,x0,0	  x0:0x00000000
       47085000	      4707	800018e0	ffdff76f	jal	x14,800018e0	 x14=0x800018e0
       47095000	      4708	00000000	00000013	addi	x0,x0,0	  x0:0x00000000
       47105000	      4709	800018d8	00000013	addi	x0,x0,0	  x0:0x00000000
       47115000	      4710	800018dc	fe1ff86f	jal	x16,800018dc	 x16=0x800018dc
       47125000	      4711	00000000	00000013	addi	x0,x0,0	  x0:0x00000000
       47135000	      4712	800018b8	00000013	addi	x0,x0,0	  x0:0x00000000
       47145000	      4713	800018bc	0440026f	jal	x4,800018bc	  x4=0x800018bc
       47155000	      4714	00000000	00000013	addi	x0,x0,0	  x0:0x00000000
       47165000	      4715	800018fc	00000013	addi	x0,x0,0	  x0:0x00000000
       47175000	      4716	80001900	409301b3	sub	x3,x6,x9	  x6:0x800018d4  x9:0x00000000  x3=0x800018d4
       47185000	      4717	80001904	1205bf13	sltiu	x30,x11,288	 x11:0x80000000 x30=0x00000000
       47195000	      4718	80001908	01771663	bne	x14,x23,80001914	 x14:0x800018e0 x23:0xffffffbb
       47205000	      4719	00000000	00000013	addi	x0,x0,0	  x0:0x00000000
       47215000	      4720	80001910	00000013	addi	x0,x0,0	  x0:0x00000000
       47225000	      4721	80001914	accb6193	ori	x3,x22,-1332	 x22:0xfffffd5d  x3=0xffffffdd
       47235000	      4722	80001918	0168bc33	sltu	x24,x17,x22	 x17:0x80001226 x22:0xfffffd5d x24=0x00000001
       47245000	      4723	8000191c	a61a7d13	andi	x26,x20,-1439	 x20:0x800018e8 x26=0x80001860
       47255000	      4724	80001920	010bfc33	and	x24,x23,x16	 x23:0xffffffbb x16:0x800018dc x24=0x80001898
       47265000	      4725	80001924	41095eb3	sra	x29,x18,x16	 x18:0x800018d0 x16:0x800018dc x29=0xfffffff8
       47275000	      4726	80001928	015ce463	bltu	x25,x21,80001930	 x25:0x00008000 x21:0x80009f3c
       47285000	      4727	00000000	00000013	addi	x0,x0,0	  x0:0x00000000
       47295000	      4728	8000192c	00000013	addi	x0,x0,0	  x0:0x00000000
       47305000	      4729	80001930	473a1d37	lui	x26,0x473a1	 x26=0x473a1000
       47315000	      4730	80001934	01947633	and	x12,x8,x25	  x8:0xf7366348 x25:0x00008000 x12=0x00000000
       47325000	      4731	80001938	013aadb3	slt	x27,x21,x19	 x21:0x80009f3c x19:0xfffffc00 x27=0x00000001
       47335000	      4732	8000193c	03500263	beq	x0,x21,80001960	  x0:0x00000000 x21:0x80009f3c
       47345000	      4733	80001940	405ad833	sra	x16,x21,x5	 x21:0x80009f3c  x5:0x00000000 x16=0x80009f3c
       47355000	      4734	80001944	01499bb3	sll	x23,x19,x20	 x19:0xfffffc00 x20:0x800018e8 x23=0xfffc0000
       47365000	      4735	80001948	0a670d13	addi	x26,x14,166	 x14:0x800018e0 x26=0x80001986
       47375000	      4736	8000194c	00b5e7b3	or	x15,x11,x11	 x11:0x80000000 x11:0x80000000 x15=0x80000000
       47385000	      4737	80001950	501feb93	ori	x23,x31,1281	 x31:0x80009fc4 x23=0x80009fc5
       47395000	      4738	80001954	7098a613	slti	x12,x17,1801	 x17:0x80001226 x12=0x00000001
       47405000	      4739	80001958	010e2033	slt	x0,x28,x16	 x28:0x00000001 x16:0x80009f3c
       47415000	      4740	8000195c	41aa8a33	sub	x20,x21,x26	 x21:0x80009f3c x26:0x80001986 x20=0x000085b6
       47425000	      4741	80001960	01e29893	slli	x17,x5,0x1e	  x5:0x00000000 x17=0x00000000
       47435000	      4742	80001964	f0e67c93	andi	x25,x12,-242	 x12:0x00000001 x25=0x00000000
       47445000	      4743	80001968	f0a78113	addi	x2,x15,-246	 x15:0x80000000  x2=0x7fffff0a
       47455000	      4744	8000196c	05ccf263	bgeu	x25,x28,800019b0	 x25:0x00000000 x28:0x00000001
       47465000	      4745	80001970	4485bb13	sltiu	x22,x11,1096	 x11:0x80000000 x22=0x00000000
       47475000	      4746	80001974	01303133	sltu	x2,x0,x19	  x0:0x00000000 x19:0xfffffc00  x2=0x00000001
       47485000	      4747	80001978	404e5933	sra	x18,x28,x4	 x28:0x00000001  x4:0x800018bc x18=0x00000000
       47495000	      4748	8000197c	859dcb13	xori	x22,x27,-1959	 x27:0x00000001 x22=0xfffff858
       47505000	      4749	80001980	03996c63	bltu	x18,x25,800019b8	 x18:0x00000000 x25:0x00000000
       47515000	      4750	80001984	002b5e93	srli	x29,x22,0x2	 x22:0xfffff858 x29=0x3ffffe16
       47525000	      4751	80001988	a2f8fe13	andi	x28,x17,-1489	 x17:0x00000000 x28=0x00000000
       47535000	      4752	8000198c	01525633	srl	x12,x4,x21	  x4:0x800018bc x21:0x80009f3c x12=0x00000008
       47545000	      4753	80001990	b6efea37	lui	x20,0xb6efe	 x20=0xb6efe000
       47555000	      4754	80001994	0158c263	blt	x17,x21,80001998	 x17:0x00000000 x21:0x80009f3c
       47565000	      4755	80001998	00a1ed33	or	x26,x3,x10	  x3:0xffffffdd x10:0xc5def840 x26=0xffffffdd
       47575000	      4756	8000199c	879bc613	xori	x12,x23,-1927	 x23:0x80009fc5 x12=0x7fff67bc
       47585000	      4757	800019a0	00064463	blt	x12,x0,800019a8	 x12:0x7fff67bc  x0:0x00000000
       47595000	      4758	800019a4	407308b3	sub	x17,x6,x7	  x6:0x800018d4  x7:0xb5130000 x17=0xcaed18d4
       47605000	      4759	800019a8	00621213	slli	x4,x4,0x6	  x4:0x800018bc  x4=0x00062f00
       47615000	      4760	800019ac	00eeeeb3	or	x29,x29,x14	 x29:0x3ffffe16 x14:0x800018e0 x29=0xbffffef6
       47625000	      4761	800019b0	41db5633	sra	x12,x22,x29	 x22:0xfffff858 x29:0xbffffef6 x12=0xffffffff
       47635000	      4762	800019b4	05967663	bgeu	x12,x25,80001a00	 x12:0xffffffff x25:0x00000000
       47645000	      4763	00000000	00000013	addi	x0,x0,0	  x0:0x00000000
       47655000	      4764	800019fc	00000013	addi	x0,x0,0	  x0:0x00000000
       47665000	      4765	80001a00	33257093	andi	x1,x10,818	 x10:0xc5def840  x1=0x00000000
       47675000	      4766	80001a04	04419463	bne	x3,x4,80001a4c	  x3:0xffffffdd  x4:0x00062f00
       47685000	      4767	00000000	00000013	addi	x0,x0,0	  x0:0x00000000
       47695000	      4768	80001a48	00000013	addi	x0,x0,0	  x0:0x00000000
       47705000	      4769	80001a4c	0014ce33	xor	x28,x9,x1	  x9:0x00000000  x1:0x00000000 x28=0x00000000
       47715000	      4770	80001a50	c369c893	xori	x17,x19,-970	 x19:0xfffffc00 x17=0x00000036
       47725000	      4771	80001a54	0132c663	blt	x5,x19,80001a60	  x5:0x00000000 x19:0xfffffc00
       47735000	      4772	80001a58	0112bbb3	sltu	x23,x5,x17	  x5:0x00000000 x17:0x00000036 x23=0x00000001
       47745000	      4773	80001a5c	5cd5ce93	xori	x29,x11,1485	 x11:0x80000000 x29=0x800005cd
       47755000	      4774	80001a60	0357f463	bgeu	x15,x21,80001a88	 x15:0x80000000 x21:0x80009f3c
       47765000	      4775	80001a64	02fd5a63	bge	x26,x15,80001a98	 x26:0xffffffdd x15:0x80000000
       47775000	      4776	00000000	00000013	addi	x0,x0,0	  x0:0x00000000
       47785000	      4777	80001a94	00000013	addi	x0,x0,0	  x0:0x00000000
       47795000	      4778	80001a98	1ecbfbb7	lui	x23,0x1ecbf	 x23=0x1ecbf000
       47805000	      4779	80001a9c	d5c58193	addi	x3,x11,-676	 x11:0x80000000  x3=0x7ffffd5c
       47815000	      4780	80001aa0	42d1bd93	sltiu	x27,x3,1069	  x3:0x7ffffd5c x27=0x00000000
       47825000	      4781	80001aa4	20be2193	slti	x3,x28,523	 x28:0x00000000  x3=0x00000001
       47835000	      4782	80001aa8	418ad6b3	sra	x13,x21,x24	 x21:0x80009f3c x24:0x80001898 x13=0xffffff80
       47845000	      4783	80001aac	01a34333	xor	x6,x6,x26	  x6:0x800018d4 x26:0xffffffdd  x6=0x7fffe709
       47855000	      4784	80001ab0	a90a6993	ori	x19,x20,-1392	 x20:0xb6efe000 x19=0xfffffa90
       47865000	      4785	80001ab4	0300ce63	blt	x1,x16,80001af0	  x1:0x00000000 x16:0x80009f3c
       47875000	      4786	80001ab8	00370733	add	x14,x14,x3	 x14:0x800018e0  x3:0x00000001 x14=0x800018e1
       47885000	      4787	80001abc	00000013	addi	x0,x0,0	  x0:0x00000000
       47895000	      4788	80001ac0	6eafe293	ori	x5,x31,1770	 x31:0x80009fc4  x5=0x80009fee
       47905000	      4789	80001ac4	f8ca0937	lui	x18,0xf8ca0	 x18=0xf8ca0000
       47915000	      4790	80001ac8	41905433	sra	x8,x0,x25	  x0:0x00000000 x25:0x00000000  x8=0x00000000
       47925000	      4791	80001acc	01575913	srli	x18,x14,0x15	 x14:0x800018e1 x18=0x00000400
       47935000	      4792	80001ad0	4b6ce193	ori	x3,x25,1206	 x25:0x00000000  x3=0x000004b6
       47945000	      4793	80001ad4	40f4d093	srai	x1,x9,0xf	  x9:0x00000000  x1=0x00000000
       47955000	      4794	80001ad8	016427b3	slt	x15,x8,x22	  x8:0x00000000 x22:0xfffff858 x15=0x00000000
       47965000	      4795	80001adc	00c76db3	or	x27,x14,x12	 x14:0x800018e1 x12:0xffffffff x27=0xffffffff
       47975000	      4796	80001ae0	010d1863	bne	x26,x16,80001af0	 x26:0xffffffdd x16:0x80009f3c
       47985000	      4797	00000000	00000013	addi	x0,x0,0	  x0:0x00000000
       47995000	      4798	80001aec	00000013	addi	x0,x0,0	  x0:0x00000000
       48005000	      4799	80001af0	02fb9c63	bne	x23,x15,80001b28	 x23:0x1ecbf000 x15:0x00000000
       48015000	      4800	00000000	00000013	addi	x0,x0,0	  x0:0x00000000
       48025000	      4801	80001b24	00000013	addi	x0,x0,0	  x0:0x00000000
       48035000	      4802	80001b28	0065d333	srl	x6,x11,x6	 x11:0x80000000  x6:0x7fffe709  x6=0x00400000
       48045000	      4803	80001b2c	02d35063	bge	x6,x13,80001b4c	  x6:0x00400000 x13:0xffffff80
       48055000	      4804	00000000	00000013	addi	x0,x0,0	  x0:0x00000000
       48065000	      4805	80001b48	00000013	addi	x0,x0,0	  x0:0x00000000
       48075000	      4806	80001b4c	049dd663	bge	x27,x9,80001b98	 x27:0xffffffff  x9:0x00000000
       48085000	      4807	80001b50	9652b393	sltiu	x7,x5,-1691	  x5:0x80009fee  x7=0x00000001
       48095000	      4808	80001b54	91746313	ori	x6,x8,-1769	  x8:0x00000000  x6=0xfffff917
       48105000	      4809	80001b58	019aa4b3	slt	x9,x21,x25	 x21:0x80009f3c x25:0x00000000  x9=0x00000001
       48115000	      4810	80001b5c	01ffa1b3	slt	x3,x31,x31	 x31:0x80009fc4 x31:0x80009fc4  x3=0x00000000
       48125000	      4811	80001b60	03e60c63	beq	x12,x30,80001b98	 x12:0xffffffff x30:0x00000000
       48135000	      4812	80001b64	01261433	sll	x8,x12,x18	 x12:0xffffffff x18:0x00000400  x8=0xffffffff
       48145000	      4813	80001b68	02194263	blt	x18,x1,80001b8c	 x18:0x00000400  x1:0x00000000
       48155000	      4814	80001b6c	01e8a8b3	slt	x17,x17,x30	 x17:0x00000036 x30:0x00000000 x17=0x00000000
       48165000	      4815	80001b70	00ef1a13	slli	x20,x30,0xe	 x30:0x00000000 x20=0x00000000
       48175000	      4816	80001b74	0240f463	bgeu	x1,x4,80001b9c	  x1:0x00000000  x4:0x00062f00
       48185000	      4817	80001b78	39c04713	xori	x14,x0,924	  x0:0x00000000 x14=0x0000039c
       48195000	      4818	80001b7c	00190663	beq	x18,x1,80001b88	 x18:0x00000400  x1:0x00000000
       48205000	      4819	80001b80	99135437	lui	x8,0x99135	  x8=0x99135000
       48215000	      4820	80001b84	04f18063	beq	x3,x15,80001bc4	  x3:0x00000000 x15:0x00000000
       48225000	      4821	00000000	00000013	addi	x0,x0,0	  x0:0x00000000
       48235000	      4822	80001bc0	00000013	addi	x0,x0,0	  x0:0x00000000
       48245000	      4823	80001bc4	41badcb3	sra	x25,x21,x27	 x21:0x80009f3c x27:0xffffffff x25=0xffffffff
       48255000	      4824	80001bc8	00993133	sltu	x2,x18,x9	 x18:0x00000400  x9:0x00000001  x2=0x00000000
       48265000	      4825	80001bcc	e42cd6b7	lui	x13,0xe42cd	 x13=0xe42cd000
       48275000	      4826	80001bd0	41248233	sub	x4,x9,x18	  x9:0x00000001 x18:0x00000400  x4=0xfffffc01
       48285000	      4827	80001bd4	40ccd0b3	sra	x1,x25,x12	 x25:0xffffffff x12:0xffffffff  x1=0xffffffff
       48295000	      4828	80001bd8	03721863	bne	x4,x23,80001c08	  x4:0xfffffc01 x23:0x1ecbf000
       48305000	      4829	00000000	00000013	addi	x0,x0,0	  x0:0x00000000
       48315000	      4830	80001c04	00000013	addi	x0,x0,0	  x0:0x00000000
       48325000	      4831	80001c08	0167a133	slt	x2,x15,x22	 x15:0x00000000 x22:0xfffff858  x2=0x00000000
       48335000	      4832	80001c0c	007b5433	srl	x8,x22,x7	 x22:0xfffff858  x7:0x00000001  x8=0x7ffffc2c
       48345000	      4833	80001c10	00d101b3	add	x3,x2,x13	  x2:0x00000000 x13:0xe42cd000  x3=0xe42cd000
       48355000	      4834	80001c14	02ca6a63	bltu	x20,x12,80001c48	 x20:0x00000000 x12:0xffffffff
       48365000	      4835	00000000	00000013	addi	x0,x0,0	  x0:0x00000000
       48375000	      4836	80001c44	00000013	addi	x0,x0,0	  x0:0x00000000
       48385000	      4837	80001c48	6dbe5c97	auipc	x25,0x6dbe5	 x25=0xedbe6c44
       48395000	      4838	80001c4c	03646c63	bltu	x8,x22,80001c84	  x8:0x7ffffc2c x22:0xfffff858
       48405000	      4839	00000000	00000013	addi	x0,x0,0	  x0:0x00000000
       48415000	      4840	80001c80	00000013	addi	x0,x0,0	  x0:0x00000000
       48425000	      4841	80001c84	00b07133	and	x2,x0,x11	  x0:0x00000000 x11:0x80000000  x2=0x00000000
       48435000	      4842	80001c88	9371ff13	andi	x30,x3,-1737	  x3:0xe42cd000 x30=0xe42cd000
       48445000	      4843	80001c8c	b06f2993	slti	x19,x30,-1274	 x30:0xe42cd000 x19=0x00000001
       48455000	      4844	80001c90	2d63a513	slti	x10,x7,726	  x7:0x00000001 x10=0x00000001
       48465000	      4845	80001c94	04a67263	bgeu	x12,x10,80001cd8	 x12:0xffffffff x10:0x00000001
       48475000	      4846	00000000	00000013	addi	x0,x0,0	  x0:0x00000000
       48485000	      4847	80001cd4	00000013	addi	x0,x0,0	  x0:0x00000000
       48495000	      4848	80001cd8	00d5a1b3	slt	x3,x11,x13	 x11:0x80000000 x13:0xe42cd000  x3=0x00000001
       48505000	      4849	80001cdc	00021413	slli	x8,x4,0x0	  x4:0xfffffc01  x8=0xfffffc01
       48515000	      4850	80001ce0	d7bfc897	auipc	x17,0xd7bfc	 x17=0x57bfdcdc
       48525000	      4851	80001ce4	42edcf13	xori	x30,x27,1070	 x27:0xffffffff x30=0xfffffbd1
       48535000	      4852	80001ce8	00479d13	slli	x26,x15,0x4	 x15:0x00000000 x26=0x00000000
       48545000	      4853	80001cec	018ad3b3	srl	x7,x21,x24	 x21:0x80009f3c x24:0x80001898  x7=0x00000080
       48555000	      4854	80001cf0	bf06e097	auipc	x1,0xbf06e	  x1=0x3f06fcec
       48565000	      4855	80001cf4	01d10233	add	x4,x2,x29	  x2:0x00000000 x29:0x800005cd  x4=0x800005cd
       48575000	      4856	80001cf8	01a032b3	sltu	x5,x0,x26	  x0:0x00000000 x26:0x00000000  x5=0x00000000
       48585000	      4857	80001cfc	004f27b3	slt	x15,x30,x4	 x30:0xfffffbd1  x4:0x800005cd x15=0x00000000
       48595000	      4858	80001d00	006f9993	slli	x19,x31,0x6	 x31:0x80009fc4 x19=0x0027f100
       48605000	      4859	80001d04	fb9ce793	ori	x15,x25,-71	 x25:0xedbe6c44 x15=0xfffffffd
       48615000	      4860	80001d08	007c4463	blt	x24,x7,80001d10	 x24:0x80001898  x7:0x00000080
       48625000	      4861	00000000	00000013	addi	x0,x0,0	  x0:0x00000000
       48635000	      4862	80001d0c	00000013	addi	x0,x0,0	  x0:0x00000000
       48645000	      4863	80001d10	007e1db3	sll	x27,x28,x7	 x28:0x00000000  x7:0x00000080 x27=0x00000000
       48655000	      4864	80001d14	006560b3	or	x1,x10,x6	 x10:0x00000001  x6:0xfffff917  x1=0xfffff917
       48665000	      4865	80001d18	5a53cd13	xori	x26,x7,1445	  x7:0x00000080 x26=0x00000525
       48675000	      4866	80001d1c	013a1463	bne	x20,x19,80001d24	 x20:0x00000000 x19:0x0027f100
       48685000	      4867	00000000	00000013	addi	x0,x0,0	  x0:0x00000000
       48695000	      4868	80001d20	00000013	addi	x0,x0,0	  x0:0x00000000
       48705000	      4869	80001d24	ca340737	lui	x14,0xca340	 x14=0xca340000
       48715000	      4870	80001d28	00000013	addi	x0,x0,0	  x0:0x00000000
       48725000	      4871	80001d2c	00007f33	and	x30,x0,x0	  x0:0x00000000  x0:0x00000000 x30=0x00000000
       48735000	      4872	80001d30	bf3de613	ori	x12,x27,-1037	 x27:0x00000000 x12=0xfffffbf3
       48745000	      4873	80001d34	05edf463	bgeu	x27,x30,80001d7c	 x27:0x00000000 x30:0x00000000
       48755000	      4874	00000000	00000013	addi	x0,x0,0	  x0:0x00000000
       48765000	      4875	80001d78	00000013	addi	x0,x0,0	  x0:0x00000000
       48775000	      4876	80001d7c	00a1feb3	and	x29,x3,x10	  x3:0x00000001 x10:0x00000001 x29=0x00000001
       48785000	      4877	80001d80	0025dc13	srli	x24,x11,0x2	 x11:0x80000000 x24=0x20000000
       48795000	      4878	80001d84	00b0d813	srli	x16,x1,0xb	  x1:0xfffff917 x16=0x001fffff
       48805000	      4879	80001d88	01fe7a63	bgeu	x28,x31,80001d9c	 x28:0x00000000 x31:0x80009fc4
       48815000	      4880	80001d8c	01100263	beq	x0,x17,80001d90	  x0:0x00000000 x17:0x57bfdcdc
       48825000	      4881	80001d90	01c74d33	xor	x26,x14,x28	 x14:0xca340000 x28:0x00000000 x26=0xca340000
       48835000	      4882	80001d94	0151d0b3	srl	x1,x3,x21	  x3:0x00000001 x21:0x80009f3c  x1=0x00000000
       48845000	      4883	80001d98	01035093	srli	x1,x6,0x10	  x6:0xfffff917  x1=0x0000ffff
       48855000	      4884	80001d9c	a242c493	xori	x9,x5,-1500	  x5:0x00000000  x9=0xfffffa24
       48865000	      4885	80001da0	0144e7b3	or	x15,x9,x20	  x9:0xfffffa24 x20:0x00000000 x15=0xfffffa24
       48875000	      4886	80001da4	c9527c93	andi	x25,x4,-875	  x4:0x800005cd x25=0x80000485
       48885000	      4887	80001da8	0113e933	or	x18,x7,x17	  x7:0x00000080 x17:0x57bfdcdc x18=0x57bfdcdc
       48895000	      4888	80001dac	013b9d33	sll	x26,x23,x19	 x23:0x1ecbf000 x19:0x0027f100 x26=0x1ecbf000
       48905000	      4889	80001db0	41c90933	sub	x18,x18,x28	 x18:0x57bfdcdc x28:0x00000000 x18=0x57bfdcdc
       48915000	      4890	80001db4	01efd313	srli	x6,x31,0x1e	 x31:0x80009fc4  x6=0x00000002
       48925000	      4891	80001db8	03eb6863	bltu	x22,x30,80001de8	 x22:0xfffff858 x30:0x00000000
       48935000	      4892	80001dbc	00258db3	add	x27,x11,x2	 x11:0x80000000  x2:0x00000000 x27=0x80000000
       48945000	      4893	80001dc0	00c35293	srli	x5,x6,0xc	  x6:0x00000002  x5=0x00000000
       48955000	      4894	80001dc4	00000013	addi	x0,x0,0	  x0:0x00000000
       48965000	      4895	80001dc8	03eed263	bge	x29,x30,80001dec	 x29:0x00000001 x30:0x00000000
       48975000	      4896	00000000	00000013	addi	x0,x0,0	  x0:0x00000000
       48985000	      4897	80001de8	00000013	addi	x0,x0,0	  x0:0x00000000
       48995000	      4898	80001dec	015e5133	srl	x2,x28,x21	 x28:0x00000000 x21:0x80009f3c  x2=0x00000000
       49005000	      4899	80001df0	01429db3	sll	x27,x5,x20	  x5:0x00000000 x20:0x00000000 x27=0x00000000
       49015000	      4900	80001df4	6f637713	andi	x14,x6,1782	  x6:0x00000002 x14=0x00000002
       49025000	      4901	80001df8	0133e833	or	x16,x7,x19	  x7:0x00000080 x19:0x0027f100 x16=0x0027f180
       49035000	      4902	80001dfc	90a909b7	lui	x19,0x90a90	 x19=0x90a90000
       49045000	      4903	80001e00	00499393	slli	x7,x19,0x4	 x19:0x90a90000  x7=0x0a900000
       49055000	      4904	80001e04	02144063	blt	x8,x1,80001e24	  x8:0xfffffc01  x1:0x0000ffff
       49065000	      4905	00000000	00000013	addi	x0,x0,0	  x0:0x00000000
       49075000	      4906	80001e20	00000013	addi	x0,x0,0	  x0:0x00000000
       49085000	      4907	80001e24	01c96a33	or	x20,x18,x28	 x18:0x57bfdcdc x28:0x00000000 x20=0x57bfdcdc
       49095000	      4908	80001e28	08b04517	auipc	x10,0x8b04	 x10=0x88b05e24
       49105000	      4909	80001e2c	40853113	sltiu	x2,x10,1032	 x10:0x88b05e24  x2=0x00000000
       49115000	      4910	80001e30	01cb4db3	xor	x27,x22,x28	 x22:0xfffff858 x28:0x00000000 x27=0xfffff858
       49125000	      4911	80001e34	243e7413	andi	x8,x28,579	 x28:0x00000000  x8=0x00000000
       49135000	      4912	80001e38	02567663	bgeu	x12,x5,80001e64	 x12:0xfffffbf3  x5:0x00000000
       49145000	      4913	00000000	00000013	addi	x0,x0,0	  x0:0x00000000
       49155000	      4914	80001e60	00000013	addi	x0,x0,0	  x0:0x00000000
       49165000	      4915	80001e64	40c6dbb3	sra	x23,x13,x12	 x13:0xe42cd000 x12:0xfffffbf3 x23=0xfffffc85
       49175000	      4916	80001e68	01779db3	sll	x27,x15,x23	 x15:0xfffffa24 x23:0xfffffc85 x27=0xffff4480
       49185000	      4917	80001e6c	6b13f813	andi	x16,x7,1713	  x7:0x0a900000 x16=0x00000000
       49195000	      4918	80001e70	00000013	addi	x0,x0,0	  x0:0x00000000
       49205000	      4919	80001e74	2f3ffa13	andi	x20,x31,755	 x31:0x80009fc4 x20=0x000002c0
       49215000	      4920	80001e78	02e45e63	bge	x8,x14,80001eb4	  x8:0x00000000 x14:0x00000002
       49225000	      4921	80001e7c	00200033	add	x0,x0,x2	  x0:0x00000000  x2:0x00000000
       49235000	      4922	80001e80	08217e93	andi	x29,x2,130	  x2:0x00000000 x29=0x00000000
       49245000	      4923	80001e84	011cc033	xor	x0,x25,x17	 x25:0x80000485 x17:0x57bfdcdc
       49255000	      4924	80001e88	00c10033	add	x0,x2,x12	  x2:0x00000000 x12:0xfffffbf3
       49265000	      4925	80001e8c	01acdcb3	srl	x25,x25,x26	 x25:0x80000485 x26:0x1ecbf000 x25=0x80000485
       49275000	      4926	80001e90	404a5f13	srai	x30,x20,0x4	 x20:0x000002c0 x30=0x0000002c
       49285000	      4927	80001e94	f3d1fc93	andi	x25,x3,-195	  x3:0x00000001 x25=0x00000001
       49295000	      4928	80001e98	bad6fe13	andi	x28,x13,-1107	 x13:0xe42cd000 x28=0xe42cd000
       49305000	      4929	80001e9c	0079e863	bltu	x19,x7,80001eac	 x19:0x90a90000  x7:0x0a900000
       49315000	      4930	80001ea0	54132e93	slti	x29,x6,1345	  x6:0x00000002 x29=0x00000001
       49325000	      4931	80001ea4	0165d663	bge	x11,x22,80001eb0	 x11:0x80000000 x22:0xfffff858
       49335000	      4932	80001ea8	008250b3	srl	x1,x4,x8	  x4:0x800005cd  x8:0x00000000  x1=0x800005cd
       49345000	      4933	80001eac	405882b3	sub	x5,x17,x5	 x17:0x57bfdcdc  x5:0x00000000  x5=0x57bfdcdc
       49355000	      4934	80001eb0	334c2397	auipc	x7,0x334c2	  x7=0xb34c3eac
       49365000	      4935	80001eb4	007f0eb3	add	x29,x30,x7	 x30:0x0000002c  x7:0xb34c3eac x29=0xb34c3ed8
       49375000	      4936	80001eb8	0104b633	sltu	x12,x9,x16	  x9:0xfffffa24 x16:0x00000000 x12=0x00000000
       49385000	      4937	80001ebc	415b8eb3	sub	x29,x23,x21	 x23:0xfffffc85 x21:0x80009f3c x29=0x7fff5d49
       49395000	      4938	80001ec0	00000013	addi	x0,x0,0	  x0:0x00000000
       49405000	      4939	80001ec4	014d5e93	srli	x29,x26,0x14	 x26:0x1ecbf000 x29=0x000001ec
       49415000	      4940	80001ec8	bb69a493	slti	x9,x19,-1098	 x19:0x90a90000  x9=0x00000001
       49425000	      4941	80001ecc	027f4a63	blt	x30,x7,80001f00	 x30:0x0000002c  x7:0xb34c3eac
       49435000	      4942	80001ed0	891d6393	ori	x7,x26,-1903	 x26:0x1ecbf000  x7=0xfffff891
       49445000	      4943	80001ed4	574df113	andi	x2,x27,1396	 x27:0xffff4480  x2=0x00000400
       49455000	      4944	80001ed8	f035c413	xori	x8,x11,-253	 x11:0x80000000  x8=0x7fffff03
       49465000	      4945	80001edc	c05ec793	xori	x15,x29,-1019	 x29:0x000001ec x15=0xfffffde9
       49475000	      4946	80001ee0	04ed0663	beq	x26,x14,80001f2c	 x26:0x1ecbf000 x14:0x00000002
       49485000	      4947	80001ee4	02cf7c63	bgeu	x30,x12,80001f1c	 x30:0x0000002c x12:0x00000000
       49495000	      4948	00000000	00000013	addi	x0,x0,0	  x0:0x00000000
       49505000	      4949	80001f18	00000013	addi	x0,x0,0	  x0:0x00000000
       49515000	      4950	80001f1c	01e09663	bne	x1,x30,80001f28	  x1:0x800005cd x30:0x0000002c
       49525000	      4951	00000000	00000013	addi	x0,x0,0	  x0:0x00000000
       49535000	      4952	80001f24	00000013	addi	x0,x0,0	  x0:0x00000000
       49545000	      4953	80001f28	00000013	addi	x0,x0,0	  x0:0x00000000
       49555000	      4954	80001f2c	01c3a533	slt	x10,x7,x28	  x7:0xfffff891 x28:0xe42cd000 x10=0x00000000
       49565000	      4955	80001f30	00f45cb3	srl	x25,x8,x15	  x8:0x7fffff03 x15:0xfffffde9 x25=0x003fffff
       49575000	      4956	80001f34	02f40463	beq	x8,x15,80001f5c	  x8:0x7fffff03 x15:0xfffffde9
       49585000	      4957	80001f38	418051b3	sra	x3,x0,x24	  x0:0x00000000 x24:0x20000000  x3=0x00000000
       49595000	      4958	80001f3c	004efe33	and	x28,x29,x4	 x29:0x000001ec  x4:0x800005cd x28=0x000001cc
       49605000	      4959	80001f40	04026063	bltu	x4,x0,80001f80	  x4:0x800005cd  x0:0x00000000
       49615000	      4960	80001f44	048a6863	bltu	x20,x8,80001f94	 x20:0x000002c0  x8:0x7fffff03
       49625000	      4961	00000000	00000013	addi	x0,x0,0	  x0:0x00000000
       49635000	      4962	80001f90	00000013	addi	x0,x0,0	  x0:0x00000000
       49645000	      4963	80001f94	02d91663	bne	x18,x13,80001fc0	 x18:0x57bfdcdc x13:0xe42cd000
       49655000	      4964	00000000	00000013	addi	x0,x0,0	  x0:0x00000000
       49665000	      4965	80001fbc	00000013	addi	x0,x0,0	  x0:0x00000000
       49675000	      4966	80001fc0	01544863	blt	x8,x21,80001fd0	  x8:0x7fffff03 x21:0x80009f3c
       49685000	      4967	80001fc4	00a2a733	slt	x14,x5,x10	  x5:0x57bfdcdc x10:0x00000000 x14=0x00000000
       49695000	      4968	80001fc8	00783db3	sltu	x27,x16,x7	 x16:0x00000000  x7:0xfffff891 x27=0x00000001
       49705000	      4969	80001fcc	01a30a63	beq	x6,x26,80001fe0	  x6:0x00000002 x26:0x1ecbf000
       49715000	      4970	80001fd0	00000013	addi	x0,x0,0	  x0:0x00000000
       49725000	      4971	80001fd4	00e75193	srli	x3,x14,0xe	 x14:0x00000000  x3=0x00000000
       49735000	      4972	80001fd8	02a11063	bne	x2,x10,80001ff8	  x2:0x00000400 x10:0x00000000
       49745000	      4973	00000000	00000013	addi	x0,x0,0	  x0:0x00000000
       49755000	      4974	80001ff4	00000013	addi	x0,x0,0	  x0:0x00000000
       49765000	      4975	80001ff8	01d96133	or	x2,x18,x29	 x18:0x57bfdcdc x29:0x000001ec  x2=0x57bfddfc
       49775000	      4976	80001ffc	5601d797	auipc	x15,0x5601d	 x15=0xd601eff8
       49785000	      4977	80002000	01181533	sll	x10,x16,x17	 x16:0x00000000 x17:0x57bfdcdc x10=0x00000000
       49795000	      4978	80002004	413d5693	srai	x13,x26,0x13	 x26:0x1ecbf000 x13=0x000003d9
       49805000	      4979	80002008	00ec52b3	srl	x5,x24,x14	 x24:0x20000000 x14:0x00000000  x5=0x20000000
       49815000	      4980	8000200c	003e5933	srl	x18,x28,x3	 x28:0x000001cc  x3:0x00000000 x18=0x000001cc
       49825000	      4981	80002010	002736b3	sltu	x13,x14,x2	 x14:0x00000000  x2:0x57bfddfc x13=0x00000001
       49835000	      4982	80002014	004aa083	lw	x1,4(x21)	 x21:0x80009f3c  x1=0x80003d5c PA:0x80009f40
       49845000	      4983	80002018	b63a2c93	slti	x25,x20,-1181	 x20:0x000002c0 x25=0x00000000
       49855000	      4984	8000201c	019ebf33	sltu	x30,x29,x25	 x29:0x000001ec x25:0x00000000 x30=0x00000000
       49865000	      4985	80002020	015caeb3	slt	x29,x25,x21	 x25:0x00000000 x21:0x80009f3c x29=0x00000000
       49875000	      4986	80002024	01e1e8b3	or	x17,x3,x30	  x3:0x00000000 x30:0x00000000 x17=0x00000000
       49885000	      4987	80002028	7e5b3513	sltiu	x10,x22,2021	 x22:0xfffff858 x10=0x00000000
       49895000	      4988	8000202c	018a8a93	addi	x21,x21,24	 x21:0x80009f3c x21=0x80009f54
       49905000	      4989	80002030	1bdf8693	addi	x13,x31,445	 x31:0x80009fc4 x13=0x8000a181
       49915000	      4990	80002034	00108b13	addi	x22,x1,1	  x1:0x80003d5c x22=0x80003d5d
       49925000	      4991	80002038	000b0b67	jalr	x22,x22,0	 x22:0x80003d5d x22=0x80002038
       49935000	      4992	00000000	00000013	addi	x0,x0,0	  x0:0x00000000
       49945000	      4993	80003d5c	00000013	addi	x0,x0,0	  x0:0x00000000
       49955000	      4994	80003d60	040000ef	jal	x1,80003d60	  x1=0x80003d60
       49965000	      4995	00000000	00000013	addi	x0,x0,0	  x0:0x00000000
       49975000	      4996	80003d9c	00000013	addi	x0,x0,0	  x0:0x00000000
       49985000	      4997	80003da0	fe1ff0ef	jal	x1,80003da0	  x1=0x80003da0
       49995000	      4998	00000000	00000013	addi	x0,x0,0	  x0:0x00000000
       50005000	      4999	80003d7c	00000013	addi	x0,x0,0	  x0:0x00000000
       50015000	      5000	80003d80	004000ef	jal	x1,80003d80	  x1=0x80003d80
       50025000	      5001	00000000	00000013	addi	x0,x0,0	  x0:0x00000000
       50035000	      5002	80003d80	00000013	addi	x0,x0,0	  x0:0x00000000
       50045000	      5003	80003d84	ff1ff16f	jal	x2,80003d84	  x2=0x80003d84
       50055000	      5004	00000000	00000013	addi	x0,x0,0	  x0:0x00000000
       50065000	      5005	80003d70	00000013	addi	x0,x0,0	  x0:0x00000000
       50075000	      5006	80003d74	ff9ffcef	jal	x25,80003d74	 x25=0x80003d74
       50085000	      5007	00000000	00000013	addi	x0,x0,0	  x0:0x00000000
       50095000	      5008	80003d68	00000013	addi	x0,x0,0	  x0:0x00000000
       50105000	      5009	80003d6c	02000bef	jal	x23,80003d6c	 x23=0x80003d6c
       50115000	      5010	00000000	00000013	addi	x0,x0,0	  x0:0x00000000
       50125000	      5011	80003d88	00000013	addi	x0,x0,0	  x0:0x00000000
       50135000	      5012	80003d8c	fe5ff0ef	jal	x1,80003d8c	  x1=0x80003d8c
       50145000	      5013	00000000	00000013	addi	x0,x0,0	  x0:0x00000000
       50155000	      5014	80003d6c	00000013	addi	x0,x0,0	  x0:0x00000000
       50165000	      5015	80003d70	0240026f	jal	x4,80003d70	  x4=0x80003d70
       50175000	      5016	00000000	00000013	addi	x0,x0,0	  x0:0x00000000
       50185000	      5017	80003d90	00000013	addi	x0,x0,0	  x0:0x00000000
       50195000	      5018	80003d94	fd5ffcef	jal	x25,80003d94	 x25=0x80003d94
       50205000	      5019	00000000	00000013	addi	x0,x0,0	  x0:0x00000000
       50215000	      5020	80003d64	00000013	addi	x0,x0,0	  x0:0x00000000
       50225000	      5021	80003d68	034000ef	jal	x1,80003d68	  x1=0x80003d68
       50235000	      5022	00000000	00000013	addi	x0,x0,0	  x0:0x00000000
       50245000	      5023	80003d98	00000013	addi	x0,x0,0	  x0:0x00000000
       50255000	      5024	80003d9c	ffdff8ef	jal	x17,80003d9c	 x17=0x80003d9c
       50265000	      5025	00000000	00000013	addi	x0,x0,0	  x0:0x00000000
       50275000	      5026	80003d94	00000013	addi	x0,x0,0	  x0:0x00000000
       50285000	      5027	80003d98	fcdff16f	jal	x2,80003d98	  x2=0x80003d98
       50295000	      5028	00000000	00000013	addi	x0,x0,0	  x0:0x00000000
       50305000	      5029	80003d60	00000013	addi	x0,x0,0	  x0:0x00000000
       50315000	      5030	80003d64	024000ef	jal	x1,80003d64	  x1=0x80003d64
       50325000	      5031	00000000	00000013	addi	x0,x0,0	  x0:0x00000000
       50335000	      5032	80003d84	00000013	addi	x0,x0,0	  x0:0x00000000
       50345000	      5033	80003d88	01c000ef	jal	x1,80003d88	  x1=0x80003d88
       50355000	      5034	00000000	00000013	addi	x0,x0,0	  x0:0x00000000
       50365000	      5035	80003da0	00000013	addi	x0,x0,0	  x0:0x00000000
       50375000	      5036	80003da4	0040036f	jal	x6,80003da4	  x6=0x80003da4
       50385000	      5037	00000000	00000013	addi	x0,x0,0	  x0:0x00000000
       50395000	      5038	80003da4	00000013	addi	x0,x0,0	  x0:0x00000000
       50405000	      5039	80003da8	fd1ff0ef	jal	x1,80003da8	  x1=0x80003da8
       50415000	      5040	00000000	00000013	addi	x0,x0,0	  x0:0x00000000
       50425000	      5041	80003d74	00000013	addi	x0,x0,0	  x0:0x00000000
       50435000	      5042	80003d78	0040036f	jal	x6,80003d78	  x6=0x80003d78
       50445000	      5043	00000000	00000013	addi	x0,x0,0	  x0:0x00000000
       50455000	      5044	80003d78	00000013	addi	x0,x0,0	  x0:0x00000000
       50465000	      5045	80003d7c	014000ef	jal	x1,80003d7c	  x1=0x80003d7c
       50475000	      5046	00000000	00000013	addi	x0,x0,0	  x0:0x00000000
       50485000	      5047	80003d8c	00000013	addi	x0,x0,0	  x0:0x00000000
       50495000	      5048	80003d90	01c000ef	jal	x1,80003d90	  x1=0x80003d90
       50505000	      5049	00000000	00000013	addi	x0,x0,0	  x0:0x00000000
       50515000	      5050	80003da8	00000013	addi	x0,x0,0	  x0:0x00000000
       50525000	      5051	80003dac	751c3913	sltiu	x18,x24,1873	 x24:0x20000000 x18=0x00000000
       50535000	      5052	80003db0	004000ef	jal	x1,80003db0	  x1=0x80003db0
       50545000	      5053	00000000	00000013	addi	x0,x0,0	  x0:0x00000000
       50555000	      5054	80003db0	00000013	addi	x0,x0,0	  x0:0x00000000
       50565000	      5055	80003db4	00400f6f	jal	x30,80003db4	 x30=0x80003db4
       50575000	      5056	00000000	00000013	addi	x0,x0,0	  x0:0x00000000
       50585000	      5057	80003db4	00000013	addi	x0,x0,0	  x0:0x00000000
       50595000	      5058	80003db8	008003ef	jal	x7,80003db8	  x7=0x80003db8
       50605000	      5059	00000000	00000013	addi	x0,x0,0	  x0:0x00000000
       50615000	      5060	80003dbc	00000013	addi	x0,x0,0	  x0:0x00000000
       50625000	      5061	80003dc0	008000ef	jal	x1,80003dc0	  x1=0x80003dc0
       50635000	      5062	00000000	00000013	addi	x0,x0,0	  x0:0x00000000
       50645000	      5063	80003dc4	00000013	addi	x0,x0,0	  x0:0x00000000
       50655000	      5064	80003dc8	00c000ef	jal	x1,80003dc8	  x1=0x80003dc8
       50665000	      5065	00000000	00000013	addi	x0,x0,0	  x0:0x00000000
       50675000	      5066	80003dd0	00000013	addi	x0,x0,0	  x0:0x00000000
       50685000	      5067	80003dd4	fe9ff1ef	jal	x3,80003dd4	  x3=0x80003dd4
       50695000	      5068	00000000	00000013	addi	x0,x0,0	  x0:0x00000000
       50705000	      5069	80003db8	00000013	addi	x0,x0,0	  x0:0x00000000
       50715000	      5070	80003dbc	020006ef	jal	x13,80003dbc	 x13=0x80003dbc
       50725000	      5071	00000000	00000013	addi	x0,x0,0	  x0:0x00000000
       50735000	      5072	80003dd8	00000013	addi	x0,x0,0	  x0:0x00000000
       50745000	      5073	80003ddc	fe9ff0ef	jal	x1,80003ddc	  x1=0x80003ddc
       50755000	      5074	00000000	00000013	addi	x0,x0,0	  x0:0x00000000
       50765000	      5075	80003dc0	00000013	addi	x0,x0,0	  x0:0x00000000
       50775000	      5076	80003dc4	008000ef	jal	x1,80003dc4	  x1=0x80003dc4
       50785000	      5077	00000000	00000013	addi	x0,x0,0	  x0:0x00000000
       50795000	      5078	80003dc8	00000013	addi	x0,x0,0	  x0:0x00000000
       50805000	      5079	80003dcc	0040036f	jal	x6,80003dcc	  x6=0x80003dcc
       50815000	      5080	00000000	00000013	addi	x0,x0,0	  x0:0x00000000
       50825000	      5081	80003dcc	00000013	addi	x0,x0,0	  x0:0x00000000
       50835000	      5082	80003dd0	00800def	jal	x27,80003dd0	 x27=0x80003dd0
       50845000	      5083	00000000	00000013	addi	x0,x0,0	  x0:0x00000000
       50855000	      5084	80003dd4	00000013	addi	x0,x0,0	  x0:0x00000000
       50865000	      5085	80003dd8	008000ef	jal	x1,80003dd8	  x1=0x80003dd8
       50875000	      5086	00000000	00000013	addi	x0,x0,0	  x0:0x00000000
       50885000	      5087	80003ddc	00000013	addi	x0,x0,0	  x0:0x00000000
       50895000	      5088	80003de0	40238d33	sub	x26,x7,x2	  x7:0x80003db8  x2:0x80003d98 x26=0x00000020
       50905000	      5089	80003de4	00c000ef	jal	x1,80003de4	  x1=0x80003de4
       50915000	      5090	00000000	00000013	addi	x0,x0,0	  x0:0x00000000
       50925000	      5091	80003dec	00000013	addi	x0,x0,0	  x0:0x00000000
       50935000	      5092	80003df0	020000ef	jal	x1,80003df0	  x1=0x80003df0
       50945000	      5093	00000000	00000013	addi	x0,x0,0	  x0:0x00000000
       50955000	      5094	80003e0c	00000013	addi	x0,x0,0	  x0:0x00000000
       50965000	      5095	80003e10	ff1ff0ef	jal	x1,80003e10	  x1=0x80003e10
       50975000	      5096	00000000	00000013	addi	x0,x0,0	  x0:0x00000000
       50985000	      5097	80003dfc	00000013	addi	x0,x0,0	  x0:0x00000000
       50995000	      5098	80003e00	ff5ffc6f	jal	x24,80003e00	 x24=0x80003e00
       51005000	      5099	00000000	00000013	addi	x0,x0,0	  x0:0x00000000
       51015000	      5100	80003df0	00000013	addi	x0,x0,0	  x0:0x00000000
       51025000	      5101	80003df4	02c006ef	jal	x13,80003df4	 x13=0x80003df4
       51035000	      5102	00000000	00000013	addi	x0,x0,0	  x0:0x00000000
       51045000	      5103	80003e1c	00000013	addi	x0,x0,0	  x0:0x00000000
       51055000	      5104	80003e20	fc9ff0ef	jal	x1,80003e20	  x1=0x80003e20
       51065000	      5105	00000000	00000013	addi	x0,x0,0	  x0:0x00000000
       51075000	      5106	80003de4	00000013	addi	x0,x0,0	  x0:0x00000000
       51085000	      5107	80003de8	02c000ef	jal	x1,80003de8	  x1=0x80003de8
       51095000	      5108	00000000	00000013	addi	x0,x0,0	  x0:0x00000000
       51105000	      5109	80003e10	00000013	addi	x0,x0,0	  x0:0x00000000
       51115000	      5110	80003e14	ff1ff36f	jal	x6,80003e14	  x6=0x80003e14
       51125000	      5111	00000000	00000013	addi	x0,x0,0	  x0:0x00000000
       51135000	      5112	80003e00	00000013	addi	x0,x0,0	  x0:0x00000000
       51145000	      5113	80003e04	018000ef	jal	x1,80003e04	  x1=0x80003e04
       51155000	      5114	00000000	00000013	addi	x0,x0,0	  x0:0x00000000
       51165000	      5115	80003e18	00000013	addi	x0,x0,0	  x0:0x00000000
       51175000	      5116	80003e1c	fedff0ef	jal	x1,80003e1c	  x1=0x80003e1c
       51185000	      5117	00000000	00000013	addi	x0,x0,0	  x0:0x00000000
       51195000	      5118	80003e04	00000013	addi	x0,x0,0	  x0:0x00000000
       51205000	      5119	80003e08	ff1ff86f	jal	x16,80003e08	 x16=0x80003e08
       51215000	      5120	00000000	00000013	addi	x0,x0,0	  x0:0x00000000
       51225000	      5121	80003df4	00000013	addi	x0,x0,0	  x0:0x00000000
       51235000	      5122	80003df8	ff5ff36f	jal	x6,80003df8	  x6=0x80003df8
       51245000	      5123	00000000	00000013	addi	x0,x0,0	  x0:0x00000000
       51255000	      5124	80003de8	00000013	addi	x0,x0,0	  x0:0x00000000
       51265000	      5125	80003dec	020000ef	jal	x1,80003dec	  x1=0x80003dec
       51275000	      5126	00000000	00000013	addi	x0,x0,0	  x0:0x00000000
       51285000	      5127	80003e08	00000013	addi	x0,x0,0	  x0:0x00000000
       51295000	      5128	80003e0c	00c000ef	jal	x1,80003e0c	  x1=0x80003e0c
       51305000	      5129	00000000	00000013	addi	x0,x0,0	  x0:0x00000000
       51315000	      5130	80003e14	00000013	addi	x0,x0,0	  x0:0x00000000
       51325000	      5131	80003e18	fe5ff7ef	jal	x15,80003e18	 x15=0x80003e18
       51335000	      5132	00000000	00000013	addi	x0,x0,0	  x0:0x00000000
       51345000	      5133	80003df8	00000013	addi	x0,x0,0	  x0:0x00000000
       51355000	      5134	80003dfc	028000ef	jal	x1,80003dfc	  x1=0x80003dfc
       51365000	      5135	00000000	00000013	addi	x0,x0,0	  x0:0x00000000
       51375000	      5136	80003e20	00000013	addi	x0,x0,0	  x0:0x00000000
       51385000	      5137	80003e24	01930133	add	x2,x6,x25	  x6:0x80003df8 x25:0x80003d94  x2=0x00007b8c
       51395000	      5138	80003e28	008000ef	jal	x1,80003e28	  x1=0x80003e28
       51405000	      5139	00000000	00000013	addi	x0,x0,0	  x0:0x00000000
       51415000	      5140	80003e2c	00000013	addi	x0,x0,0	  x0:0x00000000
       51425000	      5141	80003e30	0580036f	jal	x6,80003e30	  x6=0x80003e30
       51435000	      5142	00000000	00000013	addi	x0,x0,0	  x0:0x00000000
       51445000	      5143	80003e84	00000013	addi	x0,x0,0	  x0:0x00000000
       51455000	      5144	80003e88	fbdff0ef	jal	x1,80003e88	  x1=0x80003e88
       51465000	      5145	00000000	00000013	addi	x0,x0,0	  x0:0x00000000
       51475000	      5146	80003e40	00000013	addi	x0,x0,0	  x0:0x00000000
       51485000	      5147	80003e44	03000e6f	jal	x28,80003e44	 x28=0x80003e44
       51495000	      5148	00000000	00000013	addi	x0,x0,0	  x0:0x00000000
       51505000	      5149	80003e70	00000013	addi	x0,x0,0	  x0:0x00000000
       51515000	      5150	80003e74	00c0026f	jal	x4,80003e74	  x4=0x80003e74
       51525000	      5151	00000000	00000013	addi	x0,x0,0	  x0:0x00000000
       51535000	      5152	80003e7c	00000013	addi	x0,x0,0	  x0:0x00000000
       51545000	      5153	80003e80	ff1ff0ef	jal	x1,80003e80	  x1=0x80003e80
       51555000	      5154	00000000	00000013	addi	x0,x0,0	  x0:0x00000000
       51565000	      5155	80003e6c	00000013	addi	x0,x0,0	  x0:0x00000000
       51575000	      5156	80003e70	014000ef	jal	x1,80003e70	  x1=0x80003e70
       51585000	      5157	00000000	00000013	addi	x0,x0,0	  x0:0x00000000
       51595000	      5158	80003e80	00000013	addi	x0,x0,0	  x0:0x00000000
       51605000	      5159	80003e84	fd5ff36f	jal	x6,80003e84	  x6=0x80003e84
       51615000	      5160	00000000	00000013	addi	x0,x0,0	  x0:0x00000000
       51625000	      5161	80003e54	00000013	addi	x0,x0,0	  x0:0x00000000
       51635000	      5162	80003e58	0080066f	jal	x12,80003e58	 x12=0x80003e58
       51645000	      5163	00000000	00000013	addi	x0,x0,0	  x0:0x00000000
       51655000	      5164	80003e5c	00000013	addi	x0,x0,0	  x0:0x00000000
       51665000	      5165	80003e60	fe1ff0ef	jal	x1,80003e60	  x1=0x80003e60
       51675000	      5166	00000000	00000013	addi	x0,x0,0	  x0:0x00000000
       51685000	      5167	80003e3c	00000013	addi	x0,x0,0	  x0:0x00000000
       51695000	      5168	80003e40	03c000ef	jal	x1,80003e40	  x1=0x80003e40
       51705000	      5169	00000000	00000013	addi	x0,x0,0	  x0:0x00000000
       51715000	      5170	80003e78	00000013	addi	x0,x0,0	  x0:0x00000000
       51725000	      5171	80003e7c	010000ef	jal	x1,80003e7c	  x1=0x80003e7c
       51735000	      5172	00000000	00000013	addi	x0,x0,0	  x0:0x00000000
       51745000	      5173	80003e88	00000013	addi	x0,x0,0	  x0:0x00000000
       51755000	      5174	80003e8c	fedffb6f	jal	x22,80003e8c	 x22=0x80003e8c
       51765000	      5175	00000000	00000013	addi	x0,x0,0	  x0:0x00000000
       51775000	      5176	80003e74	00000013	addi	x0,x0,0	  x0:0x00000000
       51785000	      5177	80003e78	01c000ef	jal	x1,80003e78	  x1=0x80003e78
       51795000	      5178	00000000	00000013	addi	x0,x0,0	  x0:0x00000000
       51805000	      5179	80003e90	00000013	addi	x0,x0,0	  x0:0x00000000
       51815000	      5180	80003e94	fd9ffb6f	jal	x22,80003e94	 x22=0x80003e94
       51825000	      5181	00000000	00000013	addi	x0,x0,0	  x0:0x00000000
       51835000	      5182	80003e68	00000013	addi	x0,x0,0	  x0:0x00000000
       51845000	      5183	80003e6c	030007ef	jal	x15,80003e6c	 x15=0x80003e6c
       51855000	      5184	00000000	00000013	addi	x0,x0,0	  x0:0x00000000
       51865000	      5185	80003e98	00000013	addi	x0,x0,0	  x0:0x00000000
       51875000	      5186	80003e9c	f99ff0ef	jal	x1,80003e9c	  x1=0x80003e9c
       51885000	      5187	00000000	00000013	addi	x0,x0,0	  x0:0x00000000
       51895000	      5188	80003e30	00000013	addi	x0,x0,0	  x0:0x00000000
       51905000	      5189	80003e34	ff9ff26f	jal	x4,80003e34	  x4=0x80003e34
       51915000	      5190	00000000	00000013	addi	x0,x0,0	  x0:0x00000000
       51925000	      5191	80003e28	00000013	addi	x0,x0,0	  x0:0x00000000
       51935000	      5192	80003e2c	024000ef	jal	x1,80003e2c	  x1=0x80003e2c
       51945000	      5193	00000000	00000013	addi	x0,x0,0	  x0:0x00000000
       51955000	      5194	80003e4c	00000013	addi	x0,x0,0	  x0:0x00000000
       51965000	      5195	80003e50	01800cef	jal	x25,80003e50	 x25=0x80003e50
       51975000	      5196	00000000	00000013	addi	x0,x0,0	  x0:0x00000000
       51985000	      5197	80003e64	00000013	addi	x0,x0,0	  x0:0x00000000
       51995000	      5198	80003e68	fedff36f	jal	x6,80003e68	  x6=0x80003e68
       52005000	      5199	00000000	00000013	addi	x0,x0,0	  x0:0x00000000
       52015000	      5200	80003e50	00000013	addi	x0,x0,0	  x0:0x00000000
       52025000	      5201	80003e54	04c000ef	jal	x1,80003e54	  x1=0x80003e54
       52035000	      5202	00000000	00000013	addi	x0,x0,0	  x0:0x00000000
       52045000	      5203	80003e9c	00000013	addi	x0,x0,0	  x0:0x00000000
       52055000	      5204	80003ea0	f99ff0ef	jal	x1,80003ea0	  x1=0x80003ea0
       52065000	      5205	00000000	00000013	addi	x0,x0,0	  x0:0x00000000
       52075000	      5206	80003e34	00000013	addi	x0,x0,0	  x0:0x00000000
       52085000	      5207	80003e38	02c000ef	jal	x1,80003e38	  x1=0x80003e38
       52095000	      5208	00000000	00000013	addi	x0,x0,0	  x0:0x00000000
       52105000	      5209	80003e60	00000013	addi	x0,x0,0	  x0:0x00000000
       52115000	      5210	80003e64	fd9ff0ef	jal	x1,80003e64	  x1=0x80003e64
       52125000	      5211	00000000	00000013	addi	x0,x0,0	  x0:0x00000000
       52135000	      5212	80003e38	00000013	addi	x0,x0,0	  x0:0x00000000
       52145000	      5213	80003e3c	05400eef	jal	x29,80003e3c	 x29=0x80003e3c
       52155000	      5214	00000000	00000013	addi	x0,x0,0	  x0:0x00000000
       52165000	      5215	80003e8c	00000013	addi	x0,x0,0	  x0:0x00000000
       52175000	      5216	80003e90	fbdffcef	jal	x25,80003e90	 x25=0x80003e90
       52185000	      5217	00000000	00000013	addi	x0,x0,0	  x0:0x00000000
       52195000	      5218	80003e48	00000013	addi	x0,x0,0	  x0:0x00000000
       52205000	      5219	80003e4c	04c000ef	jal	x1,80003e4c	  x1=0x80003e4c
       52215000	      5220	00000000	00000013	addi	x0,x0,0	  x0:0x00000000
       52225000	      5221	80003e94	00000013	addi	x0,x0,0	  x0:0x00000000
       52235000	      5222	80003e98	fc5ff0ef	jal	x1,80003e98	  x1=0x80003e98
       52245000	      5223	00000000	00000013	addi	x0,x0,0	  x0:0x00000000
       52255000	      5224	80003e58	00000013	addi	x0,x0,0	  x0:0x00000000
       52265000	      5225	80003e5c	fedff0ef	jal	x1,80003e5c	  x1=0x80003e5c
       52275000	      5226	00000000	00000013	addi	x0,x0,0	  x0:0x00000000
       52285000	      5227	80003e44	00000013	addi	x0,x0,0	  x0:0x00000000
       52295000	      5228	80003e48	05c000ef	jal	x1,80003e48	  x1=0x80003e48
       52305000	      5229	00000000	00000013	addi	x0,x0,0	  x0:0x00000000
       52315000	      5230	80003ea0	00000013	addi	x0,x0,0	  x0:0x00000000
       52325000	      5231	80003ea4	01235b33	srl	x22,x6,x18	  x6:0x80003e68 x18:0x00000000 x22=0x80003e68
       52335000	      5232	80003ea8	01c000ef	jal	x1,80003ea8	  x1=0x80003ea8
       52345000	      5233	00000000	00000013	addi	x0,x0,0	  x0:0x00000000
       52355000	      5234	80003ec0	00000013	addi	x0,x0,0	  x0:0x00000000
       52365000	      5235	80003ec4	03c000ef	jal	x1,80003ec4	  x1=0x80003ec4
       52375000	      5236	00000000	00000013	addi	x0,x0,0	  x0:0x00000000
       52385000	      5237	80003efc	00000013	addi	x0,x0,0	  x0:0x00000000
       52395000	      5238	80003f00	fc9ff36f	jal	x6,80003f00	  x6=0x80003f00
       52405000	      5239	00000000	00000013	addi	x0,x0,0	  x0:0x00000000
       52415000	      5240	80003ec4	00000013	addi	x0,x0,0	  x0:0x00000000
       52425000	      5241	80003ec8	0280036f	jal	x6,80003ec8	  x6=0x80003ec8
       52435000	      5242	00000000	00000013	addi	x0,x0,0	  x0:0x00000000
       52445000	      5243	80003eec	00000013	addi	x0,x0,0	  x0:0x00000000
       52455000	      5244	80003ef0	fe9ff0ef	jal	x1,80003ef0	  x1=0x80003ef0
       52465000	      5245	00000000	00000013	addi	x0,x0,0	  x0:0x00000000
       52475000	      5246	80003ed4	00000013	addi	x0,x0,0	  x0:0x00000000
       52485000	      5247	80003ed8	fd9ff0ef	jal	x1,80003ed8	  x1=0x80003ed8
       52495000	      5248	00000000	00000013	addi	x0,x0,0	  x0:0x00000000
       52505000	      5249	80003eac	00000013	addi	x0,x0,0	  x0:0x00000000
       52515000	      5250	80003eb0	020000ef	jal	x1,80003eb0	  x1=0x80003eb0
       52525000	      5251	00000000	00000013	addi	x0,x0,0	  x0:0x00000000
       52535000	      5252	80003ecc	00000013	addi	x0,x0,0	  x0:0x00000000
       52545000	      5253	80003ed0	00c000ef	jal	x1,80003ed0	  x1=0x80003ed0
       52555000	      5254	00000000	00000013	addi	x0,x0,0	  x0:0x00000000
       52565000	      5255	80003ed8	00000013	addi	x0,x0,0	  x0:0x00000000
       52575000	      5256	80003edc	ff1ff16f	jal	x2,80003edc	  x2=0x80003edc
       52585000	      5257	00000000	00000013	addi	x0,x0,0	  x0:0x00000000
       52595000	      5258	80003ec8	00000013	addi	x0,x0,0	  x0:0x00000000
       52605000	      5259	80003ecc	020000ef	jal	x1,80003ecc	  x1=0x80003ecc
       52615000	      5260	00000000	00000013	addi	x0,x0,0	  x0:0x00000000
       52625000	      5261	80003ee8	00000013	addi	x0,x0,0	  x0:0x00000000
       52635000	      5262	80003eec	010000ef	jal	x1,80003eec	  x1=0x80003eec
       52645000	      5263	00000000	00000013	addi	x0,x0,0	  x0:0x00000000
       52655000	      5264	80003ef8	00000013	addi	x0,x0,0	  x0:0x00000000
       52665000	      5265	80003efc	fc5ff0ef	jal	x1,80003efc	  x1=0x80003efc
       52675000	      5266	00000000	00000013	addi	x0,x0,0	  x0:0x00000000
       52685000	      5267	80003ebc	00000013	addi	x0,x0,0	  x0:0x00000000
       52695000	      5268	80003ec0	024000ef	jal	x1,80003ec0	  x1=0x80003ec0
       52705000	      5269	00000000	00000013	addi	x0,x0,0	  x0:0x00000000
       52715000	      5270	80003ee0	00000013	addi	x0,x0,0	  x0:0x00000000
       52725000	      5271	80003ee4	01400e6f	jal	x28,80003ee4	 x28=0x80003ee4
       52735000	      5272	00000000	00000013	addi	x0,x0,0	  x0:0x00000000
       52745000	      5273	80003ef4	00000013	addi	x0,x0,0	  x0:0x00000000
       52755000	      5274	80003ef8	fb5ff0ef	jal	x1,80003ef8	  x1=0x80003ef8
       52765000	      5275	00000000	00000013	addi	x0,x0,0	  x0:0x00000000
       52775000	      5276	80003ea8	00000013	addi	x0,x0,0	  x0:0x00000000
       52785000	      5277	80003eac	0340036f	jal	x6,80003eac	  x6=0x80003eac
       52795000	      5278	00000000	00000013	addi	x0,x0,0	  x0:0x00000000
       52805000	      5279	80003edc	00000013	addi	x0,x0,0	  x0:0x00000000
       52815000	      5280	80003ee0	fd5ff0ef	jal	x1,80003ee0	  x1=0x80003ee0
       52825000	      5281	00000000	00000013	addi	x0,x0,0	  x0:0x00000000
       52835000	      5282	80003eb0	00000013	addi	x0,x0,0	  x0:0x00000000
       52845000	      5283	80003eb4	0200076f	jal	x14,80003eb4	 x14=0x80003eb4
       52855000	      5284	00000000	00000013	addi	x0,x0,0	  x0:0x00000000
       52865000	      5285	80003ed0	00000013	addi	x0,x0,0	  x0:0x00000000
       52875000	      5286	80003ed4	020009ef	jal	x19,80003ed4	 x19=0x80003ed4
       52885000	      5287	00000000	00000013	addi	x0,x0,0	  x0:0x00000000
       52895000	      5288	80003ef0	00000013	addi	x0,x0,0	  x0:0x00000000
       52905000	      5289	80003ef4	fc5ff0ef	jal	x1,80003ef4	  x1=0x80003ef4
       52915000	      5290	00000000	00000013	addi	x0,x0,0	  x0:0x00000000
       52925000	      5291	80003eb4	00000013	addi	x0,x0,0	  x0:0x00000000
       52935000	      5292	80003eb8	0040016f	jal	x2,80003eb8	  x2=0x80003eb8
       52945000	      5293	00000000	00000013	addi	x0,x0,0	  x0:0x00000000
       52955000	      5294	80003eb8	00000013	addi	x0,x0,0	  x0:0x00000000
       52965000	      5295	80003ebc	02c0066f	jal	x12,80003ebc	 x12=0x80003ebc
       52975000	      5296	00000000	00000013	addi	x0,x0,0	  x0:0x00000000
       52985000	      5297	80003ee4	00000013	addi	x0,x0,0	  x0:0x00000000
       52995000	      5298	80003ee8	01c007ef	jal	x15,80003ee8	 x15=0x80003ee8
       53005000	      5299	00000000	00000013	addi	x0,x0,0	  x0:0x00000000
       53015000	      5300	80003f00	00000013	addi	x0,x0,0	  x0:0x00000000
       53025000	      5301	80003f04	00c06a33	or	x20,x0,x12	  x0:0x00000000 x12:0x80003ebc x20=0x80003ebc
       53035000	      5302	80003f08	04c000ef	jal	x1,80003f08	  x1=0x80003f08
       53045000	      5303	00000000	00000013	addi	x0,x0,0	  x0:0x00000000
       53055000	      5304	80003f50	00000013	addi	x0,x0,0	  x0:0x00000000
       53065000	      5305	80003f54	02c0036f	jal	x6,80003f54	  x6=0x80003f54
       53075000	      5306	00000000	00000013	addi	x0,x0,0	  x0:0x00000000
       53085000	      5307	80003f7c	00000013	addi	x0,x0,0	  x0:0x00000000
       53095000	      5308	80003f80	fe1ff26f	jal	x4,80003f80	  x4=0x80003f80
       53105000	      5309	00000000	00000013	addi	x0,x0,0	  x0:0x00000000
       53115000	      5310	80003f5c	00000013	addi	x0,x0,0	  x0:0x00000000
       53125000	      5311	80003f60	0140036f	jal	x6,80003f60	  x6=0x80003f60
       53135000	      5312	00000000	00000013	addi	x0,x0,0	  x0:0x00000000
       53145000	      5313	80003f70	00000013	addi	x0,x0,0	  x0:0x00000000
       53155000	      5314	80003f74	fcdff0ef	jal	x1,80003f74	  x1=0x80003f74
       53165000	      5315	00000000	00000013	addi	x0,x0,0	  x0:0x00000000
       53175000	      5316	80003f3c	00000013	addi	x0,x0,0	  x0:0x00000000
       53185000	      5317	80003f40	0100086f	jal	x16,80003f40	 x16=0x80003f40
       53195000	      5318	00000000	00000013	addi	x0,x0,0	  x0:0x00000000
       53205000	      5319	80003f4c	00000013	addi	x0,x0,0	  x0:0x00000000
       53215000	      5320	80003f50	fe9ff36f	jal	x6,80003f50	  x6=0x80003f50
       53225000	      5321	00000000	00000013	addi	x0,x0,0	  x0:0x00000000
       53235000	      5322	80003f34	00000013	addi	x0,x0,0	  x0:0x00000000
       53245000	      5323	80003f38	fe1ff0ef	jal	x1,80003f38	  x1=0x80003f38
       53255000	      5324	00000000	00000013	addi	x0,x0,0	  x0:0x00000000
       53265000	      5325	80003f14	00000013	addi	x0,x0,0	  x0:0x00000000
       53275000	      5326	80003f18	ff5ff0ef	jal	x1,80003f18	  x1=0x80003f18
       53285000	      5327	00000000	00000013	addi	x0,x0,0	  x0:0x00000000
       53295000	      5328	80003f08	00000013	addi	x0,x0,0	  x0:0x00000000
       53305000	      5329	80003f0c	05800def	jal	x27,80003f0c	 x27=0x80003f0c
       53315000	      5330	00000000	00000013	addi	x0,x0,0	  x0:0x00000000
       53325000	      5331	80003f60	00000013	addi	x0,x0,0	  x0:0x00000000
       53335000	      5332	80003f64	014000ef	jal	x1,80003f64	  x1=0x80003f64
       53345000	      5333	00000000	00000013	addi	x0,x0,0	  x0:0x00000000
       53355000	      5334	80003f74	00000013	addi	x0,x0,0	  x0:0x00000000
       53365000	      5335	80003f78	fe5ff16f	jal	x2,80003f78	  x2=0x80003f78
       53375000	      5336	00000000	00000013	addi	x0,x0,0	  x0:0x00000000
       53385000	      5337	80003f58	00000013	addi	x0,x0,0	  x0:0x00000000
       53395000	      5338	80003f5c	fd1ff6ef	jal	x13,80003f5c	 x13=0x80003f5c
       53405000	      5339	00000000	00000013	addi	x0,x0,0	  x0:0x00000000
       53415000	      5340	80003f28	00000013	addi	x0,x0,0	  x0:0x00000000
       53425000	      5341	80003f2c	fe5ff36f	jal	x6,80003f2c	  x6=0x80003f2c
       53435000	      5342	00000000	00000013	addi	x0,x0,0	  x0:0x00000000
       53445000	      5343	80003f0c	00000013	addi	x0,x0,0	  x0:0x00000000
       53455000	      5344	80003f10	03c000ef	jal	x1,80003f10	  x1=0x80003f10
       53465000	      5345	00000000	00000013	addi	x0,x0,0	  x0:0x00000000
       53475000	      5346	80003f48	00000013	addi	x0,x0,0	  x0:0x00000000
       53485000	      5347	80003f4c	ffdff0ef	jal	x1,80003f4c	  x1=0x80003f4c
       53495000	      5348	00000000	00000013	addi	x0,x0,0	  x0:0x00000000
       53505000	      5349	80003f44	00000013	addi	x0,x0,0	  x0:0x00000000
       53515000	      5350	80003f48	fddff0ef	jal	x1,80003f48	  x1=0x80003f48
       53525000	      5351	00000000	00000013	addi	x0,x0,0	  x0:0x00000000
       53535000	      5352	80003f20	00000013	addi	x0,x0,0	  x0:0x00000000
       53545000	      5353	80003f24	018000ef	jal	x1,80003f24	  x1=0x80003f24
       53555000	      5354	00000000	00000013	addi	x0,x0,0	  x0:0x00000000
       53565000	      5355	80003f38	00000013	addi	x0,x0,0	  x0:0x00000000
       53575000	      5356	80003f3c	fedff36f	jal	x6,80003f3c	  x6=0x80003f3c
       53585000	      5357	00000000	00000013	addi	x0,x0,0	  x0:0x00000000
       53595000	      5358	80003f24	00000013	addi	x0,x0,0	  x0:0x00000000
       53605000	      5359	80003f28	0440036f	jal	x6,80003f28	  x6=0x80003f28
       53615000	      5360	00000000	00000013	addi	x0,x0,0	  x0:0x00000000
       53625000	      5361	80003f68	00000013	addi	x0,x0,0	  x0:0x00000000
       53635000	      5362	80003f6c	fd9ffc6f	jal	x24,80003f6c	 x24=0x80003f6c
       53645000	      5363	00000000	00000013	addi	x0,x0,0	  x0:0x00000000
       53655000	      5364	80003f40	00000013	addi	x0,x0,0	  x0:0x00000000
       53665000	      5365	80003f44	fedff0ef	jal	x1,80003f44	  x1=0x80003f44
       53675000	      5366	00000000	00000013	addi	x0,x0,0	  x0:0x00000000
       53685000	      5367	80003f2c	00000013	addi	x0,x0,0	  x0:0x00000000
       53695000	      5368	80003f30	fe5ffa6f	jal	x20,80003f30	 x20=0x80003f30
       53705000	      5369	00000000	00000013	addi	x0,x0,0	  x0:0x00000000
       53715000	      5370	80003f10	00000013	addi	x0,x0,0	  x0:0x00000000
       53725000	      5371	80003f14	044000ef	jal	x1,80003f14	  x1=0x80003f14
       53735000	      5372	00000000	00000013	addi	x0,x0,0	  x0:0x00000000
       53745000	      5373	80003f54	00000013	addi	x0,x0,0	  x0:0x00000000
       53755000	      5374	80003f58	024000ef	jal	x1,80003f58	  x1=0x80003f58
       53765000	      5375	00000000	00000013	addi	x0,x0,0	  x0:0x00000000
       53775000	      5376	80003f78	00000013	addi	x0,x0,0	  x0:0x00000000
       53785000	      5377	80003f7c	fa1ffb6f	jal	x22,80003f7c	 x22=0x80003f7c
       53795000	      5378	00000000	00000013	addi	x0,x0,0	  x0:0x00000000
       53805000	      5379	80003f18	00000013	addi	x0,x0,0	  x0:0x00000000
       53815000	      5380	80003f1c	004000ef	jal	x1,80003f1c	  x1=0x80003f1c
       53825000	      5381	00000000	00000013	addi	x0,x0,0	  x0:0x00000000
       53835000	      5382	80003f1c	00000013	addi	x0,x0,0	  x0:0x00000000
       53845000	      5383	80003f20	0500086f	jal	x16,80003f20	 x16=0x80003f20
       53855000	      5384	00000000	00000013	addi	x0,x0,0	  x0:0x00000000
       53865000	      5385	80003f6c	00000013	addi	x0,x0,0	  x0:0x00000000
       53875000	      5386	80003f70	ff9ff0ef	jal	x1,80003f70	  x1=0x80003f70
       53885000	      5387	00000000	00000013	addi	x0,x0,0	  x0:0x00000000
       53895000	      5388	80003f64	00000013	addi	x0,x0,0	  x0:0x00000000
       53905000	      5389	80003f68	fcdff36f	jal	x6,80003f68	  x6=0x80003f68
       53915000	      5390	00000000	00000013	addi	x0,x0,0	  x0:0x00000000
       53925000	      5391	80003f30	00000013	addi	x0,x0,0	  x0:0x00000000
       53935000	      5392	80003f34	050000ef	jal	x1,80003f34	  x1=0x80003f34
       53945000	      5393	00000000	00000013	addi	x0,x0,0	  x0:0x00000000
       53955000	      5394	80003f80	00000013	addi	x0,x0,0	  x0:0x00000000
       53965000	      5395	80003f84	00352633	slt	x12,x10,x3	 x10:0x00000000  x3:0x80003dd4 x12=0x00000000
       53975000	      5396	80003f88	00b98f33	add	x30,x19,x11	 x19:0x80003ed4 x11:0x80000000 x30=0x00003ed4
       53985000	      5397	80003f8c	00000013	addi	x0,x0,0	  x0:0x00000000
       53995000	      5398	80003f90	0064a1b3	slt	x3,x9,x6	  x9:0x00000001  x6:0x80003f68  x3=0x00000000
       54005000	      5399	80003f94	2698ebb7	lui	x23,0x2698e	 x23=0x2698e000
       54015000	      5400	80003f98	40b85213	srai	x4,x16,0xb	 x16:0x80003f20  x4=0xfff00007
       54025000	      5401	80003f9c	00d90c63	beq	x18,x13,80003fb4	 x18:0x00000000 x13:0x80003f5c
       54035000	      5402	80003fa0	0007ea63	bltu	x15,x0,80003fb4	 x15:0x80003ee8  x0:0x00000000
       54045000	      5403	80003fa4	00000013	addi	x0,x0,0	  x0:0x00000000
       54055000	      5404	80003fa8	004c2d33	slt	x26,x24,x4	 x24:0x80003f6c  x4:0xfff00007 x26=0x00000001
       54065000	      5405	80003fac	000841b3	xor	x3,x16,x0	 x16:0x80003f20  x0:0x00000000  x3=0x80003f20
       54075000	      5406	80003fb0	01e89db3	sll	x27,x17,x30	 x17:0x80003d9c x30:0x00003ed4 x27=0xd9c00000
       54085000	      5407	80003fb4	b8b9b197	auipc	x3,0xb8b9b	  x3=0x38b9efb0
       54095000	      5408	80003fb8	01bac463	blt	x21,x27,80003fc0	 x21:0x80009f54 x27:0xd9c00000
       54105000	      5409	00000000	00000013	addi	x0,x0,0	  x0:0x00000000
       54115000	      5410	80003fbc	00000013	addi	x0,x0,0	  x0:0x00000000
       54125000	      5411	80003fc0	38472413	slti	x8,x14,900	 x14:0x80003eb4  x8=0x00000001
       54135000	      5412	80003fc4	008d53b3	srl	x7,x26,x8	 x26:0x00000001  x8:0x00000001  x7=0x00000000
       54145000	      5413	80003fc8	0139af33	slt	x30,x19,x19	 x19:0x80003ed4 x19:0x80003ed4 x30=0x00000000
       54155000	      5414	80003fcc	00543333	sltu	x6,x8,x5	  x8:0x00000001  x5:0x20000000  x6=0x00000001
       54165000	      5415	80003fd0	dedae817	auipc	x16,0xdedae	 x16=0x5edb1fcc
       54175000	      5416	80003fd4	00f4a833	slt	x16,x9,x15	  x9:0x00000001 x15:0x80003ee8 x16=0x00000000
       54185000	      5417	80003fd8	023f0263	beq	x30,x3,80003ffc	 x30:0x00000000  x3:0x38b9efb0
       54195000	      5418	80003fdc	00316333	or	x6,x2,x3	  x2:0x80003f78  x3:0x38b9efb0  x6=0xb8b9fff8
       54205000	      5419	80003fe0	018e4133	xor	x2,x28,x24	 x28:0x80003ee4 x24:0x80003f6c  x2=0x00000188
       54215000	      5420	80003fe4	02b7e663	bltu	x15,x11,80004010	 x15:0x80003ee8 x11:0x80000000
       54225000	      5421	80003fe8	003eddb3	srl	x27,x29,x3	 x29:0x80003e3c  x3:0x38b9efb0 x27=0x00008000
       54235000	      5422	80003fec	d69ba913	slti	x18,x23,-663	 x23:0x2698e000 x18=0x00000000
       54245000	      5423	80003ff0	00b6ec63	bltu	x13,x11,80004008	 x13:0x80003f5c x11:0x80000000
       54255000	      5424	80003ff4	00ed5e33	srl	x28,x26,x14	 x26:0x00000001 x14:0x80003eb4 x28=0x00000000
       54265000	      5425	80003ff8	0390f263	bgeu	x1,x25,8000401c	  x1:0x80003f34 x25:0x80003e90
       54275000	      5426	00000000	00000013	addi	x0,x0,0	  x0:0x00000000
       54285000	      5427	80004018	00000013	addi	x0,x0,0	  x0:0x00000000
       54295000	      5428	8000401c	410f57b3	sra	x15,x30,x16	 x30:0x00000000 x16:0x00000000 x15=0x00000000
       54305000	      5429	80004020	49256197	auipc	x3,0x49256	  x3=0xc925a01c
       54315000	      5430	80004024	0490f463	bgeu	x1,x9,8000406c	  x1:0x80003f34  x9:0x00000001
       54325000	      5431	00000000	00000013	addi	x0,x0,0	  x0:0x00000000
       54335000	      5432	80004068	00000013	addi	x0,x0,0	  x0:0x00000000
       54345000	      5433	8000406c	00c87263	bgeu	x16,x12,80004070	 x16:0x00000000 x12:0x00000000
       54355000	      5434	00000000	00000013	addi	x0,x0,0	  x0:0x00000000
       54365000	      5435	8000406c	00000013	addi	x0,x0,0	  x0:0x00000000
       54375000	      5436	80004070	00178463	beq	x15,x1,80004078	 x15:0x00000000  x1:0x80003f34
       54385000	      5437	80004074	007fbc33	sltu	x24,x31,x7	 x31:0x80009fc4  x7:0x00000000 x24=0x00000000
       54395000	      5438	80004078	00025263	bge	x4,x0,8000407c	  x4:0xfff00007  x0:0x00000000
       54405000	      5439	8000407c	0640e793	ori	x15,x1,100	  x1:0x80003f34 x15=0x80003f74
       54415000	      5440	80004080	7773ab97	auipc	x23,0x7773a	 x23=0xf773e07c
       54425000	      5441	80004084	4142d313	srai	x6,x5,0x14	  x5:0x20000000  x6=0x00000200
       54435000	      5442	80004088	013d9013	slli	x0,x27,0x13	 x27:0x00008000
       54445000	      5443	8000408c	008e99b3	sll	x19,x29,x8	 x29:0x80003e3c  x8:0x00000001 x19=0x00007c78
       54455000	      5444	80004090	41b508b3	sub	x17,x10,x27	 x10:0x00000000 x27:0x00008000 x17=0xffff8000
       54465000	      5445	80004094	c7028497	auipc	x9,0xc7028	  x9=0x4702c090
       54475000	      5446	80004098	0126fa63	bgeu	x13,x18,800040ac	 x13:0x80003f5c x18:0x00000000
       54485000	      5447	00000000	00000013	addi	x0,x0,0	  x0:0x00000000
       54495000	      5448	800040a8	00000013	addi	x0,x0,0	  x0:0x00000000
       54505000	      5449	800040ac	00356e63	bltu	x10,x3,800040c8	 x10:0x00000000  x3:0xc925a01c
       54515000	      5450	00000000	00000013	addi	x0,x0,0	  x0:0x00000000
       54525000	      5451	800040c4	00000013	addi	x0,x0,0	  x0:0x00000000
       54535000	      5452	800040c8	00c7e433	or	x8,x15,x12	 x15:0x80003f74 x12:0x00000000  x8=0x80003f74
       54545000	      5453	800040cc	035fd663	bge	x31,x21,800040f8	 x31:0x80009fc4 x21:0x80009f54
       54555000	      5454	00000000	00000013	addi	x0,x0,0	  x0:0x00000000
       54565000	      5455	800040f4	00000013	addi	x0,x0,0	  x0:0x00000000
       54575000	      5456	800040f8	04e2c663	blt	x5,x14,80004144	  x5:0x20000000 x14:0x80003eb4
       54585000	      5457	800040fc	7dd46d13	ori	x26,x8,2013	  x8:0x80003f74 x26=0x80003ffd
       54595000	      5458	80004100	41ccd533	sra	x10,x25,x28	 x25:0x80003e90 x28:0x00000000 x10=0x80003e90
       54605000	      5459	80004104	005ccd33	xor	x26,x25,x5	 x25:0x80003e90  x5:0x20000000 x26=0xa0003e90
       54615000	      5460	80004108	00492733	slt	x14,x18,x4	 x18:0x00000000  x4:0xfff00007 x14=0x00000000
       54625000	      5461	8000410c	c49c3493	sltiu	x9,x24,-951	 x24:0x00000000  x9=0x00000001
       54635000	      5462	80004110	01e534b3	sltu	x9,x10,x30	 x10:0x80003e90 x30:0x00000000  x9=0x00000000
       54645000	      5463	80004114	048f9663	bne	x31,x8,80004160	 x31:0x80009fc4  x8:0x80003f74
       54655000	      5464	00000000	00000013	addi	x0,x0,0	  x0:0x00000000
       54665000	      5465	8000415c	00000013	addi	x0,x0,0	  x0:0x00000000
       54675000	      5466	80004160	01d8cb33	xor	x22,x17,x29	 x17:0xffff8000 x29:0x80003e3c x22=0x7fffbe3c
       54685000	      5467	80004164	01077233	and	x4,x14,x16	 x14:0x00000000 x16:0x00000000  x4=0x00000000
       54695000	      5468	80004168	00abf463	bgeu	x23,x10,80004170	 x23:0xf773e07c x10:0x80003e90
       54705000	      5469	00000000	00000013	addi	x0,x0,0	  x0:0x00000000
       54715000	      5470	8000416c	00000013	addi	x0,x0,0	  x0:0x00000000
       54725000	      5471	80004170	01067b33	and	x22,x12,x16	 x12:0x00000000 x16:0x00000000 x22=0x00000000
       54735000	      5472	80004174	012b1a33	sll	x20,x22,x18	 x22:0x00000000 x18:0x00000000 x20=0x00000000
       54745000	      5473	80004178	018d2333	slt	x6,x26,x24	 x26:0xa0003e90 x24:0x00000000  x6=0x00000001
       54755000	      5474	8000417c	03707c63	bgeu	x0,x23,800041b4	  x0:0x00000000 x23:0xf773e07c
       54765000	      5475	80004180	6bdfb293	sltiu	x5,x31,1725	 x31:0x80009fc4  x5=0x00000000
       54775000	      5476	80004184	4183df13	srai	x30,x7,0x18	  x7:0x00000000 x30=0x00000000
       54785000	      5477	80004188	04999463	bne	x19,x9,800041d0	 x19:0x00007c78  x9:0x00000000
       54795000	      5478	00000000	00000013	addi	x0,x0,0	  x0:0x00000000
       54805000	      5479	800041cc	00000013	addi	x0,x0,0	  x0:0x00000000
       54815000	      5480	800041d0	01cfca63	blt	x31,x28,800041e4	 x31:0x80009fc4 x28:0x00000000
       54825000	      5481	00000000	00000013	addi	x0,x0,0	  x0:0x00000000
       54835000	      5482	800041e0	00000013	addi	x0,x0,0	  x0:0x00000000
       54845000	      5483	800041e4	004d0c63	beq	x26,x4,800041fc	 x26:0xa0003e90  x4:0x00000000
       54855000	      5484	800041e8	e9aa6e13	ori	x28,x20,-358	 x20:0x00000000 x28=0xfffffe9a
       54865000	      5485	800041ec	00fd0033	add	x0,x26,x15	 x26:0xa0003e90 x15:0x80003f74
       54875000	      5486	800041f0	003efc33	and	x24,x29,x3	 x29:0x80003e3c  x3:0xc925a01c x24=0x8000201c
       54885000	      5487	800041f4	04b70663	beq	x14,x11,80004240	 x14:0x00000000 x11:0x80000000
       54895000	      5488	800041f8	01b3ad33	slt	x26,x7,x27	  x7:0x00000000 x27:0x00008000 x26=0x00000001
       54905000	      5489	800041fc	e08b4513	xori	x10,x22,-504	 x22:0x00000000 x10=0xfffffe08
       54915000	      5490	80004200	51d10097	auipc	x1,0x51d10	  x1=0xd1d141fc
       54925000	      5491	80004204	ca19c813	xori	x16,x19,-863	 x19:0x00007c78 x16=0xffff80d9
       54935000	      5492	80004208	02878a63	beq	x15,x8,8000423c	 x15:0x80003f74  x8:0x80003f74
       54945000	      5493	00000000	00000013	addi	x0,x0,0	  x0:0x00000000
       54955000	      5494	80004238	00000013	addi	x0,x0,0	  x0:0x00000000
       54965000	      5495	8000423c	81679e97	auipc	x29,0x81679	 x29=0x0167d238
       54975000	      5496	80004240	01bbda33	srl	x20,x23,x27	 x23:0xf773e07c x27:0x00008000 x20=0xf773e07c
       54985000	      5497	80004244	01acddb3	srl	x27,x25,x26	 x25:0x80003e90 x26:0x00000001 x27=0x40001f48
       54995000	      5498	80004248	41310cb3	sub	x25,x2,x19	  x2:0x00000188 x19:0x00007c78 x25=0xffff8510
       55005000	      5499	8000424c	00ce0a63	beq	x28,x12,80004260	 x28:0xfffffe9a x12:0x00000000
       55015000	      5500	80004250	01965713	srli	x14,x12,0x19	 x12:0x00000000 x14=0x00000000
       55025000	      5501	80004254	a488fe13	andi	x28,x17,-1464	 x17:0xffff8000 x28=0xffff8000
       55035000	      5502	80004258	658e73b7	lui	x7,0x658e7	  x7=0x658e7000
       55045000	      5503	8000425c	86caf093	andi	x1,x21,-1940	 x21:0x80009f54  x1=0x80009844
       55055000	      5504	80004260	40598eb3	sub	x29,x19,x5	 x19:0x00007c78  x5:0x00000000 x29=0x00007c78
       55065000	      5505	80004264	0077ac33	slt	x24,x15,x7	 x15:0x80003f74  x7:0x658e7000 x24=0x00000001
       55075000	      5506	80004268	cbaca413	slti	x8,x25,-838	 x25:0xffff8510  x8=0x00000001
       55085000	      5507	8000426c	03c96263	bltu	x18,x28,80004290	 x18:0x00000000 x28:0xffff8000
       55095000	      5508	00000000	00000013	addi	x0,x0,0	  x0:0x00000000
       55105000	      5509	8000428c	00000013	addi	x0,x0,0	  x0:0x00000000
       55115000	      5510	80004290	00000013	addi	x0,x0,0	  x0:0x00000000
       55125000	      5511	80004294	412652b3	sra	x5,x12,x18	 x12:0x00000000 x18:0x00000000  x5=0x00000000
       55135000	      5512	80004298	badd8193	addi	x3,x27,-1107	 x27:0x40001f48  x3=0x40001af5
       55145000	      5513	8000429c	008d03b3	add	x7,x26,x8	 x26:0x00000001  x8:0x00000001  x7=0x00000002
       55155000	      5514	800042a0	026e7663	bgeu	x28,x6,800042cc	 x28:0xffff8000  x6:0x00000001
       55165000	      5515	00000000	00000013	addi	x0,x0,0	  x0:0x00000000
       55175000	      5516	800042c8	00000013	addi	x0,x0,0	  x0:0x00000000
       55185000	      5517	800042cc	00759533	sll	x10,x11,x7	 x11:0x80000000  x7:0x00000002 x10=0x00000000
       55195000	      5518	800042d0	001f59b3	srl	x19,x30,x1	 x30:0x00000000  x1:0x80009844 x19=0x00000000
       55205000	      5519	800042d4	bed86993	ori	x19,x16,-1043	 x16:0xffff80d9 x19=0xfffffbfd
       55215000	      5520	800042d8	0037d293	srli	x5,x15,0x3	 x15:0x80003f74  x5=0x100007ee
       55225000	      5521	800042dc	6a0d8993	addi	x19,x27,1696	 x27:0x40001f48 x19=0x400025e8
       55235000	      5522	800042e0	413d5d13	srai	x26,x26,0x13	 x26:0x00000001 x26=0x00000000
       55245000	      5523	800042e4	00128c63	beq	x5,x1,800042fc	  x5:0x100007ee  x1:0x80009844
       55255000	      5524	800042e8	00000013	addi	x0,x0,0	  x0:0x00000000
       55265000	      5525	800042ec	05b07863	bgeu	x0,x27,8000433c	  x0:0x00000000 x27:0x40001f48
       55275000	      5526	800042f0	61a67693	andi	x13,x12,1562	 x12:0x00000000 x13=0x00000000
       55285000	      5527	800042f4	0199d833	srl	x16,x19,x25	 x19:0x400025e8 x25:0xffff8510 x16=0x00004000
       55295000	      5528	800042f8	03e6e663	bltu	x13,x30,80004324	 x13:0x00000000 x30:0x00000000
       55305000	      5529	800042fc	24257913	andi	x18,x10,578	 x10:0x00000000 x18=0x00000000
       55315000	      5530	80004300	4099d4b3	sra	x9,x19,x9	 x19:0x400025e8  x9:0x00000000  x9=0x400025e8
       55325000	      5531	80004304	01c709b3	add	x19,x14,x28	 x14:0x00000000 x28:0xffff8000 x19=0xffff8000
       55335000	      5532	80004308	00000013	addi	x0,x0,0	  x0:0x00000000
       55345000	      5533	8000430c	00acde63	bge	x25,x10,80004328	 x25:0xffff8510 x10:0x00000000
       55355000	      5534	80004310	b0a37513	andi	x10,x6,-1270	  x6:0x00000001 x10=0x00000000
       55365000	      5535	80004314	73b30093	addi	x1,x6,1851	  x6:0x00000001  x1=0x0000073c
       55375000	      5536	80004318	45ad3913	sltiu	x18,x26,1114	 x26:0x00000000 x18=0x00000001
       55385000	      5537	8000431c	000f0463	beq	x30,x0,80004324	 x30:0x00000000  x0:0x00000000
       55395000	      5538	00000000	00000013	addi	x0,x0,0	  x0:0x00000000
       55405000	      5539	80004320	00000013	addi	x0,x0,0	  x0:0x00000000
       55415000	      5540	80004324	001b5333	srl	x6,x22,x1	 x22:0x00000000  x1:0x0000073c  x6=0x00000000
       55425000	      5541	80004328	4a7e4a13	xori	x20,x28,1191	 x28:0xffff8000 x20=0xffff84a7
       55435000	      5542	8000432c	04e5c663	blt	x11,x14,80004378	 x11:0x80000000 x14:0x00000000
       55445000	      5543	00000000	00000013	addi	x0,x0,0	  x0:0x00000000
       55455000	      5544	80004374	00000013	addi	x0,x0,0	  x0:0x00000000
       55465000	      5545	80004378	00000013	addi	x0,x0,0	  x0:0x00000000
       55475000	      5546	8000437c	00d8d033	srl	x0,x17,x13	 x17:0xffff8000 x13:0x00000000
       55485000	      5547	80004380	88bbc637	lui	x12,0x88bbc	 x12=0x88bbc000
       55495000	      5548	80004384	40f15613	srai	x12,x2,0xf	  x2:0x00000188 x12=0x00000000
       55505000	      5549	80004388	034ae063	bltu	x21,x20,800043a8	 x21:0x80009f54 x20:0xffff84a7
       55515000	      5550	00000000	00000013	addi	x0,x0,0	  x0:0x00000000
       55525000	      5551	800043a4	00000013	addi	x0,x0,0	  x0:0x00000000
       55535000	      5552	800043a8	00ce5e13	srli	x28,x28,0xc	 x28:0xffff8000 x28=0x000ffff8
       55545000	      5553	800043ac	0369e863	bltu	x19,x22,800043dc	 x19:0xffff8000 x22:0x00000000
       55555000	      5554	800043b0	4ca67e97	auipc	x29,0x4ca67	 x29=0xcca6b3ac
       55565000	      5555	800043b4	01219333	sll	x6,x3,x18	  x3:0x40001af5 x18:0x00000001  x6=0x800035ea
       55575000	      5556	800043b8	00841893	slli	x17,x8,0x8	  x8:0x00000001 x17=0x00000100
       55585000	      5557	800043bc	012b60b3	or	x1,x22,x18	 x22:0x00000000 x18:0x00000001  x1=0x00000001
       55595000	      5558	800043c0	00000013	addi	x0,x0,0	  x0:0x00000000
       55605000	      5559	800043c4	00d014b3	sll	x9,x0,x13	  x0:0x00000000 x13:0x00000000  x9=0x00000000
       55615000	      5560	800043c8	0091d933	srl	x18,x3,x9	  x3:0x40001af5  x9:0x00000000 x18=0x40001af5
       55625000	      5561	800043cc	4c80f793	andi	x15,x1,1224	  x1:0x00000001 x15=0x00000000
       55635000	      5562	800043d0	01828c63	beq	x5,x24,800043e8	  x5:0x100007ee x24:0x00000001
       55645000	      5563	800043d4	01aaf833	and	x16,x21,x26	 x21:0x80009f54 x26:0x00000000 x16=0x00000000
       55655000	      5564	800043d8	40df56b3	sra	x13,x30,x13	 x30:0x00000000 x13:0x00000000 x13=0x00000000
       55665000	      5565	800043dc	013f1733	sll	x14,x30,x19	 x30:0x00000000 x19:0xffff8000 x14=0x00000000
       55675000	      5566	800043e0	005f2d33	slt	x26,x30,x5	 x30:0x00000000  x5:0x100007ee x26=0x00000001
       55685000	      5567	800043e4	01f99113	slli	x2,x19,0x1f	 x19:0xffff8000  x2=0x00000000
       55695000	      5568	800043e8	01dd1f13	slli	x30,x26,0x1d	 x26:0x00000001 x30=0x20000000
       55705000	      5569	800043ec	00015813	srli	x16,x2,0x0	  x2:0x00000000 x16=0x00000000
       55715000	      5570	800043f0	40335b13	srai	x22,x6,0x3	  x6:0x800035ea x22=0xf00006bd
       55725000	      5571	800043f4	01311093	slli	x1,x2,0x13	  x2:0x00000000  x1=0x00000000
       55735000	      5572	800043f8	059df463	bgeu	x27,x25,80004440	 x27:0x40001f48 x25:0xffff8510
       55745000	      5573	800043fc	5a43e993	ori	x19,x7,1444	  x7:0x00000002 x19=0x000005a6
       55755000	      5574	80004400	011327b3	slt	x15,x6,x17	  x6:0x800035ea x17:0x00000100 x15=0x00000001
       55765000	      5575	80004404	2c710713	addi	x14,x2,711	  x2:0x00000000 x14=0x000002c7
       55775000	      5576	80004408	02b34c63	blt	x6,x11,80004440	  x6:0x800035ea x11:0x80000000
       55785000	      5577	8000440c	01996d33	or	x26,x18,x25	 x18:0x40001af5 x25:0xffff8510 x26=0xffff9ff5
       55795000	      5578	80004410	00e7e663	bltu	x15,x14,8000441c	 x15:0x00000001 x14:0x000002c7
       55805000	      5579	00000000	00000013	addi	x0,x0,0	  x0:0x00000000
       55815000	      5580	80004418	00000013	addi	x0,x0,0	  x0:0x00000000
       55825000	      5581	8000441c	00fad393	srli	x7,x21,0xf	 x21:0x80009f54  x7=0x00010001
       55835000	      5582	80004420	2ba4af13	slti	x30,x9,698	  x9:0x00000000 x30=0x00000001
       55845000	      5583	80004424	00eb8533	add	x10,x23,x14	 x23:0xf773e07c x14:0x000002c7 x10=0xf773e343
       55855000	      5584	80004428	3cf42e13	slti	x28,x8,975	  x8:0x00000001 x28=0x00000001
       55865000	      5585	8000442c	01c7fa63	bgeu	x15,x28,80004440	 x15:0x00000001 x28:0x00000001
       55875000	      5586	00000000	00000013	addi	x0,x0,0	  x0:0x00000000
       55885000	      5587	8000443c	00000013	addi	x0,x0,0	  x0:0x00000000
       55895000	      5588	80004440	41c85b13	srai	x22,x16,0x1c	 x16:0x00000000 x22=0x00000000
       55905000	      5589	80004444	01ee9d93	slli	x27,x29,0x1e	 x29:0xcca6b3ac x27=0x00000000
       55915000	      5590	80004448	1fd4a993	slti	x19,x9,509	  x9:0x00000000 x19=0x00000001
       55925000	      5591	8000444c	004aa083	lw	x1,4(x21)	 x21:0x80009f54  x1=0x800006b4 PA:0x80009f58
       55935000	      5592	80004450	4045d833	sra	x16,x11,x4	 x11:0x80000000  x4:0x00000000 x16=0x80000000
       55945000	      5593	80004454	030a8a93	addi	x21,x21,48	 x21:0x80009f54 x21=0x80009f84
       55955000	      5594	80004458	9cfa4393	xori	x7,x20,-1585	 x20:0xffff84a7  x7=0x00007d68
       55965000	      5595	8000445c	009c5c33	srl	x24,x24,x9	 x24:0x00000001  x9:0x00000000 x24=0x00000001
       55975000	      5596	80004460	010ade93	srli	x29,x21,0x10	 x21:0x80009f84 x29=0x00008000
       55985000	      5597	80004464	4023d293	srai	x5,x7,0x2	  x7:0x00007d68  x5=0x00001f5a
       55995000	      5598	80004468	008b1533	sll	x10,x22,x8	 x22:0x00000000  x8:0x00000001 x10=0x00000000
       56005000	      5599	8000446c	006dd193	srli	x3,x27,0x6	 x27:0x00000000  x3=0x00000000
       56015000	      5600	80004470	00008e13	addi	x28,x1,0	  x1:0x800006b4 x28=0x800006b4
       56025000	      5601	80004474	000e0e67	jalr	x28,x28,0	 x28:0x800006b4 x28=0x80004474
       56035000	      5602	00000000	00000013	addi	x0,x0,0	  x0:0x00000000
       56045000	      5603	800006b4	00000013	addi	x0,x0,0	  x0:0x00000000
       56055000	      5604	800006b8	401f5213	srai	x4,x30,0x1	 x30:0x00000001  x4=0x00000000
       56065000	      5605	800006bc	3b0f0093	addi	x1,x30,944	 x30:0x00000001  x1=0x000003b1
       56075000	      5606	800006c0	79d10b93	addi	x23,x2,1949	  x2:0x00000000 x23=0x0000079d
       56085000	      5607	800006c4	a1e7b113	sltiu	x2,x15,-1506	 x15:0x00000001  x2=0x00000001
       56095000	      5608	800006c8	d5f57e13	andi	x28,x10,-673	 x10:0x00000000 x28=0x00000000
       56105000	      5609	800006cc	8ff5fe93	andi	x29,x11,-1793	 x11:0x80000000 x29=0x80000000
       56115000	      5610	800006d0	417582b3	sub	x5,x11,x23	 x11:0x80000000 x23:0x0000079d  x5=0x7ffff863
       56125000	      5611	800006d4	00876863	bltu	x14,x8,800006e4	 x14:0x000002c7  x8:0x00000001
       56135000	      5612	800006d8	62cf8d37	lui	x26,0x62cf8	 x26=0x62cf8000
       56145000	      5613	800006dc	163e2913	slti	x18,x28,355	 x28:0x00000000 x18=0x00000001
       56155000	      5614	800006e0	0072cb33	xor	x22,x5,x7	  x5:0x7ffff863  x7:0x00007d68 x22=0x7fff850b
       56165000	      5615	800006e4	0413e063	bltu	x7,x1,80000724	  x7:0x00007d68  x1:0x000003b1
       56175000	      5616	800006e8	bb25bd13	sltiu	x26,x11,-1102	 x11:0x80000000 x26=0x00000001
       56185000	      5617	800006ec	40ac58b3	sra	x17,x24,x10	 x24:0x00000001 x10:0x00000000 x17=0x00000001
       56195000	      5618	800006f0	013822b3	slt	x5,x16,x19	 x16:0x80000000 x19:0x00000001  x5=0x00000001
       56205000	      5619	800006f4	eacbaf13	slti	x30,x23,-340	 x23:0x0000079d x30=0x00000000
       56215000	      5620	800006f8	acecb713	sltiu	x14,x25,-1330	 x25:0xffff8510 x14=0x00000001
       56225000	      5621	800006fc	01a9d463	bge	x19,x26,80000704	 x19:0x00000001 x26:0x00000001
       56235000	      5622	00000000	00000013	addi	x0,x0,0	  x0:0x00000000
       56245000	      5623	80000700	00000013	addi	x0,x0,0	  x0:0x00000000
       56255000	      5624	80000704	0157f833	and	x16,x15,x21	 x15:0x00000001 x21:0x80009f84 x16=0x00000000
       56265000	      5625	80000708	41142a13	slti	x20,x8,1041	  x8:0x00000001 x20=0x00000001
       56275000	      5626	8000070c	48384c13	xori	x24,x16,1155	 x16:0x00000000 x24=0x00000483
       56285000	      5627	80000710	0110b633	sltu	x12,x1,x17	  x1:0x000003b1 x17:0x00000001 x12=0x00000000
       56295000	      5628	80000714	458c6c37	lui	x24,0x458c6	 x24=0x458c6000
       56305000	      5629	80000718	014f0733	add	x14,x30,x20	 x30:0x00000000 x20:0x00000001 x14=0x00000001
       56315000	      5630	8000071c	02e2f663	bgeu	x5,x14,80000748	  x5:0x00000001 x14:0x00000001
       56325000	      5631	00000000	00000013	addi	x0,x0,0	  x0:0x00000000
       56335000	      5632	80000744	00000013	addi	x0,x0,0	  x0:0x00000000
       56345000	      5633	80000748	7f543413	sltiu	x8,x8,2037	  x8:0x00000001  x8=0x00000001
       56355000	      5634	8000074c	00221d13	slli	x26,x4,0x2	  x4:0x00000000 x26=0x00000000
       56365000	      5635	80000750	070a8893	addi	x17,x21,112	 x21:0x80009f84 x17=0x80009ff4
       56375000	      5636	80000754	00e12033	slt	x0,x2,x14	  x2:0x00000001 x14:0x00000001
       56385000	      5637	80000758	c5b88a13	addi	x20,x17,-933	 x17:0x80009ff4 x20=0x80009c4f
       56395000	      5638	8000075c	88643313	sltiu	x6,x8,-1914	  x8:0x00000001  x6=0x00000001
       56405000	      5639	80000760	00000013	addi	x0,x0,0	  x0:0x00000000
       56415000	      5640	80000764	427baa13	slti	x20,x23,1063	 x23:0x0000079d x20=0x00000000
       56425000	      5641	80000768	00dc1713	slli	x14,x24,0xd	 x24:0x458c6000 x14=0x8c000000
       56435000	      5642	8000076c	01cfdc93	srli	x25,x31,0x1c	 x31:0x80009fc4 x25=0x00000008
       56445000	      5643	80000770	28e18393	addi	x7,x3,654	  x3:0x00000000  x7=0x0000028e
       56455000	      5644	80000774	0461f263	bgeu	x3,x6,800007b8	  x3:0x00000000  x6:0x00000001
       56465000	      5645	80000778	000c4933	xor	x18,x24,x0	 x24:0x458c6000  x0:0x00000000 x18=0x458c6000
       56475000	      5646	8000077c	00575393	srli	x7,x14,0x5	 x14:0x8c000000  x7=0x04600000
       56485000	      5647	80000780	225ca517	auipc	x10,0x225ca	 x10=0xa25ca77c
       56495000	      5648	80000784	8122a713	slti	x14,x5,-2030	  x5:0x00000001 x14=0x00000000
       56505000	      5649	80000788	0066cf33	xor	x30,x13,x6	 x13:0x00000000  x6:0x00000001 x30=0x00000001
       56515000	      5650	8000078c	009ff533	and	x10,x31,x9	 x31:0x80009fc4  x9:0x00000000 x10=0x00000000
       56525000	      5651	80000790	05e95863	bge	x18,x30,800007e0	 x18:0x458c6000 x30:0x00000001
       56535000	      5652	00000000	00000013	addi	x0,x0,0	  x0:0x00000000
       56545000	      5653	800007dc	00000013	addi	x0,x0,0	  x0:0x00000000
       56555000	      5654	800007e0	04959463	bne	x11,x9,80000828	 x11:0x80000000  x9:0x00000000
       56565000	      5655	00000000	00000013	addi	x0,x0,0	  x0:0x00000000
       56575000	      5656	80000824	00000013	addi	x0,x0,0	  x0:0x00000000
       56585000	      5657	80000828	00d11663	bne	x2,x13,80000834	  x2:0x00000001 x13:0x00000000
       56595000	      5658	00000000	00000013	addi	x0,x0,0	  x0:0x00000000
       56605000	      5659	80000830	00000013	addi	x0,x0,0	  x0:0x00000000
       56615000	      5660	80000834	5e67d317	auipc	x6,0x5e67d	  x6=0xde67d830
       56625000	      5661	80000838	01ac1663	bne	x24,x26,80000844	 x24:0x458c6000 x26:0x00000000
       56635000	      5662	00000000	00000013	addi	x0,x0,0	  x0:0x00000000
       56645000	      5663	80000840	00000013	addi	x0,x0,0	  x0:0x00000000
       56655000	      5664	80000844	04ba5063	bge	x20,x11,80000884	 x20:0x00000000 x11:0x80000000
       56665000	      5665	00000000	00000013	addi	x0,x0,0	  x0:0x00000000
       56675000	      5666	80000880	00000013	addi	x0,x0,0	  x0:0x00000000
       56685000	      5667	80000884	01cfe463	bltu	x31,x28,8000088c	 x31:0x80009fc4 x28:0x00000000
       56695000	      5668	80000888	01857133	and	x2,x10,x24	 x10:0x00000000 x24:0x458c6000  x2=0x00000000
       56705000	      5669	8000088c	40335e93	srai	x29,x6,0x3	  x6:0xde67d830 x29=0xfbccfb06
       56715000	      5670	80000890	00000597	auipc	x11,0x0	 x11=0x8000088c
       56725000	      5671	80000894	00c58593	addi	x11,x11,12	 x11:0x8000088c x11=0x80000898
       56735000	      5672	80000898	00058067	jalr	x0,x11,0	 x11:0x80000898
       56745000	      5673	00000000	00000013	addi	x0,x0,0	  x0:0x00000000
       56755000	      5674	80000898	00000013	addi	x0,x0,0	  x0:0x00000000
       56765000	      5675	8000089c	00100193	addi	x3,x0,1	  x0:0x00000000  x3=0x00000001
       56775000	      5676	800008a0	00000073	ecall	
       56785000	      5677	800008a4	00a14663	blt	x2,x10,800008b0	  x2:0x00000000 x10:0x00000000
