		Time			Cycle	PC		Insn	Decoded instruction	Register and memory contents
          65000	         5	80000004	00000293	addi	x5,x0,0	  x0:0x00000000  x5=0x00000000
          75000	         6	80000008	00000313	addi	x6,x0,0	  x0:0x00000000  x6=0x00000000
          85000	         7	8000000c	00628263	beq	x5,x6,80000010	  x5:0x00000000  x6:0x00000000
          95000	         8	00000000	00000013	addi	x0,x0,0	  x0:0x00000000
         105000	         9	8000000c	00000013	addi	x0,x0,0	  x0:0x00000000
         115000	        10	80000010	00000897	auipc	x17,0x0	 x17=0x8000000c
         125000	        11	80000014	00c88893	addi	x17,x17,12	 x17:0x8000000c x17=0x80000018
         135000	        12	80000018	00088067	jalr	x0,x17,0	 x17:0x80000018
         145000	        13	00000000	00000013	addi	x0,x0,0	  x0:0x00000000
         155000	        14	80000018	00000013	addi	x0,x0,0	  x0:0x00000000
         165000	        15	8000001c	40000137	lui	x2,0x40000	  x2=0x40000000
         175000	        16	80000020	10010113	addi	x2,x2,256	  x2:0x40000000  x2=0x40000100
         185000	        17	80000024	00000013	addi	x0,x0,0	  x0:0x00000000
         195000	        18	80000028	0000ab97	auipc	x23,0xa	 x23=0x8000a024
         205000	        19	8000002c	fa0b8b93	addi	x23,x23,-96	 x23:0x8000a024 x23=0x80009fc4
         215000	        20	80000030	00004117	auipc	x2,0x4	  x2=0x8000402c
         225000	        21	80000034	87410113	addi	x2,x2,-1932	  x2:0x8000402c  x2=0x800038a0
         235000	        22	80000038	00116113	ori	x2,x2,1	  x2:0x800038a0  x2=0x800038a1
         245000	        23	8000003c	00000013	addi	x0,x0,0	  x0:0x00000000
         255000	        24	80000040	00000117	auipc	x2,0x0	  x2=0x8000003c
         265000	        25	80000044	02010113	addi	x2,x2,32	  x2:0x8000003c  x2=0x8000005c
         275000	        26	80000048	00000013	addi	x0,x0,0	  x0:0x00000000
         285000	        27	8000004c	00000013	addi	x0,x0,0	  x0:0x00000000
         295000	        28	80000050	00002137	lui	x2,0x2	  x2=0x00002000
         305000	        29	80000054	80010113	addi	x2,x2,-2048	  x2:0x00002000  x2=0x00001800
         315000	        30	80000058	00000013	addi	x0,x0,0	  x0:0x00000000
         325000	        31	8000005c	00000013	addi	x0,x0,0	  x0:0x00000000
         335000	        32	80000060	80000037	lui	x0,0x80000	
         345000	        33	80000064	00000013	addi	x0,x0,0	  x0:0x00000000
         355000	        34	80000068	800000b7	lui	x1,0x80000	  x1=0x80000000
         365000	        35	8000006c	00000113	addi	x2,x0,0	  x0:0x00000000  x2=0x00000000
         375000	        36	80000070	00000193	addi	x3,x0,0	  x0:0x00000000  x3=0x00000000
         385000	        37	80000074	00000213	addi	x4,x0,0	  x0:0x00000000  x4=0x00000000
         395000	        38	80000078	800002b7	lui	x5,0x80000	  x5=0x80000000
         405000	        39	8000007c	00200313	addi	x6,x0,2	  x0:0x00000000  x6=0x00000002
         415000	        40	80000080	f9cbc3b7	lui	x7,0xf9cbc	  x7=0xf9cbc000
         425000	        41	80000084	27038393	addi	x7,x7,624	  x7:0xf9cbc000  x7=0xf9cbc270
         435000	        42	80000088	f7720437	lui	x8,0xf7720	  x8=0xf7720000
         445000	        43	8000008c	29440413	addi	x8,x8,660	  x8:0xf7720000  x8=0xf7720294
         455000	        44	80000090	00e00493	addi	x9,x0,14	  x0:0x00000000  x9=0x0000000e
         465000	        45	80000094	00000513	addi	x10,x0,0	  x0:0x00000000 x10=0x00000000
         475000	        46	80000098	f7e235b7	lui	x11,0xf7e23	 x11=0xf7e23000
         485000	        47	8000009c	d5658593	addi	x11,x11,-682	 x11:0xf7e23000 x11=0xf7e22d56
         495000	        48	800000a0	80000637	lui	x12,0x80000	 x12=0x80000000
         505000	        49	800000a4	800006b7	lui	x13,0x80000	 x13=0x80000000
         515000	        50	800000a8	3d91d737	lui	x14,0x3d91d	 x14=0x3d91d000
         525000	        51	800000ac	1f770713	addi	x14,x14,503	 x14:0x3d91d000 x14=0x3d91d1f7
         535000	        52	800000b0	800007b7	lui	x15,0x80000	 x15=0x80000000
         545000	        53	800000b4	80000837	lui	x16,0x80000	 x16=0x80000000
         555000	        54	800000b8	f0ed78b7	lui	x17,0xf0ed7	 x17=0xf0ed7000
         565000	        55	800000bc	66188893	addi	x17,x17,1633	 x17:0xf0ed7000 x17=0xf0ed7661
         575000	        56	800000c0	00a00913	addi	x18,x0,10	  x0:0x00000000 x18=0x0000000a
         585000	        57	800000c4	00000993	addi	x19,x0,0	  x0:0x00000000 x19=0x00000000
         595000	        58	800000c8	00500a13	addi	x20,x0,5	  x0:0x00000000 x20=0x00000005
         605000	        59	800000cc	00000a93	addi	x21,x0,0	  x0:0x00000000 x21=0x00000000
         615000	        60	800000d0	f92b0b37	lui	x22,0xf92b0	 x22=0xf92b0000
         625000	        61	800000d4	d28b0b13	addi	x22,x22,-728	 x22:0xf92b0000 x22=0xf92afd28
         635000	        62	800000d8	80000c37	lui	x24,0x80000	 x24=0x80000000
         645000	        63	800000dc	9d02bcb7	lui	x25,0x9d02b	 x25=0x9d02b000
         655000	        64	800000e0	f3dc8c93	addi	x25,x25,-195	 x25:0x9d02b000 x25=0x9d02af3d
         665000	        65	800000e4	166e5d37	lui	x26,0x166e5	 x26=0x166e5000
         675000	        66	800000e8	410d0d13	addi	x26,x26,1040	 x26:0x166e5000 x26=0x166e5410
         685000	        67	800000ec	00300d93	addi	x27,x0,3	  x0:0x00000000 x27=0x00000003
         695000	        68	800000f0	80000e37	lui	x28,0x80000	 x28=0x80000000
         705000	        69	800000f4	80000eb7	lui	x29,0x80000	 x29=0x80000000
         715000	        70	800000f8	00000f93	addi	x31,x0,0	  x0:0x00000000 x31=0x00000000
         725000	        71	800000fc	0000af17	auipc	x30,0xa	 x30=0x8000a0f8
         735000	        72	80000100	e8cf0f13	addi	x30,x30,-372	 x30:0x8000a0f8 x30=0x80009f84
         745000	        73	80000104	1eab0b13	addi	x22,x22,490	 x22:0xf92afd28 x22=0xf92aff12
         755000	        74	80000108	00000917	auipc	x18,0x0	 x18=0x80000104
         765000	        75	8000010c	5d890913	addi	x18,x18,1496	 x18:0x80000104 x18=0x800006dc
         775000	        76	80000110	01a90913	addi	x18,x18,26	 x18:0x800006dc x18=0x800006f6
         785000	        77	80000114	a9786d93	ori	x27,x16,-1385	 x16:0x80000000 x27=0xfffffa97
         795000	        78	80000118	01a0a733	slt	x14,x1,x26	  x1:0x80000000 x26:0x166e5410 x14=0x00000001
         805000	        79	8000011c	01847093	andi	x1,x8,24	  x8:0xf7720294  x1=0x00000010
         815000	        80	80000120	00000013	addi	x0,x0,0	  x0:0x00000000
         825000	        81	80000124	0125d663	bge	x11,x18,80000130	 x11:0xf7e22d56 x18:0x800006f6
         835000	        82	00000000	00000013	addi	x0,x0,0	  x0:0x00000000
         845000	        83	8000012c	00000013	addi	x0,x0,0	  x0:0x00000000
         855000	        84	80000130	fe690a67	jalr	x20,x18,-26	 x18:0x800006f6 x20=0x80000130
         865000	        85	00000000	00000013	addi	x0,x0,0	  x0:0x00000000
         875000	        86	800006dc	00000013	addi	x0,x0,0	  x0:0x00000000
         885000	        87	800006e0	40f883b3	sub	x7,x17,x15	 x17:0xf0ed7661 x15:0x80000000  x7=0x70ed7661
         895000	        88	800006e4	fccf0f13	addi	x30,x30,-52	 x30:0x80009f84 x30=0x80009f50
         905000	        89	800006e8	4c421617	auipc	x12,0x4c421	 x12=0xcc4216e4
         915000	        90	800006ec	c4f4fb13	andi	x22,x9,-945	  x9:0x0000000e x22=0x0000000e
         925000	        91	800006f0	014f2223	sw	x20,4(x30)	 x30:0x80009f50 x20:0x80000130 PA:0x80009f54
         935000	        92	800006f4	9cb2f313	andi	x6,x5,-1589	  x5:0x80000000  x6=0x80000000
         945000	        93	800006f8	eda66e97	auipc	x29,0xeda66	 x29=0x6da666f4
         955000	        94	800006fc	01dd1c63	bne	x26,x29,80000714	 x26:0x166e5410 x29:0x6da666f4
         965000	        95	00000000	00000013	addi	x0,x0,0	  x0:0x00000000
         975000	        96	80000710	00000013	addi	x0,x0,0	  x0:0x00000000
         985000	        97	80000714	4d500a6f	jal	x20,80000714	 x20=0x80000714
         995000	        98	00000000	00000013	addi	x0,x0,0	  x0:0x00000000
        1005000	        99	800013e4	00000013	addi	x0,x0,0	  x0:0x00000000
        1015000	       100	800013e8	cbd6a313	slti	x6,x13,-835	 x13:0x80000000  x6=0x00000001
        1025000	       101	800013ec	fccf0f13	addi	x30,x30,-52	 x30:0x80009f50 x30=0x80009f1c
        1035000	       102	800013f0	00cda433	slt	x8,x27,x12	 x27:0xfffffa97 x12:0xcc4216e4  x8=0x00000000
        1045000	       103	800013f4	014f2223	sw	x20,4(x30)	 x30:0x80009f1c x20:0x80000714 PA:0x80009f20
        1055000	       104	800013f8	16ec6a93	ori	x21,x24,366	 x24:0x80000000 x21=0x8000016e
        1065000	       105	800013fc	ffa00c93	addi	x25,x0,-6	  x0:0x00000000 x25=0xfffffffa
        1075000	       106	80001400	96566193	ori	x3,x12,-1691	 x12:0xcc4216e4  x3=0xffffffe5
        1085000	       107	80001404	00e29713	slli	x14,x5,0xe	  x5:0x80000000 x14=0x00000000
        1095000	       108	80001408	00f00593	addi	x11,x0,15	  x0:0x00000000 x11=0x0000000f
        1105000	       109	8000140c	09050813	addi	x16,x10,144	 x10:0x00000000 x16=0x00000090
        1115000	       110	80001410	0058a9b3	slt	x19,x17,x5	 x17:0xf0ed7661  x5:0x80000000 x19=0x00000000
        1125000	       111	80001414	fd64bb13	sltiu	x22,x9,-42	  x9:0x0000000e x22=0x00000001
        1135000	       112	80001418	77e87293	andi	x5,x16,1918	 x16:0x00000090  x5=0x00000010
        1145000	       113	8000141c	008c8c93	addi	x25,x25,8	 x25:0xfffffffa x25=0x00000002
        1155000	       114	80001420	01120933	add	x18,x4,x17	  x4:0x00000000 x17:0xf0ed7661 x18=0xf0ed7661
        1165000	       115	80001424	008fbc33	sltu	x24,x31,x8	 x31:0x00000000  x8:0x00000000 x24=0x00000000
        1175000	       116	80001428	0087f633	and	x12,x15,x8	 x15:0x80000000  x8:0x00000000 x12=0x00000000
        1185000	       117	8000142c	febcc6e3	blt	x25,x11,80001418	 x25:0x00000002 x11:0x0000000f
        1195000	       118	00000000	00000013	addi	x0,x0,0	  x0:0x00000000
        1205000	       119	80001414	00000013	addi	x0,x0,0	  x0:0x00000000
        1215000	       120	80001418	77e87293	andi	x5,x16,1918	 x16:0x00000090  x5=0x00000010
        1225000	       121	8000141c	008c8c93	addi	x25,x25,8	 x25:0x00000002 x25=0x0000000a
        1235000	       122	80001420	01120933	add	x18,x4,x17	  x4:0x00000000 x17:0xf0ed7661 x18=0xf0ed7661
        1245000	       123	80001424	008fbc33	sltu	x24,x31,x8	 x31:0x00000000  x8:0x00000000 x24=0x00000000
        1255000	       124	80001428	0087f633	and	x12,x15,x8	 x15:0x80000000  x8:0x00000000 x12=0x00000000
        1265000	       125	8000142c	febcc6e3	blt	x25,x11,80001418	 x25:0x0000000a x11:0x0000000f
        1275000	       126	00000000	00000013	addi	x0,x0,0	  x0:0x00000000
        1285000	       127	80001414	00000013	addi	x0,x0,0	  x0:0x00000000
        1295000	       128	80001418	77e87293	andi	x5,x16,1918	 x16:0x00000090  x5=0x00000010
        1305000	       129	8000141c	008c8c93	addi	x25,x25,8	 x25:0x0000000a x25=0x00000012
        1315000	       130	80001420	01120933	add	x18,x4,x17	  x4:0x00000000 x17:0xf0ed7661 x18=0xf0ed7661
        1325000	       131	80001424	008fbc33	sltu	x24,x31,x8	 x31:0x00000000  x8:0x00000000 x24=0x00000000
        1335000	       132	80001428	0087f633	and	x12,x15,x8	 x15:0x80000000  x8:0x00000000 x12=0x00000000
        1345000	       133	8000142c	febcc6e3	blt	x25,x11,80001418	 x25:0x00000012 x11:0x0000000f
        1355000	       134	80001430	41918133	sub	x2,x3,x25	  x3:0xffffffe5 x25:0x00000012  x2=0xffffffd3
        1365000	       135	80001434	ffc00513	addi	x10,x0,-4	  x0:0x00000000 x10=0xfffffffc
        1375000	       136	80001438	d8cbf613	andi	x12,x23,-628	 x23:0x80009fc4 x12=0x80009d84
        1385000	       137	8000143c	00d83c33	sltu	x24,x16,x13	 x16:0x00000090 x13:0x80000000 x24=0x00000001
        1395000	       138	80001440	003ef433	and	x8,x29,x3	 x29:0x6da666f4  x3:0xffffffe5  x8=0x6da666e4
        1405000	       139	80001444	00000013	addi	x0,x0,0	  x0:0x00000000
        1415000	       140	80001448	00000013	addi	x0,x0,0	  x0:0x00000000
        1425000	       141	8000144c	ff200593	addi	x11,x0,-14	  x0:0x00000000 x11=0xfffffff2
        1435000	       142	80001450	01eb2b33	slt	x22,x22,x30	 x22:0x00000001 x30:0x80009f1c x22=0x00000000
        1445000	       143	80001454	01a99133	sll	x2,x19,x26	 x19:0x00000000 x26:0x166e5410  x2=0x00000000
        1455000	       144	80001458	01f282b3	add	x5,x5,x31	  x5:0x00000010 x31:0x00000000  x5=0x00000010
        1465000	       145	8000145c	e380e813	ori	x16,x1,-456	  x1:0x00000010 x16=0xfffffe38
        1475000	       146	80001460	eed04697	auipc	x13,0xeed04	 x13=0x6ed0545c
        1485000	       147	80001464	523e2d93	slti	x27,x28,1315	 x28:0x80000000 x27=0x00000001
        1495000	       148	80001468	55a47a93	andi	x21,x8,1370	  x8:0x6da666e4 x21=0x00000440
        1505000	       149	8000146c	4151db13	srai	x22,x3,0x15	  x3:0xffffffe5 x22=0xffffffff
        1515000	       150	80001470	ff650513	addi	x10,x10,-10	 x10:0xfffffffc x10=0xfffffff2
        1525000	       151	80001474	00000013	addi	x0,x0,0	  x0:0x00000000
        1535000	       152	80001478	01e6f833	and	x16,x13,x30	 x13:0x6ed0545c x30:0x80009f1c x16=0x0000141c
        1545000	       153	8000147c	cda16113	ori	x2,x2,-806	  x2:0x00000000  x2=0xfffffcda
        1555000	       154	80001480	feb554e3	bge	x10,x11,80001468	 x10:0xfffffff2 x11:0xfffffff2
        1565000	       155	00000000	00000013	addi	x0,x0,0	  x0:0x00000000
        1575000	       156	80001464	00000013	addi	x0,x0,0	  x0:0x00000000
        1585000	       157	80001468	55a47a93	andi	x21,x8,1370	  x8:0x6da666e4 x21=0x00000440
        1595000	       158	8000146c	4151db13	srai	x22,x3,0x15	  x3:0xffffffe5 x22=0xffffffff
        1605000	       159	80001470	ff650513	addi	x10,x10,-10	 x10:0xfffffff2 x10=0xffffffe8
        1615000	       160	80001474	00000013	addi	x0,x0,0	  x0:0x00000000
        1625000	       161	80001478	01e6f833	and	x16,x13,x30	 x13:0x6ed0545c x30:0x80009f1c x16=0x0000141c
        1635000	       162	8000147c	cda16113	ori	x2,x2,-806	  x2:0xfffffcda  x2=0xfffffcda
        1645000	       163	80001480	feb554e3	bge	x10,x11,80001468	 x10:0xffffffe8 x11:0xfffffff2
        1655000	       164	80001484	0193ddb3	srl	x27,x7,x25	  x7:0x70ed7661 x25:0x00000012 x27=0x00001c3b
        1665000	       165	80001488	00000a93	addi	x21,x0,0	  x0:0x00000000 x21=0x00000000
        1675000	       166	8000148c	5b268937	lui	x18,0x5b268	 x18=0x5b268000
        1685000	       167	80001490	01cd8833	add	x16,x27,x28	 x27:0x00001c3b x28:0x80000000 x16=0x80001c3b
        1695000	       168	80001494	002fa333	slt	x6,x31,x2	 x31:0x00000000  x2:0xfffffcda  x6=0x00000000
        1705000	       169	80001498	014e21b3	slt	x3,x28,x20	 x28:0x80000000 x20:0x80000714  x3=0x00000001
        1715000	       170	8000149c	0093c333	xor	x6,x7,x9	  x7:0x70ed7661  x9:0x0000000e  x6=0x70ed766f
        1725000	       171	800014a0	00f304b3	add	x9,x6,x15	  x6:0x70ed766f x15:0x80000000  x9=0xf0ed766f
        1735000	       172	800014a4	bf5a8b13	addi	x22,x21,-1035	 x21:0x00000000 x22=0xfffffbf5
        1745000	       173	800014a8	00700613	addi	x12,x0,7	  x0:0x00000000 x12=0x00000007
        1755000	       174	800014ac	8ff60a13	addi	x20,x12,-1793	 x12:0x00000007 x20=0xfffff906
        1765000	       175	800014b0	007a8a93	addi	x21,x21,7	 x21:0x00000000 x21=0x00000007
        1775000	       176	800014b4	cb922193	slti	x3,x4,-839	  x4:0x00000000  x3=0x00000000
        1785000	       177	800014b8	00600093	addi	x1,x0,6	  x0:0x00000000  x1=0x00000006
        1795000	       178	800014bc	3468e193	ori	x3,x17,838	 x17:0xf0ed7661  x3=0xf0ed7767
        1805000	       179	800014c0	371df913	andi	x18,x27,881	 x27:0x00001c3b x18=0x00000031
        1815000	       180	800014c4	005c9733	sll	x14,x25,x5	 x25:0x00000012  x5:0x00000010 x14=0x00120000
        1825000	       181	800014c8	004f72b3	and	x5,x30,x4	 x30:0x80009f1c  x4:0x00000000  x5=0x00000000
        1835000	       182	800014cc	98dc3993	sltiu	x19,x24,-1651	 x24:0x00000001 x19=0x00000001
        1845000	       183	800014d0	00bfb833	sltu	x16,x31,x11	 x31:0x00000000 x11:0xfffffff2 x16=0x00000001
        1855000	       184	800014d4	01200c93	addi	x25,x0,18	  x0:0x00000000 x25=0x00000012
        1865000	       185	800014d8	01ce09b3	add	x19,x28,x28	 x28:0x80000000 x28:0x80000000 x19=0x00000000
        1875000	       186	800014dc	e3d56713	ori	x14,x10,-451	 x10:0xffffffe8 x14=0xfffffffd
        1885000	       187	800014e0	cd2d7693	andi	x13,x26,-814	 x26:0x166e5410 x13=0x166e5410
        1895000	       188	800014e4	1e9bf793	andi	x15,x23,489	 x23:0x80009fc4 x15=0x000001c0
        1905000	       189	800014e8	012927b3	slt	x15,x18,x18	 x18:0x00000031 x18:0x00000031 x15=0x00000000
        1915000	       190	800014ec	00408093	addi	x1,x1,4	  x1:0x00000006  x1=0x0000000a
        1925000	       191	800014f0	406e8033	sub	x0,x29,x6	 x29:0x6da666f4  x6:0x70ed766f
        1935000	       192	800014f4	019af7b3	and	x15,x21,x25	 x21:0x00000007 x25:0x00000012 x15=0x00000002
        1945000	       193	800014f8	ff90c0e3	blt	x1,x25,800014d8	  x1:0x0000000a x25:0x00000012
        1955000	       194	00000000	00000013	addi	x0,x0,0	  x0:0x00000000
        1965000	       195	800014d4	00000013	addi	x0,x0,0	  x0:0x00000000
        1975000	       196	800014d8	01ce09b3	add	x19,x28,x28	 x28:0x80000000 x28:0x80000000 x19=0x00000000
        1985000	       197	800014dc	e3d56713	ori	x14,x10,-451	 x10:0xffffffe8 x14=0xfffffffd
        1995000	       198	800014e0	cd2d7693	andi	x13,x26,-814	 x26:0x166e5410 x13=0x166e5410
        2005000	       199	800014e4	1e9bf793	andi	x15,x23,489	 x23:0x80009fc4 x15=0x000001c0
        2015000	       200	800014e8	012927b3	slt	x15,x18,x18	 x18:0x00000031 x18:0x00000031 x15=0x00000000
        2025000	       201	800014ec	00408093	addi	x1,x1,4	  x1:0x0000000a  x1=0x0000000e
        2035000	       202	800014f0	406e8033	sub	x0,x29,x6	 x29:0x6da666f4  x6:0x70ed766f
        2045000	       203	800014f4	019af7b3	and	x15,x21,x25	 x21:0x00000007 x25:0x00000012 x15=0x00000002
        2055000	       204	800014f8	ff90c0e3	blt	x1,x25,800014d8	  x1:0x0000000e x25:0x00000012
        2065000	       205	00000000	00000013	addi	x0,x0,0	  x0:0x00000000
        2075000	       206	800014d4	00000013	addi	x0,x0,0	  x0:0x00000000
        2085000	       207	800014d8	01ce09b3	add	x19,x28,x28	 x28:0x80000000 x28:0x80000000 x19=0x00000000
        2095000	       208	800014dc	e3d56713	ori	x14,x10,-451	 x10:0xffffffe8 x14=0xfffffffd
        2105000	       209	800014e0	cd2d7693	andi	x13,x26,-814	 x26:0x166e5410 x13=0x166e5410
        2115000	       210	800014e4	1e9bf793	andi	x15,x23,489	 x23:0x80009fc4 x15=0x000001c0
        2125000	       211	800014e8	012927b3	slt	x15,x18,x18	 x18:0x00000031 x18:0x00000031 x15=0x00000000
        2135000	       212	800014ec	00408093	addi	x1,x1,4	  x1:0x0000000e  x1=0x00000012
        2145000	       213	800014f0	406e8033	sub	x0,x29,x6	 x29:0x6da666f4  x6:0x70ed766f
        2155000	       214	800014f4	019af7b3	and	x15,x21,x25	 x21:0x00000007 x25:0x00000012 x15=0x00000002
        2165000	       215	800014f8	ff90c0e3	blt	x1,x25,800014d8	  x1:0x00000012 x25:0x00000012
        2175000	       216	800014fc	40fd5133	sra	x2,x26,x15	 x26:0x166e5410 x15:0x00000002  x2=0x059b9504
        2185000	       217	80001500	01ac3233	sltu	x4,x24,x26	 x24:0x00000001 x26:0x166e5410  x4=0x00000001
        2195000	       218	80001504	faca94e3	bne	x21,x12,800014ac	 x21:0x00000007 x12:0x00000007
        2205000	       219	80001508	00ccd6b3	srl	x13,x25,x12	 x25:0x00000012 x12:0x00000007 x13=0x00000000
        2215000	       220	8000150c	ffa00513	addi	x10,x0,-6	  x0:0x00000000 x10=0xfffffffa
        2225000	       221	80001510	00000013	addi	x0,x0,0	  x0:0x00000000
        2235000	       222	80001514	40a8d293	srai	x5,x17,0xa	 x17:0xf0ed7661  x5=0xfffc3b5d
        2245000	       223	80001518	ffc00613	addi	x12,x0,-4	  x0:0x00000000 x12=0xfffffffc
        2255000	       224	8000151c	409c57b3	sra	x15,x24,x9	 x24:0x00000001  x9:0xf0ed766f x15=0x00000000
        2265000	       225	80001520	019c2a33	slt	x20,x24,x25	 x24:0x00000001 x25:0x00000012 x20=0x00000001
        2275000	       226	80001524	00150513	addi	x10,x10,1	 x10:0xfffffffa x10=0xfffffffb
        2285000	       227	80001528	00769733	sll	x14,x13,x7	 x13:0x00000000  x7:0x70ed7661 x14=0x00000000
        2295000	       228	8000152c	0198cd33	xor	x26,x17,x25	 x17:0xf0ed7661 x25:0x00000012 x26=0xf0ed7673
        2305000	       229	80001530	00c4d393	srli	x7,x9,0xc	  x9:0xf0ed766f  x7=0x000f0ed7
        2315000	       230	80001534	fec506e3	beq	x10,x12,80001520	 x10:0xfffffffb x12:0xfffffffc
        2325000	       231	80001538	00344c33	xor	x24,x8,x3	  x8:0x6da666e4  x3:0xf0ed7767 x24=0x9d4b1183
        2335000	       232	8000153c	fff00393	addi	x7,x0,-1	  x0:0x00000000  x7=0xffffffff
        2345000	       233	80001540	85210413	addi	x8,x2,-1966	  x2:0x059b9504  x8=0x059b8d56
        2355000	       234	80001544	00ac1493	slli	x9,x24,0xa	 x24:0x9d4b1183  x9=0x2c460c00
        2365000	       235	80001548	6394d597	auipc	x11,0x6394d	 x11=0xe394e544
        2375000	       236	8000154c	1f56dc97	auipc	x25,0x1f56d	 x25=0x9f56e548
        2385000	       237	80001550	00f83eb3	sltu	x29,x16,x15	 x16:0x00000001 x15:0x00000000 x29=0x00000000
        2395000	       238	80001554	0104b0b3	sltu	x1,x9,x16	  x9:0x2c460c00 x16:0x00000001  x1=0x00000000
        2405000	       239	80001558	ff000a13	addi	x20,x0,-16	  x0:0x00000000 x20=0xfffffff0
        2415000	       240	8000155c	405581b3	sub	x3,x11,x5	 x11:0xe394e544  x5:0xfffc3b5d  x3=0xe398a9e7
        2425000	       241	80001560	97658237	lui	x4,0x97658	  x4=0x97658000
        2435000	       242	80001564	0191c633	xor	x12,x3,x25	  x3:0xe398a9e7 x25:0x9f56e548 x12=0x7cce4caf
        2445000	       243	80001568	01c6dd13	srli	x26,x13,0x1c	 x13:0x00000000 x26=0x00000000
        2455000	       244	8000156c	ffd38393	addi	x7,x7,-3	  x7:0xffffffff  x7=0xfffffffc
        2465000	       245	80001570	71db6493	ori	x9,x22,1821	 x22:0xfffffbf5  x9=0xfffffffd
        2475000	       246	80001574	01dc7db3	and	x27,x24,x29	 x24:0x9d4b1183 x29:0x00000000 x27=0x00000000
        2485000	       247	80001578	41653413	sltiu	x8,x10,1046	 x10:0xfffffffb  x8=0x00000000
        2495000	       248	8000157c	40f45493	srai	x9,x8,0xf	  x8:0x00000000  x9=0x00000000
        2505000	       249	80001580	01fad013	srli	x0,x21,0x1f	 x21:0x00000007
        2515000	       250	80001584	01377133	and	x2,x14,x19	 x14:0x00000000 x19:0x00000000  x2=0x00000000
        2525000	       251	80001588	009c5c93	srli	x25,x24,0x9	 x24:0x9d4b1183 x25=0x004ea588
        2535000	       252	8000158c	a7c6ac93	slti	x25,x13,-1412	 x13:0x00000000 x25=0x00000000
        2545000	       253	80001590	fd4388e3	beq	x7,x20,80001560	  x7:0xfffffffc x20:0xfffffff0
        2555000	       254	80001594	40668433	sub	x8,x13,x6	 x13:0x00000000  x6:0x70ed766f  x8=0x8f128991
        2565000	       255	80001598	00800c13	addi	x24,x0,8	  x0:0x00000000 x24=0x00000008
        2575000	       256	8000159c	00800593	addi	x11,x0,8	  x0:0x00000000 x11=0x00000008
        2585000	       257	800015a0	d9638793	addi	x15,x7,-618	  x7:0xfffffffc x15=0xfffffd92
        2595000	       258	800015a4	01f36833	or	x16,x6,x31	  x6:0x70ed766f x31:0x00000000 x16=0x70ed766f
        2605000	       259	800015a8	ffac0c13	addi	x24,x24,-6	 x24:0x00000008 x24=0x00000002
        2615000	       260	800015ac	46093297	auipc	x5,0x46093	  x5=0xc60945a8
        2625000	       261	800015b0	ffa00713	addi	x14,x0,-6	  x0:0x00000000 x14=0xfffffffa
        2635000	       262	800015b4	00d75413	srli	x8,x14,0xd	 x14:0xfffffffa  x8=0x0007ffff
        2645000	       263	800015b8	00cb9213	slli	x4,x23,0xc	 x23:0x80009fc4  x4=0x09fc4000
        2655000	       264	800015bc	40025eb3	sra	x29,x4,x0	  x4:0x09fc4000  x0:0x00000000 x29=0x09fc4000
        2665000	       265	800015c0	008c9a33	sll	x20,x25,x8	 x25:0x00000000  x8:0x0007ffff x20=0x00000000
        2675000	       266	800015c4	00f00613	addi	x12,x0,15	  x0:0x00000000 x12=0x0000000f
        2685000	       267	800015c8	64fae093	ori	x1,x21,1615	 x21:0x00000007  x1=0x0000064f
        2695000	       268	800015cc	0061a833	slt	x16,x3,x6	  x3:0xe398a9e7  x6:0x70ed766f x16=0x00000001
        2705000	       269	800015d0	007caab3	slt	x21,x25,x7	 x25:0x00000000  x7:0xfffffffc x21=0x00000000
        2715000	       270	800015d4	00d62db3	slt	x27,x12,x13	 x12:0x0000000f x13:0x00000000 x27=0x00000000
        2725000	       271	800015d8	00570713	addi	x14,x14,5	 x14:0xfffffffa x14=0xffffffff
        2735000	       272	800015dc	fec74ae3	blt	x14,x12,800015d0	 x14:0xffffffff x12:0x0000000f
        2745000	       273	00000000	00000013	addi	x0,x0,0	  x0:0x00000000
        2755000	       274	800015cc	00000013	addi	x0,x0,0	  x0:0x00000000
        2765000	       275	800015d0	007caab3	slt	x21,x25,x7	 x25:0x00000000  x7:0xfffffffc x21=0x00000000
        2775000	       276	800015d4	00d62db3	slt	x27,x12,x13	 x12:0x0000000f x13:0x00000000 x27=0x00000000
        2785000	       277	800015d8	00570713	addi	x14,x14,5	 x14:0xffffffff x14=0x00000004
        2795000	       278	800015dc	fec74ae3	blt	x14,x12,800015d0	 x14:0x00000004 x12:0x0000000f
        2805000	       279	00000000	00000013	addi	x0,x0,0	  x0:0x00000000
        2815000	       280	800015cc	00000013	addi	x0,x0,0	  x0:0x00000000
        2825000	       281	800015d0	007caab3	slt	x21,x25,x7	 x25:0x00000000  x7:0xfffffffc x21=0x00000000
        2835000	       282	800015d4	00d62db3	slt	x27,x12,x13	 x12:0x0000000f x13:0x00000000 x27=0x00000000
        2845000	       283	800015d8	00570713	addi	x14,x14,5	 x14:0x00000004 x14=0x00000009
        2855000	       284	800015dc	fec74ae3	blt	x14,x12,800015d0	 x14:0x00000009 x12:0x0000000f
        2865000	       285	00000000	00000013	addi	x0,x0,0	  x0:0x00000000
        2875000	       286	800015cc	00000013	addi	x0,x0,0	  x0:0x00000000
        2885000	       287	800015d0	007caab3	slt	x21,x25,x7	 x25:0x00000000  x7:0xfffffffc x21=0x00000000
        2895000	       288	800015d4	00d62db3	slt	x27,x12,x13	 x12:0x0000000f x13:0x00000000 x27=0x00000000
        2905000	       289	800015d8	00570713	addi	x14,x14,5	 x14:0x00000009 x14=0x0000000e
        2915000	       290	800015dc	fec74ae3	blt	x14,x12,800015d0	 x14:0x0000000e x12:0x0000000f
        2925000	       291	00000000	00000013	addi	x0,x0,0	  x0:0x00000000
        2935000	       292	800015cc	00000013	addi	x0,x0,0	  x0:0x00000000
        2945000	       293	800015d0	007caab3	slt	x21,x25,x7	 x25:0x00000000  x7:0xfffffffc x21=0x00000000
        2955000	       294	800015d4	00d62db3	slt	x27,x12,x13	 x12:0x0000000f x13:0x00000000 x27=0x00000000
        2965000	       295	800015d8	00570713	addi	x14,x14,5	 x14:0x0000000e x14=0x00000013
        2975000	       296	800015dc	fec74ae3	blt	x14,x12,800015d0	 x14:0x00000013 x12:0x0000000f
        2985000	       297	800015e0	01bf2a33	slt	x20,x30,x27	 x30:0x80009f1c x27:0x00000000 x20=0x00000001
        2995000	       298	800015e4	40a1d9b3	sra	x19,x3,x10	  x3:0xe398a9e7 x10:0xfffffffb x19=0xfffffffc
        3005000	       299	800015e8	e0b19117	auipc	x2,0xe0b19	  x2=0x60b1a5e4
        3015000	       300	800015ec	01fad293	srli	x5,x21,0x1f	 x21:0x00000000  x5=0x00000000
        3025000	       301	800015f0	00b80533	add	x10,x16,x11	 x16:0x00000001 x11:0x00000008 x10=0x00000009
        3035000	       302	800015f4	01ae5133	srl	x2,x28,x26	 x28:0x80000000 x26:0x00000000  x2=0x80000000
        3045000	       303	800015f8	fabc76e3	bgeu	x24,x11,800015a4	 x24:0x00000002 x11:0x00000008
        3055000	       304	800015fc	41a25033	sra	x0,x4,x26	  x4:0x09fc4000 x26:0x00000000
        3065000	       305	80001600	00500113	addi	x2,x0,5	  x0:0x00000000  x2=0x00000005
        3075000	       306	80001604	5bb1ba13	sltiu	x20,x3,1467	  x3:0xe398a9e7 x20=0x00000000
        3085000	       307	80001608	2f403d97	auipc	x27,0x2f403	 x27=0xaf404604
        3095000	       308	8000160c	85e8ad93	slti	x27,x17,-1954	 x17:0xf0ed7661 x27=0x00000001
        3105000	       309	80001610	fef00313	addi	x6,x0,-17	  x0:0x00000000  x6=0xffffffef
        3115000	       310	80001614	002d56b3	srl	x13,x26,x2	 x26:0x00000000  x2:0x00000005 x13=0x00000000
        3125000	       311	80001618	00000013	addi	x0,x0,0	  x0:0x00000000
        3135000	       312	8000161c	005c9c33	sll	x24,x25,x5	 x25:0x00000000  x5:0x00000000 x24=0x00000000
        3145000	       313	80001620	ff910113	addi	x2,x2,-7	  x2:0x00000005  x2=0xfffffffe
        3155000	       314	80001624	80953f93	sltiu	x31,x10,-2039	 x10:0x00000009 x31=0x00000001
        3165000	       315	80001628	01cea3b3	slt	x7,x29,x28	 x29:0x09fc4000 x28:0x80000000  x7=0x00000000
        3175000	       316	8000162c	fe6156e3	bge	x2,x6,80001618	  x2:0xfffffffe  x6:0xffffffef
        3185000	       317	00000000	00000013	addi	x0,x0,0	  x0:0x00000000
        3195000	       318	80001614	00000013	addi	x0,x0,0	  x0:0x00000000
        3205000	       319	80001618	00000013	addi	x0,x0,0	  x0:0x00000000
        3215000	       320	8000161c	005c9c33	sll	x24,x25,x5	 x25:0x00000000  x5:0x00000000 x24=0x00000000
        3225000	       321	80001620	ff910113	addi	x2,x2,-7	  x2:0xfffffffe  x2=0xfffffff7
        3235000	       322	80001624	80953f93	sltiu	x31,x10,-2039	 x10:0x00000009 x31=0x00000001
        3245000	       323	80001628	01cea3b3	slt	x7,x29,x28	 x29:0x09fc4000 x28:0x80000000  x7=0x00000000
        3255000	       324	8000162c	fe6156e3	bge	x2,x6,80001618	  x2:0xfffffff7  x6:0xffffffef
        3265000	       325	00000000	00000013	addi	x0,x0,0	  x0:0x00000000
        3275000	       326	80001614	00000013	addi	x0,x0,0	  x0:0x00000000
        3285000	       327	80001618	00000013	addi	x0,x0,0	  x0:0x00000000
        3295000	       328	8000161c	005c9c33	sll	x24,x25,x5	 x25:0x00000000  x5:0x00000000 x24=0x00000000
        3305000	       329	80001620	ff910113	addi	x2,x2,-7	  x2:0xfffffff7  x2=0xfffffff0
        3315000	       330	80001624	80953f93	sltiu	x31,x10,-2039	 x10:0x00000009 x31=0x00000001
        3325000	       331	80001628	01cea3b3	slt	x7,x29,x28	 x29:0x09fc4000 x28:0x80000000  x7=0x00000000
        3335000	       332	8000162c	fe6156e3	bge	x2,x6,80001618	  x2:0xfffffff0  x6:0xffffffef
        3345000	       333	00000000	00000013	addi	x0,x0,0	  x0:0x00000000
        3355000	       334	80001614	00000013	addi	x0,x0,0	  x0:0x00000000
        3365000	       335	80001618	00000013	addi	x0,x0,0	  x0:0x00000000
        3375000	       336	8000161c	005c9c33	sll	x24,x25,x5	 x25:0x00000000  x5:0x00000000 x24=0x00000000
        3385000	       337	80001620	ff910113	addi	x2,x2,-7	  x2:0xfffffff0  x2=0xffffffe9
        3395000	       338	80001624	80953f93	sltiu	x31,x10,-2039	 x10:0x00000009 x31=0x00000001
        3405000	       339	80001628	01cea3b3	slt	x7,x29,x28	 x29:0x09fc4000 x28:0x80000000  x7=0x00000000
        3415000	       340	8000162c	fe6156e3	bge	x2,x6,80001618	  x2:0xffffffe9  x6:0xffffffef
        3425000	       341	80001630	0003c933	xor	x18,x7,x0	  x7:0x00000000  x0:0x00000000 x18=0x00000000
        3435000	       342	80001634	ffe00493	addi	x9,x0,-2	  x0:0x00000000  x9=0xfffffffe
        3445000	       343	80001638	0040aa33	slt	x20,x1,x4	  x1:0x0000064f  x4:0x09fc4000 x20=0x00000001
        3455000	       344	8000163c	008f4633	xor	x12,x30,x8	 x30:0x80009f1c  x8:0x0007ffff x12=0x800760e3
        3465000	       345	80001640	01021593	slli	x11,x4,0x10	  x4:0x09fc4000 x11=0x40000000
        3475000	       346	80001644	12d559b7	lui	x19,0x12d55	 x19=0x12d55000
        3485000	       347	80001648	ff300393	addi	x7,x0,-13	  x0:0x00000000  x7=0xfffffff3
        3495000	       348	8000164c	8bb9c593	xori	x11,x19,-1861	 x19:0x12d55000 x11=0xed2aa8bb
        3505000	       349	80001650	9403fe93	andi	x29,x7,-1728	  x7:0xfffffff3 x29=0xfffff940
        3515000	       350	80001654	010b3db3	sltu	x27,x22,x16	 x22:0xfffffbf5 x16:0x00000001 x27=0x00000000
        3525000	       351	80001658	400adc13	srai	x24,x21,0x0	 x21:0x00000000 x24=0x00000000
        3535000	       352	8000165c	ffe48493	addi	x9,x9,-2	  x9:0xfffffffe  x9=0xfffffffc
        3545000	       353	80001660	9eb72d93	slti	x27,x14,-1557	 x14:0x00000013 x27=0x00000000
        3555000	       354	80001664	9a0a3793	sltiu	x15,x20,-1632	 x20:0x00000001 x15=0x00000001
        3565000	       355	80001668	00a03433	sltu	x8,x0,x10	  x0:0x00000000 x10:0x00000009  x8=0x00000001
        3575000	       356	8000166c	017d9593	slli	x11,x27,0x17	 x27:0x00000000 x11=0x00000000
        3585000	       357	80001670	01818a33	add	x20,x3,x24	  x3:0xe398a9e7 x24:0x00000000 x20=0xe398a9e7
        3595000	       358	80001674	0170bfb3	sltu	x31,x1,x23	  x1:0x0000064f x23:0x80009fc4 x31=0x00000001
        3605000	       359	80001678	018b5eb3	srl	x29,x22,x24	 x22:0xfffffbf5 x24:0x00000000 x29=0xfffffbf5
        3615000	       360	8000167c	a3800d13	addi	x26,x0,-1480	  x0:0x00000000 x26=0xfffffa38
        3625000	       361	80001680	00000013	addi	x0,x0,0	  x0:0x00000000
        3635000	       362	80001684	cf307693	andi	x13,x0,-781	  x0:0x00000000 x13=0x00000000
        3645000	       363	80001688	13e10013	addi	x0,x2,318	  x2:0xffffffe9
        3655000	       364	8000168c	00d6fcb3	and	x25,x13,x13	 x13:0x00000000 x13:0x00000000 x25=0x00000000
        3665000	       365	80001690	fc74d2e3	bge	x9,x7,80001654	  x9:0xfffffffc  x7:0xfffffff3
        3675000	       366	00000000	00000013	addi	x0,x0,0	  x0:0x00000000
        3685000	       367	80001650	00000013	addi	x0,x0,0	  x0:0x00000000
        3695000	       368	80001654	010b3db3	sltu	x27,x22,x16	 x22:0xfffffbf5 x16:0x00000001 x27=0x00000000
        3705000	       369	80001658	400adc13	srai	x24,x21,0x0	 x21:0x00000000 x24=0x00000000
        3715000	       370	8000165c	ffe48493	addi	x9,x9,-2	  x9:0xfffffffc  x9=0xfffffffa
        3725000	       371	80001660	9eb72d93	slti	x27,x14,-1557	 x14:0x00000013 x27=0x00000000
        3735000	       372	80001664	9a0a3793	sltiu	x15,x20,-1632	 x20:0xe398a9e7 x15=0x00000001
        3745000	       373	80001668	00a03433	sltu	x8,x0,x10	  x0:0x00000000 x10:0x00000009  x8=0x00000001
        3755000	       374	8000166c	017d9593	slli	x11,x27,0x17	 x27:0x00000000 x11=0x00000000
        3765000	       375	80001670	01818a33	add	x20,x3,x24	  x3:0xe398a9e7 x24:0x00000000 x20=0xe398a9e7
        3775000	       376	80001674	0170bfb3	sltu	x31,x1,x23	  x1:0x0000064f x23:0x80009fc4 x31=0x00000001
        3785000	       377	80001678	018b5eb3	srl	x29,x22,x24	 x22:0xfffffbf5 x24:0x00000000 x29=0xfffffbf5
        3795000	       378	8000167c	a3800d13	addi	x26,x0,-1480	  x0:0x00000000 x26=0xfffffa38
        3805000	       379	80001680	00000013	addi	x0,x0,0	  x0:0x00000000
        3815000	       380	80001684	cf307693	andi	x13,x0,-781	  x0:0x00000000 x13=0x00000000
        3825000	       381	80001688	13e10013	addi	x0,x2,318	  x2:0xffffffe9
        3835000	       382	8000168c	00d6fcb3	and	x25,x13,x13	 x13:0x00000000 x13:0x00000000 x25=0x00000000
        3845000	       383	80001690	fc74d2e3	bge	x9,x7,80001654	  x9:0xfffffffa  x7:0xfffffff3
        3855000	       384	00000000	00000013	addi	x0,x0,0	  x0:0x00000000
        3865000	       385	80001650	00000013	addi	x0,x0,0	  x0:0x00000000
        3875000	       386	80001654	010b3db3	sltu	x27,x22,x16	 x22:0xfffffbf5 x16:0x00000001 x27=0x00000000
        3885000	       387	80001658	400adc13	srai	x24,x21,0x0	 x21:0x00000000 x24=0x00000000
        3895000	       388	8000165c	ffe48493	addi	x9,x9,-2	  x9:0xfffffffa  x9=0xfffffff8
        3905000	       389	80001660	9eb72d93	slti	x27,x14,-1557	 x14:0x00000013 x27=0x00000000
        3915000	       390	80001664	9a0a3793	sltiu	x15,x20,-1632	 x20:0xe398a9e7 x15=0x00000001
        3925000	       391	80001668	00a03433	sltu	x8,x0,x10	  x0:0x00000000 x10:0x00000009  x8=0x00000001
        3935000	       392	8000166c	017d9593	slli	x11,x27,0x17	 x27:0x00000000 x11=0x00000000
        3945000	       393	80001670	01818a33	add	x20,x3,x24	  x3:0xe398a9e7 x24:0x00000000 x20=0xe398a9e7
        3955000	       394	80001674	0170bfb3	sltu	x31,x1,x23	  x1:0x0000064f x23:0x80009fc4 x31=0x00000001
        3965000	       395	80001678	018b5eb3	srl	x29,x22,x24	 x22:0xfffffbf5 x24:0x00000000 x29=0xfffffbf5
        3975000	       396	8000167c	a3800d13	addi	x26,x0,-1480	  x0:0x00000000 x26=0xfffffa38
        3985000	       397	80001680	00000013	addi	x0,x0,0	  x0:0x00000000
        3995000	       398	80001684	cf307693	andi	x13,x0,-781	  x0:0x00000000 x13=0x00000000
        4005000	       399	80001688	13e10013	addi	x0,x2,318	  x2:0xffffffe9
        4015000	       400	8000168c	00d6fcb3	and	x25,x13,x13	 x13:0x00000000 x13:0x00000000 x25=0x00000000
        4025000	       401	80001690	fc74d2e3	bge	x9,x7,80001654	  x9:0xfffffff8  x7:0xfffffff3
        4035000	       402	00000000	00000013	addi	x0,x0,0	  x0:0x00000000
        4045000	       403	80001650	00000013	addi	x0,x0,0	  x0:0x00000000
        4055000	       404	80001654	010b3db3	sltu	x27,x22,x16	 x22:0xfffffbf5 x16:0x00000001 x27=0x00000000
        4065000	       405	80001658	400adc13	srai	x24,x21,0x0	 x21:0x00000000 x24=0x00000000
        4075000	       406	8000165c	ffe48493	addi	x9,x9,-2	  x9:0xfffffff8  x9=0xfffffff6
        4085000	       407	80001660	9eb72d93	slti	x27,x14,-1557	 x14:0x00000013 x27=0x00000000
        4095000	       408	80001664	9a0a3793	sltiu	x15,x20,-1632	 x20:0xe398a9e7 x15=0x00000001
        4105000	       409	80001668	00a03433	sltu	x8,x0,x10	  x0:0x00000000 x10:0x00000009  x8=0x00000001
        4115000	       410	8000166c	017d9593	slli	x11,x27,0x17	 x27:0x00000000 x11=0x00000000
        4125000	       411	80001670	01818a33	add	x20,x3,x24	  x3:0xe398a9e7 x24:0x00000000 x20=0xe398a9e7
        4135000	       412	80001674	0170bfb3	sltu	x31,x1,x23	  x1:0x0000064f x23:0x80009fc4 x31=0x00000001
        4145000	       413	80001678	018b5eb3	srl	x29,x22,x24	 x22:0xfffffbf5 x24:0x00000000 x29=0xfffffbf5
        4155000	       414	8000167c	a3800d13	addi	x26,x0,-1480	  x0:0x00000000 x26=0xfffffa38
        4165000	       415	80001680	00000013	addi	x0,x0,0	  x0:0x00000000
        4175000	       416	80001684	cf307693	andi	x13,x0,-781	  x0:0x00000000 x13=0x00000000
        4185000	       417	80001688	13e10013	addi	x0,x2,318	  x2:0xffffffe9
        4195000	       418	8000168c	00d6fcb3	and	x25,x13,x13	 x13:0x00000000 x13:0x00000000 x25=0x00000000
        4205000	       419	80001690	fc74d2e3	bge	x9,x7,80001654	  x9:0xfffffff6  x7:0xfffffff3
        4215000	       420	00000000	00000013	addi	x0,x0,0	  x0:0x00000000
        4225000	       421	80001650	00000013	addi	x0,x0,0	  x0:0x00000000
        4235000	       422	80001654	010b3db3	sltu	x27,x22,x16	 x22:0xfffffbf5 x16:0x00000001 x27=0x00000000
        4245000	       423	80001658	400adc13	srai	x24,x21,0x0	 x21:0x00000000 x24=0x00000000
        4255000	       424	8000165c	ffe48493	addi	x9,x9,-2	  x9:0xfffffff6  x9=0xfffffff4
        4265000	       425	80001660	9eb72d93	slti	x27,x14,-1557	 x14:0x00000013 x27=0x00000000
        4275000	       426	80001664	9a0a3793	sltiu	x15,x20,-1632	 x20:0xe398a9e7 x15=0x00000001
        4285000	       427	80001668	00a03433	sltu	x8,x0,x10	  x0:0x00000000 x10:0x00000009  x8=0x00000001
        4295000	       428	8000166c	017d9593	slli	x11,x27,0x17	 x27:0x00000000 x11=0x00000000
        4305000	       429	80001670	01818a33	add	x20,x3,x24	  x3:0xe398a9e7 x24:0x00000000 x20=0xe398a9e7
        4315000	       430	80001674	0170bfb3	sltu	x31,x1,x23	  x1:0x0000064f x23:0x80009fc4 x31=0x00000001
        4325000	       431	80001678	018b5eb3	srl	x29,x22,x24	 x22:0xfffffbf5 x24:0x00000000 x29=0xfffffbf5
        4335000	       432	8000167c	a3800d13	addi	x26,x0,-1480	  x0:0x00000000 x26=0xfffffa38
        4345000	       433	80001680	00000013	addi	x0,x0,0	  x0:0x00000000
        4355000	       434	80001684	cf307693	andi	x13,x0,-781	  x0:0x00000000 x13=0x00000000
        4365000	       435	80001688	13e10013	addi	x0,x2,318	  x2:0xffffffe9
        4375000	       436	8000168c	00d6fcb3	and	x25,x13,x13	 x13:0x00000000 x13:0x00000000 x25=0x00000000
        4385000	       437	80001690	fc74d2e3	bge	x9,x7,80001654	  x9:0xfffffff4  x7:0xfffffff3
        4395000	       438	00000000	00000013	addi	x0,x0,0	  x0:0x00000000
        4405000	       439	80001650	00000013	addi	x0,x0,0	  x0:0x00000000
        4415000	       440	80001654	010b3db3	sltu	x27,x22,x16	 x22:0xfffffbf5 x16:0x00000001 x27=0x00000000
        4425000	       441	80001658	400adc13	srai	x24,x21,0x0	 x21:0x00000000 x24=0x00000000
        4435000	       442	8000165c	ffe48493	addi	x9,x9,-2	  x9:0xfffffff4  x9=0xfffffff2
        4445000	       443	80001660	9eb72d93	slti	x27,x14,-1557	 x14:0x00000013 x27=0x00000000
        4455000	       444	80001664	9a0a3793	sltiu	x15,x20,-1632	 x20:0xe398a9e7 x15=0x00000001
        4465000	       445	80001668	00a03433	sltu	x8,x0,x10	  x0:0x00000000 x10:0x00000009  x8=0x00000001
        4475000	       446	8000166c	017d9593	slli	x11,x27,0x17	 x27:0x00000000 x11=0x00000000
        4485000	       447	80001670	01818a33	add	x20,x3,x24	  x3:0xe398a9e7 x24:0x00000000 x20=0xe398a9e7
        4495000	       448	80001674	0170bfb3	sltu	x31,x1,x23	  x1:0x0000064f x23:0x80009fc4 x31=0x00000001
        4505000	       449	80001678	018b5eb3	srl	x29,x22,x24	 x22:0xfffffbf5 x24:0x00000000 x29=0xfffffbf5
        4515000	       450	8000167c	a3800d13	addi	x26,x0,-1480	  x0:0x00000000 x26=0xfffffa38
        4525000	       451	80001680	00000013	addi	x0,x0,0	  x0:0x00000000
        4535000	       452	80001684	cf307693	andi	x13,x0,-781	  x0:0x00000000 x13=0x00000000
        4545000	       453	80001688	13e10013	addi	x0,x2,318	  x2:0xffffffe9
        4555000	       454	8000168c	00d6fcb3	and	x25,x13,x13	 x13:0x00000000 x13:0x00000000 x25=0x00000000
        4565000	       455	80001690	fc74d2e3	bge	x9,x7,80001654	  x9:0xfffffff2  x7:0xfffffff3
        4575000	       456	80001694	0174eb33	or	x22,x9,x23	  x9:0xfffffff2 x23:0x80009fc4 x22=0xfffffff6
        4585000	       457	80001698	ffe00e93	addi	x29,x0,-2	  x0:0x00000000 x29=0xfffffffe
        4595000	       458	8000169c	0161d033	srl	x0,x3,x22	  x3:0xe398a9e7 x22:0xfffffff6
        4605000	       459	800016a0	debfaa93	slti	x21,x31,-533	 x31:0x00000001 x21=0x00000000
        4615000	       460	800016a4	00862233	slt	x4,x12,x8	 x12:0x800760e3  x8:0x00000001  x4=0x00000001
        4625000	       461	800016a8	404b5a13	srai	x20,x22,0x4	 x22:0xfffffff6 x20=0xffffffff
        4635000	       462	800016ac	00000013	addi	x0,x0,0	  x0:0x00000000
        4645000	       463	800016b0	ff000293	addi	x5,x0,-16	  x0:0x00000000  x5=0xfffffff0
        4655000	       464	800016b4	47bb8493	addi	x9,x23,1147	 x23:0x80009fc4  x9=0x8000a43f
        4665000	       465	800016b8	41bdd593	srai	x11,x27,0x1b	 x27:0x00000000 x11=0x00000000
        4675000	       466	800016bc	01299a93	slli	x21,x19,0x12	 x19:0x12d55000 x21=0x40000000
        4685000	       467	800016c0	001e4d33	xor	x26,x28,x1	 x28:0x80000000  x1:0x0000064f x26=0x8000064f
        4695000	       468	800016c4	00548db3	add	x27,x9,x5	  x9:0x8000a43f  x5:0xfffffff0 x27=0x8000a42f
        4705000	       469	800016c8	00d35213	srli	x4,x6,0xd	  x6:0xffffffef  x4=0x0007ffff
        4715000	       470	800016cc	40d65113	srai	x2,x12,0xd	 x12:0x800760e3  x2=0xfffc003b
        4725000	       471	800016d0	2e16bc17	auipc	x24,0x2e16b	 x24=0xae16c6cc
        4735000	       472	800016d4	003f3fb3	sltu	x31,x30,x3	 x30:0x80009f1c  x3:0xe398a9e7 x31=0x00000001
        4745000	       473	800016d8	2f858793	addi	x15,x11,760	 x11:0x00000000 x15=0x000002f8
        4755000	       474	800016dc	202fa393	slti	x7,x31,514	 x31:0x00000001  x7=0x00000001
        4765000	       475	800016e0	419fd5b3	sra	x11,x31,x25	 x31:0x00000001 x25:0x00000000 x11=0x00000001
        4775000	       476	800016e4	24ab0313	addi	x6,x22,586	 x22:0xfffffff6  x6=0x00000240
        4785000	       477	800016e8	890a6713	ori	x14,x20,-1904	 x20:0xffffffff x14=0xffffffff
        4795000	       478	800016ec	01259193	slli	x3,x11,0x12	 x11:0x00000001  x3=0x00040000
        4805000	       479	800016f0	ff9e8e93	addi	x29,x29,-7	 x29:0xfffffffe x29=0xfffffff7
        4815000	       480	800016f4	0141de13	srli	x28,x3,0x14	  x3:0x00040000 x28=0x00000000
        4825000	       481	800016f8	2ab94413	xori	x8,x18,683	 x18:0x00000000  x8=0x000002ab
        4835000	       482	800016fc	fe5e80e3	beq	x29,x5,800016dc	 x29:0xfffffff7  x5:0xfffffff0
        4845000	       483	80001700	41eb0a33	sub	x20,x22,x30	 x22:0xfffffff6 x30:0x80009f1c x20=0x7fff60da
        4855000	       484	80001704	00600b13	addi	x22,x0,6	  x0:0x00000000 x22=0x00000006
        4865000	       485	80001708	415a8cb3	sub	x25,x21,x21	 x21:0x40000000 x21:0x40000000 x25=0x00000000
        4875000	       486	8000170c	010d2033	slt	x0,x26,x16	 x26:0x8000064f x16:0x00000001
        4885000	       487	80001710	00600213	addi	x4,x0,6	  x0:0x00000000  x4=0x00000006
        4895000	       488	80001714	000a5333	srl	x6,x20,x0	 x20:0x7fff60da  x0:0x00000000  x6=0x7fff60da
        4905000	       489	80001718	f6fa8793	addi	x15,x21,-145	 x21:0x40000000 x15=0x3fffff6f
        4915000	       490	8000171c	00000013	addi	x0,x0,0	  x0:0x00000000
        4925000	       491	80001720	2dc7da97	auipc	x21,0x2dc7d	 x21=0xadc7e71c
        4935000	       492	80001724	414c5293	srai	x5,x24,0x14	 x24:0xae16c6cc  x5=0xfffffae1
        4945000	       493	80001728	9dfa3c93	sltiu	x25,x20,-1569	 x20:0x7fff60da x25=0x00000001
        4955000	       494	8000172c	ffeb0b13	addi	x22,x22,-2	 x22:0x00000006 x22=0x00000004
        4965000	       495	80001730	00298933	add	x18,x19,x2	 x19:0x12d55000  x2:0xfffc003b x18=0x12d1503b
        4975000	       496	80001734	6e5d0593	addi	x11,x26,1765	 x26:0x8000064f x11=0x80000d34
        4985000	       497	80001738	00000013	addi	x0,x0,0	  x0:0x00000000
        4995000	       498	8000173c	fe4b70e3	bgeu	x22,x4,8000171c	 x22:0x00000004  x4:0x00000006
        5005000	       499	80001740	f4743593	sltiu	x11,x8,-185	  x8:0x000002ab x11=0x00000001
        5015000	       500	80001744	ffb00b13	addi	x22,x0,-5	  x0:0x00000000 x22=0xfffffffb
        5025000	       501	80001748	ff300c93	addi	x25,x0,-13	  x0:0x00000000 x25=0xfffffff3
        5035000	       502	8000174c	00d28c33	add	x24,x5,x13	  x5:0xfffffae1 x13:0x00000000 x24=0xfffffae1
        5045000	       503	80001750	6c1ea713	slti	x14,x29,1729	 x29:0xfffffff7 x14=0x00000001
        5055000	       504	80001754	01b98133	add	x2,x19,x27	 x19:0x12d55000 x27:0x8000a42f  x2=0x92d5f42f
        5065000	       505	80001758	4e978593	addi	x11,x15,1257	 x15:0x3fffff6f x11=0x40000458
        5075000	       506	8000175c	00000013	addi	x0,x0,0	  x0:0x00000000
        5085000	       507	80001760	64118c13	addi	x24,x3,1601	  x3:0x00040000 x24=0x00040641
        5095000	       508	80001764	01edc733	xor	x14,x27,x30	 x27:0x8000a42f x30:0x80009f1c x14=0x00003b33
        5105000	       509	80001768	ff8b0b13	addi	x22,x22,-8	 x22:0xfffffffb x22=0xfffffff3
        5115000	       510	8000176c	6fc9cc13	xori	x24,x19,1788	 x19:0x12d55000 x24=0x12d556fc
        5125000	       511	80001770	005df1b3	and	x3,x27,x5	 x27:0x8000a42f  x5:0xfffffae1  x3=0x8000a021
        5135000	       512	80001774	00304eb3	xor	x29,x0,x3	  x0:0x00000000  x3:0x8000a021 x29=0x8000a021
        5145000	       513	80001778	00000293	addi	x5,x0,0	  x0:0x00000000  x5=0x00000000
        5155000	       514	8000177c	00e0a333	slt	x6,x1,x14	  x1:0x0000064f x14:0x00003b33  x6=0x00000001
        5165000	       515	80001780	00134633	xor	x12,x6,x1	  x6:0x00000001  x1:0x0000064f x12=0x0000064e
        5175000	       516	80001784	00f6dd33	srl	x26,x13,x15	 x13:0x00000000 x15:0x3fffff6f x26=0x00000000
        5185000	       517	80001788	01000693	addi	x13,x0,16	  x0:0x00000000 x13=0x00000010
        5195000	       518	8000178c	001d1d93	slli	x27,x26,0x1	 x26:0x00000000 x27=0x00000000
        5205000	       519	80001790	848ec997	auipc	x19,0x848ec	 x19=0x048ed78c
        5215000	       520	80001794	7a906097	auipc	x1,0x7a906	  x1=0xfa907790
        5225000	       521	80001798	01195213	srli	x4,x18,0x11	 x18:0x12d1503b  x4=0x00000968
        5235000	       522	8000179c	00ea4eb3	xor	x29,x20,x14	 x20:0x7fff60da x14:0x00003b33 x29=0x7fff5be9
        5245000	       523	800017a0	7b6753b7	lui	x7,0x7b675	  x7=0x7b675000
        5255000	       524	800017a4	3bc13d13	sltiu	x26,x2,956	  x2:0x92d5f42f x26=0x00000000
        5265000	       525	800017a8	00944d33	xor	x26,x8,x9	  x8:0x000002ab  x9:0x8000a43f x26=0x8000a694
        5275000	       526	800017ac	41a00633	sub	x12,x0,x26	  x0:0x00000000 x26:0x8000a694 x12=0x7fff596c
        5285000	       527	800017b0	00428293	addi	x5,x5,4	  x5:0x00000000  x5=0x00000004
        5295000	       528	800017b4	fed2c8e3	blt	x5,x13,800017a4	  x5:0x00000004 x13:0x00000010
        5305000	       529	00000000	00000013	addi	x0,x0,0	  x0:0x00000000
        5315000	       530	800017a0	00000013	addi	x0,x0,0	  x0:0x00000000
        5325000	       531	800017a4	3bc13d13	sltiu	x26,x2,956	  x2:0x92d5f42f x26=0x00000000
        5335000	       532	800017a8	00944d33	xor	x26,x8,x9	  x8:0x000002ab  x9:0x8000a43f x26=0x8000a694
        5345000	       533	800017ac	41a00633	sub	x12,x0,x26	  x0:0x00000000 x26:0x8000a694 x12=0x7fff596c
        5355000	       534	800017b0	00428293	addi	x5,x5,4	  x5:0x00000004  x5=0x00000008
        5365000	       535	800017b4	fed2c8e3	blt	x5,x13,800017a4	  x5:0x00000008 x13:0x00000010
        5375000	       536	00000000	00000013	addi	x0,x0,0	  x0:0x00000000
        5385000	       537	800017a0	00000013	addi	x0,x0,0	  x0:0x00000000
        5395000	       538	800017a4	3bc13d13	sltiu	x26,x2,956	  x2:0x92d5f42f x26=0x00000000
        5405000	       539	800017a8	00944d33	xor	x26,x8,x9	  x8:0x000002ab  x9:0x8000a43f x26=0x8000a694
        5415000	       540	800017ac	41a00633	sub	x12,x0,x26	  x0:0x00000000 x26:0x8000a694 x12=0x7fff596c
        5425000	       541	800017b0	00428293	addi	x5,x5,4	  x5:0x00000008  x5=0x0000000c
        5435000	       542	800017b4	fed2c8e3	blt	x5,x13,800017a4	  x5:0x0000000c x13:0x00000010
        5445000	       543	00000000	00000013	addi	x0,x0,0	  x0:0x00000000
        5455000	       544	800017a0	00000013	addi	x0,x0,0	  x0:0x00000000
        5465000	       545	800017a4	3bc13d13	sltiu	x26,x2,956	  x2:0x92d5f42f x26=0x00000000
        5475000	       546	800017a8	00944d33	xor	x26,x8,x9	  x8:0x000002ab  x9:0x8000a43f x26=0x8000a694
        5485000	       547	800017ac	41a00633	sub	x12,x0,x26	  x0:0x00000000 x26:0x8000a694 x12=0x7fff596c
        5495000	       548	800017b0	00428293	addi	x5,x5,4	  x5:0x0000000c  x5=0x00000010
        5505000	       549	800017b4	fed2c8e3	blt	x5,x13,800017a4	  x5:0x00000010 x13:0x00000010
        5515000	       550	800017b8	00585993	srli	x19,x16,0x5	 x16:0x00000001 x19=0x00000000
        5525000	       551	800017bc	007d0d17	auipc	x26,0x7d0	 x26=0x807d17b8
        5535000	       552	800017c0	f99b0ee3	beq	x22,x25,8000175c	 x22:0xfffffff3 x25:0xfffffff3
        5545000	       553	00000000	00000013	addi	x0,x0,0	  x0:0x00000000
        5555000	       554	80001758	00000013	addi	x0,x0,0	  x0:0x00000000
        5565000	       555	8000175c	00000013	addi	x0,x0,0	  x0:0x00000000
        5575000	       556	80001760	64118c13	addi	x24,x3,1601	  x3:0x8000a021 x24=0x8000a662
        5585000	       557	80001764	01edc733	xor	x14,x27,x30	 x27:0x00000000 x30:0x80009f1c x14=0x80009f1c
        5595000	       558	80001768	ff8b0b13	addi	x22,x22,-8	 x22:0xfffffff3 x22=0xffffffeb
        5605000	       559	8000176c	6fc9cc13	xori	x24,x19,1788	 x19:0x00000000 x24=0x000006fc
        5615000	       560	80001770	005df1b3	and	x3,x27,x5	 x27:0x00000000  x5:0x00000010  x3=0x00000000
        5625000	       561	80001774	00304eb3	xor	x29,x0,x3	  x0:0x00000000  x3:0x00000000 x29=0x00000000
        5635000	       562	80001778	00000293	addi	x5,x0,0	  x0:0x00000000  x5=0x00000000
        5645000	       563	8000177c	00e0a333	slt	x6,x1,x14	  x1:0xfa907790 x14:0x80009f1c  x6=0x00000000
        5655000	       564	80001780	00134633	xor	x12,x6,x1	  x6:0x00000000  x1:0xfa907790 x12=0xfa907790
        5665000	       565	80001784	00f6dd33	srl	x26,x13,x15	 x13:0x00000010 x15:0x3fffff6f x26=0x00000000
        5675000	       566	80001788	01000693	addi	x13,x0,16	  x0:0x00000000 x13=0x00000010
        5685000	       567	8000178c	001d1d93	slli	x27,x26,0x1	 x26:0x00000000 x27=0x00000000
        5695000	       568	80001790	848ec997	auipc	x19,0x848ec	 x19=0x048ed78c
        5705000	       569	80001794	7a906097	auipc	x1,0x7a906	  x1=0xfa907790
        5715000	       570	80001798	01195213	srli	x4,x18,0x11	 x18:0x12d1503b  x4=0x00000968
        5725000	       571	8000179c	00ea4eb3	xor	x29,x20,x14	 x20:0x7fff60da x14:0x80009f1c x29=0xffffffc6
        5735000	       572	800017a0	7b6753b7	lui	x7,0x7b675	  x7=0x7b675000
        5745000	       573	800017a4	3bc13d13	sltiu	x26,x2,956	  x2:0x92d5f42f x26=0x00000000
        5755000	       574	800017a8	00944d33	xor	x26,x8,x9	  x8:0x000002ab  x9:0x8000a43f x26=0x8000a694
        5765000	       575	800017ac	41a00633	sub	x12,x0,x26	  x0:0x00000000 x26:0x8000a694 x12=0x7fff596c
        5775000	       576	800017b0	00428293	addi	x5,x5,4	  x5:0x00000000  x5=0x00000004
        5785000	       577	800017b4	fed2c8e3	blt	x5,x13,800017a4	  x5:0x00000004 x13:0x00000010
        5795000	       578	00000000	00000013	addi	x0,x0,0	  x0:0x00000000
        5805000	       579	800017a0	00000013	addi	x0,x0,0	  x0:0x00000000
        5815000	       580	800017a4	3bc13d13	sltiu	x26,x2,956	  x2:0x92d5f42f x26=0x00000000
        5825000	       581	800017a8	00944d33	xor	x26,x8,x9	  x8:0x000002ab  x9:0x8000a43f x26=0x8000a694
        5835000	       582	800017ac	41a00633	sub	x12,x0,x26	  x0:0x00000000 x26:0x8000a694 x12=0x7fff596c
        5845000	       583	800017b0	00428293	addi	x5,x5,4	  x5:0x00000004  x5=0x00000008
        5855000	       584	800017b4	fed2c8e3	blt	x5,x13,800017a4	  x5:0x00000008 x13:0x00000010
        5865000	       585	00000000	00000013	addi	x0,x0,0	  x0:0x00000000
        5875000	       586	800017a0	00000013	addi	x0,x0,0	  x0:0x00000000
        5885000	       587	800017a4	3bc13d13	sltiu	x26,x2,956	  x2:0x92d5f42f x26=0x00000000
        5895000	       588	800017a8	00944d33	xor	x26,x8,x9	  x8:0x000002ab  x9:0x8000a43f x26=0x8000a694
        5905000	       589	800017ac	41a00633	sub	x12,x0,x26	  x0:0x00000000 x26:0x8000a694 x12=0x7fff596c
        5915000	       590	800017b0	00428293	addi	x5,x5,4	  x5:0x00000008  x5=0x0000000c
        5925000	       591	800017b4	fed2c8e3	blt	x5,x13,800017a4	  x5:0x0000000c x13:0x00000010
        5935000	       592	00000000	00000013	addi	x0,x0,0	  x0:0x00000000
        5945000	       593	800017a0	00000013	addi	x0,x0,0	  x0:0x00000000
        5955000	       594	800017a4	3bc13d13	sltiu	x26,x2,956	  x2:0x92d5f42f x26=0x00000000
        5965000	       595	800017a8	00944d33	xor	x26,x8,x9	  x8:0x000002ab  x9:0x8000a43f x26=0x8000a694
        5975000	       596	800017ac	41a00633	sub	x12,x0,x26	  x0:0x00000000 x26:0x8000a694 x12=0x7fff596c
        5985000	       597	800017b0	00428293	addi	x5,x5,4	  x5:0x0000000c  x5=0x00000010
        5995000	       598	800017b4	fed2c8e3	blt	x5,x13,800017a4	  x5:0x00000010 x13:0x00000010
        6005000	       599	800017b8	00585993	srli	x19,x16,0x5	 x16:0x00000001 x19=0x00000000
        6015000	       600	800017bc	007d0d17	auipc	x26,0x7d0	 x26=0x807d17b8
        6025000	       601	800017c0	f99b0ee3	beq	x22,x25,8000175c	 x22:0xffffffeb x25:0xfffffff3
        6035000	       602	800017c4	011bd533	srl	x10,x23,x17	 x23:0x80009fc4 x17:0xf0ed7661 x10=0x40004fe2
        6045000	       603	800017c8	00700813	addi	x16,x0,7	  x0:0x00000000 x16=0x00000007
        6055000	       604	800017cc	01054eb3	xor	x29,x10,x16	 x10:0x40004fe2 x16:0x00000007 x29=0x40004fe5
        6065000	       605	800017d0	0191aab3	slt	x21,x3,x25	  x3:0x00000000 x25:0xfffffff3 x21=0x00000000
        6075000	       606	800017d4	41d15a33	sra	x20,x2,x29	  x2:0x92d5f42f x29:0x40004fe5 x20=0xfc96afa1
        6085000	       607	800017d8	50117ab7	lui	x21,0x50117	 x21=0x50117000
        6095000	       608	800017dc	01b5e3b3	or	x7,x11,x27	 x11:0x40000458 x27:0x00000000  x7=0x40000458
        6105000	       609	800017e0	5c160d13	addi	x26,x12,1473	 x12:0x7fff596c x26=0x7fff5f2d
        6115000	       610	800017e4	00700793	addi	x15,x0,7	  x0:0x00000000 x15=0x00000007
        6125000	       611	800017e8	004a5993	srli	x19,x20,0x4	 x20:0xfc96afa1 x19=0x0fc96afa
        6135000	       612	800017ec	00a821b3	slt	x3,x16,x10	 x16:0x00000007 x10:0x40004fe2  x3=0x00000001
        6145000	       613	800017f0	41400333	sub	x6,x0,x20	  x0:0x00000000 x20:0xfc96afa1  x6=0x0369505f
        6155000	       614	800017f4	00000013	addi	x0,x0,0	  x0:0x00000000
        6165000	       615	800017f8	0187c633	xor	x12,x15,x24	 x15:0x00000007 x24:0x000006fc x12=0x000006fb
        6175000	       616	800017fc	40400433	sub	x8,x0,x4	  x0:0x00000000  x4:0x00000968  x8=0xfffff698
        6185000	       617	80001800	41245433	sra	x8,x8,x18	  x8:0xfffff698 x18:0x12d1503b  x8=0xffffffff
        6195000	       618	80001804	00000013	addi	x0,x0,0	  x0:0x00000000
        6205000	       619	80001808	00305b33	srl	x22,x0,x3	  x0:0x00000000  x3:0x00000001 x22=0x00000000
        6215000	       620	8000180c	00001193	slli	x3,x0,0x0	  x0:0x00000000  x3=0x00000000
        6225000	       621	80001810	0033d3b3	srl	x7,x7,x3	  x7:0x40000458  x3:0x00000000  x7=0x40000458
        6235000	       622	80001814	4caf8593	addi	x11,x31,1226	 x31:0x00000001 x11=0x000004cb
        6245000	       623	80001818	01b81493	slli	x9,x16,0x1b	 x16:0x00000007  x9=0x38000000
        6255000	       624	8000181c	ffa80813	addi	x16,x16,-6	 x16:0x00000007 x16=0x00000001
        6265000	       625	80001820	01de8633	add	x12,x29,x29	 x29:0x40004fe5 x29:0x40004fe5 x12=0x80009fca
        6275000	       626	80001824	01ece033	or	x0,x25,x30	 x25:0xfffffff3 x30:0x80009f1c
        6285000	       627	80001828	407bdb33	sra	x22,x23,x7	 x23:0x80009fc4  x7:0x40000458 x22=0xffffff80
        6295000	       628	8000182c	81042493	slti	x9,x8,-2032	  x8:0xffffffff  x9=0x00000000
        6305000	       629	80001830	fcf876e3	bgeu	x16,x15,800017fc	 x16:0x00000001 x15:0x00000007
        6315000	       630	80001834	00000013	addi	x0,x0,0	  x0:0x00000000
        6325000	       631	80001838	fff00c93	addi	x25,x0,-1	  x0:0x00000000 x25=0xffffffff
        6335000	       632	8000183c	00126ab3	or	x21,x4,x1	  x4:0x00000968  x1:0xfa907790 x21=0xfa907ff8
        6345000	       633	80001840	7dca6d13	ori	x26,x20,2012	 x20:0xfc96afa1 x26=0xfc96affd
        6355000	       634	80001844	00e00613	addi	x12,x0,14	  x0:0x00000000 x12=0x0000000e
        6365000	       635	80001848	010ac333	xor	x6,x21,x16	 x21:0xfa907ff8 x16:0x00000001  x6=0xfa907ff9
        6375000	       636	8000184c	00531793	slli	x15,x6,0x5	  x6:0xfa907ff9 x15=0x520fff20
        6385000	       637	80001850	010c3db3	sltu	x27,x24,x16	 x24:0x000006fc x16:0x00000001 x27=0x00000000
        6395000	       638	80001854	00265eb3	srl	x29,x12,x2	 x12:0x0000000e  x2:0x92d5f42f x29=0x00000000
        6405000	       639	80001858	001c8c93	addi	x25,x25,1	 x25:0xffffffff x25=0x00000000
        6415000	       640	8000185c	41905fb3	sra	x31,x0,x25	  x0:0x00000000 x25:0x00000000 x31=0x00000000
        6425000	       641	80001860	405e8933	sub	x18,x29,x5	 x29:0x00000000  x5:0x00000010 x18=0xfffffff0
        6435000	       642	80001864	00500213	addi	x4,x0,5	  x0:0x00000000  x4=0x00000005
        6445000	       643	80001868	01300513	addi	x10,x0,19	  x0:0x00000000 x10=0x00000013
        6455000	       644	8000186c	918d8c13	addi	x24,x27,-1768	 x27:0x00000000 x24=0xfffff918
        6465000	       645	80001870	99d20d13	addi	x26,x4,-1635	  x4:0x00000005 x26=0xfffff9a2
        6475000	       646	80001874	01c4a933	slt	x18,x9,x28	  x9:0x00000000 x28:0x00000000 x18=0x00000000
        6485000	       647	80001878	4044d093	srai	x1,x9,0x4	  x9:0x00000000  x1=0x00000000
        6495000	       648	8000187c	c776bb13	sltiu	x22,x13,-905	 x13:0x00000010 x22=0x00000001
        6505000	       649	80001880	01f095b3	sll	x11,x1,x31	  x1:0x00000000 x31:0x00000000 x11=0x00000000
        6515000	       650	80001884	0055b333	sltu	x6,x11,x5	 x11:0x00000000  x5:0x00000010  x6=0x00000001
        6525000	       651	80001888	01ff2fb3	slt	x31,x30,x31	 x30:0x80009f1c x31:0x00000000 x31=0x00000001
        6535000	       652	8000188c	008c1993	slli	x19,x24,0x8	 x24:0xfffff918 x19=0xfff91800
        6545000	       653	80001890	01639ab3	sll	x21,x7,x22	  x7:0x40000458 x22:0x00000001 x21=0x800008b0
        6555000	       654	80001894	00920213	addi	x4,x4,9	  x4:0x00000005  x4=0x0000000e
        6565000	       655	80001898	544b1797	auipc	x15,0x544b1	 x15=0xd44b2894
        6575000	       656	8000189c	fea244e3	blt	x4,x10,80001884	  x4:0x0000000e x10:0x00000013
        6585000	       657	00000000	00000013	addi	x0,x0,0	  x0:0x00000000
        6595000	       658	80001880	00000013	addi	x0,x0,0	  x0:0x00000000
        6605000	       659	80001884	0055b333	sltu	x6,x11,x5	 x11:0x00000000  x5:0x00000010  x6=0x00000001
        6615000	       660	80001888	01ff2fb3	slt	x31,x30,x31	 x30:0x80009f1c x31:0x00000001 x31=0x00000001
        6625000	       661	8000188c	008c1993	slli	x19,x24,0x8	 x24:0xfffff918 x19=0xfff91800
        6635000	       662	80001890	01639ab3	sll	x21,x7,x22	  x7:0x40000458 x22:0x00000001 x21=0x800008b0
        6645000	       663	80001894	00920213	addi	x4,x4,9	  x4:0x0000000e  x4=0x00000017
        6655000	       664	80001898	544b1797	auipc	x15,0x544b1	 x15=0xd44b2894
        6665000	       665	8000189c	fea244e3	blt	x4,x10,80001884	  x4:0x00000017 x10:0x00000013
        6675000	       666	800018a0	01b91ab3	sll	x21,x18,x27	 x18:0x00000000 x27:0x00000000 x21=0x00000000
        6685000	       667	800018a4	9edea3b7	lui	x7,0x9edea	  x7=0x9edea000
        6695000	       668	800018a8	00c4b333	sltu	x6,x9,x12	  x9:0x00000000 x12:0x0000000e  x6=0x00000001
        6705000	       669	800018ac	facce2e3	bltu	x25,x12,80001850	 x25:0x00000000 x12:0x0000000e
        6715000	       670	00000000	00000013	addi	x0,x0,0	  x0:0x00000000
        6725000	       671	8000184c	00000013	addi	x0,x0,0	  x0:0x00000000
        6735000	       672	80001850	010c3db3	sltu	x27,x24,x16	 x24:0xfffff918 x16:0x00000001 x27=0x00000000
        6745000	       673	80001854	00265eb3	srl	x29,x12,x2	 x12:0x0000000e  x2:0x92d5f42f x29=0x00000000
        6755000	       674	80001858	001c8c93	addi	x25,x25,1	 x25:0x00000000 x25=0x00000001
        6765000	       675	8000185c	41905fb3	sra	x31,x0,x25	  x0:0x00000000 x25:0x00000001 x31=0x00000000
        6775000	       676	80001860	405e8933	sub	x18,x29,x5	 x29:0x00000000  x5:0x00000010 x18=0xfffffff0
        6785000	       677	80001864	00500213	addi	x4,x0,5	  x0:0x00000000  x4=0x00000005
        6795000	       678	80001868	01300513	addi	x10,x0,19	  x0:0x00000000 x10=0x00000013
        6805000	       679	8000186c	918d8c13	addi	x24,x27,-1768	 x27:0x00000000 x24=0xfffff918
        6815000	       680	80001870	99d20d13	addi	x26,x4,-1635	  x4:0x00000005 x26=0xfffff9a2
        6825000	       681	80001874	01c4a933	slt	x18,x9,x28	  x9:0x00000000 x28:0x00000000 x18=0x00000000
        6835000	       682	80001878	4044d093	srai	x1,x9,0x4	  x9:0x00000000  x1=0x00000000
        6845000	       683	8000187c	c776bb13	sltiu	x22,x13,-905	 x13:0x00000010 x22=0x00000001
        6855000	       684	80001880	01f095b3	sll	x11,x1,x31	  x1:0x00000000 x31:0x00000000 x11=0x00000000
        6865000	       685	80001884	0055b333	sltu	x6,x11,x5	 x11:0x00000000  x5:0x00000010  x6=0x00000001
        6875000	       686	80001888	01ff2fb3	slt	x31,x30,x31	 x30:0x80009f1c x31:0x00000000 x31=0x00000001
        6885000	       687	8000188c	008c1993	slli	x19,x24,0x8	 x24:0xfffff918 x19=0xfff91800
        6895000	       688	80001890	01639ab3	sll	x21,x7,x22	  x7:0x9edea000 x22:0x00000001 x21=0x3dbd4000
        6905000	       689	80001894	00920213	addi	x4,x4,9	  x4:0x00000005  x4=0x0000000e
        6915000	       690	80001898	544b1797	auipc	x15,0x544b1	 x15=0xd44b2894
        6925000	       691	8000189c	fea244e3	blt	x4,x10,80001884	  x4:0x0000000e x10:0x00000013
        6935000	       692	00000000	00000013	addi	x0,x0,0	  x0:0x00000000
        6945000	       693	80001880	00000013	addi	x0,x0,0	  x0:0x00000000
        6955000	       694	80001884	0055b333	sltu	x6,x11,x5	 x11:0x00000000  x5:0x00000010  x6=0x00000001
        6965000	       695	80001888	01ff2fb3	slt	x31,x30,x31	 x30:0x80009f1c x31:0x00000001 x31=0x00000001
        6975000	       696	8000188c	008c1993	slli	x19,x24,0x8	 x24:0xfffff918 x19=0xfff91800
        6985000	       697	80001890	01639ab3	sll	x21,x7,x22	  x7:0x9edea000 x22:0x00000001 x21=0x3dbd4000
        6995000	       698	80001894	00920213	addi	x4,x4,9	  x4:0x0000000e  x4=0x00000017
        7005000	       699	80001898	544b1797	auipc	x15,0x544b1	 x15=0xd44b2894
        7015000	       700	8000189c	fea244e3	blt	x4,x10,80001884	  x4:0x00000017 x10:0x00000013
        7025000	       701	800018a0	01b91ab3	sll	x21,x18,x27	 x18:0x00000000 x27:0x00000000 x21=0x00000000
        7035000	       702	800018a4	9edea3b7	lui	x7,0x9edea	  x7=0x9edea000
        7045000	       703	800018a8	00c4b333	sltu	x6,x9,x12	  x9:0x00000000 x12:0x0000000e  x6=0x00000001
        7055000	       704	800018ac	facce2e3	bltu	x25,x12,80001850	 x25:0x00000001 x12:0x0000000e
        7065000	       705	00000000	00000013	addi	x0,x0,0	  x0:0x00000000
        7075000	       706	8000184c	00000013	addi	x0,x0,0	  x0:0x00000000
        7085000	       707	80001850	010c3db3	sltu	x27,x24,x16	 x24:0xfffff918 x16:0x00000001 x27=0x00000000
        7095000	       708	80001854	00265eb3	srl	x29,x12,x2	 x12:0x0000000e  x2:0x92d5f42f x29=0x00000000
        7105000	       709	80001858	001c8c93	addi	x25,x25,1	 x25:0x00000001 x25=0x00000002
        7115000	       710	8000185c	41905fb3	sra	x31,x0,x25	  x0:0x00000000 x25:0x00000002 x31=0x00000000
        7125000	       711	80001860	405e8933	sub	x18,x29,x5	 x29:0x00000000  x5:0x00000010 x18=0xfffffff0
        7135000	       712	80001864	00500213	addi	x4,x0,5	  x0:0x00000000  x4=0x00000005
        7145000	       713	80001868	01300513	addi	x10,x0,19	  x0:0x00000000 x10=0x00000013
        7155000	       714	8000186c	918d8c13	addi	x24,x27,-1768	 x27:0x00000000 x24=0xfffff918
        7165000	       715	80001870	99d20d13	addi	x26,x4,-1635	  x4:0x00000005 x26=0xfffff9a2
        7175000	       716	80001874	01c4a933	slt	x18,x9,x28	  x9:0x00000000 x28:0x00000000 x18=0x00000000
        7185000	       717	80001878	4044d093	srai	x1,x9,0x4	  x9:0x00000000  x1=0x00000000
        7195000	       718	8000187c	c776bb13	sltiu	x22,x13,-905	 x13:0x00000010 x22=0x00000001
        7205000	       719	80001880	01f095b3	sll	x11,x1,x31	  x1:0x00000000 x31:0x00000000 x11=0x00000000
        7215000	       720	80001884	0055b333	sltu	x6,x11,x5	 x11:0x00000000  x5:0x00000010  x6=0x00000001
        7225000	       721	80001888	01ff2fb3	slt	x31,x30,x31	 x30:0x80009f1c x31:0x00000000 x31=0x00000001
        7235000	       722	8000188c	008c1993	slli	x19,x24,0x8	 x24:0xfffff918 x19=0xfff91800
        7245000	       723	80001890	01639ab3	sll	x21,x7,x22	  x7:0x9edea000 x22:0x00000001 x21=0x3dbd4000
        7255000	       724	80001894	00920213	addi	x4,x4,9	  x4:0x00000005  x4=0x0000000e
        7265000	       725	80001898	544b1797	auipc	x15,0x544b1	 x15=0xd44b2894
        7275000	       726	8000189c	fea244e3	blt	x4,x10,80001884	  x4:0x0000000e x10:0x00000013
        7285000	       727	00000000	00000013	addi	x0,x0,0	  x0:0x00000000
        7295000	       728	80001880	00000013	addi	x0,x0,0	  x0:0x00000000
        7305000	       729	80001884	0055b333	sltu	x6,x11,x5	 x11:0x00000000  x5:0x00000010  x6=0x00000001
        7315000	       730	80001888	01ff2fb3	slt	x31,x30,x31	 x30:0x80009f1c x31:0x00000001 x31=0x00000001
        7325000	       731	8000188c	008c1993	slli	x19,x24,0x8	 x24:0xfffff918 x19=0xfff91800
        7335000	       732	80001890	01639ab3	sll	x21,x7,x22	  x7:0x9edea000 x22:0x00000001 x21=0x3dbd4000
        7345000	       733	80001894	00920213	addi	x4,x4,9	  x4:0x0000000e  x4=0x00000017
        7355000	       734	80001898	544b1797	auipc	x15,0x544b1	 x15=0xd44b2894
        7365000	       735	8000189c	fea244e3	blt	x4,x10,80001884	  x4:0x00000017 x10:0x00000013
        7375000	       736	800018a0	01b91ab3	sll	x21,x18,x27	 x18:0x00000000 x27:0x00000000 x21=0x00000000
        7385000	       737	800018a4	9edea3b7	lui	x7,0x9edea	  x7=0x9edea000
        7395000	       738	800018a8	00c4b333	sltu	x6,x9,x12	  x9:0x00000000 x12:0x0000000e  x6=0x00000001
        7405000	       739	800018ac	facce2e3	bltu	x25,x12,80001850	 x25:0x00000002 x12:0x0000000e
        7415000	       740	00000000	00000013	addi	x0,x0,0	  x0:0x00000000
        7425000	       741	8000184c	00000013	addi	x0,x0,0	  x0:0x00000000
        7435000	       742	80001850	010c3db3	sltu	x27,x24,x16	 x24:0xfffff918 x16:0x00000001 x27=0x00000000
        7445000	       743	80001854	00265eb3	srl	x29,x12,x2	 x12:0x0000000e  x2:0x92d5f42f x29=0x00000000
        7455000	       744	80001858	001c8c93	addi	x25,x25,1	 x25:0x00000002 x25=0x00000003
        7465000	       745	8000185c	41905fb3	sra	x31,x0,x25	  x0:0x00000000 x25:0x00000003 x31=0x00000000
        7475000	       746	80001860	405e8933	sub	x18,x29,x5	 x29:0x00000000  x5:0x00000010 x18=0xfffffff0
        7485000	       747	80001864	00500213	addi	x4,x0,5	  x0:0x00000000  x4=0x00000005
        7495000	       748	80001868	01300513	addi	x10,x0,19	  x0:0x00000000 x10=0x00000013
        7505000	       749	8000186c	918d8c13	addi	x24,x27,-1768	 x27:0x00000000 x24=0xfffff918
        7515000	       750	80001870	99d20d13	addi	x26,x4,-1635	  x4:0x00000005 x26=0xfffff9a2
        7525000	       751	80001874	01c4a933	slt	x18,x9,x28	  x9:0x00000000 x28:0x00000000 x18=0x00000000
        7535000	       752	80001878	4044d093	srai	x1,x9,0x4	  x9:0x00000000  x1=0x00000000
        7545000	       753	8000187c	c776bb13	sltiu	x22,x13,-905	 x13:0x00000010 x22=0x00000001
        7555000	       754	80001880	01f095b3	sll	x11,x1,x31	  x1:0x00000000 x31:0x00000000 x11=0x00000000
        7565000	       755	80001884	0055b333	sltu	x6,x11,x5	 x11:0x00000000  x5:0x00000010  x6=0x00000001
        7575000	       756	80001888	01ff2fb3	slt	x31,x30,x31	 x30:0x80009f1c x31:0x00000000 x31=0x00000001
        7585000	       757	8000188c	008c1993	slli	x19,x24,0x8	 x24:0xfffff918 x19=0xfff91800
        7595000	       758	80001890	01639ab3	sll	x21,x7,x22	  x7:0x9edea000 x22:0x00000001 x21=0x3dbd4000
        7605000	       759	80001894	00920213	addi	x4,x4,9	  x4:0x00000005  x4=0x0000000e
        7615000	       760	80001898	544b1797	auipc	x15,0x544b1	 x15=0xd44b2894
        7625000	       761	8000189c	fea244e3	blt	x4,x10,80001884	  x4:0x0000000e x10:0x00000013
        7635000	       762	00000000	00000013	addi	x0,x0,0	  x0:0x00000000
        7645000	       763	80001880	00000013	addi	x0,x0,0	  x0:0x00000000
        7655000	       764	80001884	0055b333	sltu	x6,x11,x5	 x11:0x00000000  x5:0x00000010  x6=0x00000001
        7665000	       765	80001888	01ff2fb3	slt	x31,x30,x31	 x30:0x80009f1c x31:0x00000001 x31=0x00000001
        7675000	       766	8000188c	008c1993	slli	x19,x24,0x8	 x24:0xfffff918 x19=0xfff91800
        7685000	       767	80001890	01639ab3	sll	x21,x7,x22	  x7:0x9edea000 x22:0x00000001 x21=0x3dbd4000
        7695000	       768	80001894	00920213	addi	x4,x4,9	  x4:0x0000000e  x4=0x00000017
        7705000	       769	80001898	544b1797	auipc	x15,0x544b1	 x15=0xd44b2894
        7715000	       770	8000189c	fea244e3	blt	x4,x10,80001884	  x4:0x00000017 x10:0x00000013
        7725000	       771	800018a0	01b91ab3	sll	x21,x18,x27	 x18:0x00000000 x27:0x00000000 x21=0x00000000
        7735000	       772	800018a4	9edea3b7	lui	x7,0x9edea	  x7=0x9edea000
        7745000	       773	800018a8	00c4b333	sltu	x6,x9,x12	  x9:0x00000000 x12:0x0000000e  x6=0x00000001
        7755000	       774	800018ac	facce2e3	bltu	x25,x12,80001850	 x25:0x00000003 x12:0x0000000e
        7765000	       775	00000000	00000013	addi	x0,x0,0	  x0:0x00000000
        7775000	       776	8000184c	00000013	addi	x0,x0,0	  x0:0x00000000
        7785000	       777	80001850	010c3db3	sltu	x27,x24,x16	 x24:0xfffff918 x16:0x00000001 x27=0x00000000
        7795000	       778	80001854	00265eb3	srl	x29,x12,x2	 x12:0x0000000e  x2:0x92d5f42f x29=0x00000000
        7805000	       779	80001858	001c8c93	addi	x25,x25,1	 x25:0x00000003 x25=0x00000004
        7815000	       780	8000185c	41905fb3	sra	x31,x0,x25	  x0:0x00000000 x25:0x00000004 x31=0x00000000
        7825000	       781	80001860	405e8933	sub	x18,x29,x5	 x29:0x00000000  x5:0x00000010 x18=0xfffffff0
        7835000	       782	80001864	00500213	addi	x4,x0,5	  x0:0x00000000  x4=0x00000005
        7845000	       783	80001868	01300513	addi	x10,x0,19	  x0:0x00000000 x10=0x00000013
        7855000	       784	8000186c	918d8c13	addi	x24,x27,-1768	 x27:0x00000000 x24=0xfffff918
        7865000	       785	80001870	99d20d13	addi	x26,x4,-1635	  x4:0x00000005 x26=0xfffff9a2
        7875000	       786	80001874	01c4a933	slt	x18,x9,x28	  x9:0x00000000 x28:0x00000000 x18=0x00000000
        7885000	       787	80001878	4044d093	srai	x1,x9,0x4	  x9:0x00000000  x1=0x00000000
        7895000	       788	8000187c	c776bb13	sltiu	x22,x13,-905	 x13:0x00000010 x22=0x00000001
        7905000	       789	80001880	01f095b3	sll	x11,x1,x31	  x1:0x00000000 x31:0x00000000 x11=0x00000000
        7915000	       790	80001884	0055b333	sltu	x6,x11,x5	 x11:0x00000000  x5:0x00000010  x6=0x00000001
        7925000	       791	80001888	01ff2fb3	slt	x31,x30,x31	 x30:0x80009f1c x31:0x00000000 x31=0x00000001
        7935000	       792	8000188c	008c1993	slli	x19,x24,0x8	 x24:0xfffff918 x19=0xfff91800
        7945000	       793	80001890	01639ab3	sll	x21,x7,x22	  x7:0x9edea000 x22:0x00000001 x21=0x3dbd4000
        7955000	       794	80001894	00920213	addi	x4,x4,9	  x4:0x00000005  x4=0x0000000e
        7965000	       795	80001898	544b1797	auipc	x15,0x544b1	 x15=0xd44b2894
        7975000	       796	8000189c	fea244e3	blt	x4,x10,80001884	  x4:0x0000000e x10:0x00000013
        7985000	       797	00000000	00000013	addi	x0,x0,0	  x0:0x00000000
        7995000	       798	80001880	00000013	addi	x0,x0,0	  x0:0x00000000
        8005000	       799	80001884	0055b333	sltu	x6,x11,x5	 x11:0x00000000  x5:0x00000010  x6=0x00000001
        8015000	       800	80001888	01ff2fb3	slt	x31,x30,x31	 x30:0x80009f1c x31:0x00000001 x31=0x00000001
        8025000	       801	8000188c	008c1993	slli	x19,x24,0x8	 x24:0xfffff918 x19=0xfff91800
        8035000	       802	80001890	01639ab3	sll	x21,x7,x22	  x7:0x9edea000 x22:0x00000001 x21=0x3dbd4000
        8045000	       803	80001894	00920213	addi	x4,x4,9	  x4:0x0000000e  x4=0x00000017
        8055000	       804	80001898	544b1797	auipc	x15,0x544b1	 x15=0xd44b2894
        8065000	       805	8000189c	fea244e3	blt	x4,x10,80001884	  x4:0x00000017 x10:0x00000013
        8075000	       806	800018a0	01b91ab3	sll	x21,x18,x27	 x18:0x00000000 x27:0x00000000 x21=0x00000000
        8085000	       807	800018a4	9edea3b7	lui	x7,0x9edea	  x7=0x9edea000
        8095000	       808	800018a8	00c4b333	sltu	x6,x9,x12	  x9:0x00000000 x12:0x0000000e  x6=0x00000001
        8105000	       809	800018ac	facce2e3	bltu	x25,x12,80001850	 x25:0x00000004 x12:0x0000000e
        8115000	       810	00000000	00000013	addi	x0,x0,0	  x0:0x00000000
        8125000	       811	8000184c	00000013	addi	x0,x0,0	  x0:0x00000000
        8135000	       812	80001850	010c3db3	sltu	x27,x24,x16	 x24:0xfffff918 x16:0x00000001 x27=0x00000000
        8145000	       813	80001854	00265eb3	srl	x29,x12,x2	 x12:0x0000000e  x2:0x92d5f42f x29=0x00000000
        8155000	       814	80001858	001c8c93	addi	x25,x25,1	 x25:0x00000004 x25=0x00000005
        8165000	       815	8000185c	41905fb3	sra	x31,x0,x25	  x0:0x00000000 x25:0x00000005 x31=0x00000000
        8175000	       816	80001860	405e8933	sub	x18,x29,x5	 x29:0x00000000  x5:0x00000010 x18=0xfffffff0
        8185000	       817	80001864	00500213	addi	x4,x0,5	  x0:0x00000000  x4=0x00000005
        8195000	       818	80001868	01300513	addi	x10,x0,19	  x0:0x00000000 x10=0x00000013
        8205000	       819	8000186c	918d8c13	addi	x24,x27,-1768	 x27:0x00000000 x24=0xfffff918
        8215000	       820	80001870	99d20d13	addi	x26,x4,-1635	  x4:0x00000005 x26=0xfffff9a2
        8225000	       821	80001874	01c4a933	slt	x18,x9,x28	  x9:0x00000000 x28:0x00000000 x18=0x00000000
        8235000	       822	80001878	4044d093	srai	x1,x9,0x4	  x9:0x00000000  x1=0x00000000
        8245000	       823	8000187c	c776bb13	sltiu	x22,x13,-905	 x13:0x00000010 x22=0x00000001
        8255000	       824	80001880	01f095b3	sll	x11,x1,x31	  x1:0x00000000 x31:0x00000000 x11=0x00000000
        8265000	       825	80001884	0055b333	sltu	x6,x11,x5	 x11:0x00000000  x5:0x00000010  x6=0x00000001
        8275000	       826	80001888	01ff2fb3	slt	x31,x30,x31	 x30:0x80009f1c x31:0x00000000 x31=0x00000001
        8285000	       827	8000188c	008c1993	slli	x19,x24,0x8	 x24:0xfffff918 x19=0xfff91800
        8295000	       828	80001890	01639ab3	sll	x21,x7,x22	  x7:0x9edea000 x22:0x00000001 x21=0x3dbd4000
        8305000	       829	80001894	00920213	addi	x4,x4,9	  x4:0x00000005  x4=0x0000000e
        8315000	       830	80001898	544b1797	auipc	x15,0x544b1	 x15=0xd44b2894
        8325000	       831	8000189c	fea244e3	blt	x4,x10,80001884	  x4:0x0000000e x10:0x00000013
        8335000	       832	00000000	00000013	addi	x0,x0,0	  x0:0x00000000
        8345000	       833	80001880	00000013	addi	x0,x0,0	  x0:0x00000000
        8355000	       834	80001884	0055b333	sltu	x6,x11,x5	 x11:0x00000000  x5:0x00000010  x6=0x00000001
        8365000	       835	80001888	01ff2fb3	slt	x31,x30,x31	 x30:0x80009f1c x31:0x00000001 x31=0x00000001
        8375000	       836	8000188c	008c1993	slli	x19,x24,0x8	 x24:0xfffff918 x19=0xfff91800
        8385000	       837	80001890	01639ab3	sll	x21,x7,x22	  x7:0x9edea000 x22:0x00000001 x21=0x3dbd4000
        8395000	       838	80001894	00920213	addi	x4,x4,9	  x4:0x0000000e  x4=0x00000017
        8405000	       839	80001898	544b1797	auipc	x15,0x544b1	 x15=0xd44b2894
        8415000	       840	8000189c	fea244e3	blt	x4,x10,80001884	  x4:0x00000017 x10:0x00000013
        8425000	       841	800018a0	01b91ab3	sll	x21,x18,x27	 x18:0x00000000 x27:0x00000000 x21=0x00000000
        8435000	       842	800018a4	9edea3b7	lui	x7,0x9edea	  x7=0x9edea000
        8445000	       843	800018a8	00c4b333	sltu	x6,x9,x12	  x9:0x00000000 x12:0x0000000e  x6=0x00000001
        8455000	       844	800018ac	facce2e3	bltu	x25,x12,80001850	 x25:0x00000005 x12:0x0000000e
        8465000	       845	00000000	00000013	addi	x0,x0,0	  x0:0x00000000
        8475000	       846	8000184c	00000013	addi	x0,x0,0	  x0:0x00000000
        8485000	       847	80001850	010c3db3	sltu	x27,x24,x16	 x24:0xfffff918 x16:0x00000001 x27=0x00000000
        8495000	       848	80001854	00265eb3	srl	x29,x12,x2	 x12:0x0000000e  x2:0x92d5f42f x29=0x00000000
        8505000	       849	80001858	001c8c93	addi	x25,x25,1	 x25:0x00000005 x25=0x00000006
        8515000	       850	8000185c	41905fb3	sra	x31,x0,x25	  x0:0x00000000 x25:0x00000006 x31=0x00000000
        8525000	       851	80001860	405e8933	sub	x18,x29,x5	 x29:0x00000000  x5:0x00000010 x18=0xfffffff0
        8535000	       852	80001864	00500213	addi	x4,x0,5	  x0:0x00000000  x4=0x00000005
        8545000	       853	80001868	01300513	addi	x10,x0,19	  x0:0x00000000 x10=0x00000013
        8555000	       854	8000186c	918d8c13	addi	x24,x27,-1768	 x27:0x00000000 x24=0xfffff918
        8565000	       855	80001870	99d20d13	addi	x26,x4,-1635	  x4:0x00000005 x26=0xfffff9a2
        8575000	       856	80001874	01c4a933	slt	x18,x9,x28	  x9:0x00000000 x28:0x00000000 x18=0x00000000
        8585000	       857	80001878	4044d093	srai	x1,x9,0x4	  x9:0x00000000  x1=0x00000000
        8595000	       858	8000187c	c776bb13	sltiu	x22,x13,-905	 x13:0x00000010 x22=0x00000001
        8605000	       859	80001880	01f095b3	sll	x11,x1,x31	  x1:0x00000000 x31:0x00000000 x11=0x00000000
        8615000	       860	80001884	0055b333	sltu	x6,x11,x5	 x11:0x00000000  x5:0x00000010  x6=0x00000001
        8625000	       861	80001888	01ff2fb3	slt	x31,x30,x31	 x30:0x80009f1c x31:0x00000000 x31=0x00000001
        8635000	       862	8000188c	008c1993	slli	x19,x24,0x8	 x24:0xfffff918 x19=0xfff91800
        8645000	       863	80001890	01639ab3	sll	x21,x7,x22	  x7:0x9edea000 x22:0x00000001 x21=0x3dbd4000
        8655000	       864	80001894	00920213	addi	x4,x4,9	  x4:0x00000005  x4=0x0000000e
        8665000	       865	80001898	544b1797	auipc	x15,0x544b1	 x15=0xd44b2894
        8675000	       866	8000189c	fea244e3	blt	x4,x10,80001884	  x4:0x0000000e x10:0x00000013
        8685000	       867	00000000	00000013	addi	x0,x0,0	  x0:0x00000000
        8695000	       868	80001880	00000013	addi	x0,x0,0	  x0:0x00000000
        8705000	       869	80001884	0055b333	sltu	x6,x11,x5	 x11:0x00000000  x5:0x00000010  x6=0x00000001
        8715000	       870	80001888	01ff2fb3	slt	x31,x30,x31	 x30:0x80009f1c x31:0x00000001 x31=0x00000001
        8725000	       871	8000188c	008c1993	slli	x19,x24,0x8	 x24:0xfffff918 x19=0xfff91800
        8735000	       872	80001890	01639ab3	sll	x21,x7,x22	  x7:0x9edea000 x22:0x00000001 x21=0x3dbd4000
        8745000	       873	80001894	00920213	addi	x4,x4,9	  x4:0x0000000e  x4=0x00000017
        8755000	       874	80001898	544b1797	auipc	x15,0x544b1	 x15=0xd44b2894
        8765000	       875	8000189c	fea244e3	blt	x4,x10,80001884	  x4:0x00000017 x10:0x00000013
        8775000	       876	800018a0	01b91ab3	sll	x21,x18,x27	 x18:0x00000000 x27:0x00000000 x21=0x00000000
        8785000	       877	800018a4	9edea3b7	lui	x7,0x9edea	  x7=0x9edea000
        8795000	       878	800018a8	00c4b333	sltu	x6,x9,x12	  x9:0x00000000 x12:0x0000000e  x6=0x00000001
        8805000	       879	800018ac	facce2e3	bltu	x25,x12,80001850	 x25:0x00000006 x12:0x0000000e
        8815000	       880	00000000	00000013	addi	x0,x0,0	  x0:0x00000000
        8825000	       881	8000184c	00000013	addi	x0,x0,0	  x0:0x00000000
        8835000	       882	80001850	010c3db3	sltu	x27,x24,x16	 x24:0xfffff918 x16:0x00000001 x27=0x00000000
        8845000	       883	80001854	00265eb3	srl	x29,x12,x2	 x12:0x0000000e  x2:0x92d5f42f x29=0x00000000
        8855000	       884	80001858	001c8c93	addi	x25,x25,1	 x25:0x00000006 x25=0x00000007
        8865000	       885	8000185c	41905fb3	sra	x31,x0,x25	  x0:0x00000000 x25:0x00000007 x31=0x00000000
        8875000	       886	80001860	405e8933	sub	x18,x29,x5	 x29:0x00000000  x5:0x00000010 x18=0xfffffff0
        8885000	       887	80001864	00500213	addi	x4,x0,5	  x0:0x00000000  x4=0x00000005
        8895000	       888	80001868	01300513	addi	x10,x0,19	  x0:0x00000000 x10=0x00000013
        8905000	       889	8000186c	918d8c13	addi	x24,x27,-1768	 x27:0x00000000 x24=0xfffff918
        8915000	       890	80001870	99d20d13	addi	x26,x4,-1635	  x4:0x00000005 x26=0xfffff9a2
        8925000	       891	80001874	01c4a933	slt	x18,x9,x28	  x9:0x00000000 x28:0x00000000 x18=0x00000000
        8935000	       892	80001878	4044d093	srai	x1,x9,0x4	  x9:0x00000000  x1=0x00000000
        8945000	       893	8000187c	c776bb13	sltiu	x22,x13,-905	 x13:0x00000010 x22=0x00000001
        8955000	       894	80001880	01f095b3	sll	x11,x1,x31	  x1:0x00000000 x31:0x00000000 x11=0x00000000
        8965000	       895	80001884	0055b333	sltu	x6,x11,x5	 x11:0x00000000  x5:0x00000010  x6=0x00000001
        8975000	       896	80001888	01ff2fb3	slt	x31,x30,x31	 x30:0x80009f1c x31:0x00000000 x31=0x00000001
        8985000	       897	8000188c	008c1993	slli	x19,x24,0x8	 x24:0xfffff918 x19=0xfff91800
        8995000	       898	80001890	01639ab3	sll	x21,x7,x22	  x7:0x9edea000 x22:0x00000001 x21=0x3dbd4000
        9005000	       899	80001894	00920213	addi	x4,x4,9	  x4:0x00000005  x4=0x0000000e
        9015000	       900	80001898	544b1797	auipc	x15,0x544b1	 x15=0xd44b2894
        9025000	       901	8000189c	fea244e3	blt	x4,x10,80001884	  x4:0x0000000e x10:0x00000013
        9035000	       902	00000000	00000013	addi	x0,x0,0	  x0:0x00000000
        9045000	       903	80001880	00000013	addi	x0,x0,0	  x0:0x00000000
        9055000	       904	80001884	0055b333	sltu	x6,x11,x5	 x11:0x00000000  x5:0x00000010  x6=0x00000001
        9065000	       905	80001888	01ff2fb3	slt	x31,x30,x31	 x30:0x80009f1c x31:0x00000001 x31=0x00000001
        9075000	       906	8000188c	008c1993	slli	x19,x24,0x8	 x24:0xfffff918 x19=0xfff91800
        9085000	       907	80001890	01639ab3	sll	x21,x7,x22	  x7:0x9edea000 x22:0x00000001 x21=0x3dbd4000
        9095000	       908	80001894	00920213	addi	x4,x4,9	  x4:0x0000000e  x4=0x00000017
        9105000	       909	80001898	544b1797	auipc	x15,0x544b1	 x15=0xd44b2894
        9115000	       910	8000189c	fea244e3	blt	x4,x10,80001884	  x4:0x00000017 x10:0x00000013
        9125000	       911	800018a0	01b91ab3	sll	x21,x18,x27	 x18:0x00000000 x27:0x00000000 x21=0x00000000
        9135000	       912	800018a4	9edea3b7	lui	x7,0x9edea	  x7=0x9edea000
        9145000	       913	800018a8	00c4b333	sltu	x6,x9,x12	  x9:0x00000000 x12:0x0000000e  x6=0x00000001
        9155000	       914	800018ac	facce2e3	bltu	x25,x12,80001850	 x25:0x00000007 x12:0x0000000e
        9165000	       915	00000000	00000013	addi	x0,x0,0	  x0:0x00000000
        9175000	       916	8000184c	00000013	addi	x0,x0,0	  x0:0x00000000
        9185000	       917	80001850	010c3db3	sltu	x27,x24,x16	 x24:0xfffff918 x16:0x00000001 x27=0x00000000
        9195000	       918	80001854	00265eb3	srl	x29,x12,x2	 x12:0x0000000e  x2:0x92d5f42f x29=0x00000000
        9205000	       919	80001858	001c8c93	addi	x25,x25,1	 x25:0x00000007 x25=0x00000008
        9215000	       920	8000185c	41905fb3	sra	x31,x0,x25	  x0:0x00000000 x25:0x00000008 x31=0x00000000
        9225000	       921	80001860	405e8933	sub	x18,x29,x5	 x29:0x00000000  x5:0x00000010 x18=0xfffffff0
        9235000	       922	80001864	00500213	addi	x4,x0,5	  x0:0x00000000  x4=0x00000005
        9245000	       923	80001868	01300513	addi	x10,x0,19	  x0:0x00000000 x10=0x00000013
        9255000	       924	8000186c	918d8c13	addi	x24,x27,-1768	 x27:0x00000000 x24=0xfffff918
        9265000	       925	80001870	99d20d13	addi	x26,x4,-1635	  x4:0x00000005 x26=0xfffff9a2
        9275000	       926	80001874	01c4a933	slt	x18,x9,x28	  x9:0x00000000 x28:0x00000000 x18=0x00000000
        9285000	       927	80001878	4044d093	srai	x1,x9,0x4	  x9:0x00000000  x1=0x00000000
        9295000	       928	8000187c	c776bb13	sltiu	x22,x13,-905	 x13:0x00000010 x22=0x00000001
        9305000	       929	80001880	01f095b3	sll	x11,x1,x31	  x1:0x00000000 x31:0x00000000 x11=0x00000000
        9315000	       930	80001884	0055b333	sltu	x6,x11,x5	 x11:0x00000000  x5:0x00000010  x6=0x00000001
        9325000	       931	80001888	01ff2fb3	slt	x31,x30,x31	 x30:0x80009f1c x31:0x00000000 x31=0x00000001
        9335000	       932	8000188c	008c1993	slli	x19,x24,0x8	 x24:0xfffff918 x19=0xfff91800
        9345000	       933	80001890	01639ab3	sll	x21,x7,x22	  x7:0x9edea000 x22:0x00000001 x21=0x3dbd4000
        9355000	       934	80001894	00920213	addi	x4,x4,9	  x4:0x00000005  x4=0x0000000e
        9365000	       935	80001898	544b1797	auipc	x15,0x544b1	 x15=0xd44b2894
        9375000	       936	8000189c	fea244e3	blt	x4,x10,80001884	  x4:0x0000000e x10:0x00000013
        9385000	       937	00000000	00000013	addi	x0,x0,0	  x0:0x00000000
        9395000	       938	80001880	00000013	addi	x0,x0,0	  x0:0x00000000
        9405000	       939	80001884	0055b333	sltu	x6,x11,x5	 x11:0x00000000  x5:0x00000010  x6=0x00000001
        9415000	       940	80001888	01ff2fb3	slt	x31,x30,x31	 x30:0x80009f1c x31:0x00000001 x31=0x00000001
        9425000	       941	8000188c	008c1993	slli	x19,x24,0x8	 x24:0xfffff918 x19=0xfff91800
        9435000	       942	80001890	01639ab3	sll	x21,x7,x22	  x7:0x9edea000 x22:0x00000001 x21=0x3dbd4000
        9445000	       943	80001894	00920213	addi	x4,x4,9	  x4:0x0000000e  x4=0x00000017
        9455000	       944	80001898	544b1797	auipc	x15,0x544b1	 x15=0xd44b2894
        9465000	       945	8000189c	fea244e3	blt	x4,x10,80001884	  x4:0x00000017 x10:0x00000013
        9475000	       946	800018a0	01b91ab3	sll	x21,x18,x27	 x18:0x00000000 x27:0x00000000 x21=0x00000000
        9485000	       947	800018a4	9edea3b7	lui	x7,0x9edea	  x7=0x9edea000
        9495000	       948	800018a8	00c4b333	sltu	x6,x9,x12	  x9:0x00000000 x12:0x0000000e  x6=0x00000001
        9505000	       949	800018ac	facce2e3	bltu	x25,x12,80001850	 x25:0x00000008 x12:0x0000000e
        9515000	       950	00000000	00000013	addi	x0,x0,0	  x0:0x00000000
        9525000	       951	8000184c	00000013	addi	x0,x0,0	  x0:0x00000000
        9535000	       952	80001850	010c3db3	sltu	x27,x24,x16	 x24:0xfffff918 x16:0x00000001 x27=0x00000000
        9545000	       953	80001854	00265eb3	srl	x29,x12,x2	 x12:0x0000000e  x2:0x92d5f42f x29=0x00000000
        9555000	       954	80001858	001c8c93	addi	x25,x25,1	 x25:0x00000008 x25=0x00000009
        9565000	       955	8000185c	41905fb3	sra	x31,x0,x25	  x0:0x00000000 x25:0x00000009 x31=0x00000000
        9575000	       956	80001860	405e8933	sub	x18,x29,x5	 x29:0x00000000  x5:0x00000010 x18=0xfffffff0
        9585000	       957	80001864	00500213	addi	x4,x0,5	  x0:0x00000000  x4=0x00000005
        9595000	       958	80001868	01300513	addi	x10,x0,19	  x0:0x00000000 x10=0x00000013
        9605000	       959	8000186c	918d8c13	addi	x24,x27,-1768	 x27:0x00000000 x24=0xfffff918
        9615000	       960	80001870	99d20d13	addi	x26,x4,-1635	  x4:0x00000005 x26=0xfffff9a2
        9625000	       961	80001874	01c4a933	slt	x18,x9,x28	  x9:0x00000000 x28:0x00000000 x18=0x00000000
        9635000	       962	80001878	4044d093	srai	x1,x9,0x4	  x9:0x00000000  x1=0x00000000
        9645000	       963	8000187c	c776bb13	sltiu	x22,x13,-905	 x13:0x00000010 x22=0x00000001
        9655000	       964	80001880	01f095b3	sll	x11,x1,x31	  x1:0x00000000 x31:0x00000000 x11=0x00000000
        9665000	       965	80001884	0055b333	sltu	x6,x11,x5	 x11:0x00000000  x5:0x00000010  x6=0x00000001
        9675000	       966	80001888	01ff2fb3	slt	x31,x30,x31	 x30:0x80009f1c x31:0x00000000 x31=0x00000001
        9685000	       967	8000188c	008c1993	slli	x19,x24,0x8	 x24:0xfffff918 x19=0xfff91800
        9695000	       968	80001890	01639ab3	sll	x21,x7,x22	  x7:0x9edea000 x22:0x00000001 x21=0x3dbd4000
        9705000	       969	80001894	00920213	addi	x4,x4,9	  x4:0x00000005  x4=0x0000000e
        9715000	       970	80001898	544b1797	auipc	x15,0x544b1	 x15=0xd44b2894
        9725000	       971	8000189c	fea244e3	blt	x4,x10,80001884	  x4:0x0000000e x10:0x00000013
        9735000	       972	00000000	00000013	addi	x0,x0,0	  x0:0x00000000
        9745000	       973	80001880	00000013	addi	x0,x0,0	  x0:0x00000000
        9755000	       974	80001884	0055b333	sltu	x6,x11,x5	 x11:0x00000000  x5:0x00000010  x6=0x00000001
        9765000	       975	80001888	01ff2fb3	slt	x31,x30,x31	 x30:0x80009f1c x31:0x00000001 x31=0x00000001
        9775000	       976	8000188c	008c1993	slli	x19,x24,0x8	 x24:0xfffff918 x19=0xfff91800
        9785000	       977	80001890	01639ab3	sll	x21,x7,x22	  x7:0x9edea000 x22:0x00000001 x21=0x3dbd4000
        9795000	       978	80001894	00920213	addi	x4,x4,9	  x4:0x0000000e  x4=0x00000017
        9805000	       979	80001898	544b1797	auipc	x15,0x544b1	 x15=0xd44b2894
        9815000	       980	8000189c	fea244e3	blt	x4,x10,80001884	  x4:0x00000017 x10:0x00000013
        9825000	       981	800018a0	01b91ab3	sll	x21,x18,x27	 x18:0x00000000 x27:0x00000000 x21=0x00000000
        9835000	       982	800018a4	9edea3b7	lui	x7,0x9edea	  x7=0x9edea000
        9845000	       983	800018a8	00c4b333	sltu	x6,x9,x12	  x9:0x00000000 x12:0x0000000e  x6=0x00000001
        9855000	       984	800018ac	facce2e3	bltu	x25,x12,80001850	 x25:0x00000009 x12:0x0000000e
        9865000	       985	00000000	00000013	addi	x0,x0,0	  x0:0x00000000
        9875000	       986	8000184c	00000013	addi	x0,x0,0	  x0:0x00000000
        9885000	       987	80001850	010c3db3	sltu	x27,x24,x16	 x24:0xfffff918 x16:0x00000001 x27=0x00000000
        9895000	       988	80001854	00265eb3	srl	x29,x12,x2	 x12:0x0000000e  x2:0x92d5f42f x29=0x00000000
        9905000	       989	80001858	001c8c93	addi	x25,x25,1	 x25:0x00000009 x25=0x0000000a
        9915000	       990	8000185c	41905fb3	sra	x31,x0,x25	  x0:0x00000000 x25:0x0000000a x31=0x00000000
        9925000	       991	80001860	405e8933	sub	x18,x29,x5	 x29:0x00000000  x5:0x00000010 x18=0xfffffff0
        9935000	       992	80001864	00500213	addi	x4,x0,5	  x0:0x00000000  x4=0x00000005
        9945000	       993	80001868	01300513	addi	x10,x0,19	  x0:0x00000000 x10=0x00000013
        9955000	       994	8000186c	918d8c13	addi	x24,x27,-1768	 x27:0x00000000 x24=0xfffff918
        9965000	       995	80001870	99d20d13	addi	x26,x4,-1635	  x4:0x00000005 x26=0xfffff9a2
        9975000	       996	80001874	01c4a933	slt	x18,x9,x28	  x9:0x00000000 x28:0x00000000 x18=0x00000000
        9985000	       997	80001878	4044d093	srai	x1,x9,0x4	  x9:0x00000000  x1=0x00000000
        9995000	       998	8000187c	c776bb13	sltiu	x22,x13,-905	 x13:0x00000010 x22=0x00000001
       10005000	       999	80001880	01f095b3	sll	x11,x1,x31	  x1:0x00000000 x31:0x00000000 x11=0x00000000
       10015000	      1000	80001884	0055b333	sltu	x6,x11,x5	 x11:0x00000000  x5:0x00000010  x6=0x00000001
       10025000	      1001	80001888	01ff2fb3	slt	x31,x30,x31	 x30:0x80009f1c x31:0x00000000 x31=0x00000001
       10035000	      1002	8000188c	008c1993	slli	x19,x24,0x8	 x24:0xfffff918 x19=0xfff91800
       10045000	      1003	80001890	01639ab3	sll	x21,x7,x22	  x7:0x9edea000 x22:0x00000001 x21=0x3dbd4000
       10055000	      1004	80001894	00920213	addi	x4,x4,9	  x4:0x00000005  x4=0x0000000e
       10065000	      1005	80001898	544b1797	auipc	x15,0x544b1	 x15=0xd44b2894
       10075000	      1006	8000189c	fea244e3	blt	x4,x10,80001884	  x4:0x0000000e x10:0x00000013
       10085000	      1007	00000000	00000013	addi	x0,x0,0	  x0:0x00000000
       10095000	      1008	80001880	00000013	addi	x0,x0,0	  x0:0x00000000
       10105000	      1009	80001884	0055b333	sltu	x6,x11,x5	 x11:0x00000000  x5:0x00000010  x6=0x00000001
       10115000	      1010	80001888	01ff2fb3	slt	x31,x30,x31	 x30:0x80009f1c x31:0x00000001 x31=0x00000001
       10125000	      1011	8000188c	008c1993	slli	x19,x24,0x8	 x24:0xfffff918 x19=0xfff91800
       10135000	      1012	80001890	01639ab3	sll	x21,x7,x22	  x7:0x9edea000 x22:0x00000001 x21=0x3dbd4000
       10145000	      1013	80001894	00920213	addi	x4,x4,9	  x4:0x0000000e  x4=0x00000017
       10155000	      1014	80001898	544b1797	auipc	x15,0x544b1	 x15=0xd44b2894
       10165000	      1015	8000189c	fea244e3	blt	x4,x10,80001884	  x4:0x00000017 x10:0x00000013
       10175000	      1016	800018a0	01b91ab3	sll	x21,x18,x27	 x18:0x00000000 x27:0x00000000 x21=0x00000000
       10185000	      1017	800018a4	9edea3b7	lui	x7,0x9edea	  x7=0x9edea000
       10195000	      1018	800018a8	00c4b333	sltu	x6,x9,x12	  x9:0x00000000 x12:0x0000000e  x6=0x00000001
       10205000	      1019	800018ac	facce2e3	bltu	x25,x12,80001850	 x25:0x0000000a x12:0x0000000e
       10215000	      1020	00000000	00000013	addi	x0,x0,0	  x0:0x00000000
       10225000	      1021	8000184c	00000013	addi	x0,x0,0	  x0:0x00000000
       10235000	      1022	80001850	010c3db3	sltu	x27,x24,x16	 x24:0xfffff918 x16:0x00000001 x27=0x00000000
       10245000	      1023	80001854	00265eb3	srl	x29,x12,x2	 x12:0x0000000e  x2:0x92d5f42f x29=0x00000000
       10255000	      1024	80001858	001c8c93	addi	x25,x25,1	 x25:0x0000000a x25=0x0000000b
       10265000	      1025	8000185c	41905fb3	sra	x31,x0,x25	  x0:0x00000000 x25:0x0000000b x31=0x00000000
       10275000	      1026	80001860	405e8933	sub	x18,x29,x5	 x29:0x00000000  x5:0x00000010 x18=0xfffffff0
       10285000	      1027	80001864	00500213	addi	x4,x0,5	  x0:0x00000000  x4=0x00000005
       10295000	      1028	80001868	01300513	addi	x10,x0,19	  x0:0x00000000 x10=0x00000013
       10305000	      1029	8000186c	918d8c13	addi	x24,x27,-1768	 x27:0x00000000 x24=0xfffff918
       10315000	      1030	80001870	99d20d13	addi	x26,x4,-1635	  x4:0x00000005 x26=0xfffff9a2
       10325000	      1031	80001874	01c4a933	slt	x18,x9,x28	  x9:0x00000000 x28:0x00000000 x18=0x00000000
       10335000	      1032	80001878	4044d093	srai	x1,x9,0x4	  x9:0x00000000  x1=0x00000000
       10345000	      1033	8000187c	c776bb13	sltiu	x22,x13,-905	 x13:0x00000010 x22=0x00000001
       10355000	      1034	80001880	01f095b3	sll	x11,x1,x31	  x1:0x00000000 x31:0x00000000 x11=0x00000000
       10365000	      1035	80001884	0055b333	sltu	x6,x11,x5	 x11:0x00000000  x5:0x00000010  x6=0x00000001
       10375000	      1036	80001888	01ff2fb3	slt	x31,x30,x31	 x30:0x80009f1c x31:0x00000000 x31=0x00000001
       10385000	      1037	8000188c	008c1993	slli	x19,x24,0x8	 x24:0xfffff918 x19=0xfff91800
       10395000	      1038	80001890	01639ab3	sll	x21,x7,x22	  x7:0x9edea000 x22:0x00000001 x21=0x3dbd4000
       10405000	      1039	80001894	00920213	addi	x4,x4,9	  x4:0x00000005  x4=0x0000000e
       10415000	      1040	80001898	544b1797	auipc	x15,0x544b1	 x15=0xd44b2894
       10425000	      1041	8000189c	fea244e3	blt	x4,x10,80001884	  x4:0x0000000e x10:0x00000013
       10435000	      1042	00000000	00000013	addi	x0,x0,0	  x0:0x00000000
       10445000	      1043	80001880	00000013	addi	x0,x0,0	  x0:0x00000000
       10455000	      1044	80001884	0055b333	sltu	x6,x11,x5	 x11:0x00000000  x5:0x00000010  x6=0x00000001
       10465000	      1045	80001888	01ff2fb3	slt	x31,x30,x31	 x30:0x80009f1c x31:0x00000001 x31=0x00000001
       10475000	      1046	8000188c	008c1993	slli	x19,x24,0x8	 x24:0xfffff918 x19=0xfff91800
       10485000	      1047	80001890	01639ab3	sll	x21,x7,x22	  x7:0x9edea000 x22:0x00000001 x21=0x3dbd4000
       10495000	      1048	80001894	00920213	addi	x4,x4,9	  x4:0x0000000e  x4=0x00000017
       10505000	      1049	80001898	544b1797	auipc	x15,0x544b1	 x15=0xd44b2894
       10515000	      1050	8000189c	fea244e3	blt	x4,x10,80001884	  x4:0x00000017 x10:0x00000013
       10525000	      1051	800018a0	01b91ab3	sll	x21,x18,x27	 x18:0x00000000 x27:0x00000000 x21=0x00000000
       10535000	      1052	800018a4	9edea3b7	lui	x7,0x9edea	  x7=0x9edea000
       10545000	      1053	800018a8	00c4b333	sltu	x6,x9,x12	  x9:0x00000000 x12:0x0000000e  x6=0x00000001
       10555000	      1054	800018ac	facce2e3	bltu	x25,x12,80001850	 x25:0x0000000b x12:0x0000000e
       10565000	      1055	00000000	00000013	addi	x0,x0,0	  x0:0x00000000
       10575000	      1056	8000184c	00000013	addi	x0,x0,0	  x0:0x00000000
       10585000	      1057	80001850	010c3db3	sltu	x27,x24,x16	 x24:0xfffff918 x16:0x00000001 x27=0x00000000
       10595000	      1058	80001854	00265eb3	srl	x29,x12,x2	 x12:0x0000000e  x2:0x92d5f42f x29=0x00000000
       10605000	      1059	80001858	001c8c93	addi	x25,x25,1	 x25:0x0000000b x25=0x0000000c
       10615000	      1060	8000185c	41905fb3	sra	x31,x0,x25	  x0:0x00000000 x25:0x0000000c x31=0x00000000
       10625000	      1061	80001860	405e8933	sub	x18,x29,x5	 x29:0x00000000  x5:0x00000010 x18=0xfffffff0
       10635000	      1062	80001864	00500213	addi	x4,x0,5	  x0:0x00000000  x4=0x00000005
       10645000	      1063	80001868	01300513	addi	x10,x0,19	  x0:0x00000000 x10=0x00000013
       10655000	      1064	8000186c	918d8c13	addi	x24,x27,-1768	 x27:0x00000000 x24=0xfffff918
       10665000	      1065	80001870	99d20d13	addi	x26,x4,-1635	  x4:0x00000005 x26=0xfffff9a2
       10675000	      1066	80001874	01c4a933	slt	x18,x9,x28	  x9:0x00000000 x28:0x00000000 x18=0x00000000
       10685000	      1067	80001878	4044d093	srai	x1,x9,0x4	  x9:0x00000000  x1=0x00000000
       10695000	      1068	8000187c	c776bb13	sltiu	x22,x13,-905	 x13:0x00000010 x22=0x00000001
       10705000	      1069	80001880	01f095b3	sll	x11,x1,x31	  x1:0x00000000 x31:0x00000000 x11=0x00000000
       10715000	      1070	80001884	0055b333	sltu	x6,x11,x5	 x11:0x00000000  x5:0x00000010  x6=0x00000001
       10725000	      1071	80001888	01ff2fb3	slt	x31,x30,x31	 x30:0x80009f1c x31:0x00000000 x31=0x00000001
       10735000	      1072	8000188c	008c1993	slli	x19,x24,0x8	 x24:0xfffff918 x19=0xfff91800
       10745000	      1073	80001890	01639ab3	sll	x21,x7,x22	  x7:0x9edea000 x22:0x00000001 x21=0x3dbd4000
       10755000	      1074	80001894	00920213	addi	x4,x4,9	  x4:0x00000005  x4=0x0000000e
       10765000	      1075	80001898	544b1797	auipc	x15,0x544b1	 x15=0xd44b2894
       10775000	      1076	8000189c	fea244e3	blt	x4,x10,80001884	  x4:0x0000000e x10:0x00000013
       10785000	      1077	00000000	00000013	addi	x0,x0,0	  x0:0x00000000
       10795000	      1078	80001880	00000013	addi	x0,x0,0	  x0:0x00000000
       10805000	      1079	80001884	0055b333	sltu	x6,x11,x5	 x11:0x00000000  x5:0x00000010  x6=0x00000001
       10815000	      1080	80001888	01ff2fb3	slt	x31,x30,x31	 x30:0x80009f1c x31:0x00000001 x31=0x00000001
       10825000	      1081	8000188c	008c1993	slli	x19,x24,0x8	 x24:0xfffff918 x19=0xfff91800
       10835000	      1082	80001890	01639ab3	sll	x21,x7,x22	  x7:0x9edea000 x22:0x00000001 x21=0x3dbd4000
       10845000	      1083	80001894	00920213	addi	x4,x4,9	  x4:0x0000000e  x4=0x00000017
       10855000	      1084	80001898	544b1797	auipc	x15,0x544b1	 x15=0xd44b2894
       10865000	      1085	8000189c	fea244e3	blt	x4,x10,80001884	  x4:0x00000017 x10:0x00000013
       10875000	      1086	800018a0	01b91ab3	sll	x21,x18,x27	 x18:0x00000000 x27:0x00000000 x21=0x00000000
       10885000	      1087	800018a4	9edea3b7	lui	x7,0x9edea	  x7=0x9edea000
       10895000	      1088	800018a8	00c4b333	sltu	x6,x9,x12	  x9:0x00000000 x12:0x0000000e  x6=0x00000001
       10905000	      1089	800018ac	facce2e3	bltu	x25,x12,80001850	 x25:0x0000000c x12:0x0000000e
       10915000	      1090	00000000	00000013	addi	x0,x0,0	  x0:0x00000000
       10925000	      1091	8000184c	00000013	addi	x0,x0,0	  x0:0x00000000
       10935000	      1092	80001850	010c3db3	sltu	x27,x24,x16	 x24:0xfffff918 x16:0x00000001 x27=0x00000000
       10945000	      1093	80001854	00265eb3	srl	x29,x12,x2	 x12:0x0000000e  x2:0x92d5f42f x29=0x00000000
       10955000	      1094	80001858	001c8c93	addi	x25,x25,1	 x25:0x0000000c x25=0x0000000d
       10965000	      1095	8000185c	41905fb3	sra	x31,x0,x25	  x0:0x00000000 x25:0x0000000d x31=0x00000000
       10975000	      1096	80001860	405e8933	sub	x18,x29,x5	 x29:0x00000000  x5:0x00000010 x18=0xfffffff0
       10985000	      1097	80001864	00500213	addi	x4,x0,5	  x0:0x00000000  x4=0x00000005
       10995000	      1098	80001868	01300513	addi	x10,x0,19	  x0:0x00000000 x10=0x00000013
       11005000	      1099	8000186c	918d8c13	addi	x24,x27,-1768	 x27:0x00000000 x24=0xfffff918
       11015000	      1100	80001870	99d20d13	addi	x26,x4,-1635	  x4:0x00000005 x26=0xfffff9a2
       11025000	      1101	80001874	01c4a933	slt	x18,x9,x28	  x9:0x00000000 x28:0x00000000 x18=0x00000000
       11035000	      1102	80001878	4044d093	srai	x1,x9,0x4	  x9:0x00000000  x1=0x00000000
       11045000	      1103	8000187c	c776bb13	sltiu	x22,x13,-905	 x13:0x00000010 x22=0x00000001
       11055000	      1104	80001880	01f095b3	sll	x11,x1,x31	  x1:0x00000000 x31:0x00000000 x11=0x00000000
       11065000	      1105	80001884	0055b333	sltu	x6,x11,x5	 x11:0x00000000  x5:0x00000010  x6=0x00000001
       11075000	      1106	80001888	01ff2fb3	slt	x31,x30,x31	 x30:0x80009f1c x31:0x00000000 x31=0x00000001
       11085000	      1107	8000188c	008c1993	slli	x19,x24,0x8	 x24:0xfffff918 x19=0xfff91800
       11095000	      1108	80001890	01639ab3	sll	x21,x7,x22	  x7:0x9edea000 x22:0x00000001 x21=0x3dbd4000
       11105000	      1109	80001894	00920213	addi	x4,x4,9	  x4:0x00000005  x4=0x0000000e
       11115000	      1110	80001898	544b1797	auipc	x15,0x544b1	 x15=0xd44b2894
       11125000	      1111	8000189c	fea244e3	blt	x4,x10,80001884	  x4:0x0000000e x10:0x00000013
       11135000	      1112	00000000	00000013	addi	x0,x0,0	  x0:0x00000000
       11145000	      1113	80001880	00000013	addi	x0,x0,0	  x0:0x00000000
       11155000	      1114	80001884	0055b333	sltu	x6,x11,x5	 x11:0x00000000  x5:0x00000010  x6=0x00000001
       11165000	      1115	80001888	01ff2fb3	slt	x31,x30,x31	 x30:0x80009f1c x31:0x00000001 x31=0x00000001
       11175000	      1116	8000188c	008c1993	slli	x19,x24,0x8	 x24:0xfffff918 x19=0xfff91800
       11185000	      1117	80001890	01639ab3	sll	x21,x7,x22	  x7:0x9edea000 x22:0x00000001 x21=0x3dbd4000
       11195000	      1118	80001894	00920213	addi	x4,x4,9	  x4:0x0000000e  x4=0x00000017
       11205000	      1119	80001898	544b1797	auipc	x15,0x544b1	 x15=0xd44b2894
       11215000	      1120	8000189c	fea244e3	blt	x4,x10,80001884	  x4:0x00000017 x10:0x00000013
       11225000	      1121	800018a0	01b91ab3	sll	x21,x18,x27	 x18:0x00000000 x27:0x00000000 x21=0x00000000
       11235000	      1122	800018a4	9edea3b7	lui	x7,0x9edea	  x7=0x9edea000
       11245000	      1123	800018a8	00c4b333	sltu	x6,x9,x12	  x9:0x00000000 x12:0x0000000e  x6=0x00000001
       11255000	      1124	800018ac	facce2e3	bltu	x25,x12,80001850	 x25:0x0000000d x12:0x0000000e
       11265000	      1125	00000000	00000013	addi	x0,x0,0	  x0:0x00000000
       11275000	      1126	8000184c	00000013	addi	x0,x0,0	  x0:0x00000000
       11285000	      1127	80001850	010c3db3	sltu	x27,x24,x16	 x24:0xfffff918 x16:0x00000001 x27=0x00000000
       11295000	      1128	80001854	00265eb3	srl	x29,x12,x2	 x12:0x0000000e  x2:0x92d5f42f x29=0x00000000
       11305000	      1129	80001858	001c8c93	addi	x25,x25,1	 x25:0x0000000d x25=0x0000000e
       11315000	      1130	8000185c	41905fb3	sra	x31,x0,x25	  x0:0x00000000 x25:0x0000000e x31=0x00000000
       11325000	      1131	80001860	405e8933	sub	x18,x29,x5	 x29:0x00000000  x5:0x00000010 x18=0xfffffff0
       11335000	      1132	80001864	00500213	addi	x4,x0,5	  x0:0x00000000  x4=0x00000005
       11345000	      1133	80001868	01300513	addi	x10,x0,19	  x0:0x00000000 x10=0x00000013
       11355000	      1134	8000186c	918d8c13	addi	x24,x27,-1768	 x27:0x00000000 x24=0xfffff918
       11365000	      1135	80001870	99d20d13	addi	x26,x4,-1635	  x4:0x00000005 x26=0xfffff9a2
       11375000	      1136	80001874	01c4a933	slt	x18,x9,x28	  x9:0x00000000 x28:0x00000000 x18=0x00000000
       11385000	      1137	80001878	4044d093	srai	x1,x9,0x4	  x9:0x00000000  x1=0x00000000
       11395000	      1138	8000187c	c776bb13	sltiu	x22,x13,-905	 x13:0x00000010 x22=0x00000001
       11405000	      1139	80001880	01f095b3	sll	x11,x1,x31	  x1:0x00000000 x31:0x00000000 x11=0x00000000
       11415000	      1140	80001884	0055b333	sltu	x6,x11,x5	 x11:0x00000000  x5:0x00000010  x6=0x00000001
       11425000	      1141	80001888	01ff2fb3	slt	x31,x30,x31	 x30:0x80009f1c x31:0x00000000 x31=0x00000001
       11435000	      1142	8000188c	008c1993	slli	x19,x24,0x8	 x24:0xfffff918 x19=0xfff91800
       11445000	      1143	80001890	01639ab3	sll	x21,x7,x22	  x7:0x9edea000 x22:0x00000001 x21=0x3dbd4000
       11455000	      1144	80001894	00920213	addi	x4,x4,9	  x4:0x00000005  x4=0x0000000e
       11465000	      1145	80001898	544b1797	auipc	x15,0x544b1	 x15=0xd44b2894
       11475000	      1146	8000189c	fea244e3	blt	x4,x10,80001884	  x4:0x0000000e x10:0x00000013
       11485000	      1147	00000000	00000013	addi	x0,x0,0	  x0:0x00000000
       11495000	      1148	80001880	00000013	addi	x0,x0,0	  x0:0x00000000
       11505000	      1149	80001884	0055b333	sltu	x6,x11,x5	 x11:0x00000000  x5:0x00000010  x6=0x00000001
       11515000	      1150	80001888	01ff2fb3	slt	x31,x30,x31	 x30:0x80009f1c x31:0x00000001 x31=0x00000001
       11525000	      1151	8000188c	008c1993	slli	x19,x24,0x8	 x24:0xfffff918 x19=0xfff91800
       11535000	      1152	80001890	01639ab3	sll	x21,x7,x22	  x7:0x9edea000 x22:0x00000001 x21=0x3dbd4000
       11545000	      1153	80001894	00920213	addi	x4,x4,9	  x4:0x0000000e  x4=0x00000017
       11555000	      1154	80001898	544b1797	auipc	x15,0x544b1	 x15=0xd44b2894
       11565000	      1155	8000189c	fea244e3	blt	x4,x10,80001884	  x4:0x00000017 x10:0x00000013
       11575000	      1156	800018a0	01b91ab3	sll	x21,x18,x27	 x18:0x00000000 x27:0x00000000 x21=0x00000000
       11585000	      1157	800018a4	9edea3b7	lui	x7,0x9edea	  x7=0x9edea000
       11595000	      1158	800018a8	00c4b333	sltu	x6,x9,x12	  x9:0x00000000 x12:0x0000000e  x6=0x00000001
       11605000	      1159	800018ac	facce2e3	bltu	x25,x12,80001850	 x25:0x0000000e x12:0x0000000e
       11615000	      1160	800018b0	00991393	slli	x7,x18,0x9	 x18:0x00000000  x7=0x00000000
       11625000	      1161	800018b4	00900813	addi	x16,x0,9	  x0:0x00000000 x16=0x00000009
       11635000	      1162	800018b8	016e0233	add	x4,x28,x22	 x28:0x00000000 x22:0x00000001  x4=0x00000001
       11645000	      1163	800018bc	001d59b3	srl	x19,x26,x1	 x26:0xfffff9a2  x1:0x00000000 x19=0xfffff9a2
       11655000	      1164	800018c0	11704193	xori	x3,x0,279	  x0:0x00000000  x3=0x00000117
       11665000	      1165	800018c4	011511b3	sll	x3,x10,x17	 x10:0x00000013 x17:0xf0ed7661  x3=0x00000026
       11675000	      1166	800018c8	01e572b3	and	x5,x10,x30	 x10:0x00000013 x30:0x80009f1c  x5=0x00000010
       11685000	      1167	800018cc	41c159b3	sra	x19,x2,x28	  x2:0x92d5f42f x28:0x00000000 x19=0x92d5f42f
       11695000	      1168	800018d0	013c2c33	slt	x24,x24,x19	 x24:0xfffff918 x19:0x92d5f42f x24=0x00000000
       11705000	      1169	800018d4	00a21c33	sll	x24,x4,x10	  x4:0x00000001 x10:0x00000013 x24=0x00080000
       11715000	      1170	800018d8	01bb9013	slli	x0,x23,0x1b	 x23:0x80009fc4
       11725000	      1171	800018dc	010f3cb3	sltu	x25,x30,x16	 x30:0x80009f1c x16:0x00000009 x25=0x00000000
       11735000	      1172	800018e0	01e51d13	slli	x26,x10,0x1e	 x10:0x00000013 x26=0xc0000000
       11745000	      1173	800018e4	00900313	addi	x6,x0,9	  x0:0x00000000  x6=0x00000009
       11755000	      1174	800018e8	89bce197	auipc	x3,0x89bce	  x3=0x09bcf8e4
       11765000	      1175	800018ec	011ec3b3	xor	x7,x29,x17	 x29:0x00000000 x17:0xf0ed7661  x7=0xf0ed7661
       11775000	      1176	800018f0	408ad2b3	sra	x5,x21,x8	 x21:0x00000000  x8:0xffffffff  x5=0x00000000
       11785000	      1177	800018f4	918fe297	auipc	x5,0x918fe	  x5=0x118ff8f0
       11795000	      1178	800018f8	00000013	addi	x0,x0,0	  x0:0x00000000
       11805000	      1179	800018fc	ff880813	addi	x16,x16,-8	 x16:0x00000009 x16=0x00000001
       11815000	      1180	80001900	01b95693	srli	x13,x18,0x1b	 x18:0x00000000 x13=0x00000000
       11825000	      1181	80001904	0413e5b7	lui	x11,0x413e	 x11=0x0413e000
       11835000	      1182	80001908	fe6876e3	bgeu	x16,x6,800018f4	 x16:0x00000001  x6:0x00000009
       11845000	      1183	8000190c	6366e393	ori	x7,x13,1590	 x13:0x00000000  x7=0x00000636
       11855000	      1184	80001910	ffc00f93	addi	x31,x0,-4	  x0:0x00000000 x31=0xfffffffc
       11865000	      1185	80001914	fcef7013	andi	x0,x30,-50	 x30:0x80009f1c
       11875000	      1186	80001918	00800193	addi	x3,x0,8	  x0:0x00000000  x3=0x00000008
       11885000	      1187	8000191c	733fe213	ori	x4,x31,1843	 x31:0xfffffffc  x4=0xffffffff
       11895000	      1188	80001920	00b6f933	and	x18,x13,x11	 x13:0x00000000 x11:0x0413e000 x18=0x00000000
       11905000	      1189	80001924	001f8f93	addi	x31,x31,1	 x31:0xfffffffc x31=0xfffffffd
       11915000	      1190	80001928	ff600d13	addi	x26,x0,-10	  x0:0x00000000 x26=0xfffffff6
       11925000	      1191	8000192c	fec00713	addi	x14,x0,-20	  x0:0x00000000 x14=0xffffffec
       11935000	      1192	80001930	40468233	sub	x4,x13,x4	 x13:0x00000000  x4:0xffffffff  x4=0x00000001
       11945000	      1193	80001934	0b2cedb7	lui	x27,0xb2ce	 x27=0x0b2ce000
       11955000	      1194	80001938	41658333	sub	x6,x11,x22	 x11:0x0413e000 x22:0x00000001  x6=0x0413dfff
       11965000	      1195	8000193c	ff6d0d13	addi	x26,x26,-10	 x26:0xfffffff6 x26=0xffffffec
       11975000	      1196	80001940	5e62f093	andi	x1,x5,1510	  x5:0x118ff8f0  x1=0x000000e0
       11985000	      1197	80001944	00645ab3	srl	x21,x8,x6	  x8:0xffffffff  x6:0x0413dfff x21=0x00000001
       11995000	      1198	80001948	feed16e3	bne	x26,x14,80001934	 x26:0xffffffec x14:0xffffffec
       12005000	      1199	8000194c	011317b3	sll	x15,x6,x17	  x6:0x0413dfff x17:0xf0ed7661 x15=0x0827bffe
       12015000	      1200	80001950	01d47413	andi	x8,x8,29	  x8:0xffffffff  x8=0x0000001d
       12025000	      1201	80001954	fc3f96e3	bne	x31,x3,80001920	 x31:0xfffffffd  x3:0x00000008
       12035000	      1202	00000000	00000013	addi	x0,x0,0	  x0:0x00000000
       12045000	      1203	8000191c	00000013	addi	x0,x0,0	  x0:0x00000000
       12055000	      1204	80001920	00b6f933	and	x18,x13,x11	 x13:0x00000000 x11:0x0413e000 x18=0x00000000
       12065000	      1205	80001924	001f8f93	addi	x31,x31,1	 x31:0xfffffffd x31=0xfffffffe
       12075000	      1206	80001928	ff600d13	addi	x26,x0,-10	  x0:0x00000000 x26=0xfffffff6
       12085000	      1207	8000192c	fec00713	addi	x14,x0,-20	  x0:0x00000000 x14=0xffffffec
       12095000	      1208	80001930	40468233	sub	x4,x13,x4	 x13:0x00000000  x4:0x00000001  x4=0xffffffff
       12105000	      1209	80001934	0b2cedb7	lui	x27,0xb2ce	 x27=0x0b2ce000
       12115000	      1210	80001938	41658333	sub	x6,x11,x22	 x11:0x0413e000 x22:0x00000001  x6=0x0413dfff
       12125000	      1211	8000193c	ff6d0d13	addi	x26,x26,-10	 x26:0xfffffff6 x26=0xffffffec
       12135000	      1212	80001940	5e62f093	andi	x1,x5,1510	  x5:0x118ff8f0  x1=0x000000e0
       12145000	      1213	80001944	00645ab3	srl	x21,x8,x6	  x8:0x0000001d  x6:0x0413dfff x21=0x00000000
       12155000	      1214	80001948	feed16e3	bne	x26,x14,80001934	 x26:0xffffffec x14:0xffffffec
       12165000	      1215	8000194c	011317b3	sll	x15,x6,x17	  x6:0x0413dfff x17:0xf0ed7661 x15=0x0827bffe
       12175000	      1216	80001950	01d47413	andi	x8,x8,29	  x8:0x0000001d  x8=0x0000001d
       12185000	      1217	80001954	fc3f96e3	bne	x31,x3,80001920	 x31:0xfffffffe  x3:0x00000008
       12195000	      1218	00000000	00000013	addi	x0,x0,0	  x0:0x00000000
       12205000	      1219	8000191c	00000013	addi	x0,x0,0	  x0:0x00000000
       12215000	      1220	80001920	00b6f933	and	x18,x13,x11	 x13:0x00000000 x11:0x0413e000 x18=0x00000000
       12225000	      1221	80001924	001f8f93	addi	x31,x31,1	 x31:0xfffffffe x31=0xffffffff
       12235000	      1222	80001928	ff600d13	addi	x26,x0,-10	  x0:0x00000000 x26=0xfffffff6
       12245000	      1223	8000192c	fec00713	addi	x14,x0,-20	  x0:0x00000000 x14=0xffffffec
       12255000	      1224	80001930	40468233	sub	x4,x13,x4	 x13:0x00000000  x4:0xffffffff  x4=0x00000001
       12265000	      1225	80001934	0b2cedb7	lui	x27,0xb2ce	 x27=0x0b2ce000
       12275000	      1226	80001938	41658333	sub	x6,x11,x22	 x11:0x0413e000 x22:0x00000001  x6=0x0413dfff
       12285000	      1227	8000193c	ff6d0d13	addi	x26,x26,-10	 x26:0xfffffff6 x26=0xffffffec
       12295000	      1228	80001940	5e62f093	andi	x1,x5,1510	  x5:0x118ff8f0  x1=0x000000e0
       12305000	      1229	80001944	00645ab3	srl	x21,x8,x6	  x8:0x0000001d  x6:0x0413dfff x21=0x00000000
       12315000	      1230	80001948	feed16e3	bne	x26,x14,80001934	 x26:0xffffffec x14:0xffffffec
       12325000	      1231	8000194c	011317b3	sll	x15,x6,x17	  x6:0x0413dfff x17:0xf0ed7661 x15=0x0827bffe
       12335000	      1232	80001950	01d47413	andi	x8,x8,29	  x8:0x0000001d  x8=0x0000001d
       12345000	      1233	80001954	fc3f96e3	bne	x31,x3,80001920	 x31:0xffffffff  x3:0x00000008
       12355000	      1234	00000000	00000013	addi	x0,x0,0	  x0:0x00000000
       12365000	      1235	8000191c	00000013	addi	x0,x0,0	  x0:0x00000000
       12375000	      1236	80001920	00b6f933	and	x18,x13,x11	 x13:0x00000000 x11:0x0413e000 x18=0x00000000
       12385000	      1237	80001924	001f8f93	addi	x31,x31,1	 x31:0xffffffff x31=0x00000000
       12395000	      1238	80001928	ff600d13	addi	x26,x0,-10	  x0:0x00000000 x26=0xfffffff6
       12405000	      1239	8000192c	fec00713	addi	x14,x0,-20	  x0:0x00000000 x14=0xffffffec
       12415000	      1240	80001930	40468233	sub	x4,x13,x4	 x13:0x00000000  x4:0x00000001  x4=0xffffffff
       12425000	      1241	80001934	0b2cedb7	lui	x27,0xb2ce	 x27=0x0b2ce000
       12435000	      1242	80001938	41658333	sub	x6,x11,x22	 x11:0x0413e000 x22:0x00000001  x6=0x0413dfff
       12445000	      1243	8000193c	ff6d0d13	addi	x26,x26,-10	 x26:0xfffffff6 x26=0xffffffec
       12455000	      1244	80001940	5e62f093	andi	x1,x5,1510	  x5:0x118ff8f0  x1=0x000000e0
       12465000	      1245	80001944	00645ab3	srl	x21,x8,x6	  x8:0x0000001d  x6:0x0413dfff x21=0x00000000
       12475000	      1246	80001948	feed16e3	bne	x26,x14,80001934	 x26:0xffffffec x14:0xffffffec
       12485000	      1247	8000194c	011317b3	sll	x15,x6,x17	  x6:0x0413dfff x17:0xf0ed7661 x15=0x0827bffe
       12495000	      1248	80001950	01d47413	andi	x8,x8,29	  x8:0x0000001d  x8=0x0000001d
       12505000	      1249	80001954	fc3f96e3	bne	x31,x3,80001920	 x31:0x00000000  x3:0x00000008
       12515000	      1250	00000000	00000013	addi	x0,x0,0	  x0:0x00000000
       12525000	      1251	8000191c	00000013	addi	x0,x0,0	  x0:0x00000000
       12535000	      1252	80001920	00b6f933	and	x18,x13,x11	 x13:0x00000000 x11:0x0413e000 x18=0x00000000
       12545000	      1253	80001924	001f8f93	addi	x31,x31,1	 x31:0x00000000 x31=0x00000001
       12555000	      1254	80001928	ff600d13	addi	x26,x0,-10	  x0:0x00000000 x26=0xfffffff6
       12565000	      1255	8000192c	fec00713	addi	x14,x0,-20	  x0:0x00000000 x14=0xffffffec
       12575000	      1256	80001930	40468233	sub	x4,x13,x4	 x13:0x00000000  x4:0xffffffff  x4=0x00000001
       12585000	      1257	80001934	0b2cedb7	lui	x27,0xb2ce	 x27=0x0b2ce000
       12595000	      1258	80001938	41658333	sub	x6,x11,x22	 x11:0x0413e000 x22:0x00000001  x6=0x0413dfff
       12605000	      1259	8000193c	ff6d0d13	addi	x26,x26,-10	 x26:0xfffffff6 x26=0xffffffec
       12615000	      1260	80001940	5e62f093	andi	x1,x5,1510	  x5:0x118ff8f0  x1=0x000000e0
       12625000	      1261	80001944	00645ab3	srl	x21,x8,x6	  x8:0x0000001d  x6:0x0413dfff x21=0x00000000
       12635000	      1262	80001948	feed16e3	bne	x26,x14,80001934	 x26:0xffffffec x14:0xffffffec
       12645000	      1263	8000194c	011317b3	sll	x15,x6,x17	  x6:0x0413dfff x17:0xf0ed7661 x15=0x0827bffe
       12655000	      1264	80001950	01d47413	andi	x8,x8,29	  x8:0x0000001d  x8=0x0000001d
       12665000	      1265	80001954	fc3f96e3	bne	x31,x3,80001920	 x31:0x00000001  x3:0x00000008
       12675000	      1266	00000000	00000013	addi	x0,x0,0	  x0:0x00000000
       12685000	      1267	8000191c	00000013	addi	x0,x0,0	  x0:0x00000000
       12695000	      1268	80001920	00b6f933	and	x18,x13,x11	 x13:0x00000000 x11:0x0413e000 x18=0x00000000
       12705000	      1269	80001924	001f8f93	addi	x31,x31,1	 x31:0x00000001 x31=0x00000002
       12715000	      1270	80001928	ff600d13	addi	x26,x0,-10	  x0:0x00000000 x26=0xfffffff6
       12725000	      1271	8000192c	fec00713	addi	x14,x0,-20	  x0:0x00000000 x14=0xffffffec
       12735000	      1272	80001930	40468233	sub	x4,x13,x4	 x13:0x00000000  x4:0x00000001  x4=0xffffffff
       12745000	      1273	80001934	0b2cedb7	lui	x27,0xb2ce	 x27=0x0b2ce000
       12755000	      1274	80001938	41658333	sub	x6,x11,x22	 x11:0x0413e000 x22:0x00000001  x6=0x0413dfff
       12765000	      1275	8000193c	ff6d0d13	addi	x26,x26,-10	 x26:0xfffffff6 x26=0xffffffec
       12775000	      1276	80001940	5e62f093	andi	x1,x5,1510	  x5:0x118ff8f0  x1=0x000000e0
       12785000	      1277	80001944	00645ab3	srl	x21,x8,x6	  x8:0x0000001d  x6:0x0413dfff x21=0x00000000
       12795000	      1278	80001948	feed16e3	bne	x26,x14,80001934	 x26:0xffffffec x14:0xffffffec
       12805000	      1279	8000194c	011317b3	sll	x15,x6,x17	  x6:0x0413dfff x17:0xf0ed7661 x15=0x0827bffe
       12815000	      1280	80001950	01d47413	andi	x8,x8,29	  x8:0x0000001d  x8=0x0000001d
       12825000	      1281	80001954	fc3f96e3	bne	x31,x3,80001920	 x31:0x00000002  x3:0x00000008
       12835000	      1282	00000000	00000013	addi	x0,x0,0	  x0:0x00000000
       12845000	      1283	8000191c	00000013	addi	x0,x0,0	  x0:0x00000000
       12855000	      1284	80001920	00b6f933	and	x18,x13,x11	 x13:0x00000000 x11:0x0413e000 x18=0x00000000
       12865000	      1285	80001924	001f8f93	addi	x31,x31,1	 x31:0x00000002 x31=0x00000003
       12875000	      1286	80001928	ff600d13	addi	x26,x0,-10	  x0:0x00000000 x26=0xfffffff6
       12885000	      1287	8000192c	fec00713	addi	x14,x0,-20	  x0:0x00000000 x14=0xffffffec
       12895000	      1288	80001930	40468233	sub	x4,x13,x4	 x13:0x00000000  x4:0xffffffff  x4=0x00000001
       12905000	      1289	80001934	0b2cedb7	lui	x27,0xb2ce	 x27=0x0b2ce000
       12915000	      1290	80001938	41658333	sub	x6,x11,x22	 x11:0x0413e000 x22:0x00000001  x6=0x0413dfff
       12925000	      1291	8000193c	ff6d0d13	addi	x26,x26,-10	 x26:0xfffffff6 x26=0xffffffec
       12935000	      1292	80001940	5e62f093	andi	x1,x5,1510	  x5:0x118ff8f0  x1=0x000000e0
       12945000	      1293	80001944	00645ab3	srl	x21,x8,x6	  x8:0x0000001d  x6:0x0413dfff x21=0x00000000
       12955000	      1294	80001948	feed16e3	bne	x26,x14,80001934	 x26:0xffffffec x14:0xffffffec
       12965000	      1295	8000194c	011317b3	sll	x15,x6,x17	  x6:0x0413dfff x17:0xf0ed7661 x15=0x0827bffe
       12975000	      1296	80001950	01d47413	andi	x8,x8,29	  x8:0x0000001d  x8=0x0000001d
       12985000	      1297	80001954	fc3f96e3	bne	x31,x3,80001920	 x31:0x00000003  x3:0x00000008
       12995000	      1298	00000000	00000013	addi	x0,x0,0	  x0:0x00000000
       13005000	      1299	8000191c	00000013	addi	x0,x0,0	  x0:0x00000000
       13015000	      1300	80001920	00b6f933	and	x18,x13,x11	 x13:0x00000000 x11:0x0413e000 x18=0x00000000
       13025000	      1301	80001924	001f8f93	addi	x31,x31,1	 x31:0x00000003 x31=0x00000004
       13035000	      1302	80001928	ff600d13	addi	x26,x0,-10	  x0:0x00000000 x26=0xfffffff6
       13045000	      1303	8000192c	fec00713	addi	x14,x0,-20	  x0:0x00000000 x14=0xffffffec
       13055000	      1304	80001930	40468233	sub	x4,x13,x4	 x13:0x00000000  x4:0x00000001  x4=0xffffffff
       13065000	      1305	80001934	0b2cedb7	lui	x27,0xb2ce	 x27=0x0b2ce000
       13075000	      1306	80001938	41658333	sub	x6,x11,x22	 x11:0x0413e000 x22:0x00000001  x6=0x0413dfff
       13085000	      1307	8000193c	ff6d0d13	addi	x26,x26,-10	 x26:0xfffffff6 x26=0xffffffec
       13095000	      1308	80001940	5e62f093	andi	x1,x5,1510	  x5:0x118ff8f0  x1=0x000000e0
       13105000	      1309	80001944	00645ab3	srl	x21,x8,x6	  x8:0x0000001d  x6:0x0413dfff x21=0x00000000
       13115000	      1310	80001948	feed16e3	bne	x26,x14,80001934	 x26:0xffffffec x14:0xffffffec
       13125000	      1311	8000194c	011317b3	sll	x15,x6,x17	  x6:0x0413dfff x17:0xf0ed7661 x15=0x0827bffe
       13135000	      1312	80001950	01d47413	andi	x8,x8,29	  x8:0x0000001d  x8=0x0000001d
       13145000	      1313	80001954	fc3f96e3	bne	x31,x3,80001920	 x31:0x00000004  x3:0x00000008
       13155000	      1314	00000000	00000013	addi	x0,x0,0	  x0:0x00000000
       13165000	      1315	8000191c	00000013	addi	x0,x0,0	  x0:0x00000000
       13175000	      1316	80001920	00b6f933	and	x18,x13,x11	 x13:0x00000000 x11:0x0413e000 x18=0x00000000
       13185000	      1317	80001924	001f8f93	addi	x31,x31,1	 x31:0x00000004 x31=0x00000005
       13195000	      1318	80001928	ff600d13	addi	x26,x0,-10	  x0:0x00000000 x26=0xfffffff6
       13205000	      1319	8000192c	fec00713	addi	x14,x0,-20	  x0:0x00000000 x14=0xffffffec
       13215000	      1320	80001930	40468233	sub	x4,x13,x4	 x13:0x00000000  x4:0xffffffff  x4=0x00000001
       13225000	      1321	80001934	0b2cedb7	lui	x27,0xb2ce	 x27=0x0b2ce000
       13235000	      1322	80001938	41658333	sub	x6,x11,x22	 x11:0x0413e000 x22:0x00000001  x6=0x0413dfff
       13245000	      1323	8000193c	ff6d0d13	addi	x26,x26,-10	 x26:0xfffffff6 x26=0xffffffec
       13255000	      1324	80001940	5e62f093	andi	x1,x5,1510	  x5:0x118ff8f0  x1=0x000000e0
       13265000	      1325	80001944	00645ab3	srl	x21,x8,x6	  x8:0x0000001d  x6:0x0413dfff x21=0x00000000
       13275000	      1326	80001948	feed16e3	bne	x26,x14,80001934	 x26:0xffffffec x14:0xffffffec
       13285000	      1327	8000194c	011317b3	sll	x15,x6,x17	  x6:0x0413dfff x17:0xf0ed7661 x15=0x0827bffe
       13295000	      1328	80001950	01d47413	andi	x8,x8,29	  x8:0x0000001d  x8=0x0000001d
       13305000	      1329	80001954	fc3f96e3	bne	x31,x3,80001920	 x31:0x00000005  x3:0x00000008
       13315000	      1330	00000000	00000013	addi	x0,x0,0	  x0:0x00000000
       13325000	      1331	8000191c	00000013	addi	x0,x0,0	  x0:0x00000000
       13335000	      1332	80001920	00b6f933	and	x18,x13,x11	 x13:0x00000000 x11:0x0413e000 x18=0x00000000
       13345000	      1333	80001924	001f8f93	addi	x31,x31,1	 x31:0x00000005 x31=0x00000006
       13355000	      1334	80001928	ff600d13	addi	x26,x0,-10	  x0:0x00000000 x26=0xfffffff6
       13365000	      1335	8000192c	fec00713	addi	x14,x0,-20	  x0:0x00000000 x14=0xffffffec
       13375000	      1336	80001930	40468233	sub	x4,x13,x4	 x13:0x00000000  x4:0x00000001  x4=0xffffffff
       13385000	      1337	80001934	0b2cedb7	lui	x27,0xb2ce	 x27=0x0b2ce000
       13395000	      1338	80001938	41658333	sub	x6,x11,x22	 x11:0x0413e000 x22:0x00000001  x6=0x0413dfff
       13405000	      1339	8000193c	ff6d0d13	addi	x26,x26,-10	 x26:0xfffffff6 x26=0xffffffec
       13415000	      1340	80001940	5e62f093	andi	x1,x5,1510	  x5:0x118ff8f0  x1=0x000000e0
       13425000	      1341	80001944	00645ab3	srl	x21,x8,x6	  x8:0x0000001d  x6:0x0413dfff x21=0x00000000
       13435000	      1342	80001948	feed16e3	bne	x26,x14,80001934	 x26:0xffffffec x14:0xffffffec
       13445000	      1343	8000194c	011317b3	sll	x15,x6,x17	  x6:0x0413dfff x17:0xf0ed7661 x15=0x0827bffe
       13455000	      1344	80001950	01d47413	andi	x8,x8,29	  x8:0x0000001d  x8=0x0000001d
       13465000	      1345	80001954	fc3f96e3	bne	x31,x3,80001920	 x31:0x00000006  x3:0x00000008
       13475000	      1346	00000000	00000013	addi	x0,x0,0	  x0:0x00000000
       13485000	      1347	8000191c	00000013	addi	x0,x0,0	  x0:0x00000000
       13495000	      1348	80001920	00b6f933	and	x18,x13,x11	 x13:0x00000000 x11:0x0413e000 x18=0x00000000
       13505000	      1349	80001924	001f8f93	addi	x31,x31,1	 x31:0x00000006 x31=0x00000007
       13515000	      1350	80001928	ff600d13	addi	x26,x0,-10	  x0:0x00000000 x26=0xfffffff6
       13525000	      1351	8000192c	fec00713	addi	x14,x0,-20	  x0:0x00000000 x14=0xffffffec
       13535000	      1352	80001930	40468233	sub	x4,x13,x4	 x13:0x00000000  x4:0xffffffff  x4=0x00000001
       13545000	      1353	80001934	0b2cedb7	lui	x27,0xb2ce	 x27=0x0b2ce000
       13555000	      1354	80001938	41658333	sub	x6,x11,x22	 x11:0x0413e000 x22:0x00000001  x6=0x0413dfff
       13565000	      1355	8000193c	ff6d0d13	addi	x26,x26,-10	 x26:0xfffffff6 x26=0xffffffec
       13575000	      1356	80001940	5e62f093	andi	x1,x5,1510	  x5:0x118ff8f0  x1=0x000000e0
       13585000	      1357	80001944	00645ab3	srl	x21,x8,x6	  x8:0x0000001d  x6:0x0413dfff x21=0x00000000
       13595000	      1358	80001948	feed16e3	bne	x26,x14,80001934	 x26:0xffffffec x14:0xffffffec
       13605000	      1359	8000194c	011317b3	sll	x15,x6,x17	  x6:0x0413dfff x17:0xf0ed7661 x15=0x0827bffe
       13615000	      1360	80001950	01d47413	andi	x8,x8,29	  x8:0x0000001d  x8=0x0000001d
       13625000	      1361	80001954	fc3f96e3	bne	x31,x3,80001920	 x31:0x00000007  x3:0x00000008
       13635000	      1362	00000000	00000013	addi	x0,x0,0	  x0:0x00000000
       13645000	      1363	8000191c	00000013	addi	x0,x0,0	  x0:0x00000000
       13655000	      1364	80001920	00b6f933	and	x18,x13,x11	 x13:0x00000000 x11:0x0413e000 x18=0x00000000
       13665000	      1365	80001924	001f8f93	addi	x31,x31,1	 x31:0x00000007 x31=0x00000008
       13675000	      1366	80001928	ff600d13	addi	x26,x0,-10	  x0:0x00000000 x26=0xfffffff6
       13685000	      1367	8000192c	fec00713	addi	x14,x0,-20	  x0:0x00000000 x14=0xffffffec
       13695000	      1368	80001930	40468233	sub	x4,x13,x4	 x13:0x00000000  x4:0x00000001  x4=0xffffffff
       13705000	      1369	80001934	0b2cedb7	lui	x27,0xb2ce	 x27=0x0b2ce000
       13715000	      1370	80001938	41658333	sub	x6,x11,x22	 x11:0x0413e000 x22:0x00000001  x6=0x0413dfff
       13725000	      1371	8000193c	ff6d0d13	addi	x26,x26,-10	 x26:0xfffffff6 x26=0xffffffec
       13735000	      1372	80001940	5e62f093	andi	x1,x5,1510	  x5:0x118ff8f0  x1=0x000000e0
       13745000	      1373	80001944	00645ab3	srl	x21,x8,x6	  x8:0x0000001d  x6:0x0413dfff x21=0x00000000
       13755000	      1374	80001948	feed16e3	bne	x26,x14,80001934	 x26:0xffffffec x14:0xffffffec
       13765000	      1375	8000194c	011317b3	sll	x15,x6,x17	  x6:0x0413dfff x17:0xf0ed7661 x15=0x0827bffe
       13775000	      1376	80001950	01d47413	andi	x8,x8,29	  x8:0x0000001d  x8=0x0000001d
       13785000	      1377	80001954	fc3f96e3	bne	x31,x3,80001920	 x31:0x00000008  x3:0x00000008
       13795000	      1378	80001958	677234b7	lui	x9,0x67723	  x9=0x67723000
       13805000	      1379	8000195c	00a00693	addi	x13,x0,10	  x0:0x00000000 x13=0x0000000a
       13815000	      1380	80001960	fafca993	slti	x19,x25,-81	 x25:0x00000000 x19=0x00000000
       13825000	      1381	80001964	00900513	addi	x10,x0,9	  x0:0x00000000 x10=0x00000009
       13835000	      1382	80001968	a3360713	addi	x14,x12,-1485	 x12:0x0000000e x14=0xfffffa41
       13845000	      1383	8000196c	ff868693	addi	x13,x13,-8	 x13:0x0000000a x13=0x00000002
       13855000	      1384	80001970	00fce133	or	x2,x25,x15	 x25:0x00000000 x15:0x0827bffe  x2=0x0827bffe
       13865000	      1385	80001974	fea6fae3	bgeu	x13,x10,80001968	 x13:0x00000002 x10:0x00000009
       13875000	      1386	80001978	01f6e933	or	x18,x13,x31	 x13:0x00000002 x31:0x00000008 x18=0x0000000a
       13885000	      1387	8000197c	ffa00593	addi	x11,x0,-6	  x0:0x00000000 x11=0xfffffffa
       13895000	      1388	80001980	c0d9a497	auipc	x9,0xc0d9a	  x9=0x40d9b97c
       13905000	      1389	80001984	6745f9b7	lui	x19,0x6745f	 x19=0x6745f000
       13915000	      1390	80001988	ff300a93	addi	x21,x0,-13	  x0:0x00000000 x21=0xfffffff3
       13925000	      1391	8000198c	0131d993	srli	x19,x3,0x13	  x3:0x00000008 x19=0x00000000
       13935000	      1392	80001990	62e07093	andi	x1,x0,1582	  x0:0x00000000  x1=0x00000000
       13945000	      1393	80001994	01523833	sltu	x16,x4,x21	  x4:0xffffffff x21:0xfffffff3 x16=0x00000000
       13955000	      1394	80001998	fff58593	addi	x11,x11,-1	 x11:0xfffffffa x11=0xfffffff9
       13965000	      1395	8000199c	ff700513	addi	x10,x0,-9	  x0:0x00000000 x10=0xfffffff7
       13975000	      1396	800019a0	fef00193	addi	x3,x0,-17	  x0:0x00000000  x3=0xffffffef
       13985000	      1397	800019a4	40475cb3	sra	x25,x14,x4	 x14:0xfffffa41  x4:0xffffffff x25=0xffffffff
       13995000	      1398	800019a8	0153ce33	xor	x28,x7,x21	  x7:0x00000636 x21:0xfffffff3 x28=0xfffff9c5
       14005000	      1399	800019ac	41548233	sub	x4,x9,x21	  x9:0x40d9b97c x21:0xfffffff3  x4=0x40d9b989
       14015000	      1400	800019b0	ff850513	addi	x10,x10,-8	 x10:0xfffffff7 x10=0xffffffef
       14025000	      1401	800019b4	f394c293	xori	x5,x9,-199	  x9:0x40d9b97c  x5=0xbf264645
       14035000	      1402	800019b8	018cc0b3	xor	x1,x25,x24	 x25:0xffffffff x24:0x00080000  x1=0xfff7ffff
       14045000	      1403	800019bc	002976b3	and	x13,x18,x2	 x18:0x0000000a  x2:0x0827bffe x13=0x0000000a
       14055000	      1404	800019c0	93fe8813	addi	x16,x29,-1729	 x29:0x00000000 x16=0xfffff93f
       14065000	      1405	800019c4	f8000113	addi	x2,x0,-128	  x0:0x00000000  x2=0xffffff80
       14075000	      1406	800019c8	009c16b3	sll	x13,x24,x9	 x24:0x00080000  x9:0x40d9b97c x13=0x00000000
       14085000	      1407	800019cc	fc350ee3	beq	x10,x3,800019a8	 x10:0xffffffef  x3:0xffffffef
       14095000	      1408	00000000	00000013	addi	x0,x0,0	  x0:0x00000000
       14105000	      1409	800019a4	00000013	addi	x0,x0,0	  x0:0x00000000
       14115000	      1410	800019a8	0153ce33	xor	x28,x7,x21	  x7:0x00000636 x21:0xfffffff3 x28=0xfffff9c5
       14125000	      1411	800019ac	41548233	sub	x4,x9,x21	  x9:0x40d9b97c x21:0xfffffff3  x4=0x40d9b989
       14135000	      1412	800019b0	ff850513	addi	x10,x10,-8	 x10:0xffffffef x10=0xffffffe7
       14145000	      1413	800019b4	f394c293	xori	x5,x9,-199	  x9:0x40d9b97c  x5=0xbf264645
       14155000	      1414	800019b8	018cc0b3	xor	x1,x25,x24	 x25:0xffffffff x24:0x00080000  x1=0xfff7ffff
       14165000	      1415	800019bc	002976b3	and	x13,x18,x2	 x18:0x0000000a  x2:0xffffff80 x13=0x00000000
       14175000	      1416	800019c0	93fe8813	addi	x16,x29,-1729	 x29:0x00000000 x16=0xfffff93f
       14185000	      1417	800019c4	f8000113	addi	x2,x0,-128	  x0:0x00000000  x2=0xffffff80
       14195000	      1418	800019c8	009c16b3	sll	x13,x24,x9	 x24:0x00080000  x9:0x40d9b97c x13=0x00000000
       14205000	      1419	800019cc	fc350ee3	beq	x10,x3,800019a8	 x10:0xffffffe7  x3:0xffffffef
       14215000	      1420	800019d0	fd5580e3	beq	x11,x21,80001990	 x11:0xfffffff9 x21:0xfffffff3
       14225000	      1421	800019d4	375dca13	xori	x20,x27,885	 x27:0x0b2ce000 x20=0x0b2ce375
       14235000	      1422	800019d8	00700413	addi	x8,x0,7	  x0:0x00000000  x8=0x00000007
       14245000	      1423	800019dc	374f2197	auipc	x3,0x374f2	  x3=0xb74f39d8
       14255000	      1424	800019e0	016d8133	add	x2,x27,x22	 x27:0x0b2ce000 x22:0x00000001  x2=0x0b2ce001
       14265000	      1425	800019e4	0098a0b3	slt	x1,x17,x9	 x17:0xf0ed7661  x9:0x40d9b97c  x1=0x00000001
       14275000	      1426	800019e8	ab2a79b7	lui	x19,0xab2a7	 x19=0xab2a7000
       14285000	      1427	800019ec	f8dde793	ori	x15,x27,-115	 x27:0x0b2ce000 x15=0xffffff8d
       14295000	      1428	800019f0	40698ab3	sub	x21,x19,x6	 x19:0xab2a7000  x6:0x0413dfff x21=0xa7169001
       14305000	      1429	800019f4	00200513	addi	x10,x0,2	  x0:0x00000000 x10=0x00000002
       14315000	      1430	800019f8	002a83b3	add	x7,x21,x2	 x21:0xa7169001  x2:0x0b2ce001  x7=0xb2437002
       14325000	      1431	800019fc	fff40413	addi	x8,x8,-1	  x8:0x00000007  x8=0x00000006
       14335000	      1432	80001a00	01930b33	add	x22,x6,x25	  x6:0x0413dfff x25:0xffffffff x22=0x0413dffe
       14345000	      1433	80001a04	009f7033	and	x0,x30,x9	 x30:0x80009f1c  x9:0x40d9b97c
       14355000	      1434	80001a08	00000013	addi	x0,x0,0	  x0:0x00000000
       14365000	      1435	80001a0c	fea476e3	bgeu	x8,x10,800019f8	  x8:0x00000006 x10:0x00000002
       14375000	      1436	00000000	00000013	addi	x0,x0,0	  x0:0x00000000
       14385000	      1437	800019f4	00000013	addi	x0,x0,0	  x0:0x00000000
       14395000	      1438	800019f8	002a83b3	add	x7,x21,x2	 x21:0xa7169001  x2:0x0b2ce001  x7=0xb2437002
       14405000	      1439	800019fc	fff40413	addi	x8,x8,-1	  x8:0x00000006  x8=0x00000005
       14415000	      1440	80001a00	01930b33	add	x22,x6,x25	  x6:0x0413dfff x25:0xffffffff x22=0x0413dffe
       14425000	      1441	80001a04	009f7033	and	x0,x30,x9	 x30:0x80009f1c  x9:0x40d9b97c
       14435000	      1442	80001a08	00000013	addi	x0,x0,0	  x0:0x00000000
       14445000	      1443	80001a0c	fea476e3	bgeu	x8,x10,800019f8	  x8:0x00000005 x10:0x00000002
       14455000	      1444	00000000	00000013	addi	x0,x0,0	  x0:0x00000000
       14465000	      1445	800019f4	00000013	addi	x0,x0,0	  x0:0x00000000
       14475000	      1446	800019f8	002a83b3	add	x7,x21,x2	 x21:0xa7169001  x2:0x0b2ce001  x7=0xb2437002
       14485000	      1447	800019fc	fff40413	addi	x8,x8,-1	  x8:0x00000005  x8=0x00000004
       14495000	      1448	80001a00	01930b33	add	x22,x6,x25	  x6:0x0413dfff x25:0xffffffff x22=0x0413dffe
       14505000	      1449	80001a04	009f7033	and	x0,x30,x9	 x30:0x80009f1c  x9:0x40d9b97c
       14515000	      1450	80001a08	00000013	addi	x0,x0,0	  x0:0x00000000
       14525000	      1451	80001a0c	fea476e3	bgeu	x8,x10,800019f8	  x8:0x00000004 x10:0x00000002
       14535000	      1452	00000000	00000013	addi	x0,x0,0	  x0:0x00000000
       14545000	      1453	800019f4	00000013	addi	x0,x0,0	  x0:0x00000000
       14555000	      1454	800019f8	002a83b3	add	x7,x21,x2	 x21:0xa7169001  x2:0x0b2ce001  x7=0xb2437002
       14565000	      1455	800019fc	fff40413	addi	x8,x8,-1	  x8:0x00000004  x8=0x00000003
       14575000	      1456	80001a00	01930b33	add	x22,x6,x25	  x6:0x0413dfff x25:0xffffffff x22=0x0413dffe
       14585000	      1457	80001a04	009f7033	and	x0,x30,x9	 x30:0x80009f1c  x9:0x40d9b97c
       14595000	      1458	80001a08	00000013	addi	x0,x0,0	  x0:0x00000000
       14605000	      1459	80001a0c	fea476e3	bgeu	x8,x10,800019f8	  x8:0x00000003 x10:0x00000002
       14615000	      1460	00000000	00000013	addi	x0,x0,0	  x0:0x00000000
       14625000	      1461	800019f4	00000013	addi	x0,x0,0	  x0:0x00000000
       14635000	      1462	800019f8	002a83b3	add	x7,x21,x2	 x21:0xa7169001  x2:0x0b2ce001  x7=0xb2437002
       14645000	      1463	800019fc	fff40413	addi	x8,x8,-1	  x8:0x00000003  x8=0x00000002
       14655000	      1464	80001a00	01930b33	add	x22,x6,x25	  x6:0x0413dfff x25:0xffffffff x22=0x0413dffe
       14665000	      1465	80001a04	009f7033	and	x0,x30,x9	 x30:0x80009f1c  x9:0x40d9b97c
       14675000	      1466	80001a08	00000013	addi	x0,x0,0	  x0:0x00000000
       14685000	      1467	80001a0c	fea476e3	bgeu	x8,x10,800019f8	  x8:0x00000002 x10:0x00000002
       14695000	      1468	00000000	00000013	addi	x0,x0,0	  x0:0x00000000
       14705000	      1469	800019f4	00000013	addi	x0,x0,0	  x0:0x00000000
       14715000	      1470	800019f8	002a83b3	add	x7,x21,x2	 x21:0xa7169001  x2:0x0b2ce001  x7=0xb2437002
       14725000	      1471	800019fc	fff40413	addi	x8,x8,-1	  x8:0x00000002  x8=0x00000001
       14735000	      1472	80001a00	01930b33	add	x22,x6,x25	  x6:0x0413dfff x25:0xffffffff x22=0x0413dffe
       14745000	      1473	80001a04	009f7033	and	x0,x30,x9	 x30:0x80009f1c  x9:0x40d9b97c
       14755000	      1474	80001a08	00000013	addi	x0,x0,0	  x0:0x00000000
       14765000	      1475	80001a0c	fea476e3	bgeu	x8,x10,800019f8	  x8:0x00000001 x10:0x00000002
       14775000	      1476	80001a10	00000013	addi	x0,x0,0	  x0:0x00000000
       14785000	      1477	80001a14	ff900c13	addi	x24,x0,-7	  x0:0x00000000 x24=0xfffffff9
       14795000	      1478	80001a18	ebb38397	auipc	x7,0xebb38	  x7=0x6bb39a14
       14805000	      1479	80001a1c	40e5de33	sra	x28,x11,x14	 x11:0xfffffff9 x14:0xfffffa41 x28=0xfffffffc
       14815000	      1480	80001a20	00dc2033	slt	x0,x24,x13	 x24:0xfffffff9 x13:0x00000000
       14825000	      1481	80001a24	c6e9ba37	lui	x20,0xc6e9b	 x20=0xc6e9b000
       14835000	      1482	80001a28	2fe7f693	andi	x13,x15,766	 x15:0xffffff8d x13=0x0000028c
       14845000	      1483	80001a2c	ff600d93	addi	x27,x0,-10	  x0:0x00000000 x27=0xfffffff6
       14855000	      1484	80001a30	019067b3	or	x15,x0,x25	  x0:0x00000000 x25:0xffffffff x15=0xffffffff
       14865000	      1485	80001a34	41b15ab3	sra	x21,x2,x27	  x2:0x0b2ce001 x27:0xfffffff6 x21=0x0000002c
       14875000	      1486	80001a38	007d3833	sltu	x16,x26,x7	 x26:0xffffffec  x7:0x6bb39a14 x16=0x00000000
       14885000	      1487	80001a3c	7110d7b7	lui	x15,0x7110d	 x15=0x7110d000
       14895000	      1488	80001a40	40898933	sub	x18,x19,x8	 x19:0xab2a7000  x8:0x00000001 x18=0xab2a6fff
       14905000	      1489	80001a44	ffcc0c13	addi	x24,x24,-4	 x24:0xfffffff9 x24=0xfffffff5
       14915000	      1490	80001a48	40e2d093	srai	x1,x5,0xe	  x5:0xbf264645  x1=0xfffefc99
       14925000	      1491	80001a4c	00200f93	addi	x31,x0,2	  x0:0x00000000 x31=0x00000002
       14935000	      1492	80001a50	fed00213	addi	x4,x0,-19	  x0:0x00000000  x4=0xffffffed
       14945000	      1493	80001a54	0aa152b7	lui	x5,0xaa15	  x5=0x0aa15000
       14955000	      1494	80001a58	01b78533	add	x10,x15,x27	 x15:0x7110d000 x27:0xfffffff6 x10=0x7110cff6
       14965000	      1495	80001a5c	7923e713	ori	x14,x7,1938	  x7:0x6bb39a14 x14=0x6bb39f96
       14975000	      1496	80001a60	00efa933	slt	x18,x31,x14	 x31:0x00000002 x14:0x6bb39f96 x18=0x00000001
       14985000	      1497	80001a64	ff9f8f93	addi	x31,x31,-7	 x31:0x00000002 x31=0xfffffffb
       14995000	      1498	80001a68	fe4f98e3	bne	x31,x4,80001a58	 x31:0xfffffffb  x4:0xffffffed
       15005000	      1499	00000000	00000013	addi	x0,x0,0	  x0:0x00000000
       15015000	      1500	80001a54	00000013	addi	x0,x0,0	  x0:0x00000000
       15025000	      1501	80001a58	01b78533	add	x10,x15,x27	 x15:0x7110d000 x27:0xfffffff6 x10=0x7110cff6
       15035000	      1502	80001a5c	7923e713	ori	x14,x7,1938	  x7:0x6bb39a14 x14=0x6bb39f96
       15045000	      1503	80001a60	00efa933	slt	x18,x31,x14	 x31:0xfffffffb x14:0x6bb39f96 x18=0x00000001
       15055000	      1504	80001a64	ff9f8f93	addi	x31,x31,-7	 x31:0xfffffffb x31=0xfffffff4
       15065000	      1505	80001a68	fe4f98e3	bne	x31,x4,80001a58	 x31:0xfffffff4  x4:0xffffffed
       15075000	      1506	00000000	00000013	addi	x0,x0,0	  x0:0x00000000
       15085000	      1507	80001a54	00000013	addi	x0,x0,0	  x0:0x00000000
       15095000	      1508	80001a58	01b78533	add	x10,x15,x27	 x15:0x7110d000 x27:0xfffffff6 x10=0x7110cff6
       15105000	      1509	80001a5c	7923e713	ori	x14,x7,1938	  x7:0x6bb39a14 x14=0x6bb39f96
       15115000	      1510	80001a60	00efa933	slt	x18,x31,x14	 x31:0xfffffff4 x14:0x6bb39f96 x18=0x00000001
       15125000	      1511	80001a64	ff9f8f93	addi	x31,x31,-7	 x31:0xfffffff4 x31=0xffffffed
       15135000	      1512	80001a68	fe4f98e3	bne	x31,x4,80001a58	 x31:0xffffffed  x4:0xffffffed
       15145000	      1513	80001a6c	00be0833	add	x16,x28,x11	 x28:0xfffffffc x11:0xfffffff9 x16=0xfffffff5
       15155000	      1514	80001a70	fdbc56e3	bge	x24,x27,80001a3c	 x24:0xfffffff5 x27:0xfffffff6
       15165000	      1515	80001a74	414ed393	srai	x7,x29,0x14	 x29:0x00000000  x7=0x00000000
       15175000	      1516	80001a78	00200113	addi	x2,x0,2	  x0:0x00000000  x2=0x00000002
       15185000	      1517	80001a7c	00200813	addi	x16,x0,2	  x0:0x00000000 x16=0x00000002
       15195000	      1518	80001a80	00a06333	or	x6,x0,x10	  x0:0x00000000 x10:0x7110cff6  x6=0x7110cff6
       15205000	      1519	80001a84	004eea33	or	x20,x29,x4	 x29:0x00000000  x4:0xffffffed x20=0xffffffed
       15215000	      1520	80001a88	01ca5d93	srli	x27,x20,0x1c	 x20:0xffffffed x27=0x0000000f
       15225000	      1521	80001a8c	fff10113	addi	x2,x2,-1	  x2:0x00000002  x2=0x00000001
       15235000	      1522	80001a90	00a00493	addi	x9,x0,10	  x0:0x00000000  x9=0x0000000a
       15245000	      1523	80001a94	00900913	addi	x18,x0,9	  x0:0x00000000 x18=0x00000009
       15255000	      1524	80001a98	019e0433	add	x8,x28,x25	 x28:0xfffffffc x25:0xffffffff  x8=0xfffffffb
       15265000	      1525	80001a9c	00000013	addi	x0,x0,0	  x0:0x00000000
       15275000	      1526	80001aa0	ff848493	addi	x9,x9,-8	  x9:0x0000000a  x9=0x00000002
       15285000	      1527	80001aa4	ff24fce3	bgeu	x9,x18,80001a9c	  x9:0x00000002 x18:0x00000009
       15295000	      1528	80001aa8	01603333	sltu	x6,x0,x22	  x0:0x00000000 x22:0x0413dffe  x6=0x00000001
       15305000	      1529	80001aac	fd017ce3	bgeu	x2,x16,80001a84	  x2:0x00000001 x16:0x00000002
       15315000	      1530	80001ab0	07567193	andi	x3,x12,117	 x12:0x0000000e  x3=0x00000004
       15325000	      1531	80001ab4	015005b3	add	x11,x0,x21	  x0:0x00000000 x21:0x0000002c x11=0x0000002c
       15335000	      1532	80001ab8	41c25d33	sra	x26,x4,x28	  x4:0xffffffed x28:0xfffffffc x26=0xffffffff
       15345000	      1533	80001abc	00447a63	bgeu	x8,x4,80001ad0	  x8:0xfffffffb  x4:0xffffffed
       15355000	      1534	00000000	00000013	addi	x0,x0,0	  x0:0x00000000
       15365000	      1535	80001acc	00000013	addi	x0,x0,0	  x0:0x00000000
       15375000	      1536	80001ad0	00857133	and	x2,x10,x8	 x10:0x7110cff6  x8:0xfffffffb  x2=0x7110cff2
       15385000	      1537	80001ad4	07f48863	beq	x9,x31,80001b44	  x9:0x00000002 x31:0xffffffed
       15395000	      1538	80001ad8	71c2ea93	ori	x21,x5,1820	  x5:0x0aa15000 x21=0x0aa1571c
       15405000	      1539	80001adc	ff700413	addi	x8,x0,-9	  x0:0x00000000  x8=0xfffffff7
       15415000	      1540	80001ae0	f1d56d17	auipc	x26,0xf1d56	 x26=0x71d57adc
       15425000	      1541	80001ae4	01c50fb3	add	x31,x10,x28	 x10:0x7110cff6 x28:0xfffffffc x31=0x7110cff2
       15435000	      1542	80001ae8	016756b3	srl	x13,x14,x22	 x14:0x6bb39f96 x22:0x0413dffe x13=0x00000001
       15445000	      1543	80001aec	00600c13	addi	x24,x0,6	  x0:0x00000000 x24=0x00000006
       15455000	      1544	80001af0	90780993	addi	x19,x16,-1785	 x16:0x00000002 x19=0xfffff909
       15465000	      1545	80001af4	006622b3	slt	x5,x12,x6	 x12:0x0000000e  x6:0x00000001  x5=0x00000000
       15475000	      1546	80001af8	001bd7b3	srl	x15,x23,x1	 x23:0x80009fc4  x1:0xfffefc99 x15=0x00000040
       15485000	      1547	80001afc	00340413	addi	x8,x8,3	  x8:0xfffffff7  x8=0xfffffffa
       15495000	      1548	80001b00	00300613	addi	x12,x0,3	  x0:0x00000000 x12=0x00000003
       15505000	      1549	80001b04	40fe09b3	sub	x19,x28,x15	 x28:0xfffffffc x15:0x00000040 x19=0xffffffbc
       15515000	      1550	80001b08	017dc2b3	xor	x5,x27,x23	 x27:0x0000000f x23:0x80009fc4  x5=0x80009fcb
       15525000	      1551	80001b0c	303ff493	andi	x9,x31,771	 x31:0x7110cff2  x9=0x00000302
       15535000	      1552	80001b10	01b9b6b3	sltu	x13,x19,x27	 x19:0xffffffbc x27:0x0000000f x13=0x00000000
       15545000	      1553	80001b14	003493b3	sll	x7,x9,x3	  x9:0x00000302  x3:0x00000004  x7=0x00003020
       15555000	      1554	80001b18	6b9e3e93	sltiu	x29,x28,1721	 x28:0xfffffffc x29=0x00000000
       15565000	      1555	80001b1c	00a00b13	addi	x22,x0,10	  x0:0x00000000 x22=0x0000000a
       15575000	      1556	80001b20	84b48793	addi	x15,x9,-1973	  x9:0x00000302 x15=0xfffffb4d
       15585000	      1557	80001b24	01f89033	sll	x0,x17,x31	 x17:0xf0ed7661 x31:0x7110cff2
       15595000	      1558	80001b28	002e1013	slli	x0,x28,0x2	 x28:0xfffffffc
       15605000	      1559	80001b2c	00360613	addi	x12,x12,3	 x12:0x00000003 x12=0x00000006
       15615000	      1560	80001b30	ff6668e3	bltu	x12,x22,80001b20	 x12:0x00000006 x22:0x0000000a
       15625000	      1561	00000000	00000013	addi	x0,x0,0	  x0:0x00000000
       15635000	      1562	80001b1c	00000013	addi	x0,x0,0	  x0:0x00000000
       15645000	      1563	80001b20	84b48793	addi	x15,x9,-1973	  x9:0x00000302 x15=0xfffffb4d
       15655000	      1564	80001b24	01f89033	sll	x0,x17,x31	 x17:0xf0ed7661 x31:0x7110cff2
       15665000	      1565	80001b28	002e1013	slli	x0,x28,0x2	 x28:0xfffffffc
       15675000	      1566	80001b2c	00360613	addi	x12,x12,3	 x12:0x00000006 x12=0x00000009
       15685000	      1567	80001b30	ff6668e3	bltu	x12,x22,80001b20	 x12:0x00000009 x22:0x0000000a
       15695000	      1568	00000000	00000013	addi	x0,x0,0	  x0:0x00000000
       15705000	      1569	80001b1c	00000013	addi	x0,x0,0	  x0:0x00000000
       15715000	      1570	80001b20	84b48793	addi	x15,x9,-1973	  x9:0x00000302 x15=0xfffffb4d
       15725000	      1571	80001b24	01f89033	sll	x0,x17,x31	 x17:0xf0ed7661 x31:0x7110cff2
       15735000	      1572	80001b28	002e1013	slli	x0,x28,0x2	 x28:0xfffffffc
       15745000	      1573	80001b2c	00360613	addi	x12,x12,3	 x12:0x00000009 x12=0x0000000c
       15755000	      1574	80001b30	ff6668e3	bltu	x12,x22,80001b20	 x12:0x0000000c x22:0x0000000a
       15765000	      1575	80001b34	01295ab3	srl	x21,x18,x18	 x18:0x00000009 x18:0x00000009 x21=0x00000000
       15775000	      1576	80001b38	fb841ce3	bne	x8,x24,80001af0	  x8:0xfffffffa x24:0x00000006
       15785000	      1577	00000000	00000013	addi	x0,x0,0	  x0:0x00000000
       15795000	      1578	80001aec	00000013	addi	x0,x0,0	  x0:0x00000000
       15805000	      1579	80001af0	90780993	addi	x19,x16,-1785	 x16:0x00000002 x19=0xfffff909
       15815000	      1580	80001af4	006622b3	slt	x5,x12,x6	 x12:0x0000000c  x6:0x00000001  x5=0x00000000
       15825000	      1581	80001af8	001bd7b3	srl	x15,x23,x1	 x23:0x80009fc4  x1:0xfffefc99 x15=0x00000040
       15835000	      1582	80001afc	00340413	addi	x8,x8,3	  x8:0xfffffffa  x8=0xfffffffd
       15845000	      1583	80001b00	00300613	addi	x12,x0,3	  x0:0x00000000 x12=0x00000003
       15855000	      1584	80001b04	40fe09b3	sub	x19,x28,x15	 x28:0xfffffffc x15:0x00000040 x19=0xffffffbc
       15865000	      1585	80001b08	017dc2b3	xor	x5,x27,x23	 x27:0x0000000f x23:0x80009fc4  x5=0x80009fcb
       15875000	      1586	80001b0c	303ff493	andi	x9,x31,771	 x31:0x7110cff2  x9=0x00000302
       15885000	      1587	80001b10	01b9b6b3	sltu	x13,x19,x27	 x19:0xffffffbc x27:0x0000000f x13=0x00000000
       15895000	      1588	80001b14	003493b3	sll	x7,x9,x3	  x9:0x00000302  x3:0x00000004  x7=0x00003020
       15905000	      1589	80001b18	6b9e3e93	sltiu	x29,x28,1721	 x28:0xfffffffc x29=0x00000000
       15915000	      1590	80001b1c	00a00b13	addi	x22,x0,10	  x0:0x00000000 x22=0x0000000a
       15925000	      1591	80001b20	84b48793	addi	x15,x9,-1973	  x9:0x00000302 x15=0xfffffb4d
       15935000	      1592	80001b24	01f89033	sll	x0,x17,x31	 x17:0xf0ed7661 x31:0x7110cff2
       15945000	      1593	80001b28	002e1013	slli	x0,x28,0x2	 x28:0xfffffffc
       15955000	      1594	80001b2c	00360613	addi	x12,x12,3	 x12:0x00000003 x12=0x00000006
       15965000	      1595	80001b30	ff6668e3	bltu	x12,x22,80001b20	 x12:0x00000006 x22:0x0000000a
       15975000	      1596	00000000	00000013	addi	x0,x0,0	  x0:0x00000000
       15985000	      1597	80001b1c	00000013	addi	x0,x0,0	  x0:0x00000000
       15995000	      1598	80001b20	84b48793	addi	x15,x9,-1973	  x9:0x00000302 x15=0xfffffb4d
       16005000	      1599	80001b24	01f89033	sll	x0,x17,x31	 x17:0xf0ed7661 x31:0x7110cff2
       16015000	      1600	80001b28	002e1013	slli	x0,x28,0x2	 x28:0xfffffffc
       16025000	      1601	80001b2c	00360613	addi	x12,x12,3	 x12:0x00000006 x12=0x00000009
       16035000	      1602	80001b30	ff6668e3	bltu	x12,x22,80001b20	 x12:0x00000009 x22:0x0000000a
       16045000	      1603	00000000	00000013	addi	x0,x0,0	  x0:0x00000000
       16055000	      1604	80001b1c	00000013	addi	x0,x0,0	  x0:0x00000000
       16065000	      1605	80001b20	84b48793	addi	x15,x9,-1973	  x9:0x00000302 x15=0xfffffb4d
       16075000	      1606	80001b24	01f89033	sll	x0,x17,x31	 x17:0xf0ed7661 x31:0x7110cff2
       16085000	      1607	80001b28	002e1013	slli	x0,x28,0x2	 x28:0xfffffffc
       16095000	      1608	80001b2c	00360613	addi	x12,x12,3	 x12:0x00000009 x12=0x0000000c
       16105000	      1609	80001b30	ff6668e3	bltu	x12,x22,80001b20	 x12:0x0000000c x22:0x0000000a
       16115000	      1610	80001b34	01295ab3	srl	x21,x18,x18	 x18:0x00000009 x18:0x00000009 x21=0x00000000
       16125000	      1611	80001b38	fb841ce3	bne	x8,x24,80001af0	  x8:0xfffffffd x24:0x00000006
       16135000	      1612	00000000	00000013	addi	x0,x0,0	  x0:0x00000000
       16145000	      1613	80001aec	00000013	addi	x0,x0,0	  x0:0x00000000
       16155000	      1614	80001af0	90780993	addi	x19,x16,-1785	 x16:0x00000002 x19=0xfffff909
       16165000	      1615	80001af4	006622b3	slt	x5,x12,x6	 x12:0x0000000c  x6:0x00000001  x5=0x00000000
       16175000	      1616	80001af8	001bd7b3	srl	x15,x23,x1	 x23:0x80009fc4  x1:0xfffefc99 x15=0x00000040
       16185000	      1617	80001afc	00340413	addi	x8,x8,3	  x8:0xfffffffd  x8=0x00000000
       16195000	      1618	80001b00	00300613	addi	x12,x0,3	  x0:0x00000000 x12=0x00000003
       16205000	      1619	80001b04	40fe09b3	sub	x19,x28,x15	 x28:0xfffffffc x15:0x00000040 x19=0xffffffbc
       16215000	      1620	80001b08	017dc2b3	xor	x5,x27,x23	 x27:0x0000000f x23:0x80009fc4  x5=0x80009fcb
       16225000	      1621	80001b0c	303ff493	andi	x9,x31,771	 x31:0x7110cff2  x9=0x00000302
       16235000	      1622	80001b10	01b9b6b3	sltu	x13,x19,x27	 x19:0xffffffbc x27:0x0000000f x13=0x00000000
       16245000	      1623	80001b14	003493b3	sll	x7,x9,x3	  x9:0x00000302  x3:0x00000004  x7=0x00003020
       16255000	      1624	80001b18	6b9e3e93	sltiu	x29,x28,1721	 x28:0xfffffffc x29=0x00000000
       16265000	      1625	80001b1c	00a00b13	addi	x22,x0,10	  x0:0x00000000 x22=0x0000000a
       16275000	      1626	80001b20	84b48793	addi	x15,x9,-1973	  x9:0x00000302 x15=0xfffffb4d
       16285000	      1627	80001b24	01f89033	sll	x0,x17,x31	 x17:0xf0ed7661 x31:0x7110cff2
       16295000	      1628	80001b28	002e1013	slli	x0,x28,0x2	 x28:0xfffffffc
       16305000	      1629	80001b2c	00360613	addi	x12,x12,3	 x12:0x00000003 x12=0x00000006
       16315000	      1630	80001b30	ff6668e3	bltu	x12,x22,80001b20	 x12:0x00000006 x22:0x0000000a
       16325000	      1631	00000000	00000013	addi	x0,x0,0	  x0:0x00000000
       16335000	      1632	80001b1c	00000013	addi	x0,x0,0	  x0:0x00000000
       16345000	      1633	80001b20	84b48793	addi	x15,x9,-1973	  x9:0x00000302 x15=0xfffffb4d
       16355000	      1634	80001b24	01f89033	sll	x0,x17,x31	 x17:0xf0ed7661 x31:0x7110cff2
       16365000	      1635	80001b28	002e1013	slli	x0,x28,0x2	 x28:0xfffffffc
       16375000	      1636	80001b2c	00360613	addi	x12,x12,3	 x12:0x00000006 x12=0x00000009
       16385000	      1637	80001b30	ff6668e3	bltu	x12,x22,80001b20	 x12:0x00000009 x22:0x0000000a
       16395000	      1638	00000000	00000013	addi	x0,x0,0	  x0:0x00000000
       16405000	      1639	80001b1c	00000013	addi	x0,x0,0	  x0:0x00000000
       16415000	      1640	80001b20	84b48793	addi	x15,x9,-1973	  x9:0x00000302 x15=0xfffffb4d
       16425000	      1641	80001b24	01f89033	sll	x0,x17,x31	 x17:0xf0ed7661 x31:0x7110cff2
       16435000	      1642	80001b28	002e1013	slli	x0,x28,0x2	 x28:0xfffffffc
       16445000	      1643	80001b2c	00360613	addi	x12,x12,3	 x12:0x00000009 x12=0x0000000c
       16455000	      1644	80001b30	ff6668e3	bltu	x12,x22,80001b20	 x12:0x0000000c x22:0x0000000a
       16465000	      1645	80001b34	01295ab3	srl	x21,x18,x18	 x18:0x00000009 x18:0x00000009 x21=0x00000000
       16475000	      1646	80001b38	fb841ce3	bne	x8,x24,80001af0	  x8:0x00000000 x24:0x00000006
       16485000	      1647	00000000	00000013	addi	x0,x0,0	  x0:0x00000000
       16495000	      1648	80001aec	00000013	addi	x0,x0,0	  x0:0x00000000
       16505000	      1649	80001af0	90780993	addi	x19,x16,-1785	 x16:0x00000002 x19=0xfffff909
       16515000	      1650	80001af4	006622b3	slt	x5,x12,x6	 x12:0x0000000c  x6:0x00000001  x5=0x00000000
       16525000	      1651	80001af8	001bd7b3	srl	x15,x23,x1	 x23:0x80009fc4  x1:0xfffefc99 x15=0x00000040
       16535000	      1652	80001afc	00340413	addi	x8,x8,3	  x8:0x00000000  x8=0x00000003
       16545000	      1653	80001b00	00300613	addi	x12,x0,3	  x0:0x00000000 x12=0x00000003
       16555000	      1654	80001b04	40fe09b3	sub	x19,x28,x15	 x28:0xfffffffc x15:0x00000040 x19=0xffffffbc
       16565000	      1655	80001b08	017dc2b3	xor	x5,x27,x23	 x27:0x0000000f x23:0x80009fc4  x5=0x80009fcb
       16575000	      1656	80001b0c	303ff493	andi	x9,x31,771	 x31:0x7110cff2  x9=0x00000302
       16585000	      1657	80001b10	01b9b6b3	sltu	x13,x19,x27	 x19:0xffffffbc x27:0x0000000f x13=0x00000000
       16595000	      1658	80001b14	003493b3	sll	x7,x9,x3	  x9:0x00000302  x3:0x00000004  x7=0x00003020
       16605000	      1659	80001b18	6b9e3e93	sltiu	x29,x28,1721	 x28:0xfffffffc x29=0x00000000
       16615000	      1660	80001b1c	00a00b13	addi	x22,x0,10	  x0:0x00000000 x22=0x0000000a
       16625000	      1661	80001b20	84b48793	addi	x15,x9,-1973	  x9:0x00000302 x15=0xfffffb4d
       16635000	      1662	80001b24	01f89033	sll	x0,x17,x31	 x17:0xf0ed7661 x31:0x7110cff2
       16645000	      1663	80001b28	002e1013	slli	x0,x28,0x2	 x28:0xfffffffc
       16655000	      1664	80001b2c	00360613	addi	x12,x12,3	 x12:0x00000003 x12=0x00000006
       16665000	      1665	80001b30	ff6668e3	bltu	x12,x22,80001b20	 x12:0x00000006 x22:0x0000000a
       16675000	      1666	00000000	00000013	addi	x0,x0,0	  x0:0x00000000
       16685000	      1667	80001b1c	00000013	addi	x0,x0,0	  x0:0x00000000
       16695000	      1668	80001b20	84b48793	addi	x15,x9,-1973	  x9:0x00000302 x15=0xfffffb4d
       16705000	      1669	80001b24	01f89033	sll	x0,x17,x31	 x17:0xf0ed7661 x31:0x7110cff2
       16715000	      1670	80001b28	002e1013	slli	x0,x28,0x2	 x28:0xfffffffc
       16725000	      1671	80001b2c	00360613	addi	x12,x12,3	 x12:0x00000006 x12=0x00000009
       16735000	      1672	80001b30	ff6668e3	bltu	x12,x22,80001b20	 x12:0x00000009 x22:0x0000000a
       16745000	      1673	00000000	00000013	addi	x0,x0,0	  x0:0x00000000
       16755000	      1674	80001b1c	00000013	addi	x0,x0,0	  x0:0x00000000
       16765000	      1675	80001b20	84b48793	addi	x15,x9,-1973	  x9:0x00000302 x15=0xfffffb4d
       16775000	      1676	80001b24	01f89033	sll	x0,x17,x31	 x17:0xf0ed7661 x31:0x7110cff2
       16785000	      1677	80001b28	002e1013	slli	x0,x28,0x2	 x28:0xfffffffc
       16795000	      1678	80001b2c	00360613	addi	x12,x12,3	 x12:0x00000009 x12=0x0000000c
       16805000	      1679	80001b30	ff6668e3	bltu	x12,x22,80001b20	 x12:0x0000000c x22:0x0000000a
       16815000	      1680	80001b34	01295ab3	srl	x21,x18,x18	 x18:0x00000009 x18:0x00000009 x21=0x00000000
       16825000	      1681	80001b38	fb841ce3	bne	x8,x24,80001af0	  x8:0x00000003 x24:0x00000006
       16835000	      1682	00000000	00000013	addi	x0,x0,0	  x0:0x00000000
       16845000	      1683	80001aec	00000013	addi	x0,x0,0	  x0:0x00000000
       16855000	      1684	80001af0	90780993	addi	x19,x16,-1785	 x16:0x00000002 x19=0xfffff909
       16865000	      1685	80001af4	006622b3	slt	x5,x12,x6	 x12:0x0000000c  x6:0x00000001  x5=0x00000000
       16875000	      1686	80001af8	001bd7b3	srl	x15,x23,x1	 x23:0x80009fc4  x1:0xfffefc99 x15=0x00000040
       16885000	      1687	80001afc	00340413	addi	x8,x8,3	  x8:0x00000003  x8=0x00000006
       16895000	      1688	80001b00	00300613	addi	x12,x0,3	  x0:0x00000000 x12=0x00000003
       16905000	      1689	80001b04	40fe09b3	sub	x19,x28,x15	 x28:0xfffffffc x15:0x00000040 x19=0xffffffbc
       16915000	      1690	80001b08	017dc2b3	xor	x5,x27,x23	 x27:0x0000000f x23:0x80009fc4  x5=0x80009fcb
       16925000	      1691	80001b0c	303ff493	andi	x9,x31,771	 x31:0x7110cff2  x9=0x00000302
       16935000	      1692	80001b10	01b9b6b3	sltu	x13,x19,x27	 x19:0xffffffbc x27:0x0000000f x13=0x00000000
       16945000	      1693	80001b14	003493b3	sll	x7,x9,x3	  x9:0x00000302  x3:0x00000004  x7=0x00003020
       16955000	      1694	80001b18	6b9e3e93	sltiu	x29,x28,1721	 x28:0xfffffffc x29=0x00000000
       16965000	      1695	80001b1c	00a00b13	addi	x22,x0,10	  x0:0x00000000 x22=0x0000000a
       16975000	      1696	80001b20	84b48793	addi	x15,x9,-1973	  x9:0x00000302 x15=0xfffffb4d
       16985000	      1697	80001b24	01f89033	sll	x0,x17,x31	 x17:0xf0ed7661 x31:0x7110cff2
       16995000	      1698	80001b28	002e1013	slli	x0,x28,0x2	 x28:0xfffffffc
       17005000	      1699	80001b2c	00360613	addi	x12,x12,3	 x12:0x00000003 x12=0x00000006
       17015000	      1700	80001b30	ff6668e3	bltu	x12,x22,80001b20	 x12:0x00000006 x22:0x0000000a
       17025000	      1701	00000000	00000013	addi	x0,x0,0	  x0:0x00000000
       17035000	      1702	80001b1c	00000013	addi	x0,x0,0	  x0:0x00000000
       17045000	      1703	80001b20	84b48793	addi	x15,x9,-1973	  x9:0x00000302 x15=0xfffffb4d
       17055000	      1704	80001b24	01f89033	sll	x0,x17,x31	 x17:0xf0ed7661 x31:0x7110cff2
       17065000	      1705	80001b28	002e1013	slli	x0,x28,0x2	 x28:0xfffffffc
       17075000	      1706	80001b2c	00360613	addi	x12,x12,3	 x12:0x00000006 x12=0x00000009
       17085000	      1707	80001b30	ff6668e3	bltu	x12,x22,80001b20	 x12:0x00000009 x22:0x0000000a
       17095000	      1708	00000000	00000013	addi	x0,x0,0	  x0:0x00000000
       17105000	      1709	80001b1c	00000013	addi	x0,x0,0	  x0:0x00000000
       17115000	      1710	80001b20	84b48793	addi	x15,x9,-1973	  x9:0x00000302 x15=0xfffffb4d
       17125000	      1711	80001b24	01f89033	sll	x0,x17,x31	 x17:0xf0ed7661 x31:0x7110cff2
       17135000	      1712	80001b28	002e1013	slli	x0,x28,0x2	 x28:0xfffffffc
       17145000	      1713	80001b2c	00360613	addi	x12,x12,3	 x12:0x00000009 x12=0x0000000c
       17155000	      1714	80001b30	ff6668e3	bltu	x12,x22,80001b20	 x12:0x0000000c x22:0x0000000a
       17165000	      1715	80001b34	01295ab3	srl	x21,x18,x18	 x18:0x00000009 x18:0x00000009 x21=0x00000000
       17175000	      1716	80001b38	fb841ce3	bne	x8,x24,80001af0	  x8:0x00000006 x24:0x00000006
       17185000	      1717	80001b3c	002f42b3	xor	x5,x30,x2	 x30:0x80009f1c  x2:0x7110cff2  x5=0xf11050ee
       17195000	      1718	80001b40	019f1e63	bne	x30,x25,80001b5c	 x30:0x80009f1c x25:0xffffffff
       17205000	      1719	00000000	00000013	addi	x0,x0,0	  x0:0x00000000
       17215000	      1720	80001b58	00000013	addi	x0,x0,0	  x0:0x00000000
       17225000	      1721	80001b5c	83677a17	auipc	x20,0x83677	 x20=0x03678b58
       17235000	      1722	80001b60	40225193	srai	x3,x4,0x2	  x4:0xffffffed  x3=0xfffffffb
       17245000	      1723	80001b64	00000013	addi	x0,x0,0	  x0:0x00000000
       17255000	      1724	80001b68	9c977a13	andi	x20,x14,-1591	 x14:0x6bb39f96 x20=0x6bb39980
       17265000	      1725	80001b6c	00c75463	bge	x14,x12,80001b74	 x14:0x6bb39f96 x12:0x0000000c
       17275000	      1726	00000000	00000013	addi	x0,x0,0	  x0:0x00000000
       17285000	      1727	80001b70	00000013	addi	x0,x0,0	  x0:0x00000000
       17295000	      1728	80001b74	8734be93	sltiu	x29,x9,-1933	  x9:0x00000302 x29=0x00000001
       17305000	      1729	80001b78	00000013	addi	x0,x0,0	  x0:0x00000000
       17315000	      1730	80001b7c	02d98663	beq	x19,x13,80001ba8	 x19:0xffffffbc x13:0x00000000
       17325000	      1731	80001b80	00f2d663	bge	x5,x15,80001b8c	  x5:0xf11050ee x15:0xfffffb4d
       17335000	      1732	80001b84	6e973c93	sltiu	x25,x14,1769	 x14:0x6bb39f96 x25=0x00000000
       17345000	      1733	80001b88	055c1263	bne	x24,x21,80001bcc	 x24:0x00000006 x21:0x00000000
       17355000	      1734	00000000	00000013	addi	x0,x0,0	  x0:0x00000000
       17365000	      1735	80001bc8	00000013	addi	x0,x0,0	  x0:0x00000000
       17375000	      1736	80001bcc	012cb6b3	sltu	x13,x25,x18	 x25:0x00000000 x18:0x00000009 x13=0x00000001
       17385000	      1737	80001bd0	000bf133	and	x2,x23,x0	 x23:0x80009fc4  x0:0x00000000  x2=0x00000000
       17395000	      1738	80001bd4	00fa1333	sll	x6,x20,x15	 x20:0x6bb39980 x15:0xfffffb4d  x6=0x73300000
       17405000	      1739	80001bd8	01e23333	sltu	x6,x4,x30	  x4:0xffffffed x30:0x80009f1c  x6=0x00000000
       17415000	      1740	80001bdc	c3e9cd37	lui	x26,0xc3e9c	 x26=0xc3e9c000
       17425000	      1741	80001be0	000999b3	sll	x19,x19,x0	 x19:0xffffffbc  x0:0x00000000 x19=0xffffffbc
       17435000	      1742	80001be4	00b11813	slli	x16,x2,0xb	  x2:0x00000000 x16=0x00000000
       17445000	      1743	80001be8	00000013	addi	x0,x0,0	  x0:0x00000000
       17455000	      1744	80001bec	023b5463	bge	x22,x3,80001c14	 x22:0x0000000a  x3:0xfffffffb
       17465000	      1745	00000000	00000013	addi	x0,x0,0	  x0:0x00000000
       17475000	      1746	80001c10	00000013	addi	x0,x0,0	  x0:0x00000000
       17485000	      1747	80001c14	017b62b3	or	x5,x22,x23	 x22:0x0000000a x23:0x80009fc4  x5=0x80009fce
       17495000	      1748	80001c18	033aa913	slti	x18,x21,51	 x21:0x00000000 x18=0x00000001
       17505000	      1749	80001c1c	00789613	slli	x12,x17,0x7	 x17:0xf0ed7661 x12=0x76bb3080
       17515000	      1750	80001c20	03fad063	bge	x21,x31,80001c40	 x21:0x00000000 x31:0x7110cff2
       17525000	      1751	80001c24	54477c93	andi	x25,x14,1348	 x14:0x6bb39f96 x25=0x00000504
       17535000	      1752	80001c28	002e21b3	slt	x3,x28,x2	 x28:0xfffffffc  x2:0x00000000  x3=0x00000001
       17545000	      1753	80001c2c	01231793	slli	x15,x6,0x12	  x6:0x00000000 x15=0x00000000
       17555000	      1754	80001c30	0128d193	srli	x3,x17,0x12	 x17:0xf0ed7661  x3=0x00003c3b
       17565000	      1755	80001c34	00725913	srli	x18,x4,0x7	  x4:0xffffffed x18=0x01ffffff
       17575000	      1756	80001c38	9567fd13	andi	x26,x15,-1706	 x15:0x00000000 x26=0x00000000
       17585000	      1757	80001c3c	403ed593	srai	x11,x29,0x3	 x29:0x00000001 x11=0x00000000
       17595000	      1758	80001c40	1b740413	addi	x8,x8,439	  x8:0x00000006  x8=0x000001bd
       17605000	      1759	80001c44	00108863	beq	x1,x1,80001c54	  x1:0xfffefc99  x1:0xfffefc99
       17615000	      1760	00000000	00000013	addi	x0,x0,0	  x0:0x00000000
       17625000	      1761	80001c50	00000013	addi	x0,x0,0	  x0:0x00000000
       17635000	      1762	80001c54	0487c463	blt	x15,x8,80001c9c	 x15:0x00000000  x8:0x000001bd
       17645000	      1763	00000000	00000013	addi	x0,x0,0	  x0:0x00000000
       17655000	      1764	80001c98	00000013	addi	x0,x0,0	  x0:0x00000000
       17665000	      1765	80001c9c	41f48833	sub	x16,x9,x31	  x9:0x00000302 x31:0x7110cff2 x16=0x8eef3310
       17675000	      1766	80001ca0	00d29933	sll	x18,x5,x13	  x5:0x80009fce x13:0x00000001 x18=0x00013f9c
       17685000	      1767	80001ca4	00000013	addi	x0,x0,0	  x0:0x00000000
       17695000	      1768	80001ca8	00d99a63	bne	x19,x13,80001cbc	 x19:0xffffffbc x13:0x00000001
       17705000	      1769	00000000	00000013	addi	x0,x0,0	  x0:0x00000000
       17715000	      1770	80001cb8	00000013	addi	x0,x0,0	  x0:0x00000000
       17725000	      1771	80001cbc	00152333	slt	x6,x10,x1	 x10:0x7110cff6  x1:0xfffefc99  x6=0x00000000
       17735000	      1772	80001cc0	4125d0b3	sra	x1,x11,x18	 x11:0x00000000 x18:0x00013f9c  x1=0x00000000
       17745000	      1773	80001cc4	01ec64b3	or	x9,x24,x30	 x24:0x00000006 x30:0x80009f1c  x9=0x80009f1e
       17755000	      1774	80001cc8	00cfc3b3	xor	x7,x31,x12	 x31:0x7110cff2 x12:0x76bb3080  x7=0x07abff72
       17765000	      1775	80001ccc	016a67b3	or	x15,x20,x22	 x20:0x6bb39980 x22:0x0000000a x15=0x6bb3998a
       17775000	      1776	80001cd0	00d5f733	and	x14,x11,x13	 x11:0x00000000 x13:0x00000001 x14=0x00000000
       17785000	      1777	80001cd4	29210437	lui	x8,0x29210	  x8=0x29210000
       17795000	      1778	80001cd8	00e45113	srli	x2,x8,0xe	  x8:0x29210000  x2=0x0000a484
       17805000	      1779	80001cdc	01821733	sll	x14,x4,x24	  x4:0xffffffed x24:0x00000006 x14=0xfffffb40
       17815000	      1780	80001ce0	06033d17	auipc	x26,0x6033	 x26=0x86034cdc
       17825000	      1781	80001ce4	01ea6433	or	x8,x20,x30	 x20:0x6bb39980 x30:0x80009f1c  x8=0xebb39f9c
       17835000	      1782	80001ce8	40805133	sra	x2,x0,x8	  x0:0x00000000  x8:0xebb39f9c  x2=0x00000000
       17845000	      1783	80001cec	78d7aa93	slti	x21,x15,1933	 x15:0x6bb3998a x21=0x00000000
       17855000	      1784	80001cf0	f23c2637	lui	x12,0xf23c2	 x12=0xf23c2000
       17865000	      1785	80001cf4	b16de393	ori	x7,x27,-1258	 x27:0x0000000f  x7=0xfffffb1f
       17875000	      1786	80001cf8	dff16313	ori	x6,x2,-513	  x2:0x00000000  x6=0xfffffdff
       17885000	      1787	80001cfc	05451463	bne	x10,x20,80001d44	 x10:0x7110cff6 x20:0x6bb39980
       17895000	      1788	00000000	00000013	addi	x0,x0,0	  x0:0x00000000
       17905000	      1789	80001d40	00000013	addi	x0,x0,0	  x0:0x00000000
       17915000	      1790	80001d44	00000013	addi	x0,x0,0	  x0:0x00000000
       17925000	      1791	80001d48	41ecd093	srai	x1,x25,0x1e	 x25:0x00000504  x1=0x00000000
       17935000	      1792	80001d4c	0155d463	bge	x11,x21,80001d54	 x11:0x00000000 x21:0x00000000
       17945000	      1793	00000000	00000013	addi	x0,x0,0	  x0:0x00000000
       17955000	      1794	80001d50	00000013	addi	x0,x0,0	  x0:0x00000000
       17965000	      1795	80001d54	8344cd13	xori	x26,x9,-1996	  x9:0x80009f1e x26=0x7fff672a
       17975000	      1796	80001d58	aecc83b7	lui	x7,0xaecc8	  x7=0xaecc8000
       17985000	      1797	80001d5c	04099463	bne	x19,x0,80001da4	 x19:0xffffffbc  x0:0x00000000
       17995000	      1798	00000000	00000013	addi	x0,x0,0	  x0:0x00000000
       18005000	      1799	80001da0	00000013	addi	x0,x0,0	  x0:0x00000000
       18015000	      1800	80001da4	0119cb33	xor	x22,x19,x17	 x19:0xffffffbc x17:0xf0ed7661 x22=0x0f1289dd
       18025000	      1801	80001da8	dc663c93	sltiu	x25,x12,-570	 x12:0xf23c2000 x25=0x00000001
       18035000	      1802	80001dac	00c7e933	or	x18,x15,x12	 x15:0x6bb3998a x12:0xf23c2000 x18=0xfbbfb98a
       18045000	      1803	80001db0	01e384b3	add	x9,x7,x30	  x7:0xaecc8000 x30:0x80009f1c  x9=0x2ecd1f1c
       18055000	      1804	80001db4	01818033	add	x0,x3,x24	  x3:0x00003c3b x24:0x00000006
       18065000	      1805	80001db8	881bc313	xori	x6,x23,-1919	 x23:0x80009fc4  x6=0x7fff6745
       18075000	      1806	80001dbc	01030033	add	x0,x6,x16	  x6:0x7fff6745 x16:0x8eef3310
       18085000	      1807	80001dc0	ef774693	xori	x13,x14,-265	 x14:0xfffffb40 x13=0x000005b7
       18095000	      1808	80001dc4	411ad493	srai	x9,x21,0x11	 x21:0x00000000  x9=0x00000000
       18105000	      1809	80001dc8	41c45433	sra	x8,x8,x28	  x8:0xebb39f9c x28:0xfffffffc  x8=0xfffffffe
       18115000	      1810	80001dcc	6852f413	andi	x8,x5,1669	  x5:0x80009fce  x8=0x00000684
       18125000	      1811	80001dd0	f762c113	xori	x2,x5,-138	  x5:0x80009fce  x2=0x7fff60b8
       18135000	      1812	80001dd4	0113e9b3	or	x19,x7,x17	  x7:0xaecc8000 x17:0xf0ed7661 x19=0xfeedf661
       18145000	      1813	80001dd8	0b127613	andi	x12,x4,177	  x4:0xffffffed x12=0x000000a1
       18155000	      1814	80001ddc	40f68a33	sub	x20,x13,x15	 x13:0x000005b7 x15:0x6bb3998a x20=0x944c6c2d
       18165000	      1815	80001de0	02e26c63	bltu	x4,x14,80001e18	  x4:0xffffffed x14:0xfffffb40
       18175000	      1816	80001de4	631d7793	andi	x15,x26,1585	 x26:0x7fff672a x15=0x00000620
       18185000	      1817	80001de8	41dad513	srai	x10,x21,0x1d	 x21:0x00000000 x10=0x00000000
       18195000	      1818	80001dec	01645b33	srl	x22,x8,x22	  x8:0x00000684 x22:0x0f1289dd x22=0x00000000
       18205000	      1819	80001df0	91707337	lui	x6,0x91707	  x6=0x91707000
       18215000	      1820	80001df4	416a0eb3	sub	x29,x20,x22	 x20:0x944c6c2d x22:0x00000000 x29=0x944c6c2d
       18225000	      1821	80001df8	407a8e33	sub	x28,x21,x7	 x21:0x00000000  x7:0xaecc8000 x28=0x51338000
       18235000	      1822	80001dfc	6d008313	addi	x6,x1,1744	  x1:0x00000000  x6=0x000006d0
       18245000	      1823	80001e00	03ceee63	bltu	x29,x28,80001e3c	 x29:0x944c6c2d x28:0x51338000
       18255000	      1824	80001e04	01924eb3	xor	x29,x4,x25	  x4:0xffffffed x25:0x00000001 x29=0xffffffec
       18265000	      1825	80001e08	04364463	blt	x12,x3,80001e50	 x12:0x000000a1  x3:0x00003c3b
       18275000	      1826	00000000	00000013	addi	x0,x0,0	  x0:0x00000000
       18285000	      1827	80001e4c	00000013	addi	x0,x0,0	  x0:0x00000000
       18295000	      1828	80001e50	355b8f93	addi	x31,x23,853	 x23:0x80009fc4 x31=0x8000a319
       18305000	      1829	80001e54	00be53b3	srl	x7,x28,x11	 x28:0x51338000 x11:0x00000000  x7=0x51338000
       18315000	      1830	80001e58	0146b933	sltu	x18,x13,x20	 x13:0x000005b7 x20:0x944c6c2d x18=0x00000001
       18325000	      1831	80001e5c	05c54463	blt	x10,x28,80001ea4	 x10:0x00000000 x28:0x51338000
       18335000	      1832	00000000	00000013	addi	x0,x0,0	  x0:0x00000000
       18345000	      1833	80001ea0	00000013	addi	x0,x0,0	  x0:0x00000000
       18355000	      1834	80001ea4	017101b3	add	x3,x2,x23	  x2:0x7fff60b8 x23:0x80009fc4  x3=0x0000007c
       18365000	      1835	80001ea8	035f8c63	beq	x31,x21,80001ee0	 x31:0x8000a319 x21:0x00000000
       18375000	      1836	80001eac	00bd6a63	bltu	x26,x11,80001ec0	 x26:0x7fff672a x11:0x00000000
       18385000	      1837	80001eb0	81c7f393	andi	x7,x15,-2020	 x15:0x00000620  x7=0x00000000
       18395000	      1838	80001eb4	01861d93	slli	x27,x12,0x18	 x12:0x000000a1 x27=0xa1000000
       18405000	      1839	80001eb8	024b8463	beq	x23,x4,80001ee0	 x23:0x80009fc4  x4:0xffffffed
       18415000	      1840	80001ebc	b5160493	addi	x9,x12,-1199	 x12:0x000000a1  x9=0xfffffbf2
       18425000	      1841	80001ec0	00ac1293	slli	x5,x24,0xa	 x24:0x00000006  x5=0x00001800
       18435000	      1842	80001ec4	04d40663	beq	x8,x13,80001f10	  x8:0x00000684 x13:0x000005b7
       18445000	      1843	80001ec8	02ae1c63	bne	x28,x10,80001f00	 x28:0x51338000 x10:0x00000000
       18455000	      1844	00000000	00000013	addi	x0,x0,0	  x0:0x00000000
       18465000	      1845	80001efc	00000013	addi	x0,x0,0	  x0:0x00000000
       18475000	      1846	80001f00	db77e613	ori	x12,x15,-585	 x15:0x00000620 x12=0xffffffb7
       18485000	      1847	80001f04	00abb133	sltu	x2,x23,x10	 x23:0x80009fc4 x10:0x00000000  x2=0x00000000
       18495000	      1848	80001f08	00d4c333	xor	x6,x9,x13	  x9:0xfffffbf2 x13:0x000005b7  x6=0xfffffe45
       18505000	      1849	80001f0c	00000013	addi	x0,x0,0	  x0:0x00000000
       18515000	      1850	80001f10	0037c863	blt	x15,x3,80001f20	 x15:0x00000620  x3:0x0000007c
       18525000	      1851	80001f14	01079713	slli	x14,x15,0x10	 x15:0x00000620 x14=0x06200000
       18535000	      1852	80001f18	c5fcf137	lui	x2,0xc5fcf	  x2=0xc5fcf000
       18545000	      1853	80001f1c	a1aa3e93	sltiu	x29,x20,-1510	 x20:0x944c6c2d x29=0x00000001
       18555000	      1854	80001f20	e1794913	xori	x18,x18,-489	 x18:0x00000001 x18=0xfffffe16
       18565000	      1855	80001f24	014794b3	sll	x9,x15,x20	 x15:0x00000620 x20:0x944c6c2d  x9=0x00c40000
       18575000	      1856	80001f28	843e4317	auipc	x6,0x843e4	  x6=0x043e5f24
       18585000	      1857	80001f2c	007fd693	srli	x13,x31,0x7	 x31:0x8000a319 x13=0x01000146
       18595000	      1858	80001f30	00ee0ab3	add	x21,x28,x14	 x28:0x51338000 x14:0x06200000 x21=0x57538000
       18605000	      1859	80001f34	00d19d13	slli	x26,x3,0xd	  x3:0x0000007c x26=0x000f8000
       18615000	      1860	80001f38	05ad6463	bltu	x26,x26,80001f80	 x26:0x000f8000 x26:0x000f8000
       18625000	      1861	80001f3c	01535413	srli	x8,x6,0x15	  x6:0x043e5f24  x8=0x00000021
       18635000	      1862	80001f40	00854733	xor	x14,x10,x8	 x10:0x00000000  x8:0x00000021 x14=0x00000021
       18645000	      1863	80001f44	00f1dfb3	srl	x31,x3,x15	  x3:0x0000007c x15:0x00000620 x31=0x0000007c
       18655000	      1864	80001f48	498ccb13	xori	x22,x25,1176	 x25:0x00000001 x22=0x00000499
       18665000	      1865	80001f4c	02aa5663	bge	x20,x10,80001f78	 x20:0x944c6c2d x10:0x00000000
       18675000	      1866	80001f50	40d5de13	srai	x28,x11,0xd	 x11:0x00000000 x28=0x00000000
       18685000	      1867	80001f54	cc3eee93	ori	x29,x29,-829	 x29:0x00000001 x29=0xfffffcc3
       18695000	      1868	80001f58	4163dfb3	sra	x31,x7,x22	  x7:0x00000000 x22:0x00000499 x31=0x00000000
       18705000	      1869	80001f5c	003b1533	sll	x10,x22,x3	 x22:0x00000499  x3:0x0000007c x10=0x90000000
       18715000	      1870	80001f60	5e150593	addi	x11,x10,1505	 x10:0x90000000 x11=0x900005e1
       18725000	      1871	80001f64	01055213	srli	x4,x10,0x10	 x10:0x90000000  x4=0x00009000
       18735000	      1872	80001f68	00b80663	beq	x16,x11,80001f74	 x16:0x8eef3310 x11:0x900005e1
       18745000	      1873	80001f6c	41d359b3	sra	x19,x6,x29	  x6:0x043e5f24 x29:0xfffffcc3 x19=0x0087cbe4
       18755000	      1874	80001f70	af4a76b7	lui	x13,0xaf4a7	 x13=0xaf4a7000
       18765000	      1875	80001f74	049c1663	bne	x24,x9,80001fc0	 x24:0x00000006  x9:0x00c40000
       18775000	      1876	00000000	00000013	addi	x0,x0,0	  x0:0x00000000
       18785000	      1877	80001fbc	00000013	addi	x0,x0,0	  x0:0x00000000
       18795000	      1878	80001fc0	04a70663	beq	x14,x10,8000200c	 x14:0x00000021 x10:0x90000000
       18805000	      1879	80001fc4	015d1a63	bne	x26,x21,80001fd8	 x26:0x000f8000 x21:0x57538000
       18815000	      1880	00000000	00000013	addi	x0,x0,0	  x0:0x00000000
       18825000	      1881	80001fd4	00000013	addi	x0,x0,0	  x0:0x00000000
       18835000	      1882	80001fd8	db7520b7	lui	x1,0xdb752	  x1=0xdb752000
       18845000	      1883	80001fdc	4026dc93	srai	x25,x13,0x2	 x13:0xaf4a7000 x25=0xebd29c00
       18855000	      1884	80001fe0	0d6bbc13	sltiu	x24,x23,214	 x23:0x80009fc4 x24=0x00000000
       18865000	      1885	80001fe4	01be7c33	and	x24,x28,x27	 x28:0x00000000 x27:0xa1000000 x24=0x00000000
       18875000	      1886	80001fe8	419cd733	sra	x14,x25,x25	 x25:0xebd29c00 x25:0xebd29c00 x14=0xebd29c00
       18885000	      1887	80001fec	00a41933	sll	x18,x8,x10	  x8:0x00000021 x10:0x90000000 x18=0x00000021
       18895000	      1888	80001ff0	00a5bc33	sltu	x24,x11,x10	 x11:0x900005e1 x10:0x90000000 x24=0x00000000
       18905000	      1889	80001ff4	01eafeb3	and	x29,x21,x30	 x21:0x57538000 x30:0x80009f1c x29=0x00008000
       18915000	      1890	80001ff8	04761663	bne	x12,x7,80002044	 x12:0xffffffb7  x7:0x00000000
       18925000	      1891	00000000	00000013	addi	x0,x0,0	  x0:0x00000000
       18935000	      1892	80002040	00000013	addi	x0,x0,0	  x0:0x00000000
       18945000	      1893	80002044	06a1fc63	bgeu	x3,x10,800020bc	  x3:0x0000007c x10:0x90000000
       18955000	      1894	80002048	c22d2693	slti	x13,x26,-990	 x26:0x000f8000 x13=0x00000000
       18965000	      1895	8000204c	00283133	sltu	x2,x16,x2	 x16:0x8eef3310  x2:0xc5fcf000  x2=0x00000001
       18975000	      1896	80002050	ffb00913	addi	x18,x0,-5	  x0:0x00000000 x18=0xfffffffb
       18985000	      1897	80002054	019235b3	sltu	x11,x4,x25	  x4:0x00009000 x25:0xebd29c00 x11=0x00000001
       18995000	      1898	80002058	4099de33	sra	x28,x19,x9	 x19:0x0087cbe4  x9:0x00c40000 x28=0x0087cbe4
       19005000	      1899	8000205c	6e9fac17	auipc	x24,0x6e9fa	 x24=0xee9fc058
       19015000	      1900	80002060	0153fdb3	and	x27,x7,x21	  x7:0x00000000 x21:0x57538000 x27=0x00000000
       19025000	      1901	80002064	01706a33	or	x20,x0,x23	  x0:0x00000000 x23:0x80009fc4 x20=0x80009fc4
       19035000	      1902	80002068	00100493	addi	x9,x0,1	  x0:0x00000000  x9=0x00000001
       19045000	      1903	8000206c	0141a433	slt	x8,x3,x20	  x3:0x0000007c x20:0x80009fc4  x8=0x00000000
       19055000	      1904	80002070	01a50cb3	add	x25,x10,x26	 x10:0x90000000 x26:0x000f8000 x25=0x900f8000
       19065000	      1905	80002074	a47da993	slti	x19,x27,-1465	 x27:0x00000000 x19=0x00000000
       19075000	      1906	80002078	b50f7993	andi	x19,x30,-1200	 x30:0x80009f1c x19=0x80009b10
       19085000	      1907	8000207c	01154c33	xor	x24,x10,x17	 x10:0x90000000 x17:0xf0ed7661 x24=0x60ed7661
       19095000	      1908	80002080	00290913	addi	x18,x18,2	 x18:0xfffffffb x18=0xfffffffd
       19105000	      1909	80002084	001c9a33	sll	x20,x25,x1	 x25:0x900f8000  x1:0xdb752000 x20=0x900f8000
       19115000	      1910	80002088	003a09b3	add	x19,x20,x3	 x20:0x900f8000  x3:0x0000007c x19=0x900f807c
       19125000	      1911	8000208c	00700393	addi	x7,x0,7	  x0:0x00000000  x7=0x00000007
       19135000	      1912	80002090	ffe00d13	addi	x26,x0,-2	  x0:0x00000000 x26=0xfffffffe
       19145000	      1913	80002094	016865b3	or	x11,x16,x22	 x16:0x8eef3310 x22:0x00000499 x11=0x8eef3799
       19155000	      1914	80002098	40cbd013	srai	x0,x23,0xc	 x23:0x80009fc4
       19165000	      1915	8000209c	00000013	addi	x0,x0,0	  x0:0x00000000
       19175000	      1916	800020a0	00e6bb33	sltu	x22,x13,x14	 x13:0x00000000 x14:0xebd29c00 x22=0x00000001
       19185000	      1917	800020a4	ffd38393	addi	x7,x7,-3	  x7:0x00000007  x7=0x00000004
       19195000	      1918	800020a8	ffa38ae3	beq	x7,x26,8000209c	  x7:0x00000004 x26:0xfffffffe
       19205000	      1919	800020ac	00f8c533	xor	x10,x17,x15	 x17:0xf0ed7661 x15:0x00000620 x10=0xf0ed7041
       19215000	      1920	800020b0	fc9942e3	blt	x18,x9,80002074	 x18:0xfffffffd  x9:0x00000001
       19225000	      1921	00000000	00000013	addi	x0,x0,0	  x0:0x00000000
       19235000	      1922	80002070	00000013	addi	x0,x0,0	  x0:0x00000000
       19245000	      1923	80002074	a47da993	slti	x19,x27,-1465	 x27:0x00000000 x19=0x00000000
       19255000	      1924	80002078	b50f7993	andi	x19,x30,-1200	 x30:0x80009f1c x19=0x80009b10
       19265000	      1925	8000207c	01154c33	xor	x24,x10,x17	 x10:0xf0ed7041 x17:0xf0ed7661 x24=0x00000620
       19275000	      1926	80002080	00290913	addi	x18,x18,2	 x18:0xfffffffd x18=0xffffffff
       19285000	      1927	80002084	001c9a33	sll	x20,x25,x1	 x25:0x900f8000  x1:0xdb752000 x20=0x900f8000
       19295000	      1928	80002088	003a09b3	add	x19,x20,x3	 x20:0x900f8000  x3:0x0000007c x19=0x900f807c
       19305000	      1929	8000208c	00700393	addi	x7,x0,7	  x0:0x00000000  x7=0x00000007
       19315000	      1930	80002090	ffe00d13	addi	x26,x0,-2	  x0:0x00000000 x26=0xfffffffe
       19325000	      1931	80002094	016865b3	or	x11,x16,x22	 x16:0x8eef3310 x22:0x00000001 x11=0x8eef3311
       19335000	      1932	80002098	40cbd013	srai	x0,x23,0xc	 x23:0x80009fc4
       19345000	      1933	8000209c	00000013	addi	x0,x0,0	  x0:0x00000000
       19355000	      1934	800020a0	00e6bb33	sltu	x22,x13,x14	 x13:0x00000000 x14:0xebd29c00 x22=0x00000001
       19365000	      1935	800020a4	ffd38393	addi	x7,x7,-3	  x7:0x00000007  x7=0x00000004
       19375000	      1936	800020a8	ffa38ae3	beq	x7,x26,8000209c	  x7:0x00000004 x26:0xfffffffe
       19385000	      1937	800020ac	00f8c533	xor	x10,x17,x15	 x17:0xf0ed7661 x15:0x00000620 x10=0xf0ed7041
       19395000	      1938	800020b0	fc9942e3	blt	x18,x9,80002074	 x18:0xffffffff  x9:0x00000001
       19405000	      1939	00000000	00000013	addi	x0,x0,0	  x0:0x00000000
       19415000	      1940	80002070	00000013	addi	x0,x0,0	  x0:0x00000000
       19425000	      1941	80002074	a47da993	slti	x19,x27,-1465	 x27:0x00000000 x19=0x00000000
       19435000	      1942	80002078	b50f7993	andi	x19,x30,-1200	 x30:0x80009f1c x19=0x80009b10
       19445000	      1943	8000207c	01154c33	xor	x24,x10,x17	 x10:0xf0ed7041 x17:0xf0ed7661 x24=0x00000620
       19455000	      1944	80002080	00290913	addi	x18,x18,2	 x18:0xffffffff x18=0x00000001
       19465000	      1945	80002084	001c9a33	sll	x20,x25,x1	 x25:0x900f8000  x1:0xdb752000 x20=0x900f8000
       19475000	      1946	80002088	003a09b3	add	x19,x20,x3	 x20:0x900f8000  x3:0x0000007c x19=0x900f807c
       19485000	      1947	8000208c	00700393	addi	x7,x0,7	  x0:0x00000000  x7=0x00000007
       19495000	      1948	80002090	ffe00d13	addi	x26,x0,-2	  x0:0x00000000 x26=0xfffffffe
       19505000	      1949	80002094	016865b3	or	x11,x16,x22	 x16:0x8eef3310 x22:0x00000001 x11=0x8eef3311
       19515000	      1950	80002098	40cbd013	srai	x0,x23,0xc	 x23:0x80009fc4
       19525000	      1951	8000209c	00000013	addi	x0,x0,0	  x0:0x00000000
       19535000	      1952	800020a0	00e6bb33	sltu	x22,x13,x14	 x13:0x00000000 x14:0xebd29c00 x22=0x00000001
       19545000	      1953	800020a4	ffd38393	addi	x7,x7,-3	  x7:0x00000007  x7=0x00000004
       19555000	      1954	800020a8	ffa38ae3	beq	x7,x26,8000209c	  x7:0x00000004 x26:0xfffffffe
       19565000	      1955	800020ac	00f8c533	xor	x10,x17,x15	 x17:0xf0ed7661 x15:0x00000620 x10=0xf0ed7041
       19575000	      1956	800020b0	fc9942e3	blt	x18,x9,80002074	 x18:0x00000001  x9:0x00000001
       19585000	      1957	800020b4	000bd513	srli	x10,x23,0x0	 x23:0x80009fc4 x10=0x80009fc4
       19595000	      1958	800020b8	0035d463	bge	x11,x3,800020c0	 x11:0x8eef3311  x3:0x0000007c
       19605000	      1959	800020bc	0133b433	sltu	x8,x7,x19	  x7:0x00000004 x19:0x900f807c  x8=0x00000001
       19615000	      1960	800020c0	05471663	bne	x14,x20,8000210c	 x14:0xebd29c00 x20:0x900f8000
       19625000	      1961	00000000	00000013	addi	x0,x0,0	  x0:0x00000000
       19635000	      1962	80002108	00000013	addi	x0,x0,0	  x0:0x00000000
       19645000	      1963	8000210c	00000013	addi	x0,x0,0	  x0:0x00000000
       19655000	      1964	80002110	3e862e13	slti	x28,x12,1000	 x12:0xffffffb7 x28=0x00000001
       19665000	      1965	80002114	03d39063	bne	x7,x29,80002134	  x7:0x00000004 x29:0x00008000
       19675000	      1966	00000000	00000013	addi	x0,x0,0	  x0:0x00000000
       19685000	      1967	80002130	00000013	addi	x0,x0,0	  x0:0x00000000
       19695000	      1968	80002134	40ced613	srai	x12,x29,0xc	 x29:0x00008000 x12=0x00000008
       19705000	      1969	80002138	000142b3	xor	x5,x2,x0	  x2:0x00000001  x0:0x00000000  x5=0x00000001
       19715000	      1970	8000213c	40d4d4b3	sra	x9,x9,x13	  x9:0x00000001 x13:0x00000000  x9=0x00000001
       19725000	      1971	80002140	02aede63	bge	x29,x10,8000217c	 x29:0x00008000 x10:0x80009fc4
       19735000	      1972	00000000	00000013	addi	x0,x0,0	  x0:0x00000000
       19745000	      1973	80002178	00000013	addi	x0,x0,0	  x0:0x00000000
       19755000	      1974	8000217c	007eeb33	or	x22,x29,x7	 x29:0x00008000  x7:0x00000004 x22=0x00008004
       19765000	      1975	80002180	019a5fb3	srl	x31,x20,x25	 x20:0x900f8000 x25:0x900f8000 x31=0x900f8000
       19775000	      1976	80002184	01f30133	add	x2,x6,x31	  x6:0x043e5f24 x31:0x900f8000  x2=0x944ddf24
       19785000	      1977	80002188	02cbd063	bge	x23,x12,800021a8	 x23:0x80009fc4 x12:0x00000008
       19795000	      1978	8000218c	02db9c63	bne	x23,x13,800021c4	 x23:0x80009fc4 x13:0x00000000
       19805000	      1979	00000000	00000013	addi	x0,x0,0	  x0:0x00000000
       19815000	      1980	800021c0	00000013	addi	x0,x0,0	  x0:0x00000000
       19825000	      1981	800021c4	8e2f0993	addi	x19,x30,-1822	 x30:0x80009f1c x19=0x800097fe
       19835000	      1982	800021c8	836a0d93	addi	x27,x20,-1994	 x20:0x900f8000 x27=0x900f7836
       19845000	      1983	800021cc	411f0e33	sub	x28,x30,x17	 x30:0x80009f1c x17:0xf0ed7661 x28=0x8f1328bb
       19855000	      1984	800021d0	00000013	addi	x0,x0,0	  x0:0x00000000
       19865000	      1985	800021d4	03aef663	bgeu	x29,x26,80002200	 x29:0x00008000 x26:0xfffffffe
       19875000	      1986	800021d8	0311c463	blt	x3,x17,80002200	  x3:0x0000007c x17:0xf0ed7661
       19885000	      1987	800021dc	4072d113	srai	x2,x5,0x7	  x5:0x00000001  x2=0x00000000
       19895000	      1988	800021e0	12790817	auipc	x16,0x12790	 x16=0x927921dc
       19905000	      1989	800021e4	009c7463	bgeu	x24,x9,800021ec	 x24:0x00000620  x9:0x00000001
       19915000	      1990	00000000	00000013	addi	x0,x0,0	  x0:0x00000000
       19925000	      1991	800021e8	00000013	addi	x0,x0,0	  x0:0x00000000
       19935000	      1992	800021ec	00610663	beq	x2,x6,800021f8	  x2:0x00000000  x6:0x043e5f24
       19945000	      1993	800021f0	0c541d17	auipc	x26,0xc541	 x26=0x8c5431ec
       19955000	      1994	800021f4	41348333	sub	x6,x9,x19	  x9:0x00000001 x19:0x800097fe  x6=0x7fff6803
       19965000	      1995	800021f8	07b66863	bltu	x12,x27,80002268	 x12:0x00000008 x27:0x900f7836
       19975000	      1996	00000000	00000013	addi	x0,x0,0	  x0:0x00000000
       19985000	      1997	80002264	00000013	addi	x0,x0,0	  x0:0x00000000
       19995000	      1998	80002268	01fe86b7	lui	x13,0x1fe8	 x13=0x01fe8000
       20005000	      1999	8000226c	11c5e013	ori	x0,x11,284	 x11:0x8eef3311
       20015000	      2000	80002270	014b67b3	or	x15,x22,x20	 x22:0x00008004 x20:0x900f8000 x15=0x900f8004
       20025000	      2001	80002274	01c367b3	or	x15,x6,x28	  x6:0x7fff6803 x28:0x8f1328bb x15=0xffff68bb
       20035000	      2002	80002278	05bd4463	blt	x26,x27,800022c0	 x26:0x8c5431ec x27:0x900f7836
       20045000	      2003	00000000	00000013	addi	x0,x0,0	  x0:0x00000000
       20055000	      2004	800022bc	00000013	addi	x0,x0,0	  x0:0x00000000
       20065000	      2005	800022c0	c4257a13	andi	x20,x10,-958	 x10:0x80009fc4 x20=0x80009c40
       20075000	      2006	800022c4	004e1093	slli	x1,x28,0x4	 x28:0x8f1328bb  x1=0xf1328bb0
       20085000	      2007	800022c8	d524f297	auipc	x5,0xd524f	  x5=0x552512c4
       20095000	      2008	800022cc	031f1e63	bne	x30,x17,80002308	 x30:0x80009f1c x17:0xf0ed7661
       20105000	      2009	00000000	00000013	addi	x0,x0,0	  x0:0x00000000
       20115000	      2010	80002304	00000013	addi	x0,x0,0	  x0:0x00000000
       20125000	      2011	80002308	07a40497	auipc	x9,0x7a40	  x9=0x87a42304
       20135000	      2012	8000230c	01a51513	slli	x10,x10,0x1a	 x10:0x80009fc4 x10=0x10000000
       20145000	      2013	80002310	01c549b3	xor	x19,x10,x28	 x10:0x10000000 x28:0x8f1328bb x19=0x9f1328bb
       20155000	      2014	80002314	41850633	sub	x12,x10,x24	 x10:0x10000000 x24:0x00000620 x12=0x0ffff9e0
       20165000	      2015	80002318	01a3dcb3	srl	x25,x7,x26	  x7:0x00000004 x26:0x8c5431ec x25=0x00000000
       20175000	      2016	8000231c	019f5ab3	srl	x21,x30,x25	 x30:0x80009f1c x25:0x00000000 x21=0x80009f1c
       20185000	      2017	80002320	ffdbae93	slti	x29,x23,-3	 x23:0x80009fc4 x29=0x00000001
       20195000	      2018	80002324	012a9e93	slli	x29,x21,0x12	 x21:0x80009f1c x29=0x7c700000
       20205000	      2019	80002328	035ec463	blt	x29,x21,80002350	 x29:0x7c700000 x21:0x80009f1c
       20215000	      2020	8000232c	6bbfcd93	xori	x27,x31,1723	 x31:0x900f8000 x27=0x900f86bb
       20225000	      2021	80002330	0113a633	slt	x12,x7,x17	  x7:0x00000004 x17:0xf0ed7661 x12=0x00000000
       20235000	      2022	80002334	5a1e0d93	addi	x27,x28,1441	 x28:0x8f1328bb x27=0x8f132e5c
       20245000	      2023	80002338	0fc56197	auipc	x3,0xfc56	  x3=0x8fc58334
       20255000	      2024	8000233c	7ad66913	ori	x18,x12,1965	 x12:0x00000000 x18=0x000007ad
       20265000	      2025	80002340	03604663	blt	x0,x22,8000236c	  x0:0x00000000 x22:0x00008004
       20275000	      2026	00000000	00000013	addi	x0,x0,0	  x0:0x00000000
       20285000	      2027	80002368	00000013	addi	x0,x0,0	  x0:0x00000000
       20295000	      2028	8000236c	516ccc13	xori	x24,x25,1302	 x25:0x00000000 x24=0x00000516
       20305000	      2029	80002370	011544b3	xor	x9,x10,x17	 x10:0x10000000 x17:0xf0ed7661  x9=0xe0ed7661
       20315000	      2030	80002374	402f5313	srai	x6,x30,0x2	 x30:0x80009f1c  x6=0xe00027c7
       20325000	      2031	80002378	004cadb3	slt	x27,x25,x4	 x25:0x00000000  x4:0x00009000 x27=0x00000001
       20335000	      2032	8000237c	00000013	addi	x0,x0,0	  x0:0x00000000
       20345000	      2033	80002380	e379a113	slti	x2,x19,-457	 x19:0x9f1328bb  x2=0x00000001
       20355000	      2034	80002384	00251c13	slli	x24,x10,0x2	 x10:0x10000000 x24=0x40000000
       20365000	      2035	80002388	03f4dc63	bge	x9,x31,800023c0	  x9:0xe0ed7661 x31:0x900f8000
       20375000	      2036	00000000	00000013	addi	x0,x0,0	  x0:0x00000000
       20385000	      2037	800023bc	00000013	addi	x0,x0,0	  x0:0x00000000
       20395000	      2038	800023c0	872d0913	addi	x18,x26,-1934	 x26:0x8c5431ec x18=0x8c542a5e
       20405000	      2039	800023c4	05711463	bne	x2,x23,8000240c	  x2:0x00000001 x23:0x80009fc4
       20415000	      2040	00000000	00000013	addi	x0,x0,0	  x0:0x00000000
       20425000	      2041	80002408	00000013	addi	x0,x0,0	  x0:0x00000000
       20435000	      2042	8000240c	019e9863	bne	x29,x25,8000241c	 x29:0x7c700000 x25:0x00000000
       20445000	      2043	00000000	00000013	addi	x0,x0,0	  x0:0x00000000
       20455000	      2044	80002418	00000013	addi	x0,x0,0	  x0:0x00000000
       20465000	      2045	8000241c	0183d113	srli	x2,x7,0x18	  x7:0x00000004  x2=0x00000000
       20475000	      2046	80002420	ffaeca93	xori	x21,x29,-6	 x29:0x7c700000 x21=0x838ffffa
       20485000	      2047	80002424	aaa11b37	lui	x22,0xaaa11	 x22=0xaaa11000
       20495000	      2048	80002428	02ab6c63	bltu	x22,x10,80002460	 x22:0xaaa11000 x10:0x10000000
       20505000	      2049	8000242c	00dcfa63	bgeu	x25,x13,80002440	 x25:0x00000000 x13:0x01fe8000
       20515000	      2050	80002430	91457d37	lui	x26,0x91457	 x26=0x91457000
       20525000	      2051	80002434	00a90663	beq	x18,x10,80002440	 x18:0x8c542a5e x10:0x10000000
       20535000	      2052	80002438	01f47533	and	x10,x8,x31	  x8:0x00000001 x31:0x900f8000 x10=0x00000000
       20545000	      2053	8000243c	01091cb3	sll	x25,x18,x16	 x18:0x8c542a5e x16:0x927921dc x25=0xe0000000
       20555000	      2054	80002440	00e45463	bge	x8,x14,80002448	  x8:0x00000001 x14:0xebd29c00
       20565000	      2055	00000000	00000013	addi	x0,x0,0	  x0:0x00000000
       20575000	      2056	80002444	00000013	addi	x0,x0,0	  x0:0x00000000
       20585000	      2057	80002448	40885093	srai	x1,x16,0x8	 x16:0x927921dc  x1=0xff927921
       20595000	      2058	8000244c	63b5fe93	andi	x29,x11,1595	 x11:0x8eef3311 x29=0x00000211
       20605000	      2059	80002450	04fc7463	bgeu	x24,x15,80002498	 x24:0x40000000 x15:0xffff68bb
       20615000	      2060	80002454	41a503b3	sub	x7,x10,x26	 x10:0x00000000 x26:0x91457000  x7=0x6eba9000
       20625000	      2061	80002458	7278e337	lui	x6,0x7278e	  x6=0x7278e000
       20635000	      2062	8000245c	4e730a93	addi	x21,x6,1255	  x6:0x7278e000 x21=0x7278e4e7
       20645000	      2063	80002460	019fc433	xor	x8,x31,x25	 x31:0x900f8000 x25:0xe0000000  x8=0x700f8000
       20655000	      2064	80002464	811da013	slti	x0,x27,-2031	 x27:0x00000001
       20665000	      2065	80002468	00981a93	slli	x21,x16,0x9	 x16:0x927921dc x21=0xf243b800
       20675000	      2066	8000246c	ae468693	addi	x13,x13,-1308	 x13:0x01fe8000 x13=0x01fe7ae4
       20685000	      2067	80002470	00000013	addi	x0,x0,0	  x0:0x00000000
       20695000	      2068	80002474	00b00633	add	x12,x0,x11	  x0:0x00000000 x11:0x8eef3311 x12=0x8eef3311
       20705000	      2069	80002478	417781b3	sub	x3,x15,x23	 x15:0xffff68bb x23:0x80009fc4  x3=0x7ffec8f7
       20715000	      2070	8000247c	06f3c417	auipc	x8,0x6f3c	  x8=0x86f3e478
       20725000	      2071	80002480	41a0d1b3	sra	x3,x1,x26	  x1:0xff927921 x26:0x91457000  x3=0xff927921
       20735000	      2072	80002484	002fc133	xor	x2,x31,x2	 x31:0x900f8000  x2:0x00000000  x2=0x900f8000
       20745000	      2073	80002488	40dd5913	srai	x18,x26,0xd	 x26:0x91457000 x18=0xfffc8a2b
       20755000	      2074	8000248c	02a69c63	bne	x13,x10,800024c4	 x13:0x01fe7ae4 x10:0x00000000
       20765000	      2075	00000000	00000013	addi	x0,x0,0	  x0:0x00000000
       20775000	      2076	800024c0	00000013	addi	x0,x0,0	  x0:0x00000000
       20785000	      2077	800024c4	007ee1b3	or	x3,x29,x7	 x29:0x00000211  x7:0x6eba9000  x3=0x6eba9211
       20795000	      2078	800024c8	00a49663	bne	x9,x10,800024d4	  x9:0xe0ed7661 x10:0x00000000
       20805000	      2079	00000000	00000013	addi	x0,x0,0	  x0:0x00000000
       20815000	      2080	800024d0	00000013	addi	x0,x0,0	  x0:0x00000000
       20825000	      2081	800024d4	6d45a5b7	lui	x11,0x6d45a	 x11=0x6d45a000
       20835000	      2082	800024d8	97baea93	ori	x21,x21,-1669	 x21:0xf243b800 x21=0xfffff97b
       20845000	      2083	800024dc	04e96463	bltu	x18,x14,80002524	 x18:0xfffc8a2b x14:0xebd29c00
       20855000	      2084	800024e0	004c0a63	beq	x24,x4,800024f4	 x24:0x40000000  x4:0x00009000
       20865000	      2085	800024e4	003efdb3	and	x27,x29,x3	 x29:0x00000211  x3:0x6eba9211 x27=0x00000211
       20875000	      2086	800024e8	41fb02b3	sub	x5,x22,x31	 x22:0xaaa11000 x31:0x900f8000  x5=0x1a919000
       20885000	      2087	800024ec	c2b7ee37	lui	x28,0xc2b7e	 x28=0xc2b7e000
       20895000	      2088	800024f0	016a5a63	bge	x20,x22,80002504	 x20:0x80009c40 x22:0xaaa11000
       20905000	      2089	800024f4	00e1dc13	srli	x24,x3,0xe	  x3:0x6eba9211 x24=0x0001baea
       20915000	      2090	800024f8	00899e63	bne	x19,x8,80002514	 x19:0x9f1328bb  x8:0x86f3e478
       20925000	      2091	00000000	00000013	addi	x0,x0,0	  x0:0x00000000
       20935000	      2092	80002510	00000013	addi	x0,x0,0	  x0:0x00000000
       20945000	      2093	80002514	4054de13	srai	x28,x9,0x5	  x9:0xe0ed7661 x28=0xff076bb3
       20955000	      2094	80002518	00775663	bge	x14,x7,80002524	 x14:0xebd29c00  x7:0x6eba9000
       20965000	      2095	8000251c	fdd94393	xori	x7,x18,-35	 x18:0xfffc8a2b  x7=0x000375f6
       20975000	      2096	80002520	01262433	slt	x8,x12,x18	 x12:0x8eef3311 x18:0xfffc8a2b  x8=0x00000001
       20985000	      2097	80002524	00000013	addi	x0,x0,0	  x0:0x00000000
       20995000	      2098	80002528	6df48593	addi	x11,x9,1759	  x9:0xe0ed7661 x11=0xe0ed7d40
       21005000	      2099	8000252c	03860663	beq	x12,x24,80002558	 x12:0x8eef3311 x24:0x0001baea
       21015000	      2100	80002530	00df5e93	srli	x29,x30,0xd	 x30:0x80009f1c x29=0x00040004
       21025000	      2101	80002534	00dfafb3	slt	x31,x31,x13	 x31:0x900f8000 x13:0x01fe7ae4 x31=0x00000001
       21035000	      2102	80002538	00121fb3	sll	x31,x4,x1	  x4:0x00009000  x1:0xff927921 x31=0x00012000
       21045000	      2103	8000253c	0081e3b3	or	x7,x3,x8	  x3:0x6eba9211  x8:0x00000001  x7=0x6eba9211
       21055000	      2104	80002540	01573033	sltu	x0,x14,x21	 x14:0xebd29c00 x21:0xfffff97b
       21065000	      2105	80002544	41120833	sub	x16,x4,x17	  x4:0x00009000 x17:0xf0ed7661 x16=0x0f13199f
       21075000	      2106	80002548	0316d463	bge	x13,x17,80002570	 x13:0x01fe7ae4 x17:0xf0ed7661
       21085000	      2107	00000000	00000013	addi	x0,x0,0	  x0:0x00000000
       21095000	      2108	8000256c	00000013	addi	x0,x0,0	  x0:0x00000000
       21105000	      2109	80002570	00e86ab3	or	x21,x16,x14	 x16:0x0f13199f x14:0xebd29c00 x21=0xefd39d9f
       21115000	      2110	80002574	43f6ee93	ori	x29,x13,1087	 x13:0x01fe7ae4 x29=0x01fe7eff
       21125000	      2111	80002578	0152a5b3	slt	x11,x5,x21	  x5:0x1a919000 x21:0xefd39d9f x11=0x00000000
       21135000	      2112	8000257c	018511b3	sll	x3,x10,x24	 x10:0x00000000 x24:0x0001baea  x3=0x00000000
       21145000	      2113	80002580	00bc5213	srli	x4,x24,0xb	 x24:0x0001baea  x4=0x00000037
       21155000	      2114	80002584	c22cab13	slti	x22,x25,-990	 x25:0xe0000000 x22=0x00000001
       21165000	      2115	80002588	410b5293	srai	x5,x22,0x10	 x22:0x00000001  x5=0x00000000
       21175000	      2116	8000258c	386bac13	slti	x24,x23,902	 x23:0x80009fc4 x24=0x00000001
       21185000	      2117	80002590	40e4da13	srai	x20,x9,0xe	  x9:0xe0ed7661 x20=0xffff83b5
       21195000	      2118	80002594	b2062193	slti	x3,x12,-1248	 x12:0x8eef3311  x3=0x00000001
       21205000	      2119	80002598	0035bdb3	sltu	x27,x11,x3	 x11:0x00000000  x3:0x00000001 x27=0x00000001
       21215000	      2120	8000259c	01ea1e93	slli	x29,x20,0x1e	 x20:0xffff83b5 x29=0x40000000
       21225000	      2121	800025a0	01bf6463	bltu	x30,x27,800025a8	 x30:0x80009f1c x27:0x00000001
       21235000	      2122	800025a4	00b32b33	slt	x22,x6,x11	  x6:0x7278e000 x11:0x00000000 x22=0x00000000
       21245000	      2123	800025a8	b7d86e97	auipc	x29,0xb7d86	 x29=0x37d885a4
       21255000	      2124	800025ac	00a69b33	sll	x22,x13,x10	 x13:0x01fe7ae4 x10:0x00000000 x22=0x01fe7ae4
       21265000	      2125	800025b0	28294613	xori	x12,x18,642	 x18:0xfffc8a2b x12=0xfffc88a9
       21275000	      2126	800025b4	7314f613	andi	x12,x9,1841	  x9:0xe0ed7661 x12=0x00000621
       21285000	      2127	800025b8	64c3b013	sltiu	x0,x7,1612	  x7:0x6eba9211
       21295000	      2128	800025bc	000d9d33	sll	x26,x27,x0	 x27:0x00000001  x0:0x00000000 x26=0x00000001
       21305000	      2129	800025c0	e2b96493	ori	x9,x18,-469	 x18:0xfffc8a2b  x9=0xfffffe2b
       21315000	      2130	800025c4	00280533	add	x10,x16,x2	 x16:0x0f13199f  x2:0x900f8000 x10=0x9f22999f
       21325000	      2131	800025c8	b14fea93	ori	x21,x31,-1260	 x31:0x00012000 x21=0xfffffb14
       21335000	      2132	800025cc	02356463	bltu	x10,x3,800025f4	 x10:0x9f22999f  x3:0x00000001
       21345000	      2133	800025d0	24b79137	lui	x2,0x24b79	  x2=0x24b79000
       21355000	      2134	800025d4	40ed51b3	sra	x3,x26,x14	 x26:0x00000001 x14:0xebd29c00  x3=0x00000001
       21365000	      2135	800025d8	1a1f1b37	lui	x22,0x1a1f1	 x22=0x1a1f1000
       21375000	      2136	800025dc	014f30b3	sltu	x1,x30,x20	 x30:0x80009f1c x20:0xffff83b5  x1=0x00000001
       21385000	      2137	800025e0	01324fb3	xor	x31,x4,x19	  x4:0x00000037 x19:0x9f1328bb x31=0x9f13288c
       21395000	      2138	800025e4	00a07eb3	and	x29,x0,x10	  x0:0x00000000 x10:0x9f22999f x29=0x00000000
       21405000	      2139	800025e8	05589663	bne	x17,x21,80002634	 x17:0xf0ed7661 x21:0xfffffb14
       21415000	      2140	00000000	00000013	addi	x0,x0,0	  x0:0x00000000
       21425000	      2141	80002630	00000013	addi	x0,x0,0	  x0:0x00000000
       21435000	      2142	80002634	6f84a713	slti	x14,x9,1784	  x9:0xfffffe2b x14=0x00000001
       21445000	      2143	80002638	018034b3	sltu	x9,x0,x24	  x0:0x00000000 x24:0x00000001  x9=0x00000001
       21455000	      2144	8000263c	41230d33	sub	x26,x6,x18	  x6:0x7278e000 x18:0xfffc8a2b x26=0x727c55d5
       21465000	      2145	80002640	0f3e2d13	slti	x26,x28,243	 x28:0xff076bb3 x26=0x00000001
       21475000	      2146	80002644	051c5463	bge	x24,x17,8000268c	 x24:0x00000001 x17:0xf0ed7661
       21485000	      2147	00000000	00000013	addi	x0,x0,0	  x0:0x00000000
       21495000	      2148	80002688	00000013	addi	x0,x0,0	  x0:0x00000000
       21505000	      2149	8000268c	03844c63	blt	x8,x24,800026c4	  x8:0x00000001 x24:0x00000001
       21515000	      2150	80002690	005bfa63	bgeu	x23,x5,800026a4	 x23:0x80009fc4  x5:0x00000000
       21525000	      2151	00000000	00000013	addi	x0,x0,0	  x0:0x00000000
       21535000	      2152	800026a0	00000013	addi	x0,x0,0	  x0:0x00000000
       21545000	      2153	800026a4	006179b3	and	x19,x2,x6	  x2:0x24b79000  x6:0x7278e000 x19=0x20308000
       21555000	      2154	800026a8	00000013	addi	x0,x0,0	  x0:0x00000000
       21565000	      2155	800026ac	406653b3	sra	x7,x12,x6	 x12:0x00000621  x6:0x7278e000  x7=0x00000621
       21575000	      2156	800026b0	01804663	blt	x0,x24,800026bc	  x0:0x00000000 x24:0x00000001
       21585000	      2157	00000000	00000013	addi	x0,x0,0	  x0:0x00000000
       21595000	      2158	800026b8	00000013	addi	x0,x0,0	  x0:0x00000000
       21605000	      2159	800026bc	4159d793	srai	x15,x19,0x15	 x19:0x20308000 x15=0x00000101
       21615000	      2160	800026c0	017f9013	slli	x0,x31,0x17	 x31:0x9f13288c
       21625000	      2161	800026c4	02d78c63	beq	x15,x13,800026fc	 x15:0x00000101 x13:0x01fe7ae4
       21635000	      2162	800026c8	60ca8693	addi	x13,x21,1548	 x21:0xfffffb14 x13=0x00000120
       21645000	      2163	800026cc	01211613	slli	x12,x2,0x12	  x2:0x24b79000 x12=0x40000000
       21655000	      2164	800026d0	0107d293	srli	x5,x15,0x10	 x15:0x00000101  x5=0x00000000
       21665000	      2165	800026d4	4081d413	srai	x8,x3,0x8	  x3:0x00000001  x8=0x00000000
       21675000	      2166	800026d8	01892733	slt	x14,x18,x24	 x18:0xfffc8a2b x24:0x00000001 x14=0x00000001
       21685000	      2167	800026dc	0539c263	blt	x19,x19,80002720	 x19:0x20308000 x19:0x20308000
       21695000	      2168	800026e0	00053e33	sltu	x28,x10,x0	 x10:0x9f22999f  x0:0x00000000 x28=0x00000000
       21705000	      2169	800026e4	024f9463	bne	x31,x4,8000270c	 x31:0x9f13288c  x4:0x00000037
       21715000	      2170	00000000	00000013	addi	x0,x0,0	  x0:0x00000000
       21725000	      2171	80002708	00000013	addi	x0,x0,0	  x0:0x00000000
       21735000	      2172	8000270c	02945e63	bge	x8,x9,80002748	  x8:0x00000000  x9:0x00000001
       21745000	      2173	80002710	00eb2c33	slt	x24,x22,x14	 x22:0x1a1f1000 x14:0x00000001 x24=0x00000000
       21755000	      2174	80002714	030acd13	xori	x26,x21,48	 x21:0xfffffb14 x26=0xfffffb24
       21765000	      2175	80002718	0130c433	xor	x8,x1,x19	  x1:0x00000001 x19:0x20308000  x8=0x20308001
       21775000	      2176	8000271c	01ca1713	slli	x14,x20,0x1c	 x20:0xffff83b5 x14=0x50000000
       21785000	      2177	80002720	018e44b3	xor	x9,x28,x24	 x28:0x00000000 x24:0x00000000  x9=0x00000000
       21795000	      2178	80002724	400fd333	sra	x6,x31,x0	 x31:0x9f13288c  x0:0x00000000  x6=0x9f13288c
       21805000	      2179	80002728	00bc01b3	add	x3,x24,x11	 x24:0x00000000 x11:0x00000000  x3=0x00000000
       21815000	      2180	8000272c	eba82113	slti	x2,x16,-326	 x16:0x0f13199f  x2=0x00000000
       21825000	      2181	80002730	009395b3	sll	x11,x7,x9	  x7:0x00000621  x9:0x00000000 x11=0x00000621
       21835000	      2182	80002734	012e1663	bne	x28,x18,80002740	 x28:0x00000000 x18:0xfffc8a2b
       21845000	      2183	00000000	00000013	addi	x0,x0,0	  x0:0x00000000
       21855000	      2184	8000273c	00000013	addi	x0,x0,0	  x0:0x00000000
       21865000	      2185	80002740	9896a4b7	lui	x9,0x9896a	  x9=0x9896a000
       21875000	      2186	80002744	00a91613	slli	x12,x18,0xa	 x18:0xfffc8a2b x12=0xf228ac00
       21885000	      2187	80002748	0180e463	bltu	x1,x24,80002750	  x1:0x00000001 x24:0x00000000
       21895000	      2188	8000274c	eb358913	addi	x18,x11,-333	 x11:0x00000621 x18=0x000004d4
       21905000	      2189	80002750	d8c76913	ori	x18,x14,-628	 x14:0x50000000 x18=0xfffffd8c
       21915000	      2190	80002754	0041d7b3	srl	x15,x3,x4	  x3:0x00000000  x4:0x00000037 x15=0x00000000
       21925000	      2191	80002758	41018b33	sub	x22,x3,x16	  x3:0x00000000 x16:0x0f13199f x22=0xf0ece661
       21935000	      2192	8000275c	018a7db3	and	x27,x20,x24	 x20:0xffff83b5 x24:0x00000000 x27=0x00000000
       21945000	      2193	80002760	00924933	xor	x18,x4,x9	  x4:0x00000037  x9:0x9896a000 x18=0x9896a037
       21955000	      2194	80002764	41add6b3	sra	x13,x27,x26	 x27:0x00000000 x26:0xfffffb24 x13=0x00000000
       21965000	      2195	80002768	db98ef93	ori	x31,x17,-583	 x17:0xf0ed7661 x31=0xfffffff9
       21975000	      2196	8000276c	410653b3	sra	x7,x12,x16	 x12:0xf228ac00 x16:0x0f13199f  x7=0xffffffff
       21985000	      2197	80002770	02677063	bgeu	x14,x6,80002790	 x14:0x50000000  x6:0x9f13288c
       21995000	      2198	80002774	03cfcc63	blt	x31,x28,800027ac	 x31:0xfffffff9 x28:0x00000000
       22005000	      2199	00000000	00000013	addi	x0,x0,0	  x0:0x00000000
       22015000	      2200	800027a8	00000013	addi	x0,x0,0	  x0:0x00000000
       22025000	      2201	800027ac	00186663	bltu	x16,x1,800027b8	 x16:0x0f13199f  x1:0x00000001
       22035000	      2202	800027b0	00a075b3	and	x11,x0,x10	  x0:0x00000000 x10:0x9f22999f x11=0x00000000
       22045000	      2203	800027b4	8b324113	xori	x2,x4,-1869	  x4:0x00000037  x2=0xfffff884
       22055000	      2204	800027b8	91eab597	auipc	x11,0x91eab	 x11=0x11ead7b4
       22065000	      2205	800027bc	003c8633	add	x12,x25,x3	 x25:0xe0000000  x3:0x00000000 x12=0xe0000000
       22075000	      2206	800027c0	4134dd93	srai	x27,x9,0x13	  x9:0x9896a000 x27=0xfffff312
       22085000	      2207	800027c4	09d46093	ori	x1,x8,157	  x8:0x20308001  x1=0x2030809d
       22095000	      2208	800027c8	01d63033	sltu	x0,x12,x29	 x12:0xe0000000 x29:0x00000000
       22105000	      2209	800027cc	0b986793	ori	x15,x16,185	 x16:0x0f13199f x15=0x0f1319bf
       22115000	      2210	800027d0	0314d063	bge	x9,x17,800027f0	  x9:0x9896a000 x17:0xf0ed7661
       22125000	      2211	800027d4	38d7c813	xori	x16,x15,909	 x15:0x0f1319bf x16=0x0f131a32
       22135000	      2212	800027d8	04c01463	bne	x0,x12,80002820	  x0:0x00000000 x12:0xe0000000
       22145000	      2213	00000000	00000013	addi	x0,x0,0	  x0:0x00000000
       22155000	      2214	8000281c	00000013	addi	x0,x0,0	  x0:0x00000000
       22165000	      2215	80002820	0118ba33	sltu	x20,x17,x17	 x17:0xf0ed7661 x17:0xf0ed7661 x20=0x00000000
       22175000	      2216	80002824	54043493	sltiu	x9,x8,1344	  x8:0x20308001  x9=0x00000000
       22185000	      2217	80002828	04350463	beq	x10,x3,80002870	 x10:0x9f22999f  x3:0x00000000
       22195000	      2218	8000282c	18527793	andi	x15,x4,389	  x4:0x00000037 x15=0x00000005
       22205000	      2219	80002830	ae947793	andi	x15,x8,-1303	  x8:0x20308001 x15=0x20308001
       22215000	      2220	80002834	01e9a7b3	slt	x15,x19,x30	 x19:0x20308000 x30:0x80009f1c x15=0x00000000
       22225000	      2221	80002838	01cb9fb3	sll	x31,x23,x28	 x23:0x80009fc4 x28:0x00000000 x31=0x80009fc4
       22235000	      2222	8000283c	00851463	bne	x10,x8,80002844	 x10:0x9f22999f  x8:0x20308001
       22245000	      2223	00000000	00000013	addi	x0,x0,0	  x0:0x00000000
       22255000	      2224	80002840	00000013	addi	x0,x0,0	  x0:0x00000000
       22265000	      2225	80002844	010b3db3	sltu	x27,x22,x16	 x22:0xf0ece661 x16:0x0f131a32 x27=0x00000000
       22275000	      2226	80002848	01f31213	slli	x4,x6,0x1f	  x6:0x9f13288c  x4=0x00000000
       22285000	      2227	8000284c	011bd233	srl	x4,x23,x17	 x23:0x80009fc4 x17:0xf0ed7661  x4=0x40004fe2
       22295000	      2228	80002850	0024ed33	or	x26,x9,x2	  x9:0x00000000  x2:0xfffff884 x26=0xfffff884
       22305000	      2229	80002854	7fd18713	addi	x14,x3,2045	  x3:0x00000000 x14=0x000007fd
       22315000	      2230	80002858	003af463	bgeu	x21,x3,80002860	 x21:0xfffffb14  x3:0x00000000
       22325000	      2231	00000000	00000013	addi	x0,x0,0	  x0:0x00000000
       22335000	      2232	8000285c	00000013	addi	x0,x0,0	  x0:0x00000000
       22345000	      2233	80002860	410f0b33	sub	x22,x30,x16	 x30:0x80009f1c x16:0x0f131a32 x22=0x70ed84ea
       22355000	      2234	80002864	41b80733	sub	x14,x16,x27	 x16:0x0f131a32 x27:0x00000000 x14=0x0f131a32
       22365000	      2235	80002868	ddcdf093	andi	x1,x27,-548	 x27:0x00000000  x1=0x00000000
       22375000	      2236	8000286c	00130663	beq	x6,x1,80002878	  x6:0x9f13288c  x1:0x00000000
       22385000	      2237	80002870	40120b33	sub	x22,x4,x1	  x4:0x40004fe2  x1:0x00000000 x22=0x40004fe2
       22395000	      2238	80002874	011703b3	add	x7,x14,x17	 x14:0x0f131a32 x17:0xf0ed7661  x7=0x00009093
       22405000	      2239	80002878	019d0463	beq	x26,x25,80002880	 x26:0xfffff884 x25:0xe0000000
       22415000	      2240	8000287c	c107e493	ori	x9,x15,-1008	 x15:0x00000000  x9=0xfffffc10
       22425000	      2241	80002880	01543e33	sltu	x28,x8,x21	  x8:0x20308001 x21:0xfffffb14 x28=0x00000001
       22435000	      2242	80002884	05fec463	blt	x29,x31,800028cc	 x29:0x00000000 x31:0x80009fc4
       22445000	      2243	80002888	49fae513	ori	x10,x21,1183	 x21:0xfffffb14 x10=0xffffff9f
       22455000	      2244	8000288c	1f9172b7	lui	x5,0x1f917	  x5=0x1f917000
       22465000	      2245	80002890	008e0db3	add	x27,x28,x8	 x28:0x00000001  x8:0x20308001 x27=0x20308002
       22475000	      2246	80002894	00069e13	slli	x28,x13,0x0	 x13:0x00000000 x28=0x00000000
       22485000	      2247	80002898	018f5313	srli	x6,x30,0x18	 x30:0x80009f1c  x6=0x00000080
       22495000	      2248	8000289c	41455c33	sra	x24,x10,x20	 x10:0xffffff9f x20:0x00000000 x24=0xffffff9f
       22505000	      2249	800028a0	1be6be13	sltiu	x28,x13,446	 x13:0x00000000 x28=0x00000001
       22515000	      2250	800028a4	0a81f263	bgeu	x3,x8,80002948	  x3:0x00000000  x8:0x20308001
       22525000	      2251	800028a8	4013d713	srai	x14,x7,0x1	  x7:0x00009093 x14=0x00004849
       22535000	      2252	800028ac	201ff713	andi	x14,x31,513	 x31:0x80009fc4 x14=0x00000200
       22545000	      2253	800028b0	0174f5b3	and	x11,x9,x23	  x9:0xfffffc10 x23:0x80009fc4 x11=0x80009c00
       22555000	      2254	800028b4	9448ed93	ori	x27,x17,-1724	 x17:0xf0ed7661 x27=0xffffff65
       22565000	      2255	800028b8	00000013	addi	x0,x0,0	  x0:0x00000000
       22575000	      2256	800028bc	40535333	sra	x6,x6,x5	  x6:0x00000080  x5:0x1f917000  x6=0x00000080
       22585000	      2257	800028c0	00d35793	srli	x15,x6,0xd	  x6:0x00000080 x15=0x00000000
       22595000	      2258	800028c4	4053d933	sra	x18,x7,x5	  x7:0x00009093  x5:0x1f917000 x18=0x00009093
       22605000	      2259	800028c8	41c9d593	srai	x11,x19,0x1c	 x19:0x20308000 x11=0x00000002
       22615000	      2260	800028cc	00d1f333	and	x6,x3,x13	  x3:0x00000000 x13:0x00000000  x6=0x00000000
       22625000	      2261	800028d0	27b77193	andi	x3,x14,635	 x14:0x00000200  x3=0x00000200
       22635000	      2262	800028d4	002a05b3	add	x11,x20,x2	 x20:0x00000000  x2:0xfffff884 x11=0xfffff884
       22645000	      2263	800028d8	06661e63	bne	x12,x6,80002954	 x12:0xe0000000  x6:0x00000000
       22655000	      2264	00000000	00000013	addi	x0,x0,0	  x0:0x00000000
       22665000	      2265	80002950	00000013	addi	x0,x0,0	  x0:0x00000000
       22675000	      2266	80002954	0219ec63	bltu	x19,x1,8000298c	 x19:0x20308000  x1:0x00000000
       22685000	      2267	80002958	01bc3533	sltu	x10,x24,x27	 x24:0xffffff9f x27:0xffffff65 x10=0x00000000
       22695000	      2268	8000295c	00fc9933	sll	x18,x25,x15	 x25:0xe0000000 x15:0x00000000 x18=0xe0000000
       22705000	      2269	80002960	00752033	slt	x0,x10,x7	 x10:0x00000000  x7:0x00009093
       22715000	      2270	80002964	05946463	bltu	x8,x25,800029ac	  x8:0x20308001 x25:0xe0000000
       22725000	      2271	00000000	00000013	addi	x0,x0,0	  x0:0x00000000
       22735000	      2272	800029a8	00000013	addi	x0,x0,0	  x0:0x00000000
       22745000	      2273	800029ac	00eb5d93	srli	x27,x22,0xe	 x22:0x40004fe2 x27=0x00010001
       22755000	      2274	800029b0	01e2d663	bge	x5,x30,800029bc	  x5:0x1f917000 x30:0x80009f1c
       22765000	      2275	00000000	00000013	addi	x0,x0,0	  x0:0x00000000
       22775000	      2276	800029b8	00000013	addi	x0,x0,0	  x0:0x00000000
       22785000	      2277	800029bc	000fdeb3	srl	x29,x31,x0	 x31:0x80009fc4  x0:0x00000000 x29=0x80009fc4
       22795000	      2278	800029c0	40e40633	sub	x12,x8,x14	  x8:0x20308001 x14:0x00000200 x12=0x20307e01
       22805000	      2279	800029c4	40c55cb3	sra	x25,x10,x12	 x10:0x00000000 x12:0x20307e01 x25=0x00000000
       22815000	      2280	800029c8	e8730393	addi	x7,x6,-377	  x6:0x00000000  x7=0xfffffe87
       22825000	      2281	800029cc	04a44463	blt	x8,x10,80002a14	  x8:0x20308001 x10:0x00000000
       22835000	      2282	800029d0	012c3cb3	sltu	x25,x24,x18	 x24:0xffffff9f x18:0xe0000000 x25=0x00000000
       22845000	      2283	800029d4	0039a633	slt	x12,x19,x3	 x19:0x20308000  x3:0x00000200 x12=0x00000000
       22855000	      2284	800029d8	0199d6b3	srl	x13,x19,x25	 x19:0x20308000 x25:0x00000000 x13=0x20308000
       22865000	      2285	800029dc	00b4c533	xor	x10,x9,x11	  x9:0xfffffc10 x11:0xfffff884 x10=0x00000494
       22875000	      2286	800029e0	0059fe63	bgeu	x19,x5,800029fc	 x19:0x20308000  x5:0x1f917000
       22885000	      2287	00000000	00000013	addi	x0,x0,0	  x0:0x00000000
       22895000	      2288	800029f8	00000013	addi	x0,x0,0	  x0:0x00000000
       22905000	      2289	800029fc	41e25d13	srai	x26,x4,0x1e	  x4:0x40004fe2 x26=0x00000001
       22915000	      2290	80002a00	02557513	andi	x10,x10,37	 x10:0x00000494 x10=0x00000004
       22925000	      2291	80002a04	00369eb3	sll	x29,x13,x3	 x13:0x20308000  x3:0x00000200 x29=0x20308000
       22935000	      2292	80002a08	01aeda63	bge	x29,x26,80002a1c	 x29:0x20308000 x26:0x00000001
       22945000	      2293	00000000	00000013	addi	x0,x0,0	  x0:0x00000000
       22955000	      2294	80002a18	00000013	addi	x0,x0,0	  x0:0x00000000
       22965000	      2295	80002a1c	0483d263	bge	x7,x8,80002a60	  x7:0xfffffe87  x8:0x20308001
       22975000	      2296	80002a20	00b81463	bne	x16,x11,80002a28	 x16:0x0f131a32 x11:0xfffff884
       22985000	      2297	00000000	00000013	addi	x0,x0,0	  x0:0x00000000
       22995000	      2298	80002a24	00000013	addi	x0,x0,0	  x0:0x00000000
       23005000	      2299	80002a28	01dc84b3	add	x9,x25,x29	 x25:0x00000000 x29:0x20308000  x9=0x20308000
       23015000	      2300	80002a2c	41a88d33	sub	x26,x17,x26	 x17:0xf0ed7661 x26:0x00000001 x26=0xf0ed7660
       23025000	      2301	80002a30	01015663	bge	x2,x16,80002a3c	  x2:0xfffff884 x16:0x0f131a32
       23035000	      2302	80002a34	d50f8f93	addi	x31,x31,-688	 x31:0x80009fc4 x31=0x80009d14
       23045000	      2303	80002a38	00f7a2b3	slt	x5,x15,x15	 x15:0x00000000 x15:0x00000000  x5=0x00000000
       23055000	      2304	80002a3c	4454ee37	lui	x28,0x4454e	 x28=0x4454e000
       23065000	      2305	80002a40	0322cc63	blt	x5,x18,80002a78	  x5:0x00000000 x18:0xe0000000
       23075000	      2306	80002a44	0061dab3	srl	x21,x3,x6	  x3:0x00000200  x6:0x00000000 x21=0x00000200
       23085000	      2307	80002a48	013e9833	sll	x16,x29,x19	 x29:0x20308000 x19:0x20308000 x16=0x20308000
       23095000	      2308	80002a4c	4ef3db37	lui	x22,0x4ef3d	 x22=0x4ef3d000
       23105000	      2309	80002a50	01e10c33	add	x24,x2,x30	  x2:0xfffff884 x30:0x80009f1c x24=0x800097a0
       23115000	      2310	80002a54	00155e93	srli	x29,x10,0x1	 x10:0x00000004 x29=0x00000002
       23125000	      2311	80002a58	012c9fb3	sll	x31,x25,x18	 x25:0x00000000 x18:0xe0000000 x31=0x00000000
       23135000	      2312	80002a5c	16a65e37	lui	x28,0x16a65	 x28=0x16a65000
       23145000	      2313	80002a60	e2245137	lui	x2,0xe2245	  x2=0xe2245000
       23155000	      2314	80002a64	00000013	addi	x0,x0,0	  x0:0x00000000
       23165000	      2315	80002a68	01e0e663	bltu	x1,x30,80002a74	  x1:0x00000000 x30:0x80009f1c
       23175000	      2316	00000000	00000013	addi	x0,x0,0	  x0:0x00000000
       23185000	      2317	80002a70	00000013	addi	x0,x0,0	  x0:0x00000000
       23195000	      2318	80002a74	17ccee13	ori	x28,x25,380	 x25:0x00000000 x28=0x0000017c
       23205000	      2319	80002a78	010ce733	or	x14,x25,x16	 x25:0x00000000 x16:0x20308000 x14=0x20308000
       23215000	      2320	80002a7c	01e91a13	slli	x20,x18,0x1e	 x18:0xe0000000 x20=0x00000000
       23225000	      2321	80002a80	e465ef93	ori	x31,x11,-442	 x11:0xfffff884 x31=0xfffffec6
       23235000	      2322	80002a84	00442db3	slt	x27,x8,x4	  x8:0x20308001  x4:0x40004fe2 x27=0x00000001
       23245000	      2323	80002a88	0536e663	bltu	x13,x19,80002ad4	 x13:0x20308000 x19:0x20308000
       23255000	      2324	80002a8c	00000013	addi	x0,x0,0	  x0:0x00000000
       23265000	      2325	80002a90	019bd693	srli	x13,x23,0x19	 x23:0x80009fc4 x13=0x00000040
       23275000	      2326	80002a94	03fe0c63	beq	x28,x31,80002acc	 x28:0x0000017c x31:0xfffffec6
       23285000	      2327	80002a98	031e4463	blt	x28,x17,80002ac0	 x28:0x0000017c x17:0xf0ed7661
       23295000	      2328	80002a9c	03b00713	addi	x14,x0,59	  x0:0x00000000 x14=0x0000003b
       23305000	      2329	80002aa0	01f00a63	beq	x0,x31,80002ab4	  x0:0x00000000 x31:0xfffffec6
       23315000	      2330	80002aa4	0134d933	srl	x18,x9,x19	  x9:0x20308000 x19:0x20308000 x18=0x20308000
       23325000	      2331	80002aa8	76370c93	addi	x25,x14,1891	 x14:0x0000003b x25=0x0000079e
       23335000	      2332	80002aac	b1522113	slti	x2,x4,-1259	  x4:0x40004fe2  x2=0x00000000
       23345000	      2333	80002ab0	96680293	addi	x5,x16,-1690	 x16:0x20308000  x5=0x20307966
       23355000	      2334	80002ab4	01d761b3	or	x3,x14,x29	 x14:0x0000003b x29:0x00000002  x3=0x0000003b
       23365000	      2335	80002ab8	00d1dab3	srl	x21,x3,x13	  x3:0x0000003b x13:0x00000040 x21=0x0000003b
       23375000	      2336	80002abc	016b1a93	slli	x21,x22,0x16	 x22:0x4ef3d000 x21=0x00000000
       23385000	      2337	80002ac0	0030c933	xor	x18,x1,x3	  x1:0x00000000  x3:0x0000003b x18=0x0000003b
       23395000	      2338	80002ac4	02fcde63	bge	x25,x15,80002b00	 x25:0x0000079e x15:0x00000000
       23405000	      2339	00000000	00000013	addi	x0,x0,0	  x0:0x00000000
       23415000	      2340	80002afc	00000013	addi	x0,x0,0	  x0:0x00000000
       23425000	      2341	80002b00	417f03b3	sub	x7,x30,x23	 x30:0x80009f1c x23:0x80009fc4  x7=0xffffff58
       23435000	      2342	80002b04	d49c7013	andi	x0,x24,-695	 x24:0x800097a0
       23445000	      2343	80002b08	e0ecad13	slti	x26,x25,-498	 x25:0x0000079e x26=0x00000000
       23455000	      2344	80002b0c	01975513	srli	x10,x14,0x19	 x14:0x0000003b x10=0x00000000
       23465000	      2345	80002b10	01d4e4b3	or	x9,x9,x29	  x9:0x20308000 x29:0x00000002  x9=0x20308002
       23475000	      2346	80002b14	471bb917	auipc	x18,0x471bb	 x18=0xc71bdb10
       23485000	      2347	80002b18	001c0463	beq	x24,x1,80002b20	 x24:0x800097a0  x1:0x00000000
       23495000	      2348	80002b1c	c44ef293	andi	x5,x29,-956	 x29:0x00000002  x5=0x00000000
       23505000	      2349	80002b20	009b0db3	add	x27,x22,x9	 x22:0x4ef3d000  x9:0x20308002 x27=0x6f245002
       23515000	      2350	80002b24	01334cb3	xor	x25,x6,x19	  x6:0x00000000 x19:0x20308000 x25=0x20308000
       23525000	      2351	80002b28	01f6d433	srl	x8,x13,x31	 x13:0x00000040 x31:0xfffffec6  x8=0x00000001
       23535000	      2352	80002b2c	01aef233	and	x4,x29,x26	 x29:0x00000002 x26:0x00000000  x4=0x00000000
       23545000	      2353	80002b30	01bb9a63	bne	x23,x27,80002b44	 x23:0x80009fc4 x27:0x6f245002
       23555000	      2354	00000000	00000013	addi	x0,x0,0	  x0:0x00000000
       23565000	      2355	80002b40	00000013	addi	x0,x0,0	  x0:0x00000000
       23575000	      2356	80002b44	5cebb697	auipc	x13,0x5cebb	 x13=0xdcebdb40
       23585000	      2357	80002b48	409303b3	sub	x7,x6,x9	  x6:0x00000000  x9:0x20308002  x7=0xdfcf7ffe
       23595000	      2358	80002b4c	01b99f93	slli	x31,x19,0x1b	 x19:0x20308000 x31=0x00000000
       23605000	      2359	80002b50	00000013	addi	x0,x0,0	  x0:0x00000000
       23615000	      2360	80002b54	4196d593	srai	x11,x13,0x19	 x13:0xdcebdb40 x11=0xffffffee
       23625000	      2361	80002b58	e6c0c313	xori	x6,x1,-404	  x1:0x00000000  x6=0xfffffe6c
       23635000	      2362	80002b5c	010715b3	sll	x11,x14,x16	 x14:0x0000003b x16:0x20308000 x11=0x0000003b
       23645000	      2363	80002b60	d3074313	xori	x6,x14,-720	 x14:0x0000003b  x6=0xfffffd0b
       23655000	      2364	80002b64	014c25b3	slt	x11,x24,x20	 x24:0x800097a0 x20:0x00000000 x11=0x00000001
       23665000	      2365	80002b68	01354663	blt	x10,x19,80002b74	 x10:0x00000000 x19:0x20308000
       23675000	      2366	00000000	00000013	addi	x0,x0,0	  x0:0x00000000
       23685000	      2367	80002b70	00000013	addi	x0,x0,0	  x0:0x00000000
       23695000	      2368	80002b74	b62ffa93	andi	x21,x31,-1182	 x31:0x00000000 x21=0x00000000
       23705000	      2369	80002b78	0025f5b3	and	x11,x11,x2	 x11:0x00000001  x2:0x00000000 x11=0x00000000
       23715000	      2370	80002b7c	405551b3	sra	x3,x10,x5	 x10:0x00000000  x5:0x00000000  x3=0x00000000
       23725000	      2371	80002b80	01da5eb3	srl	x29,x20,x29	 x20:0x00000000 x29:0x00000002 x29=0x00000000
       23735000	      2372	80002b84	011a9863	bne	x21,x17,80002b94	 x21:0x00000000 x17:0xf0ed7661
       23745000	      2373	00000000	00000013	addi	x0,x0,0	  x0:0x00000000
       23755000	      2374	80002b90	00000013	addi	x0,x0,0	  x0:0x00000000
       23765000	      2375	80002b94	a7c5a013	slti	x0,x11,-1412	 x11:0x00000000
       23775000	      2376	80002b98	016ab0b3	sltu	x1,x21,x22	 x21:0x00000000 x22:0x4ef3d000  x1=0x00000001
       23785000	      2377	80002b9c	8de5c113	xori	x2,x11,-1826	 x11:0x00000000  x2=0xfffff8de
       23795000	      2378	80002ba0	000b9c13	slli	x24,x23,0x0	 x23:0x80009fc4 x24=0x80009fc4
       23805000	      2379	80002ba4	011b0e63	beq	x22,x17,80002bc0	 x22:0x4ef3d000 x17:0xf0ed7661
       23815000	      2380	80002ba8	00000013	addi	x0,x0,0	  x0:0x00000000
       23825000	      2381	80002bac	0bf46913	ori	x18,x8,191	  x8:0x00000001 x18=0x000000bf
       23835000	      2382	80002bb0	1bc7c7b7	lui	x15,0x1bc7c	 x15=0x1bc7c000
       23845000	      2383	80002bb4	00318a63	beq	x3,x3,80002bc8	  x3:0x00000000  x3:0x00000000
       23855000	      2384	00000000	00000013	addi	x0,x0,0	  x0:0x00000000
       23865000	      2385	80002bc4	00000013	addi	x0,x0,0	  x0:0x00000000
       23875000	      2386	80002bc8	003c6733	or	x14,x24,x3	 x24:0x80009fc4  x3:0x00000000 x14=0x80009fc4
       23885000	      2387	80002bcc	00000013	addi	x0,x0,0	  x0:0x00000000
       23895000	      2388	80002bd0	03031c63	bne	x6,x16,80002c08	  x6:0xfffffd0b x16:0x20308000
       23905000	      2389	00000000	00000013	addi	x0,x0,0	  x0:0x00000000
       23915000	      2390	80002c04	00000013	addi	x0,x0,0	  x0:0x00000000
       23925000	      2391	80002c08	00e83533	sltu	x10,x16,x14	 x16:0x20308000 x14:0x80009fc4 x10=0x00000001
       23935000	      2392	80002c0c	01554d33	xor	x26,x10,x21	 x10:0x00000001 x21:0x00000000 x26=0x00000001
       23945000	      2393	80002c10	00b546b3	xor	x13,x10,x11	 x10:0x00000001 x11:0x00000000 x13=0x00000001
       23955000	      2394	80002c14	008616b3	sll	x13,x12,x8	 x12:0x00000000  x8:0x00000001 x13=0x00000000
       23965000	      2395	80002c18	01d0ae33	slt	x28,x1,x29	  x1:0x00000001 x29:0x00000000 x28=0x00000000
       23975000	      2396	80002c1c	0011e7b3	or	x15,x3,x1	  x3:0x00000000  x1:0x00000001 x15=0x00000001
       23985000	      2397	80002c20	01d874b3	and	x9,x16,x29	 x16:0x20308000 x29:0x00000000  x9=0x00000000
       23995000	      2398	80002c24	04228193	addi	x3,x5,66	  x5:0x00000000  x3=0x00000042
       24005000	      2399	80002c28	99f40713	addi	x14,x8,-1633	  x8:0x00000001 x14=0xfffff9a0
       24015000	      2400	80002c2c	032ce663	bltu	x25,x18,80002c58	 x25:0x20308000 x18:0x000000bf
       24025000	      2401	80002c30	7537fc13	andi	x24,x15,1875	 x15:0x00000001 x24=0x00000001
       24035000	      2402	80002c34	01168433	add	x8,x13,x17	 x13:0x00000000 x17:0xf0ed7661  x8=0xf0ed7661
       24045000	      2403	80002c38	03a57463	bgeu	x10,x26,80002c60	 x10:0x00000001 x26:0x00000001
       24055000	      2404	00000000	00000013	addi	x0,x0,0	  x0:0x00000000
       24065000	      2405	80002c5c	00000013	addi	x0,x0,0	  x0:0x00000000
       24075000	      2406	80002c60	03f34063	blt	x6,x31,80002c80	  x6:0xfffffd0b x31:0x00000000
       24085000	      2407	00000000	00000013	addi	x0,x0,0	  x0:0x00000000
       24095000	      2408	80002c7c	00000013	addi	x0,x0,0	  x0:0x00000000
       24105000	      2409	80002c80	04c41663	bne	x8,x12,80002ccc	  x8:0xf0ed7661 x12:0x00000000
       24115000	      2410	00000000	00000013	addi	x0,x0,0	  x0:0x00000000
       24125000	      2411	80002cc8	00000013	addi	x0,x0,0	  x0:0x00000000
       24135000	      2412	80002ccc	04b64463	blt	x12,x11,80002d14	 x12:0x00000000 x11:0x00000000
       24145000	      2413	80002cd0	41c5dab3	sra	x21,x11,x28	 x11:0x00000000 x28:0x00000000 x21=0x00000000
       24155000	      2414	80002cd4	417bdc13	srai	x24,x23,0x17	 x23:0x80009fc4 x24=0xffffff00
       24165000	      2415	80002cd8	4de95a97	auipc	x21,0x4de95	 x21=0xcde97cd4
       24175000	      2416	80002cdc	637f2393	slti	x7,x30,1591	 x30:0x80009f1c  x7=0x00000001
       24185000	      2417	80002ce0	b9f5d437	lui	x8,0xb9f5d	  x8=0xb9f5d000
       24195000	      2418	80002ce4	e506f1b7	lui	x3,0xe506f	  x3=0xe506f000
       24205000	      2419	80002ce8	98b03c93	sltiu	x25,x0,-1653	  x0:0x00000000 x25=0x00000001
       24215000	      2420	80002cec	40b885b3	sub	x11,x17,x11	 x17:0xf0ed7661 x11:0x00000000 x11=0xf0ed7661
       24225000	      2421	80002cf0	006767b3	or	x15,x14,x6	 x14:0xfffff9a0  x6:0xfffffd0b x15=0xfffffdab
       24235000	      2422	80002cf4	0174bd33	sltu	x26,x9,x23	  x9:0x00000000 x23:0x80009fc4 x26=0x00000001
       24245000	      2423	80002cf8	01237233	and	x4,x6,x18	  x6:0xfffffd0b x18:0x000000bf  x4=0x0000000b
       24255000	      2424	80002cfc	01459e13	slli	x28,x11,0x14	 x11:0xf0ed7661 x28=0x66100000
       24265000	      2425	80002d00	00000013	addi	x0,x0,0	  x0:0x00000000
       24275000	      2426	80002d04	d5fa7a13	andi	x20,x20,-673	 x20:0x00000000 x20=0x00000000
       24285000	      2427	80002d08	401284b3	sub	x9,x5,x1	  x5:0x00000000  x1:0x00000001  x9=0xffffffff
       24295000	      2428	80002d0c	db5a8293	addi	x5,x21,-587	 x21:0xcde97cd4  x5=0xcde97a89
       24305000	      2429	80002d10	00d83633	sltu	x12,x16,x13	 x16:0x20308000 x13:0x00000000 x12=0x00000000
       24315000	      2430	80002d14	00724c33	xor	x24,x4,x7	  x4:0x0000000b  x7:0x00000001 x24=0x0000000a
       24325000	      2431	80002d18	00395033	srl	x0,x18,x3	 x18:0x000000bf  x3:0xe506f000
       24335000	      2432	80002d1c	016853b3	srl	x7,x16,x22	 x16:0x20308000 x22:0x4ef3d000  x7=0x20308000
       24345000	      2433	80002d20	00b81733	sll	x14,x16,x11	 x16:0x20308000 x11:0xf0ed7661 x14=0x40610000
       24355000	      2434	80002d24	cb5c0793	addi	x15,x24,-843	 x24:0x0000000a x15=0xfffffcbf
       24365000	      2435	80002d28	4ab1ba13	sltiu	x20,x3,1195	  x3:0xe506f000 x20=0x00000000
       24375000	      2436	80002d2c	009ac463	blt	x21,x9,80002d34	 x21:0xcde97cd4  x9:0xffffffff
       24385000	      2437	00000000	00000013	addi	x0,x0,0	  x0:0x00000000
       24395000	      2438	80002d30	00000013	addi	x0,x0,0	  x0:0x00000000
       24405000	      2439	80002d34	003ec2b3	xor	x5,x29,x3	 x29:0x00000000  x3:0xe506f000  x5=0xe506f000
       24415000	      2440	80002d38	011c7433	and	x8,x24,x17	 x24:0x0000000a x17:0xf0ed7661  x8=0x00000000
       24425000	      2441	80002d3c	00531d33	sll	x26,x6,x5	  x6:0xfffffd0b  x5:0xe506f000 x26=0xfffffd0b
       24435000	      2442	80002d40	01d14033	xor	x0,x2,x29	  x2:0xfffff8de x29:0x00000000
       24445000	      2443	80002d44	ec9ccc13	xori	x24,x25,-311	 x25:0x00000001 x24=0xfffffec8
       24455000	      2444	80002d48	05f87463	bgeu	x16,x31,80002d90	 x16:0x20308000 x31:0x00000000
       24465000	      2445	00000000	00000013	addi	x0,x0,0	  x0:0x00000000
       24475000	      2446	80002d8c	00000013	addi	x0,x0,0	  x0:0x00000000
       24485000	      2447	80002d90	c6c009b7	lui	x19,0xc6c00	 x19=0xc6c00000
       24495000	      2448	80002d94	008bd663	bge	x23,x8,80002da0	 x23:0x80009fc4  x8:0x00000000
       24505000	      2449	80002d98	c8336393	ori	x7,x6,-893	  x6:0xfffffd0b  x7=0xfffffd8b
       24515000	      2450	80002d9c	40e70333	sub	x6,x14,x14	 x14:0x40610000 x14:0x40610000  x6=0x00000000
       24525000	      2451	80002da0	05e89663	bne	x17,x30,80002dec	 x17:0xf0ed7661 x30:0x80009f1c
       24535000	      2452	00000000	00000013	addi	x0,x0,0	  x0:0x00000000
       24545000	      2453	80002de8	00000013	addi	x0,x0,0	  x0:0x00000000
       24555000	      2454	80002dec	00311313	slli	x6,x2,0x3	  x2:0xfffff8de  x6=0xffffc6f0
       24565000	      2455	80002df0	0412e263	bltu	x5,x1,80002e34	  x5:0xe506f000  x1:0x00000001
       24575000	      2456	80002df4	01ff4fb3	xor	x31,x30,x31	 x30:0x80009f1c x31:0x00000000 x31=0x80009f1c
       24585000	      2457	80002df8	001f9c13	slli	x24,x31,0x1	 x31:0x80009f1c x24=0x00013e38
       24595000	      2458	80002dfc	000f1db3	sll	x27,x30,x0	 x30:0x80009f1c  x0:0x00000000 x27=0x80009f1c
       24605000	      2459	80002e00	015d3033	sltu	x0,x26,x21	 x26:0xfffffd0b x21:0xcde97cd4
       24615000	      2460	80002e04	e81aa717	auipc	x14,0xe81aa	 x14=0x681ace00
       24625000	      2461	80002e08	4113db13	srai	x22,x7,0x11	  x7:0xfffffd8b x22=0xffffffff
       24635000	      2462	80002e0c	0003a433	slt	x8,x7,x0	  x7:0xfffffd8b  x0:0x00000000  x8=0x00000001
       24645000	      2463	80002e10	05811463	bne	x2,x24,80002e58	  x2:0xfffff8de x24:0x00013e38
       24655000	      2464	00000000	00000013	addi	x0,x0,0	  x0:0x00000000
       24665000	      2465	80002e54	00000013	addi	x0,x0,0	  x0:0x00000000
       24675000	      2466	80002e58	0524d463	bge	x9,x18,80002ea0	  x9:0xffffffff x18:0x000000bf
       24685000	      2467	80002e5c	008ac6b3	xor	x13,x21,x8	 x21:0xcde97cd4  x8:0x00000001 x13=0xcde97cd5
       24695000	      2468	80002e60	01161e13	slli	x28,x12,0x11	 x12:0x00000000 x28=0x00000000
       24705000	      2469	80002e64	04c29663	bne	x5,x12,80002eb0	  x5:0xe506f000 x12:0x00000000
       24715000	      2470	00000000	00000013	addi	x0,x0,0	  x0:0x00000000
       24725000	      2471	80002eac	00000013	addi	x0,x0,0	  x0:0x00000000
       24735000	      2472	80002eb0	0252c063	blt	x5,x5,80002ed0	  x5:0xe506f000  x5:0xe506f000
       24745000	      2473	80002eb4	00e8e133	or	x2,x17,x14	 x17:0xf0ed7661 x14:0x681ace00  x2=0xf8fffe61
       24755000	      2474	80002eb8	351b2eb7	lui	x29,0x351b2	 x29=0x351b2000
       24765000	      2475	80002ebc	0176cfb3	xor	x31,x13,x23	 x13:0xcde97cd5 x23:0x80009fc4 x31=0x4de9e311
       24775000	      2476	80002ec0	008beb33	or	x22,x23,x8	 x23:0x80009fc4  x8:0x00000001 x22=0x80009fc5
       24785000	      2477	80002ec4	007044b3	xor	x9,x0,x7	  x0:0x00000000  x7:0xfffffd8b  x9=0xfffffd8b
       24795000	      2478	80002ec8	40038033	sub	x0,x7,x0	  x7:0xfffffd8b  x0:0x00000000
       24805000	      2479	80002ecc	01a6c663	blt	x13,x26,80002ed8	 x13:0xcde97cd5 x26:0xfffffd0b
       24815000	      2480	00000000	00000013	addi	x0,x0,0	  x0:0x00000000
       24825000	      2481	80002ed4	00000013	addi	x0,x0,0	  x0:0x00000000
       24835000	      2482	80002ed8	01d974b3	and	x9,x18,x29	 x18:0x000000bf x29:0x351b2000  x9=0x00000000
       24845000	      2483	80002edc	006f0a63	beq	x30,x6,80002ef0	 x30:0x80009f1c  x6:0xffffc6f0
       24855000	      2484	80002ee0	bd4dbc93	sltiu	x25,x27,-1068	 x27:0x80009f1c x25=0x00000001
       24865000	      2485	80002ee4	00000013	addi	x0,x0,0	  x0:0x00000000
       24875000	      2486	80002ee8	41aeda33	sra	x20,x29,x26	 x29:0x351b2000 x26:0xfffffd0b x20=0x0006a364
       24885000	      2487	80002eec	01485d13	srli	x26,x16,0x14	 x16:0x20308000 x26=0x00000203
       24895000	      2488	80002ef0	01a453b3	srl	x7,x8,x26	  x8:0x00000001 x26:0x00000203  x7=0x00000000
       24905000	      2489	80002ef4	00c0c263	blt	x1,x12,80002ef8	  x1:0x00000001 x12:0x00000000
       24915000	      2490	80002ef8	40de5413	srai	x8,x28,0xd	 x28:0x00000000  x8=0x00000000
       24925000	      2491	80002efc	00608733	add	x14,x1,x6	  x1:0x00000001  x6:0xffffc6f0 x14=0xffffc6f1
       24935000	      2492	80002f00	004f2a03	lw	x20,4(x30)	 x30:0x80009f1c x20=0x80000714 PA:0x80009f20
       24945000	      2493	80002f04	003d45b3	xor	x11,x26,x3	 x26:0x00000203  x3:0xe506f000 x11=0xe506f203
       24955000	      2494	80002f08	30041417	auipc	x8,0x30041	  x8=0xb0043f04
       24965000	      2495	80002f0c	01252433	slt	x8,x10,x18	 x10:0x00000001 x18:0x000000bf  x8=0x00000001
       24975000	      2496	80002f10	001af033	and	x0,x21,x1	 x21:0xcde97cd4  x1:0x00000001
       24985000	      2497	80002f14	f53f0793	addi	x15,x30,-173	 x30:0x80009f1c x15=0x80009e6f
       24995000	      2498	80002f18	ad910417	auipc	x8,0xad910	  x8=0x2d912f14
       25005000	      2499	80002f1c	034f0f13	addi	x30,x30,52	 x30:0x80009f1c x30=0x80009f50
       25015000	      2500	80002f20	f24bfd93	andi	x27,x23,-220	 x23:0x80009fc4 x27=0x80009f04
       25025000	      2501	80002f24	001a0e13	addi	x28,x20,1	 x20:0x80000714 x28=0x80000715
       25035000	      2502	80002f28	000e0e67	jalr	x28,x28,0	 x28:0x80000715 x28=0x80002f28
       25045000	      2503	00000000	00000013	addi	x0,x0,0	  x0:0x00000000
       25055000	      2504	80000714	00000013	addi	x0,x0,0	  x0:0x00000000
       25065000	      2505	80000718	ff800613	addi	x12,x0,-8	  x0:0x00000000 x12=0xfffffff8
       25075000	      2506	8000071c	5b30ac93	slti	x25,x1,1459	  x1:0x00000001 x25=0x00000001
       25085000	      2507	80000720	8de14113	xori	x2,x2,-1826	  x2:0xf8fffe61  x2=0x070006bf
       25095000	      2508	80000724	00000013	addi	x0,x0,0	  x0:0x00000000
       25105000	      2509	80000728	390b6013	ori	x0,x22,912	 x22:0x80009fc5
       25115000	      2510	8000072c	00126733	or	x14,x4,x1	  x4:0x0000000b  x1:0x00000001 x14=0x0000000b
       25125000	      2511	80000730	ff200513	addi	x10,x0,-14	  x0:0x00000000 x10=0xfffffff2
       25135000	      2512	80000734	0109b1b3	sltu	x3,x19,x16	 x19:0xc6c00000 x16:0x20308000  x3=0x00000000
       25145000	      2513	80000738	0064f0b3	and	x1,x9,x6	  x9:0x00000000  x6:0xffffc6f0  x1=0x00000000
       25155000	      2514	8000073c	01b19b13	slli	x22,x3,0x1b	  x3:0x00000000 x22=0x00000000
       25165000	      2515	80000740	0191b6b3	sltu	x13,x3,x25	  x3:0x00000000 x25:0x00000001 x13=0x00000001
       25175000	      2516	80000744	0037df93	srli	x31,x15,0x3	 x15:0x80009e6f x31=0x100013cd
       25185000	      2517	80000748	01a0ec33	or	x24,x1,x26	  x1:0x00000000 x26:0x00000203 x24=0x00000203
       25195000	      2518	8000074c	006804b3	add	x9,x16,x6	 x16:0x20308000  x6:0xffffc6f0  x9=0x203046f0
       25205000	      2519	80000750	01735933	srl	x18,x6,x23	  x6:0xffffc6f0 x23:0x80009fc4 x18=0x0ffffc6f
       25215000	      2520	80000754	01f7e3b3	or	x7,x15,x31	 x15:0x80009e6f x31:0x100013cd  x7=0x90009fef
       25225000	      2521	80000758	ffd60613	addi	x12,x12,-3	 x12:0xfffffff8 x12=0xfffffff5
       25235000	      2522	8000075c	0102dfb3	srl	x31,x5,x16	  x5:0xe506f000 x16:0x20308000 x31=0xe506f000
       25245000	      2523	80000760	40a3da13	srai	x20,x7,0xa	  x7:0x90009fef x20=0xffe40027
       25255000	      2524	80000764	fca60ae3	beq	x12,x10,80000738	 x12:0xfffffff5 x10:0xfffffff2
       25265000	      2525	80000768	4009d133	sra	x2,x19,x0	 x19:0xc6c00000  x0:0x00000000  x2=0xc6c00000
       25275000	      2526	8000076c	ff800713	addi	x14,x0,-8	  x0:0x00000000 x14=0xfffffff8
       25285000	      2527	80000770	00500f93	addi	x31,x0,5	  x0:0x00000000 x31=0x00000005
       25295000	      2528	80000774	58cc4a93	xori	x21,x24,1420	 x24:0x00000203 x21=0x0000078f
       25305000	      2529	80000778	00170713	addi	x14,x14,1	 x14:0xfffffff8 x14=0xfffffff9
       25315000	      2530	8000077c	fff74ce3	blt	x14,x31,80000774	 x14:0xfffffff9 x31:0x00000005
       25325000	      2531	00000000	00000013	addi	x0,x0,0	  x0:0x00000000
       25335000	      2532	80000770	00000013	addi	x0,x0,0	  x0:0x00000000
       25345000	      2533	80000774	58cc4a93	xori	x21,x24,1420	 x24:0x00000203 x21=0x0000078f
       25355000	      2534	80000778	00170713	addi	x14,x14,1	 x14:0xfffffff9 x14=0xfffffffa
       25365000	      2535	8000077c	fff74ce3	blt	x14,x31,80000774	 x14:0xfffffffa x31:0x00000005
       25375000	      2536	00000000	00000013	addi	x0,x0,0	  x0:0x00000000
       25385000	      2537	80000770	00000013	addi	x0,x0,0	  x0:0x00000000
       25395000	      2538	80000774	58cc4a93	xori	x21,x24,1420	 x24:0x00000203 x21=0x0000078f
       25405000	      2539	80000778	00170713	addi	x14,x14,1	 x14:0xfffffffa x14=0xfffffffb
       25415000	      2540	8000077c	fff74ce3	blt	x14,x31,80000774	 x14:0xfffffffb x31:0x00000005
       25425000	      2541	00000000	00000013	addi	x0,x0,0	  x0:0x00000000
       25435000	      2542	80000770	00000013	addi	x0,x0,0	  x0:0x00000000
       25445000	      2543	80000774	58cc4a93	xori	x21,x24,1420	 x24:0x00000203 x21=0x0000078f
       25455000	      2544	80000778	00170713	addi	x14,x14,1	 x14:0xfffffffb x14=0xfffffffc
       25465000	      2545	8000077c	fff74ce3	blt	x14,x31,80000774	 x14:0xfffffffc x31:0x00000005
       25475000	      2546	00000000	00000013	addi	x0,x0,0	  x0:0x00000000
       25485000	      2547	80000770	00000013	addi	x0,x0,0	  x0:0x00000000
       25495000	      2548	80000774	58cc4a93	xori	x21,x24,1420	 x24:0x00000203 x21=0x0000078f
       25505000	      2549	80000778	00170713	addi	x14,x14,1	 x14:0xfffffffc x14=0xfffffffd
       25515000	      2550	8000077c	fff74ce3	blt	x14,x31,80000774	 x14:0xfffffffd x31:0x00000005
       25525000	      2551	00000000	00000013	addi	x0,x0,0	  x0:0x00000000
       25535000	      2552	80000770	00000013	addi	x0,x0,0	  x0:0x00000000
       25545000	      2553	80000774	58cc4a93	xori	x21,x24,1420	 x24:0x00000203 x21=0x0000078f
       25555000	      2554	80000778	00170713	addi	x14,x14,1	 x14:0xfffffffd x14=0xfffffffe
       25565000	      2555	8000077c	fff74ce3	blt	x14,x31,80000774	 x14:0xfffffffe x31:0x00000005
       25575000	      2556	00000000	00000013	addi	x0,x0,0	  x0:0x00000000
       25585000	      2557	80000770	00000013	addi	x0,x0,0	  x0:0x00000000
       25595000	      2558	80000774	58cc4a93	xori	x21,x24,1420	 x24:0x00000203 x21=0x0000078f
       25605000	      2559	80000778	00170713	addi	x14,x14,1	 x14:0xfffffffe x14=0xffffffff
       25615000	      2560	8000077c	fff74ce3	blt	x14,x31,80000774	 x14:0xffffffff x31:0x00000005
       25625000	      2561	00000000	00000013	addi	x0,x0,0	  x0:0x00000000
       25635000	      2562	80000770	00000013	addi	x0,x0,0	  x0:0x00000000
       25645000	      2563	80000774	58cc4a93	xori	x21,x24,1420	 x24:0x00000203 x21=0x0000078f
       25655000	      2564	80000778	00170713	addi	x14,x14,1	 x14:0xffffffff x14=0x00000000
       25665000	      2565	8000077c	fff74ce3	blt	x14,x31,80000774	 x14:0x00000000 x31:0x00000005
       25675000	      2566	00000000	00000013	addi	x0,x0,0	  x0:0x00000000
       25685000	      2567	80000770	00000013	addi	x0,x0,0	  x0:0x00000000
       25695000	      2568	80000774	58cc4a93	xori	x21,x24,1420	 x24:0x00000203 x21=0x0000078f
       25705000	      2569	80000778	00170713	addi	x14,x14,1	 x14:0x00000000 x14=0x00000001
       25715000	      2570	8000077c	fff74ce3	blt	x14,x31,80000774	 x14:0x00000001 x31:0x00000005
       25725000	      2571	00000000	00000013	addi	x0,x0,0	  x0:0x00000000
       25735000	      2572	80000770	00000013	addi	x0,x0,0	  x0:0x00000000
       25745000	      2573	80000774	58cc4a93	xori	x21,x24,1420	 x24:0x00000203 x21=0x0000078f
       25755000	      2574	80000778	00170713	addi	x14,x14,1	 x14:0x00000001 x14=0x00000002
       25765000	      2575	8000077c	fff74ce3	blt	x14,x31,80000774	 x14:0x00000002 x31:0x00000005
       25775000	      2576	00000000	00000013	addi	x0,x0,0	  x0:0x00000000
       25785000	      2577	80000770	00000013	addi	x0,x0,0	  x0:0x00000000
       25795000	      2578	80000774	58cc4a93	xori	x21,x24,1420	 x24:0x00000203 x21=0x0000078f
       25805000	      2579	80000778	00170713	addi	x14,x14,1	 x14:0x00000002 x14=0x00000003
       25815000	      2580	8000077c	fff74ce3	blt	x14,x31,80000774	 x14:0x00000003 x31:0x00000005
       25825000	      2581	00000000	00000013	addi	x0,x0,0	  x0:0x00000000
       25835000	      2582	80000770	00000013	addi	x0,x0,0	  x0:0x00000000
       25845000	      2583	80000774	58cc4a93	xori	x21,x24,1420	 x24:0x00000203 x21=0x0000078f
       25855000	      2584	80000778	00170713	addi	x14,x14,1	 x14:0x00000003 x14=0x00000004
       25865000	      2585	8000077c	fff74ce3	blt	x14,x31,80000774	 x14:0x00000004 x31:0x00000005
       25875000	      2586	00000000	00000013	addi	x0,x0,0	  x0:0x00000000
       25885000	      2587	80000770	00000013	addi	x0,x0,0	  x0:0x00000000
       25895000	      2588	80000774	58cc4a93	xori	x21,x24,1420	 x24:0x00000203 x21=0x0000078f
       25905000	      2589	80000778	00170713	addi	x14,x14,1	 x14:0x00000004 x14=0x00000005
       25915000	      2590	8000077c	fff74ce3	blt	x14,x31,80000774	 x14:0x00000005 x31:0x00000005
       25925000	      2591	80000780	00f59333	sll	x6,x11,x15	 x11:0xe506f203 x15:0x80009e6f  x6=0x79018000
       25935000	      2592	80000784	00900993	addi	x19,x0,9	  x0:0x00000000 x19=0x00000009
       25945000	      2593	80000788	00b9bdb3	sltu	x27,x19,x11	 x19:0x00000009 x11:0xe506f203 x27=0x00000001
       25955000	      2594	8000078c	40ab5d93	srai	x27,x22,0xa	 x22:0x00000000 x27=0x00000000
       25965000	      2595	80000790	446f3f93	sltiu	x31,x30,1094	 x30:0x80009f50 x31=0x00000000
       25975000	      2596	80000794	40285593	srai	x11,x16,0x2	 x16:0x20308000 x11=0x080c2000
       25985000	      2597	80000798	013e34b3	sltu	x9,x28,x19	 x28:0x80002f28 x19:0x00000009  x9=0x00000000
       25995000	      2598	8000079c	00951733	sll	x14,x10,x9	 x10:0xfffffff2  x9:0x00000000 x14=0xfffffff2
       26005000	      2599	800007a0	01c71033	sll	x0,x14,x28	 x14:0xfffffff2 x28:0x80002f28
       26015000	      2600	800007a4	00c00613	addi	x12,x0,12	  x0:0x00000000 x12=0x0000000c
       26025000	      2601	800007a8	008e1113	slli	x2,x28,0x8	 x28:0x80002f28  x2=0x002f2800
       26035000	      2602	800007ac	00000013	addi	x0,x0,0	  x0:0x00000000
       26045000	      2603	800007b0	40685033	sra	x0,x16,x6	 x16:0x20308000  x6:0x79018000
       26055000	      2604	800007b4	010e0db3	add	x27,x28,x16	 x28:0x80002f28 x16:0x20308000 x27=0xa030af28
       26065000	      2605	800007b8	00301213	slli	x4,x0,0x3	  x0:0x00000000  x4=0x00000000
       26075000	      2606	800007bc	b1ebeab7	lui	x21,0xb1ebe	 x21=0xb1ebe000
       26085000	      2607	800007c0	7961c517	auipc	x10,0x7961c	 x10=0xf961c7bc
       26095000	      2608	800007c4	41d354b3	sra	x9,x6,x29	  x6:0x79018000 x29:0x351b2000  x9=0x79018000
       26105000	      2609	800007c8	801e8313	addi	x6,x29,-2047	 x29:0x351b2000  x6=0x351b1801
       26115000	      2610	800007cc	73b171b7	lui	x3,0x73b17	  x3=0x73b17000
       26125000	      2611	800007d0	40d65f93	srai	x31,x12,0xd	 x12:0x0000000c x31=0x00000000
       26135000	      2612	800007d4	69ac4593	xori	x11,x24,1690	 x24:0x00000203 x11=0x00000499
       26145000	      2613	800007d8	00398993	addi	x19,x19,3	 x19:0x00000009 x19=0x0000000c
       26155000	      2614	800007dc	287ba697	auipc	x13,0x287ba	 x13=0xa87ba7d8
       26165000	      2615	800007e0	fcc9eee3	bltu	x19,x12,800007bc	 x19:0x0000000c x12:0x0000000c
       26175000	      2616	800007e4	afce4d93	xori	x27,x28,-1284	 x28:0x80002f28 x27=0x7fffd5d4
       26185000	      2617	800007e8	00000d93	addi	x27,x0,0	  x0:0x00000000 x27=0x00000000
       26195000	      2618	800007ec	41390fb3	sub	x31,x18,x19	 x18:0x0ffffc6f x19:0x0000000c x31=0x0ffffc63
       26205000	      2619	800007f0	e96a3013	sltiu	x0,x20,-362	 x20:0xffe40027
       26215000	      2620	800007f4	01c9d033	srl	x0,x19,x28	 x19:0x0000000c x28:0x80002f28
       26225000	      2621	800007f8	fb217493	andi	x9,x2,-78	  x2:0x002f2800  x9=0x002f2800
       26235000	      2622	800007fc	4adbab37	lui	x22,0x4adba	 x22=0x4adba000
       26245000	      2623	80000800	00b11e13	slli	x28,x2,0xb	  x2:0x002f2800 x28=0x79400000
       26255000	      2624	80000804	01200413	addi	x8,x0,18	  x0:0x00000000  x8=0x00000012
       26265000	      2625	80000808	00e61fb3	sll	x31,x12,x14	 x12:0x0000000c x14:0xfffffff2 x31=0x00300000
       26275000	      2626	8000080c	50fb1617	auipc	x12,0x50fb1	 x12=0xd0fb1808
       26285000	      2627	80000810	4eea4ab7	lui	x21,0x4eea4	 x21=0x4eea4000
       26295000	      2628	80000814	003d8d93	addi	x27,x27,3	 x27:0x00000000 x27=0x00000003
       26305000	      2629	80000818	b76a4c13	xori	x24,x20,-1162	 x20:0xffe40027 x24=0x001bfb51
       26315000	      2630	8000081c	0199f633	and	x12,x19,x25	 x19:0x0000000c x25:0x00000001 x12=0x00000000
       26325000	      2631	80000820	01cc6233	or	x4,x24,x28	 x24:0x001bfb51 x28:0x79400000  x4=0x795bfb51
       26335000	      2632	80000824	01f744b3	xor	x9,x14,x31	 x14:0xfffffff2 x31:0x00300000  x9=0xffcffff2
       26345000	      2633	80000828	0698c237	lui	x4,0x698c	  x4=0x0698c000
       26355000	      2634	8000082c	e8617593	andi	x11,x2,-378	  x2:0x002f2800 x11=0x002f2800
       26365000	      2635	80000830	ded92213	slti	x4,x18,-531	 x18:0x0ffffc6f  x4=0x00000000
       26375000	      2636	80000834	01ff9013	slli	x0,x31,0x1f	 x31:0x00300000
       26385000	      2637	80000838	fc8d8ce3	beq	x27,x8,80000810	 x27:0x00000003  x8:0x00000012
       26395000	      2638	8000083c	403c01b3	sub	x3,x24,x3	 x24:0x001bfb51  x3:0x73b17000  x3=0x8c6a8b51
       26405000	      2639	80000840	00000193	addi	x3,x0,0	  x0:0x00000000  x3=0x00000000
       26415000	      2640	80000844	015dd793	srli	x15,x27,0x15	 x27:0x00000003 x15=0x00000000
       26425000	      2641	80000848	de9c8813	addi	x16,x25,-535	 x25:0x00000001 x16=0xfffffdea
       26435000	      2642	8000084c	00b955b3	srl	x11,x18,x11	 x18:0x0ffffc6f x11:0x002f2800 x11=0x0ffffc6f
       26445000	      2643	80000850	9c9cd2b7	lui	x5,0x9c9cd	  x5=0x9c9cd000
       26455000	      2644	80000854	865deb13	ori	x22,x27,-1947	 x27:0x00000003 x22=0xfffff867
       26465000	      2645	80000858	ffe00693	addi	x13,x0,-2	  x0:0x00000000 x13=0xfffffffe
       26475000	      2646	8000085c	20b81397	auipc	x7,0x20b81	  x7=0xa0b81858
       26485000	      2647	80000860	7eacbd13	sltiu	x26,x25,2026	 x25:0x00000001 x26=0x00000001
       26495000	      2648	80000864	417ddd13	srai	x26,x27,0x17	 x27:0x00000003 x26=0x00000000
       26505000	      2649	80000868	612ac713	xori	x14,x21,1554	 x21:0x4eea4000 x14=0x4eea4612
       26515000	      2650	8000086c	004972b3	and	x5,x18,x4	 x18:0x0ffffc6f  x4:0x00000000  x5=0x00000000
       26525000	      2651	80000870	c69ebd13	sltiu	x26,x29,-919	 x29:0x351b2000 x26=0x00000001
       26535000	      2652	80000874	be52a113	slti	x2,x5,-1051	  x5:0x00000000  x2=0x00000000
       26545000	      2653	80000878	ffe18193	addi	x3,x3,-2	  x3:0x00000000  x3=0xfffffffe
       26555000	      2654	8000087c	002b8733	add	x14,x23,x2	 x23:0x80009fc4  x2:0x00000000 x14=0x80009fc4
       26565000	      2655	80000880	00000013	addi	x0,x0,0	  x0:0x00000000
       26575000	      2656	80000884	019e0c33	add	x24,x28,x25	 x28:0x79400000 x25:0x00000001 x24=0x79400001
       26585000	      2657	80000888	d3290b13	addi	x22,x18,-718	 x18:0x0ffffc6f x22=0x0ffff9a1
       26595000	      2658	8000088c	01d02333	slt	x6,x0,x29	  x0:0x00000000 x29:0x351b2000  x6=0x00000001
       26605000	      2659	80000890	fcd1dce3	bge	x3,x13,80000868	  x3:0xfffffffe x13:0xfffffffe
       26615000	      2660	00000000	00000013	addi	x0,x0,0	  x0:0x00000000
       26625000	      2661	80000864	00000013	addi	x0,x0,0	  x0:0x00000000
       26635000	      2662	80000868	612ac713	xori	x14,x21,1554	 x21:0x4eea4000 x14=0x4eea4612
       26645000	      2663	8000086c	004972b3	and	x5,x18,x4	 x18:0x0ffffc6f  x4:0x00000000  x5=0x00000000
       26655000	      2664	80000870	c69ebd13	sltiu	x26,x29,-919	 x29:0x351b2000 x26=0x00000001
       26665000	      2665	80000874	be52a113	slti	x2,x5,-1051	  x5:0x00000000  x2=0x00000000
       26675000	      2666	80000878	ffe18193	addi	x3,x3,-2	  x3:0xfffffffe  x3=0xfffffffc
       26685000	      2667	8000087c	002b8733	add	x14,x23,x2	 x23:0x80009fc4  x2:0x00000000 x14=0x80009fc4
       26695000	      2668	80000880	00000013	addi	x0,x0,0	  x0:0x00000000
       26705000	      2669	80000884	019e0c33	add	x24,x28,x25	 x28:0x79400000 x25:0x00000001 x24=0x79400001
       26715000	      2670	80000888	d3290b13	addi	x22,x18,-718	 x18:0x0ffffc6f x22=0x0ffff9a1
       26725000	      2671	8000088c	01d02333	slt	x6,x0,x29	  x0:0x00000000 x29:0x351b2000  x6=0x00000001
       26735000	      2672	80000890	fcd1dce3	bge	x3,x13,80000868	  x3:0xfffffffc x13:0xfffffffe
       26745000	      2673	80000894	62386413	ori	x8,x16,1571	 x16:0xfffffdea  x8=0xffffffeb
       26755000	      2674	80000898	00700613	addi	x12,x0,7	  x0:0x00000000 x12=0x00000007
       26765000	      2675	8000089c	00fd1b33	sll	x22,x26,x15	 x26:0x00000001 x15:0x00000000 x22=0x00000001
       26775000	      2676	800008a0	69be4113	xori	x2,x28,1691	 x28:0x79400000  x2=0x7940069b
       26785000	      2677	800008a4	01719093	slli	x1,x3,0x17	  x3:0xfffffffc  x1=0xfe000000
       26795000	      2678	800008a8	00800c93	addi	x25,x0,8	  x0:0x00000000 x25=0x00000008
       26805000	      2679	800008ac	1680fe17	auipc	x28,0x1680f	 x28=0x9680f8a8
       26815000	      2680	800008b0	00660613	addi	x12,x12,6	 x12:0x00000007 x12=0x0000000d
       26825000	      2681	800008b4	00a00213	addi	x4,x0,10	  x0:0x00000000  x4=0x0000000a
       26835000	      2682	800008b8	01466eb3	or	x29,x12,x20	 x12:0x0000000d x20:0xffe40027 x29=0xffe4002f
       26845000	      2683	800008bc	013d94b3	sll	x9,x27,x19	 x27:0x00000003 x19:0x0000000c  x9=0x00003000
       26855000	      2684	800008c0	001eec33	or	x24,x29,x1	 x29:0xffe4002f  x1:0xfe000000 x24=0xffe4002f
       26865000	      2685	800008c4	01100a93	addi	x21,x0,17	  x0:0x00000000 x21=0x00000011
       26875000	      2686	800008c8	ca2cc393	xori	x7,x25,-862	 x25:0x00000008  x7=0xfffffcaa
       26885000	      2687	800008cc	00a20213	addi	x4,x4,10	  x4:0x0000000a  x4=0x00000014
       26895000	      2688	800008d0	01507a33	and	x20,x0,x21	  x0:0x00000000 x21:0x00000011 x20=0x00000000
       26905000	      2689	800008d4	80fd1297	auipc	x5,0x80fd1	  x5=0x00fd18d0
       26915000	      2690	800008d8	d37e3693	sltiu	x13,x28,-713	 x28:0x9680f8a8 x13=0x00000001
       26925000	      2691	800008dc	0169a5b3	slt	x11,x19,x22	 x19:0x0000000c x22:0x00000001 x11=0x00000000
       26935000	      2692	800008e0	65367f97	auipc	x31,0x65367	 x31=0xe53678dc
       26945000	      2693	800008e4	ff5262e3	bltu	x4,x21,800008c8	  x4:0x00000014 x21:0x00000011
       26955000	      2694	800008e8	00881093	slli	x1,x16,0x8	 x16:0xfffffdea  x1=0xfffdea00
       26965000	      2695	800008ec	fd9640e3	blt	x12,x25,800008ac	 x12:0x0000000d x25:0x00000008
       26975000	      2696	800008f0	41315133	sra	x2,x2,x19	  x2:0x7940069b x19:0x0000000c  x2=0x00079400
       26985000	      2697	800008f4	00a00e93	addi	x29,x0,10	  x0:0x00000000 x29=0x0000000a
       26995000	      2698	800008f8	00d00113	addi	x2,x0,13	  x0:0x00000000  x2=0x0000000d
       27005000	      2699	800008fc	00c870b3	and	x1,x16,x12	 x16:0xfffffdea x12:0x0000000d  x1=0x00000008
       27015000	      2700	80000900	007b1793	slli	x15,x22,0x7	 x22:0x00000001 x15=0x00000080
       27025000	      2701	80000904	18072813	slti	x16,x14,384	 x14:0x80009fc4 x16=0x00000001
       27035000	      2702	80000908	cb7db513	sltiu	x10,x27,-841	 x27:0x00000003 x10=0x00000001
       27045000	      2703	8000090c	0145d013	srli	x0,x11,0x14	 x11:0x00000000
       27055000	      2704	80000910	01e203b3	add	x7,x4,x30	  x4:0x00000014 x30:0x80009f50  x7=0x80009f64
       27065000	      2705	80000914	01c9d813	srli	x16,x19,0x1c	 x19:0x0000000c x16=0x00000000
       27075000	      2706	80000918	001e8e93	addi	x29,x29,1	 x29:0x0000000a x29=0x0000000b
       27085000	      2707	8000091c	d9b9a313	slti	x6,x19,-613	 x19:0x0000000c  x6=0x00000000
       27095000	      2708	80000920	00359c13	slli	x24,x11,0x3	 x11:0x00000000 x24=0x00000000
       27105000	      2709	80000924	408f5833	sra	x16,x30,x8	 x30:0x80009f50  x8:0xffffffeb x16=0xfff00013
       27115000	      2710	80000928	883fb193	sltiu	x3,x31,-1917	 x31:0xe53678dc  x3=0x00000001
       27125000	      2711	8000092c	fc2e8ee3	beq	x29,x2,80000908	 x29:0x0000000b  x2:0x0000000d
       27135000	      2712	80000930	dc929037	lui	x0,0xdc929	
       27145000	      2713	80000934	00500193	addi	x3,x0,5	  x0:0x00000000  x3=0x00000005
       27155000	      2714	80000938	e36e6c93	ori	x25,x28,-458	 x28:0x9680f8a8 x25=0xfffffebe
       27165000	      2715	8000093c	00000013	addi	x0,x0,0	  x0:0x00000000
       27175000	      2716	80000940	0184ac33	slt	x24,x9,x24	  x9:0x00003000 x24:0x00000000 x24=0x00000000
       27185000	      2717	80000944	411a06b3	sub	x13,x20,x17	 x20:0x00000000 x17:0xf0ed7661 x13=0x0f12899f
       27195000	      2718	80000948	0fd46817	auipc	x16,0xfd46	 x16=0x8fd46944
       27205000	      2719	8000094c	412e0cb3	sub	x25,x28,x18	 x28:0x9680f8a8 x18:0x0ffffc6f x25=0x8680fc39
       27215000	      2720	80000950	f9c68537	lui	x10,0xf9c68	 x10=0xf9c68000
       27225000	      2721	80000954	019c7fb3	and	x31,x24,x25	 x24:0x00000000 x25:0x8680fc39 x31=0x00000000
       27235000	      2722	80000958	008d9933	sll	x18,x27,x8	 x27:0x00000003  x8:0xffffffeb x18=0x00001800
       27245000	      2723	8000095c	009fa133	slt	x2,x31,x9	 x31:0x00000000  x9:0x00003000  x2=0x00000001
       27255000	      2724	80000960	011fe133	or	x2,x31,x17	 x31:0x00000000 x17:0xf0ed7661  x2=0xf0ed7661
       27265000	      2725	80000964	ebbda593	slti	x11,x27,-325	 x27:0x00000003 x11=0x00000000
       27275000	      2726	80000968	00f00413	addi	x8,x0,15	  x0:0x00000000  x8=0x0000000f
       27285000	      2727	8000096c	d21ab117	auipc	x2,0xd21ab	  x2=0x521ab968
       27295000	      2728	80000970	a84f8617	auipc	x12,0xa84f8	 x12=0x284f896c
       27305000	      2729	80000974	01ca0fb3	add	x31,x20,x28	 x20:0x00000000 x28:0x9680f8a8 x31=0x9680f8a8
       27315000	      2730	80000978	00542133	slt	x2,x8,x5	  x8:0x0000000f  x5:0x00fd18d0  x2=0x00000001
       27325000	      2731	8000097c	a4620493	addi	x9,x4,-1466	  x4:0x00000014  x9=0xfffffa5a
       27335000	      2732	80000980	f9edca93	xori	x21,x27,-98	 x27:0x00000003 x21=0xffffff9d
       27345000	      2733	80000984	b09200b7	lui	x1,0xb0920	  x1=0xb0920000
       27355000	      2734	80000988	8a670717	auipc	x14,0x8a670	 x14=0x0a670984
       27365000	      2735	8000098c	00a18193	addi	x3,x3,10	  x3:0x00000005  x3=0x0000000f
       27375000	      2736	80000990	f6d9bab7	lui	x21,0xf6d9b	 x21=0xf6d9b000
       27385000	      2737	80000994	00e09513	slli	x10,x1,0xe	  x1:0xb0920000 x10=0x80000000
       27395000	      2738	80000998	006b1d13	slli	x26,x22,0x6	 x22:0x00000001 x26=0x00000040
       27405000	      2739	8000099c	fc81cae3	blt	x3,x8,80000970	  x3:0x0000000f  x8:0x0000000f
       27415000	      2740	800009a0	0190e233	or	x4,x1,x25	  x1:0xb0920000 x25:0x8680fc39  x4=0xb692fc39
       27425000	      2741	800009a4	00000113	addi	x2,x0,0	  x0:0x00000000  x2=0x00000000
       27435000	      2742	800009a8	a906f413	andi	x8,x13,-1392	 x13:0x0f12899f  x8=0x0f128890
       27445000	      2743	800009ac	e5c04513	xori	x10,x0,-420	  x0:0x00000000 x10=0xfffffe5c
       27455000	      2744	800009b0	00900993	addi	x19,x0,9	  x0:0x00000000 x19=0x00000009
       27465000	      2745	800009b4	01f72933	slt	x18,x14,x31	 x14:0x0a670984 x31:0x9680f8a8 x18=0x00000000
       27475000	      2746	800009b8	00910113	addi	x2,x2,9	  x2:0x00000000  x2=0x00000009
       27485000	      2747	800009bc	0198bfb3	sltu	x31,x17,x25	 x17:0xf0ed7661 x25:0x8680fc39 x31=0x00000000
       27495000	      2748	800009c0	22e3f193	andi	x3,x7,558	  x7:0x80009f64  x3=0x00000224
       27505000	      2749	800009c4	00c69a93	slli	x21,x13,0xc	 x13:0x0f12899f x21=0x2899f000
       27515000	      2750	800009c8	ff900e93	addi	x29,x0,-7	  x0:0x00000000 x29=0xfffffff9
       27525000	      2751	800009cc	fef00a13	addi	x20,x0,-17	  x0:0x00000000 x20=0xffffffef
       27535000	      2752	800009d0	ff5dca93	xori	x21,x27,-11	 x27:0x00000003 x21=0xfffffff6
       27545000	      2753	800009d4	004f9b33	sll	x22,x31,x4	 x31:0x00000000  x4:0xb692fc39 x22=0x00000000
       27555000	      2754	800009d8	ff6e8e93	addi	x29,x29,-10	 x29:0xfffffff9 x29=0xffffffef
       27565000	      2755	800009dc	ff4e9ae3	bne	x29,x20,800009d0	 x29:0xffffffef x20:0xffffffef
       27575000	      2756	800009e0	00000013	addi	x0,x0,0	  x0:0x00000000
       27585000	      2757	800009e4	01275fb3	srl	x31,x14,x18	 x14:0x0a670984 x18:0x00000000 x31=0x0a670984
       27595000	      2758	800009e8	00d575b3	and	x11,x10,x13	 x10:0xfffffe5c x13:0x0f12899f x11=0x0f12881c
       27605000	      2759	800009ec	fd3114e3	bne	x2,x19,800009b4	  x2:0x00000009 x19:0x00000009
       27615000	      2760	800009f0	008166b3	or	x13,x2,x8	  x2:0x00000009  x8:0x0f128890 x13=0x0f128899
       27625000	      2761	800009f4	01e779b3	and	x19,x14,x30	 x14:0x0a670984 x30:0x80009f50 x19=0x00000900
       27635000	      2762	800009f8	01e91713	slli	x14,x18,0x1e	 x18:0x00000000 x14=0x00000000
       27645000	      2763	800009fc	00c37db3	and	x27,x6,x12	  x6:0x00000000 x12:0x284f896c x27=0x00000000
       27655000	      2764	80000a00	00000013	addi	x0,x0,0	  x0:0x00000000
       27665000	      2765	80000a04	76a17513	andi	x10,x2,1898	  x2:0x00000009 x10=0x00000008
       27675000	      2766	80000a08	01edfeb3	and	x29,x27,x30	 x27:0x00000000 x30:0x80009f50 x29=0x00000000
       27685000	      2767	80000a0c	0060ad33	slt	x26,x1,x6	  x1:0xb0920000  x6:0x00000000 x26=0x00000001
       27695000	      2768	80000a10	419eddb3	sra	x27,x29,x25	 x29:0x00000000 x25:0x8680fc39 x27=0x00000000
       27705000	      2769	80000a14	01069293	slli	x5,x13,0x10	 x13:0x0f128899  x5=0x88990000
       27715000	      2770	80000a18	017889b3	add	x19,x17,x23	 x17:0xf0ed7661 x23:0x80009fc4 x19=0x70ee1625
       27725000	      2771	80000a1c	009e8eb3	add	x29,x29,x9	 x29:0x00000000  x9:0xfffffa5a x29=0xfffffa5a
       27735000	      2772	80000a20	015d6c63	bltu	x26,x21,80000a38	 x26:0x00000001 x21:0xfffffff6
       27745000	      2773	00000000	00000013	addi	x0,x0,0	  x0:0x00000000
       27755000	      2774	80000a34	00000013	addi	x0,x0,0	  x0:0x00000000
       27765000	      2775	80000a38	01e69db3	sll	x27,x13,x30	 x13:0x0f128899 x30:0x80009f50 x27=0x88990000
       27775000	      2776	80000a3c	5c5fca13	xori	x20,x31,1477	 x31:0x0a670984 x20=0x0a670c41
       27785000	      2777	80000a40	723cde97	auipc	x29,0x723cd	 x29=0xf23cda3c
       27795000	      2778	80000a44	ea9cc117	auipc	x2,0xea9cc	  x2=0x6a9cca40
       27805000	      2779	80000a48	4877e013	ori	x0,x15,1159	 x15:0x00000080
       27815000	      2780	80000a4c	0080e613	ori	x12,x1,8	  x1:0xb0920000 x12=0xb0920008
       27825000	      2781	80000a50	03245663	bge	x8,x18,80000a7c	  x8:0x0f128890 x18:0x00000000
       27835000	      2782	00000000	00000013	addi	x0,x0,0	  x0:0x00000000
       27845000	      2783	80000a78	00000013	addi	x0,x0,0	  x0:0x00000000
       27855000	      2784	80000a7c	00739793	slli	x15,x7,0x7	  x7:0x80009f64 x15=0x004fb200
       27865000	      2785	80000a80	003b1eb3	sll	x29,x22,x3	 x22:0x00000000  x3:0x00000224 x29=0x00000000
       27875000	      2786	80000a84	014e3933	sltu	x18,x28,x20	 x28:0x9680f8a8 x20:0x0a670c41 x18=0x00000000
       27885000	      2787	80000a88	4cb64b37	lui	x22,0x4cb64	 x22=0x4cb64000
       27895000	      2788	80000a8c	9ba00cb7	lui	x25,0x9ba00	 x25=0x9ba00000
       27905000	      2789	80000a90	000452b3	srl	x5,x8,x0	  x8:0x0f128890  x0:0x00000000  x5=0x0f128890
       27915000	      2790	80000a94	09800093	addi	x1,x0,152	  x0:0x00000000  x1=0x00000098
       27925000	      2791	80000a98	00142b33	slt	x22,x8,x1	  x8:0x0f128890  x1:0x00000098 x22=0x00000000
       27935000	      2792	80000a9c	03811863	bne	x2,x24,80000acc	  x2:0x6a9cca40 x24:0x00000000
       27945000	      2793	00000000	00000013	addi	x0,x0,0	  x0:0x00000000
       27955000	      2794	80000ac8	00000013	addi	x0,x0,0	  x0:0x00000000
       27965000	      2795	80000acc	011d42b3	xor	x5,x26,x17	 x26:0x00000001 x17:0xf0ed7661  x5=0xf0ed7660
       27975000	      2796	80000ad0	a04a6913	ori	x18,x20,-1532	 x20:0x0a670c41 x18=0xfffffe45
       27985000	      2797	80000ad4	4192d633	sra	x12,x5,x25	  x5:0xf0ed7660 x25:0x9ba00000 x12=0xf0ed7660
       27995000	      2798	80000ad8	3da7c693	xori	x13,x15,986	 x15:0x004fb200 x13=0x004fb1da
       28005000	      2799	80000adc	8fef4493	xori	x9,x30,-1794	 x30:0x80009f50  x9=0x7fff67ae
       28015000	      2800	80000ae0	00000013	addi	x0,x0,0	  x0:0x00000000
       28025000	      2801	80000ae4	8a03c693	xori	x13,x7,-1888	  x7:0x80009f64 x13=0x7fff67c4
       28035000	      2802	80000ae8	0a055a63	bge	x10,x0,80000b9c	 x10:0x00000008  x0:0x00000000
       28045000	      2803	00000000	00000013	addi	x0,x0,0	  x0:0x00000000
       28055000	      2804	80000b98	00000013	addi	x0,x0,0	  x0:0x00000000
       28065000	      2805	80000b9c	0086dab3	srl	x21,x13,x8	 x13:0x7fff67c4  x8:0x0f128890 x21=0x00007fff
       28075000	      2806	80000ba0	9c050813	addi	x16,x10,-1600	 x10:0x00000008 x16=0xfffff9c8
       28085000	      2807	80000ba4	00a75233	srl	x4,x14,x10	 x14:0x00000000 x10:0x00000008  x4=0x00000000
       28095000	      2808	80000ba8	525a6113	ori	x2,x20,1317	 x20:0x0a670c41  x2=0x0a670d65
       28105000	      2809	80000bac	024adc63	bge	x21,x4,80000be4	 x21:0x00007fff  x4:0x00000000
       28115000	      2810	00000000	00000013	addi	x0,x0,0	  x0:0x00000000
       28125000	      2811	80000be0	00000013	addi	x0,x0,0	  x0:0x00000000
       28135000	      2812	80000be4	036c7263	bgeu	x24,x22,80000c08	 x24:0x00000000 x22:0x00000000
       28145000	      2813	00000000	00000013	addi	x0,x0,0	  x0:0x00000000
       28155000	      2814	80000c04	00000013	addi	x0,x0,0	  x0:0x00000000
       28165000	      2815	80000c08	31e8c597	auipc	x11,0x31e8c	 x11=0xb1e8cc04
       28175000	      2816	80000c0c	00aa9b13	slli	x22,x21,0xa	 x21:0x00007fff x22=0x01fffc00
       28185000	      2817	80000c10	04259863	bne	x11,x2,80000c60	 x11:0xb1e8cc04  x2:0x0a670d65
       28195000	      2818	00000000	00000013	addi	x0,x0,0	  x0:0x00000000
       28205000	      2819	80000c5c	00000013	addi	x0,x0,0	  x0:0x00000000
       28215000	      2820	80000c60	01e29ab3	sll	x21,x5,x30	  x5:0xf0ed7660 x30:0x80009f50 x21=0x76600000
       28225000	      2821	80000c64	41ae0433	sub	x8,x28,x26	 x28:0x9680f8a8 x26:0x00000001  x8=0x9680f8a7
       28235000	      2822	80000c68	fffff917	auipc	x18,0xfffff	 x18=0x7ffffc64
       28245000	      2823	80000c6c	6f490913	addi	x18,x18,1780	 x18:0x7ffffc64 x18=0x80000358
       28255000	      2824	80000c70	1389e697	auipc	x13,0x1389e	 x13=0x9389ec6c
       28265000	      2825	80000c74	414bde33	sra	x28,x23,x20	 x23:0x80009fc4 x20:0x0a670c41 x28=0xc0004fe2
       28275000	      2826	80000c78	00351d33	sll	x26,x10,x3	 x10:0x00000008  x3:0x00000224 x26=0x00000080
       28285000	      2827	80000c7c	21e90913	addi	x18,x18,542	 x18:0x80000358 x18=0x80000576
       28295000	      2828	80000c80	00000013	addi	x0,x0,0	  x0:0x00000000
       28305000	      2829	80000c84	015a2fb3	slt	x31,x20,x21	 x20:0x0a670c41 x21:0x76600000 x31=0x00000001
       28315000	      2830	80000c88	4ecbe317	auipc	x6,0x4ecbe	  x6=0xcecbec84
       28325000	      2831	80000c8c	2e935a97	auipc	x21,0x2e935	 x21=0xae935c88
       28335000	      2832	80000c90	4b1870b7	lui	x1,0x4b187	  x1=0x4b187000
       28345000	      2833	80000c94	de390a67	jalr	x20,x18,-541	 x18:0x80000576 x20=0x80000c94
       28355000	      2834	00000000	00000013	addi	x0,x0,0	  x0:0x00000000
       28365000	      2835	80000358	00000013	addi	x0,x0,0	  x0:0x00000000
       28375000	      2836	8000035c	015e0463	beq	x28,x21,80000364	 x28:0xc0004fe2 x21:0xae935c88
       28385000	      2837	80000360	41c8dcb3	sra	x25,x17,x28	 x17:0xf0ed7661 x28:0xc0004fe2 x25=0xfc3b5d98
       28395000	      2838	80000364	fe0f0f13	addi	x30,x30,-32	 x30:0x80009f50 x30=0x80009f30
       28405000	      2839	80000368	bfca6a93	ori	x21,x20,-1028	 x20:0x80000c94 x21=0xfffffffc
       28415000	      2840	8000036c	01a8c1b3	xor	x3,x17,x26	 x17:0xf0ed7661 x26:0x00000080  x3=0xf0ed76e1
       28425000	      2841	80000370	014f2223	sw	x20,4(x30)	 x30:0x80009f30 x20:0x80000c94 PA:0x80009f34
       28435000	      2842	80000374	0029bd33	sltu	x26,x19,x2	 x19:0x70ee1625  x2:0x0a670d65 x26=0x00000000
       28445000	      2843	80000378	00a00113	addi	x2,x0,10	  x0:0x00000000  x2=0x0000000a
       28455000	      2844	8000037c	41695913	srai	x18,x18,0x16	 x18:0x80000576 x18=0xfffffe00
       28465000	      2845	80000380	06d21db7	lui	x27,0x6d21	 x27=0x06d21000
       28475000	      2846	80000384	04098c97	auipc	x25,0x4098	 x25=0x84098380
       28485000	      2847	80000388	e0b3a293	slti	x5,x7,-501	  x7:0x80009f64  x5=0x00000001
       28495000	      2848	8000038c	01a477b3	and	x15,x8,x26	  x8:0x9680f8a7 x26:0x00000000 x15=0x00000000
       28505000	      2849	80000390	fec00193	addi	x3,x0,-20	  x0:0x00000000  x3=0xffffffec
       28515000	      2850	80000394	000cbc33	sltu	x24,x25,x0	 x25:0x84098380  x0:0x00000000 x24=0x00000000
       28525000	      2851	80000398	85d13713	sltiu	x14,x2,-1955	  x2:0x0000000a x14=0x00000001
       28535000	      2852	8000039c	933aa413	slti	x8,x21,-1741	 x21:0xfffffffc  x8=0x00000000
       28545000	      2853	800003a0	ffb10113	addi	x2,x2,-5	  x2:0x0000000a  x2=0x00000005
       28555000	      2854	800003a4	f371b993	sltiu	x19,x3,-201	  x3:0xffffffec x19=0x00000000
       28565000	      2855	800003a8	00f03db3	sltu	x27,x0,x15	  x0:0x00000000 x15:0x00000000 x27=0x00000000
       28575000	      2856	800003ac	0182e433	or	x8,x5,x24	  x5:0x00000001 x24:0x00000000  x8=0x00000001
       28585000	      2857	800003b0	521786b7	lui	x13,0x52178	 x13=0x52178000
       28595000	      2858	800003b4	fe3102e3	beq	x2,x3,80000398	  x2:0x00000005  x3:0xffffffec
       28605000	      2859	800003b8	abd6bd93	sltiu	x27,x13,-1347	 x13:0x52178000 x27=0x00000001
       28615000	      2860	800003bc	00900613	addi	x12,x0,9	  x0:0x00000000 x12=0x00000009
       28625000	      2861	800003c0	00bdc933	xor	x18,x27,x11	 x27:0x00000001 x11:0xb1e8cc04 x18=0xb1e8cc05
       28635000	      2862	800003c4	00900d13	addi	x26,x0,9	  x0:0x00000000 x26=0x00000009
       28645000	      2863	800003c8	c8fe7013	andi	x0,x28,-881	 x28:0xc0004fe2
       28655000	      2864	800003cc	ffa60613	addi	x12,x12,-6	 x12:0x00000009 x12=0x00000003
       28665000	      2865	800003d0	0087c3b3	xor	x7,x15,x8	 x15:0x00000000  x8:0x00000001  x7=0x00000001
       28675000	      2866	800003d4	00600a13	addi	x20,x0,6	  x0:0x00000000 x20=0x00000006
       28685000	      2867	800003d8	01200513	addi	x10,x0,18	  x0:0x00000000 x10=0x00000012
       28695000	      2868	800003dc	418b8e33	sub	x28,x23,x24	 x23:0x80009fc4 x24:0x00000000 x28=0x80009fc4
       28705000	      2869	800003e0	402483b3	sub	x7,x9,x2	  x9:0x7fff67ae  x2:0x00000005  x7=0x7fff67a9
       28715000	      2870	800003e4	003a0a13	addi	x20,x20,3	 x20:0x00000006 x20=0x00000009
       28725000	      2871	800003e8	00d22cb3	slt	x25,x4,x13	  x4:0x00000000 x13:0x52178000 x25=0x00000001
       28735000	      2872	800003ec	feaa48e3	blt	x20,x10,800003dc	 x20:0x00000009 x10:0x00000012
       28745000	      2873	00000000	00000013	addi	x0,x0,0	  x0:0x00000000
       28755000	      2874	800003d8	00000013	addi	x0,x0,0	  x0:0x00000000
       28765000	      2875	800003dc	418b8e33	sub	x28,x23,x24	 x23:0x80009fc4 x24:0x00000000 x28=0x80009fc4
       28775000	      2876	800003e0	402483b3	sub	x7,x9,x2	  x9:0x7fff67ae  x2:0x00000005  x7=0x7fff67a9
       28785000	      2877	800003e4	003a0a13	addi	x20,x20,3	 x20:0x00000009 x20=0x0000000c
       28795000	      2878	800003e8	00d22cb3	slt	x25,x4,x13	  x4:0x00000000 x13:0x52178000 x25=0x00000001
       28805000	      2879	800003ec	feaa48e3	blt	x20,x10,800003dc	 x20:0x0000000c x10:0x00000012
       28815000	      2880	00000000	00000013	addi	x0,x0,0	  x0:0x00000000
       28825000	      2881	800003d8	00000013	addi	x0,x0,0	  x0:0x00000000
       28835000	      2882	800003dc	418b8e33	sub	x28,x23,x24	 x23:0x80009fc4 x24:0x00000000 x28=0x80009fc4
       28845000	      2883	800003e0	402483b3	sub	x7,x9,x2	  x9:0x7fff67ae  x2:0x00000005  x7=0x7fff67a9
       28855000	      2884	800003e4	003a0a13	addi	x20,x20,3	 x20:0x0000000c x20=0x0000000f
       28865000	      2885	800003e8	00d22cb3	slt	x25,x4,x13	  x4:0x00000000 x13:0x52178000 x25=0x00000001
       28875000	      2886	800003ec	feaa48e3	blt	x20,x10,800003dc	 x20:0x0000000f x10:0x00000012
       28885000	      2887	00000000	00000013	addi	x0,x0,0	  x0:0x00000000
       28895000	      2888	800003d8	00000013	addi	x0,x0,0	  x0:0x00000000
       28905000	      2889	800003dc	418b8e33	sub	x28,x23,x24	 x23:0x80009fc4 x24:0x00000000 x28=0x80009fc4
       28915000	      2890	800003e0	402483b3	sub	x7,x9,x2	  x9:0x7fff67ae  x2:0x00000005  x7=0x7fff67a9
       28925000	      2891	800003e4	003a0a13	addi	x20,x20,3	 x20:0x0000000f x20=0x00000012
       28935000	      2892	800003e8	00d22cb3	slt	x25,x4,x13	  x4:0x00000000 x13:0x52178000 x25=0x00000001
       28945000	      2893	800003ec	feaa48e3	blt	x20,x10,800003dc	 x20:0x00000012 x10:0x00000012
       28955000	      2894	800003f0	fda67ce3	bgeu	x12,x26,800003c8	 x12:0x00000003 x26:0x00000009
       28965000	      2895	800003f4	006932b3	sltu	x5,x18,x6	 x18:0xb1e8cc05  x6:0xcecbec84  x5=0x00000001
       28975000	      2896	800003f8	00bb1733	sll	x14,x22,x11	 x22:0x01fffc00 x11:0xb1e8cc04 x14=0x1fffc000
       28985000	      2897	800003fc	c6f24993	xori	x19,x4,-913	  x4:0x00000000 x19=0xfffffc6f
       28995000	      2898	80000400	d9b8ce13	xori	x28,x17,-613	 x17:0xf0ed7661 x28=0x0f128bfa
       29005000	      2899	80000404	40285c13	srai	x24,x16,0x2	 x16:0xfffff9c8 x24=0xfffffe72
       29015000	      2900	80000408	059cc463	blt	x25,x25,80000450	 x25:0x00000001 x25:0x00000001
       29025000	      2901	8000040c	0058ed33	or	x26,x17,x5	 x17:0xf0ed7661  x5:0x00000001 x26=0xf0ed7661
       29035000	      2902	80000410	0000dc33	srl	x24,x1,x0	  x1:0x4b187000  x0:0x00000000 x24=0x4b187000
       29045000	      2903	80000414	2027b713	sltiu	x14,x15,514	 x15:0x00000000 x14=0x00000001
       29055000	      2904	80000418	00000013	addi	x0,x0,0	  x0:0x00000000
       29065000	      2905	8000041c	41b754b3	sra	x9,x14,x27	 x14:0x00000001 x27:0x00000001  x9=0x00000000
       29075000	      2906	80000420	0523fd93	andi	x27,x7,82	  x7:0x7fff67a9 x27=0x00000000
       29085000	      2907	80000424	cfc9cd13	xori	x26,x19,-772	 x19:0xfffffc6f x26=0x00000093
       29095000	      2908	80000428	743fbc93	sltiu	x25,x31,1859	 x31:0x00000001 x25=0x00000001
       29105000	      2909	8000042c	0294e537	lui	x10,0x294e	 x10=0x0294e000
       29115000	      2910	80000430	01e2b4b3	sltu	x9,x5,x30	  x5:0x00000001 x30:0x80009f30  x9=0x00000001
       29125000	      2911	80000434	0103cc63	blt	x7,x16,8000044c	  x7:0x7fff67a9 x16:0xfffff9c8
       29135000	      2912	80000438	41e6d933	sra	x18,x13,x30	 x13:0x52178000 x30:0x80009f30 x18=0x00005217
       29145000	      2913	8000043c	41dbda93	srai	x21,x23,0x1d	 x23:0x80009fc4 x21=0xfffffffc
       29155000	      2914	80000440	406e8e33	sub	x28,x29,x6	 x29:0x00000000  x6:0xcecbec84 x28=0x3134137c
       29165000	      2915	80000444	015a1093	slli	x1,x20,0x15	 x20:0x00000012  x1=0x02400000
       29175000	      2916	80000448	41c4d093	srai	x1,x9,0x1c	  x9:0x00000001  x1=0x00000000
       29185000	      2917	8000044c	7920f613	andi	x12,x1,1938	  x1:0x00000000 x12=0x00000000
       29195000	      2918	80000450	01b77933	and	x18,x14,x27	 x14:0x00000001 x27:0x00000000 x18=0x00000000
       29205000	      2919	80000454	01099413	slli	x8,x19,0x10	 x19:0xfffffc6f  x8=0xfc6f0000
       29215000	      2920	80000458	00831813	slli	x16,x6,0x8	  x6:0xcecbec84 x16=0xcbec8400
       29225000	      2921	8000045c	82ed5917	auipc	x18,0x82ed5	 x18=0x02ed5458
       29235000	      2922	80000460	83b20b13	addi	x22,x4,-1989	  x4:0x00000000 x22=0xfffff83b
       29245000	      2923	80000464	00000013	addi	x0,x0,0	  x0:0x00000000
       29255000	      2924	80000468	00000013	addi	x0,x0,0	  x0:0x00000000
       29265000	      2925	8000046c	007b5e63	bge	x22,x7,80000488	 x22:0xfffff83b  x7:0x7fff67a9
       29275000	      2926	80000470	02a11463	bne	x2,x10,80000498	  x2:0x00000005 x10:0x0294e000
       29285000	      2927	00000000	00000013	addi	x0,x0,0	  x0:0x00000000
       29295000	      2928	80000494	00000013	addi	x0,x0,0	  x0:0x00000000
       29305000	      2929	80000498	019d67b3	or	x15,x26,x25	 x26:0x00000093 x25:0x00000001 x15=0x00000093
       29315000	      2930	8000049c	050b7863	bgeu	x22,x16,800004ec	 x22:0xfffff83b x16:0xcbec8400
       29325000	      2931	00000000	00000013	addi	x0,x0,0	  x0:0x00000000
       29335000	      2932	800004e8	00000013	addi	x0,x0,0	  x0:0x00000000
       29345000	      2933	800004ec	99545697	auipc	x13,0x99545	 x13=0x195454e8
       29355000	      2934	800004f0	d007a693	slti	x13,x15,-768	 x15:0x00000093 x13=0x00000000
       29365000	      2935	800004f4	c7e87413	andi	x8,x16,-898	 x16:0xcbec8400  x8=0xcbec8400
       29375000	      2936	800004f8	059ad063	bge	x21,x25,80000538	 x21:0xfffffffc x25:0x00000001
       29385000	      2937	800004fc	03d69263	bne	x13,x29,80000520	 x13:0x00000000 x29:0x00000000
       29395000	      2938	80000500	00000013	addi	x0,x0,0	  x0:0x00000000
       29405000	      2939	80000504	0141ca63	blt	x3,x20,80000518	  x3:0xffffffec x20:0x00000012
       29415000	      2940	00000000	00000013	addi	x0,x0,0	  x0:0x00000000
       29425000	      2941	80000514	00000013	addi	x0,x0,0	  x0:0x00000000
       29435000	      2942	80000518	b74bf493	andi	x9,x23,-1164	 x23:0x80009fc4  x9=0x80009b44
       29445000	      2943	8000051c	41465393	srai	x7,x12,0x14	 x12:0x00000000  x7=0x00000000
       29455000	      2944	80000520	00f71db3	sll	x27,x14,x15	 x14:0x00000001 x15:0x00000093 x27=0x00080000
       29465000	      2945	80000524	64b8ae13	slti	x28,x17,1611	 x17:0xf0ed7661 x28=0x00000001
       29475000	      2946	80000528	03560263	beq	x12,x21,8000054c	 x12:0x00000000 x21:0xfffffffc
       29485000	      2947	8000052c	bf146f93	ori	x31,x8,-1039	  x8:0xcbec8400 x31=0xfffffff1
       29495000	      2948	80000530	01b36d33	or	x26,x6,x27	  x6:0xcecbec84 x27:0x00080000 x26=0xcecbec84
       29505000	      2949	80000534	d1664597	auipc	x11,0xd1664	 x11=0x51664530
       29515000	      2950	80000538	00000013	addi	x0,x0,0	  x0:0x00000000
       29525000	      2951	8000053c	3f39c793	xori	x15,x19,1011	 x19:0xfffffc6f x15=0xffffff9c
       29535000	      2952	80000540	40aad4b3	sra	x9,x21,x10	 x21:0xfffffffc x10:0x0294e000  x9=0xfffffffc
       29545000	      2953	80000544	411583b3	sub	x7,x11,x17	 x11:0x51664530 x17:0xf0ed7661  x7=0x6078cecf
       29555000	      2954	80000548	01dfb333	sltu	x6,x31,x29	 x31:0xfffffff1 x29:0x00000000  x6=0x00000000
       29565000	      2955	8000054c	41f30233	sub	x4,x6,x31	  x6:0x00000000 x31:0xfffffff1  x4=0x0000000f
       29575000	      2956	80000550	0072aeb3	slt	x29,x5,x7	  x5:0x00000001  x7:0x6078cecf x29=0x00000001
       29585000	      2957	80000554	017a5293	srli	x5,x20,0x17	 x20:0x00000012  x5=0x00000000
       29595000	      2958	80000558	93638037	lui	x0,0x93638	
       29605000	      2959	8000055c	4d31cf93	xori	x31,x3,1235	  x3:0xffffffec x31=0xfffffb3f
       29615000	      2960	80000560	52ba0413	addi	x8,x20,1323	 x20:0x00000012  x8=0x0000053d
       29625000	      2961	80000564	40ca8cb3	sub	x25,x21,x12	 x21:0xfffffffc x12:0x00000000 x25=0xfffffffc
       29635000	      2962	80000568	00ef5463	bge	x30,x14,80000570	 x30:0x80009f30 x14:0x00000001
       29645000	      2963	8000056c	0250cc63	blt	x1,x5,800005a4	  x1:0x00000000  x5:0x00000000
       29655000	      2964	80000570	00de8033	add	x0,x29,x13	 x29:0x00000001 x13:0x00000000
       29665000	      2965	80000574	001ee3b3	or	x7,x29,x1	 x29:0x00000001  x1:0x00000000  x7=0x00000001
       29675000	      2966	80000578	00b55463	bge	x10,x11,80000580	 x10:0x0294e000 x11:0x51664530
       29685000	      2967	8000057c	0089c2b3	xor	x5,x19,x8	 x19:0xfffffc6f  x8:0x0000053d  x5=0xfffff952
       29695000	      2968	80000580	00519b33	sll	x22,x3,x5	  x3:0xffffffec  x5:0xfffff952 x22=0xffb00000
       29705000	      2969	80000584	00000013	addi	x0,x0,0	  x0:0x00000000
       29715000	      2970	80000588	41435d93	srai	x27,x6,0x14	  x6:0x00000000 x27=0x00000000
       29725000	      2971	8000058c	b1bfbb13	sltiu	x22,x31,-1253	 x31:0xfffffb3f x22=0x00000000
       29735000	      2972	80000590	c1f9c997	auipc	x19,0xc1f9c	 x19=0x41f9c58c
       29745000	      2973	80000594	1170f013	andi	x0,x1,279	  x1:0x00000000
       29755000	      2974	80000598	05f39863	bne	x7,x31,800005e8	  x7:0x00000001 x31:0xfffffb3f
       29765000	      2975	00000000	00000013	addi	x0,x0,0	  x0:0x00000000
       29775000	      2976	800005e4	00000013	addi	x0,x0,0	  x0:0x00000000
       29785000	      2977	800005e8	00185a63	bge	x16,x1,800005fc	 x16:0xcbec8400  x1:0x00000000
       29795000	      2978	800005ec	22da6913	ori	x18,x20,557	 x20:0x00000012 x18=0x0000023f
       29805000	      2979	800005f0	00000013	addi	x0,x0,0	  x0:0x00000000
       29815000	      2980	800005f4	ba5b7493	andi	x9,x22,-1115	 x22:0x00000000  x9=0x00000000
       29825000	      2981	800005f8	04966213	ori	x4,x12,73	 x12:0x00000000  x4=0x00000049
       29835000	      2982	800005fc	d4e22d17	auipc	x26,0xd4e22	 x26=0x54e225f8
       29845000	      2983	80000600	01ae8933	add	x18,x29,x26	 x29:0x00000001 x26:0x54e225f8 x18=0x54e225f9
       29855000	      2984	80000604	00db9f93	slli	x31,x23,0xd	 x23:0x80009fc4 x31=0x13f88000
       29865000	      2985	80000608	003d1b13	slli	x22,x26,0x3	 x26:0x54e225f8 x22=0xa7112fc0
       29875000	      2986	8000060c	8b262193	slti	x3,x12,-1870	 x12:0x00000000  x3=0x00000000
       29885000	      2987	80000610	032c0063	beq	x24,x18,80000630	 x24:0x4b187000 x18:0x54e225f9
       29895000	      2988	80000614	01cec1b3	xor	x3,x29,x28	 x29:0x00000001 x28:0x00000001  x3=0x00000000
       29905000	      2989	80000618	00b8fc63	bgeu	x17,x11,80000630	 x17:0xf0ed7661 x11:0x51664530
       29915000	      2990	00000000	00000013	addi	x0,x0,0	  x0:0x00000000
       29925000	      2991	8000062c	00000013	addi	x0,x0,0	  x0:0x00000000
       29935000	      2992	80000630	007413b3	sll	x7,x8,x7	  x8:0x0000053d  x7:0x00000001  x7=0x00000a7a
       29945000	      2993	80000634	004f2a03	lw	x20,4(x30)	 x30:0x80009f30 x20=0x80000c94 PA:0x80009f34
       29955000	      2994	80000638	00abee33	or	x28,x23,x10	 x23:0x80009fc4 x10:0x0294e000 x28=0x8294ffc4
       29965000	      2995	8000063c	010ad333	srl	x6,x21,x16	 x21:0xfffffffc x16:0xcbec8400  x6=0xfffffffc
       29975000	      2996	80000640	020f0f13	addi	x30,x30,32	 x30:0x80009f30 x30=0x80009f50
       29985000	      2997	80000644	35d9bf93	sltiu	x31,x19,861	 x19:0x41f9c58c x31=0x00000000
       29995000	      2998	80000648	01e8b3b3	sltu	x7,x17,x30	 x17:0xf0ed7661 x30:0x80009f50  x7=0x00000000
       30005000	      2999	8000064c	00b79593	slli	x11,x15,0xb	 x15:0xffffff9c x11=0xfffce000
       30015000	      3000	80000650	001a0413	addi	x8,x20,1	 x20:0x80000c94  x8=0x80000c95
       30025000	      3001	80000654	00040467	jalr	x8,x8,0	  x8:0x80000c95  x8=0x80000654
       30035000	      3002	00000000	00000013	addi	x0,x0,0	  x0:0x00000000
       30045000	      3003	80000c94	00000013	addi	x0,x0,0	  x0:0x00000000
       30055000	      3004	80000c98	01528733	add	x14,x5,x21	  x5:0xfffff952 x21:0xfffffffc x14=0xfffff94e
       30065000	      3005	80000c9c	006a4c33	xor	x24,x20,x6	 x20:0x80000c94  x6:0xfffffffc x24=0x7ffff368
       30075000	      3006	80000ca0	2fa94317	auipc	x6,0x2fa94	  x6=0xafa94c9c
       30085000	      3007	80000ca4	01f8fc33	and	x24,x17,x31	 x17:0xf0ed7661 x31:0x00000000 x24=0x00000000
       30095000	      3008	80000ca8	000be233	or	x4,x23,x0	 x23:0x80009fc4  x0:0x00000000  x4=0x80009fc4
       30105000	      3009	80000cac	00ba3433	sltu	x8,x20,x11	 x20:0x80000c94 x11:0xfffce000  x8=0x00000001
       30115000	      3010	80000cb0	05c31263	bne	x6,x28,80000cf4	  x6:0xafa94c9c x28:0x8294ffc4
       30125000	      3011	00000000	00000013	addi	x0,x0,0	  x0:0x00000000
       30135000	      3012	80000cf0	00000013	addi	x0,x0,0	  x0:0x00000000
       30145000	      3013	80000cf4	01d26463	bltu	x4,x29,80000cfc	  x4:0x80009fc4 x29:0x00000001
       30155000	      3014	80000cf8	409e8133	sub	x2,x29,x9	 x29:0x00000001  x9:0x00000000  x2=0x00000001
       30165000	      3015	80000cfc	00000013	addi	x0,x0,0	  x0:0x00000000
       30175000	      3016	80000d00	01ebcc63	blt	x23,x30,80000d18	 x23:0x80009fc4 x30:0x80009f50
       30185000	      3017	80000d04	01759d13	slli	x26,x11,0x17	 x11:0xfffce000 x26=0x00000000
       30195000	      3018	80000d08	03ea8863	beq	x21,x30,80000d38	 x21:0xfffffffc x30:0x80009f50
       30205000	      3019	80000d0c	02a26263	bltu	x4,x10,80000d30	  x4:0x80009fc4 x10:0x0294e000
       30215000	      3020	80000d10	04e19263	bne	x3,x14,80000d54	  x3:0x00000000 x14:0xfffff94e
       30225000	      3021	00000000	00000013	addi	x0,x0,0	  x0:0x00000000
       30235000	      3022	80000d50	00000013	addi	x0,x0,0	  x0:0x00000000
       30245000	      3023	80000d54	cb68ee13	ori	x28,x17,-842	 x17:0xf0ed7661 x28=0xfffffef7
       30255000	      3024	80000d58	40d185b3	sub	x11,x3,x13	  x3:0x00000000 x13:0x00000000 x11=0x00000000
       30265000	      3025	80000d5c	014bbeb3	sltu	x29,x23,x20	 x23:0x80009fc4 x20:0x80000c94 x29=0x00000000
       30275000	      3026	80000d60	03018c63	beq	x3,x16,80000d98	  x3:0x00000000 x16:0xcbec8400
       30285000	      3027	80000d64	00000013	addi	x0,x0,0	  x0:0x00000000
       30295000	      3028	80000d68	00ae29b3	slt	x19,x28,x10	 x28:0xfffffef7 x10:0x0294e000 x19=0x00000001
       30305000	      3029	80000d6c	014efc63	bgeu	x29,x20,80000d84	 x29:0x00000000 x20:0x80000c94
       30315000	      3030	80000d70	76783b17	auipc	x22,0x76783	 x22=0xf6783d6c
       30325000	      3031	80000d74	01b0a3b3	slt	x7,x1,x27	  x1:0x00000000 x27:0x00000000  x7=0x00000000
       30335000	      3032	80000d78	01653b33	sltu	x22,x10,x22	 x10:0x0294e000 x22:0xf6783d6c x22=0x00000001
       30345000	      3033	80000d7c	63d50c97	auipc	x25,0x63d50	 x25=0xe3d50d78
       30355000	      3034	80000d80	70cc8697	auipc	x13,0x70cc8	 x13=0xf0cc8d7c
       30365000	      3035	80000d84	05a20863	beq	x4,x26,80000dd4	  x4:0x80009fc4 x26:0x00000000
       30375000	      3036	80000d88	00fad613	srli	x12,x21,0xf	 x21:0xfffffffc x12=0x0001ffff
       30385000	      3037	80000d8c	419bd233	sra	x4,x23,x25	 x23:0x80009fc4 x25:0xe3d50d78  x4=0xffffff80
       30395000	      3038	80000d90	de43ec93	ori	x25,x7,-540	  x7:0x00000000 x25=0xfffffde4
       30405000	      3039	80000d94	00d07eb3	and	x29,x0,x13	  x0:0x00000000 x13:0xf0cc8d7c x29=0x00000000
       30415000	      3040	80000d98	00730033	add	x0,x6,x7	  x6:0xafa94c9c  x7:0x00000000
       30425000	      3041	80000d9c	0284c663	blt	x9,x8,80000dc8	  x9:0x00000000  x8:0x00000001
       30435000	      3042	00000000	00000013	addi	x0,x0,0	  x0:0x00000000
       30445000	      3043	80000dc4	00000013	addi	x0,x0,0	  x0:0x00000000
       30455000	      3044	80000dc8	1a5dbb13	sltiu	x22,x27,421	 x27:0x00000000 x22=0x00000001
       30465000	      3045	80000dcc	025a4c63	blt	x20,x5,80000e04	 x20:0x80000c94  x5:0xfffff952
       30475000	      3046	00000000	00000013	addi	x0,x0,0	  x0:0x00000000
       30485000	      3047	80000e00	00000013	addi	x0,x0,0	  x0:0x00000000
       30495000	      3048	80000e04	00481a63	bne	x16,x4,80000e18	 x16:0xcbec8400  x4:0xffffff80
       30505000	      3049	00000000	00000013	addi	x0,x0,0	  x0:0x00000000
       30515000	      3050	80000e14	00000013	addi	x0,x0,0	  x0:0x00000000
       30525000	      3051	80000e18	002c9a33	sll	x20,x25,x2	 x25:0xfffffde4  x2:0x00000001 x20=0xfffffbc8
       30535000	      3052	80000e1c	0337e863	bltu	x15,x19,80000e4c	 x15:0xffffff9c x19:0x00000001
       30545000	      3053	80000e20	fe26ad13	slti	x26,x13,-30	 x13:0xf0cc8d7c x26=0x00000001
       30555000	      3054	80000e24	00228333	add	x6,x5,x2	  x5:0xfffff952  x2:0x00000001  x6=0xfffff953
       30565000	      3055	80000e28	007fc033	xor	x0,x31,x7	 x31:0x00000000  x7:0x00000000
       30575000	      3056	80000e2c	00f11c63	bne	x2,x15,80000e44	  x2:0x00000001 x15:0xffffff9c
       30585000	      3057	00000000	00000013	addi	x0,x0,0	  x0:0x00000000
       30595000	      3058	80000e40	00000013	addi	x0,x0,0	  x0:0x00000000
       30605000	      3059	80000e44	0254c263	blt	x9,x5,80000e68	  x9:0x00000000  x5:0xfffff952
       30615000	      3060	80000e48	b5ec4613	xori	x12,x24,-1186	 x24:0x00000000 x12=0xfffffb5e
       30625000	      3061	80000e4c	401a0e33	sub	x28,x20,x1	 x20:0xfffffbc8  x1:0x00000000 x28=0xfffffbc8
       30635000	      3062	80000e50	289d9397	auipc	x7,0x289d9	  x7=0xa89d9e4c
       30645000	      3063	80000e54	00027eb3	and	x29,x4,x0	  x4:0xffffff80  x0:0x00000000 x29=0x00000000
       30655000	      3064	80000e58	046d5e63	bge	x26,x6,80000eb4	 x26:0x00000001  x6:0xfffff953
       30665000	      3065	00000000	00000013	addi	x0,x0,0	  x0:0x00000000
       30675000	      3066	80000eb0	00000013	addi	x0,x0,0	  x0:0x00000000
       30685000	      3067	80000eb4	00000013	addi	x0,x0,0	  x0:0x00000000
       30695000	      3068	80000eb8	40b65c33	sra	x24,x12,x11	 x12:0xfffffb5e x11:0x00000000 x24=0xfffffb5e
       30705000	      3069	80000ebc	01995733	srl	x14,x18,x25	 x18:0x54e225f9 x25:0xfffffde4 x14=0x054e225f
       30715000	      3070	80000ec0	22a6a293	slti	x5,x13,554	 x13:0xf0cc8d7c  x5=0x00000001
       30725000	      3071	80000ec4	00011033	sll	x0,x2,x0	  x2:0x00000001  x0:0x00000000
       30735000	      3072	80000ec8	623b6197	auipc	x3,0x623b6	  x3=0xe23b6ec4
       30745000	      3073	80000ecc	00bc9333	sll	x6,x25,x11	 x25:0xfffffde4 x11:0x00000000  x6=0xfffffde4
       30755000	      3074	80000ed0	00000013	addi	x0,x0,0	  x0:0x00000000
       30765000	      3075	80000ed4	41815613	srai	x12,x2,0x18	  x2:0x00000001 x12=0x00000000
       30775000	      3076	80000ed8	03a56463	bltu	x10,x26,80000f00	 x10:0x0294e000 x26:0x00000001
       30785000	      3077	80000edc	00144db3	xor	x27,x8,x1	  x8:0x00000001  x1:0x00000000 x27=0x00000001
       30795000	      3078	80000ee0	4180dcb3	sra	x25,x1,x24	  x1:0x00000000 x24:0xfffffb5e x25=0x00000000
       30805000	      3079	80000ee4	097ced13	ori	x26,x25,151	 x25:0x00000000 x26=0x00000097
       30815000	      3080	80000ee8	01c60fb3	add	x31,x12,x28	 x12:0x00000000 x28:0xfffffbc8 x31=0xfffffbc8
       30825000	      3081	80000eec	41c4df93	srai	x31,x9,0x1c	  x9:0x00000000 x31=0x00000000
       30835000	      3082	80000ef0	00e99533	sll	x10,x19,x14	 x19:0x00000001 x14:0x054e225f x10=0x80000000
       30845000	      3083	80000ef4	01b61433	sll	x8,x12,x27	 x12:0x00000000 x27:0x00000001  x8=0x00000000
       30855000	      3084	80000ef8	024c0c63	beq	x24,x4,80000f30	 x24:0xfffffb5e  x4:0xffffff80
       30865000	      3085	80000efc	00626333	or	x6,x4,x6	  x4:0xffffff80  x6:0xfffffde4  x6=0xffffffe4
       30875000	      3086	80000f00	e01d7813	andi	x16,x26,-511	 x26:0x00000097 x16=0x00000001
       30885000	      3087	80000f04	00462eb3	slt	x29,x12,x4	 x12:0x00000000  x4:0xffffff80 x29=0x00000000
       30895000	      3088	80000f08	00155313	srli	x6,x10,0x1	 x10:0x80000000  x6=0x40000000
       30905000	      3089	80000f0c	404c5693	srai	x13,x24,0x4	 x24:0xfffffb5e x13=0xffffffb5
       30915000	      3090	80000f10	00ae1f93	slli	x31,x28,0xa	 x28:0xfffffbc8 x31=0xffef2000
       30925000	      3091	80000f14	00000013	addi	x0,x0,0	  x0:0x00000000
       30935000	      3092	80000f18	008a40b3	xor	x1,x20,x8	 x20:0xfffffbc8  x8:0x00000000  x1=0xfffffbc8
       30945000	      3093	80000f1c	0034e6b3	or	x13,x9,x3	  x9:0x00000000  x3:0xe23b6ec4 x13=0xe23b6ec4
       30955000	      3094	80000f20	00b965b3	or	x11,x18,x11	 x18:0x54e225f9 x11:0x00000000 x11=0x54e225f9
       30965000	      3095	80000f24	2dc40d93	addi	x27,x8,732	  x8:0x00000000 x27=0x000002dc
       30975000	      3096	80000f28	01b70ab3	add	x21,x14,x27	 x14:0x054e225f x27:0x000002dc x21=0x054e253b
       30985000	      3097	80000f2c	00dede13	srli	x28,x29,0xd	 x29:0x00000000 x28=0x00000000
       30995000	      3098	80000f30	04301863	bne	x0,x3,80000f80	  x0:0x00000000  x3:0xe23b6ec4
       31005000	      3099	00000000	00000013	addi	x0,x0,0	  x0:0x00000000
       31015000	      3100	80000f7c	00000013	addi	x0,x0,0	  x0:0x00000000
       31025000	      3101	80000f80	00000013	addi	x0,x0,0	  x0:0x00000000
       31035000	      3102	80000f84	01cfcc33	xor	x24,x31,x28	 x31:0xffef2000 x28:0x00000000 x24=0xffef2000
       31045000	      3103	80000f88	05c47863	bgeu	x8,x28,80000fd8	  x8:0x00000000 x28:0x00000000
       31055000	      3104	00000000	00000013	addi	x0,x0,0	  x0:0x00000000
       31065000	      3105	80000fd4	00000013	addi	x0,x0,0	  x0:0x00000000
       31075000	      3106	80000fd8	41df5193	srai	x3,x30,0x1d	 x30:0x80009f50  x3=0xfffffffc
       31085000	      3107	80000fdc	01b99e63	bne	x19,x27,80000ff8	 x19:0x00000001 x27:0x000002dc
       31095000	      3108	00000000	00000013	addi	x0,x0,0	  x0:0x00000000
       31105000	      3109	80000ff4	00000013	addi	x0,x0,0	  x0:0x00000000
       31115000	      3110	80000ff8	030d0c63	beq	x26,x16,80001030	 x26:0x00000097 x16:0x00000001
       31125000	      3111	80000ffc	411ed993	srai	x19,x29,0x11	 x29:0x00000000 x19=0x00000000
       31135000	      3112	80001000	007ff5b3	and	x11,x31,x7	 x31:0xffef2000  x7:0xa89d9e4c x11=0xa88d0000
       31145000	      3113	80001004	404dd593	srai	x11,x27,0x4	 x27:0x000002dc x11=0x0000002d
       31155000	      3114	80001008	03074263	blt	x14,x16,8000102c	 x14:0x054e225f x16:0x00000001
       31165000	      3115	8000100c	fe3d6c37	lui	x24,0xfe3d6	 x24=0xfe3d6000
       31175000	      3116	80001010	0468e463	bltu	x17,x6,80001058	 x17:0xf0ed7661  x6:0x40000000
       31185000	      3117	80001014	014ee2b3	or	x5,x29,x20	 x29:0x00000000 x20:0xfffffbc8  x5=0xfffffbc8
       31195000	      3118	80001018	010f5793	srli	x15,x30,0x10	 x30:0x80009f50 x15=0x00008000
       31205000	      3119	8000101c	04a24863	blt	x4,x10,8000106c	  x4:0xffffff80 x10:0x80000000
       31215000	      3120	80001020	413b5e33	sra	x28,x22,x19	 x22:0x00000001 x19:0x00000000 x28=0x00000001
       31225000	      3121	80001024	5e4d7913	andi	x18,x26,1508	 x26:0x00000097 x18=0x00000084
       31235000	      3122	80001028	00000013	addi	x0,x0,0	  x0:0x00000000
       31245000	      3123	8000102c	ee8ef293	andi	x5,x29,-280	 x29:0x00000000  x5=0x00000000
       31255000	      3124	80001030	40075913	srai	x18,x14,0x0	 x14:0x054e225f x18=0x054e225f
       31265000	      3125	80001034	0115be33	sltu	x28,x11,x17	 x11:0x0000002d x17:0xf0ed7661 x28=0x00000001
       31275000	      3126	80001038	014be463	bltu	x23,x20,80001040	 x23:0x80009fc4 x20:0xfffffbc8
       31285000	      3127	00000000	00000013	addi	x0,x0,0	  x0:0x00000000
       31295000	      3128	8000103c	00000013	addi	x0,x0,0	  x0:0x00000000
       31305000	      3129	80001040	01162db3	slt	x27,x12,x17	 x12:0x00000000 x17:0xf0ed7661 x27=0x00000000
       31315000	      3130	80001044	85b68713	addi	x14,x13,-1957	 x13:0xe23b6ec4 x14=0xe23b671f
       31325000	      3131	80001048	01f4a233	slt	x4,x9,x31	  x9:0x00000000 x31:0xffef2000  x4=0x00000000
       31335000	      3132	8000104c	00a96e33	or	x28,x18,x10	 x18:0x054e225f x10:0x80000000 x28=0x854e225f
       31345000	      3133	80001050	00d1bcb3	sltu	x25,x3,x13	  x3:0xfffffffc x13:0xe23b6ec4 x25=0x00000000
       31355000	      3134	80001054	01dea9b3	slt	x19,x29,x29	 x29:0x00000000 x29:0x00000000 x19=0x00000000
       31365000	      3135	80001058	025a4863	blt	x20,x5,80001088	 x20:0xfffffbc8  x5:0x00000000
       31375000	      3136	00000000	00000013	addi	x0,x0,0	  x0:0x00000000
       31385000	      3137	80001084	00000013	addi	x0,x0,0	  x0:0x00000000
       31395000	      3138	80001088	4051d093	srai	x1,x3,0x5	  x3:0xfffffffc  x1=0xffffffff
       31405000	      3139	8000108c	481cf293	andi	x5,x25,1153	 x25:0x00000000  x5=0x00000000
       31415000	      3140	80001090	8da8c413	xori	x8,x17,-1830	 x17:0xf0ed7661  x8=0x0f128ebb
       31425000	      3141	80001094	006f0433	add	x8,x30,x6	 x30:0x80009f50  x6:0x40000000  x8=0xc0009f50
       31435000	      3142	80001098	003353b3	srl	x7,x6,x3	  x6:0x40000000  x3:0xfffffffc  x7=0x00000004
       31445000	      3143	8000109c	befe7393	andi	x7,x28,-1041	 x28:0x854e225f  x7=0x854e224f
       31455000	      3144	800010a0	01cd5793	srli	x15,x26,0x1c	 x26:0x00000097 x15=0x00000000
       31465000	      3145	800010a4	00d72cb3	slt	x25,x14,x13	 x14:0xe23b671f x13:0xe23b6ec4 x25=0x00000001
       31475000	      3146	800010a8	01f89293	slli	x5,x17,0x1f	 x17:0xf0ed7661  x5=0x80000000
       31485000	      3147	800010ac	c99fb993	sltiu	x19,x31,-871	 x31:0xffef2000 x19=0x00000001
       31495000	      3148	800010b0	05ff8863	beq	x31,x31,80001100	 x31:0xffef2000 x31:0xffef2000
       31505000	      3149	00000000	00000013	addi	x0,x0,0	  x0:0x00000000
       31515000	      3150	800010fc	00000013	addi	x0,x0,0	  x0:0x00000000
       31525000	      3151	80001100	fe1cc613	xori	x12,x25,-31	 x25:0x00000001 x12=0xffffffe0
       31535000	      3152	80001104	0bdd0513	addi	x10,x26,189	 x26:0x00000097 x10=0x00000154
       31545000	      3153	80001108	016e3233	sltu	x4,x28,x22	 x28:0x854e225f x22:0x00000001  x4=0x00000000
       31555000	      3154	8000110c	d4cc8997	auipc	x19,0xd4cc8	 x19=0x54cc9108
       31565000	      3155	80001110	07267463	bgeu	x12,x18,80001178	 x12:0xffffffe0 x18:0x054e225f
       31575000	      3156	00000000	00000013	addi	x0,x0,0	  x0:0x00000000
       31585000	      3157	80001174	00000013	addi	x0,x0,0	  x0:0x00000000
       31595000	      3158	80001178	029e8063	beq	x29,x9,80001198	 x29:0x00000000  x9:0x00000000
       31605000	      3159	00000000	00000013	addi	x0,x0,0	  x0:0x00000000
       31615000	      3160	80001194	00000013	addi	x0,x0,0	  x0:0x00000000
       31625000	      3161	80001198	01f85e13	srli	x28,x16,0x1f	 x16:0x00000001 x28=0x00000000
       31635000	      3162	8000119c	1dba4f93	xori	x31,x20,475	 x20:0xfffffbc8 x31=0xfffffa13
       31645000	      3163	800011a0	0553e863	bltu	x7,x21,800011f0	  x7:0x854e224f x21:0x054e253b
       31655000	      3164	800011a4	6ec46793	ori	x15,x8,1772	  x8:0xc0009f50 x15=0xc0009ffc
       31665000	      3165	800011a8	01597c63	bgeu	x18,x21,800011c0	 x18:0x054e225f x21:0x054e253b
       31675000	      3166	800011ac	6eb0e113	ori	x2,x1,1771	  x1:0xffffffff  x2=0xffffffff
       31685000	      3167	800011b0	03b7e263	bltu	x15,x27,800011d4	 x15:0xc0009ffc x27:0x00000000
       31695000	      3168	800011b4	a936da37	lui	x20,0xa936d	 x20=0xa936d000
       31705000	      3169	800011b8	026a0c63	beq	x20,x6,800011f0	 x20:0xa936d000  x6:0x40000000
       31715000	      3170	800011bc	4111d9b3	sra	x19,x3,x17	  x3:0xfffffffc x17:0xf0ed7661 x19=0xfffffffe
       31725000	      3171	800011c0	05879263	bne	x15,x24,80001204	 x15:0xc0009ffc x24:0xfe3d6000
       31735000	      3172	00000000	00000013	addi	x0,x0,0	  x0:0x00000000
       31745000	      3173	80001200	00000013	addi	x0,x0,0	  x0:0x00000000
       31755000	      3174	80001204	41538c33	sub	x24,x7,x21	  x7:0x854e224f x21:0x054e253b x24=0x7ffffd14
       31765000	      3175	80001208	41265093	srai	x1,x12,0x12	 x12:0xffffffe0  x1=0xffffffff
       31775000	      3176	8000120c	00000013	addi	x0,x0,0	  x0:0x00000000
       31785000	      3177	80001210	018a3fb3	sltu	x31,x20,x24	 x20:0xa936d000 x24:0x7ffffd14 x31=0x00000000
       31795000	      3178	80001214	40a2d9b3	sra	x19,x5,x10	  x5:0x80000000 x10:0x00000154 x19=0xfffff800
       31805000	      3179	80001218	011da0b3	slt	x1,x27,x17	 x27:0x00000000 x17:0xf0ed7661  x1=0x00000000
       31815000	      3180	8000121c	45320993	addi	x19,x4,1107	  x4:0x00000000 x19=0x00000453
       31825000	      3181	80001220	00e059b3	srl	x19,x0,x14	  x0:0x00000000 x14:0xe23b671f x19=0x00000000
       31835000	      3182	80001224	8e5a6013	ori	x0,x20,-1819	 x20:0xa936d000
       31845000	      3183	80001228	41d781b3	sub	x3,x15,x29	 x15:0xc0009ffc x29:0x00000000  x3=0xc0009ffc
       31855000	      3184	8000122c	018e6933	or	x18,x28,x24	 x28:0x00000000 x24:0x7ffffd14 x18=0x7ffffd14
       31865000	      3185	80001230	75f4cd13	xori	x26,x9,1887	  x9:0x00000000 x26=0x0000075f
       31875000	      3186	80001234	174d8c93	addi	x25,x27,372	 x27:0x00000000 x25=0x00000174
       31885000	      3187	80001238	d0e96593	ori	x11,x18,-754	 x18:0x7ffffd14 x11=0xfffffd1e
       31895000	      3188	8000123c	0022d393	srli	x7,x5,0x2	  x5:0x80000000  x7=0x20000000
       31905000	      3189	80001240	8e008493	addi	x9,x1,-1824	  x1:0x00000000  x9=0xfffff8e0
       31915000	      3190	80001244	41775f93	srai	x31,x14,0x17	 x14:0xe23b671f x31=0xffffffc4
       31925000	      3191	80001248	40938eb3	sub	x29,x7,x9	  x7:0x20000000  x9:0xfffff8e0 x29=0x20000720
       31935000	      3192	8000124c	00bf9463	bne	x31,x11,80001254	 x31:0xffffffc4 x11:0xfffffd1e
       31945000	      3193	00000000	00000013	addi	x0,x0,0	  x0:0x00000000
       31955000	      3194	80001250	00000013	addi	x0,x0,0	  x0:0x00000000
       31965000	      3195	80001254	4f664237	lui	x4,0x4f664	  x4=0x4f664000
       31975000	      3196	80001258	e11aa813	slti	x16,x21,-495	 x21:0x054e253b x16=0x00000000
       31985000	      3197	8000125c	0099dab3	srl	x21,x19,x9	 x19:0x00000000  x9:0xfffff8e0 x21=0x00000000
       31995000	      3198	80001260	03307463	bgeu	x0,x19,80001288	  x0:0x00000000 x19:0x00000000
       32005000	      3199	00000000	00000013	addi	x0,x0,0	  x0:0x00000000
       32015000	      3200	80001284	00000013	addi	x0,x0,0	  x0:0x00000000
       32025000	      3201	80001288	01220c63	beq	x4,x18,800012a0	  x4:0x4f664000 x18:0x7ffffd14
       32035000	      3202	8000128c	392adeb7	lui	x29,0x392ad	 x29=0x392ad000
       32045000	      3203	80001290	026a7c63	bgeu	x20,x6,800012c8	 x20:0xa936d000  x6:0x40000000
       32055000	      3204	00000000	00000013	addi	x0,x0,0	  x0:0x00000000
       32065000	      3205	800012c4	00000013	addi	x0,x0,0	  x0:0x00000000
       32075000	      3206	800012c8	404dd993	srai	x19,x27,0x4	 x27:0x00000000 x19=0x00000000
       32085000	      3207	800012cc	01b88c63	beq	x17,x27,800012e4	 x17:0xf0ed7661 x27:0x00000000
       32095000	      3208	800012d0	004c8e63	beq	x25,x4,800012ec	 x25:0x00000174  x4:0x4f664000
       32105000	      3209	800012d4	032b6663	bltu	x22,x18,80001300	 x22:0x00000001 x18:0x7ffffd14
       32115000	      3210	00000000	00000013	addi	x0,x0,0	  x0:0x00000000
       32125000	      3211	800012fc	00000013	addi	x0,x0,0	  x0:0x00000000
       32135000	      3212	80001300	01e081b3	add	x3,x1,x30	  x1:0x00000000 x30:0x80009f50  x3=0x80009f50
       32145000	      3213	80001304	01c46933	or	x18,x8,x28	  x8:0xc0009f50 x28:0x00000000 x18=0xc0009f50
       32155000	      3214	80001308	dda1e213	ori	x4,x3,-550	  x3:0x80009f50  x4=0xffffffda
       32165000	      3215	8000130c	00b4cdb3	xor	x27,x9,x11	  x9:0xfffff8e0 x11:0xfffffd1e x27=0x000005fe
       32175000	      3216	80001310	41d85fb3	sra	x31,x16,x29	 x16:0x00000000 x29:0x392ad000 x31=0x00000000
       32185000	      3217	80001314	4113d833	sra	x16,x7,x17	  x7:0x20000000 x17:0xf0ed7661 x16=0x10000000
       32195000	      3218	80001318	00a14db3	xor	x27,x2,x10	  x2:0xffffffff x10:0x00000154 x27=0xfffffeab
       32205000	      3219	8000131c	b88fe313	ori	x6,x31,-1144	 x31:0x00000000  x6=0xfffffb88
       32215000	      3220	80001320	e311f1b7	lui	x3,0xe311f	  x3=0xe311f000
       32225000	      3221	80001324	01124e33	xor	x28,x4,x17	  x4:0xffffffda x17:0xf0ed7661 x28=0x0f1289bb
       32235000	      3222	80001328	05f78863	beq	x15,x31,80001378	 x15:0xc0009ffc x31:0x00000000
       32245000	      3223	8000132c	03990063	beq	x18,x25,8000134c	 x18:0xc0009f50 x25:0x00000174
       32255000	      3224	80001330	02880863	beq	x16,x8,80001360	 x16:0x10000000  x8:0xc0009f50
       32265000	      3225	80001334	20c6bc93	sltiu	x25,x13,524	 x13:0xe23b6ec4 x25=0x00000000
       32275000	      3226	80001338	fc98a013	slti	x0,x17,-55	 x17:0xf0ed7661
       32285000	      3227	8000133c	014a76b3	and	x13,x20,x20	 x20:0xa936d000 x20:0xa936d000 x13=0xa936d000
       32295000	      3228	80001340	409bd693	srai	x13,x23,0x9	 x23:0x80009fc4 x13=0xffc0004f
       32305000	      3229	80001344	001b9813	slli	x16,x23,0x1	 x23:0x80009fc4 x16=0x00013f88
       32315000	      3230	80001348	00477033	and	x0,x14,x4	 x14:0xe23b671f  x4:0xffffffda
       32325000	      3231	8000134c	01d6e733	or	x14,x13,x29	 x13:0xffc0004f x29:0x392ad000 x14=0xffead04f
       32335000	      3232	80001350	01e3d133	srl	x2,x7,x30	  x7:0x20000000 x30:0x80009f50  x2=0x00002000
       32345000	      3233	80001354	05b78863	beq	x15,x27,800013a4	 x15:0xc0009ffc x27:0xfffffeab
       32355000	      3234	80001358	01a9ce33	xor	x28,x19,x26	 x19:0x00000000 x26:0x0000075f x28=0x0000075f
       32365000	      3235	8000135c	00000013	addi	x0,x0,0	  x0:0x00000000
       32375000	      3236	80001360	41488633	sub	x12,x17,x20	 x17:0xf0ed7661 x20:0xa936d000 x12=0x47b6a661
       32385000	      3237	80001364	41070a33	sub	x20,x14,x16	 x14:0xffead04f x16:0x00013f88 x20=0xffe990c7
       32395000	      3238	80001368	012f8433	add	x8,x31,x18	 x31:0x00000000 x18:0xc0009f50  x8=0xc0009f50
       32405000	      3239	8000136c	01120c63	beq	x4,x17,80001384	  x4:0xffffffda x17:0xf0ed7661
       32415000	      3240	80001370	03221c63	bne	x4,x18,800013a8	  x4:0xffffffda x18:0xc0009f50
       32425000	      3241	00000000	00000013	addi	x0,x0,0	  x0:0x00000000
       32435000	      3242	800013a4	00000013	addi	x0,x0,0	  x0:0x00000000
       32445000	      3243	800013a8	01641f93	slli	x31,x8,0x16	  x8:0xc0009f50 x31=0xd4000000
       32455000	      3244	800013ac	ebcdcb13	xori	x22,x27,-324	 x27:0xfffffeab x22=0x00000017
       32465000	      3245	800013b0	0d2dbc13	sltiu	x24,x27,210	 x27:0xfffffeab x24=0x00000000
       32475000	      3246	800013b4	6f2279b7	lui	x19,0x6f227	 x19=0x6f227000
       32485000	      3247	800013b8	411659b3	sra	x19,x12,x17	 x12:0x47b6a661 x17:0xf0ed7661 x19=0x23db5330
       32495000	      3248	800013bc	99d7e713	ori	x14,x15,-1635	 x15:0xc0009ffc x14=0xfffffffd
       32505000	      3249	800013c0	004f2a03	lw	x20,4(x30)	 x30:0x80009f50 x20=0x80000130 PA:0x80009f54
       32515000	      3250	800013c4	945806b7	lui	x13,0x94580	 x13=0x94580000
       32525000	      3251	800013c8	034f0f13	addi	x30,x30,52	 x30:0x80009f50 x30=0x80009f84
       32535000	      3252	800013cc	b5bf0e13	addi	x28,x30,-1189	 x30:0x80009f84 x28=0x80009adf
       32545000	      3253	800013d0	01df2333	slt	x6,x30,x29	 x30:0x80009f84 x29:0x392ad000  x6=0x00000001
       32555000	      3254	800013d4	01fcdb13	srli	x22,x25,0x1f	 x25:0x00000000 x22=0x00000000
       32565000	      3255	800013d8	00d47fb3	and	x31,x8,x13	  x8:0xc0009f50 x13:0x94580000 x31=0x80000000
       32575000	      3256	800013dc	00000013	addi	x0,x0,0	  x0:0x00000000
       32585000	      3257	800013e0	001a0c13	addi	x24,x20,1	 x20:0x80000130 x24=0x80000131
       32595000	      3258	800013e4	000c0c67	jalr	x24,x24,0	 x24:0x80000131 x24=0x800013e4
       32605000	      3259	00000000	00000013	addi	x0,x0,0	  x0:0x00000000
       32615000	      3260	80000130	00000013	addi	x0,x0,0	  x0:0x00000000
       32625000	      3261	80000134	ff800a13	addi	x20,x0,-8	  x0:0x00000000 x20=0xfffffff8
       32635000	      3262	80000138	015d4b33	xor	x22,x26,x21	 x26:0x0000075f x21:0x00000000 x22=0x0000075f
       32645000	      3263	8000013c	4023d633	sra	x12,x7,x2	  x7:0x20000000  x2:0x00002000 x12=0x20000000
       32655000	      3264	80000140	ebfa0593	addi	x11,x20,-321	 x20:0xfffffff8 x11=0xfffffeb7
       32665000	      3265	80000144	00537233	and	x4,x6,x5	  x6:0x00000001  x5:0x80000000  x4=0x00000000
       32675000	      3266	80000148	01300793	addi	x15,x0,19	  x0:0x00000000 x15=0x00000013
       32685000	      3267	8000014c	0186b613	sltiu	x12,x13,24	 x13:0x94580000 x12=0x00000000
       32695000	      3268	80000150	73e48017	auipc	x0,0x73e48	
       32705000	      3269	80000154	77c23c13	sltiu	x24,x4,1916	  x4:0x00000000 x24=0x00000001
       32715000	      3270	80000158	41df54b3	sra	x9,x30,x29	 x30:0x80009f84 x29:0x392ad000  x9=0x80009f84
       32725000	      3271	8000015c	001a0a13	addi	x20,x20,1	 x20:0xfffffff8 x20=0xfffffff9
       32735000	      3272	80000160	fff00093	addi	x1,x0,-1	  x0:0x00000000  x1=0xffffffff
       32745000	      3273	80000164	01bd6633	or	x12,x26,x27	 x26:0x0000075f x27:0xfffffeab x12=0xffffffff
       32755000	      3274	80000168	00515013	srli	x0,x2,0x5	  x2:0x00002000
       32765000	      3275	8000016c	00e00a93	addi	x21,x0,14	  x0:0x00000000 x21=0x0000000e
       32775000	      3276	80000170	0c8dc193	xori	x3,x27,200	 x27:0xfffffeab  x3=0xfffffe63
       32785000	      3277	80000174	406803b3	sub	x7,x16,x6	 x16:0x00013f88  x6:0x00000001  x7=0x00013f87
       32795000	      3278	80000178	407adc13	srai	x24,x21,0x7	 x21:0x0000000e x24=0x00000000
       32805000	      3279	8000017c	a6000013	addi	x0,x0,-1440	  x0:0x00000000
       32815000	      3280	80000180	00c4d4b3	srl	x9,x9,x12	  x9:0x80009f84 x12:0xffffffff  x9=0x00000001
       32825000	      3281	80000184	3172e513	ori	x10,x5,791	  x5:0x80000000 x10=0x80000317
       32835000	      3282	80000188	c4364213	xori	x4,x12,-957	 x12:0xffffffff  x4=0x000003bc
       32845000	      3283	8000018c	d529a113	slti	x2,x19,-686	 x19:0x23db5330  x2=0x00000000
       32855000	      3284	80000190	b6011537	lui	x10,0xb6011	 x10=0xb6011000
       32865000	      3285	80000194	0104c533	xor	x10,x9,x16	  x9:0x00000001 x16:0x00013f88 x10=0x00013f89
       32875000	      3286	80000198	00a08093	addi	x1,x1,10	  x1:0xffffffff  x1=0x00000009
       32885000	      3287	8000019c	40645e33	sra	x28,x8,x6	  x8:0xc0009f50  x6:0x00000001 x28=0xe0004fa8
       32895000	      3288	800001a0	ff50c2e3	blt	x1,x21,80000184	  x1:0x00000009 x21:0x0000000e
       32905000	      3289	00000000	00000013	addi	x0,x0,0	  x0:0x00000000
       32915000	      3290	80000180	00000013	addi	x0,x0,0	  x0:0x00000000
       32925000	      3291	80000184	3172e513	ori	x10,x5,791	  x5:0x80000000 x10=0x80000317
       32935000	      3292	80000188	c4364213	xori	x4,x12,-957	 x12:0xffffffff  x4=0x000003bc
       32945000	      3293	8000018c	d529a113	slti	x2,x19,-686	 x19:0x23db5330  x2=0x00000000
       32955000	      3294	80000190	b6011537	lui	x10,0xb6011	 x10=0xb6011000
       32965000	      3295	80000194	0104c533	xor	x10,x9,x16	  x9:0x00000001 x16:0x00013f88 x10=0x00013f89
       32975000	      3296	80000198	00a08093	addi	x1,x1,10	  x1:0x00000009  x1=0x00000013
       32985000	      3297	8000019c	40645e33	sra	x28,x8,x6	  x8:0xc0009f50  x6:0x00000001 x28=0xe0004fa8
       32995000	      3298	800001a0	ff50c2e3	blt	x1,x21,80000184	  x1:0x00000013 x21:0x0000000e
       33005000	      3299	800001a4	0a3e3493	sltiu	x9,x28,163	 x28:0xe0004fa8  x9=0x00000000
       33015000	      3300	800001a8	00a0d633	srl	x12,x1,x10	  x1:0x00000013 x10:0x00013f89 x12=0x00000000
       33025000	      3301	800001ac	410cd313	srai	x6,x25,0x10	 x25:0x00000000  x6=0x00000000
       33035000	      3302	800001b0	0077c5b3	xor	x11,x15,x7	 x15:0x00000013  x7:0x00013f87 x11=0x00013f94
       33045000	      3303	800001b4	41fe0eb3	sub	x29,x28,x31	 x28:0xe0004fa8 x31:0x80000000 x29=0x60004fa8
       33055000	      3304	800001b8	f8fa4ae3	blt	x20,x15,8000014c	 x20:0xfffffff9 x15:0x00000013
       33065000	      3305	00000000	00000013	addi	x0,x0,0	  x0:0x00000000
       33075000	      3306	80000148	00000013	addi	x0,x0,0	  x0:0x00000000
       33085000	      3307	8000014c	0186b613	sltiu	x12,x13,24	 x13:0x94580000 x12=0x00000000
       33095000	      3308	80000150	73e48017	auipc	x0,0x73e48	
       33105000	      3309	80000154	77c23c13	sltiu	x24,x4,1916	  x4:0x000003bc x24=0x00000001
       33115000	      3310	80000158	41df54b3	sra	x9,x30,x29	 x30:0x80009f84 x29:0x60004fa8  x9=0xff80009f
       33125000	      3311	8000015c	001a0a13	addi	x20,x20,1	 x20:0xfffffff9 x20=0xfffffffa
       33135000	      3312	80000160	fff00093	addi	x1,x0,-1	  x0:0x00000000  x1=0xffffffff
       33145000	      3313	80000164	01bd6633	or	x12,x26,x27	 x26:0x0000075f x27:0xfffffeab x12=0xffffffff
       33155000	      3314	80000168	00515013	srli	x0,x2,0x5	  x2:0x00000000
       33165000	      3315	8000016c	00e00a93	addi	x21,x0,14	  x0:0x00000000 x21=0x0000000e
       33175000	      3316	80000170	0c8dc193	xori	x3,x27,200	 x27:0xfffffeab  x3=0xfffffe63
       33185000	      3317	80000174	406803b3	sub	x7,x16,x6	 x16:0x00013f88  x6:0x00000000  x7=0x00013f88
       33195000	      3318	80000178	407adc13	srai	x24,x21,0x7	 x21:0x0000000e x24=0x00000000
       33205000	      3319	8000017c	a6000013	addi	x0,x0,-1440	  x0:0x00000000
       33215000	      3320	80000180	00c4d4b3	srl	x9,x9,x12	  x9:0xff80009f x12:0xffffffff  x9=0x00000001
       33225000	      3321	80000184	3172e513	ori	x10,x5,791	  x5:0x80000000 x10=0x80000317
       33235000	      3322	80000188	c4364213	xori	x4,x12,-957	 x12:0xffffffff  x4=0x000003bc
       33245000	      3323	8000018c	d529a113	slti	x2,x19,-686	 x19:0x23db5330  x2=0x00000000
       33255000	      3324	80000190	b6011537	lui	x10,0xb6011	 x10=0xb6011000
       33265000	      3325	80000194	0104c533	xor	x10,x9,x16	  x9:0x00000001 x16:0x00013f88 x10=0x00013f89
       33275000	      3326	80000198	00a08093	addi	x1,x1,10	  x1:0xffffffff  x1=0x00000009
       33285000	      3327	8000019c	40645e33	sra	x28,x8,x6	  x8:0xc0009f50  x6:0x00000000 x28=0xc0009f50
       33295000	      3328	800001a0	ff50c2e3	blt	x1,x21,80000184	  x1:0x00000009 x21:0x0000000e
       33305000	      3329	00000000	00000013	addi	x0,x0,0	  x0:0x00000000
       33315000	      3330	80000180	00000013	addi	x0,x0,0	  x0:0x00000000
       33325000	      3331	80000184	3172e513	ori	x10,x5,791	  x5:0x80000000 x10=0x80000317
       33335000	      3332	80000188	c4364213	xori	x4,x12,-957	 x12:0xffffffff  x4=0x000003bc
       33345000	      3333	8000018c	d529a113	slti	x2,x19,-686	 x19:0x23db5330  x2=0x00000000
       33355000	      3334	80000190	b6011537	lui	x10,0xb6011	 x10=0xb6011000
       33365000	      3335	80000194	0104c533	xor	x10,x9,x16	  x9:0x00000001 x16:0x00013f88 x10=0x00013f89
       33375000	      3336	80000198	00a08093	addi	x1,x1,10	  x1:0x00000009  x1=0x00000013
       33385000	      3337	8000019c	40645e33	sra	x28,x8,x6	  x8:0xc0009f50  x6:0x00000000 x28=0xc0009f50
       33395000	      3338	800001a0	ff50c2e3	blt	x1,x21,80000184	  x1:0x00000013 x21:0x0000000e
       33405000	      3339	800001a4	0a3e3493	sltiu	x9,x28,163	 x28:0xc0009f50  x9=0x00000000
       33415000	      3340	800001a8	00a0d633	srl	x12,x1,x10	  x1:0x00000013 x10:0x00013f89 x12=0x00000000
       33425000	      3341	800001ac	410cd313	srai	x6,x25,0x10	 x25:0x00000000  x6=0x00000000
       33435000	      3342	800001b0	0077c5b3	xor	x11,x15,x7	 x15:0x00000013  x7:0x00013f88 x11=0x00013f9b
       33445000	      3343	800001b4	41fe0eb3	sub	x29,x28,x31	 x28:0xc0009f50 x31:0x80000000 x29=0x40009f50
       33455000	      3344	800001b8	f8fa4ae3	blt	x20,x15,8000014c	 x20:0xfffffffa x15:0x00000013
       33465000	      3345	00000000	00000013	addi	x0,x0,0	  x0:0x00000000
       33475000	      3346	80000148	00000013	addi	x0,x0,0	  x0:0x00000000
       33485000	      3347	8000014c	0186b613	sltiu	x12,x13,24	 x13:0x94580000 x12=0x00000000
       33495000	      3348	80000150	73e48017	auipc	x0,0x73e48	
       33505000	      3349	80000154	77c23c13	sltiu	x24,x4,1916	  x4:0x000003bc x24=0x00000001
       33515000	      3350	80000158	41df54b3	sra	x9,x30,x29	 x30:0x80009f84 x29:0x40009f50  x9=0xffff8000
       33525000	      3351	8000015c	001a0a13	addi	x20,x20,1	 x20:0xfffffffa x20=0xfffffffb
       33535000	      3352	80000160	fff00093	addi	x1,x0,-1	  x0:0x00000000  x1=0xffffffff
       33545000	      3353	80000164	01bd6633	or	x12,x26,x27	 x26:0x0000075f x27:0xfffffeab x12=0xffffffff
       33555000	      3354	80000168	00515013	srli	x0,x2,0x5	  x2:0x00000000
       33565000	      3355	8000016c	00e00a93	addi	x21,x0,14	  x0:0x00000000 x21=0x0000000e
       33575000	      3356	80000170	0c8dc193	xori	x3,x27,200	 x27:0xfffffeab  x3=0xfffffe63
       33585000	      3357	80000174	406803b3	sub	x7,x16,x6	 x16:0x00013f88  x6:0x00000000  x7=0x00013f88
       33595000	      3358	80000178	407adc13	srai	x24,x21,0x7	 x21:0x0000000e x24=0x00000000
       33605000	      3359	8000017c	a6000013	addi	x0,x0,-1440	  x0:0x00000000
       33615000	      3360	80000180	00c4d4b3	srl	x9,x9,x12	  x9:0xffff8000 x12:0xffffffff  x9=0x00000001
       33625000	      3361	80000184	3172e513	ori	x10,x5,791	  x5:0x80000000 x10=0x80000317
       33635000	      3362	80000188	c4364213	xori	x4,x12,-957	 x12:0xffffffff  x4=0x000003bc
       33645000	      3363	8000018c	d529a113	slti	x2,x19,-686	 x19:0x23db5330  x2=0x00000000
       33655000	      3364	80000190	b6011537	lui	x10,0xb6011	 x10=0xb6011000
       33665000	      3365	80000194	0104c533	xor	x10,x9,x16	  x9:0x00000001 x16:0x00013f88 x10=0x00013f89
       33675000	      3366	80000198	00a08093	addi	x1,x1,10	  x1:0xffffffff  x1=0x00000009
       33685000	      3367	8000019c	40645e33	sra	x28,x8,x6	  x8:0xc0009f50  x6:0x00000000 x28=0xc0009f50
       33695000	      3368	800001a0	ff50c2e3	blt	x1,x21,80000184	  x1:0x00000009 x21:0x0000000e
       33705000	      3369	00000000	00000013	addi	x0,x0,0	  x0:0x00000000
       33715000	      3370	80000180	00000013	addi	x0,x0,0	  x0:0x00000000
       33725000	      3371	80000184	3172e513	ori	x10,x5,791	  x5:0x80000000 x10=0x80000317
       33735000	      3372	80000188	c4364213	xori	x4,x12,-957	 x12:0xffffffff  x4=0x000003bc
       33745000	      3373	8000018c	d529a113	slti	x2,x19,-686	 x19:0x23db5330  x2=0x00000000
       33755000	      3374	80000190	b6011537	lui	x10,0xb6011	 x10=0xb6011000
       33765000	      3375	80000194	0104c533	xor	x10,x9,x16	  x9:0x00000001 x16:0x00013f88 x10=0x00013f89
       33775000	      3376	80000198	00a08093	addi	x1,x1,10	  x1:0x00000009  x1=0x00000013
       33785000	      3377	8000019c	40645e33	sra	x28,x8,x6	  x8:0xc0009f50  x6:0x00000000 x28=0xc0009f50
       33795000	      3378	800001a0	ff50c2e3	blt	x1,x21,80000184	  x1:0x00000013 x21:0x0000000e
       33805000	      3379	800001a4	0a3e3493	sltiu	x9,x28,163	 x28:0xc0009f50  x9=0x00000000
       33815000	      3380	800001a8	00a0d633	srl	x12,x1,x10	  x1:0x00000013 x10:0x00013f89 x12=0x00000000
       33825000	      3381	800001ac	410cd313	srai	x6,x25,0x10	 x25:0x00000000  x6=0x00000000
       33835000	      3382	800001b0	0077c5b3	xor	x11,x15,x7	 x15:0x00000013  x7:0x00013f88 x11=0x00013f9b
       33845000	      3383	800001b4	41fe0eb3	sub	x29,x28,x31	 x28:0xc0009f50 x31:0x80000000 x29=0x40009f50
       33855000	      3384	800001b8	f8fa4ae3	blt	x20,x15,8000014c	 x20:0xfffffffb x15:0x00000013
       33865000	      3385	00000000	00000013	addi	x0,x0,0	  x0:0x00000000
       33875000	      3386	80000148	00000013	addi	x0,x0,0	  x0:0x00000000
       33885000	      3387	8000014c	0186b613	sltiu	x12,x13,24	 x13:0x94580000 x12=0x00000000
       33895000	      3388	80000150	73e48017	auipc	x0,0x73e48	
       33905000	      3389	80000154	77c23c13	sltiu	x24,x4,1916	  x4:0x000003bc x24=0x00000001
       33915000	      3390	80000158	41df54b3	sra	x9,x30,x29	 x30:0x80009f84 x29:0x40009f50  x9=0xffff8000
       33925000	      3391	8000015c	001a0a13	addi	x20,x20,1	 x20:0xfffffffb x20=0xfffffffc
       33935000	      3392	80000160	fff00093	addi	x1,x0,-1	  x0:0x00000000  x1=0xffffffff
       33945000	      3393	80000164	01bd6633	or	x12,x26,x27	 x26:0x0000075f x27:0xfffffeab x12=0xffffffff
       33955000	      3394	80000168	00515013	srli	x0,x2,0x5	  x2:0x00000000
       33965000	      3395	8000016c	00e00a93	addi	x21,x0,14	  x0:0x00000000 x21=0x0000000e
       33975000	      3396	80000170	0c8dc193	xori	x3,x27,200	 x27:0xfffffeab  x3=0xfffffe63
       33985000	      3397	80000174	406803b3	sub	x7,x16,x6	 x16:0x00013f88  x6:0x00000000  x7=0x00013f88
       33995000	      3398	80000178	407adc13	srai	x24,x21,0x7	 x21:0x0000000e x24=0x00000000
       34005000	      3399	8000017c	a6000013	addi	x0,x0,-1440	  x0:0x00000000
       34015000	      3400	80000180	00c4d4b3	srl	x9,x9,x12	  x9:0xffff8000 x12:0xffffffff  x9=0x00000001
       34025000	      3401	80000184	3172e513	ori	x10,x5,791	  x5:0x80000000 x10=0x80000317
       34035000	      3402	80000188	c4364213	xori	x4,x12,-957	 x12:0xffffffff  x4=0x000003bc
       34045000	      3403	8000018c	d529a113	slti	x2,x19,-686	 x19:0x23db5330  x2=0x00000000
       34055000	      3404	80000190	b6011537	lui	x10,0xb6011	 x10=0xb6011000
       34065000	      3405	80000194	0104c533	xor	x10,x9,x16	  x9:0x00000001 x16:0x00013f88 x10=0x00013f89
       34075000	      3406	80000198	00a08093	addi	x1,x1,10	  x1:0xffffffff  x1=0x00000009
       34085000	      3407	8000019c	40645e33	sra	x28,x8,x6	  x8:0xc0009f50  x6:0x00000000 x28=0xc0009f50
       34095000	      3408	800001a0	ff50c2e3	blt	x1,x21,80000184	  x1:0x00000009 x21:0x0000000e
       34105000	      3409	00000000	00000013	addi	x0,x0,0	  x0:0x00000000
       34115000	      3410	80000180	00000013	addi	x0,x0,0	  x0:0x00000000
       34125000	      3411	80000184	3172e513	ori	x10,x5,791	  x5:0x80000000 x10=0x80000317
       34135000	      3412	80000188	c4364213	xori	x4,x12,-957	 x12:0xffffffff  x4=0x000003bc
       34145000	      3413	8000018c	d529a113	slti	x2,x19,-686	 x19:0x23db5330  x2=0x00000000
       34155000	      3414	80000190	b6011537	lui	x10,0xb6011	 x10=0xb6011000
       34165000	      3415	80000194	0104c533	xor	x10,x9,x16	  x9:0x00000001 x16:0x00013f88 x10=0x00013f89
       34175000	      3416	80000198	00a08093	addi	x1,x1,10	  x1:0x00000009  x1=0x00000013
       34185000	      3417	8000019c	40645e33	sra	x28,x8,x6	  x8:0xc0009f50  x6:0x00000000 x28=0xc0009f50
       34195000	      3418	800001a0	ff50c2e3	blt	x1,x21,80000184	  x1:0x00000013 x21:0x0000000e
       34205000	      3419	800001a4	0a3e3493	sltiu	x9,x28,163	 x28:0xc0009f50  x9=0x00000000
       34215000	      3420	800001a8	00a0d633	srl	x12,x1,x10	  x1:0x00000013 x10:0x00013f89 x12=0x00000000
       34225000	      3421	800001ac	410cd313	srai	x6,x25,0x10	 x25:0x00000000  x6=0x00000000
       34235000	      3422	800001b0	0077c5b3	xor	x11,x15,x7	 x15:0x00000013  x7:0x00013f88 x11=0x00013f9b
       34245000	      3423	800001b4	41fe0eb3	sub	x29,x28,x31	 x28:0xc0009f50 x31:0x80000000 x29=0x40009f50
       34255000	      3424	800001b8	f8fa4ae3	blt	x20,x15,8000014c	 x20:0xfffffffc x15:0x00000013
       34265000	      3425	00000000	00000013	addi	x0,x0,0	  x0:0x00000000
       34275000	      3426	80000148	00000013	addi	x0,x0,0	  x0:0x00000000
       34285000	      3427	8000014c	0186b613	sltiu	x12,x13,24	 x13:0x94580000 x12=0x00000000
       34295000	      3428	80000150	73e48017	auipc	x0,0x73e48	
       34305000	      3429	80000154	77c23c13	sltiu	x24,x4,1916	  x4:0x000003bc x24=0x00000001
       34315000	      3430	80000158	41df54b3	sra	x9,x30,x29	 x30:0x80009f84 x29:0x40009f50  x9=0xffff8000
       34325000	      3431	8000015c	001a0a13	addi	x20,x20,1	 x20:0xfffffffc x20=0xfffffffd
       34335000	      3432	80000160	fff00093	addi	x1,x0,-1	  x0:0x00000000  x1=0xffffffff
       34345000	      3433	80000164	01bd6633	or	x12,x26,x27	 x26:0x0000075f x27:0xfffffeab x12=0xffffffff
       34355000	      3434	80000168	00515013	srli	x0,x2,0x5	  x2:0x00000000
       34365000	      3435	8000016c	00e00a93	addi	x21,x0,14	  x0:0x00000000 x21=0x0000000e
       34375000	      3436	80000170	0c8dc193	xori	x3,x27,200	 x27:0xfffffeab  x3=0xfffffe63
       34385000	      3437	80000174	406803b3	sub	x7,x16,x6	 x16:0x00013f88  x6:0x00000000  x7=0x00013f88
       34395000	      3438	80000178	407adc13	srai	x24,x21,0x7	 x21:0x0000000e x24=0x00000000
       34405000	      3439	8000017c	a6000013	addi	x0,x0,-1440	  x0:0x00000000
       34415000	      3440	80000180	00c4d4b3	srl	x9,x9,x12	  x9:0xffff8000 x12:0xffffffff  x9=0x00000001
       34425000	      3441	80000184	3172e513	ori	x10,x5,791	  x5:0x80000000 x10=0x80000317
       34435000	      3442	80000188	c4364213	xori	x4,x12,-957	 x12:0xffffffff  x4=0x000003bc
       34445000	      3443	8000018c	d529a113	slti	x2,x19,-686	 x19:0x23db5330  x2=0x00000000
       34455000	      3444	80000190	b6011537	lui	x10,0xb6011	 x10=0xb6011000
       34465000	      3445	80000194	0104c533	xor	x10,x9,x16	  x9:0x00000001 x16:0x00013f88 x10=0x00013f89
       34475000	      3446	80000198	00a08093	addi	x1,x1,10	  x1:0xffffffff  x1=0x00000009
       34485000	      3447	8000019c	40645e33	sra	x28,x8,x6	  x8:0xc0009f50  x6:0x00000000 x28=0xc0009f50
       34495000	      3448	800001a0	ff50c2e3	blt	x1,x21,80000184	  x1:0x00000009 x21:0x0000000e
       34505000	      3449	00000000	00000013	addi	x0,x0,0	  x0:0x00000000
       34515000	      3450	80000180	00000013	addi	x0,x0,0	  x0:0x00000000
       34525000	      3451	80000184	3172e513	ori	x10,x5,791	  x5:0x80000000 x10=0x80000317
       34535000	      3452	80000188	c4364213	xori	x4,x12,-957	 x12:0xffffffff  x4=0x000003bc
       34545000	      3453	8000018c	d529a113	slti	x2,x19,-686	 x19:0x23db5330  x2=0x00000000
       34555000	      3454	80000190	b6011537	lui	x10,0xb6011	 x10=0xb6011000
       34565000	      3455	80000194	0104c533	xor	x10,x9,x16	  x9:0x00000001 x16:0x00013f88 x10=0x00013f89
       34575000	      3456	80000198	00a08093	addi	x1,x1,10	  x1:0x00000009  x1=0x00000013
       34585000	      3457	8000019c	40645e33	sra	x28,x8,x6	  x8:0xc0009f50  x6:0x00000000 x28=0xc0009f50
       34595000	      3458	800001a0	ff50c2e3	blt	x1,x21,80000184	  x1:0x00000013 x21:0x0000000e
       34605000	      3459	800001a4	0a3e3493	sltiu	x9,x28,163	 x28:0xc0009f50  x9=0x00000000
       34615000	      3460	800001a8	00a0d633	srl	x12,x1,x10	  x1:0x00000013 x10:0x00013f89 x12=0x00000000
       34625000	      3461	800001ac	410cd313	srai	x6,x25,0x10	 x25:0x00000000  x6=0x00000000
       34635000	      3462	800001b0	0077c5b3	xor	x11,x15,x7	 x15:0x00000013  x7:0x00013f88 x11=0x00013f9b
       34645000	      3463	800001b4	41fe0eb3	sub	x29,x28,x31	 x28:0xc0009f50 x31:0x80000000 x29=0x40009f50
       34655000	      3464	800001b8	f8fa4ae3	blt	x20,x15,8000014c	 x20:0xfffffffd x15:0x00000013
       34665000	      3465	00000000	00000013	addi	x0,x0,0	  x0:0x00000000
       34675000	      3466	80000148	00000013	addi	x0,x0,0	  x0:0x00000000
       34685000	      3467	8000014c	0186b613	sltiu	x12,x13,24	 x13:0x94580000 x12=0x00000000
       34695000	      3468	80000150	73e48017	auipc	x0,0x73e48	
       34705000	      3469	80000154	77c23c13	sltiu	x24,x4,1916	  x4:0x000003bc x24=0x00000001
       34715000	      3470	80000158	41df54b3	sra	x9,x30,x29	 x30:0x80009f84 x29:0x40009f50  x9=0xffff8000
       34725000	      3471	8000015c	001a0a13	addi	x20,x20,1	 x20:0xfffffffd x20=0xfffffffe
       34735000	      3472	80000160	fff00093	addi	x1,x0,-1	  x0:0x00000000  x1=0xffffffff
       34745000	      3473	80000164	01bd6633	or	x12,x26,x27	 x26:0x0000075f x27:0xfffffeab x12=0xffffffff
       34755000	      3474	80000168	00515013	srli	x0,x2,0x5	  x2:0x00000000
       34765000	      3475	8000016c	00e00a93	addi	x21,x0,14	  x0:0x00000000 x21=0x0000000e
       34775000	      3476	80000170	0c8dc193	xori	x3,x27,200	 x27:0xfffffeab  x3=0xfffffe63
       34785000	      3477	80000174	406803b3	sub	x7,x16,x6	 x16:0x00013f88  x6:0x00000000  x7=0x00013f88
       34795000	      3478	80000178	407adc13	srai	x24,x21,0x7	 x21:0x0000000e x24=0x00000000
       34805000	      3479	8000017c	a6000013	addi	x0,x0,-1440	  x0:0x00000000
       34815000	      3480	80000180	00c4d4b3	srl	x9,x9,x12	  x9:0xffff8000 x12:0xffffffff  x9=0x00000001
       34825000	      3481	80000184	3172e513	ori	x10,x5,791	  x5:0x80000000 x10=0x80000317
       34835000	      3482	80000188	c4364213	xori	x4,x12,-957	 x12:0xffffffff  x4=0x000003bc
       34845000	      3483	8000018c	d529a113	slti	x2,x19,-686	 x19:0x23db5330  x2=0x00000000
       34855000	      3484	80000190	b6011537	lui	x10,0xb6011	 x10=0xb6011000
       34865000	      3485	80000194	0104c533	xor	x10,x9,x16	  x9:0x00000001 x16:0x00013f88 x10=0x00013f89
       34875000	      3486	80000198	00a08093	addi	x1,x1,10	  x1:0xffffffff  x1=0x00000009
       34885000	      3487	8000019c	40645e33	sra	x28,x8,x6	  x8:0xc0009f50  x6:0x00000000 x28=0xc0009f50
       34895000	      3488	800001a0	ff50c2e3	blt	x1,x21,80000184	  x1:0x00000009 x21:0x0000000e
       34905000	      3489	00000000	00000013	addi	x0,x0,0	  x0:0x00000000
       34915000	      3490	80000180	00000013	addi	x0,x0,0	  x0:0x00000000
       34925000	      3491	80000184	3172e513	ori	x10,x5,791	  x5:0x80000000 x10=0x80000317
       34935000	      3492	80000188	c4364213	xori	x4,x12,-957	 x12:0xffffffff  x4=0x000003bc
       34945000	      3493	8000018c	d529a113	slti	x2,x19,-686	 x19:0x23db5330  x2=0x00000000
       34955000	      3494	80000190	b6011537	lui	x10,0xb6011	 x10=0xb6011000
       34965000	      3495	80000194	0104c533	xor	x10,x9,x16	  x9:0x00000001 x16:0x00013f88 x10=0x00013f89
       34975000	      3496	80000198	00a08093	addi	x1,x1,10	  x1:0x00000009  x1=0x00000013
       34985000	      3497	8000019c	40645e33	sra	x28,x8,x6	  x8:0xc0009f50  x6:0x00000000 x28=0xc0009f50
       34995000	      3498	800001a0	ff50c2e3	blt	x1,x21,80000184	  x1:0x00000013 x21:0x0000000e
       35005000	      3499	800001a4	0a3e3493	sltiu	x9,x28,163	 x28:0xc0009f50  x9=0x00000000
       35015000	      3500	800001a8	00a0d633	srl	x12,x1,x10	  x1:0x00000013 x10:0x00013f89 x12=0x00000000
       35025000	      3501	800001ac	410cd313	srai	x6,x25,0x10	 x25:0x00000000  x6=0x00000000
       35035000	      3502	800001b0	0077c5b3	xor	x11,x15,x7	 x15:0x00000013  x7:0x00013f88 x11=0x00013f9b
       35045000	      3503	800001b4	41fe0eb3	sub	x29,x28,x31	 x28:0xc0009f50 x31:0x80000000 x29=0x40009f50
       35055000	      3504	800001b8	f8fa4ae3	blt	x20,x15,8000014c	 x20:0xfffffffe x15:0x00000013
       35065000	      3505	00000000	00000013	addi	x0,x0,0	  x0:0x00000000
       35075000	      3506	80000148	00000013	addi	x0,x0,0	  x0:0x00000000
       35085000	      3507	8000014c	0186b613	sltiu	x12,x13,24	 x13:0x94580000 x12=0x00000000
       35095000	      3508	80000150	73e48017	auipc	x0,0x73e48	
       35105000	      3509	80000154	77c23c13	sltiu	x24,x4,1916	  x4:0x000003bc x24=0x00000001
       35115000	      3510	80000158	41df54b3	sra	x9,x30,x29	 x30:0x80009f84 x29:0x40009f50  x9=0xffff8000
       35125000	      3511	8000015c	001a0a13	addi	x20,x20,1	 x20:0xfffffffe x20=0xffffffff
       35135000	      3512	80000160	fff00093	addi	x1,x0,-1	  x0:0x00000000  x1=0xffffffff
       35145000	      3513	80000164	01bd6633	or	x12,x26,x27	 x26:0x0000075f x27:0xfffffeab x12=0xffffffff
       35155000	      3514	80000168	00515013	srli	x0,x2,0x5	  x2:0x00000000
       35165000	      3515	8000016c	00e00a93	addi	x21,x0,14	  x0:0x00000000 x21=0x0000000e
       35175000	      3516	80000170	0c8dc193	xori	x3,x27,200	 x27:0xfffffeab  x3=0xfffffe63
       35185000	      3517	80000174	406803b3	sub	x7,x16,x6	 x16:0x00013f88  x6:0x00000000  x7=0x00013f88
       35195000	      3518	80000178	407adc13	srai	x24,x21,0x7	 x21:0x0000000e x24=0x00000000
       35205000	      3519	8000017c	a6000013	addi	x0,x0,-1440	  x0:0x00000000
       35215000	      3520	80000180	00c4d4b3	srl	x9,x9,x12	  x9:0xffff8000 x12:0xffffffff  x9=0x00000001
       35225000	      3521	80000184	3172e513	ori	x10,x5,791	  x5:0x80000000 x10=0x80000317
       35235000	      3522	80000188	c4364213	xori	x4,x12,-957	 x12:0xffffffff  x4=0x000003bc
       35245000	      3523	8000018c	d529a113	slti	x2,x19,-686	 x19:0x23db5330  x2=0x00000000
       35255000	      3524	80000190	b6011537	lui	x10,0xb6011	 x10=0xb6011000
       35265000	      3525	80000194	0104c533	xor	x10,x9,x16	  x9:0x00000001 x16:0x00013f88 x10=0x00013f89
       35275000	      3526	80000198	00a08093	addi	x1,x1,10	  x1:0xffffffff  x1=0x00000009
       35285000	      3527	8000019c	40645e33	sra	x28,x8,x6	  x8:0xc0009f50  x6:0x00000000 x28=0xc0009f50
       35295000	      3528	800001a0	ff50c2e3	blt	x1,x21,80000184	  x1:0x00000009 x21:0x0000000e
       35305000	      3529	00000000	00000013	addi	x0,x0,0	  x0:0x00000000
       35315000	      3530	80000180	00000013	addi	x0,x0,0	  x0:0x00000000
       35325000	      3531	80000184	3172e513	ori	x10,x5,791	  x5:0x80000000 x10=0x80000317
       35335000	      3532	80000188	c4364213	xori	x4,x12,-957	 x12:0xffffffff  x4=0x000003bc
       35345000	      3533	8000018c	d529a113	slti	x2,x19,-686	 x19:0x23db5330  x2=0x00000000
       35355000	      3534	80000190	b6011537	lui	x10,0xb6011	 x10=0xb6011000
       35365000	      3535	80000194	0104c533	xor	x10,x9,x16	  x9:0x00000001 x16:0x00013f88 x10=0x00013f89
       35375000	      3536	80000198	00a08093	addi	x1,x1,10	  x1:0x00000009  x1=0x00000013
       35385000	      3537	8000019c	40645e33	sra	x28,x8,x6	  x8:0xc0009f50  x6:0x00000000 x28=0xc0009f50
       35395000	      3538	800001a0	ff50c2e3	blt	x1,x21,80000184	  x1:0x00000013 x21:0x0000000e
       35405000	      3539	800001a4	0a3e3493	sltiu	x9,x28,163	 x28:0xc0009f50  x9=0x00000000
       35415000	      3540	800001a8	00a0d633	srl	x12,x1,x10	  x1:0x00000013 x10:0x00013f89 x12=0x00000000
       35425000	      3541	800001ac	410cd313	srai	x6,x25,0x10	 x25:0x00000000  x6=0x00000000
       35435000	      3542	800001b0	0077c5b3	xor	x11,x15,x7	 x15:0x00000013  x7:0x00013f88 x11=0x00013f9b
       35445000	      3543	800001b4	41fe0eb3	sub	x29,x28,x31	 x28:0xc0009f50 x31:0x80000000 x29=0x40009f50
       35455000	      3544	800001b8	f8fa4ae3	blt	x20,x15,8000014c	 x20:0xffffffff x15:0x00000013
       35465000	      3545	00000000	00000013	addi	x0,x0,0	  x0:0x00000000
       35475000	      3546	80000148	00000013	addi	x0,x0,0	  x0:0x00000000
       35485000	      3547	8000014c	0186b613	sltiu	x12,x13,24	 x13:0x94580000 x12=0x00000000
       35495000	      3548	80000150	73e48017	auipc	x0,0x73e48	
       35505000	      3549	80000154	77c23c13	sltiu	x24,x4,1916	  x4:0x000003bc x24=0x00000001
       35515000	      3550	80000158	41df54b3	sra	x9,x30,x29	 x30:0x80009f84 x29:0x40009f50  x9=0xffff8000
       35525000	      3551	8000015c	001a0a13	addi	x20,x20,1	 x20:0xffffffff x20=0x00000000
       35535000	      3552	80000160	fff00093	addi	x1,x0,-1	  x0:0x00000000  x1=0xffffffff
       35545000	      3553	80000164	01bd6633	or	x12,x26,x27	 x26:0x0000075f x27:0xfffffeab x12=0xffffffff
       35555000	      3554	80000168	00515013	srli	x0,x2,0x5	  x2:0x00000000
       35565000	      3555	8000016c	00e00a93	addi	x21,x0,14	  x0:0x00000000 x21=0x0000000e
       35575000	      3556	80000170	0c8dc193	xori	x3,x27,200	 x27:0xfffffeab  x3=0xfffffe63
       35585000	      3557	80000174	406803b3	sub	x7,x16,x6	 x16:0x00013f88  x6:0x00000000  x7=0x00013f88
       35595000	      3558	80000178	407adc13	srai	x24,x21,0x7	 x21:0x0000000e x24=0x00000000
       35605000	      3559	8000017c	a6000013	addi	x0,x0,-1440	  x0:0x00000000
       35615000	      3560	80000180	00c4d4b3	srl	x9,x9,x12	  x9:0xffff8000 x12:0xffffffff  x9=0x00000001
       35625000	      3561	80000184	3172e513	ori	x10,x5,791	  x5:0x80000000 x10=0x80000317
       35635000	      3562	80000188	c4364213	xori	x4,x12,-957	 x12:0xffffffff  x4=0x000003bc
       35645000	      3563	8000018c	d529a113	slti	x2,x19,-686	 x19:0x23db5330  x2=0x00000000
       35655000	      3564	80000190	b6011537	lui	x10,0xb6011	 x10=0xb6011000
       35665000	      3565	80000194	0104c533	xor	x10,x9,x16	  x9:0x00000001 x16:0x00013f88 x10=0x00013f89
       35675000	      3566	80000198	00a08093	addi	x1,x1,10	  x1:0xffffffff  x1=0x00000009
       35685000	      3567	8000019c	40645e33	sra	x28,x8,x6	  x8:0xc0009f50  x6:0x00000000 x28=0xc0009f50
       35695000	      3568	800001a0	ff50c2e3	blt	x1,x21,80000184	  x1:0x00000009 x21:0x0000000e
       35705000	      3569	00000000	00000013	addi	x0,x0,0	  x0:0x00000000
       35715000	      3570	80000180	00000013	addi	x0,x0,0	  x0:0x00000000
       35725000	      3571	80000184	3172e513	ori	x10,x5,791	  x5:0x80000000 x10=0x80000317
       35735000	      3572	80000188	c4364213	xori	x4,x12,-957	 x12:0xffffffff  x4=0x000003bc
       35745000	      3573	8000018c	d529a113	slti	x2,x19,-686	 x19:0x23db5330  x2=0x00000000
       35755000	      3574	80000190	b6011537	lui	x10,0xb6011	 x10=0xb6011000
       35765000	      3575	80000194	0104c533	xor	x10,x9,x16	  x9:0x00000001 x16:0x00013f88 x10=0x00013f89
       35775000	      3576	80000198	00a08093	addi	x1,x1,10	  x1:0x00000009  x1=0x00000013
       35785000	      3577	8000019c	40645e33	sra	x28,x8,x6	  x8:0xc0009f50  x6:0x00000000 x28=0xc0009f50
       35795000	      3578	800001a0	ff50c2e3	blt	x1,x21,80000184	  x1:0x00000013 x21:0x0000000e
       35805000	      3579	800001a4	0a3e3493	sltiu	x9,x28,163	 x28:0xc0009f50  x9=0x00000000
       35815000	      3580	800001a8	00a0d633	srl	x12,x1,x10	  x1:0x00000013 x10:0x00013f89 x12=0x00000000
       35825000	      3581	800001ac	410cd313	srai	x6,x25,0x10	 x25:0x00000000  x6=0x00000000
       35835000	      3582	800001b0	0077c5b3	xor	x11,x15,x7	 x15:0x00000013  x7:0x00013f88 x11=0x00013f9b
       35845000	      3583	800001b4	41fe0eb3	sub	x29,x28,x31	 x28:0xc0009f50 x31:0x80000000 x29=0x40009f50
       35855000	      3584	800001b8	f8fa4ae3	blt	x20,x15,8000014c	 x20:0x00000000 x15:0x00000013
       35865000	      3585	00000000	00000013	addi	x0,x0,0	  x0:0x00000000
       35875000	      3586	80000148	00000013	addi	x0,x0,0	  x0:0x00000000
       35885000	      3587	8000014c	0186b613	sltiu	x12,x13,24	 x13:0x94580000 x12=0x00000000
       35895000	      3588	80000150	73e48017	auipc	x0,0x73e48	
       35905000	      3589	80000154	77c23c13	sltiu	x24,x4,1916	  x4:0x000003bc x24=0x00000001
       35915000	      3590	80000158	41df54b3	sra	x9,x30,x29	 x30:0x80009f84 x29:0x40009f50  x9=0xffff8000
       35925000	      3591	8000015c	001a0a13	addi	x20,x20,1	 x20:0x00000000 x20=0x00000001
       35935000	      3592	80000160	fff00093	addi	x1,x0,-1	  x0:0x00000000  x1=0xffffffff
       35945000	      3593	80000164	01bd6633	or	x12,x26,x27	 x26:0x0000075f x27:0xfffffeab x12=0xffffffff
       35955000	      3594	80000168	00515013	srli	x0,x2,0x5	  x2:0x00000000
       35965000	      3595	8000016c	00e00a93	addi	x21,x0,14	  x0:0x00000000 x21=0x0000000e
       35975000	      3596	80000170	0c8dc193	xori	x3,x27,200	 x27:0xfffffeab  x3=0xfffffe63
       35985000	      3597	80000174	406803b3	sub	x7,x16,x6	 x16:0x00013f88  x6:0x00000000  x7=0x00013f88
       35995000	      3598	80000178	407adc13	srai	x24,x21,0x7	 x21:0x0000000e x24=0x00000000
       36005000	      3599	8000017c	a6000013	addi	x0,x0,-1440	  x0:0x00000000
       36015000	      3600	80000180	00c4d4b3	srl	x9,x9,x12	  x9:0xffff8000 x12:0xffffffff  x9=0x00000001
       36025000	      3601	80000184	3172e513	ori	x10,x5,791	  x5:0x80000000 x10=0x80000317
       36035000	      3602	80000188	c4364213	xori	x4,x12,-957	 x12:0xffffffff  x4=0x000003bc
       36045000	      3603	8000018c	d529a113	slti	x2,x19,-686	 x19:0x23db5330  x2=0x00000000
       36055000	      3604	80000190	b6011537	lui	x10,0xb6011	 x10=0xb6011000
       36065000	      3605	80000194	0104c533	xor	x10,x9,x16	  x9:0x00000001 x16:0x00013f88 x10=0x00013f89
       36075000	      3606	80000198	00a08093	addi	x1,x1,10	  x1:0xffffffff  x1=0x00000009
       36085000	      3607	8000019c	40645e33	sra	x28,x8,x6	  x8:0xc0009f50  x6:0x00000000 x28=0xc0009f50
       36095000	      3608	800001a0	ff50c2e3	blt	x1,x21,80000184	  x1:0x00000009 x21:0x0000000e
       36105000	      3609	00000000	00000013	addi	x0,x0,0	  x0:0x00000000
       36115000	      3610	80000180	00000013	addi	x0,x0,0	  x0:0x00000000
       36125000	      3611	80000184	3172e513	ori	x10,x5,791	  x5:0x80000000 x10=0x80000317
       36135000	      3612	80000188	c4364213	xori	x4,x12,-957	 x12:0xffffffff  x4=0x000003bc
       36145000	      3613	8000018c	d529a113	slti	x2,x19,-686	 x19:0x23db5330  x2=0x00000000
       36155000	      3614	80000190	b6011537	lui	x10,0xb6011	 x10=0xb6011000
       36165000	      3615	80000194	0104c533	xor	x10,x9,x16	  x9:0x00000001 x16:0x00013f88 x10=0x00013f89
       36175000	      3616	80000198	00a08093	addi	x1,x1,10	  x1:0x00000009  x1=0x00000013
       36185000	      3617	8000019c	40645e33	sra	x28,x8,x6	  x8:0xc0009f50  x6:0x00000000 x28=0xc0009f50
       36195000	      3618	800001a0	ff50c2e3	blt	x1,x21,80000184	  x1:0x00000013 x21:0x0000000e
       36205000	      3619	800001a4	0a3e3493	sltiu	x9,x28,163	 x28:0xc0009f50  x9=0x00000000
       36215000	      3620	800001a8	00a0d633	srl	x12,x1,x10	  x1:0x00000013 x10:0x00013f89 x12=0x00000000
       36225000	      3621	800001ac	410cd313	srai	x6,x25,0x10	 x25:0x00000000  x6=0x00000000
       36235000	      3622	800001b0	0077c5b3	xor	x11,x15,x7	 x15:0x00000013  x7:0x00013f88 x11=0x00013f9b
       36245000	      3623	800001b4	41fe0eb3	sub	x29,x28,x31	 x28:0xc0009f50 x31:0x80000000 x29=0x40009f50
       36255000	      3624	800001b8	f8fa4ae3	blt	x20,x15,8000014c	 x20:0x00000001 x15:0x00000013
       36265000	      3625	00000000	00000013	addi	x0,x0,0	  x0:0x00000000
       36275000	      3626	80000148	00000013	addi	x0,x0,0	  x0:0x00000000
       36285000	      3627	8000014c	0186b613	sltiu	x12,x13,24	 x13:0x94580000 x12=0x00000000
       36295000	      3628	80000150	73e48017	auipc	x0,0x73e48	
       36305000	      3629	80000154	77c23c13	sltiu	x24,x4,1916	  x4:0x000003bc x24=0x00000001
       36315000	      3630	80000158	41df54b3	sra	x9,x30,x29	 x30:0x80009f84 x29:0x40009f50  x9=0xffff8000
       36325000	      3631	8000015c	001a0a13	addi	x20,x20,1	 x20:0x00000001 x20=0x00000002
       36335000	      3632	80000160	fff00093	addi	x1,x0,-1	  x0:0x00000000  x1=0xffffffff
       36345000	      3633	80000164	01bd6633	or	x12,x26,x27	 x26:0x0000075f x27:0xfffffeab x12=0xffffffff
       36355000	      3634	80000168	00515013	srli	x0,x2,0x5	  x2:0x00000000
       36365000	      3635	8000016c	00e00a93	addi	x21,x0,14	  x0:0x00000000 x21=0x0000000e
       36375000	      3636	80000170	0c8dc193	xori	x3,x27,200	 x27:0xfffffeab  x3=0xfffffe63
       36385000	      3637	80000174	406803b3	sub	x7,x16,x6	 x16:0x00013f88  x6:0x00000000  x7=0x00013f88
       36395000	      3638	80000178	407adc13	srai	x24,x21,0x7	 x21:0x0000000e x24=0x00000000
       36405000	      3639	8000017c	a6000013	addi	x0,x0,-1440	  x0:0x00000000
       36415000	      3640	80000180	00c4d4b3	srl	x9,x9,x12	  x9:0xffff8000 x12:0xffffffff  x9=0x00000001
       36425000	      3641	80000184	3172e513	ori	x10,x5,791	  x5:0x80000000 x10=0x80000317
       36435000	      3642	80000188	c4364213	xori	x4,x12,-957	 x12:0xffffffff  x4=0x000003bc
       36445000	      3643	8000018c	d529a113	slti	x2,x19,-686	 x19:0x23db5330  x2=0x00000000
       36455000	      3644	80000190	b6011537	lui	x10,0xb6011	 x10=0xb6011000
       36465000	      3645	80000194	0104c533	xor	x10,x9,x16	  x9:0x00000001 x16:0x00013f88 x10=0x00013f89
       36475000	      3646	80000198	00a08093	addi	x1,x1,10	  x1:0xffffffff  x1=0x00000009
       36485000	      3647	8000019c	40645e33	sra	x28,x8,x6	  x8:0xc0009f50  x6:0x00000000 x28=0xc0009f50
       36495000	      3648	800001a0	ff50c2e3	blt	x1,x21,80000184	  x1:0x00000009 x21:0x0000000e
       36505000	      3649	00000000	00000013	addi	x0,x0,0	  x0:0x00000000
       36515000	      3650	80000180	00000013	addi	x0,x0,0	  x0:0x00000000
       36525000	      3651	80000184	3172e513	ori	x10,x5,791	  x5:0x80000000 x10=0x80000317
       36535000	      3652	80000188	c4364213	xori	x4,x12,-957	 x12:0xffffffff  x4=0x000003bc
       36545000	      3653	8000018c	d529a113	slti	x2,x19,-686	 x19:0x23db5330  x2=0x00000000
       36555000	      3654	80000190	b6011537	lui	x10,0xb6011	 x10=0xb6011000
       36565000	      3655	80000194	0104c533	xor	x10,x9,x16	  x9:0x00000001 x16:0x00013f88 x10=0x00013f89
       36575000	      3656	80000198	00a08093	addi	x1,x1,10	  x1:0x00000009  x1=0x00000013
       36585000	      3657	8000019c	40645e33	sra	x28,x8,x6	  x8:0xc0009f50  x6:0x00000000 x28=0xc0009f50
       36595000	      3658	800001a0	ff50c2e3	blt	x1,x21,80000184	  x1:0x00000013 x21:0x0000000e
       36605000	      3659	800001a4	0a3e3493	sltiu	x9,x28,163	 x28:0xc0009f50  x9=0x00000000
       36615000	      3660	800001a8	00a0d633	srl	x12,x1,x10	  x1:0x00000013 x10:0x00013f89 x12=0x00000000
       36625000	      3661	800001ac	410cd313	srai	x6,x25,0x10	 x25:0x00000000  x6=0x00000000
       36635000	      3662	800001b0	0077c5b3	xor	x11,x15,x7	 x15:0x00000013  x7:0x00013f88 x11=0x00013f9b
       36645000	      3663	800001b4	41fe0eb3	sub	x29,x28,x31	 x28:0xc0009f50 x31:0x80000000 x29=0x40009f50
       36655000	      3664	800001b8	f8fa4ae3	blt	x20,x15,8000014c	 x20:0x00000002 x15:0x00000013
       36665000	      3665	00000000	00000013	addi	x0,x0,0	  x0:0x00000000
       36675000	      3666	80000148	00000013	addi	x0,x0,0	  x0:0x00000000
       36685000	      3667	8000014c	0186b613	sltiu	x12,x13,24	 x13:0x94580000 x12=0x00000000
       36695000	      3668	80000150	73e48017	auipc	x0,0x73e48	
       36705000	      3669	80000154	77c23c13	sltiu	x24,x4,1916	  x4:0x000003bc x24=0x00000001
       36715000	      3670	80000158	41df54b3	sra	x9,x30,x29	 x30:0x80009f84 x29:0x40009f50  x9=0xffff8000
       36725000	      3671	8000015c	001a0a13	addi	x20,x20,1	 x20:0x00000002 x20=0x00000003
       36735000	      3672	80000160	fff00093	addi	x1,x0,-1	  x0:0x00000000  x1=0xffffffff
       36745000	      3673	80000164	01bd6633	or	x12,x26,x27	 x26:0x0000075f x27:0xfffffeab x12=0xffffffff
       36755000	      3674	80000168	00515013	srli	x0,x2,0x5	  x2:0x00000000
       36765000	      3675	8000016c	00e00a93	addi	x21,x0,14	  x0:0x00000000 x21=0x0000000e
       36775000	      3676	80000170	0c8dc193	xori	x3,x27,200	 x27:0xfffffeab  x3=0xfffffe63
       36785000	      3677	80000174	406803b3	sub	x7,x16,x6	 x16:0x00013f88  x6:0x00000000  x7=0x00013f88
       36795000	      3678	80000178	407adc13	srai	x24,x21,0x7	 x21:0x0000000e x24=0x00000000
       36805000	      3679	8000017c	a6000013	addi	x0,x0,-1440	  x0:0x00000000
       36815000	      3680	80000180	00c4d4b3	srl	x9,x9,x12	  x9:0xffff8000 x12:0xffffffff  x9=0x00000001
       36825000	      3681	80000184	3172e513	ori	x10,x5,791	  x5:0x80000000 x10=0x80000317
       36835000	      3682	80000188	c4364213	xori	x4,x12,-957	 x12:0xffffffff  x4=0x000003bc
       36845000	      3683	8000018c	d529a113	slti	x2,x19,-686	 x19:0x23db5330  x2=0x00000000
       36855000	      3684	80000190	b6011537	lui	x10,0xb6011	 x10=0xb6011000
       36865000	      3685	80000194	0104c533	xor	x10,x9,x16	  x9:0x00000001 x16:0x00013f88 x10=0x00013f89
       36875000	      3686	80000198	00a08093	addi	x1,x1,10	  x1:0xffffffff  x1=0x00000009
       36885000	      3687	8000019c	40645e33	sra	x28,x8,x6	  x8:0xc0009f50  x6:0x00000000 x28=0xc0009f50
       36895000	      3688	800001a0	ff50c2e3	blt	x1,x21,80000184	  x1:0x00000009 x21:0x0000000e
       36905000	      3689	00000000	00000013	addi	x0,x0,0	  x0:0x00000000
       36915000	      3690	80000180	00000013	addi	x0,x0,0	  x0:0x00000000
       36925000	      3691	80000184	3172e513	ori	x10,x5,791	  x5:0x80000000 x10=0x80000317
       36935000	      3692	80000188	c4364213	xori	x4,x12,-957	 x12:0xffffffff  x4=0x000003bc
       36945000	      3693	8000018c	d529a113	slti	x2,x19,-686	 x19:0x23db5330  x2=0x00000000
       36955000	      3694	80000190	b6011537	lui	x10,0xb6011	 x10=0xb6011000
       36965000	      3695	80000194	0104c533	xor	x10,x9,x16	  x9:0x00000001 x16:0x00013f88 x10=0x00013f89
       36975000	      3696	80000198	00a08093	addi	x1,x1,10	  x1:0x00000009  x1=0x00000013
       36985000	      3697	8000019c	40645e33	sra	x28,x8,x6	  x8:0xc0009f50  x6:0x00000000 x28=0xc0009f50
       36995000	      3698	800001a0	ff50c2e3	blt	x1,x21,80000184	  x1:0x00000013 x21:0x0000000e
       37005000	      3699	800001a4	0a3e3493	sltiu	x9,x28,163	 x28:0xc0009f50  x9=0x00000000
       37015000	      3700	800001a8	00a0d633	srl	x12,x1,x10	  x1:0x00000013 x10:0x00013f89 x12=0x00000000
       37025000	      3701	800001ac	410cd313	srai	x6,x25,0x10	 x25:0x00000000  x6=0x00000000
       37035000	      3702	800001b0	0077c5b3	xor	x11,x15,x7	 x15:0x00000013  x7:0x00013f88 x11=0x00013f9b
       37045000	      3703	800001b4	41fe0eb3	sub	x29,x28,x31	 x28:0xc0009f50 x31:0x80000000 x29=0x40009f50
       37055000	      3704	800001b8	f8fa4ae3	blt	x20,x15,8000014c	 x20:0x00000003 x15:0x00000013
       37065000	      3705	00000000	00000013	addi	x0,x0,0	  x0:0x00000000
       37075000	      3706	80000148	00000013	addi	x0,x0,0	  x0:0x00000000
       37085000	      3707	8000014c	0186b613	sltiu	x12,x13,24	 x13:0x94580000 x12=0x00000000
       37095000	      3708	80000150	73e48017	auipc	x0,0x73e48	
       37105000	      3709	80000154	77c23c13	sltiu	x24,x4,1916	  x4:0x000003bc x24=0x00000001
       37115000	      3710	80000158	41df54b3	sra	x9,x30,x29	 x30:0x80009f84 x29:0x40009f50  x9=0xffff8000
       37125000	      3711	8000015c	001a0a13	addi	x20,x20,1	 x20:0x00000003 x20=0x00000004
       37135000	      3712	80000160	fff00093	addi	x1,x0,-1	  x0:0x00000000  x1=0xffffffff
       37145000	      3713	80000164	01bd6633	or	x12,x26,x27	 x26:0x0000075f x27:0xfffffeab x12=0xffffffff
       37155000	      3714	80000168	00515013	srli	x0,x2,0x5	  x2:0x00000000
       37165000	      3715	8000016c	00e00a93	addi	x21,x0,14	  x0:0x00000000 x21=0x0000000e
       37175000	      3716	80000170	0c8dc193	xori	x3,x27,200	 x27:0xfffffeab  x3=0xfffffe63
       37185000	      3717	80000174	406803b3	sub	x7,x16,x6	 x16:0x00013f88  x6:0x00000000  x7=0x00013f88
       37195000	      3718	80000178	407adc13	srai	x24,x21,0x7	 x21:0x0000000e x24=0x00000000
       37205000	      3719	8000017c	a6000013	addi	x0,x0,-1440	  x0:0x00000000
       37215000	      3720	80000180	00c4d4b3	srl	x9,x9,x12	  x9:0xffff8000 x12:0xffffffff  x9=0x00000001
       37225000	      3721	80000184	3172e513	ori	x10,x5,791	  x5:0x80000000 x10=0x80000317
       37235000	      3722	80000188	c4364213	xori	x4,x12,-957	 x12:0xffffffff  x4=0x000003bc
       37245000	      3723	8000018c	d529a113	slti	x2,x19,-686	 x19:0x23db5330  x2=0x00000000
       37255000	      3724	80000190	b6011537	lui	x10,0xb6011	 x10=0xb6011000
       37265000	      3725	80000194	0104c533	xor	x10,x9,x16	  x9:0x00000001 x16:0x00013f88 x10=0x00013f89
       37275000	      3726	80000198	00a08093	addi	x1,x1,10	  x1:0xffffffff  x1=0x00000009
       37285000	      3727	8000019c	40645e33	sra	x28,x8,x6	  x8:0xc0009f50  x6:0x00000000 x28=0xc0009f50
       37295000	      3728	800001a0	ff50c2e3	blt	x1,x21,80000184	  x1:0x00000009 x21:0x0000000e
       37305000	      3729	00000000	00000013	addi	x0,x0,0	  x0:0x00000000
       37315000	      3730	80000180	00000013	addi	x0,x0,0	  x0:0x00000000
       37325000	      3731	80000184	3172e513	ori	x10,x5,791	  x5:0x80000000 x10=0x80000317
       37335000	      3732	80000188	c4364213	xori	x4,x12,-957	 x12:0xffffffff  x4=0x000003bc
       37345000	      3733	8000018c	d529a113	slti	x2,x19,-686	 x19:0x23db5330  x2=0x00000000
       37355000	      3734	80000190	b6011537	lui	x10,0xb6011	 x10=0xb6011000
       37365000	      3735	80000194	0104c533	xor	x10,x9,x16	  x9:0x00000001 x16:0x00013f88 x10=0x00013f89
       37375000	      3736	80000198	00a08093	addi	x1,x1,10	  x1:0x00000009  x1=0x00000013
       37385000	      3737	8000019c	40645e33	sra	x28,x8,x6	  x8:0xc0009f50  x6:0x00000000 x28=0xc0009f50
       37395000	      3738	800001a0	ff50c2e3	blt	x1,x21,80000184	  x1:0x00000013 x21:0x0000000e
       37405000	      3739	800001a4	0a3e3493	sltiu	x9,x28,163	 x28:0xc0009f50  x9=0x00000000
       37415000	      3740	800001a8	00a0d633	srl	x12,x1,x10	  x1:0x00000013 x10:0x00013f89 x12=0x00000000
       37425000	      3741	800001ac	410cd313	srai	x6,x25,0x10	 x25:0x00000000  x6=0x00000000
       37435000	      3742	800001b0	0077c5b3	xor	x11,x15,x7	 x15:0x00000013  x7:0x00013f88 x11=0x00013f9b
       37445000	      3743	800001b4	41fe0eb3	sub	x29,x28,x31	 x28:0xc0009f50 x31:0x80000000 x29=0x40009f50
       37455000	      3744	800001b8	f8fa4ae3	blt	x20,x15,8000014c	 x20:0x00000004 x15:0x00000013
       37465000	      3745	00000000	00000013	addi	x0,x0,0	  x0:0x00000000
       37475000	      3746	80000148	00000013	addi	x0,x0,0	  x0:0x00000000
       37485000	      3747	8000014c	0186b613	sltiu	x12,x13,24	 x13:0x94580000 x12=0x00000000
       37495000	      3748	80000150	73e48017	auipc	x0,0x73e48	
       37505000	      3749	80000154	77c23c13	sltiu	x24,x4,1916	  x4:0x000003bc x24=0x00000001
       37515000	      3750	80000158	41df54b3	sra	x9,x30,x29	 x30:0x80009f84 x29:0x40009f50  x9=0xffff8000
       37525000	      3751	8000015c	001a0a13	addi	x20,x20,1	 x20:0x00000004 x20=0x00000005
       37535000	      3752	80000160	fff00093	addi	x1,x0,-1	  x0:0x00000000  x1=0xffffffff
       37545000	      3753	80000164	01bd6633	or	x12,x26,x27	 x26:0x0000075f x27:0xfffffeab x12=0xffffffff
       37555000	      3754	80000168	00515013	srli	x0,x2,0x5	  x2:0x00000000
       37565000	      3755	8000016c	00e00a93	addi	x21,x0,14	  x0:0x00000000 x21=0x0000000e
       37575000	      3756	80000170	0c8dc193	xori	x3,x27,200	 x27:0xfffffeab  x3=0xfffffe63
       37585000	      3757	80000174	406803b3	sub	x7,x16,x6	 x16:0x00013f88  x6:0x00000000  x7=0x00013f88
       37595000	      3758	80000178	407adc13	srai	x24,x21,0x7	 x21:0x0000000e x24=0x00000000
       37605000	      3759	8000017c	a6000013	addi	x0,x0,-1440	  x0:0x00000000
       37615000	      3760	80000180	00c4d4b3	srl	x9,x9,x12	  x9:0xffff8000 x12:0xffffffff  x9=0x00000001
       37625000	      3761	80000184	3172e513	ori	x10,x5,791	  x5:0x80000000 x10=0x80000317
       37635000	      3762	80000188	c4364213	xori	x4,x12,-957	 x12:0xffffffff  x4=0x000003bc
       37645000	      3763	8000018c	d529a113	slti	x2,x19,-686	 x19:0x23db5330  x2=0x00000000
       37655000	      3764	80000190	b6011537	lui	x10,0xb6011	 x10=0xb6011000
       37665000	      3765	80000194	0104c533	xor	x10,x9,x16	  x9:0x00000001 x16:0x00013f88 x10=0x00013f89
       37675000	      3766	80000198	00a08093	addi	x1,x1,10	  x1:0xffffffff  x1=0x00000009
       37685000	      3767	8000019c	40645e33	sra	x28,x8,x6	  x8:0xc0009f50  x6:0x00000000 x28=0xc0009f50
       37695000	      3768	800001a0	ff50c2e3	blt	x1,x21,80000184	  x1:0x00000009 x21:0x0000000e
       37705000	      3769	00000000	00000013	addi	x0,x0,0	  x0:0x00000000
       37715000	      3770	80000180	00000013	addi	x0,x0,0	  x0:0x00000000
       37725000	      3771	80000184	3172e513	ori	x10,x5,791	  x5:0x80000000 x10=0x80000317
       37735000	      3772	80000188	c4364213	xori	x4,x12,-957	 x12:0xffffffff  x4=0x000003bc
       37745000	      3773	8000018c	d529a113	slti	x2,x19,-686	 x19:0x23db5330  x2=0x00000000
       37755000	      3774	80000190	b6011537	lui	x10,0xb6011	 x10=0xb6011000
       37765000	      3775	80000194	0104c533	xor	x10,x9,x16	  x9:0x00000001 x16:0x00013f88 x10=0x00013f89
       37775000	      3776	80000198	00a08093	addi	x1,x1,10	  x1:0x00000009  x1=0x00000013
       37785000	      3777	8000019c	40645e33	sra	x28,x8,x6	  x8:0xc0009f50  x6:0x00000000 x28=0xc0009f50
       37795000	      3778	800001a0	ff50c2e3	blt	x1,x21,80000184	  x1:0x00000013 x21:0x0000000e
       37805000	      3779	800001a4	0a3e3493	sltiu	x9,x28,163	 x28:0xc0009f50  x9=0x00000000
       37815000	      3780	800001a8	00a0d633	srl	x12,x1,x10	  x1:0x00000013 x10:0x00013f89 x12=0x00000000
       37825000	      3781	800001ac	410cd313	srai	x6,x25,0x10	 x25:0x00000000  x6=0x00000000
       37835000	      3782	800001b0	0077c5b3	xor	x11,x15,x7	 x15:0x00000013  x7:0x00013f88 x11=0x00013f9b
       37845000	      3783	800001b4	41fe0eb3	sub	x29,x28,x31	 x28:0xc0009f50 x31:0x80000000 x29=0x40009f50
       37855000	      3784	800001b8	f8fa4ae3	blt	x20,x15,8000014c	 x20:0x00000005 x15:0x00000013
       37865000	      3785	00000000	00000013	addi	x0,x0,0	  x0:0x00000000
       37875000	      3786	80000148	00000013	addi	x0,x0,0	  x0:0x00000000
       37885000	      3787	8000014c	0186b613	sltiu	x12,x13,24	 x13:0x94580000 x12=0x00000000
       37895000	      3788	80000150	73e48017	auipc	x0,0x73e48	
       37905000	      3789	80000154	77c23c13	sltiu	x24,x4,1916	  x4:0x000003bc x24=0x00000001
       37915000	      3790	80000158	41df54b3	sra	x9,x30,x29	 x30:0x80009f84 x29:0x40009f50  x9=0xffff8000
       37925000	      3791	8000015c	001a0a13	addi	x20,x20,1	 x20:0x00000005 x20=0x00000006
       37935000	      3792	80000160	fff00093	addi	x1,x0,-1	  x0:0x00000000  x1=0xffffffff
       37945000	      3793	80000164	01bd6633	or	x12,x26,x27	 x26:0x0000075f x27:0xfffffeab x12=0xffffffff
       37955000	      3794	80000168	00515013	srli	x0,x2,0x5	  x2:0x00000000
       37965000	      3795	8000016c	00e00a93	addi	x21,x0,14	  x0:0x00000000 x21=0x0000000e
       37975000	      3796	80000170	0c8dc193	xori	x3,x27,200	 x27:0xfffffeab  x3=0xfffffe63
       37985000	      3797	80000174	406803b3	sub	x7,x16,x6	 x16:0x00013f88  x6:0x00000000  x7=0x00013f88
       37995000	      3798	80000178	407adc13	srai	x24,x21,0x7	 x21:0x0000000e x24=0x00000000
       38005000	      3799	8000017c	a6000013	addi	x0,x0,-1440	  x0:0x00000000
       38015000	      3800	80000180	00c4d4b3	srl	x9,x9,x12	  x9:0xffff8000 x12:0xffffffff  x9=0x00000001
       38025000	      3801	80000184	3172e513	ori	x10,x5,791	  x5:0x80000000 x10=0x80000317
       38035000	      3802	80000188	c4364213	xori	x4,x12,-957	 x12:0xffffffff  x4=0x000003bc
       38045000	      3803	8000018c	d529a113	slti	x2,x19,-686	 x19:0x23db5330  x2=0x00000000
       38055000	      3804	80000190	b6011537	lui	x10,0xb6011	 x10=0xb6011000
       38065000	      3805	80000194	0104c533	xor	x10,x9,x16	  x9:0x00000001 x16:0x00013f88 x10=0x00013f89
       38075000	      3806	80000198	00a08093	addi	x1,x1,10	  x1:0xffffffff  x1=0x00000009
       38085000	      3807	8000019c	40645e33	sra	x28,x8,x6	  x8:0xc0009f50  x6:0x00000000 x28=0xc0009f50
       38095000	      3808	800001a0	ff50c2e3	blt	x1,x21,80000184	  x1:0x00000009 x21:0x0000000e
       38105000	      3809	00000000	00000013	addi	x0,x0,0	  x0:0x00000000
       38115000	      3810	80000180	00000013	addi	x0,x0,0	  x0:0x00000000
       38125000	      3811	80000184	3172e513	ori	x10,x5,791	  x5:0x80000000 x10=0x80000317
       38135000	      3812	80000188	c4364213	xori	x4,x12,-957	 x12:0xffffffff  x4=0x000003bc
       38145000	      3813	8000018c	d529a113	slti	x2,x19,-686	 x19:0x23db5330  x2=0x00000000
       38155000	      3814	80000190	b6011537	lui	x10,0xb6011	 x10=0xb6011000
       38165000	      3815	80000194	0104c533	xor	x10,x9,x16	  x9:0x00000001 x16:0x00013f88 x10=0x00013f89
       38175000	      3816	80000198	00a08093	addi	x1,x1,10	  x1:0x00000009  x1=0x00000013
       38185000	      3817	8000019c	40645e33	sra	x28,x8,x6	  x8:0xc0009f50  x6:0x00000000 x28=0xc0009f50
       38195000	      3818	800001a0	ff50c2e3	blt	x1,x21,80000184	  x1:0x00000013 x21:0x0000000e
       38205000	      3819	800001a4	0a3e3493	sltiu	x9,x28,163	 x28:0xc0009f50  x9=0x00000000
       38215000	      3820	800001a8	00a0d633	srl	x12,x1,x10	  x1:0x00000013 x10:0x00013f89 x12=0x00000000
       38225000	      3821	800001ac	410cd313	srai	x6,x25,0x10	 x25:0x00000000  x6=0x00000000
       38235000	      3822	800001b0	0077c5b3	xor	x11,x15,x7	 x15:0x00000013  x7:0x00013f88 x11=0x00013f9b
       38245000	      3823	800001b4	41fe0eb3	sub	x29,x28,x31	 x28:0xc0009f50 x31:0x80000000 x29=0x40009f50
       38255000	      3824	800001b8	f8fa4ae3	blt	x20,x15,8000014c	 x20:0x00000006 x15:0x00000013
       38265000	      3825	00000000	00000013	addi	x0,x0,0	  x0:0x00000000
       38275000	      3826	80000148	00000013	addi	x0,x0,0	  x0:0x00000000
       38285000	      3827	8000014c	0186b613	sltiu	x12,x13,24	 x13:0x94580000 x12=0x00000000
       38295000	      3828	80000150	73e48017	auipc	x0,0x73e48	
       38305000	      3829	80000154	77c23c13	sltiu	x24,x4,1916	  x4:0x000003bc x24=0x00000001
       38315000	      3830	80000158	41df54b3	sra	x9,x30,x29	 x30:0x80009f84 x29:0x40009f50  x9=0xffff8000
       38325000	      3831	8000015c	001a0a13	addi	x20,x20,1	 x20:0x00000006 x20=0x00000007
       38335000	      3832	80000160	fff00093	addi	x1,x0,-1	  x0:0x00000000  x1=0xffffffff
       38345000	      3833	80000164	01bd6633	or	x12,x26,x27	 x26:0x0000075f x27:0xfffffeab x12=0xffffffff
       38355000	      3834	80000168	00515013	srli	x0,x2,0x5	  x2:0x00000000
       38365000	      3835	8000016c	00e00a93	addi	x21,x0,14	  x0:0x00000000 x21=0x0000000e
       38375000	      3836	80000170	0c8dc193	xori	x3,x27,200	 x27:0xfffffeab  x3=0xfffffe63
       38385000	      3837	80000174	406803b3	sub	x7,x16,x6	 x16:0x00013f88  x6:0x00000000  x7=0x00013f88
       38395000	      3838	80000178	407adc13	srai	x24,x21,0x7	 x21:0x0000000e x24=0x00000000
       38405000	      3839	8000017c	a6000013	addi	x0,x0,-1440	  x0:0x00000000
       38415000	      3840	80000180	00c4d4b3	srl	x9,x9,x12	  x9:0xffff8000 x12:0xffffffff  x9=0x00000001
       38425000	      3841	80000184	3172e513	ori	x10,x5,791	  x5:0x80000000 x10=0x80000317
       38435000	      3842	80000188	c4364213	xori	x4,x12,-957	 x12:0xffffffff  x4=0x000003bc
       38445000	      3843	8000018c	d529a113	slti	x2,x19,-686	 x19:0x23db5330  x2=0x00000000
       38455000	      3844	80000190	b6011537	lui	x10,0xb6011	 x10=0xb6011000
       38465000	      3845	80000194	0104c533	xor	x10,x9,x16	  x9:0x00000001 x16:0x00013f88 x10=0x00013f89
       38475000	      3846	80000198	00a08093	addi	x1,x1,10	  x1:0xffffffff  x1=0x00000009
       38485000	      3847	8000019c	40645e33	sra	x28,x8,x6	  x8:0xc0009f50  x6:0x00000000 x28=0xc0009f50
       38495000	      3848	800001a0	ff50c2e3	blt	x1,x21,80000184	  x1:0x00000009 x21:0x0000000e
       38505000	      3849	00000000	00000013	addi	x0,x0,0	  x0:0x00000000
       38515000	      3850	80000180	00000013	addi	x0,x0,0	  x0:0x00000000
       38525000	      3851	80000184	3172e513	ori	x10,x5,791	  x5:0x80000000 x10=0x80000317
       38535000	      3852	80000188	c4364213	xori	x4,x12,-957	 x12:0xffffffff  x4=0x000003bc
       38545000	      3853	8000018c	d529a113	slti	x2,x19,-686	 x19:0x23db5330  x2=0x00000000
       38555000	      3854	80000190	b6011537	lui	x10,0xb6011	 x10=0xb6011000
       38565000	      3855	80000194	0104c533	xor	x10,x9,x16	  x9:0x00000001 x16:0x00013f88 x10=0x00013f89
       38575000	      3856	80000198	00a08093	addi	x1,x1,10	  x1:0x00000009  x1=0x00000013
       38585000	      3857	8000019c	40645e33	sra	x28,x8,x6	  x8:0xc0009f50  x6:0x00000000 x28=0xc0009f50
       38595000	      3858	800001a0	ff50c2e3	blt	x1,x21,80000184	  x1:0x00000013 x21:0x0000000e
       38605000	      3859	800001a4	0a3e3493	sltiu	x9,x28,163	 x28:0xc0009f50  x9=0x00000000
       38615000	      3860	800001a8	00a0d633	srl	x12,x1,x10	  x1:0x00000013 x10:0x00013f89 x12=0x00000000
       38625000	      3861	800001ac	410cd313	srai	x6,x25,0x10	 x25:0x00000000  x6=0x00000000
       38635000	      3862	800001b0	0077c5b3	xor	x11,x15,x7	 x15:0x00000013  x7:0x00013f88 x11=0x00013f9b
       38645000	      3863	800001b4	41fe0eb3	sub	x29,x28,x31	 x28:0xc0009f50 x31:0x80000000 x29=0x40009f50
       38655000	      3864	800001b8	f8fa4ae3	blt	x20,x15,8000014c	 x20:0x00000007 x15:0x00000013
       38665000	      3865	00000000	00000013	addi	x0,x0,0	  x0:0x00000000
       38675000	      3866	80000148	00000013	addi	x0,x0,0	  x0:0x00000000
       38685000	      3867	8000014c	0186b613	sltiu	x12,x13,24	 x13:0x94580000 x12=0x00000000
       38695000	      3868	80000150	73e48017	auipc	x0,0x73e48	
       38705000	      3869	80000154	77c23c13	sltiu	x24,x4,1916	  x4:0x000003bc x24=0x00000001
       38715000	      3870	80000158	41df54b3	sra	x9,x30,x29	 x30:0x80009f84 x29:0x40009f50  x9=0xffff8000
       38725000	      3871	8000015c	001a0a13	addi	x20,x20,1	 x20:0x00000007 x20=0x00000008
       38735000	      3872	80000160	fff00093	addi	x1,x0,-1	  x0:0x00000000  x1=0xffffffff
       38745000	      3873	80000164	01bd6633	or	x12,x26,x27	 x26:0x0000075f x27:0xfffffeab x12=0xffffffff
       38755000	      3874	80000168	00515013	srli	x0,x2,0x5	  x2:0x00000000
       38765000	      3875	8000016c	00e00a93	addi	x21,x0,14	  x0:0x00000000 x21=0x0000000e
       38775000	      3876	80000170	0c8dc193	xori	x3,x27,200	 x27:0xfffffeab  x3=0xfffffe63
       38785000	      3877	80000174	406803b3	sub	x7,x16,x6	 x16:0x00013f88  x6:0x00000000  x7=0x00013f88
       38795000	      3878	80000178	407adc13	srai	x24,x21,0x7	 x21:0x0000000e x24=0x00000000
       38805000	      3879	8000017c	a6000013	addi	x0,x0,-1440	  x0:0x00000000
       38815000	      3880	80000180	00c4d4b3	srl	x9,x9,x12	  x9:0xffff8000 x12:0xffffffff  x9=0x00000001
       38825000	      3881	80000184	3172e513	ori	x10,x5,791	  x5:0x80000000 x10=0x80000317
       38835000	      3882	80000188	c4364213	xori	x4,x12,-957	 x12:0xffffffff  x4=0x000003bc
       38845000	      3883	8000018c	d529a113	slti	x2,x19,-686	 x19:0x23db5330  x2=0x00000000
       38855000	      3884	80000190	b6011537	lui	x10,0xb6011	 x10=0xb6011000
       38865000	      3885	80000194	0104c533	xor	x10,x9,x16	  x9:0x00000001 x16:0x00013f88 x10=0x00013f89
       38875000	      3886	80000198	00a08093	addi	x1,x1,10	  x1:0xffffffff  x1=0x00000009
       38885000	      3887	8000019c	40645e33	sra	x28,x8,x6	  x8:0xc0009f50  x6:0x00000000 x28=0xc0009f50
       38895000	      3888	800001a0	ff50c2e3	blt	x1,x21,80000184	  x1:0x00000009 x21:0x0000000e
       38905000	      3889	00000000	00000013	addi	x0,x0,0	  x0:0x00000000
       38915000	      3890	80000180	00000013	addi	x0,x0,0	  x0:0x00000000
       38925000	      3891	80000184	3172e513	ori	x10,x5,791	  x5:0x80000000 x10=0x80000317
       38935000	      3892	80000188	c4364213	xori	x4,x12,-957	 x12:0xffffffff  x4=0x000003bc
       38945000	      3893	8000018c	d529a113	slti	x2,x19,-686	 x19:0x23db5330  x2=0x00000000
       38955000	      3894	80000190	b6011537	lui	x10,0xb6011	 x10=0xb6011000
       38965000	      3895	80000194	0104c533	xor	x10,x9,x16	  x9:0x00000001 x16:0x00013f88 x10=0x00013f89
       38975000	      3896	80000198	00a08093	addi	x1,x1,10	  x1:0x00000009  x1=0x00000013
       38985000	      3897	8000019c	40645e33	sra	x28,x8,x6	  x8:0xc0009f50  x6:0x00000000 x28=0xc0009f50
       38995000	      3898	800001a0	ff50c2e3	blt	x1,x21,80000184	  x1:0x00000013 x21:0x0000000e
       39005000	      3899	800001a4	0a3e3493	sltiu	x9,x28,163	 x28:0xc0009f50  x9=0x00000000
       39015000	      3900	800001a8	00a0d633	srl	x12,x1,x10	  x1:0x00000013 x10:0x00013f89 x12=0x00000000
       39025000	      3901	800001ac	410cd313	srai	x6,x25,0x10	 x25:0x00000000  x6=0x00000000
       39035000	      3902	800001b0	0077c5b3	xor	x11,x15,x7	 x15:0x00000013  x7:0x00013f88 x11=0x00013f9b
       39045000	      3903	800001b4	41fe0eb3	sub	x29,x28,x31	 x28:0xc0009f50 x31:0x80000000 x29=0x40009f50
       39055000	      3904	800001b8	f8fa4ae3	blt	x20,x15,8000014c	 x20:0x00000008 x15:0x00000013
       39065000	      3905	00000000	00000013	addi	x0,x0,0	  x0:0x00000000
       39075000	      3906	80000148	00000013	addi	x0,x0,0	  x0:0x00000000
       39085000	      3907	8000014c	0186b613	sltiu	x12,x13,24	 x13:0x94580000 x12=0x00000000
       39095000	      3908	80000150	73e48017	auipc	x0,0x73e48	
       39105000	      3909	80000154	77c23c13	sltiu	x24,x4,1916	  x4:0x000003bc x24=0x00000001
       39115000	      3910	80000158	41df54b3	sra	x9,x30,x29	 x30:0x80009f84 x29:0x40009f50  x9=0xffff8000
       39125000	      3911	8000015c	001a0a13	addi	x20,x20,1	 x20:0x00000008 x20=0x00000009
       39135000	      3912	80000160	fff00093	addi	x1,x0,-1	  x0:0x00000000  x1=0xffffffff
       39145000	      3913	80000164	01bd6633	or	x12,x26,x27	 x26:0x0000075f x27:0xfffffeab x12=0xffffffff
       39155000	      3914	80000168	00515013	srli	x0,x2,0x5	  x2:0x00000000
       39165000	      3915	8000016c	00e00a93	addi	x21,x0,14	  x0:0x00000000 x21=0x0000000e
       39175000	      3916	80000170	0c8dc193	xori	x3,x27,200	 x27:0xfffffeab  x3=0xfffffe63
       39185000	      3917	80000174	406803b3	sub	x7,x16,x6	 x16:0x00013f88  x6:0x00000000  x7=0x00013f88
       39195000	      3918	80000178	407adc13	srai	x24,x21,0x7	 x21:0x0000000e x24=0x00000000
       39205000	      3919	8000017c	a6000013	addi	x0,x0,-1440	  x0:0x00000000
       39215000	      3920	80000180	00c4d4b3	srl	x9,x9,x12	  x9:0xffff8000 x12:0xffffffff  x9=0x00000001
       39225000	      3921	80000184	3172e513	ori	x10,x5,791	  x5:0x80000000 x10=0x80000317
       39235000	      3922	80000188	c4364213	xori	x4,x12,-957	 x12:0xffffffff  x4=0x000003bc
       39245000	      3923	8000018c	d529a113	slti	x2,x19,-686	 x19:0x23db5330  x2=0x00000000
       39255000	      3924	80000190	b6011537	lui	x10,0xb6011	 x10=0xb6011000
       39265000	      3925	80000194	0104c533	xor	x10,x9,x16	  x9:0x00000001 x16:0x00013f88 x10=0x00013f89
       39275000	      3926	80000198	00a08093	addi	x1,x1,10	  x1:0xffffffff  x1=0x00000009
       39285000	      3927	8000019c	40645e33	sra	x28,x8,x6	  x8:0xc0009f50  x6:0x00000000 x28=0xc0009f50
       39295000	      3928	800001a0	ff50c2e3	blt	x1,x21,80000184	  x1:0x00000009 x21:0x0000000e
       39305000	      3929	00000000	00000013	addi	x0,x0,0	  x0:0x00000000
       39315000	      3930	80000180	00000013	addi	x0,x0,0	  x0:0x00000000
       39325000	      3931	80000184	3172e513	ori	x10,x5,791	  x5:0x80000000 x10=0x80000317
       39335000	      3932	80000188	c4364213	xori	x4,x12,-957	 x12:0xffffffff  x4=0x000003bc
       39345000	      3933	8000018c	d529a113	slti	x2,x19,-686	 x19:0x23db5330  x2=0x00000000
       39355000	      3934	80000190	b6011537	lui	x10,0xb6011	 x10=0xb6011000
       39365000	      3935	80000194	0104c533	xor	x10,x9,x16	  x9:0x00000001 x16:0x00013f88 x10=0x00013f89
       39375000	      3936	80000198	00a08093	addi	x1,x1,10	  x1:0x00000009  x1=0x00000013
       39385000	      3937	8000019c	40645e33	sra	x28,x8,x6	  x8:0xc0009f50  x6:0x00000000 x28=0xc0009f50
       39395000	      3938	800001a0	ff50c2e3	blt	x1,x21,80000184	  x1:0x00000013 x21:0x0000000e
       39405000	      3939	800001a4	0a3e3493	sltiu	x9,x28,163	 x28:0xc0009f50  x9=0x00000000
       39415000	      3940	800001a8	00a0d633	srl	x12,x1,x10	  x1:0x00000013 x10:0x00013f89 x12=0x00000000
       39425000	      3941	800001ac	410cd313	srai	x6,x25,0x10	 x25:0x00000000  x6=0x00000000
       39435000	      3942	800001b0	0077c5b3	xor	x11,x15,x7	 x15:0x00000013  x7:0x00013f88 x11=0x00013f9b
       39445000	      3943	800001b4	41fe0eb3	sub	x29,x28,x31	 x28:0xc0009f50 x31:0x80000000 x29=0x40009f50
       39455000	      3944	800001b8	f8fa4ae3	blt	x20,x15,8000014c	 x20:0x00000009 x15:0x00000013
       39465000	      3945	00000000	00000013	addi	x0,x0,0	  x0:0x00000000
       39475000	      3946	80000148	00000013	addi	x0,x0,0	  x0:0x00000000
       39485000	      3947	8000014c	0186b613	sltiu	x12,x13,24	 x13:0x94580000 x12=0x00000000
       39495000	      3948	80000150	73e48017	auipc	x0,0x73e48	
       39505000	      3949	80000154	77c23c13	sltiu	x24,x4,1916	  x4:0x000003bc x24=0x00000001
       39515000	      3950	80000158	41df54b3	sra	x9,x30,x29	 x30:0x80009f84 x29:0x40009f50  x9=0xffff8000
       39525000	      3951	8000015c	001a0a13	addi	x20,x20,1	 x20:0x00000009 x20=0x0000000a
       39535000	      3952	80000160	fff00093	addi	x1,x0,-1	  x0:0x00000000  x1=0xffffffff
       39545000	      3953	80000164	01bd6633	or	x12,x26,x27	 x26:0x0000075f x27:0xfffffeab x12=0xffffffff
       39555000	      3954	80000168	00515013	srli	x0,x2,0x5	  x2:0x00000000
       39565000	      3955	8000016c	00e00a93	addi	x21,x0,14	  x0:0x00000000 x21=0x0000000e
       39575000	      3956	80000170	0c8dc193	xori	x3,x27,200	 x27:0xfffffeab  x3=0xfffffe63
       39585000	      3957	80000174	406803b3	sub	x7,x16,x6	 x16:0x00013f88  x6:0x00000000  x7=0x00013f88
       39595000	      3958	80000178	407adc13	srai	x24,x21,0x7	 x21:0x0000000e x24=0x00000000
       39605000	      3959	8000017c	a6000013	addi	x0,x0,-1440	  x0:0x00000000
       39615000	      3960	80000180	00c4d4b3	srl	x9,x9,x12	  x9:0xffff8000 x12:0xffffffff  x9=0x00000001
       39625000	      3961	80000184	3172e513	ori	x10,x5,791	  x5:0x80000000 x10=0x80000317
       39635000	      3962	80000188	c4364213	xori	x4,x12,-957	 x12:0xffffffff  x4=0x000003bc
       39645000	      3963	8000018c	d529a113	slti	x2,x19,-686	 x19:0x23db5330  x2=0x00000000
       39655000	      3964	80000190	b6011537	lui	x10,0xb6011	 x10=0xb6011000
       39665000	      3965	80000194	0104c533	xor	x10,x9,x16	  x9:0x00000001 x16:0x00013f88 x10=0x00013f89
       39675000	      3966	80000198	00a08093	addi	x1,x1,10	  x1:0xffffffff  x1=0x00000009
       39685000	      3967	8000019c	40645e33	sra	x28,x8,x6	  x8:0xc0009f50  x6:0x00000000 x28=0xc0009f50
       39695000	      3968	800001a0	ff50c2e3	blt	x1,x21,80000184	  x1:0x00000009 x21:0x0000000e
       39705000	      3969	00000000	00000013	addi	x0,x0,0	  x0:0x00000000
       39715000	      3970	80000180	00000013	addi	x0,x0,0	  x0:0x00000000
       39725000	      3971	80000184	3172e513	ori	x10,x5,791	  x5:0x80000000 x10=0x80000317
       39735000	      3972	80000188	c4364213	xori	x4,x12,-957	 x12:0xffffffff  x4=0x000003bc
       39745000	      3973	8000018c	d529a113	slti	x2,x19,-686	 x19:0x23db5330  x2=0x00000000
       39755000	      3974	80000190	b6011537	lui	x10,0xb6011	 x10=0xb6011000
       39765000	      3975	80000194	0104c533	xor	x10,x9,x16	  x9:0x00000001 x16:0x00013f88 x10=0x00013f89
       39775000	      3976	80000198	00a08093	addi	x1,x1,10	  x1:0x00000009  x1=0x00000013
       39785000	      3977	8000019c	40645e33	sra	x28,x8,x6	  x8:0xc0009f50  x6:0x00000000 x28=0xc0009f50
       39795000	      3978	800001a0	ff50c2e3	blt	x1,x21,80000184	  x1:0x00000013 x21:0x0000000e
       39805000	      3979	800001a4	0a3e3493	sltiu	x9,x28,163	 x28:0xc0009f50  x9=0x00000000
       39815000	      3980	800001a8	00a0d633	srl	x12,x1,x10	  x1:0x00000013 x10:0x00013f89 x12=0x00000000
       39825000	      3981	800001ac	410cd313	srai	x6,x25,0x10	 x25:0x00000000  x6=0x00000000
       39835000	      3982	800001b0	0077c5b3	xor	x11,x15,x7	 x15:0x00000013  x7:0x00013f88 x11=0x00013f9b
       39845000	      3983	800001b4	41fe0eb3	sub	x29,x28,x31	 x28:0xc0009f50 x31:0x80000000 x29=0x40009f50
       39855000	      3984	800001b8	f8fa4ae3	blt	x20,x15,8000014c	 x20:0x0000000a x15:0x00000013
       39865000	      3985	00000000	00000013	addi	x0,x0,0	  x0:0x00000000
       39875000	      3986	80000148	00000013	addi	x0,x0,0	  x0:0x00000000
       39885000	      3987	8000014c	0186b613	sltiu	x12,x13,24	 x13:0x94580000 x12=0x00000000
       39895000	      3988	80000150	73e48017	auipc	x0,0x73e48	
       39905000	      3989	80000154	77c23c13	sltiu	x24,x4,1916	  x4:0x000003bc x24=0x00000001
       39915000	      3990	80000158	41df54b3	sra	x9,x30,x29	 x30:0x80009f84 x29:0x40009f50  x9=0xffff8000
       39925000	      3991	8000015c	001a0a13	addi	x20,x20,1	 x20:0x0000000a x20=0x0000000b
       39935000	      3992	80000160	fff00093	addi	x1,x0,-1	  x0:0x00000000  x1=0xffffffff
       39945000	      3993	80000164	01bd6633	or	x12,x26,x27	 x26:0x0000075f x27:0xfffffeab x12=0xffffffff
       39955000	      3994	80000168	00515013	srli	x0,x2,0x5	  x2:0x00000000
       39965000	      3995	8000016c	00e00a93	addi	x21,x0,14	  x0:0x00000000 x21=0x0000000e
       39975000	      3996	80000170	0c8dc193	xori	x3,x27,200	 x27:0xfffffeab  x3=0xfffffe63
       39985000	      3997	80000174	406803b3	sub	x7,x16,x6	 x16:0x00013f88  x6:0x00000000  x7=0x00013f88
       39995000	      3998	80000178	407adc13	srai	x24,x21,0x7	 x21:0x0000000e x24=0x00000000
       40005000	      3999	8000017c	a6000013	addi	x0,x0,-1440	  x0:0x00000000
       40015000	      4000	80000180	00c4d4b3	srl	x9,x9,x12	  x9:0xffff8000 x12:0xffffffff  x9=0x00000001
       40025000	      4001	80000184	3172e513	ori	x10,x5,791	  x5:0x80000000 x10=0x80000317
       40035000	      4002	80000188	c4364213	xori	x4,x12,-957	 x12:0xffffffff  x4=0x000003bc
       40045000	      4003	8000018c	d529a113	slti	x2,x19,-686	 x19:0x23db5330  x2=0x00000000
       40055000	      4004	80000190	b6011537	lui	x10,0xb6011	 x10=0xb6011000
       40065000	      4005	80000194	0104c533	xor	x10,x9,x16	  x9:0x00000001 x16:0x00013f88 x10=0x00013f89
       40075000	      4006	80000198	00a08093	addi	x1,x1,10	  x1:0xffffffff  x1=0x00000009
       40085000	      4007	8000019c	40645e33	sra	x28,x8,x6	  x8:0xc0009f50  x6:0x00000000 x28=0xc0009f50
       40095000	      4008	800001a0	ff50c2e3	blt	x1,x21,80000184	  x1:0x00000009 x21:0x0000000e
       40105000	      4009	00000000	00000013	addi	x0,x0,0	  x0:0x00000000
       40115000	      4010	80000180	00000013	addi	x0,x0,0	  x0:0x00000000
       40125000	      4011	80000184	3172e513	ori	x10,x5,791	  x5:0x80000000 x10=0x80000317
       40135000	      4012	80000188	c4364213	xori	x4,x12,-957	 x12:0xffffffff  x4=0x000003bc
       40145000	      4013	8000018c	d529a113	slti	x2,x19,-686	 x19:0x23db5330  x2=0x00000000
       40155000	      4014	80000190	b6011537	lui	x10,0xb6011	 x10=0xb6011000
       40165000	      4015	80000194	0104c533	xor	x10,x9,x16	  x9:0x00000001 x16:0x00013f88 x10=0x00013f89
       40175000	      4016	80000198	00a08093	addi	x1,x1,10	  x1:0x00000009  x1=0x00000013
       40185000	      4017	8000019c	40645e33	sra	x28,x8,x6	  x8:0xc0009f50  x6:0x00000000 x28=0xc0009f50
       40195000	      4018	800001a0	ff50c2e3	blt	x1,x21,80000184	  x1:0x00000013 x21:0x0000000e
       40205000	      4019	800001a4	0a3e3493	sltiu	x9,x28,163	 x28:0xc0009f50  x9=0x00000000
       40215000	      4020	800001a8	00a0d633	srl	x12,x1,x10	  x1:0x00000013 x10:0x00013f89 x12=0x00000000
       40225000	      4021	800001ac	410cd313	srai	x6,x25,0x10	 x25:0x00000000  x6=0x00000000
       40235000	      4022	800001b0	0077c5b3	xor	x11,x15,x7	 x15:0x00000013  x7:0x00013f88 x11=0x00013f9b
       40245000	      4023	800001b4	41fe0eb3	sub	x29,x28,x31	 x28:0xc0009f50 x31:0x80000000 x29=0x40009f50
       40255000	      4024	800001b8	f8fa4ae3	blt	x20,x15,8000014c	 x20:0x0000000b x15:0x00000013
       40265000	      4025	00000000	00000013	addi	x0,x0,0	  x0:0x00000000
       40275000	      4026	80000148	00000013	addi	x0,x0,0	  x0:0x00000000
       40285000	      4027	8000014c	0186b613	sltiu	x12,x13,24	 x13:0x94580000 x12=0x00000000
       40295000	      4028	80000150	73e48017	auipc	x0,0x73e48	
       40305000	      4029	80000154	77c23c13	sltiu	x24,x4,1916	  x4:0x000003bc x24=0x00000001
       40315000	      4030	80000158	41df54b3	sra	x9,x30,x29	 x30:0x80009f84 x29:0x40009f50  x9=0xffff8000
       40325000	      4031	8000015c	001a0a13	addi	x20,x20,1	 x20:0x0000000b x20=0x0000000c
       40335000	      4032	80000160	fff00093	addi	x1,x0,-1	  x0:0x00000000  x1=0xffffffff
       40345000	      4033	80000164	01bd6633	or	x12,x26,x27	 x26:0x0000075f x27:0xfffffeab x12=0xffffffff
       40355000	      4034	80000168	00515013	srli	x0,x2,0x5	  x2:0x00000000
       40365000	      4035	8000016c	00e00a93	addi	x21,x0,14	  x0:0x00000000 x21=0x0000000e
       40375000	      4036	80000170	0c8dc193	xori	x3,x27,200	 x27:0xfffffeab  x3=0xfffffe63
       40385000	      4037	80000174	406803b3	sub	x7,x16,x6	 x16:0x00013f88  x6:0x00000000  x7=0x00013f88
       40395000	      4038	80000178	407adc13	srai	x24,x21,0x7	 x21:0x0000000e x24=0x00000000
       40405000	      4039	8000017c	a6000013	addi	x0,x0,-1440	  x0:0x00000000
       40415000	      4040	80000180	00c4d4b3	srl	x9,x9,x12	  x9:0xffff8000 x12:0xffffffff  x9=0x00000001
       40425000	      4041	80000184	3172e513	ori	x10,x5,791	  x5:0x80000000 x10=0x80000317
       40435000	      4042	80000188	c4364213	xori	x4,x12,-957	 x12:0xffffffff  x4=0x000003bc
       40445000	      4043	8000018c	d529a113	slti	x2,x19,-686	 x19:0x23db5330  x2=0x00000000
       40455000	      4044	80000190	b6011537	lui	x10,0xb6011	 x10=0xb6011000
       40465000	      4045	80000194	0104c533	xor	x10,x9,x16	  x9:0x00000001 x16:0x00013f88 x10=0x00013f89
       40475000	      4046	80000198	00a08093	addi	x1,x1,10	  x1:0xffffffff  x1=0x00000009
       40485000	      4047	8000019c	40645e33	sra	x28,x8,x6	  x8:0xc0009f50  x6:0x00000000 x28=0xc0009f50
       40495000	      4048	800001a0	ff50c2e3	blt	x1,x21,80000184	  x1:0x00000009 x21:0x0000000e
       40505000	      4049	00000000	00000013	addi	x0,x0,0	  x0:0x00000000
       40515000	      4050	80000180	00000013	addi	x0,x0,0	  x0:0x00000000
       40525000	      4051	80000184	3172e513	ori	x10,x5,791	  x5:0x80000000 x10=0x80000317
       40535000	      4052	80000188	c4364213	xori	x4,x12,-957	 x12:0xffffffff  x4=0x000003bc
       40545000	      4053	8000018c	d529a113	slti	x2,x19,-686	 x19:0x23db5330  x2=0x00000000
       40555000	      4054	80000190	b6011537	lui	x10,0xb6011	 x10=0xb6011000
       40565000	      4055	80000194	0104c533	xor	x10,x9,x16	  x9:0x00000001 x16:0x00013f88 x10=0x00013f89
       40575000	      4056	80000198	00a08093	addi	x1,x1,10	  x1:0x00000009  x1=0x00000013
       40585000	      4057	8000019c	40645e33	sra	x28,x8,x6	  x8:0xc0009f50  x6:0x00000000 x28=0xc0009f50
       40595000	      4058	800001a0	ff50c2e3	blt	x1,x21,80000184	  x1:0x00000013 x21:0x0000000e
       40605000	      4059	800001a4	0a3e3493	sltiu	x9,x28,163	 x28:0xc0009f50  x9=0x00000000
       40615000	      4060	800001a8	00a0d633	srl	x12,x1,x10	  x1:0x00000013 x10:0x00013f89 x12=0x00000000
       40625000	      4061	800001ac	410cd313	srai	x6,x25,0x10	 x25:0x00000000  x6=0x00000000
       40635000	      4062	800001b0	0077c5b3	xor	x11,x15,x7	 x15:0x00000013  x7:0x00013f88 x11=0x00013f9b
       40645000	      4063	800001b4	41fe0eb3	sub	x29,x28,x31	 x28:0xc0009f50 x31:0x80000000 x29=0x40009f50
       40655000	      4064	800001b8	f8fa4ae3	blt	x20,x15,8000014c	 x20:0x0000000c x15:0x00000013
       40665000	      4065	00000000	00000013	addi	x0,x0,0	  x0:0x00000000
       40675000	      4066	80000148	00000013	addi	x0,x0,0	  x0:0x00000000
       40685000	      4067	8000014c	0186b613	sltiu	x12,x13,24	 x13:0x94580000 x12=0x00000000
       40695000	      4068	80000150	73e48017	auipc	x0,0x73e48	
       40705000	      4069	80000154	77c23c13	sltiu	x24,x4,1916	  x4:0x000003bc x24=0x00000001
       40715000	      4070	80000158	41df54b3	sra	x9,x30,x29	 x30:0x80009f84 x29:0x40009f50  x9=0xffff8000
       40725000	      4071	8000015c	001a0a13	addi	x20,x20,1	 x20:0x0000000c x20=0x0000000d
       40735000	      4072	80000160	fff00093	addi	x1,x0,-1	  x0:0x00000000  x1=0xffffffff
       40745000	      4073	80000164	01bd6633	or	x12,x26,x27	 x26:0x0000075f x27:0xfffffeab x12=0xffffffff
       40755000	      4074	80000168	00515013	srli	x0,x2,0x5	  x2:0x00000000
       40765000	      4075	8000016c	00e00a93	addi	x21,x0,14	  x0:0x00000000 x21=0x0000000e
       40775000	      4076	80000170	0c8dc193	xori	x3,x27,200	 x27:0xfffffeab  x3=0xfffffe63
       40785000	      4077	80000174	406803b3	sub	x7,x16,x6	 x16:0x00013f88  x6:0x00000000  x7=0x00013f88
       40795000	      4078	80000178	407adc13	srai	x24,x21,0x7	 x21:0x0000000e x24=0x00000000
       40805000	      4079	8000017c	a6000013	addi	x0,x0,-1440	  x0:0x00000000
       40815000	      4080	80000180	00c4d4b3	srl	x9,x9,x12	  x9:0xffff8000 x12:0xffffffff  x9=0x00000001
       40825000	      4081	80000184	3172e513	ori	x10,x5,791	  x5:0x80000000 x10=0x80000317
       40835000	      4082	80000188	c4364213	xori	x4,x12,-957	 x12:0xffffffff  x4=0x000003bc
       40845000	      4083	8000018c	d529a113	slti	x2,x19,-686	 x19:0x23db5330  x2=0x00000000
       40855000	      4084	80000190	b6011537	lui	x10,0xb6011	 x10=0xb6011000
       40865000	      4085	80000194	0104c533	xor	x10,x9,x16	  x9:0x00000001 x16:0x00013f88 x10=0x00013f89
       40875000	      4086	80000198	00a08093	addi	x1,x1,10	  x1:0xffffffff  x1=0x00000009
       40885000	      4087	8000019c	40645e33	sra	x28,x8,x6	  x8:0xc0009f50  x6:0x00000000 x28=0xc0009f50
       40895000	      4088	800001a0	ff50c2e3	blt	x1,x21,80000184	  x1:0x00000009 x21:0x0000000e
       40905000	      4089	00000000	00000013	addi	x0,x0,0	  x0:0x00000000
       40915000	      4090	80000180	00000013	addi	x0,x0,0	  x0:0x00000000
       40925000	      4091	80000184	3172e513	ori	x10,x5,791	  x5:0x80000000 x10=0x80000317
       40935000	      4092	80000188	c4364213	xori	x4,x12,-957	 x12:0xffffffff  x4=0x000003bc
       40945000	      4093	8000018c	d529a113	slti	x2,x19,-686	 x19:0x23db5330  x2=0x00000000
       40955000	      4094	80000190	b6011537	lui	x10,0xb6011	 x10=0xb6011000
       40965000	      4095	80000194	0104c533	xor	x10,x9,x16	  x9:0x00000001 x16:0x00013f88 x10=0x00013f89
       40975000	      4096	80000198	00a08093	addi	x1,x1,10	  x1:0x00000009  x1=0x00000013
       40985000	      4097	8000019c	40645e33	sra	x28,x8,x6	  x8:0xc0009f50  x6:0x00000000 x28=0xc0009f50
       40995000	      4098	800001a0	ff50c2e3	blt	x1,x21,80000184	  x1:0x00000013 x21:0x0000000e
       41005000	      4099	800001a4	0a3e3493	sltiu	x9,x28,163	 x28:0xc0009f50  x9=0x00000000
       41015000	      4100	800001a8	00a0d633	srl	x12,x1,x10	  x1:0x00000013 x10:0x00013f89 x12=0x00000000
       41025000	      4101	800001ac	410cd313	srai	x6,x25,0x10	 x25:0x00000000  x6=0x00000000
       41035000	      4102	800001b0	0077c5b3	xor	x11,x15,x7	 x15:0x00000013  x7:0x00013f88 x11=0x00013f9b
       41045000	      4103	800001b4	41fe0eb3	sub	x29,x28,x31	 x28:0xc0009f50 x31:0x80000000 x29=0x40009f50
       41055000	      4104	800001b8	f8fa4ae3	blt	x20,x15,8000014c	 x20:0x0000000d x15:0x00000013
       41065000	      4105	00000000	00000013	addi	x0,x0,0	  x0:0x00000000
       41075000	      4106	80000148	00000013	addi	x0,x0,0	  x0:0x00000000
       41085000	      4107	8000014c	0186b613	sltiu	x12,x13,24	 x13:0x94580000 x12=0x00000000
       41095000	      4108	80000150	73e48017	auipc	x0,0x73e48	
       41105000	      4109	80000154	77c23c13	sltiu	x24,x4,1916	  x4:0x000003bc x24=0x00000001
       41115000	      4110	80000158	41df54b3	sra	x9,x30,x29	 x30:0x80009f84 x29:0x40009f50  x9=0xffff8000
       41125000	      4111	8000015c	001a0a13	addi	x20,x20,1	 x20:0x0000000d x20=0x0000000e
       41135000	      4112	80000160	fff00093	addi	x1,x0,-1	  x0:0x00000000  x1=0xffffffff
       41145000	      4113	80000164	01bd6633	or	x12,x26,x27	 x26:0x0000075f x27:0xfffffeab x12=0xffffffff
       41155000	      4114	80000168	00515013	srli	x0,x2,0x5	  x2:0x00000000
       41165000	      4115	8000016c	00e00a93	addi	x21,x0,14	  x0:0x00000000 x21=0x0000000e
       41175000	      4116	80000170	0c8dc193	xori	x3,x27,200	 x27:0xfffffeab  x3=0xfffffe63
       41185000	      4117	80000174	406803b3	sub	x7,x16,x6	 x16:0x00013f88  x6:0x00000000  x7=0x00013f88
       41195000	      4118	80000178	407adc13	srai	x24,x21,0x7	 x21:0x0000000e x24=0x00000000
       41205000	      4119	8000017c	a6000013	addi	x0,x0,-1440	  x0:0x00000000
       41215000	      4120	80000180	00c4d4b3	srl	x9,x9,x12	  x9:0xffff8000 x12:0xffffffff  x9=0x00000001
       41225000	      4121	80000184	3172e513	ori	x10,x5,791	  x5:0x80000000 x10=0x80000317
       41235000	      4122	80000188	c4364213	xori	x4,x12,-957	 x12:0xffffffff  x4=0x000003bc
       41245000	      4123	8000018c	d529a113	slti	x2,x19,-686	 x19:0x23db5330  x2=0x00000000
       41255000	      4124	80000190	b6011537	lui	x10,0xb6011	 x10=0xb6011000
       41265000	      4125	80000194	0104c533	xor	x10,x9,x16	  x9:0x00000001 x16:0x00013f88 x10=0x00013f89
       41275000	      4126	80000198	00a08093	addi	x1,x1,10	  x1:0xffffffff  x1=0x00000009
       41285000	      4127	8000019c	40645e33	sra	x28,x8,x6	  x8:0xc0009f50  x6:0x00000000 x28=0xc0009f50
       41295000	      4128	800001a0	ff50c2e3	blt	x1,x21,80000184	  x1:0x00000009 x21:0x0000000e
       41305000	      4129	00000000	00000013	addi	x0,x0,0	  x0:0x00000000
       41315000	      4130	80000180	00000013	addi	x0,x0,0	  x0:0x00000000
       41325000	      4131	80000184	3172e513	ori	x10,x5,791	  x5:0x80000000 x10=0x80000317
       41335000	      4132	80000188	c4364213	xori	x4,x12,-957	 x12:0xffffffff  x4=0x000003bc
       41345000	      4133	8000018c	d529a113	slti	x2,x19,-686	 x19:0x23db5330  x2=0x00000000
       41355000	      4134	80000190	b6011537	lui	x10,0xb6011	 x10=0xb6011000
       41365000	      4135	80000194	0104c533	xor	x10,x9,x16	  x9:0x00000001 x16:0x00013f88 x10=0x00013f89
       41375000	      4136	80000198	00a08093	addi	x1,x1,10	  x1:0x00000009  x1=0x00000013
       41385000	      4137	8000019c	40645e33	sra	x28,x8,x6	  x8:0xc0009f50  x6:0x00000000 x28=0xc0009f50
       41395000	      4138	800001a0	ff50c2e3	blt	x1,x21,80000184	  x1:0x00000013 x21:0x0000000e
       41405000	      4139	800001a4	0a3e3493	sltiu	x9,x28,163	 x28:0xc0009f50  x9=0x00000000
       41415000	      4140	800001a8	00a0d633	srl	x12,x1,x10	  x1:0x00000013 x10:0x00013f89 x12=0x00000000
       41425000	      4141	800001ac	410cd313	srai	x6,x25,0x10	 x25:0x00000000  x6=0x00000000
       41435000	      4142	800001b0	0077c5b3	xor	x11,x15,x7	 x15:0x00000013  x7:0x00013f88 x11=0x00013f9b
       41445000	      4143	800001b4	41fe0eb3	sub	x29,x28,x31	 x28:0xc0009f50 x31:0x80000000 x29=0x40009f50
       41455000	      4144	800001b8	f8fa4ae3	blt	x20,x15,8000014c	 x20:0x0000000e x15:0x00000013
       41465000	      4145	00000000	00000013	addi	x0,x0,0	  x0:0x00000000
       41475000	      4146	80000148	00000013	addi	x0,x0,0	  x0:0x00000000
       41485000	      4147	8000014c	0186b613	sltiu	x12,x13,24	 x13:0x94580000 x12=0x00000000
       41495000	      4148	80000150	73e48017	auipc	x0,0x73e48	
       41505000	      4149	80000154	77c23c13	sltiu	x24,x4,1916	  x4:0x000003bc x24=0x00000001
       41515000	      4150	80000158	41df54b3	sra	x9,x30,x29	 x30:0x80009f84 x29:0x40009f50  x9=0xffff8000
       41525000	      4151	8000015c	001a0a13	addi	x20,x20,1	 x20:0x0000000e x20=0x0000000f
       41535000	      4152	80000160	fff00093	addi	x1,x0,-1	  x0:0x00000000  x1=0xffffffff
       41545000	      4153	80000164	01bd6633	or	x12,x26,x27	 x26:0x0000075f x27:0xfffffeab x12=0xffffffff
       41555000	      4154	80000168	00515013	srli	x0,x2,0x5	  x2:0x00000000
       41565000	      4155	8000016c	00e00a93	addi	x21,x0,14	  x0:0x00000000 x21=0x0000000e
       41575000	      4156	80000170	0c8dc193	xori	x3,x27,200	 x27:0xfffffeab  x3=0xfffffe63
       41585000	      4157	80000174	406803b3	sub	x7,x16,x6	 x16:0x00013f88  x6:0x00000000  x7=0x00013f88
       41595000	      4158	80000178	407adc13	srai	x24,x21,0x7	 x21:0x0000000e x24=0x00000000
       41605000	      4159	8000017c	a6000013	addi	x0,x0,-1440	  x0:0x00000000
       41615000	      4160	80000180	00c4d4b3	srl	x9,x9,x12	  x9:0xffff8000 x12:0xffffffff  x9=0x00000001
       41625000	      4161	80000184	3172e513	ori	x10,x5,791	  x5:0x80000000 x10=0x80000317
       41635000	      4162	80000188	c4364213	xori	x4,x12,-957	 x12:0xffffffff  x4=0x000003bc
       41645000	      4163	8000018c	d529a113	slti	x2,x19,-686	 x19:0x23db5330  x2=0x00000000
       41655000	      4164	80000190	b6011537	lui	x10,0xb6011	 x10=0xb6011000
       41665000	      4165	80000194	0104c533	xor	x10,x9,x16	  x9:0x00000001 x16:0x00013f88 x10=0x00013f89
       41675000	      4166	80000198	00a08093	addi	x1,x1,10	  x1:0xffffffff  x1=0x00000009
       41685000	      4167	8000019c	40645e33	sra	x28,x8,x6	  x8:0xc0009f50  x6:0x00000000 x28=0xc0009f50
       41695000	      4168	800001a0	ff50c2e3	blt	x1,x21,80000184	  x1:0x00000009 x21:0x0000000e
       41705000	      4169	00000000	00000013	addi	x0,x0,0	  x0:0x00000000
       41715000	      4170	80000180	00000013	addi	x0,x0,0	  x0:0x00000000
       41725000	      4171	80000184	3172e513	ori	x10,x5,791	  x5:0x80000000 x10=0x80000317
       41735000	      4172	80000188	c4364213	xori	x4,x12,-957	 x12:0xffffffff  x4=0x000003bc
       41745000	      4173	8000018c	d529a113	slti	x2,x19,-686	 x19:0x23db5330  x2=0x00000000
       41755000	      4174	80000190	b6011537	lui	x10,0xb6011	 x10=0xb6011000
       41765000	      4175	80000194	0104c533	xor	x10,x9,x16	  x9:0x00000001 x16:0x00013f88 x10=0x00013f89
       41775000	      4176	80000198	00a08093	addi	x1,x1,10	  x1:0x00000009  x1=0x00000013
       41785000	      4177	8000019c	40645e33	sra	x28,x8,x6	  x8:0xc0009f50  x6:0x00000000 x28=0xc0009f50
       41795000	      4178	800001a0	ff50c2e3	blt	x1,x21,80000184	  x1:0x00000013 x21:0x0000000e
       41805000	      4179	800001a4	0a3e3493	sltiu	x9,x28,163	 x28:0xc0009f50  x9=0x00000000
       41815000	      4180	800001a8	00a0d633	srl	x12,x1,x10	  x1:0x00000013 x10:0x00013f89 x12=0x00000000
       41825000	      4181	800001ac	410cd313	srai	x6,x25,0x10	 x25:0x00000000  x6=0x00000000
       41835000	      4182	800001b0	0077c5b3	xor	x11,x15,x7	 x15:0x00000013  x7:0x00013f88 x11=0x00013f9b
       41845000	      4183	800001b4	41fe0eb3	sub	x29,x28,x31	 x28:0xc0009f50 x31:0x80000000 x29=0x40009f50
       41855000	      4184	800001b8	f8fa4ae3	blt	x20,x15,8000014c	 x20:0x0000000f x15:0x00000013
       41865000	      4185	00000000	00000013	addi	x0,x0,0	  x0:0x00000000
       41875000	      4186	80000148	00000013	addi	x0,x0,0	  x0:0x00000000
       41885000	      4187	8000014c	0186b613	sltiu	x12,x13,24	 x13:0x94580000 x12=0x00000000
       41895000	      4188	80000150	73e48017	auipc	x0,0x73e48	
       41905000	      4189	80000154	77c23c13	sltiu	x24,x4,1916	  x4:0x000003bc x24=0x00000001
       41915000	      4190	80000158	41df54b3	sra	x9,x30,x29	 x30:0x80009f84 x29:0x40009f50  x9=0xffff8000
       41925000	      4191	8000015c	001a0a13	addi	x20,x20,1	 x20:0x0000000f x20=0x00000010
       41935000	      4192	80000160	fff00093	addi	x1,x0,-1	  x0:0x00000000  x1=0xffffffff
       41945000	      4193	80000164	01bd6633	or	x12,x26,x27	 x26:0x0000075f x27:0xfffffeab x12=0xffffffff
       41955000	      4194	80000168	00515013	srli	x0,x2,0x5	  x2:0x00000000
       41965000	      4195	8000016c	00e00a93	addi	x21,x0,14	  x0:0x00000000 x21=0x0000000e
       41975000	      4196	80000170	0c8dc193	xori	x3,x27,200	 x27:0xfffffeab  x3=0xfffffe63
       41985000	      4197	80000174	406803b3	sub	x7,x16,x6	 x16:0x00013f88  x6:0x00000000  x7=0x00013f88
       41995000	      4198	80000178	407adc13	srai	x24,x21,0x7	 x21:0x0000000e x24=0x00000000
       42005000	      4199	8000017c	a6000013	addi	x0,x0,-1440	  x0:0x00000000
       42015000	      4200	80000180	00c4d4b3	srl	x9,x9,x12	  x9:0xffff8000 x12:0xffffffff  x9=0x00000001
       42025000	      4201	80000184	3172e513	ori	x10,x5,791	  x5:0x80000000 x10=0x80000317
       42035000	      4202	80000188	c4364213	xori	x4,x12,-957	 x12:0xffffffff  x4=0x000003bc
       42045000	      4203	8000018c	d529a113	slti	x2,x19,-686	 x19:0x23db5330  x2=0x00000000
       42055000	      4204	80000190	b6011537	lui	x10,0xb6011	 x10=0xb6011000
       42065000	      4205	80000194	0104c533	xor	x10,x9,x16	  x9:0x00000001 x16:0x00013f88 x10=0x00013f89
       42075000	      4206	80000198	00a08093	addi	x1,x1,10	  x1:0xffffffff  x1=0x00000009
       42085000	      4207	8000019c	40645e33	sra	x28,x8,x6	  x8:0xc0009f50  x6:0x00000000 x28=0xc0009f50
       42095000	      4208	800001a0	ff50c2e3	blt	x1,x21,80000184	  x1:0x00000009 x21:0x0000000e
       42105000	      4209	00000000	00000013	addi	x0,x0,0	  x0:0x00000000
       42115000	      4210	80000180	00000013	addi	x0,x0,0	  x0:0x00000000
       42125000	      4211	80000184	3172e513	ori	x10,x5,791	  x5:0x80000000 x10=0x80000317
       42135000	      4212	80000188	c4364213	xori	x4,x12,-957	 x12:0xffffffff  x4=0x000003bc
       42145000	      4213	8000018c	d529a113	slti	x2,x19,-686	 x19:0x23db5330  x2=0x00000000
       42155000	      4214	80000190	b6011537	lui	x10,0xb6011	 x10=0xb6011000
       42165000	      4215	80000194	0104c533	xor	x10,x9,x16	  x9:0x00000001 x16:0x00013f88 x10=0x00013f89
       42175000	      4216	80000198	00a08093	addi	x1,x1,10	  x1:0x00000009  x1=0x00000013
       42185000	      4217	8000019c	40645e33	sra	x28,x8,x6	  x8:0xc0009f50  x6:0x00000000 x28=0xc0009f50
       42195000	      4218	800001a0	ff50c2e3	blt	x1,x21,80000184	  x1:0x00000013 x21:0x0000000e
       42205000	      4219	800001a4	0a3e3493	sltiu	x9,x28,163	 x28:0xc0009f50  x9=0x00000000
       42215000	      4220	800001a8	00a0d633	srl	x12,x1,x10	  x1:0x00000013 x10:0x00013f89 x12=0x00000000
       42225000	      4221	800001ac	410cd313	srai	x6,x25,0x10	 x25:0x00000000  x6=0x00000000
       42235000	      4222	800001b0	0077c5b3	xor	x11,x15,x7	 x15:0x00000013  x7:0x00013f88 x11=0x00013f9b
       42245000	      4223	800001b4	41fe0eb3	sub	x29,x28,x31	 x28:0xc0009f50 x31:0x80000000 x29=0x40009f50
       42255000	      4224	800001b8	f8fa4ae3	blt	x20,x15,8000014c	 x20:0x00000010 x15:0x00000013
       42265000	      4225	00000000	00000013	addi	x0,x0,0	  x0:0x00000000
       42275000	      4226	80000148	00000013	addi	x0,x0,0	  x0:0x00000000
       42285000	      4227	8000014c	0186b613	sltiu	x12,x13,24	 x13:0x94580000 x12=0x00000000
       42295000	      4228	80000150	73e48017	auipc	x0,0x73e48	
       42305000	      4229	80000154	77c23c13	sltiu	x24,x4,1916	  x4:0x000003bc x24=0x00000001
       42315000	      4230	80000158	41df54b3	sra	x9,x30,x29	 x30:0x80009f84 x29:0x40009f50  x9=0xffff8000
       42325000	      4231	8000015c	001a0a13	addi	x20,x20,1	 x20:0x00000010 x20=0x00000011
       42335000	      4232	80000160	fff00093	addi	x1,x0,-1	  x0:0x00000000  x1=0xffffffff
       42345000	      4233	80000164	01bd6633	or	x12,x26,x27	 x26:0x0000075f x27:0xfffffeab x12=0xffffffff
       42355000	      4234	80000168	00515013	srli	x0,x2,0x5	  x2:0x00000000
       42365000	      4235	8000016c	00e00a93	addi	x21,x0,14	  x0:0x00000000 x21=0x0000000e
       42375000	      4236	80000170	0c8dc193	xori	x3,x27,200	 x27:0xfffffeab  x3=0xfffffe63
       42385000	      4237	80000174	406803b3	sub	x7,x16,x6	 x16:0x00013f88  x6:0x00000000  x7=0x00013f88
       42395000	      4238	80000178	407adc13	srai	x24,x21,0x7	 x21:0x0000000e x24=0x00000000
       42405000	      4239	8000017c	a6000013	addi	x0,x0,-1440	  x0:0x00000000
       42415000	      4240	80000180	00c4d4b3	srl	x9,x9,x12	  x9:0xffff8000 x12:0xffffffff  x9=0x00000001
       42425000	      4241	80000184	3172e513	ori	x10,x5,791	  x5:0x80000000 x10=0x80000317
       42435000	      4242	80000188	c4364213	xori	x4,x12,-957	 x12:0xffffffff  x4=0x000003bc
       42445000	      4243	8000018c	d529a113	slti	x2,x19,-686	 x19:0x23db5330  x2=0x00000000
       42455000	      4244	80000190	b6011537	lui	x10,0xb6011	 x10=0xb6011000
       42465000	      4245	80000194	0104c533	xor	x10,x9,x16	  x9:0x00000001 x16:0x00013f88 x10=0x00013f89
       42475000	      4246	80000198	00a08093	addi	x1,x1,10	  x1:0xffffffff  x1=0x00000009
       42485000	      4247	8000019c	40645e33	sra	x28,x8,x6	  x8:0xc0009f50  x6:0x00000000 x28=0xc0009f50
       42495000	      4248	800001a0	ff50c2e3	blt	x1,x21,80000184	  x1:0x00000009 x21:0x0000000e
       42505000	      4249	00000000	00000013	addi	x0,x0,0	  x0:0x00000000
       42515000	      4250	80000180	00000013	addi	x0,x0,0	  x0:0x00000000
       42525000	      4251	80000184	3172e513	ori	x10,x5,791	  x5:0x80000000 x10=0x80000317
       42535000	      4252	80000188	c4364213	xori	x4,x12,-957	 x12:0xffffffff  x4=0x000003bc
       42545000	      4253	8000018c	d529a113	slti	x2,x19,-686	 x19:0x23db5330  x2=0x00000000
       42555000	      4254	80000190	b6011537	lui	x10,0xb6011	 x10=0xb6011000
       42565000	      4255	80000194	0104c533	xor	x10,x9,x16	  x9:0x00000001 x16:0x00013f88 x10=0x00013f89
       42575000	      4256	80000198	00a08093	addi	x1,x1,10	  x1:0x00000009  x1=0x00000013
       42585000	      4257	8000019c	40645e33	sra	x28,x8,x6	  x8:0xc0009f50  x6:0x00000000 x28=0xc0009f50
       42595000	      4258	800001a0	ff50c2e3	blt	x1,x21,80000184	  x1:0x00000013 x21:0x0000000e
       42605000	      4259	800001a4	0a3e3493	sltiu	x9,x28,163	 x28:0xc0009f50  x9=0x00000000
       42615000	      4260	800001a8	00a0d633	srl	x12,x1,x10	  x1:0x00000013 x10:0x00013f89 x12=0x00000000
       42625000	      4261	800001ac	410cd313	srai	x6,x25,0x10	 x25:0x00000000  x6=0x00000000
       42635000	      4262	800001b0	0077c5b3	xor	x11,x15,x7	 x15:0x00000013  x7:0x00013f88 x11=0x00013f9b
       42645000	      4263	800001b4	41fe0eb3	sub	x29,x28,x31	 x28:0xc0009f50 x31:0x80000000 x29=0x40009f50
       42655000	      4264	800001b8	f8fa4ae3	blt	x20,x15,8000014c	 x20:0x00000011 x15:0x00000013
       42665000	      4265	00000000	00000013	addi	x0,x0,0	  x0:0x00000000
       42675000	      4266	80000148	00000013	addi	x0,x0,0	  x0:0x00000000
       42685000	      4267	8000014c	0186b613	sltiu	x12,x13,24	 x13:0x94580000 x12=0x00000000
       42695000	      4268	80000150	73e48017	auipc	x0,0x73e48	
       42705000	      4269	80000154	77c23c13	sltiu	x24,x4,1916	  x4:0x000003bc x24=0x00000001
       42715000	      4270	80000158	41df54b3	sra	x9,x30,x29	 x30:0x80009f84 x29:0x40009f50  x9=0xffff8000
       42725000	      4271	8000015c	001a0a13	addi	x20,x20,1	 x20:0x00000011 x20=0x00000012
       42735000	      4272	80000160	fff00093	addi	x1,x0,-1	  x0:0x00000000  x1=0xffffffff
       42745000	      4273	80000164	01bd6633	or	x12,x26,x27	 x26:0x0000075f x27:0xfffffeab x12=0xffffffff
       42755000	      4274	80000168	00515013	srli	x0,x2,0x5	  x2:0x00000000
       42765000	      4275	8000016c	00e00a93	addi	x21,x0,14	  x0:0x00000000 x21=0x0000000e
       42775000	      4276	80000170	0c8dc193	xori	x3,x27,200	 x27:0xfffffeab  x3=0xfffffe63
       42785000	      4277	80000174	406803b3	sub	x7,x16,x6	 x16:0x00013f88  x6:0x00000000  x7=0x00013f88
       42795000	      4278	80000178	407adc13	srai	x24,x21,0x7	 x21:0x0000000e x24=0x00000000
       42805000	      4279	8000017c	a6000013	addi	x0,x0,-1440	  x0:0x00000000
       42815000	      4280	80000180	00c4d4b3	srl	x9,x9,x12	  x9:0xffff8000 x12:0xffffffff  x9=0x00000001
       42825000	      4281	80000184	3172e513	ori	x10,x5,791	  x5:0x80000000 x10=0x80000317
       42835000	      4282	80000188	c4364213	xori	x4,x12,-957	 x12:0xffffffff  x4=0x000003bc
       42845000	      4283	8000018c	d529a113	slti	x2,x19,-686	 x19:0x23db5330  x2=0x00000000
       42855000	      4284	80000190	b6011537	lui	x10,0xb6011	 x10=0xb6011000
       42865000	      4285	80000194	0104c533	xor	x10,x9,x16	  x9:0x00000001 x16:0x00013f88 x10=0x00013f89
       42875000	      4286	80000198	00a08093	addi	x1,x1,10	  x1:0xffffffff  x1=0x00000009
       42885000	      4287	8000019c	40645e33	sra	x28,x8,x6	  x8:0xc0009f50  x6:0x00000000 x28=0xc0009f50
       42895000	      4288	800001a0	ff50c2e3	blt	x1,x21,80000184	  x1:0x00000009 x21:0x0000000e
       42905000	      4289	00000000	00000013	addi	x0,x0,0	  x0:0x00000000
       42915000	      4290	80000180	00000013	addi	x0,x0,0	  x0:0x00000000
       42925000	      4291	80000184	3172e513	ori	x10,x5,791	  x5:0x80000000 x10=0x80000317
       42935000	      4292	80000188	c4364213	xori	x4,x12,-957	 x12:0xffffffff  x4=0x000003bc
       42945000	      4293	8000018c	d529a113	slti	x2,x19,-686	 x19:0x23db5330  x2=0x00000000
       42955000	      4294	80000190	b6011537	lui	x10,0xb6011	 x10=0xb6011000
       42965000	      4295	80000194	0104c533	xor	x10,x9,x16	  x9:0x00000001 x16:0x00013f88 x10=0x00013f89
       42975000	      4296	80000198	00a08093	addi	x1,x1,10	  x1:0x00000009  x1=0x00000013
       42985000	      4297	8000019c	40645e33	sra	x28,x8,x6	  x8:0xc0009f50  x6:0x00000000 x28=0xc0009f50
       42995000	      4298	800001a0	ff50c2e3	blt	x1,x21,80000184	  x1:0x00000013 x21:0x0000000e
       43005000	      4299	800001a4	0a3e3493	sltiu	x9,x28,163	 x28:0xc0009f50  x9=0x00000000
       43015000	      4300	800001a8	00a0d633	srl	x12,x1,x10	  x1:0x00000013 x10:0x00013f89 x12=0x00000000
       43025000	      4301	800001ac	410cd313	srai	x6,x25,0x10	 x25:0x00000000  x6=0x00000000
       43035000	      4302	800001b0	0077c5b3	xor	x11,x15,x7	 x15:0x00000013  x7:0x00013f88 x11=0x00013f9b
       43045000	      4303	800001b4	41fe0eb3	sub	x29,x28,x31	 x28:0xc0009f50 x31:0x80000000 x29=0x40009f50
       43055000	      4304	800001b8	f8fa4ae3	blt	x20,x15,8000014c	 x20:0x00000012 x15:0x00000013
       43065000	      4305	00000000	00000013	addi	x0,x0,0	  x0:0x00000000
       43075000	      4306	80000148	00000013	addi	x0,x0,0	  x0:0x00000000
       43085000	      4307	8000014c	0186b613	sltiu	x12,x13,24	 x13:0x94580000 x12=0x00000000
       43095000	      4308	80000150	73e48017	auipc	x0,0x73e48	
       43105000	      4309	80000154	77c23c13	sltiu	x24,x4,1916	  x4:0x000003bc x24=0x00000001
       43115000	      4310	80000158	41df54b3	sra	x9,x30,x29	 x30:0x80009f84 x29:0x40009f50  x9=0xffff8000
       43125000	      4311	8000015c	001a0a13	addi	x20,x20,1	 x20:0x00000012 x20=0x00000013
       43135000	      4312	80000160	fff00093	addi	x1,x0,-1	  x0:0x00000000  x1=0xffffffff
       43145000	      4313	80000164	01bd6633	or	x12,x26,x27	 x26:0x0000075f x27:0xfffffeab x12=0xffffffff
       43155000	      4314	80000168	00515013	srli	x0,x2,0x5	  x2:0x00000000
       43165000	      4315	8000016c	00e00a93	addi	x21,x0,14	  x0:0x00000000 x21=0x0000000e
       43175000	      4316	80000170	0c8dc193	xori	x3,x27,200	 x27:0xfffffeab  x3=0xfffffe63
       43185000	      4317	80000174	406803b3	sub	x7,x16,x6	 x16:0x00013f88  x6:0x00000000  x7=0x00013f88
       43195000	      4318	80000178	407adc13	srai	x24,x21,0x7	 x21:0x0000000e x24=0x00000000
       43205000	      4319	8000017c	a6000013	addi	x0,x0,-1440	  x0:0x00000000
       43215000	      4320	80000180	00c4d4b3	srl	x9,x9,x12	  x9:0xffff8000 x12:0xffffffff  x9=0x00000001
       43225000	      4321	80000184	3172e513	ori	x10,x5,791	  x5:0x80000000 x10=0x80000317
       43235000	      4322	80000188	c4364213	xori	x4,x12,-957	 x12:0xffffffff  x4=0x000003bc
       43245000	      4323	8000018c	d529a113	slti	x2,x19,-686	 x19:0x23db5330  x2=0x00000000
       43255000	      4324	80000190	b6011537	lui	x10,0xb6011	 x10=0xb6011000
       43265000	      4325	80000194	0104c533	xor	x10,x9,x16	  x9:0x00000001 x16:0x00013f88 x10=0x00013f89
       43275000	      4326	80000198	00a08093	addi	x1,x1,10	  x1:0xffffffff  x1=0x00000009
       43285000	      4327	8000019c	40645e33	sra	x28,x8,x6	  x8:0xc0009f50  x6:0x00000000 x28=0xc0009f50
       43295000	      4328	800001a0	ff50c2e3	blt	x1,x21,80000184	  x1:0x00000009 x21:0x0000000e
       43305000	      4329	00000000	00000013	addi	x0,x0,0	  x0:0x00000000
       43315000	      4330	80000180	00000013	addi	x0,x0,0	  x0:0x00000000
       43325000	      4331	80000184	3172e513	ori	x10,x5,791	  x5:0x80000000 x10=0x80000317
       43335000	      4332	80000188	c4364213	xori	x4,x12,-957	 x12:0xffffffff  x4=0x000003bc
       43345000	      4333	8000018c	d529a113	slti	x2,x19,-686	 x19:0x23db5330  x2=0x00000000
       43355000	      4334	80000190	b6011537	lui	x10,0xb6011	 x10=0xb6011000
       43365000	      4335	80000194	0104c533	xor	x10,x9,x16	  x9:0x00000001 x16:0x00013f88 x10=0x00013f89
       43375000	      4336	80000198	00a08093	addi	x1,x1,10	  x1:0x00000009  x1=0x00000013
       43385000	      4337	8000019c	40645e33	sra	x28,x8,x6	  x8:0xc0009f50  x6:0x00000000 x28=0xc0009f50
       43395000	      4338	800001a0	ff50c2e3	blt	x1,x21,80000184	  x1:0x00000013 x21:0x0000000e
       43405000	      4339	800001a4	0a3e3493	sltiu	x9,x28,163	 x28:0xc0009f50  x9=0x00000000
       43415000	      4340	800001a8	00a0d633	srl	x12,x1,x10	  x1:0x00000013 x10:0x00013f89 x12=0x00000000
       43425000	      4341	800001ac	410cd313	srai	x6,x25,0x10	 x25:0x00000000  x6=0x00000000
       43435000	      4342	800001b0	0077c5b3	xor	x11,x15,x7	 x15:0x00000013  x7:0x00013f88 x11=0x00013f9b
       43445000	      4343	800001b4	41fe0eb3	sub	x29,x28,x31	 x28:0xc0009f50 x31:0x80000000 x29=0x40009f50
       43455000	      4344	800001b8	f8fa4ae3	blt	x20,x15,8000014c	 x20:0x00000013 x15:0x00000013
       43465000	      4345	800001bc	003c5eb3	srl	x29,x24,x3	 x24:0x00000000  x3:0xfffffe63 x29=0x00000000
       43475000	      4346	800001c0	60cb0297	auipc	x5,0x60cb0	  x5=0xe0cb01bc
       43485000	      4347	800001c4	01ccf463	bgeu	x25,x28,800001cc	 x25:0x00000000 x28:0xc0009f50
       43495000	      4348	800001c8	029a5663	bge	x20,x9,800001f4	 x20:0x00000013  x9:0x00000000
       43505000	      4349	00000000	00000013	addi	x0,x0,0	  x0:0x00000000
       43515000	      4350	800001f0	00000013	addi	x0,x0,0	  x0:0x00000000
       43525000	      4351	800001f4	01108e33	add	x28,x1,x17	  x1:0x00000013 x17:0xf0ed7661 x28=0xf0ed7674
       43535000	      4352	800001f8	3219cc93	xori	x25,x19,801	 x19:0x23db5330 x25=0x23db5011
       43545000	      4353	800001fc	1d2e8493	addi	x9,x29,466	 x29:0x00000000  x9=0x000001d2
       43555000	      4354	80000200	01c71333	sll	x6,x14,x28	 x14:0xfffffffd x28:0xf0ed7674  x6=0xffd00000
       43565000	      4355	80000204	009a3733	sltu	x14,x20,x9	 x20:0x00000013  x9:0x000001d2 x14=0x00000001
       43575000	      4356	80000208	04dd9063	bne	x27,x13,80000248	 x27:0xfffffeab x13:0x94580000
       43585000	      4357	00000000	00000013	addi	x0,x0,0	  x0:0x00000000
       43595000	      4358	80000244	00000013	addi	x0,x0,0	  x0:0x00000000
       43605000	      4359	80000248	006b2c33	slt	x24,x22,x6	 x22:0x0000075f  x6:0xffd00000 x24=0x00000000
       43615000	      4360	8000024c	00000897	auipc	x17,0x0	 x17=0x80000248
       43625000	      4361	80000250	00c88893	addi	x17,x17,12	 x17:0x80000248 x17=0x80000254
       43635000	      4362	80000254	00088067	jalr	x0,x17,0	 x17:0x80000254
       43645000	      4363	00000000	00000013	addi	x0,x0,0	  x0:0x00000000
       43655000	      4364	80000254	00000013	addi	x0,x0,0	  x0:0x00000000
       43665000	      4365	80000258	00100193	addi	x3,x0,1	  x0:0x00000000  x3=0x00000001
       43675000	      4366	8000025c	00000073	ecall	
       43685000	      4367	80000260	01adbd33	sltu	x26,x27,x26	 x27:0xfffffeab x26:0x0000075f x26=0x00000000
