		Time			Cycle	PC		Insn	Decoded instruction	Register and memory contents
          65000	         5	80000004	00000293	addi	x5,x0,0	  x0:0x00000000  x5=0x00000000
          75000	         6	80000008	00000313	addi	x6,x0,0	  x0:0x00000000  x6=0x00000000
          85000	         7	8000000c	00628263	beq	x5,x6,80000010	  x5:0x00000000  x6:0x00000000
          95000	         8	00000000	00000013	addi	x0,x0,0	  x0:0x00000000
         105000	         9	8000000c	00000013	addi	x0,x0,0	  x0:0x00000000
         115000	        10	80000010	00000697	auipc	x13,0x0	 x13=0x8000000c
         125000	        11	80000014	00c68693	addi	x13,x13,12	 x13:0x8000000c x13=0x80000018
         135000	        12	80000018	00068067	jalr	x0,x13,0	 x13:0x80000018
         145000	        13	00000000	00000013	addi	x0,x0,0	  x0:0x00000000
         155000	        14	80000018	00000013	addi	x0,x0,0	  x0:0x00000000
         165000	        15	8000001c	40000137	lui	x2,0x40000	  x2=0x40000000
         175000	        16	80000020	10010113	addi	x2,x2,256	  x2:0x40000000  x2=0x40000100
         185000	        17	80000024	00000013	addi	x0,x0,0	  x0:0x00000000
         195000	        18	80000028	0000af17	auipc	x30,0xa	 x30=0x8000a024
         205000	        19	8000002c	fa0f0f13	addi	x30,x30,-96	 x30:0x8000a024 x30=0x80009fc4
         215000	        20	80000030	00003117	auipc	x2,0x3	  x2=0x8000302c
         225000	        21	80000034	e6410113	addi	x2,x2,-412	  x2:0x8000302c  x2=0x80002e90
         235000	        22	80000038	00016113	ori	x2,x2,0	  x2:0x80002e90  x2=0x80002e90
         245000	        23	8000003c	00000013	addi	x0,x0,0	  x0:0x00000000
         255000	        24	80000040	00000117	auipc	x2,0x0	  x2=0x8000003c
         265000	        25	80000044	02010113	addi	x2,x2,32	  x2:0x8000003c  x2=0x8000005c
         275000	        26	80000048	00000013	addi	x0,x0,0	  x0:0x00000000
         285000	        27	8000004c	00000013	addi	x0,x0,0	  x0:0x00000000
         295000	        28	80000050	00002137	lui	x2,0x2	  x2=0x00002000
         305000	        29	80000054	80010113	addi	x2,x2,-2048	  x2:0x00002000  x2=0x00001800
         315000	        30	80000058	00000013	addi	x0,x0,0	  x0:0x00000000
         325000	        31	8000005c	00000013	addi	x0,x0,0	  x0:0x00000000
         335000	        32	80000060	00c00013	addi	x0,x0,12	  x0:0x00000000
         345000	        33	80000064	d496e0b7	lui	x1,0xd496e	  x1=0xd496e000
         355000	        34	80000068	cfa08093	addi	x1,x1,-774	  x1:0xd496e000  x1=0xd496dcfa
         365000	        35	8000006c	8ee9b137	lui	x2,0x8ee9b	  x2=0x8ee9b000
         375000	        36	80000070	3ad10113	addi	x2,x2,941	  x2:0x8ee9b000  x2=0x8ee9b3ad
         385000	        37	80000074	800001b7	lui	x3,0x80000	  x3=0x80000000
         395000	        38	80000078	f0cb4237	lui	x4,0xf0cb4	  x4=0xf0cb4000
         405000	        39	8000007c	6c820213	addi	x4,x4,1736	  x4:0xf0cb4000  x4=0xf0cb46c8
         415000	        40	80000080	00000293	addi	x5,x0,0	  x0:0x00000000  x5=0x00000000
         425000	        41	80000084	a1185337	lui	x6,0xa1185	  x6=0xa1185000
         435000	        42	80000088	32130313	addi	x6,x6,801	  x6:0xa1185000  x6=0xa1185321
         445000	        43	8000008c	5ea893b7	lui	x7,0x5ea89	  x7=0x5ea89000
         455000	        44	80000090	61038393	addi	x7,x7,1552	  x7:0x5ea89000  x7=0x5ea89610
         465000	        45	80000094	80000437	lui	x8,0x80000	  x8=0x80000000
         475000	        46	80000098	726654b7	lui	x9,0x72665	  x9=0x72665000
         485000	        47	8000009c	29648493	addi	x9,x9,662	  x9:0x72665000  x9=0x72665296
         495000	        48	800000a0	fb7ae537	lui	x10,0xfb7ae	 x10=0xfb7ae000
         505000	        49	800000a4	0f850513	addi	x10,x10,248	 x10:0xfb7ae000 x10=0xfb7ae0f8
         515000	        50	800000a8	00b00593	addi	x11,x0,11	  x0:0x00000000 x11=0x0000000b
         525000	        51	800000ac	00300613	addi	x12,x0,3	  x0:0x00000000 x12=0x00000003
         535000	        52	800000b0	00f00693	addi	x13,x0,15	  x0:0x00000000 x13=0x0000000f
         545000	        53	800000b4	9852f737	lui	x14,0x9852f	 x14=0x9852f000
         555000	        54	800000b8	e6e70713	addi	x14,x14,-402	 x14:0x9852f000 x14=0x9852ee6e
         565000	        55	800000bc	00900793	addi	x15,x0,9	  x0:0x00000000 x15=0x00000009
         575000	        56	800000c0	00d00813	addi	x16,x0,13	  x0:0x00000000 x16=0x0000000d
         585000	        57	800000c4	344d98b7	lui	x17,0x344d9	 x17=0x344d9000
         595000	        58	800000c8	94d88893	addi	x17,x17,-1715	 x17:0x344d9000 x17=0x344d894d
         605000	        59	800000cc	00e00913	addi	x18,x0,14	  x0:0x00000000 x18=0x0000000e
         615000	        60	800000d0	f38ae9b7	lui	x19,0xf38ae	 x19=0xf38ae000
         625000	        61	800000d4	e2198993	addi	x19,x19,-479	 x19:0xf38ae000 x19=0xf38ade21
         635000	        62	800000d8	f2d7aa37	lui	x20,0xf2d7a	 x20=0xf2d7a000
         645000	        63	800000dc	672a0a13	addi	x20,x20,1650	 x20:0xf2d7a000 x20=0xf2d7a672
         655000	        64	800000e0	f0de9ab7	lui	x21,0xf0de9	 x21=0xf0de9000
         665000	        65	800000e4	da5a8a93	addi	x21,x21,-603	 x21:0xf0de9000 x21=0xf0de8da5
         675000	        66	800000e8	f99dfb37	lui	x22,0xf99df	 x22=0xf99df000
         685000	        67	800000ec	4eeb0b13	addi	x22,x22,1262	 x22:0xf99df000 x22=0xf99df4ee
         695000	        68	800000f0	80000bb7	lui	x23,0x80000	 x23=0x80000000
         705000	        69	800000f4	00000c13	addi	x24,x0,0	  x0:0x00000000 x24=0x00000000
         715000	        70	800000f8	ff5a1cb7	lui	x25,0xff5a1	 x25=0xff5a1000
         725000	        71	800000fc	31ec8c93	addi	x25,x25,798	 x25:0xff5a1000 x25=0xff5a131e
         735000	        72	80000100	00d00d13	addi	x26,x0,13	  x0:0x00000000 x26=0x0000000d
         745000	        73	80000104	f3efbe37	lui	x28,0xf3efb	 x28=0xf3efb000
         755000	        74	80000108	ee7e0e13	addi	x28,x28,-281	 x28:0xf3efb000 x28=0xf3efaee7
         765000	        75	8000010c	00000e93	addi	x29,x0,0	  x0:0x00000000 x29=0x00000000
         775000	        76	80000110	00000f93	addi	x31,x0,0	  x0:0x00000000 x31=0x00000000
         785000	        77	80000114	0000ad97	auipc	x27,0xa	 x27=0x8000a110
         795000	        78	80000118	e74d8d93	addi	x27,x27,-396	 x27:0x8000a110 x27=0x80009f84
         805000	        79	8000011c	00400a93	addi	x21,x0,4	  x0:0x00000000 x21=0x00000004
         815000	        80	80000120	00d63433	sltu	x8,x12,x13	 x12:0x00000003 x13:0x0000000f  x8=0x00000001
         825000	        81	80000124	f0634c93	xori	x25,x6,-250	  x6:0xa1185321 x25=0x5ee7ac27
         835000	        82	80000128	409c8933	sub	x18,x25,x9	 x25:0x5ee7ac27  x9:0x72665296 x18=0xec815991
         845000	        83	8000012c	00a00293	addi	x5,x0,10	  x0:0x00000000  x5=0x0000000a
         855000	        84	80000130	01f39713	slli	x14,x7,0x1f	  x7:0x5ea89610 x14=0x00000000
         865000	        85	80000134	406dd233	sra	x4,x27,x6	 x27:0x80009f84  x6:0xa1185321  x4=0xc0004fc2
         875000	        86	80000138	9333f893	andi	x17,x7,-1741	  x7:0x5ea89610 x17=0x5ea89010
         885000	        87	8000013c	40be57b3	sra	x15,x28,x11	 x28:0xf3efaee7 x11:0x0000000b x15=0xfffe7df5
         895000	        88	80000140	006a8a93	addi	x21,x21,6	 x21:0x00000004 x21=0x0000000a
         905000	        89	80000144	ffb00813	addi	x16,x0,-5	  x0:0x00000000 x16=0xfffffffb
         915000	        90	80000148	01e91433	sll	x8,x18,x30	 x18:0xec815991 x30:0x80009fc4  x8=0xc8159910
         925000	        91	8000014c	01e31993	slli	x19,x6,0x1e	  x6:0xa1185321 x19=0x40000000
         935000	        92	80000150	00e51893	slli	x17,x10,0xe	 x10:0xfb7ae0f8 x17=0xb83e0000
         945000	        93	80000154	00100593	addi	x11,x0,1	  x0:0x00000000 x11=0x00000001
         955000	        94	80000158	00e4c3b3	xor	x7,x9,x14	  x9:0x72665296 x14:0x00000000  x7=0x72665296
         965000	        95	8000015c	00000013	addi	x0,x0,0	  x0:0x00000000
         975000	        96	80000160	26548093	addi	x1,x9,613	  x9:0x72665296  x1=0x726654fb
         985000	        97	80000164	00780813	addi	x16,x16,7	 x16:0xfffffffb x16=0x00000002
         995000	        98	80000168	00000013	addi	x0,x0,0	  x0:0x00000000
        1005000	        99	8000016c	feb86ae3	bltu	x16,x11,80000160	 x16:0x00000002 x11:0x00000001
        1015000	       100	80000170	cca66893	ori	x17,x12,-822	 x12:0x00000003 x17=0xfffffccb
        1025000	       101	80000174	1a3dbe13	sltiu	x28,x27,419	 x27:0x80009f84 x28=0x00000000
        1035000	       102	80000178	00ce4633	xor	x12,x28,x12	 x28:0x00000000 x12:0x00000003 x12=0x00000003
        1045000	       103	8000017c	41dad213	srai	x4,x21,0x1d	 x21:0x0000000a  x4=0x00000000
        1055000	       104	80000180	fa5a9ce3	bne	x21,x5,80000138	 x21:0x0000000a  x5:0x0000000a
        1065000	       105	80000184	00793d33	sltu	x26,x18,x7	 x18:0xec815991  x7:0x72665296 x26=0x00000000
        1075000	       106	80000188	1ee2ea93	ori	x21,x5,494	  x5:0x0000000a x21=0x000001ee
        1085000	       107	8000018c	01382833	slt	x16,x16,x19	 x16:0x00000002 x19:0x40000000 x16=0x00000001
        1095000	       108	80000190	4111de93	srai	x29,x3,0x11	  x3:0x80000000 x29=0xffffc000
        1105000	       109	80000194	01b09b93	slli	x23,x1,0x1b	  x1:0x726654fb x23=0xd8000000
        1115000	       110	80000198	000d1633	sll	x12,x26,x0	 x26:0x00000000  x0:0x00000000 x12=0x00000000
        1125000	       111	8000019c	00947d33	and	x26,x8,x9	  x8:0xc8159910  x9:0x72665296 x26=0x40041010
        1135000	       112	800001a0	00002217	auipc	x4,0x2	  x4=0x8000219c
        1145000	       113	800001a4	a8420213	addi	x4,x4,-1404	  x4:0x8000219c  x4=0x80001c20
        1155000	       114	800001a8	1f520213	addi	x4,x4,501	  x4:0x80001c20  x4=0x80001e15
        1165000	       115	800001ac	00a1eeb3	or	x29,x3,x10	  x3:0x80000000 x10:0xfb7ae0f8 x29=0xfb7ae0f8
        1175000	       116	800001b0	40e68a33	sub	x20,x13,x14	 x13:0x0000000f x14:0x00000000 x20=0x0000000f
        1185000	       117	800001b4	b56d3393	sltiu	x7,x26,-1194	 x26:0x40041010  x7=0x00000001
        1195000	       118	800001b8	01d4f663	bgeu	x9,x29,800001c4	  x9:0x72665296 x29:0xfb7ae0f8
        1205000	       119	800001bc	403a0933	sub	x18,x20,x3	 x20:0x0000000f  x3:0x80000000 x18=0x8000000f
        1215000	       120	800001c0	80f2a037	lui	x0,0x80f2a	
        1225000	       121	800001c4	e0c20d67	jalr	x26,x4,-500	  x4:0x80001e15 x26=0x800001c4
        1235000	       122	00000000	00000013	addi	x0,x0,0	  x0:0x00000000
        1245000	       123	80001c20	00000013	addi	x0,x0,0	  x0:0x00000000
        1255000	       124	80001c24	01448263	beq	x9,x20,80001c28	  x9:0x72665296 x20:0x0000000f
        1265000	       125	80001c28	fc0d8d93	addi	x27,x27,-64	 x27:0x80009f84 x27=0x80009f44
        1275000	       126	80001c2c	01e95233	srl	x4,x18,x30	 x18:0x8000000f x30:0x80009fc4  x4=0x08000000
        1285000	       127	80001c30	01ada223	sw	x26,4(x27)	 x27:0x80009f44 x26:0x800001c4 PA:0x80009f48
        1295000	       128	80001c34	01d4f8b3	and	x17,x9,x29	  x9:0x72665296 x29:0xfb7ae0f8 x17=0x72624090
        1305000	       129	80001c38	571844b7	lui	x9,0x57184	  x9=0x57184000
        1315000	       130	80001c3c	00710433	add	x8,x2,x7	  x2:0x8ee9b3ad  x7:0x00000001  x8=0x8ee9b3ae
        1325000	       131	80001c40	e10ec313	xori	x6,x29,-496	 x29:0xfb7ae0f8  x6=0x04851ee8
        1335000	       132	80001c44	000a1c13	slli	x24,x20,0x0	 x20:0x0000000f x24=0x0000000f
        1345000	       133	80001c48	4010d593	srai	x11,x1,0x1	  x1:0x726654fb x11=0x39332a7d
        1355000	       134	80001c4c	a2daea13	ori	x20,x21,-1491	 x21:0x000001ee x20=0xfffffbef
        1365000	       135	80001c50	01ecec33	or	x24,x25,x30	 x25:0x5ee7ac27 x30:0x80009fc4 x24=0xdee7bfe7
        1375000	       136	80001c54	012798b3	sll	x17,x15,x18	 x15:0xfffe7df5 x18:0x8000000f x17=0x3efa8000
        1385000	       137	80001c58	00589233	sll	x4,x17,x5	 x17:0x3efa8000  x5:0x0000000a  x4=0xea000000
        1395000	       138	80001c5c	00cfc433	xor	x8,x31,x12	 x31:0x00000000 x12:0x00000000  x8=0x00000000
        1405000	       139	80001c60	015c0933	add	x18,x24,x21	 x24:0xdee7bfe7 x21:0x000001ee x18=0xdee7c1d5
        1415000	       140	80001c64	8e87e993	ori	x19,x15,-1816	 x15:0xfffe7df5 x19=0xfffffdfd
        1425000	       141	80001c68	d90fed6f	jal	x26,80001c68	 x26=0x80001c68
        1435000	       142	00000000	00000013	addi	x0,x0,0	  x0:0x00000000
        1445000	       143	800001f4	00000013	addi	x0,x0,0	  x0:0x00000000
        1455000	       144	800001f8	018c2b33	slt	x22,x24,x24	 x24:0xdee7bfe7 x24:0xdee7bfe7 x22=0x00000000
        1465000	       145	800001fc	004aae33	slt	x28,x21,x4	 x21:0x000001ee  x4:0xea000000 x28=0x00000000
        1475000	       146	80000200	fc0d8d93	addi	x27,x27,-64	 x27:0x80009f44 x27=0x80009f04
        1485000	       147	80000204	01ada223	sw	x26,4(x27)	 x27:0x80009f04 x26:0x80001c68 PA:0x80009f08
        1495000	       148	80000208	003e43b3	xor	x7,x28,x3	 x28:0x00000000  x3:0x80000000  x7=0x80000000
        1505000	       149	8000020c	000669b3	or	x19,x12,x0	 x12:0x00000000  x0:0x00000000 x19=0x00000000
        1515000	       150	80000210	00800413	addi	x8,x0,8	  x0:0x00000000  x8=0x00000008
        1525000	       151	80000214	00e00e13	addi	x28,x0,14	  x0:0x00000000 x28=0x0000000e
        1535000	       152	80000218	010eac33	slt	x24,x29,x16	 x29:0xfb7ae0f8 x16:0x00000001 x24=0x00000001
        1545000	       153	8000021c	00140413	addi	x8,x8,1	  x8:0x00000008  x8=0x00000009
        1555000	       154	80000220	ffc40ce3	beq	x8,x28,80000218	  x8:0x00000009 x28:0x0000000e
        1565000	       155	80000224	b3e4f493	andi	x9,x9,-1218	  x9:0x57184000  x9=0x57184000
        1575000	       156	80000228	ffd00993	addi	x19,x0,-3	  x0:0x00000000 x19=0xfffffffd
        1585000	       157	8000022c	ffb00b93	addi	x23,x0,-5	  x0:0x00000000 x23=0xfffffffb
        1595000	       158	80000230	01d9a0b3	slt	x1,x19,x29	 x19:0xfffffffd x29:0xfb7ae0f8  x1=0x00000000
        1605000	       159	80000234	fff98993	addi	x19,x19,-1	 x19:0xfffffffd x19=0xfffffffc
        1615000	       160	80000238	ff798ce3	beq	x19,x23,80000230	 x19:0xfffffffc x23:0xfffffffb
        1625000	       161	8000023c	5a966413	ori	x8,x12,1449	 x12:0x00000000  x8=0x000005a9
        1635000	       162	80000240	00900093	addi	x1,x0,9	  x0:0x00000000  x1=0x00000009
        1645000	       163	80000244	00000013	addi	x0,x0,0	  x0:0x00000000
        1655000	       164	80000248	7efbc217	auipc	x4,0x7efbc	  x4=0xfefbc244
        1665000	       165	8000024c	b90b3113	sltiu	x2,x22,-1136	 x22:0x00000000  x2=0x00000001
        1675000	       166	80000250	00900393	addi	x7,x0,9	  x0:0x00000000  x7=0x00000009
        1685000	       167	80000254	d7197b13	andi	x22,x18,-655	 x18:0xdee7c1d5 x22=0xdee7c151
        1695000	       168	80000258	353fc297	auipc	x5,0x353fc	  x5=0xb53fc254
        1705000	       169	8000025c	ff808093	addi	x1,x1,-8	  x1:0x00000009  x1=0x00000001
        1715000	       170	80000260	41920bb3	sub	x23,x4,x25	  x4:0xfefbc244 x25:0x5ee7ac27 x23=0xa014161d
        1725000	       171	80000264	0104dbb3	srl	x23,x9,x16	  x9:0x57184000 x16:0x00000001 x23=0x2b8c2000
        1735000	       172	80000268	0088bd33	sltu	x26,x17,x8	 x17:0x3efa8000  x8:0x000005a9 x26=0x00000000
        1745000	       173	8000026c	fe70f6e3	bgeu	x1,x7,80000258	  x1:0x00000001  x7:0x00000009
        1755000	       174	80000270	014c2d33	slt	x26,x24,x20	 x24:0x00000001 x20:0xfffffbef x26=0x00000000
        1765000	       175	80000274	00900a93	addi	x21,x0,9	  x0:0x00000000 x21=0x00000009
        1775000	       176	80000278	00d00313	addi	x6,x0,13	  x0:0x00000000  x6=0x0000000d
        1785000	       177	8000027c	0125ffb3	and	x31,x11,x18	 x11:0x39332a7d x18:0xdee7c1d5 x31=0x18230055
        1795000	       178	80000280	004a8a93	addi	x21,x21,4	 x21:0x00000009 x21=0x0000000d
        1805000	       179	80000284	00400c13	addi	x24,x0,4	  x0:0x00000000 x24=0x00000004
        1815000	       180	80000288	41d90b33	sub	x22,x18,x29	 x18:0xdee7c1d5 x29:0xfb7ae0f8 x22=0xe36ce0dd
        1825000	       181	8000028c	ff000093	addi	x1,x0,-16	  x0:0x00000000  x1=0xfffffff0
        1835000	       182	80000290	01d438b3	sltu	x17,x8,x29	  x8:0x000005a9 x29:0xfb7ae0f8 x17=0x00000001
        1845000	       183	80000294	ff7c0c13	addi	x24,x24,-9	 x24:0x00000004 x24=0xfffffffb
        1855000	       184	80000298	59eef493	andi	x9,x29,1438	 x29:0xfb7ae0f8  x9=0x00000098
        1865000	       185	8000029c	fe1c5ae3	bge	x24,x1,80000290	 x24:0xfffffffb  x1:0xfffffff0
        1875000	       186	00000000	00000013	addi	x0,x0,0	  x0:0x00000000
        1885000	       187	8000028c	00000013	addi	x0,x0,0	  x0:0x00000000
        1895000	       188	80000290	01d438b3	sltu	x17,x8,x29	  x8:0x000005a9 x29:0xfb7ae0f8 x17=0x00000001
        1905000	       189	80000294	ff7c0c13	addi	x24,x24,-9	 x24:0xfffffffb x24=0xfffffff2
        1915000	       190	80000298	59eef493	andi	x9,x29,1438	 x29:0xfb7ae0f8  x9=0x00000098
        1925000	       191	8000029c	fe1c5ae3	bge	x24,x1,80000290	 x24:0xfffffff2  x1:0xfffffff0
        1935000	       192	00000000	00000013	addi	x0,x0,0	  x0:0x00000000
        1945000	       193	8000028c	00000013	addi	x0,x0,0	  x0:0x00000000
        1955000	       194	80000290	01d438b3	sltu	x17,x8,x29	  x8:0x000005a9 x29:0xfb7ae0f8 x17=0x00000001
        1965000	       195	80000294	ff7c0c13	addi	x24,x24,-9	 x24:0xfffffff2 x24=0xffffffe9
        1975000	       196	80000298	59eef493	andi	x9,x29,1438	 x29:0xfb7ae0f8  x9=0x00000098
        1985000	       197	8000029c	fe1c5ae3	bge	x24,x1,80000290	 x24:0xffffffe9  x1:0xfffffff0
        1995000	       198	800002a0	fc6a9ee3	bne	x21,x6,8000027c	 x21:0x0000000d  x6:0x0000000d
        2005000	       199	800002a4	01d82e33	slt	x28,x16,x29	 x16:0x00000001 x29:0xfb7ae0f8 x28=0x00000000
        2015000	       200	800002a8	00700513	addi	x10,x0,7	  x0:0x00000000 x10=0x00000007
        2025000	       201	800002ac	a1a65737	lui	x14,0xa1a65	 x14=0xa1a65000
        2035000	       202	800002b0	008cdc93	srli	x25,x25,0x8	 x25:0x5ee7ac27 x25=0x005ee7ac
        2045000	       203	800002b4	8ca92217	auipc	x4,0x8ca92	  x4=0x0ca922b0
        2055000	       204	800002b8	01300793	addi	x15,x0,19	  x0:0x00000000 x15=0x00000013
        2065000	       205	800002bc	6a694b13	xori	x22,x18,1702	 x18:0xdee7c1d5 x22=0xdee7c773
        2075000	       206	800002c0	004b00b3	add	x1,x22,x4	 x22:0xdee7c773  x4:0x0ca922b0  x1=0xeb90ea23
        2085000	       207	800002c4	01870c33	add	x24,x14,x24	 x14:0xa1a65000 x24:0xffffffe9 x24=0xa1a64fe9
        2095000	       208	800002c8	23d54893	xori	x17,x10,573	 x10:0x00000007 x17=0x0000023a
        2105000	       209	800002cc	018d5993	srli	x19,x26,0x18	 x26:0x00000000 x19=0x00000000
        2115000	       210	800002d0	a757e197	auipc	x3,0xa757e	  x3=0x2757e2cc
        2125000	       211	800002d4	00150513	addi	x10,x10,1	 x10:0x00000007 x10=0x00000008
        2135000	       212	800002d8	03e87a93	andi	x21,x16,62	 x16:0x00000001 x21=0x00000000
        2145000	       213	800002dc	00610fb3	add	x31,x2,x6	  x2:0x00000001  x6:0x0000000d x31=0x0000000e
        2155000	       214	800002e0	fef544e3	blt	x10,x15,800002c8	 x10:0x00000008 x15:0x00000013
        2165000	       215	00000000	00000013	addi	x0,x0,0	  x0:0x00000000
        2175000	       216	800002c4	00000013	addi	x0,x0,0	  x0:0x00000000
        2185000	       217	800002c8	23d54893	xori	x17,x10,573	 x10:0x00000008 x17=0x00000235
        2195000	       218	800002cc	018d5993	srli	x19,x26,0x18	 x26:0x00000000 x19=0x00000000
        2205000	       219	800002d0	a757e197	auipc	x3,0xa757e	  x3=0x2757e2cc
        2215000	       220	800002d4	00150513	addi	x10,x10,1	 x10:0x00000008 x10=0x00000009
        2225000	       221	800002d8	03e87a93	andi	x21,x16,62	 x16:0x00000001 x21=0x00000000
        2235000	       222	800002dc	00610fb3	add	x31,x2,x6	  x2:0x00000001  x6:0x0000000d x31=0x0000000e
        2245000	       223	800002e0	fef544e3	blt	x10,x15,800002c8	 x10:0x00000009 x15:0x00000013
        2255000	       224	00000000	00000013	addi	x0,x0,0	  x0:0x00000000
        2265000	       225	800002c4	00000013	addi	x0,x0,0	  x0:0x00000000
        2275000	       226	800002c8	23d54893	xori	x17,x10,573	 x10:0x00000009 x17=0x00000234
        2285000	       227	800002cc	018d5993	srli	x19,x26,0x18	 x26:0x00000000 x19=0x00000000
        2295000	       228	800002d0	a757e197	auipc	x3,0xa757e	  x3=0x2757e2cc
        2305000	       229	800002d4	00150513	addi	x10,x10,1	 x10:0x00000009 x10=0x0000000a
        2315000	       230	800002d8	03e87a93	andi	x21,x16,62	 x16:0x00000001 x21=0x00000000
        2325000	       231	800002dc	00610fb3	add	x31,x2,x6	  x2:0x00000001  x6:0x0000000d x31=0x0000000e
        2335000	       232	800002e0	fef544e3	blt	x10,x15,800002c8	 x10:0x0000000a x15:0x00000013
        2345000	       233	00000000	00000013	addi	x0,x0,0	  x0:0x00000000
        2355000	       234	800002c4	00000013	addi	x0,x0,0	  x0:0x00000000
        2365000	       235	800002c8	23d54893	xori	x17,x10,573	 x10:0x0000000a x17=0x00000237
        2375000	       236	800002cc	018d5993	srli	x19,x26,0x18	 x26:0x00000000 x19=0x00000000
        2385000	       237	800002d0	a757e197	auipc	x3,0xa757e	  x3=0x2757e2cc
        2395000	       238	800002d4	00150513	addi	x10,x10,1	 x10:0x0000000a x10=0x0000000b
        2405000	       239	800002d8	03e87a93	andi	x21,x16,62	 x16:0x00000001 x21=0x00000000
        2415000	       240	800002dc	00610fb3	add	x31,x2,x6	  x2:0x00000001  x6:0x0000000d x31=0x0000000e
        2425000	       241	800002e0	fef544e3	blt	x10,x15,800002c8	 x10:0x0000000b x15:0x00000013
        2435000	       242	00000000	00000013	addi	x0,x0,0	  x0:0x00000000
        2445000	       243	800002c4	00000013	addi	x0,x0,0	  x0:0x00000000
        2455000	       244	800002c8	23d54893	xori	x17,x10,573	 x10:0x0000000b x17=0x00000236
        2465000	       245	800002cc	018d5993	srli	x19,x26,0x18	 x26:0x00000000 x19=0x00000000
        2475000	       246	800002d0	a757e197	auipc	x3,0xa757e	  x3=0x2757e2cc
        2485000	       247	800002d4	00150513	addi	x10,x10,1	 x10:0x0000000b x10=0x0000000c
        2495000	       248	800002d8	03e87a93	andi	x21,x16,62	 x16:0x00000001 x21=0x00000000
        2505000	       249	800002dc	00610fb3	add	x31,x2,x6	  x2:0x00000001  x6:0x0000000d x31=0x0000000e
        2515000	       250	800002e0	fef544e3	blt	x10,x15,800002c8	 x10:0x0000000c x15:0x00000013
        2525000	       251	00000000	00000013	addi	x0,x0,0	  x0:0x00000000
        2535000	       252	800002c4	00000013	addi	x0,x0,0	  x0:0x00000000
        2545000	       253	800002c8	23d54893	xori	x17,x10,573	 x10:0x0000000c x17=0x00000231
        2555000	       254	800002cc	018d5993	srli	x19,x26,0x18	 x26:0x00000000 x19=0x00000000
        2565000	       255	800002d0	a757e197	auipc	x3,0xa757e	  x3=0x2757e2cc
        2575000	       256	800002d4	00150513	addi	x10,x10,1	 x10:0x0000000c x10=0x0000000d
        2585000	       257	800002d8	03e87a93	andi	x21,x16,62	 x16:0x00000001 x21=0x00000000
        2595000	       258	800002dc	00610fb3	add	x31,x2,x6	  x2:0x00000001  x6:0x0000000d x31=0x0000000e
        2605000	       259	800002e0	fef544e3	blt	x10,x15,800002c8	 x10:0x0000000d x15:0x00000013
        2615000	       260	00000000	00000013	addi	x0,x0,0	  x0:0x00000000
        2625000	       261	800002c4	00000013	addi	x0,x0,0	  x0:0x00000000
        2635000	       262	800002c8	23d54893	xori	x17,x10,573	 x10:0x0000000d x17=0x00000230
        2645000	       263	800002cc	018d5993	srli	x19,x26,0x18	 x26:0x00000000 x19=0x00000000
        2655000	       264	800002d0	a757e197	auipc	x3,0xa757e	  x3=0x2757e2cc
        2665000	       265	800002d4	00150513	addi	x10,x10,1	 x10:0x0000000d x10=0x0000000e
        2675000	       266	800002d8	03e87a93	andi	x21,x16,62	 x16:0x00000001 x21=0x00000000
        2685000	       267	800002dc	00610fb3	add	x31,x2,x6	  x2:0x00000001  x6:0x0000000d x31=0x0000000e
        2695000	       268	800002e0	fef544e3	blt	x10,x15,800002c8	 x10:0x0000000e x15:0x00000013
        2705000	       269	00000000	00000013	addi	x0,x0,0	  x0:0x00000000
        2715000	       270	800002c4	00000013	addi	x0,x0,0	  x0:0x00000000
        2725000	       271	800002c8	23d54893	xori	x17,x10,573	 x10:0x0000000e x17=0x00000233
        2735000	       272	800002cc	018d5993	srli	x19,x26,0x18	 x26:0x00000000 x19=0x00000000
        2745000	       273	800002d0	a757e197	auipc	x3,0xa757e	  x3=0x2757e2cc
        2755000	       274	800002d4	00150513	addi	x10,x10,1	 x10:0x0000000e x10=0x0000000f
        2765000	       275	800002d8	03e87a93	andi	x21,x16,62	 x16:0x00000001 x21=0x00000000
        2775000	       276	800002dc	00610fb3	add	x31,x2,x6	  x2:0x00000001  x6:0x0000000d x31=0x0000000e
        2785000	       277	800002e0	fef544e3	blt	x10,x15,800002c8	 x10:0x0000000f x15:0x00000013
        2795000	       278	00000000	00000013	addi	x0,x0,0	  x0:0x00000000
        2805000	       279	800002c4	00000013	addi	x0,x0,0	  x0:0x00000000
        2815000	       280	800002c8	23d54893	xori	x17,x10,573	 x10:0x0000000f x17=0x00000232
        2825000	       281	800002cc	018d5993	srli	x19,x26,0x18	 x26:0x00000000 x19=0x00000000
        2835000	       282	800002d0	a757e197	auipc	x3,0xa757e	  x3=0x2757e2cc
        2845000	       283	800002d4	00150513	addi	x10,x10,1	 x10:0x0000000f x10=0x00000010
        2855000	       284	800002d8	03e87a93	andi	x21,x16,62	 x16:0x00000001 x21=0x00000000
        2865000	       285	800002dc	00610fb3	add	x31,x2,x6	  x2:0x00000001  x6:0x0000000d x31=0x0000000e
        2875000	       286	800002e0	fef544e3	blt	x10,x15,800002c8	 x10:0x00000010 x15:0x00000013
        2885000	       287	00000000	00000013	addi	x0,x0,0	  x0:0x00000000
        2895000	       288	800002c4	00000013	addi	x0,x0,0	  x0:0x00000000
        2905000	       289	800002c8	23d54893	xori	x17,x10,573	 x10:0x00000010 x17=0x0000022d
        2915000	       290	800002cc	018d5993	srli	x19,x26,0x18	 x26:0x00000000 x19=0x00000000
        2925000	       291	800002d0	a757e197	auipc	x3,0xa757e	  x3=0x2757e2cc
        2935000	       292	800002d4	00150513	addi	x10,x10,1	 x10:0x00000010 x10=0x00000011
        2945000	       293	800002d8	03e87a93	andi	x21,x16,62	 x16:0x00000001 x21=0x00000000
        2955000	       294	800002dc	00610fb3	add	x31,x2,x6	  x2:0x00000001  x6:0x0000000d x31=0x0000000e
        2965000	       295	800002e0	fef544e3	blt	x10,x15,800002c8	 x10:0x00000011 x15:0x00000013
        2975000	       296	00000000	00000013	addi	x0,x0,0	  x0:0x00000000
        2985000	       297	800002c4	00000013	addi	x0,x0,0	  x0:0x00000000
        2995000	       298	800002c8	23d54893	xori	x17,x10,573	 x10:0x00000011 x17=0x0000022c
        3005000	       299	800002cc	018d5993	srli	x19,x26,0x18	 x26:0x00000000 x19=0x00000000
        3015000	       300	800002d0	a757e197	auipc	x3,0xa757e	  x3=0x2757e2cc
        3025000	       301	800002d4	00150513	addi	x10,x10,1	 x10:0x00000011 x10=0x00000012
        3035000	       302	800002d8	03e87a93	andi	x21,x16,62	 x16:0x00000001 x21=0x00000000
        3045000	       303	800002dc	00610fb3	add	x31,x2,x6	  x2:0x00000001  x6:0x0000000d x31=0x0000000e
        3055000	       304	800002e0	fef544e3	blt	x10,x15,800002c8	 x10:0x00000012 x15:0x00000013
        3065000	       305	00000000	00000013	addi	x0,x0,0	  x0:0x00000000
        3075000	       306	800002c4	00000013	addi	x0,x0,0	  x0:0x00000000
        3085000	       307	800002c8	23d54893	xori	x17,x10,573	 x10:0x00000012 x17=0x0000022f
        3095000	       308	800002cc	018d5993	srli	x19,x26,0x18	 x26:0x00000000 x19=0x00000000
        3105000	       309	800002d0	a757e197	auipc	x3,0xa757e	  x3=0x2757e2cc
        3115000	       310	800002d4	00150513	addi	x10,x10,1	 x10:0x00000012 x10=0x00000013
        3125000	       311	800002d8	03e87a93	andi	x21,x16,62	 x16:0x00000001 x21=0x00000000
        3135000	       312	800002dc	00610fb3	add	x31,x2,x6	  x2:0x00000001  x6:0x0000000d x31=0x0000000e
        3145000	       313	800002e0	fef544e3	blt	x10,x15,800002c8	 x10:0x00000013 x15:0x00000013
        3155000	       314	800002e4	002f6393	ori	x7,x30,2	 x30:0x80009fc4  x7=0x80009fc6
        3165000	       315	800002e8	ff800293	addi	x5,x0,-8	  x0:0x00000000  x5=0xfffffff8
        3175000	       316	800002ec	00e00893	addi	x17,x0,14	  x0:0x00000000 x17=0x0000000e
        3185000	       317	800002f0	1ee1e313	ori	x6,x3,494	  x3:0x2757e2cc  x6=0x2757e3ee
        3195000	       318	800002f4	41ffd013	srai	x0,x31,0x1f	 x31:0x0000000e
        3205000	       319	800002f8	31447593	andi	x11,x8,788	  x8:0x000005a9 x11=0x00000100
        3215000	       320	800002fc	00a28293	addi	x5,x5,10	  x5:0xfffffff8  x5=0x00000002
        3225000	       321	80000300	4cdd2493	slti	x9,x26,1229	 x26:0x00000000  x9=0x00000001
        3235000	       322	80000304	01990633	add	x12,x18,x25	 x18:0xdee7c1d5 x25:0x005ee7ac x12=0xdf46a981
        3245000	       323	80000308	e2c92913	slti	x18,x18,-468	 x18:0xdee7c1d5 x18=0x00000001
        3255000	       324	8000030c	00900213	addi	x4,x0,9	  x0:0x00000000  x4=0x00000009
        3265000	       325	80000310	643fe717	auipc	x14,0x643fe	 x14=0xe43fe30c
        3275000	       326	80000314	00800c93	addi	x25,x0,8	  x0:0x00000000 x25=0x00000008
        3285000	       327	80000318	0e933813	sltiu	x16,x6,233	  x6:0x2757e3ee x16=0x00000000
        3295000	       328	8000031c	00e44d33	xor	x26,x8,x14	  x8:0x000005a9 x14:0xe43fe30c x26=0xe43fe6a5
        3305000	       329	80000320	ffc20213	addi	x4,x4,-4	  x4:0x00000009  x4=0x00000005
        3315000	       330	80000324	ff927ae3	bgeu	x4,x25,80000318	  x4:0x00000005 x25:0x00000008
        3325000	       331	80000328	012de533	or	x10,x27,x18	 x27:0x80009f04 x18:0x00000001 x10=0x80009f05
        3335000	       332	8000032c	fd12e6e3	bltu	x5,x17,800002f8	  x5:0x00000002 x17:0x0000000e
        3345000	       333	00000000	00000013	addi	x0,x0,0	  x0:0x00000000
        3355000	       334	800002f4	00000013	addi	x0,x0,0	  x0:0x00000000
        3365000	       335	800002f8	31447593	andi	x11,x8,788	  x8:0x000005a9 x11=0x00000100
        3375000	       336	800002fc	00a28293	addi	x5,x5,10	  x5:0x00000002  x5=0x0000000c
        3385000	       337	80000300	4cdd2493	slti	x9,x26,1229	 x26:0xe43fe6a5  x9=0x00000001
        3395000	       338	80000304	01990633	add	x12,x18,x25	 x18:0x00000001 x25:0x00000008 x12=0x00000009
        3405000	       339	80000308	e2c92913	slti	x18,x18,-468	 x18:0x00000001 x18=0x00000000
        3415000	       340	8000030c	00900213	addi	x4,x0,9	  x0:0x00000000  x4=0x00000009
        3425000	       341	80000310	643fe717	auipc	x14,0x643fe	 x14=0xe43fe30c
        3435000	       342	80000314	00800c93	addi	x25,x0,8	  x0:0x00000000 x25=0x00000008
        3445000	       343	80000318	0e933813	sltiu	x16,x6,233	  x6:0x2757e3ee x16=0x00000000
        3455000	       344	8000031c	00e44d33	xor	x26,x8,x14	  x8:0x000005a9 x14:0xe43fe30c x26=0xe43fe6a5
        3465000	       345	80000320	ffc20213	addi	x4,x4,-4	  x4:0x00000009  x4=0x00000005
        3475000	       346	80000324	ff927ae3	bgeu	x4,x25,80000318	  x4:0x00000005 x25:0x00000008
        3485000	       347	80000328	012de533	or	x10,x27,x18	 x27:0x80009f04 x18:0x00000000 x10=0x80009f04
        3495000	       348	8000032c	fd12e6e3	bltu	x5,x17,800002f8	  x5:0x0000000c x17:0x0000000e
        3505000	       349	00000000	00000013	addi	x0,x0,0	  x0:0x00000000
        3515000	       350	800002f4	00000013	addi	x0,x0,0	  x0:0x00000000
        3525000	       351	800002f8	31447593	andi	x11,x8,788	  x8:0x000005a9 x11=0x00000100
        3535000	       352	800002fc	00a28293	addi	x5,x5,10	  x5:0x0000000c  x5=0x00000016
        3545000	       353	80000300	4cdd2493	slti	x9,x26,1229	 x26:0xe43fe6a5  x9=0x00000001
        3555000	       354	80000304	01990633	add	x12,x18,x25	 x18:0x00000000 x25:0x00000008 x12=0x00000008
        3565000	       355	80000308	e2c92913	slti	x18,x18,-468	 x18:0x00000000 x18=0x00000000
        3575000	       356	8000030c	00900213	addi	x4,x0,9	  x0:0x00000000  x4=0x00000009
        3585000	       357	80000310	643fe717	auipc	x14,0x643fe	 x14=0xe43fe30c
        3595000	       358	80000314	00800c93	addi	x25,x0,8	  x0:0x00000000 x25=0x00000008
        3605000	       359	80000318	0e933813	sltiu	x16,x6,233	  x6:0x2757e3ee x16=0x00000000
        3615000	       360	8000031c	00e44d33	xor	x26,x8,x14	  x8:0x000005a9 x14:0xe43fe30c x26=0xe43fe6a5
        3625000	       361	80000320	ffc20213	addi	x4,x4,-4	  x4:0x00000009  x4=0x00000005
        3635000	       362	80000324	ff927ae3	bgeu	x4,x25,80000318	  x4:0x00000005 x25:0x00000008
        3645000	       363	80000328	012de533	or	x10,x27,x18	 x27:0x80009f04 x18:0x00000000 x10=0x80009f04
        3655000	       364	8000032c	fd12e6e3	bltu	x5,x17,800002f8	  x5:0x00000016 x17:0x0000000e
        3665000	       365	80000330	40b70d33	sub	x26,x14,x11	 x14:0xe43fe30c x11:0x00000100 x26=0xe43fe20c
        3675000	       366	80000334	00100613	addi	x12,x0,1	  x0:0x00000000 x12=0x00000001
        3685000	       367	80000338	00916b33	or	x22,x2,x9	  x2:0x00000001  x9:0x00000001 x22=0x00000001
        3695000	       368	8000033c	16ddbd17	auipc	x26,0x16ddb	 x26=0x96ddb338
        3705000	       369	80000340	00e00413	addi	x8,x0,14	  x0:0x00000000  x8=0x0000000e
        3715000	       370	80000344	018f3c33	sltu	x24,x30,x24	 x30:0x80009fc4 x24:0xa1a64fe9 x24=0x00000001
        3725000	       371	80000348	4051dc33	sra	x24,x3,x5	  x3:0x2757e2cc  x5:0x00000016 x24=0x0000009d
        3735000	       372	8000034c	003e7933	and	x18,x28,x3	 x28:0x00000000  x3:0x2757e2cc x18=0x00000000
        3745000	       373	80000350	7f4deb93	ori	x23,x27,2036	 x27:0x80009f04 x23=0x80009ff4
        3755000	       374	80000354	00000013	addi	x0,x0,0	  x0:0x00000000
        3765000	       375	80000358	00a60613	addi	x12,x12,10	 x12:0x00000001 x12=0x0000000b
        3775000	       376	8000035c	004cc8b3	xor	x17,x25,x4	 x25:0x00000008  x4:0x00000005 x17=0x0000000d
        3785000	       377	80000360	0102c133	xor	x2,x5,x16	  x5:0x00000016 x16:0x00000000  x2=0x00000016
        3795000	       378	80000364	008fd0b3	srl	x1,x31,x8	 x31:0x0000000e  x8:0x0000000e  x1=0x00000000
        3805000	       379	80000368	413a00b3	sub	x1,x20,x19	 x20:0xfffffbef x19:0x00000000  x1=0xfffffbef
        3815000	       380	8000036c	5517ae17	auipc	x28,0x5517a	 x28=0xd517a368
        3825000	       381	80000370	4189da93	srai	x21,x19,0x18	 x19:0x00000000 x21=0x00000000
        3835000	       382	80000374	bb9b6993	ori	x19,x22,-1095	 x22:0x00000001 x19=0xfffffbb9
        3845000	       383	80000378	33fe8d13	addi	x26,x29,831	 x29:0xfb7ae0f8 x26=0xfb7ae437
        3855000	       384	8000037c	00300813	addi	x16,x0,3	  x0:0x00000000 x16=0x00000003
        3865000	       385	80000380	082c0a93	addi	x21,x24,130	 x24:0x0000009d x21=0x0000011f
        3875000	       386	80000384	6e473c93	sltiu	x25,x14,1764	 x14:0xe43fe30c x25=0x00000000
        3885000	       387	80000388	01300213	addi	x4,x0,19	  x0:0x00000000  x4=0x00000013
        3895000	       388	8000038c	017e30b3	sltu	x1,x28,x23	 x28:0xd517a368 x23:0x80009ff4  x1=0x00000000
        3905000	       389	80000390	00280813	addi	x16,x16,2	 x16:0x00000003 x16=0x00000005
        3915000	       390	80000394	afa04c93	xori	x25,x0,-1286	  x0:0x00000000 x25=0xfffffafa
        3925000	       391	80000398	015072b3	and	x5,x0,x21	  x0:0x00000000 x21:0x0000011f  x5=0x00000000
        3935000	       392	8000039c	fe4848e3	blt	x16,x4,8000038c	 x16:0x00000005  x4:0x00000013
        3945000	       393	00000000	00000013	addi	x0,x0,0	  x0:0x00000000
        3955000	       394	80000388	00000013	addi	x0,x0,0	  x0:0x00000000
        3965000	       395	8000038c	017e30b3	sltu	x1,x28,x23	 x28:0xd517a368 x23:0x80009ff4  x1=0x00000000
        3975000	       396	80000390	00280813	addi	x16,x16,2	 x16:0x00000005 x16=0x00000007
        3985000	       397	80000394	afa04c93	xori	x25,x0,-1286	  x0:0x00000000 x25=0xfffffafa
        3995000	       398	80000398	015072b3	and	x5,x0,x21	  x0:0x00000000 x21:0x0000011f  x5=0x00000000
        4005000	       399	8000039c	fe4848e3	blt	x16,x4,8000038c	 x16:0x00000007  x4:0x00000013
        4015000	       400	00000000	00000013	addi	x0,x0,0	  x0:0x00000000
        4025000	       401	80000388	00000013	addi	x0,x0,0	  x0:0x00000000
        4035000	       402	8000038c	017e30b3	sltu	x1,x28,x23	 x28:0xd517a368 x23:0x80009ff4  x1=0x00000000
        4045000	       403	80000390	00280813	addi	x16,x16,2	 x16:0x00000007 x16=0x00000009
        4055000	       404	80000394	afa04c93	xori	x25,x0,-1286	  x0:0x00000000 x25=0xfffffafa
        4065000	       405	80000398	015072b3	and	x5,x0,x21	  x0:0x00000000 x21:0x0000011f  x5=0x00000000
        4075000	       406	8000039c	fe4848e3	blt	x16,x4,8000038c	 x16:0x00000009  x4:0x00000013
        4085000	       407	00000000	00000013	addi	x0,x0,0	  x0:0x00000000
        4095000	       408	80000388	00000013	addi	x0,x0,0	  x0:0x00000000
        4105000	       409	8000038c	017e30b3	sltu	x1,x28,x23	 x28:0xd517a368 x23:0x80009ff4  x1=0x00000000
        4115000	       410	80000390	00280813	addi	x16,x16,2	 x16:0x00000009 x16=0x0000000b
        4125000	       411	80000394	afa04c93	xori	x25,x0,-1286	  x0:0x00000000 x25=0xfffffafa
        4135000	       412	80000398	015072b3	and	x5,x0,x21	  x0:0x00000000 x21:0x0000011f  x5=0x00000000
        4145000	       413	8000039c	fe4848e3	blt	x16,x4,8000038c	 x16:0x0000000b  x4:0x00000013
        4155000	       414	00000000	00000013	addi	x0,x0,0	  x0:0x00000000
        4165000	       415	80000388	00000013	addi	x0,x0,0	  x0:0x00000000
        4175000	       416	8000038c	017e30b3	sltu	x1,x28,x23	 x28:0xd517a368 x23:0x80009ff4  x1=0x00000000
        4185000	       417	80000390	00280813	addi	x16,x16,2	 x16:0x0000000b x16=0x0000000d
        4195000	       418	80000394	afa04c93	xori	x25,x0,-1286	  x0:0x00000000 x25=0xfffffafa
        4205000	       419	80000398	015072b3	and	x5,x0,x21	  x0:0x00000000 x21:0x0000011f  x5=0x00000000
        4215000	       420	8000039c	fe4848e3	blt	x16,x4,8000038c	 x16:0x0000000d  x4:0x00000013
        4225000	       421	00000000	00000013	addi	x0,x0,0	  x0:0x00000000
        4235000	       422	80000388	00000013	addi	x0,x0,0	  x0:0x00000000
        4245000	       423	8000038c	017e30b3	sltu	x1,x28,x23	 x28:0xd517a368 x23:0x80009ff4  x1=0x00000000
        4255000	       424	80000390	00280813	addi	x16,x16,2	 x16:0x0000000d x16=0x0000000f
        4265000	       425	80000394	afa04c93	xori	x25,x0,-1286	  x0:0x00000000 x25=0xfffffafa
        4275000	       426	80000398	015072b3	and	x5,x0,x21	  x0:0x00000000 x21:0x0000011f  x5=0x00000000
        4285000	       427	8000039c	fe4848e3	blt	x16,x4,8000038c	 x16:0x0000000f  x4:0x00000013
        4295000	       428	00000000	00000013	addi	x0,x0,0	  x0:0x00000000
        4305000	       429	80000388	00000013	addi	x0,x0,0	  x0:0x00000000
        4315000	       430	8000038c	017e30b3	sltu	x1,x28,x23	 x28:0xd517a368 x23:0x80009ff4  x1=0x00000000
        4325000	       431	80000390	00280813	addi	x16,x16,2	 x16:0x0000000f x16=0x00000011
        4335000	       432	80000394	afa04c93	xori	x25,x0,-1286	  x0:0x00000000 x25=0xfffffafa
        4345000	       433	80000398	015072b3	and	x5,x0,x21	  x0:0x00000000 x21:0x0000011f  x5=0x00000000
        4355000	       434	8000039c	fe4848e3	blt	x16,x4,8000038c	 x16:0x00000011  x4:0x00000013
        4365000	       435	00000000	00000013	addi	x0,x0,0	  x0:0x00000000
        4375000	       436	80000388	00000013	addi	x0,x0,0	  x0:0x00000000
        4385000	       437	8000038c	017e30b3	sltu	x1,x28,x23	 x28:0xd517a368 x23:0x80009ff4  x1=0x00000000
        4395000	       438	80000390	00280813	addi	x16,x16,2	 x16:0x00000011 x16=0x00000013
        4405000	       439	80000394	afa04c93	xori	x25,x0,-1286	  x0:0x00000000 x25=0xfffffafa
        4415000	       440	80000398	015072b3	and	x5,x0,x21	  x0:0x00000000 x21:0x0000011f  x5=0x00000000
        4425000	       441	8000039c	fe4848e3	blt	x16,x4,8000038c	 x16:0x00000013  x4:0x00000013
        4435000	       442	800003a0	729b2b13	slti	x22,x22,1833	 x22:0x00000001 x22=0x00000001
        4445000	       443	800003a4	fa8648e3	blt	x12,x8,80000354	 x12:0x0000000b  x8:0x0000000e
        4455000	       444	00000000	00000013	addi	x0,x0,0	  x0:0x00000000
        4465000	       445	80000350	00000013	addi	x0,x0,0	  x0:0x00000000
        4475000	       446	80000354	00000013	addi	x0,x0,0	  x0:0x00000000
        4485000	       447	80000358	00a60613	addi	x12,x12,10	 x12:0x0000000b x12=0x00000015
        4495000	       448	8000035c	004cc8b3	xor	x17,x25,x4	 x25:0xfffffafa  x4:0x00000013 x17=0xfffffae9
        4505000	       449	80000360	0102c133	xor	x2,x5,x16	  x5:0x00000000 x16:0x00000013  x2=0x00000013
        4515000	       450	80000364	008fd0b3	srl	x1,x31,x8	 x31:0x0000000e  x8:0x0000000e  x1=0x00000000
        4525000	       451	80000368	413a00b3	sub	x1,x20,x19	 x20:0xfffffbef x19:0xfffffbb9  x1=0x00000036
        4535000	       452	8000036c	5517ae17	auipc	x28,0x5517a	 x28=0xd517a368
        4545000	       453	80000370	4189da93	srai	x21,x19,0x18	 x19:0xfffffbb9 x21=0xffffffff
        4555000	       454	80000374	bb9b6993	ori	x19,x22,-1095	 x22:0x00000001 x19=0xfffffbb9
        4565000	       455	80000378	33fe8d13	addi	x26,x29,831	 x29:0xfb7ae0f8 x26=0xfb7ae437
        4575000	       456	8000037c	00300813	addi	x16,x0,3	  x0:0x00000000 x16=0x00000003
        4585000	       457	80000380	082c0a93	addi	x21,x24,130	 x24:0x0000009d x21=0x0000011f
        4595000	       458	80000384	6e473c93	sltiu	x25,x14,1764	 x14:0xe43fe30c x25=0x00000000
        4605000	       459	80000388	01300213	addi	x4,x0,19	  x0:0x00000000  x4=0x00000013
        4615000	       460	8000038c	017e30b3	sltu	x1,x28,x23	 x28:0xd517a368 x23:0x80009ff4  x1=0x00000000
        4625000	       461	80000390	00280813	addi	x16,x16,2	 x16:0x00000003 x16=0x00000005
        4635000	       462	80000394	afa04c93	xori	x25,x0,-1286	  x0:0x00000000 x25=0xfffffafa
        4645000	       463	80000398	015072b3	and	x5,x0,x21	  x0:0x00000000 x21:0x0000011f  x5=0x00000000
        4655000	       464	8000039c	fe4848e3	blt	x16,x4,8000038c	 x16:0x00000005  x4:0x00000013
        4665000	       465	00000000	00000013	addi	x0,x0,0	  x0:0x00000000
        4675000	       466	80000388	00000013	addi	x0,x0,0	  x0:0x00000000
        4685000	       467	8000038c	017e30b3	sltu	x1,x28,x23	 x28:0xd517a368 x23:0x80009ff4  x1=0x00000000
        4695000	       468	80000390	00280813	addi	x16,x16,2	 x16:0x00000005 x16=0x00000007
        4705000	       469	80000394	afa04c93	xori	x25,x0,-1286	  x0:0x00000000 x25=0xfffffafa
        4715000	       470	80000398	015072b3	and	x5,x0,x21	  x0:0x00000000 x21:0x0000011f  x5=0x00000000
        4725000	       471	8000039c	fe4848e3	blt	x16,x4,8000038c	 x16:0x00000007  x4:0x00000013
        4735000	       472	00000000	00000013	addi	x0,x0,0	  x0:0x00000000
        4745000	       473	80000388	00000013	addi	x0,x0,0	  x0:0x00000000
        4755000	       474	8000038c	017e30b3	sltu	x1,x28,x23	 x28:0xd517a368 x23:0x80009ff4  x1=0x00000000
        4765000	       475	80000390	00280813	addi	x16,x16,2	 x16:0x00000007 x16=0x00000009
        4775000	       476	80000394	afa04c93	xori	x25,x0,-1286	  x0:0x00000000 x25=0xfffffafa
        4785000	       477	80000398	015072b3	and	x5,x0,x21	  x0:0x00000000 x21:0x0000011f  x5=0x00000000
        4795000	       478	8000039c	fe4848e3	blt	x16,x4,8000038c	 x16:0x00000009  x4:0x00000013
        4805000	       479	00000000	00000013	addi	x0,x0,0	  x0:0x00000000
        4815000	       480	80000388	00000013	addi	x0,x0,0	  x0:0x00000000
        4825000	       481	8000038c	017e30b3	sltu	x1,x28,x23	 x28:0xd517a368 x23:0x80009ff4  x1=0x00000000
        4835000	       482	80000390	00280813	addi	x16,x16,2	 x16:0x00000009 x16=0x0000000b
        4845000	       483	80000394	afa04c93	xori	x25,x0,-1286	  x0:0x00000000 x25=0xfffffafa
        4855000	       484	80000398	015072b3	and	x5,x0,x21	  x0:0x00000000 x21:0x0000011f  x5=0x00000000
        4865000	       485	8000039c	fe4848e3	blt	x16,x4,8000038c	 x16:0x0000000b  x4:0x00000013
        4875000	       486	00000000	00000013	addi	x0,x0,0	  x0:0x00000000
        4885000	       487	80000388	00000013	addi	x0,x0,0	  x0:0x00000000
        4895000	       488	8000038c	017e30b3	sltu	x1,x28,x23	 x28:0xd517a368 x23:0x80009ff4  x1=0x00000000
        4905000	       489	80000390	00280813	addi	x16,x16,2	 x16:0x0000000b x16=0x0000000d
        4915000	       490	80000394	afa04c93	xori	x25,x0,-1286	  x0:0x00000000 x25=0xfffffafa
        4925000	       491	80000398	015072b3	and	x5,x0,x21	  x0:0x00000000 x21:0x0000011f  x5=0x00000000
        4935000	       492	8000039c	fe4848e3	blt	x16,x4,8000038c	 x16:0x0000000d  x4:0x00000013
        4945000	       493	00000000	00000013	addi	x0,x0,0	  x0:0x00000000
        4955000	       494	80000388	00000013	addi	x0,x0,0	  x0:0x00000000
        4965000	       495	8000038c	017e30b3	sltu	x1,x28,x23	 x28:0xd517a368 x23:0x80009ff4  x1=0x00000000
        4975000	       496	80000390	00280813	addi	x16,x16,2	 x16:0x0000000d x16=0x0000000f
        4985000	       497	80000394	afa04c93	xori	x25,x0,-1286	  x0:0x00000000 x25=0xfffffafa
        4995000	       498	80000398	015072b3	and	x5,x0,x21	  x0:0x00000000 x21:0x0000011f  x5=0x00000000
        5005000	       499	8000039c	fe4848e3	blt	x16,x4,8000038c	 x16:0x0000000f  x4:0x00000013
        5015000	       500	00000000	00000013	addi	x0,x0,0	  x0:0x00000000
        5025000	       501	80000388	00000013	addi	x0,x0,0	  x0:0x00000000
        5035000	       502	8000038c	017e30b3	sltu	x1,x28,x23	 x28:0xd517a368 x23:0x80009ff4  x1=0x00000000
        5045000	       503	80000390	00280813	addi	x16,x16,2	 x16:0x0000000f x16=0x00000011
        5055000	       504	80000394	afa04c93	xori	x25,x0,-1286	  x0:0x00000000 x25=0xfffffafa
        5065000	       505	80000398	015072b3	and	x5,x0,x21	  x0:0x00000000 x21:0x0000011f  x5=0x00000000
        5075000	       506	8000039c	fe4848e3	blt	x16,x4,8000038c	 x16:0x00000011  x4:0x00000013
        5085000	       507	00000000	00000013	addi	x0,x0,0	  x0:0x00000000
        5095000	       508	80000388	00000013	addi	x0,x0,0	  x0:0x00000000
        5105000	       509	8000038c	017e30b3	sltu	x1,x28,x23	 x28:0xd517a368 x23:0x80009ff4  x1=0x00000000
        5115000	       510	80000390	00280813	addi	x16,x16,2	 x16:0x00000011 x16=0x00000013
        5125000	       511	80000394	afa04c93	xori	x25,x0,-1286	  x0:0x00000000 x25=0xfffffafa
        5135000	       512	80000398	015072b3	and	x5,x0,x21	  x0:0x00000000 x21:0x0000011f  x5=0x00000000
        5145000	       513	8000039c	fe4848e3	blt	x16,x4,8000038c	 x16:0x00000013  x4:0x00000013
        5155000	       514	800003a0	729b2b13	slti	x22,x22,1833	 x22:0x00000001 x22=0x00000001
        5165000	       515	800003a4	fa8648e3	blt	x12,x8,80000354	 x12:0x00000015  x8:0x0000000e
        5175000	       516	800003a8	3e82fe13	andi	x28,x5,1000	  x5:0x00000000 x28=0x00000000
        5185000	       517	800003ac	00000713	addi	x14,x0,0	  x0:0x00000000 x14=0x00000000
        5195000	       518	800003b0	d10e5117	auipc	x2,0xd10e5	  x2=0x510e53ac
        5205000	       519	800003b4	019399b3	sll	x19,x7,x25	  x7:0x80009fc6 x25:0xfffffafa x19=0x18000000
        5215000	       520	800003b8	4295ab93	slti	x23,x11,1065	 x11:0x00000100 x23=0x00000001
        5225000	       521	800003bc	4a462c93	slti	x25,x12,1188	 x12:0x00000015 x25=0x00000001
        5235000	       522	800003c0	41fe8ab3	sub	x21,x29,x31	 x29:0xfb7ae0f8 x31:0x0000000e x21=0xfb7ae0ea
        5245000	       523	800003c4	86445ab7	lui	x21,0x86445	 x21=0x86445000
        5255000	       524	800003c8	9274f113	andi	x2,x9,-1753	  x9:0x00000001  x2=0x00000001
        5265000	       525	800003cc	d0448793	addi	x15,x9,-764	  x9:0x00000001 x15=0xfffffd05
        5275000	       526	800003d0	00d00293	addi	x5,x0,13	  x0:0x00000000  x5=0x0000000d
        5285000	       527	800003d4	1290c137	lui	x2,0x1290c	  x2=0x1290c000
        5295000	       528	800003d8	00c56933	or	x18,x10,x12	 x10:0x80009f04 x12:0x00000015 x18=0x80009f15
        5305000	       529	800003dc	f2e57493	andi	x9,x10,-210	 x10:0x80009f04  x9=0x80009f04
        5315000	       530	800003e0	40ed00b3	sub	x1,x26,x14	 x26:0xfb7ae437 x14:0x00000000  x1=0xfb7ae437
        5325000	       531	800003e4	82b3ecb7	lui	x25,0x82b3e	 x25=0x82b3e000
        5335000	       532	800003e8	4bc72e93	slti	x29,x14,1212	 x14:0x00000000 x29=0x00000001
        5345000	       533	800003ec	000ab9b3	sltu	x19,x21,x0	 x21:0x86445000  x0:0x00000000 x19=0x00000000
        5355000	       534	800003f0	00870713	addi	x14,x14,8	 x14:0x00000000 x14=0x00000008
        5365000	       535	800003f4	0158a8b3	slt	x17,x17,x21	 x17:0xfffffae9 x21:0x86445000 x17=0x00000000
        5375000	       536	800003f8	015f9f93	slli	x31,x31,0x15	 x31:0x0000000e x31=0x01c00000
        5385000	       537	800003fc	414d8233	sub	x4,x27,x20	 x27:0x80009f04 x20:0xfffffbef  x4=0x8000a315
        5395000	       538	80000400	a3f6e593	ori	x11,x13,-1473	 x13:0x0000000f x11=0xfffffa3f
        5405000	       539	80000404	01c02d33	slt	x26,x0,x28	  x0:0x00000000 x28:0x00000000 x26=0x00000000
        5415000	       540	80000408	005e0fb3	add	x31,x28,x5	 x28:0x00000000  x5:0x0000000d x31=0x0000000d
        5425000	       541	8000040c	eca3e397	auipc	x7,0xeca3e	  x7=0x6ca3e408
        5435000	       542	80000410	00270ab3	add	x21,x14,x2	 x14:0x00000008  x2:0x1290c000 x21=0x1290c008
        5445000	       543	80000414	77185397	auipc	x7,0x77185	  x7=0xf7185410
        5455000	       544	80000418	01791893	slli	x17,x18,0x17	 x18:0x80009f15 x17=0x8a800000
        5465000	       545	8000041c	fc5746e3	blt	x14,x5,800003e8	 x14:0x00000008  x5:0x0000000d
        5475000	       546	00000000	00000013	addi	x0,x0,0	  x0:0x00000000
        5485000	       547	800003e4	00000013	addi	x0,x0,0	  x0:0x00000000
        5495000	       548	800003e8	4bc72e93	slti	x29,x14,1212	 x14:0x00000008 x29=0x00000001
        5505000	       549	800003ec	000ab9b3	sltu	x19,x21,x0	 x21:0x1290c008  x0:0x00000000 x19=0x00000000
        5515000	       550	800003f0	00870713	addi	x14,x14,8	 x14:0x00000008 x14=0x00000010
        5525000	       551	800003f4	0158a8b3	slt	x17,x17,x21	 x17:0x8a800000 x21:0x1290c008 x17=0x00000001
        5535000	       552	800003f8	015f9f93	slli	x31,x31,0x15	 x31:0x0000000d x31=0x01a00000
        5545000	       553	800003fc	414d8233	sub	x4,x27,x20	 x27:0x80009f04 x20:0xfffffbef  x4=0x8000a315
        5555000	       554	80000400	a3f6e593	ori	x11,x13,-1473	 x13:0x0000000f x11=0xfffffa3f
        5565000	       555	80000404	01c02d33	slt	x26,x0,x28	  x0:0x00000000 x28:0x00000000 x26=0x00000000
        5575000	       556	80000408	005e0fb3	add	x31,x28,x5	 x28:0x00000000  x5:0x0000000d x31=0x0000000d
        5585000	       557	8000040c	eca3e397	auipc	x7,0xeca3e	  x7=0x6ca3e408
        5595000	       558	80000410	00270ab3	add	x21,x14,x2	 x14:0x00000010  x2:0x1290c000 x21=0x1290c010
        5605000	       559	80000414	77185397	auipc	x7,0x77185	  x7=0xf7185410
        5615000	       560	80000418	01791893	slli	x17,x18,0x17	 x18:0x80009f15 x17=0x8a800000
        5625000	       561	8000041c	fc5746e3	blt	x14,x5,800003e8	 x14:0x00000010  x5:0x0000000d
        5635000	       562	80000420	01692bb3	slt	x23,x18,x22	 x18:0x80009f15 x22:0x00000001 x23=0x00000001
        5645000	       563	80000424	00100813	addi	x16,x0,1	  x0:0x00000000 x16=0x00000001
        5655000	       564	80000428	40f65233	sra	x4,x12,x15	 x12:0x00000015 x15:0xfffffd05  x4=0x00000000
        5665000	       565	8000042c	00000013	addi	x0,x0,0	  x0:0x00000000
        5675000	       566	80000430	1b52d597	auipc	x11,0x1b52d	 x11=0x9b52d42c
        5685000	       567	80000434	0166d5b3	srl	x11,x13,x22	 x13:0x0000000f x22:0x00000001 x11=0x00000007
        5695000	       568	80000438	007999b3	sll	x19,x19,x7	 x19:0x00000000  x7:0xf7185410 x19=0x00000000
        5705000	       569	8000043c	66be8493	addi	x9,x29,1643	 x29:0x00000001  x9=0x0000066c
        5715000	       570	80000440	00dd6733	or	x14,x26,x13	 x26:0x00000000 x13:0x0000000f x14=0x0000000f
        5725000	       571	80000444	017cdcb3	srl	x25,x25,x23	 x25:0x82b3e000 x23:0x00000001 x25=0x4159f000
        5735000	       572	80000448	4c5f6893	ori	x17,x30,1221	 x30:0x80009fc4 x17=0x80009fc5
        5745000	       573	8000044c	01ac5cb3	srl	x25,x24,x26	 x24:0x0000009d x26:0x00000000 x25=0x0000009d
        5755000	       574	80000450	00e00e13	addi	x28,x0,14	  x0:0x00000000 x28=0x0000000e
        5765000	       575	80000454	2bc87c93	andi	x25,x16,700	 x16:0x00000001 x25=0x00000000
        5775000	       576	80000458	0006fbb3	and	x23,x13,x0	 x13:0x0000000f  x0:0x00000000 x23=0x00000000
        5785000	       577	8000045c	00a80813	addi	x16,x16,10	 x16:0x00000001 x16=0x0000000b
        5795000	       578	80000460	01e7f033	and	x0,x15,x30	 x15:0xfffffd05 x30:0x80009fc4
        5805000	       579	80000464	01915133	srl	x2,x2,x25	  x2:0x1290c000 x25:0x00000000  x2=0x1290c000
        5815000	       580	80000468	002737b3	sltu	x15,x14,x2	 x14:0x0000000f  x2:0x1290c000 x15=0x00000001
        5825000	       581	8000046c	65dee113	ori	x2,x29,1629	 x29:0x00000001  x2=0x0000065d
        5835000	       582	80000470	0184aeb3	slt	x29,x9,x24	  x9:0x0000066c x24:0x0000009d x29=0x00000000
        5845000	       583	80000474	00dfb2b3	sltu	x5,x31,x13	 x31:0x0000000d x13:0x0000000f  x5=0x00000001
        5855000	       584	80000478	de77fe93	andi	x29,x15,-537	 x15:0x00000001 x29=0x00000001
        5865000	       585	8000047c	00f76433	or	x8,x14,x15	 x14:0x0000000f x15:0x00000001  x8=0x0000000f
        5875000	       586	80000480	0092d2b3	srl	x5,x5,x9	  x5:0x00000001  x9:0x0000066c  x5=0x00000000
        5885000	       587	80000484	8a3ced13	ori	x26,x25,-1885	 x25:0x00000000 x26=0xfffff8a3
        5895000	       588	80000488	012bfa33	and	x20,x23,x18	 x23:0x00000000 x18:0x80009f15 x20=0x00000000
        5905000	       589	8000048c	fdc844e3	blt	x16,x28,80000454	 x16:0x0000000b x28:0x0000000e
        5915000	       590	00000000	00000013	addi	x0,x0,0	  x0:0x00000000
        5925000	       591	80000450	00000013	addi	x0,x0,0	  x0:0x00000000
        5935000	       592	80000454	2bc87c93	andi	x25,x16,700	 x16:0x0000000b x25=0x00000008
        5945000	       593	80000458	0006fbb3	and	x23,x13,x0	 x13:0x0000000f  x0:0x00000000 x23=0x00000000
        5955000	       594	8000045c	00a80813	addi	x16,x16,10	 x16:0x0000000b x16=0x00000015
        5965000	       595	80000460	01e7f033	and	x0,x15,x30	 x15:0x00000001 x30:0x80009fc4
        5975000	       596	80000464	01915133	srl	x2,x2,x25	  x2:0x0000065d x25:0x00000008  x2=0x00000006
        5985000	       597	80000468	002737b3	sltu	x15,x14,x2	 x14:0x0000000f  x2:0x00000006 x15=0x00000000
        5995000	       598	8000046c	65dee113	ori	x2,x29,1629	 x29:0x00000001  x2=0x0000065d
        6005000	       599	80000470	0184aeb3	slt	x29,x9,x24	  x9:0x0000066c x24:0x0000009d x29=0x00000000
        6015000	       600	80000474	00dfb2b3	sltu	x5,x31,x13	 x31:0x0000000d x13:0x0000000f  x5=0x00000001
        6025000	       601	80000478	de77fe93	andi	x29,x15,-537	 x15:0x00000000 x29=0x00000000
        6035000	       602	8000047c	00f76433	or	x8,x14,x15	 x14:0x0000000f x15:0x00000000  x8=0x0000000f
        6045000	       603	80000480	0092d2b3	srl	x5,x5,x9	  x5:0x00000001  x9:0x0000066c  x5=0x00000000
        6055000	       604	80000484	8a3ced13	ori	x26,x25,-1885	 x25:0x00000008 x26=0xfffff8ab
        6065000	       605	80000488	012bfa33	and	x20,x23,x18	 x23:0x00000000 x18:0x80009f15 x20=0x00000000
        6075000	       606	8000048c	fdc844e3	blt	x16,x28,80000454	 x16:0x00000015 x28:0x0000000e
        6085000	       607	80000490	00a6b033	sltu	x0,x13,x10	 x13:0x0000000f x10:0x80009f04
        6095000	       608	80000494	ff900e13	addi	x28,x0,-7	  x0:0x00000000 x28=0xfffffff9
        6105000	       609	80000498	6992fd13	andi	x26,x5,1689	  x5:0x00000000 x26=0x00000000
        6115000	       610	8000049c	ff500593	addi	x11,x0,-11	  x0:0x00000000 x11=0xfffffff5
        6125000	       611	800004a0	01e6a233	slt	x4,x13,x30	 x13:0x0000000f x30:0x80009fc4  x4=0x00000000
        6135000	       612	800004a4	adf0c793	xori	x15,x1,-1313	  x1:0xfb7ae437 x15=0x04851ee8
        6145000	       613	800004a8	01d02433	slt	x8,x0,x29	  x0:0x00000000 x29:0x00000000  x8=0x00000000
        6155000	       614	800004ac	ffce0e13	addi	x28,x28,-4	 x28:0xfffffff9 x28=0xfffffff5
        6165000	       615	800004b0	00c4b233	sltu	x4,x9,x12	  x9:0x0000066c x12:0x00000015  x4=0x00000000
        6175000	       616	800004b4	00500b13	addi	x22,x0,5	  x0:0x00000000 x22=0x00000005
        6185000	       617	800004b8	ff900393	addi	x7,x0,-7	  x0:0x00000000  x7=0xfffffff9
        6195000	       618	800004bc	b8deef97	auipc	x31,0xb8dee	 x31=0x38dee4b8
        6205000	       619	800004c0	0109db93	srli	x23,x19,0x10	 x19:0x00000000 x23=0x00000000
        6215000	       620	800004c4	003904b3	add	x9,x18,x3	 x18:0x80009f15  x3:0x2757e2cc  x9=0xa75881e1
        6225000	       621	800004c8	0071fcb3	and	x25,x3,x7	  x3:0x2757e2cc  x7:0xfffffff9 x25=0x2757e2c8
        6235000	       622	800004cc	ffab0b13	addi	x22,x22,-6	 x22:0x00000005 x22=0xffffffff
        6245000	       623	800004d0	007e5293	srli	x5,x28,0x7	 x28:0xfffffff5  x5=0x01ffffff
        6255000	       624	800004d4	00be1ab3	sll	x21,x28,x11	 x28:0xfffffff5 x11:0xfffffff5 x21=0xfea00000
        6265000	       625	800004d8	fe7b06e3	beq	x22,x7,800004c4	 x22:0xffffffff  x7:0xfffffff9
        6275000	       626	800004dc	00f854b3	srl	x9,x16,x15	 x16:0x00000015 x15:0x04851ee8  x9=0x00000000
        6285000	       627	800004e0	fcbe52e3	bge	x28,x11,800004a4	 x28:0xfffffff5 x11:0xfffffff5
        6295000	       628	00000000	00000013	addi	x0,x0,0	  x0:0x00000000
        6305000	       629	800004a0	00000013	addi	x0,x0,0	  x0:0x00000000
        6315000	       630	800004a4	adf0c793	xori	x15,x1,-1313	  x1:0xfb7ae437 x15=0x04851ee8
        6325000	       631	800004a8	01d02433	slt	x8,x0,x29	  x0:0x00000000 x29:0x00000000  x8=0x00000000
        6335000	       632	800004ac	ffce0e13	addi	x28,x28,-4	 x28:0xfffffff5 x28=0xfffffff1
        6345000	       633	800004b0	00c4b233	sltu	x4,x9,x12	  x9:0x00000000 x12:0x00000015  x4=0x00000001
        6355000	       634	800004b4	00500b13	addi	x22,x0,5	  x0:0x00000000 x22=0x00000005
        6365000	       635	800004b8	ff900393	addi	x7,x0,-7	  x0:0x00000000  x7=0xfffffff9
        6375000	       636	800004bc	b8deef97	auipc	x31,0xb8dee	 x31=0x38dee4b8
        6385000	       637	800004c0	0109db93	srli	x23,x19,0x10	 x19:0x00000000 x23=0x00000000
        6395000	       638	800004c4	003904b3	add	x9,x18,x3	 x18:0x80009f15  x3:0x2757e2cc  x9=0xa75881e1
        6405000	       639	800004c8	0071fcb3	and	x25,x3,x7	  x3:0x2757e2cc  x7:0xfffffff9 x25=0x2757e2c8
        6415000	       640	800004cc	ffab0b13	addi	x22,x22,-6	 x22:0x00000005 x22=0xffffffff
        6425000	       641	800004d0	007e5293	srli	x5,x28,0x7	 x28:0xfffffff1  x5=0x01ffffff
        6435000	       642	800004d4	00be1ab3	sll	x21,x28,x11	 x28:0xfffffff1 x11:0xfffffff5 x21=0xfe200000
        6445000	       643	800004d8	fe7b06e3	beq	x22,x7,800004c4	 x22:0xffffffff  x7:0xfffffff9
        6455000	       644	800004dc	00f854b3	srl	x9,x16,x15	 x16:0x00000015 x15:0x04851ee8  x9=0x00000000
        6465000	       645	800004e0	fcbe52e3	bge	x28,x11,800004a4	 x28:0xfffffff1 x11:0xfffffff5
        6475000	       646	800004e4	e7e7a293	slti	x5,x15,-386	 x15:0x04851ee8  x5=0x00000000
        6485000	       647	800004e8	00a00293	addi	x5,x0,10	  x0:0x00000000  x5=0x0000000a
        6495000	       648	800004ec	40535bb3	sra	x23,x6,x5	  x6:0x2757e3ee  x5:0x0000000a x23=0x0009d5f8
        6505000	       649	800004f0	00d8ec33	or	x24,x17,x13	 x17:0x80009fc5 x13:0x0000000f x24=0x80009fcf
        6515000	       650	800004f4	01320433	add	x8,x4,x19	  x4:0x00000001 x19:0x00000000  x8=0x00000001
        6525000	       651	800004f8	a669ca93	xori	x21,x19,-1434	 x19:0x00000000 x21=0xfffffa66
        6535000	       652	800004fc	00000013	addi	x0,x0,0	  x0:0x00000000
        6545000	       653	80000500	406f50b3	sra	x1,x30,x6	 x30:0x80009fc4  x6:0x2757e3ee  x1=0xfffe0002
        6555000	       654	80000504	00a1d113	srli	x2,x3,0xa	  x3:0x2757e2cc  x2=0x0009d5f8
        6565000	       655	80000508	ffcc0493	addi	x9,x24,-4	 x24:0x80009fcf  x9=0x80009fcb
        6575000	       656	8000050c	ffb00f93	addi	x31,x0,-5	  x0:0x00000000 x31=0xfffffffb
        6585000	       657	80000510	0180b0b3	sltu	x1,x1,x24	  x1:0xfffe0002 x24:0x80009fcf  x1=0x00000000
        6595000	       658	80000514	41500213	addi	x4,x0,1045	  x0:0x00000000  x4=0x00000415
        6605000	       659	80000518	ff628293	addi	x5,x5,-10	  x5:0x0000000a  x5=0x00000000
        6615000	       660	8000051c	01236233	or	x4,x6,x18	  x6:0x2757e3ee x18:0x80009f15  x4=0xa757ffff
        6625000	       661	80000520	41a180b3	sub	x1,x3,x26	  x3:0x2757e2cc x26:0x00000000  x1=0x2757e2cc
        6635000	       662	80000524	fff2d6e3	bge	x5,x31,80000510	  x5:0x00000000 x31:0xfffffffb
        6645000	       663	00000000	00000013	addi	x0,x0,0	  x0:0x00000000
        6655000	       664	8000050c	00000013	addi	x0,x0,0	  x0:0x00000000
        6665000	       665	80000510	0180b0b3	sltu	x1,x1,x24	  x1:0x2757e2cc x24:0x80009fcf  x1=0x00000001
        6675000	       666	80000514	41500213	addi	x4,x0,1045	  x0:0x00000000  x4=0x00000415
        6685000	       667	80000518	ff628293	addi	x5,x5,-10	  x5:0x00000000  x5=0xfffffff6
        6695000	       668	8000051c	01236233	or	x4,x6,x18	  x6:0x2757e3ee x18:0x80009f15  x4=0xa757ffff
        6705000	       669	80000520	41a180b3	sub	x1,x3,x26	  x3:0x2757e2cc x26:0x00000000  x1=0x2757e2cc
        6715000	       670	80000524	fff2d6e3	bge	x5,x31,80000510	  x5:0xfffffff6 x31:0xfffffffb
        6725000	       671	80000528	010ed193	srli	x3,x29,0x10	 x29:0x00000000  x3=0x00000000
        6735000	       672	8000052c	00a00513	addi	x10,x0,10	  x0:0x00000000 x10=0x0000000a
        6745000	       673	80000530	2c0e1bb7	lui	x23,0x2c0e1	 x23=0x2c0e1000
        6755000	       674	80000534	01400393	addi	x7,x0,20	  x0:0x00000000  x7=0x00000014
        6765000	       675	80000538	407ad913	srai	x18,x21,0x7	 x21:0xfffffa66 x18=0xfffffff4
        6775000	       676	8000053c	5183ae97	auipc	x29,0x5183a	 x29=0xd183a538
        6785000	       677	80000540	1b364593	xori	x11,x12,435	 x12:0x00000015 x11=0x000001a6
        6795000	       678	80000544	df99c313	xori	x6,x19,-519	 x19:0x00000000  x6=0xfffffdf9
        6805000	       679	80000548	41498ab3	sub	x21,x19,x20	 x19:0x00000000 x20:0x00000000 x21=0x00000000
        6815000	       680	8000054c	0172b0b3	sltu	x1,x5,x23	  x5:0xfffffff6 x23:0x2c0e1000  x1=0x00000000
        6825000	       681	80000550	c3e1f113	andi	x2,x3,-962	  x3:0x00000000  x2=0x00000000
        6835000	       682	80000554	00000013	addi	x0,x0,0	  x0:0x00000000
        6845000	       683	80000558	616a7f93	andi	x31,x20,1558	 x20:0x00000000 x31=0x00000000
        6855000	       684	8000055c	00150513	addi	x10,x10,1	 x10:0x0000000a x10=0x0000000b
        6865000	       685	80000560	00c6c4b3	xor	x9,x13,x12	 x13:0x0000000f x12:0x00000015  x9=0x0000001a
        6875000	       686	80000564	41560fb3	sub	x31,x12,x21	 x12:0x00000015 x21:0x00000000 x31=0x00000015
        6885000	       687	80000568	af330e13	addi	x28,x6,-1293	  x6:0xfffffdf9 x28=0xfffff8ec
        6895000	       688	8000056c	010c28b3	slt	x17,x24,x16	 x24:0x80009fcf x16:0x00000015 x17=0x00000001
        6905000	       689	80000570	17474013	xori	x0,x14,372	 x14:0x0000000f
        6915000	       690	80000574	01864633	xor	x12,x12,x24	 x12:0x00000015 x24:0x80009fcf x12=0x80009fda
        6925000	       691	80000578	7f63be93	sltiu	x29,x7,2038	  x7:0x00000014 x29=0x00000001
        6935000	       692	8000057c	06838cb7	lui	x25,0x6838	 x25=0x06838000
        6945000	       693	80000580	00000013	addi	x0,x0,0	  x0:0x00000000
        6955000	       694	80000584	40fb55b3	sra	x11,x22,x15	 x22:0xffffffff x15:0x04851ee8 x11=0xffffffff
        6965000	       695	80000588	011b4633	xor	x12,x22,x17	 x22:0xffffffff x17:0x00000001 x12=0xfffffffe
        6975000	       696	8000058c	1ac34213	xori	x4,x6,428	  x6:0xfffffdf9  x4=0xfffffc55
        6985000	       697	80000590	41d25893	srai	x17,x4,0x1d	  x4:0xfffffc55 x17=0xffffffff
        6995000	       698	80000594	fcaf7c93	andi	x25,x30,-54	 x30:0x80009fc4 x25=0x80009fc0
        7005000	       699	80000598	4057dc33	sra	x24,x15,x5	 x15:0x04851ee8  x5:0xfffffff6 x24=0x00000012
        7015000	       700	8000059c	fa750ce3	beq	x10,x7,80000554	 x10:0x0000000b  x7:0x00000014
        7025000	       701	800005a0	00b06133	or	x2,x0,x11	  x0:0x00000000 x11:0xffffffff  x2=0xffffffff
        7035000	       702	800005a4	00600913	addi	x18,x0,6	  x0:0x00000000 x18=0x00000006
        7045000	       703	800005a8	01111193	slli	x3,x2,0x11	  x2:0xffffffff  x3=0xfffe0000
        7055000	       704	800005ac	01458533	add	x10,x11,x20	 x11:0xffffffff x20:0x00000000 x10=0xffffffff
        7065000	       705	800005b0	1b237113	andi	x2,x6,434	  x6:0xfffffdf9  x2=0x000001b0
        7075000	       706	800005b4	ff100f93	addi	x31,x0,-15	  x0:0x00000000 x31=0xfffffff1
        7085000	       707	800005b8	0ecb7b13	andi	x22,x22,236	 x22:0xffffffff x22=0x000000ec
        7095000	       708	800005bc	4196d793	srai	x15,x13,0x19	 x13:0x0000000f x15=0x00000000
        7105000	       709	800005c0	97bff5b7	lui	x11,0x97bff	 x11=0x97bff000
        7115000	       710	800005c4	ff990913	addi	x18,x18,-7	 x18:0x00000006 x18=0xffffffff
        7125000	       711	800005c8	31e58b93	addi	x23,x11,798	 x11:0x97bff000 x23=0x97bff31e
        7135000	       712	800005cc	dfce0017	auipc	x0,0xdfce0	
        7145000	       713	800005d0	00035093	srli	x1,x6,0x0	  x6:0xfffffdf9  x1=0xfffffdf9
        7155000	       714	800005d4	01f09a93	slli	x21,x1,0x1f	  x1:0xfffffdf9 x21=0x80000000
        7165000	       715	800005d8	45c1be93	sltiu	x29,x3,1116	  x3:0xfffe0000 x29=0x00000000
        7175000	       716	800005dc	40f15d33	sra	x26,x2,x15	  x2:0x000001b0 x15:0x00000000 x26=0x000001b0
        7185000	       717	800005e0	df5fe717	auipc	x14,0xdf5fe	 x14=0x5f5fe5dc
        7195000	       718	800005e4	00600c93	addi	x25,x0,6	  x0:0x00000000 x25=0x00000006
        7205000	       719	800005e8	006b5c13	srli	x24,x22,0x6	 x22:0x000000ec x24=0x00000003
        7215000	       720	800005ec	00300613	addi	x12,x0,3	  x0:0x00000000 x12=0x00000003
        7225000	       721	800005f0	42fda493	slti	x9,x27,1071	 x27:0x80009f04  x9=0x00000001
        7235000	       722	800005f4	fffe3a93	sltiu	x21,x28,-1	 x28:0xfffff8ec x21=0x00000001
        7245000	       723	800005f8	7e61fe93	andi	x29,x3,2022	  x3:0xfffe0000 x29=0x00000000
        7255000	       724	800005fc	9e270a13	addi	x20,x14,-1566	 x14:0x5f5fe5dc x20=0x5f5fdfbe
        7265000	       725	80000600	01e9e3b3	or	x7,x19,x30	 x19:0x00000000 x30:0x80009fc4  x7=0x80009fc4
        7275000	       726	80000604	00000013	addi	x0,x0,0	  x0:0x00000000
        7285000	       727	80000608	fffc8c93	addi	x25,x25,-1	 x25:0x00000006 x25=0x00000005
        7295000	       728	8000060c	feccfae3	bgeu	x25,x12,80000600	 x25:0x00000005 x12:0x00000003
        7305000	       729	00000000	00000013	addi	x0,x0,0	  x0:0x00000000
        7315000	       730	800005fc	00000013	addi	x0,x0,0	  x0:0x00000000
        7325000	       731	80000600	01e9e3b3	or	x7,x19,x30	 x19:0x00000000 x30:0x80009fc4  x7=0x80009fc4
        7335000	       732	80000604	00000013	addi	x0,x0,0	  x0:0x00000000
        7345000	       733	80000608	fffc8c93	addi	x25,x25,-1	 x25:0x00000005 x25=0x00000004
        7355000	       734	8000060c	feccfae3	bgeu	x25,x12,80000600	 x25:0x00000004 x12:0x00000003
        7365000	       735	00000000	00000013	addi	x0,x0,0	  x0:0x00000000
        7375000	       736	800005fc	00000013	addi	x0,x0,0	  x0:0x00000000
        7385000	       737	80000600	01e9e3b3	or	x7,x19,x30	 x19:0x00000000 x30:0x80009fc4  x7=0x80009fc4
        7395000	       738	80000604	00000013	addi	x0,x0,0	  x0:0x00000000
        7405000	       739	80000608	fffc8c93	addi	x25,x25,-1	 x25:0x00000004 x25=0x00000003
        7415000	       740	8000060c	feccfae3	bgeu	x25,x12,80000600	 x25:0x00000003 x12:0x00000003
        7425000	       741	00000000	00000013	addi	x0,x0,0	  x0:0x00000000
        7435000	       742	800005fc	00000013	addi	x0,x0,0	  x0:0x00000000
        7445000	       743	80000600	01e9e3b3	or	x7,x19,x30	 x19:0x00000000 x30:0x80009fc4  x7=0x80009fc4
        7455000	       744	80000604	00000013	addi	x0,x0,0	  x0:0x00000000
        7465000	       745	80000608	fffc8c93	addi	x25,x25,-1	 x25:0x00000003 x25=0x00000002
        7475000	       746	8000060c	feccfae3	bgeu	x25,x12,80000600	 x25:0x00000002 x12:0x00000003
        7485000	       747	80000610	c4eff293	andi	x5,x31,-946	 x31:0xfffffff1  x5=0xfffffc40
        7495000	       748	80000614	fbf906e3	beq	x18,x31,800005c0	 x18:0xffffffff x31:0xfffffff1
        7505000	       749	80000618	01ce5e33	srl	x28,x28,x28	 x28:0xfffff8ec x28:0xfffff8ec x28=0x000fffff
        7515000	       750	8000061c	00700d13	addi	x26,x0,7	  x0:0x00000000 x26=0x00000007
        7525000	       751	80000620	b6177313	andi	x6,x14,-1183	 x14:0x5f5fe5dc  x6=0x5f5fe140
        7535000	       752	80000624	01c89ab3	sll	x21,x17,x28	 x17:0xffffffff x28:0x000fffff x21=0x80000000
        7545000	       753	80000628	7807bf93	sltiu	x31,x15,1920	 x15:0x00000000 x31=0x00000001
        7555000	       754	8000062c	01ecf4b3	and	x9,x25,x30	 x25:0x00000002 x30:0x80009fc4  x9=0x00000000
        7565000	       755	80000630	ffb00713	addi	x14,x0,-5	  x0:0x00000000 x14=0xfffffffb
        7575000	       756	80000634	00a6ffb3	and	x31,x13,x10	 x13:0x0000000f x10:0xffffffff x31=0x0000000f
        7585000	       757	80000638	01b01533	sll	x10,x0,x27	  x0:0x00000000 x27:0x80009f04 x10=0x00000000
        7595000	       758	8000063c	404d02b3	sub	x5,x26,x4	 x26:0x00000007  x4:0xfffffc55  x5=0x000003b2
        7605000	       759	80000640	015b05b3	add	x11,x22,x21	 x22:0x000000ec x21:0x80000000 x11=0x800000ec
        7615000	       760	80000644	23675a17	auipc	x20,0x23675	 x20=0xa3675640
        7625000	       761	80000648	aad18293	addi	x5,x3,-1363	  x3:0xfffe0000  x5=0xfffdfaad
        7635000	       762	8000064c	ff8d0d13	addi	x26,x26,-8	 x26:0x00000007 x26=0xffffffff
        7645000	       763	80000650	015b27b3	slt	x15,x22,x21	 x22:0x000000ec x21:0x80000000 x15=0x00000000
        7655000	       764	80000654	00100213	addi	x4,x0,1	  x0:0x00000000  x4=0x00000001
        7665000	       765	80000658	00b00c13	addi	x24,x0,11	  x0:0x00000000 x24=0x0000000b
        7675000	       766	8000065c	0165ccb3	xor	x25,x11,x22	 x11:0x800000ec x22:0x000000ec x25=0x80000000
        7685000	       767	80000660	ba96aa93	slti	x21,x13,-1111	 x13:0x0000000f x21=0x00000000
        7695000	       768	80000664	1b702113	slti	x2,x0,439	  x0:0x00000000  x2=0x00000001
        7705000	       769	80000668	413a0333	sub	x6,x20,x19	 x20:0xa3675640 x19:0x00000000  x6=0xa3675640
        7715000	       770	8000066c	00a20213	addi	x4,x4,10	  x4:0x00000001  x4=0x0000000b
        7725000	       771	80000670	01ddc933	xor	x18,x27,x29	 x27:0x80009f04 x29:0x00000000 x18=0x80009f04
        7735000	       772	80000674	7f668993	addi	x19,x13,2038	 x13:0x0000000f x19=0x00000805
        7745000	       773	80000678	ff8214e3	bne	x4,x24,80000660	  x4:0x0000000b x24:0x0000000b
        7755000	       774	8000067c	401a5313	srai	x6,x20,0x1	 x20:0xa3675640  x6=0xd1b3ab20
        7765000	       775	80000680	01f462b3	or	x5,x8,x31	  x8:0x00000001 x31:0x0000000f  x5=0x0000000f
        7775000	       776	80000684	faed5ce3	bge	x26,x14,8000063c	 x26:0xffffffff x14:0xfffffffb
        7785000	       777	00000000	00000013	addi	x0,x0,0	  x0:0x00000000
        7795000	       778	80000638	00000013	addi	x0,x0,0	  x0:0x00000000
        7805000	       779	8000063c	404d02b3	sub	x5,x26,x4	 x26:0xffffffff  x4:0x0000000b  x5=0xfffffff4
        7815000	       780	80000640	015b05b3	add	x11,x22,x21	 x22:0x000000ec x21:0x00000000 x11=0x000000ec
        7825000	       781	80000644	23675a17	auipc	x20,0x23675	 x20=0xa3675640
        7835000	       782	80000648	aad18293	addi	x5,x3,-1363	  x3:0xfffe0000  x5=0xfffdfaad
        7845000	       783	8000064c	ff8d0d13	addi	x26,x26,-8	 x26:0xffffffff x26=0xfffffff7
        7855000	       784	80000650	015b27b3	slt	x15,x22,x21	 x22:0x000000ec x21:0x00000000 x15=0x00000000
        7865000	       785	80000654	00100213	addi	x4,x0,1	  x0:0x00000000  x4=0x00000001
        7875000	       786	80000658	00b00c13	addi	x24,x0,11	  x0:0x00000000 x24=0x0000000b
        7885000	       787	8000065c	0165ccb3	xor	x25,x11,x22	 x11:0x000000ec x22:0x000000ec x25=0x00000000
        7895000	       788	80000660	ba96aa93	slti	x21,x13,-1111	 x13:0x0000000f x21=0x00000000
        7905000	       789	80000664	1b702113	slti	x2,x0,439	  x0:0x00000000  x2=0x00000001
        7915000	       790	80000668	413a0333	sub	x6,x20,x19	 x20:0xa3675640 x19:0x00000805  x6=0xa3674e3b
        7925000	       791	8000066c	00a20213	addi	x4,x4,10	  x4:0x00000001  x4=0x0000000b
        7935000	       792	80000670	01ddc933	xor	x18,x27,x29	 x27:0x80009f04 x29:0x00000000 x18=0x80009f04
        7945000	       793	80000674	7f668993	addi	x19,x13,2038	 x13:0x0000000f x19=0x00000805
        7955000	       794	80000678	ff8214e3	bne	x4,x24,80000660	  x4:0x0000000b x24:0x0000000b
        7965000	       795	8000067c	401a5313	srai	x6,x20,0x1	 x20:0xa3675640  x6=0xd1b3ab20
        7975000	       796	80000680	01f462b3	or	x5,x8,x31	  x8:0x00000001 x31:0x0000000f  x5=0x0000000f
        7985000	       797	80000684	faed5ce3	bge	x26,x14,8000063c	 x26:0xfffffff7 x14:0xfffffffb
        7995000	       798	80000688	01ff0133	add	x2,x30,x31	 x30:0x80009fc4 x31:0x0000000f  x2=0x80009fd3
        8005000	       799	8000068c	fff00993	addi	x19,x0,-1	  x0:0x00000000 x19=0xffffffff
        8015000	       800	80000690	813d0217	auipc	x4,0x813d0	  x4=0x013d068c
        8025000	       801	80000694	ffb00893	addi	x17,x0,-5	  x0:0x00000000 x17=0xfffffffb
        8035000	       802	80000698	8e268013	addi	x0,x13,-1822	 x13:0x0000000f
        8045000	       803	8000069c	0bcf95b7	lui	x11,0xbcf9	 x11=0x0bcf9000
        8055000	       804	800006a0	0134cbb3	xor	x23,x9,x19	  x9:0x00000000 x19:0xffffffff x23=0xffffffff
        8065000	       805	800006a4	ffa98993	addi	x19,x19,-6	 x19:0xffffffff x19=0xfffffff9
        8075000	       806	800006a8	0010fc33	and	x24,x1,x1	  x1:0xfffffdf9  x1:0xfffffdf9 x24=0xfffffdf9
        8085000	       807	800006ac	016d0a33	add	x20,x26,x22	 x26:0xfffffff7 x22:0x000000ec x20=0x000000e3
        8095000	       808	800006b0	737aaf93	slti	x31,x21,1847	 x21:0x00000000 x31=0x00000001
        8105000	       809	800006b4	edcc8b13	addi	x22,x25,-292	 x25:0x00000000 x22=0xfffffedc
        8115000	       810	800006b8	ff19d4e3	bge	x19,x17,800006a0	 x19:0xfffffff9 x17:0xfffffffb
        8125000	       811	800006bc	4065d533	sra	x10,x11,x6	 x11:0x0bcf9000  x6:0xd1b3ab20 x10=0x0bcf9000
        8135000	       812	800006c0	00a00393	addi	x7,x0,10	  x0:0x00000000  x7=0x0000000a
        8145000	       813	800006c4	0d203c13	sltiu	x24,x0,210	  x0:0x00000000 x24=0x00000001
        8155000	       814	800006c8	01000813	addi	x16,x0,16	  x0:0x00000000 x16=0x00000010
        8165000	       815	800006cc	4ad17b37	lui	x22,0x4ad17	 x22=0x4ad17000
        8175000	       816	800006d0	8840d317	auipc	x6,0x8840d	  x6=0x0840d6cc
        8185000	       817	800006d4	0b782f93	slti	x31,x16,183	 x16:0x00000010 x31=0x00000001
        8195000	       818	800006d8	01941013	slli	x0,x8,0x19	  x8:0x00000001
        8205000	       819	800006dc	00000013	addi	x0,x0,0	  x0:0x00000000
        8215000	       820	800006e0	00000013	addi	x0,x0,0	  x0:0x00000000
        8225000	       821	800006e4	03b5af97	auipc	x31,0x3b5a	 x31=0x83b5a6e0
        8235000	       822	800006e8	00838393	addi	x7,x7,8	  x7:0x0000000a  x7=0x00000012
        8245000	       823	800006ec	013ade13	srli	x28,x21,0x13	 x21:0x00000000 x28=0x00000000
        8255000	       824	800006f0	9a5bfa93	andi	x21,x23,-1627	 x23:0xffffffff x21=0xfffff9a5
        8265000	       825	800006f4	ff03c0e3	blt	x7,x16,800006d4	  x7:0x00000012 x16:0x00000010
        8275000	       826	800006f8	40a85533	sra	x10,x16,x10	 x16:0x00000010 x10:0x0bcf9000 x10=0x00000010
        8285000	       827	800006fc	0b78f663	bgeu	x17,x23,800007a8	 x17:0xfffffffb x23:0xffffffff
        8295000	       828	80000700	00002a97	auipc	x21,0x2	 x21=0x800026fc
        8305000	       829	80000704	cfca8a93	addi	x21,x21,-772	 x21:0x800026fc x21=0x800023f8
        8315000	       830	80000708	002abeb3	sltu	x29,x21,x2	 x21:0x800023f8  x2:0x80009fd3 x29=0x00000001
        8325000	       831	8000070c	b6277e13	andi	x28,x14,-1182	 x14:0xfffffffb x28=0xfffffb62
        8335000	       832	80000710	15ea8a93	addi	x21,x21,350	 x21:0x800023f8 x21=0x80002556
        8345000	       833	80000714	3f4c7437	lui	x8,0x3f4c7	  x8=0x3f4c7000
        8355000	       834	80000718	01fe15b3	sll	x11,x28,x31	 x28:0xfffffb62 x31:0x83b5a6e0 x11=0xfffffb62
        8365000	       835	8000071c	0195da33	srl	x20,x11,x25	 x11:0xfffffb62 x25:0x00000000 x20=0xfffffb62
        8375000	       836	80000720	40f1d013	srai	x0,x3,0xf	  x3:0xfffe0000
        8385000	       837	80000724	11f2e217	auipc	x4,0x11f2e	  x4=0x91f2e720
        8395000	       838	80000728	007688b3	add	x17,x13,x7	 x13:0x0000000f  x7:0x00000012 x17=0x00000021
        8405000	       839	8000072c	e0e0f813	andi	x16,x1,-498	  x1:0xfffffdf9 x16=0xfffffc08
        8415000	       840	80000730	01f7d463	bge	x15,x31,80000738	 x15:0x00000000 x31:0x83b5a6e0
        8425000	       841	00000000	00000013	addi	x0,x0,0	  x0:0x00000000
        8435000	       842	80000734	00000013	addi	x0,x0,0	  x0:0x00000000
        8445000	       843	80000738	ea2a8d67	jalr	x26,x21,-350	 x21:0x80002556 x26=0x80000738
        8455000	       844	00000000	00000013	addi	x0,x0,0	  x0:0x00000000
        8465000	       845	800023f8	00000013	addi	x0,x0,0	  x0:0x00000000
        8475000	       846	800023fc	759aac93	slti	x25,x21,1881	 x21:0x80002556 x25=0x00000001
        8485000	       847	80002400	5f956c37	lui	x24,0x5f956	 x24=0x5f956000
        8495000	       848	80002404	fdcd8d93	addi	x27,x27,-36	 x27:0x80009f04 x27=0x80009ee0
        8505000	       849	80002408	f0d83c13	sltiu	x24,x16,-243	 x16:0xfffffc08 x24=0x00000001
        8515000	       850	8000240c	00056bb3	or	x23,x10,x0	 x10:0x00000010  x0:0x00000000 x23=0x00000010
        8525000	       851	80002410	417385b3	sub	x11,x7,x23	  x7:0x00000012 x23:0x00000010 x11=0x00000002
        8535000	       852	80002414	e1a24513	xori	x10,x4,-486	  x4:0x91f2e720 x10=0x6e0d193a
        8545000	       853	80002418	01f9efb3	or	x31,x19,x31	 x19:0xfffffff9 x31:0x83b5a6e0 x31=0xfffffff9
        8555000	       854	8000241c	00521b13	slli	x22,x4,0x5	  x4:0x91f2e720 x22=0x3e5ce400
        8565000	       855	80002420	01ada223	sw	x26,4(x27)	 x27:0x80009ee0 x26:0x80000738 PA:0x80009ee4
        8575000	       856	80002424	000fb9b3	sltu	x19,x31,x0	 x31:0xfffffff9  x0:0x00000000 x19=0x00000000
        8585000	       857	80002428	00000013	addi	x0,x0,0	  x0:0x00000000
        8595000	       858	8000242c	00978b33	add	x22,x15,x9	 x15:0x00000000  x9:0x00000000 x22=0x00000000
        8605000	       859	80002430	b4c74a97	auipc	x21,0xb4c74	 x21=0x34c7642c
        8615000	       860	80002434	016b20b3	slt	x1,x22,x22	 x22:0x00000000 x22:0x00000000  x1=0x00000000
        8625000	       861	80002438	40ead713	srai	x14,x21,0xe	 x21:0x34c7642c x14=0x0000d31d
        8635000	       862	8000243c	01814eb3	xor	x29,x2,x24	  x2:0x80009fd3 x24:0x00000001 x29=0x80009fd2
        8645000	       863	80002440	008ddc93	srli	x25,x27,0x8	 x27:0x80009ee0 x25=0x0080009e
        8655000	       864	80002444	4178da33	sra	x20,x17,x23	 x17:0x00000021 x23:0x00000010 x20=0x00000000
        8665000	       865	80002448	09500d6f	jal	x26,80002448	 x26=0x80002448
        8675000	       866	00000000	00000013	addi	x0,x0,0	  x0:0x00000000
        8685000	       867	80002cd8	00000013	addi	x0,x0,0	  x0:0x00000000
        8695000	       868	80002cdc	400ed413	srai	x8,x29,0x0	 x29:0x80009fd2  x8=0x80009fd2
        8705000	       869	80002ce0	ff4d8d93	addi	x27,x27,-12	 x27:0x80009ee0 x27=0x80009ed4
        8715000	       870	80002ce4	01a64fb3	xor	x31,x12,x26	 x12:0x00000003 x26:0x80002448 x31=0x8000244b
        8725000	       871	80002ce8	0197abb3	slt	x23,x15,x25	 x15:0x00000000 x25:0x0080009e x23=0x00000001
        8735000	       872	80002cec	01f99293	slli	x5,x19,0x1f	 x19:0x00000000  x5=0x00000000
        8745000	       873	80002cf0	002e62b3	or	x5,x28,x2	 x28:0xfffffb62  x2:0x80009fd3  x5=0xfffffff3
        8755000	       874	80002cf4	e4e0ecb7	lui	x25,0xe4e0e	 x25=0xe4e0e000
        8765000	       875	80002cf8	a4794413	xori	x8,x18,-1465	 x18:0x80009f04  x8=0x7fff6543
        8775000	       876	80002cfc	01f21b33	sll	x22,x4,x31	  x4:0x91f2e720 x31:0x8000244b x22=0x97390000
        8785000	       877	80002d00	01ada223	sw	x26,4(x27)	 x27:0x80009ed4 x26:0x80002448 PA:0x80009ed8
        8795000	       878	80002d04	001fdb33	srl	x22,x31,x1	 x31:0x8000244b  x1:0x00000000 x22=0x8000244b
        8805000	       879	80002d08	00800b13	addi	x22,x0,8	  x0:0x00000000 x22=0x00000008
        8815000	       880	80002d0c	00e00813	addi	x16,x0,14	  x0:0x00000000 x16=0x0000000e
        8825000	       881	80002d10	90f6f237	lui	x4,0x90f6f	  x4=0x90f6f000
        8835000	       882	80002d14	01f7c133	xor	x2,x15,x31	 x15:0x00000000 x31:0x8000244b  x2=0x8000244b
        8845000	       883	80002d18	007b0b13	addi	x22,x22,7	 x22:0x00000008 x22=0x0000000f
        8855000	       884	80002d1c	bd063a13	sltiu	x20,x12,-1072	 x12:0x00000003 x20=0x00000001
        8865000	       885	80002d20	00a00713	addi	x14,x0,10	  x0:0x00000000 x14=0x0000000a
        8875000	       886	80002d24	13a4b793	sltiu	x15,x9,314	  x9:0x00000000 x15=0x00000001
        8885000	       887	80002d28	00e00e93	addi	x29,x0,14	  x0:0x00000000 x29=0x0000000e
        8895000	       888	80002d2c	01430bb3	add	x23,x6,x20	  x6:0x0840d6cc x20:0x00000001 x23=0x0840d6cd
        8905000	       889	80002d30	00499fb3	sll	x31,x19,x4	 x19:0x00000000  x4:0x90f6f000 x31=0x00000000
        8915000	       890	80002d34	00170713	addi	x14,x14,1	 x14:0x0000000a x14=0x0000000b
        8925000	       891	80002d38	ffd74ae3	blt	x14,x29,80002d2c	 x14:0x0000000b x29:0x0000000e
        8935000	       892	00000000	00000013	addi	x0,x0,0	  x0:0x00000000
        8945000	       893	80002d28	00000013	addi	x0,x0,0	  x0:0x00000000
        8955000	       894	80002d2c	01430bb3	add	x23,x6,x20	  x6:0x0840d6cc x20:0x00000001 x23=0x0840d6cd
        8965000	       895	80002d30	00499fb3	sll	x31,x19,x4	 x19:0x00000000  x4:0x90f6f000 x31=0x00000000
        8975000	       896	80002d34	00170713	addi	x14,x14,1	 x14:0x0000000b x14=0x0000000c
        8985000	       897	80002d38	ffd74ae3	blt	x14,x29,80002d2c	 x14:0x0000000c x29:0x0000000e
        8995000	       898	00000000	00000013	addi	x0,x0,0	  x0:0x00000000
        9005000	       899	80002d28	00000013	addi	x0,x0,0	  x0:0x00000000
        9015000	       900	80002d2c	01430bb3	add	x23,x6,x20	  x6:0x0840d6cc x20:0x00000001 x23=0x0840d6cd
        9025000	       901	80002d30	00499fb3	sll	x31,x19,x4	 x19:0x00000000  x4:0x90f6f000 x31=0x00000000
        9035000	       902	80002d34	00170713	addi	x14,x14,1	 x14:0x0000000c x14=0x0000000d
        9045000	       903	80002d38	ffd74ae3	blt	x14,x29,80002d2c	 x14:0x0000000d x29:0x0000000e
        9055000	       904	00000000	00000013	addi	x0,x0,0	  x0:0x00000000
        9065000	       905	80002d28	00000013	addi	x0,x0,0	  x0:0x00000000
        9075000	       906	80002d2c	01430bb3	add	x23,x6,x20	  x6:0x0840d6cc x20:0x00000001 x23=0x0840d6cd
        9085000	       907	80002d30	00499fb3	sll	x31,x19,x4	 x19:0x00000000  x4:0x90f6f000 x31=0x00000000
        9095000	       908	80002d34	00170713	addi	x14,x14,1	 x14:0x0000000d x14=0x0000000e
        9105000	       909	80002d38	ffd74ae3	blt	x14,x29,80002d2c	 x14:0x0000000e x29:0x0000000e
        9115000	       910	80002d3c	fd0b6ce3	bltu	x22,x16,80002d14	 x22:0x0000000f x16:0x0000000e
        9125000	       911	80002d40	d2f2bb93	sltiu	x23,x5,-721	  x5:0xfffffff3 x23=0x00000000
        9135000	       912	80002d44	03c11a63	bne	x2,x28,80002d78	  x2:0x8000244b x28:0xfffffb62
        9145000	       913	00000000	00000013	addi	x0,x0,0	  x0:0x00000000
        9155000	       914	80002d74	00000013	addi	x0,x0,0	  x0:0x00000000
        9165000	       915	80002d78	005d5413	srli	x8,x26,0x5	 x26:0x80002448  x8=0x04000122
        9175000	       916	80002d7c	4067d093	srai	x1,x15,0x6	 x15:0x00000001  x1=0x00000000
        9185000	       917	80002d80	01149613	slli	x12,x9,0x11	  x9:0x00000000 x12=0x00000000
        9195000	       918	80002d84	03b98063	beq	x19,x27,80002da4	 x19:0x00000000 x27:0x80009ed4
        9205000	       919	80002d88	01c3d863	bge	x7,x28,80002d98	  x7:0x00000012 x28:0xfffffb62
        9215000	       920	00000000	00000013	addi	x0,x0,0	  x0:0x00000000
        9225000	       921	80002d94	00000013	addi	x0,x0,0	  x0:0x00000000
        9235000	       922	80002d98	5e257e13	andi	x28,x10,1506	 x10:0x6e0d193a x28=0x00000122
        9245000	       923	80002d9c	0118da33	srl	x20,x17,x17	 x17:0x00000021 x17:0x00000021 x20=0x00000010
        9255000	       924	80002da0	0315f863	bgeu	x11,x17,80002dd0	 x11:0x00000002 x17:0x00000021
        9265000	       925	80002da4	b5a93193	sltiu	x3,x18,-1190	 x18:0x80009f04  x3=0x00000001
        9275000	       926	80002da8	00b4a233	slt	x4,x9,x11	  x9:0x00000000 x11:0x00000002  x4=0x00000001
        9285000	       927	80002dac	04dd3a13	sltiu	x20,x26,77	 x26:0x80002448 x20=0x00000000
        9295000	       928	80002db0	04e14063	blt	x2,x14,80002df0	  x2:0x8000244b x14:0x0000000e
        9305000	       929	00000000	00000013	addi	x0,x0,0	  x0:0x00000000
        9315000	       930	80002dec	00000013	addi	x0,x0,0	  x0:0x00000000
        9325000	       931	80002df0	03307863	bgeu	x0,x19,80002e20	  x0:0x00000000 x19:0x00000000
        9335000	       932	00000000	00000013	addi	x0,x0,0	  x0:0x00000000
        9345000	       933	80002e1c	00000013	addi	x0,x0,0	  x0:0x00000000
        9355000	       934	80002e20	00d81c93	slli	x25,x16,0xd	 x16:0x0000000e x25=0x0001c000
        9365000	       935	80002e24	005e7463	bgeu	x28,x5,80002e2c	 x28:0x00000122  x5:0xfffffff3
        9375000	       936	80002e28	0399ce63	blt	x19,x25,80002e64	 x19:0x00000000 x25:0x0001c000
        9385000	       937	00000000	00000013	addi	x0,x0,0	  x0:0x00000000
        9395000	       938	80002e60	00000013	addi	x0,x0,0	  x0:0x00000000
        9405000	       939	80002e64	01d13d33	sltu	x26,x2,x29	  x2:0x8000244b x29:0x0000000e x26=0x00000000
        9415000	       940	80002e68	011ce533	or	x10,x25,x17	 x25:0x0001c000 x17:0x00000021 x10=0x0001c021
        9425000	       941	80002e6c	004dad03	lw	x26,4(x27)	 x27:0x80009ed4 x26=0x80002448 PA:0x80009ed8
        9435000	       942	80002e70	014f3cb3	sltu	x25,x30,x20	 x30:0x80009fc4 x20:0x00000000 x25=0x00000000
        9445000	       943	80002e74	00cd8d93	addi	x27,x27,12	 x27:0x80009ed4 x27=0x80009ee0
        9455000	       944	80002e78	00358433	add	x8,x11,x3	 x11:0x00000002  x3:0x00000001  x8=0x00000003
        9465000	       945	80002e7c	000d0293	addi	x5,x26,0	 x26:0x80002448  x5=0x80002448
        9475000	       946	80002e80	000282e7	jalr	x5,x5,0	  x5:0x80002448  x5=0x80002e80
        9485000	       947	00000000	00000013	addi	x0,x0,0	  x0:0x00000000
        9495000	       948	80002448	00000013	addi	x0,x0,0	  x0:0x00000000
        9505000	       949	8000244c	00a00293	addi	x5,x0,10	  x0:0x00000000  x5=0x0000000a
        9515000	       950	80002450	00cffb33	and	x22,x31,x12	 x31:0x00000000 x12:0x00000000 x22=0x00000000
        9525000	       951	80002454	6b65a193	slti	x3,x11,1718	 x11:0x00000002  x3=0x00000001
        9535000	       952	80002458	00a00793	addi	x15,x0,10	  x0:0x00000000 x15=0x0000000a
        9545000	       953	8000245c	410f89b3	sub	x19,x31,x16	 x31:0x00000000 x16:0x0000000e x19=0xfffffff2
        9555000	       954	80002460	0e0ce313	ori	x6,x25,224	 x25:0x00000000  x6=0x000000e0
        9565000	       955	80002464	ff728293	addi	x5,x5,-9	  x5:0x0000000a  x5=0x00000001
        9575000	       956	80002468	abd8bb13	sltiu	x22,x17,-1347	 x17:0x00000021 x22=0x00000001
        9585000	       957	8000246c	f513b813	sltiu	x16,x7,-175	  x7:0x00000012 x16=0x00000001
        9595000	       958	80002470	ff600c13	addi	x24,x0,-10	  x0:0x00000000 x24=0xfffffff6
        9605000	       959	80002474	00b21113	slli	x2,x4,0xb	  x4:0x00000001  x2=0x00000800
        9615000	       960	80002478	ff100393	addi	x7,x0,-15	  x0:0x00000000  x7=0xfffffff1
        9625000	       961	8000247c	7f597f93	andi	x31,x18,2037	 x18:0x80009f04 x31=0x00000704
        9635000	       962	80002480	ff8c0c13	addi	x24,x24,-8	 x24:0xfffffff6 x24=0xffffffee
        9645000	       963	80002484	56ba8113	addi	x2,x21,1387	 x21:0x34c7642c  x2=0x34c76997
        9655000	       964	80002488	014a39b3	sltu	x19,x20,x20	 x20:0x00000000 x20:0x00000000 x19=0x00000000
        9665000	       965	8000248c	9facf513	andi	x10,x25,-1542	 x25:0x00000000 x10=0x00000000
        9675000	       966	80002490	fe7c56e3	bge	x24,x7,8000247c	 x24:0xffffffee  x7:0xfffffff1
        9685000	       967	80002494	00cb8d33	add	x26,x23,x12	 x23:0x00000000 x12:0x00000000 x26=0x00000000
        9695000	       968	80002498	00fe9e13	slli	x28,x29,0xf	 x29:0x0000000e x28=0x00070000
        9705000	       969	8000249c	fc54d937	lui	x18,0xfc54d	 x18=0xfc54d000
        9715000	       970	800024a0	faf2fee3	bgeu	x5,x15,8000245c	  x5:0x00000001 x15:0x0000000a
        9725000	       971	800024a4	01c9c4b3	xor	x9,x19,x28	 x19:0x00000000 x28:0x00070000  x9=0x00070000
        9735000	       972	800024a8	00300713	addi	x14,x0,3	  x0:0x00000000 x14=0x00000003
        9745000	       973	800024ac	ef76de37	lui	x28,0xef76d	 x28=0xef76d000
        9755000	       974	800024b0	005612b3	sll	x5,x12,x5	 x12:0x00000000  x5:0x00000001  x5=0x00000000
        9765000	       975	800024b4	00b00113	addi	x2,x0,11	  x0:0x00000000  x2=0x0000000b
        9775000	       976	800024b8	01ee0833	add	x16,x28,x30	 x28:0xef76d000 x30:0x80009fc4 x16=0x6f776fc4
        9785000	       977	800024bc	2864f193	andi	x3,x9,646	  x9:0x00070000  x3=0x00000000
        9795000	       978	800024c0	00470713	addi	x14,x14,4	 x14:0x00000003 x14=0x00000007
        9805000	       979	800024c4	00ec75b3	and	x11,x24,x14	 x24:0xffffffee x14:0x00000007 x11=0x00000006
        9815000	       980	800024c8	ff900b13	addi	x22,x0,-7	  x0:0x00000000 x22=0xfffffff9
        9825000	       981	800024cc	00000013	addi	x0,x0,0	  x0:0x00000000
        9835000	       982	800024d0	00500513	addi	x10,x0,5	  x0:0x00000000 x10=0x00000005
        9845000	       983	800024d4	0038d413	srli	x8,x17,0x3	 x17:0x00000021  x8=0x00000004
        9855000	       984	800024d8	2af5bc13	sltiu	x24,x11,687	 x11:0x00000006 x24=0x00000001
        9865000	       985	800024dc	0071de33	srl	x28,x3,x7	  x3:0x00000000  x7:0xfffffff1 x28=0x00000000
        9875000	       986	800024e0	001b0b13	addi	x22,x22,1	 x22:0xfffffff9 x22=0xfffffffa
        9885000	       987	800024e4	feab0ae3	beq	x22,x10,800024d8	 x22:0xfffffffa x10:0x00000005
        9895000	       988	800024e8	06d73913	sltiu	x18,x14,109	 x14:0x00000007 x18=0x00000001
        9905000	       989	800024ec	3f18e913	ori	x18,x17,1009	 x17:0x00000021 x18=0x000003f1
        9915000	       990	800024f0	fc2744e3	blt	x14,x2,800024b8	 x14:0x00000007  x2:0x0000000b
        9925000	       991	00000000	00000013	addi	x0,x0,0	  x0:0x00000000
        9935000	       992	800024b4	00000013	addi	x0,x0,0	  x0:0x00000000
        9945000	       993	800024b8	01ee0833	add	x16,x28,x30	 x28:0x00000000 x30:0x80009fc4 x16=0x80009fc4
        9955000	       994	800024bc	2864f193	andi	x3,x9,646	  x9:0x00070000  x3=0x00000000
        9965000	       995	800024c0	00470713	addi	x14,x14,4	 x14:0x00000007 x14=0x0000000b
        9975000	       996	800024c4	00ec75b3	and	x11,x24,x14	 x24:0x00000001 x14:0x0000000b x11=0x00000001
        9985000	       997	800024c8	ff900b13	addi	x22,x0,-7	  x0:0x00000000 x22=0xfffffff9
        9995000	       998	800024cc	00000013	addi	x0,x0,0	  x0:0x00000000
       10005000	       999	800024d0	00500513	addi	x10,x0,5	  x0:0x00000000 x10=0x00000005
       10015000	      1000	800024d4	0038d413	srli	x8,x17,0x3	 x17:0x00000021  x8=0x00000004
       10025000	      1001	800024d8	2af5bc13	sltiu	x24,x11,687	 x11:0x00000001 x24=0x00000001
       10035000	      1002	800024dc	0071de33	srl	x28,x3,x7	  x3:0x00000000  x7:0xfffffff1 x28=0x00000000
       10045000	      1003	800024e0	001b0b13	addi	x22,x22,1	 x22:0xfffffff9 x22=0xfffffffa
       10055000	      1004	800024e4	feab0ae3	beq	x22,x10,800024d8	 x22:0xfffffffa x10:0x00000005
       10065000	      1005	800024e8	06d73913	sltiu	x18,x14,109	 x14:0x0000000b x18=0x00000001
       10075000	      1006	800024ec	3f18e913	ori	x18,x17,1009	 x17:0x00000021 x18=0x000003f1
       10085000	      1007	800024f0	fc2744e3	blt	x14,x2,800024b8	 x14:0x0000000b  x2:0x0000000b
       10095000	      1008	800024f4	00000013	addi	x0,x0,0	  x0:0x00000000
       10105000	      1009	800024f8	00100613	addi	x12,x0,1	  x0:0x00000000 x12=0x00000001
       10115000	      1010	800024fc	ce8c3813	sltiu	x16,x24,-792	 x24:0x00000001 x16=0x00000001
       10125000	      1011	80002500	00a70cb3	add	x25,x14,x10	 x14:0x0000000b x10:0x00000005 x25=0x00000010
       10135000	      1012	80002504	9dc5c293	xori	x5,x11,-1572	 x11:0x00000001  x5=0xfffff9dd
       10145000	      1013	80002508	ff800b13	addi	x22,x0,-8	  x0:0x00000000 x22=0xfffffff8
       10155000	      1014	8000250c	3b680117	auipc	x2,0x3b680	  x2=0xbb682508
       10165000	      1015	80002510	40d204b3	sub	x9,x4,x13	  x4:0x00000001 x13:0x0000000f  x9=0xfffffff2
       10175000	      1016	80002514	40d25a13	srai	x20,x4,0xd	  x4:0x00000001 x20=0x00000000
       10185000	      1017	80002518	41cb5d33	sra	x26,x22,x28	 x22:0xfffffff8 x28:0x00000000 x26=0xfffffff8
       10195000	      1018	8000251c	01483033	sltu	x0,x16,x20	 x16:0x00000001 x20:0x00000000
       10205000	      1019	80002520	ffd60613	addi	x12,x12,-3	 x12:0x00000001 x12=0xfffffffe
       10215000	      1020	80002524	ffa00e93	addi	x29,x0,-6	  x0:0x00000000 x29=0xfffffffa
       10225000	      1021	80002528	5eebe513	ori	x10,x23,1518	 x23:0x00000000 x10=0x000005ee
       10235000	      1022	8000252c	410c52b3	sra	x5,x24,x16	 x24:0x00000001 x16:0x00000001  x5=0x00000000
       10245000	      1023	80002530	00300093	addi	x1,x0,3	  x0:0x00000000  x1=0x00000003
       10255000	      1024	80002534	01fd3c33	sltu	x24,x26,x31	 x26:0xfffffff8 x31:0x00000704 x24=0x00000000
       10265000	      1025	80002538	00bd1f93	slli	x31,x26,0xb	 x26:0xfffffff8 x31=0xffffc000
       10275000	      1026	8000253c	00000013	addi	x0,x0,0	  x0:0x00000000
       10285000	      1027	80002540	01d4f833	and	x16,x9,x29	  x9:0xfffffff2 x29:0xfffffffa x16=0xfffffff2
       10295000	      1028	80002544	009e8e93	addi	x29,x29,9	 x29:0xfffffffa x29=0x00000003
       10305000	      1029	80002548	00245313	srli	x6,x8,0x2	  x8:0x00000004  x6=0x00000001
       10315000	      1030	8000254c	01656233	or	x4,x10,x22	 x10:0x000005ee x22:0xfffffff8  x4=0xfffffffe
       10325000	      1031	80002550	fe1e88e3	beq	x29,x1,80002540	 x29:0x00000003  x1:0x00000003
       10335000	      1032	00000000	00000013	addi	x0,x0,0	  x0:0x00000000
       10345000	      1033	8000253c	00000013	addi	x0,x0,0	  x0:0x00000000
       10355000	      1034	80002540	01d4f833	and	x16,x9,x29	  x9:0xfffffff2 x29:0x00000003 x16=0x00000002
       10365000	      1035	80002544	009e8e93	addi	x29,x29,9	 x29:0x00000003 x29=0x0000000c
       10375000	      1036	80002548	00245313	srli	x6,x8,0x2	  x8:0x00000004  x6=0x00000001
       10385000	      1037	8000254c	01656233	or	x4,x10,x22	 x10:0x000005ee x22:0xfffffff8  x4=0xfffffffe
       10395000	      1038	80002550	fe1e88e3	beq	x29,x1,80002540	 x29:0x0000000c  x1:0x00000003
       10405000	      1039	80002554	960a3893	sltiu	x17,x20,-1696	 x20:0x00000000 x17=0x00000001
       10415000	      1040	80002558	fb665ce3	bge	x12,x22,80002510	 x12:0xfffffffe x22:0xfffffff8
       10425000	      1041	00000000	00000013	addi	x0,x0,0	  x0:0x00000000
       10435000	      1042	8000250c	00000013	addi	x0,x0,0	  x0:0x00000000
       10445000	      1043	80002510	40d204b3	sub	x9,x4,x13	  x4:0xfffffffe x13:0x0000000f  x9=0xffffffef
       10455000	      1044	80002514	40d25a13	srai	x20,x4,0xd	  x4:0xfffffffe x20=0xffffffff
       10465000	      1045	80002518	41cb5d33	sra	x26,x22,x28	 x22:0xfffffff8 x28:0x00000000 x26=0xfffffff8
       10475000	      1046	8000251c	01483033	sltu	x0,x16,x20	 x16:0x00000002 x20:0xffffffff
       10485000	      1047	80002520	ffd60613	addi	x12,x12,-3	 x12:0xfffffffe x12=0xfffffffb
       10495000	      1048	80002524	ffa00e93	addi	x29,x0,-6	  x0:0x00000000 x29=0xfffffffa
       10505000	      1049	80002528	5eebe513	ori	x10,x23,1518	 x23:0x00000000 x10=0x000005ee
       10515000	      1050	8000252c	410c52b3	sra	x5,x24,x16	 x24:0x00000000 x16:0x00000002  x5=0x00000000
       10525000	      1051	80002530	00300093	addi	x1,x0,3	  x0:0x00000000  x1=0x00000003
       10535000	      1052	80002534	01fd3c33	sltu	x24,x26,x31	 x26:0xfffffff8 x31:0xffffc000 x24=0x00000000
       10545000	      1053	80002538	00bd1f93	slli	x31,x26,0xb	 x26:0xfffffff8 x31=0xffffc000
       10555000	      1054	8000253c	00000013	addi	x0,x0,0	  x0:0x00000000
       10565000	      1055	80002540	01d4f833	and	x16,x9,x29	  x9:0xffffffef x29:0xfffffffa x16=0xffffffea
       10575000	      1056	80002544	009e8e93	addi	x29,x29,9	 x29:0xfffffffa x29=0x00000003
       10585000	      1057	80002548	00245313	srli	x6,x8,0x2	  x8:0x00000004  x6=0x00000001
       10595000	      1058	8000254c	01656233	or	x4,x10,x22	 x10:0x000005ee x22:0xfffffff8  x4=0xfffffffe
       10605000	      1059	80002550	fe1e88e3	beq	x29,x1,80002540	 x29:0x00000003  x1:0x00000003
       10615000	      1060	00000000	00000013	addi	x0,x0,0	  x0:0x00000000
       10625000	      1061	8000253c	00000013	addi	x0,x0,0	  x0:0x00000000
       10635000	      1062	80002540	01d4f833	and	x16,x9,x29	  x9:0xffffffef x29:0x00000003 x16=0x00000003
       10645000	      1063	80002544	009e8e93	addi	x29,x29,9	 x29:0x00000003 x29=0x0000000c
       10655000	      1064	80002548	00245313	srli	x6,x8,0x2	  x8:0x00000004  x6=0x00000001
       10665000	      1065	8000254c	01656233	or	x4,x10,x22	 x10:0x000005ee x22:0xfffffff8  x4=0xfffffffe
       10675000	      1066	80002550	fe1e88e3	beq	x29,x1,80002540	 x29:0x0000000c  x1:0x00000003
       10685000	      1067	80002554	960a3893	sltiu	x17,x20,-1696	 x20:0xffffffff x17=0x00000000
       10695000	      1068	80002558	fb665ce3	bge	x12,x22,80002510	 x12:0xfffffffb x22:0xfffffff8
       10705000	      1069	00000000	00000013	addi	x0,x0,0	  x0:0x00000000
       10715000	      1070	8000250c	00000013	addi	x0,x0,0	  x0:0x00000000
       10725000	      1071	80002510	40d204b3	sub	x9,x4,x13	  x4:0xfffffffe x13:0x0000000f  x9=0xffffffef
       10735000	      1072	80002514	40d25a13	srai	x20,x4,0xd	  x4:0xfffffffe x20=0xffffffff
       10745000	      1073	80002518	41cb5d33	sra	x26,x22,x28	 x22:0xfffffff8 x28:0x00000000 x26=0xfffffff8
       10755000	      1074	8000251c	01483033	sltu	x0,x16,x20	 x16:0x00000003 x20:0xffffffff
       10765000	      1075	80002520	ffd60613	addi	x12,x12,-3	 x12:0xfffffffb x12=0xfffffff8
       10775000	      1076	80002524	ffa00e93	addi	x29,x0,-6	  x0:0x00000000 x29=0xfffffffa
       10785000	      1077	80002528	5eebe513	ori	x10,x23,1518	 x23:0x00000000 x10=0x000005ee
       10795000	      1078	8000252c	410c52b3	sra	x5,x24,x16	 x24:0x00000000 x16:0x00000003  x5=0x00000000
       10805000	      1079	80002530	00300093	addi	x1,x0,3	  x0:0x00000000  x1=0x00000003
       10815000	      1080	80002534	01fd3c33	sltu	x24,x26,x31	 x26:0xfffffff8 x31:0xffffc000 x24=0x00000000
       10825000	      1081	80002538	00bd1f93	slli	x31,x26,0xb	 x26:0xfffffff8 x31=0xffffc000
       10835000	      1082	8000253c	00000013	addi	x0,x0,0	  x0:0x00000000
       10845000	      1083	80002540	01d4f833	and	x16,x9,x29	  x9:0xffffffef x29:0xfffffffa x16=0xffffffea
       10855000	      1084	80002544	009e8e93	addi	x29,x29,9	 x29:0xfffffffa x29=0x00000003
       10865000	      1085	80002548	00245313	srli	x6,x8,0x2	  x8:0x00000004  x6=0x00000001
       10875000	      1086	8000254c	01656233	or	x4,x10,x22	 x10:0x000005ee x22:0xfffffff8  x4=0xfffffffe
       10885000	      1087	80002550	fe1e88e3	beq	x29,x1,80002540	 x29:0x00000003  x1:0x00000003
       10895000	      1088	00000000	00000013	addi	x0,x0,0	  x0:0x00000000
       10905000	      1089	8000253c	00000013	addi	x0,x0,0	  x0:0x00000000
       10915000	      1090	80002540	01d4f833	and	x16,x9,x29	  x9:0xffffffef x29:0x00000003 x16=0x00000003
       10925000	      1091	80002544	009e8e93	addi	x29,x29,9	 x29:0x00000003 x29=0x0000000c
       10935000	      1092	80002548	00245313	srli	x6,x8,0x2	  x8:0x00000004  x6=0x00000001
       10945000	      1093	8000254c	01656233	or	x4,x10,x22	 x10:0x000005ee x22:0xfffffff8  x4=0xfffffffe
       10955000	      1094	80002550	fe1e88e3	beq	x29,x1,80002540	 x29:0x0000000c  x1:0x00000003
       10965000	      1095	80002554	960a3893	sltiu	x17,x20,-1696	 x20:0xffffffff x17=0x00000000
       10975000	      1096	80002558	fb665ce3	bge	x12,x22,80002510	 x12:0xfffffff8 x22:0xfffffff8
       10985000	      1097	00000000	00000013	addi	x0,x0,0	  x0:0x00000000
       10995000	      1098	8000250c	00000013	addi	x0,x0,0	  x0:0x00000000
       11005000	      1099	80002510	40d204b3	sub	x9,x4,x13	  x4:0xfffffffe x13:0x0000000f  x9=0xffffffef
       11015000	      1100	80002514	40d25a13	srai	x20,x4,0xd	  x4:0xfffffffe x20=0xffffffff
       11025000	      1101	80002518	41cb5d33	sra	x26,x22,x28	 x22:0xfffffff8 x28:0x00000000 x26=0xfffffff8
       11035000	      1102	8000251c	01483033	sltu	x0,x16,x20	 x16:0x00000003 x20:0xffffffff
       11045000	      1103	80002520	ffd60613	addi	x12,x12,-3	 x12:0xfffffff8 x12=0xfffffff5
       11055000	      1104	80002524	ffa00e93	addi	x29,x0,-6	  x0:0x00000000 x29=0xfffffffa
       11065000	      1105	80002528	5eebe513	ori	x10,x23,1518	 x23:0x00000000 x10=0x000005ee
       11075000	      1106	8000252c	410c52b3	sra	x5,x24,x16	 x24:0x00000000 x16:0x00000003  x5=0x00000000
       11085000	      1107	80002530	00300093	addi	x1,x0,3	  x0:0x00000000  x1=0x00000003
       11095000	      1108	80002534	01fd3c33	sltu	x24,x26,x31	 x26:0xfffffff8 x31:0xffffc000 x24=0x00000000
       11105000	      1109	80002538	00bd1f93	slli	x31,x26,0xb	 x26:0xfffffff8 x31=0xffffc000
       11115000	      1110	8000253c	00000013	addi	x0,x0,0	  x0:0x00000000
       11125000	      1111	80002540	01d4f833	and	x16,x9,x29	  x9:0xffffffef x29:0xfffffffa x16=0xffffffea
       11135000	      1112	80002544	009e8e93	addi	x29,x29,9	 x29:0xfffffffa x29=0x00000003
       11145000	      1113	80002548	00245313	srli	x6,x8,0x2	  x8:0x00000004  x6=0x00000001
       11155000	      1114	8000254c	01656233	or	x4,x10,x22	 x10:0x000005ee x22:0xfffffff8  x4=0xfffffffe
       11165000	      1115	80002550	fe1e88e3	beq	x29,x1,80002540	 x29:0x00000003  x1:0x00000003
       11175000	      1116	00000000	00000013	addi	x0,x0,0	  x0:0x00000000
       11185000	      1117	8000253c	00000013	addi	x0,x0,0	  x0:0x00000000
       11195000	      1118	80002540	01d4f833	and	x16,x9,x29	  x9:0xffffffef x29:0x00000003 x16=0x00000003
       11205000	      1119	80002544	009e8e93	addi	x29,x29,9	 x29:0x00000003 x29=0x0000000c
       11215000	      1120	80002548	00245313	srli	x6,x8,0x2	  x8:0x00000004  x6=0x00000001
       11225000	      1121	8000254c	01656233	or	x4,x10,x22	 x10:0x000005ee x22:0xfffffff8  x4=0xfffffffe
       11235000	      1122	80002550	fe1e88e3	beq	x29,x1,80002540	 x29:0x0000000c  x1:0x00000003
       11245000	      1123	80002554	960a3893	sltiu	x17,x20,-1696	 x20:0xffffffff x17=0x00000000
       11255000	      1124	80002558	fb665ce3	bge	x12,x22,80002510	 x12:0xfffffff5 x22:0xfffffff8
       11265000	      1125	8000255c	019bf233	and	x4,x23,x25	 x23:0x00000000 x25:0x00000010  x4=0x00000000
       11275000	      1126	80002560	ff800293	addi	x5,x0,-8	  x0:0x00000000  x5=0xfffffff8
       11285000	      1127	80002564	004e69b3	or	x19,x28,x4	 x28:0x00000000  x4:0x00000000 x19=0x00000000
       11295000	      1128	80002568	ffb00393	addi	x7,x0,-5	  x0:0x00000000  x7=0xfffffffb
       11305000	      1129	8000256c	40e85f93	srai	x31,x16,0xe	 x16:0x00000003 x31=0x00000000
       11315000	      1130	80002570	41aa5c93	srai	x25,x20,0x1a	 x20:0xffffffff x25=0xffffffff
       11325000	      1131	80002574	00f33c33	sltu	x24,x6,x15	  x6:0x00000001 x15:0x0000000a x24=0x00000001
       11335000	      1132	80002578	00828293	addi	x5,x5,8	  x5:0xfffffff8  x5=0x00000000
       11345000	      1133	8000257c	fe72cce3	blt	x5,x7,80002574	  x5:0x00000000  x7:0xfffffffb
       11355000	      1134	80002580	003e3333	sltu	x6,x28,x3	 x28:0x00000000  x3:0x00000000  x6=0x00000000
       11365000	      1135	80002584	00200713	addi	x14,x0,2	  x0:0x00000000 x14=0x00000002
       11375000	      1136	80002588	01000c13	addi	x24,x0,16	  x0:0x00000000 x24=0x00000010
       11385000	      1137	8000258c	4ed76393	ori	x7,x14,1261	 x14:0x00000002  x7=0x000004ef
       11395000	      1138	80002590	01230b33	add	x22,x6,x18	  x6:0x00000000 x18:0x000003f1 x22=0x000003f1
       11405000	      1139	80002594	01f47533	and	x10,x8,x31	  x8:0x00000004 x31:0x00000000 x10=0x00000000
       11415000	      1140	80002598	00ee9b93	slli	x23,x29,0xe	 x29:0x0000000c x23=0x00030000
       11425000	      1141	8000259c	00270713	addi	x14,x14,2	 x14:0x00000002 x14=0x00000004
       11435000	      1142	800025a0	00800593	addi	x11,x0,8	  x0:0x00000000 x11=0x00000008
       11445000	      1143	800025a4	ff800993	addi	x19,x0,-8	  x0:0x00000000 x19=0xfffffff8
       11455000	      1144	800025a8	0154e233	or	x4,x9,x21	  x9:0xffffffef x21:0x34c7642c  x4=0xffffffef
       11465000	      1145	800025ac	42d9c393	xori	x7,x19,1069	 x19:0xfffffff8  x7=0xfffffbd5
       11475000	      1146	800025b0	ffe58593	addi	x11,x11,-2	 x11:0x00000008 x11=0x00000006
       11485000	      1147	800025b4	94a70813	addi	x16,x14,-1718	 x14:0x00000004 x16=0xfffff94e
       11495000	      1148	800025b8	ff359ae3	bne	x11,x19,800025ac	 x11:0x00000006 x19:0xfffffff8
       11505000	      1149	00000000	00000013	addi	x0,x0,0	  x0:0x00000000
       11515000	      1150	800025a8	00000013	addi	x0,x0,0	  x0:0x00000000
       11525000	      1151	800025ac	42d9c393	xori	x7,x19,1069	 x19:0xfffffff8  x7=0xfffffbd5
       11535000	      1152	800025b0	ffe58593	addi	x11,x11,-2	 x11:0x00000006 x11=0x00000004
       11545000	      1153	800025b4	94a70813	addi	x16,x14,-1718	 x14:0x00000004 x16=0xfffff94e
       11555000	      1154	800025b8	ff359ae3	bne	x11,x19,800025ac	 x11:0x00000004 x19:0xfffffff8
       11565000	      1155	00000000	00000013	addi	x0,x0,0	  x0:0x00000000
       11575000	      1156	800025a8	00000013	addi	x0,x0,0	  x0:0x00000000
       11585000	      1157	800025ac	42d9c393	xori	x7,x19,1069	 x19:0xfffffff8  x7=0xfffffbd5
       11595000	      1158	800025b0	ffe58593	addi	x11,x11,-2	 x11:0x00000004 x11=0x00000002
       11605000	      1159	800025b4	94a70813	addi	x16,x14,-1718	 x14:0x00000004 x16=0xfffff94e
       11615000	      1160	800025b8	ff359ae3	bne	x11,x19,800025ac	 x11:0x00000002 x19:0xfffffff8
       11625000	      1161	00000000	00000013	addi	x0,x0,0	  x0:0x00000000
       11635000	      1162	800025a8	00000013	addi	x0,x0,0	  x0:0x00000000
       11645000	      1163	800025ac	42d9c393	xori	x7,x19,1069	 x19:0xfffffff8  x7=0xfffffbd5
       11655000	      1164	800025b0	ffe58593	addi	x11,x11,-2	 x11:0x00000002 x11=0x00000000
       11665000	      1165	800025b4	94a70813	addi	x16,x14,-1718	 x14:0x00000004 x16=0xfffff94e
       11675000	      1166	800025b8	ff359ae3	bne	x11,x19,800025ac	 x11:0x00000000 x19:0xfffffff8
       11685000	      1167	00000000	00000013	addi	x0,x0,0	  x0:0x00000000
       11695000	      1168	800025a8	00000013	addi	x0,x0,0	  x0:0x00000000
       11705000	      1169	800025ac	42d9c393	xori	x7,x19,1069	 x19:0xfffffff8  x7=0xfffffbd5
       11715000	      1170	800025b0	ffe58593	addi	x11,x11,-2	 x11:0x00000000 x11=0xfffffffe
       11725000	      1171	800025b4	94a70813	addi	x16,x14,-1718	 x14:0x00000004 x16=0xfffff94e
       11735000	      1172	800025b8	ff359ae3	bne	x11,x19,800025ac	 x11:0xfffffffe x19:0xfffffff8
       11745000	      1173	00000000	00000013	addi	x0,x0,0	  x0:0x00000000
       11755000	      1174	800025a8	00000013	addi	x0,x0,0	  x0:0x00000000
       11765000	      1175	800025ac	42d9c393	xori	x7,x19,1069	 x19:0xfffffff8  x7=0xfffffbd5
       11775000	      1176	800025b0	ffe58593	addi	x11,x11,-2	 x11:0xfffffffe x11=0xfffffffc
       11785000	      1177	800025b4	94a70813	addi	x16,x14,-1718	 x14:0x00000004 x16=0xfffff94e
       11795000	      1178	800025b8	ff359ae3	bne	x11,x19,800025ac	 x11:0xfffffffc x19:0xfffffff8
       11805000	      1179	00000000	00000013	addi	x0,x0,0	  x0:0x00000000
       11815000	      1180	800025a8	00000013	addi	x0,x0,0	  x0:0x00000000
       11825000	      1181	800025ac	42d9c393	xori	x7,x19,1069	 x19:0xfffffff8  x7=0xfffffbd5
       11835000	      1182	800025b0	ffe58593	addi	x11,x11,-2	 x11:0xfffffffc x11=0xfffffffa
       11845000	      1183	800025b4	94a70813	addi	x16,x14,-1718	 x14:0x00000004 x16=0xfffff94e
       11855000	      1184	800025b8	ff359ae3	bne	x11,x19,800025ac	 x11:0xfffffffa x19:0xfffffff8
       11865000	      1185	00000000	00000013	addi	x0,x0,0	  x0:0x00000000
       11875000	      1186	800025a8	00000013	addi	x0,x0,0	  x0:0x00000000
       11885000	      1187	800025ac	42d9c393	xori	x7,x19,1069	 x19:0xfffffff8  x7=0xfffffbd5
       11895000	      1188	800025b0	ffe58593	addi	x11,x11,-2	 x11:0xfffffffa x11=0xfffffff8
       11905000	      1189	800025b4	94a70813	addi	x16,x14,-1718	 x14:0x00000004 x16=0xfffff94e
       11915000	      1190	800025b8	ff359ae3	bne	x11,x19,800025ac	 x11:0xfffffff8 x19:0xfffffff8
       11925000	      1191	800025bc	01d13a33	sltu	x20,x2,x29	  x2:0xbb682508 x29:0x0000000c x20=0x00000000
       11935000	      1192	800025c0	fd8766e3	bltu	x14,x24,8000258c	 x14:0x00000004 x24:0x00000010
       11945000	      1193	00000000	00000013	addi	x0,x0,0	  x0:0x00000000
       11955000	      1194	80002588	00000013	addi	x0,x0,0	  x0:0x00000000
       11965000	      1195	8000258c	4ed76393	ori	x7,x14,1261	 x14:0x00000004  x7=0x000004ed
       11975000	      1196	80002590	01230b33	add	x22,x6,x18	  x6:0x00000000 x18:0x000003f1 x22=0x000003f1
       11985000	      1197	80002594	01f47533	and	x10,x8,x31	  x8:0x00000004 x31:0x00000000 x10=0x00000000
       11995000	      1198	80002598	00ee9b93	slli	x23,x29,0xe	 x29:0x0000000c x23=0x00030000
       12005000	      1199	8000259c	00270713	addi	x14,x14,2	 x14:0x00000004 x14=0x00000006
       12015000	      1200	800025a0	00800593	addi	x11,x0,8	  x0:0x00000000 x11=0x00000008
       12025000	      1201	800025a4	ff800993	addi	x19,x0,-8	  x0:0x00000000 x19=0xfffffff8
       12035000	      1202	800025a8	0154e233	or	x4,x9,x21	  x9:0xffffffef x21:0x34c7642c  x4=0xffffffef
       12045000	      1203	800025ac	42d9c393	xori	x7,x19,1069	 x19:0xfffffff8  x7=0xfffffbd5
       12055000	      1204	800025b0	ffe58593	addi	x11,x11,-2	 x11:0x00000008 x11=0x00000006
       12065000	      1205	800025b4	94a70813	addi	x16,x14,-1718	 x14:0x00000006 x16=0xfffff950
       12075000	      1206	800025b8	ff359ae3	bne	x11,x19,800025ac	 x11:0x00000006 x19:0xfffffff8
       12085000	      1207	00000000	00000013	addi	x0,x0,0	  x0:0x00000000
       12095000	      1208	800025a8	00000013	addi	x0,x0,0	  x0:0x00000000
       12105000	      1209	800025ac	42d9c393	xori	x7,x19,1069	 x19:0xfffffff8  x7=0xfffffbd5
       12115000	      1210	800025b0	ffe58593	addi	x11,x11,-2	 x11:0x00000006 x11=0x00000004
       12125000	      1211	800025b4	94a70813	addi	x16,x14,-1718	 x14:0x00000006 x16=0xfffff950
       12135000	      1212	800025b8	ff359ae3	bne	x11,x19,800025ac	 x11:0x00000004 x19:0xfffffff8
       12145000	      1213	00000000	00000013	addi	x0,x0,0	  x0:0x00000000
       12155000	      1214	800025a8	00000013	addi	x0,x0,0	  x0:0x00000000
       12165000	      1215	800025ac	42d9c393	xori	x7,x19,1069	 x19:0xfffffff8  x7=0xfffffbd5
       12175000	      1216	800025b0	ffe58593	addi	x11,x11,-2	 x11:0x00000004 x11=0x00000002
       12185000	      1217	800025b4	94a70813	addi	x16,x14,-1718	 x14:0x00000006 x16=0xfffff950
       12195000	      1218	800025b8	ff359ae3	bne	x11,x19,800025ac	 x11:0x00000002 x19:0xfffffff8
       12205000	      1219	00000000	00000013	addi	x0,x0,0	  x0:0x00000000
       12215000	      1220	800025a8	00000013	addi	x0,x0,0	  x0:0x00000000
       12225000	      1221	800025ac	42d9c393	xori	x7,x19,1069	 x19:0xfffffff8  x7=0xfffffbd5
       12235000	      1222	800025b0	ffe58593	addi	x11,x11,-2	 x11:0x00000002 x11=0x00000000
       12245000	      1223	800025b4	94a70813	addi	x16,x14,-1718	 x14:0x00000006 x16=0xfffff950
       12255000	      1224	800025b8	ff359ae3	bne	x11,x19,800025ac	 x11:0x00000000 x19:0xfffffff8
       12265000	      1225	00000000	00000013	addi	x0,x0,0	  x0:0x00000000
       12275000	      1226	800025a8	00000013	addi	x0,x0,0	  x0:0x00000000
       12285000	      1227	800025ac	42d9c393	xori	x7,x19,1069	 x19:0xfffffff8  x7=0xfffffbd5
       12295000	      1228	800025b0	ffe58593	addi	x11,x11,-2	 x11:0x00000000 x11=0xfffffffe
       12305000	      1229	800025b4	94a70813	addi	x16,x14,-1718	 x14:0x00000006 x16=0xfffff950
       12315000	      1230	800025b8	ff359ae3	bne	x11,x19,800025ac	 x11:0xfffffffe x19:0xfffffff8
       12325000	      1231	00000000	00000013	addi	x0,x0,0	  x0:0x00000000
       12335000	      1232	800025a8	00000013	addi	x0,x0,0	  x0:0x00000000
       12345000	      1233	800025ac	42d9c393	xori	x7,x19,1069	 x19:0xfffffff8  x7=0xfffffbd5
       12355000	      1234	800025b0	ffe58593	addi	x11,x11,-2	 x11:0xfffffffe x11=0xfffffffc
       12365000	      1235	800025b4	94a70813	addi	x16,x14,-1718	 x14:0x00000006 x16=0xfffff950
       12375000	      1236	800025b8	ff359ae3	bne	x11,x19,800025ac	 x11:0xfffffffc x19:0xfffffff8
       12385000	      1237	00000000	00000013	addi	x0,x0,0	  x0:0x00000000
       12395000	      1238	800025a8	00000013	addi	x0,x0,0	  x0:0x00000000
       12405000	      1239	800025ac	42d9c393	xori	x7,x19,1069	 x19:0xfffffff8  x7=0xfffffbd5
       12415000	      1240	800025b0	ffe58593	addi	x11,x11,-2	 x11:0xfffffffc x11=0xfffffffa
       12425000	      1241	800025b4	94a70813	addi	x16,x14,-1718	 x14:0x00000006 x16=0xfffff950
       12435000	      1242	800025b8	ff359ae3	bne	x11,x19,800025ac	 x11:0xfffffffa x19:0xfffffff8
       12445000	      1243	00000000	00000013	addi	x0,x0,0	  x0:0x00000000
       12455000	      1244	800025a8	00000013	addi	x0,x0,0	  x0:0x00000000
       12465000	      1245	800025ac	42d9c393	xori	x7,x19,1069	 x19:0xfffffff8  x7=0xfffffbd5
       12475000	      1246	800025b0	ffe58593	addi	x11,x11,-2	 x11:0xfffffffa x11=0xfffffff8
       12485000	      1247	800025b4	94a70813	addi	x16,x14,-1718	 x14:0x00000006 x16=0xfffff950
       12495000	      1248	800025b8	ff359ae3	bne	x11,x19,800025ac	 x11:0xfffffff8 x19:0xfffffff8
       12505000	      1249	800025bc	01d13a33	sltu	x20,x2,x29	  x2:0xbb682508 x29:0x0000000c x20=0x00000000
       12515000	      1250	800025c0	fd8766e3	bltu	x14,x24,8000258c	 x14:0x00000006 x24:0x00000010
       12525000	      1251	00000000	00000013	addi	x0,x0,0	  x0:0x00000000
       12535000	      1252	80002588	00000013	addi	x0,x0,0	  x0:0x00000000
       12545000	      1253	8000258c	4ed76393	ori	x7,x14,1261	 x14:0x00000006  x7=0x000004ef
       12555000	      1254	80002590	01230b33	add	x22,x6,x18	  x6:0x00000000 x18:0x000003f1 x22=0x000003f1
       12565000	      1255	80002594	01f47533	and	x10,x8,x31	  x8:0x00000004 x31:0x00000000 x10=0x00000000
       12575000	      1256	80002598	00ee9b93	slli	x23,x29,0xe	 x29:0x0000000c x23=0x00030000
       12585000	      1257	8000259c	00270713	addi	x14,x14,2	 x14:0x00000006 x14=0x00000008
       12595000	      1258	800025a0	00800593	addi	x11,x0,8	  x0:0x00000000 x11=0x00000008
       12605000	      1259	800025a4	ff800993	addi	x19,x0,-8	  x0:0x00000000 x19=0xfffffff8
       12615000	      1260	800025a8	0154e233	or	x4,x9,x21	  x9:0xffffffef x21:0x34c7642c  x4=0xffffffef
       12625000	      1261	800025ac	42d9c393	xori	x7,x19,1069	 x19:0xfffffff8  x7=0xfffffbd5
       12635000	      1262	800025b0	ffe58593	addi	x11,x11,-2	 x11:0x00000008 x11=0x00000006
       12645000	      1263	800025b4	94a70813	addi	x16,x14,-1718	 x14:0x00000008 x16=0xfffff952
       12655000	      1264	800025b8	ff359ae3	bne	x11,x19,800025ac	 x11:0x00000006 x19:0xfffffff8
       12665000	      1265	00000000	00000013	addi	x0,x0,0	  x0:0x00000000
       12675000	      1266	800025a8	00000013	addi	x0,x0,0	  x0:0x00000000
       12685000	      1267	800025ac	42d9c393	xori	x7,x19,1069	 x19:0xfffffff8  x7=0xfffffbd5
       12695000	      1268	800025b0	ffe58593	addi	x11,x11,-2	 x11:0x00000006 x11=0x00000004
       12705000	      1269	800025b4	94a70813	addi	x16,x14,-1718	 x14:0x00000008 x16=0xfffff952
       12715000	      1270	800025b8	ff359ae3	bne	x11,x19,800025ac	 x11:0x00000004 x19:0xfffffff8
       12725000	      1271	00000000	00000013	addi	x0,x0,0	  x0:0x00000000
       12735000	      1272	800025a8	00000013	addi	x0,x0,0	  x0:0x00000000
       12745000	      1273	800025ac	42d9c393	xori	x7,x19,1069	 x19:0xfffffff8  x7=0xfffffbd5
       12755000	      1274	800025b0	ffe58593	addi	x11,x11,-2	 x11:0x00000004 x11=0x00000002
       12765000	      1275	800025b4	94a70813	addi	x16,x14,-1718	 x14:0x00000008 x16=0xfffff952
       12775000	      1276	800025b8	ff359ae3	bne	x11,x19,800025ac	 x11:0x00000002 x19:0xfffffff8
       12785000	      1277	00000000	00000013	addi	x0,x0,0	  x0:0x00000000
       12795000	      1278	800025a8	00000013	addi	x0,x0,0	  x0:0x00000000
       12805000	      1279	800025ac	42d9c393	xori	x7,x19,1069	 x19:0xfffffff8  x7=0xfffffbd5
       12815000	      1280	800025b0	ffe58593	addi	x11,x11,-2	 x11:0x00000002 x11=0x00000000
       12825000	      1281	800025b4	94a70813	addi	x16,x14,-1718	 x14:0x00000008 x16=0xfffff952
       12835000	      1282	800025b8	ff359ae3	bne	x11,x19,800025ac	 x11:0x00000000 x19:0xfffffff8
       12845000	      1283	00000000	00000013	addi	x0,x0,0	  x0:0x00000000
       12855000	      1284	800025a8	00000013	addi	x0,x0,0	  x0:0x00000000
       12865000	      1285	800025ac	42d9c393	xori	x7,x19,1069	 x19:0xfffffff8  x7=0xfffffbd5
       12875000	      1286	800025b0	ffe58593	addi	x11,x11,-2	 x11:0x00000000 x11=0xfffffffe
       12885000	      1287	800025b4	94a70813	addi	x16,x14,-1718	 x14:0x00000008 x16=0xfffff952
       12895000	      1288	800025b8	ff359ae3	bne	x11,x19,800025ac	 x11:0xfffffffe x19:0xfffffff8
       12905000	      1289	00000000	00000013	addi	x0,x0,0	  x0:0x00000000
       12915000	      1290	800025a8	00000013	addi	x0,x0,0	  x0:0x00000000
       12925000	      1291	800025ac	42d9c393	xori	x7,x19,1069	 x19:0xfffffff8  x7=0xfffffbd5
       12935000	      1292	800025b0	ffe58593	addi	x11,x11,-2	 x11:0xfffffffe x11=0xfffffffc
       12945000	      1293	800025b4	94a70813	addi	x16,x14,-1718	 x14:0x00000008 x16=0xfffff952
       12955000	      1294	800025b8	ff359ae3	bne	x11,x19,800025ac	 x11:0xfffffffc x19:0xfffffff8
       12965000	      1295	00000000	00000013	addi	x0,x0,0	  x0:0x00000000
       12975000	      1296	800025a8	00000013	addi	x0,x0,0	  x0:0x00000000
       12985000	      1297	800025ac	42d9c393	xori	x7,x19,1069	 x19:0xfffffff8  x7=0xfffffbd5
       12995000	      1298	800025b0	ffe58593	addi	x11,x11,-2	 x11:0xfffffffc x11=0xfffffffa
       13005000	      1299	800025b4	94a70813	addi	x16,x14,-1718	 x14:0x00000008 x16=0xfffff952
       13015000	      1300	800025b8	ff359ae3	bne	x11,x19,800025ac	 x11:0xfffffffa x19:0xfffffff8
       13025000	      1301	00000000	00000013	addi	x0,x0,0	  x0:0x00000000
       13035000	      1302	800025a8	00000013	addi	x0,x0,0	  x0:0x00000000
       13045000	      1303	800025ac	42d9c393	xori	x7,x19,1069	 x19:0xfffffff8  x7=0xfffffbd5
       13055000	      1304	800025b0	ffe58593	addi	x11,x11,-2	 x11:0xfffffffa x11=0xfffffff8
       13065000	      1305	800025b4	94a70813	addi	x16,x14,-1718	 x14:0x00000008 x16=0xfffff952
       13075000	      1306	800025b8	ff359ae3	bne	x11,x19,800025ac	 x11:0xfffffff8 x19:0xfffffff8
       13085000	      1307	800025bc	01d13a33	sltu	x20,x2,x29	  x2:0xbb682508 x29:0x0000000c x20=0x00000000
       13095000	      1308	800025c0	fd8766e3	bltu	x14,x24,8000258c	 x14:0x00000008 x24:0x00000010
       13105000	      1309	00000000	00000013	addi	x0,x0,0	  x0:0x00000000
       13115000	      1310	80002588	00000013	addi	x0,x0,0	  x0:0x00000000
       13125000	      1311	8000258c	4ed76393	ori	x7,x14,1261	 x14:0x00000008  x7=0x000004ed
       13135000	      1312	80002590	01230b33	add	x22,x6,x18	  x6:0x00000000 x18:0x000003f1 x22=0x000003f1
       13145000	      1313	80002594	01f47533	and	x10,x8,x31	  x8:0x00000004 x31:0x00000000 x10=0x00000000
       13155000	      1314	80002598	00ee9b93	slli	x23,x29,0xe	 x29:0x0000000c x23=0x00030000
       13165000	      1315	8000259c	00270713	addi	x14,x14,2	 x14:0x00000008 x14=0x0000000a
       13175000	      1316	800025a0	00800593	addi	x11,x0,8	  x0:0x00000000 x11=0x00000008
       13185000	      1317	800025a4	ff800993	addi	x19,x0,-8	  x0:0x00000000 x19=0xfffffff8
       13195000	      1318	800025a8	0154e233	or	x4,x9,x21	  x9:0xffffffef x21:0x34c7642c  x4=0xffffffef
       13205000	      1319	800025ac	42d9c393	xori	x7,x19,1069	 x19:0xfffffff8  x7=0xfffffbd5
       13215000	      1320	800025b0	ffe58593	addi	x11,x11,-2	 x11:0x00000008 x11=0x00000006
       13225000	      1321	800025b4	94a70813	addi	x16,x14,-1718	 x14:0x0000000a x16=0xfffff954
       13235000	      1322	800025b8	ff359ae3	bne	x11,x19,800025ac	 x11:0x00000006 x19:0xfffffff8
       13245000	      1323	00000000	00000013	addi	x0,x0,0	  x0:0x00000000
       13255000	      1324	800025a8	00000013	addi	x0,x0,0	  x0:0x00000000
       13265000	      1325	800025ac	42d9c393	xori	x7,x19,1069	 x19:0xfffffff8  x7=0xfffffbd5
       13275000	      1326	800025b0	ffe58593	addi	x11,x11,-2	 x11:0x00000006 x11=0x00000004
       13285000	      1327	800025b4	94a70813	addi	x16,x14,-1718	 x14:0x0000000a x16=0xfffff954
       13295000	      1328	800025b8	ff359ae3	bne	x11,x19,800025ac	 x11:0x00000004 x19:0xfffffff8
       13305000	      1329	00000000	00000013	addi	x0,x0,0	  x0:0x00000000
       13315000	      1330	800025a8	00000013	addi	x0,x0,0	  x0:0x00000000
       13325000	      1331	800025ac	42d9c393	xori	x7,x19,1069	 x19:0xfffffff8  x7=0xfffffbd5
       13335000	      1332	800025b0	ffe58593	addi	x11,x11,-2	 x11:0x00000004 x11=0x00000002
       13345000	      1333	800025b4	94a70813	addi	x16,x14,-1718	 x14:0x0000000a x16=0xfffff954
       13355000	      1334	800025b8	ff359ae3	bne	x11,x19,800025ac	 x11:0x00000002 x19:0xfffffff8
       13365000	      1335	00000000	00000013	addi	x0,x0,0	  x0:0x00000000
       13375000	      1336	800025a8	00000013	addi	x0,x0,0	  x0:0x00000000
       13385000	      1337	800025ac	42d9c393	xori	x7,x19,1069	 x19:0xfffffff8  x7=0xfffffbd5
       13395000	      1338	800025b0	ffe58593	addi	x11,x11,-2	 x11:0x00000002 x11=0x00000000
       13405000	      1339	800025b4	94a70813	addi	x16,x14,-1718	 x14:0x0000000a x16=0xfffff954
       13415000	      1340	800025b8	ff359ae3	bne	x11,x19,800025ac	 x11:0x00000000 x19:0xfffffff8
       13425000	      1341	00000000	00000013	addi	x0,x0,0	  x0:0x00000000
       13435000	      1342	800025a8	00000013	addi	x0,x0,0	  x0:0x00000000
       13445000	      1343	800025ac	42d9c393	xori	x7,x19,1069	 x19:0xfffffff8  x7=0xfffffbd5
       13455000	      1344	800025b0	ffe58593	addi	x11,x11,-2	 x11:0x00000000 x11=0xfffffffe
       13465000	      1345	800025b4	94a70813	addi	x16,x14,-1718	 x14:0x0000000a x16=0xfffff954
       13475000	      1346	800025b8	ff359ae3	bne	x11,x19,800025ac	 x11:0xfffffffe x19:0xfffffff8
       13485000	      1347	00000000	00000013	addi	x0,x0,0	  x0:0x00000000
       13495000	      1348	800025a8	00000013	addi	x0,x0,0	  x0:0x00000000
       13505000	      1349	800025ac	42d9c393	xori	x7,x19,1069	 x19:0xfffffff8  x7=0xfffffbd5
       13515000	      1350	800025b0	ffe58593	addi	x11,x11,-2	 x11:0xfffffffe x11=0xfffffffc
       13525000	      1351	800025b4	94a70813	addi	x16,x14,-1718	 x14:0x0000000a x16=0xfffff954
       13535000	      1352	800025b8	ff359ae3	bne	x11,x19,800025ac	 x11:0xfffffffc x19:0xfffffff8
       13545000	      1353	00000000	00000013	addi	x0,x0,0	  x0:0x00000000
       13555000	      1354	800025a8	00000013	addi	x0,x0,0	  x0:0x00000000
       13565000	      1355	800025ac	42d9c393	xori	x7,x19,1069	 x19:0xfffffff8  x7=0xfffffbd5
       13575000	      1356	800025b0	ffe58593	addi	x11,x11,-2	 x11:0xfffffffc x11=0xfffffffa
       13585000	      1357	800025b4	94a70813	addi	x16,x14,-1718	 x14:0x0000000a x16=0xfffff954
       13595000	      1358	800025b8	ff359ae3	bne	x11,x19,800025ac	 x11:0xfffffffa x19:0xfffffff8
       13605000	      1359	00000000	00000013	addi	x0,x0,0	  x0:0x00000000
       13615000	      1360	800025a8	00000013	addi	x0,x0,0	  x0:0x00000000
       13625000	      1361	800025ac	42d9c393	xori	x7,x19,1069	 x19:0xfffffff8  x7=0xfffffbd5
       13635000	      1362	800025b0	ffe58593	addi	x11,x11,-2	 x11:0xfffffffa x11=0xfffffff8
       13645000	      1363	800025b4	94a70813	addi	x16,x14,-1718	 x14:0x0000000a x16=0xfffff954
       13655000	      1364	800025b8	ff359ae3	bne	x11,x19,800025ac	 x11:0xfffffff8 x19:0xfffffff8
       13665000	      1365	800025bc	01d13a33	sltu	x20,x2,x29	  x2:0xbb682508 x29:0x0000000c x20=0x00000000
       13675000	      1366	800025c0	fd8766e3	bltu	x14,x24,8000258c	 x14:0x0000000a x24:0x00000010
       13685000	      1367	00000000	00000013	addi	x0,x0,0	  x0:0x00000000
       13695000	      1368	80002588	00000013	addi	x0,x0,0	  x0:0x00000000
       13705000	      1369	8000258c	4ed76393	ori	x7,x14,1261	 x14:0x0000000a  x7=0x000004ef
       13715000	      1370	80002590	01230b33	add	x22,x6,x18	  x6:0x00000000 x18:0x000003f1 x22=0x000003f1
       13725000	      1371	80002594	01f47533	and	x10,x8,x31	  x8:0x00000004 x31:0x00000000 x10=0x00000000
       13735000	      1372	80002598	00ee9b93	slli	x23,x29,0xe	 x29:0x0000000c x23=0x00030000
       13745000	      1373	8000259c	00270713	addi	x14,x14,2	 x14:0x0000000a x14=0x0000000c
       13755000	      1374	800025a0	00800593	addi	x11,x0,8	  x0:0x00000000 x11=0x00000008
       13765000	      1375	800025a4	ff800993	addi	x19,x0,-8	  x0:0x00000000 x19=0xfffffff8
       13775000	      1376	800025a8	0154e233	or	x4,x9,x21	  x9:0xffffffef x21:0x34c7642c  x4=0xffffffef
       13785000	      1377	800025ac	42d9c393	xori	x7,x19,1069	 x19:0xfffffff8  x7=0xfffffbd5
       13795000	      1378	800025b0	ffe58593	addi	x11,x11,-2	 x11:0x00000008 x11=0x00000006
       13805000	      1379	800025b4	94a70813	addi	x16,x14,-1718	 x14:0x0000000c x16=0xfffff956
       13815000	      1380	800025b8	ff359ae3	bne	x11,x19,800025ac	 x11:0x00000006 x19:0xfffffff8
       13825000	      1381	00000000	00000013	addi	x0,x0,0	  x0:0x00000000
       13835000	      1382	800025a8	00000013	addi	x0,x0,0	  x0:0x00000000
       13845000	      1383	800025ac	42d9c393	xori	x7,x19,1069	 x19:0xfffffff8  x7=0xfffffbd5
       13855000	      1384	800025b0	ffe58593	addi	x11,x11,-2	 x11:0x00000006 x11=0x00000004
       13865000	      1385	800025b4	94a70813	addi	x16,x14,-1718	 x14:0x0000000c x16=0xfffff956
       13875000	      1386	800025b8	ff359ae3	bne	x11,x19,800025ac	 x11:0x00000004 x19:0xfffffff8
       13885000	      1387	00000000	00000013	addi	x0,x0,0	  x0:0x00000000
       13895000	      1388	800025a8	00000013	addi	x0,x0,0	  x0:0x00000000
       13905000	      1389	800025ac	42d9c393	xori	x7,x19,1069	 x19:0xfffffff8  x7=0xfffffbd5
       13915000	      1390	800025b0	ffe58593	addi	x11,x11,-2	 x11:0x00000004 x11=0x00000002
       13925000	      1391	800025b4	94a70813	addi	x16,x14,-1718	 x14:0x0000000c x16=0xfffff956
       13935000	      1392	800025b8	ff359ae3	bne	x11,x19,800025ac	 x11:0x00000002 x19:0xfffffff8
       13945000	      1393	00000000	00000013	addi	x0,x0,0	  x0:0x00000000
       13955000	      1394	800025a8	00000013	addi	x0,x0,0	  x0:0x00000000
       13965000	      1395	800025ac	42d9c393	xori	x7,x19,1069	 x19:0xfffffff8  x7=0xfffffbd5
       13975000	      1396	800025b0	ffe58593	addi	x11,x11,-2	 x11:0x00000002 x11=0x00000000
       13985000	      1397	800025b4	94a70813	addi	x16,x14,-1718	 x14:0x0000000c x16=0xfffff956
       13995000	      1398	800025b8	ff359ae3	bne	x11,x19,800025ac	 x11:0x00000000 x19:0xfffffff8
       14005000	      1399	00000000	00000013	addi	x0,x0,0	  x0:0x00000000
       14015000	      1400	800025a8	00000013	addi	x0,x0,0	  x0:0x00000000
       14025000	      1401	800025ac	42d9c393	xori	x7,x19,1069	 x19:0xfffffff8  x7=0xfffffbd5
       14035000	      1402	800025b0	ffe58593	addi	x11,x11,-2	 x11:0x00000000 x11=0xfffffffe
       14045000	      1403	800025b4	94a70813	addi	x16,x14,-1718	 x14:0x0000000c x16=0xfffff956
       14055000	      1404	800025b8	ff359ae3	bne	x11,x19,800025ac	 x11:0xfffffffe x19:0xfffffff8
       14065000	      1405	00000000	00000013	addi	x0,x0,0	  x0:0x00000000
       14075000	      1406	800025a8	00000013	addi	x0,x0,0	  x0:0x00000000
       14085000	      1407	800025ac	42d9c393	xori	x7,x19,1069	 x19:0xfffffff8  x7=0xfffffbd5
       14095000	      1408	800025b0	ffe58593	addi	x11,x11,-2	 x11:0xfffffffe x11=0xfffffffc
       14105000	      1409	800025b4	94a70813	addi	x16,x14,-1718	 x14:0x0000000c x16=0xfffff956
       14115000	      1410	800025b8	ff359ae3	bne	x11,x19,800025ac	 x11:0xfffffffc x19:0xfffffff8
       14125000	      1411	00000000	00000013	addi	x0,x0,0	  x0:0x00000000
       14135000	      1412	800025a8	00000013	addi	x0,x0,0	  x0:0x00000000
       14145000	      1413	800025ac	42d9c393	xori	x7,x19,1069	 x19:0xfffffff8  x7=0xfffffbd5
       14155000	      1414	800025b0	ffe58593	addi	x11,x11,-2	 x11:0xfffffffc x11=0xfffffffa
       14165000	      1415	800025b4	94a70813	addi	x16,x14,-1718	 x14:0x0000000c x16=0xfffff956
       14175000	      1416	800025b8	ff359ae3	bne	x11,x19,800025ac	 x11:0xfffffffa x19:0xfffffff8
       14185000	      1417	00000000	00000013	addi	x0,x0,0	  x0:0x00000000
       14195000	      1418	800025a8	00000013	addi	x0,x0,0	  x0:0x00000000
       14205000	      1419	800025ac	42d9c393	xori	x7,x19,1069	 x19:0xfffffff8  x7=0xfffffbd5
       14215000	      1420	800025b0	ffe58593	addi	x11,x11,-2	 x11:0xfffffffa x11=0xfffffff8
       14225000	      1421	800025b4	94a70813	addi	x16,x14,-1718	 x14:0x0000000c x16=0xfffff956
       14235000	      1422	800025b8	ff359ae3	bne	x11,x19,800025ac	 x11:0xfffffff8 x19:0xfffffff8
       14245000	      1423	800025bc	01d13a33	sltu	x20,x2,x29	  x2:0xbb682508 x29:0x0000000c x20=0x00000000
       14255000	      1424	800025c0	fd8766e3	bltu	x14,x24,8000258c	 x14:0x0000000c x24:0x00000010
       14265000	      1425	00000000	00000013	addi	x0,x0,0	  x0:0x00000000
       14275000	      1426	80002588	00000013	addi	x0,x0,0	  x0:0x00000000
       14285000	      1427	8000258c	4ed76393	ori	x7,x14,1261	 x14:0x0000000c  x7=0x000004ed
       14295000	      1428	80002590	01230b33	add	x22,x6,x18	  x6:0x00000000 x18:0x000003f1 x22=0x000003f1
       14305000	      1429	80002594	01f47533	and	x10,x8,x31	  x8:0x00000004 x31:0x00000000 x10=0x00000000
       14315000	      1430	80002598	00ee9b93	slli	x23,x29,0xe	 x29:0x0000000c x23=0x00030000
       14325000	      1431	8000259c	00270713	addi	x14,x14,2	 x14:0x0000000c x14=0x0000000e
       14335000	      1432	800025a0	00800593	addi	x11,x0,8	  x0:0x00000000 x11=0x00000008
       14345000	      1433	800025a4	ff800993	addi	x19,x0,-8	  x0:0x00000000 x19=0xfffffff8
       14355000	      1434	800025a8	0154e233	or	x4,x9,x21	  x9:0xffffffef x21:0x34c7642c  x4=0xffffffef
       14365000	      1435	800025ac	42d9c393	xori	x7,x19,1069	 x19:0xfffffff8  x7=0xfffffbd5
       14375000	      1436	800025b0	ffe58593	addi	x11,x11,-2	 x11:0x00000008 x11=0x00000006
       14385000	      1437	800025b4	94a70813	addi	x16,x14,-1718	 x14:0x0000000e x16=0xfffff958
       14395000	      1438	800025b8	ff359ae3	bne	x11,x19,800025ac	 x11:0x00000006 x19:0xfffffff8
       14405000	      1439	00000000	00000013	addi	x0,x0,0	  x0:0x00000000
       14415000	      1440	800025a8	00000013	addi	x0,x0,0	  x0:0x00000000
       14425000	      1441	800025ac	42d9c393	xori	x7,x19,1069	 x19:0xfffffff8  x7=0xfffffbd5
       14435000	      1442	800025b0	ffe58593	addi	x11,x11,-2	 x11:0x00000006 x11=0x00000004
       14445000	      1443	800025b4	94a70813	addi	x16,x14,-1718	 x14:0x0000000e x16=0xfffff958
       14455000	      1444	800025b8	ff359ae3	bne	x11,x19,800025ac	 x11:0x00000004 x19:0xfffffff8
       14465000	      1445	00000000	00000013	addi	x0,x0,0	  x0:0x00000000
       14475000	      1446	800025a8	00000013	addi	x0,x0,0	  x0:0x00000000
       14485000	      1447	800025ac	42d9c393	xori	x7,x19,1069	 x19:0xfffffff8  x7=0xfffffbd5
       14495000	      1448	800025b0	ffe58593	addi	x11,x11,-2	 x11:0x00000004 x11=0x00000002
       14505000	      1449	800025b4	94a70813	addi	x16,x14,-1718	 x14:0x0000000e x16=0xfffff958
       14515000	      1450	800025b8	ff359ae3	bne	x11,x19,800025ac	 x11:0x00000002 x19:0xfffffff8
       14525000	      1451	00000000	00000013	addi	x0,x0,0	  x0:0x00000000
       14535000	      1452	800025a8	00000013	addi	x0,x0,0	  x0:0x00000000
       14545000	      1453	800025ac	42d9c393	xori	x7,x19,1069	 x19:0xfffffff8  x7=0xfffffbd5
       14555000	      1454	800025b0	ffe58593	addi	x11,x11,-2	 x11:0x00000002 x11=0x00000000
       14565000	      1455	800025b4	94a70813	addi	x16,x14,-1718	 x14:0x0000000e x16=0xfffff958
       14575000	      1456	800025b8	ff359ae3	bne	x11,x19,800025ac	 x11:0x00000000 x19:0xfffffff8
       14585000	      1457	00000000	00000013	addi	x0,x0,0	  x0:0x00000000
       14595000	      1458	800025a8	00000013	addi	x0,x0,0	  x0:0x00000000
       14605000	      1459	800025ac	42d9c393	xori	x7,x19,1069	 x19:0xfffffff8  x7=0xfffffbd5
       14615000	      1460	800025b0	ffe58593	addi	x11,x11,-2	 x11:0x00000000 x11=0xfffffffe
       14625000	      1461	800025b4	94a70813	addi	x16,x14,-1718	 x14:0x0000000e x16=0xfffff958
       14635000	      1462	800025b8	ff359ae3	bne	x11,x19,800025ac	 x11:0xfffffffe x19:0xfffffff8
       14645000	      1463	00000000	00000013	addi	x0,x0,0	  x0:0x00000000
       14655000	      1464	800025a8	00000013	addi	x0,x0,0	  x0:0x00000000
       14665000	      1465	800025ac	42d9c393	xori	x7,x19,1069	 x19:0xfffffff8  x7=0xfffffbd5
       14675000	      1466	800025b0	ffe58593	addi	x11,x11,-2	 x11:0xfffffffe x11=0xfffffffc
       14685000	      1467	800025b4	94a70813	addi	x16,x14,-1718	 x14:0x0000000e x16=0xfffff958
       14695000	      1468	800025b8	ff359ae3	bne	x11,x19,800025ac	 x11:0xfffffffc x19:0xfffffff8
       14705000	      1469	00000000	00000013	addi	x0,x0,0	  x0:0x00000000
       14715000	      1470	800025a8	00000013	addi	x0,x0,0	  x0:0x00000000
       14725000	      1471	800025ac	42d9c393	xori	x7,x19,1069	 x19:0xfffffff8  x7=0xfffffbd5
       14735000	      1472	800025b0	ffe58593	addi	x11,x11,-2	 x11:0xfffffffc x11=0xfffffffa
       14745000	      1473	800025b4	94a70813	addi	x16,x14,-1718	 x14:0x0000000e x16=0xfffff958
       14755000	      1474	800025b8	ff359ae3	bne	x11,x19,800025ac	 x11:0xfffffffa x19:0xfffffff8
       14765000	      1475	00000000	00000013	addi	x0,x0,0	  x0:0x00000000
       14775000	      1476	800025a8	00000013	addi	x0,x0,0	  x0:0x00000000
       14785000	      1477	800025ac	42d9c393	xori	x7,x19,1069	 x19:0xfffffff8  x7=0xfffffbd5
       14795000	      1478	800025b0	ffe58593	addi	x11,x11,-2	 x11:0xfffffffa x11=0xfffffff8
       14805000	      1479	800025b4	94a70813	addi	x16,x14,-1718	 x14:0x0000000e x16=0xfffff958
       14815000	      1480	800025b8	ff359ae3	bne	x11,x19,800025ac	 x11:0xfffffff8 x19:0xfffffff8
       14825000	      1481	800025bc	01d13a33	sltu	x20,x2,x29	  x2:0xbb682508 x29:0x0000000c x20=0x00000000
       14835000	      1482	800025c0	fd8766e3	bltu	x14,x24,8000258c	 x14:0x0000000e x24:0x00000010
       14845000	      1483	00000000	00000013	addi	x0,x0,0	  x0:0x00000000
       14855000	      1484	80002588	00000013	addi	x0,x0,0	  x0:0x00000000
       14865000	      1485	8000258c	4ed76393	ori	x7,x14,1261	 x14:0x0000000e  x7=0x000004ef
       14875000	      1486	80002590	01230b33	add	x22,x6,x18	  x6:0x00000000 x18:0x000003f1 x22=0x000003f1
       14885000	      1487	80002594	01f47533	and	x10,x8,x31	  x8:0x00000004 x31:0x00000000 x10=0x00000000
       14895000	      1488	80002598	00ee9b93	slli	x23,x29,0xe	 x29:0x0000000c x23=0x00030000
       14905000	      1489	8000259c	00270713	addi	x14,x14,2	 x14:0x0000000e x14=0x00000010
       14915000	      1490	800025a0	00800593	addi	x11,x0,8	  x0:0x00000000 x11=0x00000008
       14925000	      1491	800025a4	ff800993	addi	x19,x0,-8	  x0:0x00000000 x19=0xfffffff8
       14935000	      1492	800025a8	0154e233	or	x4,x9,x21	  x9:0xffffffef x21:0x34c7642c  x4=0xffffffef
       14945000	      1493	800025ac	42d9c393	xori	x7,x19,1069	 x19:0xfffffff8  x7=0xfffffbd5
       14955000	      1494	800025b0	ffe58593	addi	x11,x11,-2	 x11:0x00000008 x11=0x00000006
       14965000	      1495	800025b4	94a70813	addi	x16,x14,-1718	 x14:0x00000010 x16=0xfffff95a
       14975000	      1496	800025b8	ff359ae3	bne	x11,x19,800025ac	 x11:0x00000006 x19:0xfffffff8
       14985000	      1497	00000000	00000013	addi	x0,x0,0	  x0:0x00000000
       14995000	      1498	800025a8	00000013	addi	x0,x0,0	  x0:0x00000000
       15005000	      1499	800025ac	42d9c393	xori	x7,x19,1069	 x19:0xfffffff8  x7=0xfffffbd5
       15015000	      1500	800025b0	ffe58593	addi	x11,x11,-2	 x11:0x00000006 x11=0x00000004
       15025000	      1501	800025b4	94a70813	addi	x16,x14,-1718	 x14:0x00000010 x16=0xfffff95a
       15035000	      1502	800025b8	ff359ae3	bne	x11,x19,800025ac	 x11:0x00000004 x19:0xfffffff8
       15045000	      1503	00000000	00000013	addi	x0,x0,0	  x0:0x00000000
       15055000	      1504	800025a8	00000013	addi	x0,x0,0	  x0:0x00000000
       15065000	      1505	800025ac	42d9c393	xori	x7,x19,1069	 x19:0xfffffff8  x7=0xfffffbd5
       15075000	      1506	800025b0	ffe58593	addi	x11,x11,-2	 x11:0x00000004 x11=0x00000002
       15085000	      1507	800025b4	94a70813	addi	x16,x14,-1718	 x14:0x00000010 x16=0xfffff95a
       15095000	      1508	800025b8	ff359ae3	bne	x11,x19,800025ac	 x11:0x00000002 x19:0xfffffff8
       15105000	      1509	00000000	00000013	addi	x0,x0,0	  x0:0x00000000
       15115000	      1510	800025a8	00000013	addi	x0,x0,0	  x0:0x00000000
       15125000	      1511	800025ac	42d9c393	xori	x7,x19,1069	 x19:0xfffffff8  x7=0xfffffbd5
       15135000	      1512	800025b0	ffe58593	addi	x11,x11,-2	 x11:0x00000002 x11=0x00000000
       15145000	      1513	800025b4	94a70813	addi	x16,x14,-1718	 x14:0x00000010 x16=0xfffff95a
       15155000	      1514	800025b8	ff359ae3	bne	x11,x19,800025ac	 x11:0x00000000 x19:0xfffffff8
       15165000	      1515	00000000	00000013	addi	x0,x0,0	  x0:0x00000000
       15175000	      1516	800025a8	00000013	addi	x0,x0,0	  x0:0x00000000
       15185000	      1517	800025ac	42d9c393	xori	x7,x19,1069	 x19:0xfffffff8  x7=0xfffffbd5
       15195000	      1518	800025b0	ffe58593	addi	x11,x11,-2	 x11:0x00000000 x11=0xfffffffe
       15205000	      1519	800025b4	94a70813	addi	x16,x14,-1718	 x14:0x00000010 x16=0xfffff95a
       15215000	      1520	800025b8	ff359ae3	bne	x11,x19,800025ac	 x11:0xfffffffe x19:0xfffffff8
       15225000	      1521	00000000	00000013	addi	x0,x0,0	  x0:0x00000000
       15235000	      1522	800025a8	00000013	addi	x0,x0,0	  x0:0x00000000
       15245000	      1523	800025ac	42d9c393	xori	x7,x19,1069	 x19:0xfffffff8  x7=0xfffffbd5
       15255000	      1524	800025b0	ffe58593	addi	x11,x11,-2	 x11:0xfffffffe x11=0xfffffffc
       15265000	      1525	800025b4	94a70813	addi	x16,x14,-1718	 x14:0x00000010 x16=0xfffff95a
       15275000	      1526	800025b8	ff359ae3	bne	x11,x19,800025ac	 x11:0xfffffffc x19:0xfffffff8
       15285000	      1527	00000000	00000013	addi	x0,x0,0	  x0:0x00000000
       15295000	      1528	800025a8	00000013	addi	x0,x0,0	  x0:0x00000000
       15305000	      1529	800025ac	42d9c393	xori	x7,x19,1069	 x19:0xfffffff8  x7=0xfffffbd5
       15315000	      1530	800025b0	ffe58593	addi	x11,x11,-2	 x11:0xfffffffc x11=0xfffffffa
       15325000	      1531	800025b4	94a70813	addi	x16,x14,-1718	 x14:0x00000010 x16=0xfffff95a
       15335000	      1532	800025b8	ff359ae3	bne	x11,x19,800025ac	 x11:0xfffffffa x19:0xfffffff8
       15345000	      1533	00000000	00000013	addi	x0,x0,0	  x0:0x00000000
       15355000	      1534	800025a8	00000013	addi	x0,x0,0	  x0:0x00000000
       15365000	      1535	800025ac	42d9c393	xori	x7,x19,1069	 x19:0xfffffff8  x7=0xfffffbd5
       15375000	      1536	800025b0	ffe58593	addi	x11,x11,-2	 x11:0xfffffffa x11=0xfffffff8
       15385000	      1537	800025b4	94a70813	addi	x16,x14,-1718	 x14:0x00000010 x16=0xfffff95a
       15395000	      1538	800025b8	ff359ae3	bne	x11,x19,800025ac	 x11:0xfffffff8 x19:0xfffffff8
       15405000	      1539	800025bc	01d13a33	sltu	x20,x2,x29	  x2:0xbb682508 x29:0x0000000c x20=0x00000000
       15415000	      1540	800025c0	fd8766e3	bltu	x14,x24,8000258c	 x14:0x00000010 x24:0x00000010
       15425000	      1541	800025c4	40e3de33	sra	x28,x7,x14	  x7:0xfffffbd5 x14:0x00000010 x28=0xffffffff
       15435000	      1542	800025c8	00000313	addi	x6,x0,0	  x0:0x00000000  x6=0x00000000
       15445000	      1543	800025cc	ff300893	addi	x17,x0,-13	  x0:0x00000000 x17=0xfffffff3
       15455000	      1544	800025d0	012e2633	slt	x12,x28,x18	 x28:0xffffffff x18:0x000003f1 x12=0x00000001
       15465000	      1545	800025d4	3e31af93	slti	x31,x3,995	  x3:0x00000000 x31=0x00000001
       15475000	      1546	800025d8	ff730313	addi	x6,x6,-9	  x6:0x00000000  x6=0xfffffff7
       15485000	      1547	800025dc	00a00993	addi	x19,x0,10	  x0:0x00000000 x19=0x0000000a
       15495000	      1548	800025e0	10bf3713	sltiu	x14,x30,267	 x30:0x80009fc4 x14=0x00000000
       15505000	      1549	800025e4	00900413	addi	x8,x0,9	  x0:0x00000000  x8=0x00000009
       15515000	      1550	800025e8	00000013	addi	x0,x0,0	  x0:0x00000000
       15525000	      1551	800025ec	004fa4b3	slt	x9,x31,x4	 x31:0x00000001  x4:0xffffffef  x9=0x00000000
       15535000	      1552	800025f0	ff898993	addi	x19,x19,-8	 x19:0x0000000a x19=0x00000002
       15545000	      1553	800025f4	fe89fae3	bgeu	x19,x8,800025e8	 x19:0x00000002  x8:0x00000009
       15555000	      1554	800025f8	fd135ee3	bge	x6,x17,800025d4	  x6:0xfffffff7 x17:0xfffffff3
       15565000	      1555	00000000	00000013	addi	x0,x0,0	  x0:0x00000000
       15575000	      1556	800025d0	00000013	addi	x0,x0,0	  x0:0x00000000
       15585000	      1557	800025d4	3e31af93	slti	x31,x3,995	  x3:0x00000000 x31=0x00000001
       15595000	      1558	800025d8	ff730313	addi	x6,x6,-9	  x6:0xfffffff7  x6=0xffffffee
       15605000	      1559	800025dc	00a00993	addi	x19,x0,10	  x0:0x00000000 x19=0x0000000a
       15615000	      1560	800025e0	10bf3713	sltiu	x14,x30,267	 x30:0x80009fc4 x14=0x00000000
       15625000	      1561	800025e4	00900413	addi	x8,x0,9	  x0:0x00000000  x8=0x00000009
       15635000	      1562	800025e8	00000013	addi	x0,x0,0	  x0:0x00000000
       15645000	      1563	800025ec	004fa4b3	slt	x9,x31,x4	 x31:0x00000001  x4:0xffffffef  x9=0x00000000
       15655000	      1564	800025f0	ff898993	addi	x19,x19,-8	 x19:0x0000000a x19=0x00000002
       15665000	      1565	800025f4	fe89fae3	bgeu	x19,x8,800025e8	 x19:0x00000002  x8:0x00000009
       15675000	      1566	800025f8	fd135ee3	bge	x6,x17,800025d4	  x6:0xffffffee x17:0xfffffff3
       15685000	      1567	800025fc	01e91833	sll	x16,x18,x30	 x18:0x000003f1 x30:0x80009fc4 x16=0x00003f10
       15695000	      1568	80002600	73e7f193	andi	x3,x15,1854	 x15:0x0000000a  x3=0x0000000a
       15705000	      1569	80002604	40a887b3	sub	x15,x17,x10	 x17:0xfffffff3 x10:0x00000000 x15=0xfffffff3
       15715000	      1570	80002608	001b1133	sll	x2,x22,x1	 x22:0x000003f1  x1:0x00000003  x2=0x00001f88
       15725000	      1571	8000260c	01109893	slli	x17,x1,0x11	  x1:0x00000003 x17=0x00060000
       15735000	      1572	80002610	413fdd13	srai	x26,x31,0x13	 x31:0x00000001 x26=0x00000000
       15745000	      1573	80002614	990078b7	lui	x17,0x99007	 x17=0x99007000
       15755000	      1574	80002618	004f17b3	sll	x15,x30,x4	 x30:0x80009fc4  x4:0xffffffef x15=0x4fe20000
       15765000	      1575	8000261c	8e8bef93	ori	x31,x23,-1816	 x23:0x00030000 x31=0xfffff8e8
       15775000	      1576	80002620	0c2db093	sltiu	x1,x27,194	 x27:0x80009ee0  x1=0x00000000
       15785000	      1577	80002624	00000013	addi	x0,x0,0	  x0:0x00000000
       15795000	      1578	80002628	01ddb7b3	sltu	x15,x27,x29	 x27:0x80009ee0 x29:0x0000000c x15=0x00000000
       15805000	      1579	8000262c	01c142b3	xor	x5,x2,x28	  x2:0x00001f88 x28:0xffffffff  x5=0xffffe077
       15815000	      1580	80002630	01ea5313	srli	x6,x20,0x1e	 x20:0x00000000  x6=0x00000000
       15825000	      1581	80002634	8a126993	ori	x19,x4,-1887	  x4:0xffffffef x19=0xffffffef
       15835000	      1582	80002638	00079993	slli	x19,x15,0x0	 x15:0x00000000 x19=0x00000000
       15845000	      1583	8000263c	0341ea63	bltu	x3,x20,80002670	  x3:0x0000000a x20:0x00000000
       15855000	      1584	80002640	01a4ec63	bltu	x9,x26,80002658	  x9:0x00000000 x26:0x00000000
       15865000	      1585	80002644	75afb737	lui	x14,0x75afb	 x14=0x75afb000
       15875000	      1586	80002648	76d1fe93	andi	x29,x3,1901	  x3:0x0000000a x29=0x00000008
       15885000	      1587	8000264c	abe2fb93	andi	x23,x5,-1346	  x5:0xffffe077 x23=0xffffe036
       15895000	      1588	80002650	a978a513	slti	x10,x17,-1385	 x17:0x99007000 x10=0x00000001
       15905000	      1589	80002654	04874063	blt	x14,x8,80002694	 x14:0x75afb000  x8:0x00000009
       15915000	      1590	80002658	006a4463	blt	x20,x6,80002660	 x20:0x00000000  x6:0x00000000
       15925000	      1591	8000265c	01329863	bne	x5,x19,8000266c	  x5:0xffffe077 x19:0x00000000
       15935000	      1592	00000000	00000013	addi	x0,x0,0	  x0:0x00000000
       15945000	      1593	80002668	00000013	addi	x0,x0,0	  x0:0x00000000
       15955000	      1594	8000266c	0186f133	and	x2,x13,x24	 x13:0x0000000f x24:0x00000010  x2=0x00000000
       15965000	      1595	80002670	01d05e33	srl	x28,x0,x29	  x0:0x00000000 x29:0x00000008 x28=0x00000000
       15975000	      1596	80002674	00478433	add	x8,x15,x4	 x15:0x00000000  x4:0xffffffef  x8=0xffffffef
       15985000	      1597	80002678	000e1d33	sll	x26,x28,x0	 x28:0x00000000  x0:0x00000000 x26=0x00000000
       15995000	      1598	8000267c	95c12713	slti	x14,x2,-1700	  x2:0x00000000 x14=0x00000000
       16005000	      1599	80002680	0cbe7913	andi	x18,x28,203	 x28:0x00000000 x18=0x00000000
       16015000	      1600	80002684	00bd9663	bne	x27,x11,80002690	 x27:0x80009ee0 x11:0xfffffff8
       16025000	      1601	00000000	00000013	addi	x0,x0,0	  x0:0x00000000
       16035000	      1602	8000268c	00000013	addi	x0,x0,0	  x0:0x00000000
       16045000	      1603	80002690	491d2ab7	lui	x21,0x491d2	 x21=0x491d2000
       16055000	      1604	80002694	48e7f893	andi	x17,x15,1166	 x15:0x00000000 x17=0x00000000
       16065000	      1605	80002698	00516fb3	or	x31,x2,x5	  x2:0x00000000  x5:0xffffe077 x31=0xffffe077
       16075000	      1606	8000269c	00e0f433	and	x8,x1,x14	  x1:0x00000000 x14:0x00000000  x8=0x00000000
       16085000	      1607	800026a0	0b24e313	ori	x6,x9,178	  x9:0x00000000  x6=0x000000b2
       16095000	      1608	800026a4	412789b3	sub	x19,x15,x18	 x15:0x00000000 x18:0x00000000 x19=0x00000000
       16105000	      1609	800026a8	00109013	slli	x0,x1,0x1	  x1:0x00000000
       16115000	      1610	800026ac	430c8637	lui	x12,0x430c8	 x12=0x430c8000
       16125000	      1611	800026b0	600a6013	ori	x0,x20,1536	 x20:0x00000000
       16135000	      1612	800026b4	00000013	addi	x0,x0,0	  x0:0x00000000
       16145000	      1613	800026b8	00000013	addi	x0,x0,0	  x0:0x00000000
       16155000	      1614	800026bc	fbbe7413	andi	x8,x28,-69	 x28:0x00000000  x8=0x00000000
       16165000	      1615	800026c0	1e994913	xori	x18,x18,489	 x18:0x00000000 x18=0x000001e9
       16175000	      1616	800026c4	b0034093	xori	x1,x6,-1280	  x6:0x000000b2  x1=0xfffffbb2
       16185000	      1617	800026c8	417e5b13	srai	x22,x28,0x17	 x28:0x00000000 x22=0x00000000
       16195000	      1618	800026cc	03d57c63	bgeu	x10,x29,80002704	 x10:0x00000001 x29:0x00000008
       16205000	      1619	800026d0	40b25033	sra	x0,x4,x11	  x4:0xffffffef x11:0xfffffff8
       16215000	      1620	800026d4	00c4a233	slt	x4,x9,x12	  x9:0x00000000 x12:0x430c8000  x4=0x00000001
       16225000	      1621	800026d8	a824bf93	sltiu	x31,x9,-1406	  x9:0x00000000 x31=0x00000001
       16235000	      1622	800026dc	03797863	bgeu	x18,x23,8000270c	 x18:0x000001e9 x23:0xffffe036
       16245000	      1623	800026e0	019cc133	xor	x2,x25,x25	 x25:0xffffffff x25:0xffffffff  x2=0x00000000
       16255000	      1624	800026e4	0079ad33	slt	x26,x19,x7	 x19:0x00000000  x7:0xfffffbd5 x26=0x00000000
       16265000	      1625	800026e8	00d71813	slli	x16,x14,0xd	 x14:0x00000000 x16=0x00000000
       16275000	      1626	800026ec	b3d6a413	slti	x8,x13,-1219	 x13:0x0000000f  x8=0x00000000
       16285000	      1627	800026f0	a032c213	xori	x4,x5,-1533	  x5:0xffffe077  x4=0x00001a74
       16295000	      1628	800026f4	cc5c7a93	andi	x21,x24,-827	 x24:0x00000010 x21=0x00000000
       16305000	      1629	800026f8	05c1e863	bltu	x3,x28,80002748	  x3:0x0000000a x28:0x00000000
       16315000	      1630	800026fc	41f6da93	srai	x21,x13,0x1f	 x13:0x0000000f x21=0x00000000
       16325000	      1631	80002700	01f2f533	and	x10,x5,x31	  x5:0xffffe077 x31:0x00000001 x10=0x00000001
       16335000	      1632	80002704	a91db993	sltiu	x19,x27,-1391	 x27:0x80009ee0 x19=0x00000001
       16345000	      1633	80002708	c0137b93	andi	x23,x6,-1023	  x6:0x000000b2 x23=0x00000000
       16355000	      1634	8000270c	05f81663	bne	x16,x31,80002758	 x16:0x00000000 x31:0x00000001
       16365000	      1635	00000000	00000013	addi	x0,x0,0	  x0:0x00000000
       16375000	      1636	80002754	00000013	addi	x0,x0,0	  x0:0x00000000
       16385000	      1637	80002758	01e5cc63	blt	x11,x30,80002770	 x11:0xfffffff8 x30:0x80009fc4
       16395000	      1638	8000275c	00db7333	and	x6,x22,x13	 x22:0x00000000 x13:0x0000000f  x6=0x00000000
       16405000	      1639	80002760	bd17e393	ori	x7,x15,-1071	 x15:0x00000000  x7=0xfffffbd1
       16415000	      1640	80002764	00db1493	slli	x9,x22,0xd	 x22:0x00000000  x9=0x00000000
       16425000	      1641	80002768	a98a7113	andi	x2,x20,-1384	 x20:0x00000000  x2=0x00000000
       16435000	      1642	8000276c	0146e9b3	or	x19,x13,x20	 x13:0x0000000f x20:0x00000000 x19=0x0000000f
       16445000	      1643	80002770	40ded7b3	sra	x15,x29,x13	 x29:0x00000008 x13:0x0000000f x15=0x00000000
       16455000	      1644	80002774	01dc20b3	slt	x1,x24,x29	 x24:0x00000010 x29:0x00000008  x1=0x00000000
       16465000	      1645	80002778	1926b797	auipc	x15,0x1926b	 x15=0x9926d774
       16475000	      1646	8000277c	02a99863	bne	x19,x10,800027ac	 x19:0x0000000f x10:0x00000001
       16485000	      1647	00000000	00000013	addi	x0,x0,0	  x0:0x00000000
       16495000	      1648	800027a8	00000013	addi	x0,x0,0	  x0:0x00000000
       16505000	      1649	800027ac	db362e93	slti	x29,x12,-589	 x12:0x430c8000 x29=0x00000000
       16515000	      1650	800027b0	406f5c33	sra	x24,x30,x6	 x30:0x80009fc4  x6:0x00000000 x24=0x80009fc4
       16525000	      1651	800027b4	4106dc93	srai	x25,x13,0x10	 x13:0x0000000f x25=0x00000000
       16535000	      1652	800027b8	0140e033	or	x0,x1,x20	  x1:0x00000000 x20:0x00000000
       16545000	      1653	800027bc	740e4a13	xori	x20,x28,1856	 x28:0x00000000 x20=0x00000740
       16555000	      1654	800027c0	014d07b3	add	x15,x26,x20	 x26:0x00000000 x20:0x00000740 x15=0x00000740
       16565000	      1655	800027c4	41005193	srai	x3,x0,0x10	  x0:0x00000000  x3=0x00000000
       16575000	      1656	800027c8	014f1313	slli	x6,x30,0x14	 x30:0x80009fc4  x6=0xfc400000
       16585000	      1657	800027cc	acf23e37	lui	x28,0xacf23	 x28=0xacf23000
       16595000	      1658	800027d0	da3f7713	andi	x14,x30,-605	 x30:0x80009fc4 x14=0x80009d80
       16605000	      1659	800027d4	00d7f133	and	x2,x15,x13	 x15:0x00000740 x13:0x0000000f  x2=0x00000000
       16615000	      1660	800027d8	a7f0b113	sltiu	x2,x1,-1409	  x1:0x00000000  x2=0x00000001
       16625000	      1661	800027dc	00000013	addi	x0,x0,0	  x0:0x00000000
       16635000	      1662	800027e0	00c1c333	xor	x6,x3,x12	  x3:0x00000000 x12:0x430c8000  x6=0x430c8000
       16645000	      1663	800027e4	01a56b33	or	x22,x10,x26	 x10:0x00000001 x26:0x00000000 x22=0x00000001
       16655000	      1664	800027e8	01bce533	or	x10,x25,x27	 x25:0x00000000 x27:0x80009ee0 x10=0x80009ee0
       16665000	      1665	800027ec	faaa6093	ori	x1,x20,-86	 x20:0x00000740  x1=0xffffffea
       16675000	      1666	800027f0	a3ed3813	sltiu	x16,x26,-1474	 x26:0x00000000 x16=0x00000001
       16685000	      1667	800027f4	00c48e63	beq	x9,x12,80002810	  x9:0x00000000 x12:0x430c8000
       16695000	      1668	800027f8	013d9813	slli	x16,x27,0x13	 x27:0x80009ee0 x16=0xf7000000
       16705000	      1669	800027fc	41b40b33	sub	x22,x8,x27	  x8:0x00000000 x27:0x80009ee0 x22=0x7fff6120
       16715000	      1670	80002800	00d1ca63	blt	x3,x13,80002814	  x3:0x00000000 x13:0x0000000f
       16725000	      1671	00000000	00000013	addi	x0,x0,0	  x0:0x00000000
       16735000	      1672	80002810	00000013	addi	x0,x0,0	  x0:0x00000000
       16745000	      1673	80002814	06748863	beq	x9,x7,80002884	  x9:0x00000000  x7:0xfffffbd1
       16755000	      1674	80002818	8e867213	andi	x4,x12,-1816	 x12:0x430c8000  x4=0x430c8000
       16765000	      1675	8000281c	b6baa393	slti	x7,x21,-1173	 x21:0x00000000  x7=0x00000000
       16775000	      1676	80002820	01800fb3	add	x31,x0,x24	  x0:0x00000000 x24:0x80009fc4 x31=0x80009fc4
       16785000	      1677	80002824	41fadb93	srai	x23,x21,0x1f	 x21:0x00000000 x23=0x00000000
       16795000	      1678	80002828	0128a8b3	slt	x17,x17,x18	 x17:0x00000000 x18:0x000001e9 x17=0x00000001
       16805000	      1679	8000282c	9eb63793	sltiu	x15,x12,-1557	 x12:0x430c8000 x15=0x00000001
       16815000	      1680	80002830	57a0a513	slti	x10,x1,1402	  x1:0xffffffea x10=0x00000001
       16825000	      1681	80002834	005e4933	xor	x18,x28,x5	 x28:0xacf23000  x5:0xffffe077 x18=0x530dd077
       16835000	      1682	80002838	4127d413	srai	x8,x15,0x12	 x15:0x00000001  x8=0x00000000
       16845000	      1683	8000283c	05694263	blt	x18,x22,80002880	 x18:0x530dd077 x22:0x7fff6120
       16855000	      1684	00000000	00000013	addi	x0,x0,0	  x0:0x00000000
       16865000	      1685	8000287c	00000013	addi	x0,x0,0	  x0:0x00000000
       16875000	      1686	80002880	0098f933	and	x18,x17,x9	 x17:0x00000001  x9:0x00000000 x18=0x00000000
       16885000	      1687	80002884	018169b3	or	x19,x2,x24	  x2:0x00000001 x24:0x80009fc4 x19=0x80009fc5
       16895000	      1688	80002888	23368013	addi	x0,x13,563	 x13:0x0000000f
       16905000	      1689	8000288c	0404e463	bltu	x9,x0,800028d4	  x9:0x00000000  x0:0x00000000
       16915000	      1690	80002890	3531e0b7	lui	x1,0x3531e	  x1=0x3531e000
       16925000	      1691	80002894	5d088a17	auipc	x20,0x5d088	 x20=0xdd08a890
       16935000	      1692	80002898	02251e63	bne	x10,x2,800028d4	 x10:0x00000001  x2:0x00000001
       16945000	      1693	8000289c	00dc2133	slt	x2,x24,x13	 x24:0x80009fc4 x13:0x0000000f  x2=0x00000001
       16955000	      1694	800028a0	0307fc63	bgeu	x15,x16,800028d8	 x15:0x00000001 x16:0xf7000000
       16965000	      1695	800028a4	004ef9b3	and	x19,x29,x4	 x29:0x00000000  x4:0x430c8000 x19=0x00000000
       16975000	      1696	800028a8	01601e33	sll	x28,x0,x22	  x0:0x00000000 x22:0x7fff6120 x28=0x00000000
       16985000	      1697	800028ac	dd69ae93	slti	x29,x19,-554	 x19:0x00000000 x29=0x00000000
       16995000	      1698	800028b0	00000013	addi	x0,x0,0	  x0:0x00000000
       17005000	      1699	800028b4	00eb57b3	srl	x15,x22,x14	 x22:0x7fff6120 x14:0x80009d80 x15=0x7fff6120
       17015000	      1700	800028b8	017bffb3	and	x31,x23,x23	 x23:0x00000000 x23:0x00000000 x31=0x00000000
       17025000	      1701	800028bc	00000013	addi	x0,x0,0	  x0:0x00000000
       17035000	      1702	800028c0	00000013	addi	x0,x0,0	  x0:0x00000000
       17045000	      1703	800028c4	013818b3	sll	x17,x16,x19	 x16:0xf7000000 x19:0x00000000 x17=0xf7000000
       17055000	      1704	800028c8	a6230893	addi	x17,x6,-1438	  x6:0x430c8000 x17=0x430c7a62
       17065000	      1705	800028cc	012e9513	slli	x10,x29,0x12	 x29:0x00000000 x10=0x00000000
       17075000	      1706	800028d0	407058b3	sra	x17,x0,x7	  x0:0x00000000  x7:0x00000000 x17=0x00000000
       17085000	      1707	800028d4	dd826793	ori	x15,x4,-552	  x4:0x430c8000 x15=0xfffffdd8
       17095000	      1708	800028d8	00c6bc33	sltu	x24,x13,x12	 x13:0x0000000f x12:0x430c8000 x24=0x00000001
       17105000	      1709	800028dc	047ef663	bgeu	x29,x7,80002928	 x29:0x00000000  x7:0x00000000
       17115000	      1710	00000000	00000013	addi	x0,x0,0	  x0:0x00000000
       17125000	      1711	80002924	00000013	addi	x0,x0,0	  x0:0x00000000
       17135000	      1712	80002928	009e4463	blt	x28,x9,80002930	 x28:0x00000000  x9:0x00000000
       17145000	      1713	8000292c	00fc8cb3	add	x25,x25,x15	 x25:0x00000000 x15:0xfffffdd8 x25=0xfffffdd8
       17155000	      1714	80002930	f1d73193	sltiu	x3,x14,-227	 x14:0x80009d80  x3=0x00000001
       17165000	      1715	80002934	015804b3	add	x9,x16,x21	 x16:0xf7000000 x21:0x00000000  x9=0xf7000000
       17175000	      1716	80002938	0101c3b3	xor	x7,x3,x16	  x3:0x00000001 x16:0xf7000000  x7=0xf7000001
       17185000	      1717	8000293c	0184fb33	and	x22,x9,x24	  x9:0xf7000000 x24:0x00000001 x22=0x00000000
       17195000	      1718	80002940	417bd593	srai	x11,x23,0x17	 x23:0x00000000 x11=0x00000000
       17205000	      1719	80002944	031fde63	bge	x31,x17,80002980	 x31:0x00000000 x17:0x00000000
       17215000	      1720	00000000	00000013	addi	x0,x0,0	  x0:0x00000000
       17225000	      1721	8000297c	00000013	addi	x0,x0,0	  x0:0x00000000
       17235000	      1722	80002980	01430bb3	add	x23,x6,x20	  x6:0x430c8000 x20:0xdd08a890 x23=0x20152890
       17245000	      1723	80002984	ac744193	xori	x3,x8,-1337	  x8:0x00000000  x3=0xfffffac7
       17255000	      1724	80002988	00000013	addi	x0,x0,0	  x0:0x00000000
       17265000	      1725	8000298c	01c00a63	beq	x0,x28,800029a0	  x0:0x00000000 x28:0x00000000
       17275000	      1726	00000000	00000013	addi	x0,x0,0	  x0:0x00000000
       17285000	      1727	8000299c	00000013	addi	x0,x0,0	  x0:0x00000000
       17295000	      1728	800029a0	0b10b393	sltiu	x7,x1,177	  x1:0x3531e000  x7=0x00000000
       17305000	      1729	800029a4	0221c993	xori	x19,x3,34	  x3:0xfffffac7 x19=0xfffffae5
       17315000	      1730	800029a8	e3320013	addi	x0,x4,-461	  x4:0x430c8000
       17325000	      1731	800029ac	81d8aa93	slti	x21,x17,-2019	 x17:0x00000000 x21=0x00000000
       17335000	      1732	800029b0	040c8463	beq	x25,x0,800029f8	 x25:0xfffffdd8  x0:0x00000000
       17345000	      1733	800029b4	b7d2dbb7	lui	x23,0xb7d2d	 x23=0xb7d2d000
       17355000	      1734	800029b8	00963fb3	sltu	x31,x12,x9	 x12:0x430c8000  x9:0xf7000000 x31=0x00000001
       17365000	      1735	800029bc	0213ef93	ori	x31,x7,33	  x7:0x00000000 x31=0x00000021
       17375000	      1736	800029c0	04847063	bgeu	x8,x8,80002a00	  x8:0x00000000  x8:0x00000000
       17385000	      1737	00000000	00000013	addi	x0,x0,0	  x0:0x00000000
       17395000	      1738	800029fc	00000013	addi	x0,x0,0	  x0:0x00000000
       17405000	      1739	80002a00	016c03b3	add	x7,x24,x22	 x24:0x00000001 x22:0x00000000  x7=0x00000001
       17415000	      1740	80002a04	048dc663	blt	x27,x8,80002a50	 x27:0x80009ee0  x8:0x00000000
       17425000	      1741	00000000	00000013	addi	x0,x0,0	  x0:0x00000000
       17435000	      1742	80002a4c	00000013	addi	x0,x0,0	  x0:0x00000000
       17445000	      1743	80002a50	02887c63	bgeu	x16,x8,80002a88	 x16:0xf7000000  x8:0x00000000
       17455000	      1744	00000000	00000013	addi	x0,x0,0	  x0:0x00000000
       17465000	      1745	80002a84	00000013	addi	x0,x0,0	  x0:0x00000000
       17475000	      1746	80002a88	00b04463	blt	x0,x11,80002a90	  x0:0x00000000 x11:0x00000000
       17485000	      1747	80002a8c	0000ebb3	or	x23,x1,x0	  x1:0x3531e000  x0:0x00000000 x23=0x3531e000
       17495000	      1748	80002a90	00000013	addi	x0,x0,0	  x0:0x00000000
       17505000	      1749	80002a94	030f1a63	bne	x30,x16,80002ac8	 x30:0x80009fc4 x16:0xf7000000
       17515000	      1750	00000000	00000013	addi	x0,x0,0	  x0:0x00000000
       17525000	      1751	80002ac4	00000013	addi	x0,x0,0	  x0:0x00000000
       17535000	      1752	80002ac8	019edc33	srl	x24,x29,x25	 x29:0x00000000 x25:0xfffffdd8 x24=0x00000000
       17545000	      1753	80002acc	b6642313	slti	x6,x8,-1178	  x8:0x00000000  x6=0x00000000
       17555000	      1754	80002ad0	010e5613	srli	x12,x28,0x10	 x28:0x00000000 x12=0x00000000
       17565000	      1755	80002ad4	01c6d9b3	srl	x19,x13,x28	 x13:0x0000000f x28:0x00000000 x19=0x0000000f
       17575000	      1756	80002ad8	b3b22113	slti	x2,x4,-1221	  x4:0x430c8000  x2=0x00000000
       17585000	      1757	80002adc	00024c63	blt	x4,x0,80002af4	  x4:0x430c8000  x0:0x00000000
       17595000	      1758	80002ae0	0028d9b3	srl	x19,x17,x2	 x17:0x00000000  x2:0x00000000 x19=0x00000000
       17605000	      1759	80002ae4	05395463	bge	x18,x19,80002b2c	 x18:0x00000000 x19:0x00000000
       17615000	      1760	00000000	00000013	addi	x0,x0,0	  x0:0x00000000
       17625000	      1761	80002b28	00000013	addi	x0,x0,0	  x0:0x00000000
       17635000	      1762	80002b2c	412dd513	srai	x10,x27,0x12	 x27:0x80009ee0 x10=0xffffe000
       17645000	      1763	80002b30	3d196e13	ori	x28,x18,977	 x18:0x00000000 x28=0x000003d1
       17655000	      1764	80002b34	013d6d33	or	x26,x26,x19	 x26:0x00000000 x19:0x00000000 x26=0x00000000
       17665000	      1765	80002b38	92830e13	addi	x28,x6,-1752	  x6:0x00000000 x28=0xfffff928
       17675000	      1766	80002b3c	c214c517	auipc	x10,0xc214c	 x10=0x4214eb38
       17685000	      1767	80002b40	40d15333	sra	x6,x2,x13	  x2:0x00000000 x13:0x0000000f  x6=0x00000000
       17695000	      1768	80002b44	03b98063	beq	x19,x27,80002b64	 x19:0x00000000 x27:0x80009ee0
       17705000	      1769	80002b48	6e6c3717	auipc	x14,0x6e6c3	 x14=0xee6c5b44
       17715000	      1770	80002b4c	e8add497	auipc	x9,0xe8add	  x9=0x68adfb48
       17725000	      1771	80002b50	00000013	addi	x0,x0,0	  x0:0x00000000
       17735000	      1772	80002b54	0022c633	xor	x12,x5,x2	  x5:0xffffe077  x2:0x00000000 x12=0xffffe077
       17745000	      1773	80002b58	007ffb33	and	x22,x31,x7	 x31:0x00000021  x7:0x00000001 x22=0x00000001
       17755000	      1774	80002b5c	416fd3b3	sra	x7,x31,x22	 x31:0x00000021 x22:0x00000001  x7=0x00000010
       17765000	      1775	80002b60	00000013	addi	x0,x0,0	  x0:0x00000000
       17775000	      1776	80002b64	40d15b13	srai	x22,x2,0xd	  x2:0x00000000 x22=0x00000000
       17785000	      1777	80002b68	2e893e93	sltiu	x29,x18,744	 x18:0x00000000 x29=0x00000001
       17795000	      1778	80002b6c	01580ab3	add	x21,x16,x21	 x16:0xf7000000 x21:0x00000000 x21=0xf7000000
       17805000	      1779	80002b70	00b70eb3	add	x29,x14,x11	 x14:0xee6c5b44 x11:0x00000000 x29=0xee6c5b44
       17815000	      1780	80002b74	4a117b17	auipc	x22,0x4a117	 x22=0xca119b70
       17825000	      1781	80002b78	004dad03	lw	x26,4(x27)	 x27:0x80009ee0 x26=0x80000738 PA:0x80009ee4
       17835000	      1782	80002b7c	ee5ef413	andi	x8,x29,-283	 x29:0xee6c5b44  x8=0xee6c5a44
       17845000	      1783	80002b80	024d8d93	addi	x27,x27,36	 x27:0x80009ee0 x27=0x80009f04
       17855000	      1784	80002b84	030c7593	andi	x11,x24,48	 x24:0x00000000 x11=0x00000000
       17865000	      1785	80002b88	02b72217	auipc	x4,0x2b72	  x4=0x82b74b84
       17875000	      1786	80002b8c	00000013	addi	x0,x0,0	  x0:0x00000000
       17885000	      1787	80002b90	20922413	slti	x8,x4,521	  x4:0x82b74b84  x8=0x00000001
       17895000	      1788	80002b94	402fd7b3	sra	x15,x31,x2	 x31:0x00000021  x2:0x00000000 x15=0x00000021
       17905000	      1789	80002b98	000d0913	addi	x18,x26,0	 x26:0x80000738 x18=0x80000738
       17915000	      1790	80002b9c	00090967	jalr	x18,x18,0	 x18:0x80000738 x18=0x80002b9c
       17925000	      1791	00000000	00000013	addi	x0,x0,0	  x0:0x00000000
       17935000	      1792	80000738	00000013	addi	x0,x0,0	  x0:0x00000000
       17945000	      1793	8000073c	06116863	bltu	x2,x1,800007ac	  x2:0x00000000  x1:0x3531e000
       17955000	      1794	00000000	00000013	addi	x0,x0,0	  x0:0x00000000
       17965000	      1795	800007a8	00000013	addi	x0,x0,0	  x0:0x00000000
       17975000	      1796	800007ac	00191e63	bne	x18,x1,800007c8	 x18:0x80002b9c  x1:0x3531e000
       17985000	      1797	00000000	00000013	addi	x0,x0,0	  x0:0x00000000
       17995000	      1798	800007c4	00000013	addi	x0,x0,0	  x0:0x00000000
       18005000	      1799	800007c8	4acac993	xori	x19,x21,1196	 x21:0xf7000000 x19=0xf70004ac
       18015000	      1800	800007cc	00dfda63	bge	x31,x13,800007e0	 x31:0x00000021 x13:0x0000000f
       18025000	      1801	00000000	00000013	addi	x0,x0,0	  x0:0x00000000
       18035000	      1802	800007dc	00000013	addi	x0,x0,0	  x0:0x00000000
       18045000	      1803	800007e0	41c9d5b3	sra	x11,x19,x28	 x19:0xf70004ac x28:0xfffff928 x11=0xfff70004
       18055000	      1804	800007e4	0039d263	bge	x19,x3,800007e8	 x19:0xf70004ac  x3:0xfffffac7
       18065000	      1805	800007e8	00ef61b3	or	x3,x30,x14	 x30:0x80009fc4 x14:0xee6c5b44  x3=0xee6cdfc4
       18075000	      1806	800007ec	00000013	addi	x0,x0,0	  x0:0x00000000
       18085000	      1807	800007f0	71c9b4b7	lui	x9,0x71c9b	  x9=0x71c9b000
       18095000	      1808	800007f4	002ad7b3	srl	x15,x21,x2	 x21:0xf7000000  x2:0x00000000 x15=0xf7000000
       18105000	      1809	800007f8	0342c863	blt	x5,x20,80000828	  x5:0xffffe077 x20:0xdd08a890
       18115000	      1810	800007fc	0035f463	bgeu	x11,x3,80000804	 x11:0xfff70004  x3:0xee6cdfc4
       18125000	      1811	00000000	00000013	addi	x0,x0,0	  x0:0x00000000
       18135000	      1812	80000800	00000013	addi	x0,x0,0	  x0:0x00000000
       18145000	      1813	80000804	7d847593	andi	x11,x8,2008	  x8:0x00000001 x11=0x00000000
       18155000	      1814	80000808	00d65193	srli	x3,x12,0xd	 x12:0xffffe077  x3=0x0007ffff
       18165000	      1815	8000080c	04761863	bne	x12,x7,8000085c	 x12:0xffffe077  x7:0x00000010
       18175000	      1816	00000000	00000013	addi	x0,x0,0	  x0:0x00000000
       18185000	      1817	80000858	00000013	addi	x0,x0,0	  x0:0x00000000
       18195000	      1818	8000085c	01225a13	srli	x20,x4,0x12	  x4:0x82b74b84 x20=0x000020ad
       18205000	      1819	80000860	08134293	xori	x5,x6,129	  x6:0x00000000  x5=0x00000081
       18215000	      1820	80000864	0182dbb3	srl	x23,x5,x24	  x5:0x00000081 x24:0x00000000 x23=0x00000081
       18225000	      1821	80000868	00d41b93	slli	x23,x8,0xd	  x8:0x00000001 x23=0x00002000
       18235000	      1822	8000086c	04f4c463	blt	x9,x15,800008b4	  x9:0x71c9b000 x15:0xf7000000
       18245000	      1823	80000870	01759013	slli	x0,x11,0x17	 x11:0x00000000
       18255000	      1824	80000874	a7f32a17	auipc	x20,0xa7f32	 x20=0x27f32870
       18265000	      1825	80000878	01682bb3	slt	x23,x16,x22	 x16:0xf7000000 x22:0xca119b70 x23=0x00000000
       18275000	      1826	8000087c	0324da63	bge	x9,x18,800008b0	  x9:0x71c9b000 x18:0x80002b9c
       18285000	      1827	00000000	00000013	addi	x0,x0,0	  x0:0x00000000
       18295000	      1828	800008ac	00000013	addi	x0,x0,0	  x0:0x00000000
       18305000	      1829	800008b0	006b9cb3	sll	x25,x23,x6	 x23:0x00000000  x6:0x00000000 x25=0x00000000
       18315000	      1830	800008b4	9eefc413	xori	x8,x31,-1554	 x31:0x00000021  x8=0xfffff9cf
       18325000	      1831	800008b8	01911c33	sll	x24,x2,x25	  x2:0x00000000 x25:0x00000000 x24=0x00000000
       18335000	      1832	800008bc	00498ab3	add	x21,x19,x4	 x19:0xf70004ac  x4:0x82b74b84 x21=0x79b75030
       18345000	      1833	800008c0	0100cd33	xor	x26,x1,x16	  x1:0x3531e000 x16:0xf7000000 x26=0xc231e000
       18355000	      1834	800008c4	36532593	slti	x11,x6,869	  x6:0x00000000 x11=0x00000001
       18365000	      1835	800008c8	41750a33	sub	x20,x10,x23	 x10:0x4214eb38 x23:0x00000000 x20=0x4214eb38
       18375000	      1836	800008cc	03e4f463	bgeu	x9,x30,800008f4	  x9:0x71c9b000 x30:0x80009fc4
       18385000	      1837	800008d0	005aa2b3	slt	x5,x21,x5	 x21:0x79b75030  x5:0x00000081  x5=0x00000000
       18395000	      1838	800008d4	0408f863	bgeu	x17,x0,80000924	 x17:0x00000000  x0:0x00000000
       18405000	      1839	00000000	00000013	addi	x0,x0,0	  x0:0x00000000
       18415000	      1840	80000920	00000013	addi	x0,x0,0	  x0:0x00000000
       18425000	      1841	80000924	00154cb3	xor	x25,x10,x1	 x10:0x4214eb38  x1:0x3531e000 x25=0x77250b38
       18435000	      1842	80000928	002247b3	xor	x15,x4,x2	  x4:0x82b74b84  x2:0x00000000 x15=0x82b74b84
       18445000	      1843	8000092c	01a7c733	xor	x14,x15,x26	 x15:0x82b74b84 x26:0xc231e000 x14=0x4086ab84
       18455000	      1844	80000930	9c8e6113	ori	x2,x28,-1592	 x28:0xfffff928  x2=0xfffff9e8
       18465000	      1845	80000934	00000013	addi	x0,x0,0	  x0:0x00000000
       18475000	      1846	80000938	60b7c813	xori	x16,x15,1547	 x15:0x82b74b84 x16=0x82b74d8f
       18485000	      1847	8000093c	01c208b3	add	x17,x4,x28	  x4:0x82b74b84 x28:0xfffff928 x17=0x82b744ac
       18495000	      1848	80000940	3573c5b7	lui	x11,0x3573c	 x11=0x3573c000
       18505000	      1849	80000944	00ea5493	srli	x9,x20,0xe	 x20:0x4214eb38  x9=0x00010853
       18515000	      1850	80000948	00000013	addi	x0,x0,0	  x0:0x00000000
       18525000	      1851	8000094c	01f31033	sll	x0,x6,x31	  x6:0x00000000 x31:0x00000021
       18535000	      1852	80000950	078f4063	blt	x30,x24,800009b0	 x30:0x80009fc4 x24:0x00000000
       18545000	      1853	00000000	00000013	addi	x0,x0,0	  x0:0x00000000
       18555000	      1854	800009ac	00000013	addi	x0,x0,0	  x0:0x00000000
       18565000	      1855	800009b0	0037db13	srli	x22,x15,0x3	 x15:0x82b74b84 x22=0x1056e970
       18575000	      1856	800009b4	5bca0d13	addi	x26,x20,1468	 x20:0x4214eb38 x26=0x4214f0f4
       18585000	      1857	800009b8	7a52ea97	auipc	x21,0x7a52e	 x21=0xfa52e9b4
       18595000	      1858	800009bc	01279e33	sll	x28,x15,x18	 x15:0x82b74b84 x18:0x80002b9c x28=0x40000000
       18605000	      1859	800009c0	02e28063	beq	x5,x14,800009e0	  x5:0x00000000 x14:0x4086ab84
       18615000	      1860	800009c4	40100c33	sub	x24,x0,x1	  x0:0x00000000  x1:0x3531e000 x24=0xcace2000
       18625000	      1861	800009c8	00000013	addi	x0,x0,0	  x0:0x00000000
       18635000	      1862	800009cc	35dc1eb7	lui	x29,0x35dc1	 x29=0x35dc1000
       18645000	      1863	800009d0	00d07e33	and	x28,x0,x13	  x0:0x00000000 x13:0x0000000f x28=0x00000000
       18655000	      1864	800009d4	c432e393	ori	x7,x5,-957	  x5:0x00000000  x7=0xfffffc43
       18665000	      1865	800009d8	01af7e33	and	x28,x30,x26	 x30:0x80009fc4 x26:0x4214f0f4 x28=0x000090c4
       18675000	      1866	800009dc	010d13b3	sll	x7,x26,x16	 x26:0x4214f0f4 x16:0x82b74d8f  x7=0x787a0000
       18685000	      1867	800009e0	d2964813	xori	x16,x12,-727	 x12:0xffffe077 x16=0x00001d5e
       18695000	      1868	800009e4	019dd533	srl	x10,x27,x25	 x27:0x80009f04 x25:0x77250b38 x10=0x00000080
       18705000	      1869	800009e8	01408e63	beq	x1,x20,80000a04	  x1:0x3531e000 x20:0x4214eb38
       18715000	      1870	800009ec	01902133	slt	x2,x0,x25	  x0:0x00000000 x25:0x77250b38  x2=0x00000001
       18725000	      1871	800009f0	017e1393	slli	x7,x28,0x17	 x28:0x000090c4  x7=0x62000000
       18735000	      1872	800009f4	00055f93	srli	x31,x10,0x0	 x10:0x00000080 x31=0x00000080
       18745000	      1873	800009f8	004a4863	blt	x20,x4,80000a08	 x20:0x4214eb38  x4:0x82b74b84
       18755000	      1874	800009fc	6e307993	andi	x19,x0,1763	  x0:0x00000000 x19=0x00000000
       18765000	      1875	80000a00	82336f93	ori	x31,x6,-2013	  x6:0x00000000 x31=0xfffff823
       18775000	      1876	80000a04	28f4c293	xori	x5,x9,655	  x9:0x00010853  x5=0x00010adc
       18785000	      1877	80000a08	0008d533	srl	x10,x17,x0	 x17:0x82b744ac  x0:0x00000000 x10=0x82b744ac
       18795000	      1878	80000a0c	bae78097	auipc	x1,0xbae78	  x1=0x3ae78a08
       18805000	      1879	80000a10	033de863	bltu	x27,x19,80000a40	 x27:0x80009f04 x19:0x00000000
       18815000	      1880	80000a14	99424713	xori	x14,x4,-1644	  x4:0x82b74b84 x14=0x7d48b210
       18825000	      1881	80000a18	00c8c2b3	xor	x5,x17,x12	 x17:0x82b744ac x12:0xffffe077  x5=0x7d48a4db
       18835000	      1882	80000a1c	00b433b3	sltu	x7,x8,x11	  x8:0xfffff9cf x11:0x3573c000  x7=0x00000000
       18845000	      1883	80000a20	00bd4333	xor	x6,x26,x11	 x26:0x4214f0f4 x11:0x3573c000  x6=0x776730f4
       18855000	      1884	80000a24	43766437	lui	x8,0x43766	  x8=0x43766000
       18865000	      1885	80000a28	01886d33	or	x26,x16,x24	 x16:0x00001d5e x24:0xcace2000 x26=0xcace3d5e
       18875000	      1886	80000a2c	0179c533	xor	x10,x19,x23	 x19:0x00000000 x23:0x00000000 x10=0x00000000
       18885000	      1887	80000a30	01b64e63	blt	x12,x27,80000a4c	 x12:0xffffe077 x27:0x80009f04
       18895000	      1888	80000a34	03dd0863	beq	x26,x29,80000a64	 x26:0xcace3d5e x29:0x35dc1000
       18905000	      1889	80000a38	00b72e33	slt	x28,x14,x11	 x14:0x7d48b210 x11:0x3573c000 x28=0x00000000
       18915000	      1890	80000a3c	e5bab293	sltiu	x5,x21,-421	 x21:0xfa52e9b4  x5=0x00000001
       18925000	      1891	80000a40	83a77e13	andi	x28,x14,-1990	 x14:0x7d48b210 x28=0x7d48b010
       18935000	      1892	80000a44	411ddeb3	sra	x29,x27,x17	 x27:0x80009f04 x17:0x82b744ac x29=0xfff80009
       18945000	      1893	80000a48	00000013	addi	x0,x0,0	  x0:0x00000000
       18955000	      1894	80000a4c	41aa8633	sub	x12,x21,x26	 x21:0xfa52e9b4 x26:0xcace3d5e x12=0x2f84ac56
       18965000	      1895	80000a50	0194fc63	bgeu	x9,x25,80000a68	  x9:0x00010853 x25:0x77250b38
       18975000	      1896	80000a54	01b95793	srli	x15,x18,0x1b	 x18:0x80002b9c x15=0x00000010
       18985000	      1897	80000a58	01729113	slli	x2,x5,0x17	  x5:0x00000001  x2=0x00800000
       18995000	      1898	80000a5c	00b2c3b3	xor	x7,x5,x11	  x5:0x00000001 x11:0x3573c000  x7=0x3573c001
       19005000	      1899	80000a60	01e52133	slt	x2,x10,x30	 x10:0x00000000 x30:0x80009fc4  x2=0x00000000
       19015000	      1900	80000a64	015aa3b3	slt	x7,x21,x21	 x21:0xfa52e9b4 x21:0xfa52e9b4  x7=0x00000000
       19025000	      1901	80000a68	0163ae33	slt	x28,x7,x22	  x7:0x00000000 x22:0x1056e970 x28=0x00000001
       19035000	      1902	80000a6c	0974c663	blt	x9,x23,80000af8	  x9:0x00010853 x23:0x00000000
       19045000	      1903	80000a70	ffc00413	addi	x8,x0,-4	  x0:0x00000000  x8=0xfffffffc
       19055000	      1904	80000a74	b3eaae13	slti	x28,x21,-1218	 x21:0xfa52e9b4 x28=0x00000001
       19065000	      1905	80000a78	00d00193	addi	x3,x0,13	  x0:0x00000000  x3=0x0000000d
       19075000	      1906	80000a7c	daf1dab7	lui	x21,0xdaf1d	 x21=0xdaf1d000
       19085000	      1907	80000a80	06917b93	andi	x23,x2,105	  x2:0x00000000 x23=0x00000000
       19095000	      1908	80000a84	00886d33	or	x26,x16,x8	 x16:0x00001d5e  x8:0xfffffffc x26=0xfffffffe
       19105000	      1909	80000a88	400158b3	sra	x17,x2,x0	  x2:0x00000000  x0:0x00000000 x17=0x00000000
       19115000	      1910	80000a8c	40d0d813	srai	x16,x1,0xd	  x1:0x3ae78a08 x16=0x0001d73c
       19125000	      1911	80000a90	4177d033	sra	x0,x15,x23	 x15:0x00000010 x23:0x00000000
       19135000	      1912	80000a94	01de0bb3	add	x23,x28,x29	 x28:0x00000001 x29:0xfff80009 x23=0xfff8000a
       19145000	      1913	80000a98	0f647e93	andi	x29,x8,246	  x8:0xfffffffc x29=0x000000f4
       19155000	      1914	80000a9c	af30bb13	sltiu	x22,x1,-1293	  x1:0x3ae78a08 x22=0x00000001
       19165000	      1915	80000aa0	01c39613	slli	x12,x7,0x1c	  x7:0x00000000 x12=0x00000000
       19175000	      1916	80000aa4	0107ab33	slt	x22,x15,x16	 x15:0x00000010 x16:0x0001d73c x22=0x00000001
       19185000	      1917	80000aa8	4045d8b3	sra	x17,x11,x4	 x11:0x3573c000  x4:0x82b74b84 x17=0x03573c00
       19195000	      1918	80000aac	00c57b33	and	x22,x10,x12	 x10:0x00000000 x12:0x00000000 x22=0x00000000
       19205000	      1919	80000ab0	006393b3	sll	x7,x7,x6	  x7:0x00000000  x6:0x776730f4  x7=0x00000000
       19215000	      1920	80000ab4	2143fb37	lui	x22,0x2143f	 x22=0x2143f000
       19225000	      1921	80000ab8	00240413	addi	x8,x8,2	  x8:0xfffffffc  x8=0xfffffffe
       19235000	      1922	80000abc	7142a717	auipc	x14,0x7142a	 x14=0xf142aab8
       19245000	      1923	80000ac0	0138aab3	slt	x21,x17,x19	 x17:0x03573c00 x19:0x00000000 x21=0x00000000
       19255000	      1924	80000ac4	fc3468e3	bltu	x8,x3,80000a94	  x8:0xfffffffe  x3:0x0000000d
       19265000	      1925	80000ac8	401adc13	srai	x24,x21,0x1	 x21:0x00000000 x24=0x00000000
       19275000	      1926	80000acc	41d85793	srai	x15,x16,0x1d	 x16:0x0001d73c x15=0x00000000
       19285000	      1927	80000ad0	83917213	andi	x4,x2,-1991	  x2:0x00000000  x4=0x00000000
       19295000	      1928	80000ad4	7e257837	lui	x16,0x7e257	 x16=0x7e257000
       19305000	      1929	80000ad8	05fff863	bgeu	x31,x31,80000b28	 x31:0xfffff823 x31:0xfffff823
       19315000	      1930	00000000	00000013	addi	x0,x0,0	  x0:0x00000000
       19325000	      1931	80000b24	00000013	addi	x0,x0,0	  x0:0x00000000
       19335000	      1932	80000b28	00cf0bb3	add	x23,x30,x12	 x30:0x80009fc4 x12:0x00000000 x23=0x80009fc4
       19345000	      1933	80000b2c	411389b3	sub	x19,x7,x17	  x7:0x00000000 x17:0x03573c00 x19=0xfca8c400
       19355000	      1934	80000b30	00016bb3	or	x23,x2,x0	  x2:0x00000000  x0:0x00000000 x23=0x00000000
       19365000	      1935	80000b34	01fdd2b3	srl	x5,x27,x31	 x27:0x80009f04 x31:0xfffff823  x5=0x100013e0
       19375000	      1936	80000b38	01b56433	or	x8,x10,x27	 x10:0x00000000 x27:0x80009f04  x8=0x80009f04
       19385000	      1937	80000b3c	032cc863	blt	x25,x18,80000b6c	 x25:0x77250b38 x18:0x80002b9c
       19395000	      1938	80000b40	00915813	srli	x16,x2,0x9	  x2:0x00000000 x16=0x00000000
       19405000	      1939	80000b44	cb9b8993	addi	x19,x23,-839	 x23:0x00000000 x19=0xfffffcb9
       19415000	      1940	80000b48	00dca933	slt	x18,x25,x13	 x25:0x77250b38 x13:0x0000000f x18=0x00000000
       19425000	      1941	80000b4c	04e7d863	bge	x15,x14,80000b9c	 x15:0x00000000 x14:0xf142aab8
       19435000	      1942	00000000	00000013	addi	x0,x0,0	  x0:0x00000000
       19445000	      1943	80000b98	00000013	addi	x0,x0,0	  x0:0x00000000
       19455000	      1944	80000b9c	68a83293	sltiu	x5,x16,1674	 x16:0x00000000  x5=0x00000001
       19465000	      1945	80000ba0	0059d013	srli	x0,x19,0x5	 x19:0xfffffcb9
       19475000	      1946	80000ba4	f2a93213	sltiu	x4,x18,-214	 x18:0x00000000  x4=0x00000001
       19485000	      1947	80000ba8	04925463	bge	x4,x9,80000bf0	  x4:0x00000001  x9:0x00010853
       19495000	      1948	80000bac	011f3ab3	sltu	x21,x30,x17	 x30:0x80009fc4 x17:0x03573c00 x21=0x00000000
       19505000	      1949	80000bb0	0010f833	and	x16,x1,x1	  x1:0x3ae78a08  x1:0x3ae78a08 x16=0x3ae78a08
       19515000	      1950	80000bb4	00c74833	xor	x16,x14,x12	 x14:0xf142aab8 x12:0x00000000 x16=0xf142aab8
       19525000	      1951	80000bb8	8dc2cc93	xori	x25,x5,-1828	  x5:0x00000001 x25=0xfffff8dd
       19535000	      1952	80000bbc	40bdd1b3	sra	x3,x27,x11	 x27:0x80009f04 x11:0x3573c000  x3=0x80009f04
       19545000	      1953	80000bc0	0116c263	blt	x13,x17,80000bc4	 x13:0x0000000f x17:0x03573c00
       19555000	      1954	00000000	00000013	addi	x0,x0,0	  x0:0x00000000
       19565000	      1955	80000bc0	00000013	addi	x0,x0,0	  x0:0x00000000
       19575000	      1956	80000bc4	01399463	bne	x19,x19,80000bcc	 x19:0xfffffcb9 x19:0xfffffcb9
       19585000	      1957	80000bc8	023f8263	beq	x31,x3,80000bec	 x31:0xfffff823  x3:0x80009f04
       19595000	      1958	80000bcc	006578b3	and	x17,x10,x6	 x10:0x00000000  x6:0x776730f4 x17=0x00000000
       19605000	      1959	80000bd0	056dd863	bge	x27,x22,80000c20	 x27:0x80009f04 x22:0x2143f000
       19615000	      1960	80000bd4	005a8cb3	add	x25,x21,x5	 x21:0x00000000  x5:0x00000001 x25=0x00000001
       19625000	      1961	80000bd8	ea5fb393	sltiu	x7,x31,-347	 x31:0xfffff823  x7=0x00000001
       19635000	      1962	80000bdc	01685a93	srli	x21,x16,0x16	 x16:0xf142aab8 x21=0x000003c5
       19645000	      1963	80000be0	4112d813	srai	x16,x5,0x11	  x5:0x00000001 x16=0x00000000
       19655000	      1964	80000be4	0066a433	slt	x8,x13,x6	 x13:0x0000000f  x6:0x776730f4  x8=0x00000001
       19665000	      1965	80000be8	02178863	beq	x15,x1,80000c18	 x15:0x00000000  x1:0x3ae78a08
       19675000	      1966	80000bec	017f4433	xor	x8,x30,x23	 x30:0x80009fc4 x23:0x00000000  x8=0x80009fc4
       19685000	      1967	80000bf0	4123d613	srai	x12,x7,0x12	  x7:0x00000001 x12=0x00000000
       19695000	      1968	80000bf4	007d58b3	srl	x17,x26,x7	 x26:0xfffffffe  x7:0x00000001 x17=0x7fffffff
       19705000	      1969	80000bf8	01b0d1b3	srl	x3,x1,x27	  x1:0x3ae78a08 x27:0x80009f04  x3=0x03ae78a0
       19715000	      1970	80000bfc	41bf80b3	sub	x1,x31,x27	 x31:0xfffff823 x27:0x80009f04  x1=0x7fff591f
       19725000	      1971	80000c00	0128c1b3	xor	x3,x17,x18	 x17:0x7fffffff x18:0x00000000  x3=0x7fffffff
       19735000	      1972	80000c04	01859b13	slli	x22,x11,0x18	 x11:0x3573c000 x22=0x00000000
       19745000	      1973	80000c08	01534c33	xor	x24,x6,x21	  x6:0x776730f4 x21:0x000003c5 x24=0x77673331
       19755000	      1974	80000c0c	d9b5c113	xori	x2,x11,-613	 x11:0x3573c000  x2=0xca8c3d9b
       19765000	      1975	80000c10	01755333	srl	x6,x10,x23	 x10:0x00000000 x23:0x00000000  x6=0x00000000
       19775000	      1976	80000c14	00838133	add	x2,x7,x8	  x7:0x00000001  x8:0x80009fc4  x2=0x80009fc5
       19785000	      1977	80000c18	0128ea63	bltu	x17,x18,80000c2c	 x17:0x7fffffff x18:0x00000000
       19795000	      1978	80000c1c	045b5463	bge	x22,x5,80000c64	 x22:0x00000000  x5:0x00000001
       19805000	      1979	80000c20	01fa0863	beq	x20,x31,80000c30	 x20:0x4214eb38 x31:0xfffff823
       19815000	      1980	80000c24	00e79e63	bne	x15,x14,80000c40	 x15:0x00000000 x14:0xf142aab8
       19825000	      1981	00000000	00000013	addi	x0,x0,0	  x0:0x00000000
       19835000	      1982	80000c3c	00000013	addi	x0,x0,0	  x0:0x00000000
       19845000	      1983	80000c40	016579b3	and	x19,x10,x22	 x10:0x00000000 x22:0x00000000 x19=0x00000000
       19855000	      1984	80000c44	0166f633	and	x12,x13,x22	 x13:0x0000000f x22:0x00000000 x12=0x00000000
       19865000	      1985	80000c48	0072d663	bge	x5,x7,80000c54	  x5:0x00000001  x7:0x00000001
       19875000	      1986	00000000	00000013	addi	x0,x0,0	  x0:0x00000000
       19885000	      1987	80000c50	00000013	addi	x0,x0,0	  x0:0x00000000
       19895000	      1988	80000c54	40510cb3	sub	x25,x2,x5	  x2:0x80009fc5  x5:0x00000001 x25=0x80009fc4
       19905000	      1989	80000c58	0080e263	bltu	x1,x8,80000c5c	  x1:0x7fff591f  x8:0x80009fc4
       19915000	      1990	00000000	00000013	addi	x0,x0,0	  x0:0x00000000
       19925000	      1991	80000c58	00000013	addi	x0,x0,0	  x0:0x00000000
       19935000	      1992	80000c5c	01bd1293	slli	x5,x26,0x1b	 x26:0xfffffffe  x5=0xf0000000
       19945000	      1993	80000c60	003d4cb3	xor	x25,x26,x3	 x26:0xfffffffe  x3:0x7fffffff x25=0x80000001
       19955000	      1994	80000c64	01544533	xor	x10,x8,x21	  x8:0x80009fc4 x21:0x000003c5 x10=0x80009c01
       19965000	      1995	80000c68	417381b3	sub	x3,x7,x23	  x7:0x00000001 x23:0x00000000  x3=0x00000001
       19975000	      1996	80000c6c	43cf9637	lui	x12,0x43cf9	 x12=0x43cf9000
       19985000	      1997	80000c70	41ab5593	srai	x11,x22,0x1a	 x22:0x00000000 x11=0x00000000
       19995000	      1998	80000c74	01f48ab3	add	x21,x9,x31	  x9:0x00010853 x31:0xfffff823 x21=0x00010076
       20005000	      1999	80000c78	c295ea13	ori	x20,x11,-983	 x11:0x00000000 x20=0xfffffc29
       20015000	      2000	80000c7c	01f1a533	slt	x10,x3,x31	  x3:0x00000001 x31:0xfffff823 x10=0x00000000
       20025000	      2001	80000c80	4818c413	xori	x8,x17,1153	 x17:0x7fffffff  x8=0x7ffffb7e
       20035000	      2002	80000c84	00810333	add	x6,x2,x8	  x2:0x80009fc5  x8:0x7ffffb7e  x6=0x00009b43
       20045000	      2003	80000c88	00128a63	beq	x5,x1,80000c9c	  x5:0xf0000000  x1:0x7fff591f
       20055000	      2004	80000c8c	fe3f3793	sltiu	x15,x30,-29	 x30:0x80009fc4 x15=0x00000001
       20065000	      2005	80000c90	03597a63	bgeu	x18,x21,80000cc4	 x18:0x00000000 x21:0x00010076
       20075000	      2006	80000c94	9bd94a93	xori	x21,x18,-1603	 x18:0x00000000 x21=0xfffff9bd
       20085000	      2007	80000c98	00eeec33	or	x24,x29,x14	 x29:0x000000f4 x14:0xf142aab8 x24=0xf142aafc
       20095000	      2008	80000c9c	009dc433	xor	x8,x27,x9	 x27:0x80009f04  x9:0x00010853  x8=0x80019757
       20105000	      2009	80000ca0	2e886913	ori	x18,x16,744	 x16:0x00000000 x18=0x000002e8
       20115000	      2010	80000ca4	4031d493	srai	x9,x3,0x3	  x3:0x00000001  x9=0x00000000
       20125000	      2011	80000ca8	01cc7933	and	x18,x24,x28	 x24:0xf142aafc x28:0x00000001 x18=0x00000000
       20135000	      2012	80000cac	403e5b93	srai	x23,x28,0x3	 x28:0x00000001 x23=0x00000000
       20145000	      2013	80000cb0	05cae463	bltu	x21,x28,80000cf8	 x21:0xfffff9bd x28:0x00000001
       20155000	      2014	80000cb4	3710ed13	ori	x26,x1,881	  x1:0x7fff591f x26=0x7fff5b7f
       20165000	      2015	80000cb8	3912fc13	andi	x24,x5,913	  x5:0xf0000000 x24=0x00000000
       20175000	      2016	80000cbc	404e52b3	sra	x5,x28,x4	 x28:0x00000001  x4:0x00000001  x5=0x00000000
       20185000	      2017	80000cc0	0085d713	srli	x14,x11,0x8	 x11:0x00000000 x14=0x00000000
       20195000	      2018	80000cc4	05a89863	bne	x17,x26,80000d14	 x17:0x7fffffff x26:0x7fff5b7f
       20205000	      2019	00000000	00000013	addi	x0,x0,0	  x0:0x00000000
       20215000	      2020	80000d10	00000013	addi	x0,x0,0	  x0:0x00000000
       20225000	      2021	80000d14	00000013	addi	x0,x0,0	  x0:0x00000000
       20235000	      2022	80000d18	01ed59b3	srl	x19,x26,x30	 x26:0x7fff5b7f x30:0x80009fc4 x19=0x07fff5b7
       20245000	      2023	80000d1c	8425f793	andi	x15,x11,-1982	 x11:0x00000000 x15=0x00000000
       20255000	      2024	80000d20	00bbe033	or	x0,x23,x11	 x23:0x00000000 x11:0x00000000
       20265000	      2025	80000d24	00df4633	xor	x12,x30,x13	 x30:0x80009fc4 x13:0x0000000f x12=0x80009fcb
       20275000	      2026	80000d28	008ca033	slt	x0,x25,x8	 x25:0x80000001  x8:0x80019757
       20285000	      2027	80000d2c	0529f797	auipc	x15,0x529f	 x15=0x8529fd28
       20295000	      2028	80000d30	016a8533	add	x10,x21,x22	 x21:0xfffff9bd x22:0x00000000 x10=0xfffff9bd
       20305000	      2029	80000d34	40715793	srai	x15,x2,0x7	  x2:0x80009fc5 x15=0xff00013f
       20315000	      2030	80000d38	01f51393	slli	x7,x10,0x1f	 x10:0xfffff9bd  x7=0x80000000
       20325000	      2031	80000d3c	01dc1733	sll	x14,x24,x29	 x24:0x00000000 x29:0x000000f4 x14=0x00000000
       20335000	      2032	80000d40	000f1b33	sll	x22,x30,x0	 x30:0x80009fc4  x0:0x00000000 x22=0x80009fc4
       20345000	      2033	80000d44	fcd9cc13	xori	x24,x19,-51	 x19:0x07fff5b7 x24=0xf8000a7a
       20355000	      2034	80000d48	41d154b3	sra	x9,x2,x29	  x2:0x80009fc5 x29:0x000000f4  x9=0xfffff800
       20365000	      2035	80000d4c	f940e413	ori	x8,x1,-108	  x1:0x7fff591f  x8=0xffffff9f
       20375000	      2036	80000d50	00000013	addi	x0,x0,0	  x0:0x00000000
       20385000	      2037	80000d54	ecfe6f93	ori	x31,x28,-305	 x28:0x00000001 x31=0xfffffecf
       20395000	      2038	80000d58	90622f93	slti	x31,x4,-1786	  x4:0x00000001 x31=0x00000000
       20405000	      2039	80000d5c	00a98bb3	add	x23,x19,x10	 x19:0x07fff5b7 x10:0xfffff9bd x23=0x07ffef74
       20415000	      2040	80000d60	01f11333	sll	x6,x2,x31	  x2:0x80009fc5 x31:0x00000000  x6=0x80009fc5
       20425000	      2041	80000d64	002c13b3	sll	x7,x24,x2	 x24:0xf8000a7a  x2:0x80009fc5  x7=0x00014f40
       20435000	      2042	80000d68	00249cb3	sll	x25,x9,x2	  x9:0xfffff800  x2:0x80009fc5 x25=0xffff0000
       20445000	      2043	80000d6c	404b01b3	sub	x3,x22,x4	 x22:0x80009fc4  x4:0x00000001  x3=0x80009fc3
       20455000	      2044	80000d70	5a38a013	slti	x0,x17,1443	 x17:0x7fffffff
       20465000	      2045	80000d74	01704633	xor	x12,x0,x23	  x0:0x00000000 x23:0x07ffef74 x12=0x07ffef74
       20475000	      2046	80000d78	00d31e63	bne	x6,x13,80000d94	  x6:0x80009fc5 x13:0x0000000f
       20485000	      2047	00000000	00000013	addi	x0,x0,0	  x0:0x00000000
       20495000	      2048	80000d90	00000013	addi	x0,x0,0	  x0:0x00000000
       20505000	      2049	80000d94	00fe9293	slli	x5,x29,0xf	 x29:0x000000f4  x5=0x007a0000
       20515000	      2050	80000d98	69db4293	xori	x5,x22,1693	 x22:0x80009fc4  x5=0x80009959
       20525000	      2051	80000d9c	446cb017	auipc	x0,0x446cb	
       20535000	      2052	80000da0	02164463	blt	x12,x1,80000dc8	 x12:0x07ffef74  x1:0x7fff591f
       20545000	      2053	00000000	00000013	addi	x0,x0,0	  x0:0x00000000
       20555000	      2054	80000dc4	00000013	addi	x0,x0,0	  x0:0x00000000
       20565000	      2055	80000dc8	01639833	sll	x16,x7,x22	  x7:0x00014f40 x22:0x80009fc4 x16=0x0014f400
       20575000	      2056	80000dcc	0117a133	slt	x2,x15,x17	 x15:0xff00013f x17:0x7fffffff  x2=0x00000001
       20585000	      2057	80000dd0	01a0f1b3	and	x3,x1,x26	  x1:0x7fff591f x26:0x7fff5b7f  x3=0x7fff591f
       20595000	      2058	80000dd4	00d67833	and	x16,x12,x13	 x12:0x07ffef74 x13:0x0000000f x16=0x00000004
       20605000	      2059	80000dd8	017878b3	and	x17,x16,x23	 x16:0x00000004 x23:0x07ffef74 x17=0x00000004
       20615000	      2060	80000ddc	0181da93	srli	x21,x3,0x18	  x3:0x7fff591f x21=0x0000007f
       20625000	      2061	80000de0	0a8de263	bltu	x27,x8,80000e84	 x27:0x80009f04  x8:0xffffff9f
       20635000	      2062	00000000	00000013	addi	x0,x0,0	  x0:0x00000000
       20645000	      2063	80000e80	00000013	addi	x0,x0,0	  x0:0x00000000
       20655000	      2064	80000e84	003423b3	slt	x7,x8,x3	  x8:0xffffff9f  x3:0x7fff591f  x7=0x00000001
       20665000	      2065	80000e88	014e0863	beq	x28,x20,80000e98	 x28:0x00000001 x20:0xfffffc29
       20675000	      2066	80000e8c	01a51663	bne	x10,x26,80000e98	 x10:0xfffff9bd x26:0x7fff5b7f
       20685000	      2067	00000000	00000013	addi	x0,x0,0	  x0:0x00000000
       20695000	      2068	80000e94	00000013	addi	x0,x0,0	  x0:0x00000000
       20705000	      2069	80000e98	01ceba33	sltu	x20,x29,x28	 x29:0x000000f4 x28:0x00000001 x20=0x00000000
       20715000	      2070	80000e9c	00cc8cb3	add	x25,x25,x12	 x25:0xffff0000 x12:0x07ffef74 x25=0x07feef74
       20725000	      2071	80000ea0	fe39c793	xori	x15,x19,-29	 x19:0x07fff5b7 x15=0xf8000a54
       20735000	      2072	80000ea4	00ac54b3	srl	x9,x24,x10	 x24:0xf8000a7a x10:0xfffff9bd  x9=0x00000007
       20745000	      2073	80000ea8	0feb2213	slti	x4,x22,254	 x22:0x80009fc4  x4=0x00000001
       20755000	      2074	80000eac	f3ec93b7	lui	x7,0xf3ec9	  x7=0xf3ec9000
       20765000	      2075	80000eb0	002ebcb3	sltu	x25,x29,x2	 x29:0x000000f4  x2:0x00000001 x25=0x00000000
       20775000	      2076	80000eb4	04ddee63	bltu	x27,x13,80000f10	 x27:0x80009f04 x13:0x0000000f
       20785000	      2077	80000eb8	5c031817	auipc	x16,0x5c031	 x16=0xdc031eb4
       20795000	      2078	80000ebc	009edd13	srli	x26,x29,0x9	 x29:0x000000f4 x26=0x00000000
       20805000	      2079	80000ec0	00765e33	srl	x28,x12,x7	 x12:0x07ffef74  x7:0xf3ec9000 x28=0x07ffef74
       20815000	      2080	80000ec4	40115213	srai	x4,x2,0x1	  x2:0x00000001  x4=0x00000000
       20825000	      2081	80000ec8	40cad233	sra	x4,x21,x12	 x21:0x0000007f x12:0x07ffef74  x4=0x00000000
       20835000	      2082	80000ecc	04795063	bge	x18,x7,80000f0c	 x18:0x00000000  x7:0xf3ec9000
       20845000	      2083	00000000	00000013	addi	x0,x0,0	  x0:0x00000000
       20855000	      2084	80000f08	00000013	addi	x0,x0,0	  x0:0x00000000
       20865000	      2085	80000f0c	00879c93	slli	x25,x15,0x8	 x15:0xf8000a54 x25=0x000a5400
       20875000	      2086	80000f10	006d0e63	beq	x26,x6,80000f2c	 x26:0x00000000  x6:0x80009fc5
       20885000	      2087	80000f14	533bb337	lui	x6,0x533bb	  x6=0x533bb000
       20895000	      2088	80000f18	c3efa813	slti	x16,x31,-962	 x31:0x00000000 x16=0x00000000
       20905000	      2089	80000f1c	00000013	addi	x0,x0,0	  x0:0x00000000
       20915000	      2090	80000f20	019ace63	blt	x21,x25,80000f3c	 x21:0x0000007f x25:0x000a5400
       20925000	      2091	00000000	00000013	addi	x0,x0,0	  x0:0x00000000
       20935000	      2092	80000f38	00000013	addi	x0,x0,0	  x0:0x00000000
       20945000	      2093	80000f3c	00958a63	beq	x11,x9,80000f50	 x11:0x00000000  x9:0x00000007
       20955000	      2094	80000f40	00229993	slli	x19,x5,0x2	  x5:0x80009959 x19=0x00026564
       20965000	      2095	80000f44	00525e93	srli	x29,x4,0x5	  x4:0x00000000 x29=0x00000000
       20975000	      2096	80000f48	00119c13	slli	x24,x3,0x1	  x3:0x7fff591f x24=0xfffeb23e
       20985000	      2097	80000f4c	0502e263	bltu	x5,x16,80000f90	  x5:0x80009959 x16:0x00000000
       20995000	      2098	80000f50	00e15bb3	srl	x23,x2,x14	  x2:0x00000001 x14:0x00000000 x23=0x00000001
       21005000	      2099	80000f54	00000013	addi	x0,x0,0	  x0:0x00000000
       21015000	      2100	80000f58	86d44e13	xori	x28,x8,-1939	  x8:0xffffff9f x28=0x000007f2
       21025000	      2101	80000f5c	011ef133	and	x2,x29,x17	 x29:0x00000000 x17:0x00000004  x2=0x00000000
       21035000	      2102	80000f60	414c52b3	sra	x5,x24,x20	 x24:0xfffeb23e x20:0x00000000  x5=0xfffeb23e
       21045000	      2103	80000f64	978ef293	andi	x5,x29,-1672	 x29:0x00000000  x5=0x00000000
       21055000	      2104	80000f68	032f5863	bge	x30,x18,80000f98	 x30:0x80009fc4 x18:0x00000000
       21065000	      2105	80000f6c	01fa4813	xori	x16,x20,31	 x20:0x00000000 x16=0x0000001f
       21075000	      2106	80000f70	017917b3	sll	x15,x18,x23	 x18:0x00000000 x23:0x00000001 x15=0x00000000
       21085000	      2107	80000f74	01fbb4b3	sltu	x9,x23,x31	 x23:0x00000001 x31:0x00000000  x9=0x00000000
       21095000	      2108	80000f78	04ed7863	bgeu	x26,x14,80000fc8	 x26:0x00000000 x14:0x00000000
       21105000	      2109	00000000	00000013	addi	x0,x0,0	  x0:0x00000000
       21115000	      2110	80000fc4	00000013	addi	x0,x0,0	  x0:0x00000000
       21125000	      2111	80000fc8	fff57f93	andi	x31,x10,-1	 x10:0xfffff9bd x31=0xfffff9bd
       21135000	      2112	80000fcc	402e0bb3	sub	x23,x28,x2	 x28:0x000007f2  x2:0x00000000 x23=0x000007f2
       21145000	      2113	80000fd0	04c34293	xori	x5,x6,76	  x6:0x533bb000  x5=0x533bb04c
       21155000	      2114	80000fd4	001a9d33	sll	x26,x21,x1	 x21:0x0000007f  x1:0x7fff591f x26=0x80000000
       21165000	      2115	80000fd8	0131fe63	bgeu	x3,x19,80000ff4	  x3:0x7fff591f x19:0x00026564
       21175000	      2116	00000000	00000013	addi	x0,x0,0	  x0:0x00000000
       21185000	      2117	80000ff0	00000013	addi	x0,x0,0	  x0:0x00000000
       21195000	      2118	80000ff4	ac8fbc93	sltiu	x25,x31,-1336	 x31:0xfffff9bd x25=0x00000001
       21205000	      2119	80000ff8	41938fb3	sub	x31,x7,x25	  x7:0xf3ec9000 x25:0x00000001 x31=0xf3ec8fff
       21215000	      2120	80000ffc	00000013	addi	x0,x0,0	  x0:0x00000000
       21225000	      2121	80001000	05826663	bltu	x4,x24,8000104c	  x4:0x00000000 x24:0xfffeb23e
       21235000	      2122	00000000	00000013	addi	x0,x0,0	  x0:0x00000000
       21245000	      2123	80001048	00000013	addi	x0,x0,0	  x0:0x00000000
       21255000	      2124	8000104c	05f84463	blt	x16,x31,80001094	 x16:0x0000001f x31:0xf3ec8fff
       21265000	      2125	80001050	00f8e233	or	x4,x17,x15	 x17:0x00000004 x15:0x00000000  x4=0x00000004
       21275000	      2126	80001054	00000013	addi	x0,x0,0	  x0:0x00000000
       21285000	      2127	80001058	e772a313	slti	x6,x5,-393	  x5:0x533bb04c  x6=0x00000000
       21295000	      2128	8000105c	7c4c2d13	slti	x26,x24,1988	 x24:0xfffeb23e x26=0x00000001
       21305000	      2129	80001060	0047e733	or	x14,x15,x4	 x15:0x00000000  x4:0x00000004 x14=0x00000004
       21315000	      2130	80001064	01ba29b3	slt	x19,x20,x27	 x20:0x00000000 x27:0x80009f04 x19=0x00000000
       21325000	      2131	80001068	01b980b3	add	x1,x19,x27	 x19:0x00000000 x27:0x80009f04  x1=0x80009f04
       21335000	      2132	8000106c	24a7ad13	slti	x26,x15,586	 x15:0x00000000 x26=0x00000001
       21345000	      2133	80001070	409355b3	sra	x11,x6,x9	  x6:0x00000000  x9:0x00000000 x11=0x00000000
       21355000	      2134	80001074	6754ce37	lui	x28,0x6754c	 x28=0x6754c000
       21365000	      2135	80001078	01fd5463	bge	x26,x31,80001080	 x26:0x00000001 x31:0xf3ec8fff
       21375000	      2136	00000000	00000013	addi	x0,x0,0	  x0:0x00000000
       21385000	      2137	8000107c	00000013	addi	x0,x0,0	  x0:0x00000000
       21395000	      2138	80001080	036fea63	bltu	x31,x22,800010b4	 x31:0xf3ec8fff x22:0x80009fc4
       21405000	      2139	80001084	03ec7863	bgeu	x24,x30,800010b4	 x24:0xfffeb23e x30:0x80009fc4
       21415000	      2140	00000000	00000013	addi	x0,x0,0	  x0:0x00000000
       21425000	      2141	800010b0	00000013	addi	x0,x0,0	  x0:0x00000000
       21435000	      2142	800010b4	8f5e0293	addi	x5,x28,-1803	 x28:0x6754c000  x5=0x6754b8f5
       21445000	      2143	800010b8	017979b3	and	x19,x18,x23	 x18:0x00000000 x23:0x000007f2 x19=0x00000000
       21455000	      2144	800010bc	6beff993	andi	x19,x31,1726	 x31:0xf3ec8fff x19=0x000006be
       21465000	      2145	800010c0	00000013	addi	x0,x0,0	  x0:0x00000000
       21475000	      2146	800010c4	8c0dce93	xori	x29,x27,-1856	 x27:0x80009f04 x29=0x7fff67c4
       21485000	      2147	800010c8	00c54c33	xor	x24,x10,x12	 x10:0xfffff9bd x12:0x07ffef74 x24=0xf80016c9
       21495000	      2148	800010cc	415ad213	srai	x4,x21,0x15	 x21:0x0000007f  x4=0x00000000
       21505000	      2149	800010d0	00780633	add	x12,x16,x7	 x16:0x0000001f  x7:0xf3ec9000 x12=0xf3ec901f
       21515000	      2150	800010d4	00fa1493	slli	x9,x20,0xf	 x20:0x00000000  x9=0x00000000
       21525000	      2151	800010d8	00e79613	slli	x12,x15,0xe	 x15:0x00000000 x12=0x00000000
       21535000	      2152	800010dc	dd83c293	xori	x5,x7,-552	  x7:0xf3ec9000  x5=0x0c136dd8
       21545000	      2153	800010e0	d2bf3037	lui	x0,0xd2bf3	
       21555000	      2154	800010e4	00c64c63	blt	x12,x12,800010fc	 x12:0x00000000 x12:0x00000000
       21565000	      2155	800010e8	1fe13193	sltiu	x3,x2,510	  x2:0x00000000  x3=0x00000001
       21575000	      2156	800010ec	01398263	beq	x19,x19,800010f0	 x19:0x000006be x19:0x000006be
       21585000	      2157	00000000	00000013	addi	x0,x0,0	  x0:0x00000000
       21595000	      2158	800010ec	00000013	addi	x0,x0,0	  x0:0x00000000
       21605000	      2159	800010f0	40838933	sub	x18,x7,x8	  x7:0xf3ec9000  x8:0xffffff9f x18=0xf3ec9061
       21615000	      2160	800010f4	0174dbb3	srl	x23,x9,x23	  x9:0x00000000 x23:0x000007f2 x23=0x00000000
       21625000	      2161	800010f8	011f52b3	srl	x5,x30,x17	 x30:0x80009fc4 x17:0x00000004  x5=0x080009fc
       21635000	      2162	800010fc	000761b3	or	x3,x14,x0	 x14:0x00000004  x0:0x00000000  x3=0x00000004
       21645000	      2163	80001100	01c148b3	xor	x17,x2,x28	  x2:0x00000000 x28:0x6754c000 x17=0x6754c000
       21655000	      2164	80001104	71f17a93	andi	x21,x2,1823	  x2:0x00000000 x21=0x00000000
       21665000	      2165	80001108	007ddd13	srli	x26,x27,0x7	 x27:0x80009f04 x26=0x0100013e
       21675000	      2166	8000110c	020af863	bgeu	x21,x0,8000113c	 x21:0x00000000  x0:0x00000000
       21685000	      2167	00000000	00000013	addi	x0,x0,0	  x0:0x00000000
       21695000	      2168	80001138	00000013	addi	x0,x0,0	  x0:0x00000000
       21705000	      2169	8000113c	9afe2637	lui	x12,0x9afe2	 x12=0x9afe2000
       21715000	      2170	80001140	01b452b3	srl	x5,x8,x27	  x8:0xffffff9f x27:0x80009f04  x5=0x0ffffff9
       21725000	      2171	80001144	02996863	bltu	x18,x9,80001174	 x18:0xf3ec9061  x9:0x00000000
       21735000	      2172	80001148	21268413	addi	x8,x13,530	 x13:0x0000000f  x8=0x00000221
       21745000	      2173	8000114c	018b1913	slli	x18,x22,0x18	 x22:0x80009fc4 x18=0xc4000000
       21755000	      2174	80001150	00000013	addi	x0,x0,0	  x0:0x00000000
       21765000	      2175	80001154	01c45e63	bge	x8,x28,80001170	  x8:0x00000221 x28:0x6754c000
       21775000	      2176	80001158	2f05ae13	slti	x28,x11,752	 x11:0x00000000 x28=0x00000001
       21785000	      2177	8000115c	002f00b3	add	x1,x30,x2	 x30:0x80009fc4  x2:0x00000000  x1=0x80009fc4
       21795000	      2178	80001160	015d4233	xor	x4,x26,x21	 x26:0x0100013e x21:0x00000000  x4=0x0100013e
       21805000	      2179	80001164	27256713	ori	x14,x10,626	 x10:0xfffff9bd x14=0xfffffbff
       21815000	      2180	80001168	61d7b513	sltiu	x10,x15,1565	 x15:0x00000000 x10=0x00000001
       21825000	      2181	8000116c	047b6863	bltu	x22,x7,800011bc	 x22:0x80009fc4  x7:0xf3ec9000
       21835000	      2182	00000000	00000013	addi	x0,x0,0	  x0:0x00000000
       21845000	      2183	800011b8	00000013	addi	x0,x0,0	  x0:0x00000000
       21855000	      2184	800011bc	99744e13	xori	x28,x8,-1641	  x8:0x00000221 x28=0xfffffbb6
       21865000	      2185	800011c0	01a74663	blt	x14,x26,800011cc	 x14:0xfffffbff x26:0x0100013e
       21875000	      2186	00000000	00000013	addi	x0,x0,0	  x0:0x00000000
       21885000	      2187	800011c8	00000013	addi	x0,x0,0	  x0:0x00000000
       21895000	      2188	800011cc	01a1c2b3	xor	x5,x3,x26	  x3:0x00000004 x26:0x0100013e  x5=0x0100013a
       21905000	      2189	800011d0	01001d33	sll	x26,x0,x16	  x0:0x00000000 x16:0x0000001f x26=0x00000000
       21915000	      2190	800011d4	02456137	lui	x2,0x2456	  x2=0x02456000
       21925000	      2191	800011d8	e960b393	sltiu	x7,x1,-362	  x1:0x80009fc4  x7=0x00000001
       21935000	      2192	800011dc	03065a63	bge	x12,x16,80001210	 x12:0x9afe2000 x16:0x0000001f
       21945000	      2193	800011e0	01474863	blt	x14,x20,800011f0	 x14:0xfffffbff x20:0x00000000
       21955000	      2194	00000000	00000013	addi	x0,x0,0	  x0:0x00000000
       21965000	      2195	800011ec	00000013	addi	x0,x0,0	  x0:0x00000000
       21975000	      2196	800011f0	88783193	sltiu	x3,x16,-1913	 x16:0x0000001f  x3=0x00000001
       21985000	      2197	800011f4	00000013	addi	x0,x0,0	  x0:0x00000000
       21995000	      2198	800011f8	01b5ea63	bltu	x11,x27,8000120c	 x11:0x00000000 x27:0x80009f04
       22005000	      2199	00000000	00000013	addi	x0,x0,0	  x0:0x00000000
       22015000	      2200	80001208	00000013	addi	x0,x0,0	  x0:0x00000000
       22025000	      2201	8000120c	40fb5993	srai	x19,x22,0xf	 x22:0x80009fc4 x19=0xffff0001
       22035000	      2202	80001210	017cab33	slt	x22,x25,x23	 x25:0x00000001 x23:0x00000000 x22=0x00000000
       22045000	      2203	80001214	01e3e3b3	or	x7,x7,x30	  x7:0x00000001 x30:0x80009fc4  x7=0x80009fc5
       22055000	      2204	80001218	006dd613	srli	x12,x27,0x6	 x27:0x80009f04 x12=0x0200027c
       22065000	      2205	8000121c	f0c7f113	andi	x2,x15,-244	 x15:0x00000000  x2=0x00000000
       22075000	      2206	80001220	2301a713	slti	x14,x3,560	  x3:0x00000001 x14=0x00000001
       22085000	      2207	80001224	a1483a93	sltiu	x21,x16,-1516	 x16:0x0000001f x21=0x00000001
       22095000	      2208	80001228	40c05633	sra	x12,x0,x12	  x0:0x00000000 x12:0x0200027c x12=0x00000000
       22105000	      2209	8000122c	3936eb93	ori	x23,x13,915	 x13:0x0000000f x23=0x0000039f
       22115000	      2210	80001230	5fbf7497	auipc	x9,0x5fbf7	  x9=0xdfbf822c
       22125000	      2211	80001234	05aa1463	bne	x20,x26,8000127c	 x20:0x00000000 x26:0x00000000
       22135000	      2212	80001238	02649c63	bne	x9,x6,80001270	  x9:0xdfbf822c  x6:0x00000000
       22145000	      2213	00000000	00000013	addi	x0,x0,0	  x0:0x00000000
       22155000	      2214	8000126c	00000013	addi	x0,x0,0	  x0:0x00000000
       22165000	      2215	80001270	40b3d613	srai	x12,x7,0xb	  x7:0x80009fc5 x12=0xfff00013
       22175000	      2216	80001274	f6f02593	slti	x11,x0,-145	  x0:0x00000000 x11=0x00000000
       22185000	      2217	80001278	015d3c33	sltu	x24,x26,x21	 x26:0x00000000 x21:0x00000001 x24=0x00000001
       22195000	      2218	8000127c	fdd64593	xori	x11,x12,-35	 x12:0xfff00013 x11=0x000fffce
       22205000	      2219	80001280	0f8bba37	lui	x20,0xf8bb	 x20=0x0f8bb000
       22215000	      2220	80001284	403b02b3	sub	x5,x22,x3	 x22:0x00000000  x3:0x00000001  x5=0xffffffff
       22225000	      2221	80001288	00d48ab3	add	x21,x9,x13	  x9:0xdfbf822c x13:0x0000000f x21=0xdfbf823b
       22235000	      2222	8000128c	004fee63	bltu	x31,x4,800012a8	 x31:0xf3ec8fff  x4:0x0100013e
       22245000	      2223	80001290	01c29b13	slli	x22,x5,0x1c	  x5:0xffffffff x22=0xf0000000
       22255000	      2224	80001294	40e35c33	sra	x24,x6,x14	  x6:0x00000000 x14:0x00000001 x24=0x00000000
       22265000	      2225	80001298	00000013	addi	x0,x0,0	  x0:0x00000000
       22275000	      2226	8000129c	0004e133	or	x2,x9,x0	  x9:0xdfbf822c  x0:0x00000000  x2=0xdfbf822c
       22285000	      2227	800012a0	01d28393	addi	x7,x5,29	  x5:0xffffffff  x7=0x0000001c
       22295000	      2228	800012a4	00000013	addi	x0,x0,0	  x0:0x00000000
       22305000	      2229	800012a8	00000013	addi	x0,x0,0	  x0:0x00000000
       22315000	      2230	800012ac	49312317	auipc	x6,0x49312	  x6=0xc93132a8
       22325000	      2231	800012b0	00031fb3	sll	x31,x6,x0	  x6:0xc93132a8  x0:0x00000000 x31=0xc93132a8
       22335000	      2232	800012b4	4034d4b3	sra	x9,x9,x3	  x9:0xdfbf822c  x3:0x00000001  x9=0xefdfc116
       22345000	      2233	800012b8	04915463	bge	x2,x9,80001300	  x2:0xdfbf822c  x9:0xefdfc116
       22355000	      2234	800012bc	00319413	slli	x8,x3,0x3	  x3:0x00000001  x8=0x00000008
       22365000	      2235	800012c0	00304533	xor	x10,x0,x3	  x0:0x00000000  x3:0x00000001 x10=0x00000001
       22375000	      2236	800012c4	01f15393	srli	x7,x2,0x1f	  x2:0xdfbf822c  x7=0x00000001
       22385000	      2237	800012c8	a3096593	ori	x11,x18,-1488	 x18:0xc4000000 x11=0xfffffa30
       22395000	      2238	800012cc	9f974a13	xori	x20,x14,-1543	 x14:0x00000001 x20=0xfffff9f8
       22405000	      2239	800012d0	b1fe3113	sltiu	x2,x28,-1249	 x28:0xfffffbb6  x2=0x00000000
       22415000	      2240	800012d4	00f65a33	srl	x20,x12,x15	 x12:0xfff00013 x15:0x00000000 x20=0xfff00013
       22425000	      2241	800012d8	0591f863	bgeu	x3,x25,80001328	  x3:0x00000001 x25:0x00000001
       22435000	      2242	00000000	00000013	addi	x0,x0,0	  x0:0x00000000
       22445000	      2243	80001324	00000013	addi	x0,x0,0	  x0:0x00000000
       22455000	      2244	80001328	40568b33	sub	x22,x13,x5	 x13:0x0000000f  x5:0xffffffff x22=0x00000010
       22465000	      2245	8000132c	01affa63	bgeu	x31,x26,80001340	 x31:0xc93132a8 x26:0x00000000
       22475000	      2246	00000000	00000013	addi	x0,x0,0	  x0:0x00000000
       22485000	      2247	8000133c	00000013	addi	x0,x0,0	  x0:0x00000000
       22495000	      2248	80001340	1f9fe537	lui	x10,0x1f9fe	 x10=0x1f9fe000
       22505000	      2249	80001344	01225b13	srli	x22,x4,0x12	  x4:0x0100013e x22=0x00000040
       22515000	      2250	80001348	40285013	srai	x0,x16,0x2	 x16:0x0000001f
       22525000	      2251	8000134c	01804133	xor	x2,x0,x24	  x0:0x00000000 x24:0x00000000  x2=0x00000000
       22535000	      2252	80001350	00c31413	slli	x8,x6,0xc	  x6:0xc93132a8  x8=0x132a8000
       22545000	      2253	80001354	00b15933	srl	x18,x2,x11	  x2:0x00000000 x11:0xfffffa30 x18=0x00000000
       22555000	      2254	80001358	156ac613	xori	x12,x21,342	 x21:0xdfbf823b x12=0xdfbf836d
       22565000	      2255	8000135c	00181a33	sll	x20,x16,x1	 x16:0x0000001f  x1:0x80009fc4 x20=0x000001f0
       22575000	      2256	80001360	01276863	bltu	x14,x18,80001370	 x14:0x00000001 x18:0x00000000
       22585000	      2257	80001364	00000013	addi	x0,x0,0	  x0:0x00000000
       22595000	      2258	80001368	00fbe2b3	or	x5,x23,x15	 x23:0x0000039f x15:0x00000000  x5=0x0000039f
       22605000	      2259	8000136c	03c91863	bne	x18,x28,8000139c	 x18:0x00000000 x28:0xfffffbb6
       22615000	      2260	00000000	00000013	addi	x0,x0,0	  x0:0x00000000
       22625000	      2261	80001398	00000013	addi	x0,x0,0	  x0:0x00000000
       22635000	      2262	8000139c	0569e863	bltu	x19,x22,800013ec	 x19:0xffff0001 x22:0x00000040
       22645000	      2263	800013a0	95b4f293	andi	x5,x9,-1701	  x9:0xefdfc116  x5=0xefdfc112
       22655000	      2264	800013a4	404bd1b3	sra	x3,x23,x4	 x23:0x0000039f  x4:0x0100013e  x3=0x00000000
       22665000	      2265	800013a8	006bb033	sltu	x0,x23,x6	 x23:0x0000039f  x6:0xc93132a8
       22675000	      2266	800013ac	40a25813	srai	x16,x4,0xa	  x4:0x0100013e x16=0x00004000
       22685000	      2267	800013b0	01cd1413	slli	x8,x26,0x1c	 x26:0x00000000  x8=0x00000000
       22695000	      2268	800013b4	035d7c63	bgeu	x26,x21,800013ec	 x26:0x00000000 x21:0xdfbf823b
       22705000	      2269	800013b8	bba92413	slti	x8,x18,-1094	 x18:0x00000000  x8=0x00000000
       22715000	      2270	800013bc	014d4a63	blt	x26,x20,800013d0	 x26:0x00000000 x20:0x000001f0
       22725000	      2271	00000000	00000013	addi	x0,x0,0	  x0:0x00000000
       22735000	      2272	800013cc	00000013	addi	x0,x0,0	  x0:0x00000000
       22745000	      2273	800013d0	4054d793	srai	x15,x9,0x5	  x9:0xefdfc116 x15=0xff7efe08
       22755000	      2274	800013d4	027c4863	blt	x24,x7,80001404	 x24:0x00000000  x7:0x00000001
       22765000	      2275	00000000	00000013	addi	x0,x0,0	  x0:0x00000000
       22775000	      2276	80001400	00000013	addi	x0,x0,0	  x0:0x00000000
       22785000	      2277	80001404	00084833	xor	x16,x16,x0	 x16:0x00004000  x0:0x00000000 x16=0x00004000
       22795000	      2278	80001408	01b81a33	sll	x20,x16,x27	 x16:0x00004000 x27:0x80009f04 x20=0x00040000
       22805000	      2279	8000140c	00347fb3	and	x31,x8,x3	  x8:0x00000000  x3:0x00000000 x31=0x00000000
       22815000	      2280	80001410	05e10263	beq	x2,x30,80001454	  x2:0x00000000 x30:0x80009fc4
       22825000	      2281	80001414	010c1e33	sll	x28,x24,x16	 x24:0x00000000 x16:0x00004000 x28=0x00000000
       22835000	      2282	80001418	01265333	srl	x6,x12,x18	 x12:0xdfbf836d x18:0x00000000  x6=0xdfbf836d
       22845000	      2283	8000141c	e314f717	auipc	x14,0xe314f	 x14=0x63150418
       22855000	      2284	80001420	8c2e6b93	ori	x23,x28,-1854	 x28:0x00000000 x23=0xfffff8c2
       22865000	      2285	80001424	00a54e63	blt	x10,x10,80001440	 x10:0x1f9fe000 x10:0x1f9fe000
       22875000	      2286	80001428	41c58933	sub	x18,x11,x28	 x11:0xfffffa30 x28:0x00000000 x18=0xfffffa30
       22885000	      2287	8000142c	01dc95b3	sll	x11,x25,x29	 x25:0x00000001 x29:0x7fff67c4 x11=0x00000010
       22895000	      2288	80001430	401605b3	sub	x11,x12,x1	 x12:0xdfbf836d  x1:0x80009fc4 x11=0x5fbee3a9
       22905000	      2289	80001434	01e5dc33	srl	x24,x11,x30	 x11:0x5fbee3a9 x30:0x80009fc4 x24=0x05fbee3a
       22915000	      2290	80001438	00ac5233	srl	x4,x24,x10	 x24:0x05fbee3a x10:0x1f9fe000  x4=0x05fbee3a
       22925000	      2291	8000143c	02831a63	bne	x6,x8,80001470	  x6:0xdfbf836d  x8:0x00000000
       22935000	      2292	00000000	00000013	addi	x0,x0,0	  x0:0x00000000
       22945000	      2293	8000146c	00000013	addi	x0,x0,0	  x0:0x00000000
       22955000	      2294	80001470	40995813	srai	x16,x18,0x9	 x18:0xfffffa30 x16=0xfffffffd
       22965000	      2295	80001474	00530c33	add	x24,x6,x5	  x6:0xdfbf836d  x5:0xefdfc112 x24=0xcf9f447f
       22975000	      2296	80001478	01165293	srli	x5,x12,0x11	 x12:0xdfbf836d  x5=0x00006fdf
       22985000	      2297	8000147c	00cc47b3	xor	x15,x24,x12	 x24:0xcf9f447f x12:0xdfbf836d x15=0x1020c712
       22995000	      2298	80001480	055c6463	bltu	x24,x21,800014c8	 x24:0xcf9f447f x21:0xdfbf823b
       23005000	      2299	00000000	00000013	addi	x0,x0,0	  x0:0x00000000
       23015000	      2300	800014c4	00000013	addi	x0,x0,0	  x0:0x00000000
       23025000	      2301	800014c8	faebea97	auipc	x21,0xfaebe	 x21=0x7aebf4c4
       23035000	      2302	800014cc	cecd9c37	lui	x24,0xcecd9	 x24=0xcecd9000
       23045000	      2303	800014d0	00a90b33	add	x22,x18,x10	 x18:0xfffffa30 x10:0x1f9fe000 x22=0x1f9fda30
       23055000	      2304	800014d4	00106833	or	x16,x0,x1	  x0:0x00000000  x1:0x80009fc4 x16=0x80009fc4
       23065000	      2305	800014d8	010614b3	sll	x9,x12,x16	 x12:0xdfbf836d x16:0x80009fc4  x9=0xfbf836d0
       23075000	      2306	800014dc	ca12ad17	auipc	x26,0xca12a	 x26=0x4a12b4d8
       23085000	      2307	800014e0	022be863	bltu	x23,x2,80001510	 x23:0xfffff8c2  x2:0x00000000
       23095000	      2308	800014e4	00da4263	blt	x20,x13,800014e8	 x20:0x00040000 x13:0x0000000f
       23105000	      2309	800014e8	006bd513	srli	x10,x23,0x6	 x23:0xfffff8c2 x10=0x03ffffe3
       23115000	      2310	800014ec	01c29e63	bne	x5,x28,80001508	  x5:0x00006fdf x28:0x00000000
       23125000	      2311	00000000	00000013	addi	x0,x0,0	  x0:0x00000000
       23135000	      2312	80001504	00000013	addi	x0,x0,0	  x0:0x00000000
       23145000	      2313	80001508	00d2a933	slt	x18,x5,x13	  x5:0x00006fdf x13:0x0000000f x18=0x00000000
       23155000	      2314	8000150c	10144e37	lui	x28,0x10144	 x28=0x10144000
       23165000	      2315	80001510	0317e863	bltu	x15,x17,80001540	 x15:0x1020c712 x17:0x6754c000
       23175000	      2316	00000000	00000013	addi	x0,x0,0	  x0:0x00000000
       23185000	      2317	8000153c	00000013	addi	x0,x0,0	  x0:0x00000000
       23195000	      2318	80001540	049af463	bgeu	x21,x9,80001588	 x21:0x7aebf4c4  x9:0xfbf836d0
       23205000	      2319	80001544	00f0ad33	slt	x26,x1,x15	  x1:0x80009fc4 x15:0x1020c712 x26=0x00000001
       23215000	      2320	80001548	bb3bc593	xori	x11,x23,-1101	 x23:0xfffff8c2 x11=0x00000371
       23225000	      2321	8000154c	01cf9833	sll	x16,x31,x28	 x31:0x00000000 x28:0x10144000 x16=0x00000000
       23235000	      2322	80001550	3d81f597	auipc	x11,0x3d81f	 x11=0xbd82054c
       23245000	      2323	80001554	005c5813	srli	x16,x24,0x5	 x24:0xcecd9000 x16=0x06766c80
       23255000	      2324	80001558	002fe1b3	or	x3,x31,x2	 x31:0x00000000  x2:0x00000000  x3=0x00000000
       23265000	      2325	8000155c	0154d9b3	srl	x19,x9,x21	  x9:0xfbf836d0 x21:0x7aebf4c4 x19=0x0fbf836d
       23275000	      2326	80001560	00e95593	srli	x11,x18,0xe	 x18:0x00000000 x11=0x00000000
       23285000	      2327	80001564	0129f133	and	x2,x19,x18	 x19:0x0fbf836d x18:0x00000000  x2=0x00000000
       23295000	      2328	80001568	01ed9663	bne	x27,x30,80001574	 x27:0x80009f04 x30:0x80009fc4
       23305000	      2329	00000000	00000013	addi	x0,x0,0	  x0:0x00000000
       23315000	      2330	80001570	00000013	addi	x0,x0,0	  x0:0x00000000
       23325000	      2331	80001574	08fe0663	beq	x28,x15,80001600	 x28:0x10144000 x15:0x1020c712
       23335000	      2332	80001578	00965c63	bge	x12,x9,80001590	 x12:0xdfbf836d  x9:0xfbf836d0
       23345000	      2333	8000157c	01008cb3	add	x25,x1,x16	  x1:0x80009fc4 x16:0x06766c80 x25=0x86770c44
       23355000	      2334	80001580	009d7533	and	x10,x26,x9	 x26:0x00000001  x9:0xfbf836d0 x10=0x00000000
       23365000	      2335	80001584	0011bb33	sltu	x22,x3,x1	  x3:0x00000000  x1:0x80009fc4 x22=0x00000001
       23375000	      2336	80001588	01413bb3	sltu	x23,x2,x20	  x2:0x00000000 x20:0x00040000 x23=0x00000001
       23385000	      2337	8000158c	76bec593	xori	x11,x29,1899	 x29:0x7fff67c4 x11=0x7fff60af
       23395000	      2338	80001590	01c18463	beq	x3,x28,80001598	  x3:0x00000000 x28:0x10144000
       23405000	      2339	80001594	008f9b33	sll	x22,x31,x8	 x31:0x00000000  x8:0x00000000 x22=0x00000000
       23415000	      2340	80001598	01d4beb3	sltu	x29,x9,x29	  x9:0xfbf836d0 x29:0x7fff67c4 x29=0x00000000
       23425000	      2341	8000159c	01c73033	sltu	x0,x14,x28	 x14:0x63150418 x28:0x10144000
       23435000	      2342	800015a0	205dee93	ori	x29,x27,517	 x27:0x80009f04 x29=0x80009f05
       23445000	      2343	800015a4	01288a33	add	x20,x17,x18	 x17:0x6754c000 x18:0x00000000 x20=0x6754c000
       23455000	      2344	800015a8	019b2e33	slt	x28,x22,x25	 x22:0x00000000 x25:0x86770c44 x28=0x00000000
       23465000	      2345	800015ac	01242933	slt	x18,x8,x18	  x8:0x00000000 x18:0x00000000 x18=0x00000000
       23475000	      2346	800015b0	053b9a63	bne	x23,x19,80001604	 x23:0x00000001 x19:0x0fbf836d
       23485000	      2347	00000000	00000013	addi	x0,x0,0	  x0:0x00000000
       23495000	      2348	80001600	00000013	addi	x0,x0,0	  x0:0x00000000
       23505000	      2349	80001604	01c81613	slli	x12,x16,0x1c	 x16:0x06766c80 x12=0x00000000
       23515000	      2350	80001608	002119b3	sll	x19,x2,x2	  x2:0x00000000  x2:0x00000000 x19=0x00000000
       23525000	      2351	8000160c	0034b133	sltu	x2,x9,x3	  x9:0xfbf836d0  x3:0x00000000  x2=0x00000000
       23535000	      2352	80001610	015b2cb3	slt	x25,x22,x21	 x22:0x00000000 x21:0x7aebf4c4 x25=0x00000001
       23545000	      2353	80001614	f6e2ae93	slti	x29,x5,-146	  x5:0x00006fdf x29=0x00000000
       23555000	      2354	80001618	00a4fe63	bgeu	x9,x10,80001634	  x9:0xfbf836d0 x10:0x00000000
       23565000	      2355	00000000	00000013	addi	x0,x0,0	  x0:0x00000000
       23575000	      2356	80001630	00000013	addi	x0,x0,0	  x0:0x00000000
       23585000	      2357	80001634	002cf663	bgeu	x25,x2,80001640	 x25:0x00000001  x2:0x00000000
       23595000	      2358	00000000	00000013	addi	x0,x0,0	  x0:0x00000000
       23605000	      2359	8000163c	00000013	addi	x0,x0,0	  x0:0x00000000
       23615000	      2360	80001640	4110dcb3	sra	x25,x1,x17	  x1:0x80009fc4 x17:0x6754c000 x25=0x80009fc4
       23625000	      2361	80001644	013e8933	add	x18,x29,x19	 x29:0x00000000 x19:0x00000000 x18=0x00000000
       23635000	      2362	80001648	41dd0ab3	sub	x21,x26,x29	 x26:0x00000001 x29:0x00000000 x21=0x00000001
       23645000	      2363	8000164c	419bd113	srai	x2,x23,0x19	 x23:0x00000001  x2=0x00000000
       23655000	      2364	80001650	2f07fab7	lui	x21,0x2f07f	 x21=0x2f07f000
       23665000	      2365	80001654	00539a63	bne	x7,x5,80001668	  x7:0x00000001  x5:0x00006fdf
       23675000	      2366	00000000	00000013	addi	x0,x0,0	  x0:0x00000000
       23685000	      2367	80001664	00000013	addi	x0,x0,0	  x0:0x00000000
       23695000	      2368	80001668	0039c133	xor	x2,x19,x3	 x19:0x00000000  x3:0x00000000  x2=0x00000000
       23705000	      2369	8000166c	00f804b3	add	x9,x16,x15	 x16:0x06766c80 x15:0x1020c712  x9=0x16973392
       23715000	      2370	80001670	01835fb3	srl	x31,x6,x24	  x6:0xdfbf836d x24:0xcecd9000 x31=0xdfbf836d
       23725000	      2371	80001674	97afd417	auipc	x8,0x97afd	  x8=0x17afe670
       23735000	      2372	80001678	00726233	or	x4,x4,x7	  x4:0x05fbee3a  x7:0x00000001  x4=0x05fbee3b
       23745000	      2373	8000167c	3948b713	sltiu	x14,x17,916	 x17:0x6754c000 x14=0x00000000
       23755000	      2374	80001680	01e71313	slli	x6,x14,0x1e	 x14:0x00000000  x6=0x00000000
       23765000	      2375	80001684	019d74b3	and	x9,x26,x25	 x26:0x00000001 x25:0x80009fc4  x9=0x00000000
       23775000	      2376	80001688	013e4033	xor	x0,x28,x19	 x28:0x00000000 x19:0x00000000
       23785000	      2377	8000168c	00f90fb3	add	x31,x18,x15	 x18:0x00000000 x15:0x1020c712 x31=0x1020c712
       23795000	      2378	80001690	41a75313	srai	x6,x14,0x1a	 x14:0x00000000  x6=0x00000000
       23805000	      2379	80001694	40980533	sub	x10,x16,x9	 x16:0x06766c80  x9:0x00000000 x10=0x06766c80
       23815000	      2380	80001698	5a6f6913	ori	x18,x30,1446	 x30:0x80009fc4 x18=0x80009fe6
       23825000	      2381	8000169c	016d9313	slli	x6,x27,0x16	 x27:0x80009f04  x6=0xc1000000
       23835000	      2382	800016a0	00566633	or	x12,x12,x5	 x12:0x00000000  x5:0x00006fdf x12=0x00006fdf
       23845000	      2383	800016a4	00cb1213	slli	x4,x22,0xc	 x22:0x00000000  x4=0x00000000
       23855000	      2384	800016a8	3dedf0b7	lui	x1,0x3dedf	  x1=0x3dedf000
       23865000	      2385	800016ac	01bd0863	beq	x26,x27,800016bc	 x26:0x00000001 x27:0x80009f04
       23875000	      2386	800016b0	0360dc63	bge	x1,x22,800016e8	  x1:0x3dedf000 x22:0x00000000
       23885000	      2387	00000000	00000013	addi	x0,x0,0	  x0:0x00000000
       23895000	      2388	800016e4	00000013	addi	x0,x0,0	  x0:0x00000000
       23905000	      2389	800016e8	4bb56613	ori	x12,x10,1211	 x10:0x06766c80 x12=0x06766cbb
       23915000	      2390	800016ec	ac100b93	addi	x23,x0,-1343	  x0:0x00000000 x23=0xfffffac1
       23925000	      2391	800016f0	0954c463	blt	x9,x21,80001778	  x9:0x00000000 x21:0x2f07f000
       23935000	      2392	00000000	00000013	addi	x0,x0,0	  x0:0x00000000
       23945000	      2393	80001774	00000013	addi	x0,x0,0	  x0:0x00000000
       23955000	      2394	80001778	cb7d4593	xori	x11,x26,-841	 x26:0x00000001 x11=0xfffffcb6
       23965000	      2395	8000177c	34422c13	slti	x24,x4,836	  x4:0x00000000 x24=0x00000001
       23975000	      2396	80001780	03b66063	bltu	x12,x27,800017a0	 x12:0x06766cbb x27:0x80009f04
       23985000	      2397	00000000	00000013	addi	x0,x0,0	  x0:0x00000000
       23995000	      2398	8000179c	00000013	addi	x0,x0,0	  x0:0x00000000
       24005000	      2399	800017a0	050fd863	bge	x31,x16,800017f0	 x31:0x1020c712 x16:0x06766c80
       24015000	      2400	00000000	00000013	addi	x0,x0,0	  x0:0x00000000
       24025000	      2401	800017ec	00000013	addi	x0,x0,0	  x0:0x00000000
       24035000	      2402	800017f0	018ad413	srli	x8,x21,0x18	 x21:0x2f07f000  x8=0x0000002f
       24045000	      2403	800017f4	006f24b3	slt	x9,x30,x6	 x30:0x80009fc4  x6:0xc1000000  x9=0x00000001
       24055000	      2404	800017f8	408605b3	sub	x11,x12,x8	 x12:0x06766cbb  x8:0x0000002f x11=0x06766c8c
       24065000	      2405	800017fc	01064a63	blt	x12,x16,80001810	 x12:0x06766cbb x16:0x06766c80
       24075000	      2406	80001800	015a6863	bltu	x20,x21,80001810	 x20:0x6754c000 x21:0x2f07f000
       24085000	      2407	80001804	401a5a13	srai	x20,x20,0x1	 x20:0x6754c000 x20=0x33aa6000
       24095000	      2408	80001808	b0da2f93	slti	x31,x20,-1267	 x20:0x33aa6000 x31=0x00000000
       24105000	      2409	8000180c	026c5863	bge	x24,x6,8000183c	 x24:0x00000001  x6:0xc1000000
       24115000	      2410	00000000	00000013	addi	x0,x0,0	  x0:0x00000000
       24125000	      2411	80001838	00000013	addi	x0,x0,0	  x0:0x00000000
       24135000	      2412	8000183c	008e1bb3	sll	x23,x28,x8	 x28:0x00000000  x8:0x0000002f x23=0x00000000
       24145000	      2413	80001840	00701333	sll	x6,x0,x7	  x0:0x00000000  x7:0x00000001  x6=0x00000000
       24155000	      2414	80001844	016b97b3	sll	x15,x23,x22	 x23:0x00000000 x22:0x00000000 x15=0x00000000
       24165000	      2415	80001848	007dccb3	xor	x25,x27,x7	 x27:0x80009f04  x7:0x00000001 x25=0x80009f05
       24175000	      2416	8000184c	03aae463	bltu	x21,x26,80001874	 x21:0x2f07f000 x26:0x00000001
       24185000	      2417	80001850	030c6863	bltu	x24,x16,80001880	 x24:0x00000001 x16:0x06766c80
       24195000	      2418	00000000	00000013	addi	x0,x0,0	  x0:0x00000000
       24205000	      2419	8000187c	00000013	addi	x0,x0,0	  x0:0x00000000
       24215000	      2420	80001880	00000013	addi	x0,x0,0	  x0:0x00000000
       24225000	      2421	80001884	002fc8b3	xor	x17,x31,x2	 x31:0x00000000  x2:0x00000000 x17=0x00000000
       24235000	      2422	80001888	d0b03513	sltiu	x10,x0,-757	  x0:0x00000000 x10=0x00000001
       24245000	      2423	8000188c	017bdbb3	srl	x23,x23,x23	 x23:0x00000000 x23:0x00000000 x23=0x00000000
       24255000	      2424	80001890	b5affb13	andi	x22,x31,-1190	 x31:0x00000000 x22=0x00000000
       24265000	      2425	80001894	002b1c33	sll	x24,x22,x2	 x22:0x00000000  x2:0x00000000 x24=0x00000000
       24275000	      2426	80001898	40ac05b3	sub	x11,x24,x10	 x24:0x00000000 x10:0x00000001 x11=0xffffffff
       24285000	      2427	8000189c	014183b3	add	x7,x3,x20	  x3:0x00000000 x20:0x33aa6000  x7=0x33aa6000
       24295000	      2428	800018a0	00000013	addi	x0,x0,0	  x0:0x00000000
       24305000	      2429	800018a4	40de59b3	sra	x19,x28,x13	 x28:0x00000000 x13:0x0000000f x19=0x00000000
       24315000	      2430	800018a8	416e5613	srai	x12,x28,0x16	 x28:0x00000000 x12=0x00000000
       24325000	      2431	800018ac	015d07b3	add	x15,x26,x21	 x26:0x00000001 x21:0x2f07f000 x15=0x2f07f001
       24335000	      2432	800018b0	00c95e13	srli	x28,x18,0xc	 x18:0x80009fe6 x28=0x00080009
       24345000	      2433	800018b4	01009d13	slli	x26,x1,0x10	  x1:0x3dedf000 x26=0xf0000000
       24355000	      2434	800018b8	01d08a33	add	x20,x1,x29	  x1:0x3dedf000 x29:0x00000000 x20=0x3dedf000
       24365000	      2435	800018bc	b47552b7	lui	x5,0xb4755	  x5=0xb4755000
       24375000	      2436	800018c0	04e04463	blt	x0,x14,80001908	  x0:0x00000000 x14:0x00000000
       24385000	      2437	800018c4	f1cbfa97	auipc	x21,0xf1cbf	 x21=0x71cc08c0
       24395000	      2438	800018c8	007b9c93	slli	x25,x23,0x7	 x23:0x00000000 x25=0x00000000
       24405000	      2439	800018cc	020f4063	blt	x30,x0,800018ec	 x30:0x80009fc4  x0:0x00000000
       24415000	      2440	00000000	00000013	addi	x0,x0,0	  x0:0x00000000
       24425000	      2441	800018e8	00000013	addi	x0,x0,0	  x0:0x00000000
       24435000	      2442	800018ec	01a25eb3	srl	x29,x4,x26	  x4:0x00000000 x26:0xf0000000 x29=0x00000000
       24445000	      2443	800018f0	44468b13	addi	x22,x13,1092	 x13:0x0000000f x22=0x00000453
       24455000	      2444	800018f4	407bdbb3	sra	x23,x23,x7	 x23:0x00000000  x7:0x33aa6000 x23=0x00000000
       24465000	      2445	800018f8	bad87313	andi	x6,x16,-1107	 x16:0x06766c80  x6=0x06766880
       24475000	      2446	800018fc	049b6263	bltu	x22,x9,80001940	 x22:0x00000453  x9:0x00000001
       24485000	      2447	80001900	41035cb3	sra	x25,x6,x16	  x6:0x06766880 x16:0x06766c80 x25=0x06766880
       24495000	      2448	80001904	0187f633	and	x12,x15,x24	 x15:0x2f07f001 x24:0x00000000 x12=0x00000000
       24505000	      2449	80001908	037c0a63	beq	x24,x23,8000193c	 x24:0x00000000 x23:0x00000000
       24515000	      2450	00000000	00000013	addi	x0,x0,0	  x0:0x00000000
       24525000	      2451	80001938	00000013	addi	x0,x0,0	  x0:0x00000000
       24535000	      2452	8000193c	01d15093	srli	x1,x2,0x1d	  x2:0x00000000  x1=0x00000000
       24545000	      2453	80001940	0054c1b3	xor	x3,x9,x5	  x9:0x00000001  x5:0xb4755000  x3=0xb4755001
       24555000	      2454	80001944	00e42eb3	slt	x29,x8,x14	  x8:0x0000002f x14:0x00000000 x29=0x00000000
       24565000	      2455	80001948	00000013	addi	x0,x0,0	  x0:0x00000000
       24575000	      2456	8000194c	dc6d7113	andi	x2,x26,-570	 x26:0xf0000000  x2=0xf0000000
       24585000	      2457	80001950	41dede93	srai	x29,x29,0x1d	 x29:0x00000000 x29=0x00000000
       24595000	      2458	80001954	05d9e463	bltu	x19,x29,8000199c	 x19:0x00000000 x29:0x00000000
       24605000	      2459	80001958	00759eb3	sll	x29,x11,x7	 x11:0xffffffff  x7:0x33aa6000 x29=0xffffffff
       24615000	      2460	8000195c	d58b0637	lui	x12,0xd58b0	 x12=0xd58b0000
       24625000	      2461	80001960	40e187b3	sub	x15,x3,x14	  x3:0xb4755001 x14:0x00000000 x15=0xb4755001
       24635000	      2462	80001964	76218d17	auipc	x26,0x76218	 x26=0xf6219960
       24645000	      2463	80001968	17350a13	addi	x20,x10,371	 x10:0x00000001 x20=0x00000174
       24655000	      2464	8000196c	011493b3	sll	x7,x9,x17	  x9:0x00000001 x17:0x00000000  x7=0x00000001
       24665000	      2465	80001970	019d1663	bne	x26,x25,8000197c	 x26:0xf6219960 x25:0x06766880
       24675000	      2466	00000000	00000013	addi	x0,x0,0	  x0:0x00000000
       24685000	      2467	80001978	00000013	addi	x0,x0,0	  x0:0x00000000
       24695000	      2468	8000197c	0be52913	slti	x18,x10,190	 x10:0x00000001 x18=0x00000001
       24705000	      2469	80001980	01d837b3	sltu	x15,x16,x29	 x16:0x06766c80 x29:0xffffffff x15=0x00000001
       24715000	      2470	80001984	73822b97	auipc	x23,0x73822	 x23=0xf3823980
       24725000	      2471	80001988	011d5913	srli	x18,x26,0x11	 x26:0xf6219960 x18=0x00007b10
       24735000	      2472	8000198c	007c5713	srli	x14,x24,0x7	 x24:0x00000000 x14=0x00000000
       24745000	      2473	80001990	01af32b3	sltu	x5,x30,x26	 x30:0x80009fc4 x26:0xf6219960  x5=0x00000001
       24755000	      2474	80001994	00704233	xor	x4,x0,x7	  x0:0x00000000  x7:0x00000001  x4=0x00000001
       24765000	      2475	80001998	000e3e33	sltu	x28,x28,x0	 x28:0x00080009  x0:0x00000000 x28=0x00000000
       24775000	      2476	8000199c	01db1193	slli	x3,x22,0x1d	 x22:0x00000453  x3=0x60000000
       24785000	      2477	800019a0	41870fb3	sub	x31,x14,x24	 x14:0x00000000 x24:0x00000000 x31=0x00000000
       24795000	      2478	800019a4	02350463	beq	x10,x3,800019cc	 x10:0x00000001  x3:0x60000000
       24805000	      2479	800019a8	403cdcb3	sra	x25,x25,x3	 x25:0x06766880  x3:0x60000000 x25=0x06766880
       24815000	      2480	800019ac	028e0c63	beq	x28,x8,800019e4	 x28:0x00000000  x8:0x0000002f
       24825000	      2481	800019b0	c1889037	lui	x0,0xc1889	
       24835000	      2482	800019b4	00ef01b3	add	x3,x30,x14	 x30:0x80009fc4 x14:0x00000000  x3=0x80009fc4
       24845000	      2483	800019b8	04ece463	bltu	x25,x14,80001a00	 x25:0x06766880 x14:0x00000000
       24855000	      2484	800019bc	41f78333	sub	x6,x15,x31	 x15:0x00000001 x31:0x00000000  x6=0x00000001
       24865000	      2485	800019c0	31b94c37	lui	x24,0x31b94	 x24=0x31b94000
       24875000	      2486	800019c4	89efb713	sltiu	x14,x31,-1890	 x31:0x00000000 x14=0x00000001
       24885000	      2487	800019c8	b9f6d397	auipc	x7,0xb9f6d	  x7=0x39f6e9c4
       24895000	      2488	800019cc	02817863	bgeu	x2,x8,800019fc	  x2:0xf0000000  x8:0x0000002f
       24905000	      2489	00000000	00000013	addi	x0,x0,0	  x0:0x00000000
       24915000	      2490	800019f8	00000013	addi	x0,x0,0	  x0:0x00000000
       24925000	      2491	800019fc	9c9f3313	sltiu	x6,x30,-1591	 x30:0x80009fc4  x6=0x00000001
       24935000	      2492	80001a00	01850463	beq	x10,x24,80001a08	 x10:0x00000001 x24:0x31b94000
       24945000	      2493	80001a04	82319517	auipc	x10,0x82319	 x10=0x0231aa00
       24955000	      2494	80001a08	1252c913	xori	x18,x5,293	  x5:0x00000001 x18=0x00000124
       24965000	      2495	80001a0c	ba677437	lui	x8,0xba677	  x8=0xba677000
       24975000	      2496	80001a10	00f2da13	srli	x20,x5,0xf	  x5:0x00000001 x20=0x00000000
       24985000	      2497	80001a14	00000013	addi	x0,x0,0	  x0:0x00000000
       24995000	      2498	80001a18	013cc863	blt	x25,x19,80001a28	 x25:0x06766880 x19:0x00000000
       25005000	      2499	80001a1c	007f4733	xor	x14,x30,x7	 x30:0x80009fc4  x7:0x39f6e9c4 x14=0xb9f67600
       25015000	      2500	80001a20	01c77fb3	and	x31,x14,x28	 x14:0xb9f67600 x28:0x00000000 x31=0x00000000
       25025000	      2501	80001a24	018845b3	xor	x11,x16,x24	 x16:0x06766c80 x24:0x31b94000 x11=0x37cf2c80
       25035000	      2502	80001a28	548fab97	auipc	x23,0x548fa	 x23=0xd48fba24
       25045000	      2503	80001a2c	0189f7b3	and	x15,x19,x24	 x19:0x00000000 x24:0x31b94000 x15=0x00000000
       25055000	      2504	80001a30	40005ab3	sra	x21,x0,x0	  x0:0x00000000  x0:0x00000000 x21=0x00000000
       25065000	      2505	80001a34	0357d863	bge	x15,x21,80001a64	 x15:0x00000000 x21:0x00000000
       25075000	      2506	00000000	00000013	addi	x0,x0,0	  x0:0x00000000
       25085000	      2507	80001a60	00000013	addi	x0,x0,0	  x0:0x00000000
       25095000	      2508	80001a64	cac64393	xori	x7,x12,-852	 x12:0xd58b0000  x7=0x2a74fcac
       25105000	      2509	80001a68	6e414a13	xori	x20,x2,1764	  x2:0xf0000000 x20=0xf00006e4
       25115000	      2510	80001a6c	00549bb3	sll	x23,x9,x5	  x9:0x00000001  x5:0x00000001 x23=0x00000002
       25125000	      2511	80001a70	03898863	beq	x19,x24,80001aa0	 x19:0x00000000 x24:0x31b94000
       25135000	      2512	80001a74	01bb9eb3	sll	x29,x23,x27	 x23:0x00000002 x27:0x80009f04 x29=0x00000020
       25145000	      2513	80001a78	47a08e93	addi	x29,x1,1146	  x1:0x00000000 x29=0x0000047a
       25155000	      2514	80001a7c	d426a913	slti	x18,x13,-702	 x13:0x0000000f x18=0x00000000
       25165000	      2515	80001a80	005e8533	add	x10,x29,x5	 x29:0x0000047a  x5:0x00000001 x10=0x0000047b
       25175000	      2516	80001a84	013c4b33	xor	x22,x24,x19	 x24:0x31b94000 x19:0x00000000 x22=0x31b94000
       25185000	      2517	80001a88	00d68233	add	x4,x13,x13	 x13:0x0000000f x13:0x0000000f  x4=0x0000001e
       25195000	      2518	80001a8c	00a87263	bgeu	x16,x10,80001a90	 x16:0x06766c80 x10:0x0000047b
       25205000	      2519	00000000	00000013	addi	x0,x0,0	  x0:0x00000000
       25215000	      2520	80001a8c	00000013	addi	x0,x0,0	  x0:0x00000000
       25225000	      2521	80001a90	01bd6c63	bltu	x26,x27,80001aa8	 x26:0xf6219960 x27:0x80009f04
       25235000	      2522	80001a94	527bf893	andi	x17,x23,1319	 x23:0x00000002 x17=0x00000002
       25245000	      2523	80001a98	02c74863	blt	x14,x12,80001ac8	 x14:0xb9f67600 x12:0xd58b0000
       25255000	      2524	00000000	00000013	addi	x0,x0,0	  x0:0x00000000
       25265000	      2525	80001ac4	00000013	addi	x0,x0,0	  x0:0x00000000
       25275000	      2526	80001ac8	01ec1d13	slli	x26,x24,0x1e	 x24:0x31b94000 x26=0x00000000
       25285000	      2527	80001acc	6c5dae13	slti	x28,x27,1733	 x27:0x80009f04 x28=0x00000001
       25295000	      2528	80001ad0	044ce863	bltu	x25,x4,80001b20	 x25:0x06766880  x4:0x0000001e
       25305000	      2529	80001ad4	002eb5b3	sltu	x11,x29,x2	 x29:0x0000047a  x2:0xf0000000 x11=0x00000001
       25315000	      2530	80001ad8	013fce63	blt	x31,x19,80001af4	 x31:0x00000000 x19:0x00000000
       25325000	      2531	80001adc	053ee863	bltu	x29,x19,80001b2c	 x29:0x0000047a x19:0x00000000
       25335000	      2532	80001ae0	00128533	add	x10,x5,x1	  x5:0x00000001  x1:0x00000000 x10=0x00000001
       25345000	      2533	80001ae4	01e43133	sltu	x2,x8,x30	  x8:0xba677000 x30:0x80009fc4  x2=0x00000000
       25355000	      2534	80001ae8	00c9a833	slt	x16,x19,x12	 x19:0x00000000 x12:0xd58b0000 x16=0x00000000
       25365000	      2535	80001aec	00fbee63	bltu	x23,x15,80001b08	 x23:0x00000002 x15:0x00000000
       25375000	      2536	80001af0	0003ca63	blt	x7,x0,80001b04	  x7:0x2a74fcac  x0:0x00000000
       25385000	      2537	80001af4	05da7863	bgeu	x20,x29,80001b44	 x20:0xf00006e4 x29:0x0000047a
       25395000	      2538	00000000	00000013	addi	x0,x0,0	  x0:0x00000000
       25405000	      2539	80001b40	00000013	addi	x0,x0,0	  x0:0x00000000
       25415000	      2540	80001b44	010ef833	and	x16,x29,x16	 x29:0x0000047a x16:0x00000000 x16=0x00000000
       25425000	      2541	80001b48	01f18733	add	x14,x3,x31	  x3:0x80009fc4 x31:0x00000000 x14=0x80009fc4
       25435000	      2542	80001b4c	9025c813	xori	x16,x11,-1790	 x11:0x00000001 x16=0xfffff903
       25445000	      2543	80001b50	00eea193	slti	x3,x29,14	 x29:0x0000047a  x3=0x00000000
       25455000	      2544	80001b54	01537333	and	x6,x6,x21	  x6:0x00000001 x21:0x00000000  x6=0x00000000
       25465000	      2545	80001b58	01a88c63	beq	x17,x26,80001b70	 x17:0x00000002 x26:0x00000000
       25475000	      2546	80001b5c	74eb0393	addi	x7,x22,1870	 x22:0x31b94000  x7=0x31b9474e
       25485000	      2547	80001b60	00980863	beq	x16,x9,80001b70	 x16:0xfffff903  x9:0x00000001
       25495000	      2548	80001b64	03a27863	bgeu	x4,x26,80001b94	  x4:0x0000001e x26:0x00000000
       25505000	      2549	00000000	00000013	addi	x0,x0,0	  x0:0x00000000
       25515000	      2550	80001b90	00000013	addi	x0,x0,0	  x0:0x00000000
       25525000	      2551	80001b94	00ab6263	bltu	x22,x10,80001b98	 x22:0x31b94000 x10:0x00000001
       25535000	      2552	80001b98	002a5b33	srl	x22,x20,x2	 x20:0xf00006e4  x2:0x00000000 x22=0xf00006e4
       25545000	      2553	80001b9c	4cb12c13	slti	x24,x2,1227	  x2:0x00000000 x24=0x00000001
       25555000	      2554	80001ba0	9c940793	addi	x15,x8,-1591	  x8:0xba677000 x15=0xba6769c9
       25565000	      2555	80001ba4	417d5413	srai	x8,x26,0x17	 x26:0x00000000  x8=0x00000000
       25575000	      2556	80001ba8	005c0eb3	add	x29,x24,x5	 x24:0x00000001  x5:0x00000001 x29=0x00000002
       25585000	      2557	80001bac	04a6e863	bltu	x13,x10,80001bfc	 x13:0x0000000f x10:0x00000001
       25595000	      2558	80001bb0	41e88c33	sub	x24,x17,x30	 x17:0x00000002 x30:0x80009fc4 x24=0x7fff603e
       25605000	      2559	80001bb4	001bcbb3	xor	x23,x23,x1	 x23:0x00000002  x1:0x00000000 x23=0x00000002
       25615000	      2560	80001bb8	55e609b7	lui	x19,0x55e60	 x19=0x55e60000
       25625000	      2561	80001bbc	bc7fb513	sltiu	x10,x31,-1081	 x31:0x00000000 x10=0x00000001
       25635000	      2562	80001bc0	b230c217	auipc	x4,0xb230c	  x4=0x3230dbbc
       25645000	      2563	80001bc4	015f1033	sll	x0,x30,x21	 x30:0x80009fc4 x21:0x00000000
       25655000	      2564	80001bc8	40600233	sub	x4,x0,x6	  x0:0x00000000  x6:0x00000000  x4=0x00000000
       25665000	      2565	80001bcc	b0a4ae93	slti	x29,x9,-1270	  x9:0x00000001 x29=0x00000000
       25675000	      2566	80001bd0	47c20213	addi	x4,x4,1148	  x4:0x00000000  x4=0x0000047c
       25685000	      2567	80001bd4	a046ba93	sltiu	x21,x13,-1532	 x13:0x0000000f x21=0x00000001
       25695000	      2568	80001bd8	ef256313	ori	x6,x10,-270	 x10:0x00000001  x6=0xfffffef3
       25705000	      2569	80001bdc	01c7da13	srli	x20,x15,0x1c	 x15:0xba6769c9 x20=0x0000000b
       25715000	      2570	80001be0	a9c3e617	auipc	x12,0xa9c3e	 x12=0x29c3fbdc
       25725000	      2571	80001be4	012a5533	srl	x10,x20,x18	 x20:0x0000000b x18:0x00000000 x10=0x0000000b
       25735000	      2572	80001be8	016591b3	sll	x3,x11,x22	 x11:0x00000001 x22:0xf00006e4  x3=0x00000010
       25745000	      2573	80001bec	00831c63	bne	x6,x8,80001c04	  x6:0xfffffef3  x8:0x00000000
       25755000	      2574	00000000	00000013	addi	x0,x0,0	  x0:0x00000000
       25765000	      2575	80001c00	00000013	addi	x0,x0,0	  x0:0x00000000
       25775000	      2576	80001c04	010f59b3	srl	x19,x30,x16	 x30:0x80009fc4 x16:0xfffff903 x19=0x100013f8
       25785000	      2577	80001c08	004dad03	lw	x26,4(x27)	 x27:0x80009f04 x26=0x80001c68 PA:0x80009f08
       25795000	      2578	80001c0c	001b9c13	slli	x24,x23,0x1	 x23:0x00000002 x24=0x00000004
       25805000	      2579	80001c10	bc0c2193	slti	x3,x24,-1088	 x24:0x00000004  x3=0x00000000
       25815000	      2580	80001c14	040d8d93	addi	x27,x27,64	 x27:0x80009f04 x27=0x80009f44
       25825000	      2581	80001c18	f4ce85b7	lui	x11,0xf4ce8	 x11=0xf4ce8000
       25835000	      2582	80001c1c	001d0913	addi	x18,x26,1	 x26:0x80001c68 x18=0x80001c69
       25845000	      2583	80001c20	00090967	jalr	x18,x18,0	 x18:0x80001c69 x18=0x80001c20
       25855000	      2584	00000000	00000013	addi	x0,x0,0	  x0:0x00000000
       25865000	      2585	80001c68	00000013	addi	x0,x0,0	  x0:0x00000000
       25875000	      2586	80001c6c	ff800a93	addi	x21,x0,-8	  x0:0x00000000 x21=0xfffffff8
       25885000	      2587	80001c70	00e487b3	add	x15,x9,x14	  x9:0x00000001 x14:0x80009fc4 x15=0x80009fc5
       25895000	      2588	80001c74	0948f293	andi	x5,x17,148	 x17:0x00000002  x5=0x00000000
       25905000	      2589	80001c78	8eb1c297	auipc	x5,0x8eb1c	  x5=0x0eb1dc74
       25915000	      2590	80001c7c	0080e633	or	x12,x1,x8	  x1:0x00000000  x8:0x00000000 x12=0x00000000
       25925000	      2591	80001c80	f3808313	addi	x6,x1,-200	  x1:0x00000000  x6=0xffffff38
       25935000	      2592	80001c84	a2b33593	sltiu	x11,x6,-1493	  x6:0xffffff38 x11=0x00000000
       25945000	      2593	80001c88	40b6d3b3	sra	x7,x13,x11	 x13:0x0000000f x11:0x00000000  x7=0x0000000f
       25955000	      2594	80001c8c	31e7ed17	auipc	x26,0x31e7e	 x26=0xb1e7fc88
       25965000	      2595	80001c90	00700e93	addi	x29,x0,7	  x0:0x00000000 x29=0x00000007
       25975000	      2596	80001c94	ec10e893	ori	x17,x1,-319	  x1:0x00000000 x17=0xfffffec1
       25985000	      2597	80001c98	41868733	sub	x14,x13,x24	 x13:0x0000000f x24:0x00000004 x14=0x0000000b
       25995000	      2598	80001c9c	4f7a3937	lui	x18,0x4f7a3	 x18=0x4f7a3000
       26005000	      2599	80001ca0	017405b3	add	x11,x8,x23	  x8:0x00000000 x23:0x00000002 x11=0x00000002
       26015000	      2600	80001ca4	00aa8a93	addi	x21,x21,10	 x21:0xfffffff8 x21=0x00000002
       26025000	      2601	80001ca8	913be313	ori	x6,x23,-1773	 x23:0x00000002  x6=0xfffff913
       26035000	      2602	80001cac	0023e393	ori	x7,x7,2	  x7:0x0000000f  x7=0x0000000f
       26045000	      2603	80001cb0	00d0efb3	or	x31,x1,x13	  x1:0x00000000 x13:0x0000000f x31=0x0000000f
       26055000	      2604	80001cb4	93314f93	xori	x31,x2,-1741	  x2:0x00000000 x31=0xfffff933
       26065000	      2605	80001cb8	d6e33897	auipc	x17,0xd6e33	 x17=0x56e34cb4
       26075000	      2606	80001cbc	7c982f93	slti	x31,x16,1993	 x16:0xfffff903 x31=0x00000001
       26085000	      2607	80001cc0	fddacee3	blt	x21,x29,80001c9c	 x21:0x00000002 x29:0x00000007
       26095000	      2608	00000000	00000013	addi	x0,x0,0	  x0:0x00000000
       26105000	      2609	80001c98	00000013	addi	x0,x0,0	  x0:0x00000000
       26115000	      2610	80001c9c	4f7a3937	lui	x18,0x4f7a3	 x18=0x4f7a3000
       26125000	      2611	80001ca0	017405b3	add	x11,x8,x23	  x8:0x00000000 x23:0x00000002 x11=0x00000002
       26135000	      2612	80001ca4	00aa8a93	addi	x21,x21,10	 x21:0x00000002 x21=0x0000000c
       26145000	      2613	80001ca8	913be313	ori	x6,x23,-1773	 x23:0x00000002  x6=0xfffff913
       26155000	      2614	80001cac	0023e393	ori	x7,x7,2	  x7:0x0000000f  x7=0x0000000f
       26165000	      2615	80001cb0	00d0efb3	or	x31,x1,x13	  x1:0x00000000 x13:0x0000000f x31=0x0000000f
       26175000	      2616	80001cb4	93314f93	xori	x31,x2,-1741	  x2:0x00000000 x31=0xfffff933
       26185000	      2617	80001cb8	d6e33897	auipc	x17,0xd6e33	 x17=0x56e34cb4
       26195000	      2618	80001cbc	7c982f93	slti	x31,x16,1993	 x16:0xfffff903 x31=0x00000001
       26205000	      2619	80001cc0	fddacee3	blt	x21,x29,80001c9c	 x21:0x0000000c x29:0x00000007
       26215000	      2620	80001cc4	00a93033	sltu	x0,x18,x10	 x18:0x4f7a3000 x10:0x0000000b
       26225000	      2621	80001cc8	00800e13	addi	x28,x0,8	  x0:0x00000000 x28=0x00000008
       26235000	      2622	80001ccc	00000013	addi	x0,x0,0	  x0:0x00000000
       26245000	      2623	80001cd0	004717b3	sll	x15,x14,x4	 x14:0x0000000b  x4:0x0000047c x15=0xb0000000
       26255000	      2624	80001cd4	011fa033	slt	x0,x31,x17	 x31:0x00000001 x17:0x56e34cb4
       26265000	      2625	80001cd8	00800d13	addi	x26,x0,8	  x0:0x00000000 x26=0x00000008
       26275000	      2626	80001cdc	01e76c33	or	x24,x14,x30	 x14:0x0000000b x30:0x80009fc4 x24=0x80009fcf
       26285000	      2627	80001ce0	0156a533	slt	x10,x13,x21	 x13:0x0000000f x21:0x0000000c x10=0x00000000
       26295000	      2628	80001ce4	40913113	sltiu	x2,x2,1033	  x2:0x00000000  x2=0x00000001
       26305000	      2629	80001ce8	ffae0e13	addi	x28,x28,-6	 x28:0x00000008 x28=0x00000002
       26315000	      2630	80001cec	00100593	addi	x11,x0,1	  x0:0x00000000 x11=0x00000001
       26325000	      2631	80001cf0	a9b74793	xori	x15,x14,-1381	 x14:0x0000000b x15=0xfffffa90
       26335000	      2632	80001cf4	ff600093	addi	x1,x0,-10	  x0:0x00000000  x1=0xfffffff6
       26345000	      2633	80001cf8	48f2a913	slti	x18,x5,1167	  x5:0x0eb1dc74 x18=0x00000000
       26355000	      2634	80001cfc	ff958593	addi	x11,x11,-7	 x11:0x00000001 x11=0xfffffffa
       26365000	      2635	80001d00	00ba9c33	sll	x24,x21,x11	 x21:0x0000000c x11:0xfffffffa x24=0x30000000
       26375000	      2636	80001d04	fe15dae3	bge	x11,x1,80001cf8	 x11:0xfffffffa  x1:0xfffffff6
       26385000	      2637	00000000	00000013	addi	x0,x0,0	  x0:0x00000000
       26395000	      2638	80001cf4	00000013	addi	x0,x0,0	  x0:0x00000000
       26405000	      2639	80001cf8	48f2a913	slti	x18,x5,1167	  x5:0x0eb1dc74 x18=0x00000000
       26415000	      2640	80001cfc	ff958593	addi	x11,x11,-7	 x11:0xfffffffa x11=0xfffffff3
       26425000	      2641	80001d00	00ba9c33	sll	x24,x21,x11	 x21:0x0000000c x11:0xfffffff3 x24=0x00600000
       26435000	      2642	80001d04	fe15dae3	bge	x11,x1,80001cf8	 x11:0xfffffff3  x1:0xfffffff6
       26445000	      2643	80001d08	e7b73013	sltiu	x0,x14,-389	 x14:0x0000000b
       26455000	      2644	80001d0c	fdae7ae3	bgeu	x28,x26,80001ce0	 x28:0x00000002 x26:0x00000008
       26465000	      2645	80001d10	00651a13	slli	x20,x10,0x6	 x10:0x00000000 x20=0x00000000
       26475000	      2646	80001d14	00100213	addi	x4,x0,1	  x0:0x00000000  x4=0x00000001
       26485000	      2647	80001d18	00481eb3	sll	x29,x16,x4	 x16:0xfffff903  x4:0x00000001 x29=0xfffff206
       26495000	      2648	80001d1c	00bf1a33	sll	x20,x30,x11	 x30:0x80009fc4 x11:0xfffffff3 x20=0xfe200000
       26505000	      2649	80001d20	41ba0133	sub	x2,x20,x27	 x20:0xfe200000 x27:0x80009f44  x2=0x7e1f60bc
       26515000	      2650	80001d24	0140a4b3	slt	x9,x1,x20	  x1:0xfffffff6 x20:0xfe200000  x9=0x00000000
       26525000	      2651	80001d28	41155433	sra	x8,x10,x17	 x10:0x00000000 x17:0x56e34cb4  x8=0x00000000
       26535000	      2652	80001d2c	7fdd42b7	lui	x5,0x7fdd4	  x5=0x7fdd4000
       26545000	      2653	80001d30	00c82eb3	slt	x29,x16,x12	 x16:0xfffff903 x12:0x00000000 x29=0x00000001
       26555000	      2654	80001d34	017089b3	add	x19,x1,x23	  x1:0xfffffff6 x23:0x00000002 x19=0xfffffff8
       26565000	      2655	80001d38	01300c13	addi	x24,x0,19	  x0:0x00000000 x24=0x00000013
       26575000	      2656	80001d3c	01ce5913	srli	x18,x28,0x1c	 x28:0x00000002 x18=0x00000000
       26585000	      2657	80001d40	00000013	addi	x0,x0,0	  x0:0x00000000
       26595000	      2658	80001d44	01d19993	slli	x19,x3,0x1d	  x3:0x00000000 x19=0x00000000
       26605000	      2659	80001d48	002bb433	sltu	x8,x23,x2	 x23:0x00000002  x2:0x7e1f60bc  x8=0x00000001
       26615000	      2660	80001d4c	00920213	addi	x4,x4,9	  x4:0x00000001  x4=0x0000000a
       26625000	      2661	80001d50	00000013	addi	x0,x0,0	  x0:0x00000000
       26635000	      2662	80001d54	007e9bb3	sll	x23,x29,x7	 x29:0x00000001  x7:0x0000000f x23=0x00008000
       26645000	      2663	80001d58	01e60333	add	x6,x12,x30	 x12:0x00000000 x30:0x80009fc4  x6=0x80009fc4
       26655000	      2664	80001d5c	01289a33	sll	x20,x17,x18	 x17:0x56e34cb4 x18:0x00000000 x20=0x56e34cb4
       26665000	      2665	80001d60	419d5933	sra	x18,x26,x25	 x26:0x00000008 x25:0x06766880 x18=0x00000008
       26675000	      2666	80001d64	01209b93	slli	x23,x1,0x12	  x1:0xfffffff6 x23=0xffd80000
       26685000	      2667	80001d68	012d7433	and	x8,x26,x18	 x26:0x00000008 x18:0x00000008  x8=0x00000008
       26695000	      2668	80001d6c	00711613	slli	x12,x2,0x7	  x2:0x7e1f60bc x12=0x0fb05e00
       26705000	      2669	80001d70	00c09c93	slli	x25,x1,0xc	  x1:0xfffffff6 x25=0xffff6000
       26715000	      2670	80001d74	fd820ae3	beq	x4,x24,80001d48	  x4:0x0000000a x24:0x00000013
       26725000	      2671	80001d78	3ad9f913	andi	x18,x19,941	 x19:0x00000000 x18=0x00000000
       26735000	      2672	80001d7c	ffb00b13	addi	x22,x0,-5	  x0:0x00000000 x22=0xfffffffb
       26745000	      2673	80001d80	01418333	add	x6,x3,x20	  x3:0x00000000 x20:0x56e34cb4  x6=0x56e34cb4
       26755000	      2674	80001d84	ff300913	addi	x18,x0,-13	  x0:0x00000000 x18=0xfffffff3
       26765000	      2675	80001d88	b840a717	auipc	x14,0xb840a	 x14=0x3840bd84
       26775000	      2676	80001d8c	01c55333	srl	x6,x10,x28	 x10:0x00000000 x28:0x00000002  x6=0x00000000
       26785000	      2677	80001d90	37920013	addi	x0,x4,889	  x4:0x0000000a
       26795000	      2678	80001d94	6c1ea113	slti	x2,x29,1729	 x29:0x00000001  x2=0x00000001
       26805000	      2679	80001d98	e9770997	auipc	x19,0xe9770	 x19=0x69771d94
       26815000	      2680	80001d9c	ff8b0b13	addi	x22,x22,-8	 x22:0xfffffffb x22=0xfffffff3
       26825000	      2681	80001da0	00599593	slli	x11,x19,0x5	 x19:0x69771d94 x11=0x2ee3b280
       26835000	      2682	80001da4	9e9a0e13	addi	x28,x20,-1559	 x20:0x56e34cb4 x28=0x56e3469d
       26845000	      2683	80001da8	0020beb3	sltu	x29,x1,x2	  x1:0xfffffff6  x2:0x00000001 x29=0x00000000
       26855000	      2684	80001dac	00beb4b3	sltu	x9,x29,x11	 x29:0x00000000 x11:0x2ee3b280  x9=0x00000001
       26865000	      2685	80001db0	411c0033	sub	x0,x24,x17	 x24:0x00000013 x17:0x56e34cb4
       26875000	      2686	80001db4	4105d633	sra	x12,x11,x16	 x11:0x2ee3b280 x16:0xfffff903 x12=0x05dc7650
       26885000	      2687	80001db8	014d3c33	sltu	x24,x26,x20	 x26:0x00000008 x20:0x56e34cb4 x24=0x00000001
       26895000	      2688	80001dbc	775d5437	lui	x8,0x775d5	  x8=0x775d5000
       26905000	      2689	80001dc0	0014ae33	slt	x28,x9,x1	  x9:0x00000001  x1:0xfffffff6 x28=0x00000000
       26915000	      2690	80001dc4	26e98893	addi	x17,x19,622	 x19:0x69771d94 x17=0x69772002
       26925000	      2691	80001dc8	0099e133	or	x2,x19,x9	 x19:0x69771d94  x9:0x00000001  x2=0x69771d95
       26935000	      2692	80001dcc	fd2b14e3	bne	x22,x18,80001d94	 x22:0xfffffff3 x18:0xfffffff3
       26945000	      2693	80001dd0	fc877493	andi	x9,x14,-56	 x14:0x3840bd84  x9=0x3840bd80
       26955000	      2694	80001dd4	00500593	addi	x11,x0,5	  x0:0x00000000 x11=0x00000005
       26965000	      2695	80001dd8	01109713	slli	x14,x1,0x11	  x1:0xfffffff6 x14=0xffec0000
       26975000	      2696	80001ddc	0166da93	srli	x21,x13,0x16	 x13:0x0000000f x21=0x00000000
       26985000	      2697	80001de0	00050733	add	x14,x10,x0	 x10:0x00000000  x0:0x00000000 x14=0x00000000
       26995000	      2698	80001de4	00ae51b3	srl	x3,x28,x10	 x28:0x00000000 x10:0x00000000  x3=0x00000000
       27005000	      2699	80001de8	00c00313	addi	x6,x0,12	  x0:0x00000000  x6=0x0000000c
       27015000	      2700	80001dec	0b19ac93	slti	x25,x19,177	 x19:0x69771d94 x25=0x00000000
       27025000	      2701	80001df0	01c41193	slli	x3,x8,0x1c	  x8:0x775d5000  x3=0x00000000
       27035000	      2702	80001df4	00a58593	addi	x11,x11,10	 x11:0x00000005 x11=0x0000000f
       27045000	      2703	80001df8	00f49d13	slli	x26,x9,0xf	  x9:0x3840bd80 x26=0x5ec00000
       27055000	      2704	80001dfc	bfa82293	slti	x5,x16,-1030	 x16:0xfffff903  x5=0x00000001
       27065000	      2705	80001e00	017bdd33	srl	x26,x23,x23	 x23:0xffd80000 x23:0xffd80000 x26=0xffd80000
       27075000	      2706	80001e04	41188e33	sub	x28,x17,x17	 x17:0x69772002 x17:0x69772002 x28=0x00000000
       27085000	      2707	80001e08	01949393	slli	x7,x9,0x19	  x9:0x3840bd80  x7=0x00000000
       27095000	      2708	80001e0c	41bd57b3	sra	x15,x26,x27	 x26:0xffd80000 x27:0x80009f44 x15=0xfffd8000
       27105000	      2709	80001e10	fc65cee3	blt	x11,x6,80001dec	 x11:0x0000000f  x6:0x0000000c
       27115000	      2710	80001e14	401a5c13	srai	x24,x20,0x1	 x20:0x56e34cb4 x24=0x2b71a65a
       27125000	      2711	80001e18	ffe00493	addi	x9,x0,-2	  x0:0x00000000  x9=0xfffffffe
       27135000	      2712	80001e1c	012f0eb3	add	x29,x30,x18	 x30:0x80009fc4 x18:0xfffffff3 x29=0x80009fb7
       27145000	      2713	80001e20	0075afb3	slt	x31,x11,x7	 x11:0x0000000f  x7:0x00000000 x31=0x00000000
       27155000	      2714	80001e24	00701533	sll	x10,x0,x7	  x0:0x00000000  x7:0x00000000 x10=0x00000000
       27165000	      2715	80001e28	40db5293	srai	x5,x22,0xd	 x22:0xfffffff3  x5=0xffffffff
       27175000	      2716	80001e2c	41a00533	sub	x10,x0,x26	  x0:0x00000000 x26:0xffd80000 x10=0x00280000
       27185000	      2717	80001e30	00795c13	srli	x24,x18,0x7	 x18:0xfffffff3 x24=0x01ffffff
       27195000	      2718	80001e34	01200993	addi	x19,x0,18	  x0:0x00000000 x19=0x00000012
       27205000	      2719	80001e38	919cf113	andi	x2,x25,-1767	 x25:0x00000000  x2=0x00000000
       27215000	      2720	80001e3c	3de56393	ori	x7,x10,990	 x10:0x00280000  x7=0x002803de
       27225000	      2721	80001e40	0190f133	and	x2,x1,x25	  x1:0xfffffff6 x25:0x00000000  x2=0x00000000
       27235000	      2722	80001e44	00348493	addi	x9,x9,3	  x9:0xfffffffe  x9=0x00000001
       27245000	      2723	80001e48	41c2de93	srai	x29,x5,0x1c	  x5:0xffffffff x29=0xffffffff
       27255000	      2724	80001e4c	00200893	addi	x17,x0,2	  x0:0x00000000 x17=0x00000002
       27265000	      2725	80001e50	00400713	addi	x14,x0,4	  x0:0x00000000 x14=0x00000004
       27275000	      2726	80001e54	6c3b6c93	ori	x25,x22,1731	 x22:0xfffffff3 x25=0xfffffff3
       27285000	      2727	80001e58	01af1193	slli	x3,x30,0x1a	 x30:0x80009fc4  x3=0x10000000
       27295000	      2728	80001e5c	5b79fe93	andi	x29,x19,1463	 x19:0x00000012 x29=0x00000012
       27305000	      2729	80001e60	3cba4f93	xori	x31,x20,971	 x20:0x56e34cb4 x31=0x56e34f7f
       27315000	      2730	80001e64	00188893	addi	x17,x17,1	 x17:0x00000002 x17=0x00000003
       27325000	      2731	80001e68	fee88ae3	beq	x17,x14,80001e5c	 x17:0x00000003 x14:0x00000004
       27335000	      2732	80001e6c	b7244a93	xori	x21,x8,-1166	  x8:0x775d5000 x21=0x88a2ab72
       27345000	      2733	80001e70	073b0c93	addi	x25,x22,115	 x22:0xfffffff3 x25=0x00000066
       27355000	      2734	80001e74	90920197	auipc	x3,0x90920	  x3=0x10921e70
       27365000	      2735	80001e78	11e362b7	lui	x5,0x11e36	  x5=0x11e36000
       27375000	      2736	80001e7c	01405593	srli	x11,x0,0x14	  x0:0x00000000 x11=0x00000000
       27385000	      2737	80001e80	fb34ece3	bltu	x9,x19,80001e38	  x9:0x00000001 x19:0x00000012
       27395000	      2738	00000000	00000013	addi	x0,x0,0	  x0:0x00000000
       27405000	      2739	80001e34	00000013	addi	x0,x0,0	  x0:0x00000000
       27415000	      2740	80001e38	919cf113	andi	x2,x25,-1767	 x25:0x00000066  x2=0x00000000
       27425000	      2741	80001e3c	3de56393	ori	x7,x10,990	 x10:0x00280000  x7=0x002803de
       27435000	      2742	80001e40	0190f133	and	x2,x1,x25	  x1:0xfffffff6 x25:0x00000066  x2=0x00000066
       27445000	      2743	80001e44	00348493	addi	x9,x9,3	  x9:0x00000001  x9=0x00000004
       27455000	      2744	80001e48	41c2de93	srai	x29,x5,0x1c	  x5:0x11e36000 x29=0x00000001
       27465000	      2745	80001e4c	00200893	addi	x17,x0,2	  x0:0x00000000 x17=0x00000002
       27475000	      2746	80001e50	00400713	addi	x14,x0,4	  x0:0x00000000 x14=0x00000004
       27485000	      2747	80001e54	6c3b6c93	ori	x25,x22,1731	 x22:0xfffffff3 x25=0xfffffff3
       27495000	      2748	80001e58	01af1193	slli	x3,x30,0x1a	 x30:0x80009fc4  x3=0x10000000
       27505000	      2749	80001e5c	5b79fe93	andi	x29,x19,1463	 x19:0x00000012 x29=0x00000012
       27515000	      2750	80001e60	3cba4f93	xori	x31,x20,971	 x20:0x56e34cb4 x31=0x56e34f7f
       27525000	      2751	80001e64	00188893	addi	x17,x17,1	 x17:0x00000002 x17=0x00000003
       27535000	      2752	80001e68	fee88ae3	beq	x17,x14,80001e5c	 x17:0x00000003 x14:0x00000004
       27545000	      2753	80001e6c	b7244a93	xori	x21,x8,-1166	  x8:0x775d5000 x21=0x88a2ab72
       27555000	      2754	80001e70	073b0c93	addi	x25,x22,115	 x22:0xfffffff3 x25=0x00000066
       27565000	      2755	80001e74	90920197	auipc	x3,0x90920	  x3=0x10921e70
       27575000	      2756	80001e78	11e362b7	lui	x5,0x11e36	  x5=0x11e36000
       27585000	      2757	80001e7c	01405593	srli	x11,x0,0x14	  x0:0x00000000 x11=0x00000000
       27595000	      2758	80001e80	fb34ece3	bltu	x9,x19,80001e38	  x9:0x00000004 x19:0x00000012
       27605000	      2759	00000000	00000013	addi	x0,x0,0	  x0:0x00000000
       27615000	      2760	80001e34	00000013	addi	x0,x0,0	  x0:0x00000000
       27625000	      2761	80001e38	919cf113	andi	x2,x25,-1767	 x25:0x00000066  x2=0x00000000
       27635000	      2762	80001e3c	3de56393	ori	x7,x10,990	 x10:0x00280000  x7=0x002803de
       27645000	      2763	80001e40	0190f133	and	x2,x1,x25	  x1:0xfffffff6 x25:0x00000066  x2=0x00000066
       27655000	      2764	80001e44	00348493	addi	x9,x9,3	  x9:0x00000004  x9=0x00000007
       27665000	      2765	80001e48	41c2de93	srai	x29,x5,0x1c	  x5:0x11e36000 x29=0x00000001
       27675000	      2766	80001e4c	00200893	addi	x17,x0,2	  x0:0x00000000 x17=0x00000002
       27685000	      2767	80001e50	00400713	addi	x14,x0,4	  x0:0x00000000 x14=0x00000004
       27695000	      2768	80001e54	6c3b6c93	ori	x25,x22,1731	 x22:0xfffffff3 x25=0xfffffff3
       27705000	      2769	80001e58	01af1193	slli	x3,x30,0x1a	 x30:0x80009fc4  x3=0x10000000
       27715000	      2770	80001e5c	5b79fe93	andi	x29,x19,1463	 x19:0x00000012 x29=0x00000012
       27725000	      2771	80001e60	3cba4f93	xori	x31,x20,971	 x20:0x56e34cb4 x31=0x56e34f7f
       27735000	      2772	80001e64	00188893	addi	x17,x17,1	 x17:0x00000002 x17=0x00000003
       27745000	      2773	80001e68	fee88ae3	beq	x17,x14,80001e5c	 x17:0x00000003 x14:0x00000004
       27755000	      2774	80001e6c	b7244a93	xori	x21,x8,-1166	  x8:0x775d5000 x21=0x88a2ab72
       27765000	      2775	80001e70	073b0c93	addi	x25,x22,115	 x22:0xfffffff3 x25=0x00000066
       27775000	      2776	80001e74	90920197	auipc	x3,0x90920	  x3=0x10921e70
       27785000	      2777	80001e78	11e362b7	lui	x5,0x11e36	  x5=0x11e36000
       27795000	      2778	80001e7c	01405593	srli	x11,x0,0x14	  x0:0x00000000 x11=0x00000000
       27805000	      2779	80001e80	fb34ece3	bltu	x9,x19,80001e38	  x9:0x00000007 x19:0x00000012
       27815000	      2780	00000000	00000013	addi	x0,x0,0	  x0:0x00000000
       27825000	      2781	80001e34	00000013	addi	x0,x0,0	  x0:0x00000000
       27835000	      2782	80001e38	919cf113	andi	x2,x25,-1767	 x25:0x00000066  x2=0x00000000
       27845000	      2783	80001e3c	3de56393	ori	x7,x10,990	 x10:0x00280000  x7=0x002803de
       27855000	      2784	80001e40	0190f133	and	x2,x1,x25	  x1:0xfffffff6 x25:0x00000066  x2=0x00000066
       27865000	      2785	80001e44	00348493	addi	x9,x9,3	  x9:0x00000007  x9=0x0000000a
       27875000	      2786	80001e48	41c2de93	srai	x29,x5,0x1c	  x5:0x11e36000 x29=0x00000001
       27885000	      2787	80001e4c	00200893	addi	x17,x0,2	  x0:0x00000000 x17=0x00000002
       27895000	      2788	80001e50	00400713	addi	x14,x0,4	  x0:0x00000000 x14=0x00000004
       27905000	      2789	80001e54	6c3b6c93	ori	x25,x22,1731	 x22:0xfffffff3 x25=0xfffffff3
       27915000	      2790	80001e58	01af1193	slli	x3,x30,0x1a	 x30:0x80009fc4  x3=0x10000000
       27925000	      2791	80001e5c	5b79fe93	andi	x29,x19,1463	 x19:0x00000012 x29=0x00000012
       27935000	      2792	80001e60	3cba4f93	xori	x31,x20,971	 x20:0x56e34cb4 x31=0x56e34f7f
       27945000	      2793	80001e64	00188893	addi	x17,x17,1	 x17:0x00000002 x17=0x00000003
       27955000	      2794	80001e68	fee88ae3	beq	x17,x14,80001e5c	 x17:0x00000003 x14:0x00000004
       27965000	      2795	80001e6c	b7244a93	xori	x21,x8,-1166	  x8:0x775d5000 x21=0x88a2ab72
       27975000	      2796	80001e70	073b0c93	addi	x25,x22,115	 x22:0xfffffff3 x25=0x00000066
       27985000	      2797	80001e74	90920197	auipc	x3,0x90920	  x3=0x10921e70
       27995000	      2798	80001e78	11e362b7	lui	x5,0x11e36	  x5=0x11e36000
       28005000	      2799	80001e7c	01405593	srli	x11,x0,0x14	  x0:0x00000000 x11=0x00000000
       28015000	      2800	80001e80	fb34ece3	bltu	x9,x19,80001e38	  x9:0x0000000a x19:0x00000012
       28025000	      2801	00000000	00000013	addi	x0,x0,0	  x0:0x00000000
       28035000	      2802	80001e34	00000013	addi	x0,x0,0	  x0:0x00000000
       28045000	      2803	80001e38	919cf113	andi	x2,x25,-1767	 x25:0x00000066  x2=0x00000000
       28055000	      2804	80001e3c	3de56393	ori	x7,x10,990	 x10:0x00280000  x7=0x002803de
       28065000	      2805	80001e40	0190f133	and	x2,x1,x25	  x1:0xfffffff6 x25:0x00000066  x2=0x00000066
       28075000	      2806	80001e44	00348493	addi	x9,x9,3	  x9:0x0000000a  x9=0x0000000d
       28085000	      2807	80001e48	41c2de93	srai	x29,x5,0x1c	  x5:0x11e36000 x29=0x00000001
       28095000	      2808	80001e4c	00200893	addi	x17,x0,2	  x0:0x00000000 x17=0x00000002
       28105000	      2809	80001e50	00400713	addi	x14,x0,4	  x0:0x00000000 x14=0x00000004
       28115000	      2810	80001e54	6c3b6c93	ori	x25,x22,1731	 x22:0xfffffff3 x25=0xfffffff3
       28125000	      2811	80001e58	01af1193	slli	x3,x30,0x1a	 x30:0x80009fc4  x3=0x10000000
       28135000	      2812	80001e5c	5b79fe93	andi	x29,x19,1463	 x19:0x00000012 x29=0x00000012
       28145000	      2813	80001e60	3cba4f93	xori	x31,x20,971	 x20:0x56e34cb4 x31=0x56e34f7f
       28155000	      2814	80001e64	00188893	addi	x17,x17,1	 x17:0x00000002 x17=0x00000003
       28165000	      2815	80001e68	fee88ae3	beq	x17,x14,80001e5c	 x17:0x00000003 x14:0x00000004
       28175000	      2816	80001e6c	b7244a93	xori	x21,x8,-1166	  x8:0x775d5000 x21=0x88a2ab72
       28185000	      2817	80001e70	073b0c93	addi	x25,x22,115	 x22:0xfffffff3 x25=0x00000066
       28195000	      2818	80001e74	90920197	auipc	x3,0x90920	  x3=0x10921e70
       28205000	      2819	80001e78	11e362b7	lui	x5,0x11e36	  x5=0x11e36000
       28215000	      2820	80001e7c	01405593	srli	x11,x0,0x14	  x0:0x00000000 x11=0x00000000
       28225000	      2821	80001e80	fb34ece3	bltu	x9,x19,80001e38	  x9:0x0000000d x19:0x00000012
       28235000	      2822	00000000	00000013	addi	x0,x0,0	  x0:0x00000000
       28245000	      2823	80001e34	00000013	addi	x0,x0,0	  x0:0x00000000
       28255000	      2824	80001e38	919cf113	andi	x2,x25,-1767	 x25:0x00000066  x2=0x00000000
       28265000	      2825	80001e3c	3de56393	ori	x7,x10,990	 x10:0x00280000  x7=0x002803de
       28275000	      2826	80001e40	0190f133	and	x2,x1,x25	  x1:0xfffffff6 x25:0x00000066  x2=0x00000066
       28285000	      2827	80001e44	00348493	addi	x9,x9,3	  x9:0x0000000d  x9=0x00000010
       28295000	      2828	80001e48	41c2de93	srai	x29,x5,0x1c	  x5:0x11e36000 x29=0x00000001
       28305000	      2829	80001e4c	00200893	addi	x17,x0,2	  x0:0x00000000 x17=0x00000002
       28315000	      2830	80001e50	00400713	addi	x14,x0,4	  x0:0x00000000 x14=0x00000004
       28325000	      2831	80001e54	6c3b6c93	ori	x25,x22,1731	 x22:0xfffffff3 x25=0xfffffff3
       28335000	      2832	80001e58	01af1193	slli	x3,x30,0x1a	 x30:0x80009fc4  x3=0x10000000
       28345000	      2833	80001e5c	5b79fe93	andi	x29,x19,1463	 x19:0x00000012 x29=0x00000012
       28355000	      2834	80001e60	3cba4f93	xori	x31,x20,971	 x20:0x56e34cb4 x31=0x56e34f7f
       28365000	      2835	80001e64	00188893	addi	x17,x17,1	 x17:0x00000002 x17=0x00000003
       28375000	      2836	80001e68	fee88ae3	beq	x17,x14,80001e5c	 x17:0x00000003 x14:0x00000004
       28385000	      2837	80001e6c	b7244a93	xori	x21,x8,-1166	  x8:0x775d5000 x21=0x88a2ab72
       28395000	      2838	80001e70	073b0c93	addi	x25,x22,115	 x22:0xfffffff3 x25=0x00000066
       28405000	      2839	80001e74	90920197	auipc	x3,0x90920	  x3=0x10921e70
       28415000	      2840	80001e78	11e362b7	lui	x5,0x11e36	  x5=0x11e36000
       28425000	      2841	80001e7c	01405593	srli	x11,x0,0x14	  x0:0x00000000 x11=0x00000000
       28435000	      2842	80001e80	fb34ece3	bltu	x9,x19,80001e38	  x9:0x00000010 x19:0x00000012
       28445000	      2843	00000000	00000013	addi	x0,x0,0	  x0:0x00000000
       28455000	      2844	80001e34	00000013	addi	x0,x0,0	  x0:0x00000000
       28465000	      2845	80001e38	919cf113	andi	x2,x25,-1767	 x25:0x00000066  x2=0x00000000
       28475000	      2846	80001e3c	3de56393	ori	x7,x10,990	 x10:0x00280000  x7=0x002803de
       28485000	      2847	80001e40	0190f133	and	x2,x1,x25	  x1:0xfffffff6 x25:0x00000066  x2=0x00000066
       28495000	      2848	80001e44	00348493	addi	x9,x9,3	  x9:0x00000010  x9=0x00000013
       28505000	      2849	80001e48	41c2de93	srai	x29,x5,0x1c	  x5:0x11e36000 x29=0x00000001
       28515000	      2850	80001e4c	00200893	addi	x17,x0,2	  x0:0x00000000 x17=0x00000002
       28525000	      2851	80001e50	00400713	addi	x14,x0,4	  x0:0x00000000 x14=0x00000004
       28535000	      2852	80001e54	6c3b6c93	ori	x25,x22,1731	 x22:0xfffffff3 x25=0xfffffff3
       28545000	      2853	80001e58	01af1193	slli	x3,x30,0x1a	 x30:0x80009fc4  x3=0x10000000
       28555000	      2854	80001e5c	5b79fe93	andi	x29,x19,1463	 x19:0x00000012 x29=0x00000012
       28565000	      2855	80001e60	3cba4f93	xori	x31,x20,971	 x20:0x56e34cb4 x31=0x56e34f7f
       28575000	      2856	80001e64	00188893	addi	x17,x17,1	 x17:0x00000002 x17=0x00000003
       28585000	      2857	80001e68	fee88ae3	beq	x17,x14,80001e5c	 x17:0x00000003 x14:0x00000004
       28595000	      2858	80001e6c	b7244a93	xori	x21,x8,-1166	  x8:0x775d5000 x21=0x88a2ab72
       28605000	      2859	80001e70	073b0c93	addi	x25,x22,115	 x22:0xfffffff3 x25=0x00000066
       28615000	      2860	80001e74	90920197	auipc	x3,0x90920	  x3=0x10921e70
       28625000	      2861	80001e78	11e362b7	lui	x5,0x11e36	  x5=0x11e36000
       28635000	      2862	80001e7c	01405593	srli	x11,x0,0x14	  x0:0x00000000 x11=0x00000000
       28645000	      2863	80001e80	fb34ece3	bltu	x9,x19,80001e38	  x9:0x00000013 x19:0x00000012
       28655000	      2864	80001e84	00025f93	srli	x31,x4,0x0	  x4:0x0000000a x31=0x0000000a
       28665000	      2865	80001e88	01e29713	slli	x14,x5,0x1e	  x5:0x11e36000 x14=0x00000000
       28675000	      2866	80001e8c	0ca41237	lui	x4,0xca41	  x4=0x0ca41000
       28685000	      2867	80001e90	40e755b3	sra	x11,x14,x14	 x14:0x00000000 x14:0x00000000 x11=0x00000000
       28695000	      2868	80001e94	03ddf663	bgeu	x27,x29,80001ec0	 x27:0x80009f44 x29:0x00000012
       28705000	      2869	00000000	00000013	addi	x0,x0,0	  x0:0x00000000
       28715000	      2870	80001ebc	00000013	addi	x0,x0,0	  x0:0x00000000
       28725000	      2871	80001ec0	008781b3	add	x3,x15,x8	 x15:0xfffd8000  x8:0x775d5000  x3=0x775ad000
       28735000	      2872	80001ec4	a83dc437	lui	x8,0xa83dc	  x8=0xa83dc000
       28745000	      2873	80001ec8	d409fe13	andi	x28,x19,-704	 x19:0x00000012 x28=0x00000000
       28755000	      2874	80001ecc	840be393	ori	x7,x23,-1984	 x23:0xffd80000  x7=0xfffff840
       28765000	      2875	80001ed0	77d02313	slti	x6,x0,1917	  x0:0x00000000  x6=0x00000001
       28775000	      2876	80001ed4	01667033	and	x0,x12,x22	 x12:0x05dc7650 x22:0xfffffff3
       28785000	      2877	80001ed8	01a9e2b3	or	x5,x19,x26	 x19:0x00000012 x26:0xffd80000  x5=0xffd80012
       28795000	      2878	80001edc	fdb97593	andi	x11,x18,-37	 x18:0xfffffff3 x11=0xffffffd3
       28805000	      2879	80001ee0	00000013	addi	x0,x0,0	  x0:0x00000000
       28815000	      2880	80001ee4	0496e263	bltu	x13,x9,80001f28	 x13:0x0000000f  x9:0x00000013
       28825000	      2881	00000000	00000013	addi	x0,x0,0	  x0:0x00000000
       28835000	      2882	80001f24	00000013	addi	x0,x0,0	  x0:0x00000000
       28845000	      2883	80001f28	01811f93	slli	x31,x2,0x18	  x2:0x00000066 x31=0x66000000
       28855000	      2884	80001f2c	00ad6733	or	x14,x26,x10	 x26:0xffd80000 x10:0x00280000 x14=0xfff80000
       28865000	      2885	80001f30	b8927413	andi	x8,x4,-1143	  x4:0x0ca41000  x8=0x0ca41000
       28875000	      2886	80001f34	a753f313	andi	x6,x7,-1419	  x7:0xfffff840  x6=0xfffff840
       28885000	      2887	80001f38	00f714b3	sll	x9,x14,x15	 x14:0xfff80000 x15:0xfffd8000  x9=0xfff80000
       28895000	      2888	80001f3c	027dec63	bltu	x27,x7,80001f74	 x27:0x80009f44  x7:0xfffff840
       28905000	      2889	00000000	00000013	addi	x0,x0,0	  x0:0x00000000
       28915000	      2890	80001f70	00000013	addi	x0,x0,0	  x0:0x00000000
       28925000	      2891	80001f74	0169cfb3	xor	x31,x19,x22	 x19:0x00000012 x22:0xfffffff3 x31=0xffffffe1
       28935000	      2892	80001f78	04e8d063	bge	x17,x14,80001fb8	 x17:0x00000003 x14:0xfff80000
       28945000	      2893	00000000	00000013	addi	x0,x0,0	  x0:0x00000000
       28955000	      2894	80001fb4	00000013	addi	x0,x0,0	  x0:0x00000000
       28965000	      2895	80001fb8	01201313	slli	x6,x0,0x12	  x0:0x00000000  x6=0x00000000
       28975000	      2896	80001fbc	01847333	and	x6,x8,x24	  x8:0x0ca41000 x24:0x01ffffff  x6=0x00a41000
       28985000	      2897	80001fc0	b9bc3713	sltiu	x14,x24,-1125	 x24:0x01ffffff x14=0x00000001
       28995000	      2898	80001fc4	702ab713	sltiu	x14,x21,1794	 x21:0x88a2ab72 x14=0x00000000
       29005000	      2899	80001fc8	a335f013	andi	x0,x11,-1485	 x11:0xffffffd3
       29015000	      2900	80001fcc	41dc58b3	sra	x17,x24,x29	 x24:0x01ffffff x29:0x00000012 x17=0x0000007f
       29025000	      2901	80001fd0	017b9c93	slli	x25,x23,0x17	 x23:0xffd80000 x25=0x00000000
       29035000	      2902	80001fd4	00c43233	sltu	x4,x8,x12	  x8:0x0ca41000 x12:0x05dc7650  x4=0x00000000
       29045000	      2903	80001fd8	01225463	bge	x4,x18,80001fe0	  x4:0x00000000 x18:0xfffffff3
       29055000	      2904	00000000	00000013	addi	x0,x0,0	  x0:0x00000000
       29065000	      2905	80001fdc	00000013	addi	x0,x0,0	  x0:0x00000000
       29075000	      2906	80001fe0	3c100d6f	jal	x26,80001fe0	 x26=0x80001fe0
       29085000	      2907	00000000	00000013	addi	x0,x0,0	  x0:0x00000000
       29095000	      2908	80002b9c	00000013	addi	x0,x0,0	  x0:0x00000000
       29105000	      2909	80002ba0	00000013	addi	x0,x0,0	  x0:0x00000000
       29115000	      2910	80002ba4	00b889b3	add	x19,x17,x11	 x17:0x0000007f x11:0xffffffd3 x19=0x00000052
       29125000	      2911	80002ba8	fc4d8d93	addi	x27,x27,-60	 x27:0x80009f44 x27=0x80009f08
       29135000	      2912	80002bac	00515b33	srl	x22,x2,x5	  x2:0x00000066  x5:0xffd80012 x22=0x00000000
       29145000	      2913	80002bb0	00646e33	or	x28,x8,x6	  x8:0x0ca41000  x6:0x00a41000 x28=0x0ca41000
       29155000	      2914	80002bb4	749cec93	ori	x25,x25,1865	 x25:0x00000000 x25=0x00000749
       29165000	      2915	80002bb8	009e7cb3	and	x25,x28,x9	 x28:0x0ca41000  x9:0xfff80000 x25=0x0ca00000
       29175000	      2916	80002bbc	01ada223	sw	x26,4(x27)	 x27:0x80009f08 x26:0x80001fe0 PA:0x80009f0c
       29185000	      2917	80002bc0	00991193	slli	x3,x18,0x9	 x18:0xfffffff3  x3=0xffffe600
       29195000	      2918	80002bc4	01a8d213	srli	x4,x17,0x1a	 x17:0x0000007f  x4=0x00000000
       29205000	      2919	80002bc8	90e7bf93	sltiu	x31,x15,-1778	 x15:0xfffd8000 x31=0x00000001
       29215000	      2920	80002bcc	474ab913	sltiu	x18,x21,1140	 x21:0x88a2ab72 x18=0x00000000
       29225000	      2921	80002bd0	9fc94413	xori	x8,x18,-1540	 x18:0x00000000  x8=0xfffff9fc
       29235000	      2922	80002bd4	9d52ac93	slti	x25,x5,-1579	  x5:0xffd80012 x25=0x00000001
       29245000	      2923	80002bd8	00000013	addi	x0,x0,0	  x0:0x00000000
       29255000	      2924	80002bdc	001d5293	srli	x5,x26,0x1	 x26:0x80001fe0  x5=0x40000ff0
       29265000	      2925	80002be0	00000b97	auipc	x23,0x0	 x23=0x80002bdc
       29275000	      2926	80002be4	81cb8b93	addi	x23,x23,-2020	 x23:0x80002bdc x23=0x800023f8
       29285000	      2927	80002be8	00d7da13	srli	x20,x15,0xd	 x15:0xfffd8000 x20=0x0007ffec
       29295000	      2928	80002bec	00000013	addi	x0,x0,0	  x0:0x00000000
       29305000	      2929	80002bf0	a91dfc93	andi	x25,x27,-1391	 x27:0x80009f08 x25=0x80009a00
       29315000	      2930	80002bf4	0d4b8b93	addi	x23,x23,212	 x23:0x800023f8 x23=0x800024cc
       29325000	      2931	80002bf8	8bcd8113	addi	x2,x27,-1860	 x27:0x80009f08  x2=0x800097c4
       29335000	      2932	80002bfc	011d0463	beq	x26,x17,80002c04	 x26:0x80001fe0 x17:0x0000007f
       29345000	      2933	80002c00	018f9d33	sll	x26,x31,x24	 x31:0x00000001 x24:0x01ffffff x26=0x80000000
       29355000	      2934	80002c04	f2db8d67	jalr	x26,x23,-211	 x23:0x800024cc x26=0x80002c04
       29365000	      2935	00000000	00000013	addi	x0,x0,0	  x0:0x00000000
       29375000	      2936	800023f8	00000013	addi	x0,x0,0	  x0:0x00000000
       29385000	      2937	800023fc	759aac93	slti	x25,x21,1881	 x21:0x88a2ab72 x25=0x00000001
       29395000	      2938	80002400	5f956c37	lui	x24,0x5f956	 x24=0x5f956000
       29405000	      2939	80002404	fdcd8d93	addi	x27,x27,-36	 x27:0x80009f08 x27=0x80009ee4
       29415000	      2940	80002408	f0d83c13	sltiu	x24,x16,-243	 x16:0xfffff903 x24=0x00000001
       29425000	      2941	8000240c	00056bb3	or	x23,x10,x0	 x10:0x00280000  x0:0x00000000 x23=0x00280000
       29435000	      2942	80002410	417385b3	sub	x11,x7,x23	  x7:0xfffff840 x23:0x00280000 x11=0xffd7f840
       29445000	      2943	80002414	e1a24513	xori	x10,x4,-486	  x4:0x00000000 x10=0xfffffe1a
       29455000	      2944	80002418	01f9efb3	or	x31,x19,x31	 x19:0x00000052 x31:0x00000001 x31=0x00000053
       29465000	      2945	8000241c	00521b13	slli	x22,x4,0x5	  x4:0x00000000 x22=0x00000000
       29475000	      2946	80002420	01ada223	sw	x26,4(x27)	 x27:0x80009ee4 x26:0x80002c04 PA:0x80009ee8
       29485000	      2947	80002424	000fb9b3	sltu	x19,x31,x0	 x31:0x00000053  x0:0x00000000 x19=0x00000000
       29495000	      2948	80002428	00000013	addi	x0,x0,0	  x0:0x00000000
       29505000	      2949	8000242c	00978b33	add	x22,x15,x9	 x15:0xfffd8000  x9:0xfff80000 x22=0xfff58000
       29515000	      2950	80002430	b4c74a97	auipc	x21,0xb4c74	 x21=0x34c7642c
       29525000	      2951	80002434	016b20b3	slt	x1,x22,x22	 x22:0xfff58000 x22:0xfff58000  x1=0x00000000
       29535000	      2952	80002438	40ead713	srai	x14,x21,0xe	 x21:0x34c7642c x14=0x0000d31d
       29545000	      2953	8000243c	01814eb3	xor	x29,x2,x24	  x2:0x800097c4 x24:0x00000001 x29=0x800097c5
       29555000	      2954	80002440	008ddc93	srli	x25,x27,0x8	 x27:0x80009ee4 x25=0x0080009e
       29565000	      2955	80002444	4178da33	sra	x20,x17,x23	 x17:0x0000007f x23:0x00280000 x20=0x0000007f
       29575000	      2956	80002448	09500d6f	jal	x26,80002448	 x26=0x80002448
       29585000	      2957	00000000	00000013	addi	x0,x0,0	  x0:0x00000000
       29595000	      2958	80002cd8	00000013	addi	x0,x0,0	  x0:0x00000000
       29605000	      2959	80002cdc	400ed413	srai	x8,x29,0x0	 x29:0x800097c5  x8=0x800097c5
       29615000	      2960	80002ce0	ff4d8d93	addi	x27,x27,-12	 x27:0x80009ee4 x27=0x80009ed8
       29625000	      2961	80002ce4	01a64fb3	xor	x31,x12,x26	 x12:0x05dc7650 x26:0x80002448 x31=0x85dc5218
       29635000	      2962	80002ce8	0197abb3	slt	x23,x15,x25	 x15:0xfffd8000 x25:0x0080009e x23=0x00000001
       29645000	      2963	80002cec	01f99293	slli	x5,x19,0x1f	 x19:0x00000000  x5=0x00000000
       29655000	      2964	80002cf0	002e62b3	or	x5,x28,x2	 x28:0x0ca41000  x2:0x800097c4  x5=0x8ca497c4
       29665000	      2965	80002cf4	e4e0ecb7	lui	x25,0xe4e0e	 x25=0xe4e0e000
       29675000	      2966	80002cf8	a4794413	xori	x8,x18,-1465	 x18:0x00000000  x8=0xfffffa47
       29685000	      2967	80002cfc	01f21b33	sll	x22,x4,x31	  x4:0x00000000 x31:0x85dc5218 x22=0x00000000
       29695000	      2968	80002d00	01ada223	sw	x26,4(x27)	 x27:0x80009ed8 x26:0x80002448 PA:0x80009edc
       29705000	      2969	80002d04	001fdb33	srl	x22,x31,x1	 x31:0x85dc5218  x1:0x00000000 x22=0x85dc5218
       29715000	      2970	80002d08	00800b13	addi	x22,x0,8	  x0:0x00000000 x22=0x00000008
       29725000	      2971	80002d0c	00e00813	addi	x16,x0,14	  x0:0x00000000 x16=0x0000000e
       29735000	      2972	80002d10	90f6f237	lui	x4,0x90f6f	  x4=0x90f6f000
       29745000	      2973	80002d14	01f7c133	xor	x2,x15,x31	 x15:0xfffd8000 x31:0x85dc5218  x2=0x7a21d218
       29755000	      2974	80002d18	007b0b13	addi	x22,x22,7	 x22:0x00000008 x22=0x0000000f
       29765000	      2975	80002d1c	bd063a13	sltiu	x20,x12,-1072	 x12:0x05dc7650 x20=0x00000001
       29775000	      2976	80002d20	00a00713	addi	x14,x0,10	  x0:0x00000000 x14=0x0000000a
       29785000	      2977	80002d24	13a4b793	sltiu	x15,x9,314	  x9:0xfff80000 x15=0x00000000
       29795000	      2978	80002d28	00e00e93	addi	x29,x0,14	  x0:0x00000000 x29=0x0000000e
       29805000	      2979	80002d2c	01430bb3	add	x23,x6,x20	  x6:0x00a41000 x20:0x00000001 x23=0x00a41001
       29815000	      2980	80002d30	00499fb3	sll	x31,x19,x4	 x19:0x00000000  x4:0x90f6f000 x31=0x00000000
       29825000	      2981	80002d34	00170713	addi	x14,x14,1	 x14:0x0000000a x14=0x0000000b
       29835000	      2982	80002d38	ffd74ae3	blt	x14,x29,80002d2c	 x14:0x0000000b x29:0x0000000e
       29845000	      2983	00000000	00000013	addi	x0,x0,0	  x0:0x00000000
       29855000	      2984	80002d28	00000013	addi	x0,x0,0	  x0:0x00000000
       29865000	      2985	80002d2c	01430bb3	add	x23,x6,x20	  x6:0x00a41000 x20:0x00000001 x23=0x00a41001
       29875000	      2986	80002d30	00499fb3	sll	x31,x19,x4	 x19:0x00000000  x4:0x90f6f000 x31=0x00000000
       29885000	      2987	80002d34	00170713	addi	x14,x14,1	 x14:0x0000000b x14=0x0000000c
       29895000	      2988	80002d38	ffd74ae3	blt	x14,x29,80002d2c	 x14:0x0000000c x29:0x0000000e
       29905000	      2989	00000000	00000013	addi	x0,x0,0	  x0:0x00000000
       29915000	      2990	80002d28	00000013	addi	x0,x0,0	  x0:0x00000000
       29925000	      2991	80002d2c	01430bb3	add	x23,x6,x20	  x6:0x00a41000 x20:0x00000001 x23=0x00a41001
       29935000	      2992	80002d30	00499fb3	sll	x31,x19,x4	 x19:0x00000000  x4:0x90f6f000 x31=0x00000000
       29945000	      2993	80002d34	00170713	addi	x14,x14,1	 x14:0x0000000c x14=0x0000000d
       29955000	      2994	80002d38	ffd74ae3	blt	x14,x29,80002d2c	 x14:0x0000000d x29:0x0000000e
       29965000	      2995	00000000	00000013	addi	x0,x0,0	  x0:0x00000000
       29975000	      2996	80002d28	00000013	addi	x0,x0,0	  x0:0x00000000
       29985000	      2997	80002d2c	01430bb3	add	x23,x6,x20	  x6:0x00a41000 x20:0x00000001 x23=0x00a41001
       29995000	      2998	80002d30	00499fb3	sll	x31,x19,x4	 x19:0x00000000  x4:0x90f6f000 x31=0x00000000
       30005000	      2999	80002d34	00170713	addi	x14,x14,1	 x14:0x0000000d x14=0x0000000e
       30015000	      3000	80002d38	ffd74ae3	blt	x14,x29,80002d2c	 x14:0x0000000e x29:0x0000000e
       30025000	      3001	80002d3c	fd0b6ce3	bltu	x22,x16,80002d14	 x22:0x0000000f x16:0x0000000e
       30035000	      3002	80002d40	d2f2bb93	sltiu	x23,x5,-721	  x5:0x8ca497c4 x23=0x00000001
       30045000	      3003	80002d44	03c11a63	bne	x2,x28,80002d78	  x2:0x7a21d218 x28:0x0ca41000
       30055000	      3004	00000000	00000013	addi	x0,x0,0	  x0:0x00000000
       30065000	      3005	80002d74	00000013	addi	x0,x0,0	  x0:0x00000000
       30075000	      3006	80002d78	005d5413	srli	x8,x26,0x5	 x26:0x80002448  x8=0x04000122
       30085000	      3007	80002d7c	4067d093	srai	x1,x15,0x6	 x15:0x00000000  x1=0x00000000
       30095000	      3008	80002d80	01149613	slli	x12,x9,0x11	  x9:0xfff80000 x12=0x00000000
       30105000	      3009	80002d84	03b98063	beq	x19,x27,80002da4	 x19:0x00000000 x27:0x80009ed8
       30115000	      3010	80002d88	01c3d863	bge	x7,x28,80002d98	  x7:0xfffff840 x28:0x0ca41000
       30125000	      3011	80002d8c	04595463	bge	x18,x5,80002dd4	 x18:0x00000000  x5:0x8ca497c4
       30135000	      3012	00000000	00000013	addi	x0,x0,0	  x0:0x00000000
       30145000	      3013	80002dd0	00000013	addi	x0,x0,0	  x0:0x00000000
       30155000	      3014	80002dd4	015cec63	bltu	x25,x21,80002dec	 x25:0xe4e0e000 x21:0x34c7642c
       30165000	      3015	80002dd8	04dd9663	bne	x27,x13,80002e24	 x27:0x80009ed8 x13:0x0000000f
       30175000	      3016	00000000	00000013	addi	x0,x0,0	  x0:0x00000000
       30185000	      3017	80002e20	00000013	addi	x0,x0,0	  x0:0x00000000
       30195000	      3018	80002e24	005e7463	bgeu	x28,x5,80002e2c	 x28:0x0ca41000  x5:0x8ca497c4
       30205000	      3019	80002e28	0399ce63	blt	x19,x25,80002e64	 x19:0x00000000 x25:0xe4e0e000
       30215000	      3020	80002e2c	01ce1b93	slli	x23,x28,0x1c	 x28:0x0ca41000 x23=0x00000000
       30225000	      3021	80002e30	009cb733	sltu	x14,x25,x9	 x25:0xe4e0e000  x9:0xfff80000 x14=0x00000001
       30235000	      3022	80002e34	03d8e513	ori	x10,x17,61	 x17:0x0000007f x10=0x0000007f
       30245000	      3023	80002e38	01572a33	slt	x20,x14,x21	 x14:0x00000001 x21:0x34c7642c x20=0x00000001
       30255000	      3024	80002e3c	00a13e33	sltu	x28,x2,x10	  x2:0x7a21d218 x10:0x0000007f x28=0x00000000
       30265000	      3025	80002e40	1170a593	slti	x11,x1,279	  x1:0x00000000 x11=0x00000001
       30275000	      3026	80002e44	78b77993	andi	x19,x14,1931	 x14:0x00000001 x19=0x00000001
       30285000	      3027	80002e48	0134ceb3	xor	x29,x9,x19	  x9:0xfff80000 x19:0x00000001 x29=0xfff80001
       30295000	      3028	80002e4c	00000013	addi	x0,x0,0	  x0:0x00000000
       30305000	      3029	80002e50	5a716193	ori	x3,x2,1447	  x2:0x7a21d218  x3=0x7a21d7bf
       30315000	      3030	80002e54	0172ba33	sltu	x20,x5,x23	  x5:0x8ca497c4 x23:0x00000000 x20=0x00000000
       30325000	      3031	80002e58	01a81f93	slli	x31,x16,0x1a	 x16:0x0000000e x31=0x38000000
       30335000	      3032	80002e5c	0060f463	bgeu	x1,x6,80002e64	  x1:0x00000000  x6:0x00a41000
       30345000	      3033	80002e60	77ffb293	sltiu	x5,x31,1919	 x31:0x38000000  x5=0x00000000
       30355000	      3034	80002e64	01d13d33	sltu	x26,x2,x29	  x2:0x7a21d218 x29:0xfff80001 x26=0x00000001
       30365000	      3035	80002e68	011ce533	or	x10,x25,x17	 x25:0xe4e0e000 x17:0x0000007f x10=0xe4e0e07f
       30375000	      3036	80002e6c	004dad03	lw	x26,4(x27)	 x27:0x80009ed8 x26=0x80002448 PA:0x80009edc
       30385000	      3037	80002e70	014f3cb3	sltu	x25,x30,x20	 x30:0x80009fc4 x20:0x00000000 x25=0x00000000
       30395000	      3038	80002e74	00cd8d93	addi	x27,x27,12	 x27:0x80009ed8 x27=0x80009ee4
       30405000	      3039	80002e78	00358433	add	x8,x11,x3	 x11:0x00000001  x3:0x7a21d7bf  x8=0x7a21d7c0
       30415000	      3040	80002e7c	000d0293	addi	x5,x26,0	 x26:0x80002448  x5=0x80002448
       30425000	      3041	80002e80	000282e7	jalr	x5,x5,0	  x5:0x80002448  x5=0x80002e80
       30435000	      3042	00000000	00000013	addi	x0,x0,0	  x0:0x00000000
       30445000	      3043	80002448	00000013	addi	x0,x0,0	  x0:0x00000000
       30455000	      3044	8000244c	00a00293	addi	x5,x0,10	  x0:0x00000000  x5=0x0000000a
       30465000	      3045	80002450	00cffb33	and	x22,x31,x12	 x31:0x38000000 x12:0x00000000 x22=0x00000000
       30475000	      3046	80002454	6b65a193	slti	x3,x11,1718	 x11:0x00000001  x3=0x00000001
       30485000	      3047	80002458	00a00793	addi	x15,x0,10	  x0:0x00000000 x15=0x0000000a
       30495000	      3048	8000245c	410f89b3	sub	x19,x31,x16	 x31:0x38000000 x16:0x0000000e x19=0x37fffff2
       30505000	      3049	80002460	0e0ce313	ori	x6,x25,224	 x25:0x00000000  x6=0x000000e0
       30515000	      3050	80002464	ff728293	addi	x5,x5,-9	  x5:0x0000000a  x5=0x00000001
       30525000	      3051	80002468	abd8bb13	sltiu	x22,x17,-1347	 x17:0x0000007f x22=0x00000001
       30535000	      3052	8000246c	f513b813	sltiu	x16,x7,-175	  x7:0xfffff840 x16=0x00000001
       30545000	      3053	80002470	ff600c13	addi	x24,x0,-10	  x0:0x00000000 x24=0xfffffff6
       30555000	      3054	80002474	00b21113	slli	x2,x4,0xb	  x4:0x90f6f000  x2=0xb7800000
       30565000	      3055	80002478	ff100393	addi	x7,x0,-15	  x0:0x00000000  x7=0xfffffff1
       30575000	      3056	8000247c	7f597f93	andi	x31,x18,2037	 x18:0x00000000 x31=0x00000000
       30585000	      3057	80002480	ff8c0c13	addi	x24,x24,-8	 x24:0xfffffff6 x24=0xffffffee
       30595000	      3058	80002484	56ba8113	addi	x2,x21,1387	 x21:0x34c7642c  x2=0x34c76997
       30605000	      3059	80002488	014a39b3	sltu	x19,x20,x20	 x20:0x00000000 x20:0x00000000 x19=0x00000000
       30615000	      3060	8000248c	9facf513	andi	x10,x25,-1542	 x25:0x00000000 x10=0x00000000
       30625000	      3061	80002490	fe7c56e3	bge	x24,x7,8000247c	 x24:0xffffffee  x7:0xfffffff1
       30635000	      3062	80002494	00cb8d33	add	x26,x23,x12	 x23:0x00000000 x12:0x00000000 x26=0x00000000
       30645000	      3063	80002498	00fe9e13	slli	x28,x29,0xf	 x29:0xfff80001 x28=0x00008000
       30655000	      3064	8000249c	fc54d937	lui	x18,0xfc54d	 x18=0xfc54d000
       30665000	      3065	800024a0	faf2fee3	bgeu	x5,x15,8000245c	  x5:0x00000001 x15:0x0000000a
       30675000	      3066	800024a4	01c9c4b3	xor	x9,x19,x28	 x19:0x00000000 x28:0x00008000  x9=0x00008000
       30685000	      3067	800024a8	00300713	addi	x14,x0,3	  x0:0x00000000 x14=0x00000003
       30695000	      3068	800024ac	ef76de37	lui	x28,0xef76d	 x28=0xef76d000
       30705000	      3069	800024b0	005612b3	sll	x5,x12,x5	 x12:0x00000000  x5:0x00000001  x5=0x00000000
       30715000	      3070	800024b4	00b00113	addi	x2,x0,11	  x0:0x00000000  x2=0x0000000b
       30725000	      3071	800024b8	01ee0833	add	x16,x28,x30	 x28:0xef76d000 x30:0x80009fc4 x16=0x6f776fc4
       30735000	      3072	800024bc	2864f193	andi	x3,x9,646	  x9:0x00008000  x3=0x00000000
       30745000	      3073	800024c0	00470713	addi	x14,x14,4	 x14:0x00000003 x14=0x00000007
       30755000	      3074	800024c4	00ec75b3	and	x11,x24,x14	 x24:0xffffffee x14:0x00000007 x11=0x00000006
       30765000	      3075	800024c8	ff900b13	addi	x22,x0,-7	  x0:0x00000000 x22=0xfffffff9
       30775000	      3076	800024cc	00000013	addi	x0,x0,0	  x0:0x00000000
       30785000	      3077	800024d0	00500513	addi	x10,x0,5	  x0:0x00000000 x10=0x00000005
       30795000	      3078	800024d4	0038d413	srli	x8,x17,0x3	 x17:0x0000007f  x8=0x0000000f
       30805000	      3079	800024d8	2af5bc13	sltiu	x24,x11,687	 x11:0x00000006 x24=0x00000001
       30815000	      3080	800024dc	0071de33	srl	x28,x3,x7	  x3:0x00000000  x7:0xfffffff1 x28=0x00000000
       30825000	      3081	800024e0	001b0b13	addi	x22,x22,1	 x22:0xfffffff9 x22=0xfffffffa
       30835000	      3082	800024e4	feab0ae3	beq	x22,x10,800024d8	 x22:0xfffffffa x10:0x00000005
       30845000	      3083	800024e8	06d73913	sltiu	x18,x14,109	 x14:0x00000007 x18=0x00000001
       30855000	      3084	800024ec	3f18e913	ori	x18,x17,1009	 x17:0x0000007f x18=0x000003ff
       30865000	      3085	800024f0	fc2744e3	blt	x14,x2,800024b8	 x14:0x00000007  x2:0x0000000b
       30875000	      3086	00000000	00000013	addi	x0,x0,0	  x0:0x00000000
       30885000	      3087	800024b4	00000013	addi	x0,x0,0	  x0:0x00000000
       30895000	      3088	800024b8	01ee0833	add	x16,x28,x30	 x28:0x00000000 x30:0x80009fc4 x16=0x80009fc4
       30905000	      3089	800024bc	2864f193	andi	x3,x9,646	  x9:0x00008000  x3=0x00000000
       30915000	      3090	800024c0	00470713	addi	x14,x14,4	 x14:0x00000007 x14=0x0000000b
       30925000	      3091	800024c4	00ec75b3	and	x11,x24,x14	 x24:0x00000001 x14:0x0000000b x11=0x00000001
       30935000	      3092	800024c8	ff900b13	addi	x22,x0,-7	  x0:0x00000000 x22=0xfffffff9
       30945000	      3093	800024cc	00000013	addi	x0,x0,0	  x0:0x00000000
       30955000	      3094	800024d0	00500513	addi	x10,x0,5	  x0:0x00000000 x10=0x00000005
       30965000	      3095	800024d4	0038d413	srli	x8,x17,0x3	 x17:0x0000007f  x8=0x0000000f
       30975000	      3096	800024d8	2af5bc13	sltiu	x24,x11,687	 x11:0x00000001 x24=0x00000001
       30985000	      3097	800024dc	0071de33	srl	x28,x3,x7	  x3:0x00000000  x7:0xfffffff1 x28=0x00000000
       30995000	      3098	800024e0	001b0b13	addi	x22,x22,1	 x22:0xfffffff9 x22=0xfffffffa
       31005000	      3099	800024e4	feab0ae3	beq	x22,x10,800024d8	 x22:0xfffffffa x10:0x00000005
       31015000	      3100	800024e8	06d73913	sltiu	x18,x14,109	 x14:0x0000000b x18=0x00000001
       31025000	      3101	800024ec	3f18e913	ori	x18,x17,1009	 x17:0x0000007f x18=0x000003ff
       31035000	      3102	800024f0	fc2744e3	blt	x14,x2,800024b8	 x14:0x0000000b  x2:0x0000000b
       31045000	      3103	800024f4	00000013	addi	x0,x0,0	  x0:0x00000000
       31055000	      3104	800024f8	00100613	addi	x12,x0,1	  x0:0x00000000 x12=0x00000001
       31065000	      3105	800024fc	ce8c3813	sltiu	x16,x24,-792	 x24:0x00000001 x16=0x00000001
       31075000	      3106	80002500	00a70cb3	add	x25,x14,x10	 x14:0x0000000b x10:0x00000005 x25=0x00000010
       31085000	      3107	80002504	9dc5c293	xori	x5,x11,-1572	 x11:0x00000001  x5=0xfffff9dd
       31095000	      3108	80002508	ff800b13	addi	x22,x0,-8	  x0:0x00000000 x22=0xfffffff8
       31105000	      3109	8000250c	3b680117	auipc	x2,0x3b680	  x2=0xbb682508
       31115000	      3110	80002510	40d204b3	sub	x9,x4,x13	  x4:0x90f6f000 x13:0x0000000f  x9=0x90f6eff1
       31125000	      3111	80002514	40d25a13	srai	x20,x4,0xd	  x4:0x90f6f000 x20=0xfffc87b7
       31135000	      3112	80002518	41cb5d33	sra	x26,x22,x28	 x22:0xfffffff8 x28:0x00000000 x26=0xfffffff8
       31145000	      3113	8000251c	01483033	sltu	x0,x16,x20	 x16:0x00000001 x20:0xfffc87b7
       31155000	      3114	80002520	ffd60613	addi	x12,x12,-3	 x12:0x00000001 x12=0xfffffffe
       31165000	      3115	80002524	ffa00e93	addi	x29,x0,-6	  x0:0x00000000 x29=0xfffffffa
       31175000	      3116	80002528	5eebe513	ori	x10,x23,1518	 x23:0x00000000 x10=0x000005ee
       31185000	      3117	8000252c	410c52b3	sra	x5,x24,x16	 x24:0x00000001 x16:0x00000001  x5=0x00000000
       31195000	      3118	80002530	00300093	addi	x1,x0,3	  x0:0x00000000  x1=0x00000003
       31205000	      3119	80002534	01fd3c33	sltu	x24,x26,x31	 x26:0xfffffff8 x31:0x00000000 x24=0x00000000
       31215000	      3120	80002538	00bd1f93	slli	x31,x26,0xb	 x26:0xfffffff8 x31=0xffffc000
       31225000	      3121	8000253c	00000013	addi	x0,x0,0	  x0:0x00000000
       31235000	      3122	80002540	01d4f833	and	x16,x9,x29	  x9:0x90f6eff1 x29:0xfffffffa x16=0x90f6eff0
       31245000	      3123	80002544	009e8e93	addi	x29,x29,9	 x29:0xfffffffa x29=0x00000003
       31255000	      3124	80002548	00245313	srli	x6,x8,0x2	  x8:0x0000000f  x6=0x00000003
       31265000	      3125	8000254c	01656233	or	x4,x10,x22	 x10:0x000005ee x22:0xfffffff8  x4=0xfffffffe
       31275000	      3126	80002550	fe1e88e3	beq	x29,x1,80002540	 x29:0x00000003  x1:0x00000003
       31285000	      3127	00000000	00000013	addi	x0,x0,0	  x0:0x00000000
       31295000	      3128	8000253c	00000013	addi	x0,x0,0	  x0:0x00000000
       31305000	      3129	80002540	01d4f833	and	x16,x9,x29	  x9:0x90f6eff1 x29:0x00000003 x16=0x00000001
       31315000	      3130	80002544	009e8e93	addi	x29,x29,9	 x29:0x00000003 x29=0x0000000c
       31325000	      3131	80002548	00245313	srli	x6,x8,0x2	  x8:0x0000000f  x6=0x00000003
       31335000	      3132	8000254c	01656233	or	x4,x10,x22	 x10:0x000005ee x22:0xfffffff8  x4=0xfffffffe
       31345000	      3133	80002550	fe1e88e3	beq	x29,x1,80002540	 x29:0x0000000c  x1:0x00000003
       31355000	      3134	80002554	960a3893	sltiu	x17,x20,-1696	 x20:0xfffc87b7 x17=0x00000001
       31365000	      3135	80002558	fb665ce3	bge	x12,x22,80002510	 x12:0xfffffffe x22:0xfffffff8
       31375000	      3136	00000000	00000013	addi	x0,x0,0	  x0:0x00000000
       31385000	      3137	8000250c	00000013	addi	x0,x0,0	  x0:0x00000000
       31395000	      3138	80002510	40d204b3	sub	x9,x4,x13	  x4:0xfffffffe x13:0x0000000f  x9=0xffffffef
       31405000	      3139	80002514	40d25a13	srai	x20,x4,0xd	  x4:0xfffffffe x20=0xffffffff
       31415000	      3140	80002518	41cb5d33	sra	x26,x22,x28	 x22:0xfffffff8 x28:0x00000000 x26=0xfffffff8
       31425000	      3141	8000251c	01483033	sltu	x0,x16,x20	 x16:0x00000001 x20:0xffffffff
       31435000	      3142	80002520	ffd60613	addi	x12,x12,-3	 x12:0xfffffffe x12=0xfffffffb
       31445000	      3143	80002524	ffa00e93	addi	x29,x0,-6	  x0:0x00000000 x29=0xfffffffa
       31455000	      3144	80002528	5eebe513	ori	x10,x23,1518	 x23:0x00000000 x10=0x000005ee
       31465000	      3145	8000252c	410c52b3	sra	x5,x24,x16	 x24:0x00000000 x16:0x00000001  x5=0x00000000
       31475000	      3146	80002530	00300093	addi	x1,x0,3	  x0:0x00000000  x1=0x00000003
       31485000	      3147	80002534	01fd3c33	sltu	x24,x26,x31	 x26:0xfffffff8 x31:0xffffc000 x24=0x00000000
       31495000	      3148	80002538	00bd1f93	slli	x31,x26,0xb	 x26:0xfffffff8 x31=0xffffc000
       31505000	      3149	8000253c	00000013	addi	x0,x0,0	  x0:0x00000000
       31515000	      3150	80002540	01d4f833	and	x16,x9,x29	  x9:0xffffffef x29:0xfffffffa x16=0xffffffea
       31525000	      3151	80002544	009e8e93	addi	x29,x29,9	 x29:0xfffffffa x29=0x00000003
       31535000	      3152	80002548	00245313	srli	x6,x8,0x2	  x8:0x0000000f  x6=0x00000003
       31545000	      3153	8000254c	01656233	or	x4,x10,x22	 x10:0x000005ee x22:0xfffffff8  x4=0xfffffffe
       31555000	      3154	80002550	fe1e88e3	beq	x29,x1,80002540	 x29:0x00000003  x1:0x00000003
       31565000	      3155	00000000	00000013	addi	x0,x0,0	  x0:0x00000000
       31575000	      3156	8000253c	00000013	addi	x0,x0,0	  x0:0x00000000
       31585000	      3157	80002540	01d4f833	and	x16,x9,x29	  x9:0xffffffef x29:0x00000003 x16=0x00000003
       31595000	      3158	80002544	009e8e93	addi	x29,x29,9	 x29:0x00000003 x29=0x0000000c
       31605000	      3159	80002548	00245313	srli	x6,x8,0x2	  x8:0x0000000f  x6=0x00000003
       31615000	      3160	8000254c	01656233	or	x4,x10,x22	 x10:0x000005ee x22:0xfffffff8  x4=0xfffffffe
       31625000	      3161	80002550	fe1e88e3	beq	x29,x1,80002540	 x29:0x0000000c  x1:0x00000003
       31635000	      3162	80002554	960a3893	sltiu	x17,x20,-1696	 x20:0xffffffff x17=0x00000000
       31645000	      3163	80002558	fb665ce3	bge	x12,x22,80002510	 x12:0xfffffffb x22:0xfffffff8
       31655000	      3164	00000000	00000013	addi	x0,x0,0	  x0:0x00000000
       31665000	      3165	8000250c	00000013	addi	x0,x0,0	  x0:0x00000000
       31675000	      3166	80002510	40d204b3	sub	x9,x4,x13	  x4:0xfffffffe x13:0x0000000f  x9=0xffffffef
       31685000	      3167	80002514	40d25a13	srai	x20,x4,0xd	  x4:0xfffffffe x20=0xffffffff
       31695000	      3168	80002518	41cb5d33	sra	x26,x22,x28	 x22:0xfffffff8 x28:0x00000000 x26=0xfffffff8
       31705000	      3169	8000251c	01483033	sltu	x0,x16,x20	 x16:0x00000003 x20:0xffffffff
       31715000	      3170	80002520	ffd60613	addi	x12,x12,-3	 x12:0xfffffffb x12=0xfffffff8
       31725000	      3171	80002524	ffa00e93	addi	x29,x0,-6	  x0:0x00000000 x29=0xfffffffa
       31735000	      3172	80002528	5eebe513	ori	x10,x23,1518	 x23:0x00000000 x10=0x000005ee
       31745000	      3173	8000252c	410c52b3	sra	x5,x24,x16	 x24:0x00000000 x16:0x00000003  x5=0x00000000
       31755000	      3174	80002530	00300093	addi	x1,x0,3	  x0:0x00000000  x1=0x00000003
       31765000	      3175	80002534	01fd3c33	sltu	x24,x26,x31	 x26:0xfffffff8 x31:0xffffc000 x24=0x00000000
       31775000	      3176	80002538	00bd1f93	slli	x31,x26,0xb	 x26:0xfffffff8 x31=0xffffc000
       31785000	      3177	8000253c	00000013	addi	x0,x0,0	  x0:0x00000000
       31795000	      3178	80002540	01d4f833	and	x16,x9,x29	  x9:0xffffffef x29:0xfffffffa x16=0xffffffea
       31805000	      3179	80002544	009e8e93	addi	x29,x29,9	 x29:0xfffffffa x29=0x00000003
       31815000	      3180	80002548	00245313	srli	x6,x8,0x2	  x8:0x0000000f  x6=0x00000003
       31825000	      3181	8000254c	01656233	or	x4,x10,x22	 x10:0x000005ee x22:0xfffffff8  x4=0xfffffffe
       31835000	      3182	80002550	fe1e88e3	beq	x29,x1,80002540	 x29:0x00000003  x1:0x00000003
       31845000	      3183	00000000	00000013	addi	x0,x0,0	  x0:0x00000000
       31855000	      3184	8000253c	00000013	addi	x0,x0,0	  x0:0x00000000
       31865000	      3185	80002540	01d4f833	and	x16,x9,x29	  x9:0xffffffef x29:0x00000003 x16=0x00000003
       31875000	      3186	80002544	009e8e93	addi	x29,x29,9	 x29:0x00000003 x29=0x0000000c
       31885000	      3187	80002548	00245313	srli	x6,x8,0x2	  x8:0x0000000f  x6=0x00000003
       31895000	      3188	8000254c	01656233	or	x4,x10,x22	 x10:0x000005ee x22:0xfffffff8  x4=0xfffffffe
       31905000	      3189	80002550	fe1e88e3	beq	x29,x1,80002540	 x29:0x0000000c  x1:0x00000003
       31915000	      3190	80002554	960a3893	sltiu	x17,x20,-1696	 x20:0xffffffff x17=0x00000000
       31925000	      3191	80002558	fb665ce3	bge	x12,x22,80002510	 x12:0xfffffff8 x22:0xfffffff8
       31935000	      3192	00000000	00000013	addi	x0,x0,0	  x0:0x00000000
       31945000	      3193	8000250c	00000013	addi	x0,x0,0	  x0:0x00000000
       31955000	      3194	80002510	40d204b3	sub	x9,x4,x13	  x4:0xfffffffe x13:0x0000000f  x9=0xffffffef
       31965000	      3195	80002514	40d25a13	srai	x20,x4,0xd	  x4:0xfffffffe x20=0xffffffff
       31975000	      3196	80002518	41cb5d33	sra	x26,x22,x28	 x22:0xfffffff8 x28:0x00000000 x26=0xfffffff8
       31985000	      3197	8000251c	01483033	sltu	x0,x16,x20	 x16:0x00000003 x20:0xffffffff
       31995000	      3198	80002520	ffd60613	addi	x12,x12,-3	 x12:0xfffffff8 x12=0xfffffff5
       32005000	      3199	80002524	ffa00e93	addi	x29,x0,-6	  x0:0x00000000 x29=0xfffffffa
       32015000	      3200	80002528	5eebe513	ori	x10,x23,1518	 x23:0x00000000 x10=0x000005ee
       32025000	      3201	8000252c	410c52b3	sra	x5,x24,x16	 x24:0x00000000 x16:0x00000003  x5=0x00000000
       32035000	      3202	80002530	00300093	addi	x1,x0,3	  x0:0x00000000  x1=0x00000003
       32045000	      3203	80002534	01fd3c33	sltu	x24,x26,x31	 x26:0xfffffff8 x31:0xffffc000 x24=0x00000000
       32055000	      3204	80002538	00bd1f93	slli	x31,x26,0xb	 x26:0xfffffff8 x31=0xffffc000
       32065000	      3205	8000253c	00000013	addi	x0,x0,0	  x0:0x00000000
       32075000	      3206	80002540	01d4f833	and	x16,x9,x29	  x9:0xffffffef x29:0xfffffffa x16=0xffffffea
       32085000	      3207	80002544	009e8e93	addi	x29,x29,9	 x29:0xfffffffa x29=0x00000003
       32095000	      3208	80002548	00245313	srli	x6,x8,0x2	  x8:0x0000000f  x6=0x00000003
       32105000	      3209	8000254c	01656233	or	x4,x10,x22	 x10:0x000005ee x22:0xfffffff8  x4=0xfffffffe
       32115000	      3210	80002550	fe1e88e3	beq	x29,x1,80002540	 x29:0x00000003  x1:0x00000003
       32125000	      3211	00000000	00000013	addi	x0,x0,0	  x0:0x00000000
       32135000	      3212	8000253c	00000013	addi	x0,x0,0	  x0:0x00000000
       32145000	      3213	80002540	01d4f833	and	x16,x9,x29	  x9:0xffffffef x29:0x00000003 x16=0x00000003
       32155000	      3214	80002544	009e8e93	addi	x29,x29,9	 x29:0x00000003 x29=0x0000000c
       32165000	      3215	80002548	00245313	srli	x6,x8,0x2	  x8:0x0000000f  x6=0x00000003
       32175000	      3216	8000254c	01656233	or	x4,x10,x22	 x10:0x000005ee x22:0xfffffff8  x4=0xfffffffe
       32185000	      3217	80002550	fe1e88e3	beq	x29,x1,80002540	 x29:0x0000000c  x1:0x00000003
       32195000	      3218	80002554	960a3893	sltiu	x17,x20,-1696	 x20:0xffffffff x17=0x00000000
       32205000	      3219	80002558	fb665ce3	bge	x12,x22,80002510	 x12:0xfffffff5 x22:0xfffffff8
       32215000	      3220	8000255c	019bf233	and	x4,x23,x25	 x23:0x00000000 x25:0x00000010  x4=0x00000000
       32225000	      3221	80002560	ff800293	addi	x5,x0,-8	  x0:0x00000000  x5=0xfffffff8
       32235000	      3222	80002564	004e69b3	or	x19,x28,x4	 x28:0x00000000  x4:0x00000000 x19=0x00000000
       32245000	      3223	80002568	ffb00393	addi	x7,x0,-5	  x0:0x00000000  x7=0xfffffffb
       32255000	      3224	8000256c	40e85f93	srai	x31,x16,0xe	 x16:0x00000003 x31=0x00000000
       32265000	      3225	80002570	41aa5c93	srai	x25,x20,0x1a	 x20:0xffffffff x25=0xffffffff
       32275000	      3226	80002574	00f33c33	sltu	x24,x6,x15	  x6:0x00000003 x15:0x0000000a x24=0x00000001
       32285000	      3227	80002578	00828293	addi	x5,x5,8	  x5:0xfffffff8  x5=0x00000000
       32295000	      3228	8000257c	fe72cce3	blt	x5,x7,80002574	  x5:0x00000000  x7:0xfffffffb
       32305000	      3229	80002580	003e3333	sltu	x6,x28,x3	 x28:0x00000000  x3:0x00000000  x6=0x00000000
       32315000	      3230	80002584	00200713	addi	x14,x0,2	  x0:0x00000000 x14=0x00000002
       32325000	      3231	80002588	01000c13	addi	x24,x0,16	  x0:0x00000000 x24=0x00000010
       32335000	      3232	8000258c	4ed76393	ori	x7,x14,1261	 x14:0x00000002  x7=0x000004ef
       32345000	      3233	80002590	01230b33	add	x22,x6,x18	  x6:0x00000000 x18:0x000003ff x22=0x000003ff
       32355000	      3234	80002594	01f47533	and	x10,x8,x31	  x8:0x0000000f x31:0x00000000 x10=0x00000000
       32365000	      3235	80002598	00ee9b93	slli	x23,x29,0xe	 x29:0x0000000c x23=0x00030000
       32375000	      3236	8000259c	00270713	addi	x14,x14,2	 x14:0x00000002 x14=0x00000004
       32385000	      3237	800025a0	00800593	addi	x11,x0,8	  x0:0x00000000 x11=0x00000008
       32395000	      3238	800025a4	ff800993	addi	x19,x0,-8	  x0:0x00000000 x19=0xfffffff8
       32405000	      3239	800025a8	0154e233	or	x4,x9,x21	  x9:0xffffffef x21:0x34c7642c  x4=0xffffffef
       32415000	      3240	800025ac	42d9c393	xori	x7,x19,1069	 x19:0xfffffff8  x7=0xfffffbd5
       32425000	      3241	800025b0	ffe58593	addi	x11,x11,-2	 x11:0x00000008 x11=0x00000006
       32435000	      3242	800025b4	94a70813	addi	x16,x14,-1718	 x14:0x00000004 x16=0xfffff94e
       32445000	      3243	800025b8	ff359ae3	bne	x11,x19,800025ac	 x11:0x00000006 x19:0xfffffff8
       32455000	      3244	00000000	00000013	addi	x0,x0,0	  x0:0x00000000
       32465000	      3245	800025a8	00000013	addi	x0,x0,0	  x0:0x00000000
       32475000	      3246	800025ac	42d9c393	xori	x7,x19,1069	 x19:0xfffffff8  x7=0xfffffbd5
       32485000	      3247	800025b0	ffe58593	addi	x11,x11,-2	 x11:0x00000006 x11=0x00000004
       32495000	      3248	800025b4	94a70813	addi	x16,x14,-1718	 x14:0x00000004 x16=0xfffff94e
       32505000	      3249	800025b8	ff359ae3	bne	x11,x19,800025ac	 x11:0x00000004 x19:0xfffffff8
       32515000	      3250	00000000	00000013	addi	x0,x0,0	  x0:0x00000000
       32525000	      3251	800025a8	00000013	addi	x0,x0,0	  x0:0x00000000
       32535000	      3252	800025ac	42d9c393	xori	x7,x19,1069	 x19:0xfffffff8  x7=0xfffffbd5
       32545000	      3253	800025b0	ffe58593	addi	x11,x11,-2	 x11:0x00000004 x11=0x00000002
       32555000	      3254	800025b4	94a70813	addi	x16,x14,-1718	 x14:0x00000004 x16=0xfffff94e
       32565000	      3255	800025b8	ff359ae3	bne	x11,x19,800025ac	 x11:0x00000002 x19:0xfffffff8
       32575000	      3256	00000000	00000013	addi	x0,x0,0	  x0:0x00000000
       32585000	      3257	800025a8	00000013	addi	x0,x0,0	  x0:0x00000000
       32595000	      3258	800025ac	42d9c393	xori	x7,x19,1069	 x19:0xfffffff8  x7=0xfffffbd5
       32605000	      3259	800025b0	ffe58593	addi	x11,x11,-2	 x11:0x00000002 x11=0x00000000
       32615000	      3260	800025b4	94a70813	addi	x16,x14,-1718	 x14:0x00000004 x16=0xfffff94e
       32625000	      3261	800025b8	ff359ae3	bne	x11,x19,800025ac	 x11:0x00000000 x19:0xfffffff8
       32635000	      3262	00000000	00000013	addi	x0,x0,0	  x0:0x00000000
       32645000	      3263	800025a8	00000013	addi	x0,x0,0	  x0:0x00000000
       32655000	      3264	800025ac	42d9c393	xori	x7,x19,1069	 x19:0xfffffff8  x7=0xfffffbd5
       32665000	      3265	800025b0	ffe58593	addi	x11,x11,-2	 x11:0x00000000 x11=0xfffffffe
       32675000	      3266	800025b4	94a70813	addi	x16,x14,-1718	 x14:0x00000004 x16=0xfffff94e
       32685000	      3267	800025b8	ff359ae3	bne	x11,x19,800025ac	 x11:0xfffffffe x19:0xfffffff8
       32695000	      3268	00000000	00000013	addi	x0,x0,0	  x0:0x00000000
       32705000	      3269	800025a8	00000013	addi	x0,x0,0	  x0:0x00000000
       32715000	      3270	800025ac	42d9c393	xori	x7,x19,1069	 x19:0xfffffff8  x7=0xfffffbd5
       32725000	      3271	800025b0	ffe58593	addi	x11,x11,-2	 x11:0xfffffffe x11=0xfffffffc
       32735000	      3272	800025b4	94a70813	addi	x16,x14,-1718	 x14:0x00000004 x16=0xfffff94e
       32745000	      3273	800025b8	ff359ae3	bne	x11,x19,800025ac	 x11:0xfffffffc x19:0xfffffff8
       32755000	      3274	00000000	00000013	addi	x0,x0,0	  x0:0x00000000
       32765000	      3275	800025a8	00000013	addi	x0,x0,0	  x0:0x00000000
       32775000	      3276	800025ac	42d9c393	xori	x7,x19,1069	 x19:0xfffffff8  x7=0xfffffbd5
       32785000	      3277	800025b0	ffe58593	addi	x11,x11,-2	 x11:0xfffffffc x11=0xfffffffa
       32795000	      3278	800025b4	94a70813	addi	x16,x14,-1718	 x14:0x00000004 x16=0xfffff94e
       32805000	      3279	800025b8	ff359ae3	bne	x11,x19,800025ac	 x11:0xfffffffa x19:0xfffffff8
       32815000	      3280	00000000	00000013	addi	x0,x0,0	  x0:0x00000000
       32825000	      3281	800025a8	00000013	addi	x0,x0,0	  x0:0x00000000
       32835000	      3282	800025ac	42d9c393	xori	x7,x19,1069	 x19:0xfffffff8  x7=0xfffffbd5
       32845000	      3283	800025b0	ffe58593	addi	x11,x11,-2	 x11:0xfffffffa x11=0xfffffff8
       32855000	      3284	800025b4	94a70813	addi	x16,x14,-1718	 x14:0x00000004 x16=0xfffff94e
       32865000	      3285	800025b8	ff359ae3	bne	x11,x19,800025ac	 x11:0xfffffff8 x19:0xfffffff8
       32875000	      3286	800025bc	01d13a33	sltu	x20,x2,x29	  x2:0xbb682508 x29:0x0000000c x20=0x00000000
       32885000	      3287	800025c0	fd8766e3	bltu	x14,x24,8000258c	 x14:0x00000004 x24:0x00000010
       32895000	      3288	00000000	00000013	addi	x0,x0,0	  x0:0x00000000
       32905000	      3289	80002588	00000013	addi	x0,x0,0	  x0:0x00000000
       32915000	      3290	8000258c	4ed76393	ori	x7,x14,1261	 x14:0x00000004  x7=0x000004ed
       32925000	      3291	80002590	01230b33	add	x22,x6,x18	  x6:0x00000000 x18:0x000003ff x22=0x000003ff
       32935000	      3292	80002594	01f47533	and	x10,x8,x31	  x8:0x0000000f x31:0x00000000 x10=0x00000000
       32945000	      3293	80002598	00ee9b93	slli	x23,x29,0xe	 x29:0x0000000c x23=0x00030000
       32955000	      3294	8000259c	00270713	addi	x14,x14,2	 x14:0x00000004 x14=0x00000006
       32965000	      3295	800025a0	00800593	addi	x11,x0,8	  x0:0x00000000 x11=0x00000008
       32975000	      3296	800025a4	ff800993	addi	x19,x0,-8	  x0:0x00000000 x19=0xfffffff8
       32985000	      3297	800025a8	0154e233	or	x4,x9,x21	  x9:0xffffffef x21:0x34c7642c  x4=0xffffffef
       32995000	      3298	800025ac	42d9c393	xori	x7,x19,1069	 x19:0xfffffff8  x7=0xfffffbd5
       33005000	      3299	800025b0	ffe58593	addi	x11,x11,-2	 x11:0x00000008 x11=0x00000006
       33015000	      3300	800025b4	94a70813	addi	x16,x14,-1718	 x14:0x00000006 x16=0xfffff950
       33025000	      3301	800025b8	ff359ae3	bne	x11,x19,800025ac	 x11:0x00000006 x19:0xfffffff8
       33035000	      3302	00000000	00000013	addi	x0,x0,0	  x0:0x00000000
       33045000	      3303	800025a8	00000013	addi	x0,x0,0	  x0:0x00000000
       33055000	      3304	800025ac	42d9c393	xori	x7,x19,1069	 x19:0xfffffff8  x7=0xfffffbd5
       33065000	      3305	800025b0	ffe58593	addi	x11,x11,-2	 x11:0x00000006 x11=0x00000004
       33075000	      3306	800025b4	94a70813	addi	x16,x14,-1718	 x14:0x00000006 x16=0xfffff950
       33085000	      3307	800025b8	ff359ae3	bne	x11,x19,800025ac	 x11:0x00000004 x19:0xfffffff8
       33095000	      3308	00000000	00000013	addi	x0,x0,0	  x0:0x00000000
       33105000	      3309	800025a8	00000013	addi	x0,x0,0	  x0:0x00000000
       33115000	      3310	800025ac	42d9c393	xori	x7,x19,1069	 x19:0xfffffff8  x7=0xfffffbd5
       33125000	      3311	800025b0	ffe58593	addi	x11,x11,-2	 x11:0x00000004 x11=0x00000002
       33135000	      3312	800025b4	94a70813	addi	x16,x14,-1718	 x14:0x00000006 x16=0xfffff950
       33145000	      3313	800025b8	ff359ae3	bne	x11,x19,800025ac	 x11:0x00000002 x19:0xfffffff8
       33155000	      3314	00000000	00000013	addi	x0,x0,0	  x0:0x00000000
       33165000	      3315	800025a8	00000013	addi	x0,x0,0	  x0:0x00000000
       33175000	      3316	800025ac	42d9c393	xori	x7,x19,1069	 x19:0xfffffff8  x7=0xfffffbd5
       33185000	      3317	800025b0	ffe58593	addi	x11,x11,-2	 x11:0x00000002 x11=0x00000000
       33195000	      3318	800025b4	94a70813	addi	x16,x14,-1718	 x14:0x00000006 x16=0xfffff950
       33205000	      3319	800025b8	ff359ae3	bne	x11,x19,800025ac	 x11:0x00000000 x19:0xfffffff8
       33215000	      3320	00000000	00000013	addi	x0,x0,0	  x0:0x00000000
       33225000	      3321	800025a8	00000013	addi	x0,x0,0	  x0:0x00000000
       33235000	      3322	800025ac	42d9c393	xori	x7,x19,1069	 x19:0xfffffff8  x7=0xfffffbd5
       33245000	      3323	800025b0	ffe58593	addi	x11,x11,-2	 x11:0x00000000 x11=0xfffffffe
       33255000	      3324	800025b4	94a70813	addi	x16,x14,-1718	 x14:0x00000006 x16=0xfffff950
       33265000	      3325	800025b8	ff359ae3	bne	x11,x19,800025ac	 x11:0xfffffffe x19:0xfffffff8
       33275000	      3326	00000000	00000013	addi	x0,x0,0	  x0:0x00000000
       33285000	      3327	800025a8	00000013	addi	x0,x0,0	  x0:0x00000000
       33295000	      3328	800025ac	42d9c393	xori	x7,x19,1069	 x19:0xfffffff8  x7=0xfffffbd5
       33305000	      3329	800025b0	ffe58593	addi	x11,x11,-2	 x11:0xfffffffe x11=0xfffffffc
       33315000	      3330	800025b4	94a70813	addi	x16,x14,-1718	 x14:0x00000006 x16=0xfffff950
       33325000	      3331	800025b8	ff359ae3	bne	x11,x19,800025ac	 x11:0xfffffffc x19:0xfffffff8
       33335000	      3332	00000000	00000013	addi	x0,x0,0	  x0:0x00000000
       33345000	      3333	800025a8	00000013	addi	x0,x0,0	  x0:0x00000000
       33355000	      3334	800025ac	42d9c393	xori	x7,x19,1069	 x19:0xfffffff8  x7=0xfffffbd5
       33365000	      3335	800025b0	ffe58593	addi	x11,x11,-2	 x11:0xfffffffc x11=0xfffffffa
       33375000	      3336	800025b4	94a70813	addi	x16,x14,-1718	 x14:0x00000006 x16=0xfffff950
       33385000	      3337	800025b8	ff359ae3	bne	x11,x19,800025ac	 x11:0xfffffffa x19:0xfffffff8
       33395000	      3338	00000000	00000013	addi	x0,x0,0	  x0:0x00000000
       33405000	      3339	800025a8	00000013	addi	x0,x0,0	  x0:0x00000000
       33415000	      3340	800025ac	42d9c393	xori	x7,x19,1069	 x19:0xfffffff8  x7=0xfffffbd5
       33425000	      3341	800025b0	ffe58593	addi	x11,x11,-2	 x11:0xfffffffa x11=0xfffffff8
       33435000	      3342	800025b4	94a70813	addi	x16,x14,-1718	 x14:0x00000006 x16=0xfffff950
       33445000	      3343	800025b8	ff359ae3	bne	x11,x19,800025ac	 x11:0xfffffff8 x19:0xfffffff8
       33455000	      3344	800025bc	01d13a33	sltu	x20,x2,x29	  x2:0xbb682508 x29:0x0000000c x20=0x00000000
       33465000	      3345	800025c0	fd8766e3	bltu	x14,x24,8000258c	 x14:0x00000006 x24:0x00000010
       33475000	      3346	00000000	00000013	addi	x0,x0,0	  x0:0x00000000
       33485000	      3347	80002588	00000013	addi	x0,x0,0	  x0:0x00000000
       33495000	      3348	8000258c	4ed76393	ori	x7,x14,1261	 x14:0x00000006  x7=0x000004ef
       33505000	      3349	80002590	01230b33	add	x22,x6,x18	  x6:0x00000000 x18:0x000003ff x22=0x000003ff
       33515000	      3350	80002594	01f47533	and	x10,x8,x31	  x8:0x0000000f x31:0x00000000 x10=0x00000000
       33525000	      3351	80002598	00ee9b93	slli	x23,x29,0xe	 x29:0x0000000c x23=0x00030000
       33535000	      3352	8000259c	00270713	addi	x14,x14,2	 x14:0x00000006 x14=0x00000008
       33545000	      3353	800025a0	00800593	addi	x11,x0,8	  x0:0x00000000 x11=0x00000008
       33555000	      3354	800025a4	ff800993	addi	x19,x0,-8	  x0:0x00000000 x19=0xfffffff8
       33565000	      3355	800025a8	0154e233	or	x4,x9,x21	  x9:0xffffffef x21:0x34c7642c  x4=0xffffffef
       33575000	      3356	800025ac	42d9c393	xori	x7,x19,1069	 x19:0xfffffff8  x7=0xfffffbd5
       33585000	      3357	800025b0	ffe58593	addi	x11,x11,-2	 x11:0x00000008 x11=0x00000006
       33595000	      3358	800025b4	94a70813	addi	x16,x14,-1718	 x14:0x00000008 x16=0xfffff952
       33605000	      3359	800025b8	ff359ae3	bne	x11,x19,800025ac	 x11:0x00000006 x19:0xfffffff8
       33615000	      3360	00000000	00000013	addi	x0,x0,0	  x0:0x00000000
       33625000	      3361	800025a8	00000013	addi	x0,x0,0	  x0:0x00000000
       33635000	      3362	800025ac	42d9c393	xori	x7,x19,1069	 x19:0xfffffff8  x7=0xfffffbd5
       33645000	      3363	800025b0	ffe58593	addi	x11,x11,-2	 x11:0x00000006 x11=0x00000004
       33655000	      3364	800025b4	94a70813	addi	x16,x14,-1718	 x14:0x00000008 x16=0xfffff952
       33665000	      3365	800025b8	ff359ae3	bne	x11,x19,800025ac	 x11:0x00000004 x19:0xfffffff8
       33675000	      3366	00000000	00000013	addi	x0,x0,0	  x0:0x00000000
       33685000	      3367	800025a8	00000013	addi	x0,x0,0	  x0:0x00000000
       33695000	      3368	800025ac	42d9c393	xori	x7,x19,1069	 x19:0xfffffff8  x7=0xfffffbd5
       33705000	      3369	800025b0	ffe58593	addi	x11,x11,-2	 x11:0x00000004 x11=0x00000002
       33715000	      3370	800025b4	94a70813	addi	x16,x14,-1718	 x14:0x00000008 x16=0xfffff952
       33725000	      3371	800025b8	ff359ae3	bne	x11,x19,800025ac	 x11:0x00000002 x19:0xfffffff8
       33735000	      3372	00000000	00000013	addi	x0,x0,0	  x0:0x00000000
       33745000	      3373	800025a8	00000013	addi	x0,x0,0	  x0:0x00000000
       33755000	      3374	800025ac	42d9c393	xori	x7,x19,1069	 x19:0xfffffff8  x7=0xfffffbd5
       33765000	      3375	800025b0	ffe58593	addi	x11,x11,-2	 x11:0x00000002 x11=0x00000000
       33775000	      3376	800025b4	94a70813	addi	x16,x14,-1718	 x14:0x00000008 x16=0xfffff952
       33785000	      3377	800025b8	ff359ae3	bne	x11,x19,800025ac	 x11:0x00000000 x19:0xfffffff8
       33795000	      3378	00000000	00000013	addi	x0,x0,0	  x0:0x00000000
       33805000	      3379	800025a8	00000013	addi	x0,x0,0	  x0:0x00000000
       33815000	      3380	800025ac	42d9c393	xori	x7,x19,1069	 x19:0xfffffff8  x7=0xfffffbd5
       33825000	      3381	800025b0	ffe58593	addi	x11,x11,-2	 x11:0x00000000 x11=0xfffffffe
       33835000	      3382	800025b4	94a70813	addi	x16,x14,-1718	 x14:0x00000008 x16=0xfffff952
       33845000	      3383	800025b8	ff359ae3	bne	x11,x19,800025ac	 x11:0xfffffffe x19:0xfffffff8
       33855000	      3384	00000000	00000013	addi	x0,x0,0	  x0:0x00000000
       33865000	      3385	800025a8	00000013	addi	x0,x0,0	  x0:0x00000000
       33875000	      3386	800025ac	42d9c393	xori	x7,x19,1069	 x19:0xfffffff8  x7=0xfffffbd5
       33885000	      3387	800025b0	ffe58593	addi	x11,x11,-2	 x11:0xfffffffe x11=0xfffffffc
       33895000	      3388	800025b4	94a70813	addi	x16,x14,-1718	 x14:0x00000008 x16=0xfffff952
       33905000	      3389	800025b8	ff359ae3	bne	x11,x19,800025ac	 x11:0xfffffffc x19:0xfffffff8
       33915000	      3390	00000000	00000013	addi	x0,x0,0	  x0:0x00000000
       33925000	      3391	800025a8	00000013	addi	x0,x0,0	  x0:0x00000000
       33935000	      3392	800025ac	42d9c393	xori	x7,x19,1069	 x19:0xfffffff8  x7=0xfffffbd5
       33945000	      3393	800025b0	ffe58593	addi	x11,x11,-2	 x11:0xfffffffc x11=0xfffffffa
       33955000	      3394	800025b4	94a70813	addi	x16,x14,-1718	 x14:0x00000008 x16=0xfffff952
       33965000	      3395	800025b8	ff359ae3	bne	x11,x19,800025ac	 x11:0xfffffffa x19:0xfffffff8
       33975000	      3396	00000000	00000013	addi	x0,x0,0	  x0:0x00000000
       33985000	      3397	800025a8	00000013	addi	x0,x0,0	  x0:0x00000000
       33995000	      3398	800025ac	42d9c393	xori	x7,x19,1069	 x19:0xfffffff8  x7=0xfffffbd5
       34005000	      3399	800025b0	ffe58593	addi	x11,x11,-2	 x11:0xfffffffa x11=0xfffffff8
       34015000	      3400	800025b4	94a70813	addi	x16,x14,-1718	 x14:0x00000008 x16=0xfffff952
       34025000	      3401	800025b8	ff359ae3	bne	x11,x19,800025ac	 x11:0xfffffff8 x19:0xfffffff8
       34035000	      3402	800025bc	01d13a33	sltu	x20,x2,x29	  x2:0xbb682508 x29:0x0000000c x20=0x00000000
       34045000	      3403	800025c0	fd8766e3	bltu	x14,x24,8000258c	 x14:0x00000008 x24:0x00000010
       34055000	      3404	00000000	00000013	addi	x0,x0,0	  x0:0x00000000
       34065000	      3405	80002588	00000013	addi	x0,x0,0	  x0:0x00000000
       34075000	      3406	8000258c	4ed76393	ori	x7,x14,1261	 x14:0x00000008  x7=0x000004ed
       34085000	      3407	80002590	01230b33	add	x22,x6,x18	  x6:0x00000000 x18:0x000003ff x22=0x000003ff
       34095000	      3408	80002594	01f47533	and	x10,x8,x31	  x8:0x0000000f x31:0x00000000 x10=0x00000000
       34105000	      3409	80002598	00ee9b93	slli	x23,x29,0xe	 x29:0x0000000c x23=0x00030000
       34115000	      3410	8000259c	00270713	addi	x14,x14,2	 x14:0x00000008 x14=0x0000000a
       34125000	      3411	800025a0	00800593	addi	x11,x0,8	  x0:0x00000000 x11=0x00000008
       34135000	      3412	800025a4	ff800993	addi	x19,x0,-8	  x0:0x00000000 x19=0xfffffff8
       34145000	      3413	800025a8	0154e233	or	x4,x9,x21	  x9:0xffffffef x21:0x34c7642c  x4=0xffffffef
       34155000	      3414	800025ac	42d9c393	xori	x7,x19,1069	 x19:0xfffffff8  x7=0xfffffbd5
       34165000	      3415	800025b0	ffe58593	addi	x11,x11,-2	 x11:0x00000008 x11=0x00000006
       34175000	      3416	800025b4	94a70813	addi	x16,x14,-1718	 x14:0x0000000a x16=0xfffff954
       34185000	      3417	800025b8	ff359ae3	bne	x11,x19,800025ac	 x11:0x00000006 x19:0xfffffff8
       34195000	      3418	00000000	00000013	addi	x0,x0,0	  x0:0x00000000
       34205000	      3419	800025a8	00000013	addi	x0,x0,0	  x0:0x00000000
       34215000	      3420	800025ac	42d9c393	xori	x7,x19,1069	 x19:0xfffffff8  x7=0xfffffbd5
       34225000	      3421	800025b0	ffe58593	addi	x11,x11,-2	 x11:0x00000006 x11=0x00000004
       34235000	      3422	800025b4	94a70813	addi	x16,x14,-1718	 x14:0x0000000a x16=0xfffff954
       34245000	      3423	800025b8	ff359ae3	bne	x11,x19,800025ac	 x11:0x00000004 x19:0xfffffff8
       34255000	      3424	00000000	00000013	addi	x0,x0,0	  x0:0x00000000
       34265000	      3425	800025a8	00000013	addi	x0,x0,0	  x0:0x00000000
       34275000	      3426	800025ac	42d9c393	xori	x7,x19,1069	 x19:0xfffffff8  x7=0xfffffbd5
       34285000	      3427	800025b0	ffe58593	addi	x11,x11,-2	 x11:0x00000004 x11=0x00000002
       34295000	      3428	800025b4	94a70813	addi	x16,x14,-1718	 x14:0x0000000a x16=0xfffff954
       34305000	      3429	800025b8	ff359ae3	bne	x11,x19,800025ac	 x11:0x00000002 x19:0xfffffff8
       34315000	      3430	00000000	00000013	addi	x0,x0,0	  x0:0x00000000
       34325000	      3431	800025a8	00000013	addi	x0,x0,0	  x0:0x00000000
       34335000	      3432	800025ac	42d9c393	xori	x7,x19,1069	 x19:0xfffffff8  x7=0xfffffbd5
       34345000	      3433	800025b0	ffe58593	addi	x11,x11,-2	 x11:0x00000002 x11=0x00000000
       34355000	      3434	800025b4	94a70813	addi	x16,x14,-1718	 x14:0x0000000a x16=0xfffff954
       34365000	      3435	800025b8	ff359ae3	bne	x11,x19,800025ac	 x11:0x00000000 x19:0xfffffff8
       34375000	      3436	00000000	00000013	addi	x0,x0,0	  x0:0x00000000
       34385000	      3437	800025a8	00000013	addi	x0,x0,0	  x0:0x00000000
       34395000	      3438	800025ac	42d9c393	xori	x7,x19,1069	 x19:0xfffffff8  x7=0xfffffbd5
       34405000	      3439	800025b0	ffe58593	addi	x11,x11,-2	 x11:0x00000000 x11=0xfffffffe
       34415000	      3440	800025b4	94a70813	addi	x16,x14,-1718	 x14:0x0000000a x16=0xfffff954
       34425000	      3441	800025b8	ff359ae3	bne	x11,x19,800025ac	 x11:0xfffffffe x19:0xfffffff8
       34435000	      3442	00000000	00000013	addi	x0,x0,0	  x0:0x00000000
       34445000	      3443	800025a8	00000013	addi	x0,x0,0	  x0:0x00000000
       34455000	      3444	800025ac	42d9c393	xori	x7,x19,1069	 x19:0xfffffff8  x7=0xfffffbd5
       34465000	      3445	800025b0	ffe58593	addi	x11,x11,-2	 x11:0xfffffffe x11=0xfffffffc
       34475000	      3446	800025b4	94a70813	addi	x16,x14,-1718	 x14:0x0000000a x16=0xfffff954
       34485000	      3447	800025b8	ff359ae3	bne	x11,x19,800025ac	 x11:0xfffffffc x19:0xfffffff8
       34495000	      3448	00000000	00000013	addi	x0,x0,0	  x0:0x00000000
       34505000	      3449	800025a8	00000013	addi	x0,x0,0	  x0:0x00000000
       34515000	      3450	800025ac	42d9c393	xori	x7,x19,1069	 x19:0xfffffff8  x7=0xfffffbd5
       34525000	      3451	800025b0	ffe58593	addi	x11,x11,-2	 x11:0xfffffffc x11=0xfffffffa
       34535000	      3452	800025b4	94a70813	addi	x16,x14,-1718	 x14:0x0000000a x16=0xfffff954
       34545000	      3453	800025b8	ff359ae3	bne	x11,x19,800025ac	 x11:0xfffffffa x19:0xfffffff8
       34555000	      3454	00000000	00000013	addi	x0,x0,0	  x0:0x00000000
       34565000	      3455	800025a8	00000013	addi	x0,x0,0	  x0:0x00000000
       34575000	      3456	800025ac	42d9c393	xori	x7,x19,1069	 x19:0xfffffff8  x7=0xfffffbd5
       34585000	      3457	800025b0	ffe58593	addi	x11,x11,-2	 x11:0xfffffffa x11=0xfffffff8
       34595000	      3458	800025b4	94a70813	addi	x16,x14,-1718	 x14:0x0000000a x16=0xfffff954
       34605000	      3459	800025b8	ff359ae3	bne	x11,x19,800025ac	 x11:0xfffffff8 x19:0xfffffff8
       34615000	      3460	800025bc	01d13a33	sltu	x20,x2,x29	  x2:0xbb682508 x29:0x0000000c x20=0x00000000
       34625000	      3461	800025c0	fd8766e3	bltu	x14,x24,8000258c	 x14:0x0000000a x24:0x00000010
       34635000	      3462	00000000	00000013	addi	x0,x0,0	  x0:0x00000000
       34645000	      3463	80002588	00000013	addi	x0,x0,0	  x0:0x00000000
       34655000	      3464	8000258c	4ed76393	ori	x7,x14,1261	 x14:0x0000000a  x7=0x000004ef
       34665000	      3465	80002590	01230b33	add	x22,x6,x18	  x6:0x00000000 x18:0x000003ff x22=0x000003ff
       34675000	      3466	80002594	01f47533	and	x10,x8,x31	  x8:0x0000000f x31:0x00000000 x10=0x00000000
       34685000	      3467	80002598	00ee9b93	slli	x23,x29,0xe	 x29:0x0000000c x23=0x00030000
       34695000	      3468	8000259c	00270713	addi	x14,x14,2	 x14:0x0000000a x14=0x0000000c
       34705000	      3469	800025a0	00800593	addi	x11,x0,8	  x0:0x00000000 x11=0x00000008
       34715000	      3470	800025a4	ff800993	addi	x19,x0,-8	  x0:0x00000000 x19=0xfffffff8
       34725000	      3471	800025a8	0154e233	or	x4,x9,x21	  x9:0xffffffef x21:0x34c7642c  x4=0xffffffef
       34735000	      3472	800025ac	42d9c393	xori	x7,x19,1069	 x19:0xfffffff8  x7=0xfffffbd5
       34745000	      3473	800025b0	ffe58593	addi	x11,x11,-2	 x11:0x00000008 x11=0x00000006
       34755000	      3474	800025b4	94a70813	addi	x16,x14,-1718	 x14:0x0000000c x16=0xfffff956
       34765000	      3475	800025b8	ff359ae3	bne	x11,x19,800025ac	 x11:0x00000006 x19:0xfffffff8
       34775000	      3476	00000000	00000013	addi	x0,x0,0	  x0:0x00000000
       34785000	      3477	800025a8	00000013	addi	x0,x0,0	  x0:0x00000000
       34795000	      3478	800025ac	42d9c393	xori	x7,x19,1069	 x19:0xfffffff8  x7=0xfffffbd5
       34805000	      3479	800025b0	ffe58593	addi	x11,x11,-2	 x11:0x00000006 x11=0x00000004
       34815000	      3480	800025b4	94a70813	addi	x16,x14,-1718	 x14:0x0000000c x16=0xfffff956
       34825000	      3481	800025b8	ff359ae3	bne	x11,x19,800025ac	 x11:0x00000004 x19:0xfffffff8
       34835000	      3482	00000000	00000013	addi	x0,x0,0	  x0:0x00000000
       34845000	      3483	800025a8	00000013	addi	x0,x0,0	  x0:0x00000000
       34855000	      3484	800025ac	42d9c393	xori	x7,x19,1069	 x19:0xfffffff8  x7=0xfffffbd5
       34865000	      3485	800025b0	ffe58593	addi	x11,x11,-2	 x11:0x00000004 x11=0x00000002
       34875000	      3486	800025b4	94a70813	addi	x16,x14,-1718	 x14:0x0000000c x16=0xfffff956
       34885000	      3487	800025b8	ff359ae3	bne	x11,x19,800025ac	 x11:0x00000002 x19:0xfffffff8
       34895000	      3488	00000000	00000013	addi	x0,x0,0	  x0:0x00000000
       34905000	      3489	800025a8	00000013	addi	x0,x0,0	  x0:0x00000000
       34915000	      3490	800025ac	42d9c393	xori	x7,x19,1069	 x19:0xfffffff8  x7=0xfffffbd5
       34925000	      3491	800025b0	ffe58593	addi	x11,x11,-2	 x11:0x00000002 x11=0x00000000
       34935000	      3492	800025b4	94a70813	addi	x16,x14,-1718	 x14:0x0000000c x16=0xfffff956
       34945000	      3493	800025b8	ff359ae3	bne	x11,x19,800025ac	 x11:0x00000000 x19:0xfffffff8
       34955000	      3494	00000000	00000013	addi	x0,x0,0	  x0:0x00000000
       34965000	      3495	800025a8	00000013	addi	x0,x0,0	  x0:0x00000000
       34975000	      3496	800025ac	42d9c393	xori	x7,x19,1069	 x19:0xfffffff8  x7=0xfffffbd5
       34985000	      3497	800025b0	ffe58593	addi	x11,x11,-2	 x11:0x00000000 x11=0xfffffffe
       34995000	      3498	800025b4	94a70813	addi	x16,x14,-1718	 x14:0x0000000c x16=0xfffff956
       35005000	      3499	800025b8	ff359ae3	bne	x11,x19,800025ac	 x11:0xfffffffe x19:0xfffffff8
       35015000	      3500	00000000	00000013	addi	x0,x0,0	  x0:0x00000000
       35025000	      3501	800025a8	00000013	addi	x0,x0,0	  x0:0x00000000
       35035000	      3502	800025ac	42d9c393	xori	x7,x19,1069	 x19:0xfffffff8  x7=0xfffffbd5
       35045000	      3503	800025b0	ffe58593	addi	x11,x11,-2	 x11:0xfffffffe x11=0xfffffffc
       35055000	      3504	800025b4	94a70813	addi	x16,x14,-1718	 x14:0x0000000c x16=0xfffff956
       35065000	      3505	800025b8	ff359ae3	bne	x11,x19,800025ac	 x11:0xfffffffc x19:0xfffffff8
       35075000	      3506	00000000	00000013	addi	x0,x0,0	  x0:0x00000000
       35085000	      3507	800025a8	00000013	addi	x0,x0,0	  x0:0x00000000
       35095000	      3508	800025ac	42d9c393	xori	x7,x19,1069	 x19:0xfffffff8  x7=0xfffffbd5
       35105000	      3509	800025b0	ffe58593	addi	x11,x11,-2	 x11:0xfffffffc x11=0xfffffffa
       35115000	      3510	800025b4	94a70813	addi	x16,x14,-1718	 x14:0x0000000c x16=0xfffff956
       35125000	      3511	800025b8	ff359ae3	bne	x11,x19,800025ac	 x11:0xfffffffa x19:0xfffffff8
       35135000	      3512	00000000	00000013	addi	x0,x0,0	  x0:0x00000000
       35145000	      3513	800025a8	00000013	addi	x0,x0,0	  x0:0x00000000
       35155000	      3514	800025ac	42d9c393	xori	x7,x19,1069	 x19:0xfffffff8  x7=0xfffffbd5
       35165000	      3515	800025b0	ffe58593	addi	x11,x11,-2	 x11:0xfffffffa x11=0xfffffff8
       35175000	      3516	800025b4	94a70813	addi	x16,x14,-1718	 x14:0x0000000c x16=0xfffff956
       35185000	      3517	800025b8	ff359ae3	bne	x11,x19,800025ac	 x11:0xfffffff8 x19:0xfffffff8
       35195000	      3518	800025bc	01d13a33	sltu	x20,x2,x29	  x2:0xbb682508 x29:0x0000000c x20=0x00000000
       35205000	      3519	800025c0	fd8766e3	bltu	x14,x24,8000258c	 x14:0x0000000c x24:0x00000010
       35215000	      3520	00000000	00000013	addi	x0,x0,0	  x0:0x00000000
       35225000	      3521	80002588	00000013	addi	x0,x0,0	  x0:0x00000000
       35235000	      3522	8000258c	4ed76393	ori	x7,x14,1261	 x14:0x0000000c  x7=0x000004ed
       35245000	      3523	80002590	01230b33	add	x22,x6,x18	  x6:0x00000000 x18:0x000003ff x22=0x000003ff
       35255000	      3524	80002594	01f47533	and	x10,x8,x31	  x8:0x0000000f x31:0x00000000 x10=0x00000000
       35265000	      3525	80002598	00ee9b93	slli	x23,x29,0xe	 x29:0x0000000c x23=0x00030000
       35275000	      3526	8000259c	00270713	addi	x14,x14,2	 x14:0x0000000c x14=0x0000000e
       35285000	      3527	800025a0	00800593	addi	x11,x0,8	  x0:0x00000000 x11=0x00000008
       35295000	      3528	800025a4	ff800993	addi	x19,x0,-8	  x0:0x00000000 x19=0xfffffff8
       35305000	      3529	800025a8	0154e233	or	x4,x9,x21	  x9:0xffffffef x21:0x34c7642c  x4=0xffffffef
       35315000	      3530	800025ac	42d9c393	xori	x7,x19,1069	 x19:0xfffffff8  x7=0xfffffbd5
       35325000	      3531	800025b0	ffe58593	addi	x11,x11,-2	 x11:0x00000008 x11=0x00000006
       35335000	      3532	800025b4	94a70813	addi	x16,x14,-1718	 x14:0x0000000e x16=0xfffff958
       35345000	      3533	800025b8	ff359ae3	bne	x11,x19,800025ac	 x11:0x00000006 x19:0xfffffff8
       35355000	      3534	00000000	00000013	addi	x0,x0,0	  x0:0x00000000
       35365000	      3535	800025a8	00000013	addi	x0,x0,0	  x0:0x00000000
       35375000	      3536	800025ac	42d9c393	xori	x7,x19,1069	 x19:0xfffffff8  x7=0xfffffbd5
       35385000	      3537	800025b0	ffe58593	addi	x11,x11,-2	 x11:0x00000006 x11=0x00000004
       35395000	      3538	800025b4	94a70813	addi	x16,x14,-1718	 x14:0x0000000e x16=0xfffff958
       35405000	      3539	800025b8	ff359ae3	bne	x11,x19,800025ac	 x11:0x00000004 x19:0xfffffff8
       35415000	      3540	00000000	00000013	addi	x0,x0,0	  x0:0x00000000
       35425000	      3541	800025a8	00000013	addi	x0,x0,0	  x0:0x00000000
       35435000	      3542	800025ac	42d9c393	xori	x7,x19,1069	 x19:0xfffffff8  x7=0xfffffbd5
       35445000	      3543	800025b0	ffe58593	addi	x11,x11,-2	 x11:0x00000004 x11=0x00000002
       35455000	      3544	800025b4	94a70813	addi	x16,x14,-1718	 x14:0x0000000e x16=0xfffff958
       35465000	      3545	800025b8	ff359ae3	bne	x11,x19,800025ac	 x11:0x00000002 x19:0xfffffff8
       35475000	      3546	00000000	00000013	addi	x0,x0,0	  x0:0x00000000
       35485000	      3547	800025a8	00000013	addi	x0,x0,0	  x0:0x00000000
       35495000	      3548	800025ac	42d9c393	xori	x7,x19,1069	 x19:0xfffffff8  x7=0xfffffbd5
       35505000	      3549	800025b0	ffe58593	addi	x11,x11,-2	 x11:0x00000002 x11=0x00000000
       35515000	      3550	800025b4	94a70813	addi	x16,x14,-1718	 x14:0x0000000e x16=0xfffff958
       35525000	      3551	800025b8	ff359ae3	bne	x11,x19,800025ac	 x11:0x00000000 x19:0xfffffff8
       35535000	      3552	00000000	00000013	addi	x0,x0,0	  x0:0x00000000
       35545000	      3553	800025a8	00000013	addi	x0,x0,0	  x0:0x00000000
       35555000	      3554	800025ac	42d9c393	xori	x7,x19,1069	 x19:0xfffffff8  x7=0xfffffbd5
       35565000	      3555	800025b0	ffe58593	addi	x11,x11,-2	 x11:0x00000000 x11=0xfffffffe
       35575000	      3556	800025b4	94a70813	addi	x16,x14,-1718	 x14:0x0000000e x16=0xfffff958
       35585000	      3557	800025b8	ff359ae3	bne	x11,x19,800025ac	 x11:0xfffffffe x19:0xfffffff8
       35595000	      3558	00000000	00000013	addi	x0,x0,0	  x0:0x00000000
       35605000	      3559	800025a8	00000013	addi	x0,x0,0	  x0:0x00000000
       35615000	      3560	800025ac	42d9c393	xori	x7,x19,1069	 x19:0xfffffff8  x7=0xfffffbd5
       35625000	      3561	800025b0	ffe58593	addi	x11,x11,-2	 x11:0xfffffffe x11=0xfffffffc
       35635000	      3562	800025b4	94a70813	addi	x16,x14,-1718	 x14:0x0000000e x16=0xfffff958
       35645000	      3563	800025b8	ff359ae3	bne	x11,x19,800025ac	 x11:0xfffffffc x19:0xfffffff8
       35655000	      3564	00000000	00000013	addi	x0,x0,0	  x0:0x00000000
       35665000	      3565	800025a8	00000013	addi	x0,x0,0	  x0:0x00000000
       35675000	      3566	800025ac	42d9c393	xori	x7,x19,1069	 x19:0xfffffff8  x7=0xfffffbd5
       35685000	      3567	800025b0	ffe58593	addi	x11,x11,-2	 x11:0xfffffffc x11=0xfffffffa
       35695000	      3568	800025b4	94a70813	addi	x16,x14,-1718	 x14:0x0000000e x16=0xfffff958
       35705000	      3569	800025b8	ff359ae3	bne	x11,x19,800025ac	 x11:0xfffffffa x19:0xfffffff8
       35715000	      3570	00000000	00000013	addi	x0,x0,0	  x0:0x00000000
       35725000	      3571	800025a8	00000013	addi	x0,x0,0	  x0:0x00000000
       35735000	      3572	800025ac	42d9c393	xori	x7,x19,1069	 x19:0xfffffff8  x7=0xfffffbd5
       35745000	      3573	800025b0	ffe58593	addi	x11,x11,-2	 x11:0xfffffffa x11=0xfffffff8
       35755000	      3574	800025b4	94a70813	addi	x16,x14,-1718	 x14:0x0000000e x16=0xfffff958
       35765000	      3575	800025b8	ff359ae3	bne	x11,x19,800025ac	 x11:0xfffffff8 x19:0xfffffff8
       35775000	      3576	800025bc	01d13a33	sltu	x20,x2,x29	  x2:0xbb682508 x29:0x0000000c x20=0x00000000
       35785000	      3577	800025c0	fd8766e3	bltu	x14,x24,8000258c	 x14:0x0000000e x24:0x00000010
       35795000	      3578	00000000	00000013	addi	x0,x0,0	  x0:0x00000000
       35805000	      3579	80002588	00000013	addi	x0,x0,0	  x0:0x00000000
       35815000	      3580	8000258c	4ed76393	ori	x7,x14,1261	 x14:0x0000000e  x7=0x000004ef
       35825000	      3581	80002590	01230b33	add	x22,x6,x18	  x6:0x00000000 x18:0x000003ff x22=0x000003ff
       35835000	      3582	80002594	01f47533	and	x10,x8,x31	  x8:0x0000000f x31:0x00000000 x10=0x00000000
       35845000	      3583	80002598	00ee9b93	slli	x23,x29,0xe	 x29:0x0000000c x23=0x00030000
       35855000	      3584	8000259c	00270713	addi	x14,x14,2	 x14:0x0000000e x14=0x00000010
       35865000	      3585	800025a0	00800593	addi	x11,x0,8	  x0:0x00000000 x11=0x00000008
       35875000	      3586	800025a4	ff800993	addi	x19,x0,-8	  x0:0x00000000 x19=0xfffffff8
       35885000	      3587	800025a8	0154e233	or	x4,x9,x21	  x9:0xffffffef x21:0x34c7642c  x4=0xffffffef
       35895000	      3588	800025ac	42d9c393	xori	x7,x19,1069	 x19:0xfffffff8  x7=0xfffffbd5
       35905000	      3589	800025b0	ffe58593	addi	x11,x11,-2	 x11:0x00000008 x11=0x00000006
       35915000	      3590	800025b4	94a70813	addi	x16,x14,-1718	 x14:0x00000010 x16=0xfffff95a
       35925000	      3591	800025b8	ff359ae3	bne	x11,x19,800025ac	 x11:0x00000006 x19:0xfffffff8
       35935000	      3592	00000000	00000013	addi	x0,x0,0	  x0:0x00000000
       35945000	      3593	800025a8	00000013	addi	x0,x0,0	  x0:0x00000000
       35955000	      3594	800025ac	42d9c393	xori	x7,x19,1069	 x19:0xfffffff8  x7=0xfffffbd5
       35965000	      3595	800025b0	ffe58593	addi	x11,x11,-2	 x11:0x00000006 x11=0x00000004
       35975000	      3596	800025b4	94a70813	addi	x16,x14,-1718	 x14:0x00000010 x16=0xfffff95a
       35985000	      3597	800025b8	ff359ae3	bne	x11,x19,800025ac	 x11:0x00000004 x19:0xfffffff8
       35995000	      3598	00000000	00000013	addi	x0,x0,0	  x0:0x00000000
       36005000	      3599	800025a8	00000013	addi	x0,x0,0	  x0:0x00000000
       36015000	      3600	800025ac	42d9c393	xori	x7,x19,1069	 x19:0xfffffff8  x7=0xfffffbd5
       36025000	      3601	800025b0	ffe58593	addi	x11,x11,-2	 x11:0x00000004 x11=0x00000002
       36035000	      3602	800025b4	94a70813	addi	x16,x14,-1718	 x14:0x00000010 x16=0xfffff95a
       36045000	      3603	800025b8	ff359ae3	bne	x11,x19,800025ac	 x11:0x00000002 x19:0xfffffff8
       36055000	      3604	00000000	00000013	addi	x0,x0,0	  x0:0x00000000
       36065000	      3605	800025a8	00000013	addi	x0,x0,0	  x0:0x00000000
       36075000	      3606	800025ac	42d9c393	xori	x7,x19,1069	 x19:0xfffffff8  x7=0xfffffbd5
       36085000	      3607	800025b0	ffe58593	addi	x11,x11,-2	 x11:0x00000002 x11=0x00000000
       36095000	      3608	800025b4	94a70813	addi	x16,x14,-1718	 x14:0x00000010 x16=0xfffff95a
       36105000	      3609	800025b8	ff359ae3	bne	x11,x19,800025ac	 x11:0x00000000 x19:0xfffffff8
       36115000	      3610	00000000	00000013	addi	x0,x0,0	  x0:0x00000000
       36125000	      3611	800025a8	00000013	addi	x0,x0,0	  x0:0x00000000
       36135000	      3612	800025ac	42d9c393	xori	x7,x19,1069	 x19:0xfffffff8  x7=0xfffffbd5
       36145000	      3613	800025b0	ffe58593	addi	x11,x11,-2	 x11:0x00000000 x11=0xfffffffe
       36155000	      3614	800025b4	94a70813	addi	x16,x14,-1718	 x14:0x00000010 x16=0xfffff95a
       36165000	      3615	800025b8	ff359ae3	bne	x11,x19,800025ac	 x11:0xfffffffe x19:0xfffffff8
       36175000	      3616	00000000	00000013	addi	x0,x0,0	  x0:0x00000000
       36185000	      3617	800025a8	00000013	addi	x0,x0,0	  x0:0x00000000
       36195000	      3618	800025ac	42d9c393	xori	x7,x19,1069	 x19:0xfffffff8  x7=0xfffffbd5
       36205000	      3619	800025b0	ffe58593	addi	x11,x11,-2	 x11:0xfffffffe x11=0xfffffffc
       36215000	      3620	800025b4	94a70813	addi	x16,x14,-1718	 x14:0x00000010 x16=0xfffff95a
       36225000	      3621	800025b8	ff359ae3	bne	x11,x19,800025ac	 x11:0xfffffffc x19:0xfffffff8
       36235000	      3622	00000000	00000013	addi	x0,x0,0	  x0:0x00000000
       36245000	      3623	800025a8	00000013	addi	x0,x0,0	  x0:0x00000000
       36255000	      3624	800025ac	42d9c393	xori	x7,x19,1069	 x19:0xfffffff8  x7=0xfffffbd5
       36265000	      3625	800025b0	ffe58593	addi	x11,x11,-2	 x11:0xfffffffc x11=0xfffffffa
       36275000	      3626	800025b4	94a70813	addi	x16,x14,-1718	 x14:0x00000010 x16=0xfffff95a
       36285000	      3627	800025b8	ff359ae3	bne	x11,x19,800025ac	 x11:0xfffffffa x19:0xfffffff8
       36295000	      3628	00000000	00000013	addi	x0,x0,0	  x0:0x00000000
       36305000	      3629	800025a8	00000013	addi	x0,x0,0	  x0:0x00000000
       36315000	      3630	800025ac	42d9c393	xori	x7,x19,1069	 x19:0xfffffff8  x7=0xfffffbd5
       36325000	      3631	800025b0	ffe58593	addi	x11,x11,-2	 x11:0xfffffffa x11=0xfffffff8
       36335000	      3632	800025b4	94a70813	addi	x16,x14,-1718	 x14:0x00000010 x16=0xfffff95a
       36345000	      3633	800025b8	ff359ae3	bne	x11,x19,800025ac	 x11:0xfffffff8 x19:0xfffffff8
       36355000	      3634	800025bc	01d13a33	sltu	x20,x2,x29	  x2:0xbb682508 x29:0x0000000c x20=0x00000000
       36365000	      3635	800025c0	fd8766e3	bltu	x14,x24,8000258c	 x14:0x00000010 x24:0x00000010
       36375000	      3636	800025c4	40e3de33	sra	x28,x7,x14	  x7:0xfffffbd5 x14:0x00000010 x28=0xffffffff
       36385000	      3637	800025c8	00000313	addi	x6,x0,0	  x0:0x00000000  x6=0x00000000
       36395000	      3638	800025cc	ff300893	addi	x17,x0,-13	  x0:0x00000000 x17=0xfffffff3
       36405000	      3639	800025d0	012e2633	slt	x12,x28,x18	 x28:0xffffffff x18:0x000003ff x12=0x00000001
       36415000	      3640	800025d4	3e31af93	slti	x31,x3,995	  x3:0x00000000 x31=0x00000001
       36425000	      3641	800025d8	ff730313	addi	x6,x6,-9	  x6:0x00000000  x6=0xfffffff7
       36435000	      3642	800025dc	00a00993	addi	x19,x0,10	  x0:0x00000000 x19=0x0000000a
       36445000	      3643	800025e0	10bf3713	sltiu	x14,x30,267	 x30:0x80009fc4 x14=0x00000000
       36455000	      3644	800025e4	00900413	addi	x8,x0,9	  x0:0x00000000  x8=0x00000009
       36465000	      3645	800025e8	00000013	addi	x0,x0,0	  x0:0x00000000
       36475000	      3646	800025ec	004fa4b3	slt	x9,x31,x4	 x31:0x00000001  x4:0xffffffef  x9=0x00000000
       36485000	      3647	800025f0	ff898993	addi	x19,x19,-8	 x19:0x0000000a x19=0x00000002
       36495000	      3648	800025f4	fe89fae3	bgeu	x19,x8,800025e8	 x19:0x00000002  x8:0x00000009
       36505000	      3649	800025f8	fd135ee3	bge	x6,x17,800025d4	  x6:0xfffffff7 x17:0xfffffff3
       36515000	      3650	00000000	00000013	addi	x0,x0,0	  x0:0x00000000
       36525000	      3651	800025d0	00000013	addi	x0,x0,0	  x0:0x00000000
       36535000	      3652	800025d4	3e31af93	slti	x31,x3,995	  x3:0x00000000 x31=0x00000001
       36545000	      3653	800025d8	ff730313	addi	x6,x6,-9	  x6:0xfffffff7  x6=0xffffffee
       36555000	      3654	800025dc	00a00993	addi	x19,x0,10	  x0:0x00000000 x19=0x0000000a
       36565000	      3655	800025e0	10bf3713	sltiu	x14,x30,267	 x30:0x80009fc4 x14=0x00000000
       36575000	      3656	800025e4	00900413	addi	x8,x0,9	  x0:0x00000000  x8=0x00000009
       36585000	      3657	800025e8	00000013	addi	x0,x0,0	  x0:0x00000000
       36595000	      3658	800025ec	004fa4b3	slt	x9,x31,x4	 x31:0x00000001  x4:0xffffffef  x9=0x00000000
       36605000	      3659	800025f0	ff898993	addi	x19,x19,-8	 x19:0x0000000a x19=0x00000002
       36615000	      3660	800025f4	fe89fae3	bgeu	x19,x8,800025e8	 x19:0x00000002  x8:0x00000009
       36625000	      3661	800025f8	fd135ee3	bge	x6,x17,800025d4	  x6:0xffffffee x17:0xfffffff3
       36635000	      3662	800025fc	01e91833	sll	x16,x18,x30	 x18:0x000003ff x30:0x80009fc4 x16=0x00003ff0
       36645000	      3663	80002600	73e7f193	andi	x3,x15,1854	 x15:0x0000000a  x3=0x0000000a
       36655000	      3664	80002604	40a887b3	sub	x15,x17,x10	 x17:0xfffffff3 x10:0x00000000 x15=0xfffffff3
       36665000	      3665	80002608	001b1133	sll	x2,x22,x1	 x22:0x000003ff  x1:0x00000003  x2=0x00001ff8
       36675000	      3666	8000260c	01109893	slli	x17,x1,0x11	  x1:0x00000003 x17=0x00060000
       36685000	      3667	80002610	413fdd13	srai	x26,x31,0x13	 x31:0x00000001 x26=0x00000000
       36695000	      3668	80002614	990078b7	lui	x17,0x99007	 x17=0x99007000
       36705000	      3669	80002618	004f17b3	sll	x15,x30,x4	 x30:0x80009fc4  x4:0xffffffef x15=0x4fe20000
       36715000	      3670	8000261c	8e8bef93	ori	x31,x23,-1816	 x23:0x00030000 x31=0xfffff8e8
       36725000	      3671	80002620	0c2db093	sltiu	x1,x27,194	 x27:0x80009ee4  x1=0x00000000
       36735000	      3672	80002624	00000013	addi	x0,x0,0	  x0:0x00000000
       36745000	      3673	80002628	01ddb7b3	sltu	x15,x27,x29	 x27:0x80009ee4 x29:0x0000000c x15=0x00000000
       36755000	      3674	8000262c	01c142b3	xor	x5,x2,x28	  x2:0x00001ff8 x28:0xffffffff  x5=0xffffe007
       36765000	      3675	80002630	01ea5313	srli	x6,x20,0x1e	 x20:0x00000000  x6=0x00000000
       36775000	      3676	80002634	8a126993	ori	x19,x4,-1887	  x4:0xffffffef x19=0xffffffef
       36785000	      3677	80002638	00079993	slli	x19,x15,0x0	 x15:0x00000000 x19=0x00000000
       36795000	      3678	8000263c	0341ea63	bltu	x3,x20,80002670	  x3:0x0000000a x20:0x00000000
       36805000	      3679	80002640	01a4ec63	bltu	x9,x26,80002658	  x9:0x00000000 x26:0x00000000
       36815000	      3680	80002644	75afb737	lui	x14,0x75afb	 x14=0x75afb000
       36825000	      3681	80002648	76d1fe93	andi	x29,x3,1901	  x3:0x0000000a x29=0x00000008
       36835000	      3682	8000264c	abe2fb93	andi	x23,x5,-1346	  x5:0xffffe007 x23=0xffffe006
       36845000	      3683	80002650	a978a513	slti	x10,x17,-1385	 x17:0x99007000 x10=0x00000001
       36855000	      3684	80002654	04874063	blt	x14,x8,80002694	 x14:0x75afb000  x8:0x00000009
       36865000	      3685	80002658	006a4463	blt	x20,x6,80002660	 x20:0x00000000  x6:0x00000000
       36875000	      3686	8000265c	01329863	bne	x5,x19,8000266c	  x5:0xffffe007 x19:0x00000000
       36885000	      3687	00000000	00000013	addi	x0,x0,0	  x0:0x00000000
       36895000	      3688	80002668	00000013	addi	x0,x0,0	  x0:0x00000000
       36905000	      3689	8000266c	0186f133	and	x2,x13,x24	 x13:0x0000000f x24:0x00000010  x2=0x00000000
       36915000	      3690	80002670	01d05e33	srl	x28,x0,x29	  x0:0x00000000 x29:0x00000008 x28=0x00000000
       36925000	      3691	80002674	00478433	add	x8,x15,x4	 x15:0x00000000  x4:0xffffffef  x8=0xffffffef
       36935000	      3692	80002678	000e1d33	sll	x26,x28,x0	 x28:0x00000000  x0:0x00000000 x26=0x00000000
       36945000	      3693	8000267c	95c12713	slti	x14,x2,-1700	  x2:0x00000000 x14=0x00000000
       36955000	      3694	80002680	0cbe7913	andi	x18,x28,203	 x28:0x00000000 x18=0x00000000
       36965000	      3695	80002684	00bd9663	bne	x27,x11,80002690	 x27:0x80009ee4 x11:0xfffffff8
       36975000	      3696	00000000	00000013	addi	x0,x0,0	  x0:0x00000000
       36985000	      3697	8000268c	00000013	addi	x0,x0,0	  x0:0x00000000
       36995000	      3698	80002690	491d2ab7	lui	x21,0x491d2	 x21=0x491d2000
       37005000	      3699	80002694	48e7f893	andi	x17,x15,1166	 x15:0x00000000 x17=0x00000000
       37015000	      3700	80002698	00516fb3	or	x31,x2,x5	  x2:0x00000000  x5:0xffffe007 x31=0xffffe007
       37025000	      3701	8000269c	00e0f433	and	x8,x1,x14	  x1:0x00000000 x14:0x00000000  x8=0x00000000
       37035000	      3702	800026a0	0b24e313	ori	x6,x9,178	  x9:0x00000000  x6=0x000000b2
       37045000	      3703	800026a4	412789b3	sub	x19,x15,x18	 x15:0x00000000 x18:0x00000000 x19=0x00000000
       37055000	      3704	800026a8	00109013	slli	x0,x1,0x1	  x1:0x00000000
       37065000	      3705	800026ac	430c8637	lui	x12,0x430c8	 x12=0x430c8000
       37075000	      3706	800026b0	600a6013	ori	x0,x20,1536	 x20:0x00000000
       37085000	      3707	800026b4	00000013	addi	x0,x0,0	  x0:0x00000000
       37095000	      3708	800026b8	00000013	addi	x0,x0,0	  x0:0x00000000
       37105000	      3709	800026bc	fbbe7413	andi	x8,x28,-69	 x28:0x00000000  x8=0x00000000
       37115000	      3710	800026c0	1e994913	xori	x18,x18,489	 x18:0x00000000 x18=0x000001e9
       37125000	      3711	800026c4	b0034093	xori	x1,x6,-1280	  x6:0x000000b2  x1=0xfffffbb2
       37135000	      3712	800026c8	417e5b13	srai	x22,x28,0x17	 x28:0x00000000 x22=0x00000000
       37145000	      3713	800026cc	03d57c63	bgeu	x10,x29,80002704	 x10:0x00000001 x29:0x00000008
       37155000	      3714	800026d0	40b25033	sra	x0,x4,x11	  x4:0xffffffef x11:0xfffffff8
       37165000	      3715	800026d4	00c4a233	slt	x4,x9,x12	  x9:0x00000000 x12:0x430c8000  x4=0x00000001
       37175000	      3716	800026d8	a824bf93	sltiu	x31,x9,-1406	  x9:0x00000000 x31=0x00000001
       37185000	      3717	800026dc	03797863	bgeu	x18,x23,8000270c	 x18:0x000001e9 x23:0xffffe006
       37195000	      3718	800026e0	019cc133	xor	x2,x25,x25	 x25:0xffffffff x25:0xffffffff  x2=0x00000000
       37205000	      3719	800026e4	0079ad33	slt	x26,x19,x7	 x19:0x00000000  x7:0xfffffbd5 x26=0x00000000
       37215000	      3720	800026e8	00d71813	slli	x16,x14,0xd	 x14:0x00000000 x16=0x00000000
       37225000	      3721	800026ec	b3d6a413	slti	x8,x13,-1219	 x13:0x0000000f  x8=0x00000000
       37235000	      3722	800026f0	a032c213	xori	x4,x5,-1533	  x5:0xffffe007  x4=0x00001a04
       37245000	      3723	800026f4	cc5c7a93	andi	x21,x24,-827	 x24:0x00000010 x21=0x00000000
       37255000	      3724	800026f8	05c1e863	bltu	x3,x28,80002748	  x3:0x0000000a x28:0x00000000
       37265000	      3725	800026fc	41f6da93	srai	x21,x13,0x1f	 x13:0x0000000f x21=0x00000000
       37275000	      3726	80002700	01f2f533	and	x10,x5,x31	  x5:0xffffe007 x31:0x00000001 x10=0x00000001
       37285000	      3727	80002704	a91db993	sltiu	x19,x27,-1391	 x27:0x80009ee4 x19=0x00000001
       37295000	      3728	80002708	c0137b93	andi	x23,x6,-1023	  x6:0x000000b2 x23=0x00000000
       37305000	      3729	8000270c	05f81663	bne	x16,x31,80002758	 x16:0x00000000 x31:0x00000001
       37315000	      3730	00000000	00000013	addi	x0,x0,0	  x0:0x00000000
       37325000	      3731	80002754	00000013	addi	x0,x0,0	  x0:0x00000000
       37335000	      3732	80002758	01e5cc63	blt	x11,x30,80002770	 x11:0xfffffff8 x30:0x80009fc4
       37345000	      3733	8000275c	00db7333	and	x6,x22,x13	 x22:0x00000000 x13:0x0000000f  x6=0x00000000
       37355000	      3734	80002760	bd17e393	ori	x7,x15,-1071	 x15:0x00000000  x7=0xfffffbd1
       37365000	      3735	80002764	00db1493	slli	x9,x22,0xd	 x22:0x00000000  x9=0x00000000
       37375000	      3736	80002768	a98a7113	andi	x2,x20,-1384	 x20:0x00000000  x2=0x00000000
       37385000	      3737	8000276c	0146e9b3	or	x19,x13,x20	 x13:0x0000000f x20:0x00000000 x19=0x0000000f
       37395000	      3738	80002770	40ded7b3	sra	x15,x29,x13	 x29:0x00000008 x13:0x0000000f x15=0x00000000
       37405000	      3739	80002774	01dc20b3	slt	x1,x24,x29	 x24:0x00000010 x29:0x00000008  x1=0x00000000
       37415000	      3740	80002778	1926b797	auipc	x15,0x1926b	 x15=0x9926d774
       37425000	      3741	8000277c	02a99863	bne	x19,x10,800027ac	 x19:0x0000000f x10:0x00000001
       37435000	      3742	00000000	00000013	addi	x0,x0,0	  x0:0x00000000
       37445000	      3743	800027a8	00000013	addi	x0,x0,0	  x0:0x00000000
       37455000	      3744	800027ac	db362e93	slti	x29,x12,-589	 x12:0x430c8000 x29=0x00000000
       37465000	      3745	800027b0	406f5c33	sra	x24,x30,x6	 x30:0x80009fc4  x6:0x00000000 x24=0x80009fc4
       37475000	      3746	800027b4	4106dc93	srai	x25,x13,0x10	 x13:0x0000000f x25=0x00000000
       37485000	      3747	800027b8	0140e033	or	x0,x1,x20	  x1:0x00000000 x20:0x00000000
       37495000	      3748	800027bc	740e4a13	xori	x20,x28,1856	 x28:0x00000000 x20=0x00000740
       37505000	      3749	800027c0	014d07b3	add	x15,x26,x20	 x26:0x00000000 x20:0x00000740 x15=0x00000740
       37515000	      3750	800027c4	41005193	srai	x3,x0,0x10	  x0:0x00000000  x3=0x00000000
       37525000	      3751	800027c8	014f1313	slli	x6,x30,0x14	 x30:0x80009fc4  x6=0xfc400000
       37535000	      3752	800027cc	acf23e37	lui	x28,0xacf23	 x28=0xacf23000
       37545000	      3753	800027d0	da3f7713	andi	x14,x30,-605	 x30:0x80009fc4 x14=0x80009d80
       37555000	      3754	800027d4	00d7f133	and	x2,x15,x13	 x15:0x00000740 x13:0x0000000f  x2=0x00000000
       37565000	      3755	800027d8	a7f0b113	sltiu	x2,x1,-1409	  x1:0x00000000  x2=0x00000001
       37575000	      3756	800027dc	00000013	addi	x0,x0,0	  x0:0x00000000
       37585000	      3757	800027e0	00c1c333	xor	x6,x3,x12	  x3:0x00000000 x12:0x430c8000  x6=0x430c8000
       37595000	      3758	800027e4	01a56b33	or	x22,x10,x26	 x10:0x00000001 x26:0x00000000 x22=0x00000001
       37605000	      3759	800027e8	01bce533	or	x10,x25,x27	 x25:0x00000000 x27:0x80009ee4 x10=0x80009ee4
       37615000	      3760	800027ec	faaa6093	ori	x1,x20,-86	 x20:0x00000740  x1=0xffffffea
       37625000	      3761	800027f0	a3ed3813	sltiu	x16,x26,-1474	 x26:0x00000000 x16=0x00000001
       37635000	      3762	800027f4	00c48e63	beq	x9,x12,80002810	  x9:0x00000000 x12:0x430c8000
       37645000	      3763	800027f8	013d9813	slli	x16,x27,0x13	 x27:0x80009ee4 x16=0xf7200000
       37655000	      3764	800027fc	41b40b33	sub	x22,x8,x27	  x8:0x00000000 x27:0x80009ee4 x22=0x7fff611c
       37665000	      3765	80002800	00d1ca63	blt	x3,x13,80002814	  x3:0x00000000 x13:0x0000000f
       37675000	      3766	00000000	00000013	addi	x0,x0,0	  x0:0x00000000
       37685000	      3767	80002810	00000013	addi	x0,x0,0	  x0:0x00000000
       37695000	      3768	80002814	06748863	beq	x9,x7,80002884	  x9:0x00000000  x7:0xfffffbd1
       37705000	      3769	80002818	8e867213	andi	x4,x12,-1816	 x12:0x430c8000  x4=0x430c8000
       37715000	      3770	8000281c	b6baa393	slti	x7,x21,-1173	 x21:0x00000000  x7=0x00000000
       37725000	      3771	80002820	01800fb3	add	x31,x0,x24	  x0:0x00000000 x24:0x80009fc4 x31=0x80009fc4
       37735000	      3772	80002824	41fadb93	srai	x23,x21,0x1f	 x21:0x00000000 x23=0x00000000
       37745000	      3773	80002828	0128a8b3	slt	x17,x17,x18	 x17:0x00000000 x18:0x000001e9 x17=0x00000001
       37755000	      3774	8000282c	9eb63793	sltiu	x15,x12,-1557	 x12:0x430c8000 x15=0x00000001
       37765000	      3775	80002830	57a0a513	slti	x10,x1,1402	  x1:0xffffffea x10=0x00000001
       37775000	      3776	80002834	005e4933	xor	x18,x28,x5	 x28:0xacf23000  x5:0xffffe007 x18=0x530dd007
       37785000	      3777	80002838	4127d413	srai	x8,x15,0x12	 x15:0x00000001  x8=0x00000000
       37795000	      3778	8000283c	05694263	blt	x18,x22,80002880	 x18:0x530dd007 x22:0x7fff611c
       37805000	      3779	00000000	00000013	addi	x0,x0,0	  x0:0x00000000
       37815000	      3780	8000287c	00000013	addi	x0,x0,0	  x0:0x00000000
       37825000	      3781	80002880	0098f933	and	x18,x17,x9	 x17:0x00000001  x9:0x00000000 x18=0x00000000
       37835000	      3782	80002884	018169b3	or	x19,x2,x24	  x2:0x00000001 x24:0x80009fc4 x19=0x80009fc5
       37845000	      3783	80002888	23368013	addi	x0,x13,563	 x13:0x0000000f
       37855000	      3784	8000288c	0404e463	bltu	x9,x0,800028d4	  x9:0x00000000  x0:0x00000000
       37865000	      3785	80002890	3531e0b7	lui	x1,0x3531e	  x1=0x3531e000
       37875000	      3786	80002894	5d088a17	auipc	x20,0x5d088	 x20=0xdd08a890
       37885000	      3787	80002898	02251e63	bne	x10,x2,800028d4	 x10:0x00000001  x2:0x00000001
       37895000	      3788	8000289c	00dc2133	slt	x2,x24,x13	 x24:0x80009fc4 x13:0x0000000f  x2=0x00000001
       37905000	      3789	800028a0	0307fc63	bgeu	x15,x16,800028d8	 x15:0x00000001 x16:0xf7200000
       37915000	      3790	800028a4	004ef9b3	and	x19,x29,x4	 x29:0x00000000  x4:0x430c8000 x19=0x00000000
       37925000	      3791	800028a8	01601e33	sll	x28,x0,x22	  x0:0x00000000 x22:0x7fff611c x28=0x00000000
       37935000	      3792	800028ac	dd69ae93	slti	x29,x19,-554	 x19:0x00000000 x29=0x00000000
       37945000	      3793	800028b0	00000013	addi	x0,x0,0	  x0:0x00000000
       37955000	      3794	800028b4	00eb57b3	srl	x15,x22,x14	 x22:0x7fff611c x14:0x80009d80 x15=0x7fff611c
       37965000	      3795	800028b8	017bffb3	and	x31,x23,x23	 x23:0x00000000 x23:0x00000000 x31=0x00000000
       37975000	      3796	800028bc	00000013	addi	x0,x0,0	  x0:0x00000000
       37985000	      3797	800028c0	00000013	addi	x0,x0,0	  x0:0x00000000
       37995000	      3798	800028c4	013818b3	sll	x17,x16,x19	 x16:0xf7200000 x19:0x00000000 x17=0xf7200000
       38005000	      3799	800028c8	a6230893	addi	x17,x6,-1438	  x6:0x430c8000 x17=0x430c7a62
       38015000	      3800	800028cc	012e9513	slli	x10,x29,0x12	 x29:0x00000000 x10=0x00000000
       38025000	      3801	800028d0	407058b3	sra	x17,x0,x7	  x0:0x00000000  x7:0x00000000 x17=0x00000000
       38035000	      3802	800028d4	dd826793	ori	x15,x4,-552	  x4:0x430c8000 x15=0xfffffdd8
       38045000	      3803	800028d8	00c6bc33	sltu	x24,x13,x12	 x13:0x0000000f x12:0x430c8000 x24=0x00000001
       38055000	      3804	800028dc	047ef663	bgeu	x29,x7,80002928	 x29:0x00000000  x7:0x00000000
       38065000	      3805	00000000	00000013	addi	x0,x0,0	  x0:0x00000000
       38075000	      3806	80002924	00000013	addi	x0,x0,0	  x0:0x00000000
       38085000	      3807	80002928	009e4463	blt	x28,x9,80002930	 x28:0x00000000  x9:0x00000000
       38095000	      3808	8000292c	00fc8cb3	add	x25,x25,x15	 x25:0x00000000 x15:0xfffffdd8 x25=0xfffffdd8
       38105000	      3809	80002930	f1d73193	sltiu	x3,x14,-227	 x14:0x80009d80  x3=0x00000001
       38115000	      3810	80002934	015804b3	add	x9,x16,x21	 x16:0xf7200000 x21:0x00000000  x9=0xf7200000
       38125000	      3811	80002938	0101c3b3	xor	x7,x3,x16	  x3:0x00000001 x16:0xf7200000  x7=0xf7200001
       38135000	      3812	8000293c	0184fb33	and	x22,x9,x24	  x9:0xf7200000 x24:0x00000001 x22=0x00000000
       38145000	      3813	80002940	417bd593	srai	x11,x23,0x17	 x23:0x00000000 x11=0x00000000
       38155000	      3814	80002944	031fde63	bge	x31,x17,80002980	 x31:0x00000000 x17:0x00000000
       38165000	      3815	00000000	00000013	addi	x0,x0,0	  x0:0x00000000
       38175000	      3816	8000297c	00000013	addi	x0,x0,0	  x0:0x00000000
       38185000	      3817	80002980	01430bb3	add	x23,x6,x20	  x6:0x430c8000 x20:0xdd08a890 x23=0x20152890
       38195000	      3818	80002984	ac744193	xori	x3,x8,-1337	  x8:0x00000000  x3=0xfffffac7
       38205000	      3819	80002988	00000013	addi	x0,x0,0	  x0:0x00000000
       38215000	      3820	8000298c	01c00a63	beq	x0,x28,800029a0	  x0:0x00000000 x28:0x00000000
       38225000	      3821	00000000	00000013	addi	x0,x0,0	  x0:0x00000000
       38235000	      3822	8000299c	00000013	addi	x0,x0,0	  x0:0x00000000
       38245000	      3823	800029a0	0b10b393	sltiu	x7,x1,177	  x1:0x3531e000  x7=0x00000000
       38255000	      3824	800029a4	0221c993	xori	x19,x3,34	  x3:0xfffffac7 x19=0xfffffae5
       38265000	      3825	800029a8	e3320013	addi	x0,x4,-461	  x4:0x430c8000
       38275000	      3826	800029ac	81d8aa93	slti	x21,x17,-2019	 x17:0x00000000 x21=0x00000000
       38285000	      3827	800029b0	040c8463	beq	x25,x0,800029f8	 x25:0xfffffdd8  x0:0x00000000
       38295000	      3828	800029b4	b7d2dbb7	lui	x23,0xb7d2d	 x23=0xb7d2d000
       38305000	      3829	800029b8	00963fb3	sltu	x31,x12,x9	 x12:0x430c8000  x9:0xf7200000 x31=0x00000001
       38315000	      3830	800029bc	0213ef93	ori	x31,x7,33	  x7:0x00000000 x31=0x00000021
       38325000	      3831	800029c0	04847063	bgeu	x8,x8,80002a00	  x8:0x00000000  x8:0x00000000
       38335000	      3832	00000000	00000013	addi	x0,x0,0	  x0:0x00000000
       38345000	      3833	800029fc	00000013	addi	x0,x0,0	  x0:0x00000000
       38355000	      3834	80002a00	016c03b3	add	x7,x24,x22	 x24:0x00000001 x22:0x00000000  x7=0x00000001
       38365000	      3835	80002a04	048dc663	blt	x27,x8,80002a50	 x27:0x80009ee4  x8:0x00000000
       38375000	      3836	00000000	00000013	addi	x0,x0,0	  x0:0x00000000
       38385000	      3837	80002a4c	00000013	addi	x0,x0,0	  x0:0x00000000
       38395000	      3838	80002a50	02887c63	bgeu	x16,x8,80002a88	 x16:0xf7200000  x8:0x00000000
       38405000	      3839	00000000	00000013	addi	x0,x0,0	  x0:0x00000000
       38415000	      3840	80002a84	00000013	addi	x0,x0,0	  x0:0x00000000
       38425000	      3841	80002a88	00b04463	blt	x0,x11,80002a90	  x0:0x00000000 x11:0x00000000
       38435000	      3842	80002a8c	0000ebb3	or	x23,x1,x0	  x1:0x3531e000  x0:0x00000000 x23=0x3531e000
       38445000	      3843	80002a90	00000013	addi	x0,x0,0	  x0:0x00000000
       38455000	      3844	80002a94	030f1a63	bne	x30,x16,80002ac8	 x30:0x80009fc4 x16:0xf7200000
       38465000	      3845	00000000	00000013	addi	x0,x0,0	  x0:0x00000000
       38475000	      3846	80002ac4	00000013	addi	x0,x0,0	  x0:0x00000000
       38485000	      3847	80002ac8	019edc33	srl	x24,x29,x25	 x29:0x00000000 x25:0xfffffdd8 x24=0x00000000
       38495000	      3848	80002acc	b6642313	slti	x6,x8,-1178	  x8:0x00000000  x6=0x00000000
       38505000	      3849	80002ad0	010e5613	srli	x12,x28,0x10	 x28:0x00000000 x12=0x00000000
       38515000	      3850	80002ad4	01c6d9b3	srl	x19,x13,x28	 x13:0x0000000f x28:0x00000000 x19=0x0000000f
       38525000	      3851	80002ad8	b3b22113	slti	x2,x4,-1221	  x4:0x430c8000  x2=0x00000000
       38535000	      3852	80002adc	00024c63	blt	x4,x0,80002af4	  x4:0x430c8000  x0:0x00000000
       38545000	      3853	80002ae0	0028d9b3	srl	x19,x17,x2	 x17:0x00000000  x2:0x00000000 x19=0x00000000
       38555000	      3854	80002ae4	05395463	bge	x18,x19,80002b2c	 x18:0x00000000 x19:0x00000000
       38565000	      3855	00000000	00000013	addi	x0,x0,0	  x0:0x00000000
       38575000	      3856	80002b28	00000013	addi	x0,x0,0	  x0:0x00000000
       38585000	      3857	80002b2c	412dd513	srai	x10,x27,0x12	 x27:0x80009ee4 x10=0xffffe000
       38595000	      3858	80002b30	3d196e13	ori	x28,x18,977	 x18:0x00000000 x28=0x000003d1
       38605000	      3859	80002b34	013d6d33	or	x26,x26,x19	 x26:0x00000000 x19:0x00000000 x26=0x00000000
       38615000	      3860	80002b38	92830e13	addi	x28,x6,-1752	  x6:0x00000000 x28=0xfffff928
       38625000	      3861	80002b3c	c214c517	auipc	x10,0xc214c	 x10=0x4214eb38
       38635000	      3862	80002b40	40d15333	sra	x6,x2,x13	  x2:0x00000000 x13:0x0000000f  x6=0x00000000
       38645000	      3863	80002b44	03b98063	beq	x19,x27,80002b64	 x19:0x00000000 x27:0x80009ee4
       38655000	      3864	80002b48	6e6c3717	auipc	x14,0x6e6c3	 x14=0xee6c5b44
       38665000	      3865	80002b4c	e8add497	auipc	x9,0xe8add	  x9=0x68adfb48
       38675000	      3866	80002b50	00000013	addi	x0,x0,0	  x0:0x00000000
       38685000	      3867	80002b54	0022c633	xor	x12,x5,x2	  x5:0xffffe007  x2:0x00000000 x12=0xffffe007
       38695000	      3868	80002b58	007ffb33	and	x22,x31,x7	 x31:0x00000021  x7:0x00000001 x22=0x00000001
       38705000	      3869	80002b5c	416fd3b3	sra	x7,x31,x22	 x31:0x00000021 x22:0x00000001  x7=0x00000010
       38715000	      3870	80002b60	00000013	addi	x0,x0,0	  x0:0x00000000
       38725000	      3871	80002b64	40d15b13	srai	x22,x2,0xd	  x2:0x00000000 x22=0x00000000
       38735000	      3872	80002b68	2e893e93	sltiu	x29,x18,744	 x18:0x00000000 x29=0x00000001
       38745000	      3873	80002b6c	01580ab3	add	x21,x16,x21	 x16:0xf7200000 x21:0x00000000 x21=0xf7200000
       38755000	      3874	80002b70	00b70eb3	add	x29,x14,x11	 x14:0xee6c5b44 x11:0x00000000 x29=0xee6c5b44
       38765000	      3875	80002b74	4a117b17	auipc	x22,0x4a117	 x22=0xca119b70
       38775000	      3876	80002b78	004dad03	lw	x26,4(x27)	 x27:0x80009ee4 x26=0x80002c04 PA:0x80009ee8
       38785000	      3877	80002b7c	ee5ef413	andi	x8,x29,-283	 x29:0xee6c5b44  x8=0xee6c5a44
       38795000	      3878	80002b80	024d8d93	addi	x27,x27,36	 x27:0x80009ee4 x27=0x80009f08
       38805000	      3879	80002b84	030c7593	andi	x11,x24,48	 x24:0x00000000 x11=0x00000000
       38815000	      3880	80002b88	02b72217	auipc	x4,0x2b72	  x4=0x82b74b84
       38825000	      3881	80002b8c	00000013	addi	x0,x0,0	  x0:0x00000000
       38835000	      3882	80002b90	20922413	slti	x8,x4,521	  x4:0x82b74b84  x8=0x00000001
       38845000	      3883	80002b94	402fd7b3	sra	x15,x31,x2	 x31:0x00000021  x2:0x00000000 x15=0x00000021
       38855000	      3884	80002b98	000d0913	addi	x18,x26,0	 x26:0x80002c04 x18=0x80002c04
       38865000	      3885	80002b9c	00090967	jalr	x18,x18,0	 x18:0x80002c04 x18=0x80002b9c
       38875000	      3886	00000000	00000013	addi	x0,x0,0	  x0:0x00000000
       38885000	      3887	80002c04	00000013	addi	x0,x0,0	  x0:0x00000000
       38895000	      3888	80002c08	26a97193	andi	x3,x18,618	 x18:0x80002b9c  x3=0x00000208
       38905000	      3889	80002c0c	af5cee93	ori	x29,x25,-1291	 x25:0xfffffdd8 x29=0xfffffffd
       38915000	      3890	80002c10	d8eeff93	andi	x31,x29,-626	 x29:0xfffffffd x31=0xfffffd8c
       38925000	      3891	80002c14	41d78813	addi	x16,x15,1053	 x15:0x00000021 x16=0x0000043e
       38935000	      3892	80002c18	393a4413	xori	x8,x20,915	 x20:0xdd08a890  x8=0xdd08ab03
       38945000	      3893	80002c1c	40a70433	sub	x8,x14,x10	 x14:0xee6c5b44 x10:0x4214eb38  x8=0xac57700c
       38955000	      3894	80002c20	00a3cc33	xor	x24,x7,x10	  x7:0x00000010 x10:0x4214eb38 x24=0x4214eb28
       38965000	      3895	80002c24	0171b4b3	sltu	x9,x3,x23	  x3:0x00000208 x23:0x3531e000  x9=0x00000001
       38975000	      3896	80002c28	01192633	slt	x12,x18,x17	 x18:0x80002b9c x17:0x00000000 x12=0x00000001
       38985000	      3897	80002c2c	01baabb3	slt	x23,x21,x27	 x21:0xf7200000 x27:0x80009f08 x23=0x00000000
       38995000	      3898	80002c30	00000013	addi	x0,x0,0	  x0:0x00000000
       39005000	      3899	80002c34	40ef87b3	sub	x15,x31,x14	 x31:0xfffffd8c x14:0xee6c5b44 x15=0x1193a248
       39015000	      3900	80002c38	00a76cb3	or	x25,x14,x10	 x14:0xee6c5b44 x10:0x4214eb38 x25=0xee7cfb7c
       39025000	      3901	80002c3c	017ac933	xor	x18,x21,x23	 x21:0xf7200000 x23:0x00000000 x18=0xf7200000
       39035000	      3902	80002c40	01037eb3	and	x29,x6,x16	  x6:0x00000000 x16:0x0000043e x29=0x00000000
       39045000	      3903	80002c44	02f59463	bne	x11,x15,80002c6c	 x11:0x00000000 x15:0x1193a248
       39055000	      3904	00000000	00000013	addi	x0,x0,0	  x0:0x00000000
       39065000	      3905	80002c68	00000013	addi	x0,x0,0	  x0:0x00000000
       39075000	      3906	80002c6c	010d8863	beq	x27,x16,80002c7c	 x27:0x80009f08 x16:0x0000043e
       39085000	      3907	80002c70	0008f2b3	and	x5,x17,x0	 x17:0x00000000  x0:0x00000000  x5=0x00000000
       39095000	      3908	80002c74	002bde63	bge	x23,x2,80002c90	 x23:0x00000000  x2:0x00000000
       39105000	      3909	00000000	00000013	addi	x0,x0,0	  x0:0x00000000
       39115000	      3910	80002c8c	00000013	addi	x0,x0,0	  x0:0x00000000
       39125000	      3911	80002c90	71ab7813	andi	x16,x22,1818	 x22:0xca119b70 x16=0x00000310
       39135000	      3912	80002c94	00d05193	srli	x3,x0,0xd	  x0:0x00000000  x3=0x00000000
       39145000	      3913	80002c98	4048d213	srai	x4,x17,0x4	 x17:0x00000000  x4=0x00000000
       39155000	      3914	80002c9c	00000013	addi	x0,x0,0	  x0:0x00000000
       39165000	      3915	80002ca0	005f6a63	bltu	x30,x5,80002cb4	 x30:0x80009fc4  x5:0x00000000
       39175000	      3916	80002ca4	014a6c63	bltu	x20,x20,80002cbc	 x20:0xdd08a890 x20:0xdd08a890
       39185000	      3917	80002ca8	005a0a63	beq	x20,x5,80002cbc	 x20:0xdd08a890  x5:0x00000000
       39195000	      3918	80002cac	01371093	slli	x1,x14,0x13	 x14:0xee6c5b44  x1=0xda200000
       39205000	      3919	80002cb0	01c35b93	srli	x23,x6,0x1c	  x6:0x00000000 x23=0x00000000
       39215000	      3920	80002cb4	01258463	beq	x11,x18,80002cbc	 x11:0x00000000 x18:0xf7200000
       39225000	      3921	80002cb8	007367b3	or	x15,x6,x7	  x6:0x00000000  x7:0x00000010 x15=0x00000010
       39235000	      3922	80002cbc	01b2ab33	slt	x22,x5,x27	  x5:0x00000000 x27:0x80009f08 x22=0x00000000
       39245000	      3923	80002cc0	004dad03	lw	x26,4(x27)	 x27:0x80009f08 x26=0x80001fe0 PA:0x80009f0c
       39255000	      3924	80002cc4	00a1aab3	slt	x21,x3,x10	  x3:0x00000000 x10:0x4214eb38 x21=0x00000001
       39265000	      3925	80002cc8	0094f933	and	x18,x9,x9	  x9:0x00000001  x9:0x00000001 x18=0x00000001
       39275000	      3926	80002ccc	03cd8d93	addi	x27,x27,60	 x27:0x80009f08 x27=0x80009f44
       39285000	      3927	80002cd0	41cdd213	srai	x4,x27,0x1c	 x27:0x80009f44  x4=0xfffffff8
       39295000	      3928	80002cd4	001d0813	addi	x16,x26,1	 x26:0x80001fe0 x16=0x80001fe1
       39305000	      3929	80002cd8	00080867	jalr	x16,x16,0	 x16:0x80001fe1 x16=0x80002cd8
       39315000	      3930	00000000	00000013	addi	x0,x0,0	  x0:0x00000000
       39325000	      3931	80001fe0	00000013	addi	x0,x0,0	  x0:0x00000000
       39335000	      3932	80001fe4	00000013	addi	x0,x0,0	  x0:0x00000000
       39345000	      3933	80001fe8	b86b63b7	lui	x7,0xb86b6	  x7=0xb86b6000
       39355000	      3934	80001fec	015bfab3	and	x21,x23,x21	 x23:0x00000000 x21:0x00000001 x21=0x00000000
       39365000	      3935	80001ff0	01705c13	srli	x24,x0,0x17	  x0:0x00000000 x24=0x00000000
       39375000	      3936	80001ff4	4c402093	slti	x1,x0,1220	  x0:0x00000000  x1=0x00000001
       39385000	      3937	80001ff8	0139ce63	blt	x19,x19,80002014	 x19:0x00000000 x19:0x00000000
       39395000	      3938	80001ffc	ee75fa93	andi	x21,x11,-281	 x11:0x00000000 x21=0x00000000
       39405000	      3939	80002000	5035a017	auipc	x0,0x5035a	
       39415000	      3940	80002004	70c68f93	addi	x31,x13,1804	 x13:0x0000000f x31=0x0000071b
       39425000	      3941	80002008	01530e33	add	x28,x6,x21	  x6:0x00000000 x21:0x00000000 x28=0x00000000
       39435000	      3942	8000200c	013e1393	slli	x7,x28,0x13	 x28:0x00000000  x7=0x00000000
       39445000	      3943	80002010	04fbe463	bltu	x23,x15,80002058	 x23:0x00000000 x15:0x00000010
       39455000	      3944	00000000	00000013	addi	x0,x0,0	  x0:0x00000000
       39465000	      3945	80002054	00000013	addi	x0,x0,0	  x0:0x00000000
       39475000	      3946	80002058	889643b7	lui	x7,0x88964	  x7=0x88964000
       39485000	      3947	8000205c	051ae463	bltu	x21,x17,800020a4	 x21:0x00000000 x17:0x00000000
       39495000	      3948	80002060	fe212113	slti	x2,x2,-30	  x2:0x00000000  x2=0x00000000
       39505000	      3949	80002064	00002733	slt	x14,x0,x0	  x0:0x00000000  x0:0x00000000 x14=0x00000000
       39515000	      3950	80002068	01c42233	slt	x4,x8,x28	  x8:0xac57700c x28:0x00000000  x4=0x00000001
       39525000	      3951	8000206c	41408cb3	sub	x25,x1,x20	  x1:0x00000001 x20:0xdd08a890 x25=0x22f75771
       39535000	      3952	80002070	5a29ab37	lui	x22,0x5a29a	 x22=0x5a29a000
       39545000	      3953	80002074	05aef263	bgeu	x29,x26,800020b8	 x29:0x00000000 x26:0x80001fe0
       39555000	      3954	80002078	01234633	xor	x12,x6,x18	  x6:0x00000000 x18:0x00000001 x12=0x00000001
       39565000	      3955	8000207c	01a21733	sll	x14,x4,x26	  x4:0x00000001 x26:0x80001fe0 x14=0x00000001
       39575000	      3956	80002080	0136b933	sltu	x18,x13,x19	 x13:0x0000000f x19:0x00000000 x18=0x00000000
       39585000	      3957	80002084	01e70033	add	x0,x14,x30	 x14:0x00000001 x30:0x80009fc4
       39595000	      3958	80002088	0063cab3	xor	x21,x7,x6	  x7:0x88964000  x6:0x00000000 x21=0x88964000
       39605000	      3959	8000208c	402a0733	sub	x14,x20,x2	 x20:0xdd08a890  x2:0x00000000 x14=0xdd08a890
       39615000	      3960	80002090	021e1e63	bne	x28,x1,800020cc	 x28:0x00000000  x1:0x00000001
       39625000	      3961	00000000	00000013	addi	x0,x0,0	  x0:0x00000000
       39635000	      3962	800020c8	00000013	addi	x0,x0,0	  x0:0x00000000
       39645000	      3963	800020cc	55fa4893	xori	x17,x20,1375	 x20:0xdd08a890 x17=0xdd08adcf
       39655000	      3964	800020d0	03128663	beq	x5,x17,800020fc	  x5:0x00000000 x17:0xdd08adcf
       39665000	      3965	800020d4	01e66933	or	x18,x12,x30	 x12:0x00000001 x30:0x80009fc4 x18=0x80009fc5
       39675000	      3966	800020d8	29d2a293	slti	x5,x5,669	  x5:0x00000000  x5=0x00000001
       39685000	      3967	800020dc	b6fab013	sltiu	x0,x21,-1169	 x21:0x88964000
       39695000	      3968	800020e0	00db58b3	srl	x17,x22,x13	 x22:0x5a29a000 x13:0x0000000f x17=0x0000b453
       39705000	      3969	800020e4	eb30ba93	sltiu	x21,x1,-333	  x1:0x00000001 x21=0x00000001
       39715000	      3970	800020e8	018c1113	slli	x2,x24,0x18	 x24:0x00000000  x2=0x00000000
       39725000	      3971	800020ec	eba27eb7	lui	x29,0xeba27	 x29=0xeba27000
       39735000	      3972	800020f0	02076063	bltu	x14,x0,80002110	 x14:0xdd08a890  x0:0x00000000
       39745000	      3973	800020f4	037d0c63	beq	x26,x23,8000212c	 x26:0x80001fe0 x23:0x00000000
       39755000	      3974	800020f8	918b3813	sltiu	x16,x22,-1768	 x22:0x5a29a000 x16=0x00000001
       39765000	      3975	800020fc	fe90fa93	andi	x21,x1,-23	  x1:0x00000001 x21=0x00000001
       39775000	      3976	80002100	0172cc33	xor	x24,x5,x23	  x5:0x00000001 x23:0x00000000 x24=0x00000001
       39785000	      3977	80002104	030e9e63	bne	x29,x16,80002140	 x29:0xeba27000 x16:0x00000001
       39795000	      3978	00000000	00000013	addi	x0,x0,0	  x0:0x00000000
       39805000	      3979	8000213c	00000013	addi	x0,x0,0	  x0:0x00000000
       39815000	      3980	80002140	7a89e913	ori	x18,x19,1960	 x19:0x00000000 x18=0x000007a8
       39825000	      3981	80002144	5bec4937	lui	x18,0x5bec4	 x18=0x5bec4000
       39835000	      3982	80002148	6dc1c297	auipc	x5,0x6dc1c	  x5=0xedc1e144
       39845000	      3983	8000214c	c62b7813	andi	x16,x22,-926	 x22:0x5a29a000 x16=0x5a29a000
       39855000	      3984	80002150	01489863	bne	x17,x20,80002160	 x17:0x0000b453 x20:0xdd08a890
       39865000	      3985	00000000	00000013	addi	x0,x0,0	  x0:0x00000000
       39875000	      3986	8000215c	00000013	addi	x0,x0,0	  x0:0x00000000
       39885000	      3987	80002160	00f915b3	sll	x11,x18,x15	 x18:0x5bec4000 x15:0x00000010 x11=0x40000000
       39895000	      3988	80002164	d6084b93	xori	x23,x16,-672	 x16:0x5a29a000 x23=0xa5d65d60
       39905000	      3989	80002168	00cae533	or	x10,x21,x12	 x21:0x00000001 x12:0x00000001 x10=0x00000001
       39915000	      3990	8000216c	02901663	bne	x0,x9,80002198	  x0:0x00000000  x9:0x00000001
       39925000	      3991	00000000	00000013	addi	x0,x0,0	  x0:0x00000000
       39935000	      3992	80002194	00000013	addi	x0,x0,0	  x0:0x00000000
       39945000	      3993	80002198	4031d7b3	sra	x15,x3,x3	  x3:0x00000000  x3:0x00000000 x15=0x00000000
       39955000	      3994	8000219c	5ded2813	slti	x16,x26,1502	 x26:0x80001fe0 x16=0x00000001
       39965000	      3995	800021a0	8a874e13	xori	x28,x14,-1880	 x14:0xdd08a890 x28=0x22f75038
       39975000	      3996	800021a4	019f4e63	blt	x30,x25,800021c0	 x30:0x80009fc4 x25:0x22f75771
       39985000	      3997	00000000	00000013	addi	x0,x0,0	  x0:0x00000000
       39995000	      3998	800021bc	00000013	addi	x0,x0,0	  x0:0x00000000
       40005000	      3999	800021c0	01c3ca33	xor	x20,x7,x28	  x7:0x88964000 x28:0x22f75038 x20=0xaa611038
       40015000	      4000	800021c4	01f61e63	bne	x12,x31,800021e0	 x12:0x00000001 x31:0x0000071b
       40025000	      4001	00000000	00000013	addi	x0,x0,0	  x0:0x00000000
       40035000	      4002	800021dc	00000013	addi	x0,x0,0	  x0:0x00000000
       40045000	      4003	800021e0	0121c7b3	xor	x15,x3,x18	  x3:0x00000000 x18:0x5bec4000 x15=0x5bec4000
       40055000	      4004	800021e4	01c22ab3	slt	x21,x4,x28	  x4:0x00000001 x28:0x22f75038 x21=0x00000001
       40065000	      4005	800021e8	0f11a613	slti	x12,x3,241	  x3:0x00000000 x12=0x00000001
       40075000	      4006	800021ec	015e9b93	slli	x23,x29,0x15	 x29:0xeba27000 x23=0x00000000
       40085000	      4007	800021f0	40de8ab3	sub	x21,x29,x13	 x29:0xeba27000 x13:0x0000000f x21=0xeba26ff1
       40095000	      4008	800021f4	4de1bc93	sltiu	x25,x3,1246	  x3:0x00000000 x25=0x00000001
       40105000	      4009	800021f8	00000013	addi	x0,x0,0	  x0:0x00000000
       40115000	      4010	800021fc	014980b3	add	x1,x19,x20	 x19:0x00000000 x20:0xaa611038  x1=0xaa611038
       40125000	      4011	80002200	008921b3	slt	x3,x18,x8	 x18:0x5bec4000  x8:0xac57700c  x3=0x00000000
       40135000	      4012	80002204	41f05e33	sra	x28,x0,x31	  x0:0x00000000 x31:0x0000071b x28=0x00000000
       40145000	      4013	80002208	230f4a13	xori	x20,x30,560	 x30:0x80009fc4 x20=0x80009df4
       40155000	      4014	8000220c	0024cb33	xor	x22,x9,x2	  x9:0x00000001  x2:0x00000000 x22=0x00000001
       40165000	      4015	80002210	01648033	add	x0,x9,x22	  x9:0x00000001 x22:0x00000001
       40175000	      4016	80002214	00eae0b3	or	x1,x21,x14	 x21:0xeba26ff1 x14:0xdd08a890  x1=0xffaaeff1
       40185000	      4017	80002218	00ebce33	xor	x28,x23,x14	 x23:0x00000000 x14:0xdd08a890 x28=0xdd08a890
       40195000	      4018	8000221c	00c62533	slt	x10,x12,x12	 x12:0x00000001 x12:0x00000001 x10=0x00000000
       40205000	      4019	80002220	d811f193	andi	x3,x3,-639	  x3:0x00000000  x3=0x00000000
       40215000	      4020	80002224	6db12a93	slti	x21,x2,1755	  x2:0x00000000 x21=0x00000001
       40225000	      4021	80002228	00e22fb3	slt	x31,x4,x14	  x4:0x00000001 x14:0xdd08a890 x31=0x00000000
       40235000	      4022	8000222c	ec806437	lui	x8,0xec806	  x8=0xec806000
       40245000	      4023	80002230	01330d33	add	x26,x6,x19	  x6:0x00000000 x19:0x00000000 x26=0x00000000
       40255000	      4024	80002234	e35e7e93	andi	x29,x28,-459	 x28:0xdd08a890 x29=0xdd08a810
       40265000	      4025	80002238	046b1863	bne	x22,x6,80002288	 x22:0x00000001  x6:0x00000000
       40275000	      4026	00000000	00000013	addi	x0,x0,0	  x0:0x00000000
       40285000	      4027	80002284	00000013	addi	x0,x0,0	  x0:0x00000000
       40295000	      4028	80002288	01a4fc33	and	x24,x9,x26	  x9:0x00000001 x26:0x00000000 x24=0x00000000
       40305000	      4029	8000228c	407a50b3	sra	x1,x20,x7	 x20:0x80009df4  x7:0x88964000  x1=0x80009df4
       40315000	      4030	80002290	00f939b3	sltu	x19,x18,x15	 x18:0x5bec4000 x15:0x5bec4000 x19=0x00000000
       40325000	      4031	80002294	40465833	sra	x16,x12,x4	 x12:0x00000001  x4:0x00000001 x16=0x00000000
       40335000	      4032	80002298	40dd0ab3	sub	x21,x26,x13	 x26:0x00000000 x13:0x0000000f x21=0xfffffff1
       40345000	      4033	8000229c	4164d533	sra	x10,x9,x22	  x9:0x00000001 x22:0x00000001 x10=0x00000000
       40355000	      4034	800022a0	34cfa793	slti	x15,x31,844	 x31:0x00000000 x15=0x00000001
       40365000	      4035	800022a4	00d7bd33	sltu	x26,x15,x13	 x15:0x00000001 x13:0x0000000f x26=0x00000001
       40375000	      4036	800022a8	0185efb3	or	x31,x11,x24	 x11:0x40000000 x24:0x00000000 x31=0x40000000
       40385000	      4037	800022ac	0177f7b3	and	x15,x15,x23	 x15:0x00000001 x23:0x00000000 x15=0x00000000
       40395000	      4038	800022b0	00479493	slli	x9,x15,0x4	 x15:0x00000000  x9=0x00000000
       40405000	      4039	800022b4	414d82b3	sub	x5,x27,x20	 x27:0x80009f44 x20:0x80009df4  x5=0x00000150
       40415000	      4040	800022b8	00888933	add	x18,x17,x8	 x17:0x0000b453  x8:0xec806000 x18=0xec811453
       40425000	      4041	800022bc	00120133	add	x2,x4,x1	  x4:0x00000001  x1:0x80009df4  x2=0x80009df5
       40435000	      4042	800022c0	04768263	beq	x13,x7,80002304	 x13:0x0000000f  x7:0x88964000
       40445000	      4043	800022c4	eddd7fb7	lui	x31,0xeddd7	 x31=0xeddd7000
       40455000	      4044	800022c8	06197663	bgeu	x18,x1,80002334	 x18:0xec811453  x1:0x80009df4
       40465000	      4045	00000000	00000013	addi	x0,x0,0	  x0:0x00000000
       40475000	      4046	80002330	00000013	addi	x0,x0,0	  x0:0x00000000
       40485000	      4047	80002334	419b8033	sub	x0,x23,x25	 x23:0x00000000 x25:0x00000001
       40495000	      4048	80002338	05bf4463	blt	x30,x27,80002380	 x30:0x80009fc4 x27:0x80009f44
       40505000	      4049	8000233c	415c84b3	sub	x9,x25,x21	 x25:0x00000001 x21:0xfffffff1  x9=0x00000010
       40515000	      4050	80002340	00f721b3	slt	x3,x14,x15	 x14:0xdd08a890 x15:0x00000000  x3=0x00000001
       40525000	      4051	80002344	c058e093	ori	x1,x17,-1019	 x17:0x0000b453  x1=0xfffffc57
       40535000	      4052	80002348	045f0263	beq	x30,x5,8000238c	 x30:0x80009fc4  x5:0x00000150
       40545000	      4053	8000234c	016b6463	bltu	x22,x22,80002354	 x22:0x00000001 x22:0x00000001
       40555000	      4054	80002350	03f59a63	bne	x11,x31,80002384	 x11:0x40000000 x31:0xeddd7000
       40565000	      4055	00000000	00000013	addi	x0,x0,0	  x0:0x00000000
       40575000	      4056	80002380	00000013	addi	x0,x0,0	  x0:0x00000000
       40585000	      4057	80002384	007513b3	sll	x7,x10,x7	 x10:0x00000000  x7:0x88964000  x7=0x00000000
       40595000	      4058	80002388	05b89863	bne	x17,x27,800023d8	 x17:0x0000b453 x27:0x80009f44
       40605000	      4059	00000000	00000013	addi	x0,x0,0	  x0:0x00000000
       40615000	      4060	800023d4	00000013	addi	x0,x0,0	  x0:0x00000000
       40625000	      4061	800023d8	00619e13	slli	x28,x3,0x6	  x3:0x00000001 x28=0x00000040
       40635000	      4062	800023dc	012274b3	and	x9,x4,x18	  x4:0x00000001 x18:0xec811453  x9=0x00000001
       40645000	      4063	800023e0	004dad03	lw	x26,4(x27)	 x27:0x80009f44 x26=0x800001c4 PA:0x80009f48
       40655000	      4064	800023e4	040d8d93	addi	x27,x27,64	 x27:0x80009f44 x27=0x80009f84
       40665000	      4065	800023e8	00652033	slt	x0,x10,x6	 x10:0x00000000  x6:0x00000000
       40675000	      4066	800023ec	011f3633	sltu	x12,x30,x17	 x30:0x80009fc4 x17:0x0000b453 x12=0x00000000
       40685000	      4067	800023f0	01de2fb3	slt	x31,x28,x29	 x28:0x00000040 x29:0xdd08a810 x31=0x00000000
       40695000	      4068	800023f4	001d0c93	addi	x25,x26,1	 x26:0x800001c4 x25=0x800001c5
       40705000	      4069	800023f8	000c8ce7	jalr	x25,x25,0	 x25:0x800001c5 x25=0x800023f8
       40715000	      4070	00000000	00000013	addi	x0,x0,0	  x0:0x00000000
       40725000	      4071	800001c4	00000013	addi	x0,x0,0	  x0:0x00000000
       40735000	      4072	800001c8	01edc4b3	xor	x9,x27,x30	 x27:0x80009f84 x30:0x80009fc4  x9=0x00000040
       40745000	      4073	800001cc	01972133	slt	x2,x14,x25	 x14:0xdd08a890 x25:0x800023f8  x2=0x00000000
       40755000	      4074	800001d0	bda3f813	andi	x16,x7,-1062	  x7:0x00000000 x16=0x00000000
       40765000	      4075	800001d4	a3943193	sltiu	x3,x8,-1479	  x8:0xec806000  x3=0x00000001
       40775000	      4076	800001d8	00386463	bltu	x16,x3,800001e0	 x16:0x00000000  x3:0x00000001
       40785000	      4077	00000000	00000013	addi	x0,x0,0	  x0:0x00000000
       40795000	      4078	800001dc	00000013	addi	x0,x0,0	  x0:0x00000000
       40805000	      4079	800001e0	0055a5b3	slt	x11,x11,x5	 x11:0x40000000  x5:0x00000150 x11=0x00000000
       40815000	      4080	800001e4	00000697	auipc	x13,0x0	 x13=0x800001e0
       40825000	      4081	800001e8	00c68693	addi	x13,x13,12	 x13:0x800001e0 x13=0x800001ec
       40835000	      4082	800001ec	00068067	jalr	x0,x13,0	 x13:0x800001ec
       40845000	      4083	00000000	00000013	addi	x0,x0,0	  x0:0x00000000
       40855000	      4084	800001ec	00000013	addi	x0,x0,0	  x0:0x00000000
       40865000	      4085	800001f0	00100193	addi	x3,x0,1	  x0:0x00000000  x3=0x00000001
       40875000	      4086	800001f4	00000073	ecall	
       40885000	      4087	800001f8	018c2b33	slt	x22,x24,x24	 x24:0x00000000 x24:0x00000000 x22=0x00000000
