		Time			Cycle	PC		Insn	Decoded instruction	Register and memory contents
          65000	         5	80000004	00000293	addi	x5,x0,0	  x0:0x00000000  x5=0x00000000
          75000	         6	80000008	00000313	addi	x6,x0,0	  x0:0x00000000  x6=0x00000000
          85000	         7	8000000c	00628263	beq	x5,x6,80000010	  x5:0x00000000  x6:0x00000000
          95000	         8	00000000	00000013	addi	x0,x0,0	  x0:0x00000000
         105000	         9	8000000c	00000013	addi	x0,x0,0	  x0:0x00000000
         115000	        10	80000010	00000517	auipc	x10,0x0	 x10=0x8000000c
         125000	        11	80000014	00c50513	addi	x10,x10,12	 x10:0x8000000c x10=0x80000018
         135000	        12	80000018	00050067	jalr	x0,x10,0	 x10:0x80000018
         145000	        13	00000000	00000013	addi	x0,x0,0	  x0:0x00000000
         155000	        14	80000018	00000013	addi	x0,x0,0	  x0:0x00000000
         165000	        15	8000001c	40000f37	lui	x30,0x40000	 x30=0x40000000
         175000	        16	80000020	100f0f13	addi	x30,x30,256	 x30:0x40000000 x30=0x40000100
         185000	        17	80000024	00000013	addi	x0,x0,0	  x0:0x00000000
         195000	        18	80000028	0000a317	auipc	x6,0xa	  x6=0x8000a024
         205000	        19	8000002c	fa030313	addi	x6,x6,-96	  x6:0x8000a024  x6=0x80009fc4
         215000	        20	80000030	00004f17	auipc	x30,0x4	 x30=0x8000402c
         225000	        21	80000034	8b4f0f13	addi	x30,x30,-1868	 x30:0x8000402c x30=0x800038e0
         235000	        22	80000038	001f6f13	ori	x30,x30,1	 x30:0x800038e0 x30=0x800038e1
         245000	        23	8000003c	00000013	addi	x0,x0,0	  x0:0x00000000
         255000	        24	80000040	00000f17	auipc	x30,0x0	 x30=0x8000003c
         265000	        25	80000044	020f0f13	addi	x30,x30,32	 x30:0x8000003c x30=0x8000005c
         275000	        26	80000048	00000013	addi	x0,x0,0	  x0:0x00000000
         285000	        27	8000004c	00000013	addi	x0,x0,0	  x0:0x00000000
         295000	        28	80000050	00002f37	lui	x30,0x2	 x30=0x00002000
         305000	        29	80000054	800f0f13	addi	x30,x30,-2048	 x30:0x00002000 x30=0x00001800
         315000	        30	80000058	00000013	addi	x0,x0,0	  x0:0x00000000
         325000	        31	8000005c	00000013	addi	x0,x0,0	  x0:0x00000000
         335000	        32	80000060	00000013	addi	x0,x0,0	  x0:0x00000000
         345000	        33	80000064	00600093	addi	x1,x0,6	  x0:0x00000000  x1=0x00000006
         355000	        34	80000068	80000137	lui	x2,0x80000	  x2=0x80000000
         365000	        35	8000006c	ff2391b7	lui	x3,0xff239	  x3=0xff239000
         375000	        36	80000070	93e18193	addi	x3,x3,-1730	  x3:0xff239000  x3=0xff23893e
         385000	        37	80000074	cf03a237	lui	x4,0xcf03a	  x4=0xcf03a000
         395000	        38	80000078	8d320213	addi	x4,x4,-1837	  x4:0xcf03a000  x4=0xcf0398d3
         405000	        39	8000007c	00700293	addi	x5,x0,7	  x0:0x00000000  x5=0x00000007
         415000	        40	80000080	800003b7	lui	x7,0x80000	  x7=0x80000000
         425000	        41	80000084	00000413	addi	x8,x0,0	  x0:0x00000000  x8=0x00000000
         435000	        42	80000088	80000537	lui	x10,0x80000	 x10=0x80000000
         445000	        43	8000008c	00e00593	addi	x11,x0,14	  x0:0x00000000 x11=0x0000000e
         455000	        44	80000090	00000613	addi	x12,x0,0	  x0:0x00000000 x12=0x00000000
         465000	        45	80000094	00000693	addi	x13,x0,0	  x0:0x00000000 x13=0x00000000
         475000	        46	80000098	d66eb737	lui	x14,0xd66eb	 x14=0xd66eb000
         485000	        47	8000009c	e0170713	addi	x14,x14,-511	 x14:0xd66eb000 x14=0xd66eae01
         495000	        48	800000a0	00c00793	addi	x15,x0,12	  x0:0x00000000 x15=0x0000000c
         505000	        49	800000a4	1f8b8837	lui	x16,0x1f8b8	 x16=0x1f8b8000
         515000	        50	800000a8	63780813	addi	x16,x16,1591	 x16:0x1f8b8000 x16=0x1f8b8637
         525000	        51	800000ac	800008b7	lui	x17,0x80000	 x17=0x80000000
         535000	        52	800000b0	00500913	addi	x18,x0,5	  x0:0x00000000 x18=0x00000005
         545000	        53	800000b4	00000993	addi	x19,x0,0	  x0:0x00000000 x19=0x00000000
         555000	        54	800000b8	00b00a13	addi	x20,x0,11	  x0:0x00000000 x20=0x0000000b
         565000	        55	800000bc	f8061ab7	lui	x21,0xf8061	 x21=0xf8061000
         575000	        56	800000c0	656a8a93	addi	x21,x21,1622	 x21:0xf8061000 x21=0xf8061656
         585000	        57	800000c4	80000b37	lui	x22,0x80000	 x22=0x80000000
         595000	        58	800000c8	00000b93	addi	x23,x0,0	  x0:0x00000000 x23=0x00000000
         605000	        59	800000cc	00000c13	addi	x24,x0,0	  x0:0x00000000 x24=0x00000000
         615000	        60	800000d0	81f53cb7	lui	x25,0x81f53	 x25=0x81f53000
         625000	        61	800000d4	524c8c93	addi	x25,x25,1316	 x25:0x81f53000 x25=0x81f53524
         635000	        62	800000d8	80000d37	lui	x26,0x80000	 x26=0x80000000
         645000	        63	800000dc	dd567db7	lui	x27,0xdd567	 x27=0xdd567000
         655000	        64	800000e0	5e8d8d93	addi	x27,x27,1512	 x27:0xdd567000 x27=0xdd5675e8
         665000	        65	800000e4	80000e37	lui	x28,0x80000	 x28=0x80000000
         675000	        66	800000e8	00000e93	addi	x29,x0,0	  x0:0x00000000 x29=0x00000000
         685000	        67	800000ec	00500f13	addi	x30,x0,5	  x0:0x00000000 x30=0x00000005
         695000	        68	800000f0	80000fb7	lui	x31,0x80000	 x31=0x80000000
         705000	        69	800000f4	0000a497	auipc	x9,0xa	  x9=0x8000a0f0
         715000	        70	800000f8	e9448493	addi	x9,x9,-364	  x9:0x8000a0f0  x9=0x80009f84
         725000	        71	800000fc	00a00993	addi	x19,x0,10	  x0:0x00000000 x19=0x0000000a
         735000	        72	80000100	c2390813	addi	x16,x18,-989	 x18:0x00000005 x16=0xfffffc28
         745000	        73	80000104	00953eb3	sltu	x29,x10,x9	 x10:0x80000000  x9:0x80009f84 x29=0x00000001
         755000	        74	80000108	e2033393	sltiu	x7,x6,-480	  x6:0x80009fc4  x7=0x00000001
         765000	        75	8000010c	00e1a233	slt	x4,x3,x14	  x3:0xff23893e x14:0xd66eae01  x4=0x00000000
         775000	        76	80000110	01051db3	sll	x27,x10,x16	 x10:0x80000000 x16:0xfffffc28 x27=0x00000000
         785000	        77	80000114	d75fd6b7	lui	x13,0xd75fd	 x13=0xd75fd000
         795000	        78	80000118	403883b3	sub	x7,x17,x3	 x17:0x80000000  x3:0xff23893e  x7=0x80dc76c2
         805000	        79	8000011c	f841b293	sltiu	x5,x3,-124	  x3:0xff23893e  x5=0x00000001
         815000	        80	80000120	004a1833	sll	x16,x20,x4	 x20:0x0000000b  x4:0x00000000 x16=0x0000000b
         825000	        81	80000124	a7d92713	slti	x14,x18,-1411	 x18:0x00000005 x14=0x00000000
         835000	        82	80000128	00a00913	addi	x18,x0,10	  x0:0x00000000 x18=0x0000000a
         845000	        83	8000012c	be09ec97	auipc	x25,0xbe09e	 x25=0x3e09e128
         855000	        84	80000130	24362a17	auipc	x20,0x24362	 x20=0xa436212c
         865000	        85	80000134	011f58b3	srl	x17,x30,x17	 x30:0x00000005 x17:0x80000000 x17=0x00000005
         875000	        86	80000138	ff798993	addi	x19,x19,-9	 x19:0x0000000a x19=0x00000001
         885000	        87	8000013c	00000013	addi	x0,x0,0	  x0:0x00000000
         895000	        88	80000140	294dc2b7	lui	x5,0x294dc	  x5=0x294dc000
         905000	        89	80000144	df04fd93	andi	x27,x9,-528	  x9:0x80009f84 x27=0x80009d80
         915000	        90	80000148	08812a97	auipc	x21,0x8812	 x21=0x88812144
         925000	        91	8000014c	b5eaf793	andi	x15,x21,-1186	 x21:0x88812144 x15=0x88812144
         935000	        92	80000150	ff29f0e3	bgeu	x19,x18,80000130	 x19:0x00000001 x18:0x0000000a
         945000	        93	80000154	0125d033	srl	x0,x11,x18	 x11:0x0000000e x18:0x0000000a
         955000	        94	80000158	00200993	addi	x19,x0,2	  x0:0x00000000 x19=0x00000002
         965000	        95	8000015c	0090d233	srl	x4,x1,x9	  x1:0x00000006  x9:0x80009f84  x4=0x00000000
         975000	        96	80000160	01fd88b7	lui	x17,0x1fd8	 x17=0x01fd8000
         985000	        97	80000164	40220733	sub	x14,x4,x2	  x4:0x00000000  x2:0x80000000 x14=0x80000000
         995000	        98	80000168	efacca13	xori	x20,x25,-262	 x25:0x3e09e128 x20=0xc1f61fd2
        1005000	        99	8000016c	ffe00793	addi	x15,x0,-2	  x0:0x00000000 x15=0xfffffffe
        1015000	       100	80000170	00b67fb3	and	x31,x12,x11	 x12:0x00000000 x11:0x0000000e x31=0x00000000
        1025000	       101	80000174	fcc27c93	andi	x25,x4,-52	  x4:0x00000000 x25=0x00000000
        1035000	       102	80000178	00e2f2b3	and	x5,x5,x14	  x5:0x294dc000 x14:0x80000000  x5=0x00000000
        1045000	       103	8000017c	2c2b8813	addi	x16,x23,706	 x23:0x00000000 x16=0x000002c2
        1055000	       104	80000180	409a5c33	sra	x24,x20,x9	 x20:0xc1f61fd2  x9:0x80009f84 x24=0xfc1f61fd
        1065000	       105	80000184	e667e813	ori	x16,x15,-410	 x15:0xfffffffe x16=0xfffffffe
        1075000	       106	80000188	ffc98993	addi	x19,x19,-4	 x19:0x00000002 x19=0xfffffffe
        1085000	       107	8000018c	001902b3	add	x5,x18,x1	 x18:0x0000000a  x1:0x00000006  x5=0x00000010
        1095000	       108	80000190	004e6c33	or	x24,x28,x4	 x28:0x80000000  x4:0x00000000 x24=0x80000000
        1105000	       109	80000194	00d2b933	sltu	x18,x5,x13	  x5:0x00000010 x13:0xd75fd000 x18=0x00000001
        1115000	       110	80000198	00881e33	sll	x28,x16,x8	 x16:0xfffffffe  x8:0x00000000 x28=0xfffffffe
        1125000	       111	8000019c	00000013	addi	x0,x0,0	  x0:0x00000000
        1135000	       112	800001a0	41abd6b3	sra	x13,x23,x26	 x23:0x00000000 x26:0x80000000 x13=0x00000000
        1145000	       113	800001a4	fcf998e3	bne	x19,x15,80000174	 x19:0xfffffffe x15:0xfffffffe
        1155000	       114	800001a8	417a0733	sub	x14,x20,x23	 x20:0xc1f61fd2 x23:0x00000000 x14=0xc1f61fd2
        1165000	       115	800001ac	00600793	addi	x15,x0,6	  x0:0x00000000 x15=0x00000006
        1175000	       116	800001b0	41f15813	srai	x16,x2,0x1f	  x2:0x80000000 x16=0xffffffff
        1185000	       117	800001b4	011c5c93	srli	x25,x24,0x11	 x24:0x80000000 x25=0x00004000
        1195000	       118	800001b8	00000013	addi	x0,x0,0	  x0:0x00000000
        1205000	       119	800001bc	00000013	addi	x0,x0,0	  x0:0x00000000
        1215000	       120	800001c0	906d0213	addi	x4,x26,-1786	 x26:0x80000000  x4=0x7ffff906
        1225000	       121	800001c4	5b3c2213	slti	x4,x24,1459	 x24:0x80000000  x4=0x00000001
        1235000	       122	800001c8	ff600993	addi	x19,x0,-10	  x0:0x00000000 x19=0xfffffff6
        1245000	       123	800001cc	4108db13	srai	x22,x17,0x10	 x17:0x01fd8000 x22=0x000001fd
        1255000	       124	800001d0	1b197a13	andi	x20,x18,433	 x18:0x00000001 x20=0x00000001
        1265000	       125	800001d4	c9052d97	auipc	x27,0xc9052	 x27=0x490521d0
        1275000	       126	800001d8	db083b93	sltiu	x23,x16,-592	 x16:0xffffffff x23=0x00000000
        1285000	       127	800001dc	ff878793	addi	x15,x15,-8	 x15:0x00000006 x15=0xfffffffe
        1295000	       128	800001e0	00100593	addi	x11,x0,1	  x0:0x00000000 x11=0x00000001
        1305000	       129	800001e4	00819a13	slli	x20,x3,0x8	  x3:0xff23893e x20=0x23893e00
        1315000	       130	800001e8	00d00f13	addi	x30,x0,13	  x0:0x00000000 x30=0x0000000d
        1325000	       131	800001ec	48aa7a13	andi	x20,x20,1162	 x20:0x23893e00 x20=0x00000400
        1335000	       132	800001f0	1971c917	auipc	x18,0x1971c	 x18=0x9971c1ec
        1345000	       133	800001f4	94664037	lui	x0,0x94664	
        1355000	       134	800001f8	fb28abb7	lui	x23,0xfb28a	 x23=0xfb28a000
        1365000	       135	800001fc	00258593	addi	x11,x11,2	 x11:0x00000001 x11=0x00000003
        1375000	       136	80000200	ffe5c8e3	blt	x11,x30,800001f0	 x11:0x00000003 x30:0x0000000d
        1385000	       137	00000000	00000013	addi	x0,x0,0	  x0:0x00000000
        1395000	       138	800001ec	00000013	addi	x0,x0,0	  x0:0x00000000
        1405000	       139	800001f0	1971c917	auipc	x18,0x1971c	 x18=0x9971c1ec
        1415000	       140	800001f4	94664037	lui	x0,0x94664	
        1425000	       141	800001f8	fb28abb7	lui	x23,0xfb28a	 x23=0xfb28a000
        1435000	       142	800001fc	00258593	addi	x11,x11,2	 x11:0x00000003 x11=0x00000005
        1445000	       143	80000200	ffe5c8e3	blt	x11,x30,800001f0	 x11:0x00000005 x30:0x0000000d
        1455000	       144	00000000	00000013	addi	x0,x0,0	  x0:0x00000000
        1465000	       145	800001ec	00000013	addi	x0,x0,0	  x0:0x00000000
        1475000	       146	800001f0	1971c917	auipc	x18,0x1971c	 x18=0x9971c1ec
        1485000	       147	800001f4	94664037	lui	x0,0x94664	
        1495000	       148	800001f8	fb28abb7	lui	x23,0xfb28a	 x23=0xfb28a000
        1505000	       149	800001fc	00258593	addi	x11,x11,2	 x11:0x00000005 x11=0x00000007
        1515000	       150	80000200	ffe5c8e3	blt	x11,x30,800001f0	 x11:0x00000007 x30:0x0000000d
        1525000	       151	00000000	00000013	addi	x0,x0,0	  x0:0x00000000
        1535000	       152	800001ec	00000013	addi	x0,x0,0	  x0:0x00000000
        1545000	       153	800001f0	1971c917	auipc	x18,0x1971c	 x18=0x9971c1ec
        1555000	       154	800001f4	94664037	lui	x0,0x94664	
        1565000	       155	800001f8	fb28abb7	lui	x23,0xfb28a	 x23=0xfb28a000
        1575000	       156	800001fc	00258593	addi	x11,x11,2	 x11:0x00000007 x11=0x00000009
        1585000	       157	80000200	ffe5c8e3	blt	x11,x30,800001f0	 x11:0x00000009 x30:0x0000000d
        1595000	       158	00000000	00000013	addi	x0,x0,0	  x0:0x00000000
        1605000	       159	800001ec	00000013	addi	x0,x0,0	  x0:0x00000000
        1615000	       160	800001f0	1971c917	auipc	x18,0x1971c	 x18=0x9971c1ec
        1625000	       161	800001f4	94664037	lui	x0,0x94664	
        1635000	       162	800001f8	fb28abb7	lui	x23,0xfb28a	 x23=0xfb28a000
        1645000	       163	800001fc	00258593	addi	x11,x11,2	 x11:0x00000009 x11=0x0000000b
        1655000	       164	80000200	ffe5c8e3	blt	x11,x30,800001f0	 x11:0x0000000b x30:0x0000000d
        1665000	       165	00000000	00000013	addi	x0,x0,0	  x0:0x00000000
        1675000	       166	800001ec	00000013	addi	x0,x0,0	  x0:0x00000000
        1685000	       167	800001f0	1971c917	auipc	x18,0x1971c	 x18=0x9971c1ec
        1695000	       168	800001f4	94664037	lui	x0,0x94664	
        1705000	       169	800001f8	fb28abb7	lui	x23,0xfb28a	 x23=0xfb28a000
        1715000	       170	800001fc	00258593	addi	x11,x11,2	 x11:0x0000000b x11=0x0000000d
        1725000	       171	80000200	ffe5c8e3	blt	x11,x30,800001f0	 x11:0x0000000d x30:0x0000000d
        1735000	       172	80000204	00fd02b3	add	x5,x26,x15	 x26:0x80000000 x15:0xfffffffe  x5=0x7ffffffe
        1745000	       173	80000208	fd3786e3	beq	x15,x19,800001d4	 x15:0xfffffffe x19:0xfffffff6
        1755000	       174	8000020c	02598e93	addi	x29,x19,37	 x19:0xfffffff6 x29=0x0000001b
        1765000	       175	80000210	00500813	addi	x16,x0,5	  x0:0x00000000 x16=0x00000005
        1775000	       176	80000214	0be23f13	sltiu	x30,x4,190	  x4:0x00000001 x30=0x00000001
        1785000	       177	80000218	e56df1b7	lui	x3,0xe56df	  x3=0xe56df000
        1795000	       178	8000021c	009fdd33	srl	x26,x31,x9	 x31:0x00000000  x9:0x80009f84 x26=0x00000000
        1805000	       179	80000220	01a65b13	srli	x22,x12,0x1a	 x12:0x00000000 x22=0x00000000
        1815000	       180	80000224	40f982b3	sub	x5,x19,x15	 x19:0xfffffff6 x15:0xfffffffe  x5=0xfffffff8
        1825000	       181	80000228	0101ceb3	xor	x29,x3,x16	  x3:0xe56df000 x16:0x00000005 x29=0xe56df005
        1835000	       182	8000022c	01c85013	srli	x0,x16,0x1c	 x16:0x00000005
        1845000	       183	80000230	2edfb993	sltiu	x19,x31,749	 x31:0x00000000 x19=0x00000001
        1855000	       184	80000234	41c252b3	sra	x5,x4,x28	  x4:0x00000001 x28:0xfffffffe  x5=0x00000000
        1865000	       185	80000238	01300713	addi	x14,x0,19	  x0:0x00000000 x14=0x00000013
        1875000	       186	8000023c	408ddcb3	sra	x25,x27,x8	 x27:0x490521d0  x8:0x00000000 x25=0x490521d0
        1885000	       187	80000240	4137da13	srai	x20,x15,0x13	 x15:0xfffffffe x20=0xffffffff
        1895000	       188	80000244	01da9793	slli	x15,x21,0x1d	 x21:0x88812144 x15=0x80000000
        1905000	       189	80000248	41ebdbb3	sra	x23,x23,x30	 x23:0xfb28a000 x30:0x00000001 x23=0xfd945000
        1915000	       190	8000024c	443d6bb7	lui	x23,0x443d6	 x23=0x443d6000
        1925000	       191	80000250	00280813	addi	x16,x16,2	 x16:0x00000005 x16=0x00000007
        1935000	       192	80000254	41060b33	sub	x22,x12,x16	 x12:0x00000000 x16:0x00000007 x22=0xfffffff9
        1945000	       193	80000258	fee80ae3	beq	x16,x14,8000024c	 x16:0x00000007 x14:0x00000013
        1955000	       194	8000025c	4fe57237	lui	x4,0x4fe57	  x4=0x4fe57000
        1965000	       195	80000260	00900213	addi	x4,x0,9	  x0:0x00000000  x4=0x00000009
        1975000	       196	80000264	000618b3	sll	x17,x12,x0	 x12:0x00000000  x0:0x00000000 x17=0x00000000
        1985000	       197	80000268	de766993	ori	x19,x12,-537	 x12:0x00000000 x19=0xfffffde7
        1995000	       198	8000026c	df912d93	slti	x27,x2,-519	  x2:0x80000000 x27=0x00000001
        2005000	       199	80000270	00906b33	or	x22,x0,x9	  x0:0x00000000  x9:0x80009f84 x22=0x80009f84
        2015000	       200	80000274	00700c93	addi	x25,x0,7	  x0:0x00000000 x25=0x00000007
        2025000	       201	80000278	08bc0c13	addi	x24,x24,139	 x24:0x80000000 x24=0x8000008b
        2035000	       202	8000027c	013edc33	srl	x24,x29,x19	 x29:0xe56df005 x19:0xfffffde7 x24=0x01cadbe0
        2045000	       203	80000280	eb8a2193	slti	x3,x20,-328	 x20:0xffffffff  x3=0x00000000
        2055000	       204	80000284	4175d013	srai	x0,x11,0x17	 x11:0x0000000d
        2065000	       205	80000288	0114a733	slt	x14,x9,x17	  x9:0x80009f84 x17:0x00000000 x14=0x00000001
        2075000	       206	8000028c	ffa20213	addi	x4,x4,-6	  x4:0x00000009  x4=0x00000003
        2085000	       207	80000290	8eb1e793	ori	x15,x3,-1813	  x3:0x00000000 x15=0xfffff8eb
        2095000	       208	80000294	416c5633	sra	x12,x24,x22	 x24:0x01cadbe0 x22:0x80009f84 x12=0x001cadbe
        2105000	       209	80000298	00ea9813	slli	x16,x21,0xe	 x21:0x88812144 x16=0x48510000
        2115000	       210	8000029c	00912d33	slt	x26,x2,x9	  x2:0x80000000  x9:0x80009f84 x26=0x00000001
        2125000	       211	800002a0	006c6033	or	x0,x24,x6	 x24:0x01cadbe0  x6:0x80009fc4
        2135000	       212	800002a4	41a6deb3	sra	x29,x13,x26	 x13:0x00000000 x26:0x00000001 x29=0x00000000
        2145000	       213	800002a8	41f85813	srai	x16,x16,0x1f	 x16:0x48510000 x16=0x00000000
        2155000	       214	800002ac	41e450b3	sra	x1,x8,x30	  x8:0x00000000 x30:0x00000001  x1=0x00000000
        2165000	       215	800002b0	00ddc9b3	xor	x19,x27,x13	 x27:0x00000001 x13:0x00000000 x19=0x00000001
        2175000	       216	800002b4	004a1f13	slli	x30,x20,0x4	 x20:0xffffffff x30=0xfffffff0
        2185000	       217	800002b8	a4b5f393	andi	x7,x11,-1461	 x11:0x0000000d  x7=0x00000009
        2195000	       218	800002bc	00489993	slli	x19,x17,0x4	 x17:0x00000000 x19=0x00000000
        2205000	       219	800002c0	00e2d6b3	srl	x13,x5,x14	  x5:0x00000000 x14:0x00000001 x13=0x00000000
        2215000	       220	800002c4	41835133	sra	x2,x6,x24	  x6:0x80009fc4 x24:0x01cadbe0  x2=0x80009fc4
        2225000	       221	800002c8	fb927ce3	bgeu	x4,x25,80000280	  x4:0x00000003 x25:0x00000007
        2235000	       222	800002cc	00000013	addi	x0,x0,0	  x0:0x00000000
        2245000	       223	800002d0	ff800413	addi	x8,x0,-8	  x0:0x00000000  x8=0xfffffff8
        2255000	       224	800002d4	e7f2a393	slti	x7,x5,-385	  x5:0x00000000  x7=0x00000000
        2265000	       225	800002d8	cdcc6c93	ori	x25,x24,-804	 x24:0x01cadbe0 x25=0xfffffffc
        2275000	       226	800002dc	fef00893	addi	x17,x0,-17	  x0:0x00000000 x17=0xffffffef
        2285000	       227	800002e0	009c6f33	or	x30,x24,x9	 x24:0x01cadbe0  x9:0x80009f84 x30=0x81cadfe4
        2295000	       228	800002e4	00f1e733	or	x14,x3,x15	  x3:0x00000000 x15:0xfffff8eb x14=0xfffff8eb
        2305000	       229	800002e8	407a5cb3	sra	x25,x20,x7	 x20:0xffffffff  x7:0x00000000 x25=0xffffffff
        2315000	       230	800002ec	4d4d3d17	auipc	x26,0x4d4d3	 x26=0xcd4d32e8
        2325000	       231	800002f0	4042d5b3	sra	x11,x5,x4	  x5:0x00000000  x4:0x00000003 x11=0x00000000
        2335000	       232	800002f4	ff940413	addi	x8,x8,-7	  x8:0xfffffff8  x8=0xfffffff1
        2345000	       233	800002f8	ff1454e3	bge	x8,x17,800002e0	  x8:0xfffffff1 x17:0xffffffef
        2355000	       234	00000000	00000013	addi	x0,x0,0	  x0:0x00000000
        2365000	       235	800002dc	00000013	addi	x0,x0,0	  x0:0x00000000
        2375000	       236	800002e0	009c6f33	or	x30,x24,x9	 x24:0x01cadbe0  x9:0x80009f84 x30=0x81cadfe4
        2385000	       237	800002e4	00f1e733	or	x14,x3,x15	  x3:0x00000000 x15:0xfffff8eb x14=0xfffff8eb
        2395000	       238	800002e8	407a5cb3	sra	x25,x20,x7	 x20:0xffffffff  x7:0x00000000 x25=0xffffffff
        2405000	       239	800002ec	4d4d3d17	auipc	x26,0x4d4d3	 x26=0xcd4d32e8
        2415000	       240	800002f0	4042d5b3	sra	x11,x5,x4	  x5:0x00000000  x4:0x00000003 x11=0x00000000
        2425000	       241	800002f4	ff940413	addi	x8,x8,-7	  x8:0xfffffff1  x8=0xffffffea
        2435000	       242	800002f8	ff1454e3	bge	x8,x17,800002e0	  x8:0xffffffea x17:0xffffffef
        2445000	       243	800002fc	01355c33	srl	x24,x10,x19	 x10:0x80000000 x19:0x00000000 x24=0x80000000
        2455000	       244	80000300	fff00793	addi	x15,x0,-1	  x0:0x00000000 x15=0xffffffff
        2465000	       245	80000304	40aa5213	srai	x4,x20,0xa	 x20:0xffffffff  x4=0xffffffff
        2475000	       246	80000308	01db0ab3	add	x21,x22,x29	 x22:0x80009f84 x29:0x00000000 x21=0x80009f84
        2485000	       247	8000030c	01b542b3	xor	x5,x10,x27	 x10:0x80000000 x27:0x00000001  x5=0x80000001
        2495000	       248	80000310	011c4733	xor	x14,x24,x17	 x24:0x80000000 x17:0xffffffef x14=0x7fffffef
        2505000	       249	80000314	01100593	addi	x11,x0,17	  x0:0x00000000 x11=0x00000011
        2515000	       250	80000318	01650433	add	x8,x10,x22	 x10:0x80000000 x22:0x80009f84  x8=0x00009f84
        2525000	       251	8000031c	01b848b3	xor	x17,x16,x27	 x16:0x00000000 x27:0x00000001 x17=0x00000001
        2535000	       252	80000320	00478793	addi	x15,x15,4	 x15:0xffffffff x15=0x00000003
        2545000	       253	80000324	00110f33	add	x30,x2,x1	  x2:0x80009fc4  x1:0x00000000 x30=0x80009fc4
        2555000	       254	80000328	ffb00e13	addi	x28,x0,-5	  x0:0x00000000 x28=0xfffffffb
        2565000	       255	8000032c	ff900993	addi	x19,x0,-7	  x0:0x00000000 x19=0xfffffff9
        2575000	       256	80000330	9e6f6713	ori	x14,x30,-1562	 x30:0x80009fc4 x14=0xffffffe6
        2585000	       257	80000334	8632e213	ori	x4,x5,-1949	  x5:0x80000001  x4=0xfffff863
        2595000	       258	80000338	4077d0b3	sra	x1,x15,x7	 x15:0x00000003  x7:0x00000000  x1=0x00000003
        2605000	       259	8000033c	40c2d733	sra	x14,x5,x12	  x5:0x80000001 x12:0x001cadbe x14=0xfffffffe
        2615000	       260	80000340	0012bab3	sltu	x21,x5,x1	  x5:0x80000001  x1:0x00000003 x21=0x00000000
        2625000	       261	80000344	01e7beb3	sltu	x29,x15,x30	 x15:0x00000003 x30:0x80009fc4 x29=0x00000001
        2635000	       262	80000348	ffce0e13	addi	x28,x28,-4	 x28:0xfffffffb x28=0xfffffff7
        2645000	       263	8000034c	32888193	addi	x3,x17,808	 x17:0x00000001  x3=0x00000329
        2655000	       264	80000350	ff3e58e3	bge	x28,x19,80000340	 x28:0xfffffff7 x19:0xfffffff9
        2665000	       265	80000354	61e96b93	ori	x23,x18,1566	 x18:0x9971c1ec x23=0x9971c7fe
        2675000	       266	80000358	fcb7e2e3	bltu	x15,x11,8000031c	 x15:0x00000003 x11:0x00000011
        2685000	       267	00000000	00000013	addi	x0,x0,0	  x0:0x00000000
        2695000	       268	80000318	00000013	addi	x0,x0,0	  x0:0x00000000
        2705000	       269	8000031c	01b848b3	xor	x17,x16,x27	 x16:0x00000000 x27:0x00000001 x17=0x00000001
        2715000	       270	80000320	00478793	addi	x15,x15,4	 x15:0x00000003 x15=0x00000007
        2725000	       271	80000324	00110f33	add	x30,x2,x1	  x2:0x80009fc4  x1:0x00000003 x30=0x80009fc7
        2735000	       272	80000328	ffb00e13	addi	x28,x0,-5	  x0:0x00000000 x28=0xfffffffb
        2745000	       273	8000032c	ff900993	addi	x19,x0,-7	  x0:0x00000000 x19=0xfffffff9
        2755000	       274	80000330	9e6f6713	ori	x14,x30,-1562	 x30:0x80009fc7 x14=0xffffffe7
        2765000	       275	80000334	8632e213	ori	x4,x5,-1949	  x5:0x80000001  x4=0xfffff863
        2775000	       276	80000338	4077d0b3	sra	x1,x15,x7	 x15:0x00000007  x7:0x00000000  x1=0x00000007
        2785000	       277	8000033c	40c2d733	sra	x14,x5,x12	  x5:0x80000001 x12:0x001cadbe x14=0xfffffffe
        2795000	       278	80000340	0012bab3	sltu	x21,x5,x1	  x5:0x80000001  x1:0x00000007 x21=0x00000000
        2805000	       279	80000344	01e7beb3	sltu	x29,x15,x30	 x15:0x00000007 x30:0x80009fc7 x29=0x00000001
        2815000	       280	80000348	ffce0e13	addi	x28,x28,-4	 x28:0xfffffffb x28=0xfffffff7
        2825000	       281	8000034c	32888193	addi	x3,x17,808	 x17:0x00000001  x3=0x00000329
        2835000	       282	80000350	ff3e58e3	bge	x28,x19,80000340	 x28:0xfffffff7 x19:0xfffffff9
        2845000	       283	80000354	61e96b93	ori	x23,x18,1566	 x18:0x9971c1ec x23=0x9971c7fe
        2855000	       284	80000358	fcb7e2e3	bltu	x15,x11,8000031c	 x15:0x00000007 x11:0x00000011
        2865000	       285	00000000	00000013	addi	x0,x0,0	  x0:0x00000000
        2875000	       286	80000318	00000013	addi	x0,x0,0	  x0:0x00000000
        2885000	       287	8000031c	01b848b3	xor	x17,x16,x27	 x16:0x00000000 x27:0x00000001 x17=0x00000001
        2895000	       288	80000320	00478793	addi	x15,x15,4	 x15:0x00000007 x15=0x0000000b
        2905000	       289	80000324	00110f33	add	x30,x2,x1	  x2:0x80009fc4  x1:0x00000007 x30=0x80009fcb
        2915000	       290	80000328	ffb00e13	addi	x28,x0,-5	  x0:0x00000000 x28=0xfffffffb
        2925000	       291	8000032c	ff900993	addi	x19,x0,-7	  x0:0x00000000 x19=0xfffffff9
        2935000	       292	80000330	9e6f6713	ori	x14,x30,-1562	 x30:0x80009fcb x14=0xffffffef
        2945000	       293	80000334	8632e213	ori	x4,x5,-1949	  x5:0x80000001  x4=0xfffff863
        2955000	       294	80000338	4077d0b3	sra	x1,x15,x7	 x15:0x0000000b  x7:0x00000000  x1=0x0000000b
        2965000	       295	8000033c	40c2d733	sra	x14,x5,x12	  x5:0x80000001 x12:0x001cadbe x14=0xfffffffe
        2975000	       296	80000340	0012bab3	sltu	x21,x5,x1	  x5:0x80000001  x1:0x0000000b x21=0x00000000
        2985000	       297	80000344	01e7beb3	sltu	x29,x15,x30	 x15:0x0000000b x30:0x80009fcb x29=0x00000001
        2995000	       298	80000348	ffce0e13	addi	x28,x28,-4	 x28:0xfffffffb x28=0xfffffff7
        3005000	       299	8000034c	32888193	addi	x3,x17,808	 x17:0x00000001  x3=0x00000329
        3015000	       300	80000350	ff3e58e3	bge	x28,x19,80000340	 x28:0xfffffff7 x19:0xfffffff9
        3025000	       301	80000354	61e96b93	ori	x23,x18,1566	 x18:0x9971c1ec x23=0x9971c7fe
        3035000	       302	80000358	fcb7e2e3	bltu	x15,x11,8000031c	 x15:0x0000000b x11:0x00000011
        3045000	       303	00000000	00000013	addi	x0,x0,0	  x0:0x00000000
        3055000	       304	80000318	00000013	addi	x0,x0,0	  x0:0x00000000
        3065000	       305	8000031c	01b848b3	xor	x17,x16,x27	 x16:0x00000000 x27:0x00000001 x17=0x00000001
        3075000	       306	80000320	00478793	addi	x15,x15,4	 x15:0x0000000b x15=0x0000000f
        3085000	       307	80000324	00110f33	add	x30,x2,x1	  x2:0x80009fc4  x1:0x0000000b x30=0x80009fcf
        3095000	       308	80000328	ffb00e13	addi	x28,x0,-5	  x0:0x00000000 x28=0xfffffffb
        3105000	       309	8000032c	ff900993	addi	x19,x0,-7	  x0:0x00000000 x19=0xfffffff9
        3115000	       310	80000330	9e6f6713	ori	x14,x30,-1562	 x30:0x80009fcf x14=0xffffffef
        3125000	       311	80000334	8632e213	ori	x4,x5,-1949	  x5:0x80000001  x4=0xfffff863
        3135000	       312	80000338	4077d0b3	sra	x1,x15,x7	 x15:0x0000000f  x7:0x00000000  x1=0x0000000f
        3145000	       313	8000033c	40c2d733	sra	x14,x5,x12	  x5:0x80000001 x12:0x001cadbe x14=0xfffffffe
        3155000	       314	80000340	0012bab3	sltu	x21,x5,x1	  x5:0x80000001  x1:0x0000000f x21=0x00000000
        3165000	       315	80000344	01e7beb3	sltu	x29,x15,x30	 x15:0x0000000f x30:0x80009fcf x29=0x00000001
        3175000	       316	80000348	ffce0e13	addi	x28,x28,-4	 x28:0xfffffffb x28=0xfffffff7
        3185000	       317	8000034c	32888193	addi	x3,x17,808	 x17:0x00000001  x3=0x00000329
        3195000	       318	80000350	ff3e58e3	bge	x28,x19,80000340	 x28:0xfffffff7 x19:0xfffffff9
        3205000	       319	80000354	61e96b93	ori	x23,x18,1566	 x18:0x9971c1ec x23=0x9971c7fe
        3215000	       320	80000358	fcb7e2e3	bltu	x15,x11,8000031c	 x15:0x0000000f x11:0x00000011
        3225000	       321	00000000	00000013	addi	x0,x0,0	  x0:0x00000000
        3235000	       322	80000318	00000013	addi	x0,x0,0	  x0:0x00000000
        3245000	       323	8000031c	01b848b3	xor	x17,x16,x27	 x16:0x00000000 x27:0x00000001 x17=0x00000001
        3255000	       324	80000320	00478793	addi	x15,x15,4	 x15:0x0000000f x15=0x00000013
        3265000	       325	80000324	00110f33	add	x30,x2,x1	  x2:0x80009fc4  x1:0x0000000f x30=0x80009fd3
        3275000	       326	80000328	ffb00e13	addi	x28,x0,-5	  x0:0x00000000 x28=0xfffffffb
        3285000	       327	8000032c	ff900993	addi	x19,x0,-7	  x0:0x00000000 x19=0xfffffff9
        3295000	       328	80000330	9e6f6713	ori	x14,x30,-1562	 x30:0x80009fd3 x14=0xfffffff7
        3305000	       329	80000334	8632e213	ori	x4,x5,-1949	  x5:0x80000001  x4=0xfffff863
        3315000	       330	80000338	4077d0b3	sra	x1,x15,x7	 x15:0x00000013  x7:0x00000000  x1=0x00000013
        3325000	       331	8000033c	40c2d733	sra	x14,x5,x12	  x5:0x80000001 x12:0x001cadbe x14=0xfffffffe
        3335000	       332	80000340	0012bab3	sltu	x21,x5,x1	  x5:0x80000001  x1:0x00000013 x21=0x00000000
        3345000	       333	80000344	01e7beb3	sltu	x29,x15,x30	 x15:0x00000013 x30:0x80009fd3 x29=0x00000001
        3355000	       334	80000348	ffce0e13	addi	x28,x28,-4	 x28:0xfffffffb x28=0xfffffff7
        3365000	       335	8000034c	32888193	addi	x3,x17,808	 x17:0x00000001  x3=0x00000329
        3375000	       336	80000350	ff3e58e3	bge	x28,x19,80000340	 x28:0xfffffff7 x19:0xfffffff9
        3385000	       337	80000354	61e96b93	ori	x23,x18,1566	 x18:0x9971c1ec x23=0x9971c7fe
        3395000	       338	80000358	fcb7e2e3	bltu	x15,x11,8000031c	 x15:0x00000013 x11:0x00000011
        3405000	       339	8000035c	014063b3	or	x7,x0,x20	  x0:0x00000000 x20:0xffffffff  x7=0xffffffff
        3415000	       340	80000360	00900293	addi	x5,x0,9	  x0:0x00000000  x5=0x00000009
        3425000	       341	80000364	4104d093	srai	x1,x9,0x10	  x9:0x80009f84  x1=0xffff8000
        3435000	       342	80000368	ff200d93	addi	x27,x0,-14	  x0:0x00000000 x27=0xfffffff2
        3445000	       343	8000036c	408e51b3	sra	x3,x28,x8	 x28:0xfffffff7  x8:0x00009f84  x3=0xffffffff
        3455000	       344	80000370	4afa2b13	slti	x22,x20,1199	 x20:0xffffffff x22=0x00000001
        3465000	       345	80000374	00000013	addi	x0,x0,0	  x0:0x00000000
        3475000	       346	80000378	00cd9c93	slli	x25,x27,0xc	 x27:0xfffffff2 x25=0xffff2000
        3485000	       347	8000037c	00ee1133	sll	x2,x28,x14	 x28:0xfffffff7 x14:0xfffffffe  x2=0xc0000000
        3495000	       348	80000380	ffd28293	addi	x5,x5,-3	  x5:0x00000009  x5=0x00000006
        3505000	       349	80000384	00143033	sltu	x0,x8,x1	  x8:0x00009f84  x1:0xffff8000
        3515000	       350	80000388	ffb2d4e3	bge	x5,x27,80000370	  x5:0x00000006 x27:0xfffffff2
        3525000	       351	00000000	00000013	addi	x0,x0,0	  x0:0x00000000
        3535000	       352	8000036c	00000013	addi	x0,x0,0	  x0:0x00000000
        3545000	       353	80000370	4afa2b13	slti	x22,x20,1199	 x20:0xffffffff x22=0x00000001
        3555000	       354	80000374	00000013	addi	x0,x0,0	  x0:0x00000000
        3565000	       355	80000378	00cd9c93	slli	x25,x27,0xc	 x27:0xfffffff2 x25=0xffff2000
        3575000	       356	8000037c	00ee1133	sll	x2,x28,x14	 x28:0xfffffff7 x14:0xfffffffe  x2=0xc0000000
        3585000	       357	80000380	ffd28293	addi	x5,x5,-3	  x5:0x00000006  x5=0x00000003
        3595000	       358	80000384	00143033	sltu	x0,x8,x1	  x8:0x00009f84  x1:0xffff8000
        3605000	       359	80000388	ffb2d4e3	bge	x5,x27,80000370	  x5:0x00000003 x27:0xfffffff2
        3615000	       360	00000000	00000013	addi	x0,x0,0	  x0:0x00000000
        3625000	       361	8000036c	00000013	addi	x0,x0,0	  x0:0x00000000
        3635000	       362	80000370	4afa2b13	slti	x22,x20,1199	 x20:0xffffffff x22=0x00000001
        3645000	       363	80000374	00000013	addi	x0,x0,0	  x0:0x00000000
        3655000	       364	80000378	00cd9c93	slli	x25,x27,0xc	 x27:0xfffffff2 x25=0xffff2000
        3665000	       365	8000037c	00ee1133	sll	x2,x28,x14	 x28:0xfffffff7 x14:0xfffffffe  x2=0xc0000000
        3675000	       366	80000380	ffd28293	addi	x5,x5,-3	  x5:0x00000003  x5=0x00000000
        3685000	       367	80000384	00143033	sltu	x0,x8,x1	  x8:0x00009f84  x1:0xffff8000
        3695000	       368	80000388	ffb2d4e3	bge	x5,x27,80000370	  x5:0x00000000 x27:0xfffffff2
        3705000	       369	00000000	00000013	addi	x0,x0,0	  x0:0x00000000
        3715000	       370	8000036c	00000013	addi	x0,x0,0	  x0:0x00000000
        3725000	       371	80000370	4afa2b13	slti	x22,x20,1199	 x20:0xffffffff x22=0x00000001
        3735000	       372	80000374	00000013	addi	x0,x0,0	  x0:0x00000000
        3745000	       373	80000378	00cd9c93	slli	x25,x27,0xc	 x27:0xfffffff2 x25=0xffff2000
        3755000	       374	8000037c	00ee1133	sll	x2,x28,x14	 x28:0xfffffff7 x14:0xfffffffe  x2=0xc0000000
        3765000	       375	80000380	ffd28293	addi	x5,x5,-3	  x5:0x00000000  x5=0xfffffffd
        3775000	       376	80000384	00143033	sltu	x0,x8,x1	  x8:0x00009f84  x1:0xffff8000
        3785000	       377	80000388	ffb2d4e3	bge	x5,x27,80000370	  x5:0xfffffffd x27:0xfffffff2
        3795000	       378	00000000	00000013	addi	x0,x0,0	  x0:0x00000000
        3805000	       379	8000036c	00000013	addi	x0,x0,0	  x0:0x00000000
        3815000	       380	80000370	4afa2b13	slti	x22,x20,1199	 x20:0xffffffff x22=0x00000001
        3825000	       381	80000374	00000013	addi	x0,x0,0	  x0:0x00000000
        3835000	       382	80000378	00cd9c93	slli	x25,x27,0xc	 x27:0xfffffff2 x25=0xffff2000
        3845000	       383	8000037c	00ee1133	sll	x2,x28,x14	 x28:0xfffffff7 x14:0xfffffffe  x2=0xc0000000
        3855000	       384	80000380	ffd28293	addi	x5,x5,-3	  x5:0xfffffffd  x5=0xfffffffa
        3865000	       385	80000384	00143033	sltu	x0,x8,x1	  x8:0x00009f84  x1:0xffff8000
        3875000	       386	80000388	ffb2d4e3	bge	x5,x27,80000370	  x5:0xfffffffa x27:0xfffffff2
        3885000	       387	00000000	00000013	addi	x0,x0,0	  x0:0x00000000
        3895000	       388	8000036c	00000013	addi	x0,x0,0	  x0:0x00000000
        3905000	       389	80000370	4afa2b13	slti	x22,x20,1199	 x20:0xffffffff x22=0x00000001
        3915000	       390	80000374	00000013	addi	x0,x0,0	  x0:0x00000000
        3925000	       391	80000378	00cd9c93	slli	x25,x27,0xc	 x27:0xfffffff2 x25=0xffff2000
        3935000	       392	8000037c	00ee1133	sll	x2,x28,x14	 x28:0xfffffff7 x14:0xfffffffe  x2=0xc0000000
        3945000	       393	80000380	ffd28293	addi	x5,x5,-3	  x5:0xfffffffa  x5=0xfffffff7
        3955000	       394	80000384	00143033	sltu	x0,x8,x1	  x8:0x00009f84  x1:0xffff8000
        3965000	       395	80000388	ffb2d4e3	bge	x5,x27,80000370	  x5:0xfffffff7 x27:0xfffffff2
        3975000	       396	00000000	00000013	addi	x0,x0,0	  x0:0x00000000
        3985000	       397	8000036c	00000013	addi	x0,x0,0	  x0:0x00000000
        3995000	       398	80000370	4afa2b13	slti	x22,x20,1199	 x20:0xffffffff x22=0x00000001
        4005000	       399	80000374	00000013	addi	x0,x0,0	  x0:0x00000000
        4015000	       400	80000378	00cd9c93	slli	x25,x27,0xc	 x27:0xfffffff2 x25=0xffff2000
        4025000	       401	8000037c	00ee1133	sll	x2,x28,x14	 x28:0xfffffff7 x14:0xfffffffe  x2=0xc0000000
        4035000	       402	80000380	ffd28293	addi	x5,x5,-3	  x5:0xfffffff7  x5=0xfffffff4
        4045000	       403	80000384	00143033	sltu	x0,x8,x1	  x8:0x00009f84  x1:0xffff8000
        4055000	       404	80000388	ffb2d4e3	bge	x5,x27,80000370	  x5:0xfffffff4 x27:0xfffffff2
        4065000	       405	00000000	00000013	addi	x0,x0,0	  x0:0x00000000
        4075000	       406	8000036c	00000013	addi	x0,x0,0	  x0:0x00000000
        4085000	       407	80000370	4afa2b13	slti	x22,x20,1199	 x20:0xffffffff x22=0x00000001
        4095000	       408	80000374	00000013	addi	x0,x0,0	  x0:0x00000000
        4105000	       409	80000378	00cd9c93	slli	x25,x27,0xc	 x27:0xfffffff2 x25=0xffff2000
        4115000	       410	8000037c	00ee1133	sll	x2,x28,x14	 x28:0xfffffff7 x14:0xfffffffe  x2=0xc0000000
        4125000	       411	80000380	ffd28293	addi	x5,x5,-3	  x5:0xfffffff4  x5=0xfffffff1
        4135000	       412	80000384	00143033	sltu	x0,x8,x1	  x8:0x00009f84  x1:0xffff8000
        4145000	       413	80000388	ffb2d4e3	bge	x5,x27,80000370	  x5:0xfffffff1 x27:0xfffffff2
        4155000	       414	8000038c	4a00cfb7	lui	x31,0x4a00c	 x31=0x4a00c000
        4165000	       415	80000390	00a00b13	addi	x22,x0,10	  x0:0x00000000 x22=0x0000000a
        4175000	       416	80000394	0e16eb93	ori	x23,x13,225	 x13:0x00000000 x23=0x000000e1
        4185000	       417	80000398	5464c113	xori	x2,x9,1350	  x9:0x80009f84  x2=0x80009ac2
        4195000	       418	8000039c	b71ecb93	xori	x23,x29,-1167	 x29:0x00000001 x23=0xfffffb70
        4205000	       419	800003a0	016b9e93	slli	x29,x23,0x16	 x23:0xfffffb70 x29=0xdc000000
        4215000	       420	800003a4	01745db3	srl	x27,x8,x23	  x8:0x00009f84 x23:0xfffffb70 x27=0x00000000
        4225000	       421	800003a8	44f51297	auipc	x5,0x44f51	  x5=0xc4f513a4
        4235000	       422	800003ac	982a4e93	xori	x29,x20,-1662	 x20:0xffffffff x29=0x0000067d
        4245000	       423	800003b0	01e9f733	and	x14,x19,x30	 x19:0xfffffff9 x30:0x80009fd3 x14=0x80009fd1
        4255000	       424	800003b4	014f1bb3	sll	x23,x30,x20	 x30:0x80009fd3 x20:0xffffffff x23=0x80000000
        4265000	       425	800003b8	00f666b3	or	x13,x12,x15	 x12:0x001cadbe x15:0x00000013 x13=0x001cadbf
        4275000	       426	800003bc	0047cc33	xor	x24,x15,x4	 x15:0x00000013  x4:0xfffff863 x24=0xfffff870
        4285000	       427	800003c0	b4c63713	sltiu	x14,x12,-1204	 x12:0x001cadbe x14=0x00000001
        4295000	       428	800003c4	a847a213	slti	x4,x15,-1404	 x15:0x00000013  x4=0x00000000
        4305000	       429	800003c8	009a3eb3	sltu	x29,x20,x9	 x20:0xffffffff  x9:0x80009f84 x29=0x00000000
        4315000	       430	800003cc	22b34993	xori	x19,x6,555	  x6:0x80009fc4 x19=0x80009def
        4325000	       431	800003d0	00b50433	add	x8,x10,x11	 x10:0x80000000 x11:0x00000011  x8=0x80000011
        4335000	       432	800003d4	00a00393	addi	x7,x0,10	  x0:0x00000000  x7=0x0000000a
        4345000	       433	800003d8	0056f8b3	and	x17,x13,x5	 x13:0x001cadbf  x5:0xc4f513a4 x17=0x001401a4
        4355000	       434	800003dc	400951b3	sra	x3,x18,x0	 x18:0x9971c1ec  x0:0x00000000  x3=0x9971c1ec
        4365000	       435	800003e0	003adf13	srli	x30,x21,0x3	 x21:0x00000000 x30=0x00000000
        4375000	       436	800003e4	0142c6b3	xor	x13,x5,x20	  x5:0xc4f513a4 x20:0xffffffff x13=0x3b0aec5b
        4385000	       437	800003e8	00a19d93	slli	x27,x3,0xa	  x3:0x9971c1ec x27=0xc707b000
        4395000	       438	800003ec	e8876113	ori	x2,x14,-376	 x14:0x00000001  x2=0xfffffe89
        4405000	       439	800003f0	40e45db3	sra	x27,x8,x14	  x8:0x80000011 x14:0x00000001 x27=0xc0000008
        4415000	       440	800003f4	01c7b433	sltu	x8,x15,x28	 x15:0x00000013 x28:0xfffffff7  x8=0x00000001
        4425000	       441	800003f8	ffbb0b13	addi	x22,x22,-5	 x22:0x0000000a x22=0x00000005
        4435000	       442	800003fc	4166d633	sra	x12,x13,x22	 x13:0x3b0aec5b x22:0x00000005 x12=0x01d85762
        4445000	       443	80000400	fe7b76e3	bgeu	x22,x7,800003ec	 x22:0x00000005  x7:0x0000000a
        4455000	       444	80000404	14173993	sltiu	x19,x14,321	 x14:0x00000001 x19=0x00000001
        4465000	       445	80000408	00400e13	addi	x28,x0,4	  x0:0x00000000 x28=0x00000004
        4475000	       446	8000040c	01c45c33	srl	x24,x8,x28	  x8:0x00000001 x28:0x00000004 x24=0x00000000
        4485000	       447	80000410	01b1fd33	and	x26,x3,x27	  x3:0x9971c1ec x27:0xc0000008 x26=0x80000008
        4495000	       448	80000414	0193d293	srli	x5,x7,0x19	  x7:0x0000000a  x5=0x00000000
        4505000	       449	80000418	ff800f93	addi	x31,x0,-8	  x0:0x00000000 x31=0xfffffff8
        4515000	       450	8000041c	d3dd6693	ori	x13,x26,-707	 x26:0x80000008 x13=0xfffffd3d
        4525000	       451	80000420	00db7bb3	and	x23,x22,x13	 x22:0x00000005 x13:0xfffffd3d x23=0x00000005
        4535000	       452	80000424	01a11db3	sll	x27,x2,x26	  x2:0xfffffe89 x26:0x80000008 x27=0xfffe8900
        4545000	       453	80000428	ff6e0e13	addi	x28,x28,-10	 x28:0x00000004 x28=0xfffffffa
        4555000	       454	8000042c	00800b13	addi	x22,x0,8	  x0:0x00000000 x22=0x00000008
        4565000	       455	80000430	00946ab3	or	x21,x8,x9	  x8:0x00000001  x9:0x80009f84 x21=0x80009f85
        4575000	       456	80000434	41e4d113	srai	x2,x9,0x1e	  x9:0x80009f84  x2=0xfffffffe
        4585000	       457	80000438	00b00a13	addi	x20,x0,11	  x0:0x00000000 x20=0x0000000b
        4595000	       458	8000043c	017c6bb3	or	x23,x24,x23	 x24:0x00000000 x23:0x00000005 x23=0x00000005
        4605000	       459	80000440	0044b733	sltu	x14,x9,x4	  x9:0x80009f84  x4:0x00000000 x14=0x00000000
        4615000	       460	80000444	ebfa6617	auipc	x12,0xebfa6	 x12=0x6bfa6440
        4625000	       461	80000448	163d0093	addi	x1,x26,355	 x26:0x80000008  x1=0x8000016b
        4635000	       462	8000044c	e7593d13	sltiu	x26,x18,-395	 x18:0x9971c1ec x26=0x00000001
        4645000	       463	80000450	00eada93	srli	x21,x21,0xe	 x21:0x80009f85 x21=0x00020002
        4655000	       464	80000454	003b0b13	addi	x22,x22,3	 x22:0x00000008 x22=0x0000000b
        4665000	       465	80000458	ff4b16e3	bne	x22,x20,80000444	 x22:0x0000000b x20:0x0000000b
        4675000	       466	8000045c	47b3a893	slti	x17,x7,1147	  x7:0x0000000a x17=0x00000001
        4685000	       467	80000460	41f903b3	sub	x7,x18,x31	 x18:0x9971c1ec x31:0xfffffff8  x7=0x9971c1f4
        4695000	       468	80000464	5eff7093	andi	x1,x30,1519	 x30:0x00000000  x1=0x00000000
        4705000	       469	80000468	fbfe5ce3	bge	x28,x31,80000420	 x28:0xfffffffa x31:0xfffffff8
        4715000	       470	00000000	00000013	addi	x0,x0,0	  x0:0x00000000
        4725000	       471	8000041c	00000013	addi	x0,x0,0	  x0:0x00000000
        4735000	       472	80000420	00db7bb3	and	x23,x22,x13	 x22:0x0000000b x13:0xfffffd3d x23=0x00000009
        4745000	       473	80000424	01a11db3	sll	x27,x2,x26	  x2:0xfffffffe x26:0x00000001 x27=0xfffffffc
        4755000	       474	80000428	ff6e0e13	addi	x28,x28,-10	 x28:0xfffffffa x28=0xfffffff0
        4765000	       475	8000042c	00800b13	addi	x22,x0,8	  x0:0x00000000 x22=0x00000008
        4775000	       476	80000430	00946ab3	or	x21,x8,x9	  x8:0x00000001  x9:0x80009f84 x21=0x80009f85
        4785000	       477	80000434	41e4d113	srai	x2,x9,0x1e	  x9:0x80009f84  x2=0xfffffffe
        4795000	       478	80000438	00b00a13	addi	x20,x0,11	  x0:0x00000000 x20=0x0000000b
        4805000	       479	8000043c	017c6bb3	or	x23,x24,x23	 x24:0x00000000 x23:0x00000009 x23=0x00000009
        4815000	       480	80000440	0044b733	sltu	x14,x9,x4	  x9:0x80009f84  x4:0x00000000 x14=0x00000000
        4825000	       481	80000444	ebfa6617	auipc	x12,0xebfa6	 x12=0x6bfa6440
        4835000	       482	80000448	163d0093	addi	x1,x26,355	 x26:0x00000001  x1=0x00000164
        4845000	       483	8000044c	e7593d13	sltiu	x26,x18,-395	 x18:0x9971c1ec x26=0x00000001
        4855000	       484	80000450	00eada93	srli	x21,x21,0xe	 x21:0x80009f85 x21=0x00020002
        4865000	       485	80000454	003b0b13	addi	x22,x22,3	 x22:0x00000008 x22=0x0000000b
        4875000	       486	80000458	ff4b16e3	bne	x22,x20,80000444	 x22:0x0000000b x20:0x0000000b
        4885000	       487	8000045c	47b3a893	slti	x17,x7,1147	  x7:0x9971c1f4 x17=0x00000001
        4895000	       488	80000460	41f903b3	sub	x7,x18,x31	 x18:0x9971c1ec x31:0xfffffff8  x7=0x9971c1f4
        4905000	       489	80000464	5eff7093	andi	x1,x30,1519	 x30:0x00000000  x1=0x00000000
        4915000	       490	80000468	fbfe5ce3	bge	x28,x31,80000420	 x28:0xfffffff0 x31:0xfffffff8
        4925000	       491	8000046c	42c1eb93	ori	x23,x3,1068	  x3:0x9971c1ec x23=0x9971c5ec
        4935000	       492	80000470	00700793	addi	x15,x0,7	  x0:0x00000000 x15=0x00000007
        4945000	       493	80000474	008d8833	add	x16,x27,x8	 x27:0xfffffffc  x8:0x00000001 x16=0xfffffffd
        4955000	       494	80000478	dbe0d017	auipc	x0,0xdbe0d	
        4965000	       495	8000047c	00400093	addi	x1,x0,4	  x0:0x00000000  x1=0x00000004
        4975000	       496	80000480	1b139d17	auipc	x26,0x1b139	 x26=0x9b13947c
        4985000	       497	80000484	01296033	or	x0,x18,x18	 x18:0x9971c1ec x18:0x9971c1ec
        4995000	       498	80000488	ffd78793	addi	x15,x15,-3	 x15:0x00000007 x15=0x00000004
        5005000	       499	8000048c	00600d93	addi	x27,x0,6	  x0:0x00000000 x27=0x00000006
        5015000	       500	80000490	00400893	addi	x17,x0,4	  x0:0x00000000 x17=0x00000004
        5025000	       501	80000494	00fb2bb3	slt	x23,x22,x15	 x22:0x0000000b x15:0x00000004 x23=0x00000000
        5035000	       502	80000498	01af4433	xor	x8,x30,x26	 x30:0x00000000 x26:0x9b13947c  x8=0x9b13947c
        5045000	       503	8000049c	ffdd8d93	addi	x27,x27,-3	 x27:0x00000006 x27=0x00000003
        5055000	       504	800004a0	ff1dfae3	bgeu	x27,x17,80000494	 x27:0x00000003 x17:0x00000004
        5065000	       505	800004a4	fc17fee3	bgeu	x15,x1,80000480	 x15:0x00000004  x1:0x00000004
        5075000	       506	00000000	00000013	addi	x0,x0,0	  x0:0x00000000
        5085000	       507	8000047c	00000013	addi	x0,x0,0	  x0:0x00000000
        5095000	       508	80000480	1b139d17	auipc	x26,0x1b139	 x26=0x9b13947c
        5105000	       509	80000484	01296033	or	x0,x18,x18	 x18:0x9971c1ec x18:0x9971c1ec
        5115000	       510	80000488	ffd78793	addi	x15,x15,-3	 x15:0x00000004 x15=0x00000001
        5125000	       511	8000048c	00600d93	addi	x27,x0,6	  x0:0x00000000 x27=0x00000006
        5135000	       512	80000490	00400893	addi	x17,x0,4	  x0:0x00000000 x17=0x00000004
        5145000	       513	80000494	00fb2bb3	slt	x23,x22,x15	 x22:0x0000000b x15:0x00000001 x23=0x00000000
        5155000	       514	80000498	01af4433	xor	x8,x30,x26	 x30:0x00000000 x26:0x9b13947c  x8=0x9b13947c
        5165000	       515	8000049c	ffdd8d93	addi	x27,x27,-3	 x27:0x00000006 x27=0x00000003
        5175000	       516	800004a0	ff1dfae3	bgeu	x27,x17,80000494	 x27:0x00000003 x17:0x00000004
        5185000	       517	800004a4	fc17fee3	bgeu	x15,x1,80000480	 x15:0x00000001  x1:0x00000004
        5195000	       518	800004a8	00455c13	srli	x24,x10,0x4	 x10:0x80000000 x24=0x08000000
        5205000	       519	800004ac	00000813	addi	x16,x0,0	  x0:0x00000000 x16=0x00000000
        5215000	       520	800004b0	01d66db3	or	x27,x12,x29	 x12:0x6bfa6440 x29:0x00000000 x27=0x6bfa6440
        5225000	       521	800004b4	0175df33	srl	x30,x11,x23	 x11:0x00000011 x23:0x00000000 x30=0x00000011
        5235000	       522	800004b8	30bbae13	slti	x28,x23,779	 x23:0x00000000 x28=0x00000001
        5245000	       523	800004bc	000ae2b3	or	x5,x21,x0	 x21:0x00020002  x0:0x00000000  x5=0x00020002
        5255000	       524	800004c0	ffb00793	addi	x15,x0,-5	  x0:0x00000000 x15=0xfffffffb
        5265000	       525	800004c4	00b82e33	slt	x28,x16,x11	 x16:0x00000000 x11:0x00000011 x28=0x00000001
        5275000	       526	800004c8	ffc80813	addi	x16,x16,-4	 x16:0x00000000 x16=0xfffffffc
        5285000	       527	800004cc	014f9733	sll	x14,x31,x20	 x31:0xfffffff8 x20:0x0000000b x14=0xffffc000
        5295000	       528	800004d0	00691f93	slli	x31,x18,0x6	 x18:0x9971c1ec x31=0x5c707b00
        5305000	       529	800004d4	40ba82b3	sub	x5,x21,x11	 x21:0x00020002 x11:0x00000011  x5=0x0001fff1
        5315000	       530	800004d8	00121093	slli	x1,x4,0x1	  x4:0x00000000  x1=0x00000000
        5325000	       531	800004dc	00100a13	addi	x20,x0,1	  x0:0x00000000 x20=0x00000001
        5335000	       532	800004e0	0126d433	srl	x8,x13,x18	 x13:0xfffffd3d x18:0x9971c1ec  x8=0x000fffff
        5345000	       533	800004e4	cb2cc397	auipc	x7,0xcb2cc	  x7=0x4b2cc4e0
        5355000	       534	800004e8	00900613	addi	x12,x0,9	  x0:0x00000000 x12=0x00000009
        5365000	       535	800004ec	40e7d993	srai	x19,x15,0xe	 x15:0xfffffffb x19=0xffffffff
        5375000	       536	800004f0	666938b7	lui	x17,0x66693	 x17=0x66693000
        5385000	       537	800004f4	00000013	addi	x0,x0,0	  x0:0x00000000
        5395000	       538	800004f8	00189013	slli	x0,x17,0x1	 x17:0x66693000
        5405000	       539	800004fc	008a0a13	addi	x20,x20,8	 x20:0x00000001 x20=0x00000009
        5415000	       540	80000500	403552b3	sra	x5,x10,x3	 x10:0x80000000  x3:0x9971c1ec  x5=0xfff80000
        5425000	       541	80000504	00000013	addi	x0,x0,0	  x0:0x00000000
        5435000	       542	80000508	001ad693	srli	x13,x21,0x1	 x21:0x00020002 x13=0x00010001
        5445000	       543	8000050c	ba178d13	addi	x26,x15,-1119	 x15:0xfffffffb x26=0xfffffb9c
        5455000	       544	80000510	6bfa2293	slti	x5,x20,1727	 x20:0x00000009  x5=0x00000001
        5465000	       545	80000514	fcca0ee3	beq	x20,x12,800004f0	 x20:0x00000009 x12:0x00000009
        5475000	       546	00000000	00000013	addi	x0,x0,0	  x0:0x00000000
        5485000	       547	800004ec	00000013	addi	x0,x0,0	  x0:0x00000000
        5495000	       548	800004f0	666938b7	lui	x17,0x66693	 x17=0x66693000
        5505000	       549	800004f4	00000013	addi	x0,x0,0	  x0:0x00000000
        5515000	       550	800004f8	00189013	slli	x0,x17,0x1	 x17:0x66693000
        5525000	       551	800004fc	008a0a13	addi	x20,x20,8	 x20:0x00000009 x20=0x00000011
        5535000	       552	80000500	403552b3	sra	x5,x10,x3	 x10:0x80000000  x3:0x9971c1ec  x5=0xfff80000
        5545000	       553	80000504	00000013	addi	x0,x0,0	  x0:0x00000000
        5555000	       554	80000508	001ad693	srli	x13,x21,0x1	 x21:0x00020002 x13=0x00010001
        5565000	       555	8000050c	ba178d13	addi	x26,x15,-1119	 x15:0xfffffffb x26=0xfffffb9c
        5575000	       556	80000510	6bfa2293	slti	x5,x20,1727	 x20:0x00000011  x5=0x00000001
        5585000	       557	80000514	fcca0ee3	beq	x20,x12,800004f0	 x20:0x00000011 x12:0x00000009
        5595000	       558	80000518	002c9d13	slli	x26,x25,0x2	 x25:0xffff2000 x26=0xfffc8000
        5605000	       559	8000051c	1b2d3c37	lui	x24,0x1b2d3	 x24=0x1b2d3000
        5615000	       560	80000520	b4b1c713	xori	x14,x3,-1205	  x3:0x9971c1ec x14=0x668e3aa7
        5625000	       561	80000524	01f89693	slli	x13,x17,0x1f	 x17:0x66693000 x13=0x00000000
        5635000	       562	80000528	00c31893	slli	x17,x6,0xc	  x6:0x80009fc4 x17=0x09fc4000
        5645000	       563	8000052c	f8f85ce3	bge	x16,x15,800004c4	 x16:0xfffffffc x15:0xfffffffb
        5655000	       564	00000000	00000013	addi	x0,x0,0	  x0:0x00000000
        5665000	       565	800004c0	00000013	addi	x0,x0,0	  x0:0x00000000
        5675000	       566	800004c4	00b82e33	slt	x28,x16,x11	 x16:0xfffffffc x11:0x00000011 x28=0x00000001
        5685000	       567	800004c8	ffc80813	addi	x16,x16,-4	 x16:0xfffffffc x16=0xfffffff8
        5695000	       568	800004cc	014f9733	sll	x14,x31,x20	 x31:0x5c707b00 x20:0x00000011 x14=0xf6000000
        5705000	       569	800004d0	00691f93	slli	x31,x18,0x6	 x18:0x9971c1ec x31=0x5c707b00
        5715000	       570	800004d4	40ba82b3	sub	x5,x21,x11	 x21:0x00020002 x11:0x00000011  x5=0x0001fff1
        5725000	       571	800004d8	00121093	slli	x1,x4,0x1	  x4:0x00000000  x1=0x00000000
        5735000	       572	800004dc	00100a13	addi	x20,x0,1	  x0:0x00000000 x20=0x00000001
        5745000	       573	800004e0	0126d433	srl	x8,x13,x18	 x13:0x00000000 x18:0x9971c1ec  x8=0x00000000
        5755000	       574	800004e4	cb2cc397	auipc	x7,0xcb2cc	  x7=0x4b2cc4e0
        5765000	       575	800004e8	00900613	addi	x12,x0,9	  x0:0x00000000 x12=0x00000009
        5775000	       576	800004ec	40e7d993	srai	x19,x15,0xe	 x15:0xfffffffb x19=0xffffffff
        5785000	       577	800004f0	666938b7	lui	x17,0x66693	 x17=0x66693000
        5795000	       578	800004f4	00000013	addi	x0,x0,0	  x0:0x00000000
        5805000	       579	800004f8	00189013	slli	x0,x17,0x1	 x17:0x66693000
        5815000	       580	800004fc	008a0a13	addi	x20,x20,8	 x20:0x00000001 x20=0x00000009
        5825000	       581	80000500	403552b3	sra	x5,x10,x3	 x10:0x80000000  x3:0x9971c1ec  x5=0xfff80000
        5835000	       582	80000504	00000013	addi	x0,x0,0	  x0:0x00000000
        5845000	       583	80000508	001ad693	srli	x13,x21,0x1	 x21:0x00020002 x13=0x00010001
        5855000	       584	8000050c	ba178d13	addi	x26,x15,-1119	 x15:0xfffffffb x26=0xfffffb9c
        5865000	       585	80000510	6bfa2293	slti	x5,x20,1727	 x20:0x00000009  x5=0x00000001
        5875000	       586	80000514	fcca0ee3	beq	x20,x12,800004f0	 x20:0x00000009 x12:0x00000009
        5885000	       587	00000000	00000013	addi	x0,x0,0	  x0:0x00000000
        5895000	       588	800004ec	00000013	addi	x0,x0,0	  x0:0x00000000
        5905000	       589	800004f0	666938b7	lui	x17,0x66693	 x17=0x66693000
        5915000	       590	800004f4	00000013	addi	x0,x0,0	  x0:0x00000000
        5925000	       591	800004f8	00189013	slli	x0,x17,0x1	 x17:0x66693000
        5935000	       592	800004fc	008a0a13	addi	x20,x20,8	 x20:0x00000009 x20=0x00000011
        5945000	       593	80000500	403552b3	sra	x5,x10,x3	 x10:0x80000000  x3:0x9971c1ec  x5=0xfff80000
        5955000	       594	80000504	00000013	addi	x0,x0,0	  x0:0x00000000
        5965000	       595	80000508	001ad693	srli	x13,x21,0x1	 x21:0x00020002 x13=0x00010001
        5975000	       596	8000050c	ba178d13	addi	x26,x15,-1119	 x15:0xfffffffb x26=0xfffffb9c
        5985000	       597	80000510	6bfa2293	slti	x5,x20,1727	 x20:0x00000011  x5=0x00000001
        5995000	       598	80000514	fcca0ee3	beq	x20,x12,800004f0	 x20:0x00000011 x12:0x00000009
        6005000	       599	80000518	002c9d13	slli	x26,x25,0x2	 x25:0xffff2000 x26=0xfffc8000
        6015000	       600	8000051c	1b2d3c37	lui	x24,0x1b2d3	 x24=0x1b2d3000
        6025000	       601	80000520	b4b1c713	xori	x14,x3,-1205	  x3:0x9971c1ec x14=0x668e3aa7
        6035000	       602	80000524	01f89693	slli	x13,x17,0x1f	 x17:0x66693000 x13=0x00000000
        6045000	       603	80000528	00c31893	slli	x17,x6,0xc	  x6:0x80009fc4 x17=0x09fc4000
        6055000	       604	8000052c	f8f85ce3	bge	x16,x15,800004c4	 x16:0xfffffff8 x15:0xfffffffb
        6065000	       605	80000530	019a9993	slli	x19,x21,0x19	 x21:0x00020002 x19=0x04000000
        6075000	       606	80000534	fff00a93	addi	x21,x0,-1	  x0:0x00000000 x21=0xffffffff
        6085000	       607	80000538	c9d4fd93	andi	x27,x9,-867	  x9:0x80009f84 x27=0x80009c84
        6095000	       608	8000053c	00500213	addi	x4,x0,5	  x0:0x00000000  x4=0x00000005
        6105000	       609	80000540	8ac43797	auipc	x15,0x8ac43	 x15=0x0ac4353c
        6115000	       610	80000544	00000013	addi	x0,x0,0	  x0:0x00000000
        6125000	       611	80000548	006a8a93	addi	x21,x21,6	 x21:0xffffffff x21=0x00000005
        6135000	       612	8000054c	013ff9b3	and	x19,x31,x19	 x31:0x5c707b00 x19:0x04000000 x19=0x04000000
        6145000	       613	80000550	00500293	addi	x5,x0,5	  x0:0x00000000  x5=0x00000005
        6155000	       614	80000554	11850f13	addi	x30,x10,280	 x10:0x80000000 x30=0x80000118
        6165000	       615	80000558	413ddf13	srai	x30,x27,0x13	 x27:0x80009c84 x30=0xfffff000
        6175000	       616	8000055c	ffc00593	addi	x11,x0,-4	  x0:0x00000000 x11=0xfffffffc
        6185000	       617	80000560	76f9b817	auipc	x16,0x76f9b	 x16=0xf6f9b55c
        6195000	       618	80000564	00dc57b3	srl	x15,x24,x13	 x24:0x1b2d3000 x13:0x00000000 x15=0x1b2d3000
        6205000	       619	80000568	ff928293	addi	x5,x5,-7	  x5:0x00000005  x5=0xfffffffe
        6215000	       620	8000056c	feb2dae3	bge	x5,x11,80000560	  x5:0xfffffffe x11:0xfffffffc
        6225000	       621	00000000	00000013	addi	x0,x0,0	  x0:0x00000000
        6235000	       622	8000055c	00000013	addi	x0,x0,0	  x0:0x00000000
        6245000	       623	80000560	76f9b817	auipc	x16,0x76f9b	 x16=0xf6f9b55c
        6255000	       624	80000564	00dc57b3	srl	x15,x24,x13	 x24:0x1b2d3000 x13:0x00000000 x15=0x1b2d3000
        6265000	       625	80000568	ff928293	addi	x5,x5,-7	  x5:0xfffffffe  x5=0xfffffff7
        6275000	       626	8000056c	feb2dae3	bge	x5,x11,80000560	  x5:0xfffffff7 x11:0xfffffffc
        6285000	       627	80000570	00b70133	add	x2,x14,x11	 x14:0x668e3aa7 x11:0xfffffffc  x2=0x668e3aa3
        6295000	       628	80000574	fc4a98e3	bne	x21,x4,80000544	 x21:0x00000005  x4:0x00000005
        6305000	       629	80000578	4130da33	sra	x20,x1,x19	  x1:0x00000000 x19:0x04000000 x20=0x00000000
        6315000	       630	8000057c	00100c13	addi	x24,x0,1	  x0:0x00000000 x24=0x00000001
        6325000	       631	80000580	00718cb3	add	x25,x3,x7	  x3:0x9971c1ec  x7:0x4b2cc4e0 x25=0xe49e86cc
        6335000	       632	80000584	f0a46793	ori	x15,x8,-246	  x8:0x00000000 x15=0xffffff0a
        6345000	       633	80000588	015dc5b3	xor	x11,x27,x21	 x27:0x80009c84 x21:0x00000005 x11=0x80009c81
        6355000	       634	8000058c	40ee5393	srai	x7,x28,0xe	 x28:0x00000001  x7=0x00000000
        6365000	       635	80000590	00a84733	xor	x14,x16,x10	 x16:0xf6f9b55c x10:0x80000000 x14=0x76f9b55c
        6375000	       636	80000594	40a6d693	srai	x13,x13,0xa	 x13:0x00000000 x13=0x00000000
        6385000	       637	80000598	01691f13	slli	x30,x18,0x16	 x18:0x9971c1ec x30=0x7b000000
        6395000	       638	8000059c	01300a13	addi	x20,x0,19	  x0:0x00000000 x20=0x00000013
        6405000	       639	800005a0	008c9d33	sll	x26,x25,x8	 x25:0xe49e86cc  x8:0x00000000 x26=0xe49e86cc
        6415000	       640	800005a4	0177beb3	sltu	x29,x15,x23	 x15:0xffffff0a x23:0x00000000 x29=0x00000000
        6425000	       641	800005a8	a59c2b93	slti	x23,x24,-1447	 x24:0x00000001 x23=0x00000000
        6435000	       642	800005ac	0164ee33	or	x28,x9,x22	  x9:0x80009f84 x22:0x0000000b x28=0x80009f8f
        6445000	       643	800005b0	00000013	addi	x0,x0,0	  x0:0x00000000
        6455000	       644	800005b4	412508b3	sub	x17,x10,x18	 x10:0x80000000 x18:0x9971c1ec x17=0xe68e3e14
        6465000	       645	800005b8	003f3633	sltu	x12,x30,x3	 x30:0x7b000000  x3:0x9971c1ec x12=0x00000001
        6475000	       646	800005bc	009c0c13	addi	x24,x24,9	 x24:0x00000001 x24=0x0000000a
        6485000	       647	800005c0	a86fe613	ori	x12,x31,-1402	 x31:0x5c707b00 x12=0xfffffb86
        6495000	       648	800005c4	5e1cb213	sltiu	x4,x25,1505	 x25:0xe49e86cc  x4=0x00000000
        6505000	       649	800005c8	41548db3	sub	x27,x9,x21	  x9:0x80009f84 x21:0x00000005 x27=0x80009f7f
        6515000	       650	800005cc	01ab5e33	srl	x28,x22,x26	 x22:0x0000000b x26:0xe49e86cc x28=0x00000000
        6525000	       651	800005d0	ff4c10e3	bne	x24,x20,800005b0	 x24:0x0000000a x20:0x00000013
        6535000	       652	00000000	00000013	addi	x0,x0,0	  x0:0x00000000
        6545000	       653	800005ac	00000013	addi	x0,x0,0	  x0:0x00000000
        6555000	       654	800005b0	00000013	addi	x0,x0,0	  x0:0x00000000
        6565000	       655	800005b4	412508b3	sub	x17,x10,x18	 x10:0x80000000 x18:0x9971c1ec x17=0xe68e3e14
        6575000	       656	800005b8	003f3633	sltu	x12,x30,x3	 x30:0x7b000000  x3:0x9971c1ec x12=0x00000001
        6585000	       657	800005bc	009c0c13	addi	x24,x24,9	 x24:0x0000000a x24=0x00000013
        6595000	       658	800005c0	a86fe613	ori	x12,x31,-1402	 x31:0x5c707b00 x12=0xfffffb86
        6605000	       659	800005c4	5e1cb213	sltiu	x4,x25,1505	 x25:0xe49e86cc  x4=0x00000000
        6615000	       660	800005c8	41548db3	sub	x27,x9,x21	  x9:0x80009f84 x21:0x00000005 x27=0x80009f7f
        6625000	       661	800005cc	01ab5e33	srl	x28,x22,x26	 x22:0x0000000b x26:0xe49e86cc x28=0x00000000
        6635000	       662	800005d0	ff4c10e3	bne	x24,x20,800005b0	 x24:0x00000013 x20:0x00000013
        6645000	       663	800005d4	415b5933	sra	x18,x22,x21	 x22:0x0000000b x21:0x00000005 x18=0x00000000
        6655000	       664	800005d8	00400293	addi	x5,x0,4	  x0:0x00000000  x5=0x00000004
        6665000	       665	800005dc	fee00c13	addi	x24,x0,-18	  x0:0x00000000 x24=0xffffffee
        6675000	       666	800005e0	d9b43613	sltiu	x12,x8,-613	  x8:0x00000000 x12=0x00000001
        6685000	       667	800005e4	9fc6f813	andi	x16,x13,-1540	 x13:0x00000000 x16=0x00000000
        6695000	       668	800005e8	01caffb3	and	x31,x21,x28	 x21:0x00000005 x28:0x00000000 x31=0x00000000
        6705000	       669	800005ec	00a69733	sll	x14,x13,x10	 x13:0x00000000 x10:0x80000000 x14=0x00000000
        6715000	       670	800005f0	010c1e33	sll	x28,x24,x16	 x24:0xffffffee x16:0x00000000 x28=0xffffffee
        6725000	       671	800005f4	cc857793	andi	x15,x10,-824	 x10:0x80000000 x15=0x80000000
        6735000	       672	800005f8	ffb28293	addi	x5,x5,-5	  x5:0x00000004  x5=0xffffffff
        6745000	       673	800005fc	aaaa73b7	lui	x7,0xaaaa7	  x7=0xaaaa7000
        6755000	       674	80000600	00bffbb3	and	x23,x31,x11	 x31:0x00000000 x11:0x80009c81 x23=0x00000000
        6765000	       675	80000604	00d048b3	xor	x17,x0,x13	  x0:0x00000000 x13:0x00000000 x17=0x00000000
        6775000	       676	80000608	00900e93	addi	x29,x0,9	  x0:0x00000000 x29=0x00000009
        6785000	       677	8000060c	00d00593	addi	x11,x0,13	  x0:0x00000000 x11=0x0000000d
        6795000	       678	80000610	5a782a13	slti	x20,x16,1447	 x16:0x00000000 x20=0x00000001
        6805000	       679	80000614	016a6633	or	x12,x20,x22	 x20:0x00000001 x22:0x0000000b x12=0x0000000b
        6815000	       680	80000618	479ca813	slti	x16,x25,1145	 x25:0xe49e86cc x16=0x00000001
        6825000	       681	8000061c	00e29f93	slli	x31,x5,0xe	  x5:0xffffffff x31=0xffffc000
        6835000	       682	80000620	005e8e93	addi	x29,x29,5	 x29:0x00000009 x29=0x0000000e
        6845000	       683	80000624	012fbe33	sltu	x28,x31,x18	 x31:0xffffc000 x18:0x00000000 x28=0x00000000
        6855000	       684	80000628	febee4e3	bltu	x29,x11,80000610	 x29:0x0000000e x11:0x0000000d
        6865000	       685	8000062c	fb82dce3	bge	x5,x24,800005e4	  x5:0xffffffff x24:0xffffffee
        6875000	       686	00000000	00000013	addi	x0,x0,0	  x0:0x00000000
        6885000	       687	800005e0	00000013	addi	x0,x0,0	  x0:0x00000000
        6895000	       688	800005e4	9fc6f813	andi	x16,x13,-1540	 x13:0x00000000 x16=0x00000000
        6905000	       689	800005e8	01caffb3	and	x31,x21,x28	 x21:0x00000005 x28:0x00000000 x31=0x00000000
        6915000	       690	800005ec	00a69733	sll	x14,x13,x10	 x13:0x00000000 x10:0x80000000 x14=0x00000000
        6925000	       691	800005f0	010c1e33	sll	x28,x24,x16	 x24:0xffffffee x16:0x00000000 x28=0xffffffee
        6935000	       692	800005f4	cc857793	andi	x15,x10,-824	 x10:0x80000000 x15=0x80000000
        6945000	       693	800005f8	ffb28293	addi	x5,x5,-5	  x5:0xffffffff  x5=0xfffffffa
        6955000	       694	800005fc	aaaa73b7	lui	x7,0xaaaa7	  x7=0xaaaa7000
        6965000	       695	80000600	00bffbb3	and	x23,x31,x11	 x31:0x00000000 x11:0x0000000d x23=0x00000000
        6975000	       696	80000604	00d048b3	xor	x17,x0,x13	  x0:0x00000000 x13:0x00000000 x17=0x00000000
        6985000	       697	80000608	00900e93	addi	x29,x0,9	  x0:0x00000000 x29=0x00000009
        6995000	       698	8000060c	00d00593	addi	x11,x0,13	  x0:0x00000000 x11=0x0000000d
        7005000	       699	80000610	5a782a13	slti	x20,x16,1447	 x16:0x00000000 x20=0x00000001
        7015000	       700	80000614	016a6633	or	x12,x20,x22	 x20:0x00000001 x22:0x0000000b x12=0x0000000b
        7025000	       701	80000618	479ca813	slti	x16,x25,1145	 x25:0xe49e86cc x16=0x00000001
        7035000	       702	8000061c	00e29f93	slli	x31,x5,0xe	  x5:0xfffffffa x31=0xfffe8000
        7045000	       703	80000620	005e8e93	addi	x29,x29,5	 x29:0x00000009 x29=0x0000000e
        7055000	       704	80000624	012fbe33	sltu	x28,x31,x18	 x31:0xfffe8000 x18:0x00000000 x28=0x00000000
        7065000	       705	80000628	febee4e3	bltu	x29,x11,80000610	 x29:0x0000000e x11:0x0000000d
        7075000	       706	8000062c	fb82dce3	bge	x5,x24,800005e4	  x5:0xfffffffa x24:0xffffffee
        7085000	       707	00000000	00000013	addi	x0,x0,0	  x0:0x00000000
        7095000	       708	800005e0	00000013	addi	x0,x0,0	  x0:0x00000000
        7105000	       709	800005e4	9fc6f813	andi	x16,x13,-1540	 x13:0x00000000 x16=0x00000000
        7115000	       710	800005e8	01caffb3	and	x31,x21,x28	 x21:0x00000005 x28:0x00000000 x31=0x00000000
        7125000	       711	800005ec	00a69733	sll	x14,x13,x10	 x13:0x00000000 x10:0x80000000 x14=0x00000000
        7135000	       712	800005f0	010c1e33	sll	x28,x24,x16	 x24:0xffffffee x16:0x00000000 x28=0xffffffee
        7145000	       713	800005f4	cc857793	andi	x15,x10,-824	 x10:0x80000000 x15=0x80000000
        7155000	       714	800005f8	ffb28293	addi	x5,x5,-5	  x5:0xfffffffa  x5=0xfffffff5
        7165000	       715	800005fc	aaaa73b7	lui	x7,0xaaaa7	  x7=0xaaaa7000
        7175000	       716	80000600	00bffbb3	and	x23,x31,x11	 x31:0x00000000 x11:0x0000000d x23=0x00000000
        7185000	       717	80000604	00d048b3	xor	x17,x0,x13	  x0:0x00000000 x13:0x00000000 x17=0x00000000
        7195000	       718	80000608	00900e93	addi	x29,x0,9	  x0:0x00000000 x29=0x00000009
        7205000	       719	8000060c	00d00593	addi	x11,x0,13	  x0:0x00000000 x11=0x0000000d
        7215000	       720	80000610	5a782a13	slti	x20,x16,1447	 x16:0x00000000 x20=0x00000001
        7225000	       721	80000614	016a6633	or	x12,x20,x22	 x20:0x00000001 x22:0x0000000b x12=0x0000000b
        7235000	       722	80000618	479ca813	slti	x16,x25,1145	 x25:0xe49e86cc x16=0x00000001
        7245000	       723	8000061c	00e29f93	slli	x31,x5,0xe	  x5:0xfffffff5 x31=0xfffd4000
        7255000	       724	80000620	005e8e93	addi	x29,x29,5	 x29:0x00000009 x29=0x0000000e
        7265000	       725	80000624	012fbe33	sltu	x28,x31,x18	 x31:0xfffd4000 x18:0x00000000 x28=0x00000000
        7275000	       726	80000628	febee4e3	bltu	x29,x11,80000610	 x29:0x0000000e x11:0x0000000d
        7285000	       727	8000062c	fb82dce3	bge	x5,x24,800005e4	  x5:0xfffffff5 x24:0xffffffee
        7295000	       728	00000000	00000013	addi	x0,x0,0	  x0:0x00000000
        7305000	       729	800005e0	00000013	addi	x0,x0,0	  x0:0x00000000
        7315000	       730	800005e4	9fc6f813	andi	x16,x13,-1540	 x13:0x00000000 x16=0x00000000
        7325000	       731	800005e8	01caffb3	and	x31,x21,x28	 x21:0x00000005 x28:0x00000000 x31=0x00000000
        7335000	       732	800005ec	00a69733	sll	x14,x13,x10	 x13:0x00000000 x10:0x80000000 x14=0x00000000
        7345000	       733	800005f0	010c1e33	sll	x28,x24,x16	 x24:0xffffffee x16:0x00000000 x28=0xffffffee
        7355000	       734	800005f4	cc857793	andi	x15,x10,-824	 x10:0x80000000 x15=0x80000000
        7365000	       735	800005f8	ffb28293	addi	x5,x5,-5	  x5:0xfffffff5  x5=0xfffffff0
        7375000	       736	800005fc	aaaa73b7	lui	x7,0xaaaa7	  x7=0xaaaa7000
        7385000	       737	80000600	00bffbb3	and	x23,x31,x11	 x31:0x00000000 x11:0x0000000d x23=0x00000000
        7395000	       738	80000604	00d048b3	xor	x17,x0,x13	  x0:0x00000000 x13:0x00000000 x17=0x00000000
        7405000	       739	80000608	00900e93	addi	x29,x0,9	  x0:0x00000000 x29=0x00000009
        7415000	       740	8000060c	00d00593	addi	x11,x0,13	  x0:0x00000000 x11=0x0000000d
        7425000	       741	80000610	5a782a13	slti	x20,x16,1447	 x16:0x00000000 x20=0x00000001
        7435000	       742	80000614	016a6633	or	x12,x20,x22	 x20:0x00000001 x22:0x0000000b x12=0x0000000b
        7445000	       743	80000618	479ca813	slti	x16,x25,1145	 x25:0xe49e86cc x16=0x00000001
        7455000	       744	8000061c	00e29f93	slli	x31,x5,0xe	  x5:0xfffffff0 x31=0xfffc0000
        7465000	       745	80000620	005e8e93	addi	x29,x29,5	 x29:0x00000009 x29=0x0000000e
        7475000	       746	80000624	012fbe33	sltu	x28,x31,x18	 x31:0xfffc0000 x18:0x00000000 x28=0x00000000
        7485000	       747	80000628	febee4e3	bltu	x29,x11,80000610	 x29:0x0000000e x11:0x0000000d
        7495000	       748	8000062c	fb82dce3	bge	x5,x24,800005e4	  x5:0xfffffff0 x24:0xffffffee
        7505000	       749	00000000	00000013	addi	x0,x0,0	  x0:0x00000000
        7515000	       750	800005e0	00000013	addi	x0,x0,0	  x0:0x00000000
        7525000	       751	800005e4	9fc6f813	andi	x16,x13,-1540	 x13:0x00000000 x16=0x00000000
        7535000	       752	800005e8	01caffb3	and	x31,x21,x28	 x21:0x00000005 x28:0x00000000 x31=0x00000000
        7545000	       753	800005ec	00a69733	sll	x14,x13,x10	 x13:0x00000000 x10:0x80000000 x14=0x00000000
        7555000	       754	800005f0	010c1e33	sll	x28,x24,x16	 x24:0xffffffee x16:0x00000000 x28=0xffffffee
        7565000	       755	800005f4	cc857793	andi	x15,x10,-824	 x10:0x80000000 x15=0x80000000
        7575000	       756	800005f8	ffb28293	addi	x5,x5,-5	  x5:0xfffffff0  x5=0xffffffeb
        7585000	       757	800005fc	aaaa73b7	lui	x7,0xaaaa7	  x7=0xaaaa7000
        7595000	       758	80000600	00bffbb3	and	x23,x31,x11	 x31:0x00000000 x11:0x0000000d x23=0x00000000
        7605000	       759	80000604	00d048b3	xor	x17,x0,x13	  x0:0x00000000 x13:0x00000000 x17=0x00000000
        7615000	       760	80000608	00900e93	addi	x29,x0,9	  x0:0x00000000 x29=0x00000009
        7625000	       761	8000060c	00d00593	addi	x11,x0,13	  x0:0x00000000 x11=0x0000000d
        7635000	       762	80000610	5a782a13	slti	x20,x16,1447	 x16:0x00000000 x20=0x00000001
        7645000	       763	80000614	016a6633	or	x12,x20,x22	 x20:0x00000001 x22:0x0000000b x12=0x0000000b
        7655000	       764	80000618	479ca813	slti	x16,x25,1145	 x25:0xe49e86cc x16=0x00000001
        7665000	       765	8000061c	00e29f93	slli	x31,x5,0xe	  x5:0xffffffeb x31=0xfffac000
        7675000	       766	80000620	005e8e93	addi	x29,x29,5	 x29:0x00000009 x29=0x0000000e
        7685000	       767	80000624	012fbe33	sltu	x28,x31,x18	 x31:0xfffac000 x18:0x00000000 x28=0x00000000
        7695000	       768	80000628	febee4e3	bltu	x29,x11,80000610	 x29:0x0000000e x11:0x0000000d
        7705000	       769	8000062c	fb82dce3	bge	x5,x24,800005e4	  x5:0xffffffeb x24:0xffffffee
        7715000	       770	80000630	002fa7b3	slt	x15,x31,x2	 x31:0xfffac000  x2:0x668e3aa3 x15=0x00000001
        7725000	       771	80000634	ffd00d93	addi	x27,x0,-3	  x0:0x00000000 x27=0xfffffffd
        7735000	       772	80000638	01400a93	addi	x21,x0,20	  x0:0x00000000 x21=0x00000014
        7745000	       773	8000063c	40690933	sub	x18,x18,x6	 x18:0x00000000  x6:0x80009fc4 x18=0x7fff603c
        7755000	       774	80000640	4dd38893	addi	x17,x7,1245	  x7:0xaaaa7000 x17=0xaaaa74dd
        7765000	       775	80000644	003d8d93	addi	x27,x27,3	 x27:0xfffffffd x27=0x00000000
        7775000	       776	80000648	00000813	addi	x16,x0,0	  x0:0x00000000 x16=0x00000000
        7785000	       777	8000064c	01400b93	addi	x23,x0,20	  x0:0x00000000 x23=0x00000014
        7795000	       778	80000650	011f2d33	slt	x26,x30,x17	 x30:0x7b000000 x17:0xaaaa74dd x26=0x00000000
        7805000	       779	80000654	41d7da33	sra	x20,x15,x29	 x15:0x00000001 x29:0x0000000e x20=0x00000000
        7815000	       780	80000658	00480813	addi	x16,x16,4	 x16:0x00000000 x16=0x00000004
        7825000	       781	8000065c	ff781ae3	bne	x16,x23,80000650	 x16:0x00000004 x23:0x00000014
        7835000	       782	00000000	00000013	addi	x0,x0,0	  x0:0x00000000
        7845000	       783	8000064c	00000013	addi	x0,x0,0	  x0:0x00000000
        7855000	       784	80000650	011f2d33	slt	x26,x30,x17	 x30:0x7b000000 x17:0xaaaa74dd x26=0x00000000
        7865000	       785	80000654	41d7da33	sra	x20,x15,x29	 x15:0x00000001 x29:0x0000000e x20=0x00000000
        7875000	       786	80000658	00480813	addi	x16,x16,4	 x16:0x00000004 x16=0x00000008
        7885000	       787	8000065c	ff781ae3	bne	x16,x23,80000650	 x16:0x00000008 x23:0x00000014
        7895000	       788	00000000	00000013	addi	x0,x0,0	  x0:0x00000000
        7905000	       789	8000064c	00000013	addi	x0,x0,0	  x0:0x00000000
        7915000	       790	80000650	011f2d33	slt	x26,x30,x17	 x30:0x7b000000 x17:0xaaaa74dd x26=0x00000000
        7925000	       791	80000654	41d7da33	sra	x20,x15,x29	 x15:0x00000001 x29:0x0000000e x20=0x00000000
        7935000	       792	80000658	00480813	addi	x16,x16,4	 x16:0x00000008 x16=0x0000000c
        7945000	       793	8000065c	ff781ae3	bne	x16,x23,80000650	 x16:0x0000000c x23:0x00000014
        7955000	       794	00000000	00000013	addi	x0,x0,0	  x0:0x00000000
        7965000	       795	8000064c	00000013	addi	x0,x0,0	  x0:0x00000000
        7975000	       796	80000650	011f2d33	slt	x26,x30,x17	 x30:0x7b000000 x17:0xaaaa74dd x26=0x00000000
        7985000	       797	80000654	41d7da33	sra	x20,x15,x29	 x15:0x00000001 x29:0x0000000e x20=0x00000000
        7995000	       798	80000658	00480813	addi	x16,x16,4	 x16:0x0000000c x16=0x00000010
        8005000	       799	8000065c	ff781ae3	bne	x16,x23,80000650	 x16:0x00000010 x23:0x00000014
        8015000	       800	00000000	00000013	addi	x0,x0,0	  x0:0x00000000
        8025000	       801	8000064c	00000013	addi	x0,x0,0	  x0:0x00000000
        8035000	       802	80000650	011f2d33	slt	x26,x30,x17	 x30:0x7b000000 x17:0xaaaa74dd x26=0x00000000
        8045000	       803	80000654	41d7da33	sra	x20,x15,x29	 x15:0x00000001 x29:0x0000000e x20=0x00000000
        8055000	       804	80000658	00480813	addi	x16,x16,4	 x16:0x00000010 x16=0x00000014
        8065000	       805	8000065c	ff781ae3	bne	x16,x23,80000650	 x16:0x00000014 x23:0x00000014
        8075000	       806	80000660	ff5de0e3	bltu	x27,x21,80000640	 x27:0x00000000 x21:0x00000014
        8085000	       807	00000000	00000013	addi	x0,x0,0	  x0:0x00000000
        8095000	       808	8000063c	00000013	addi	x0,x0,0	  x0:0x00000000
        8105000	       809	80000640	4dd38893	addi	x17,x7,1245	  x7:0xaaaa7000 x17=0xaaaa74dd
        8115000	       810	80000644	003d8d93	addi	x27,x27,3	 x27:0x00000000 x27=0x00000003
        8125000	       811	80000648	00000813	addi	x16,x0,0	  x0:0x00000000 x16=0x00000000
        8135000	       812	8000064c	01400b93	addi	x23,x0,20	  x0:0x00000000 x23=0x00000014
        8145000	       813	80000650	011f2d33	slt	x26,x30,x17	 x30:0x7b000000 x17:0xaaaa74dd x26=0x00000000
        8155000	       814	80000654	41d7da33	sra	x20,x15,x29	 x15:0x00000001 x29:0x0000000e x20=0x00000000
        8165000	       815	80000658	00480813	addi	x16,x16,4	 x16:0x00000000 x16=0x00000004
        8175000	       816	8000065c	ff781ae3	bne	x16,x23,80000650	 x16:0x00000004 x23:0x00000014
        8185000	       817	00000000	00000013	addi	x0,x0,0	  x0:0x00000000
        8195000	       818	8000064c	00000013	addi	x0,x0,0	  x0:0x00000000
        8205000	       819	80000650	011f2d33	slt	x26,x30,x17	 x30:0x7b000000 x17:0xaaaa74dd x26=0x00000000
        8215000	       820	80000654	41d7da33	sra	x20,x15,x29	 x15:0x00000001 x29:0x0000000e x20=0x00000000
        8225000	       821	80000658	00480813	addi	x16,x16,4	 x16:0x00000004 x16=0x00000008
        8235000	       822	8000065c	ff781ae3	bne	x16,x23,80000650	 x16:0x00000008 x23:0x00000014
        8245000	       823	00000000	00000013	addi	x0,x0,0	  x0:0x00000000
        8255000	       824	8000064c	00000013	addi	x0,x0,0	  x0:0x00000000
        8265000	       825	80000650	011f2d33	slt	x26,x30,x17	 x30:0x7b000000 x17:0xaaaa74dd x26=0x00000000
        8275000	       826	80000654	41d7da33	sra	x20,x15,x29	 x15:0x00000001 x29:0x0000000e x20=0x00000000
        8285000	       827	80000658	00480813	addi	x16,x16,4	 x16:0x00000008 x16=0x0000000c
        8295000	       828	8000065c	ff781ae3	bne	x16,x23,80000650	 x16:0x0000000c x23:0x00000014
        8305000	       829	00000000	00000013	addi	x0,x0,0	  x0:0x00000000
        8315000	       830	8000064c	00000013	addi	x0,x0,0	  x0:0x00000000
        8325000	       831	80000650	011f2d33	slt	x26,x30,x17	 x30:0x7b000000 x17:0xaaaa74dd x26=0x00000000
        8335000	       832	80000654	41d7da33	sra	x20,x15,x29	 x15:0x00000001 x29:0x0000000e x20=0x00000000
        8345000	       833	80000658	00480813	addi	x16,x16,4	 x16:0x0000000c x16=0x00000010
        8355000	       834	8000065c	ff781ae3	bne	x16,x23,80000650	 x16:0x00000010 x23:0x00000014
        8365000	       835	00000000	00000013	addi	x0,x0,0	  x0:0x00000000
        8375000	       836	8000064c	00000013	addi	x0,x0,0	  x0:0x00000000
        8385000	       837	80000650	011f2d33	slt	x26,x30,x17	 x30:0x7b000000 x17:0xaaaa74dd x26=0x00000000
        8395000	       838	80000654	41d7da33	sra	x20,x15,x29	 x15:0x00000001 x29:0x0000000e x20=0x00000000
        8405000	       839	80000658	00480813	addi	x16,x16,4	 x16:0x00000010 x16=0x00000014
        8415000	       840	8000065c	ff781ae3	bne	x16,x23,80000650	 x16:0x00000014 x23:0x00000014
        8425000	       841	80000660	ff5de0e3	bltu	x27,x21,80000640	 x27:0x00000003 x21:0x00000014
        8435000	       842	00000000	00000013	addi	x0,x0,0	  x0:0x00000000
        8445000	       843	8000063c	00000013	addi	x0,x0,0	  x0:0x00000000
        8455000	       844	80000640	4dd38893	addi	x17,x7,1245	  x7:0xaaaa7000 x17=0xaaaa74dd
        8465000	       845	80000644	003d8d93	addi	x27,x27,3	 x27:0x00000003 x27=0x00000006
        8475000	       846	80000648	00000813	addi	x16,x0,0	  x0:0x00000000 x16=0x00000000
        8485000	       847	8000064c	01400b93	addi	x23,x0,20	  x0:0x00000000 x23=0x00000014
        8495000	       848	80000650	011f2d33	slt	x26,x30,x17	 x30:0x7b000000 x17:0xaaaa74dd x26=0x00000000
        8505000	       849	80000654	41d7da33	sra	x20,x15,x29	 x15:0x00000001 x29:0x0000000e x20=0x00000000
        8515000	       850	80000658	00480813	addi	x16,x16,4	 x16:0x00000000 x16=0x00000004
        8525000	       851	8000065c	ff781ae3	bne	x16,x23,80000650	 x16:0x00000004 x23:0x00000014
        8535000	       852	00000000	00000013	addi	x0,x0,0	  x0:0x00000000
        8545000	       853	8000064c	00000013	addi	x0,x0,0	  x0:0x00000000
        8555000	       854	80000650	011f2d33	slt	x26,x30,x17	 x30:0x7b000000 x17:0xaaaa74dd x26=0x00000000
        8565000	       855	80000654	41d7da33	sra	x20,x15,x29	 x15:0x00000001 x29:0x0000000e x20=0x00000000
        8575000	       856	80000658	00480813	addi	x16,x16,4	 x16:0x00000004 x16=0x00000008
        8585000	       857	8000065c	ff781ae3	bne	x16,x23,80000650	 x16:0x00000008 x23:0x00000014
        8595000	       858	00000000	00000013	addi	x0,x0,0	  x0:0x00000000
        8605000	       859	8000064c	00000013	addi	x0,x0,0	  x0:0x00000000
        8615000	       860	80000650	011f2d33	slt	x26,x30,x17	 x30:0x7b000000 x17:0xaaaa74dd x26=0x00000000
        8625000	       861	80000654	41d7da33	sra	x20,x15,x29	 x15:0x00000001 x29:0x0000000e x20=0x00000000
        8635000	       862	80000658	00480813	addi	x16,x16,4	 x16:0x00000008 x16=0x0000000c
        8645000	       863	8000065c	ff781ae3	bne	x16,x23,80000650	 x16:0x0000000c x23:0x00000014
        8655000	       864	00000000	00000013	addi	x0,x0,0	  x0:0x00000000
        8665000	       865	8000064c	00000013	addi	x0,x0,0	  x0:0x00000000
        8675000	       866	80000650	011f2d33	slt	x26,x30,x17	 x30:0x7b000000 x17:0xaaaa74dd x26=0x00000000
        8685000	       867	80000654	41d7da33	sra	x20,x15,x29	 x15:0x00000001 x29:0x0000000e x20=0x00000000
        8695000	       868	80000658	00480813	addi	x16,x16,4	 x16:0x0000000c x16=0x00000010
        8705000	       869	8000065c	ff781ae3	bne	x16,x23,80000650	 x16:0x00000010 x23:0x00000014
        8715000	       870	00000000	00000013	addi	x0,x0,0	  x0:0x00000000
        8725000	       871	8000064c	00000013	addi	x0,x0,0	  x0:0x00000000
        8735000	       872	80000650	011f2d33	slt	x26,x30,x17	 x30:0x7b000000 x17:0xaaaa74dd x26=0x00000000
        8745000	       873	80000654	41d7da33	sra	x20,x15,x29	 x15:0x00000001 x29:0x0000000e x20=0x00000000
        8755000	       874	80000658	00480813	addi	x16,x16,4	 x16:0x00000010 x16=0x00000014
        8765000	       875	8000065c	ff781ae3	bne	x16,x23,80000650	 x16:0x00000014 x23:0x00000014
        8775000	       876	80000660	ff5de0e3	bltu	x27,x21,80000640	 x27:0x00000006 x21:0x00000014
        8785000	       877	00000000	00000013	addi	x0,x0,0	  x0:0x00000000
        8795000	       878	8000063c	00000013	addi	x0,x0,0	  x0:0x00000000
        8805000	       879	80000640	4dd38893	addi	x17,x7,1245	  x7:0xaaaa7000 x17=0xaaaa74dd
        8815000	       880	80000644	003d8d93	addi	x27,x27,3	 x27:0x00000006 x27=0x00000009
        8825000	       881	80000648	00000813	addi	x16,x0,0	  x0:0x00000000 x16=0x00000000
        8835000	       882	8000064c	01400b93	addi	x23,x0,20	  x0:0x00000000 x23=0x00000014
        8845000	       883	80000650	011f2d33	slt	x26,x30,x17	 x30:0x7b000000 x17:0xaaaa74dd x26=0x00000000
        8855000	       884	80000654	41d7da33	sra	x20,x15,x29	 x15:0x00000001 x29:0x0000000e x20=0x00000000
        8865000	       885	80000658	00480813	addi	x16,x16,4	 x16:0x00000000 x16=0x00000004
        8875000	       886	8000065c	ff781ae3	bne	x16,x23,80000650	 x16:0x00000004 x23:0x00000014
        8885000	       887	00000000	00000013	addi	x0,x0,0	  x0:0x00000000
        8895000	       888	8000064c	00000013	addi	x0,x0,0	  x0:0x00000000
        8905000	       889	80000650	011f2d33	slt	x26,x30,x17	 x30:0x7b000000 x17:0xaaaa74dd x26=0x00000000
        8915000	       890	80000654	41d7da33	sra	x20,x15,x29	 x15:0x00000001 x29:0x0000000e x20=0x00000000
        8925000	       891	80000658	00480813	addi	x16,x16,4	 x16:0x00000004 x16=0x00000008
        8935000	       892	8000065c	ff781ae3	bne	x16,x23,80000650	 x16:0x00000008 x23:0x00000014
        8945000	       893	00000000	00000013	addi	x0,x0,0	  x0:0x00000000
        8955000	       894	8000064c	00000013	addi	x0,x0,0	  x0:0x00000000
        8965000	       895	80000650	011f2d33	slt	x26,x30,x17	 x30:0x7b000000 x17:0xaaaa74dd x26=0x00000000
        8975000	       896	80000654	41d7da33	sra	x20,x15,x29	 x15:0x00000001 x29:0x0000000e x20=0x00000000
        8985000	       897	80000658	00480813	addi	x16,x16,4	 x16:0x00000008 x16=0x0000000c
        8995000	       898	8000065c	ff781ae3	bne	x16,x23,80000650	 x16:0x0000000c x23:0x00000014
        9005000	       899	00000000	00000013	addi	x0,x0,0	  x0:0x00000000
        9015000	       900	8000064c	00000013	addi	x0,x0,0	  x0:0x00000000
        9025000	       901	80000650	011f2d33	slt	x26,x30,x17	 x30:0x7b000000 x17:0xaaaa74dd x26=0x00000000
        9035000	       902	80000654	41d7da33	sra	x20,x15,x29	 x15:0x00000001 x29:0x0000000e x20=0x00000000
        9045000	       903	80000658	00480813	addi	x16,x16,4	 x16:0x0000000c x16=0x00000010
        9055000	       904	8000065c	ff781ae3	bne	x16,x23,80000650	 x16:0x00000010 x23:0x00000014
        9065000	       905	00000000	00000013	addi	x0,x0,0	  x0:0x00000000
        9075000	       906	8000064c	00000013	addi	x0,x0,0	  x0:0x00000000
        9085000	       907	80000650	011f2d33	slt	x26,x30,x17	 x30:0x7b000000 x17:0xaaaa74dd x26=0x00000000
        9095000	       908	80000654	41d7da33	sra	x20,x15,x29	 x15:0x00000001 x29:0x0000000e x20=0x00000000
        9105000	       909	80000658	00480813	addi	x16,x16,4	 x16:0x00000010 x16=0x00000014
        9115000	       910	8000065c	ff781ae3	bne	x16,x23,80000650	 x16:0x00000014 x23:0x00000014
        9125000	       911	80000660	ff5de0e3	bltu	x27,x21,80000640	 x27:0x00000009 x21:0x00000014
        9135000	       912	00000000	00000013	addi	x0,x0,0	  x0:0x00000000
        9145000	       913	8000063c	00000013	addi	x0,x0,0	  x0:0x00000000
        9155000	       914	80000640	4dd38893	addi	x17,x7,1245	  x7:0xaaaa7000 x17=0xaaaa74dd
        9165000	       915	80000644	003d8d93	addi	x27,x27,3	 x27:0x00000009 x27=0x0000000c
        9175000	       916	80000648	00000813	addi	x16,x0,0	  x0:0x00000000 x16=0x00000000
        9185000	       917	8000064c	01400b93	addi	x23,x0,20	  x0:0x00000000 x23=0x00000014
        9195000	       918	80000650	011f2d33	slt	x26,x30,x17	 x30:0x7b000000 x17:0xaaaa74dd x26=0x00000000
        9205000	       919	80000654	41d7da33	sra	x20,x15,x29	 x15:0x00000001 x29:0x0000000e x20=0x00000000
        9215000	       920	80000658	00480813	addi	x16,x16,4	 x16:0x00000000 x16=0x00000004
        9225000	       921	8000065c	ff781ae3	bne	x16,x23,80000650	 x16:0x00000004 x23:0x00000014
        9235000	       922	00000000	00000013	addi	x0,x0,0	  x0:0x00000000
        9245000	       923	8000064c	00000013	addi	x0,x0,0	  x0:0x00000000
        9255000	       924	80000650	011f2d33	slt	x26,x30,x17	 x30:0x7b000000 x17:0xaaaa74dd x26=0x00000000
        9265000	       925	80000654	41d7da33	sra	x20,x15,x29	 x15:0x00000001 x29:0x0000000e x20=0x00000000
        9275000	       926	80000658	00480813	addi	x16,x16,4	 x16:0x00000004 x16=0x00000008
        9285000	       927	8000065c	ff781ae3	bne	x16,x23,80000650	 x16:0x00000008 x23:0x00000014
        9295000	       928	00000000	00000013	addi	x0,x0,0	  x0:0x00000000
        9305000	       929	8000064c	00000013	addi	x0,x0,0	  x0:0x00000000
        9315000	       930	80000650	011f2d33	slt	x26,x30,x17	 x30:0x7b000000 x17:0xaaaa74dd x26=0x00000000
        9325000	       931	80000654	41d7da33	sra	x20,x15,x29	 x15:0x00000001 x29:0x0000000e x20=0x00000000
        9335000	       932	80000658	00480813	addi	x16,x16,4	 x16:0x00000008 x16=0x0000000c
        9345000	       933	8000065c	ff781ae3	bne	x16,x23,80000650	 x16:0x0000000c x23:0x00000014
        9355000	       934	00000000	00000013	addi	x0,x0,0	  x0:0x00000000
        9365000	       935	8000064c	00000013	addi	x0,x0,0	  x0:0x00000000
        9375000	       936	80000650	011f2d33	slt	x26,x30,x17	 x30:0x7b000000 x17:0xaaaa74dd x26=0x00000000
        9385000	       937	80000654	41d7da33	sra	x20,x15,x29	 x15:0x00000001 x29:0x0000000e x20=0x00000000
        9395000	       938	80000658	00480813	addi	x16,x16,4	 x16:0x0000000c x16=0x00000010
        9405000	       939	8000065c	ff781ae3	bne	x16,x23,80000650	 x16:0x00000010 x23:0x00000014
        9415000	       940	00000000	00000013	addi	x0,x0,0	  x0:0x00000000
        9425000	       941	8000064c	00000013	addi	x0,x0,0	  x0:0x00000000
        9435000	       942	80000650	011f2d33	slt	x26,x30,x17	 x30:0x7b000000 x17:0xaaaa74dd x26=0x00000000
        9445000	       943	80000654	41d7da33	sra	x20,x15,x29	 x15:0x00000001 x29:0x0000000e x20=0x00000000
        9455000	       944	80000658	00480813	addi	x16,x16,4	 x16:0x00000010 x16=0x00000014
        9465000	       945	8000065c	ff781ae3	bne	x16,x23,80000650	 x16:0x00000014 x23:0x00000014
        9475000	       946	80000660	ff5de0e3	bltu	x27,x21,80000640	 x27:0x0000000c x21:0x00000014
        9485000	       947	00000000	00000013	addi	x0,x0,0	  x0:0x00000000
        9495000	       948	8000063c	00000013	addi	x0,x0,0	  x0:0x00000000
        9505000	       949	80000640	4dd38893	addi	x17,x7,1245	  x7:0xaaaa7000 x17=0xaaaa74dd
        9515000	       950	80000644	003d8d93	addi	x27,x27,3	 x27:0x0000000c x27=0x0000000f
        9525000	       951	80000648	00000813	addi	x16,x0,0	  x0:0x00000000 x16=0x00000000
        9535000	       952	8000064c	01400b93	addi	x23,x0,20	  x0:0x00000000 x23=0x00000014
        9545000	       953	80000650	011f2d33	slt	x26,x30,x17	 x30:0x7b000000 x17:0xaaaa74dd x26=0x00000000
        9555000	       954	80000654	41d7da33	sra	x20,x15,x29	 x15:0x00000001 x29:0x0000000e x20=0x00000000
        9565000	       955	80000658	00480813	addi	x16,x16,4	 x16:0x00000000 x16=0x00000004
        9575000	       956	8000065c	ff781ae3	bne	x16,x23,80000650	 x16:0x00000004 x23:0x00000014
        9585000	       957	00000000	00000013	addi	x0,x0,0	  x0:0x00000000
        9595000	       958	8000064c	00000013	addi	x0,x0,0	  x0:0x00000000
        9605000	       959	80000650	011f2d33	slt	x26,x30,x17	 x30:0x7b000000 x17:0xaaaa74dd x26=0x00000000
        9615000	       960	80000654	41d7da33	sra	x20,x15,x29	 x15:0x00000001 x29:0x0000000e x20=0x00000000
        9625000	       961	80000658	00480813	addi	x16,x16,4	 x16:0x00000004 x16=0x00000008
        9635000	       962	8000065c	ff781ae3	bne	x16,x23,80000650	 x16:0x00000008 x23:0x00000014
        9645000	       963	00000000	00000013	addi	x0,x0,0	  x0:0x00000000
        9655000	       964	8000064c	00000013	addi	x0,x0,0	  x0:0x00000000
        9665000	       965	80000650	011f2d33	slt	x26,x30,x17	 x30:0x7b000000 x17:0xaaaa74dd x26=0x00000000
        9675000	       966	80000654	41d7da33	sra	x20,x15,x29	 x15:0x00000001 x29:0x0000000e x20=0x00000000
        9685000	       967	80000658	00480813	addi	x16,x16,4	 x16:0x00000008 x16=0x0000000c
        9695000	       968	8000065c	ff781ae3	bne	x16,x23,80000650	 x16:0x0000000c x23:0x00000014
        9705000	       969	00000000	00000013	addi	x0,x0,0	  x0:0x00000000
        9715000	       970	8000064c	00000013	addi	x0,x0,0	  x0:0x00000000
        9725000	       971	80000650	011f2d33	slt	x26,x30,x17	 x30:0x7b000000 x17:0xaaaa74dd x26=0x00000000
        9735000	       972	80000654	41d7da33	sra	x20,x15,x29	 x15:0x00000001 x29:0x0000000e x20=0x00000000
        9745000	       973	80000658	00480813	addi	x16,x16,4	 x16:0x0000000c x16=0x00000010
        9755000	       974	8000065c	ff781ae3	bne	x16,x23,80000650	 x16:0x00000010 x23:0x00000014
        9765000	       975	00000000	00000013	addi	x0,x0,0	  x0:0x00000000
        9775000	       976	8000064c	00000013	addi	x0,x0,0	  x0:0x00000000
        9785000	       977	80000650	011f2d33	slt	x26,x30,x17	 x30:0x7b000000 x17:0xaaaa74dd x26=0x00000000
        9795000	       978	80000654	41d7da33	sra	x20,x15,x29	 x15:0x00000001 x29:0x0000000e x20=0x00000000
        9805000	       979	80000658	00480813	addi	x16,x16,4	 x16:0x00000010 x16=0x00000014
        9815000	       980	8000065c	ff781ae3	bne	x16,x23,80000650	 x16:0x00000014 x23:0x00000014
        9825000	       981	80000660	ff5de0e3	bltu	x27,x21,80000640	 x27:0x0000000f x21:0x00000014
        9835000	       982	00000000	00000013	addi	x0,x0,0	  x0:0x00000000
        9845000	       983	8000063c	00000013	addi	x0,x0,0	  x0:0x00000000
        9855000	       984	80000640	4dd38893	addi	x17,x7,1245	  x7:0xaaaa7000 x17=0xaaaa74dd
        9865000	       985	80000644	003d8d93	addi	x27,x27,3	 x27:0x0000000f x27=0x00000012
        9875000	       986	80000648	00000813	addi	x16,x0,0	  x0:0x00000000 x16=0x00000000
        9885000	       987	8000064c	01400b93	addi	x23,x0,20	  x0:0x00000000 x23=0x00000014
        9895000	       988	80000650	011f2d33	slt	x26,x30,x17	 x30:0x7b000000 x17:0xaaaa74dd x26=0x00000000
        9905000	       989	80000654	41d7da33	sra	x20,x15,x29	 x15:0x00000001 x29:0x0000000e x20=0x00000000
        9915000	       990	80000658	00480813	addi	x16,x16,4	 x16:0x00000000 x16=0x00000004
        9925000	       991	8000065c	ff781ae3	bne	x16,x23,80000650	 x16:0x00000004 x23:0x00000014
        9935000	       992	00000000	00000013	addi	x0,x0,0	  x0:0x00000000
        9945000	       993	8000064c	00000013	addi	x0,x0,0	  x0:0x00000000
        9955000	       994	80000650	011f2d33	slt	x26,x30,x17	 x30:0x7b000000 x17:0xaaaa74dd x26=0x00000000
        9965000	       995	80000654	41d7da33	sra	x20,x15,x29	 x15:0x00000001 x29:0x0000000e x20=0x00000000
        9975000	       996	80000658	00480813	addi	x16,x16,4	 x16:0x00000004 x16=0x00000008
        9985000	       997	8000065c	ff781ae3	bne	x16,x23,80000650	 x16:0x00000008 x23:0x00000014
        9995000	       998	00000000	00000013	addi	x0,x0,0	  x0:0x00000000
       10005000	       999	8000064c	00000013	addi	x0,x0,0	  x0:0x00000000
       10015000	      1000	80000650	011f2d33	slt	x26,x30,x17	 x30:0x7b000000 x17:0xaaaa74dd x26=0x00000000
       10025000	      1001	80000654	41d7da33	sra	x20,x15,x29	 x15:0x00000001 x29:0x0000000e x20=0x00000000
       10035000	      1002	80000658	00480813	addi	x16,x16,4	 x16:0x00000008 x16=0x0000000c
       10045000	      1003	8000065c	ff781ae3	bne	x16,x23,80000650	 x16:0x0000000c x23:0x00000014
       10055000	      1004	00000000	00000013	addi	x0,x0,0	  x0:0x00000000
       10065000	      1005	8000064c	00000013	addi	x0,x0,0	  x0:0x00000000
       10075000	      1006	80000650	011f2d33	slt	x26,x30,x17	 x30:0x7b000000 x17:0xaaaa74dd x26=0x00000000
       10085000	      1007	80000654	41d7da33	sra	x20,x15,x29	 x15:0x00000001 x29:0x0000000e x20=0x00000000
       10095000	      1008	80000658	00480813	addi	x16,x16,4	 x16:0x0000000c x16=0x00000010
       10105000	      1009	8000065c	ff781ae3	bne	x16,x23,80000650	 x16:0x00000010 x23:0x00000014
       10115000	      1010	00000000	00000013	addi	x0,x0,0	  x0:0x00000000
       10125000	      1011	8000064c	00000013	addi	x0,x0,0	  x0:0x00000000
       10135000	      1012	80000650	011f2d33	slt	x26,x30,x17	 x30:0x7b000000 x17:0xaaaa74dd x26=0x00000000
       10145000	      1013	80000654	41d7da33	sra	x20,x15,x29	 x15:0x00000001 x29:0x0000000e x20=0x00000000
       10155000	      1014	80000658	00480813	addi	x16,x16,4	 x16:0x00000010 x16=0x00000014
       10165000	      1015	8000065c	ff781ae3	bne	x16,x23,80000650	 x16:0x00000014 x23:0x00000014
       10175000	      1016	80000660	ff5de0e3	bltu	x27,x21,80000640	 x27:0x00000012 x21:0x00000014
       10185000	      1017	00000000	00000013	addi	x0,x0,0	  x0:0x00000000
       10195000	      1018	8000063c	00000013	addi	x0,x0,0	  x0:0x00000000
       10205000	      1019	80000640	4dd38893	addi	x17,x7,1245	  x7:0xaaaa7000 x17=0xaaaa74dd
       10215000	      1020	80000644	003d8d93	addi	x27,x27,3	 x27:0x00000012 x27=0x00000015
       10225000	      1021	80000648	00000813	addi	x16,x0,0	  x0:0x00000000 x16=0x00000000
       10235000	      1022	8000064c	01400b93	addi	x23,x0,20	  x0:0x00000000 x23=0x00000014
       10245000	      1023	80000650	011f2d33	slt	x26,x30,x17	 x30:0x7b000000 x17:0xaaaa74dd x26=0x00000000
       10255000	      1024	80000654	41d7da33	sra	x20,x15,x29	 x15:0x00000001 x29:0x0000000e x20=0x00000000
       10265000	      1025	80000658	00480813	addi	x16,x16,4	 x16:0x00000000 x16=0x00000004
       10275000	      1026	8000065c	ff781ae3	bne	x16,x23,80000650	 x16:0x00000004 x23:0x00000014
       10285000	      1027	00000000	00000013	addi	x0,x0,0	  x0:0x00000000
       10295000	      1028	8000064c	00000013	addi	x0,x0,0	  x0:0x00000000
       10305000	      1029	80000650	011f2d33	slt	x26,x30,x17	 x30:0x7b000000 x17:0xaaaa74dd x26=0x00000000
       10315000	      1030	80000654	41d7da33	sra	x20,x15,x29	 x15:0x00000001 x29:0x0000000e x20=0x00000000
       10325000	      1031	80000658	00480813	addi	x16,x16,4	 x16:0x00000004 x16=0x00000008
       10335000	      1032	8000065c	ff781ae3	bne	x16,x23,80000650	 x16:0x00000008 x23:0x00000014
       10345000	      1033	00000000	00000013	addi	x0,x0,0	  x0:0x00000000
       10355000	      1034	8000064c	00000013	addi	x0,x0,0	  x0:0x00000000
       10365000	      1035	80000650	011f2d33	slt	x26,x30,x17	 x30:0x7b000000 x17:0xaaaa74dd x26=0x00000000
       10375000	      1036	80000654	41d7da33	sra	x20,x15,x29	 x15:0x00000001 x29:0x0000000e x20=0x00000000
       10385000	      1037	80000658	00480813	addi	x16,x16,4	 x16:0x00000008 x16=0x0000000c
       10395000	      1038	8000065c	ff781ae3	bne	x16,x23,80000650	 x16:0x0000000c x23:0x00000014
       10405000	      1039	00000000	00000013	addi	x0,x0,0	  x0:0x00000000
       10415000	      1040	8000064c	00000013	addi	x0,x0,0	  x0:0x00000000
       10425000	      1041	80000650	011f2d33	slt	x26,x30,x17	 x30:0x7b000000 x17:0xaaaa74dd x26=0x00000000
       10435000	      1042	80000654	41d7da33	sra	x20,x15,x29	 x15:0x00000001 x29:0x0000000e x20=0x00000000
       10445000	      1043	80000658	00480813	addi	x16,x16,4	 x16:0x0000000c x16=0x00000010
       10455000	      1044	8000065c	ff781ae3	bne	x16,x23,80000650	 x16:0x00000010 x23:0x00000014
       10465000	      1045	00000000	00000013	addi	x0,x0,0	  x0:0x00000000
       10475000	      1046	8000064c	00000013	addi	x0,x0,0	  x0:0x00000000
       10485000	      1047	80000650	011f2d33	slt	x26,x30,x17	 x30:0x7b000000 x17:0xaaaa74dd x26=0x00000000
       10495000	      1048	80000654	41d7da33	sra	x20,x15,x29	 x15:0x00000001 x29:0x0000000e x20=0x00000000
       10505000	      1049	80000658	00480813	addi	x16,x16,4	 x16:0x00000010 x16=0x00000014
       10515000	      1050	8000065c	ff781ae3	bne	x16,x23,80000650	 x16:0x00000014 x23:0x00000014
       10525000	      1051	80000660	ff5de0e3	bltu	x27,x21,80000640	 x27:0x00000015 x21:0x00000014
       10535000	      1052	80000664	959ba293	slti	x5,x23,-1703	 x23:0x00000014  x5=0x00000000
       10545000	      1053	80000668	00a00293	addi	x5,x0,10	  x0:0x00000000  x5=0x0000000a
       10555000	      1054	8000066c	00699c13	slli	x24,x19,0x6	 x19:0x04000000 x24=0x00000000
       10565000	      1055	80000670	34937093	andi	x1,x6,841	  x6:0x80009fc4  x1=0x00000340
       10575000	      1056	80000674	0146a233	slt	x4,x13,x20	 x13:0x00000000 x20:0x00000000  x4=0x00000000
       10585000	      1057	80000678	414a5d93	srai	x27,x20,0x14	 x20:0x00000000 x27=0x00000000
       10595000	      1058	8000067c	923e6993	ori	x19,x28,-1757	 x28:0x00000000 x19=0xfffff923
       10605000	      1059	80000680	00675693	srli	x13,x14,0x6	 x14:0x00000000 x13=0x00000000
       10615000	      1060	80000684	00000013	addi	x0,x0,0	  x0:0x00000000
       10625000	      1061	80000688	01100713	addi	x14,x0,17	  x0:0x00000000 x14=0x00000011
       10635000	      1062	8000068c	41930d33	sub	x26,x6,x25	  x6:0x80009fc4 x25:0xe49e86cc x26=0x9b6218f8
       10645000	      1063	80000690	41c581b3	sub	x3,x11,x28	 x11:0x0000000d x28:0x00000000  x3=0x0000000d
       10655000	      1064	80000694	01911eb3	sll	x29,x2,x25	  x2:0x668e3aa3 x25:0xe49e86cc x29=0xe3aa3000
       10665000	      1065	80000698	5b7abdb7	lui	x27,0x5b7ab	 x27=0x5b7ab000
       10675000	      1066	8000069c	bcc4ed93	ori	x27,x9,-1076	  x9:0x80009f84 x27=0xffffffcc
       10685000	      1067	800006a0	0e6e7013	andi	x0,x28,230	 x28:0x00000000
       10695000	      1068	800006a4	00728293	addi	x5,x5,7	  x5:0x0000000a  x5=0x00000011
       10705000	      1069	800006a8	00c89913	slli	x18,x17,0xc	 x17:0xaaaa74dd x18=0xa74dd000
       10715000	      1070	800006ac	00cd5a13	srli	x20,x26,0xc	 x26:0x9b6218f8 x20=0x0009b621
       10725000	      1071	800006b0	01abcab3	xor	x21,x23,x26	 x23:0x00000014 x26:0x9b6218f8 x21=0x9b6218ec
       10735000	      1072	800006b4	4e517593	andi	x11,x2,1253	  x2:0x668e3aa3 x11=0x000000a1
       10745000	      1073	800006b8	5b236393	ori	x7,x6,1458	  x6:0x80009fc4  x7=0x80009ff6
       10755000	      1074	800006bc	4f2b3c13	sltiu	x24,x22,1266	 x22:0x0000000b x24=0x00000001
       10765000	      1075	800006c0	003987b3	add	x15,x19,x3	 x19:0xfffff923  x3:0x0000000d x15=0xfffff930
       10775000	      1076	800006c4	003ad8b3	srl	x17,x21,x3	 x21:0x9b6218ec  x3:0x0000000d x17=0x0004db10
       10785000	      1077	800006c8	fce284e3	beq	x5,x14,80000690	  x5:0x00000011 x14:0x00000011
       10795000	      1078	00000000	00000013	addi	x0,x0,0	  x0:0x00000000
       10805000	      1079	8000068c	00000013	addi	x0,x0,0	  x0:0x00000000
       10815000	      1080	80000690	41c581b3	sub	x3,x11,x28	 x11:0x000000a1 x28:0x00000000  x3=0x000000a1
       10825000	      1081	80000694	01911eb3	sll	x29,x2,x25	  x2:0x668e3aa3 x25:0xe49e86cc x29=0xe3aa3000
       10835000	      1082	80000698	5b7abdb7	lui	x27,0x5b7ab	 x27=0x5b7ab000
       10845000	      1083	8000069c	bcc4ed93	ori	x27,x9,-1076	  x9:0x80009f84 x27=0xffffffcc
       10855000	      1084	800006a0	0e6e7013	andi	x0,x28,230	 x28:0x00000000
       10865000	      1085	800006a4	00728293	addi	x5,x5,7	  x5:0x00000011  x5=0x00000018
       10875000	      1086	800006a8	00c89913	slli	x18,x17,0xc	 x17:0x0004db10 x18=0x4db10000
       10885000	      1087	800006ac	00cd5a13	srli	x20,x26,0xc	 x26:0x9b6218f8 x20=0x0009b621
       10895000	      1088	800006b0	01abcab3	xor	x21,x23,x26	 x23:0x00000014 x26:0x9b6218f8 x21=0x9b6218ec
       10905000	      1089	800006b4	4e517593	andi	x11,x2,1253	  x2:0x668e3aa3 x11=0x000000a1
       10915000	      1090	800006b8	5b236393	ori	x7,x6,1458	  x6:0x80009fc4  x7=0x80009ff6
       10925000	      1091	800006bc	4f2b3c13	sltiu	x24,x22,1266	 x22:0x0000000b x24=0x00000001
       10935000	      1092	800006c0	003987b3	add	x15,x19,x3	 x19:0xfffff923  x3:0x000000a1 x15=0xfffff9c4
       10945000	      1093	800006c4	003ad8b3	srl	x17,x21,x3	 x21:0x9b6218ec  x3:0x000000a1 x17=0x4db10c76
       10955000	      1094	800006c8	fce284e3	beq	x5,x14,80000690	  x5:0x00000018 x14:0x00000011
       10965000	      1095	800006cc	00168233	add	x4,x13,x1	 x13:0x00000000  x1:0x00000340  x4=0x00000340
       10975000	      1096	800006d0	ffa00f93	addi	x31,x0,-6	  x0:0x00000000 x31=0xfffffffa
       10985000	      1097	800006d4	40b255b3	sra	x11,x4,x11	  x4:0x00000340 x11:0x000000a1 x11=0x000001a0
       10995000	      1098	800006d8	00d405b3	add	x11,x8,x13	  x8:0x00000000 x13:0x00000000 x11=0x00000000
       11005000	      1099	800006dc	1e06c093	xori	x1,x13,480	 x13:0x00000000  x1=0x000001e0
       11015000	      1100	800006e0	fef00e13	addi	x28,x0,-17	  x0:0x00000000 x28=0xffffffef
       11025000	      1101	800006e4	43fe2093	slti	x1,x28,1087	 x28:0xffffffef  x1=0x00000001
       11035000	      1102	800006e8	c1aeb413	sltiu	x8,x29,-998	 x29:0xe3aa3000  x8=0x00000001
       11045000	      1103	800006ec	ff7f8f93	addi	x31,x31,-9	 x31:0xfffffffa x31=0xfffffff1
       11055000	      1104	800006f0	016f97b3	sll	x15,x31,x22	 x31:0xfffffff1 x22:0x0000000b x15=0xffff8800
       11065000	      1105	800006f4	40d15033	sra	x0,x2,x13	  x2:0x668e3aa3 x13:0x00000000
       11075000	      1106	800006f8	01029033	sll	x0,x5,x16	  x5:0x00000018 x16:0x00000014
       11085000	      1107	800006fc	6fe6fe93	andi	x29,x13,1790	 x13:0x00000000 x29=0x00000000
       11095000	      1108	80000700	00100613	addi	x12,x0,1	  x0:0x00000000 x12=0x00000001
       11105000	      1109	80000704	00d7c8b3	xor	x17,x15,x13	 x15:0xffff8800 x13:0x00000000 x17=0xffff8800
       11115000	      1110	80000708	0d9da213	slti	x4,x27,217	 x27:0xffffffcc  x4=0x00000001
       11125000	      1111	8000070c	00700693	addi	x13,x0,7	  x0:0x00000000 x13=0x00000007
       11135000	      1112	80000710	005007b3	add	x15,x0,x5	  x0:0x00000000  x5:0x00000018 x15=0x00000018
       11145000	      1113	80000714	47e4f797	auipc	x15,0x47e4f	 x15=0xc7e4f710
       11155000	      1114	80000718	00560613	addi	x12,x12,5	 x12:0x00000001 x12=0x00000006
       11165000	      1115	8000071c	8ff98f17	auipc	x30,0x8ff98	 x30=0x0ff98718
       11175000	      1116	80000720	00db6833	or	x16,x22,x13	 x22:0x0000000b x13:0x00000007 x16=0x0000000f
       11185000	      1117	80000724	01810133	add	x2,x2,x24	  x2:0x668e3aa3 x24:0x00000001  x2=0x668e3aa4
       11195000	      1118	80000728	49386113	ori	x2,x16,1171	 x16:0x0000000f  x2=0x0000049f
       11205000	      1119	8000072c	0019deb3	srl	x29,x19,x1	 x19:0xfffff923  x1:0x00000001 x29=0x7ffffc91
       11215000	      1120	80000730	003bbeb3	sltu	x29,x23,x3	 x23:0x00000014  x3:0x000000a1 x29=0x00000001
       11225000	      1121	80000734	0120aeb3	slt	x29,x1,x18	  x1:0x00000001 x18:0x4db10000 x29=0x00000001
       11235000	      1122	80000738	fcd64ee3	blt	x12,x13,80000714	 x12:0x00000006 x13:0x00000007
       11245000	      1123	00000000	00000013	addi	x0,x0,0	  x0:0x00000000
       11255000	      1124	80000710	00000013	addi	x0,x0,0	  x0:0x00000000
       11265000	      1125	80000714	47e4f797	auipc	x15,0x47e4f	 x15=0xc7e4f710
       11275000	      1126	80000718	00560613	addi	x12,x12,5	 x12:0x00000006 x12=0x0000000b
       11285000	      1127	8000071c	8ff98f17	auipc	x30,0x8ff98	 x30=0x0ff98718
       11295000	      1128	80000720	00db6833	or	x16,x22,x13	 x22:0x0000000b x13:0x00000007 x16=0x0000000f
       11305000	      1129	80000724	01810133	add	x2,x2,x24	  x2:0x0000049f x24:0x00000001  x2=0x000004a0
       11315000	      1130	80000728	49386113	ori	x2,x16,1171	 x16:0x0000000f  x2=0x0000049f
       11325000	      1131	8000072c	0019deb3	srl	x29,x19,x1	 x19:0xfffff923  x1:0x00000001 x29=0x7ffffc91
       11335000	      1132	80000730	003bbeb3	sltu	x29,x23,x3	 x23:0x00000014  x3:0x000000a1 x29=0x00000001
       11345000	      1133	80000734	0120aeb3	slt	x29,x1,x18	  x1:0x00000001 x18:0x4db10000 x29=0x00000001
       11355000	      1134	80000738	fcd64ee3	blt	x12,x13,80000714	 x12:0x0000000b x13:0x00000007
       11365000	      1135	8000073c	19deab17	auipc	x22,0x19dea	 x22=0x99dea738
       11375000	      1136	80000740	008c01b3	add	x3,x24,x8	 x24:0x00000001  x8:0x00000001  x3=0x00000002
       11385000	      1137	80000744	fbcfd0e3	bge	x31,x28,800006e4	 x31:0xfffffff1 x28:0xffffffef
       11395000	      1138	00000000	00000013	addi	x0,x0,0	  x0:0x00000000
       11405000	      1139	800006e0	00000013	addi	x0,x0,0	  x0:0x00000000
       11415000	      1140	800006e4	43fe2093	slti	x1,x28,1087	 x28:0xffffffef  x1=0x00000001
       11425000	      1141	800006e8	c1aeb413	sltiu	x8,x29,-998	 x29:0x00000001  x8=0x00000001
       11435000	      1142	800006ec	ff7f8f93	addi	x31,x31,-9	 x31:0xfffffff1 x31=0xffffffe8
       11445000	      1143	800006f0	016f97b3	sll	x15,x31,x22	 x31:0xffffffe8 x22:0x99dea738 x15=0xe8000000
       11455000	      1144	800006f4	40d15033	sra	x0,x2,x13	  x2:0x0000049f x13:0x00000007
       11465000	      1145	800006f8	01029033	sll	x0,x5,x16	  x5:0x00000018 x16:0x0000000f
       11475000	      1146	800006fc	6fe6fe93	andi	x29,x13,1790	 x13:0x00000007 x29=0x00000006
       11485000	      1147	80000700	00100613	addi	x12,x0,1	  x0:0x00000000 x12=0x00000001
       11495000	      1148	80000704	00d7c8b3	xor	x17,x15,x13	 x15:0xe8000000 x13:0x00000007 x17=0xe8000007
       11505000	      1149	80000708	0d9da213	slti	x4,x27,217	 x27:0xffffffcc  x4=0x00000001
       11515000	      1150	8000070c	00700693	addi	x13,x0,7	  x0:0x00000000 x13=0x00000007
       11525000	      1151	80000710	005007b3	add	x15,x0,x5	  x0:0x00000000  x5:0x00000018 x15=0x00000018
       11535000	      1152	80000714	47e4f797	auipc	x15,0x47e4f	 x15=0xc7e4f710
       11545000	      1153	80000718	00560613	addi	x12,x12,5	 x12:0x00000001 x12=0x00000006
       11555000	      1154	8000071c	8ff98f17	auipc	x30,0x8ff98	 x30=0x0ff98718
       11565000	      1155	80000720	00db6833	or	x16,x22,x13	 x22:0x99dea738 x13:0x00000007 x16=0x99dea73f
       11575000	      1156	80000724	01810133	add	x2,x2,x24	  x2:0x0000049f x24:0x00000001  x2=0x000004a0
       11585000	      1157	80000728	49386113	ori	x2,x16,1171	 x16:0x99dea73f  x2=0x99dea7bf
       11595000	      1158	8000072c	0019deb3	srl	x29,x19,x1	 x19:0xfffff923  x1:0x00000001 x29=0x7ffffc91
       11605000	      1159	80000730	003bbeb3	sltu	x29,x23,x3	 x23:0x00000014  x3:0x00000002 x29=0x00000000
       11615000	      1160	80000734	0120aeb3	slt	x29,x1,x18	  x1:0x00000001 x18:0x4db10000 x29=0x00000001
       11625000	      1161	80000738	fcd64ee3	blt	x12,x13,80000714	 x12:0x00000006 x13:0x00000007
       11635000	      1162	00000000	00000013	addi	x0,x0,0	  x0:0x00000000
       11645000	      1163	80000710	00000013	addi	x0,x0,0	  x0:0x00000000
       11655000	      1164	80000714	47e4f797	auipc	x15,0x47e4f	 x15=0xc7e4f710
       11665000	      1165	80000718	00560613	addi	x12,x12,5	 x12:0x00000006 x12=0x0000000b
       11675000	      1166	8000071c	8ff98f17	auipc	x30,0x8ff98	 x30=0x0ff98718
       11685000	      1167	80000720	00db6833	or	x16,x22,x13	 x22:0x99dea738 x13:0x00000007 x16=0x99dea73f
       11695000	      1168	80000724	01810133	add	x2,x2,x24	  x2:0x99dea7bf x24:0x00000001  x2=0x99dea7c0
       11705000	      1169	80000728	49386113	ori	x2,x16,1171	 x16:0x99dea73f  x2=0x99dea7bf
       11715000	      1170	8000072c	0019deb3	srl	x29,x19,x1	 x19:0xfffff923  x1:0x00000001 x29=0x7ffffc91
       11725000	      1171	80000730	003bbeb3	sltu	x29,x23,x3	 x23:0x00000014  x3:0x00000002 x29=0x00000000
       11735000	      1172	80000734	0120aeb3	slt	x29,x1,x18	  x1:0x00000001 x18:0x4db10000 x29=0x00000001
       11745000	      1173	80000738	fcd64ee3	blt	x12,x13,80000714	 x12:0x0000000b x13:0x00000007
       11755000	      1174	8000073c	19deab17	auipc	x22,0x19dea	 x22=0x99dea738
       11765000	      1175	80000740	008c01b3	add	x3,x24,x8	 x24:0x00000001  x8:0x00000001  x3=0x00000002
       11775000	      1176	80000744	fbcfd0e3	bge	x31,x28,800006e4	 x31:0xffffffe8 x28:0xffffffef
       11785000	      1177	80000748	0160e3b3	or	x7,x1,x22	  x1:0x00000001 x22:0x99dea738  x7=0x99dea739
       11795000	      1178	8000074c	00200b13	addi	x22,x0,2	  x0:0x00000000 x22=0x00000002
       11805000	      1179	80000750	00e00c93	addi	x25,x0,14	  x0:0x00000000 x25=0x0000000e
       11815000	      1180	80000754	3aa0ba93	sltiu	x21,x1,938	  x1:0x00000001 x21=0x00000001
       11825000	      1181	80000758	006b0b13	addi	x22,x22,6	 x22:0x00000002 x22=0x00000008
       11835000	      1182	8000075c	76d34193	xori	x3,x6,1901	  x6:0x80009fc4  x3=0x800098a9
       11845000	      1183	80000760	00200613	addi	x12,x0,2	  x0:0x00000000 x12=0x00000002
       11855000	      1184	80000764	0055ebb3	or	x23,x11,x5	 x11:0x00000000  x5:0x00000018 x23=0x00000018
       11865000	      1185	80000768	01200813	addi	x16,x0,18	  x0:0x00000000 x16=0x00000012
       11875000	      1186	8000076c	3d1255b7	lui	x11,0x3d125	 x11=0x3d125000
       11885000	      1187	80000770	7170e593	ori	x11,x1,1815	  x1:0x00000001 x11=0x00000717
       11895000	      1188	80000774	78313f93	sltiu	x31,x2,1923	  x2:0x99dea7bf x31=0x00000000
       11905000	      1189	80000778	00160613	addi	x12,x12,1	 x12:0x00000002 x12=0x00000003
       11915000	      1190	8000077c	ff060ae3	beq	x12,x16,80000770	 x12:0x00000003 x16:0x00000012
       11925000	      1191	80000780	009626b3	slt	x13,x12,x9	 x12:0x00000003  x9:0x80009f84 x13=0x00000000
       11935000	      1192	80000784	fd9b18e3	bne	x22,x25,80000754	 x22:0x00000008 x25:0x0000000e
       11945000	      1193	00000000	00000013	addi	x0,x0,0	  x0:0x00000000
       11955000	      1194	80000750	00000013	addi	x0,x0,0	  x0:0x00000000
       11965000	      1195	80000754	3aa0ba93	sltiu	x21,x1,938	  x1:0x00000001 x21=0x00000001
       11975000	      1196	80000758	006b0b13	addi	x22,x22,6	 x22:0x00000008 x22=0x0000000e
       11985000	      1197	8000075c	76d34193	xori	x3,x6,1901	  x6:0x80009fc4  x3=0x800098a9
       11995000	      1198	80000760	00200613	addi	x12,x0,2	  x0:0x00000000 x12=0x00000002
       12005000	      1199	80000764	0055ebb3	or	x23,x11,x5	 x11:0x00000717  x5:0x00000018 x23=0x0000071f
       12015000	      1200	80000768	01200813	addi	x16,x0,18	  x0:0x00000000 x16=0x00000012
       12025000	      1201	8000076c	3d1255b7	lui	x11,0x3d125	 x11=0x3d125000
       12035000	      1202	80000770	7170e593	ori	x11,x1,1815	  x1:0x00000001 x11=0x00000717
       12045000	      1203	80000774	78313f93	sltiu	x31,x2,1923	  x2:0x99dea7bf x31=0x00000000
       12055000	      1204	80000778	00160613	addi	x12,x12,1	 x12:0x00000002 x12=0x00000003
       12065000	      1205	8000077c	ff060ae3	beq	x12,x16,80000770	 x12:0x00000003 x16:0x00000012
       12075000	      1206	80000780	009626b3	slt	x13,x12,x9	 x12:0x00000003  x9:0x80009f84 x13=0x00000000
       12085000	      1207	80000784	fd9b18e3	bne	x22,x25,80000754	 x22:0x0000000e x25:0x0000000e
       12095000	      1208	80000788	3eff6e93	ori	x29,x30,1007	 x30:0x0ff98718 x29=0x0ff987ff
       12105000	      1209	8000078c	00400f13	addi	x30,x0,4	  x0:0x00000000 x30=0x00000004
       12115000	      1210	80000790	409d86b3	sub	x13,x27,x9	 x27:0xffffffcc  x9:0x80009f84 x13=0x7fff6048
       12125000	      1211	80000794	01645d13	srli	x26,x8,0x16	  x8:0x00000001 x26=0x00000000
       12135000	      1212	80000798	b72f0793	addi	x15,x30,-1166	 x30:0x00000004 x15=0xfffffb76
       12145000	      1213	8000079c	477cb593	sltiu	x11,x25,1143	 x25:0x0000000e x11=0x00000001
       12155000	      1214	800007a0	010a1893	slli	x17,x20,0x10	 x20:0x0009b621 x17=0xb6210000
       12165000	      1215	800007a4	010b90b3	sll	x1,x23,x16	 x23:0x0000071f x16:0x00000012  x1=0x1c7c0000
       12175000	      1216	800007a8	01fe76b3	and	x13,x28,x31	 x28:0xffffffef x31:0x00000000 x13=0x00000000
       12185000	      1217	800007ac	01ac9113	slli	x2,x25,0x1a	 x25:0x0000000e  x2=0x38000000
       12195000	      1218	800007b0	00ddd293	srli	x5,x27,0xd	 x27:0xffffffcc  x5=0x0007ffff
       12205000	      1219	800007b4	0043d413	srli	x8,x7,0x4	  x7:0x99dea739  x8=0x099dea73
       12215000	      1220	800007b8	64f7e813	ori	x16,x15,1615	 x15:0xfffffb76 x16=0xffffff7f
       12225000	      1221	800007bc	ff200913	addi	x18,x0,-14	  x0:0x00000000 x18=0xfffffff2
       12235000	      1222	800007c0	0185a133	slt	x2,x11,x24	 x11:0x00000001 x24:0x00000001  x2=0x00000000
       12245000	      1223	800007c4	d913cc13	xori	x24,x7,-623	  x7:0x99dea739 x24=0x66215aa8
       12255000	      1224	800007c8	0ed78e13	addi	x28,x15,237	 x15:0xfffffb76 x28=0xfffffc63
       12265000	      1225	800007cc	ee5d3ab7	lui	x21,0xee5d3	 x21=0xee5d3000
       12275000	      1226	800007d0	b1ce8113	addi	x2,x29,-1252	 x29:0x0ff987ff  x2=0x0ff9831b
       12285000	      1227	800007d4	0d160d13	addi	x26,x12,209	 x12:0x00000003 x26=0x000000d4
       12295000	      1228	800007d8	3812c993	xori	x19,x5,897	  x5:0x0007ffff x19=0x0007fc7e
       12305000	      1229	800007dc	ff7f0f13	addi	x30,x30,-9	 x30:0x00000004 x30=0xfffffffb
       12315000	      1230	800007e0	64314b93	xori	x23,x2,1603	  x2:0x0ff9831b x23=0x0ff98558
       12325000	      1231	800007e4	00185613	srli	x12,x16,0x1	 x16:0xffffff7f x12=0x7fffffbf
       12335000	      1232	800007e8	ff2f08e3	beq	x30,x18,800007d8	 x30:0xfffffffb x18:0xfffffff2
       12345000	      1233	800007ec	bd523eb7	lui	x29,0xbd523	 x29=0xbd523000
       12355000	      1234	800007f0	00900a13	addi	x20,x0,9	  x0:0x00000000 x20=0x00000009
       12365000	      1235	800007f4	00800d93	addi	x27,x0,8	  x0:0x00000000 x27=0x00000008
       12375000	      1236	800007f8	00000013	addi	x0,x0,0	  x0:0x00000000
       12385000	      1237	800007fc	e7eefe13	andi	x28,x29,-386	 x29:0xbd523000 x28=0xbd523000
       12395000	      1238	80000800	ff9a0a13	addi	x20,x20,-7	 x20:0x00000009 x20=0x00000002
       12405000	      1239	80000804	ffba7ae3	bgeu	x20,x27,800007f8	 x20:0x00000002 x27:0x00000008
       12415000	      1240	80000808	01ab9993	slli	x19,x23,0x1a	 x23:0x0ff98558 x19=0x60000000
       12425000	      1241	8000080c	ffa00613	addi	x12,x0,-6	  x0:0x00000000 x12=0xfffffffa
       12435000	      1242	80000810	01000d13	addi	x26,x0,16	  x0:0x00000000 x26=0x00000010
       12445000	      1243	80000814	0199fe33	and	x28,x19,x25	 x19:0x60000000 x25:0x0000000e x28=0x00000000
       12455000	      1244	80000818	00b99393	slli	x7,x19,0xb	 x19:0x60000000  x7=0x00000000
       12465000	      1245	8000081c	00260613	addi	x12,x12,2	 x12:0xfffffffa x12=0xfffffffc
       12475000	      1246	80000820	00400793	addi	x15,x0,4	  x0:0x00000000 x15=0x00000004
       12485000	      1247	80000824	00400113	addi	x2,x0,4	  x0:0x00000000  x2=0x00000004
       12495000	      1248	80000828	39acc713	xori	x14,x25,922	 x25:0x0000000e x14=0x00000394
       12505000	      1249	8000082c	81c8b813	sltiu	x16,x17,-2020	 x17:0xb6210000 x16=0x00000001
       12515000	      1250	80000830	e586a393	slti	x7,x13,-424	 x13:0x00000000  x7=0x00000000
       12525000	      1251	80000834	ffe78793	addi	x15,x15,-2	 x15:0x00000004 x15=0x00000002
       12535000	      1252	80000838	fe27fce3	bgeu	x15,x2,80000830	 x15:0x00000002  x2:0x00000004
       12545000	      1253	8000083c	01e17fb3	and	x31,x2,x30	  x2:0x00000004 x30:0xfffffffb x31=0x00000000
       12555000	      1254	80000840	fda61ae3	bne	x12,x26,80000814	 x12:0xfffffffc x26:0x00000010
       12565000	      1255	00000000	00000013	addi	x0,x0,0	  x0:0x00000000
       12575000	      1256	80000810	00000013	addi	x0,x0,0	  x0:0x00000000
       12585000	      1257	80000814	0199fe33	and	x28,x19,x25	 x19:0x60000000 x25:0x0000000e x28=0x00000000
       12595000	      1258	80000818	00b99393	slli	x7,x19,0xb	 x19:0x60000000  x7=0x00000000
       12605000	      1259	8000081c	00260613	addi	x12,x12,2	 x12:0xfffffffc x12=0xfffffffe
       12615000	      1260	80000820	00400793	addi	x15,x0,4	  x0:0x00000000 x15=0x00000004
       12625000	      1261	80000824	00400113	addi	x2,x0,4	  x0:0x00000000  x2=0x00000004
       12635000	      1262	80000828	39acc713	xori	x14,x25,922	 x25:0x0000000e x14=0x00000394
       12645000	      1263	8000082c	81c8b813	sltiu	x16,x17,-2020	 x17:0xb6210000 x16=0x00000001
       12655000	      1264	80000830	e586a393	slti	x7,x13,-424	 x13:0x00000000  x7=0x00000000
       12665000	      1265	80000834	ffe78793	addi	x15,x15,-2	 x15:0x00000004 x15=0x00000002
       12675000	      1266	80000838	fe27fce3	bgeu	x15,x2,80000830	 x15:0x00000002  x2:0x00000004
       12685000	      1267	8000083c	01e17fb3	and	x31,x2,x30	  x2:0x00000004 x30:0xfffffffb x31=0x00000000
       12695000	      1268	80000840	fda61ae3	bne	x12,x26,80000814	 x12:0xfffffffe x26:0x00000010
       12705000	      1269	00000000	00000013	addi	x0,x0,0	  x0:0x00000000
       12715000	      1270	80000810	00000013	addi	x0,x0,0	  x0:0x00000000
       12725000	      1271	80000814	0199fe33	and	x28,x19,x25	 x19:0x60000000 x25:0x0000000e x28=0x00000000
       12735000	      1272	80000818	00b99393	slli	x7,x19,0xb	 x19:0x60000000  x7=0x00000000
       12745000	      1273	8000081c	00260613	addi	x12,x12,2	 x12:0xfffffffe x12=0x00000000
       12755000	      1274	80000820	00400793	addi	x15,x0,4	  x0:0x00000000 x15=0x00000004
       12765000	      1275	80000824	00400113	addi	x2,x0,4	  x0:0x00000000  x2=0x00000004
       12775000	      1276	80000828	39acc713	xori	x14,x25,922	 x25:0x0000000e x14=0x00000394
       12785000	      1277	8000082c	81c8b813	sltiu	x16,x17,-2020	 x17:0xb6210000 x16=0x00000001
       12795000	      1278	80000830	e586a393	slti	x7,x13,-424	 x13:0x00000000  x7=0x00000000
       12805000	      1279	80000834	ffe78793	addi	x15,x15,-2	 x15:0x00000004 x15=0x00000002
       12815000	      1280	80000838	fe27fce3	bgeu	x15,x2,80000830	 x15:0x00000002  x2:0x00000004
       12825000	      1281	8000083c	01e17fb3	and	x31,x2,x30	  x2:0x00000004 x30:0xfffffffb x31=0x00000000
       12835000	      1282	80000840	fda61ae3	bne	x12,x26,80000814	 x12:0x00000000 x26:0x00000010
       12845000	      1283	00000000	00000013	addi	x0,x0,0	  x0:0x00000000
       12855000	      1284	80000810	00000013	addi	x0,x0,0	  x0:0x00000000
       12865000	      1285	80000814	0199fe33	and	x28,x19,x25	 x19:0x60000000 x25:0x0000000e x28=0x00000000
       12875000	      1286	80000818	00b99393	slli	x7,x19,0xb	 x19:0x60000000  x7=0x00000000
       12885000	      1287	8000081c	00260613	addi	x12,x12,2	 x12:0x00000000 x12=0x00000002
       12895000	      1288	80000820	00400793	addi	x15,x0,4	  x0:0x00000000 x15=0x00000004
       12905000	      1289	80000824	00400113	addi	x2,x0,4	  x0:0x00000000  x2=0x00000004
       12915000	      1290	80000828	39acc713	xori	x14,x25,922	 x25:0x0000000e x14=0x00000394
       12925000	      1291	8000082c	81c8b813	sltiu	x16,x17,-2020	 x17:0xb6210000 x16=0x00000001
       12935000	      1292	80000830	e586a393	slti	x7,x13,-424	 x13:0x00000000  x7=0x00000000
       12945000	      1293	80000834	ffe78793	addi	x15,x15,-2	 x15:0x00000004 x15=0x00000002
       12955000	      1294	80000838	fe27fce3	bgeu	x15,x2,80000830	 x15:0x00000002  x2:0x00000004
       12965000	      1295	8000083c	01e17fb3	and	x31,x2,x30	  x2:0x00000004 x30:0xfffffffb x31=0x00000000
       12975000	      1296	80000840	fda61ae3	bne	x12,x26,80000814	 x12:0x00000002 x26:0x00000010
       12985000	      1297	00000000	00000013	addi	x0,x0,0	  x0:0x00000000
       12995000	      1298	80000810	00000013	addi	x0,x0,0	  x0:0x00000000
       13005000	      1299	80000814	0199fe33	and	x28,x19,x25	 x19:0x60000000 x25:0x0000000e x28=0x00000000
       13015000	      1300	80000818	00b99393	slli	x7,x19,0xb	 x19:0x60000000  x7=0x00000000
       13025000	      1301	8000081c	00260613	addi	x12,x12,2	 x12:0x00000002 x12=0x00000004
       13035000	      1302	80000820	00400793	addi	x15,x0,4	  x0:0x00000000 x15=0x00000004
       13045000	      1303	80000824	00400113	addi	x2,x0,4	  x0:0x00000000  x2=0x00000004
       13055000	      1304	80000828	39acc713	xori	x14,x25,922	 x25:0x0000000e x14=0x00000394
       13065000	      1305	8000082c	81c8b813	sltiu	x16,x17,-2020	 x17:0xb6210000 x16=0x00000001
       13075000	      1306	80000830	e586a393	slti	x7,x13,-424	 x13:0x00000000  x7=0x00000000
       13085000	      1307	80000834	ffe78793	addi	x15,x15,-2	 x15:0x00000004 x15=0x00000002
       13095000	      1308	80000838	fe27fce3	bgeu	x15,x2,80000830	 x15:0x00000002  x2:0x00000004
       13105000	      1309	8000083c	01e17fb3	and	x31,x2,x30	  x2:0x00000004 x30:0xfffffffb x31=0x00000000
       13115000	      1310	80000840	fda61ae3	bne	x12,x26,80000814	 x12:0x00000004 x26:0x00000010
       13125000	      1311	00000000	00000013	addi	x0,x0,0	  x0:0x00000000
       13135000	      1312	80000810	00000013	addi	x0,x0,0	  x0:0x00000000
       13145000	      1313	80000814	0199fe33	and	x28,x19,x25	 x19:0x60000000 x25:0x0000000e x28=0x00000000
       13155000	      1314	80000818	00b99393	slli	x7,x19,0xb	 x19:0x60000000  x7=0x00000000
       13165000	      1315	8000081c	00260613	addi	x12,x12,2	 x12:0x00000004 x12=0x00000006
       13175000	      1316	80000820	00400793	addi	x15,x0,4	  x0:0x00000000 x15=0x00000004
       13185000	      1317	80000824	00400113	addi	x2,x0,4	  x0:0x00000000  x2=0x00000004
       13195000	      1318	80000828	39acc713	xori	x14,x25,922	 x25:0x0000000e x14=0x00000394
       13205000	      1319	8000082c	81c8b813	sltiu	x16,x17,-2020	 x17:0xb6210000 x16=0x00000001
       13215000	      1320	80000830	e586a393	slti	x7,x13,-424	 x13:0x00000000  x7=0x00000000
       13225000	      1321	80000834	ffe78793	addi	x15,x15,-2	 x15:0x00000004 x15=0x00000002
       13235000	      1322	80000838	fe27fce3	bgeu	x15,x2,80000830	 x15:0x00000002  x2:0x00000004
       13245000	      1323	8000083c	01e17fb3	and	x31,x2,x30	  x2:0x00000004 x30:0xfffffffb x31=0x00000000
       13255000	      1324	80000840	fda61ae3	bne	x12,x26,80000814	 x12:0x00000006 x26:0x00000010
       13265000	      1325	00000000	00000013	addi	x0,x0,0	  x0:0x00000000
       13275000	      1326	80000810	00000013	addi	x0,x0,0	  x0:0x00000000
       13285000	      1327	80000814	0199fe33	and	x28,x19,x25	 x19:0x60000000 x25:0x0000000e x28=0x00000000
       13295000	      1328	80000818	00b99393	slli	x7,x19,0xb	 x19:0x60000000  x7=0x00000000
       13305000	      1329	8000081c	00260613	addi	x12,x12,2	 x12:0x00000006 x12=0x00000008
       13315000	      1330	80000820	00400793	addi	x15,x0,4	  x0:0x00000000 x15=0x00000004
       13325000	      1331	80000824	00400113	addi	x2,x0,4	  x0:0x00000000  x2=0x00000004
       13335000	      1332	80000828	39acc713	xori	x14,x25,922	 x25:0x0000000e x14=0x00000394
       13345000	      1333	8000082c	81c8b813	sltiu	x16,x17,-2020	 x17:0xb6210000 x16=0x00000001
       13355000	      1334	80000830	e586a393	slti	x7,x13,-424	 x13:0x00000000  x7=0x00000000
       13365000	      1335	80000834	ffe78793	addi	x15,x15,-2	 x15:0x00000004 x15=0x00000002
       13375000	      1336	80000838	fe27fce3	bgeu	x15,x2,80000830	 x15:0x00000002  x2:0x00000004
       13385000	      1337	8000083c	01e17fb3	and	x31,x2,x30	  x2:0x00000004 x30:0xfffffffb x31=0x00000000
       13395000	      1338	80000840	fda61ae3	bne	x12,x26,80000814	 x12:0x00000008 x26:0x00000010
       13405000	      1339	00000000	00000013	addi	x0,x0,0	  x0:0x00000000
       13415000	      1340	80000810	00000013	addi	x0,x0,0	  x0:0x00000000
       13425000	      1341	80000814	0199fe33	and	x28,x19,x25	 x19:0x60000000 x25:0x0000000e x28=0x00000000
       13435000	      1342	80000818	00b99393	slli	x7,x19,0xb	 x19:0x60000000  x7=0x00000000
       13445000	      1343	8000081c	00260613	addi	x12,x12,2	 x12:0x00000008 x12=0x0000000a
       13455000	      1344	80000820	00400793	addi	x15,x0,4	  x0:0x00000000 x15=0x00000004
       13465000	      1345	80000824	00400113	addi	x2,x0,4	  x0:0x00000000  x2=0x00000004
       13475000	      1346	80000828	39acc713	xori	x14,x25,922	 x25:0x0000000e x14=0x00000394
       13485000	      1347	8000082c	81c8b813	sltiu	x16,x17,-2020	 x17:0xb6210000 x16=0x00000001
       13495000	      1348	80000830	e586a393	slti	x7,x13,-424	 x13:0x00000000  x7=0x00000000
       13505000	      1349	80000834	ffe78793	addi	x15,x15,-2	 x15:0x00000004 x15=0x00000002
       13515000	      1350	80000838	fe27fce3	bgeu	x15,x2,80000830	 x15:0x00000002  x2:0x00000004
       13525000	      1351	8000083c	01e17fb3	and	x31,x2,x30	  x2:0x00000004 x30:0xfffffffb x31=0x00000000
       13535000	      1352	80000840	fda61ae3	bne	x12,x26,80000814	 x12:0x0000000a x26:0x00000010
       13545000	      1353	00000000	00000013	addi	x0,x0,0	  x0:0x00000000
       13555000	      1354	80000810	00000013	addi	x0,x0,0	  x0:0x00000000
       13565000	      1355	80000814	0199fe33	and	x28,x19,x25	 x19:0x60000000 x25:0x0000000e x28=0x00000000
       13575000	      1356	80000818	00b99393	slli	x7,x19,0xb	 x19:0x60000000  x7=0x00000000
       13585000	      1357	8000081c	00260613	addi	x12,x12,2	 x12:0x0000000a x12=0x0000000c
       13595000	      1358	80000820	00400793	addi	x15,x0,4	  x0:0x00000000 x15=0x00000004
       13605000	      1359	80000824	00400113	addi	x2,x0,4	  x0:0x00000000  x2=0x00000004
       13615000	      1360	80000828	39acc713	xori	x14,x25,922	 x25:0x0000000e x14=0x00000394
       13625000	      1361	8000082c	81c8b813	sltiu	x16,x17,-2020	 x17:0xb6210000 x16=0x00000001
       13635000	      1362	80000830	e586a393	slti	x7,x13,-424	 x13:0x00000000  x7=0x00000000
       13645000	      1363	80000834	ffe78793	addi	x15,x15,-2	 x15:0x00000004 x15=0x00000002
       13655000	      1364	80000838	fe27fce3	bgeu	x15,x2,80000830	 x15:0x00000002  x2:0x00000004
       13665000	      1365	8000083c	01e17fb3	and	x31,x2,x30	  x2:0x00000004 x30:0xfffffffb x31=0x00000000
       13675000	      1366	80000840	fda61ae3	bne	x12,x26,80000814	 x12:0x0000000c x26:0x00000010
       13685000	      1367	00000000	00000013	addi	x0,x0,0	  x0:0x00000000
       13695000	      1368	80000810	00000013	addi	x0,x0,0	  x0:0x00000000
       13705000	      1369	80000814	0199fe33	and	x28,x19,x25	 x19:0x60000000 x25:0x0000000e x28=0x00000000
       13715000	      1370	80000818	00b99393	slli	x7,x19,0xb	 x19:0x60000000  x7=0x00000000
       13725000	      1371	8000081c	00260613	addi	x12,x12,2	 x12:0x0000000c x12=0x0000000e
       13735000	      1372	80000820	00400793	addi	x15,x0,4	  x0:0x00000000 x15=0x00000004
       13745000	      1373	80000824	00400113	addi	x2,x0,4	  x0:0x00000000  x2=0x00000004
       13755000	      1374	80000828	39acc713	xori	x14,x25,922	 x25:0x0000000e x14=0x00000394
       13765000	      1375	8000082c	81c8b813	sltiu	x16,x17,-2020	 x17:0xb6210000 x16=0x00000001
       13775000	      1376	80000830	e586a393	slti	x7,x13,-424	 x13:0x00000000  x7=0x00000000
       13785000	      1377	80000834	ffe78793	addi	x15,x15,-2	 x15:0x00000004 x15=0x00000002
       13795000	      1378	80000838	fe27fce3	bgeu	x15,x2,80000830	 x15:0x00000002  x2:0x00000004
       13805000	      1379	8000083c	01e17fb3	and	x31,x2,x30	  x2:0x00000004 x30:0xfffffffb x31=0x00000000
       13815000	      1380	80000840	fda61ae3	bne	x12,x26,80000814	 x12:0x0000000e x26:0x00000010
       13825000	      1381	00000000	00000013	addi	x0,x0,0	  x0:0x00000000
       13835000	      1382	80000810	00000013	addi	x0,x0,0	  x0:0x00000000
       13845000	      1383	80000814	0199fe33	and	x28,x19,x25	 x19:0x60000000 x25:0x0000000e x28=0x00000000
       13855000	      1384	80000818	00b99393	slli	x7,x19,0xb	 x19:0x60000000  x7=0x00000000
       13865000	      1385	8000081c	00260613	addi	x12,x12,2	 x12:0x0000000e x12=0x00000010
       13875000	      1386	80000820	00400793	addi	x15,x0,4	  x0:0x00000000 x15=0x00000004
       13885000	      1387	80000824	00400113	addi	x2,x0,4	  x0:0x00000000  x2=0x00000004
       13895000	      1388	80000828	39acc713	xori	x14,x25,922	 x25:0x0000000e x14=0x00000394
       13905000	      1389	8000082c	81c8b813	sltiu	x16,x17,-2020	 x17:0xb6210000 x16=0x00000001
       13915000	      1390	80000830	e586a393	slti	x7,x13,-424	 x13:0x00000000  x7=0x00000000
       13925000	      1391	80000834	ffe78793	addi	x15,x15,-2	 x15:0x00000004 x15=0x00000002
       13935000	      1392	80000838	fe27fce3	bgeu	x15,x2,80000830	 x15:0x00000002  x2:0x00000004
       13945000	      1393	8000083c	01e17fb3	and	x31,x2,x30	  x2:0x00000004 x30:0xfffffffb x31=0x00000000
       13955000	      1394	80000840	fda61ae3	bne	x12,x26,80000814	 x12:0x00000010 x26:0x00000010
       13965000	      1395	80000844	40fdda93	srai	x21,x27,0xf	 x27:0x00000008 x21=0x00000000
       13975000	      1396	80000848	00a00613	addi	x12,x0,10	  x0:0x00000000 x12=0x0000000a
       13985000	      1397	8000084c	01a805b3	add	x11,x16,x26	 x16:0x00000001 x26:0x00000010 x11=0x00000011
       13995000	      1398	80000850	00f00f13	addi	x30,x0,15	  x0:0x00000000 x30=0x0000000f
       14005000	      1399	80000854	00000013	addi	x0,x0,0	  x0:0x00000000
       14015000	      1400	80000858	7f4db117	auipc	x2,0x7f4db	  x2=0xff4db854
       14025000	      1401	8000085c	3d09ac37	lui	x24,0x3d09a	 x24=0x3d09a000
       14035000	      1402	80000860	00b9adb3	slt	x27,x19,x11	 x19:0x60000000 x11:0x00000011 x27=0x00000000
       14045000	      1403	80000864	0160b433	sltu	x8,x1,x22	  x1:0x1c7c0000 x22:0x0000000e  x8=0x00000000
       14055000	      1404	80000868	40445793	srai	x15,x8,0x4	  x8:0x00000000 x15=0x00000000
       14065000	      1405	8000086c	fad54113	xori	x2,x10,-83	 x10:0x80000000  x2=0x7fffffad
       14075000	      1406	80000870	00560613	addi	x12,x12,5	 x12:0x0000000a x12=0x0000000f
       14085000	      1407	80000874	41828b33	sub	x22,x5,x24	  x5:0x0007ffff x24:0x3d09a000 x22=0xc2fe5fff
       14095000	      1408	80000878	01719833	sll	x16,x3,x23	  x3:0x800098a9 x23:0x0ff98558 x16=0xa9000000
       14105000	      1409	8000087c	c47d4b17	auipc	x22,0xc47d4	 x22=0x447d4878
       14115000	      1410	80000880	fde64ae3	blt	x12,x30,80000854	 x12:0x0000000f x30:0x0000000f
       14125000	      1411	80000884	4a468cb7	lui	x25,0x4a468	 x25=0x4a468000
       14135000	      1412	80000888	ffd00e93	addi	x29,x0,-3	  x0:0x00000000 x29=0xfffffffd
       14145000	      1413	8000088c	2f9df093	andi	x1,x27,761	 x27:0x00000000  x1=0x00000000
       14155000	      1414	80000890	5c002a93	slti	x21,x0,1472	  x0:0x00000000 x21=0x00000001
       14165000	      1415	80000894	00000013	addi	x0,x0,0	  x0:0x00000000
       14175000	      1416	80000898	401a5393	srai	x7,x20,0x1	 x20:0x00000002  x7=0x00000001
       14185000	      1417	8000089c	4173d413	srai	x8,x7,0x17	  x7:0x00000001  x8=0x00000000
       14195000	      1418	800008a0	01157fb3	and	x31,x10,x17	 x10:0x80000000 x17:0xb6210000 x31=0x80000000
       14205000	      1419	800008a4	2cb49a97	auipc	x21,0x2cb49	 x21=0xacb498a0
       14215000	      1420	800008a8	01ecffb3	and	x31,x25,x30	 x25:0x4a468000 x30:0x0000000f x31=0x00000000
       14225000	      1421	800008ac	40768bb3	sub	x23,x13,x7	 x13:0x00000000  x7:0x00000001 x23=0xffffffff
       14235000	      1422	800008b0	a6eb2593	slti	x11,x22,-1426	 x22:0x447d4878 x11=0x00000000
       14245000	      1423	800008b4	00f00f13	addi	x30,x0,15	  x0:0x00000000 x30=0x0000000f
       14255000	      1424	800008b8	00000013	addi	x0,x0,0	  x0:0x00000000
       14265000	      1425	800008bc	000062b3	or	x5,x0,x0	  x0:0x00000000  x0:0x00000000  x5=0x00000000
       14275000	      1426	800008c0	016e3c33	sltu	x24,x28,x22	 x28:0x00000000 x22:0x447d4878 x24=0x00000001
       14285000	      1427	800008c4	694dcc97	auipc	x25,0x694dc	 x25=0xe94dc8c0
       14295000	      1428	800008c8	009e8e93	addi	x29,x29,9	 x29:0xfffffffd x29=0x00000006
       14305000	      1429	800008cc	408086b3	sub	x13,x1,x8	  x1:0x00000000  x8:0x00000000 x13=0x00000000
       14315000	      1430	800008d0	01cdb3b3	sltu	x7,x27,x28	 x27:0x00000000 x28:0x00000000  x7=0x00000000
       14325000	      1431	800008d4	40b4df93	srai	x31,x9,0xb	  x9:0x80009f84 x31=0xfff00013
       14335000	      1432	800008d8	01b519b3	sll	x19,x10,x27	 x10:0x80000000 x27:0x00000000 x19=0x80000000
       14345000	      1433	800008dc	00ab9bb3	sll	x23,x23,x10	 x23:0xffffffff x10:0x80000000 x23=0xffffffff
       14355000	      1434	800008e0	4098d7b3	sra	x15,x17,x9	 x17:0xb6210000  x9:0x80009f84 x15=0xfb621000
       14365000	      1435	800008e4	400e5a93	srai	x21,x28,0x0	 x28:0x00000000 x21=0x00000000
       14375000	      1436	800008e8	94f28f93	addi	x31,x5,-1713	  x5:0x00000000 x31=0xfffff94f
       14385000	      1437	800008ec	01214ab3	xor	x21,x2,x18	  x2:0x7fffffad x18:0xfffffff2 x21=0x8000005f
       14395000	      1438	800008f0	fdee86e3	beq	x29,x30,800008bc	 x29:0x00000006 x30:0x0000000f
       14405000	      1439	800008f4	000add13	srli	x26,x21,0x0	 x21:0x8000005f x26=0x8000005f
       14415000	      1440	800008f8	00000c13	addi	x24,x0,0	  x0:0x00000000 x24=0x00000000
       14425000	      1441	800008fc	00400893	addi	x17,x0,4	  x0:0x00000000 x17=0x00000004
       14435000	      1442	80000900	017d2633	slt	x12,x26,x23	 x26:0x8000005f x23:0xffffffff x12=0x00000001
       14445000	      1443	80000904	01aaa5b3	slt	x11,x21,x26	 x21:0x8000005f x26:0x8000005f x11=0x00000000
       14455000	      1444	80000908	01abd5b3	srl	x11,x23,x26	 x23:0xffffffff x26:0x8000005f x11=0x00000001
       14465000	      1445	8000090c	005c0c13	addi	x24,x24,5	 x24:0x00000000 x24=0x00000005
       14475000	      1446	80000910	f473e593	ori	x11,x7,-185	  x7:0x00000000 x11=0xffffff47
       14485000	      1447	80000914	00700293	addi	x5,x0,7	  x0:0x00000000  x5=0x00000007
       14495000	      1448	80000918	d1ad4113	xori	x2,x26,-742	 x26:0x8000005f  x2=0x7ffffd45
       14505000	      1449	8000091c	ffd00a13	addi	x20,x0,-3	  x0:0x00000000 x20=0xfffffffd
       14515000	      1450	80000920	00ecdf93	srli	x31,x25,0xe	 x25:0xe94dc8c0 x31=0x0003a537
       14525000	      1451	80000924	010eb033	sltu	x0,x29,x16	 x29:0x00000006 x16:0xa9000000
       14535000	      1452	80000928	ffb28293	addi	x5,x5,-5	  x5:0x00000007  x5=0x00000002
       14545000	      1453	8000092c	ff429ce3	bne	x5,x20,80000924	  x5:0x00000002 x20:0xfffffffd
       14555000	      1454	00000000	00000013	addi	x0,x0,0	  x0:0x00000000
       14565000	      1455	80000920	00000013	addi	x0,x0,0	  x0:0x00000000
       14575000	      1456	80000924	010eb033	sltu	x0,x29,x16	 x29:0x00000006 x16:0xa9000000
       14585000	      1457	80000928	ffb28293	addi	x5,x5,-5	  x5:0x00000002  x5=0xfffffffd
       14595000	      1458	8000092c	ff429ce3	bne	x5,x20,80000924	  x5:0xfffffffd x20:0xfffffffd
       14605000	      1459	80000930	3c09c017	auipc	x0,0x3c09c	
       14615000	      1460	80000934	fd1c46e3	blt	x24,x17,80000900	 x24:0x00000005 x17:0x00000004
       14625000	      1461	80000938	b1ae2693	slti	x13,x28,-1254	 x28:0x00000000 x13=0x00000000
       14635000	      1462	8000093c	00700613	addi	x12,x0,7	  x0:0x00000000 x12=0x00000007
       14645000	      1463	80000940	0013c033	xor	x0,x7,x1	  x7:0x00000000  x1:0x00000000
       14655000	      1464	80000944	51c6c2b7	lui	x5,0x51c6c	  x5=0x51c6c000
       14665000	      1465	80000948	01300113	addi	x2,x0,19	  x0:0x00000000  x2=0x00000013
       14675000	      1466	8000094c	003f4c33	xor	x24,x30,x3	 x30:0x0000000f  x3:0x800098a9 x24=0x800098a6
       14685000	      1467	80000950	00b36233	or	x4,x6,x11	  x6:0x80009fc4 x11:0xffffff47  x4=0xffffffc7
       14695000	      1468	80000954	00260613	addi	x12,x12,2	 x12:0x00000007 x12=0x00000009
       14705000	      1469	80000958	01da9013	slli	x0,x21,0x1d	 x21:0x8000005f
       14715000	      1470	8000095c	fe2648e3	blt	x12,x2,8000094c	 x12:0x00000009  x2:0x00000013
       14725000	      1471	00000000	00000013	addi	x0,x0,0	  x0:0x00000000
       14735000	      1472	80000948	00000013	addi	x0,x0,0	  x0:0x00000000
       14745000	      1473	8000094c	003f4c33	xor	x24,x30,x3	 x30:0x0000000f  x3:0x800098a9 x24=0x800098a6
       14755000	      1474	80000950	00b36233	or	x4,x6,x11	  x6:0x80009fc4 x11:0xffffff47  x4=0xffffffc7
       14765000	      1475	80000954	00260613	addi	x12,x12,2	 x12:0x00000009 x12=0x0000000b
       14775000	      1476	80000958	01da9013	slli	x0,x21,0x1d	 x21:0x8000005f
       14785000	      1477	8000095c	fe2648e3	blt	x12,x2,8000094c	 x12:0x0000000b  x2:0x00000013
       14795000	      1478	00000000	00000013	addi	x0,x0,0	  x0:0x00000000
       14805000	      1479	80000948	00000013	addi	x0,x0,0	  x0:0x00000000
       14815000	      1480	8000094c	003f4c33	xor	x24,x30,x3	 x30:0x0000000f  x3:0x800098a9 x24=0x800098a6
       14825000	      1481	80000950	00b36233	or	x4,x6,x11	  x6:0x80009fc4 x11:0xffffff47  x4=0xffffffc7
       14835000	      1482	80000954	00260613	addi	x12,x12,2	 x12:0x0000000b x12=0x0000000d
       14845000	      1483	80000958	01da9013	slli	x0,x21,0x1d	 x21:0x8000005f
       14855000	      1484	8000095c	fe2648e3	blt	x12,x2,8000094c	 x12:0x0000000d  x2:0x00000013
       14865000	      1485	00000000	00000013	addi	x0,x0,0	  x0:0x00000000
       14875000	      1486	80000948	00000013	addi	x0,x0,0	  x0:0x00000000
       14885000	      1487	8000094c	003f4c33	xor	x24,x30,x3	 x30:0x0000000f  x3:0x800098a9 x24=0x800098a6
       14895000	      1488	80000950	00b36233	or	x4,x6,x11	  x6:0x80009fc4 x11:0xffffff47  x4=0xffffffc7
       14905000	      1489	80000954	00260613	addi	x12,x12,2	 x12:0x0000000d x12=0x0000000f
       14915000	      1490	80000958	01da9013	slli	x0,x21,0x1d	 x21:0x8000005f
       14925000	      1491	8000095c	fe2648e3	blt	x12,x2,8000094c	 x12:0x0000000f  x2:0x00000013
       14935000	      1492	00000000	00000013	addi	x0,x0,0	  x0:0x00000000
       14945000	      1493	80000948	00000013	addi	x0,x0,0	  x0:0x00000000
       14955000	      1494	8000094c	003f4c33	xor	x24,x30,x3	 x30:0x0000000f  x3:0x800098a9 x24=0x800098a6
       14965000	      1495	80000950	00b36233	or	x4,x6,x11	  x6:0x80009fc4 x11:0xffffff47  x4=0xffffffc7
       14975000	      1496	80000954	00260613	addi	x12,x12,2	 x12:0x0000000f x12=0x00000011
       14985000	      1497	80000958	01da9013	slli	x0,x21,0x1d	 x21:0x8000005f
       14995000	      1498	8000095c	fe2648e3	blt	x12,x2,8000094c	 x12:0x00000011  x2:0x00000013
       15005000	      1499	00000000	00000013	addi	x0,x0,0	  x0:0x00000000
       15015000	      1500	80000948	00000013	addi	x0,x0,0	  x0:0x00000000
       15025000	      1501	8000094c	003f4c33	xor	x24,x30,x3	 x30:0x0000000f  x3:0x800098a9 x24=0x800098a6
       15035000	      1502	80000950	00b36233	or	x4,x6,x11	  x6:0x80009fc4 x11:0xffffff47  x4=0xffffffc7
       15045000	      1503	80000954	00260613	addi	x12,x12,2	 x12:0x00000011 x12=0x00000013
       15055000	      1504	80000958	01da9013	slli	x0,x21,0x1d	 x21:0x8000005f
       15065000	      1505	8000095c	fe2648e3	blt	x12,x2,8000094c	 x12:0x00000013  x2:0x00000013
       15075000	      1506	80000960	8aa0ad93	slti	x27,x1,-1878	  x1:0x00000000 x27=0x00000000
       15085000	      1507	80000964	02ac0c63	beq	x24,x10,8000099c	 x24:0x800098a6 x10:0x80000000
       15095000	      1508	80000968	0a9dc7b7	lui	x15,0xa9dc	 x15=0x0a9dc000
       15105000	      1509	8000096c	007155b3	srl	x11,x2,x7	  x2:0x00000013  x7:0x00000000 x11=0x00000013
       15115000	      1510	80000970	e4070c13	addi	x24,x14,-448	 x14:0x00000394 x24=0x000001d4
       15125000	      1511	80000974	23ff6d93	ori	x27,x30,575	 x30:0x0000000f x27=0x0000023f
       15135000	      1512	80000978	014bad33	slt	x26,x23,x20	 x23:0xffffffff x20:0xfffffffd x26=0x00000000
       15145000	      1513	8000097c	016ec863	blt	x29,x22,8000098c	 x29:0x00000006 x22:0x447d4878
       15155000	      1514	00000000	00000013	addi	x0,x0,0	  x0:0x00000000
       15165000	      1515	80000988	00000013	addi	x0,x0,0	  x0:0x00000000
       15175000	      1516	8000098c	045c8263	beq	x25,x5,800009d0	 x25:0xe94dc8c0  x5:0x51c6c000
       15185000	      1517	80000990	00704663	blt	x0,x7,8000099c	  x0:0x00000000  x7:0x00000000
       15195000	      1518	80000994	01a55d93	srli	x27,x10,0x1a	 x10:0x80000000 x27=0x00000020
       15205000	      1519	80000998	40a7dab3	sra	x21,x15,x10	 x15:0x0a9dc000 x10:0x80000000 x21=0x0a9dc000
       15215000	      1520	8000099c	0132e033	or	x0,x5,x19	  x5:0x51c6c000 x19:0x80000000
       15225000	      1521	800009a0	404e0a33	sub	x20,x28,x4	 x28:0x00000000  x4:0xffffffc7 x20=0x00000039
       15235000	      1522	800009a4	0549e263	bltu	x19,x20,800009e8	 x19:0x80000000 x20:0x00000039
       15245000	      1523	800009a8	8ffd1417	auipc	x8,0x8ffd1	  x8=0x0ffd19a4
       15255000	      1524	800009ac	0053a033	slt	x0,x7,x5	  x7:0x00000000  x5:0x51c6c000
       15265000	      1525	800009b0	000a9093	slli	x1,x21,0x0	 x21:0x0a9dc000  x1=0x0a9dc000
       15275000	      1526	800009b4	34e94913	xori	x18,x18,846	 x18:0xfffffff2 x18=0xfffffcbc
       15285000	      1527	800009b8	83864c93	xori	x25,x12,-1992	 x12:0x00000013 x25=0xfffff82b
       15295000	      1528	800009bc	00cdb3b3	sltu	x7,x27,x12	 x27:0x00000020 x12:0x00000013  x7=0x00000000
       15305000	      1529	800009c0	1578c693	xori	x13,x17,343	 x17:0x00000004 x13=0x00000153
       15315000	      1530	800009c4	00719c93	slli	x25,x3,0x7	  x3:0x800098a9 x25=0x004c5480
       15325000	      1531	800009c8	0030d993	srli	x19,x1,0x3	  x1:0x0a9dc000 x19=0x0153b800
       15335000	      1532	800009cc	7e643b93	sltiu	x23,x8,2022	  x8:0x0ffd19a4 x23=0x00000000
       15345000	      1533	800009d0	01ec5b33	srl	x22,x24,x30	 x24:0x000001d4 x30:0x0000000f x22=0x00000000
       15355000	      1534	800009d4	01c6b1b3	sltu	x3,x13,x28	 x13:0x00000153 x28:0x00000000  x3=0x00000000
       15365000	      1535	800009d8	01ae7eb3	and	x29,x28,x26	 x28:0x00000000 x26:0x00000000 x29=0x00000000
       15375000	      1536	800009dc	0127e463	bltu	x15,x18,800009e4	 x15:0x0a9dc000 x18:0xfffffcbc
       15385000	      1537	00000000	00000013	addi	x0,x0,0	  x0:0x00000000
       15395000	      1538	800009e0	00000013	addi	x0,x0,0	  x0:0x00000000
       15405000	      1539	800009e4	0a0b3393	sltiu	x7,x22,160	 x22:0x00000000  x7=0x00000001
       15415000	      1540	800009e8	00000013	addi	x0,x0,0	  x0:0x00000000
       15425000	      1541	800009ec	00c656b3	srl	x13,x12,x12	 x12:0x00000013 x12:0x00000013 x13=0x00000000
       15435000	      1542	800009f0	4074d813	srai	x16,x9,0x7	  x9:0x80009f84 x16=0xff00013f
       15445000	      1543	800009f4	00c65663	bge	x12,x12,80000a00	 x12:0x00000013 x12:0x00000013
       15455000	      1544	00000000	00000013	addi	x0,x0,0	  x0:0x00000000
       15465000	      1545	800009fc	00000013	addi	x0,x0,0	  x0:0x00000000
       15475000	      1546	80000a00	016d0c63	beq	x26,x22,80000a18	 x26:0x00000000 x22:0x00000000
       15485000	      1547	00000000	00000013	addi	x0,x0,0	  x0:0x00000000
       15495000	      1548	80000a14	00000013	addi	x0,x0,0	  x0:0x00000000
       15505000	      1549	80000a18	00352233	slt	x4,x10,x3	 x10:0x80000000  x3:0x00000000  x4=0x00000001
       15515000	      1550	80000a1c	01708033	add	x0,x1,x23	  x1:0x0a9dc000 x23:0x00000000
       15525000	      1551	80000a20	0145c8b3	xor	x17,x11,x20	 x11:0x00000013 x20:0x00000039 x17=0x0000002a
       15535000	      1552	80000a24	013c0ab3	add	x21,x24,x19	 x24:0x000001d4 x19:0x0153b800 x21=0x0153b9d4
       15545000	      1553	80000a28	03b75e63	bge	x14,x27,80000a64	 x14:0x00000394 x27:0x00000020
       15555000	      1554	00000000	00000013	addi	x0,x0,0	  x0:0x00000000
       15565000	      1555	80000a60	00000013	addi	x0,x0,0	  x0:0x00000000
       15575000	      1556	80000a64	9494b793	sltiu	x15,x9,-1719	  x9:0x80009f84 x15=0x00000001
       15585000	      1557	80000a68	005dd193	srli	x3,x27,0x5	 x27:0x00000020  x3=0x00000001
       15595000	      1558	80000a6c	012ff6b3	and	x13,x31,x18	 x31:0x0003a537 x18:0xfffffcbc x13=0x0003a434
       15605000	      1559	80000a70	00164863	blt	x12,x1,80000a80	 x12:0x00000013  x1:0x0a9dc000
       15615000	      1560	00000000	00000013	addi	x0,x0,0	  x0:0x00000000
       15625000	      1561	80000a7c	00000013	addi	x0,x0,0	  x0:0x00000000
       15635000	      1562	80000a80	e7367613	andi	x12,x12,-397	 x12:0x00000013 x12=0x00000013
       15645000	      1563	80000a84	01d841b3	xor	x3,x16,x29	 x16:0xff00013f x29:0x00000000  x3=0xff00013f
       15655000	      1564	80000a88	f0898d13	addi	x26,x19,-248	 x19:0x0153b800 x26=0x0153b708
       15665000	      1565	80000a8c	0ab34063	blt	x6,x11,80000b2c	  x6:0x80009fc4 x11:0x00000013
       15675000	      1566	00000000	00000013	addi	x0,x0,0	  x0:0x00000000
       15685000	      1567	80000b28	00000013	addi	x0,x0,0	  x0:0x00000000
       15695000	      1568	80000b2c	6d2f8f13	addi	x30,x31,1746	 x31:0x0003a537 x30=0x0003ac09
       15705000	      1569	80000b30	40295a93	srai	x21,x18,0x2	 x18:0xfffffcbc x21=0xffffff2f
       15715000	      1570	80000b34	01a34663	blt	x6,x26,80000b40	  x6:0x80009fc4 x26:0x0153b708
       15725000	      1571	00000000	00000013	addi	x0,x0,0	  x0:0x00000000
       15735000	      1572	80000b3c	00000013	addi	x0,x0,0	  x0:0x00000000
       15745000	      1573	80000b40	2a89bb93	sltiu	x23,x19,680	 x19:0x0153b800 x23=0x00000000
       15755000	      1574	80000b44	415e0eb3	sub	x29,x28,x21	 x28:0x00000000 x21:0xffffff2f x29=0x000000d1
       15765000	      1575	80000b48	00c77033	and	x0,x14,x12	 x14:0x00000394 x12:0x00000013
       15775000	      1576	80000b4c	41c0dc93	srai	x25,x1,0x1c	  x1:0x0a9dc000 x25=0x00000000
       15785000	      1577	80000b50	0149ba33	sltu	x20,x19,x20	 x19:0x0153b800 x20:0x00000039 x20=0x00000000
       15795000	      1578	80000b54	00f7ca63	blt	x15,x15,80000b68	 x15:0x00000001 x15:0x00000001
       15805000	      1579	80000b58	40c25b13	srai	x22,x4,0xc	  x4:0x00000001 x22=0x00000000
       15815000	      1580	80000b5c	00d5d7b3	srl	x15,x11,x13	 x11:0x00000013 x13:0x0003a434 x15=0x00000000
       15825000	      1581	80000b60	002c5113	srli	x2,x24,0x2	 x24:0x000001d4  x2=0x00000075
       15835000	      1582	80000b64	02cc9863	bne	x25,x12,80000b94	 x25:0x00000000 x12:0x00000013
       15845000	      1583	00000000	00000013	addi	x0,x0,0	  x0:0x00000000
       15855000	      1584	80000b90	00000013	addi	x0,x0,0	  x0:0x00000000
       15865000	      1585	80000b94	014da2b3	slt	x5,x27,x20	 x27:0x00000020 x20:0x00000000  x5=0x00000000
       15875000	      1586	80000b98	7df80d13	addi	x26,x16,2015	 x16:0xff00013f x26=0xff00091e
       15885000	      1587	80000b9c	00122cb3	slt	x25,x4,x1	  x4:0x00000001  x1:0x0a9dc000 x25=0x00000001
       15895000	      1588	80000ba0	caa50d93	addi	x27,x10,-854	 x10:0x80000000 x27=0x7ffffcaa
       15905000	      1589	80000ba4	40c78d33	sub	x26,x15,x12	 x15:0x00000000 x12:0x00000013 x26=0xffffffed
       15915000	      1590	80000ba8	015e4c63	blt	x28,x21,80000bc0	 x28:0x00000000 x21:0xffffff2f
       15925000	      1591	80000bac	010bf633	and	x12,x23,x16	 x23:0x00000000 x16:0xff00013f x12=0x00000000
       15935000	      1592	80000bb0	018093b3	sll	x7,x1,x24	  x1:0x0a9dc000 x24:0x000001d4  x7=0x00000000
       15945000	      1593	80000bb4	02fcc863	blt	x25,x15,80000be4	 x25:0x00000001 x15:0x00000000
       15955000	      1594	80000bb8	006aea33	or	x20,x21,x6	 x21:0xffffff2f  x6:0x80009fc4 x20=0xffffffef
       15965000	      1595	80000bbc	00ca3f33	sltu	x30,x20,x12	 x20:0xffffffef x12:0x00000000 x30=0x00000000
       15975000	      1596	80000bc0	00e36c33	or	x24,x6,x14	  x6:0x80009fc4 x14:0x00000394 x24=0x80009fd4
       15985000	      1597	80000bc4	0045c663	blt	x11,x4,80000bd0	 x11:0x00000013  x4:0x00000001
       15995000	      1598	80000bc8	03691c63	bne	x18,x22,80000c00	 x18:0xfffffcbc x22:0x00000000
       16005000	      1599	00000000	00000013	addi	x0,x0,0	  x0:0x00000000
       16015000	      1600	80000bfc	00000013	addi	x0,x0,0	  x0:0x00000000
       16025000	      1601	80000c00	000d1213	slli	x4,x26,0x0	 x26:0xffffffed  x4=0xffffffed
       16035000	      1602	80000c04	f549e813	ori	x16,x19,-172	 x19:0x0153b800 x16=0xffffff54
       16045000	      1603	80000c08	9e4fef93	ori	x31,x31,-1564	 x31:0x0003a537 x31=0xfffffdf7
       16055000	      1604	80000c0c	911de693	ori	x13,x27,-1775	 x27:0x7ffffcaa x13=0xfffffdbb
       16065000	      1605	80000c10	f499b913	sltiu	x18,x19,-183	 x19:0x0153b800 x18=0x00000001
       16075000	      1606	80000c14	40700d33	sub	x26,x0,x7	  x0:0x00000000  x7:0x00000000 x26=0x00000000
       16085000	      1607	80000c18	9efc8613	addi	x12,x25,-1553	 x25:0x00000001 x12=0xfffff9f0
       16095000	      1608	80000c1c	00b35e13	srli	x28,x6,0xb	  x6:0x80009fc4 x28=0x00100013
       16105000	      1609	80000c20	00509863	bne	x1,x5,80000c30	  x1:0x0a9dc000  x5:0x00000000
       16115000	      1610	00000000	00000013	addi	x0,x0,0	  x0:0x00000000
       16125000	      1611	80000c2c	00000013	addi	x0,x0,0	  x0:0x00000000
       16135000	      1612	80000c30	8c554293	xori	x5,x10,-1851	 x10:0x80000000  x5=0x7ffff8c5
       16145000	      1613	80000c34	00c28663	beq	x5,x12,80000c40	  x5:0x7ffff8c5 x12:0xfffff9f0
       16155000	      1614	80000c38	00b66133	or	x2,x12,x11	 x12:0xfffff9f0 x11:0x00000013  x2=0xfffff9f3
       16165000	      1615	80000c3c	009fa433	slt	x8,x31,x9	 x31:0xfffffdf7  x9:0x80009f84  x8=0x00000000
       16175000	      1616	80000c40	00b21833	sll	x16,x4,x11	  x4:0xffffffed x11:0x00000013 x16=0xff680000
       16185000	      1617	80000c44	a46d2113	slti	x2,x26,-1466	 x26:0x00000000  x2=0x00000000
       16195000	      1618	80000c48	00000013	addi	x0,x0,0	  x0:0x00000000
       16205000	      1619	80000c4c	01176133	or	x2,x14,x17	 x14:0x00000394 x17:0x0000002a  x2=0x000003be
       16215000	      1620	80000c50	412c0133	sub	x2,x24,x18	 x24:0x80009fd4 x18:0x00000001  x2=0x80009fd3
       16225000	      1621	80000c54	d4ae6d13	ori	x26,x28,-694	 x28:0x00100013 x26=0xfffffd5b
       16235000	      1622	80000c58	05a4fb93	andi	x23,x9,90	  x9:0x80009f84 x23=0x00000000
       16245000	      1623	80000c5c	40490ab3	sub	x21,x18,x4	 x18:0x00000001  x4:0xffffffed x21=0x00000014
       16255000	      1624	80000c60	dae43393	sltiu	x7,x8,-594	  x8:0x00000000  x7=0x00000001
       16265000	      1625	80000c64	00439613	slli	x12,x7,0x4	  x7:0x00000001 x12=0x00000010
       16275000	      1626	80000c68	0b66d263	bge	x13,x22,80000d0c	 x13:0xfffffdbb x22:0x00000000
       16285000	      1627	80000c6c	00855a93	srli	x21,x10,0x8	 x10:0x80000000 x21=0x00800000
       16295000	      1628	80000c70	ce2abe13	sltiu	x28,x21,-798	 x21:0x00800000 x28=0x00000001
       16305000	      1629	80000c74	40cad793	srai	x15,x21,0xc	 x21:0x00800000 x15=0x00000800
       16315000	      1630	80000c78	41fddc33	sra	x24,x27,x31	 x27:0x7ffffcaa x31:0xfffffdf7 x24=0x000000ff
       16325000	      1631	80000c7c	0121df33	srl	x30,x3,x18	  x3:0xff00013f x18:0x00000001 x30=0x7f80009f
       16335000	      1632	80000c80	17ad5bb7	lui	x23,0x17ad5	 x23=0x17ad5000
       16345000	      1633	80000c84	1daec113	xori	x2,x29,474	 x29:0x000000d1  x2=0x0000010b
       16355000	      1634	80000c88	069c9863	bne	x25,x9,80000cf8	 x25:0x00000001  x9:0x80009f84
       16365000	      1635	00000000	00000013	addi	x0,x0,0	  x0:0x00000000
       16375000	      1636	80000cf4	00000013	addi	x0,x0,0	  x0:0x00000000
       16385000	      1637	80000cf8	22138a93	addi	x21,x7,545	  x7:0x00000001 x21=0x00000222
       16395000	      1638	80000cfc	41d45893	srai	x17,x8,0x1d	  x8:0x00000000 x17=0x00000000
       16405000	      1639	80000d00	d874be37	lui	x28,0xd874b	 x28=0xd874b000
       16415000	      1640	80000d04	000b1a93	slli	x21,x22,0x0	 x22:0x00000000 x21=0x00000000
       16425000	      1641	80000d08	01911863	bne	x2,x25,80000d18	  x2:0x0000010b x25:0x00000001
       16435000	      1642	00000000	00000013	addi	x0,x0,0	  x0:0x00000000
       16445000	      1643	80000d14	00000013	addi	x0,x0,0	  x0:0x00000000
       16455000	      1644	80000d18	01e97c63	bgeu	x18,x30,80000d30	 x18:0x00000001 x30:0x7f80009f
       16465000	      1645	80000d1c	014351b3	srl	x3,x6,x20	  x6:0x80009fc4 x20:0xffffffef  x3=0x00010001
       16475000	      1646	80000d20	00200eb3	add	x29,x0,x2	  x0:0x00000000  x2:0x0000010b x29=0x0000010b
       16485000	      1647	80000d24	41e4dab3	sra	x21,x9,x30	  x9:0x80009f84 x30:0x7f80009f x21=0xffffffff
       16495000	      1648	80000d28	00747c63	bgeu	x8,x7,80000d40	  x8:0x00000000  x7:0x00000001
       16505000	      1649	80000d2c	b530b913	sltiu	x18,x1,-1197	  x1:0x0a9dc000 x18=0x00000001
       16515000	      1650	80000d30	5b9a25b7	lui	x11,0x5b9a2	 x11=0x5b9a2000
       16525000	      1651	80000d34	04ebd063	bge	x23,x14,80000d74	 x23:0x17ad5000 x14:0x00000394
       16535000	      1652	00000000	00000013	addi	x0,x0,0	  x0:0x00000000
       16545000	      1653	80000d70	00000013	addi	x0,x0,0	  x0:0x00000000
       16555000	      1654	80000d74	dbc9cc97	auipc	x25,0xdbc9c	 x25=0x5bc9cd70
       16565000	      1655	80000d78	0135e6b3	or	x13,x11,x19	 x11:0x5b9a2000 x19:0x0153b800 x13=0x5bdbb800
       16575000	      1656	80000d7c	db2d6c13	ori	x24,x26,-590	 x26:0xfffffd5b x24=0xfffffdfb
       16585000	      1657	80000d80	00088a63	beq	x17,x0,80000d94	 x17:0x00000000  x0:0x00000000
       16595000	      1658	00000000	00000013	addi	x0,x0,0	  x0:0x00000000
       16605000	      1659	80000d90	00000013	addi	x0,x0,0	  x0:0x00000000
       16615000	      1660	80000d94	00059c93	slli	x25,x11,0x0	 x11:0x5b9a2000 x25=0x5b9a2000
       16625000	      1661	80000d98	00921cb3	sll	x25,x4,x9	  x4:0xffffffed  x9:0x80009f84 x25=0xfffffed0
       16635000	      1662	80000d9c	8c2a4ab7	lui	x21,0x8c2a4	 x21=0x8c2a4000
       16645000	      1663	80000da0	00000013	addi	x0,x0,0	  x0:0x00000000
       16655000	      1664	80000da4	0195d733	srl	x14,x11,x25	 x11:0x5b9a2000 x25:0xfffffed0 x14=0x00005b9a
       16665000	      1665	80000da8	00000013	addi	x0,x0,0	  x0:0x00000000
       16675000	      1666	80000dac	50f02c13	slti	x24,x0,1295	  x0:0x00000000 x24=0x00000001
       16685000	      1667	80000db0	01910663	beq	x2,x25,80000dbc	  x2:0x0000010b x25:0xfffffed0
       16695000	      1668	80000db4	02e77863	bgeu	x14,x14,80000de4	 x14:0x00005b9a x14:0x00005b9a
       16705000	      1669	00000000	00000013	addi	x0,x0,0	  x0:0x00000000
       16715000	      1670	80000de0	00000013	addi	x0,x0,0	  x0:0x00000000
       16725000	      1671	80000de4	004fcc63	blt	x31,x4,80000dfc	 x31:0xfffffdf7  x4:0xffffffed
       16735000	      1672	00000000	00000013	addi	x0,x0,0	  x0:0x00000000
       16745000	      1673	80000df8	00000013	addi	x0,x0,0	  x0:0x00000000
       16755000	      1674	80000dfc	00a1d8b3	srl	x17,x3,x10	  x3:0x00010001 x10:0x80000000 x17=0x00010001
       16765000	      1675	80000e00	01d992b3	sll	x5,x19,x29	 x19:0x0153b800 x29:0x0000010b  x5=0x9dc00000
       16775000	      1676	80000e04	007a7663	bgeu	x20,x7,80000e10	 x20:0xffffffef  x7:0x00000001
       16785000	      1677	00000000	00000013	addi	x0,x0,0	  x0:0x00000000
       16795000	      1678	80000e0c	00000013	addi	x0,x0,0	  x0:0x00000000
       16805000	      1679	80000e10	7c3f8a13	addi	x20,x31,1987	 x31:0xfffffdf7 x20=0x000005ba
       16815000	      1680	80000e14	0299fe63	bgeu	x19,x9,80000e50	 x19:0x0153b800  x9:0x80009f84
       16825000	      1681	80000e18	9b00ec13	ori	x24,x1,-1616	  x1:0x0a9dc000 x24=0xfffff9b0
       16835000	      1682	80000e1c	00cd1f13	slli	x30,x26,0xc	 x26:0xfffffd5b x30=0xffd5b000
       16845000	      1683	80000e20	02984663	blt	x16,x9,80000e4c	 x16:0xff680000  x9:0x80009f84
       16855000	      1684	80000e24	01f10463	beq	x2,x31,80000e2c	  x2:0x0000010b x31:0xfffffdf7
       16865000	      1685	80000e28	04fae263	bltu	x21,x15,80000e6c	 x21:0x8c2a4000 x15:0x00000800
       16875000	      1686	80000e2c	b1ab8a17	auipc	x20,0xb1ab8	 x20=0x31ab8e28
       16885000	      1687	80000e30	031e1863	bne	x28,x17,80000e60	 x28:0xd874b000 x17:0x00010001
       16895000	      1688	00000000	00000013	addi	x0,x0,0	  x0:0x00000000
       16905000	      1689	80000e5c	00000013	addi	x0,x0,0	  x0:0x00000000
       16915000	      1690	80000e60	01698a33	add	x20,x19,x22	 x19:0x0153b800 x22:0x00000000 x20=0x0153b800
       16925000	      1691	80000e64	026afc63	bgeu	x21,x6,80000e9c	 x21:0x8c2a4000  x6:0x80009fc4
       16935000	      1692	00000000	00000013	addi	x0,x0,0	  x0:0x00000000
       16945000	      1693	80000e98	00000013	addi	x0,x0,0	  x0:0x00000000
       16955000	      1694	80000e9c	037fcc63	blt	x31,x23,80000ed4	 x31:0xfffffdf7 x23:0x17ad5000
       16965000	      1695	00000000	00000013	addi	x0,x0,0	  x0:0x00000000
       16975000	      1696	80000ed0	00000013	addi	x0,x0,0	  x0:0x00000000
       16985000	      1697	80000ed4	4117d5b3	sra	x11,x15,x17	 x15:0x00000800 x17:0x00010001 x11=0x00000400
       16995000	      1698	80000ed8	d803b993	sltiu	x19,x7,-640	  x7:0x00000001 x19=0x00000001
       17005000	      1699	80000edc	010dfbb3	and	x23,x27,x16	 x27:0x7ffffcaa x16:0xff680000 x23=0x7f680000
       17015000	      1700	80000ee0	00000013	addi	x0,x0,0	  x0:0x00000000
       17025000	      1701	80000ee4	0099dc63	bge	x19,x9,80000efc	 x19:0x00000001  x9:0x80009f84
       17035000	      1702	00000000	00000013	addi	x0,x0,0	  x0:0x00000000
       17045000	      1703	80000ef8	00000013	addi	x0,x0,0	  x0:0x00000000
       17055000	      1704	80000efc	6e2ff813	andi	x16,x31,1762	 x31:0xfffffdf7 x16=0x000004e2
       17065000	      1705	80000f00	01cba2b3	slt	x5,x23,x28	 x23:0x7f680000 x28:0xd874b000  x5=0x00000000
       17075000	      1706	80000f04	01be9a13	slli	x20,x29,0x1b	 x29:0x0000010b x20=0x58000000
       17085000	      1707	80000f08	00400293	addi	x5,x0,4	  x0:0x00000000  x5=0x00000004
       17095000	      1708	80000f0c	d820ed13	ori	x26,x1,-638	  x1:0x0a9dc000 x26=0xfffffd82
       17105000	      1709	80000f10	fec00993	addi	x19,x0,-20	  x0:0x00000000 x19=0xffffffec
       17115000	      1710	80000f14	08632137	lui	x2,0x8632	  x2=0x08632000
       17125000	      1711	80000f18	9c3ba217	auipc	x4,0x9c3ba	  x4=0x1c3baf14
       17135000	      1712	80000f1c	01d48bb3	add	x23,x9,x29	  x9:0x80009f84 x29:0x0000010b x23=0x8000a08f
       17145000	      1713	80000f20	01306bb3	or	x23,x0,x19	  x0:0x00000000 x19:0xffffffec x23=0xffffffec
       17155000	      1714	80000f24	5315ac93	slti	x25,x11,1329	 x11:0x00000400 x25=0x00000001
       17165000	      1715	80000f28	ffd28293	addi	x5,x5,-3	  x5:0x00000004  x5=0x00000001
       17175000	      1716	80000f2c	01cefab3	and	x21,x29,x28	 x29:0x0000010b x28:0xd874b000 x21=0x00000000
       17185000	      1717	80000f30	0176b8b3	sltu	x17,x13,x23	 x13:0x5bdbb800 x23:0xffffffec x17=0x00000001
       17195000	      1718	80000f34	00000013	addi	x0,x0,0	  x0:0x00000000
       17205000	      1719	80000f38	ffa00393	addi	x7,x0,-6	  x0:0x00000000  x7=0xfffffffa
       17215000	      1720	80000f3c	a3206693	ori	x13,x0,-1486	  x0:0x00000000 x13=0xfffffa32
       17225000	      1721	80000f40	00600093	addi	x1,x0,6	  x0:0x00000000  x1=0x00000006
       17235000	      1722	80000f44	8a2b1e17	auipc	x28,0x8a2b1	 x28=0x0a2b1f40
       17245000	      1723	80000f48	004496b3	sll	x13,x9,x4	  x9:0x80009f84  x4:0x1c3baf14 x13=0xf8400000
       17255000	      1724	80000f4c	003bf133	and	x2,x23,x3	 x23:0xffffffec  x3:0x00010001  x2=0x00010000
       17265000	      1725	80000f50	40140eb3	sub	x29,x8,x1	  x8:0x00000000  x1:0x00000006 x29=0xfffffffa
       17275000	      1726	80000f54	00838393	addi	x7,x7,8	  x7:0xfffffffa  x7=0x00000002
       17285000	      1727	80000f58	00000013	addi	x0,x0,0	  x0:0x00000000
       17295000	      1728	80000f5c	0017fe33	and	x28,x15,x1	 x15:0x00000800  x1:0x00000006 x28=0x00000000
       17305000	      1729	80000f60	fe13e6e3	bltu	x7,x1,80000f4c	  x7:0x00000002  x1:0x00000006
       17315000	      1730	00000000	00000013	addi	x0,x0,0	  x0:0x00000000
       17325000	      1731	80000f48	00000013	addi	x0,x0,0	  x0:0x00000000
       17335000	      1732	80000f4c	003bf133	and	x2,x23,x3	 x23:0xffffffec  x3:0x00010001  x2=0x00010000
       17345000	      1733	80000f50	40140eb3	sub	x29,x8,x1	  x8:0x00000000  x1:0x00000006 x29=0xfffffffa
       17355000	      1734	80000f54	00838393	addi	x7,x7,8	  x7:0x00000002  x7=0x0000000a
       17365000	      1735	80000f58	00000013	addi	x0,x0,0	  x0:0x00000000
       17375000	      1736	80000f5c	0017fe33	and	x28,x15,x1	 x15:0x00000800  x1:0x00000006 x28=0x00000000
       17385000	      1737	80000f60	fe13e6e3	bltu	x7,x1,80000f4c	  x7:0x0000000a  x1:0x00000006
       17395000	      1738	80000f64	40cedd33	sra	x26,x29,x12	 x29:0xfffffffa x12:0x00000010 x26=0xffffffff
       17405000	      1739	80000f68	007e0c33	add	x24,x28,x7	 x28:0x00000000  x7:0x0000000a x24=0x0000000a
       17415000	      1740	80000f6c	00fc2fb3	slt	x31,x24,x15	 x24:0x0000000a x15:0x00000800 x31=0x00000001
       17425000	      1741	80000f70	4127d893	srai	x17,x15,0x12	 x15:0x00000800 x17=0x00000000
       17435000	      1742	80000f74	4001d593	srai	x11,x3,0x0	  x3:0x00010001 x11=0x00010001
       17445000	      1743	80000f78	01e8ceb3	xor	x29,x17,x30	 x17:0x00000000 x30:0xffd5b000 x29=0xffd5b000
       17455000	      1744	80000f7c	6cadce13	xori	x28,x27,1738	 x27:0x7ffffcaa x28=0x7ffffa60
       17465000	      1745	80000f80	fb3292e3	bne	x5,x19,80000f24	  x5:0x00000001 x19:0xffffffec
       17475000	      1746	00000000	00000013	addi	x0,x0,0	  x0:0x00000000
       17485000	      1747	80000f20	00000013	addi	x0,x0,0	  x0:0x00000000
       17495000	      1748	80000f24	5315ac93	slti	x25,x11,1329	 x11:0x00010001 x25=0x00000000
       17505000	      1749	80000f28	ffd28293	addi	x5,x5,-3	  x5:0x00000001  x5=0xfffffffe
       17515000	      1750	80000f2c	01cefab3	and	x21,x29,x28	 x29:0xffd5b000 x28:0x7ffffa60 x21=0x7fd5b000
       17525000	      1751	80000f30	0176b8b3	sltu	x17,x13,x23	 x13:0xf8400000 x23:0xffffffec x17=0x00000001
       17535000	      1752	80000f34	00000013	addi	x0,x0,0	  x0:0x00000000
       17545000	      1753	80000f38	ffa00393	addi	x7,x0,-6	  x0:0x00000000  x7=0xfffffffa
       17555000	      1754	80000f3c	a3206693	ori	x13,x0,-1486	  x0:0x00000000 x13=0xfffffa32
       17565000	      1755	80000f40	00600093	addi	x1,x0,6	  x0:0x00000000  x1=0x00000006
       17575000	      1756	80000f44	8a2b1e17	auipc	x28,0x8a2b1	 x28=0x0a2b1f40
       17585000	      1757	80000f48	004496b3	sll	x13,x9,x4	  x9:0x80009f84  x4:0x1c3baf14 x13=0xf8400000
       17595000	      1758	80000f4c	003bf133	and	x2,x23,x3	 x23:0xffffffec  x3:0x00010001  x2=0x00010000
       17605000	      1759	80000f50	40140eb3	sub	x29,x8,x1	  x8:0x00000000  x1:0x00000006 x29=0xfffffffa
       17615000	      1760	80000f54	00838393	addi	x7,x7,8	  x7:0xfffffffa  x7=0x00000002
       17625000	      1761	80000f58	00000013	addi	x0,x0,0	  x0:0x00000000
       17635000	      1762	80000f5c	0017fe33	and	x28,x15,x1	 x15:0x00000800  x1:0x00000006 x28=0x00000000
       17645000	      1763	80000f60	fe13e6e3	bltu	x7,x1,80000f4c	  x7:0x00000002  x1:0x00000006
       17655000	      1764	00000000	00000013	addi	x0,x0,0	  x0:0x00000000
       17665000	      1765	80000f48	00000013	addi	x0,x0,0	  x0:0x00000000
       17675000	      1766	80000f4c	003bf133	and	x2,x23,x3	 x23:0xffffffec  x3:0x00010001  x2=0x00010000
       17685000	      1767	80000f50	40140eb3	sub	x29,x8,x1	  x8:0x00000000  x1:0x00000006 x29=0xfffffffa
       17695000	      1768	80000f54	00838393	addi	x7,x7,8	  x7:0x00000002  x7=0x0000000a
       17705000	      1769	80000f58	00000013	addi	x0,x0,0	  x0:0x00000000
       17715000	      1770	80000f5c	0017fe33	and	x28,x15,x1	 x15:0x00000800  x1:0x00000006 x28=0x00000000
       17725000	      1771	80000f60	fe13e6e3	bltu	x7,x1,80000f4c	  x7:0x0000000a  x1:0x00000006
       17735000	      1772	80000f64	40cedd33	sra	x26,x29,x12	 x29:0xfffffffa x12:0x00000010 x26=0xffffffff
       17745000	      1773	80000f68	007e0c33	add	x24,x28,x7	 x28:0x00000000  x7:0x0000000a x24=0x0000000a
       17755000	      1774	80000f6c	00fc2fb3	slt	x31,x24,x15	 x24:0x0000000a x15:0x00000800 x31=0x00000001
       17765000	      1775	80000f70	4127d893	srai	x17,x15,0x12	 x15:0x00000800 x17=0x00000000
       17775000	      1776	80000f74	4001d593	srai	x11,x3,0x0	  x3:0x00010001 x11=0x00010001
       17785000	      1777	80000f78	01e8ceb3	xor	x29,x17,x30	 x17:0x00000000 x30:0xffd5b000 x29=0xffd5b000
       17795000	      1778	80000f7c	6cadce13	xori	x28,x27,1738	 x27:0x7ffffcaa x28=0x7ffffa60
       17805000	      1779	80000f80	fb3292e3	bne	x5,x19,80000f24	  x5:0xfffffffe x19:0xffffffec
       17815000	      1780	00000000	00000013	addi	x0,x0,0	  x0:0x00000000
       17825000	      1781	80000f20	00000013	addi	x0,x0,0	  x0:0x00000000
       17835000	      1782	80000f24	5315ac93	slti	x25,x11,1329	 x11:0x00010001 x25=0x00000000
       17845000	      1783	80000f28	ffd28293	addi	x5,x5,-3	  x5:0xfffffffe  x5=0xfffffffb
       17855000	      1784	80000f2c	01cefab3	and	x21,x29,x28	 x29:0xffd5b000 x28:0x7ffffa60 x21=0x7fd5b000
       17865000	      1785	80000f30	0176b8b3	sltu	x17,x13,x23	 x13:0xf8400000 x23:0xffffffec x17=0x00000001
       17875000	      1786	80000f34	00000013	addi	x0,x0,0	  x0:0x00000000
       17885000	      1787	80000f38	ffa00393	addi	x7,x0,-6	  x0:0x00000000  x7=0xfffffffa
       17895000	      1788	80000f3c	a3206693	ori	x13,x0,-1486	  x0:0x00000000 x13=0xfffffa32
       17905000	      1789	80000f40	00600093	addi	x1,x0,6	  x0:0x00000000  x1=0x00000006
       17915000	      1790	80000f44	8a2b1e17	auipc	x28,0x8a2b1	 x28=0x0a2b1f40
       17925000	      1791	80000f48	004496b3	sll	x13,x9,x4	  x9:0x80009f84  x4:0x1c3baf14 x13=0xf8400000
       17935000	      1792	80000f4c	003bf133	and	x2,x23,x3	 x23:0xffffffec  x3:0x00010001  x2=0x00010000
       17945000	      1793	80000f50	40140eb3	sub	x29,x8,x1	  x8:0x00000000  x1:0x00000006 x29=0xfffffffa
       17955000	      1794	80000f54	00838393	addi	x7,x7,8	  x7:0xfffffffa  x7=0x00000002
       17965000	      1795	80000f58	00000013	addi	x0,x0,0	  x0:0x00000000
       17975000	      1796	80000f5c	0017fe33	and	x28,x15,x1	 x15:0x00000800  x1:0x00000006 x28=0x00000000
       17985000	      1797	80000f60	fe13e6e3	bltu	x7,x1,80000f4c	  x7:0x00000002  x1:0x00000006
       17995000	      1798	00000000	00000013	addi	x0,x0,0	  x0:0x00000000
       18005000	      1799	80000f48	00000013	addi	x0,x0,0	  x0:0x00000000
       18015000	      1800	80000f4c	003bf133	and	x2,x23,x3	 x23:0xffffffec  x3:0x00010001  x2=0x00010000
       18025000	      1801	80000f50	40140eb3	sub	x29,x8,x1	  x8:0x00000000  x1:0x00000006 x29=0xfffffffa
       18035000	      1802	80000f54	00838393	addi	x7,x7,8	  x7:0x00000002  x7=0x0000000a
       18045000	      1803	80000f58	00000013	addi	x0,x0,0	  x0:0x00000000
       18055000	      1804	80000f5c	0017fe33	and	x28,x15,x1	 x15:0x00000800  x1:0x00000006 x28=0x00000000
       18065000	      1805	80000f60	fe13e6e3	bltu	x7,x1,80000f4c	  x7:0x0000000a  x1:0x00000006
       18075000	      1806	80000f64	40cedd33	sra	x26,x29,x12	 x29:0xfffffffa x12:0x00000010 x26=0xffffffff
       18085000	      1807	80000f68	007e0c33	add	x24,x28,x7	 x28:0x00000000  x7:0x0000000a x24=0x0000000a
       18095000	      1808	80000f6c	00fc2fb3	slt	x31,x24,x15	 x24:0x0000000a x15:0x00000800 x31=0x00000001
       18105000	      1809	80000f70	4127d893	srai	x17,x15,0x12	 x15:0x00000800 x17=0x00000000
       18115000	      1810	80000f74	4001d593	srai	x11,x3,0x0	  x3:0x00010001 x11=0x00010001
       18125000	      1811	80000f78	01e8ceb3	xor	x29,x17,x30	 x17:0x00000000 x30:0xffd5b000 x29=0xffd5b000
       18135000	      1812	80000f7c	6cadce13	xori	x28,x27,1738	 x27:0x7ffffcaa x28=0x7ffffa60
       18145000	      1813	80000f80	fb3292e3	bne	x5,x19,80000f24	  x5:0xfffffffb x19:0xffffffec
       18155000	      1814	00000000	00000013	addi	x0,x0,0	  x0:0x00000000
       18165000	      1815	80000f20	00000013	addi	x0,x0,0	  x0:0x00000000
       18175000	      1816	80000f24	5315ac93	slti	x25,x11,1329	 x11:0x00010001 x25=0x00000000
       18185000	      1817	80000f28	ffd28293	addi	x5,x5,-3	  x5:0xfffffffb  x5=0xfffffff8
       18195000	      1818	80000f2c	01cefab3	and	x21,x29,x28	 x29:0xffd5b000 x28:0x7ffffa60 x21=0x7fd5b000
       18205000	      1819	80000f30	0176b8b3	sltu	x17,x13,x23	 x13:0xf8400000 x23:0xffffffec x17=0x00000001
       18215000	      1820	80000f34	00000013	addi	x0,x0,0	  x0:0x00000000
       18225000	      1821	80000f38	ffa00393	addi	x7,x0,-6	  x0:0x00000000  x7=0xfffffffa
       18235000	      1822	80000f3c	a3206693	ori	x13,x0,-1486	  x0:0x00000000 x13=0xfffffa32
       18245000	      1823	80000f40	00600093	addi	x1,x0,6	  x0:0x00000000  x1=0x00000006
       18255000	      1824	80000f44	8a2b1e17	auipc	x28,0x8a2b1	 x28=0x0a2b1f40
       18265000	      1825	80000f48	004496b3	sll	x13,x9,x4	  x9:0x80009f84  x4:0x1c3baf14 x13=0xf8400000
       18275000	      1826	80000f4c	003bf133	and	x2,x23,x3	 x23:0xffffffec  x3:0x00010001  x2=0x00010000
       18285000	      1827	80000f50	40140eb3	sub	x29,x8,x1	  x8:0x00000000  x1:0x00000006 x29=0xfffffffa
       18295000	      1828	80000f54	00838393	addi	x7,x7,8	  x7:0xfffffffa  x7=0x00000002
       18305000	      1829	80000f58	00000013	addi	x0,x0,0	  x0:0x00000000
       18315000	      1830	80000f5c	0017fe33	and	x28,x15,x1	 x15:0x00000800  x1:0x00000006 x28=0x00000000
       18325000	      1831	80000f60	fe13e6e3	bltu	x7,x1,80000f4c	  x7:0x00000002  x1:0x00000006
       18335000	      1832	00000000	00000013	addi	x0,x0,0	  x0:0x00000000
       18345000	      1833	80000f48	00000013	addi	x0,x0,0	  x0:0x00000000
       18355000	      1834	80000f4c	003bf133	and	x2,x23,x3	 x23:0xffffffec  x3:0x00010001  x2=0x00010000
       18365000	      1835	80000f50	40140eb3	sub	x29,x8,x1	  x8:0x00000000  x1:0x00000006 x29=0xfffffffa
       18375000	      1836	80000f54	00838393	addi	x7,x7,8	  x7:0x00000002  x7=0x0000000a
       18385000	      1837	80000f58	00000013	addi	x0,x0,0	  x0:0x00000000
       18395000	      1838	80000f5c	0017fe33	and	x28,x15,x1	 x15:0x00000800  x1:0x00000006 x28=0x00000000
       18405000	      1839	80000f60	fe13e6e3	bltu	x7,x1,80000f4c	  x7:0x0000000a  x1:0x00000006
       18415000	      1840	80000f64	40cedd33	sra	x26,x29,x12	 x29:0xfffffffa x12:0x00000010 x26=0xffffffff
       18425000	      1841	80000f68	007e0c33	add	x24,x28,x7	 x28:0x00000000  x7:0x0000000a x24=0x0000000a
       18435000	      1842	80000f6c	00fc2fb3	slt	x31,x24,x15	 x24:0x0000000a x15:0x00000800 x31=0x00000001
       18445000	      1843	80000f70	4127d893	srai	x17,x15,0x12	 x15:0x00000800 x17=0x00000000
       18455000	      1844	80000f74	4001d593	srai	x11,x3,0x0	  x3:0x00010001 x11=0x00010001
       18465000	      1845	80000f78	01e8ceb3	xor	x29,x17,x30	 x17:0x00000000 x30:0xffd5b000 x29=0xffd5b000
       18475000	      1846	80000f7c	6cadce13	xori	x28,x27,1738	 x27:0x7ffffcaa x28=0x7ffffa60
       18485000	      1847	80000f80	fb3292e3	bne	x5,x19,80000f24	  x5:0xfffffff8 x19:0xffffffec
       18495000	      1848	00000000	00000013	addi	x0,x0,0	  x0:0x00000000
       18505000	      1849	80000f20	00000013	addi	x0,x0,0	  x0:0x00000000
       18515000	      1850	80000f24	5315ac93	slti	x25,x11,1329	 x11:0x00010001 x25=0x00000000
       18525000	      1851	80000f28	ffd28293	addi	x5,x5,-3	  x5:0xfffffff8  x5=0xfffffff5
       18535000	      1852	80000f2c	01cefab3	and	x21,x29,x28	 x29:0xffd5b000 x28:0x7ffffa60 x21=0x7fd5b000
       18545000	      1853	80000f30	0176b8b3	sltu	x17,x13,x23	 x13:0xf8400000 x23:0xffffffec x17=0x00000001
       18555000	      1854	80000f34	00000013	addi	x0,x0,0	  x0:0x00000000
       18565000	      1855	80000f38	ffa00393	addi	x7,x0,-6	  x0:0x00000000  x7=0xfffffffa
       18575000	      1856	80000f3c	a3206693	ori	x13,x0,-1486	  x0:0x00000000 x13=0xfffffa32
       18585000	      1857	80000f40	00600093	addi	x1,x0,6	  x0:0x00000000  x1=0x00000006
       18595000	      1858	80000f44	8a2b1e17	auipc	x28,0x8a2b1	 x28=0x0a2b1f40
       18605000	      1859	80000f48	004496b3	sll	x13,x9,x4	  x9:0x80009f84  x4:0x1c3baf14 x13=0xf8400000
       18615000	      1860	80000f4c	003bf133	and	x2,x23,x3	 x23:0xffffffec  x3:0x00010001  x2=0x00010000
       18625000	      1861	80000f50	40140eb3	sub	x29,x8,x1	  x8:0x00000000  x1:0x00000006 x29=0xfffffffa
       18635000	      1862	80000f54	00838393	addi	x7,x7,8	  x7:0xfffffffa  x7=0x00000002
       18645000	      1863	80000f58	00000013	addi	x0,x0,0	  x0:0x00000000
       18655000	      1864	80000f5c	0017fe33	and	x28,x15,x1	 x15:0x00000800  x1:0x00000006 x28=0x00000000
       18665000	      1865	80000f60	fe13e6e3	bltu	x7,x1,80000f4c	  x7:0x00000002  x1:0x00000006
       18675000	      1866	00000000	00000013	addi	x0,x0,0	  x0:0x00000000
       18685000	      1867	80000f48	00000013	addi	x0,x0,0	  x0:0x00000000
       18695000	      1868	80000f4c	003bf133	and	x2,x23,x3	 x23:0xffffffec  x3:0x00010001  x2=0x00010000
       18705000	      1869	80000f50	40140eb3	sub	x29,x8,x1	  x8:0x00000000  x1:0x00000006 x29=0xfffffffa
       18715000	      1870	80000f54	00838393	addi	x7,x7,8	  x7:0x00000002  x7=0x0000000a
       18725000	      1871	80000f58	00000013	addi	x0,x0,0	  x0:0x00000000
       18735000	      1872	80000f5c	0017fe33	and	x28,x15,x1	 x15:0x00000800  x1:0x00000006 x28=0x00000000
       18745000	      1873	80000f60	fe13e6e3	bltu	x7,x1,80000f4c	  x7:0x0000000a  x1:0x00000006
       18755000	      1874	80000f64	40cedd33	sra	x26,x29,x12	 x29:0xfffffffa x12:0x00000010 x26=0xffffffff
       18765000	      1875	80000f68	007e0c33	add	x24,x28,x7	 x28:0x00000000  x7:0x0000000a x24=0x0000000a
       18775000	      1876	80000f6c	00fc2fb3	slt	x31,x24,x15	 x24:0x0000000a x15:0x00000800 x31=0x00000001
       18785000	      1877	80000f70	4127d893	srai	x17,x15,0x12	 x15:0x00000800 x17=0x00000000
       18795000	      1878	80000f74	4001d593	srai	x11,x3,0x0	  x3:0x00010001 x11=0x00010001
       18805000	      1879	80000f78	01e8ceb3	xor	x29,x17,x30	 x17:0x00000000 x30:0xffd5b000 x29=0xffd5b000
       18815000	      1880	80000f7c	6cadce13	xori	x28,x27,1738	 x27:0x7ffffcaa x28=0x7ffffa60
       18825000	      1881	80000f80	fb3292e3	bne	x5,x19,80000f24	  x5:0xfffffff5 x19:0xffffffec
       18835000	      1882	00000000	00000013	addi	x0,x0,0	  x0:0x00000000
       18845000	      1883	80000f20	00000013	addi	x0,x0,0	  x0:0x00000000
       18855000	      1884	80000f24	5315ac93	slti	x25,x11,1329	 x11:0x00010001 x25=0x00000000
       18865000	      1885	80000f28	ffd28293	addi	x5,x5,-3	  x5:0xfffffff5  x5=0xfffffff2
       18875000	      1886	80000f2c	01cefab3	and	x21,x29,x28	 x29:0xffd5b000 x28:0x7ffffa60 x21=0x7fd5b000
       18885000	      1887	80000f30	0176b8b3	sltu	x17,x13,x23	 x13:0xf8400000 x23:0xffffffec x17=0x00000001
       18895000	      1888	80000f34	00000013	addi	x0,x0,0	  x0:0x00000000
       18905000	      1889	80000f38	ffa00393	addi	x7,x0,-6	  x0:0x00000000  x7=0xfffffffa
       18915000	      1890	80000f3c	a3206693	ori	x13,x0,-1486	  x0:0x00000000 x13=0xfffffa32
       18925000	      1891	80000f40	00600093	addi	x1,x0,6	  x0:0x00000000  x1=0x00000006
       18935000	      1892	80000f44	8a2b1e17	auipc	x28,0x8a2b1	 x28=0x0a2b1f40
       18945000	      1893	80000f48	004496b3	sll	x13,x9,x4	  x9:0x80009f84  x4:0x1c3baf14 x13=0xf8400000
       18955000	      1894	80000f4c	003bf133	and	x2,x23,x3	 x23:0xffffffec  x3:0x00010001  x2=0x00010000
       18965000	      1895	80000f50	40140eb3	sub	x29,x8,x1	  x8:0x00000000  x1:0x00000006 x29=0xfffffffa
       18975000	      1896	80000f54	00838393	addi	x7,x7,8	  x7:0xfffffffa  x7=0x00000002
       18985000	      1897	80000f58	00000013	addi	x0,x0,0	  x0:0x00000000
       18995000	      1898	80000f5c	0017fe33	and	x28,x15,x1	 x15:0x00000800  x1:0x00000006 x28=0x00000000
       19005000	      1899	80000f60	fe13e6e3	bltu	x7,x1,80000f4c	  x7:0x00000002  x1:0x00000006
       19015000	      1900	00000000	00000013	addi	x0,x0,0	  x0:0x00000000
       19025000	      1901	80000f48	00000013	addi	x0,x0,0	  x0:0x00000000
       19035000	      1902	80000f4c	003bf133	and	x2,x23,x3	 x23:0xffffffec  x3:0x00010001  x2=0x00010000
       19045000	      1903	80000f50	40140eb3	sub	x29,x8,x1	  x8:0x00000000  x1:0x00000006 x29=0xfffffffa
       19055000	      1904	80000f54	00838393	addi	x7,x7,8	  x7:0x00000002  x7=0x0000000a
       19065000	      1905	80000f58	00000013	addi	x0,x0,0	  x0:0x00000000
       19075000	      1906	80000f5c	0017fe33	and	x28,x15,x1	 x15:0x00000800  x1:0x00000006 x28=0x00000000
       19085000	      1907	80000f60	fe13e6e3	bltu	x7,x1,80000f4c	  x7:0x0000000a  x1:0x00000006
       19095000	      1908	80000f64	40cedd33	sra	x26,x29,x12	 x29:0xfffffffa x12:0x00000010 x26=0xffffffff
       19105000	      1909	80000f68	007e0c33	add	x24,x28,x7	 x28:0x00000000  x7:0x0000000a x24=0x0000000a
       19115000	      1910	80000f6c	00fc2fb3	slt	x31,x24,x15	 x24:0x0000000a x15:0x00000800 x31=0x00000001
       19125000	      1911	80000f70	4127d893	srai	x17,x15,0x12	 x15:0x00000800 x17=0x00000000
       19135000	      1912	80000f74	4001d593	srai	x11,x3,0x0	  x3:0x00010001 x11=0x00010001
       19145000	      1913	80000f78	01e8ceb3	xor	x29,x17,x30	 x17:0x00000000 x30:0xffd5b000 x29=0xffd5b000
       19155000	      1914	80000f7c	6cadce13	xori	x28,x27,1738	 x27:0x7ffffcaa x28=0x7ffffa60
       19165000	      1915	80000f80	fb3292e3	bne	x5,x19,80000f24	  x5:0xfffffff2 x19:0xffffffec
       19175000	      1916	00000000	00000013	addi	x0,x0,0	  x0:0x00000000
       19185000	      1917	80000f20	00000013	addi	x0,x0,0	  x0:0x00000000
       19195000	      1918	80000f24	5315ac93	slti	x25,x11,1329	 x11:0x00010001 x25=0x00000000
       19205000	      1919	80000f28	ffd28293	addi	x5,x5,-3	  x5:0xfffffff2  x5=0xffffffef
       19215000	      1920	80000f2c	01cefab3	and	x21,x29,x28	 x29:0xffd5b000 x28:0x7ffffa60 x21=0x7fd5b000
       19225000	      1921	80000f30	0176b8b3	sltu	x17,x13,x23	 x13:0xf8400000 x23:0xffffffec x17=0x00000001
       19235000	      1922	80000f34	00000013	addi	x0,x0,0	  x0:0x00000000
       19245000	      1923	80000f38	ffa00393	addi	x7,x0,-6	  x0:0x00000000  x7=0xfffffffa
       19255000	      1924	80000f3c	a3206693	ori	x13,x0,-1486	  x0:0x00000000 x13=0xfffffa32
       19265000	      1925	80000f40	00600093	addi	x1,x0,6	  x0:0x00000000  x1=0x00000006
       19275000	      1926	80000f44	8a2b1e17	auipc	x28,0x8a2b1	 x28=0x0a2b1f40
       19285000	      1927	80000f48	004496b3	sll	x13,x9,x4	  x9:0x80009f84  x4:0x1c3baf14 x13=0xf8400000
       19295000	      1928	80000f4c	003bf133	and	x2,x23,x3	 x23:0xffffffec  x3:0x00010001  x2=0x00010000
       19305000	      1929	80000f50	40140eb3	sub	x29,x8,x1	  x8:0x00000000  x1:0x00000006 x29=0xfffffffa
       19315000	      1930	80000f54	00838393	addi	x7,x7,8	  x7:0xfffffffa  x7=0x00000002
       19325000	      1931	80000f58	00000013	addi	x0,x0,0	  x0:0x00000000
       19335000	      1932	80000f5c	0017fe33	and	x28,x15,x1	 x15:0x00000800  x1:0x00000006 x28=0x00000000
       19345000	      1933	80000f60	fe13e6e3	bltu	x7,x1,80000f4c	  x7:0x00000002  x1:0x00000006
       19355000	      1934	00000000	00000013	addi	x0,x0,0	  x0:0x00000000
       19365000	      1935	80000f48	00000013	addi	x0,x0,0	  x0:0x00000000
       19375000	      1936	80000f4c	003bf133	and	x2,x23,x3	 x23:0xffffffec  x3:0x00010001  x2=0x00010000
       19385000	      1937	80000f50	40140eb3	sub	x29,x8,x1	  x8:0x00000000  x1:0x00000006 x29=0xfffffffa
       19395000	      1938	80000f54	00838393	addi	x7,x7,8	  x7:0x00000002  x7=0x0000000a
       19405000	      1939	80000f58	00000013	addi	x0,x0,0	  x0:0x00000000
       19415000	      1940	80000f5c	0017fe33	and	x28,x15,x1	 x15:0x00000800  x1:0x00000006 x28=0x00000000
       19425000	      1941	80000f60	fe13e6e3	bltu	x7,x1,80000f4c	  x7:0x0000000a  x1:0x00000006
       19435000	      1942	80000f64	40cedd33	sra	x26,x29,x12	 x29:0xfffffffa x12:0x00000010 x26=0xffffffff
       19445000	      1943	80000f68	007e0c33	add	x24,x28,x7	 x28:0x00000000  x7:0x0000000a x24=0x0000000a
       19455000	      1944	80000f6c	00fc2fb3	slt	x31,x24,x15	 x24:0x0000000a x15:0x00000800 x31=0x00000001
       19465000	      1945	80000f70	4127d893	srai	x17,x15,0x12	 x15:0x00000800 x17=0x00000000
       19475000	      1946	80000f74	4001d593	srai	x11,x3,0x0	  x3:0x00010001 x11=0x00010001
       19485000	      1947	80000f78	01e8ceb3	xor	x29,x17,x30	 x17:0x00000000 x30:0xffd5b000 x29=0xffd5b000
       19495000	      1948	80000f7c	6cadce13	xori	x28,x27,1738	 x27:0x7ffffcaa x28=0x7ffffa60
       19505000	      1949	80000f80	fb3292e3	bne	x5,x19,80000f24	  x5:0xffffffef x19:0xffffffec
       19515000	      1950	00000000	00000013	addi	x0,x0,0	  x0:0x00000000
       19525000	      1951	80000f20	00000013	addi	x0,x0,0	  x0:0x00000000
       19535000	      1952	80000f24	5315ac93	slti	x25,x11,1329	 x11:0x00010001 x25=0x00000000
       19545000	      1953	80000f28	ffd28293	addi	x5,x5,-3	  x5:0xffffffef  x5=0xffffffec
       19555000	      1954	80000f2c	01cefab3	and	x21,x29,x28	 x29:0xffd5b000 x28:0x7ffffa60 x21=0x7fd5b000
       19565000	      1955	80000f30	0176b8b3	sltu	x17,x13,x23	 x13:0xf8400000 x23:0xffffffec x17=0x00000001
       19575000	      1956	80000f34	00000013	addi	x0,x0,0	  x0:0x00000000
       19585000	      1957	80000f38	ffa00393	addi	x7,x0,-6	  x0:0x00000000  x7=0xfffffffa
       19595000	      1958	80000f3c	a3206693	ori	x13,x0,-1486	  x0:0x00000000 x13=0xfffffa32
       19605000	      1959	80000f40	00600093	addi	x1,x0,6	  x0:0x00000000  x1=0x00000006
       19615000	      1960	80000f44	8a2b1e17	auipc	x28,0x8a2b1	 x28=0x0a2b1f40
       19625000	      1961	80000f48	004496b3	sll	x13,x9,x4	  x9:0x80009f84  x4:0x1c3baf14 x13=0xf8400000
       19635000	      1962	80000f4c	003bf133	and	x2,x23,x3	 x23:0xffffffec  x3:0x00010001  x2=0x00010000
       19645000	      1963	80000f50	40140eb3	sub	x29,x8,x1	  x8:0x00000000  x1:0x00000006 x29=0xfffffffa
       19655000	      1964	80000f54	00838393	addi	x7,x7,8	  x7:0xfffffffa  x7=0x00000002
       19665000	      1965	80000f58	00000013	addi	x0,x0,0	  x0:0x00000000
       19675000	      1966	80000f5c	0017fe33	and	x28,x15,x1	 x15:0x00000800  x1:0x00000006 x28=0x00000000
       19685000	      1967	80000f60	fe13e6e3	bltu	x7,x1,80000f4c	  x7:0x00000002  x1:0x00000006
       19695000	      1968	00000000	00000013	addi	x0,x0,0	  x0:0x00000000
       19705000	      1969	80000f48	00000013	addi	x0,x0,0	  x0:0x00000000
       19715000	      1970	80000f4c	003bf133	and	x2,x23,x3	 x23:0xffffffec  x3:0x00010001  x2=0x00010000
       19725000	      1971	80000f50	40140eb3	sub	x29,x8,x1	  x8:0x00000000  x1:0x00000006 x29=0xfffffffa
       19735000	      1972	80000f54	00838393	addi	x7,x7,8	  x7:0x00000002  x7=0x0000000a
       19745000	      1973	80000f58	00000013	addi	x0,x0,0	  x0:0x00000000
       19755000	      1974	80000f5c	0017fe33	and	x28,x15,x1	 x15:0x00000800  x1:0x00000006 x28=0x00000000
       19765000	      1975	80000f60	fe13e6e3	bltu	x7,x1,80000f4c	  x7:0x0000000a  x1:0x00000006
       19775000	      1976	80000f64	40cedd33	sra	x26,x29,x12	 x29:0xfffffffa x12:0x00000010 x26=0xffffffff
       19785000	      1977	80000f68	007e0c33	add	x24,x28,x7	 x28:0x00000000  x7:0x0000000a x24=0x0000000a
       19795000	      1978	80000f6c	00fc2fb3	slt	x31,x24,x15	 x24:0x0000000a x15:0x00000800 x31=0x00000001
       19805000	      1979	80000f70	4127d893	srai	x17,x15,0x12	 x15:0x00000800 x17=0x00000000
       19815000	      1980	80000f74	4001d593	srai	x11,x3,0x0	  x3:0x00010001 x11=0x00010001
       19825000	      1981	80000f78	01e8ceb3	xor	x29,x17,x30	 x17:0x00000000 x30:0xffd5b000 x29=0xffd5b000
       19835000	      1982	80000f7c	6cadce13	xori	x28,x27,1738	 x27:0x7ffffcaa x28=0x7ffffa60
       19845000	      1983	80000f80	fb3292e3	bne	x5,x19,80000f24	  x5:0xffffffec x19:0xffffffec
       19855000	      1984	80000f84	00198633	add	x12,x19,x1	 x19:0xffffffec  x1:0x00000006 x12=0xfffffff2
       19865000	      1985	80000f88	4076d3b3	sra	x7,x13,x7	 x13:0xf8400000  x7:0x0000000a  x7=0xfffe1000
       19875000	      1986	80000f8c	516d6b93	ori	x23,x26,1302	 x26:0xffffffff x23=0xffffffff
       19885000	      1987	80000f90	a8e7f993	andi	x19,x15,-1394	 x15:0x00000800 x19=0x00000800
       19895000	      1988	80000f94	05b28863	beq	x5,x27,80000fe4	  x5:0xffffffec x27:0x7ffffcaa
       19905000	      1989	80000f98	00a212b3	sll	x5,x4,x10	  x4:0x1c3baf14 x10:0x80000000  x5=0x1c3baf14
       19915000	      1990	80000f9c	03a1e663	bltu	x3,x26,80000fc8	  x3:0x00010001 x26:0xffffffff
       19925000	      1991	00000000	00000013	addi	x0,x0,0	  x0:0x00000000
       19935000	      1992	80000fc4	00000013	addi	x0,x0,0	  x0:0x00000000
       19945000	      1993	80000fc8	67ca7613	andi	x12,x20,1660	 x20:0x58000000 x12=0x00000000
       19955000	      1994	80000fcc	f4904293	xori	x5,x0,-183	  x0:0x00000000  x5=0xffffff49
       19965000	      1995	80000fd0	00000013	addi	x0,x0,0	  x0:0x00000000
       19975000	      1996	80000fd4	943e7393	andi	x7,x28,-1725	 x28:0x7ffffa60  x7=0x7ffff840
       19985000	      1997	80000fd8	228caf93	slti	x31,x25,552	 x25:0x00000000 x31=0x00000001
       19995000	      1998	80000fdc	00d37463	bgeu	x6,x13,80000fe4	  x6:0x80009fc4 x13:0xf8400000
       20005000	      1999	80000fe0	00000013	addi	x0,x0,0	  x0:0x00000000
       20015000	      2000	80000fe4	b7d59c37	lui	x24,0xb7d59	 x24=0xb7d59000
       20025000	      2001	80000fe8	00e8c663	blt	x17,x14,80000ff4	 x17:0x00000000 x14:0x00005b9a
       20035000	      2002	00000000	00000013	addi	x0,x0,0	  x0:0x00000000
       20045000	      2003	80000ff0	00000013	addi	x0,x0,0	  x0:0x00000000
       20055000	      2004	80000ff4	00505863	bge	x0,x5,80001004	  x0:0x00000000  x5:0xffffff49
       20065000	      2005	00000000	00000013	addi	x0,x0,0	  x0:0x00000000
       20075000	      2006	80001000	00000013	addi	x0,x0,0	  x0:0x00000000
       20085000	      2007	80001004	eec82e13	slti	x28,x16,-276	 x16:0x000004e2 x28=0x00000000
       20095000	      2008	80001008	01216fb3	or	x31,x2,x18	  x2:0x00010000 x18:0x00000001 x31=0x00010001
       20105000	      2009	8000100c	00c2c833	xor	x16,x5,x12	  x5:0xffffff49 x12:0x00000000 x16=0xffffff49
       20115000	      2010	80001010	00000013	addi	x0,x0,0	  x0:0x00000000
       20125000	      2011	80001014	00044fb3	xor	x31,x8,x0	  x8:0x00000000  x0:0x00000000 x31=0x00000000
       20135000	      2012	80001018	019e9f13	slli	x30,x29,0x19	 x29:0xffd5b000 x30=0x00000000
       20145000	      2013	8000101c	47ddb113	sltiu	x2,x27,1149	 x27:0x7ffffcaa  x2=0x00000000
       20155000	      2014	80001020	01549c33	sll	x24,x9,x21	  x9:0x80009f84 x21:0x7fd5b000 x24=0x80009f84
       20165000	      2015	80001024	0160dfb3	srl	x31,x1,x22	  x1:0x00000006 x22:0x00000000 x31=0x00000006
       20175000	      2016	80001028	0006ccb3	xor	x25,x13,x0	 x13:0xf8400000  x0:0x00000000 x25=0xf8400000
       20185000	      2017	8000102c	4112ddb3	sra	x27,x5,x17	  x5:0xffffff49 x17:0x00000000 x27=0xffffff49
       20195000	      2018	80001030	007d72b3	and	x5,x26,x7	 x26:0xffffffff  x7:0x7ffff840  x5=0x7ffff840
       20205000	      2019	80001034	030d0463	beq	x26,x16,8000105c	 x26:0xffffffff x16:0xffffff49
       20215000	      2020	80001038	8e3e8c93	addi	x25,x29,-1821	 x29:0xffd5b000 x25=0xffd5a8e3
       20225000	      2021	8000103c	0066e0b3	or	x1,x13,x6	 x13:0xf8400000  x6:0x80009fc4  x1=0xf8409fc4
       20235000	      2022	80001040	009c45b3	xor	x11,x24,x9	 x24:0x80009f84  x9:0x80009f84 x11=0x00000000
       20245000	      2023	80001044	5908e093	ori	x1,x17,1424	 x17:0x00000000  x1=0x00000590
       20255000	      2024	80001048	ac204893	xori	x17,x0,-1342	  x0:0x00000000 x17=0xfffffac2
       20265000	      2025	8000104c	00be0863	beq	x28,x11,8000105c	 x28:0x00000000 x11:0x00000000
       20275000	      2026	00000000	00000013	addi	x0,x0,0	  x0:0x00000000
       20285000	      2027	80001058	00000013	addi	x0,x0,0	  x0:0x00000000
       20295000	      2028	8000105c	01189133	sll	x2,x17,x17	 x17:0xfffffac2 x17:0xfffffac2  x2=0xffffeb08
       20305000	      2029	80001060	05929863	bne	x5,x25,800010b0	  x5:0x7ffff840 x25:0xffd5a8e3
       20315000	      2030	00000000	00000013	addi	x0,x0,0	  x0:0x00000000
       20325000	      2031	800010ac	00000013	addi	x0,x0,0	  x0:0x00000000
       20335000	      2032	800010b0	403650b3	sra	x1,x12,x3	 x12:0x00000000  x3:0x00010001  x1=0x00000000
       20345000	      2033	800010b4	0060b3b3	sltu	x7,x1,x6	  x1:0x00000000  x6:0x80009fc4  x7=0x00000001
       20355000	      2034	800010b8	00d90cb3	add	x25,x18,x13	 x18:0x00000001 x13:0xf8400000 x25=0xf8400001
       20365000	      2035	800010bc	0116abb3	slt	x23,x13,x17	 x13:0xf8400000 x17:0xfffffac2 x23=0x00000001
       20375000	      2036	800010c0	4015d6b3	sra	x13,x11,x1	 x11:0x00000000  x1:0x00000000 x13=0x00000000
       20385000	      2037	800010c4	bad80813	addi	x16,x16,-1107	 x16:0xffffff49 x16=0xfffffaf6
       20395000	      2038	800010c8	41b7d8b3	sra	x17,x15,x27	 x15:0x00000800 x27:0xffffff49 x17=0x00000004
       20405000	      2039	800010cc	9bc34e13	xori	x28,x6,-1604	  x6:0x80009fc4 x28=0x7fff6678
       20415000	      2040	800010d0	01ac5433	srl	x8,x24,x26	 x24:0x80009f84 x26:0xffffffff  x8=0x00000001
       20425000	      2041	800010d4	004f13b3	sll	x7,x30,x4	 x30:0x00000000  x4:0x1c3baf14  x7=0x00000000
       20435000	      2042	800010d8	aa07f913	andi	x18,x15,-1376	 x15:0x00000800 x18=0x00000800
       20445000	      2043	800010dc	01e86a33	or	x20,x16,x30	 x16:0xfffffaf6 x30:0x00000000 x20=0xfffffaf6
       20455000	      2044	800010e0	014e8a63	beq	x29,x20,800010f4	 x29:0xffd5b000 x20:0xfffffaf6
       20465000	      2045	800010e4	7e264a93	xori	x21,x12,2018	 x12:0x00000000 x21=0x000007e2
       20475000	      2046	800010e8	acf9f1b7	lui	x3,0xacf9f	  x3=0xacf9f000
       20485000	      2047	800010ec	f47f2b93	slti	x23,x30,-185	 x30:0x00000000 x23=0x00000000
       20495000	      2048	800010f0	01f9aeb3	slt	x29,x19,x31	 x19:0x00000800 x31:0x00000006 x29=0x00000000
       20505000	      2049	800010f4	04b97863	bgeu	x18,x11,80001144	 x18:0x00000800 x11:0x00000000
       20515000	      2050	00000000	00000013	addi	x0,x0,0	  x0:0x00000000
       20525000	      2051	80001140	00000013	addi	x0,x0,0	  x0:0x00000000
       20535000	      2052	80001144	da724197	auipc	x3,0xda724	  x3=0x5a725140
       20545000	      2053	80001148	41f4dbb3	sra	x23,x9,x31	  x9:0x80009f84 x31:0x00000006 x23=0xfe00027e
       20555000	      2054	8000114c	40d25b93	srai	x23,x4,0xd	  x4:0x1c3baf14 x23=0x0000e1dd
       20565000	      2055	80001150	01ae9733	sll	x14,x29,x26	 x29:0x00000000 x26:0xffffffff x14=0x00000000
       20575000	      2056	80001154	000aebb3	or	x23,x21,x0	 x21:0x000007e2  x0:0x00000000 x23=0x000007e2
       20585000	      2057	80001158	00000013	addi	x0,x0,0	  x0:0x00000000
       20595000	      2058	8000115c	01e639b3	sltu	x19,x12,x30	 x12:0x00000000 x30:0x00000000 x19=0x00000000
       20605000	      2059	80001160	4603b913	sltiu	x18,x7,1120	  x7:0x00000000 x18=0x00000001
       20615000	      2060	80001164	00fef1b3	and	x3,x29,x15	 x29:0x00000000 x15:0x00000800  x3=0x00000000
       20625000	      2061	80001168	03d41c63	bne	x8,x29,800011a0	  x8:0x00000001 x29:0x00000000
       20635000	      2062	00000000	00000013	addi	x0,x0,0	  x0:0x00000000
       20645000	      2063	8000119c	00000013	addi	x0,x0,0	  x0:0x00000000
       20655000	      2064	800011a0	016d2db3	slt	x27,x26,x22	 x26:0xffffffff x22:0x00000000 x27=0x00000001
       20665000	      2065	800011a4	82f62093	slti	x1,x12,-2001	 x12:0x00000000  x1=0x00000000
       20675000	      2066	800011a8	13d84a93	xori	x21,x16,317	 x16:0xfffffaf6 x21=0xfffffbcb
       20685000	      2067	800011ac	011fa933	slt	x18,x31,x17	 x31:0x00000006 x17:0x00000004 x18=0x00000000
       20695000	      2068	800011b0	4f82c993	xori	x19,x5,1272	  x5:0x7ffff840 x19=0x7ffffcb8
       20705000	      2069	800011b4	4134db93	srai	x23,x9,0x13	  x9:0x80009f84 x23=0xfffff000
       20715000	      2070	800011b8	007bd413	srli	x8,x23,0x7	 x23:0xfffff000  x8=0x01ffffe0
       20725000	      2071	800011bc	0105f663	bgeu	x11,x16,800011c8	 x11:0x00000000 x16:0xfffffaf6
       20735000	      2072	800011c0	01006cb3	or	x25,x0,x16	  x0:0x00000000 x16:0xfffffaf6 x25=0xfffffaf6
       20745000	      2073	800011c4	00ce70b3	and	x1,x28,x12	 x28:0x7fff6678 x12:0x00000000  x1=0x00000000
       20755000	      2074	800011c8	446639b7	lui	x19,0x44663	 x19=0x44663000
       20765000	      2075	800011cc	009038b3	sltu	x17,x0,x9	  x0:0x00000000  x9:0x80009f84 x17=0x00000001
       20775000	      2076	800011d0	05560463	beq	x12,x21,80001218	 x12:0x00000000 x21:0xfffffbcb
       20785000	      2077	800011d4	01a21093	slli	x1,x4,0x1a	  x4:0x1c3baf14  x1=0x50000000
       20795000	      2078	800011d8	008e9bb3	sll	x23,x29,x8	 x29:0x00000000  x8:0x01ffffe0 x23=0x00000000
       20805000	      2079	800011dc	3e842893	slti	x17,x8,1000	  x8:0x01ffffe0 x17=0x00000000
       20815000	      2080	800011e0	010c9663	bne	x25,x16,800011ec	 x25:0xfffffaf6 x16:0xfffffaf6
       20825000	      2081	800011e4	0063ddb3	srl	x27,x7,x6	  x7:0x00000000  x6:0x80009fc4 x27=0x00000000
       20835000	      2082	800011e8	01aad193	srli	x3,x21,0x1a	 x21:0xfffffbcb  x3=0x0000003f
       20845000	      2083	800011ec	3901ca93	xori	x21,x3,912	  x3:0x0000003f x21=0x000003af
       20855000	      2084	800011f0	0079c463	blt	x19,x7,800011f8	 x19:0x44663000  x7:0x00000000
       20865000	      2085	800011f4	9dfaa237	lui	x4,0x9dfaa	  x4=0x9dfaa000
       20875000	      2086	800011f8	00ac6f33	or	x30,x24,x10	 x24:0x80009f84 x10:0x80000000 x30=0x80009f84
       20885000	      2087	800011fc	25260693	addi	x13,x12,594	 x12:0x00000000 x13=0x00000252
       20895000	      2088	80001200	40b15eb3	sra	x29,x2,x11	  x2:0xffffeb08 x11:0x00000000 x29=0xffffeb08
       20905000	      2089	80001204	00000013	addi	x0,x0,0	  x0:0x00000000
       20915000	      2090	80001208	0194dcb3	srl	x25,x9,x25	  x9:0x80009f84 x25:0xfffffaf6 x25=0x00000200
       20925000	      2091	8000120c	04a89863	bne	x17,x10,8000125c	 x17:0x00000000 x10:0x80000000
       20935000	      2092	00000000	00000013	addi	x0,x0,0	  x0:0x00000000
       20945000	      2093	80001258	00000013	addi	x0,x0,0	  x0:0x00000000
       20955000	      2094	8000125c	96907893	andi	x17,x0,-1687	  x0:0x00000000 x17=0x00000000
       20965000	      2095	80001260	04d7f263	bgeu	x15,x13,800012a4	 x15:0x00000800 x13:0x00000252
       20975000	      2096	00000000	00000013	addi	x0,x0,0	  x0:0x00000000
       20985000	      2097	800012a0	00000013	addi	x0,x0,0	  x0:0x00000000
       20995000	      2098	800012a4	41a55a13	srai	x20,x10,0x1a	 x10:0x80000000 x20=0xffffffe0
       21005000	      2099	800012a8	00cb9e13	slli	x28,x23,0xc	 x23:0x00000000 x28=0x00000000
       21015000	      2100	800012ac	9f170013	addi	x0,x14,-1551	 x14:0x00000000
       21025000	      2101	800012b0	40b7db13	srai	x22,x15,0xb	 x15:0x00000800 x22=0x00000001
       21035000	      2102	800012b4	42c6c293	xori	x5,x13,1068	 x13:0x00000252  x5=0x0000067e
       21045000	      2103	800012b8	79aa3f13	sltiu	x30,x20,1946	 x20:0xffffffe0 x30=0x00000000
       21055000	      2104	800012bc	60078993	addi	x19,x15,1536	 x15:0x00000800 x19=0x00000e00
       21065000	      2105	800012c0	0104ec33	or	x24,x9,x16	  x9:0x80009f84 x16:0xfffffaf6 x24=0xfffffff6
       21075000	      2106	800012c4	0074abb3	slt	x23,x9,x7	  x9:0x80009f84  x7:0x00000000 x23=0x00000001
       21085000	      2107	800012c8	02e1de63	bge	x3,x14,80001304	  x3:0x0000003f x14:0x00000000
       21095000	      2108	00000000	00000013	addi	x0,x0,0	  x0:0x00000000
       21105000	      2109	80001300	00000013	addi	x0,x0,0	  x0:0x00000000
       21115000	      2110	80001304	413a5193	srai	x3,x20,0x13	 x20:0xffffffe0  x3=0xffffffff
       21125000	      2111	80001308	04c47063	bgeu	x8,x12,80001348	  x8:0x01ffffe0 x12:0x00000000
       21135000	      2112	00000000	00000013	addi	x0,x0,0	  x0:0x00000000
       21145000	      2113	80001344	00000013	addi	x0,x0,0	  x0:0x00000000
       21155000	      2114	80001348	00231613	slli	x12,x6,0x2	  x6:0x80009fc4 x12=0x00027f10
       21165000	      2115	8000134c	2ad77193	andi	x3,x14,685	 x14:0x00000000  x3=0x00000000
       21175000	      2116	80001350	7ca29437	lui	x8,0x7ca29	  x8=0x7ca29000
       21185000	      2117	80001354	41cb5bb3	sra	x23,x22,x28	 x22:0x00000001 x28:0x00000000 x23=0x00000001
       21195000	      2118	80001358	419689b3	sub	x19,x13,x25	 x13:0x00000252 x25:0x00000200 x19=0x00000052
       21205000	      2119	8000135c	034b8463	beq	x23,x20,80001384	 x23:0x00000001 x20:0xffffffe0
       21215000	      2120	80001360	0008efb3	or	x31,x17,x0	 x17:0x00000000  x0:0x00000000 x31=0x00000000
       21225000	      2121	80001364	31c8d1b7	lui	x3,0x31c8d	  x3=0x31c8d000
       21235000	      2122	80001368	00c45233	srl	x4,x8,x12	  x8:0x7ca29000 x12:0x00027f10  x4=0x00007ca2
       21245000	      2123	8000136c	008927b3	slt	x15,x18,x8	 x18:0x00000000  x8:0x7ca29000 x15=0x00000001
       21255000	      2124	80001370	4e147293	andi	x5,x8,1249	  x8:0x7ca29000  x5=0x00000000
       21265000	      2125	80001374	a59ef993	andi	x19,x29,-1447	 x29:0xffffeb08 x19=0xffffea08
       21275000	      2126	80001378	003b0233	add	x4,x22,x3	 x22:0x00000001  x3:0x31c8d000  x4=0x31c8d001
       21285000	      2127	8000137c	01be9e33	sll	x28,x29,x27	 x29:0xffffeb08 x27:0x00000000 x28=0xffffeb08
       21295000	      2128	80001380	02e30c63	beq	x6,x14,800013b8	  x6:0x80009fc4 x14:0x00000000
       21305000	      2129	80001384	016c2ab3	slt	x21,x24,x22	 x24:0xfffffff6 x22:0x00000001 x21=0x00000001
       21315000	      2130	80001388	01110e33	add	x28,x2,x17	  x2:0xffffeb08 x17:0x00000000 x28=0xffffeb08
       21325000	      2131	8000138c	00786b33	or	x22,x16,x7	 x16:0xfffffaf6  x7:0x00000000 x22=0xfffffaf6
       21335000	      2132	80001390	40b382b3	sub	x5,x7,x11	  x7:0x00000000 x11:0x00000000  x5=0x00000000
       21345000	      2133	80001394	01a04e63	blt	x0,x26,800013b0	  x0:0x00000000 x26:0xffffffff
       21355000	      2134	80001398	015f9d13	slli	x26,x31,0x15	 x31:0x00000000 x26=0x00000000
       21365000	      2135	8000139c	28ca3793	sltiu	x15,x20,652	 x20:0xffffffe0 x15=0x00000000
       21375000	      2136	800013a0	6ddf2393	slti	x7,x30,1757	 x30:0x00000000  x7=0x00000001
       21385000	      2137	800013a4	01e07733	and	x14,x0,x30	  x0:0x00000000 x30:0x00000000 x14=0x00000000
       21395000	      2138	800013a8	02528663	beq	x5,x5,800013d4	  x5:0x00000000  x5:0x00000000
       21405000	      2139	00000000	00000013	addi	x0,x0,0	  x0:0x00000000
       21415000	      2140	800013d0	00000013	addi	x0,x0,0	  x0:0x00000000
       21425000	      2141	800013d4	f321f713	andi	x14,x3,-206	  x3:0x31c8d000 x14=0x31c8d000
       21435000	      2142	800013d8	e8fec237	lui	x4,0xe8fec	  x4=0xe8fec000
       21445000	      2143	800013dc	01655893	srli	x17,x10,0x16	 x10:0x80000000 x17=0x00000200
       21455000	      2144	800013e0	00001f97	auipc	x31,0x1	 x31=0x800023dc
       21465000	      2145	800013e4	7d0f8f93	addi	x31,x31,2000	 x31:0x800023dc x31=0x80002bac
       21475000	      2146	800013e8	6b753637	lui	x12,0x6b753	 x12=0x6b753000
       21485000	      2147	800013ec	007f5233	srl	x4,x30,x7	 x30:0x00000000  x7:0x00000001  x4=0x00000000
       21495000	      2148	800013f0	0e1f8f93	addi	x31,x31,225	 x31:0x80002bac x31=0x80002c8d
       21505000	      2149	800013f4	00bc1013	slli	x0,x24,0xb	 x24:0xfffffff6
       21515000	      2150	800013f8	00000013	addi	x0,x0,0	  x0:0x00000000
       21525000	      2151	800013fc	01e56663	bltu	x10,x30,80001408	 x10:0x80000000 x30:0x00000000
       21535000	      2152	80001400	52493a93	sltiu	x21,x18,1316	 x18:0x00000000 x21=0x00000001
       21545000	      2153	80001404	012e5433	srl	x8,x28,x18	 x28:0xffffeb08 x18:0x00000000  x8=0xffffeb08
       21555000	      2154	80001408	f1ff80e7	jalr	x1,x31,-225	 x31:0x80002c8d  x1=0x80001408
       21565000	      2155	00000000	00000013	addi	x0,x0,0	  x0:0x00000000
       21575000	      2156	80002bac	00000013	addi	x0,x0,0	  x0:0x00000000
       21585000	      2157	80002bb0	01b38133	add	x2,x7,x27	  x7:0x00000001 x27:0x00000000  x2=0x00000001
       21595000	      2158	80002bb4	00000013	addi	x0,x0,0	  x0:0x00000000
       21605000	      2159	80002bb8	ff848493	addi	x9,x9,-8	  x9:0x80009f84  x9=0x80009f7c
       21615000	      2160	80002bbc	00000013	addi	x0,x0,0	  x0:0x00000000
       21625000	      2161	80002bc0	0014a223	sw	x1,4(x9)	  x9:0x80009f7c  x1:0x80001408 PA:0x80009f80
       21635000	      2162	80002bc4	e0b12f93	slti	x31,x2,-501	  x2:0x00000001 x31=0x00000000
       21645000	      2163	80002bc8	01097133	and	x2,x18,x16	 x18:0x00000000 x16:0xfffffaf6  x2=0x00000000
       21655000	      2164	80002bcc	01596033	or	x0,x18,x21	 x18:0x00000000 x21:0x00000001
       21665000	      2165	80002bd0	c9bff5b7	lui	x11,0xc9bff	 x11=0xc9bff000
       21675000	      2166	80002bd4	0067f6b3	and	x13,x15,x6	 x15:0x00000000  x6:0x80009fc4 x13=0x00000000
       21685000	      2167	80002bd8	4028d293	srai	x5,x17,0x2	 x17:0x00000200  x5=0x00000080
       21695000	      2168	80002bdc	b8d26d13	ori	x26,x4,-1139	  x4:0x00000000 x26=0xfffffb8d
       21705000	      2169	80002be0	c4068b93	addi	x23,x13,-960	 x13:0x00000000 x23=0xfffffc40
       21715000	      2170	80002be4	01fe2733	slt	x14,x28,x31	 x28:0xffffeb08 x31:0x00000000 x14=0x00000001
       21725000	      2171	80002be8	f6e2b013	sltiu	x0,x5,-146	  x5:0x00000080
       21735000	      2172	80002bec	30d4e397	auipc	x7,0x30d4e	  x7=0xb0d50be8
       21745000	      2173	80002bf0	ad661637	lui	x12,0xad661	 x12=0xad661000
       21755000	      2174	80002bf4	e028b613	sltiu	x12,x17,-510	 x17:0x00000200 x12=0x00000001
       21765000	      2175	80002bf8	40b08fb3	sub	x31,x1,x11	  x1:0x80001408 x11:0xc9bff000 x31=0xb6402408
       21775000	      2176	80002bfc	99dff0ef	jal	x1,80002bfc	  x1=0x80002bfc
       21785000	      2177	00000000	00000013	addi	x0,x0,0	  x0:0x00000000
       21795000	      2178	80002594	00000013	addi	x0,x0,0	  x0:0x00000000
       21805000	      2179	80002598	00a19d33	sll	x26,x3,x10	  x3:0x31c8d000 x10:0x80000000 x26=0x31c8d000
       21815000	      2180	8000259c	8ab6bf37	lui	x30,0x8ab6b	 x30=0x8ab6b000
       21825000	      2181	800025a0	bfc68993	addi	x19,x13,-1028	 x13:0x00000000 x19=0xfffffbfc
       21835000	      2182	800025a4	f478f993	andi	x19,x17,-185	 x17:0x00000200 x19=0x00000200
       21845000	      2183	800025a8	01815d13	srli	x26,x2,0x18	  x2:0x00000000 x26=0x00000000
       21855000	      2184	800025ac	00000013	addi	x0,x0,0	  x0:0x00000000
       21865000	      2185	800025b0	016cd263	bge	x25,x22,800025b4	 x25:0x00000200 x22:0xfffffaf6
       21875000	      2186	00000000	00000013	addi	x0,x0,0	  x0:0x00000000
       21885000	      2187	800025b0	00000013	addi	x0,x0,0	  x0:0x00000000
       21895000	      2188	800025b4	ff448493	addi	x9,x9,-12	  x9:0x80009f7c  x9=0x80009f70
       21905000	      2189	800025b8	00b34ab3	xor	x21,x6,x11	  x6:0x80009fc4 x11:0xc9bff000 x21=0x49bf6fc4
       21915000	      2190	800025bc	0014a223	sw	x1,4(x9)	  x9:0x80009f70  x1:0x80002bfc PA:0x80009f74
       21925000	      2191	800025c0	00370db3	add	x27,x14,x3	 x14:0x00000001  x3:0x31c8d000 x27=0x31c8d001
       21935000	      2192	800025c4	c4358913	addi	x18,x11,-957	 x11:0xc9bff000 x18=0xc9bfec43
       21945000	      2193	800025c8	417f0633	sub	x12,x30,x23	 x30:0x8ab6b000 x23:0xfffffc40 x12=0x8ab6b3c0
       21955000	      2194	800025cc	01858933	add	x18,x11,x24	 x11:0xc9bff000 x24:0xfffffff6 x18=0xc9bfeff6
       21965000	      2195	800025d0	00edca63	blt	x27,x14,800025e4	 x27:0x31c8d001 x14:0x00000001
       21975000	      2196	800025d4	408adc13	srai	x24,x21,0x8	 x21:0x49bf6fc4 x24=0x0049bf6f
       21985000	      2197	800025d8	00181993	slli	x19,x16,0x1	 x16:0xfffffaf6 x19=0xfffff5ec
       21995000	      2198	800025dc	a78f6b13	ori	x22,x30,-1416	 x30:0x8ab6b000 x22=0xfffffa78
       22005000	      2199	800025e0	40f680b3	sub	x1,x13,x15	 x13:0x00000000 x15:0x00000000  x1=0x00000000
       22015000	      2200	800025e4	268000ef	jal	x1,800025e4	  x1=0x800025e4
       22025000	      2201	00000000	00000013	addi	x0,x0,0	  x0:0x00000000
       22035000	      2202	80002848	00000013	addi	x0,x0,0	  x0:0x00000000
       22045000	      2203	8000284c	d934d737	lui	x14,0xd934d	 x14=0xd934d000
       22055000	      2204	80002850	005b41b3	xor	x3,x22,x5	 x22:0xfffffa78  x5:0x00000080  x3=0xfffffaf8
       22065000	      2205	80002854	00fb5463	bge	x22,x15,8000285c	 x22:0xfffffa78 x15:0x00000000
       22075000	      2206	80002858	0078cab3	xor	x21,x17,x7	 x17:0x00000200  x7:0xb0d50be8 x21=0xb0d509e8
       22085000	      2207	8000285c	fcc48493	addi	x9,x9,-52	  x9:0x80009f70  x9=0x80009f3c
       22095000	      2208	80002860	0014a223	sw	x1,4(x9)	  x9:0x80009f3c  x1:0x800025e4 PA:0x80009f40
       22105000	      2209	80002864	0099d913	srli	x18,x19,0x9	 x19:0xfffff5ec x18=0x007ffffa
       22115000	      2210	80002868	00ca25b3	slt	x11,x20,x12	 x20:0xffffffe0 x12:0x8ab6b3c0 x11=0x00000000
       22125000	      2211	8000286c	fff00c93	addi	x25,x0,-1	  x0:0x00000000 x25=0xffffffff
       22135000	      2212	80002870	f11c3393	sltiu	x7,x24,-239	 x24:0x0049bf6f  x7=0x00000001
       22145000	      2213	80002874	01b5d613	srli	x12,x11,0x1b	 x11:0x00000000 x12=0x00000000
       22155000	      2214	80002878	00000013	addi	x0,x0,0	  x0:0x00000000
       22165000	      2215	8000287c	016f6ab3	or	x21,x30,x22	 x30:0x8ab6b000 x22:0xfffffa78 x21=0xfffffa78
       22175000	      2216	80002880	06342993	slti	x19,x8,99	  x8:0xffffeb08 x19=0x00000001
       22185000	      2217	80002884	40c05293	srai	x5,x0,0xc	  x0:0x00000000  x5=0x00000000
       22195000	      2218	80002888	0012d093	srli	x1,x5,0x1	  x5:0x00000000  x1=0x00000000
       22205000	      2219	8000288c	01916433	or	x8,x2,x25	  x2:0x00000000 x25:0xffffffff  x8=0xffffffff
       22215000	      2220	80002890	00000013	addi	x0,x0,0	  x0:0x00000000
       22225000	      2221	80002894	a9ceea17	auipc	x20,0xa9cee	 x20=0x29cf0890
       22235000	      2222	80002898	00f99f13	slli	x30,x19,0xf	 x19:0x00000001 x30=0x00008000
       22245000	      2223	8000289c	0183b633	sltu	x12,x7,x24	  x7:0x00000001 x24:0x0049bf6f x12=0x00000001
       22255000	      2224	800028a0	00000013	addi	x0,x0,0	  x0:0x00000000
       22265000	      2225	800028a4	4184d3b3	sra	x7,x9,x24	  x9:0x80009f3c x24:0x0049bf6f  x7=0xffff0001
       22275000	      2226	800028a8	4072dc13	srai	x24,x5,0x7	  x5:0x00000000 x24=0x00000000
       22285000	      2227	800028ac	01100193	addi	x3,x0,17	  x0:0x00000000  x3=0x00000011
       22295000	      2228	800028b0	1837ac13	slti	x24,x15,387	 x15:0x00000000 x24=0x00000001
       22305000	      2229	800028b4	0105e3b3	or	x7,x11,x16	 x11:0x00000000 x16:0xfffffaf6  x7=0xfffffaf6
       22315000	      2230	800028b8	002c8c93	addi	x25,x25,2	 x25:0xffffffff x25=0x00000001
       22325000	      2231	800028bc	00d04133	xor	x2,x0,x13	  x0:0x00000000 x13:0x00000000  x2=0x00000000
       22335000	      2232	800028c0	00000013	addi	x0,x0,0	  x0:0x00000000
       22345000	      2233	800028c4	01ff1e13	slli	x28,x30,0x1f	 x30:0x00008000 x28=0x00000000
       22355000	      2234	800028c8	00f15033	srl	x0,x2,x15	  x2:0x00000000 x15:0x00000000
       22365000	      2235	800028cc	01731fb3	sll	x31,x6,x23	  x6:0x80009fc4 x23:0xfffffc40 x31=0x80009fc4
       22375000	      2236	800028d0	00016bb3	or	x23,x2,x0	  x2:0x00000000  x0:0x00000000 x23=0x00000000
       22385000	      2237	800028d4	00504ab3	xor	x21,x0,x5	  x0:0x00000000  x5:0x00000000 x21=0x00000000
       22395000	      2238	800028d8	fc3c8ee3	beq	x25,x3,800028b4	 x25:0x00000001  x3:0x00000011
       22405000	      2239	800028dc	7561b417	auipc	x8,0x7561b	  x8=0xf561d8d8
       22415000	      2240	800028e0	705b7817	auipc	x16,0x705b7	 x16=0xf05b98dc
       22425000	      2241	800028e4	012e1cb3	sll	x25,x28,x18	 x28:0x00000000 x18:0x007ffffa x25=0x00000000
       22435000	      2242	800028e8	01621f13	slli	x30,x4,0x16	  x4:0x00000000 x30=0x00000000
       22445000	      2243	800028ec	00511a63	bne	x2,x5,80002900	  x2:0x00000000  x5:0x00000000
       22455000	      2244	800028f0	023dc863	blt	x27,x3,80002920	 x27:0x31c8d001  x3:0x00000011
       22465000	      2245	800028f4	01635c63	bge	x6,x22,8000290c	  x6:0x80009fc4 x22:0xfffffa78
       22475000	      2246	800028f8	5cc4b713	sltiu	x14,x9,1484	  x9:0x80009f3c x14=0x00000000
       22485000	      2247	800028fc	00691293	slli	x5,x18,0x6	 x18:0x007ffffa  x5=0x1ffffe80
       22495000	      2248	80002900	0151c9b3	xor	x19,x3,x21	  x3:0x00000011 x21:0x00000000 x19=0x00000011
       22505000	      2249	80002904	00370a63	beq	x14,x3,80002918	 x14:0x00000000  x3:0x00000011
       22515000	      2250	80002908	01f21c93	slli	x25,x4,0x1f	  x4:0x00000000 x25=0x00000000
       22525000	      2251	8000290c	03795c37	lui	x24,0x3795	 x24=0x03795000
       22535000	      2252	80002910	01c2d813	srli	x16,x5,0x1c	  x5:0x1ffffe80 x16=0x00000001
       22545000	      2253	80002914	416edf13	srai	x30,x29,0x16	 x29:0xffffeb08 x30=0xffffffff
       22555000	      2254	80002918	011ea8b3	slt	x17,x29,x17	 x29:0xffffeb08 x17:0x00000200 x17=0x00000001
       22565000	      2255	8000291c	006dcc33	xor	x24,x27,x6	 x27:0x31c8d001  x6:0x80009fc4 x24=0xb1c84fc5
       22575000	      2256	80002920	028a6e63	bltu	x20,x8,8000295c	 x20:0x29cf0890  x8:0xf561d8d8
       22585000	      2257	00000000	00000013	addi	x0,x0,0	  x0:0x00000000
       22595000	      2258	80002958	00000013	addi	x0,x0,0	  x0:0x00000000
       22605000	      2259	8000295c	80232913	slti	x18,x6,-2046	  x6:0x80009fc4 x18=0x00000001
       22615000	      2260	80002960	01aaf663	bgeu	x21,x26,8000296c	 x21:0x00000000 x26:0x00000000
       22625000	      2261	00000000	00000013	addi	x0,x0,0	  x0:0x00000000
       22635000	      2262	80002968	00000013	addi	x0,x0,0	  x0:0x00000000
       22645000	      2263	8000296c	f7bf3593	sltiu	x11,x30,-133	 x30:0xffffffff x11=0x00000000
       22655000	      2264	80002970	41248eb3	sub	x29,x9,x18	  x9:0x80009f3c x18:0x00000001 x29=0x80009f3b
       22665000	      2265	80002974	4038d613	srai	x12,x17,0x3	 x17:0x00000001 x12=0x00000000
       22675000	      2266	80002978	03039a63	bne	x7,x16,800029ac	  x7:0xfffffaf6 x16:0x00000001
       22685000	      2267	00000000	00000013	addi	x0,x0,0	  x0:0x00000000
       22695000	      2268	800029a8	00000013	addi	x0,x0,0	  x0:0x00000000
       22705000	      2269	800029ac	00e5cdb3	xor	x27,x11,x14	 x11:0x00000000 x14:0x00000000 x27=0x00000000
       22715000	      2270	800029b0	409308b3	sub	x17,x6,x9	  x6:0x80009fc4  x9:0x80009f3c x17=0x00000088
       22725000	      2271	800029b4	01e8a3b3	slt	x7,x17,x30	 x17:0x00000088 x30:0xffffffff  x7=0x00000000
       22735000	      2272	800029b8	0099ff33	and	x30,x19,x9	 x19:0x00000011  x9:0x80009f3c x30=0x00000010
       22745000	      2273	800029bc	0044a083	lw	x1,4(x9)	  x9:0x80009f3c  x1=0x800025e4 PA:0x80009f40
       22755000	      2274	800029c0	005fd833	srl	x16,x31,x5	 x31:0x80009fc4  x5:0x1ffffe80 x16=0x80009fc4
       22765000	      2275	800029c4	004da6b3	slt	x13,x27,x4	 x27:0x00000000  x4:0x00000000 x13=0x00000000
       22775000	      2276	800029c8	01641ab3	sll	x21,x8,x22	  x8:0xf561d8d8 x22:0xfffffa78 x21=0xd8000000
       22785000	      2277	800029cc	03448493	addi	x9,x9,52	  x9:0x80009f3c  x9=0x80009f70
       22795000	      2278	800029d0	00445593	srli	x11,x8,0x4	  x8:0xf561d8d8 x11=0x0f561d8d
       22805000	      2279	800029d4	01e18c33	add	x24,x3,x30	  x3:0x00000011 x30:0x00000010 x24=0x00000021
       22815000	      2280	800029d8	e3c8f913	andi	x18,x17,-452	 x17:0x00000088 x18=0x00000008
       22825000	      2281	800029dc	00108193	addi	x3,x1,1	  x1:0x800025e4  x3=0x800025e5
       22835000	      2282	800029e0	000181e7	jalr	x3,x3,0	  x3:0x800025e5  x3=0x800029e0
       22845000	      2283	00000000	00000013	addi	x0,x0,0	  x0:0x00000000
       22855000	      2284	800025e4	00000013	addi	x0,x0,0	  x0:0x00000000
       22865000	      2285	800025e8	ffd00713	addi	x14,x0,-3	  x0:0x00000000 x14=0xfffffffd
       22875000	      2286	800025ec	01e03433	sltu	x8,x0,x30	  x0:0x00000000 x30:0x00000010  x8=0x00000001
       22885000	      2287	800025f0	00700b13	addi	x22,x0,7	  x0:0x00000000 x22=0x00000007
       22895000	      2288	800025f4	00000013	addi	x0,x0,0	  x0:0x00000000
       22905000	      2289	800025f8	d5a06c17	auipc	x24,0xd5a06	 x24=0x55a085f4
       22915000	      2290	800025fc	00570713	addi	x14,x14,5	 x14:0xfffffffd x14=0x00000002
       22925000	      2291	80002600	01941033	sll	x0,x8,x25	  x8:0x00000001 x25:0x00000000
       22935000	      2292	80002604	01370033	add	x0,x14,x19	 x14:0x00000002 x19:0x00000011
       22945000	      2293	80002608	5510cd13	xori	x26,x1,1361	  x1:0x800025e4 x26=0x800020b5
       22955000	      2294	8000260c	ff6706e3	beq	x14,x22,800025f8	 x14:0x00000002 x22:0x00000007
       22965000	      2295	80002610	00000013	addi	x0,x0,0	  x0:0x00000000
       22975000	      2296	80002614	ff900093	addi	x1,x0,-7	  x0:0x00000000  x1=0xfffffff9
       22985000	      2297	80002618	00fc67b3	or	x15,x24,x15	 x24:0x55a085f4 x15:0x00000000 x15=0x55a085f4
       22995000	      2298	8000261c	015e1113	slli	x2,x28,0x15	 x28:0x00000000  x2=0x00000000
       23005000	      2299	80002620	01624cb3	xor	x25,x4,x22	  x4:0x00000000 x22:0x00000007 x25=0x00000007
       23015000	      2300	80002624	40290a33	sub	x20,x18,x2	 x18:0x00000008  x2:0x00000000 x20=0x00000008
       23025000	      2301	80002628	003ae1b3	or	x3,x21,x3	 x21:0xd8000000  x3:0x800029e0  x3=0xd80029e0
       23035000	      2302	8000262c	01000b13	addi	x22,x0,16	  x0:0x00000000 x22=0x00000010
       23045000	      2303	80002630	00ba86b3	add	x13,x21,x11	 x21:0xd8000000 x11:0x0f561d8d x13=0xe7561d8d
       23055000	      2304	80002634	01213f33	sltu	x30,x2,x18	  x2:0x00000000 x18:0x00000008 x30=0x00000001
       23065000	      2305	80002638	00a08093	addi	x1,x1,10	  x1:0xfffffff9  x1=0x00000003
       23075000	      2306	8000263c	3280c593	xori	x11,x1,808	  x1:0x00000003 x11=0x0000032b
       23085000	      2307	80002640	4183d713	srai	x14,x7,0x18	  x7:0x00000000 x14=0x00000000
       23095000	      2308	80002644	007f4e33	xor	x28,x30,x7	 x30:0x00000001  x7:0x00000000 x28=0x00000001
       23105000	      2309	80002648	01e85e33	srl	x28,x16,x30	 x16:0x80009fc4 x30:0x00000001 x28=0x40004fe2
       23115000	      2310	8000264c	01137133	and	x2,x6,x17	  x6:0x80009fc4 x17:0x00000088  x2=0x00000080
       23125000	      2311	80002650	1d9d0113	addi	x2,x26,473	 x26:0x800020b5  x2=0x8000228e
       23135000	      2312	80002654	0189e6b3	or	x13,x19,x24	 x19:0x00000011 x24:0x55a085f4 x13=0x55a085f5
       23145000	      2313	80002658	fd60eee3	bltu	x1,x22,80002634	  x1:0x00000003 x22:0x00000010
       23155000	      2314	00000000	00000013	addi	x0,x0,0	  x0:0x00000000
       23165000	      2315	80002630	00000013	addi	x0,x0,0	  x0:0x00000000
       23175000	      2316	80002634	01213f33	sltu	x30,x2,x18	  x2:0x8000228e x18:0x00000008 x30=0x00000000
       23185000	      2317	80002638	00a08093	addi	x1,x1,10	  x1:0x00000003  x1=0x0000000d
       23195000	      2318	8000263c	3280c593	xori	x11,x1,808	  x1:0x0000000d x11=0x00000325
       23205000	      2319	80002640	4183d713	srai	x14,x7,0x18	  x7:0x00000000 x14=0x00000000
       23215000	      2320	80002644	007f4e33	xor	x28,x30,x7	 x30:0x00000000  x7:0x00000000 x28=0x00000000
       23225000	      2321	80002648	01e85e33	srl	x28,x16,x30	 x16:0x80009fc4 x30:0x00000000 x28=0x80009fc4
       23235000	      2322	8000264c	01137133	and	x2,x6,x17	  x6:0x80009fc4 x17:0x00000088  x2=0x00000080
       23245000	      2323	80002650	1d9d0113	addi	x2,x26,473	 x26:0x800020b5  x2=0x8000228e
       23255000	      2324	80002654	0189e6b3	or	x13,x19,x24	 x19:0x00000011 x24:0x55a085f4 x13=0x55a085f5
       23265000	      2325	80002658	fd60eee3	bltu	x1,x22,80002634	  x1:0x0000000d x22:0x00000010
       23275000	      2326	00000000	00000013	addi	x0,x0,0	  x0:0x00000000
       23285000	      2327	80002630	00000013	addi	x0,x0,0	  x0:0x00000000
       23295000	      2328	80002634	01213f33	sltu	x30,x2,x18	  x2:0x8000228e x18:0x00000008 x30=0x00000000
       23305000	      2329	80002638	00a08093	addi	x1,x1,10	  x1:0x0000000d  x1=0x00000017
       23315000	      2330	8000263c	3280c593	xori	x11,x1,808	  x1:0x00000017 x11=0x0000033f
       23325000	      2331	80002640	4183d713	srai	x14,x7,0x18	  x7:0x00000000 x14=0x00000000
       23335000	      2332	80002644	007f4e33	xor	x28,x30,x7	 x30:0x00000000  x7:0x00000000 x28=0x00000000
       23345000	      2333	80002648	01e85e33	srl	x28,x16,x30	 x16:0x80009fc4 x30:0x00000000 x28=0x80009fc4
       23355000	      2334	8000264c	01137133	and	x2,x6,x17	  x6:0x80009fc4 x17:0x00000088  x2=0x00000080
       23365000	      2335	80002650	1d9d0113	addi	x2,x26,473	 x26:0x800020b5  x2=0x8000228e
       23375000	      2336	80002654	0189e6b3	or	x13,x19,x24	 x19:0x00000011 x24:0x55a085f4 x13=0x55a085f5
       23385000	      2337	80002658	fd60eee3	bltu	x1,x22,80002634	  x1:0x00000017 x22:0x00000010
       23395000	      2338	8000265c	409089b3	sub	x19,x1,x9	  x1:0x00000017  x9:0x80009f70 x19=0x7fff60a7
       23405000	      2339	80002660	40c0dfb3	sra	x31,x1,x12	  x1:0x00000017 x12:0x00000000 x31=0x00000017
       23415000	      2340	80002664	00766bb3	or	x23,x12,x7	 x12:0x00000000  x7:0x00000000 x23=0x00000000
       23425000	      2341	80002668	00e97733	and	x14,x18,x14	 x18:0x00000008 x14:0x00000000 x14=0x00000000
       23435000	      2342	8000266c	00000013	addi	x0,x0,0	  x0:0x00000000
       23445000	      2343	80002670	5214c397	auipc	x7,0x5214c	  x7=0xd214e66c
       23455000	      2344	80002674	030df263	bgeu	x27,x16,80002698	 x27:0x00000000 x16:0x80009fc4
       23465000	      2345	80002678	ade05d17	auipc	x26,0xade05	 x26=0x2de07674
       23475000	      2346	8000267c	017d97b3	sll	x15,x27,x23	 x27:0x00000000 x23:0x00000000 x15=0x00000000
       23485000	      2347	80002680	00b85eb3	srl	x29,x16,x11	 x16:0x80009fc4 x11:0x0000033f x29=0x00000001
       23495000	      2348	80002684	006a9e13	slli	x28,x21,0x6	 x21:0xd8000000 x28=0x00000000
       23505000	      2349	80002688	56a3a693	slti	x13,x7,1386	  x7:0xd214e66c x13=0x00000001
       23515000	      2350	8000268c	70733c13	sltiu	x24,x6,1799	  x6:0x80009fc4 x24=0x00000000
       23525000	      2351	80002690	00dc9893	slli	x17,x25,0xd	 x25:0x00000007 x17=0x0000e000
       23535000	      2352	80002694	0164e433	or	x8,x9,x22	  x9:0x80009f70 x22:0x00000010  x8=0x80009f70
       23545000	      2353	80002698	01fe5d33	srl	x26,x28,x31	 x28:0x00000000 x31:0x00000017 x26=0x00000000
       23555000	      2354	8000269c	00233db3	sltu	x27,x6,x2	  x6:0x80009fc4  x2:0x8000228e x27=0x00000000
       23565000	      2355	800026a0	05ad1663	bne	x26,x26,800026ec	 x26:0x00000000 x26:0x00000000
       23575000	      2356	800026a4	e22bef93	ori	x31,x23,-478	 x23:0x00000000 x31=0xfffffe22
       23585000	      2357	800026a8	002b7fb3	and	x31,x22,x2	 x22:0x00000010  x2:0x8000228e x31=0x00000000
       23595000	      2358	800026ac	226a3113	sltiu	x2,x20,550	 x20:0x00000008  x2=0x00000001
       23605000	      2359	800026b0	01ab1ab3	sll	x21,x22,x26	 x22:0x00000010 x26:0x00000000 x21=0x00000010
       23615000	      2360	800026b4	01f84133	xor	x2,x16,x31	 x16:0x80009fc4 x31:0x00000000  x2=0x80009fc4
       23625000	      2361	800026b8	007172b3	and	x5,x2,x7	  x2:0x80009fc4  x7:0xd214e66c  x5=0x80008644
       23635000	      2362	800026bc	00647bb3	and	x23,x8,x6	  x8:0x80009f70  x6:0x80009fc4 x23=0x80009f40
       23645000	      2363	800026c0	ca8e7613	andi	x12,x28,-856	 x28:0x00000000 x12=0x00000000
       23655000	      2364	800026c4	0062a3b3	slt	x7,x5,x6	  x5:0x80008644  x6:0x80009fc4  x7=0x00000001
       23665000	      2365	800026c8	bb852213	slti	x4,x10,-1096	 x10:0x80000000  x4=0x00000001
       23675000	      2366	800026cc	05ac9663	bne	x25,x26,80002718	 x25:0x00000007 x26:0x00000000
       23685000	      2367	00000000	00000013	addi	x0,x0,0	  x0:0x00000000
       23695000	      2368	80002714	00000013	addi	x0,x0,0	  x0:0x00000000
       23705000	      2369	80002718	4119d293	srai	x5,x19,0x11	 x19:0x7fff60a7  x5=0x00003fff
       23715000	      2370	8000271c	00185f93	srli	x31,x16,0x1	 x16:0x80009fc4 x31=0x40004fe2
       23725000	      2371	80002720	3278a1b7	lui	x3,0x3278a	  x3=0x3278a000
       23735000	      2372	80002724	00a39893	slli	x17,x7,0xa	  x7:0x00000001 x17=0x00000400
       23745000	      2373	80002728	4030d393	srai	x7,x1,0x3	  x1:0x00000017  x7=0x00000002
       23755000	      2374	8000272c	0116b433	sltu	x8,x13,x17	 x13:0x00000001 x17:0x00000400  x8=0x00000001
       23765000	      2375	80002730	00d409b3	add	x19,x8,x13	  x8:0x00000001 x13:0x00000001 x19=0x00000002
       23775000	      2376	80002734	0272fa63	bgeu	x5,x7,80002768	  x5:0x00003fff  x7:0x00000002
       23785000	      2377	00000000	00000013	addi	x0,x0,0	  x0:0x00000000
       23795000	      2378	80002764	00000013	addi	x0,x0,0	  x0:0x00000000
       23805000	      2379	80002768	00f59eb3	sll	x29,x11,x15	 x11:0x0000033f x15:0x00000000 x29=0x0000033f
       23815000	      2380	8000276c	02044863	blt	x8,x0,8000279c	  x8:0x00000001  x0:0x00000000
       23825000	      2381	80002770	3b2a0e13	addi	x28,x20,946	 x20:0x00000008 x28=0x000003ba
       23835000	      2382	80002774	78da7693	andi	x13,x20,1933	 x20:0x00000008 x13=0x00000008
       23845000	      2383	80002778	03b3de63	bge	x7,x27,800027b4	  x7:0x00000002 x27:0x00000000
       23855000	      2384	00000000	00000013	addi	x0,x0,0	  x0:0x00000000
       23865000	      2385	800027b0	00000013	addi	x0,x0,0	  x0:0x00000000
       23875000	      2386	800027b4	294d6813	ori	x16,x26,660	 x26:0x00000000 x16=0x00000294
       23885000	      2387	800027b8	0191f2b3	and	x5,x3,x25	  x3:0x3278a000 x25:0x00000007  x5=0x00000000
       23895000	      2388	800027bc	00f4eb33	or	x22,x9,x15	  x9:0x80009f70 x15:0x00000000 x22=0x80009f70
       23905000	      2389	800027c0	01e49eb3	sll	x29,x9,x30	  x9:0x80009f70 x30:0x00000000 x29=0x80009f70
       23915000	      2390	800027c4	00810a63	beq	x2,x8,800027d8	  x2:0x80009fc4  x8:0x00000001
       23925000	      2391	800027c8	04c6c263	blt	x13,x12,8000280c	 x13:0x00000008 x12:0x00000000
       23935000	      2392	800027cc	1b446393	ori	x7,x8,436	  x8:0x00000001  x7=0x000001b5
       23945000	      2393	800027d0	0094cc33	xor	x24,x9,x9	  x9:0x80009f70  x9:0x80009f70 x24=0x00000000
       23955000	      2394	800027d4	d09dbd13	sltiu	x26,x27,-759	 x27:0x00000000 x26=0x00000001
       23965000	      2395	800027d8	01551893	slli	x17,x10,0x15	 x10:0x80000000 x17=0x00000000
       23975000	      2396	800027dc	035d5663	bge	x26,x21,80002808	 x26:0x00000001 x21:0x00000010
       23985000	      2397	800027e0	01c6bab3	sltu	x21,x13,x28	 x13:0x00000008 x28:0x000003ba x21=0x00000001
       23995000	      2398	800027e4	9946f813	andi	x16,x13,-1644	 x13:0x00000008 x16=0x00000000
       24005000	      2399	800027e8	00000013	addi	x0,x0,0	  x0:0x00000000
       24015000	      2400	800027ec	01d73ab3	sltu	x21,x14,x29	 x14:0x00000000 x29:0x80009f70 x21=0x00000001
       24025000	      2401	800027f0	93ee6013	ori	x0,x28,-1730	 x28:0x000003ba
       24035000	      2402	800027f4	40d67893	andi	x17,x12,1037	 x12:0x00000000 x17=0x00000000
       24045000	      2403	800027f8	10df3e97	auipc	x29,0x10df3	 x29=0x90df57f4
       24055000	      2404	800027fc	40a70d33	sub	x26,x14,x10	 x14:0x00000000 x10:0x80000000 x26=0x80000000
       24065000	      2405	80002800	cc92b193	sltiu	x3,x5,-823	  x5:0x00000000  x3=0x00000001
       24075000	      2406	80002804	019f3233	sltu	x4,x30,x25	 x30:0x00000000 x25:0x00000007  x4=0x00000001
       24085000	      2407	80002808	009486b3	add	x13,x9,x9	  x9:0x80009f70  x9:0x80009f70 x13=0x00013ee0
       24095000	      2408	8000280c	a76e3f93	sltiu	x31,x28,-1418	 x28:0x000003ba x31=0x00000001
       24105000	      2409	80002810	4146d5b3	sra	x11,x13,x20	 x13:0x00013ee0 x20:0x00000008 x11=0x0000013e
       24115000	      2410	80002814	408f82b3	sub	x5,x31,x8	 x31:0x00000001  x8:0x00000001  x5=0x00000000
       24125000	      2411	80002818	4c488393	addi	x7,x17,1220	 x17:0x00000000  x7=0x000004c4
       24135000	      2412	8000281c	008c49b3	xor	x19,x24,x8	 x24:0x00000000  x8:0x00000001 x19=0x00000001
       24145000	      2413	80002820	015b6433	or	x8,x22,x21	 x22:0x80009f70 x21:0x00000001  x8=0x80009f71
       24155000	      2414	80002824	0044a083	lw	x1,4(x9)	  x9:0x80009f70  x1=0x80002bfc PA:0x80009f74
       24165000	      2415	80002828	011cfeb3	and	x29,x25,x17	 x25:0x00000007 x17:0x00000000 x29=0x00000000
       24175000	      2416	8000282c	00c48493	addi	x9,x9,12	  x9:0x80009f70  x9=0x80009f7c
       24185000	      2417	80002830	400c5b13	srai	x22,x24,0x0	 x24:0x00000000 x22=0x00000000
       24195000	      2418	80002834	a9496e13	ori	x28,x18,-1388	 x18:0x00000008 x28=0xfffffa9c
       24205000	      2419	80002838	6b296893	ori	x17,x18,1714	 x18:0x00000008 x17=0x000006ba
       24215000	      2420	8000283c	003d3ab3	sltu	x21,x26,x3	 x26:0x80000000  x3:0x00000001 x21=0x00000000
       24225000	      2421	80002840	00000013	addi	x0,x0,0	  x0:0x00000000
       24235000	      2422	80002844	00108593	addi	x11,x1,1	  x1:0x80002bfc x11=0x80002bfd
       24245000	      2423	80002848	000585e7	jalr	x11,x11,0	 x11:0x80002bfd x11=0x80002848
       24255000	      2424	00000000	00000013	addi	x0,x0,0	  x0:0x00000000
       24265000	      2425	80002bfc	00000013	addi	x0,x0,0	  x0:0x00000000
       24275000	      2426	80002c00	008ddd93	srli	x27,x27,0x8	 x27:0x00000000 x27=0x00000000
       24285000	      2427	80002c04	00000617	auipc	x12,0x0	 x12=0x80002c00
       24295000	      2428	80002c08	de060613	addi	x12,x12,-544	 x12:0x80002c00 x12=0x800029e0
       24305000	      2429	80002c0c	2b2e0917	auipc	x18,0x2b2e0	 x18=0xab2e2c08
       24315000	      2430	80002c10	33dac813	xori	x16,x21,829	 x21:0x00000000 x16=0x0000033d
       24325000	      2431	80002c14	00ec1033	sll	x0,x24,x14	 x24:0x00000000 x14:0x00000000
       24335000	      2432	80002c18	01d49d33	sll	x26,x9,x29	  x9:0x80009f7c x29:0x00000000 x26=0x80009f7c
       24345000	      2433	80002c1c	c3560613	addi	x12,x12,-971	 x12:0x800029e0 x12=0x80002615
       24355000	      2434	80002c20	00000013	addi	x0,x0,0	  x0:0x00000000
       24365000	      2435	80002c24	0121ebb3	or	x23,x3,x18	  x3:0x00000001 x18:0xab2e2c08 x23=0xab2e2c09
       24375000	      2436	80002c28	43c04ab7	lui	x21,0x43c04	 x21=0x43c04000
       24385000	      2437	80002c2c	00d18463	beq	x3,x13,80002c34	  x3:0x00000001 x13:0x00013ee0
       24395000	      2438	80002c30	41a2d6b3	sra	x13,x5,x26	  x5:0x00000000 x26:0x80009f7c x13=0x00000000
       24405000	      2439	80002c34	3cb600e7	jalr	x1,x12,971	 x12:0x80002615  x1=0x80002c34
       24415000	      2440	00000000	00000013	addi	x0,x0,0	  x0:0x00000000
       24425000	      2441	800029e0	00000013	addi	x0,x0,0	  x0:0x00000000
       24435000	      2442	800029e4	fcc48493	addi	x9,x9,-52	  x9:0x80009f7c  x9=0x80009f48
       24445000	      2443	800029e8	8ec88e37	lui	x28,0x8ec88	 x28=0x8ec88000
       24455000	      2444	800029ec	00ced933	srl	x18,x29,x12	 x29:0x00000000 x12:0x80002615 x18=0x00000000
       24465000	      2445	800029f0	40c45c13	srai	x24,x8,0xc	  x8:0x80009f71 x24=0xfff80009
       24475000	      2446	800029f4	00327033	and	x0,x4,x3	  x4:0x00000001  x3:0x00000001
       24485000	      2447	800029f8	460fb893	sltiu	x17,x31,1120	 x31:0x00000001 x17=0x00000001
       24495000	      2448	800029fc	1ae0ea93	ori	x21,x1,430	  x1:0x80002c34 x21=0x80002dbe
       24505000	      2449	80002a00	4a13f393	andi	x7,x7,1185	  x7:0x000004c4  x7=0x00000480
       24515000	      2450	80002a04	27be5c97	auipc	x25,0x27be5	 x25=0xa7be7a00
       24525000	      2451	80002a08	05726193	ori	x3,x4,87	  x4:0x00000001  x3=0x00000057
       24535000	      2452	80002a0c	0014a223	sw	x1,4(x9)	  x9:0x80009f48  x1:0x80002c34 PA:0x80009f4c
       24545000	      2453	80002a10	4049d133	sra	x2,x19,x4	 x19:0x00000001  x4:0x00000001  x2=0x00000000
       24555000	      2454	80002a14	4086d033	sra	x0,x13,x8	 x13:0x00000000  x8:0x80009f71
       24565000	      2455	80002a18	00fb2cb3	slt	x25,x22,x15	 x22:0x00000000 x15:0x00000000 x25=0x00000000
       24575000	      2456	80002a1c	00cb1d93	slli	x27,x22,0xc	 x22:0x00000000 x27=0x00000000
       24585000	      2457	80002a20	00681133	sll	x2,x16,x6	 x16:0x0000033d  x6:0x80009fc4  x2=0x000033d0
       24595000	      2458	80002a24	60546d13	ori	x26,x8,1541	  x8:0x80009f71 x26=0x80009f75
       24605000	      2459	80002a28	009ffb33	and	x22,x31,x9	 x31:0x00000001  x9:0x80009f48 x22=0x00000000
       24615000	      2460	80002a2c	01e777b3	and	x15,x14,x30	 x14:0x00000000 x30:0x00000000 x15=0x00000000
       24625000	      2461	80002a30	01800eb3	add	x29,x0,x24	  x0:0x00000000 x24:0xfff80009 x29=0xfff80009
       24635000	      2462	80002a34	9a9ff0ef	jal	x1,80002a34	  x1=0x80002a34
       24645000	      2463	00000000	00000013	addi	x0,x0,0	  x0:0x00000000
       24655000	      2464	800023d8	00000013	addi	x0,x0,0	  x0:0x00000000
       24665000	      2465	800023dc	ff048493	addi	x9,x9,-16	  x9:0x80009f48  x9=0x80009f38
       24675000	      2466	800023e0	01e006b3	add	x13,x0,x30	  x0:0x00000000 x30:0x00000000 x13=0x00000000
       24685000	      2467	800023e4	00000013	addi	x0,x0,0	  x0:0x00000000
       24695000	      2468	800023e8	01d7e833	or	x16,x15,x29	 x15:0x00000000 x29:0xfff80009 x16=0xfff80009
       24705000	      2469	800023ec	00e441b3	xor	x3,x8,x14	  x8:0x80009f71 x14:0x00000000  x3=0x80009f71
       24715000	      2470	800023f0	00e6f433	and	x8,x13,x14	 x13:0x00000000 x14:0x00000000  x8=0x00000000
       24725000	      2471	800023f4	0014a223	sw	x1,4(x9)	  x9:0x80009f38  x1:0x80002a34 PA:0x80009f3c
       24735000	      2472	800023f8	001669b3	or	x19,x12,x1	 x12:0x80002615  x1:0x80002a34 x19=0x80002e35
       24745000	      2473	800023fc	00595393	srli	x7,x18,0x5	 x18:0x00000000  x7=0x00000000
       24755000	      2474	80002400	00800913	addi	x18,x0,8	  x0:0x00000000 x18=0x00000008
       24765000	      2475	80002404	01300593	addi	x11,x0,19	  x0:0x00000000 x11=0x00000013
       24775000	      2476	80002408	53a10b13	addi	x22,x2,1338	  x2:0x000033d0 x22=0x0000390a
       24785000	      2477	8000240c	00a90913	addi	x18,x18,10	 x18:0x00000008 x18=0x00000012
       24795000	      2478	80002410	ff600213	addi	x4,x0,-10	  x0:0x00000000  x4=0xfffffff6
       24805000	      2479	80002414	00f00113	addi	x2,x0,15	  x0:0x00000000  x2=0x0000000f
       24815000	      2480	80002418	402a8c33	sub	x24,x21,x2	 x21:0x80002dbe  x2:0x0000000f x24=0x80002daf
       24825000	      2481	8000241c	00000013	addi	x0,x0,0	  x0:0x00000000
       24835000	      2482	80002420	0142b633	sltu	x12,x5,x20	  x5:0x00000000 x20:0x00000008 x12=0x00000001
       24845000	      2483	80002424	00720213	addi	x4,x4,7	  x4:0xfffffff6  x4=0xfffffffd
       24855000	      2484	80002428	fe226ae3	bltu	x4,x2,8000241c	  x4:0xfffffffd  x2:0x0000000f
       24865000	      2485	8000242c	fcb94ee3	blt	x18,x11,80002408	 x18:0x00000012 x11:0x00000013
       24875000	      2486	00000000	00000013	addi	x0,x0,0	  x0:0x00000000
       24885000	      2487	80002404	00000013	addi	x0,x0,0	  x0:0x00000000
       24895000	      2488	80002408	53a10b13	addi	x22,x2,1338	  x2:0x0000000f x22=0x00000549
       24905000	      2489	8000240c	00a90913	addi	x18,x18,10	 x18:0x00000012 x18=0x0000001c
       24915000	      2490	80002410	ff600213	addi	x4,x0,-10	  x0:0x00000000  x4=0xfffffff6
       24925000	      2491	80002414	00f00113	addi	x2,x0,15	  x0:0x00000000  x2=0x0000000f
       24935000	      2492	80002418	402a8c33	sub	x24,x21,x2	 x21:0x80002dbe  x2:0x0000000f x24=0x80002daf
       24945000	      2493	8000241c	00000013	addi	x0,x0,0	  x0:0x00000000
       24955000	      2494	80002420	0142b633	sltu	x12,x5,x20	  x5:0x00000000 x20:0x00000008 x12=0x00000001
       24965000	      2495	80002424	00720213	addi	x4,x4,7	  x4:0xfffffff6  x4=0xfffffffd
       24975000	      2496	80002428	fe226ae3	bltu	x4,x2,8000241c	  x4:0xfffffffd  x2:0x0000000f
       24985000	      2497	8000242c	fcb94ee3	blt	x18,x11,80002408	 x18:0x0000001c x11:0x00000013
       24995000	      2498	80002430	005580b3	add	x1,x11,x5	 x11:0x00000013  x5:0x00000000  x1=0x00000013
       25005000	      2499	80002434	00c156b3	srl	x13,x2,x12	  x2:0x0000000f x12:0x00000001 x13=0x00000007
       25015000	      2500	80002438	535c2213	slti	x4,x24,1333	 x24:0x80002daf  x4=0x00000001
       25025000	      2501	8000243c	002af033	and	x0,x21,x2	 x21:0x80002dbe  x2:0x0000000f
       25035000	      2502	80002440	01b55e33	srl	x28,x10,x27	 x10:0x80000000 x27:0x00000000 x28=0x80000000
       25045000	      2503	80002444	53ffb813	sltiu	x16,x31,1343	 x31:0x00000001 x16=0x00000001
       25055000	      2504	80002448	00767633	and	x12,x12,x7	 x12:0x00000001  x7:0x00000000 x12=0x00000000
       25065000	      2505	8000244c	01967663	bgeu	x12,x25,80002458	 x12:0x00000000 x25:0x00000000
       25075000	      2506	00000000	00000013	addi	x0,x0,0	  x0:0x00000000
       25085000	      2507	80002454	00000013	addi	x0,x0,0	  x0:0x00000000
       25095000	      2508	80002458	01640ab3	add	x21,x8,x22	  x8:0x00000000 x22:0x00000549 x21=0x00000549
       25105000	      2509	8000245c	03c8ce63	blt	x17,x28,80002498	 x17:0x00000001 x28:0x80000000
       25115000	      2510	80002460	f4bd5e97	auipc	x29,0xf4bd5	 x29=0x74bd745c
       25125000	      2511	80002464	13148a13	addi	x20,x9,305	  x9:0x80009f38 x20=0x8000a069
       25135000	      2512	80002468	58772213	slti	x4,x14,1415	 x14:0x00000000  x4=0x00000001
       25145000	      2513	8000246c	0446c463	blt	x13,x4,800024b4	 x13:0x00000007  x4:0x00000001
       25155000	      2514	80002470	ae416593	ori	x11,x2,-1308	  x2:0x0000000f x11=0xfffffaef
       25165000	      2515	80002474	350eee13	ori	x28,x29,848	 x29:0x74bd745c x28=0x74bd775c
       25175000	      2516	80002478	0d2a5a97	auipc	x21,0xd2a5	 x21=0x8d2a7474
       25185000	      2517	8000247c	04e01863	bne	x0,x14,800024cc	  x0:0x00000000 x14:0x00000000
       25195000	      2518	80002480	01249393	slli	x7,x9,0x12	  x9:0x80009f38  x7=0x7ce00000
       25205000	      2519	80002484	4161db93	srai	x23,x3,0x16	  x3:0x80009f71 x23=0xfffffe00
       25215000	      2520	80002488	015c7863	bgeu	x24,x21,80002498	 x24:0x80002daf x21:0x8d2a7474
       25225000	      2521	8000248c	011c5cb3	srl	x25,x24,x17	 x24:0x80002daf x17:0x00000001 x25=0x400016d7
       25235000	      2522	80002490	b16275b7	lui	x11,0xb1627	 x11=0xb1627000
       25245000	      2523	80002494	05874663	blt	x14,x24,800024e0	 x14:0x00000000 x24:0x80002daf
       25255000	      2524	80002498	00554f33	xor	x30,x10,x5	 x10:0x80000000  x5:0x00000000 x30=0x80000000
       25265000	      2525	8000249c	41e05db3	sra	x27,x0,x30	  x0:0x00000000 x30:0x80000000 x27=0x00000000
       25275000	      2526	800024a0	00443a33	sltu	x20,x8,x4	  x8:0x00000000  x4:0x00000001 x20=0x00000001
       25285000	      2527	800024a4	01c8da33	srl	x20,x17,x28	 x17:0x00000001 x28:0x74bd775c x20=0x00000000
       25295000	      2528	800024a8	00b89213	slli	x4,x17,0xb	 x17:0x00000001  x4=0x00000800
       25305000	      2529	800024ac	03527063	bgeu	x4,x21,800024cc	  x4:0x00000800 x21:0x8d2a7474
       25315000	      2530	800024b0	41648133	sub	x2,x9,x22	  x9:0x80009f38 x22:0x00000549  x2=0x800099ef
       25325000	      2531	800024b4	b08680b7	lui	x1,0xb0868	  x1=0xb0868000
       25335000	      2532	800024b8	5bb7a413	slti	x8,x15,1467	 x15:0x00000000  x8=0x00000001
       25345000	      2533	800024bc	006c4863	blt	x24,x6,800024cc	 x24:0x80002daf  x6:0x80009fc4
       25355000	      2534	00000000	00000013	addi	x0,x0,0	  x0:0x00000000
       25365000	      2535	800024c8	00000013	addi	x0,x0,0	  x0:0x00000000
       25375000	      2536	800024cc	03564a63	blt	x12,x21,80002500	 x12:0x00000000 x21:0x8d2a7474
       25385000	      2537	800024d0	014c75b3	and	x11,x24,x20	 x24:0x80002daf x20:0x00000000 x11=0x00000000
       25395000	      2538	800024d4	0d2ab993	sltiu	x19,x21,210	 x21:0x8d2a7474 x19=0x00000000
       25405000	      2539	800024d8	2d5cf993	andi	x19,x25,725	 x25:0x400016d7 x19=0x000002d5
       25415000	      2540	800024dc	4008d233	sra	x4,x17,x0	 x17:0x00000001  x0:0x00000000  x4=0x00000001
       25425000	      2541	800024e0	00c0eeb3	or	x29,x1,x12	  x1:0xb0868000 x12:0x00000000 x29=0xb0868000
       25435000	      2542	800024e4	00000013	addi	x0,x0,0	  x0:0x00000000
       25445000	      2543	800024e8	01d1f233	and	x4,x3,x29	  x3:0x80009f71 x29:0xb0868000  x4=0x80008000
       25455000	      2544	800024ec	03d8de63	bge	x17,x29,80002528	 x17:0x00000001 x29:0xb0868000
       25465000	      2545	00000000	00000013	addi	x0,x0,0	  x0:0x00000000
       25475000	      2546	80002524	00000013	addi	x0,x0,0	  x0:0x00000000
       25485000	      2547	80002528	c3dbae13	slti	x28,x23,-963	 x23:0xfffffe00 x28=0x00000000
       25495000	      2548	8000252c	00a71f93	slli	x31,x14,0xa	 x14:0x00000000 x31=0x00000000
       25505000	      2549	80002530	93442113	slti	x2,x8,-1740	  x8:0x00000001  x2=0x00000000
       25515000	      2550	80002534	002f9933	sll	x18,x31,x2	 x31:0x00000000  x2:0x00000000 x18=0x00000000
       25525000	      2551	80002538	2c242293	slti	x5,x8,706	  x8:0x00000001  x5=0x00000001
       25535000	      2552	8000253c	412681b3	sub	x3,x13,x18	 x13:0x00000007 x18:0x00000000  x3=0x00000007
       25545000	      2553	80002540	2704ea37	lui	x20,0x2704e	 x20=0x2704e000
       25555000	      2554	80002544	00059fb3	sll	x31,x11,x0	 x11:0x00000000  x0:0x00000000 x31=0x00000000
       25565000	      2555	80002548	024b9063	bne	x23,x4,80002568	 x23:0xfffffe00  x4:0x80008000
       25575000	      2556	00000000	00000013	addi	x0,x0,0	  x0:0x00000000
       25585000	      2557	80002564	00000013	addi	x0,x0,0	  x0:0x00000000
       25595000	      2558	80002568	016dfd33	and	x26,x27,x22	 x27:0x00000000 x22:0x00000549 x26=0x00000000
       25605000	      2559	8000256c	00886263	bltu	x16,x8,80002570	 x16:0x00000001  x8:0x00000001
       25615000	      2560	80002570	01cb42b3	xor	x5,x22,x28	 x22:0x00000549 x28:0x00000000  x5=0x00000549
       25625000	      2561	80002574	0044a083	lw	x1,4(x9)	  x9:0x80009f38  x1=0x80002a34 PA:0x80009f3c
       25635000	      2562	80002578	016f5c93	srli	x25,x30,0x16	 x30:0x80000000 x25=0x00000200
       25645000	      2563	8000257c	01048493	addi	x9,x9,16	  x9:0x80009f38  x9=0x80009f48
       25655000	      2564	80002580	d8bd2c13	slti	x24,x26,-629	 x26:0x00000000 x24=0x00000000
       25665000	      2565	80002584	411d87b3	sub	x15,x27,x17	 x27:0x00000000 x17:0x00000001 x15=0xffffffff
       25675000	      2566	80002588	010ed3b3	srl	x7,x29,x16	 x29:0xb0868000 x16:0x00000001  x7=0x58434000
       25685000	      2567	8000258c	300f7f93	andi	x31,x30,768	 x30:0x80000000 x31=0x00000000
       25695000	      2568	80002590	00108e13	addi	x28,x1,1	  x1:0x80002a34 x28=0x80002a35
       25705000	      2569	80002594	000e0e67	jalr	x28,x28,0	 x28:0x80002a35 x28=0x80002594
       25715000	      2570	00000000	00000013	addi	x0,x0,0	  x0:0x00000000
       25725000	      2571	80002a34	00000013	addi	x0,x0,0	  x0:0x00000000
       25735000	      2572	80002a38	01b31893	slli	x17,x6,0x1b	  x6:0x80009fc4 x17=0x20000000
       25745000	      2573	80002a3c	00000217	auipc	x4,0x0	  x4=0x80002a38
       25755000	      2574	80002a40	9a020213	addi	x4,x4,-1632	  x4:0x80002a38  x4=0x800023d8
       25765000	      2575	80002a44	c5b20213	addi	x4,x4,-933	  x4:0x800023d8  x4=0x80002033
       25775000	      2576	80002a48	00000013	addi	x0,x0,0	  x0:0x00000000
       25785000	      2577	80002a4c	a380e093	ori	x1,x1,-1480	  x1:0x80002a34  x1=0xfffffa3c
       25795000	      2578	80002a50	c5014413	xori	x8,x2,-944	  x2:0x00000000  x8=0xfffffc50
       25805000	      2579	80002a54	00000013	addi	x0,x0,0	  x0:0x00000000
       25815000	      2580	80002a58	01f08cb3	add	x25,x1,x31	  x1:0xfffffa3c x31:0x00000000 x25=0xfffffa3c
       25825000	      2581	80002a5c	3a5200e7	jalr	x1,x4,933	  x4:0x80002033  x1=0x80002a5c
       25835000	      2582	00000000	00000013	addi	x0,x0,0	  x0:0x00000000
       25845000	      2583	800023d8	00000013	addi	x0,x0,0	  x0:0x00000000
       25855000	      2584	800023dc	ff048493	addi	x9,x9,-16	  x9:0x80009f48  x9=0x80009f38
       25865000	      2585	800023e0	01e006b3	add	x13,x0,x30	  x0:0x00000000 x30:0x80000000 x13=0x80000000
       25875000	      2586	800023e4	00000013	addi	x0,x0,0	  x0:0x00000000
       25885000	      2587	800023e8	01d7e833	or	x16,x15,x29	 x15:0xffffffff x29:0xb0868000 x16=0xffffffff
       25895000	      2588	800023ec	00e441b3	xor	x3,x8,x14	  x8:0xfffffc50 x14:0x00000000  x3=0xfffffc50
       25905000	      2589	800023f0	00e6f433	and	x8,x13,x14	 x13:0x80000000 x14:0x00000000  x8=0x00000000
       25915000	      2590	800023f4	0014a223	sw	x1,4(x9)	  x9:0x80009f38  x1:0x80002a5c PA:0x80009f3c
       25925000	      2591	800023f8	001669b3	or	x19,x12,x1	 x12:0x00000000  x1:0x80002a5c x19=0x80002a5c
       25935000	      2592	800023fc	00595393	srli	x7,x18,0x5	 x18:0x00000000  x7=0x00000000
       25945000	      2593	80002400	00800913	addi	x18,x0,8	  x0:0x00000000 x18=0x00000008
       25955000	      2594	80002404	01300593	addi	x11,x0,19	  x0:0x00000000 x11=0x00000013
       25965000	      2595	80002408	53a10b13	addi	x22,x2,1338	  x2:0x00000000 x22=0x0000053a
       25975000	      2596	8000240c	00a90913	addi	x18,x18,10	 x18:0x00000008 x18=0x00000012
       25985000	      2597	80002410	ff600213	addi	x4,x0,-10	  x0:0x00000000  x4=0xfffffff6
       25995000	      2598	80002414	00f00113	addi	x2,x0,15	  x0:0x00000000  x2=0x0000000f
       26005000	      2599	80002418	402a8c33	sub	x24,x21,x2	 x21:0x8d2a7474  x2:0x0000000f x24=0x8d2a7465
       26015000	      2600	8000241c	00000013	addi	x0,x0,0	  x0:0x00000000
       26025000	      2601	80002420	0142b633	sltu	x12,x5,x20	  x5:0x00000549 x20:0x2704e000 x12=0x00000001
       26035000	      2602	80002424	00720213	addi	x4,x4,7	  x4:0xfffffff6  x4=0xfffffffd
       26045000	      2603	80002428	fe226ae3	bltu	x4,x2,8000241c	  x4:0xfffffffd  x2:0x0000000f
       26055000	      2604	8000242c	fcb94ee3	blt	x18,x11,80002408	 x18:0x00000012 x11:0x00000013
       26065000	      2605	00000000	00000013	addi	x0,x0,0	  x0:0x00000000
       26075000	      2606	80002404	00000013	addi	x0,x0,0	  x0:0x00000000
       26085000	      2607	80002408	53a10b13	addi	x22,x2,1338	  x2:0x0000000f x22=0x00000549
       26095000	      2608	8000240c	00a90913	addi	x18,x18,10	 x18:0x00000012 x18=0x0000001c
       26105000	      2609	80002410	ff600213	addi	x4,x0,-10	  x0:0x00000000  x4=0xfffffff6
       26115000	      2610	80002414	00f00113	addi	x2,x0,15	  x0:0x00000000  x2=0x0000000f
       26125000	      2611	80002418	402a8c33	sub	x24,x21,x2	 x21:0x8d2a7474  x2:0x0000000f x24=0x8d2a7465
       26135000	      2612	8000241c	00000013	addi	x0,x0,0	  x0:0x00000000
       26145000	      2613	80002420	0142b633	sltu	x12,x5,x20	  x5:0x00000549 x20:0x2704e000 x12=0x00000001
       26155000	      2614	80002424	00720213	addi	x4,x4,7	  x4:0xfffffff6  x4=0xfffffffd
       26165000	      2615	80002428	fe226ae3	bltu	x4,x2,8000241c	  x4:0xfffffffd  x2:0x0000000f
       26175000	      2616	8000242c	fcb94ee3	blt	x18,x11,80002408	 x18:0x0000001c x11:0x00000013
       26185000	      2617	80002430	005580b3	add	x1,x11,x5	 x11:0x00000013  x5:0x00000549  x1=0x0000055c
       26195000	      2618	80002434	00c156b3	srl	x13,x2,x12	  x2:0x0000000f x12:0x00000001 x13=0x00000007
       26205000	      2619	80002438	535c2213	slti	x4,x24,1333	 x24:0x8d2a7465  x4=0x00000001
       26215000	      2620	8000243c	002af033	and	x0,x21,x2	 x21:0x8d2a7474  x2:0x0000000f
       26225000	      2621	80002440	01b55e33	srl	x28,x10,x27	 x10:0x80000000 x27:0x00000000 x28=0x80000000
       26235000	      2622	80002444	53ffb813	sltiu	x16,x31,1343	 x31:0x00000000 x16=0x00000001
       26245000	      2623	80002448	00767633	and	x12,x12,x7	 x12:0x00000001  x7:0x00000000 x12=0x00000000
       26255000	      2624	8000244c	01967663	bgeu	x12,x25,80002458	 x12:0x00000000 x25:0xfffffa3c
       26265000	      2625	80002450	00f3e863	bltu	x7,x15,80002460	  x7:0x00000000 x15:0xffffffff
       26275000	      2626	00000000	00000013	addi	x0,x0,0	  x0:0x00000000
       26285000	      2627	8000245c	00000013	addi	x0,x0,0	  x0:0x00000000
       26295000	      2628	80002460	f4bd5e97	auipc	x29,0xf4bd5	 x29=0x74bd745c
       26305000	      2629	80002464	13148a13	addi	x20,x9,305	  x9:0x80009f38 x20=0x8000a069
       26315000	      2630	80002468	58772213	slti	x4,x14,1415	 x14:0x00000000  x4=0x00000001
       26325000	      2631	8000246c	0446c463	blt	x13,x4,800024b4	 x13:0x00000007  x4:0x00000001
       26335000	      2632	80002470	ae416593	ori	x11,x2,-1308	  x2:0x0000000f x11=0xfffffaef
       26345000	      2633	80002474	350eee13	ori	x28,x29,848	 x29:0x74bd745c x28=0x74bd775c
       26355000	      2634	80002478	0d2a5a97	auipc	x21,0xd2a5	 x21=0x8d2a7474
       26365000	      2635	8000247c	04e01863	bne	x0,x14,800024cc	  x0:0x00000000 x14:0x00000000
       26375000	      2636	80002480	01249393	slli	x7,x9,0x12	  x9:0x80009f38  x7=0x7ce00000
       26385000	      2637	80002484	4161db93	srai	x23,x3,0x16	  x3:0xfffffc50 x23=0xffffffff
       26395000	      2638	80002488	015c7863	bgeu	x24,x21,80002498	 x24:0x8d2a7465 x21:0x8d2a7474
       26405000	      2639	8000248c	011c5cb3	srl	x25,x24,x17	 x24:0x8d2a7465 x17:0x20000000 x25=0x8d2a7465
       26415000	      2640	80002490	b16275b7	lui	x11,0xb1627	 x11=0xb1627000
       26425000	      2641	80002494	05874663	blt	x14,x24,800024e0	 x14:0x00000000 x24:0x8d2a7465
       26435000	      2642	80002498	00554f33	xor	x30,x10,x5	 x10:0x80000000  x5:0x00000549 x30=0x80000549
       26445000	      2643	8000249c	41e05db3	sra	x27,x0,x30	  x0:0x00000000 x30:0x80000549 x27=0x00000000
       26455000	      2644	800024a0	00443a33	sltu	x20,x8,x4	  x8:0x00000000  x4:0x00000001 x20=0x00000001
       26465000	      2645	800024a4	01c8da33	srl	x20,x17,x28	 x17:0x20000000 x28:0x74bd775c x20=0x00000002
       26475000	      2646	800024a8	00b89213	slli	x4,x17,0xb	 x17:0x20000000  x4=0x00000000
       26485000	      2647	800024ac	03527063	bgeu	x4,x21,800024cc	  x4:0x00000000 x21:0x8d2a7474
       26495000	      2648	800024b0	41648133	sub	x2,x9,x22	  x9:0x80009f38 x22:0x00000549  x2=0x800099ef
       26505000	      2649	800024b4	b08680b7	lui	x1,0xb0868	  x1=0xb0868000
       26515000	      2650	800024b8	5bb7a413	slti	x8,x15,1467	 x15:0xffffffff  x8=0x00000001
       26525000	      2651	800024bc	006c4863	blt	x24,x6,800024cc	 x24:0x8d2a7465  x6:0x80009fc4
       26535000	      2652	800024c0	04720263	beq	x4,x7,80002504	  x4:0x00000000  x7:0x7ce00000
       26545000	      2653	800024c4	fa1a4d93	xori	x27,x20,-95	 x20:0x00000002 x27=0xffffffa3
       26555000	      2654	800024c8	ff008937	lui	x18,0xff008	 x18=0xff008000
       26565000	      2655	800024cc	03564a63	blt	x12,x21,80002500	 x12:0x00000000 x21:0x8d2a7474
       26575000	      2656	800024d0	014c75b3	and	x11,x24,x20	 x24:0x8d2a7465 x20:0x00000002 x11=0x00000000
       26585000	      2657	800024d4	0d2ab993	sltiu	x19,x21,210	 x21:0x8d2a7474 x19=0x00000000
       26595000	      2658	800024d8	2d5cf993	andi	x19,x25,725	 x25:0x8d2a7465 x19=0x00000045
       26605000	      2659	800024dc	4008d233	sra	x4,x17,x0	 x17:0x20000000  x0:0x00000000  x4=0x20000000
       26615000	      2660	800024e0	00c0eeb3	or	x29,x1,x12	  x1:0xb0868000 x12:0x00000000 x29=0xb0868000
       26625000	      2661	800024e4	00000013	addi	x0,x0,0	  x0:0x00000000
       26635000	      2662	800024e8	01d1f233	and	x4,x3,x29	  x3:0xfffffc50 x29:0xb0868000  x4=0xb0868000
       26645000	      2663	800024ec	03d8de63	bge	x17,x29,80002528	 x17:0x20000000 x29:0xb0868000
       26655000	      2664	00000000	00000013	addi	x0,x0,0	  x0:0x00000000
       26665000	      2665	80002524	00000013	addi	x0,x0,0	  x0:0x00000000
       26675000	      2666	80002528	c3dbae13	slti	x28,x23,-963	 x23:0xffffffff x28=0x00000000
       26685000	      2667	8000252c	00a71f93	slli	x31,x14,0xa	 x14:0x00000000 x31=0x00000000
       26695000	      2668	80002530	93442113	slti	x2,x8,-1740	  x8:0x00000001  x2=0x00000000
       26705000	      2669	80002534	002f9933	sll	x18,x31,x2	 x31:0x00000000  x2:0x00000000 x18=0x00000000
       26715000	      2670	80002538	2c242293	slti	x5,x8,706	  x8:0x00000001  x5=0x00000001
       26725000	      2671	8000253c	412681b3	sub	x3,x13,x18	 x13:0x00000007 x18:0x00000000  x3=0x00000007
       26735000	      2672	80002540	2704ea37	lui	x20,0x2704e	 x20=0x2704e000
       26745000	      2673	80002544	00059fb3	sll	x31,x11,x0	 x11:0x00000000  x0:0x00000000 x31=0x00000000
       26755000	      2674	80002548	024b9063	bne	x23,x4,80002568	 x23:0xffffffff  x4:0xb0868000
       26765000	      2675	00000000	00000013	addi	x0,x0,0	  x0:0x00000000
       26775000	      2676	80002564	00000013	addi	x0,x0,0	  x0:0x00000000
       26785000	      2677	80002568	016dfd33	and	x26,x27,x22	 x27:0xffffffa3 x22:0x00000549 x26=0x00000501
       26795000	      2678	8000256c	00886263	bltu	x16,x8,80002570	 x16:0x00000001  x8:0x00000001
       26805000	      2679	80002570	01cb42b3	xor	x5,x22,x28	 x22:0x00000549 x28:0x00000000  x5=0x00000549
       26815000	      2680	80002574	0044a083	lw	x1,4(x9)	  x9:0x80009f38  x1=0x80002a5c PA:0x80009f3c
       26825000	      2681	80002578	016f5c93	srli	x25,x30,0x16	 x30:0x80000549 x25=0x00000200
       26835000	      2682	8000257c	01048493	addi	x9,x9,16	  x9:0x80009f38  x9=0x80009f48
       26845000	      2683	80002580	d8bd2c13	slti	x24,x26,-629	 x26:0x00000501 x24=0x00000000
       26855000	      2684	80002584	411d87b3	sub	x15,x27,x17	 x27:0xffffffa3 x17:0x20000000 x15=0xdfffffa3
       26865000	      2685	80002588	010ed3b3	srl	x7,x29,x16	 x29:0xb0868000 x16:0x00000001  x7=0x58434000
       26875000	      2686	8000258c	300f7f93	andi	x31,x30,768	 x30:0x80000549 x31=0x00000100
       26885000	      2687	80002590	00108e13	addi	x28,x1,1	  x1:0x80002a5c x28=0x80002a5d
       26895000	      2688	80002594	000e0e67	jalr	x28,x28,0	 x28:0x80002a5d x28=0x80002594
       26905000	      2689	00000000	00000013	addi	x0,x0,0	  x0:0x00000000
       26915000	      2690	80002a5c	00000013	addi	x0,x0,0	  x0:0x00000000
       26925000	      2691	80002a60	ff600993	addi	x19,x0,-10	  x0:0x00000000 x19=0xfffffff6
       26935000	      2692	80002a64	00ebd2b3	srl	x5,x23,x14	 x23:0xffffffff x14:0x00000000  x5=0xffffffff
       26945000	      2693	80002a68	41e58033	sub	x0,x11,x30	 x11:0x00000000 x30:0x80000549
       26955000	      2694	80002a6c	164f6617	auipc	x12,0x164f6	 x12=0x964f8a68
       26965000	      2695	80002a70	01fedb33	srl	x22,x29,x31	 x29:0xb0868000 x31:0x00000100 x22=0xb0868000
       26975000	      2696	80002a74	947cbc93	sltiu	x25,x25,-1721	 x25:0x00000200 x25=0x00000001
       26985000	      2697	80002a78	00000013	addi	x0,x0,0	  x0:0x00000000
       26995000	      2698	80002a7c	ff42ebb7	lui	x23,0xff42e	 x23=0xff42e000
       27005000	      2699	80002a80	00000013	addi	x0,x0,0	  x0:0x00000000
       27015000	      2700	80002a84	00800413	addi	x8,x0,8	  x0:0x00000000  x8=0x00000008
       27025000	      2701	80002a88	016ba5b3	slt	x11,x23,x22	 x23:0xff42e000 x22:0xb0868000 x11=0x00000000
       27035000	      2702	80002a8c	0189db93	srli	x23,x19,0x18	 x19:0xfffffff6 x23=0x000000ff
       27045000	      2703	80002a90	00698993	addi	x19,x19,6	 x19:0xfffffff6 x19=0xfffffffc
       27055000	      2704	80002a94	40a0dc93	srai	x25,x1,0xa	  x1:0x80002a5c x25=0xffe0000a
       27065000	      2705	80002a98	01b94c33	xor	x24,x18,x27	 x18:0x00000000 x27:0xffffffa3 x24=0xffffffa3
       27075000	      2706	80002a9c	005a1693	slli	x13,x20,0x5	 x20:0x2704e000 x13=0xe09c0000
       27085000	      2707	80002aa0	00199a93	slli	x21,x19,0x1	 x19:0xfffffffc x21=0xfffffff8
       27095000	      2708	80002aa4	1bc52793	slti	x15,x10,444	 x10:0x80000000 x15=0x00000001
       27105000	      2709	80002aa8	5a4c0393	addi	x7,x24,1444	 x24:0xffffffa3  x7=0x00000547
       27115000	      2710	80002aac	8001fc93	andi	x25,x3,-2048	  x3:0x00000007 x25=0x00000000
       27125000	      2711	80002ab0	00bc9213	slli	x4,x25,0xb	 x25:0x00000000  x4=0x00000000
       27135000	      2712	80002ab4	017bd893	srli	x17,x23,0x17	 x23:0x000000ff x17=0x00000000
       27145000	      2713	80002ab8	fc8988e3	beq	x19,x8,80002a88	 x19:0xfffffffc  x8:0x00000008
       27155000	      2714	80002abc	c987e093	ori	x1,x15,-872	 x15:0x00000001  x1=0xfffffc99
       27165000	      2715	80002ac0	020a4463	blt	x20,x0,80002ae8	 x20:0x2704e000  x0:0x00000000
       27175000	      2716	80002ac4	013178b3	and	x17,x2,x19	  x2:0x00000000 x19:0xfffffffc x17=0x00000000
       27185000	      2717	80002ac8	0074d013	srli	x0,x9,0x7	  x9:0x80009f48
       27195000	      2718	80002acc	098c4893	xori	x17,x24,152	 x24:0xffffffa3 x17=0xffffff3b
       27205000	      2719	80002ad0	25e00913	addi	x18,x0,606	  x0:0x00000000 x18=0x0000025e
       27215000	      2720	80002ad4	015c6bb3	or	x23,x24,x21	 x24:0xffffffa3 x21:0xfffffff8 x23=0xfffffffb
       27225000	      2721	80002ad8	0148ebb3	or	x23,x17,x20	 x17:0xffffff3b x20:0x2704e000 x23=0xffffff3b
       27235000	      2722	80002adc	0c920b93	addi	x23,x4,201	  x4:0x00000000 x23=0x000000c9
       27245000	      2723	80002ae0	00000013	addi	x0,x0,0	  x0:0x00000000
       27255000	      2724	80002ae4	01346213	ori	x4,x8,19	  x8:0x00000008  x4=0x0000001b
       27265000	      2725	80002ae8	0346cc63	blt	x13,x20,80002b20	 x13:0xe09c0000 x20:0x2704e000
       27275000	      2726	00000000	00000013	addi	x0,x0,0	  x0:0x00000000
       27285000	      2727	80002b1c	00000013	addi	x0,x0,0	  x0:0x00000000
       27295000	      2728	80002b20	015dd193	srli	x3,x27,0x15	 x27:0xffffffa3  x3=0x000007ff
       27305000	      2729	80002b24	412f8c33	sub	x24,x31,x18	 x31:0x00000100 x18:0x0000025e x24=0xfffffea2
       27315000	      2730	80002b28	2b3c2b97	auipc	x23,0x2b3c2	 x23=0xab3c4b24
       27325000	      2731	80002b2c	001209b3	add	x19,x4,x1	  x4:0x0000001b  x1:0xfffffc99 x19=0xfffffcb4
       27335000	      2732	80002b30	01144eb3	xor	x29,x8,x17	  x8:0x00000008 x17:0xffffff3b x29=0xffffff33
       27345000	      2733	80002b34	00b5c263	blt	x11,x11,80002b38	 x11:0x00000000 x11:0x00000000
       27355000	      2734	80002b38	d9557413	andi	x8,x10,-619	 x10:0x80000000  x8=0x80000000
       27365000	      2735	80002b3c	008f1813	slli	x16,x30,0x8	 x30:0x80000549 x16=0x00054900
       27375000	      2736	80002b40	01975693	srli	x13,x14,0x19	 x14:0x00000000 x13=0x00000000
       27385000	      2737	80002b44	93fbef13	ori	x30,x23,-1729	 x23:0xab3c4b24 x30=0xfffffb3f
       27395000	      2738	80002b48	d1397b93	andi	x23,x18,-749	 x18:0x0000025e x23=0x00000012
       27405000	      2739	80002b4c	001ebcb3	sltu	x25,x29,x1	 x29:0xffffff33  x1:0xfffffc99 x25=0x00000000
       27415000	      2740	80002b50	01a56433	or	x8,x10,x26	 x10:0x80000000 x26:0x00000501  x8=0x80000501
       27425000	      2741	80002b54	d1084d93	xori	x27,x16,-752	 x16:0x00054900 x27=0xfffab410
       27435000	      2742	80002b58	018f9eb3	sll	x29,x31,x24	 x31:0x00000100 x24:0xfffffea2 x29=0x00000400
       27445000	      2743	80002b5c	00000013	addi	x0,x0,0	  x0:0x00000000
       27455000	      2744	80002b60	019bc463	blt	x23,x25,80002b68	 x23:0x00000012 x25:0x00000000
       27465000	      2745	80002b64	4035d213	srai	x4,x11,0x3	 x11:0x00000000  x4=0x00000000
       27475000	      2746	80002b68	01ae5e63	bge	x28,x26,80002b84	 x28:0x80002594 x26:0x00000501
       27485000	      2747	80002b6c	002181b3	add	x3,x3,x2	  x3:0x000007ff  x2:0x00000000  x3=0x000007ff
       27495000	      2748	80002b70	01de9c93	slli	x25,x29,0x1d	 x29:0x00000400 x25=0x00000000
       27505000	      2749	80002b74	00874863	blt	x14,x8,80002b84	 x14:0x00000000  x8:0x80000501
       27515000	      2750	80002b78	01a9b133	sltu	x2,x19,x26	 x19:0xfffffcb4 x26:0x00000501  x2=0x00000000
       27525000	      2751	80002b7c	00aa5693	srli	x13,x20,0xa	 x20:0x2704e000 x13=0x0009c138
       27535000	      2752	80002b80	0132d263	bge	x5,x19,80002b84	  x5:0xffffffff x19:0xfffffcb4
       27545000	      2753	00000000	00000013	addi	x0,x0,0	  x0:0x00000000
       27555000	      2754	80002b80	00000013	addi	x0,x0,0	  x0:0x00000000
       27565000	      2755	80002b84	008dd6b3	srl	x13,x27,x8	 x27:0xfffab410  x8:0x80000501 x13=0x7ffd5a08
       27575000	      2756	80002b88	0044a083	lw	x1,4(x9)	  x9:0x80009f48  x1=0x80002c34 PA:0x80009f4c
       27585000	      2757	80002b8c	005bb1b3	sltu	x3,x23,x5	 x23:0x00000012  x5:0xffffffff  x3=0x00000001
       27595000	      2758	80002b90	910e68b7	lui	x17,0x910e6	 x17=0x910e6000
       27605000	      2759	80002b94	f23b3813	sltiu	x16,x22,-221	 x22:0xb0868000 x16=0x00000001
       27615000	      2760	80002b98	41e382b3	sub	x5,x7,x30	  x7:0x00000547 x30:0xfffffb3f  x5=0x00000a08
       27625000	      2761	80002b9c	03448493	addi	x9,x9,52	  x9:0x80009f48  x9=0x80009f7c
       27635000	      2762	80002ba0	009e5913	srli	x18,x28,0x9	 x28:0x80002594 x18=0x00400012
       27645000	      2763	80002ba4	0167adb3	slt	x27,x15,x22	 x15:0x00000001 x22:0xb0868000 x27=0x00000000
       27655000	      2764	80002ba8	00008913	addi	x18,x1,0	  x1:0x80002c34 x18=0x80002c34
       27665000	      2765	80002bac	00090967	jalr	x18,x18,0	 x18:0x80002c34 x18=0x80002bac
       27675000	      2766	00000000	00000013	addi	x0,x0,0	  x0:0x00000000
       27685000	      2767	80002c34	00000013	addi	x0,x0,0	  x0:0x00000000
       27695000	      2768	80002c38	ec69bd93	sltiu	x27,x19,-314	 x19:0xfffffcb4 x27=0x00000001
       27705000	      2769	80002c3c	00000013	addi	x0,x0,0	  x0:0x00000000
       27715000	      2770	80002c40	00c4d893	srli	x17,x9,0xc	  x9:0x80009f7c x17=0x00080009
       27725000	      2771	80002c44	dece2913	slti	x18,x28,-532	 x28:0x80002594 x18=0x00000001
       27735000	      2772	80002c48	1a404917	auipc	x18,0x1a404	 x18=0x9a406c44
       27745000	      2773	80002c4c	00aeba33	sltu	x20,x29,x10	 x29:0x00000400 x10:0x80000000 x20=0x00000001
       27755000	      2774	80002c50	0064fab3	and	x21,x9,x6	  x9:0x80009f7c  x6:0x80009fc4 x21=0x80009f44
       27765000	      2775	80002c54	3a4f2e13	slti	x28,x30,932	 x30:0xfffffb3f x28=0x00000001
       27775000	      2776	80002c58	0042d663	bge	x5,x4,80002c64	  x5:0x00000a08  x4:0x00000000
       27785000	      2777	00000000	00000013	addi	x0,x0,0	  x0:0x00000000
       27795000	      2778	80002c60	00000013	addi	x0,x0,0	  x0:0x00000000
       27805000	      2779	80002c64	d81ff0ef	jal	x1,80002c64	  x1=0x80002c64
       27815000	      2780	00000000	00000013	addi	x0,x0,0	  x0:0x00000000
       27825000	      2781	800029e0	00000013	addi	x0,x0,0	  x0:0x00000000
       27835000	      2782	800029e4	fcc48493	addi	x9,x9,-52	  x9:0x80009f7c  x9=0x80009f48
       27845000	      2783	800029e8	8ec88e37	lui	x28,0x8ec88	 x28=0x8ec88000
       27855000	      2784	800029ec	00ced933	srl	x18,x29,x12	 x29:0x00000400 x12:0x964f8a68 x18=0x00000004
       27865000	      2785	800029f0	40c45c13	srai	x24,x8,0xc	  x8:0x80000501 x24=0xfff80000
       27875000	      2786	800029f4	00327033	and	x0,x4,x3	  x4:0x00000000  x3:0x00000001
       27885000	      2787	800029f8	460fb893	sltiu	x17,x31,1120	 x31:0x00000100 x17=0x00000001
       27895000	      2788	800029fc	1ae0ea93	ori	x21,x1,430	  x1:0x80002c64 x21=0x80002dee
       27905000	      2789	80002a00	4a13f393	andi	x7,x7,1185	  x7:0x00000547  x7=0x00000401
       27915000	      2790	80002a04	27be5c97	auipc	x25,0x27be5	 x25=0xa7be7a00
       27925000	      2791	80002a08	05726193	ori	x3,x4,87	  x4:0x00000000  x3=0x00000057
       27935000	      2792	80002a0c	0014a223	sw	x1,4(x9)	  x9:0x80009f48  x1:0x80002c64 PA:0x80009f4c
       27945000	      2793	80002a10	4049d133	sra	x2,x19,x4	 x19:0xfffffcb4  x4:0x00000000  x2=0xfffffcb4
       27955000	      2794	80002a14	4086d033	sra	x0,x13,x8	 x13:0x7ffd5a08  x8:0x80000501
       27965000	      2795	80002a18	00fb2cb3	slt	x25,x22,x15	 x22:0xb0868000 x15:0x00000001 x25=0x00000001
       27975000	      2796	80002a1c	00cb1d93	slli	x27,x22,0xc	 x22:0xb0868000 x27=0x68000000
       27985000	      2797	80002a20	00681133	sll	x2,x16,x6	 x16:0x00000001  x6:0x80009fc4  x2=0x00000010
       27995000	      2798	80002a24	60546d13	ori	x26,x8,1541	  x8:0x80000501 x26=0x80000705
       28005000	      2799	80002a28	009ffb33	and	x22,x31,x9	 x31:0x00000100  x9:0x80009f48 x22=0x00000100
       28015000	      2800	80002a2c	01e777b3	and	x15,x14,x30	 x14:0x00000000 x30:0xfffffb3f x15=0x00000000
       28025000	      2801	80002a30	01800eb3	add	x29,x0,x24	  x0:0x00000000 x24:0xfff80000 x29=0xfff80000
       28035000	      2802	80002a34	9a9ff0ef	jal	x1,80002a34	  x1=0x80002a34
       28045000	      2803	00000000	00000013	addi	x0,x0,0	  x0:0x00000000
       28055000	      2804	800023d8	00000013	addi	x0,x0,0	  x0:0x00000000
       28065000	      2805	800023dc	ff048493	addi	x9,x9,-16	  x9:0x80009f48  x9=0x80009f38
       28075000	      2806	800023e0	01e006b3	add	x13,x0,x30	  x0:0x00000000 x30:0xfffffb3f x13=0xfffffb3f
       28085000	      2807	800023e4	00000013	addi	x0,x0,0	  x0:0x00000000
       28095000	      2808	800023e8	01d7e833	or	x16,x15,x29	 x15:0x00000000 x29:0xfff80000 x16=0xfff80000
       28105000	      2809	800023ec	00e441b3	xor	x3,x8,x14	  x8:0x80000501 x14:0x00000000  x3=0x80000501
       28115000	      2810	800023f0	00e6f433	and	x8,x13,x14	 x13:0xfffffb3f x14:0x00000000  x8=0x00000000
       28125000	      2811	800023f4	0014a223	sw	x1,4(x9)	  x9:0x80009f38  x1:0x80002a34 PA:0x80009f3c
       28135000	      2812	800023f8	001669b3	or	x19,x12,x1	 x12:0x964f8a68  x1:0x80002a34 x19=0x964faa7c
       28145000	      2813	800023fc	00595393	srli	x7,x18,0x5	 x18:0x00000004  x7=0x00000000
       28155000	      2814	80002400	00800913	addi	x18,x0,8	  x0:0x00000000 x18=0x00000008
       28165000	      2815	80002404	01300593	addi	x11,x0,19	  x0:0x00000000 x11=0x00000013
       28175000	      2816	80002408	53a10b13	addi	x22,x2,1338	  x2:0x00000010 x22=0x0000054a
       28185000	      2817	8000240c	00a90913	addi	x18,x18,10	 x18:0x00000008 x18=0x00000012
       28195000	      2818	80002410	ff600213	addi	x4,x0,-10	  x0:0x00000000  x4=0xfffffff6
       28205000	      2819	80002414	00f00113	addi	x2,x0,15	  x0:0x00000000  x2=0x0000000f
       28215000	      2820	80002418	402a8c33	sub	x24,x21,x2	 x21:0x80002dee  x2:0x0000000f x24=0x80002ddf
       28225000	      2821	8000241c	00000013	addi	x0,x0,0	  x0:0x00000000
       28235000	      2822	80002420	0142b633	sltu	x12,x5,x20	  x5:0x00000a08 x20:0x00000001 x12=0x00000000
       28245000	      2823	80002424	00720213	addi	x4,x4,7	  x4:0xfffffff6  x4=0xfffffffd
       28255000	      2824	80002428	fe226ae3	bltu	x4,x2,8000241c	  x4:0xfffffffd  x2:0x0000000f
       28265000	      2825	8000242c	fcb94ee3	blt	x18,x11,80002408	 x18:0x00000012 x11:0x00000013
       28275000	      2826	00000000	00000013	addi	x0,x0,0	  x0:0x00000000
       28285000	      2827	80002404	00000013	addi	x0,x0,0	  x0:0x00000000
       28295000	      2828	80002408	53a10b13	addi	x22,x2,1338	  x2:0x0000000f x22=0x00000549
       28305000	      2829	8000240c	00a90913	addi	x18,x18,10	 x18:0x00000012 x18=0x0000001c
       28315000	      2830	80002410	ff600213	addi	x4,x0,-10	  x0:0x00000000  x4=0xfffffff6
       28325000	      2831	80002414	00f00113	addi	x2,x0,15	  x0:0x00000000  x2=0x0000000f
       28335000	      2832	80002418	402a8c33	sub	x24,x21,x2	 x21:0x80002dee  x2:0x0000000f x24=0x80002ddf
       28345000	      2833	8000241c	00000013	addi	x0,x0,0	  x0:0x00000000
       28355000	      2834	80002420	0142b633	sltu	x12,x5,x20	  x5:0x00000a08 x20:0x00000001 x12=0x00000000
       28365000	      2835	80002424	00720213	addi	x4,x4,7	  x4:0xfffffff6  x4=0xfffffffd
       28375000	      2836	80002428	fe226ae3	bltu	x4,x2,8000241c	  x4:0xfffffffd  x2:0x0000000f
       28385000	      2837	8000242c	fcb94ee3	blt	x18,x11,80002408	 x18:0x0000001c x11:0x00000013
       28395000	      2838	80002430	005580b3	add	x1,x11,x5	 x11:0x00000013  x5:0x00000a08  x1=0x00000a1b
       28405000	      2839	80002434	00c156b3	srl	x13,x2,x12	  x2:0x0000000f x12:0x00000000 x13=0x0000000f
       28415000	      2840	80002438	535c2213	slti	x4,x24,1333	 x24:0x80002ddf  x4=0x00000001
       28425000	      2841	8000243c	002af033	and	x0,x21,x2	 x21:0x80002dee  x2:0x0000000f
       28435000	      2842	80002440	01b55e33	srl	x28,x10,x27	 x10:0x80000000 x27:0x68000000 x28=0x80000000
       28445000	      2843	80002444	53ffb813	sltiu	x16,x31,1343	 x31:0x00000100 x16=0x00000001
       28455000	      2844	80002448	00767633	and	x12,x12,x7	 x12:0x00000000  x7:0x00000000 x12=0x00000000
       28465000	      2845	8000244c	01967663	bgeu	x12,x25,80002458	 x12:0x00000000 x25:0x00000001
       28475000	      2846	80002450	00f3e863	bltu	x7,x15,80002460	  x7:0x00000000 x15:0x00000000
       28485000	      2847	80002454	00ce62b3	or	x5,x28,x12	 x28:0x80000000 x12:0x00000000  x5=0x80000000
       28495000	      2848	80002458	01640ab3	add	x21,x8,x22	  x8:0x00000000 x22:0x00000549 x21=0x00000549
       28505000	      2849	8000245c	03c8ce63	blt	x17,x28,80002498	 x17:0x00000001 x28:0x80000000
       28515000	      2850	80002460	f4bd5e97	auipc	x29,0xf4bd5	 x29=0x74bd745c
       28525000	      2851	80002464	13148a13	addi	x20,x9,305	  x9:0x80009f38 x20=0x8000a069
       28535000	      2852	80002468	58772213	slti	x4,x14,1415	 x14:0x00000000  x4=0x00000001
       28545000	      2853	8000246c	0446c463	blt	x13,x4,800024b4	 x13:0x0000000f  x4:0x00000001
       28555000	      2854	80002470	ae416593	ori	x11,x2,-1308	  x2:0x0000000f x11=0xfffffaef
       28565000	      2855	80002474	350eee13	ori	x28,x29,848	 x29:0x74bd745c x28=0x74bd775c
       28575000	      2856	80002478	0d2a5a97	auipc	x21,0xd2a5	 x21=0x8d2a7474
       28585000	      2857	8000247c	04e01863	bne	x0,x14,800024cc	  x0:0x00000000 x14:0x00000000
       28595000	      2858	80002480	01249393	slli	x7,x9,0x12	  x9:0x80009f38  x7=0x7ce00000
       28605000	      2859	80002484	4161db93	srai	x23,x3,0x16	  x3:0x80000501 x23=0xfffffe00
       28615000	      2860	80002488	015c7863	bgeu	x24,x21,80002498	 x24:0x80002ddf x21:0x8d2a7474
       28625000	      2861	8000248c	011c5cb3	srl	x25,x24,x17	 x24:0x80002ddf x17:0x00000001 x25=0x400016ef
       28635000	      2862	80002490	b16275b7	lui	x11,0xb1627	 x11=0xb1627000
       28645000	      2863	80002494	05874663	blt	x14,x24,800024e0	 x14:0x00000000 x24:0x80002ddf
       28655000	      2864	80002498	00554f33	xor	x30,x10,x5	 x10:0x80000000  x5:0x80000000 x30=0x00000000
       28665000	      2865	8000249c	41e05db3	sra	x27,x0,x30	  x0:0x00000000 x30:0x00000000 x27=0x00000000
       28675000	      2866	800024a0	00443a33	sltu	x20,x8,x4	  x8:0x00000000  x4:0x00000001 x20=0x00000001
       28685000	      2867	800024a4	01c8da33	srl	x20,x17,x28	 x17:0x00000001 x28:0x74bd775c x20=0x00000000
       28695000	      2868	800024a8	00b89213	slli	x4,x17,0xb	 x17:0x00000001  x4=0x00000800
       28705000	      2869	800024ac	03527063	bgeu	x4,x21,800024cc	  x4:0x00000800 x21:0x8d2a7474
       28715000	      2870	800024b0	41648133	sub	x2,x9,x22	  x9:0x80009f38 x22:0x00000549  x2=0x800099ef
       28725000	      2871	800024b4	b08680b7	lui	x1,0xb0868	  x1=0xb0868000
       28735000	      2872	800024b8	5bb7a413	slti	x8,x15,1467	 x15:0x00000000  x8=0x00000001
       28745000	      2873	800024bc	006c4863	blt	x24,x6,800024cc	 x24:0x80002ddf  x6:0x80009fc4
       28755000	      2874	00000000	00000013	addi	x0,x0,0	  x0:0x00000000
       28765000	      2875	800024c8	00000013	addi	x0,x0,0	  x0:0x00000000
       28775000	      2876	800024cc	03564a63	blt	x12,x21,80002500	 x12:0x00000000 x21:0x8d2a7474
       28785000	      2877	800024d0	014c75b3	and	x11,x24,x20	 x24:0x80002ddf x20:0x00000000 x11=0x00000000
       28795000	      2878	800024d4	0d2ab993	sltiu	x19,x21,210	 x21:0x8d2a7474 x19=0x00000000
       28805000	      2879	800024d8	2d5cf993	andi	x19,x25,725	 x25:0x400016ef x19=0x000002c5
       28815000	      2880	800024dc	4008d233	sra	x4,x17,x0	 x17:0x00000001  x0:0x00000000  x4=0x00000001
       28825000	      2881	800024e0	00c0eeb3	or	x29,x1,x12	  x1:0xb0868000 x12:0x00000000 x29=0xb0868000
       28835000	      2882	800024e4	00000013	addi	x0,x0,0	  x0:0x00000000
       28845000	      2883	800024e8	01d1f233	and	x4,x3,x29	  x3:0x80000501 x29:0xb0868000  x4=0x80000000
       28855000	      2884	800024ec	03d8de63	bge	x17,x29,80002528	 x17:0x00000001 x29:0xb0868000
       28865000	      2885	00000000	00000013	addi	x0,x0,0	  x0:0x00000000
       28875000	      2886	80002524	00000013	addi	x0,x0,0	  x0:0x00000000
       28885000	      2887	80002528	c3dbae13	slti	x28,x23,-963	 x23:0xfffffe00 x28=0x00000000
       28895000	      2888	8000252c	00a71f93	slli	x31,x14,0xa	 x14:0x00000000 x31=0x00000000
       28905000	      2889	80002530	93442113	slti	x2,x8,-1740	  x8:0x00000001  x2=0x00000000
       28915000	      2890	80002534	002f9933	sll	x18,x31,x2	 x31:0x00000000  x2:0x00000000 x18=0x00000000
       28925000	      2891	80002538	2c242293	slti	x5,x8,706	  x8:0x00000001  x5=0x00000001
       28935000	      2892	8000253c	412681b3	sub	x3,x13,x18	 x13:0x0000000f x18:0x00000000  x3=0x0000000f
       28945000	      2893	80002540	2704ea37	lui	x20,0x2704e	 x20=0x2704e000
       28955000	      2894	80002544	00059fb3	sll	x31,x11,x0	 x11:0x00000000  x0:0x00000000 x31=0x00000000
       28965000	      2895	80002548	024b9063	bne	x23,x4,80002568	 x23:0xfffffe00  x4:0x80000000
       28975000	      2896	00000000	00000013	addi	x0,x0,0	  x0:0x00000000
       28985000	      2897	80002564	00000013	addi	x0,x0,0	  x0:0x00000000
       28995000	      2898	80002568	016dfd33	and	x26,x27,x22	 x27:0x00000000 x22:0x00000549 x26=0x00000000
       29005000	      2899	8000256c	00886263	bltu	x16,x8,80002570	 x16:0x00000001  x8:0x00000001
       29015000	      2900	80002570	01cb42b3	xor	x5,x22,x28	 x22:0x00000549 x28:0x00000000  x5=0x00000549
       29025000	      2901	80002574	0044a083	lw	x1,4(x9)	  x9:0x80009f38  x1=0x80002a34 PA:0x80009f3c
       29035000	      2902	80002578	016f5c93	srli	x25,x30,0x16	 x30:0x00000000 x25=0x00000000
       29045000	      2903	8000257c	01048493	addi	x9,x9,16	  x9:0x80009f38  x9=0x80009f48
       29055000	      2904	80002580	d8bd2c13	slti	x24,x26,-629	 x26:0x00000000 x24=0x00000000
       29065000	      2905	80002584	411d87b3	sub	x15,x27,x17	 x27:0x00000000 x17:0x00000001 x15=0xffffffff
       29075000	      2906	80002588	010ed3b3	srl	x7,x29,x16	 x29:0xb0868000 x16:0x00000001  x7=0x58434000
       29085000	      2907	8000258c	300f7f93	andi	x31,x30,768	 x30:0x00000000 x31=0x00000000
       29095000	      2908	80002590	00108e13	addi	x28,x1,1	  x1:0x80002a34 x28=0x80002a35
       29105000	      2909	80002594	000e0e67	jalr	x28,x28,0	 x28:0x80002a35 x28=0x80002594
       29115000	      2910	00000000	00000013	addi	x0,x0,0	  x0:0x00000000
       29125000	      2911	80002a34	00000013	addi	x0,x0,0	  x0:0x00000000
       29135000	      2912	80002a38	01b31893	slli	x17,x6,0x1b	  x6:0x80009fc4 x17=0x20000000
       29145000	      2913	80002a3c	00000217	auipc	x4,0x0	  x4=0x80002a38
       29155000	      2914	80002a40	9a020213	addi	x4,x4,-1632	  x4:0x80002a38  x4=0x800023d8
       29165000	      2915	80002a44	c5b20213	addi	x4,x4,-933	  x4:0x800023d8  x4=0x80002033
       29175000	      2916	80002a48	00000013	addi	x0,x0,0	  x0:0x00000000
       29185000	      2917	80002a4c	a380e093	ori	x1,x1,-1480	  x1:0x80002a34  x1=0xfffffa3c
       29195000	      2918	80002a50	c5014413	xori	x8,x2,-944	  x2:0x00000000  x8=0xfffffc50
       29205000	      2919	80002a54	00000013	addi	x0,x0,0	  x0:0x00000000
       29215000	      2920	80002a58	01f08cb3	add	x25,x1,x31	  x1:0xfffffa3c x31:0x00000000 x25=0xfffffa3c
       29225000	      2921	80002a5c	3a5200e7	jalr	x1,x4,933	  x4:0x80002033  x1=0x80002a5c
       29235000	      2922	00000000	00000013	addi	x0,x0,0	  x0:0x00000000
       29245000	      2923	800023d8	00000013	addi	x0,x0,0	  x0:0x00000000
       29255000	      2924	800023dc	ff048493	addi	x9,x9,-16	  x9:0x80009f48  x9=0x80009f38
       29265000	      2925	800023e0	01e006b3	add	x13,x0,x30	  x0:0x00000000 x30:0x00000000 x13=0x00000000
       29275000	      2926	800023e4	00000013	addi	x0,x0,0	  x0:0x00000000
       29285000	      2927	800023e8	01d7e833	or	x16,x15,x29	 x15:0xffffffff x29:0xb0868000 x16=0xffffffff
       29295000	      2928	800023ec	00e441b3	xor	x3,x8,x14	  x8:0xfffffc50 x14:0x00000000  x3=0xfffffc50
       29305000	      2929	800023f0	00e6f433	and	x8,x13,x14	 x13:0x00000000 x14:0x00000000  x8=0x00000000
       29315000	      2930	800023f4	0014a223	sw	x1,4(x9)	  x9:0x80009f38  x1:0x80002a5c PA:0x80009f3c
       29325000	      2931	800023f8	001669b3	or	x19,x12,x1	 x12:0x00000000  x1:0x80002a5c x19=0x80002a5c
       29335000	      2932	800023fc	00595393	srli	x7,x18,0x5	 x18:0x00000000  x7=0x00000000
       29345000	      2933	80002400	00800913	addi	x18,x0,8	  x0:0x00000000 x18=0x00000008
       29355000	      2934	80002404	01300593	addi	x11,x0,19	  x0:0x00000000 x11=0x00000013
       29365000	      2935	80002408	53a10b13	addi	x22,x2,1338	  x2:0x00000000 x22=0x0000053a
       29375000	      2936	8000240c	00a90913	addi	x18,x18,10	 x18:0x00000008 x18=0x00000012
       29385000	      2937	80002410	ff600213	addi	x4,x0,-10	  x0:0x00000000  x4=0xfffffff6
       29395000	      2938	80002414	00f00113	addi	x2,x0,15	  x0:0x00000000  x2=0x0000000f
       29405000	      2939	80002418	402a8c33	sub	x24,x21,x2	 x21:0x8d2a7474  x2:0x0000000f x24=0x8d2a7465
       29415000	      2940	8000241c	00000013	addi	x0,x0,0	  x0:0x00000000
       29425000	      2941	80002420	0142b633	sltu	x12,x5,x20	  x5:0x00000549 x20:0x2704e000 x12=0x00000001
       29435000	      2942	80002424	00720213	addi	x4,x4,7	  x4:0xfffffff6  x4=0xfffffffd
       29445000	      2943	80002428	fe226ae3	bltu	x4,x2,8000241c	  x4:0xfffffffd  x2:0x0000000f
       29455000	      2944	8000242c	fcb94ee3	blt	x18,x11,80002408	 x18:0x00000012 x11:0x00000013
       29465000	      2945	00000000	00000013	addi	x0,x0,0	  x0:0x00000000
       29475000	      2946	80002404	00000013	addi	x0,x0,0	  x0:0x00000000
       29485000	      2947	80002408	53a10b13	addi	x22,x2,1338	  x2:0x0000000f x22=0x00000549
       29495000	      2948	8000240c	00a90913	addi	x18,x18,10	 x18:0x00000012 x18=0x0000001c
       29505000	      2949	80002410	ff600213	addi	x4,x0,-10	  x0:0x00000000  x4=0xfffffff6
       29515000	      2950	80002414	00f00113	addi	x2,x0,15	  x0:0x00000000  x2=0x0000000f
       29525000	      2951	80002418	402a8c33	sub	x24,x21,x2	 x21:0x8d2a7474  x2:0x0000000f x24=0x8d2a7465
       29535000	      2952	8000241c	00000013	addi	x0,x0,0	  x0:0x00000000
       29545000	      2953	80002420	0142b633	sltu	x12,x5,x20	  x5:0x00000549 x20:0x2704e000 x12=0x00000001
       29555000	      2954	80002424	00720213	addi	x4,x4,7	  x4:0xfffffff6  x4=0xfffffffd
       29565000	      2955	80002428	fe226ae3	bltu	x4,x2,8000241c	  x4:0xfffffffd  x2:0x0000000f
       29575000	      2956	8000242c	fcb94ee3	blt	x18,x11,80002408	 x18:0x0000001c x11:0x00000013
       29585000	      2957	80002430	005580b3	add	x1,x11,x5	 x11:0x00000013  x5:0x00000549  x1=0x0000055c
       29595000	      2958	80002434	00c156b3	srl	x13,x2,x12	  x2:0x0000000f x12:0x00000001 x13=0x00000007
       29605000	      2959	80002438	535c2213	slti	x4,x24,1333	 x24:0x8d2a7465  x4=0x00000001
       29615000	      2960	8000243c	002af033	and	x0,x21,x2	 x21:0x8d2a7474  x2:0x0000000f
       29625000	      2961	80002440	01b55e33	srl	x28,x10,x27	 x10:0x80000000 x27:0x00000000 x28=0x80000000
       29635000	      2962	80002444	53ffb813	sltiu	x16,x31,1343	 x31:0x00000000 x16=0x00000001
       29645000	      2963	80002448	00767633	and	x12,x12,x7	 x12:0x00000001  x7:0x00000000 x12=0x00000000
       29655000	      2964	8000244c	01967663	bgeu	x12,x25,80002458	 x12:0x00000000 x25:0xfffffa3c
       29665000	      2965	80002450	00f3e863	bltu	x7,x15,80002460	  x7:0x00000000 x15:0xffffffff
       29675000	      2966	00000000	00000013	addi	x0,x0,0	  x0:0x00000000
       29685000	      2967	8000245c	00000013	addi	x0,x0,0	  x0:0x00000000
       29695000	      2968	80002460	f4bd5e97	auipc	x29,0xf4bd5	 x29=0x74bd745c
       29705000	      2969	80002464	13148a13	addi	x20,x9,305	  x9:0x80009f38 x20=0x8000a069
       29715000	      2970	80002468	58772213	slti	x4,x14,1415	 x14:0x00000000  x4=0x00000001
       29725000	      2971	8000246c	0446c463	blt	x13,x4,800024b4	 x13:0x00000007  x4:0x00000001
       29735000	      2972	80002470	ae416593	ori	x11,x2,-1308	  x2:0x0000000f x11=0xfffffaef
       29745000	      2973	80002474	350eee13	ori	x28,x29,848	 x29:0x74bd745c x28=0x74bd775c
       29755000	      2974	80002478	0d2a5a97	auipc	x21,0xd2a5	 x21=0x8d2a7474
       29765000	      2975	8000247c	04e01863	bne	x0,x14,800024cc	  x0:0x00000000 x14:0x00000000
       29775000	      2976	80002480	01249393	slli	x7,x9,0x12	  x9:0x80009f38  x7=0x7ce00000
       29785000	      2977	80002484	4161db93	srai	x23,x3,0x16	  x3:0xfffffc50 x23=0xffffffff
       29795000	      2978	80002488	015c7863	bgeu	x24,x21,80002498	 x24:0x8d2a7465 x21:0x8d2a7474
       29805000	      2979	8000248c	011c5cb3	srl	x25,x24,x17	 x24:0x8d2a7465 x17:0x20000000 x25=0x8d2a7465
       29815000	      2980	80002490	b16275b7	lui	x11,0xb1627	 x11=0xb1627000
       29825000	      2981	80002494	05874663	blt	x14,x24,800024e0	 x14:0x00000000 x24:0x8d2a7465
       29835000	      2982	80002498	00554f33	xor	x30,x10,x5	 x10:0x80000000  x5:0x00000549 x30=0x80000549
       29845000	      2983	8000249c	41e05db3	sra	x27,x0,x30	  x0:0x00000000 x30:0x80000549 x27=0x00000000
       29855000	      2984	800024a0	00443a33	sltu	x20,x8,x4	  x8:0x00000000  x4:0x00000001 x20=0x00000001
       29865000	      2985	800024a4	01c8da33	srl	x20,x17,x28	 x17:0x20000000 x28:0x74bd775c x20=0x00000002
       29875000	      2986	800024a8	00b89213	slli	x4,x17,0xb	 x17:0x20000000  x4=0x00000000
       29885000	      2987	800024ac	03527063	bgeu	x4,x21,800024cc	  x4:0x00000000 x21:0x8d2a7474
       29895000	      2988	800024b0	41648133	sub	x2,x9,x22	  x9:0x80009f38 x22:0x00000549  x2=0x800099ef
       29905000	      2989	800024b4	b08680b7	lui	x1,0xb0868	  x1=0xb0868000
       29915000	      2990	800024b8	5bb7a413	slti	x8,x15,1467	 x15:0xffffffff  x8=0x00000001
       29925000	      2991	800024bc	006c4863	blt	x24,x6,800024cc	 x24:0x8d2a7465  x6:0x80009fc4
       29935000	      2992	800024c0	04720263	beq	x4,x7,80002504	  x4:0x00000000  x7:0x7ce00000
       29945000	      2993	800024c4	fa1a4d93	xori	x27,x20,-95	 x20:0x00000002 x27=0xffffffa3
       29955000	      2994	800024c8	ff008937	lui	x18,0xff008	 x18=0xff008000
       29965000	      2995	800024cc	03564a63	blt	x12,x21,80002500	 x12:0x00000000 x21:0x8d2a7474
       29975000	      2996	800024d0	014c75b3	and	x11,x24,x20	 x24:0x8d2a7465 x20:0x00000002 x11=0x00000000
       29985000	      2997	800024d4	0d2ab993	sltiu	x19,x21,210	 x21:0x8d2a7474 x19=0x00000000
       29995000	      2998	800024d8	2d5cf993	andi	x19,x25,725	 x25:0x8d2a7465 x19=0x00000045
       30005000	      2999	800024dc	4008d233	sra	x4,x17,x0	 x17:0x20000000  x0:0x00000000  x4=0x20000000
       30015000	      3000	800024e0	00c0eeb3	or	x29,x1,x12	  x1:0xb0868000 x12:0x00000000 x29=0xb0868000
       30025000	      3001	800024e4	00000013	addi	x0,x0,0	  x0:0x00000000
       30035000	      3002	800024e8	01d1f233	and	x4,x3,x29	  x3:0xfffffc50 x29:0xb0868000  x4=0xb0868000
       30045000	      3003	800024ec	03d8de63	bge	x17,x29,80002528	 x17:0x20000000 x29:0xb0868000
       30055000	      3004	00000000	00000013	addi	x0,x0,0	  x0:0x00000000
       30065000	      3005	80002524	00000013	addi	x0,x0,0	  x0:0x00000000
       30075000	      3006	80002528	c3dbae13	slti	x28,x23,-963	 x23:0xffffffff x28=0x00000000
       30085000	      3007	8000252c	00a71f93	slli	x31,x14,0xa	 x14:0x00000000 x31=0x00000000
       30095000	      3008	80002530	93442113	slti	x2,x8,-1740	  x8:0x00000001  x2=0x00000000
       30105000	      3009	80002534	002f9933	sll	x18,x31,x2	 x31:0x00000000  x2:0x00000000 x18=0x00000000
       30115000	      3010	80002538	2c242293	slti	x5,x8,706	  x8:0x00000001  x5=0x00000001
       30125000	      3011	8000253c	412681b3	sub	x3,x13,x18	 x13:0x00000007 x18:0x00000000  x3=0x00000007
       30135000	      3012	80002540	2704ea37	lui	x20,0x2704e	 x20=0x2704e000
       30145000	      3013	80002544	00059fb3	sll	x31,x11,x0	 x11:0x00000000  x0:0x00000000 x31=0x00000000
       30155000	      3014	80002548	024b9063	bne	x23,x4,80002568	 x23:0xffffffff  x4:0xb0868000
       30165000	      3015	00000000	00000013	addi	x0,x0,0	  x0:0x00000000
       30175000	      3016	80002564	00000013	addi	x0,x0,0	  x0:0x00000000
       30185000	      3017	80002568	016dfd33	and	x26,x27,x22	 x27:0xffffffa3 x22:0x00000549 x26=0x00000501
       30195000	      3018	8000256c	00886263	bltu	x16,x8,80002570	 x16:0x00000001  x8:0x00000001
       30205000	      3019	80002570	01cb42b3	xor	x5,x22,x28	 x22:0x00000549 x28:0x00000000  x5=0x00000549
       30215000	      3020	80002574	0044a083	lw	x1,4(x9)	  x9:0x80009f38  x1=0x80002a5c PA:0x80009f3c
       30225000	      3021	80002578	016f5c93	srli	x25,x30,0x16	 x30:0x80000549 x25=0x00000200
       30235000	      3022	8000257c	01048493	addi	x9,x9,16	  x9:0x80009f38  x9=0x80009f48
       30245000	      3023	80002580	d8bd2c13	slti	x24,x26,-629	 x26:0x00000501 x24=0x00000000
       30255000	      3024	80002584	411d87b3	sub	x15,x27,x17	 x27:0xffffffa3 x17:0x20000000 x15=0xdfffffa3
       30265000	      3025	80002588	010ed3b3	srl	x7,x29,x16	 x29:0xb0868000 x16:0x00000001  x7=0x58434000
       30275000	      3026	8000258c	300f7f93	andi	x31,x30,768	 x30:0x80000549 x31=0x00000100
       30285000	      3027	80002590	00108e13	addi	x28,x1,1	  x1:0x80002a5c x28=0x80002a5d
       30295000	      3028	80002594	000e0e67	jalr	x28,x28,0	 x28:0x80002a5d x28=0x80002594
       30305000	      3029	00000000	00000013	addi	x0,x0,0	  x0:0x00000000
       30315000	      3030	80002a5c	00000013	addi	x0,x0,0	  x0:0x00000000
       30325000	      3031	80002a60	ff600993	addi	x19,x0,-10	  x0:0x00000000 x19=0xfffffff6
       30335000	      3032	80002a64	00ebd2b3	srl	x5,x23,x14	 x23:0xffffffff x14:0x00000000  x5=0xffffffff
       30345000	      3033	80002a68	41e58033	sub	x0,x11,x30	 x11:0x00000000 x30:0x80000549
       30355000	      3034	80002a6c	164f6617	auipc	x12,0x164f6	 x12=0x964f8a68
       30365000	      3035	80002a70	01fedb33	srl	x22,x29,x31	 x29:0xb0868000 x31:0x00000100 x22=0xb0868000
       30375000	      3036	80002a74	947cbc93	sltiu	x25,x25,-1721	 x25:0x00000200 x25=0x00000001
       30385000	      3037	80002a78	00000013	addi	x0,x0,0	  x0:0x00000000
       30395000	      3038	80002a7c	ff42ebb7	lui	x23,0xff42e	 x23=0xff42e000
       30405000	      3039	80002a80	00000013	addi	x0,x0,0	  x0:0x00000000
       30415000	      3040	80002a84	00800413	addi	x8,x0,8	  x0:0x00000000  x8=0x00000008
       30425000	      3041	80002a88	016ba5b3	slt	x11,x23,x22	 x23:0xff42e000 x22:0xb0868000 x11=0x00000000
       30435000	      3042	80002a8c	0189db93	srli	x23,x19,0x18	 x19:0xfffffff6 x23=0x000000ff
       30445000	      3043	80002a90	00698993	addi	x19,x19,6	 x19:0xfffffff6 x19=0xfffffffc
       30455000	      3044	80002a94	40a0dc93	srai	x25,x1,0xa	  x1:0x80002a5c x25=0xffe0000a
       30465000	      3045	80002a98	01b94c33	xor	x24,x18,x27	 x18:0x00000000 x27:0xffffffa3 x24=0xffffffa3
       30475000	      3046	80002a9c	005a1693	slli	x13,x20,0x5	 x20:0x2704e000 x13=0xe09c0000
       30485000	      3047	80002aa0	00199a93	slli	x21,x19,0x1	 x19:0xfffffffc x21=0xfffffff8
       30495000	      3048	80002aa4	1bc52793	slti	x15,x10,444	 x10:0x80000000 x15=0x00000001
       30505000	      3049	80002aa8	5a4c0393	addi	x7,x24,1444	 x24:0xffffffa3  x7=0x00000547
       30515000	      3050	80002aac	8001fc93	andi	x25,x3,-2048	  x3:0x00000007 x25=0x00000000
       30525000	      3051	80002ab0	00bc9213	slli	x4,x25,0xb	 x25:0x00000000  x4=0x00000000
       30535000	      3052	80002ab4	017bd893	srli	x17,x23,0x17	 x23:0x000000ff x17=0x00000000
       30545000	      3053	80002ab8	fc8988e3	beq	x19,x8,80002a88	 x19:0xfffffffc  x8:0x00000008
       30555000	      3054	80002abc	c987e093	ori	x1,x15,-872	 x15:0x00000001  x1=0xfffffc99
       30565000	      3055	80002ac0	020a4463	blt	x20,x0,80002ae8	 x20:0x2704e000  x0:0x00000000
       30575000	      3056	80002ac4	013178b3	and	x17,x2,x19	  x2:0x00000000 x19:0xfffffffc x17=0x00000000
       30585000	      3057	80002ac8	0074d013	srli	x0,x9,0x7	  x9:0x80009f48
       30595000	      3058	80002acc	098c4893	xori	x17,x24,152	 x24:0xffffffa3 x17=0xffffff3b
       30605000	      3059	80002ad0	25e00913	addi	x18,x0,606	  x0:0x00000000 x18=0x0000025e
       30615000	      3060	80002ad4	015c6bb3	or	x23,x24,x21	 x24:0xffffffa3 x21:0xfffffff8 x23=0xfffffffb
       30625000	      3061	80002ad8	0148ebb3	or	x23,x17,x20	 x17:0xffffff3b x20:0x2704e000 x23=0xffffff3b
       30635000	      3062	80002adc	0c920b93	addi	x23,x4,201	  x4:0x00000000 x23=0x000000c9
       30645000	      3063	80002ae0	00000013	addi	x0,x0,0	  x0:0x00000000
       30655000	      3064	80002ae4	01346213	ori	x4,x8,19	  x8:0x00000008  x4=0x0000001b
       30665000	      3065	80002ae8	0346cc63	blt	x13,x20,80002b20	 x13:0xe09c0000 x20:0x2704e000
       30675000	      3066	00000000	00000013	addi	x0,x0,0	  x0:0x00000000
       30685000	      3067	80002b1c	00000013	addi	x0,x0,0	  x0:0x00000000
       30695000	      3068	80002b20	015dd193	srli	x3,x27,0x15	 x27:0xffffffa3  x3=0x000007ff
       30705000	      3069	80002b24	412f8c33	sub	x24,x31,x18	 x31:0x00000100 x18:0x0000025e x24=0xfffffea2
       30715000	      3070	80002b28	2b3c2b97	auipc	x23,0x2b3c2	 x23=0xab3c4b24
       30725000	      3071	80002b2c	001209b3	add	x19,x4,x1	  x4:0x0000001b  x1:0xfffffc99 x19=0xfffffcb4
       30735000	      3072	80002b30	01144eb3	xor	x29,x8,x17	  x8:0x00000008 x17:0xffffff3b x29=0xffffff33
       30745000	      3073	80002b34	00b5c263	blt	x11,x11,80002b38	 x11:0x00000000 x11:0x00000000
       30755000	      3074	80002b38	d9557413	andi	x8,x10,-619	 x10:0x80000000  x8=0x80000000
       30765000	      3075	80002b3c	008f1813	slli	x16,x30,0x8	 x30:0x80000549 x16=0x00054900
       30775000	      3076	80002b40	01975693	srli	x13,x14,0x19	 x14:0x00000000 x13=0x00000000
       30785000	      3077	80002b44	93fbef13	ori	x30,x23,-1729	 x23:0xab3c4b24 x30=0xfffffb3f
       30795000	      3078	80002b48	d1397b93	andi	x23,x18,-749	 x18:0x0000025e x23=0x00000012
       30805000	      3079	80002b4c	001ebcb3	sltu	x25,x29,x1	 x29:0xffffff33  x1:0xfffffc99 x25=0x00000000
       30815000	      3080	80002b50	01a56433	or	x8,x10,x26	 x10:0x80000000 x26:0x00000501  x8=0x80000501
       30825000	      3081	80002b54	d1084d93	xori	x27,x16,-752	 x16:0x00054900 x27=0xfffab410
       30835000	      3082	80002b58	018f9eb3	sll	x29,x31,x24	 x31:0x00000100 x24:0xfffffea2 x29=0x00000400
       30845000	      3083	80002b5c	00000013	addi	x0,x0,0	  x0:0x00000000
       30855000	      3084	80002b60	019bc463	blt	x23,x25,80002b68	 x23:0x00000012 x25:0x00000000
       30865000	      3085	80002b64	4035d213	srai	x4,x11,0x3	 x11:0x00000000  x4=0x00000000
       30875000	      3086	80002b68	01ae5e63	bge	x28,x26,80002b84	 x28:0x80002594 x26:0x00000501
       30885000	      3087	80002b6c	002181b3	add	x3,x3,x2	  x3:0x000007ff  x2:0x00000000  x3=0x000007ff
       30895000	      3088	80002b70	01de9c93	slli	x25,x29,0x1d	 x29:0x00000400 x25=0x00000000
       30905000	      3089	80002b74	00874863	blt	x14,x8,80002b84	 x14:0x00000000  x8:0x80000501
       30915000	      3090	80002b78	01a9b133	sltu	x2,x19,x26	 x19:0xfffffcb4 x26:0x00000501  x2=0x00000000
       30925000	      3091	80002b7c	00aa5693	srli	x13,x20,0xa	 x20:0x2704e000 x13=0x0009c138
       30935000	      3092	80002b80	0132d263	bge	x5,x19,80002b84	  x5:0xffffffff x19:0xfffffcb4
       30945000	      3093	00000000	00000013	addi	x0,x0,0	  x0:0x00000000
       30955000	      3094	80002b80	00000013	addi	x0,x0,0	  x0:0x00000000
       30965000	      3095	80002b84	008dd6b3	srl	x13,x27,x8	 x27:0xfffab410  x8:0x80000501 x13=0x7ffd5a08
       30975000	      3096	80002b88	0044a083	lw	x1,4(x9)	  x9:0x80009f48  x1=0x80002c64 PA:0x80009f4c
       30985000	      3097	80002b8c	005bb1b3	sltu	x3,x23,x5	 x23:0x00000012  x5:0xffffffff  x3=0x00000001
       30995000	      3098	80002b90	910e68b7	lui	x17,0x910e6	 x17=0x910e6000
       31005000	      3099	80002b94	f23b3813	sltiu	x16,x22,-221	 x22:0xb0868000 x16=0x00000001
       31015000	      3100	80002b98	41e382b3	sub	x5,x7,x30	  x7:0x00000547 x30:0xfffffb3f  x5=0x00000a08
       31025000	      3101	80002b9c	03448493	addi	x9,x9,52	  x9:0x80009f48  x9=0x80009f7c
       31035000	      3102	80002ba0	009e5913	srli	x18,x28,0x9	 x28:0x80002594 x18=0x00400012
       31045000	      3103	80002ba4	0167adb3	slt	x27,x15,x22	 x15:0x00000001 x22:0xb0868000 x27=0x00000000
       31055000	      3104	80002ba8	00008913	addi	x18,x1,0	  x1:0x80002c64 x18=0x80002c64
       31065000	      3105	80002bac	00090967	jalr	x18,x18,0	 x18:0x80002c64 x18=0x80002bac
       31075000	      3106	00000000	00000013	addi	x0,x0,0	  x0:0x00000000
       31085000	      3107	80002c64	00000013	addi	x0,x0,0	  x0:0x00000000
       31095000	      3108	80002c68	ff900393	addi	x7,x0,-7	  x0:0x00000000  x7=0xfffffff9
       31105000	      3109	80002c6c	14e7acb7	lui	x25,0x14e7a	 x25=0x14e7a000
       31115000	      3110	80002c70	40c25093	srai	x1,x4,0xc	  x4:0x00000000  x1=0x00000000
       31125000	      3111	80002c74	00406833	or	x16,x0,x4	  x0:0x00000000  x4:0x00000000 x16=0x00000000
       31135000	      3112	80002c78	01368a33	add	x20,x13,x19	 x13:0x7ffd5a08 x19:0xfffffcb4 x20=0x7ffd56bc
       31145000	      3113	80002c7c	00500993	addi	x19,x0,5	  x0:0x00000000 x19=0x00000005
       31155000	      3114	80002c80	77130f13	addi	x30,x6,1905	  x6:0x80009fc4 x30=0x8000a735
       31165000	      3115	80002c84	40155db3	sra	x27,x10,x1	 x10:0x80000000  x1:0x00000000 x27=0x80000000
       31175000	      3116	80002c88	eb68c093	xori	x1,x17,-330	 x17:0x910e6000  x1=0x6ef19eb6
       31185000	      3117	80002c8c	6e2ef437	lui	x8,0x6e2ef	  x8=0x6e2ef000
       31195000	      3118	80002c90	00938393	addi	x7,x7,9	  x7:0xfffffff9  x7=0x00000002
       31205000	      3119	80002c94	011ecb33	xor	x22,x29,x17	 x29:0x00000400 x17:0x910e6000 x22=0x910e6400
       31215000	      3120	80002c98	00400613	addi	x12,x0,4	  x0:0x00000000 x12=0x00000004
       31225000	      3121	80002c9c	00000013	addi	x0,x0,0	  x0:0x00000000
       31235000	      3122	80002ca0	00400893	addi	x17,x0,4	  x0:0x00000000 x17=0x00000004
       31245000	      3123	80002ca4	00000013	addi	x0,x0,0	  x0:0x00000000
       31255000	      3124	80002ca8	019196b3	sll	x13,x3,x25	  x3:0x00000001 x25:0x14e7a000 x13=0x00000001
       31265000	      3125	80002cac	b6a98097	auipc	x1,0xb6a98	  x1=0x36a9aca8
       31275000	      3126	80002cb0	fff60613	addi	x12,x12,-1	 x12:0x00000004 x12=0x00000003
       31285000	      3127	80002cb4	8bf43a93	sltiu	x21,x8,-1857	  x8:0x6e2ef000 x21=0x00000001
       31295000	      3128	80002cb8	001c71b3	and	x3,x24,x1	 x24:0xfffffea2  x1:0x36a9aca8  x3=0x36a9aca0
       31305000	      3129	80002cbc	00644433	xor	x8,x8,x6	  x8:0x6e2ef000  x6:0x80009fc4  x8=0xee2e6fc4
       31315000	      3130	80002cc0	ff1672e3	bgeu	x12,x17,80002ca4	 x12:0x00000003 x17:0x00000004
       31325000	      3131	80002cc4	01c20033	add	x0,x4,x28	  x4:0x00000000 x28:0x80002594
       31335000	      3132	80002cc8	ce826193	ori	x3,x4,-792	  x4:0x00000000  x3=0xfffffce8
       31345000	      3133	80002ccc	fb33cee3	blt	x7,x19,80002c88	  x7:0x00000002 x19:0x00000005
       31355000	      3134	00000000	00000013	addi	x0,x0,0	  x0:0x00000000
       31365000	      3135	80002c84	00000013	addi	x0,x0,0	  x0:0x00000000
       31375000	      3136	80002c88	eb68c093	xori	x1,x17,-330	 x17:0x00000004  x1=0xfffffeb2
       31385000	      3137	80002c8c	6e2ef437	lui	x8,0x6e2ef	  x8=0x6e2ef000
       31395000	      3138	80002c90	00938393	addi	x7,x7,9	  x7:0x00000002  x7=0x0000000b
       31405000	      3139	80002c94	011ecb33	xor	x22,x29,x17	 x29:0x00000400 x17:0x00000004 x22=0x00000404
       31415000	      3140	80002c98	00400613	addi	x12,x0,4	  x0:0x00000000 x12=0x00000004
       31425000	      3141	80002c9c	00000013	addi	x0,x0,0	  x0:0x00000000
       31435000	      3142	80002ca0	00400893	addi	x17,x0,4	  x0:0x00000000 x17=0x00000004
       31445000	      3143	80002ca4	00000013	addi	x0,x0,0	  x0:0x00000000
       31455000	      3144	80002ca8	019196b3	sll	x13,x3,x25	  x3:0xfffffce8 x25:0x14e7a000 x13=0xfffffce8
       31465000	      3145	80002cac	b6a98097	auipc	x1,0xb6a98	  x1=0x36a9aca8
       31475000	      3146	80002cb0	fff60613	addi	x12,x12,-1	 x12:0x00000004 x12=0x00000003
       31485000	      3147	80002cb4	8bf43a93	sltiu	x21,x8,-1857	  x8:0x6e2ef000 x21=0x00000001
       31495000	      3148	80002cb8	001c71b3	and	x3,x24,x1	 x24:0xfffffea2  x1:0x36a9aca8  x3=0x36a9aca0
       31505000	      3149	80002cbc	00644433	xor	x8,x8,x6	  x8:0x6e2ef000  x6:0x80009fc4  x8=0xee2e6fc4
       31515000	      3150	80002cc0	ff1672e3	bgeu	x12,x17,80002ca4	 x12:0x00000003 x17:0x00000004
       31525000	      3151	80002cc4	01c20033	add	x0,x4,x28	  x4:0x00000000 x28:0x80002594
       31535000	      3152	80002cc8	ce826193	ori	x3,x4,-792	  x4:0x00000000  x3=0xfffffce8
       31545000	      3153	80002ccc	fb33cee3	blt	x7,x19,80002c88	  x7:0x0000000b x19:0x00000005
       31555000	      3154	80002cd0	412082b3	sub	x5,x1,x18	  x1:0x36a9aca8 x18:0x80002bac  x5=0xb6a980fc
       31565000	      3155	80002cd4	ffe00193	addi	x3,x0,-2	  x0:0x00000000  x3=0xfffffffe
       31575000	      3156	80002cd8	b27c0417	auipc	x8,0xb27c0	  x8=0x327c2cd4
       31585000	      3157	80002cdc	ea4efe93	andi	x29,x29,-348	 x29:0x00000400 x29=0x00000400
       31595000	      3158	80002ce0	41b05b93	srai	x23,x0,0x1b	  x0:0x00000000 x23=0x00000000
       31605000	      3159	80002ce4	701d2113	slti	x2,x26,1793	 x26:0x00000501  x2=0x00000001
       31615000	      3160	80002ce8	578a0b13	addi	x22,x20,1400	 x20:0x7ffd56bc x22=0x7ffd5c34
       31625000	      3161	80002cec	b958ef93	ori	x31,x17,-1131	 x17:0x00000004 x31=0xfffffb95
       31635000	      3162	80002cf0	00100693	addi	x13,x0,1	  x0:0x00000000 x13=0x00000001
       31645000	      3163	80002cf4	5725e713	ori	x14,x11,1394	 x11:0x00000000 x14=0x00000572
       31655000	      3164	80002cf8	3c937f13	andi	x30,x6,969	  x6:0x80009fc4 x30=0x000003c0
       31665000	      3165	80002cfc	3b124893	xori	x17,x4,945	  x4:0x00000000 x17=0x000003b1
       31675000	      3166	80002d00	001870b3	and	x1,x16,x1	 x16:0x00000000  x1:0x36a9aca8  x1=0x00000000
       31685000	      3167	80002d04	01a2f5b3	and	x11,x5,x26	  x5:0xb6a980fc x26:0x00000501 x11=0x00000000
       31695000	      3168	80002d08	bf48fb93	andi	x23,x17,-1036	 x17:0x000003b1 x23=0x000003b0
       31705000	      3169	80002d0c	00000013	addi	x0,x0,0	  x0:0x00000000
       31715000	      3170	80002d10	017b9413	slli	x8,x23,0x17	 x23:0x000003b0  x8=0xd8000000
       31725000	      3171	80002d14	00719593	slli	x11,x3,0x7	  x3:0xfffffffe x11=0xffffff00
       31735000	      3172	80002d18	40b68433	sub	x8,x13,x11	 x13:0x00000001 x11:0xffffff00  x8=0x00000101
       31745000	      3173	80002d1c	de22e893	ori	x17,x5,-542	  x5:0xb6a980fc x17=0xfffffdfe
       31755000	      3174	80002d20	005f7933	and	x18,x30,x5	 x30:0x000003c0  x5:0xb6a980fc x18=0x000000c0
       31765000	      3175	80002d24	01f993b3	sll	x7,x19,x31	 x19:0x00000005 x31:0xfffffb95  x7=0x00a00000
       31775000	      3176	80002d28	c222a213	slti	x4,x5,-990	  x5:0xb6a980fc  x4=0x00000001
       31785000	      3177	80002d2c	aeb44393	xori	x7,x8,-1301	  x8:0x00000101  x7=0xfffffbea
       31795000	      3178	80002d30	00318193	addi	x3,x3,3	  x3:0xfffffffe  x3=0x00000001
       31805000	      3179	80002d34	00000013	addi	x0,x0,0	  x0:0x00000000
       31815000	      3180	80002d38	fcd1cae3	blt	x3,x13,80002d0c	  x3:0x00000001 x13:0x00000001
       31825000	      3181	80002d3c	ec9fcf93	xori	x31,x31,-311	 x31:0xfffffb95 x31=0x0000055c
       31835000	      3182	80002d40	04118863	beq	x3,x1,80002d90	  x3:0x00000001  x1:0x00000000
       31845000	      3183	80002d44	0022dfb3	srl	x31,x5,x2	  x5:0xb6a980fc  x2:0x00000001 x31=0x5b54c07e
       31855000	      3184	80002d48	011f1d93	slli	x27,x30,0x11	 x30:0x000003c0 x27=0x07800000
       31865000	      3185	80002d4c	02d40663	beq	x8,x13,80002d78	  x8:0x00000101 x13:0x00000001
       31875000	      3186	80002d50	a9c3ed13	ori	x26,x7,-1380	  x7:0xfffffbea x26=0xfffffbfe
       31885000	      3187	80002d54	016b1893	slli	x17,x22,0x16	 x22:0x7ffd5c34 x17=0x0d000000
       31895000	      3188	80002d58	04971863	bne	x14,x9,80002da8	 x14:0x00000572  x9:0x80009f7c
       31905000	      3189	00000000	00000013	addi	x0,x0,0	  x0:0x00000000
       31915000	      3190	80002da4	00000013	addi	x0,x0,0	  x0:0x00000000
       31925000	      3191	80002da8	0076ec63	bltu	x13,x7,80002dc0	 x13:0x00000001  x7:0xfffffbea
       31935000	      3192	00000000	00000013	addi	x0,x0,0	  x0:0x00000000
       31945000	      3193	80002dbc	00000013	addi	x0,x0,0	  x0:0x00000000
       31955000	      3194	80002dc0	39777693	andi	x13,x14,919	 x14:0x00000572 x13=0x00000112
       31965000	      3195	80002dc4	015b7f33	and	x30,x22,x21	 x22:0x7ffd5c34 x21:0x00000001 x30=0x00000000
       31975000	      3196	80002dc8	a87f2837	lui	x16,0xa87f2	 x16=0xa87f2000
       31985000	      3197	80002dcc	013a6863	bltu	x20,x19,80002ddc	 x20:0x7ffd56bc x19:0x00000005
       31995000	      3198	80002dd0	019908b3	add	x17,x18,x25	 x18:0x000000c0 x25:0x14e7a000 x17=0x14e7a0c0
       32005000	      3199	80002dd4	fa0b6013	ori	x0,x22,-96	 x22:0x7ffd5c34
       32015000	      3200	80002dd8	00383cb3	sltu	x25,x16,x3	 x16:0xa87f2000  x3:0x00000001 x25=0x00000000
       32025000	      3201	80002ddc	37dce413	ori	x8,x25,893	 x25:0x00000000  x8=0x0000037d
       32035000	      3202	80002de0	00c490b3	sll	x1,x9,x12	  x9:0x80009f7c x12:0x00000003  x1=0x0004fbe0
       32045000	      3203	80002de4	014ac033	xor	x0,x21,x20	 x21:0x00000001 x20:0x7ffd56bc
       32055000	      3204	80002de8	01e19633	sll	x12,x3,x30	  x3:0x00000001 x30:0x00000000 x12=0x00000001
       32065000	      3205	80002dec	2e4b0913	addi	x18,x22,740	 x22:0x7ffd5c34 x18=0x7ffd5f18
       32075000	      3206	80002df0	3fbc8993	addi	x19,x25,1019	 x25:0x00000000 x19=0x000003fb
       32085000	      3207	80002df4	40335a33	sra	x20,x6,x3	  x6:0x80009fc4  x3:0x00000001 x20=0xc0004fe2
       32095000	      3208	80002df8	4050d633	sra	x12,x1,x5	  x1:0x0004fbe0  x5:0xb6a980fc x12=0x00000000
       32105000	      3209	80002dfc	01cc0b33	add	x22,x24,x28	 x24:0xfffffea2 x28:0x80002594 x22=0x80002436
       32115000	      3210	80002e00	00560933	add	x18,x12,x5	 x12:0x00000000  x5:0xb6a980fc x18=0xb6a980fc
       32125000	      3211	80002e04	402983b3	sub	x7,x19,x2	 x19:0x000003fb  x2:0x00000001  x7=0x000003fa
       32135000	      3212	80002e08	007729b3	slt	x19,x14,x7	 x14:0x00000572  x7:0x000003fa x19=0x00000000
       32145000	      3213	80002e0c	9b51c393	xori	x7,x3,-1611	  x3:0x00000001  x7=0xfffff9b4
       32155000	      3214	80002e10	042a4863	blt	x20,x2,80002e60	 x20:0xc0004fe2  x2:0x00000001
       32165000	      3215	00000000	00000013	addi	x0,x0,0	  x0:0x00000000
       32175000	      3216	80002e5c	00000013	addi	x0,x0,0	  x0:0x00000000
       32185000	      3217	80002e60	018597b3	sll	x15,x11,x24	 x11:0xffffff00 x24:0xfffffea2 x15=0xfffffc00
       32195000	      3218	80002e64	60613037	lui	x0,0x60613	
       32205000	      3219	80002e68	0137f663	bgeu	x15,x19,80002e74	 x15:0xfffffc00 x19:0x00000000
       32215000	      3220	00000000	00000013	addi	x0,x0,0	  x0:0x00000000
       32225000	      3221	80002e70	00000013	addi	x0,x0,0	  x0:0x00000000
       32235000	      3222	80002e74	408fd2b3	sra	x5,x31,x8	 x31:0x5b54c07e  x8:0x0000037d  x5=0x00000002
       32245000	      3223	80002e78	00807c63	bgeu	x0,x8,80002e90	  x0:0x00000000  x8:0x0000037d
       32255000	      3224	80002e7c	00000013	addi	x0,x0,0	  x0:0x00000000
       32265000	      3225	80002e80	3d48fd93	andi	x27,x17,980	 x17:0x14e7a0c0 x27=0x000000c0
       32275000	      3226	80002e84	01e01393	slli	x7,x0,0x1e	  x0:0x00000000  x7=0x00000000
       32285000	      3227	80002e88	ce420893	addi	x17,x4,-796	  x4:0x00000001 x17=0xfffffce5
       32295000	      3228	80002e8c	01a538b3	sltu	x17,x10,x26	 x10:0x80000000 x26:0xfffffbfe x17=0x00000001
       32305000	      3229	80002e90	0198d6b3	srl	x13,x17,x25	 x17:0x00000001 x25:0x00000000 x13=0x00000001
       32315000	      3230	80002e94	501b2113	slti	x2,x22,1281	 x22:0x80002436  x2=0x00000001
       32325000	      3231	80002e98	400652b3	sra	x5,x12,x0	 x12:0x00000000  x0:0x00000000  x5=0x00000000
       32335000	      3232	80002e9c	01ce0e33	add	x28,x28,x28	 x28:0x80002594 x28:0x80002594 x28=0x00004b28
       32345000	      3233	80002ea0	008831b3	sltu	x3,x16,x8	 x16:0xa87f2000  x8:0x0000037d  x3=0x00000000
       32355000	      3234	80002ea4	005fed33	or	x26,x31,x5	 x31:0x5b54c07e  x5:0x00000000 x26=0x5b54c07e
       32365000	      3235	80002ea8	003d7133	and	x2,x26,x3	 x26:0x5b54c07e  x3:0x00000000  x2=0x00000000
       32375000	      3236	80002eac	00f2f1b3	and	x3,x5,x15	  x5:0x00000000 x15:0xfffffc00  x3=0x00000000
       32385000	      3237	80002eb0	7786e113	ori	x2,x13,1912	 x13:0x00000001  x2=0x00000779
       32395000	      3238	80002eb4	01f4e663	bltu	x9,x31,80002ec0	  x9:0x80009f7c x31:0x5b54c07e
       32405000	      3239	80002eb8	0033cbb3	xor	x23,x7,x3	  x7:0x00000000  x3:0x00000000 x23=0x00000000
       32415000	      3240	80002ebc	e3ab8893	addi	x17,x23,-454	 x23:0x00000000 x17=0xfffffe3a
       32425000	      3241	80002ec0	01cc7c63	bgeu	x24,x28,80002ed8	 x24:0xfffffea2 x28:0x00004b28
       32435000	      3242	00000000	00000013	addi	x0,x0,0	  x0:0x00000000
       32445000	      3243	80002ed4	00000013	addi	x0,x0,0	  x0:0x00000000
       32455000	      3244	80002ed8	01d96e33	or	x28,x18,x29	 x18:0xb6a980fc x29:0x00000400 x28=0xb6a984fc
       32465000	      3245	80002edc	030ef863	bgeu	x29,x16,80002f0c	 x29:0x00000400 x16:0xa87f2000
       32475000	      3246	80002ee0	0474c863	blt	x9,x7,80002f30	  x9:0x80009f7c  x7:0x00000000
       32485000	      3247	00000000	00000013	addi	x0,x0,0	  x0:0x00000000
       32495000	      3248	80002f2c	00000013	addi	x0,x0,0	  x0:0x00000000
       32505000	      3249	80002f30	c5bca893	slti	x17,x25,-933	 x25:0x00000000 x17=0x00000000
       32515000	      3250	80002f34	003fc7b3	xor	x15,x31,x3	 x31:0x5b54c07e  x3:0x00000000 x15=0x5b54c07e
       32525000	      3251	80002f38	00d2d9b3	srl	x19,x5,x13	  x5:0x00000000 x13:0x00000001 x19=0x00000000
       32535000	      3252	80002f3c	4192df93	srai	x31,x5,0x19	  x5:0x00000000 x31=0x00000000
       32545000	      3253	80002f40	4092dc33	sra	x24,x5,x9	  x5:0x00000000  x9:0x80009f7c x24=0x00000000
       32555000	      3254	80002f44	01127c33	and	x24,x4,x17	  x4:0x00000001 x17:0x00000000 x24=0x00000000
       32565000	      3255	80002f48	00000013	addi	x0,x0,0	  x0:0x00000000
       32575000	      3256	80002f4c	0044a083	lw	x1,4(x9)	  x9:0x80009f7c  x1=0x80001408 PA:0x80009f80
       32585000	      3257	80002f50	01807fb3	and	x31,x0,x24	  x0:0x00000000 x24:0x00000000 x31=0x00000000
       32595000	      3258	80002f54	77673f13	sltiu	x30,x14,1910	 x14:0x00000572 x30=0x00000001
       32605000	      3259	80002f58	41a65593	srai	x11,x12,0x1a	 x12:0x00000000 x11=0x00000000
       32615000	      3260	80002f5c	00e8abb3	slt	x23,x17,x14	 x17:0x00000000 x14:0x00000572 x23=0x00000001
       32625000	      3261	80002f60	003af033	and	x0,x21,x3	 x21:0x00000001  x3:0x00000000
       32635000	      3262	80002f64	00848493	addi	x9,x9,8	  x9:0x80009f7c  x9=0x80009f84
       32645000	      3263	80002f68	ed05a9b7	lui	x19,0xed05a	 x19=0xed05a000
       32655000	      3264	80002f6c	00108d13	addi	x26,x1,1	  x1:0x80001408 x26=0x80001409
       32665000	      3265	80002f70	000d0d67	jalr	x26,x26,0	 x26:0x80001409 x26=0x80002f70
       32675000	      3266	00000000	00000013	addi	x0,x0,0	  x0:0x00000000
       32685000	      3267	80001408	00000013	addi	x0,x0,0	  x0:0x00000000
       32695000	      3268	8000140c	03ddd663	bge	x27,x29,80001438	 x27:0x000000c0 x29:0x00000400
       32705000	      3269	80001410	8073da97	auipc	x21,0x8073d	 x21=0x0073e40c
       32715000	      3270	80001414	047f8863	beq	x31,x7,80001464	 x31:0x00000000  x7:0x00000000
       32725000	      3271	00000000	00000013	addi	x0,x0,0	  x0:0x00000000
       32735000	      3272	80001460	00000013	addi	x0,x0,0	  x0:0x00000000
       32745000	      3273	80001464	00e94c63	blt	x18,x14,8000147c	 x18:0xb6a980fc x14:0x00000572
       32755000	      3274	00000000	00000013	addi	x0,x0,0	  x0:0x00000000
       32765000	      3275	80001478	00000013	addi	x0,x0,0	  x0:0x00000000
       32775000	      3276	8000147c	00d75233	srl	x4,x14,x13	 x14:0x00000572 x13:0x00000001  x4=0x000002b9
       32785000	      3277	80001480	01798c63	beq	x19,x23,80001498	 x19:0xed05a000 x23:0x00000001
       32795000	      3278	80001484	01b9b933	sltu	x18,x19,x27	 x19:0xed05a000 x27:0x000000c0 x18=0x00000000
       32805000	      3279	80001488	f838e293	ori	x5,x17,-125	 x17:0x00000000  x5=0xffffff83
       32815000	      3280	8000148c	000f5113	srli	x2,x30,0x0	 x30:0x00000001  x2=0x00000001
       32825000	      3281	80001490	daeca213	slti	x4,x25,-594	 x25:0x00000000  x4=0x00000000
       32835000	      3282	80001494	01dc7a63	bgeu	x24,x29,800014a8	 x24:0x00000000 x29:0x00000400
       32845000	      3283	80001498	f3192e37	lui	x28,0xf3192	 x28=0xf3192000
       32855000	      3284	8000149c	41b55193	srai	x3,x10,0x1b	 x10:0x80000000  x3=0xfffffff0
       32865000	      3285	800014a0	decc8713	addi	x14,x25,-532	 x25:0x00000000 x14=0xfffffdec
       32875000	      3286	800014a4	00d30663	beq	x6,x13,800014b0	  x6:0x80009fc4 x13:0x00000001
       32885000	      3287	800014a8	2f4e7a93	andi	x21,x28,756	 x28:0xf3192000 x21=0x00000000
       32895000	      3288	800014ac	0081cc33	xor	x24,x3,x8	  x3:0xfffffff0  x8:0x0000037d x24=0xfffffc8d
       32905000	      3289	800014b0	02557663	bgeu	x10,x5,800014dc	 x10:0x80000000  x5:0xffffff83
       32915000	      3290	800014b4	12a93e97	auipc	x29,0x12a93	 x29=0x92a944b0
       32925000	      3291	800014b8	69c36837	lui	x16,0x69c36	 x16=0x69c36000
       32935000	      3292	800014bc	41705933	sra	x18,x0,x23	  x0:0x00000000 x23:0x00000001 x18=0x00000000
       32945000	      3293	800014c0	009f40b3	xor	x1,x30,x9	 x30:0x00000001  x9:0x80009f84  x1=0x80009f85
       32955000	      3294	800014c4	008ad663	bge	x21,x8,800014d0	 x21:0x00000000  x8:0x0000037d
       32965000	      3295	800014c8	0174d9b3	srl	x19,x9,x23	  x9:0x80009f84 x23:0x00000001 x19=0x40004fc2
       32975000	      3296	800014cc	5af4cd17	auipc	x26,0x5af4c	 x26=0xdaf4d4c8
       32985000	      3297	800014d0	2829f393	andi	x7,x19,642	 x19:0x40004fc2  x7=0x00000282
       32995000	      3298	800014d4	c35f2093	slti	x1,x30,-971	 x30:0x00000001  x1=0x00000000
       33005000	      3299	800014d8	d376a813	slti	x16,x13,-713	 x13:0x00000001 x16=0x00000000
       33015000	      3300	800014dc	0055b133	sltu	x2,x11,x5	 x11:0x00000000  x5:0xffffff83  x2=0x00000001
       33025000	      3301	800014e0	408a81b3	sub	x3,x21,x8	 x21:0x00000000  x8:0x0000037d  x3=0xfffffc83
       33035000	      3302	800014e4	00c2c1b3	xor	x3,x5,x12	  x5:0xffffff83 x12:0x00000000  x3=0xffffff83
       33045000	      3303	800014e8	00ba0433	add	x8,x20,x11	 x20:0xc0004fe2 x11:0x00000000  x8=0xc0004fe2
       33055000	      3304	800014ec	3f9d3893	sltiu	x17,x26,1017	 x26:0xdaf4d4c8 x17=0x00000000
       33065000	      3305	800014f0	41ee05b3	sub	x11,x28,x30	 x28:0xf3192000 x30:0x00000001 x11=0xf3191fff
       33075000	      3306	800014f4	f344bd13	sltiu	x26,x9,-204	  x9:0x80009f84 x26=0x00000001
       33085000	      3307	800014f8	012e1b13	slli	x22,x28,0x12	 x28:0xf3192000 x22=0x80000000
       33095000	      3308	800014fc	00c297b3	sll	x15,x5,x12	  x5:0xffffff83 x12:0x00000000 x15=0xffffff83
       33105000	      3309	80001500	40028d33	sub	x26,x5,x0	  x5:0xffffff83  x0:0x00000000 x26=0xffffff83
       33115000	      3310	80001504	01e853b3	srl	x7,x16,x30	 x16:0x00000000 x30:0x00000001  x7=0x00000000
       33125000	      3311	80001508	00001397	auipc	x7,0x1	  x7=0x80002504
       33135000	      3312	8000150c	6a838393	addi	x7,x7,1704	  x7:0x80002504  x7=0x80002bac
       33145000	      3313	80001510	01896633	or	x12,x18,x24	 x18:0x00000000 x24:0xfffffc8d x12=0xfffffc8d
       33155000	      3314	80001514	011cd593	srli	x11,x25,0x11	 x25:0x00000000 x11=0x00000000
       33165000	      3315	80001518	fea38393	addi	x7,x7,-22	  x7:0x80002bac  x7=0x80002b96
       33175000	      3316	8000151c	00cfe633	or	x12,x31,x12	 x31:0x00000000 x12:0xfffffc8d x12=0xfffffc8d
       33185000	      3317	80001520	017f9663	bne	x31,x23,8000152c	 x31:0x00000000 x23:0x00000001
       33195000	      3318	00000000	00000013	addi	x0,x0,0	  x0:0x00000000
       33205000	      3319	80001528	00000013	addi	x0,x0,0	  x0:0x00000000
       33215000	      3320	8000152c	016380e7	jalr	x1,x7,22	  x7:0x80002b96  x1=0x8000152c
       33225000	      3321	00000000	00000013	addi	x0,x0,0	  x0:0x00000000
       33235000	      3322	80002bac	00000013	addi	x0,x0,0	  x0:0x00000000
       33245000	      3323	80002bb0	01b38133	add	x2,x7,x27	  x7:0x80002b96 x27:0x000000c0  x2=0x80002c56
       33255000	      3324	80002bb4	00000013	addi	x0,x0,0	  x0:0x00000000
       33265000	      3325	80002bb8	ff848493	addi	x9,x9,-8	  x9:0x80009f84  x9=0x80009f7c
       33275000	      3326	80002bbc	00000013	addi	x0,x0,0	  x0:0x00000000
       33285000	      3327	80002bc0	0014a223	sw	x1,4(x9)	  x9:0x80009f7c  x1:0x8000152c PA:0x80009f80
       33295000	      3328	80002bc4	e0b12f93	slti	x31,x2,-501	  x2:0x80002c56 x31=0x00000001
       33305000	      3329	80002bc8	01097133	and	x2,x18,x16	 x18:0x00000000 x16:0x00000000  x2=0x00000000
       33315000	      3330	80002bcc	01596033	or	x0,x18,x21	 x18:0x00000000 x21:0x00000000
       33325000	      3331	80002bd0	c9bff5b7	lui	x11,0xc9bff	 x11=0xc9bff000
       33335000	      3332	80002bd4	0067f6b3	and	x13,x15,x6	 x15:0xffffff83  x6:0x80009fc4 x13=0x80009f80
       33345000	      3333	80002bd8	4028d293	srai	x5,x17,0x2	 x17:0x00000000  x5=0x00000000
       33355000	      3334	80002bdc	b8d26d13	ori	x26,x4,-1139	  x4:0x00000000 x26=0xfffffb8d
       33365000	      3335	80002be0	c4068b93	addi	x23,x13,-960	 x13:0x80009f80 x23=0x80009bc0
       33375000	      3336	80002be4	01fe2733	slt	x14,x28,x31	 x28:0xf3192000 x31:0x00000001 x14=0x00000001
       33385000	      3337	80002be8	f6e2b013	sltiu	x0,x5,-146	  x5:0x00000000
       33395000	      3338	80002bec	30d4e397	auipc	x7,0x30d4e	  x7=0xb0d50be8
       33405000	      3339	80002bf0	ad661637	lui	x12,0xad661	 x12=0xad661000
       33415000	      3340	80002bf4	e028b613	sltiu	x12,x17,-510	 x17:0x00000000 x12=0x00000001
       33425000	      3341	80002bf8	40b08fb3	sub	x31,x1,x11	  x1:0x8000152c x11:0xc9bff000 x31=0xb640252c
       33435000	      3342	80002bfc	99dff0ef	jal	x1,80002bfc	  x1=0x80002bfc
       33445000	      3343	00000000	00000013	addi	x0,x0,0	  x0:0x00000000
       33455000	      3344	80002594	00000013	addi	x0,x0,0	  x0:0x00000000
       33465000	      3345	80002598	00a19d33	sll	x26,x3,x10	  x3:0xffffff83 x10:0x80000000 x26=0xffffff83
       33475000	      3346	8000259c	8ab6bf37	lui	x30,0x8ab6b	 x30=0x8ab6b000
       33485000	      3347	800025a0	bfc68993	addi	x19,x13,-1028	 x13:0x80009f80 x19=0x80009b7c
       33495000	      3348	800025a4	f478f993	andi	x19,x17,-185	 x17:0x00000000 x19=0x00000000
       33505000	      3349	800025a8	01815d13	srli	x26,x2,0x18	  x2:0x00000000 x26=0x00000000
       33515000	      3350	800025ac	00000013	addi	x0,x0,0	  x0:0x00000000
       33525000	      3351	800025b0	016cd263	bge	x25,x22,800025b4	 x25:0x00000000 x22:0x80000000
       33535000	      3352	00000000	00000013	addi	x0,x0,0	  x0:0x00000000
       33545000	      3353	800025b0	00000013	addi	x0,x0,0	  x0:0x00000000
       33555000	      3354	800025b4	ff448493	addi	x9,x9,-12	  x9:0x80009f7c  x9=0x80009f70
       33565000	      3355	800025b8	00b34ab3	xor	x21,x6,x11	  x6:0x80009fc4 x11:0xc9bff000 x21=0x49bf6fc4
       33575000	      3356	800025bc	0014a223	sw	x1,4(x9)	  x9:0x80009f70  x1:0x80002bfc PA:0x80009f74
       33585000	      3357	800025c0	00370db3	add	x27,x14,x3	 x14:0x00000001  x3:0xffffff83 x27=0xffffff84
       33595000	      3358	800025c4	c4358913	addi	x18,x11,-957	 x11:0xc9bff000 x18=0xc9bfec43
       33605000	      3359	800025c8	417f0633	sub	x12,x30,x23	 x30:0x8ab6b000 x23:0x80009bc0 x12=0x0ab61440
       33615000	      3360	800025cc	01858933	add	x18,x11,x24	 x11:0xc9bff000 x24:0xfffffc8d x18=0xc9bfec8d
       33625000	      3361	800025d0	00edca63	blt	x27,x14,800025e4	 x27:0xffffff84 x14:0x00000001
       33635000	      3362	00000000	00000013	addi	x0,x0,0	  x0:0x00000000
       33645000	      3363	800025e0	00000013	addi	x0,x0,0	  x0:0x00000000
       33655000	      3364	800025e4	268000ef	jal	x1,800025e4	  x1=0x800025e4
       33665000	      3365	00000000	00000013	addi	x0,x0,0	  x0:0x00000000
       33675000	      3366	80002848	00000013	addi	x0,x0,0	  x0:0x00000000
       33685000	      3367	8000284c	d934d737	lui	x14,0xd934d	 x14=0xd934d000
       33695000	      3368	80002850	005b41b3	xor	x3,x22,x5	 x22:0x80000000  x5:0x00000000  x3=0x80000000
       33705000	      3369	80002854	00fb5463	bge	x22,x15,8000285c	 x22:0x80000000 x15:0xffffff83
       33715000	      3370	80002858	0078cab3	xor	x21,x17,x7	 x17:0x00000000  x7:0xb0d50be8 x21=0xb0d50be8
       33725000	      3371	8000285c	fcc48493	addi	x9,x9,-52	  x9:0x80009f70  x9=0x80009f3c
       33735000	      3372	80002860	0014a223	sw	x1,4(x9)	  x9:0x80009f3c  x1:0x800025e4 PA:0x80009f40
       33745000	      3373	80002864	0099d913	srli	x18,x19,0x9	 x19:0x00000000 x18=0x00000000
       33755000	      3374	80002868	00ca25b3	slt	x11,x20,x12	 x20:0xc0004fe2 x12:0x0ab61440 x11=0x00000001
       33765000	      3375	8000286c	fff00c93	addi	x25,x0,-1	  x0:0x00000000 x25=0xffffffff
       33775000	      3376	80002870	f11c3393	sltiu	x7,x24,-239	 x24:0xfffffc8d  x7=0x00000001
       33785000	      3377	80002874	01b5d613	srli	x12,x11,0x1b	 x11:0x00000001 x12=0x00000000
       33795000	      3378	80002878	00000013	addi	x0,x0,0	  x0:0x00000000
       33805000	      3379	8000287c	016f6ab3	or	x21,x30,x22	 x30:0x8ab6b000 x22:0x80000000 x21=0x8ab6b000
       33815000	      3380	80002880	06342993	slti	x19,x8,99	  x8:0xc0004fe2 x19=0x00000001
       33825000	      3381	80002884	40c05293	srai	x5,x0,0xc	  x0:0x00000000  x5=0x00000000
       33835000	      3382	80002888	0012d093	srli	x1,x5,0x1	  x5:0x00000000  x1=0x00000000
       33845000	      3383	8000288c	01916433	or	x8,x2,x25	  x2:0x00000000 x25:0xffffffff  x8=0xffffffff
       33855000	      3384	80002890	00000013	addi	x0,x0,0	  x0:0x00000000
       33865000	      3385	80002894	a9ceea17	auipc	x20,0xa9cee	 x20=0x29cf0890
       33875000	      3386	80002898	00f99f13	slli	x30,x19,0xf	 x19:0x00000001 x30=0x00008000
       33885000	      3387	8000289c	0183b633	sltu	x12,x7,x24	  x7:0x00000001 x24:0xfffffc8d x12=0x00000001
       33895000	      3388	800028a0	00000013	addi	x0,x0,0	  x0:0x00000000
       33905000	      3389	800028a4	4184d3b3	sra	x7,x9,x24	  x9:0x80009f3c x24:0xfffffc8d  x7=0xfffc0004
       33915000	      3390	800028a8	4072dc13	srai	x24,x5,0x7	  x5:0x00000000 x24=0x00000000
       33925000	      3391	800028ac	01100193	addi	x3,x0,17	  x0:0x00000000  x3=0x00000011
       33935000	      3392	800028b0	1837ac13	slti	x24,x15,387	 x15:0xffffff83 x24=0x00000001
       33945000	      3393	800028b4	0105e3b3	or	x7,x11,x16	 x11:0x00000001 x16:0x00000000  x7=0x00000001
       33955000	      3394	800028b8	002c8c93	addi	x25,x25,2	 x25:0xffffffff x25=0x00000001
       33965000	      3395	800028bc	00d04133	xor	x2,x0,x13	  x0:0x00000000 x13:0x80009f80  x2=0x80009f80
       33975000	      3396	800028c0	00000013	addi	x0,x0,0	  x0:0x00000000
       33985000	      3397	800028c4	01ff1e13	slli	x28,x30,0x1f	 x30:0x00008000 x28=0x00000000
       33995000	      3398	800028c8	00f15033	srl	x0,x2,x15	  x2:0x80009f80 x15:0xffffff83
       34005000	      3399	800028cc	01731fb3	sll	x31,x6,x23	  x6:0x80009fc4 x23:0x80009bc0 x31=0x80009fc4
       34015000	      3400	800028d0	00016bb3	or	x23,x2,x0	  x2:0x80009f80  x0:0x00000000 x23=0x80009f80
       34025000	      3401	800028d4	00504ab3	xor	x21,x0,x5	  x0:0x00000000  x5:0x00000000 x21=0x00000000
       34035000	      3402	800028d8	fc3c8ee3	beq	x25,x3,800028b4	 x25:0x00000001  x3:0x00000011
       34045000	      3403	800028dc	7561b417	auipc	x8,0x7561b	  x8=0xf561d8d8
       34055000	      3404	800028e0	705b7817	auipc	x16,0x705b7	 x16=0xf05b98dc
       34065000	      3405	800028e4	012e1cb3	sll	x25,x28,x18	 x28:0x00000000 x18:0x00000000 x25=0x00000000
       34075000	      3406	800028e8	01621f13	slli	x30,x4,0x16	  x4:0x00000000 x30=0x00000000
       34085000	      3407	800028ec	00511a63	bne	x2,x5,80002900	  x2:0x80009f80  x5:0x00000000
       34095000	      3408	00000000	00000013	addi	x0,x0,0	  x0:0x00000000
       34105000	      3409	800028fc	00000013	addi	x0,x0,0	  x0:0x00000000
       34115000	      3410	80002900	0151c9b3	xor	x19,x3,x21	  x3:0x00000011 x21:0x00000000 x19=0x00000011
       34125000	      3411	80002904	00370a63	beq	x14,x3,80002918	 x14:0xd934d000  x3:0x00000011
       34135000	      3412	80002908	01f21c93	slli	x25,x4,0x1f	  x4:0x00000000 x25=0x00000000
       34145000	      3413	8000290c	03795c37	lui	x24,0x3795	 x24=0x03795000
       34155000	      3414	80002910	01c2d813	srli	x16,x5,0x1c	  x5:0x00000000 x16=0x00000000
       34165000	      3415	80002914	416edf13	srai	x30,x29,0x16	 x29:0x92a944b0 x30=0xfffffe4a
       34175000	      3416	80002918	011ea8b3	slt	x17,x29,x17	 x29:0x92a944b0 x17:0x00000000 x17=0x00000001
       34185000	      3417	8000291c	006dcc33	xor	x24,x27,x6	 x27:0xffffff84  x6:0x80009fc4 x24=0x7fff6040
       34195000	      3418	80002920	028a6e63	bltu	x20,x8,8000295c	 x20:0x29cf0890  x8:0xf561d8d8
       34205000	      3419	00000000	00000013	addi	x0,x0,0	  x0:0x00000000
       34215000	      3420	80002958	00000013	addi	x0,x0,0	  x0:0x00000000
       34225000	      3421	8000295c	80232913	slti	x18,x6,-2046	  x6:0x80009fc4 x18=0x00000001
       34235000	      3422	80002960	01aaf663	bgeu	x21,x26,8000296c	 x21:0x00000000 x26:0x00000000
       34245000	      3423	00000000	00000013	addi	x0,x0,0	  x0:0x00000000
       34255000	      3424	80002968	00000013	addi	x0,x0,0	  x0:0x00000000
       34265000	      3425	8000296c	f7bf3593	sltiu	x11,x30,-133	 x30:0xfffffe4a x11=0x00000001
       34275000	      3426	80002970	41248eb3	sub	x29,x9,x18	  x9:0x80009f3c x18:0x00000001 x29=0x80009f3b
       34285000	      3427	80002974	4038d613	srai	x12,x17,0x3	 x17:0x00000001 x12=0x00000000
       34295000	      3428	80002978	03039a63	bne	x7,x16,800029ac	  x7:0x00000001 x16:0x00000000
       34305000	      3429	00000000	00000013	addi	x0,x0,0	  x0:0x00000000
       34315000	      3430	800029a8	00000013	addi	x0,x0,0	  x0:0x00000000
       34325000	      3431	800029ac	00e5cdb3	xor	x27,x11,x14	 x11:0x00000001 x14:0xd934d000 x27=0xd934d001
       34335000	      3432	800029b0	409308b3	sub	x17,x6,x9	  x6:0x80009fc4  x9:0x80009f3c x17=0x00000088
       34345000	      3433	800029b4	01e8a3b3	slt	x7,x17,x30	 x17:0x00000088 x30:0xfffffe4a  x7=0x00000000
       34355000	      3434	800029b8	0099ff33	and	x30,x19,x9	 x19:0x00000011  x9:0x80009f3c x30=0x00000010
       34365000	      3435	800029bc	0044a083	lw	x1,4(x9)	  x9:0x80009f3c  x1=0x800025e4 PA:0x80009f40
       34375000	      3436	800029c0	005fd833	srl	x16,x31,x5	 x31:0x80009fc4  x5:0x00000000 x16=0x80009fc4
       34385000	      3437	800029c4	004da6b3	slt	x13,x27,x4	 x27:0xd934d001  x4:0x00000000 x13=0x00000001
       34395000	      3438	800029c8	01641ab3	sll	x21,x8,x22	  x8:0xf561d8d8 x22:0x80000000 x21=0xf561d8d8
       34405000	      3439	800029cc	03448493	addi	x9,x9,52	  x9:0x80009f3c  x9=0x80009f70
       34415000	      3440	800029d0	00445593	srli	x11,x8,0x4	  x8:0xf561d8d8 x11=0x0f561d8d
       34425000	      3441	800029d4	01e18c33	add	x24,x3,x30	  x3:0x00000011 x30:0x00000010 x24=0x00000021
       34435000	      3442	800029d8	e3c8f913	andi	x18,x17,-452	 x17:0x00000088 x18=0x00000008
       34445000	      3443	800029dc	00108193	addi	x3,x1,1	  x1:0x800025e4  x3=0x800025e5
       34455000	      3444	800029e0	000181e7	jalr	x3,x3,0	  x3:0x800025e5  x3=0x800029e0
       34465000	      3445	00000000	00000013	addi	x0,x0,0	  x0:0x00000000
       34475000	      3446	800025e4	00000013	addi	x0,x0,0	  x0:0x00000000
       34485000	      3447	800025e8	ffd00713	addi	x14,x0,-3	  x0:0x00000000 x14=0xfffffffd
       34495000	      3448	800025ec	01e03433	sltu	x8,x0,x30	  x0:0x00000000 x30:0x00000010  x8=0x00000001
       34505000	      3449	800025f0	00700b13	addi	x22,x0,7	  x0:0x00000000 x22=0x00000007
       34515000	      3450	800025f4	00000013	addi	x0,x0,0	  x0:0x00000000
       34525000	      3451	800025f8	d5a06c17	auipc	x24,0xd5a06	 x24=0x55a085f4
       34535000	      3452	800025fc	00570713	addi	x14,x14,5	 x14:0xfffffffd x14=0x00000002
       34545000	      3453	80002600	01941033	sll	x0,x8,x25	  x8:0x00000001 x25:0x00000000
       34555000	      3454	80002604	01370033	add	x0,x14,x19	 x14:0x00000002 x19:0x00000011
       34565000	      3455	80002608	5510cd13	xori	x26,x1,1361	  x1:0x800025e4 x26=0x800020b5
       34575000	      3456	8000260c	ff6706e3	beq	x14,x22,800025f8	 x14:0x00000002 x22:0x00000007
       34585000	      3457	80002610	00000013	addi	x0,x0,0	  x0:0x00000000
       34595000	      3458	80002614	ff900093	addi	x1,x0,-7	  x0:0x00000000  x1=0xfffffff9
       34605000	      3459	80002618	00fc67b3	or	x15,x24,x15	 x24:0x55a085f4 x15:0xffffff83 x15=0xfffffff7
       34615000	      3460	8000261c	015e1113	slli	x2,x28,0x15	 x28:0x00000000  x2=0x00000000
       34625000	      3461	80002620	01624cb3	xor	x25,x4,x22	  x4:0x00000000 x22:0x00000007 x25=0x00000007
       34635000	      3462	80002624	40290a33	sub	x20,x18,x2	 x18:0x00000008  x2:0x00000000 x20=0x00000008
       34645000	      3463	80002628	003ae1b3	or	x3,x21,x3	 x21:0xf561d8d8  x3:0x800029e0  x3=0xf561f9f8
       34655000	      3464	8000262c	01000b13	addi	x22,x0,16	  x0:0x00000000 x22=0x00000010
       34665000	      3465	80002630	00ba86b3	add	x13,x21,x11	 x21:0xf561d8d8 x11:0x0f561d8d x13=0x04b7f665
       34675000	      3466	80002634	01213f33	sltu	x30,x2,x18	  x2:0x00000000 x18:0x00000008 x30=0x00000001
       34685000	      3467	80002638	00a08093	addi	x1,x1,10	  x1:0xfffffff9  x1=0x00000003
       34695000	      3468	8000263c	3280c593	xori	x11,x1,808	  x1:0x00000003 x11=0x0000032b
       34705000	      3469	80002640	4183d713	srai	x14,x7,0x18	  x7:0x00000000 x14=0x00000000
       34715000	      3470	80002644	007f4e33	xor	x28,x30,x7	 x30:0x00000001  x7:0x00000000 x28=0x00000001
       34725000	      3471	80002648	01e85e33	srl	x28,x16,x30	 x16:0x80009fc4 x30:0x00000001 x28=0x40004fe2
       34735000	      3472	8000264c	01137133	and	x2,x6,x17	  x6:0x80009fc4 x17:0x00000088  x2=0x00000080
       34745000	      3473	80002650	1d9d0113	addi	x2,x26,473	 x26:0x800020b5  x2=0x8000228e
       34755000	      3474	80002654	0189e6b3	or	x13,x19,x24	 x19:0x00000011 x24:0x55a085f4 x13=0x55a085f5
       34765000	      3475	80002658	fd60eee3	bltu	x1,x22,80002634	  x1:0x00000003 x22:0x00000010
       34775000	      3476	00000000	00000013	addi	x0,x0,0	  x0:0x00000000
       34785000	      3477	80002630	00000013	addi	x0,x0,0	  x0:0x00000000
       34795000	      3478	80002634	01213f33	sltu	x30,x2,x18	  x2:0x8000228e x18:0x00000008 x30=0x00000000
       34805000	      3479	80002638	00a08093	addi	x1,x1,10	  x1:0x00000003  x1=0x0000000d
       34815000	      3480	8000263c	3280c593	xori	x11,x1,808	  x1:0x0000000d x11=0x00000325
       34825000	      3481	80002640	4183d713	srai	x14,x7,0x18	  x7:0x00000000 x14=0x00000000
       34835000	      3482	80002644	007f4e33	xor	x28,x30,x7	 x30:0x00000000  x7:0x00000000 x28=0x00000000
       34845000	      3483	80002648	01e85e33	srl	x28,x16,x30	 x16:0x80009fc4 x30:0x00000000 x28=0x80009fc4
       34855000	      3484	8000264c	01137133	and	x2,x6,x17	  x6:0x80009fc4 x17:0x00000088  x2=0x00000080
       34865000	      3485	80002650	1d9d0113	addi	x2,x26,473	 x26:0x800020b5  x2=0x8000228e
       34875000	      3486	80002654	0189e6b3	or	x13,x19,x24	 x19:0x00000011 x24:0x55a085f4 x13=0x55a085f5
       34885000	      3487	80002658	fd60eee3	bltu	x1,x22,80002634	  x1:0x0000000d x22:0x00000010
       34895000	      3488	00000000	00000013	addi	x0,x0,0	  x0:0x00000000
       34905000	      3489	80002630	00000013	addi	x0,x0,0	  x0:0x00000000
       34915000	      3490	80002634	01213f33	sltu	x30,x2,x18	  x2:0x8000228e x18:0x00000008 x30=0x00000000
       34925000	      3491	80002638	00a08093	addi	x1,x1,10	  x1:0x0000000d  x1=0x00000017
       34935000	      3492	8000263c	3280c593	xori	x11,x1,808	  x1:0x00000017 x11=0x0000033f
       34945000	      3493	80002640	4183d713	srai	x14,x7,0x18	  x7:0x00000000 x14=0x00000000
       34955000	      3494	80002644	007f4e33	xor	x28,x30,x7	 x30:0x00000000  x7:0x00000000 x28=0x00000000
       34965000	      3495	80002648	01e85e33	srl	x28,x16,x30	 x16:0x80009fc4 x30:0x00000000 x28=0x80009fc4
       34975000	      3496	8000264c	01137133	and	x2,x6,x17	  x6:0x80009fc4 x17:0x00000088  x2=0x00000080
       34985000	      3497	80002650	1d9d0113	addi	x2,x26,473	 x26:0x800020b5  x2=0x8000228e
       34995000	      3498	80002654	0189e6b3	or	x13,x19,x24	 x19:0x00000011 x24:0x55a085f4 x13=0x55a085f5
       35005000	      3499	80002658	fd60eee3	bltu	x1,x22,80002634	  x1:0x00000017 x22:0x00000010
       35015000	      3500	8000265c	409089b3	sub	x19,x1,x9	  x1:0x00000017  x9:0x80009f70 x19=0x7fff60a7
       35025000	      3501	80002660	40c0dfb3	sra	x31,x1,x12	  x1:0x00000017 x12:0x00000000 x31=0x00000017
       35035000	      3502	80002664	00766bb3	or	x23,x12,x7	 x12:0x00000000  x7:0x00000000 x23=0x00000000
       35045000	      3503	80002668	00e97733	and	x14,x18,x14	 x18:0x00000008 x14:0x00000000 x14=0x00000000
       35055000	      3504	8000266c	00000013	addi	x0,x0,0	  x0:0x00000000
       35065000	      3505	80002670	5214c397	auipc	x7,0x5214c	  x7=0xd214e66c
       35075000	      3506	80002674	030df263	bgeu	x27,x16,80002698	 x27:0xd934d001 x16:0x80009fc4
       35085000	      3507	00000000	00000013	addi	x0,x0,0	  x0:0x00000000
       35095000	      3508	80002694	00000013	addi	x0,x0,0	  x0:0x00000000
       35105000	      3509	80002698	01fe5d33	srl	x26,x28,x31	 x28:0x80009fc4 x31:0x00000017 x26=0x00000100
       35115000	      3510	8000269c	00233db3	sltu	x27,x6,x2	  x6:0x80009fc4  x2:0x8000228e x27=0x00000000
       35125000	      3511	800026a0	05ad1663	bne	x26,x26,800026ec	 x26:0x00000100 x26:0x00000100
       35135000	      3512	800026a4	e22bef93	ori	x31,x23,-478	 x23:0x00000000 x31=0xfffffe22
       35145000	      3513	800026a8	002b7fb3	and	x31,x22,x2	 x22:0x00000010  x2:0x8000228e x31=0x00000000
       35155000	      3514	800026ac	226a3113	sltiu	x2,x20,550	 x20:0x00000008  x2=0x00000001
       35165000	      3515	800026b0	01ab1ab3	sll	x21,x22,x26	 x22:0x00000010 x26:0x00000100 x21=0x00000010
       35175000	      3516	800026b4	01f84133	xor	x2,x16,x31	 x16:0x80009fc4 x31:0x00000000  x2=0x80009fc4
       35185000	      3517	800026b8	007172b3	and	x5,x2,x7	  x2:0x80009fc4  x7:0xd214e66c  x5=0x80008644
       35195000	      3518	800026bc	00647bb3	and	x23,x8,x6	  x8:0x00000001  x6:0x80009fc4 x23=0x00000000
       35205000	      3519	800026c0	ca8e7613	andi	x12,x28,-856	 x28:0x80009fc4 x12=0x80009c80
       35215000	      3520	800026c4	0062a3b3	slt	x7,x5,x6	  x5:0x80008644  x6:0x80009fc4  x7=0x00000001
       35225000	      3521	800026c8	bb852213	slti	x4,x10,-1096	 x10:0x80000000  x4=0x00000001
       35235000	      3522	800026cc	05ac9663	bne	x25,x26,80002718	 x25:0x00000007 x26:0x00000100
       35245000	      3523	00000000	00000013	addi	x0,x0,0	  x0:0x00000000
       35255000	      3524	80002714	00000013	addi	x0,x0,0	  x0:0x00000000
       35265000	      3525	80002718	4119d293	srai	x5,x19,0x11	 x19:0x7fff60a7  x5=0x00003fff
       35275000	      3526	8000271c	00185f93	srli	x31,x16,0x1	 x16:0x80009fc4 x31=0x40004fe2
       35285000	      3527	80002720	3278a1b7	lui	x3,0x3278a	  x3=0x3278a000
       35295000	      3528	80002724	00a39893	slli	x17,x7,0xa	  x7:0x00000001 x17=0x00000400
       35305000	      3529	80002728	4030d393	srai	x7,x1,0x3	  x1:0x00000017  x7=0x00000002
       35315000	      3530	8000272c	0116b433	sltu	x8,x13,x17	 x13:0x55a085f5 x17:0x00000400  x8=0x00000000
       35325000	      3531	80002730	00d409b3	add	x19,x8,x13	  x8:0x00000000 x13:0x55a085f5 x19=0x55a085f5
       35335000	      3532	80002734	0272fa63	bgeu	x5,x7,80002768	  x5:0x00003fff  x7:0x00000002
       35345000	      3533	00000000	00000013	addi	x0,x0,0	  x0:0x00000000
       35355000	      3534	80002764	00000013	addi	x0,x0,0	  x0:0x00000000
       35365000	      3535	80002768	00f59eb3	sll	x29,x11,x15	 x11:0x0000033f x15:0xfffffff7 x29=0x9f800000
       35375000	      3536	8000276c	02044863	blt	x8,x0,8000279c	  x8:0x00000000  x0:0x00000000
       35385000	      3537	80002770	3b2a0e13	addi	x28,x20,946	 x20:0x00000008 x28=0x000003ba
       35395000	      3538	80002774	78da7693	andi	x13,x20,1933	 x20:0x00000008 x13=0x00000008
       35405000	      3539	80002778	03b3de63	bge	x7,x27,800027b4	  x7:0x00000002 x27:0x00000000
       35415000	      3540	00000000	00000013	addi	x0,x0,0	  x0:0x00000000
       35425000	      3541	800027b0	00000013	addi	x0,x0,0	  x0:0x00000000
       35435000	      3542	800027b4	294d6813	ori	x16,x26,660	 x26:0x00000100 x16=0x00000394
       35445000	      3543	800027b8	0191f2b3	and	x5,x3,x25	  x3:0x3278a000 x25:0x00000007  x5=0x00000000
       35455000	      3544	800027bc	00f4eb33	or	x22,x9,x15	  x9:0x80009f70 x15:0xfffffff7 x22=0xfffffff7
       35465000	      3545	800027c0	01e49eb3	sll	x29,x9,x30	  x9:0x80009f70 x30:0x00000000 x29=0x80009f70
       35475000	      3546	800027c4	00810a63	beq	x2,x8,800027d8	  x2:0x80009fc4  x8:0x00000000
       35485000	      3547	800027c8	04c6c263	blt	x13,x12,8000280c	 x13:0x00000008 x12:0x80009c80
       35495000	      3548	800027cc	1b446393	ori	x7,x8,436	  x8:0x00000000  x7=0x000001b4
       35505000	      3549	800027d0	0094cc33	xor	x24,x9,x9	  x9:0x80009f70  x9:0x80009f70 x24=0x00000000
       35515000	      3550	800027d4	d09dbd13	sltiu	x26,x27,-759	 x27:0x00000000 x26=0x00000001
       35525000	      3551	800027d8	01551893	slli	x17,x10,0x15	 x10:0x80000000 x17=0x00000000
       35535000	      3552	800027dc	035d5663	bge	x26,x21,80002808	 x26:0x00000001 x21:0x00000010
       35545000	      3553	800027e0	01c6bab3	sltu	x21,x13,x28	 x13:0x00000008 x28:0x000003ba x21=0x00000001
       35555000	      3554	800027e4	9946f813	andi	x16,x13,-1644	 x13:0x00000008 x16=0x00000000
       35565000	      3555	800027e8	00000013	addi	x0,x0,0	  x0:0x00000000
       35575000	      3556	800027ec	01d73ab3	sltu	x21,x14,x29	 x14:0x00000000 x29:0x80009f70 x21=0x00000001
       35585000	      3557	800027f0	93ee6013	ori	x0,x28,-1730	 x28:0x000003ba
       35595000	      3558	800027f4	40d67893	andi	x17,x12,1037	 x12:0x80009c80 x17=0x00000400
       35605000	      3559	800027f8	10df3e97	auipc	x29,0x10df3	 x29=0x90df57f4
       35615000	      3560	800027fc	40a70d33	sub	x26,x14,x10	 x14:0x00000000 x10:0x80000000 x26=0x80000000
       35625000	      3561	80002800	cc92b193	sltiu	x3,x5,-823	  x5:0x00000000  x3=0x00000001
       35635000	      3562	80002804	019f3233	sltu	x4,x30,x25	 x30:0x00000000 x25:0x00000007  x4=0x00000001
       35645000	      3563	80002808	009486b3	add	x13,x9,x9	  x9:0x80009f70  x9:0x80009f70 x13=0x00013ee0
       35655000	      3564	8000280c	a76e3f93	sltiu	x31,x28,-1418	 x28:0x000003ba x31=0x00000001
       35665000	      3565	80002810	4146d5b3	sra	x11,x13,x20	 x13:0x00013ee0 x20:0x00000008 x11=0x0000013e
       35675000	      3566	80002814	408f82b3	sub	x5,x31,x8	 x31:0x00000001  x8:0x00000000  x5=0x00000001
       35685000	      3567	80002818	4c488393	addi	x7,x17,1220	 x17:0x00000400  x7=0x000008c4
       35695000	      3568	8000281c	008c49b3	xor	x19,x24,x8	 x24:0x00000000  x8:0x00000000 x19=0x00000000
       35705000	      3569	80002820	015b6433	or	x8,x22,x21	 x22:0xfffffff7 x21:0x00000001  x8=0xfffffff7
       35715000	      3570	80002824	0044a083	lw	x1,4(x9)	  x9:0x80009f70  x1=0x80002bfc PA:0x80009f74
       35725000	      3571	80002828	011cfeb3	and	x29,x25,x17	 x25:0x00000007 x17:0x00000400 x29=0x00000000
       35735000	      3572	8000282c	00c48493	addi	x9,x9,12	  x9:0x80009f70  x9=0x80009f7c
       35745000	      3573	80002830	400c5b13	srai	x22,x24,0x0	 x24:0x00000000 x22=0x00000000
       35755000	      3574	80002834	a9496e13	ori	x28,x18,-1388	 x18:0x00000008 x28=0xfffffa9c
       35765000	      3575	80002838	6b296893	ori	x17,x18,1714	 x18:0x00000008 x17=0x000006ba
       35775000	      3576	8000283c	003d3ab3	sltu	x21,x26,x3	 x26:0x80000000  x3:0x00000001 x21=0x00000000
       35785000	      3577	80002840	00000013	addi	x0,x0,0	  x0:0x00000000
       35795000	      3578	80002844	00108593	addi	x11,x1,1	  x1:0x80002bfc x11=0x80002bfd
       35805000	      3579	80002848	000585e7	jalr	x11,x11,0	 x11:0x80002bfd x11=0x80002848
       35815000	      3580	00000000	00000013	addi	x0,x0,0	  x0:0x00000000
       35825000	      3581	80002bfc	00000013	addi	x0,x0,0	  x0:0x00000000
       35835000	      3582	80002c00	008ddd93	srli	x27,x27,0x8	 x27:0x00000000 x27=0x00000000
       35845000	      3583	80002c04	00000617	auipc	x12,0x0	 x12=0x80002c00
       35855000	      3584	80002c08	de060613	addi	x12,x12,-544	 x12:0x80002c00 x12=0x800029e0
       35865000	      3585	80002c0c	2b2e0917	auipc	x18,0x2b2e0	 x18=0xab2e2c08
       35875000	      3586	80002c10	33dac813	xori	x16,x21,829	 x21:0x00000000 x16=0x0000033d
       35885000	      3587	80002c14	00ec1033	sll	x0,x24,x14	 x24:0x00000000 x14:0x00000000
       35895000	      3588	80002c18	01d49d33	sll	x26,x9,x29	  x9:0x80009f7c x29:0x00000000 x26=0x80009f7c
       35905000	      3589	80002c1c	c3560613	addi	x12,x12,-971	 x12:0x800029e0 x12=0x80002615
       35915000	      3590	80002c20	00000013	addi	x0,x0,0	  x0:0x00000000
       35925000	      3591	80002c24	0121ebb3	or	x23,x3,x18	  x3:0x00000001 x18:0xab2e2c08 x23=0xab2e2c09
       35935000	      3592	80002c28	43c04ab7	lui	x21,0x43c04	 x21=0x43c04000
       35945000	      3593	80002c2c	00d18463	beq	x3,x13,80002c34	  x3:0x00000001 x13:0x00013ee0
       35955000	      3594	80002c30	41a2d6b3	sra	x13,x5,x26	  x5:0x00000001 x26:0x80009f7c x13=0x00000000
       35965000	      3595	80002c34	3cb600e7	jalr	x1,x12,971	 x12:0x80002615  x1=0x80002c34
       35975000	      3596	00000000	00000013	addi	x0,x0,0	  x0:0x00000000
       35985000	      3597	800029e0	00000013	addi	x0,x0,0	  x0:0x00000000
       35995000	      3598	800029e4	fcc48493	addi	x9,x9,-52	  x9:0x80009f7c  x9=0x80009f48
       36005000	      3599	800029e8	8ec88e37	lui	x28,0x8ec88	 x28=0x8ec88000
       36015000	      3600	800029ec	00ced933	srl	x18,x29,x12	 x29:0x00000000 x12:0x80002615 x18=0x00000000
       36025000	      3601	800029f0	40c45c13	srai	x24,x8,0xc	  x8:0xfffffff7 x24=0xffffffff
       36035000	      3602	800029f4	00327033	and	x0,x4,x3	  x4:0x00000001  x3:0x00000001
       36045000	      3603	800029f8	460fb893	sltiu	x17,x31,1120	 x31:0x00000001 x17=0x00000001
       36055000	      3604	800029fc	1ae0ea93	ori	x21,x1,430	  x1:0x80002c34 x21=0x80002dbe
       36065000	      3605	80002a00	4a13f393	andi	x7,x7,1185	  x7:0x000008c4  x7=0x00000080
       36075000	      3606	80002a04	27be5c97	auipc	x25,0x27be5	 x25=0xa7be7a00
       36085000	      3607	80002a08	05726193	ori	x3,x4,87	  x4:0x00000001  x3=0x00000057
       36095000	      3608	80002a0c	0014a223	sw	x1,4(x9)	  x9:0x80009f48  x1:0x80002c34 PA:0x80009f4c
       36105000	      3609	80002a10	4049d133	sra	x2,x19,x4	 x19:0x00000000  x4:0x00000001  x2=0x00000000
       36115000	      3610	80002a14	4086d033	sra	x0,x13,x8	 x13:0x00000000  x8:0xfffffff7
       36125000	      3611	80002a18	00fb2cb3	slt	x25,x22,x15	 x22:0x00000000 x15:0xfffffff7 x25=0x00000000
       36135000	      3612	80002a1c	00cb1d93	slli	x27,x22,0xc	 x22:0x00000000 x27=0x00000000
       36145000	      3613	80002a20	00681133	sll	x2,x16,x6	 x16:0x0000033d  x6:0x80009fc4  x2=0x000033d0
       36155000	      3614	80002a24	60546d13	ori	x26,x8,1541	  x8:0xfffffff7 x26=0xfffffff7
       36165000	      3615	80002a28	009ffb33	and	x22,x31,x9	 x31:0x00000001  x9:0x80009f48 x22=0x00000000
       36175000	      3616	80002a2c	01e777b3	and	x15,x14,x30	 x14:0x00000000 x30:0x00000000 x15=0x00000000
       36185000	      3617	80002a30	01800eb3	add	x29,x0,x24	  x0:0x00000000 x24:0xffffffff x29=0xffffffff
       36195000	      3618	80002a34	9a9ff0ef	jal	x1,80002a34	  x1=0x80002a34
       36205000	      3619	00000000	00000013	addi	x0,x0,0	  x0:0x00000000
       36215000	      3620	800023d8	00000013	addi	x0,x0,0	  x0:0x00000000
       36225000	      3621	800023dc	ff048493	addi	x9,x9,-16	  x9:0x80009f48  x9=0x80009f38
       36235000	      3622	800023e0	01e006b3	add	x13,x0,x30	  x0:0x00000000 x30:0x00000000 x13=0x00000000
       36245000	      3623	800023e4	00000013	addi	x0,x0,0	  x0:0x00000000
       36255000	      3624	800023e8	01d7e833	or	x16,x15,x29	 x15:0x00000000 x29:0xffffffff x16=0xffffffff
       36265000	      3625	800023ec	00e441b3	xor	x3,x8,x14	  x8:0xfffffff7 x14:0x00000000  x3=0xfffffff7
       36275000	      3626	800023f0	00e6f433	and	x8,x13,x14	 x13:0x00000000 x14:0x00000000  x8=0x00000000
       36285000	      3627	800023f4	0014a223	sw	x1,4(x9)	  x9:0x80009f38  x1:0x80002a34 PA:0x80009f3c
       36295000	      3628	800023f8	001669b3	or	x19,x12,x1	 x12:0x80002615  x1:0x80002a34 x19=0x80002e35
       36305000	      3629	800023fc	00595393	srli	x7,x18,0x5	 x18:0x00000000  x7=0x00000000
       36315000	      3630	80002400	00800913	addi	x18,x0,8	  x0:0x00000000 x18=0x00000008
       36325000	      3631	80002404	01300593	addi	x11,x0,19	  x0:0x00000000 x11=0x00000013
       36335000	      3632	80002408	53a10b13	addi	x22,x2,1338	  x2:0x000033d0 x22=0x0000390a
       36345000	      3633	8000240c	00a90913	addi	x18,x18,10	 x18:0x00000008 x18=0x00000012
       36355000	      3634	80002410	ff600213	addi	x4,x0,-10	  x0:0x00000000  x4=0xfffffff6
       36365000	      3635	80002414	00f00113	addi	x2,x0,15	  x0:0x00000000  x2=0x0000000f
       36375000	      3636	80002418	402a8c33	sub	x24,x21,x2	 x21:0x80002dbe  x2:0x0000000f x24=0x80002daf
       36385000	      3637	8000241c	00000013	addi	x0,x0,0	  x0:0x00000000
       36395000	      3638	80002420	0142b633	sltu	x12,x5,x20	  x5:0x00000001 x20:0x00000008 x12=0x00000001
       36405000	      3639	80002424	00720213	addi	x4,x4,7	  x4:0xfffffff6  x4=0xfffffffd
       36415000	      3640	80002428	fe226ae3	bltu	x4,x2,8000241c	  x4:0xfffffffd  x2:0x0000000f
       36425000	      3641	8000242c	fcb94ee3	blt	x18,x11,80002408	 x18:0x00000012 x11:0x00000013
       36435000	      3642	00000000	00000013	addi	x0,x0,0	  x0:0x00000000
       36445000	      3643	80002404	00000013	addi	x0,x0,0	  x0:0x00000000
       36455000	      3644	80002408	53a10b13	addi	x22,x2,1338	  x2:0x0000000f x22=0x00000549
       36465000	      3645	8000240c	00a90913	addi	x18,x18,10	 x18:0x00000012 x18=0x0000001c
       36475000	      3646	80002410	ff600213	addi	x4,x0,-10	  x0:0x00000000  x4=0xfffffff6
       36485000	      3647	80002414	00f00113	addi	x2,x0,15	  x0:0x00000000  x2=0x0000000f
       36495000	      3648	80002418	402a8c33	sub	x24,x21,x2	 x21:0x80002dbe  x2:0x0000000f x24=0x80002daf
       36505000	      3649	8000241c	00000013	addi	x0,x0,0	  x0:0x00000000
       36515000	      3650	80002420	0142b633	sltu	x12,x5,x20	  x5:0x00000001 x20:0x00000008 x12=0x00000001
       36525000	      3651	80002424	00720213	addi	x4,x4,7	  x4:0xfffffff6  x4=0xfffffffd
       36535000	      3652	80002428	fe226ae3	bltu	x4,x2,8000241c	  x4:0xfffffffd  x2:0x0000000f
       36545000	      3653	8000242c	fcb94ee3	blt	x18,x11,80002408	 x18:0x0000001c x11:0x00000013
       36555000	      3654	80002430	005580b3	add	x1,x11,x5	 x11:0x00000013  x5:0x00000001  x1=0x00000014
       36565000	      3655	80002434	00c156b3	srl	x13,x2,x12	  x2:0x0000000f x12:0x00000001 x13=0x00000007
       36575000	      3656	80002438	535c2213	slti	x4,x24,1333	 x24:0x80002daf  x4=0x00000001
       36585000	      3657	8000243c	002af033	and	x0,x21,x2	 x21:0x80002dbe  x2:0x0000000f
       36595000	      3658	80002440	01b55e33	srl	x28,x10,x27	 x10:0x80000000 x27:0x00000000 x28=0x80000000
       36605000	      3659	80002444	53ffb813	sltiu	x16,x31,1343	 x31:0x00000001 x16=0x00000001
       36615000	      3660	80002448	00767633	and	x12,x12,x7	 x12:0x00000001  x7:0x00000000 x12=0x00000000
       36625000	      3661	8000244c	01967663	bgeu	x12,x25,80002458	 x12:0x00000000 x25:0x00000000
       36635000	      3662	00000000	00000013	addi	x0,x0,0	  x0:0x00000000
       36645000	      3663	80002454	00000013	addi	x0,x0,0	  x0:0x00000000
       36655000	      3664	80002458	01640ab3	add	x21,x8,x22	  x8:0x00000000 x22:0x00000549 x21=0x00000549
       36665000	      3665	8000245c	03c8ce63	blt	x17,x28,80002498	 x17:0x00000001 x28:0x80000000
       36675000	      3666	80002460	f4bd5e97	auipc	x29,0xf4bd5	 x29=0x74bd745c
       36685000	      3667	80002464	13148a13	addi	x20,x9,305	  x9:0x80009f38 x20=0x8000a069
       36695000	      3668	80002468	58772213	slti	x4,x14,1415	 x14:0x00000000  x4=0x00000001
       36705000	      3669	8000246c	0446c463	blt	x13,x4,800024b4	 x13:0x00000007  x4:0x00000001
       36715000	      3670	80002470	ae416593	ori	x11,x2,-1308	  x2:0x0000000f x11=0xfffffaef
       36725000	      3671	80002474	350eee13	ori	x28,x29,848	 x29:0x74bd745c x28=0x74bd775c
       36735000	      3672	80002478	0d2a5a97	auipc	x21,0xd2a5	 x21=0x8d2a7474
       36745000	      3673	8000247c	04e01863	bne	x0,x14,800024cc	  x0:0x00000000 x14:0x00000000
       36755000	      3674	80002480	01249393	slli	x7,x9,0x12	  x9:0x80009f38  x7=0x7ce00000
       36765000	      3675	80002484	4161db93	srai	x23,x3,0x16	  x3:0xfffffff7 x23=0xffffffff
       36775000	      3676	80002488	015c7863	bgeu	x24,x21,80002498	 x24:0x80002daf x21:0x8d2a7474
       36785000	      3677	8000248c	011c5cb3	srl	x25,x24,x17	 x24:0x80002daf x17:0x00000001 x25=0x400016d7
       36795000	      3678	80002490	b16275b7	lui	x11,0xb1627	 x11=0xb1627000
       36805000	      3679	80002494	05874663	blt	x14,x24,800024e0	 x14:0x00000000 x24:0x80002daf
       36815000	      3680	80002498	00554f33	xor	x30,x10,x5	 x10:0x80000000  x5:0x00000001 x30=0x80000001
       36825000	      3681	8000249c	41e05db3	sra	x27,x0,x30	  x0:0x00000000 x30:0x80000001 x27=0x00000000
       36835000	      3682	800024a0	00443a33	sltu	x20,x8,x4	  x8:0x00000000  x4:0x00000001 x20=0x00000001
       36845000	      3683	800024a4	01c8da33	srl	x20,x17,x28	 x17:0x00000001 x28:0x74bd775c x20=0x00000000
       36855000	      3684	800024a8	00b89213	slli	x4,x17,0xb	 x17:0x00000001  x4=0x00000800
       36865000	      3685	800024ac	03527063	bgeu	x4,x21,800024cc	  x4:0x00000800 x21:0x8d2a7474
       36875000	      3686	800024b0	41648133	sub	x2,x9,x22	  x9:0x80009f38 x22:0x00000549  x2=0x800099ef
       36885000	      3687	800024b4	b08680b7	lui	x1,0xb0868	  x1=0xb0868000
       36895000	      3688	800024b8	5bb7a413	slti	x8,x15,1467	 x15:0x00000000  x8=0x00000001
       36905000	      3689	800024bc	006c4863	blt	x24,x6,800024cc	 x24:0x80002daf  x6:0x80009fc4
       36915000	      3690	00000000	00000013	addi	x0,x0,0	  x0:0x00000000
       36925000	      3691	800024c8	00000013	addi	x0,x0,0	  x0:0x00000000
       36935000	      3692	800024cc	03564a63	blt	x12,x21,80002500	 x12:0x00000000 x21:0x8d2a7474
       36945000	      3693	800024d0	014c75b3	and	x11,x24,x20	 x24:0x80002daf x20:0x00000000 x11=0x00000000
       36955000	      3694	800024d4	0d2ab993	sltiu	x19,x21,210	 x21:0x8d2a7474 x19=0x00000000
       36965000	      3695	800024d8	2d5cf993	andi	x19,x25,725	 x25:0x400016d7 x19=0x000002d5
       36975000	      3696	800024dc	4008d233	sra	x4,x17,x0	 x17:0x00000001  x0:0x00000000  x4=0x00000001
       36985000	      3697	800024e0	00c0eeb3	or	x29,x1,x12	  x1:0xb0868000 x12:0x00000000 x29=0xb0868000
       36995000	      3698	800024e4	00000013	addi	x0,x0,0	  x0:0x00000000
       37005000	      3699	800024e8	01d1f233	and	x4,x3,x29	  x3:0xfffffff7 x29:0xb0868000  x4=0xb0868000
       37015000	      3700	800024ec	03d8de63	bge	x17,x29,80002528	 x17:0x00000001 x29:0xb0868000
       37025000	      3701	00000000	00000013	addi	x0,x0,0	  x0:0x00000000
       37035000	      3702	80002524	00000013	addi	x0,x0,0	  x0:0x00000000
       37045000	      3703	80002528	c3dbae13	slti	x28,x23,-963	 x23:0xffffffff x28=0x00000000
       37055000	      3704	8000252c	00a71f93	slli	x31,x14,0xa	 x14:0x00000000 x31=0x00000000
       37065000	      3705	80002530	93442113	slti	x2,x8,-1740	  x8:0x00000001  x2=0x00000000
       37075000	      3706	80002534	002f9933	sll	x18,x31,x2	 x31:0x00000000  x2:0x00000000 x18=0x00000000
       37085000	      3707	80002538	2c242293	slti	x5,x8,706	  x8:0x00000001  x5=0x00000001
       37095000	      3708	8000253c	412681b3	sub	x3,x13,x18	 x13:0x00000007 x18:0x00000000  x3=0x00000007
       37105000	      3709	80002540	2704ea37	lui	x20,0x2704e	 x20=0x2704e000
       37115000	      3710	80002544	00059fb3	sll	x31,x11,x0	 x11:0x00000000  x0:0x00000000 x31=0x00000000
       37125000	      3711	80002548	024b9063	bne	x23,x4,80002568	 x23:0xffffffff  x4:0xb0868000
       37135000	      3712	00000000	00000013	addi	x0,x0,0	  x0:0x00000000
       37145000	      3713	80002564	00000013	addi	x0,x0,0	  x0:0x00000000
       37155000	      3714	80002568	016dfd33	and	x26,x27,x22	 x27:0x00000000 x22:0x00000549 x26=0x00000000
       37165000	      3715	8000256c	00886263	bltu	x16,x8,80002570	 x16:0x00000001  x8:0x00000001
       37175000	      3716	80002570	01cb42b3	xor	x5,x22,x28	 x22:0x00000549 x28:0x00000000  x5=0x00000549
       37185000	      3717	80002574	0044a083	lw	x1,4(x9)	  x9:0x80009f38  x1=0x80002a34 PA:0x80009f3c
       37195000	      3718	80002578	016f5c93	srli	x25,x30,0x16	 x30:0x80000001 x25=0x00000200
       37205000	      3719	8000257c	01048493	addi	x9,x9,16	  x9:0x80009f38  x9=0x80009f48
       37215000	      3720	80002580	d8bd2c13	slti	x24,x26,-629	 x26:0x00000000 x24=0x00000000
       37225000	      3721	80002584	411d87b3	sub	x15,x27,x17	 x27:0x00000000 x17:0x00000001 x15=0xffffffff
       37235000	      3722	80002588	010ed3b3	srl	x7,x29,x16	 x29:0xb0868000 x16:0x00000001  x7=0x58434000
       37245000	      3723	8000258c	300f7f93	andi	x31,x30,768	 x30:0x80000001 x31=0x00000000
       37255000	      3724	80002590	00108e13	addi	x28,x1,1	  x1:0x80002a34 x28=0x80002a35
       37265000	      3725	80002594	000e0e67	jalr	x28,x28,0	 x28:0x80002a35 x28=0x80002594
       37275000	      3726	00000000	00000013	addi	x0,x0,0	  x0:0x00000000
       37285000	      3727	80002a34	00000013	addi	x0,x0,0	  x0:0x00000000
       37295000	      3728	80002a38	01b31893	slli	x17,x6,0x1b	  x6:0x80009fc4 x17=0x20000000
       37305000	      3729	80002a3c	00000217	auipc	x4,0x0	  x4=0x80002a38
       37315000	      3730	80002a40	9a020213	addi	x4,x4,-1632	  x4:0x80002a38  x4=0x800023d8
       37325000	      3731	80002a44	c5b20213	addi	x4,x4,-933	  x4:0x800023d8  x4=0x80002033
       37335000	      3732	80002a48	00000013	addi	x0,x0,0	  x0:0x00000000
       37345000	      3733	80002a4c	a380e093	ori	x1,x1,-1480	  x1:0x80002a34  x1=0xfffffa3c
       37355000	      3734	80002a50	c5014413	xori	x8,x2,-944	  x2:0x00000000  x8=0xfffffc50
       37365000	      3735	80002a54	00000013	addi	x0,x0,0	  x0:0x00000000
       37375000	      3736	80002a58	01f08cb3	add	x25,x1,x31	  x1:0xfffffa3c x31:0x00000000 x25=0xfffffa3c
       37385000	      3737	80002a5c	3a5200e7	jalr	x1,x4,933	  x4:0x80002033  x1=0x80002a5c
       37395000	      3738	00000000	00000013	addi	x0,x0,0	  x0:0x00000000
       37405000	      3739	800023d8	00000013	addi	x0,x0,0	  x0:0x00000000
       37415000	      3740	800023dc	ff048493	addi	x9,x9,-16	  x9:0x80009f48  x9=0x80009f38
       37425000	      3741	800023e0	01e006b3	add	x13,x0,x30	  x0:0x00000000 x30:0x80000001 x13=0x80000001
       37435000	      3742	800023e4	00000013	addi	x0,x0,0	  x0:0x00000000
       37445000	      3743	800023e8	01d7e833	or	x16,x15,x29	 x15:0xffffffff x29:0xb0868000 x16=0xffffffff
       37455000	      3744	800023ec	00e441b3	xor	x3,x8,x14	  x8:0xfffffc50 x14:0x00000000  x3=0xfffffc50
       37465000	      3745	800023f0	00e6f433	and	x8,x13,x14	 x13:0x80000001 x14:0x00000000  x8=0x00000000
       37475000	      3746	800023f4	0014a223	sw	x1,4(x9)	  x9:0x80009f38  x1:0x80002a5c PA:0x80009f3c
       37485000	      3747	800023f8	001669b3	or	x19,x12,x1	 x12:0x00000000  x1:0x80002a5c x19=0x80002a5c
       37495000	      3748	800023fc	00595393	srli	x7,x18,0x5	 x18:0x00000000  x7=0x00000000
       37505000	      3749	80002400	00800913	addi	x18,x0,8	  x0:0x00000000 x18=0x00000008
       37515000	      3750	80002404	01300593	addi	x11,x0,19	  x0:0x00000000 x11=0x00000013
       37525000	      3751	80002408	53a10b13	addi	x22,x2,1338	  x2:0x00000000 x22=0x0000053a
       37535000	      3752	8000240c	00a90913	addi	x18,x18,10	 x18:0x00000008 x18=0x00000012
       37545000	      3753	80002410	ff600213	addi	x4,x0,-10	  x0:0x00000000  x4=0xfffffff6
       37555000	      3754	80002414	00f00113	addi	x2,x0,15	  x0:0x00000000  x2=0x0000000f
       37565000	      3755	80002418	402a8c33	sub	x24,x21,x2	 x21:0x8d2a7474  x2:0x0000000f x24=0x8d2a7465
       37575000	      3756	8000241c	00000013	addi	x0,x0,0	  x0:0x00000000
       37585000	      3757	80002420	0142b633	sltu	x12,x5,x20	  x5:0x00000549 x20:0x2704e000 x12=0x00000001
       37595000	      3758	80002424	00720213	addi	x4,x4,7	  x4:0xfffffff6  x4=0xfffffffd
       37605000	      3759	80002428	fe226ae3	bltu	x4,x2,8000241c	  x4:0xfffffffd  x2:0x0000000f
       37615000	      3760	8000242c	fcb94ee3	blt	x18,x11,80002408	 x18:0x00000012 x11:0x00000013
       37625000	      3761	00000000	00000013	addi	x0,x0,0	  x0:0x00000000
       37635000	      3762	80002404	00000013	addi	x0,x0,0	  x0:0x00000000
       37645000	      3763	80002408	53a10b13	addi	x22,x2,1338	  x2:0x0000000f x22=0x00000549
       37655000	      3764	8000240c	00a90913	addi	x18,x18,10	 x18:0x00000012 x18=0x0000001c
       37665000	      3765	80002410	ff600213	addi	x4,x0,-10	  x0:0x00000000  x4=0xfffffff6
       37675000	      3766	80002414	00f00113	addi	x2,x0,15	  x0:0x00000000  x2=0x0000000f
       37685000	      3767	80002418	402a8c33	sub	x24,x21,x2	 x21:0x8d2a7474  x2:0x0000000f x24=0x8d2a7465
       37695000	      3768	8000241c	00000013	addi	x0,x0,0	  x0:0x00000000
       37705000	      3769	80002420	0142b633	sltu	x12,x5,x20	  x5:0x00000549 x20:0x2704e000 x12=0x00000001
       37715000	      3770	80002424	00720213	addi	x4,x4,7	  x4:0xfffffff6  x4=0xfffffffd
       37725000	      3771	80002428	fe226ae3	bltu	x4,x2,8000241c	  x4:0xfffffffd  x2:0x0000000f
       37735000	      3772	8000242c	fcb94ee3	blt	x18,x11,80002408	 x18:0x0000001c x11:0x00000013
       37745000	      3773	80002430	005580b3	add	x1,x11,x5	 x11:0x00000013  x5:0x00000549  x1=0x0000055c
       37755000	      3774	80002434	00c156b3	srl	x13,x2,x12	  x2:0x0000000f x12:0x00000001 x13=0x00000007
       37765000	      3775	80002438	535c2213	slti	x4,x24,1333	 x24:0x8d2a7465  x4=0x00000001
       37775000	      3776	8000243c	002af033	and	x0,x21,x2	 x21:0x8d2a7474  x2:0x0000000f
       37785000	      3777	80002440	01b55e33	srl	x28,x10,x27	 x10:0x80000000 x27:0x00000000 x28=0x80000000
       37795000	      3778	80002444	53ffb813	sltiu	x16,x31,1343	 x31:0x00000000 x16=0x00000001
       37805000	      3779	80002448	00767633	and	x12,x12,x7	 x12:0x00000001  x7:0x00000000 x12=0x00000000
       37815000	      3780	8000244c	01967663	bgeu	x12,x25,80002458	 x12:0x00000000 x25:0xfffffa3c
       37825000	      3781	80002450	00f3e863	bltu	x7,x15,80002460	  x7:0x00000000 x15:0xffffffff
       37835000	      3782	00000000	00000013	addi	x0,x0,0	  x0:0x00000000
       37845000	      3783	8000245c	00000013	addi	x0,x0,0	  x0:0x00000000
       37855000	      3784	80002460	f4bd5e97	auipc	x29,0xf4bd5	 x29=0x74bd745c
       37865000	      3785	80002464	13148a13	addi	x20,x9,305	  x9:0x80009f38 x20=0x8000a069
       37875000	      3786	80002468	58772213	slti	x4,x14,1415	 x14:0x00000000  x4=0x00000001
       37885000	      3787	8000246c	0446c463	blt	x13,x4,800024b4	 x13:0x00000007  x4:0x00000001
       37895000	      3788	80002470	ae416593	ori	x11,x2,-1308	  x2:0x0000000f x11=0xfffffaef
       37905000	      3789	80002474	350eee13	ori	x28,x29,848	 x29:0x74bd745c x28=0x74bd775c
       37915000	      3790	80002478	0d2a5a97	auipc	x21,0xd2a5	 x21=0x8d2a7474
       37925000	      3791	8000247c	04e01863	bne	x0,x14,800024cc	  x0:0x00000000 x14:0x00000000
       37935000	      3792	80002480	01249393	slli	x7,x9,0x12	  x9:0x80009f38  x7=0x7ce00000
       37945000	      3793	80002484	4161db93	srai	x23,x3,0x16	  x3:0xfffffc50 x23=0xffffffff
       37955000	      3794	80002488	015c7863	bgeu	x24,x21,80002498	 x24:0x8d2a7465 x21:0x8d2a7474
       37965000	      3795	8000248c	011c5cb3	srl	x25,x24,x17	 x24:0x8d2a7465 x17:0x20000000 x25=0x8d2a7465
       37975000	      3796	80002490	b16275b7	lui	x11,0xb1627	 x11=0xb1627000
       37985000	      3797	80002494	05874663	blt	x14,x24,800024e0	 x14:0x00000000 x24:0x8d2a7465
       37995000	      3798	80002498	00554f33	xor	x30,x10,x5	 x10:0x80000000  x5:0x00000549 x30=0x80000549
       38005000	      3799	8000249c	41e05db3	sra	x27,x0,x30	  x0:0x00000000 x30:0x80000549 x27=0x00000000
       38015000	      3800	800024a0	00443a33	sltu	x20,x8,x4	  x8:0x00000000  x4:0x00000001 x20=0x00000001
       38025000	      3801	800024a4	01c8da33	srl	x20,x17,x28	 x17:0x20000000 x28:0x74bd775c x20=0x00000002
       38035000	      3802	800024a8	00b89213	slli	x4,x17,0xb	 x17:0x20000000  x4=0x00000000
       38045000	      3803	800024ac	03527063	bgeu	x4,x21,800024cc	  x4:0x00000000 x21:0x8d2a7474
       38055000	      3804	800024b0	41648133	sub	x2,x9,x22	  x9:0x80009f38 x22:0x00000549  x2=0x800099ef
       38065000	      3805	800024b4	b08680b7	lui	x1,0xb0868	  x1=0xb0868000
       38075000	      3806	800024b8	5bb7a413	slti	x8,x15,1467	 x15:0xffffffff  x8=0x00000001
       38085000	      3807	800024bc	006c4863	blt	x24,x6,800024cc	 x24:0x8d2a7465  x6:0x80009fc4
       38095000	      3808	800024c0	04720263	beq	x4,x7,80002504	  x4:0x00000000  x7:0x7ce00000
       38105000	      3809	800024c4	fa1a4d93	xori	x27,x20,-95	 x20:0x00000002 x27=0xffffffa3
       38115000	      3810	800024c8	ff008937	lui	x18,0xff008	 x18=0xff008000
       38125000	      3811	800024cc	03564a63	blt	x12,x21,80002500	 x12:0x00000000 x21:0x8d2a7474
       38135000	      3812	800024d0	014c75b3	and	x11,x24,x20	 x24:0x8d2a7465 x20:0x00000002 x11=0x00000000
       38145000	      3813	800024d4	0d2ab993	sltiu	x19,x21,210	 x21:0x8d2a7474 x19=0x00000000
       38155000	      3814	800024d8	2d5cf993	andi	x19,x25,725	 x25:0x8d2a7465 x19=0x00000045
       38165000	      3815	800024dc	4008d233	sra	x4,x17,x0	 x17:0x20000000  x0:0x00000000  x4=0x20000000
       38175000	      3816	800024e0	00c0eeb3	or	x29,x1,x12	  x1:0xb0868000 x12:0x00000000 x29=0xb0868000
       38185000	      3817	800024e4	00000013	addi	x0,x0,0	  x0:0x00000000
       38195000	      3818	800024e8	01d1f233	and	x4,x3,x29	  x3:0xfffffc50 x29:0xb0868000  x4=0xb0868000
       38205000	      3819	800024ec	03d8de63	bge	x17,x29,80002528	 x17:0x20000000 x29:0xb0868000
       38215000	      3820	00000000	00000013	addi	x0,x0,0	  x0:0x00000000
       38225000	      3821	80002524	00000013	addi	x0,x0,0	  x0:0x00000000
       38235000	      3822	80002528	c3dbae13	slti	x28,x23,-963	 x23:0xffffffff x28=0x00000000
       38245000	      3823	8000252c	00a71f93	slli	x31,x14,0xa	 x14:0x00000000 x31=0x00000000
       38255000	      3824	80002530	93442113	slti	x2,x8,-1740	  x8:0x00000001  x2=0x00000000
       38265000	      3825	80002534	002f9933	sll	x18,x31,x2	 x31:0x00000000  x2:0x00000000 x18=0x00000000
       38275000	      3826	80002538	2c242293	slti	x5,x8,706	  x8:0x00000001  x5=0x00000001
       38285000	      3827	8000253c	412681b3	sub	x3,x13,x18	 x13:0x00000007 x18:0x00000000  x3=0x00000007
       38295000	      3828	80002540	2704ea37	lui	x20,0x2704e	 x20=0x2704e000
       38305000	      3829	80002544	00059fb3	sll	x31,x11,x0	 x11:0x00000000  x0:0x00000000 x31=0x00000000
       38315000	      3830	80002548	024b9063	bne	x23,x4,80002568	 x23:0xffffffff  x4:0xb0868000
       38325000	      3831	00000000	00000013	addi	x0,x0,0	  x0:0x00000000
       38335000	      3832	80002564	00000013	addi	x0,x0,0	  x0:0x00000000
       38345000	      3833	80002568	016dfd33	and	x26,x27,x22	 x27:0xffffffa3 x22:0x00000549 x26=0x00000501
       38355000	      3834	8000256c	00886263	bltu	x16,x8,80002570	 x16:0x00000001  x8:0x00000001
       38365000	      3835	80002570	01cb42b3	xor	x5,x22,x28	 x22:0x00000549 x28:0x00000000  x5=0x00000549
       38375000	      3836	80002574	0044a083	lw	x1,4(x9)	  x9:0x80009f38  x1=0x80002a5c PA:0x80009f3c
       38385000	      3837	80002578	016f5c93	srli	x25,x30,0x16	 x30:0x80000549 x25=0x00000200
       38395000	      3838	8000257c	01048493	addi	x9,x9,16	  x9:0x80009f38  x9=0x80009f48
       38405000	      3839	80002580	d8bd2c13	slti	x24,x26,-629	 x26:0x00000501 x24=0x00000000
       38415000	      3840	80002584	411d87b3	sub	x15,x27,x17	 x27:0xffffffa3 x17:0x20000000 x15=0xdfffffa3
       38425000	      3841	80002588	010ed3b3	srl	x7,x29,x16	 x29:0xb0868000 x16:0x00000001  x7=0x58434000
       38435000	      3842	8000258c	300f7f93	andi	x31,x30,768	 x30:0x80000549 x31=0x00000100
       38445000	      3843	80002590	00108e13	addi	x28,x1,1	  x1:0x80002a5c x28=0x80002a5d
       38455000	      3844	80002594	000e0e67	jalr	x28,x28,0	 x28:0x80002a5d x28=0x80002594
       38465000	      3845	00000000	00000013	addi	x0,x0,0	  x0:0x00000000
       38475000	      3846	80002a5c	00000013	addi	x0,x0,0	  x0:0x00000000
       38485000	      3847	80002a60	ff600993	addi	x19,x0,-10	  x0:0x00000000 x19=0xfffffff6
       38495000	      3848	80002a64	00ebd2b3	srl	x5,x23,x14	 x23:0xffffffff x14:0x00000000  x5=0xffffffff
       38505000	      3849	80002a68	41e58033	sub	x0,x11,x30	 x11:0x00000000 x30:0x80000549
       38515000	      3850	80002a6c	164f6617	auipc	x12,0x164f6	 x12=0x964f8a68
       38525000	      3851	80002a70	01fedb33	srl	x22,x29,x31	 x29:0xb0868000 x31:0x00000100 x22=0xb0868000
       38535000	      3852	80002a74	947cbc93	sltiu	x25,x25,-1721	 x25:0x00000200 x25=0x00000001
       38545000	      3853	80002a78	00000013	addi	x0,x0,0	  x0:0x00000000
       38555000	      3854	80002a7c	ff42ebb7	lui	x23,0xff42e	 x23=0xff42e000
       38565000	      3855	80002a80	00000013	addi	x0,x0,0	  x0:0x00000000
       38575000	      3856	80002a84	00800413	addi	x8,x0,8	  x0:0x00000000  x8=0x00000008
       38585000	      3857	80002a88	016ba5b3	slt	x11,x23,x22	 x23:0xff42e000 x22:0xb0868000 x11=0x00000000
       38595000	      3858	80002a8c	0189db93	srli	x23,x19,0x18	 x19:0xfffffff6 x23=0x000000ff
       38605000	      3859	80002a90	00698993	addi	x19,x19,6	 x19:0xfffffff6 x19=0xfffffffc
       38615000	      3860	80002a94	40a0dc93	srai	x25,x1,0xa	  x1:0x80002a5c x25=0xffe0000a
       38625000	      3861	80002a98	01b94c33	xor	x24,x18,x27	 x18:0x00000000 x27:0xffffffa3 x24=0xffffffa3
       38635000	      3862	80002a9c	005a1693	slli	x13,x20,0x5	 x20:0x2704e000 x13=0xe09c0000
       38645000	      3863	80002aa0	00199a93	slli	x21,x19,0x1	 x19:0xfffffffc x21=0xfffffff8
       38655000	      3864	80002aa4	1bc52793	slti	x15,x10,444	 x10:0x80000000 x15=0x00000001
       38665000	      3865	80002aa8	5a4c0393	addi	x7,x24,1444	 x24:0xffffffa3  x7=0x00000547
       38675000	      3866	80002aac	8001fc93	andi	x25,x3,-2048	  x3:0x00000007 x25=0x00000000
       38685000	      3867	80002ab0	00bc9213	slli	x4,x25,0xb	 x25:0x00000000  x4=0x00000000
       38695000	      3868	80002ab4	017bd893	srli	x17,x23,0x17	 x23:0x000000ff x17=0x00000000
       38705000	      3869	80002ab8	fc8988e3	beq	x19,x8,80002a88	 x19:0xfffffffc  x8:0x00000008
       38715000	      3870	80002abc	c987e093	ori	x1,x15,-872	 x15:0x00000001  x1=0xfffffc99
       38725000	      3871	80002ac0	020a4463	blt	x20,x0,80002ae8	 x20:0x2704e000  x0:0x00000000
       38735000	      3872	80002ac4	013178b3	and	x17,x2,x19	  x2:0x00000000 x19:0xfffffffc x17=0x00000000
       38745000	      3873	80002ac8	0074d013	srli	x0,x9,0x7	  x9:0x80009f48
       38755000	      3874	80002acc	098c4893	xori	x17,x24,152	 x24:0xffffffa3 x17=0xffffff3b
       38765000	      3875	80002ad0	25e00913	addi	x18,x0,606	  x0:0x00000000 x18=0x0000025e
       38775000	      3876	80002ad4	015c6bb3	or	x23,x24,x21	 x24:0xffffffa3 x21:0xfffffff8 x23=0xfffffffb
       38785000	      3877	80002ad8	0148ebb3	or	x23,x17,x20	 x17:0xffffff3b x20:0x2704e000 x23=0xffffff3b
       38795000	      3878	80002adc	0c920b93	addi	x23,x4,201	  x4:0x00000000 x23=0x000000c9
       38805000	      3879	80002ae0	00000013	addi	x0,x0,0	  x0:0x00000000
       38815000	      3880	80002ae4	01346213	ori	x4,x8,19	  x8:0x00000008  x4=0x0000001b
       38825000	      3881	80002ae8	0346cc63	blt	x13,x20,80002b20	 x13:0xe09c0000 x20:0x2704e000
       38835000	      3882	00000000	00000013	addi	x0,x0,0	  x0:0x00000000
       38845000	      3883	80002b1c	00000013	addi	x0,x0,0	  x0:0x00000000
       38855000	      3884	80002b20	015dd193	srli	x3,x27,0x15	 x27:0xffffffa3  x3=0x000007ff
       38865000	      3885	80002b24	412f8c33	sub	x24,x31,x18	 x31:0x00000100 x18:0x0000025e x24=0xfffffea2
       38875000	      3886	80002b28	2b3c2b97	auipc	x23,0x2b3c2	 x23=0xab3c4b24
       38885000	      3887	80002b2c	001209b3	add	x19,x4,x1	  x4:0x0000001b  x1:0xfffffc99 x19=0xfffffcb4
       38895000	      3888	80002b30	01144eb3	xor	x29,x8,x17	  x8:0x00000008 x17:0xffffff3b x29=0xffffff33
       38905000	      3889	80002b34	00b5c263	blt	x11,x11,80002b38	 x11:0x00000000 x11:0x00000000
       38915000	      3890	80002b38	d9557413	andi	x8,x10,-619	 x10:0x80000000  x8=0x80000000
       38925000	      3891	80002b3c	008f1813	slli	x16,x30,0x8	 x30:0x80000549 x16=0x00054900
       38935000	      3892	80002b40	01975693	srli	x13,x14,0x19	 x14:0x00000000 x13=0x00000000
       38945000	      3893	80002b44	93fbef13	ori	x30,x23,-1729	 x23:0xab3c4b24 x30=0xfffffb3f
       38955000	      3894	80002b48	d1397b93	andi	x23,x18,-749	 x18:0x0000025e x23=0x00000012
       38965000	      3895	80002b4c	001ebcb3	sltu	x25,x29,x1	 x29:0xffffff33  x1:0xfffffc99 x25=0x00000000
       38975000	      3896	80002b50	01a56433	or	x8,x10,x26	 x10:0x80000000 x26:0x00000501  x8=0x80000501
       38985000	      3897	80002b54	d1084d93	xori	x27,x16,-752	 x16:0x00054900 x27=0xfffab410
       38995000	      3898	80002b58	018f9eb3	sll	x29,x31,x24	 x31:0x00000100 x24:0xfffffea2 x29=0x00000400
       39005000	      3899	80002b5c	00000013	addi	x0,x0,0	  x0:0x00000000
       39015000	      3900	80002b60	019bc463	blt	x23,x25,80002b68	 x23:0x00000012 x25:0x00000000
       39025000	      3901	80002b64	4035d213	srai	x4,x11,0x3	 x11:0x00000000  x4=0x00000000
       39035000	      3902	80002b68	01ae5e63	bge	x28,x26,80002b84	 x28:0x80002594 x26:0x00000501
       39045000	      3903	80002b6c	002181b3	add	x3,x3,x2	  x3:0x000007ff  x2:0x00000000  x3=0x000007ff
       39055000	      3904	80002b70	01de9c93	slli	x25,x29,0x1d	 x29:0x00000400 x25=0x00000000
       39065000	      3905	80002b74	00874863	blt	x14,x8,80002b84	 x14:0x00000000  x8:0x80000501
       39075000	      3906	80002b78	01a9b133	sltu	x2,x19,x26	 x19:0xfffffcb4 x26:0x00000501  x2=0x00000000
       39085000	      3907	80002b7c	00aa5693	srli	x13,x20,0xa	 x20:0x2704e000 x13=0x0009c138
       39095000	      3908	80002b80	0132d263	bge	x5,x19,80002b84	  x5:0xffffffff x19:0xfffffcb4
       39105000	      3909	00000000	00000013	addi	x0,x0,0	  x0:0x00000000
       39115000	      3910	80002b80	00000013	addi	x0,x0,0	  x0:0x00000000
       39125000	      3911	80002b84	008dd6b3	srl	x13,x27,x8	 x27:0xfffab410  x8:0x80000501 x13=0x7ffd5a08
       39135000	      3912	80002b88	0044a083	lw	x1,4(x9)	  x9:0x80009f48  x1=0x80002c34 PA:0x80009f4c
       39145000	      3913	80002b8c	005bb1b3	sltu	x3,x23,x5	 x23:0x00000012  x5:0xffffffff  x3=0x00000001
       39155000	      3914	80002b90	910e68b7	lui	x17,0x910e6	 x17=0x910e6000
       39165000	      3915	80002b94	f23b3813	sltiu	x16,x22,-221	 x22:0xb0868000 x16=0x00000001
       39175000	      3916	80002b98	41e382b3	sub	x5,x7,x30	  x7:0x00000547 x30:0xfffffb3f  x5=0x00000a08
       39185000	      3917	80002b9c	03448493	addi	x9,x9,52	  x9:0x80009f48  x9=0x80009f7c
       39195000	      3918	80002ba0	009e5913	srli	x18,x28,0x9	 x28:0x80002594 x18=0x00400012
       39205000	      3919	80002ba4	0167adb3	slt	x27,x15,x22	 x15:0x00000001 x22:0xb0868000 x27=0x00000000
       39215000	      3920	80002ba8	00008913	addi	x18,x1,0	  x1:0x80002c34 x18=0x80002c34
       39225000	      3921	80002bac	00090967	jalr	x18,x18,0	 x18:0x80002c34 x18=0x80002bac
       39235000	      3922	00000000	00000013	addi	x0,x0,0	  x0:0x00000000
       39245000	      3923	80002c34	00000013	addi	x0,x0,0	  x0:0x00000000
       39255000	      3924	80002c38	ec69bd93	sltiu	x27,x19,-314	 x19:0xfffffcb4 x27=0x00000001
       39265000	      3925	80002c3c	00000013	addi	x0,x0,0	  x0:0x00000000
       39275000	      3926	80002c40	00c4d893	srli	x17,x9,0xc	  x9:0x80009f7c x17=0x00080009
       39285000	      3927	80002c44	dece2913	slti	x18,x28,-532	 x28:0x80002594 x18=0x00000001
       39295000	      3928	80002c48	1a404917	auipc	x18,0x1a404	 x18=0x9a406c44
       39305000	      3929	80002c4c	00aeba33	sltu	x20,x29,x10	 x29:0x00000400 x10:0x80000000 x20=0x00000001
       39315000	      3930	80002c50	0064fab3	and	x21,x9,x6	  x9:0x80009f7c  x6:0x80009fc4 x21=0x80009f44
       39325000	      3931	80002c54	3a4f2e13	slti	x28,x30,932	 x30:0xfffffb3f x28=0x00000001
       39335000	      3932	80002c58	0042d663	bge	x5,x4,80002c64	  x5:0x00000a08  x4:0x00000000
       39345000	      3933	00000000	00000013	addi	x0,x0,0	  x0:0x00000000
       39355000	      3934	80002c60	00000013	addi	x0,x0,0	  x0:0x00000000
       39365000	      3935	80002c64	d81ff0ef	jal	x1,80002c64	  x1=0x80002c64
       39375000	      3936	00000000	00000013	addi	x0,x0,0	  x0:0x00000000
       39385000	      3937	800029e0	00000013	addi	x0,x0,0	  x0:0x00000000
       39395000	      3938	800029e4	fcc48493	addi	x9,x9,-52	  x9:0x80009f7c  x9=0x80009f48
       39405000	      3939	800029e8	8ec88e37	lui	x28,0x8ec88	 x28=0x8ec88000
       39415000	      3940	800029ec	00ced933	srl	x18,x29,x12	 x29:0x00000400 x12:0x964f8a68 x18=0x00000004
       39425000	      3941	800029f0	40c45c13	srai	x24,x8,0xc	  x8:0x80000501 x24=0xfff80000
       39435000	      3942	800029f4	00327033	and	x0,x4,x3	  x4:0x00000000  x3:0x00000001
       39445000	      3943	800029f8	460fb893	sltiu	x17,x31,1120	 x31:0x00000100 x17=0x00000001
       39455000	      3944	800029fc	1ae0ea93	ori	x21,x1,430	  x1:0x80002c64 x21=0x80002dee
       39465000	      3945	80002a00	4a13f393	andi	x7,x7,1185	  x7:0x00000547  x7=0x00000401
       39475000	      3946	80002a04	27be5c97	auipc	x25,0x27be5	 x25=0xa7be7a00
       39485000	      3947	80002a08	05726193	ori	x3,x4,87	  x4:0x00000000  x3=0x00000057
       39495000	      3948	80002a0c	0014a223	sw	x1,4(x9)	  x9:0x80009f48  x1:0x80002c64 PA:0x80009f4c
       39505000	      3949	80002a10	4049d133	sra	x2,x19,x4	 x19:0xfffffcb4  x4:0x00000000  x2=0xfffffcb4
       39515000	      3950	80002a14	4086d033	sra	x0,x13,x8	 x13:0x7ffd5a08  x8:0x80000501
       39525000	      3951	80002a18	00fb2cb3	slt	x25,x22,x15	 x22:0xb0868000 x15:0x00000001 x25=0x00000001
       39535000	      3952	80002a1c	00cb1d93	slli	x27,x22,0xc	 x22:0xb0868000 x27=0x68000000
       39545000	      3953	80002a20	00681133	sll	x2,x16,x6	 x16:0x00000001  x6:0x80009fc4  x2=0x00000010
       39555000	      3954	80002a24	60546d13	ori	x26,x8,1541	  x8:0x80000501 x26=0x80000705
       39565000	      3955	80002a28	009ffb33	and	x22,x31,x9	 x31:0x00000100  x9:0x80009f48 x22=0x00000100
       39575000	      3956	80002a2c	01e777b3	and	x15,x14,x30	 x14:0x00000000 x30:0xfffffb3f x15=0x00000000
       39585000	      3957	80002a30	01800eb3	add	x29,x0,x24	  x0:0x00000000 x24:0xfff80000 x29=0xfff80000
       39595000	      3958	80002a34	9a9ff0ef	jal	x1,80002a34	  x1=0x80002a34
       39605000	      3959	00000000	00000013	addi	x0,x0,0	  x0:0x00000000
       39615000	      3960	800023d8	00000013	addi	x0,x0,0	  x0:0x00000000
       39625000	      3961	800023dc	ff048493	addi	x9,x9,-16	  x9:0x80009f48  x9=0x80009f38
       39635000	      3962	800023e0	01e006b3	add	x13,x0,x30	  x0:0x00000000 x30:0xfffffb3f x13=0xfffffb3f
       39645000	      3963	800023e4	00000013	addi	x0,x0,0	  x0:0x00000000
       39655000	      3964	800023e8	01d7e833	or	x16,x15,x29	 x15:0x00000000 x29:0xfff80000 x16=0xfff80000
       39665000	      3965	800023ec	00e441b3	xor	x3,x8,x14	  x8:0x80000501 x14:0x00000000  x3=0x80000501
       39675000	      3966	800023f0	00e6f433	and	x8,x13,x14	 x13:0xfffffb3f x14:0x00000000  x8=0x00000000
       39685000	      3967	800023f4	0014a223	sw	x1,4(x9)	  x9:0x80009f38  x1:0x80002a34 PA:0x80009f3c
       39695000	      3968	800023f8	001669b3	or	x19,x12,x1	 x12:0x964f8a68  x1:0x80002a34 x19=0x964faa7c
       39705000	      3969	800023fc	00595393	srli	x7,x18,0x5	 x18:0x00000004  x7=0x00000000
       39715000	      3970	80002400	00800913	addi	x18,x0,8	  x0:0x00000000 x18=0x00000008
       39725000	      3971	80002404	01300593	addi	x11,x0,19	  x0:0x00000000 x11=0x00000013
       39735000	      3972	80002408	53a10b13	addi	x22,x2,1338	  x2:0x00000010 x22=0x0000054a
       39745000	      3973	8000240c	00a90913	addi	x18,x18,10	 x18:0x00000008 x18=0x00000012
       39755000	      3974	80002410	ff600213	addi	x4,x0,-10	  x0:0x00000000  x4=0xfffffff6
       39765000	      3975	80002414	00f00113	addi	x2,x0,15	  x0:0x00000000  x2=0x0000000f
       39775000	      3976	80002418	402a8c33	sub	x24,x21,x2	 x21:0x80002dee  x2:0x0000000f x24=0x80002ddf
       39785000	      3977	8000241c	00000013	addi	x0,x0,0	  x0:0x00000000
       39795000	      3978	80002420	0142b633	sltu	x12,x5,x20	  x5:0x00000a08 x20:0x00000001 x12=0x00000000
       39805000	      3979	80002424	00720213	addi	x4,x4,7	  x4:0xfffffff6  x4=0xfffffffd
       39815000	      3980	80002428	fe226ae3	bltu	x4,x2,8000241c	  x4:0xfffffffd  x2:0x0000000f
       39825000	      3981	8000242c	fcb94ee3	blt	x18,x11,80002408	 x18:0x00000012 x11:0x00000013
       39835000	      3982	00000000	00000013	addi	x0,x0,0	  x0:0x00000000
       39845000	      3983	80002404	00000013	addi	x0,x0,0	  x0:0x00000000
       39855000	      3984	80002408	53a10b13	addi	x22,x2,1338	  x2:0x0000000f x22=0x00000549
       39865000	      3985	8000240c	00a90913	addi	x18,x18,10	 x18:0x00000012 x18=0x0000001c
       39875000	      3986	80002410	ff600213	addi	x4,x0,-10	  x0:0x00000000  x4=0xfffffff6
       39885000	      3987	80002414	00f00113	addi	x2,x0,15	  x0:0x00000000  x2=0x0000000f
       39895000	      3988	80002418	402a8c33	sub	x24,x21,x2	 x21:0x80002dee  x2:0x0000000f x24=0x80002ddf
       39905000	      3989	8000241c	00000013	addi	x0,x0,0	  x0:0x00000000
       39915000	      3990	80002420	0142b633	sltu	x12,x5,x20	  x5:0x00000a08 x20:0x00000001 x12=0x00000000
       39925000	      3991	80002424	00720213	addi	x4,x4,7	  x4:0xfffffff6  x4=0xfffffffd
       39935000	      3992	80002428	fe226ae3	bltu	x4,x2,8000241c	  x4:0xfffffffd  x2:0x0000000f
       39945000	      3993	8000242c	fcb94ee3	blt	x18,x11,80002408	 x18:0x0000001c x11:0x00000013
       39955000	      3994	80002430	005580b3	add	x1,x11,x5	 x11:0x00000013  x5:0x00000a08  x1=0x00000a1b
       39965000	      3995	80002434	00c156b3	srl	x13,x2,x12	  x2:0x0000000f x12:0x00000000 x13=0x0000000f
       39975000	      3996	80002438	535c2213	slti	x4,x24,1333	 x24:0x80002ddf  x4=0x00000001
       39985000	      3997	8000243c	002af033	and	x0,x21,x2	 x21:0x80002dee  x2:0x0000000f
       39995000	      3998	80002440	01b55e33	srl	x28,x10,x27	 x10:0x80000000 x27:0x68000000 x28=0x80000000
       40005000	      3999	80002444	53ffb813	sltiu	x16,x31,1343	 x31:0x00000100 x16=0x00000001
       40015000	      4000	80002448	00767633	and	x12,x12,x7	 x12:0x00000000  x7:0x00000000 x12=0x00000000
       40025000	      4001	8000244c	01967663	bgeu	x12,x25,80002458	 x12:0x00000000 x25:0x00000001
       40035000	      4002	80002450	00f3e863	bltu	x7,x15,80002460	  x7:0x00000000 x15:0x00000000
       40045000	      4003	80002454	00ce62b3	or	x5,x28,x12	 x28:0x80000000 x12:0x00000000  x5=0x80000000
       40055000	      4004	80002458	01640ab3	add	x21,x8,x22	  x8:0x00000000 x22:0x00000549 x21=0x00000549
       40065000	      4005	8000245c	03c8ce63	blt	x17,x28,80002498	 x17:0x00000001 x28:0x80000000
       40075000	      4006	80002460	f4bd5e97	auipc	x29,0xf4bd5	 x29=0x74bd745c
       40085000	      4007	80002464	13148a13	addi	x20,x9,305	  x9:0x80009f38 x20=0x8000a069
       40095000	      4008	80002468	58772213	slti	x4,x14,1415	 x14:0x00000000  x4=0x00000001
       40105000	      4009	8000246c	0446c463	blt	x13,x4,800024b4	 x13:0x0000000f  x4:0x00000001
       40115000	      4010	80002470	ae416593	ori	x11,x2,-1308	  x2:0x0000000f x11=0xfffffaef
       40125000	      4011	80002474	350eee13	ori	x28,x29,848	 x29:0x74bd745c x28=0x74bd775c
       40135000	      4012	80002478	0d2a5a97	auipc	x21,0xd2a5	 x21=0x8d2a7474
       40145000	      4013	8000247c	04e01863	bne	x0,x14,800024cc	  x0:0x00000000 x14:0x00000000
       40155000	      4014	80002480	01249393	slli	x7,x9,0x12	  x9:0x80009f38  x7=0x7ce00000
       40165000	      4015	80002484	4161db93	srai	x23,x3,0x16	  x3:0x80000501 x23=0xfffffe00
       40175000	      4016	80002488	015c7863	bgeu	x24,x21,80002498	 x24:0x80002ddf x21:0x8d2a7474
       40185000	      4017	8000248c	011c5cb3	srl	x25,x24,x17	 x24:0x80002ddf x17:0x00000001 x25=0x400016ef
       40195000	      4018	80002490	b16275b7	lui	x11,0xb1627	 x11=0xb1627000
       40205000	      4019	80002494	05874663	blt	x14,x24,800024e0	 x14:0x00000000 x24:0x80002ddf
       40215000	      4020	80002498	00554f33	xor	x30,x10,x5	 x10:0x80000000  x5:0x80000000 x30=0x00000000
       40225000	      4021	8000249c	41e05db3	sra	x27,x0,x30	  x0:0x00000000 x30:0x00000000 x27=0x00000000
       40235000	      4022	800024a0	00443a33	sltu	x20,x8,x4	  x8:0x00000000  x4:0x00000001 x20=0x00000001
       40245000	      4023	800024a4	01c8da33	srl	x20,x17,x28	 x17:0x00000001 x28:0x74bd775c x20=0x00000000
       40255000	      4024	800024a8	00b89213	slli	x4,x17,0xb	 x17:0x00000001  x4=0x00000800
       40265000	      4025	800024ac	03527063	bgeu	x4,x21,800024cc	  x4:0x00000800 x21:0x8d2a7474
       40275000	      4026	800024b0	41648133	sub	x2,x9,x22	  x9:0x80009f38 x22:0x00000549  x2=0x800099ef
       40285000	      4027	800024b4	b08680b7	lui	x1,0xb0868	  x1=0xb0868000
       40295000	      4028	800024b8	5bb7a413	slti	x8,x15,1467	 x15:0x00000000  x8=0x00000001
       40305000	      4029	800024bc	006c4863	blt	x24,x6,800024cc	 x24:0x80002ddf  x6:0x80009fc4
       40315000	      4030	00000000	00000013	addi	x0,x0,0	  x0:0x00000000
       40325000	      4031	800024c8	00000013	addi	x0,x0,0	  x0:0x00000000
       40335000	      4032	800024cc	03564a63	blt	x12,x21,80002500	 x12:0x00000000 x21:0x8d2a7474
       40345000	      4033	800024d0	014c75b3	and	x11,x24,x20	 x24:0x80002ddf x20:0x00000000 x11=0x00000000
       40355000	      4034	800024d4	0d2ab993	sltiu	x19,x21,210	 x21:0x8d2a7474 x19=0x00000000
       40365000	      4035	800024d8	2d5cf993	andi	x19,x25,725	 x25:0x400016ef x19=0x000002c5
       40375000	      4036	800024dc	4008d233	sra	x4,x17,x0	 x17:0x00000001  x0:0x00000000  x4=0x00000001
       40385000	      4037	800024e0	00c0eeb3	or	x29,x1,x12	  x1:0xb0868000 x12:0x00000000 x29=0xb0868000
       40395000	      4038	800024e4	00000013	addi	x0,x0,0	  x0:0x00000000
       40405000	      4039	800024e8	01d1f233	and	x4,x3,x29	  x3:0x80000501 x29:0xb0868000  x4=0x80000000
       40415000	      4040	800024ec	03d8de63	bge	x17,x29,80002528	 x17:0x00000001 x29:0xb0868000
       40425000	      4041	00000000	00000013	addi	x0,x0,0	  x0:0x00000000
       40435000	      4042	80002524	00000013	addi	x0,x0,0	  x0:0x00000000
       40445000	      4043	80002528	c3dbae13	slti	x28,x23,-963	 x23:0xfffffe00 x28=0x00000000
       40455000	      4044	8000252c	00a71f93	slli	x31,x14,0xa	 x14:0x00000000 x31=0x00000000
       40465000	      4045	80002530	93442113	slti	x2,x8,-1740	  x8:0x00000001  x2=0x00000000
       40475000	      4046	80002534	002f9933	sll	x18,x31,x2	 x31:0x00000000  x2:0x00000000 x18=0x00000000
       40485000	      4047	80002538	2c242293	slti	x5,x8,706	  x8:0x00000001  x5=0x00000001
       40495000	      4048	8000253c	412681b3	sub	x3,x13,x18	 x13:0x0000000f x18:0x00000000  x3=0x0000000f
       40505000	      4049	80002540	2704ea37	lui	x20,0x2704e	 x20=0x2704e000
       40515000	      4050	80002544	00059fb3	sll	x31,x11,x0	 x11:0x00000000  x0:0x00000000 x31=0x00000000
       40525000	      4051	80002548	024b9063	bne	x23,x4,80002568	 x23:0xfffffe00  x4:0x80000000
       40535000	      4052	00000000	00000013	addi	x0,x0,0	  x0:0x00000000
       40545000	      4053	80002564	00000013	addi	x0,x0,0	  x0:0x00000000
       40555000	      4054	80002568	016dfd33	and	x26,x27,x22	 x27:0x00000000 x22:0x00000549 x26=0x00000000
       40565000	      4055	8000256c	00886263	bltu	x16,x8,80002570	 x16:0x00000001  x8:0x00000001
       40575000	      4056	80002570	01cb42b3	xor	x5,x22,x28	 x22:0x00000549 x28:0x00000000  x5=0x00000549
       40585000	      4057	80002574	0044a083	lw	x1,4(x9)	  x9:0x80009f38  x1=0x80002a34 PA:0x80009f3c
       40595000	      4058	80002578	016f5c93	srli	x25,x30,0x16	 x30:0x00000000 x25=0x00000000
       40605000	      4059	8000257c	01048493	addi	x9,x9,16	  x9:0x80009f38  x9=0x80009f48
       40615000	      4060	80002580	d8bd2c13	slti	x24,x26,-629	 x26:0x00000000 x24=0x00000000
       40625000	      4061	80002584	411d87b3	sub	x15,x27,x17	 x27:0x00000000 x17:0x00000001 x15=0xffffffff
       40635000	      4062	80002588	010ed3b3	srl	x7,x29,x16	 x29:0xb0868000 x16:0x00000001  x7=0x58434000
       40645000	      4063	8000258c	300f7f93	andi	x31,x30,768	 x30:0x00000000 x31=0x00000000
       40655000	      4064	80002590	00108e13	addi	x28,x1,1	  x1:0x80002a34 x28=0x80002a35
       40665000	      4065	80002594	000e0e67	jalr	x28,x28,0	 x28:0x80002a35 x28=0x80002594
       40675000	      4066	00000000	00000013	addi	x0,x0,0	  x0:0x00000000
       40685000	      4067	80002a34	00000013	addi	x0,x0,0	  x0:0x00000000
       40695000	      4068	80002a38	01b31893	slli	x17,x6,0x1b	  x6:0x80009fc4 x17=0x20000000
       40705000	      4069	80002a3c	00000217	auipc	x4,0x0	  x4=0x80002a38
       40715000	      4070	80002a40	9a020213	addi	x4,x4,-1632	  x4:0x80002a38  x4=0x800023d8
       40725000	      4071	80002a44	c5b20213	addi	x4,x4,-933	  x4:0x800023d8  x4=0x80002033
       40735000	      4072	80002a48	00000013	addi	x0,x0,0	  x0:0x00000000
       40745000	      4073	80002a4c	a380e093	ori	x1,x1,-1480	  x1:0x80002a34  x1=0xfffffa3c
       40755000	      4074	80002a50	c5014413	xori	x8,x2,-944	  x2:0x00000000  x8=0xfffffc50
       40765000	      4075	80002a54	00000013	addi	x0,x0,0	  x0:0x00000000
       40775000	      4076	80002a58	01f08cb3	add	x25,x1,x31	  x1:0xfffffa3c x31:0x00000000 x25=0xfffffa3c
       40785000	      4077	80002a5c	3a5200e7	jalr	x1,x4,933	  x4:0x80002033  x1=0x80002a5c
       40795000	      4078	00000000	00000013	addi	x0,x0,0	  x0:0x00000000
       40805000	      4079	800023d8	00000013	addi	x0,x0,0	  x0:0x00000000
       40815000	      4080	800023dc	ff048493	addi	x9,x9,-16	  x9:0x80009f48  x9=0x80009f38
       40825000	      4081	800023e0	01e006b3	add	x13,x0,x30	  x0:0x00000000 x30:0x00000000 x13=0x00000000
       40835000	      4082	800023e4	00000013	addi	x0,x0,0	  x0:0x00000000
       40845000	      4083	800023e8	01d7e833	or	x16,x15,x29	 x15:0xffffffff x29:0xb0868000 x16=0xffffffff
       40855000	      4084	800023ec	00e441b3	xor	x3,x8,x14	  x8:0xfffffc50 x14:0x00000000  x3=0xfffffc50
       40865000	      4085	800023f0	00e6f433	and	x8,x13,x14	 x13:0x00000000 x14:0x00000000  x8=0x00000000
       40875000	      4086	800023f4	0014a223	sw	x1,4(x9)	  x9:0x80009f38  x1:0x80002a5c PA:0x80009f3c
       40885000	      4087	800023f8	001669b3	or	x19,x12,x1	 x12:0x00000000  x1:0x80002a5c x19=0x80002a5c
       40895000	      4088	800023fc	00595393	srli	x7,x18,0x5	 x18:0x00000000  x7=0x00000000
       40905000	      4089	80002400	00800913	addi	x18,x0,8	  x0:0x00000000 x18=0x00000008
       40915000	      4090	80002404	01300593	addi	x11,x0,19	  x0:0x00000000 x11=0x00000013
       40925000	      4091	80002408	53a10b13	addi	x22,x2,1338	  x2:0x00000000 x22=0x0000053a
       40935000	      4092	8000240c	00a90913	addi	x18,x18,10	 x18:0x00000008 x18=0x00000012
       40945000	      4093	80002410	ff600213	addi	x4,x0,-10	  x0:0x00000000  x4=0xfffffff6
       40955000	      4094	80002414	00f00113	addi	x2,x0,15	  x0:0x00000000  x2=0x0000000f
       40965000	      4095	80002418	402a8c33	sub	x24,x21,x2	 x21:0x8d2a7474  x2:0x0000000f x24=0x8d2a7465
       40975000	      4096	8000241c	00000013	addi	x0,x0,0	  x0:0x00000000
       40985000	      4097	80002420	0142b633	sltu	x12,x5,x20	  x5:0x00000549 x20:0x2704e000 x12=0x00000001
       40995000	      4098	80002424	00720213	addi	x4,x4,7	  x4:0xfffffff6  x4=0xfffffffd
       41005000	      4099	80002428	fe226ae3	bltu	x4,x2,8000241c	  x4:0xfffffffd  x2:0x0000000f
       41015000	      4100	8000242c	fcb94ee3	blt	x18,x11,80002408	 x18:0x00000012 x11:0x00000013
       41025000	      4101	00000000	00000013	addi	x0,x0,0	  x0:0x00000000
       41035000	      4102	80002404	00000013	addi	x0,x0,0	  x0:0x00000000
       41045000	      4103	80002408	53a10b13	addi	x22,x2,1338	  x2:0x0000000f x22=0x00000549
       41055000	      4104	8000240c	00a90913	addi	x18,x18,10	 x18:0x00000012 x18=0x0000001c
       41065000	      4105	80002410	ff600213	addi	x4,x0,-10	  x0:0x00000000  x4=0xfffffff6
       41075000	      4106	80002414	00f00113	addi	x2,x0,15	  x0:0x00000000  x2=0x0000000f
       41085000	      4107	80002418	402a8c33	sub	x24,x21,x2	 x21:0x8d2a7474  x2:0x0000000f x24=0x8d2a7465
       41095000	      4108	8000241c	00000013	addi	x0,x0,0	  x0:0x00000000
       41105000	      4109	80002420	0142b633	sltu	x12,x5,x20	  x5:0x00000549 x20:0x2704e000 x12=0x00000001
       41115000	      4110	80002424	00720213	addi	x4,x4,7	  x4:0xfffffff6  x4=0xfffffffd
       41125000	      4111	80002428	fe226ae3	bltu	x4,x2,8000241c	  x4:0xfffffffd  x2:0x0000000f
       41135000	      4112	8000242c	fcb94ee3	blt	x18,x11,80002408	 x18:0x0000001c x11:0x00000013
       41145000	      4113	80002430	005580b3	add	x1,x11,x5	 x11:0x00000013  x5:0x00000549  x1=0x0000055c
       41155000	      4114	80002434	00c156b3	srl	x13,x2,x12	  x2:0x0000000f x12:0x00000001 x13=0x00000007
       41165000	      4115	80002438	535c2213	slti	x4,x24,1333	 x24:0x8d2a7465  x4=0x00000001
       41175000	      4116	8000243c	002af033	and	x0,x21,x2	 x21:0x8d2a7474  x2:0x0000000f
       41185000	      4117	80002440	01b55e33	srl	x28,x10,x27	 x10:0x80000000 x27:0x00000000 x28=0x80000000
       41195000	      4118	80002444	53ffb813	sltiu	x16,x31,1343	 x31:0x00000000 x16=0x00000001
       41205000	      4119	80002448	00767633	and	x12,x12,x7	 x12:0x00000001  x7:0x00000000 x12=0x00000000
       41215000	      4120	8000244c	01967663	bgeu	x12,x25,80002458	 x12:0x00000000 x25:0xfffffa3c
       41225000	      4121	80002450	00f3e863	bltu	x7,x15,80002460	  x7:0x00000000 x15:0xffffffff
       41235000	      4122	00000000	00000013	addi	x0,x0,0	  x0:0x00000000
       41245000	      4123	8000245c	00000013	addi	x0,x0,0	  x0:0x00000000
       41255000	      4124	80002460	f4bd5e97	auipc	x29,0xf4bd5	 x29=0x74bd745c
       41265000	      4125	80002464	13148a13	addi	x20,x9,305	  x9:0x80009f38 x20=0x8000a069
       41275000	      4126	80002468	58772213	slti	x4,x14,1415	 x14:0x00000000  x4=0x00000001
       41285000	      4127	8000246c	0446c463	blt	x13,x4,800024b4	 x13:0x00000007  x4:0x00000001
       41295000	      4128	80002470	ae416593	ori	x11,x2,-1308	  x2:0x0000000f x11=0xfffffaef
       41305000	      4129	80002474	350eee13	ori	x28,x29,848	 x29:0x74bd745c x28=0x74bd775c
       41315000	      4130	80002478	0d2a5a97	auipc	x21,0xd2a5	 x21=0x8d2a7474
       41325000	      4131	8000247c	04e01863	bne	x0,x14,800024cc	  x0:0x00000000 x14:0x00000000
       41335000	      4132	80002480	01249393	slli	x7,x9,0x12	  x9:0x80009f38  x7=0x7ce00000
       41345000	      4133	80002484	4161db93	srai	x23,x3,0x16	  x3:0xfffffc50 x23=0xffffffff
       41355000	      4134	80002488	015c7863	bgeu	x24,x21,80002498	 x24:0x8d2a7465 x21:0x8d2a7474
       41365000	      4135	8000248c	011c5cb3	srl	x25,x24,x17	 x24:0x8d2a7465 x17:0x20000000 x25=0x8d2a7465
       41375000	      4136	80002490	b16275b7	lui	x11,0xb1627	 x11=0xb1627000
       41385000	      4137	80002494	05874663	blt	x14,x24,800024e0	 x14:0x00000000 x24:0x8d2a7465
       41395000	      4138	80002498	00554f33	xor	x30,x10,x5	 x10:0x80000000  x5:0x00000549 x30=0x80000549
       41405000	      4139	8000249c	41e05db3	sra	x27,x0,x30	  x0:0x00000000 x30:0x80000549 x27=0x00000000
       41415000	      4140	800024a0	00443a33	sltu	x20,x8,x4	  x8:0x00000000  x4:0x00000001 x20=0x00000001
       41425000	      4141	800024a4	01c8da33	srl	x20,x17,x28	 x17:0x20000000 x28:0x74bd775c x20=0x00000002
       41435000	      4142	800024a8	00b89213	slli	x4,x17,0xb	 x17:0x20000000  x4=0x00000000
       41445000	      4143	800024ac	03527063	bgeu	x4,x21,800024cc	  x4:0x00000000 x21:0x8d2a7474
       41455000	      4144	800024b0	41648133	sub	x2,x9,x22	  x9:0x80009f38 x22:0x00000549  x2=0x800099ef
       41465000	      4145	800024b4	b08680b7	lui	x1,0xb0868	  x1=0xb0868000
       41475000	      4146	800024b8	5bb7a413	slti	x8,x15,1467	 x15:0xffffffff  x8=0x00000001
       41485000	      4147	800024bc	006c4863	blt	x24,x6,800024cc	 x24:0x8d2a7465  x6:0x80009fc4
       41495000	      4148	800024c0	04720263	beq	x4,x7,80002504	  x4:0x00000000  x7:0x7ce00000
       41505000	      4149	800024c4	fa1a4d93	xori	x27,x20,-95	 x20:0x00000002 x27=0xffffffa3
       41515000	      4150	800024c8	ff008937	lui	x18,0xff008	 x18=0xff008000
       41525000	      4151	800024cc	03564a63	blt	x12,x21,80002500	 x12:0x00000000 x21:0x8d2a7474
       41535000	      4152	800024d0	014c75b3	and	x11,x24,x20	 x24:0x8d2a7465 x20:0x00000002 x11=0x00000000
       41545000	      4153	800024d4	0d2ab993	sltiu	x19,x21,210	 x21:0x8d2a7474 x19=0x00000000
       41555000	      4154	800024d8	2d5cf993	andi	x19,x25,725	 x25:0x8d2a7465 x19=0x00000045
       41565000	      4155	800024dc	4008d233	sra	x4,x17,x0	 x17:0x20000000  x0:0x00000000  x4=0x20000000
       41575000	      4156	800024e0	00c0eeb3	or	x29,x1,x12	  x1:0xb0868000 x12:0x00000000 x29=0xb0868000
       41585000	      4157	800024e4	00000013	addi	x0,x0,0	  x0:0x00000000
       41595000	      4158	800024e8	01d1f233	and	x4,x3,x29	  x3:0xfffffc50 x29:0xb0868000  x4=0xb0868000
       41605000	      4159	800024ec	03d8de63	bge	x17,x29,80002528	 x17:0x20000000 x29:0xb0868000
       41615000	      4160	00000000	00000013	addi	x0,x0,0	  x0:0x00000000
       41625000	      4161	80002524	00000013	addi	x0,x0,0	  x0:0x00000000
       41635000	      4162	80002528	c3dbae13	slti	x28,x23,-963	 x23:0xffffffff x28=0x00000000
       41645000	      4163	8000252c	00a71f93	slli	x31,x14,0xa	 x14:0x00000000 x31=0x00000000
       41655000	      4164	80002530	93442113	slti	x2,x8,-1740	  x8:0x00000001  x2=0x00000000
       41665000	      4165	80002534	002f9933	sll	x18,x31,x2	 x31:0x00000000  x2:0x00000000 x18=0x00000000
       41675000	      4166	80002538	2c242293	slti	x5,x8,706	  x8:0x00000001  x5=0x00000001
       41685000	      4167	8000253c	412681b3	sub	x3,x13,x18	 x13:0x00000007 x18:0x00000000  x3=0x00000007
       41695000	      4168	80002540	2704ea37	lui	x20,0x2704e	 x20=0x2704e000
       41705000	      4169	80002544	00059fb3	sll	x31,x11,x0	 x11:0x00000000  x0:0x00000000 x31=0x00000000
       41715000	      4170	80002548	024b9063	bne	x23,x4,80002568	 x23:0xffffffff  x4:0xb0868000
       41725000	      4171	00000000	00000013	addi	x0,x0,0	  x0:0x00000000
       41735000	      4172	80002564	00000013	addi	x0,x0,0	  x0:0x00000000
       41745000	      4173	80002568	016dfd33	and	x26,x27,x22	 x27:0xffffffa3 x22:0x00000549 x26=0x00000501
       41755000	      4174	8000256c	00886263	bltu	x16,x8,80002570	 x16:0x00000001  x8:0x00000001
       41765000	      4175	80002570	01cb42b3	xor	x5,x22,x28	 x22:0x00000549 x28:0x00000000  x5=0x00000549
       41775000	      4176	80002574	0044a083	lw	x1,4(x9)	  x9:0x80009f38  x1=0x80002a5c PA:0x80009f3c
       41785000	      4177	80002578	016f5c93	srli	x25,x30,0x16	 x30:0x80000549 x25=0x00000200
       41795000	      4178	8000257c	01048493	addi	x9,x9,16	  x9:0x80009f38  x9=0x80009f48
       41805000	      4179	80002580	d8bd2c13	slti	x24,x26,-629	 x26:0x00000501 x24=0x00000000
       41815000	      4180	80002584	411d87b3	sub	x15,x27,x17	 x27:0xffffffa3 x17:0x20000000 x15=0xdfffffa3
       41825000	      4181	80002588	010ed3b3	srl	x7,x29,x16	 x29:0xb0868000 x16:0x00000001  x7=0x58434000
       41835000	      4182	8000258c	300f7f93	andi	x31,x30,768	 x30:0x80000549 x31=0x00000100
       41845000	      4183	80002590	00108e13	addi	x28,x1,1	  x1:0x80002a5c x28=0x80002a5d
       41855000	      4184	80002594	000e0e67	jalr	x28,x28,0	 x28:0x80002a5d x28=0x80002594
       41865000	      4185	00000000	00000013	addi	x0,x0,0	  x0:0x00000000
       41875000	      4186	80002a5c	00000013	addi	x0,x0,0	  x0:0x00000000
       41885000	      4187	80002a60	ff600993	addi	x19,x0,-10	  x0:0x00000000 x19=0xfffffff6
       41895000	      4188	80002a64	00ebd2b3	srl	x5,x23,x14	 x23:0xffffffff x14:0x00000000  x5=0xffffffff
       41905000	      4189	80002a68	41e58033	sub	x0,x11,x30	 x11:0x00000000 x30:0x80000549
       41915000	      4190	80002a6c	164f6617	auipc	x12,0x164f6	 x12=0x964f8a68
       41925000	      4191	80002a70	01fedb33	srl	x22,x29,x31	 x29:0xb0868000 x31:0x00000100 x22=0xb0868000
       41935000	      4192	80002a74	947cbc93	sltiu	x25,x25,-1721	 x25:0x00000200 x25=0x00000001
       41945000	      4193	80002a78	00000013	addi	x0,x0,0	  x0:0x00000000
       41955000	      4194	80002a7c	ff42ebb7	lui	x23,0xff42e	 x23=0xff42e000
       41965000	      4195	80002a80	00000013	addi	x0,x0,0	  x0:0x00000000
       41975000	      4196	80002a84	00800413	addi	x8,x0,8	  x0:0x00000000  x8=0x00000008
       41985000	      4197	80002a88	016ba5b3	slt	x11,x23,x22	 x23:0xff42e000 x22:0xb0868000 x11=0x00000000
       41995000	      4198	80002a8c	0189db93	srli	x23,x19,0x18	 x19:0xfffffff6 x23=0x000000ff
       42005000	      4199	80002a90	00698993	addi	x19,x19,6	 x19:0xfffffff6 x19=0xfffffffc
       42015000	      4200	80002a94	40a0dc93	srai	x25,x1,0xa	  x1:0x80002a5c x25=0xffe0000a
       42025000	      4201	80002a98	01b94c33	xor	x24,x18,x27	 x18:0x00000000 x27:0xffffffa3 x24=0xffffffa3
       42035000	      4202	80002a9c	005a1693	slli	x13,x20,0x5	 x20:0x2704e000 x13=0xe09c0000
       42045000	      4203	80002aa0	00199a93	slli	x21,x19,0x1	 x19:0xfffffffc x21=0xfffffff8
       42055000	      4204	80002aa4	1bc52793	slti	x15,x10,444	 x10:0x80000000 x15=0x00000001
       42065000	      4205	80002aa8	5a4c0393	addi	x7,x24,1444	 x24:0xffffffa3  x7=0x00000547
       42075000	      4206	80002aac	8001fc93	andi	x25,x3,-2048	  x3:0x00000007 x25=0x00000000
       42085000	      4207	80002ab0	00bc9213	slli	x4,x25,0xb	 x25:0x00000000  x4=0x00000000
       42095000	      4208	80002ab4	017bd893	srli	x17,x23,0x17	 x23:0x000000ff x17=0x00000000
       42105000	      4209	80002ab8	fc8988e3	beq	x19,x8,80002a88	 x19:0xfffffffc  x8:0x00000008
       42115000	      4210	80002abc	c987e093	ori	x1,x15,-872	 x15:0x00000001  x1=0xfffffc99
       42125000	      4211	80002ac0	020a4463	blt	x20,x0,80002ae8	 x20:0x2704e000  x0:0x00000000
       42135000	      4212	80002ac4	013178b3	and	x17,x2,x19	  x2:0x00000000 x19:0xfffffffc x17=0x00000000
       42145000	      4213	80002ac8	0074d013	srli	x0,x9,0x7	  x9:0x80009f48
       42155000	      4214	80002acc	098c4893	xori	x17,x24,152	 x24:0xffffffa3 x17=0xffffff3b
       42165000	      4215	80002ad0	25e00913	addi	x18,x0,606	  x0:0x00000000 x18=0x0000025e
       42175000	      4216	80002ad4	015c6bb3	or	x23,x24,x21	 x24:0xffffffa3 x21:0xfffffff8 x23=0xfffffffb
       42185000	      4217	80002ad8	0148ebb3	or	x23,x17,x20	 x17:0xffffff3b x20:0x2704e000 x23=0xffffff3b
       42195000	      4218	80002adc	0c920b93	addi	x23,x4,201	  x4:0x00000000 x23=0x000000c9
       42205000	      4219	80002ae0	00000013	addi	x0,x0,0	  x0:0x00000000
       42215000	      4220	80002ae4	01346213	ori	x4,x8,19	  x8:0x00000008  x4=0x0000001b
       42225000	      4221	80002ae8	0346cc63	blt	x13,x20,80002b20	 x13:0xe09c0000 x20:0x2704e000
       42235000	      4222	00000000	00000013	addi	x0,x0,0	  x0:0x00000000
       42245000	      4223	80002b1c	00000013	addi	x0,x0,0	  x0:0x00000000
       42255000	      4224	80002b20	015dd193	srli	x3,x27,0x15	 x27:0xffffffa3  x3=0x000007ff
       42265000	      4225	80002b24	412f8c33	sub	x24,x31,x18	 x31:0x00000100 x18:0x0000025e x24=0xfffffea2
       42275000	      4226	80002b28	2b3c2b97	auipc	x23,0x2b3c2	 x23=0xab3c4b24
       42285000	      4227	80002b2c	001209b3	add	x19,x4,x1	  x4:0x0000001b  x1:0xfffffc99 x19=0xfffffcb4
       42295000	      4228	80002b30	01144eb3	xor	x29,x8,x17	  x8:0x00000008 x17:0xffffff3b x29=0xffffff33
       42305000	      4229	80002b34	00b5c263	blt	x11,x11,80002b38	 x11:0x00000000 x11:0x00000000
       42315000	      4230	80002b38	d9557413	andi	x8,x10,-619	 x10:0x80000000  x8=0x80000000
       42325000	      4231	80002b3c	008f1813	slli	x16,x30,0x8	 x30:0x80000549 x16=0x00054900
       42335000	      4232	80002b40	01975693	srli	x13,x14,0x19	 x14:0x00000000 x13=0x00000000
       42345000	      4233	80002b44	93fbef13	ori	x30,x23,-1729	 x23:0xab3c4b24 x30=0xfffffb3f
       42355000	      4234	80002b48	d1397b93	andi	x23,x18,-749	 x18:0x0000025e x23=0x00000012
       42365000	      4235	80002b4c	001ebcb3	sltu	x25,x29,x1	 x29:0xffffff33  x1:0xfffffc99 x25=0x00000000
       42375000	      4236	80002b50	01a56433	or	x8,x10,x26	 x10:0x80000000 x26:0x00000501  x8=0x80000501
       42385000	      4237	80002b54	d1084d93	xori	x27,x16,-752	 x16:0x00054900 x27=0xfffab410
       42395000	      4238	80002b58	018f9eb3	sll	x29,x31,x24	 x31:0x00000100 x24:0xfffffea2 x29=0x00000400
       42405000	      4239	80002b5c	00000013	addi	x0,x0,0	  x0:0x00000000
       42415000	      4240	80002b60	019bc463	blt	x23,x25,80002b68	 x23:0x00000012 x25:0x00000000
       42425000	      4241	80002b64	4035d213	srai	x4,x11,0x3	 x11:0x00000000  x4=0x00000000
       42435000	      4242	80002b68	01ae5e63	bge	x28,x26,80002b84	 x28:0x80002594 x26:0x00000501
       42445000	      4243	80002b6c	002181b3	add	x3,x3,x2	  x3:0x000007ff  x2:0x00000000  x3=0x000007ff
       42455000	      4244	80002b70	01de9c93	slli	x25,x29,0x1d	 x29:0x00000400 x25=0x00000000
       42465000	      4245	80002b74	00874863	blt	x14,x8,80002b84	 x14:0x00000000  x8:0x80000501
       42475000	      4246	80002b78	01a9b133	sltu	x2,x19,x26	 x19:0xfffffcb4 x26:0x00000501  x2=0x00000000
       42485000	      4247	80002b7c	00aa5693	srli	x13,x20,0xa	 x20:0x2704e000 x13=0x0009c138
       42495000	      4248	80002b80	0132d263	bge	x5,x19,80002b84	  x5:0xffffffff x19:0xfffffcb4
       42505000	      4249	00000000	00000013	addi	x0,x0,0	  x0:0x00000000
       42515000	      4250	80002b80	00000013	addi	x0,x0,0	  x0:0x00000000
       42525000	      4251	80002b84	008dd6b3	srl	x13,x27,x8	 x27:0xfffab410  x8:0x80000501 x13=0x7ffd5a08
       42535000	      4252	80002b88	0044a083	lw	x1,4(x9)	  x9:0x80009f48  x1=0x80002c64 PA:0x80009f4c
       42545000	      4253	80002b8c	005bb1b3	sltu	x3,x23,x5	 x23:0x00000012  x5:0xffffffff  x3=0x00000001
       42555000	      4254	80002b90	910e68b7	lui	x17,0x910e6	 x17=0x910e6000
       42565000	      4255	80002b94	f23b3813	sltiu	x16,x22,-221	 x22:0xb0868000 x16=0x00000001
       42575000	      4256	80002b98	41e382b3	sub	x5,x7,x30	  x7:0x00000547 x30:0xfffffb3f  x5=0x00000a08
       42585000	      4257	80002b9c	03448493	addi	x9,x9,52	  x9:0x80009f48  x9=0x80009f7c
       42595000	      4258	80002ba0	009e5913	srli	x18,x28,0x9	 x28:0x80002594 x18=0x00400012
       42605000	      4259	80002ba4	0167adb3	slt	x27,x15,x22	 x15:0x00000001 x22:0xb0868000 x27=0x00000000
       42615000	      4260	80002ba8	00008913	addi	x18,x1,0	  x1:0x80002c64 x18=0x80002c64
       42625000	      4261	80002bac	00090967	jalr	x18,x18,0	 x18:0x80002c64 x18=0x80002bac
       42635000	      4262	00000000	00000013	addi	x0,x0,0	  x0:0x00000000
       42645000	      4263	80002c64	00000013	addi	x0,x0,0	  x0:0x00000000
       42655000	      4264	80002c68	ff900393	addi	x7,x0,-7	  x0:0x00000000  x7=0xfffffff9
       42665000	      4265	80002c6c	14e7acb7	lui	x25,0x14e7a	 x25=0x14e7a000
       42675000	      4266	80002c70	40c25093	srai	x1,x4,0xc	  x4:0x00000000  x1=0x00000000
       42685000	      4267	80002c74	00406833	or	x16,x0,x4	  x0:0x00000000  x4:0x00000000 x16=0x00000000
       42695000	      4268	80002c78	01368a33	add	x20,x13,x19	 x13:0x7ffd5a08 x19:0xfffffcb4 x20=0x7ffd56bc
       42705000	      4269	80002c7c	00500993	addi	x19,x0,5	  x0:0x00000000 x19=0x00000005
       42715000	      4270	80002c80	77130f13	addi	x30,x6,1905	  x6:0x80009fc4 x30=0x8000a735
       42725000	      4271	80002c84	40155db3	sra	x27,x10,x1	 x10:0x80000000  x1:0x00000000 x27=0x80000000
       42735000	      4272	80002c88	eb68c093	xori	x1,x17,-330	 x17:0x910e6000  x1=0x6ef19eb6
       42745000	      4273	80002c8c	6e2ef437	lui	x8,0x6e2ef	  x8=0x6e2ef000
       42755000	      4274	80002c90	00938393	addi	x7,x7,9	  x7:0xfffffff9  x7=0x00000002
       42765000	      4275	80002c94	011ecb33	xor	x22,x29,x17	 x29:0x00000400 x17:0x910e6000 x22=0x910e6400
       42775000	      4276	80002c98	00400613	addi	x12,x0,4	  x0:0x00000000 x12=0x00000004
       42785000	      4277	80002c9c	00000013	addi	x0,x0,0	  x0:0x00000000
       42795000	      4278	80002ca0	00400893	addi	x17,x0,4	  x0:0x00000000 x17=0x00000004
       42805000	      4279	80002ca4	00000013	addi	x0,x0,0	  x0:0x00000000
       42815000	      4280	80002ca8	019196b3	sll	x13,x3,x25	  x3:0x00000001 x25:0x14e7a000 x13=0x00000001
       42825000	      4281	80002cac	b6a98097	auipc	x1,0xb6a98	  x1=0x36a9aca8
       42835000	      4282	80002cb0	fff60613	addi	x12,x12,-1	 x12:0x00000004 x12=0x00000003
       42845000	      4283	80002cb4	8bf43a93	sltiu	x21,x8,-1857	  x8:0x6e2ef000 x21=0x00000001
       42855000	      4284	80002cb8	001c71b3	and	x3,x24,x1	 x24:0xfffffea2  x1:0x36a9aca8  x3=0x36a9aca0
       42865000	      4285	80002cbc	00644433	xor	x8,x8,x6	  x8:0x6e2ef000  x6:0x80009fc4  x8=0xee2e6fc4
       42875000	      4286	80002cc0	ff1672e3	bgeu	x12,x17,80002ca4	 x12:0x00000003 x17:0x00000004
       42885000	      4287	80002cc4	01c20033	add	x0,x4,x28	  x4:0x00000000 x28:0x80002594
       42895000	      4288	80002cc8	ce826193	ori	x3,x4,-792	  x4:0x00000000  x3=0xfffffce8
       42905000	      4289	80002ccc	fb33cee3	blt	x7,x19,80002c88	  x7:0x00000002 x19:0x00000005
       42915000	      4290	00000000	00000013	addi	x0,x0,0	  x0:0x00000000
       42925000	      4291	80002c84	00000013	addi	x0,x0,0	  x0:0x00000000
       42935000	      4292	80002c88	eb68c093	xori	x1,x17,-330	 x17:0x00000004  x1=0xfffffeb2
       42945000	      4293	80002c8c	6e2ef437	lui	x8,0x6e2ef	  x8=0x6e2ef000
       42955000	      4294	80002c90	00938393	addi	x7,x7,9	  x7:0x00000002  x7=0x0000000b
       42965000	      4295	80002c94	011ecb33	xor	x22,x29,x17	 x29:0x00000400 x17:0x00000004 x22=0x00000404
       42975000	      4296	80002c98	00400613	addi	x12,x0,4	  x0:0x00000000 x12=0x00000004
       42985000	      4297	80002c9c	00000013	addi	x0,x0,0	  x0:0x00000000
       42995000	      4298	80002ca0	00400893	addi	x17,x0,4	  x0:0x00000000 x17=0x00000004
       43005000	      4299	80002ca4	00000013	addi	x0,x0,0	  x0:0x00000000
       43015000	      4300	80002ca8	019196b3	sll	x13,x3,x25	  x3:0xfffffce8 x25:0x14e7a000 x13=0xfffffce8
       43025000	      4301	80002cac	b6a98097	auipc	x1,0xb6a98	  x1=0x36a9aca8
       43035000	      4302	80002cb0	fff60613	addi	x12,x12,-1	 x12:0x00000004 x12=0x00000003
       43045000	      4303	80002cb4	8bf43a93	sltiu	x21,x8,-1857	  x8:0x6e2ef000 x21=0x00000001
       43055000	      4304	80002cb8	001c71b3	and	x3,x24,x1	 x24:0xfffffea2  x1:0x36a9aca8  x3=0x36a9aca0
       43065000	      4305	80002cbc	00644433	xor	x8,x8,x6	  x8:0x6e2ef000  x6:0x80009fc4  x8=0xee2e6fc4
       43075000	      4306	80002cc0	ff1672e3	bgeu	x12,x17,80002ca4	 x12:0x00000003 x17:0x00000004
       43085000	      4307	80002cc4	01c20033	add	x0,x4,x28	  x4:0x00000000 x28:0x80002594
       43095000	      4308	80002cc8	ce826193	ori	x3,x4,-792	  x4:0x00000000  x3=0xfffffce8
       43105000	      4309	80002ccc	fb33cee3	blt	x7,x19,80002c88	  x7:0x0000000b x19:0x00000005
       43115000	      4310	80002cd0	412082b3	sub	x5,x1,x18	  x1:0x36a9aca8 x18:0x80002bac  x5=0xb6a980fc
       43125000	      4311	80002cd4	ffe00193	addi	x3,x0,-2	  x0:0x00000000  x3=0xfffffffe
       43135000	      4312	80002cd8	b27c0417	auipc	x8,0xb27c0	  x8=0x327c2cd4
       43145000	      4313	80002cdc	ea4efe93	andi	x29,x29,-348	 x29:0x00000400 x29=0x00000400
       43155000	      4314	80002ce0	41b05b93	srai	x23,x0,0x1b	  x0:0x00000000 x23=0x00000000
       43165000	      4315	80002ce4	701d2113	slti	x2,x26,1793	 x26:0x00000501  x2=0x00000001
       43175000	      4316	80002ce8	578a0b13	addi	x22,x20,1400	 x20:0x7ffd56bc x22=0x7ffd5c34
       43185000	      4317	80002cec	b958ef93	ori	x31,x17,-1131	 x17:0x00000004 x31=0xfffffb95
       43195000	      4318	80002cf0	00100693	addi	x13,x0,1	  x0:0x00000000 x13=0x00000001
       43205000	      4319	80002cf4	5725e713	ori	x14,x11,1394	 x11:0x00000000 x14=0x00000572
       43215000	      4320	80002cf8	3c937f13	andi	x30,x6,969	  x6:0x80009fc4 x30=0x000003c0
       43225000	      4321	80002cfc	3b124893	xori	x17,x4,945	  x4:0x00000000 x17=0x000003b1
       43235000	      4322	80002d00	001870b3	and	x1,x16,x1	 x16:0x00000000  x1:0x36a9aca8  x1=0x00000000
       43245000	      4323	80002d04	01a2f5b3	and	x11,x5,x26	  x5:0xb6a980fc x26:0x00000501 x11=0x00000000
       43255000	      4324	80002d08	bf48fb93	andi	x23,x17,-1036	 x17:0x000003b1 x23=0x000003b0
       43265000	      4325	80002d0c	00000013	addi	x0,x0,0	  x0:0x00000000
       43275000	      4326	80002d10	017b9413	slli	x8,x23,0x17	 x23:0x000003b0  x8=0xd8000000
       43285000	      4327	80002d14	00719593	slli	x11,x3,0x7	  x3:0xfffffffe x11=0xffffff00
       43295000	      4328	80002d18	40b68433	sub	x8,x13,x11	 x13:0x00000001 x11:0xffffff00  x8=0x00000101
       43305000	      4329	80002d1c	de22e893	ori	x17,x5,-542	  x5:0xb6a980fc x17=0xfffffdfe
       43315000	      4330	80002d20	005f7933	and	x18,x30,x5	 x30:0x000003c0  x5:0xb6a980fc x18=0x000000c0
       43325000	      4331	80002d24	01f993b3	sll	x7,x19,x31	 x19:0x00000005 x31:0xfffffb95  x7=0x00a00000
       43335000	      4332	80002d28	c222a213	slti	x4,x5,-990	  x5:0xb6a980fc  x4=0x00000001
       43345000	      4333	80002d2c	aeb44393	xori	x7,x8,-1301	  x8:0x00000101  x7=0xfffffbea
       43355000	      4334	80002d30	00318193	addi	x3,x3,3	  x3:0xfffffffe  x3=0x00000001
       43365000	      4335	80002d34	00000013	addi	x0,x0,0	  x0:0x00000000
       43375000	      4336	80002d38	fcd1cae3	blt	x3,x13,80002d0c	  x3:0x00000001 x13:0x00000001
       43385000	      4337	80002d3c	ec9fcf93	xori	x31,x31,-311	 x31:0xfffffb95 x31=0x0000055c
       43395000	      4338	80002d40	04118863	beq	x3,x1,80002d90	  x3:0x00000001  x1:0x00000000
       43405000	      4339	80002d44	0022dfb3	srl	x31,x5,x2	  x5:0xb6a980fc  x2:0x00000001 x31=0x5b54c07e
       43415000	      4340	80002d48	011f1d93	slli	x27,x30,0x11	 x30:0x000003c0 x27=0x07800000
       43425000	      4341	80002d4c	02d40663	beq	x8,x13,80002d78	  x8:0x00000101 x13:0x00000001
       43435000	      4342	80002d50	a9c3ed13	ori	x26,x7,-1380	  x7:0xfffffbea x26=0xfffffbfe
       43445000	      4343	80002d54	016b1893	slli	x17,x22,0x16	 x22:0x7ffd5c34 x17=0x0d000000
       43455000	      4344	80002d58	04971863	bne	x14,x9,80002da8	 x14:0x00000572  x9:0x80009f7c
       43465000	      4345	00000000	00000013	addi	x0,x0,0	  x0:0x00000000
       43475000	      4346	80002da4	00000013	addi	x0,x0,0	  x0:0x00000000
       43485000	      4347	80002da8	0076ec63	bltu	x13,x7,80002dc0	 x13:0x00000001  x7:0xfffffbea
       43495000	      4348	00000000	00000013	addi	x0,x0,0	  x0:0x00000000
       43505000	      4349	80002dbc	00000013	addi	x0,x0,0	  x0:0x00000000
       43515000	      4350	80002dc0	39777693	andi	x13,x14,919	 x14:0x00000572 x13=0x00000112
       43525000	      4351	80002dc4	015b7f33	and	x30,x22,x21	 x22:0x7ffd5c34 x21:0x00000001 x30=0x00000000
       43535000	      4352	80002dc8	a87f2837	lui	x16,0xa87f2	 x16=0xa87f2000
       43545000	      4353	80002dcc	013a6863	bltu	x20,x19,80002ddc	 x20:0x7ffd56bc x19:0x00000005
       43555000	      4354	80002dd0	019908b3	add	x17,x18,x25	 x18:0x000000c0 x25:0x14e7a000 x17=0x14e7a0c0
       43565000	      4355	80002dd4	fa0b6013	ori	x0,x22,-96	 x22:0x7ffd5c34
       43575000	      4356	80002dd8	00383cb3	sltu	x25,x16,x3	 x16:0xa87f2000  x3:0x00000001 x25=0x00000000
       43585000	      4357	80002ddc	37dce413	ori	x8,x25,893	 x25:0x00000000  x8=0x0000037d
       43595000	      4358	80002de0	00c490b3	sll	x1,x9,x12	  x9:0x80009f7c x12:0x00000003  x1=0x0004fbe0
       43605000	      4359	80002de4	014ac033	xor	x0,x21,x20	 x21:0x00000001 x20:0x7ffd56bc
       43615000	      4360	80002de8	01e19633	sll	x12,x3,x30	  x3:0x00000001 x30:0x00000000 x12=0x00000001
       43625000	      4361	80002dec	2e4b0913	addi	x18,x22,740	 x22:0x7ffd5c34 x18=0x7ffd5f18
       43635000	      4362	80002df0	3fbc8993	addi	x19,x25,1019	 x25:0x00000000 x19=0x000003fb
       43645000	      4363	80002df4	40335a33	sra	x20,x6,x3	  x6:0x80009fc4  x3:0x00000001 x20=0xc0004fe2
       43655000	      4364	80002df8	4050d633	sra	x12,x1,x5	  x1:0x0004fbe0  x5:0xb6a980fc x12=0x00000000
       43665000	      4365	80002dfc	01cc0b33	add	x22,x24,x28	 x24:0xfffffea2 x28:0x80002594 x22=0x80002436
       43675000	      4366	80002e00	00560933	add	x18,x12,x5	 x12:0x00000000  x5:0xb6a980fc x18=0xb6a980fc
       43685000	      4367	80002e04	402983b3	sub	x7,x19,x2	 x19:0x000003fb  x2:0x00000001  x7=0x000003fa
       43695000	      4368	80002e08	007729b3	slt	x19,x14,x7	 x14:0x00000572  x7:0x000003fa x19=0x00000000
       43705000	      4369	80002e0c	9b51c393	xori	x7,x3,-1611	  x3:0x00000001  x7=0xfffff9b4
       43715000	      4370	80002e10	042a4863	blt	x20,x2,80002e60	 x20:0xc0004fe2  x2:0x00000001
       43725000	      4371	00000000	00000013	addi	x0,x0,0	  x0:0x00000000
       43735000	      4372	80002e5c	00000013	addi	x0,x0,0	  x0:0x00000000
       43745000	      4373	80002e60	018597b3	sll	x15,x11,x24	 x11:0xffffff00 x24:0xfffffea2 x15=0xfffffc00
       43755000	      4374	80002e64	60613037	lui	x0,0x60613	
       43765000	      4375	80002e68	0137f663	bgeu	x15,x19,80002e74	 x15:0xfffffc00 x19:0x00000000
       43775000	      4376	00000000	00000013	addi	x0,x0,0	  x0:0x00000000
       43785000	      4377	80002e70	00000013	addi	x0,x0,0	  x0:0x00000000
       43795000	      4378	80002e74	408fd2b3	sra	x5,x31,x8	 x31:0x5b54c07e  x8:0x0000037d  x5=0x00000002
       43805000	      4379	80002e78	00807c63	bgeu	x0,x8,80002e90	  x0:0x00000000  x8:0x0000037d
       43815000	      4380	80002e7c	00000013	addi	x0,x0,0	  x0:0x00000000
       43825000	      4381	80002e80	3d48fd93	andi	x27,x17,980	 x17:0x14e7a0c0 x27=0x000000c0
       43835000	      4382	80002e84	01e01393	slli	x7,x0,0x1e	  x0:0x00000000  x7=0x00000000
       43845000	      4383	80002e88	ce420893	addi	x17,x4,-796	  x4:0x00000001 x17=0xfffffce5
       43855000	      4384	80002e8c	01a538b3	sltu	x17,x10,x26	 x10:0x80000000 x26:0xfffffbfe x17=0x00000001
       43865000	      4385	80002e90	0198d6b3	srl	x13,x17,x25	 x17:0x00000001 x25:0x00000000 x13=0x00000001
       43875000	      4386	80002e94	501b2113	slti	x2,x22,1281	 x22:0x80002436  x2=0x00000001
       43885000	      4387	80002e98	400652b3	sra	x5,x12,x0	 x12:0x00000000  x0:0x00000000  x5=0x00000000
       43895000	      4388	80002e9c	01ce0e33	add	x28,x28,x28	 x28:0x80002594 x28:0x80002594 x28=0x00004b28
       43905000	      4389	80002ea0	008831b3	sltu	x3,x16,x8	 x16:0xa87f2000  x8:0x0000037d  x3=0x00000000
       43915000	      4390	80002ea4	005fed33	or	x26,x31,x5	 x31:0x5b54c07e  x5:0x00000000 x26=0x5b54c07e
       43925000	      4391	80002ea8	003d7133	and	x2,x26,x3	 x26:0x5b54c07e  x3:0x00000000  x2=0x00000000
       43935000	      4392	80002eac	00f2f1b3	and	x3,x5,x15	  x5:0x00000000 x15:0xfffffc00  x3=0x00000000
       43945000	      4393	80002eb0	7786e113	ori	x2,x13,1912	 x13:0x00000001  x2=0x00000779
       43955000	      4394	80002eb4	01f4e663	bltu	x9,x31,80002ec0	  x9:0x80009f7c x31:0x5b54c07e
       43965000	      4395	80002eb8	0033cbb3	xor	x23,x7,x3	  x7:0x00000000  x3:0x00000000 x23=0x00000000
       43975000	      4396	80002ebc	e3ab8893	addi	x17,x23,-454	 x23:0x00000000 x17=0xfffffe3a
       43985000	      4397	80002ec0	01cc7c63	bgeu	x24,x28,80002ed8	 x24:0xfffffea2 x28:0x00004b28
       43995000	      4398	00000000	00000013	addi	x0,x0,0	  x0:0x00000000
       44005000	      4399	80002ed4	00000013	addi	x0,x0,0	  x0:0x00000000
       44015000	      4400	80002ed8	01d96e33	or	x28,x18,x29	 x18:0xb6a980fc x29:0x00000400 x28=0xb6a984fc
       44025000	      4401	80002edc	030ef863	bgeu	x29,x16,80002f0c	 x29:0x00000400 x16:0xa87f2000
       44035000	      4402	80002ee0	0474c863	blt	x9,x7,80002f30	  x9:0x80009f7c  x7:0x00000000
       44045000	      4403	00000000	00000013	addi	x0,x0,0	  x0:0x00000000
       44055000	      4404	80002f2c	00000013	addi	x0,x0,0	  x0:0x00000000
       44065000	      4405	80002f30	c5bca893	slti	x17,x25,-933	 x25:0x00000000 x17=0x00000000
       44075000	      4406	80002f34	003fc7b3	xor	x15,x31,x3	 x31:0x5b54c07e  x3:0x00000000 x15=0x5b54c07e
       44085000	      4407	80002f38	00d2d9b3	srl	x19,x5,x13	  x5:0x00000000 x13:0x00000001 x19=0x00000000
       44095000	      4408	80002f3c	4192df93	srai	x31,x5,0x19	  x5:0x00000000 x31=0x00000000
       44105000	      4409	80002f40	4092dc33	sra	x24,x5,x9	  x5:0x00000000  x9:0x80009f7c x24=0x00000000
       44115000	      4410	80002f44	01127c33	and	x24,x4,x17	  x4:0x00000001 x17:0x00000000 x24=0x00000000
       44125000	      4411	80002f48	00000013	addi	x0,x0,0	  x0:0x00000000
       44135000	      4412	80002f4c	0044a083	lw	x1,4(x9)	  x9:0x80009f7c  x1=0x8000152c PA:0x80009f80
       44145000	      4413	80002f50	01807fb3	and	x31,x0,x24	  x0:0x00000000 x24:0x00000000 x31=0x00000000
       44155000	      4414	80002f54	77673f13	sltiu	x30,x14,1910	 x14:0x00000572 x30=0x00000001
       44165000	      4415	80002f58	41a65593	srai	x11,x12,0x1a	 x12:0x00000000 x11=0x00000000
       44175000	      4416	80002f5c	00e8abb3	slt	x23,x17,x14	 x17:0x00000000 x14:0x00000572 x23=0x00000001
       44185000	      4417	80002f60	003af033	and	x0,x21,x3	 x21:0x00000001  x3:0x00000000
       44195000	      4418	80002f64	00848493	addi	x9,x9,8	  x9:0x80009f7c  x9=0x80009f84
       44205000	      4419	80002f68	ed05a9b7	lui	x19,0xed05a	 x19=0xed05a000
       44215000	      4420	80002f6c	00108d13	addi	x26,x1,1	  x1:0x8000152c x26=0x8000152d
       44225000	      4421	80002f70	000d0d67	jalr	x26,x26,0	 x26:0x8000152d x26=0x80002f70
       44235000	      4422	00000000	00000013	addi	x0,x0,0	  x0:0x00000000
       44245000	      4423	8000152c	00000013	addi	x0,x0,0	  x0:0x00000000
       44255000	      4424	80001530	00ccce63	blt	x25,x12,8000154c	 x25:0x00000000 x12:0x00000000
       44265000	      4425	80001534	01878b33	add	x22,x15,x24	 x15:0x5b54c07e x24:0x00000000 x22=0x5b54c07e
       44275000	      4426	80001538	9f2b7d13	andi	x26,x22,-1550	 x22:0x5b54c07e x26=0x5b54c072
       44285000	      4427	8000153c	00f99c93	slli	x25,x19,0xf	 x19:0xed05a000 x25=0xd0000000
       44295000	      4428	80001540	01dd4463	blt	x26,x29,80001548	 x26:0x5b54c072 x29:0x00000400
       44305000	      4429	80001544	045ac263	blt	x21,x5,80001588	 x21:0x00000001  x5:0x00000000
       44315000	      4430	80001548	01b062b3	or	x5,x0,x27	  x0:0x00000000 x27:0x000000c0  x5=0x000000c0
       44325000	      4431	8000154c	419d5993	srai	x19,x26,0x19	 x26:0x5b54c072 x19=0x0000002d
       44335000	      4432	80001550	40d35c93	srai	x25,x6,0xd	  x6:0x80009fc4 x25=0xfffc0004
       44345000	      4433	80001554	5aecac93	slti	x25,x25,1454	 x25:0xfffc0004 x25=0x00000001
       44355000	      4434	80001558	00688233	add	x4,x17,x6	 x17:0x00000000  x6:0x80009fc4  x4=0x80009fc4
       44365000	      4435	8000155c	411c5f93	srai	x31,x24,0x11	 x24:0x00000000 x31=0x00000000
       44375000	      4436	80001560	01ebe0b3	or	x1,x23,x30	 x23:0x00000001 x30:0x00000001  x1=0x00000001
       44385000	      4437	80001564	28fffeb7	lui	x29,0x28fff	 x29=0x28fff000
       44395000	      4438	80001568	00d9d793	srli	x15,x19,0xd	 x19:0x0000002d x15=0x00000000
       44405000	      4439	8000156c	620e6d93	ori	x27,x28,1568	 x28:0xb6a984fc x27=0xb6a986fc
       44415000	      4440	80001570	41158133	sub	x2,x11,x17	 x11:0x00000000 x17:0x00000000  x2=0x00000000
       44425000	      4441	80001574	05410863	beq	x2,x20,800015c4	  x2:0x00000000 x20:0xc0004fe2
       44435000	      4442	80001578	6c91f3b7	lui	x7,0x6c91f	  x7=0x6c91f000
       44445000	      4443	8000157c	010b0863	beq	x22,x16,8000158c	 x22:0x5b54c07e x16:0xa87f2000
       44455000	      4444	80001580	0064ceb3	xor	x29,x9,x6	  x9:0x80009f84  x6:0x80009fc4 x29=0x00000040
       44465000	      4445	80001584	f899eb93	ori	x23,x19,-119	 x19:0x0000002d x23=0xffffffad
       44475000	      4446	80001588	3aa3a0b7	lui	x1,0x3aa3a	  x1=0x3aa3a000
       44485000	      4447	8000158c	03617e63	bgeu	x2,x22,800015c8	  x2:0x00000000 x22:0x5b54c07e
       44495000	      4448	80001590	00eba5b3	slt	x11,x23,x14	 x23:0xffffffad x14:0x00000572 x11=0x00000001
       44505000	      4449	80001594	41330ab3	sub	x21,x6,x19	  x6:0x80009fc4 x19:0x0000002d x21=0x80009f97
       44515000	      4450	80001598	00b09193	slli	x3,x1,0xb	  x1:0x3aa3a000  x3=0x1d000000
       44525000	      4451	8000159c	01eebf33	sltu	x30,x29,x30	 x29:0x00000040 x30:0x00000001 x30=0x00000000
       44535000	      4452	800015a0	bf580a13	addi	x20,x16,-1035	 x16:0xa87f2000 x20=0xa87f1bf5
       44545000	      4453	800015a4	f3b56713	ori	x14,x10,-197	 x10:0x80000000 x14=0xffffff3b
       44555000	      4454	800015a8	00000013	addi	x0,x0,0	  x0:0x00000000
       44565000	      4455	800015ac	01d35b93	srli	x23,x6,0x1d	  x6:0x80009fc4 x23=0x00000004
       44575000	      4456	800015b0	00ce1e13	slli	x28,x28,0xc	 x28:0xb6a984fc x28=0x984fc000
       44585000	      4457	800015b4	0ffc7a93	andi	x21,x24,255	 x24:0x00000000 x21=0x00000000
       44595000	      4458	800015b8	04ee0263	beq	x28,x14,800015fc	 x28:0x984fc000 x14:0xffffff3b
       44605000	      4459	800015bc	f013ac93	slti	x25,x7,-255	  x7:0x6c91f000 x25=0x00000000
       44615000	      4460	800015c0	01e63733	sltu	x14,x12,x30	 x12:0x00000000 x30:0x00000000 x14=0x00000000
       44625000	      4461	800015c4	97b0f417	auipc	x8,0x97b0f	  x8=0x17b105c0
       44635000	      4462	800015c8	40f58a33	sub	x20,x11,x15	 x11:0x00000001 x15:0x00000000 x20=0x00000001
       44645000	      4463	800015cc	00e39113	slli	x2,x7,0xe	  x7:0x6c91f000  x2=0x7c000000
       44655000	      4464	800015d0	00207c33	and	x24,x0,x2	  x0:0x00000000  x2:0x7c000000 x24=0x00000000
       44665000	      4465	800015d4	0058c933	xor	x18,x17,x5	 x17:0x00000000  x5:0x000000c0 x18=0x000000c0
       44675000	      4466	800015d8	00d36e63	bltu	x6,x13,800015f4	  x6:0x80009fc4 x13:0x00000001
       44685000	      4467	800015dc	00000013	addi	x0,x0,0	  x0:0x00000000
       44695000	      4468	800015e0	00f970b3	and	x1,x18,x15	 x18:0x000000c0 x15:0x00000000  x1=0x00000000
       44705000	      4469	800015e4	4039d7b3	sra	x15,x19,x3	 x19:0x0000002d  x3:0x1d000000 x15=0x0000002d
       44715000	      4470	800015e8	00485d33	srl	x26,x16,x4	 x16:0xa87f2000  x4:0x80009fc4 x26=0x0a87f200
       44725000	      4471	800015ec	01208d33	add	x26,x1,x18	  x1:0x00000000 x18:0x000000c0 x26=0x000000c0
       44735000	      4472	800015f0	01a65a93	srli	x21,x12,0x1a	 x12:0x00000000 x21=0x00000000
       44745000	      4473	800015f4	00000013	addi	x0,x0,0	  x0:0x00000000
       44755000	      4474	800015f8	0127af33	slt	x30,x15,x18	 x15:0x0000002d x18:0x000000c0 x30=0x00000001
       44765000	      4475	800015fc	013a7c63	bgeu	x20,x19,80001614	 x20:0x00000001 x19:0x0000002d
       44775000	      4476	80001600	0128d863	bge	x17,x18,80001610	 x17:0x00000000 x18:0x000000c0
       44785000	      4477	80001604	40f80ab3	sub	x21,x16,x15	 x16:0xa87f2000 x15:0x0000002d x21=0xa87f1fd3
       44795000	      4478	80001608	035de863	bltu	x27,x21,80001638	 x27:0xb6a986fc x21:0xa87f1fd3
       44805000	      4479	8000160c	01d97663	bgeu	x18,x29,80001618	 x18:0x000000c0 x29:0x00000040
       44815000	      4480	00000000	00000013	addi	x0,x0,0	  x0:0x00000000
       44825000	      4481	80001614	00000013	addi	x0,x0,0	  x0:0x00000000
       44835000	      4482	80001618	41768cb3	sub	x25,x13,x23	 x13:0x00000001 x23:0x00000004 x25=0xfffffffd
       44845000	      4483	8000161c	fbc71637	lui	x12,0xfbc71	 x12=0xfbc71000
       44855000	      4484	80001620	008e9433	sll	x8,x29,x8	 x29:0x00000040  x8:0x17b105c0  x8=0x00000040
       44865000	      4485	80001624	00000013	addi	x0,x0,0	  x0:0x00000000
       44875000	      4486	80001628	4174d933	sra	x18,x9,x23	  x9:0x80009f84 x23:0x00000004 x18=0xf80009f8
       44885000	      4487	8000162c	01ec43b3	xor	x7,x24,x30	 x24:0x00000000 x30:0x00000001  x7=0x00000001
       44895000	      4488	80001630	00975813	srli	x16,x14,0x9	 x14:0x00000000 x16=0x00000000
       44905000	      4489	80001634	00b1ecb3	or	x25,x3,x11	  x3:0x1d000000 x11:0x00000001 x25=0x1d000001
       44915000	      4490	80001638	01e05813	srli	x16,x0,0x1e	  x0:0x00000000 x16=0x00000000
       44925000	      4491	8000163c	0118d613	srli	x12,x17,0x11	 x17:0x00000000 x12=0x00000000
       44935000	      4492	80001640	0306dc63	bge	x13,x16,80001678	 x13:0x00000001 x16:0x00000000
       44945000	      4493	00000000	00000013	addi	x0,x0,0	  x0:0x00000000
       44955000	      4494	80001674	00000013	addi	x0,x0,0	  x0:0x00000000
       44965000	      4495	80001678	941b0193	addi	x3,x22,-1727	 x22:0x5b54c07e  x3=0x5b54b9bf
       44975000	      4496	8000167c	029e6463	bltu	x28,x9,800016a4	 x28:0x984fc000  x9:0x80009f84
       44985000	      4497	80001680	0796fe63	bgeu	x13,x25,800016fc	 x13:0x00000001 x25:0x1d000001
       44995000	      4498	80001684	47f1bf13	sltiu	x30,x3,1151	  x3:0x5b54b9bf x30=0x00000000
       45005000	      4499	80001688	01c647b3	xor	x15,x12,x28	 x12:0x00000000 x28:0x984fc000 x15=0x984fc000
       45015000	      4500	8000168c	20f96413	ori	x8,x18,527	 x18:0xf80009f8  x8=0xf8000bff
       45025000	      4501	80001690	10ffbb93	sltiu	x23,x31,271	 x31:0x00000000 x23=0x00000001
       45035000	      4502	80001694	562dbe13	sltiu	x28,x27,1378	 x27:0xb6a986fc x28=0x00000000
       45045000	      4503	80001698	01366463	bltu	x12,x19,800016a0	 x12:0x00000000 x19:0x0000002d
       45055000	      4504	00000000	00000013	addi	x0,x0,0	  x0:0x00000000
       45065000	      4505	8000169c	00000013	addi	x0,x0,0	  x0:0x00000000
       45075000	      4506	800016a0	063f6e63	bltu	x30,x3,8000171c	 x30:0x00000000  x3:0x5b54b9bf
       45085000	      4507	00000000	00000013	addi	x0,x0,0	  x0:0x00000000
       45095000	      4508	80001718	00000013	addi	x0,x0,0	  x0:0x00000000
       45105000	      4509	8000171c	1dd87093	andi	x1,x16,477	 x16:0x00000000  x1=0x00000000
       45115000	      4510	80001720	02567c63	bgeu	x12,x5,80001758	 x12:0x00000000  x5:0x000000c0
       45125000	      4511	80001724	416458b3	sra	x17,x8,x22	  x8:0xf8000bff x22:0x5b54c07e x17=0xffffffff
       45135000	      4512	80001728	0da7e013	ori	x0,x15,218	 x15:0x984fc000
       45145000	      4513	8000172c	f9a6e913	ori	x18,x13,-102	 x13:0x00000001 x18=0xffffff9b
       45155000	      4514	80001730	00014d33	xor	x26,x2,x0	  x2:0x7c000000  x0:0x00000000 x26=0x7c000000
       45165000	      4515	80001734	00b35663	bge	x6,x11,80001740	  x6:0x80009fc4 x11:0x00000001
       45175000	      4516	80001738	01ff3433	sltu	x8,x30,x31	 x30:0x00000000 x31:0x00000000  x8=0x00000000
       45185000	      4517	8000173c	00992033	slt	x0,x18,x9	 x18:0xffffff9b  x9:0x80009f84
       45195000	      4518	80001740	53f46137	lui	x2,0x53f46	  x2=0x53f46000
       45205000	      4519	80001744	00a4dcb3	srl	x25,x9,x10	  x9:0x80009f84 x10:0x80000000 x25=0x80009f84
       45215000	      4520	80001748	00000013	addi	x0,x0,0	  x0:0x00000000
       45225000	      4521	8000174c	78723013	sltiu	x0,x4,1927	  x4:0x80009fc4
       45235000	      4522	80001750	41cc0d33	sub	x26,x24,x28	 x24:0x00000000 x28:0x00000000 x26=0x00000000
       45245000	      4523	80001754	039e5863	bge	x28,x25,80001784	 x28:0x00000000 x25:0x80009f84
       45255000	      4524	00000000	00000013	addi	x0,x0,0	  x0:0x00000000
       45265000	      4525	80001780	00000013	addi	x0,x0,0	  x0:0x00000000
       45275000	      4526	80001784	705c6a13	ori	x20,x24,1797	 x24:0x00000000 x20=0x00000705
       45285000	      4527	80001788	00faa433	slt	x8,x21,x15	 x21:0xa87f1fd3 x15:0x984fc000  x8=0x00000000
       45295000	      4528	8000178c	413b5233	sra	x4,x22,x19	 x22:0x5b54c07e x19:0x0000002d  x4=0x0002daa6
       45305000	      4529	80001790	01dbd663	bge	x23,x29,8000179c	 x23:0x00000001 x29:0x00000040
       45315000	      4530	80001794	8b8a7413	andi	x8,x20,-1864	 x20:0x00000705  x8=0x00000000
       45325000	      4531	80001798	7fcf2f13	slti	x30,x30,2044	 x30:0x00000000 x30=0x00000001
       45335000	      4532	8000179c	3a778713	addi	x14,x15,935	 x15:0x984fc000 x14=0x984fc3a7
       45345000	      4533	800017a0	e9b7a293	slti	x5,x15,-357	 x15:0x984fc000  x5=0x00000001
       45355000	      4534	800017a4	40730d33	sub	x26,x6,x7	  x6:0x80009fc4  x7:0x00000001 x26=0x80009fc3
       45365000	      4535	800017a8	00000013	addi	x0,x0,0	  x0:0x00000000
       45375000	      4536	800017ac	03455863	bge	x10,x20,800017dc	 x10:0x80000000 x20:0x00000705
       45385000	      4537	800017b0	00c56c63	bltu	x10,x12,800017c8	 x10:0x80000000 x12:0x00000000
       45395000	      4538	800017b4	01fd9793	slli	x15,x27,0x1f	 x27:0xb6a986fc x15=0x00000000
       45405000	      4539	800017b8	01f21193	slli	x3,x4,0x1f	  x4:0x0002daa6  x3=0x00000000
       45415000	      4540	800017bc	031df463	bgeu	x27,x17,800017e4	 x27:0xb6a986fc x17:0xffffffff
       45425000	      4541	800017c0	2cf17793	andi	x15,x2,719	  x2:0x53f46000 x15=0x00000000
       45435000	      4542	800017c4	00f81db3	sll	x27,x16,x15	 x16:0x00000000 x15:0x00000000 x27=0x00000000
       45445000	      4543	800017c8	2df0ff13	andi	x30,x1,735	  x1:0x00000000 x30=0x00000000
       45455000	      4544	800017cc	000ff663	bgeu	x31,x0,800017d8	 x31:0x00000000  x0:0x00000000
       45465000	      4545	00000000	00000013	addi	x0,x0,0	  x0:0x00000000
       45475000	      4546	800017d4	00000013	addi	x0,x0,0	  x0:0x00000000
       45485000	      4547	800017d8	41365813	srai	x16,x12,0x13	 x12:0x00000000 x16=0x00000000
       45495000	      4548	800017dc	0149c933	xor	x18,x19,x20	 x19:0x0000002d x20:0x00000705 x18=0x00000728
       45505000	      4549	800017e0	88194b17	auipc	x22,0x88194	 x22=0x081957dc
       45515000	      4550	800017e4	fd7f8893	addi	x17,x31,-41	 x31:0x00000000 x17=0xffffffd7
       45525000	      4551	800017e8	00711593	slli	x11,x2,0x7	  x2:0x53f46000 x11=0xfa300000
       45535000	      4552	800017ec	00000013	addi	x0,x0,0	  x0:0x00000000
       45545000	      4553	800017f0	01f86eb3	or	x29,x16,x31	 x16:0x00000000 x31:0x00000000 x29=0x00000000
       45555000	      4554	800017f4	8332ff93	andi	x31,x5,-1997	  x5:0x00000001 x31=0x00000001
       45565000	      4555	800017f8	0137fcb3	and	x25,x15,x19	 x15:0x00000000 x19:0x0000002d x25=0x00000000
       45575000	      4556	800017fc	4120dc33	sra	x24,x1,x18	  x1:0x00000000 x18:0x00000728 x24=0x00000000
       45585000	      4557	80001800	2c38af97	auipc	x31,0x2c38a	 x31=0xac38b7fc
       45595000	      4558	80001804	00faa833	slt	x16,x21,x15	 x21:0xa87f1fd3 x15:0x00000000 x16=0x00000001
       45605000	      4559	80001808	13026593	ori	x11,x4,304	  x4:0x0002daa6 x11=0x0002dbb6
       45615000	      4560	8000180c	00beff33	and	x30,x29,x11	 x29:0x00000000 x11:0x0002dbb6 x30=0x00000000
       45625000	      4561	80001810	00a65213	srli	x4,x12,0xa	 x12:0x00000000  x4=0x00000000
       45635000	      4562	80001814	00885b93	srli	x23,x16,0x8	 x16:0x00000001 x23=0x00000000
       45645000	      4563	80001818	03e8cf13	xori	x30,x17,62	 x17:0xffffffd7 x30=0xffffffe9
       45655000	      4564	8000181c	416e8833	sub	x16,x29,x22	 x29:0x00000000 x22:0x081957dc x16=0xf7e6a824
       45665000	      4565	80001820	00a2afb3	slt	x31,x5,x10	  x5:0x00000001 x10:0x80000000 x31=0x00000000
       45675000	      4566	80001824	00014033	xor	x0,x2,x0	  x2:0x53f46000  x0:0x00000000
       45685000	      4567	80001828	05c01263	bne	x0,x28,8000186c	  x0:0x00000000 x28:0x00000000
       45695000	      4568	8000182c	003c9013	slli	x0,x25,0x3	 x25:0x00000000
       45705000	      4569	80001830	05366263	bltu	x12,x19,80001874	 x12:0x00000000 x19:0x0000002d
       45715000	      4570	00000000	00000013	addi	x0,x0,0	  x0:0x00000000
       45725000	      4571	80001870	00000013	addi	x0,x0,0	  x0:0x00000000
       45735000	      4572	80001874	418cdf93	srai	x31,x25,0x18	 x25:0x00000000 x31=0x00000000
       45745000	      4573	80001878	927ad3b7	lui	x7,0x927ad	  x7=0x927ad000
       45755000	      4574	8000187c	019b3233	sltu	x4,x22,x25	 x22:0x081957dc x25:0x00000000  x4=0x00000000
       45765000	      4575	80001880	00b4d0b3	srl	x1,x9,x11	  x9:0x80009f84 x11:0x0002dbb6  x1=0x00000200
       45775000	      4576	80001884	41ad5933	sra	x18,x26,x26	 x26:0x80009fc3 x26:0x80009fc3 x18=0xf00013f8
       45785000	      4577	80001888	00000013	addi	x0,x0,0	  x0:0x00000000
       45795000	      4578	8000188c	0009de63	bge	x19,x0,800018a8	 x19:0x0000002d  x0:0x00000000
       45805000	      4579	00000000	00000013	addi	x0,x0,0	  x0:0x00000000
       45815000	      4580	800018a4	00000013	addi	x0,x0,0	  x0:0x00000000
       45825000	      4581	800018a8	bbc93c13	sltiu	x24,x18,-1092	 x18:0xf00013f8 x24=0x00000001
       45835000	      4582	800018ac	4035d133	sra	x2,x11,x3	 x11:0x0002dbb6  x3:0x00000000  x2=0x0002dbb6
       45845000	      4583	800018b0	41df8e33	sub	x28,x31,x29	 x31:0x00000000 x29:0x00000000 x28=0x00000000
       45855000	      4584	800018b4	00884e63	blt	x16,x8,800018d0	 x16:0xf7e6a824  x8:0x00000000
       45865000	      4585	00000000	00000013	addi	x0,x0,0	  x0:0x00000000
       45875000	      4586	800018cc	00000013	addi	x0,x0,0	  x0:0x00000000
       45885000	      4587	800018d0	00e84c63	blt	x16,x14,800018e8	 x16:0xf7e6a824 x14:0x984fc3a7
       45895000	      4588	800018d4	d2291a97	auipc	x21,0xd2291	 x21=0x522928d0
       45905000	      4589	800018d8	00e39863	bne	x7,x14,800018e8	  x7:0x927ad000 x14:0x984fc3a7
       45915000	      4590	00000000	00000013	addi	x0,x0,0	  x0:0x00000000
       45925000	      4591	800018e4	00000013	addi	x0,x0,0	  x0:0x00000000
       45935000	      4592	800018e8	00ae8a63	beq	x29,x10,800018fc	 x29:0x00000000 x10:0x80000000
       45945000	      4593	800018ec	00f11a13	slli	x20,x2,0xf	  x2:0x0002dbb6 x20=0x6ddb0000
       45955000	      4594	800018f0	0129d693	srli	x13,x19,0x12	 x19:0x0000002d x13=0x00000000
       45965000	      4595	800018f4	023a0863	beq	x20,x3,80001924	 x20:0x6ddb0000  x3:0x00000000
       45975000	      4596	800018f8	00000013	addi	x0,x0,0	  x0:0x00000000
       45985000	      4597	800018fc	1d760f93	addi	x31,x12,471	 x12:0x00000000 x31=0x000001d7
       45995000	      4598	80001900	2ce76017	auipc	x0,0x2ce76	
       46005000	      4599	80001904	c69c4b37	lui	x22,0xc69c4	 x22=0xc69c4000
       46015000	      4600	80001908	05ff0863	beq	x30,x31,80001958	 x30:0xffffffe9 x31:0x000001d7
       46025000	      4601	8000190c	409653b3	sra	x7,x12,x9	 x12:0x00000000  x9:0x80009f84  x7=0x00000000
       46035000	      4602	80001910	008c1793	slli	x15,x24,0x8	 x24:0x00000001 x15=0x00000100
       46045000	      4603	80001914	1e074c13	xori	x24,x14,480	 x14:0x984fc3a7 x24=0x984fc247
       46055000	      4604	80001918	a2b2ffb7	lui	x31,0xa2b2f	 x31=0xa2b2f000
       46065000	      4605	8000191c	01d65d93	srli	x27,x12,0x1d	 x12:0x00000000 x27=0x00000000
       46075000	      4606	80001920	0162c1b3	xor	x3,x5,x22	  x5:0x00000001 x22:0xc69c4000  x3=0xc69c4001
       46085000	      4607	80001924	01851863	bne	x10,x24,80001934	 x10:0x80000000 x24:0x984fc247
       46095000	      4608	00000000	00000013	addi	x0,x0,0	  x0:0x00000000
       46105000	      4609	80001930	00000013	addi	x0,x0,0	  x0:0x00000000
       46115000	      4610	80001934	fe6f3c13	sltiu	x24,x30,-26	 x30:0xffffffe9 x24=0x00000000
       46125000	      4611	80001938	001122b3	slt	x5,x2,x1	  x2:0x0002dbb6  x1:0x00000200  x5=0x00000000
       46135000	      4612	8000193c	00179f33	sll	x30,x15,x1	 x15:0x00000100  x1:0x00000200 x30=0x00000100
       46145000	      4613	80001940	01b72f33	slt	x30,x14,x27	 x14:0x984fc3a7 x27:0x00000000 x30=0x00000001
       46155000	      4614	80001944	0118e663	bltu	x17,x17,80001950	 x17:0xffffffd7 x17:0xffffffd7
       46165000	      4615	80001948	01af42b3	xor	x5,x30,x26	 x30:0x00000001 x26:0x80009fc3  x5=0x80009fc2
       46175000	      4616	8000194c	0058b233	sltu	x4,x17,x5	 x17:0xffffffd7  x5:0x80009fc2  x4=0x00000000
       46185000	      4617	80001950	5defd397	auipc	x7,0x5defd	  x7=0xddefe94c
       46195000	      4618	80001954	01f11593	slli	x11,x2,0x1f	  x2:0x0002dbb6 x11=0x00000000
       46205000	      4619	80001958	409380b3	sub	x1,x7,x9	  x7:0xddefe94c  x9:0x80009f84  x1=0x5def49c8
       46215000	      4620	8000195c	2f5d3893	sltiu	x17,x26,757	 x26:0x80009fc3 x17=0x00000000
       46225000	      4621	80001960	01ddb1b3	sltu	x3,x27,x29	 x27:0x00000000 x29:0x00000000  x3=0x00000000
       46235000	      4622	80001964	05167063	bgeu	x12,x17,800019a4	 x12:0x00000000 x17:0x00000000
       46245000	      4623	00000000	00000013	addi	x0,x0,0	  x0:0x00000000
       46255000	      4624	800019a0	00000013	addi	x0,x0,0	  x0:0x00000000
       46265000	      4625	800019a4	00b2db13	srli	x22,x5,0xb	  x5:0x80009fc2 x22=0x00100013
       46275000	      4626	800019a8	012e0a33	add	x20,x28,x18	 x28:0x00000000 x18:0xf00013f8 x20=0xf00013f8
       46285000	      4627	800019ac	017ed093	srli	x1,x29,0x17	 x29:0x00000000  x1=0x00000000
       46295000	      4628	800019b0	41a7de13	srai	x28,x15,0x1a	 x15:0x00000100 x28=0x00000000
       46305000	      4629	800019b4	013693b3	sll	x7,x13,x19	 x13:0x00000000 x19:0x0000002d  x7=0x00000000
       46315000	      4630	800019b8	41d35233	sra	x4,x6,x29	  x6:0x80009fc4 x29:0x00000000  x4=0x80009fc4
       46325000	      4631	800019bc	01c0e8b3	or	x17,x1,x28	  x1:0x00000000 x28:0x00000000 x17=0x00000000
       46335000	      4632	800019c0	0025c933	xor	x18,x11,x2	 x11:0x00000000  x2:0x0002dbb6 x18=0x0002dbb6
       46345000	      4633	800019c4	4163de13	srai	x28,x7,0x16	  x7:0x00000000 x28=0x00000000
       46355000	      4634	800019c8	f9f86413	ori	x8,x16,-97	 x16:0xf7e6a824  x8=0xffffffbf
       46365000	      4635	800019cc	00d5d8b3	srl	x17,x11,x13	 x11:0x00000000 x13:0x00000000 x17=0x00000000
       46375000	      4636	800019d0	92266b13	ori	x22,x12,-1758	 x12:0x00000000 x22=0xfffff922
       46385000	      4637	800019d4	410f0433	sub	x8,x30,x16	 x30:0x00000001 x16:0xf7e6a824  x8=0x081957dd
       46395000	      4638	800019d8	015f06b3	add	x13,x30,x21	 x30:0x00000001 x21:0x522928d0 x13=0x522928d1
       46405000	      4639	800019dc	dea27813	andi	x16,x4,-534	  x4:0x80009fc4 x16=0x80009dc0
       46415000	      4640	800019e0	0127db13	srli	x22,x15,0x12	 x15:0x00000100 x22=0x00000000
       46425000	      4641	800019e4	002be663	bltu	x23,x2,800019f0	 x23:0x00000000  x2:0x0002dbb6
       46435000	      4642	00000000	00000013	addi	x0,x0,0	  x0:0x00000000
       46445000	      4643	800019ec	00000013	addi	x0,x0,0	  x0:0x00000000
       46455000	      4644	800019f0	04529263	bne	x5,x5,80001a34	  x5:0x80009fc2  x5:0x80009fc2
       46465000	      4645	800019f4	041e6663	bltu	x28,x1,80001a40	 x28:0x00000000  x1:0x00000000
       46475000	      4646	800019f8	01c74eb3	xor	x29,x14,x28	 x14:0x984fc3a7 x28:0x00000000 x29=0x984fc3a7
       46485000	      4647	800019fc	e0aa0193	addi	x3,x20,-502	 x20:0xf00013f8  x3=0xf0001202
       46495000	      4648	80001a00	0299dc63	bge	x19,x9,80001a38	 x19:0x0000002d  x9:0x80009f84
       46505000	      4649	00000000	00000013	addi	x0,x0,0	  x0:0x00000000
       46515000	      4650	80001a34	00000013	addi	x0,x0,0	  x0:0x00000000
       46525000	      4651	80001a38	00f3beb3	sltu	x29,x7,x15	  x7:0x00000000 x15:0x00000100 x29=0x00000001
       46535000	      4652	80001a3c	842dcd13	xori	x26,x27,-1982	 x27:0x00000000 x26=0xfffff842
       46545000	      4653	80001a40	01964e63	blt	x12,x25,80001a5c	 x12:0x00000000 x25:0x00000000
       46555000	      4654	80001a44	7c9a3413	sltiu	x8,x20,1993	 x20:0xf00013f8  x8=0x00000000
       46565000	      4655	80001a48	00000013	addi	x0,x0,0	  x0:0x00000000
       46575000	      4656	80001a4c	016736b3	sltu	x13,x14,x22	 x14:0x984fc3a7 x22:0x00000000 x13=0x00000000
       46585000	      4657	80001a50	41f60a33	sub	x20,x12,x31	 x12:0x00000000 x31:0xa2b2f000 x20=0x5d4d1000
       46595000	      4658	80001a54	68ffeb13	ori	x22,x31,1679	 x31:0xa2b2f000 x22=0xa2b2f68f
       46605000	      4659	80001a58	fd5971b7	lui	x3,0xfd597	  x3=0xfd597000
       46615000	      4660	80001a5c	2812e693	ori	x13,x5,641	  x5:0x80009fc2 x13=0x80009fc3
       46625000	      4661	80001a60	02b0e663	bltu	x1,x11,80001a8c	  x1:0x00000000 x11:0x00000000
       46635000	      4662	80001a64	17f6ab93	slti	x23,x13,383	 x13:0x80009fc3 x23=0x00000001
       46645000	      4663	80001a68	016ef833	and	x16,x29,x22	 x29:0x00000001 x22:0xa2b2f68f x16=0x00000001
       46655000	      4664	80001a6c	1f788c13	addi	x24,x17,503	 x17:0x00000000 x24=0x000001f7
       46665000	      4665	80001a70	00000013	addi	x0,x0,0	  x0:0x00000000
       46675000	      4666	80001a74	4063d133	sra	x2,x7,x6	  x7:0x00000000  x6:0x80009fc4  x2=0x00000000
       46685000	      4667	80001a78	0478e863	bltu	x17,x7,80001ac8	 x17:0x00000000  x7:0x00000000
       46695000	      4668	80001a7c	04204463	blt	x0,x2,80001ac4	  x0:0x00000000  x2:0x00000000
       46705000	      4669	80001a80	40aed3b3	sra	x7,x29,x10	 x29:0x00000001 x10:0x80000000  x7=0x00000001
       46715000	      4670	80001a84	1db88c13	addi	x24,x17,475	 x17:0x00000000 x24=0x000001db
       46725000	      4671	80001a88	049d5863	bge	x26,x9,80001ad8	 x26:0xfffff842  x9:0x80009f84
       46735000	      4672	00000000	00000013	addi	x0,x0,0	  x0:0x00000000
       46745000	      4673	80001ad4	00000013	addi	x0,x0,0	  x0:0x00000000
       46755000	      4674	80001ad8	011395b3	sll	x11,x7,x17	  x7:0x00000001 x17:0x00000000 x11=0x00000001
       46765000	      4675	80001adc	011f9ab3	sll	x21,x31,x17	 x31:0xa2b2f000 x17:0x00000000 x21=0xa2b2f000
       46775000	      4676	80001ae0	8e2b0137	lui	x2,0x8e2b0	  x2=0x8e2b0000
       46785000	      4677	80001ae4	0187beb3	sltu	x29,x15,x24	 x15:0x00000100 x24:0x000001db x29=0x00000001
       46795000	      4678	80001ae8	015be733	or	x14,x23,x21	 x23:0x00000001 x21:0xa2b2f000 x14=0xa2b2f001
       46805000	      4679	80001aec	41140133	sub	x2,x8,x17	  x8:0x00000000 x17:0x00000000  x2=0x00000000
       46815000	      4680	80001af0	01e123b3	slt	x7,x2,x30	  x2:0x00000000 x30:0x00000001  x7=0x00000001
       46825000	      4681	80001af4	05407263	bgeu	x0,x20,80001b38	  x0:0x00000000 x20:0x5d4d1000
       46835000	      4682	80001af8	015fd663	bge	x31,x21,80001b04	 x31:0xa2b2f000 x21:0xa2b2f000
       46845000	      4683	00000000	00000013	addi	x0,x0,0	  x0:0x00000000
       46855000	      4684	80001b00	00000013	addi	x0,x0,0	  x0:0x00000000
       46865000	      4685	80001b04	7878ed13	ori	x26,x17,1927	 x17:0x00000000 x26=0x00000787
       46875000	      4686	80001b08	77e53213	sltiu	x4,x10,1918	 x10:0x80000000  x4=0x00000000
       46885000	      4687	80001b0c	00a77463	bgeu	x14,x10,80001b14	 x14:0xa2b2f001 x10:0x80000000
       46895000	      4688	00000000	00000013	addi	x0,x0,0	  x0:0x00000000
       46905000	      4689	80001b10	00000013	addi	x0,x0,0	  x0:0x00000000
       46915000	      4690	80001b14	045df463	bgeu	x27,x5,80001b5c	 x27:0x00000000  x5:0x80009fc2
       46925000	      4691	80001b18	256da5b7	lui	x11,0x256da	 x11=0x256da000
       46935000	      4692	80001b1c	03e8d663	bge	x17,x30,80001b48	 x17:0x00000000 x30:0x00000001
       46945000	      4693	80001b20	04809263	bne	x1,x8,80001b64	  x1:0x00000000  x8:0x00000000
       46955000	      4694	80001b24	41f00ab3	sub	x21,x0,x31	  x0:0x00000000 x31:0xa2b2f000 x21=0x5d4d1000
       46965000	      4695	80001b28	76b0ad17	auipc	x26,0x76b0a	 x26=0xf6b0bb24
       46975000	      4696	80001b2c	41ab01b3	sub	x3,x22,x26	 x22:0xa2b2f68f x26:0xf6b0bb24  x3=0xac023b6b
       46985000	      4697	80001b30	41288633	sub	x12,x17,x18	 x17:0x00000000 x18:0x0002dbb6 x12=0xfffd244a
       46995000	      4698	80001b34	242569b7	lui	x19,0x24256	 x19=0x24256000
       47005000	      4699	80001b38	ab53a713	slti	x14,x7,-1355	  x7:0x00000001 x14=0x00000000
       47015000	      4700	80001b3c	0108bd33	sltu	x26,x17,x16	 x17:0x00000000 x16:0x00000001 x26=0x00000001
       47025000	      4701	80001b40	7b8f8793	addi	x15,x31,1976	 x31:0xa2b2f000 x15=0xa2b2f7b8
       47035000	      4702	80001b44	205f2e93	slti	x29,x30,517	 x30:0x00000001 x29=0x00000001
       47045000	      4703	80001b48	003edbb3	srl	x23,x29,x3	 x29:0x00000001  x3:0xac023b6b x23=0x00000000
       47055000	      4704	80001b4c	006bf233	and	x4,x23,x6	 x23:0x00000000  x6:0x80009fc4  x4=0x00000000
       47065000	      4705	80001b50	00c0e9b3	or	x19,x1,x12	  x1:0x00000000 x12:0xfffd244a x19=0xfffd244a
       47075000	      4706	80001b54	40f4dbb3	sra	x23,x9,x15	  x9:0x80009f84 x15:0xa2b2f7b8 x23=0xffffff80
       47085000	      4707	80001b58	05cf4063	blt	x30,x28,80001b98	 x30:0x00000001 x28:0x00000000
       47095000	      4708	80001b5c	01560fb3	add	x31,x12,x21	 x12:0xfffd244a x21:0x5d4d1000 x31=0x5d4a344a
       47105000	      4709	80001b60	0175d133	srl	x2,x11,x23	 x11:0x256da000 x23:0xffffff80  x2=0x256da000
       47115000	      4710	80001b64	0150df13	srli	x30,x1,0x15	  x1:0x00000000 x30=0x00000000
       47125000	      4711	80001b68	05fb8863	beq	x23,x31,80001bb8	 x23:0xffffff80 x31:0x5d4a344a
       47135000	      4712	80001b6c	cf596093	ori	x1,x18,-779	 x18:0x0002dbb6  x1=0xfffffff7
       47145000	      4713	80001b70	0075ceb3	xor	x29,x11,x7	 x11:0x256da000  x7:0x00000001 x29=0x256da001
       47155000	      4714	80001b74	00b80eb3	add	x29,x16,x11	 x16:0x00000001 x11:0x256da000 x29=0x256da001
       47165000	      4715	80001b78	4069dab3	sra	x21,x19,x6	 x19:0xfffd244a  x6:0x80009fc4 x21=0xffffd244
       47175000	      4716	80001b7c	0058f863	bgeu	x17,x5,80001b8c	 x17:0x00000000  x5:0x80009fc2
       47185000	      4717	80001b80	015ca233	slt	x4,x25,x21	 x25:0x00000000 x21:0xffffd244  x4=0x00000000
       47195000	      4718	80001b84	037b6c63	bltu	x22,x23,80001bbc	 x22:0xa2b2f68f x23:0xffffff80
       47205000	      4719	00000000	00000013	addi	x0,x0,0	  x0:0x00000000
       47215000	      4720	80001bb8	00000013	addi	x0,x0,0	  x0:0x00000000
       47225000	      4721	80001bbc	00de8f33	add	x30,x29,x13	 x29:0x256da001 x13:0x80009fc3 x30=0xa56e3fc4
       47235000	      4722	80001bc0	d61beb93	ori	x23,x23,-671	 x23:0xffffff80 x23=0xffffffe1
       47245000	      4723	80001bc4	40d65b13	srai	x22,x12,0xd	 x12:0xfffd244a x22=0xffffffe9
       47255000	      4724	80001bc8	00cf8fb3	add	x31,x31,x12	 x31:0x5d4a344a x12:0xfffd244a x31=0x5d475894
       47265000	      4725	80001bcc	03e30c63	beq	x6,x30,80001c04	  x6:0x80009fc4 x30:0xa56e3fc4
       47275000	      4726	80001bd0	00f66a63	bltu	x12,x15,80001be4	 x12:0xfffd244a x15:0xa2b2f7b8
       47285000	      4727	80001bd4	7346c193	xori	x3,x13,1844	 x13:0x80009fc3  x3=0x800098f7
       47295000	      4728	80001bd8	7dd89237	lui	x4,0x7dd89	  x4=0x7dd89000
       47305000	      4729	80001bdc	00b3da93	srli	x21,x7,0xb	  x7:0x00000001 x21=0x00000000
       47315000	      4730	80001be0	0154c463	blt	x9,x21,80001be8	  x9:0x80009f84 x21:0x00000000
       47325000	      4731	00000000	00000013	addi	x0,x0,0	  x0:0x00000000
       47335000	      4732	80001be4	00000013	addi	x0,x0,0	  x0:0x00000000
       47345000	      4733	80001be8	00d8f663	bgeu	x17,x13,80001bf4	 x17:0x00000000 x13:0x80009fc3
       47355000	      4734	80001bec	00000013	addi	x0,x0,0	  x0:0x00000000
       47365000	      4735	80001bf0	4121de93	srai	x29,x3,0x12	  x3:0x800098f7 x29=0xffffe000
       47375000	      4736	80001bf4	01fc78b3	and	x17,x24,x31	 x24:0x000001db x31:0x5d475894 x17=0x00000090
       47385000	      4737	80001bf8	33e57413	andi	x8,x10,830	 x10:0x80000000  x8=0x00000000
       47395000	      4738	80001bfc	01118433	add	x8,x3,x17	  x3:0x800098f7 x17:0x00000090  x8=0x80009987
       47405000	      4739	80001c00	02ef4c63	blt	x30,x14,80001c38	 x30:0xa56e3fc4 x14:0x00000000
       47415000	      4740	00000000	00000013	addi	x0,x0,0	  x0:0x00000000
       47425000	      4741	80001c34	00000013	addi	x0,x0,0	  x0:0x00000000
       47435000	      4742	80001c38	0430f863	bgeu	x1,x3,80001c88	  x1:0xfffffff7  x3:0x800098f7
       47445000	      4743	00000000	00000013	addi	x0,x0,0	  x0:0x00000000
       47455000	      4744	80001c84	00000013	addi	x0,x0,0	  x0:0x00000000
       47465000	      4745	80001c88	73d76b93	ori	x23,x14,1853	 x14:0x00000000 x23=0x0000073d
       47475000	      4746	80001c8c	f2ceba93	sltiu	x21,x29,-212	 x29:0xffffe000 x21=0x00000001
       47485000	      4747	80001c90	21b427b7	lui	x15,0x21b42	 x15=0x21b42000
       47495000	      4748	80001c94	02cc1863	bne	x24,x12,80001cc4	 x24:0x000001db x12:0xfffd244a
       47505000	      4749	00000000	00000013	addi	x0,x0,0	  x0:0x00000000
       47515000	      4750	80001cc0	00000013	addi	x0,x0,0	  x0:0x00000000
       47525000	      4751	80001cc4	008fab33	slt	x22,x31,x8	 x31:0x5d475894  x8:0x80009987 x22=0x00000000
       47535000	      4752	80001cc8	0102d5b3	srl	x11,x5,x16	  x5:0x80009fc2 x16:0x00000001 x11=0x40004fe1
       47545000	      4753	80001ccc	40bb5c93	srai	x25,x22,0xb	 x22:0x00000000 x25=0x00000000
       47555000	      4754	80001cd0	407fd013	srai	x0,x31,0x7	 x31:0x5d475894
       47565000	      4755	80001cd4	fa632693	slti	x13,x6,-90	  x6:0x80009fc4 x13=0x00000001
       47575000	      4756	80001cd8	00d93b33	sltu	x22,x18,x13	 x18:0x0002dbb6 x13:0x00000001 x22=0x00000000
       47585000	      4757	80001cdc	19222213	slti	x4,x4,402	  x4:0x7dd89000  x4=0x00000000
       47595000	      4758	80001ce0	005efdb3	and	x27,x29,x5	 x29:0xffffe000  x5:0x80009fc2 x27=0x80008000
       47605000	      4759	80001ce4	8c480413	addi	x8,x16,-1852	 x16:0x00000001  x8=0xfffff8c5
       47615000	      4760	80001ce8	01551e63	bne	x10,x21,80001d04	 x10:0x80000000 x21:0x00000001
       47625000	      4761	00000000	00000013	addi	x0,x0,0	  x0:0x00000000
       47635000	      4762	80001d00	00000013	addi	x0,x0,0	  x0:0x00000000
       47645000	      4763	80001d04	41a20e33	sub	x28,x4,x26	  x4:0x00000000 x26:0x00000001 x28=0xffffffff
       47655000	      4764	80001d08	40d38833	sub	x16,x7,x13	  x7:0x00000001 x13:0x00000001 x16=0x00000000
       47665000	      4765	80001d0c	00947fb3	and	x31,x8,x9	  x8:0xfffff8c5  x9:0x80009f84 x31=0x80009884
       47675000	      4766	80001d10	409dd8b3	sra	x17,x27,x9	 x27:0x80008000  x9:0x80009f84 x17=0xf8000800
       47685000	      4767	80001d14	e33d3fb7	lui	x31,0xe33d3	 x31=0xe33d3000
       47695000	      4768	80001d18	25538213	addi	x4,x7,597	  x7:0x00000001  x4=0x00000256
       47705000	      4769	80001d1c	7c42ad93	slti	x27,x5,1988	  x5:0x80009fc2 x27=0x00000001
       47715000	      4770	80001d20	41ae8633	sub	x12,x29,x26	 x29:0xffffe000 x26:0x00000001 x12=0xffffdfff
       47725000	      4771	80001d24	012263b3	or	x7,x4,x18	  x4:0x00000256 x18:0x0002dbb6  x7=0x0002dbf6
       47735000	      4772	80001d28	402f5013	srai	x0,x30,0x2	 x30:0xa56e3fc4
       47745000	      4773	80001d2c	019b1a33	sll	x20,x22,x25	 x22:0x00000000 x25:0x00000000 x20=0x00000000
       47755000	      4774	80001d30	00e12ab3	slt	x21,x2,x14	  x2:0x256da000 x14:0x00000000 x21=0x00000000
       47765000	      4775	80001d34	00000013	addi	x0,x0,0	  x0:0x00000000
       47775000	      4776	80001d38	01bf9913	slli	x18,x31,0x1b	 x31:0xe33d3000 x18=0x00000000
       47785000	      4777	80001d3c	00cd9663	bne	x27,x12,80001d48	 x27:0x00000001 x12:0xffffdfff
       47795000	      4778	00000000	00000013	addi	x0,x0,0	  x0:0x00000000
       47805000	      4779	80001d44	00000013	addi	x0,x0,0	  x0:0x00000000
       47815000	      4780	80001d48	00000013	addi	x0,x0,0	  x0:0x00000000
       47825000	      4781	80001d4c	41265d93	srai	x27,x12,0x12	 x12:0xffffdfff x27=0xffffffff
       47835000	      4782	80001d50	884e3d13	sltiu	x26,x28,-1916	 x28:0xffffffff x26=0x00000000
       47845000	      4783	80001d54	40b1d293	srai	x5,x3,0xb	  x3:0x800098f7  x5=0xfff00013
       47855000	      4784	80001d58	00c07cb3	and	x25,x0,x12	  x0:0x00000000 x12:0xffffdfff x25=0x00000000
       47865000	      4785	80001d5c	41acdf33	sra	x30,x25,x26	 x25:0x00000000 x26:0x00000000 x30=0x00000000
       47875000	      4786	80001d60	00000013	addi	x0,x0,0	  x0:0x00000000
       47885000	      4787	80001d64	00e007b3	add	x15,x0,x14	  x0:0x00000000 x14:0x00000000 x15=0x00000000
       47895000	      4788	80001d68	00ec0863	beq	x24,x14,80001d78	 x24:0x000001db x14:0x00000000
       47905000	      4789	80001d6c	f5af6e13	ori	x28,x30,-166	 x30:0x00000000 x28=0xffffff5a
       47915000	      4790	80001d70	85bf0d13	addi	x26,x30,-1957	 x30:0x00000000 x26=0xfffff85b
       47925000	      4791	80001d74	01f19663	bne	x3,x31,80001d80	  x3:0x800098f7 x31:0xe33d3000
       47935000	      4792	00000000	00000013	addi	x0,x0,0	  x0:0x00000000
       47945000	      4793	80001d7c	00000013	addi	x0,x0,0	  x0:0x00000000
       47955000	      4794	80001d80	01e54663	blt	x10,x30,80001d8c	 x10:0x80000000 x30:0x00000000
       47965000	      4795	00000000	00000013	addi	x0,x0,0	  x0:0x00000000
       47975000	      4796	80001d88	00000013	addi	x0,x0,0	  x0:0x00000000
       47985000	      4797	80001d8c	7d54f293	andi	x5,x9,2005	  x9:0x80009f84  x5=0x00000784
       47995000	      4798	80001d90	a8ed3593	sltiu	x11,x26,-1394	 x26:0xfffff85b x11=0x00000001
       48005000	      4799	80001d94	05a6c863	blt	x13,x26,80001de4	 x13:0x00000001 x26:0xfffff85b
       48015000	      4800	80001d98	01d3d233	srl	x4,x7,x29	  x7:0x0002dbf6 x29:0xffffe000  x4=0x0002dbf6
       48025000	      4801	80001d9c	402cdc33	sra	x24,x25,x2	 x25:0x00000000  x2:0x256da000 x24=0x00000000
       48035000	      4802	80001da0	20f8cb93	xori	x23,x17,527	 x17:0xf8000800 x23=0xf8000a0f
       48045000	      4803	80001da4	019c8e33	add	x28,x25,x25	 x25:0x00000000 x25:0x00000000 x28=0x00000000
       48055000	      4804	80001da8	03ee7e63	bgeu	x28,x30,80001de4	 x28:0x00000000 x30:0x00000000
       48065000	      4805	00000000	00000013	addi	x0,x0,0	  x0:0x00000000
       48075000	      4806	80001de0	00000013	addi	x0,x0,0	  x0:0x00000000
       48085000	      4807	80001de4	039b7863	bgeu	x22,x25,80001e14	 x22:0x00000000 x25:0x00000000
       48095000	      4808	00000000	00000013	addi	x0,x0,0	  x0:0x00000000
       48105000	      4809	80001e10	00000013	addi	x0,x0,0	  x0:0x00000000
       48115000	      4810	80001e14	00291e33	sll	x28,x18,x2	 x18:0x00000000  x2:0x256da000 x28=0x00000000
       48125000	      4811	80001e18	02541c63	bne	x8,x5,80001e50	  x8:0xfffff8c5  x5:0x00000784
       48135000	      4812	00000000	00000013	addi	x0,x0,0	  x0:0x00000000
       48145000	      4813	80001e4c	00000013	addi	x0,x0,0	  x0:0x00000000
       48155000	      4814	80001e50	93be7f13	andi	x30,x28,-1733	 x28:0x00000000 x30=0x00000000
       48165000	      4815	80001e54	054c5863	bge	x24,x20,80001ea4	 x24:0x00000000 x20:0x00000000
       48175000	      4816	00000000	00000013	addi	x0,x0,0	  x0:0x00000000
       48185000	      4817	80001ea0	00000013	addi	x0,x0,0	  x0:0x00000000
       48195000	      4818	80001ea4	02df5663	bge	x30,x13,80001ed0	 x30:0x00000000 x13:0x00000001
       48205000	      4819	80001ea8	0147a1b3	slt	x3,x15,x20	 x15:0x00000000 x20:0x00000000  x3=0x00000000
       48215000	      4820	80001eac	01506663	bltu	x0,x21,80001eb8	  x0:0x00000000 x21:0x00000000
       48225000	      4821	80001eb0	f648ef93	ori	x31,x17,-156	 x17:0xf8000800 x31=0xffffff64
       48235000	      4822	80001eb4	4350a893	slti	x17,x1,1077	  x1:0xfffffff7 x17=0x00000001
       48245000	      4823	80001eb8	afc80193	addi	x3,x16,-1284	 x16:0x00000000  x3=0xfffffafc
       48255000	      4824	80001ebc	c565c793	xori	x15,x11,-938	 x11:0x00000001 x15=0xfffffc57
       48265000	      4825	80001ec0	40bb8bb3	sub	x23,x23,x11	 x23:0xf8000a0f x11:0x00000001 x23=0xf8000a0e
       48275000	      4826	80001ec4	403502b3	sub	x5,x10,x3	 x10:0x80000000  x3:0xfffffafc  x5=0x80000504
       48285000	      4827	80001ec8	ecd86213	ori	x4,x16,-307	 x16:0x00000000  x4=0xfffffecd
       48295000	      4828	80001ecc	02739663	bne	x7,x7,80001ef8	  x7:0x0002dbf6  x7:0x0002dbf6
       48305000	      4829	80001ed0	41565b13	srai	x22,x12,0x15	 x12:0xffffdfff x22=0xffffffff
       48315000	      4830	80001ed4	01eebbb3	sltu	x23,x29,x30	 x29:0xffffe000 x30:0x00000000 x23=0x00000000
       48325000	      4831	80001ed8	c6f9c113	xori	x2,x19,-913	 x19:0xfffd244a  x2=0x0002d825
       48335000	      4832	80001edc	4014d9b3	sra	x19,x9,x1	  x9:0x80009f84  x1:0xfffffff7 x19=0xffffff00
       48345000	      4833	80001ee0	b13f0813	addi	x16,x30,-1261	 x30:0x00000000 x16=0xfffffb13
       48355000	      4834	80001ee4	4fcd1ab7	lui	x21,0x4fcd1	 x21=0x4fcd1000
       48365000	      4835	80001ee8	41f7bb93	sltiu	x23,x15,1055	 x15:0xfffffc57 x23=0x00000000
       48375000	      4836	80001eec	ebe38a93	addi	x21,x7,-322	  x7:0x0002dbf6 x21=0x0002dab4
       48385000	      4837	80001ef0	013d36b3	sltu	x13,x26,x19	 x26:0xfffff85b x19:0xffffff00 x13=0x00000001
       48395000	      4838	80001ef4	01234c63	blt	x6,x18,80001f0c	  x6:0x80009fc4 x18:0x00000000
       48405000	      4839	00000000	00000013	addi	x0,x0,0	  x0:0x00000000
       48415000	      4840	80001f08	00000013	addi	x0,x0,0	  x0:0x00000000
       48425000	      4841	80001f0c	01f5c933	xor	x18,x11,x31	 x11:0x00000001 x31:0xffffff64 x18=0xffffff65
       48435000	      4842	80001f10	01dd1f13	slli	x30,x26,0x1d	 x26:0xfffff85b x30=0x60000000
       48445000	      4843	80001f14	00a00b13	addi	x22,x0,10	  x0:0x00000000 x22=0x0000000a
       48455000	      4844	80001f18	00e00e13	addi	x28,x0,14	  x0:0x00000000 x28=0x0000000e
       48465000	      4845	80001f1c	01a706b3	add	x13,x14,x26	 x14:0x00000000 x26:0xfffff85b x13=0xfffff85b
       48475000	      4846	80001f20	005b0b13	addi	x22,x22,5	 x22:0x0000000a x22=0x0000000f
       48485000	      4847	80001f24	ffcb6ce3	bltu	x22,x28,80001f1c	 x22:0x0000000f x28:0x0000000e
       48495000	      4848	80001f28	d2ede1b7	lui	x3,0xd2ede	  x3=0xd2ede000
       48505000	      4849	80001f2c	00859933	sll	x18,x11,x8	 x11:0x00000001  x8:0xfffff8c5 x18=0x00000020
       48515000	      4850	80001f30	410056b3	sra	x13,x0,x16	  x0:0x00000000 x16:0xfffffb13 x13=0x00000000
       48525000	      4851	80001f34	01584bb3	xor	x23,x16,x21	 x16:0xfffffb13 x21:0x0002dab4 x23=0xfffd21a7
       48535000	      4852	80001f38	00340663	beq	x8,x3,80001f44	  x8:0xfffff8c5  x3:0xd2ede000
       48545000	      4853	80001f3c	fe476a93	ori	x21,x14,-28	 x14:0x00000000 x21=0xffffffe4
       48555000	      4854	80001f40	034ad663	bge	x21,x20,80001f6c	 x21:0xffffffe4 x20:0x00000000
       48565000	      4855	80001f44	40335613	srai	x12,x6,0x3	  x6:0x80009fc4 x12=0xf00013f8
       48575000	      4856	80001f48	93c55bb7	lui	x23,0x93c55	 x23=0x93c55000
       48585000	      4857	80001f4c	05f68663	beq	x13,x31,80001f98	 x13:0x00000000 x31:0xffffff64
       48595000	      4858	80001f50	048f0263	beq	x30,x8,80001f94	 x30:0x60000000  x8:0xfffff8c5
       48605000	      4859	80001f54	001aaab3	slt	x21,x21,x1	 x21:0xffffffe4  x1:0xfffffff7 x21=0x00000001
       48615000	      4860	80001f58	7213a613	slti	x12,x7,1825	  x7:0x0002dbf6 x12=0x00000000
       48625000	      4861	80001f5c	00b1a633	slt	x12,x3,x11	  x3:0xd2ede000 x11:0x00000001 x12=0x00000001
       48635000	      4862	80001f60	01d45a33	srl	x20,x8,x29	  x8:0xfffff8c5 x29:0xffffe000 x20=0xfffff8c5
       48645000	      4863	80001f64	0170fa33	and	x20,x1,x23	  x1:0xfffffff7 x23:0x93c55000 x20=0x93c55000
       48655000	      4864	80001f68	cc683bb7	lui	x23,0xcc683	 x23=0xcc683000
       48665000	      4865	80001f6c	01d54033	xor	x0,x10,x29	 x10:0x80000000 x29:0xffffe000
       48675000	      4866	80001f70	01fc95b3	sll	x11,x25,x31	 x25:0x00000000 x31:0xffffff64 x11=0x00000000
       48685000	      4867	80001f74	000de663	bltu	x27,x0,80001f80	 x27:0xffffffff  x0:0x00000000
       48695000	      4868	80001f78	01741463	bne	x8,x23,80001f80	  x8:0xfffff8c5 x23:0xcc683000
       48705000	      4869	00000000	00000013	addi	x0,x0,0	  x0:0x00000000
       48715000	      4870	80001f7c	00000013	addi	x0,x0,0	  x0:0x00000000
       48725000	      4871	80001f80	40285233	sra	x4,x16,x2	 x16:0xfffffb13  x2:0x0002d825  x4=0xffffffd8
       48735000	      4872	80001f84	00b73933	sltu	x18,x14,x11	 x14:0x00000000 x11:0x00000000 x18=0x00000000
       48745000	      4873	80001f88	00335793	srli	x15,x6,0x3	  x6:0x80009fc4 x15=0x100013f8
       48755000	      4874	80001f8c	00538a33	add	x20,x7,x5	  x7:0x0002dbf6  x5:0x80000504 x20=0x8002e0fa
       48765000	      4875	80001f90	006f1c33	sll	x24,x30,x6	 x30:0x60000000  x6:0x80009fc4 x24=0x00000000
       48775000	      4876	80001f94	00831033	sll	x0,x6,x8	  x6:0x80009fc4  x8:0xfffff8c5
       48785000	      4877	80001f98	00cee113	ori	x2,x29,12	 x29:0xffffe000  x2=0xffffe00c
       48795000	      4878	80001f9c	01091b33	sll	x22,x18,x16	 x18:0x00000000 x16:0xfffffb13 x22=0x00000000
       48805000	      4879	80001fa0	40f60833	sub	x16,x12,x15	 x12:0x00000001 x15:0x100013f8 x16=0xefffec09
       48815000	      4880	80001fa4	04227863	bgeu	x4,x2,80001ff4	  x4:0xffffffd8  x2:0xffffe00c
       48825000	      4881	00000000	00000013	addi	x0,x0,0	  x0:0x00000000
       48835000	      4882	80001ff0	00000013	addi	x0,x0,0	  x0:0x00000000
       48845000	      4883	80001ff4	40a58933	sub	x18,x11,x10	 x11:0x00000000 x10:0x80000000 x18=0x80000000
       48855000	      4884	80001ff8	04cb6463	bltu	x22,x12,80002040	 x22:0x00000000 x12:0x00000001
       48865000	      4885	00000000	00000013	addi	x0,x0,0	  x0:0x00000000
       48875000	      4886	8000203c	00000013	addi	x0,x0,0	  x0:0x00000000
       48885000	      4887	80002040	3bf4bd13	sltiu	x26,x9,959	  x9:0x80009f84 x26=0x00000000
       48895000	      4888	80002044	01f31393	slli	x7,x6,0x1f	  x6:0x80009fc4  x7=0x00000000
       48905000	      4889	80002048	0146f433	and	x8,x13,x20	 x13:0x00000000 x20:0x8002e0fa  x8=0x00000000
       48915000	      4890	8000204c	007846b3	xor	x13,x16,x7	 x16:0xefffec09  x7:0x00000000 x13=0xefffec09
       48925000	      4891	80002050	7ac6a793	slti	x15,x13,1964	 x13:0xefffec09 x15=0x00000001
       48935000	      4892	80002054	40945b93	srai	x23,x8,0x9	  x8:0x00000000 x23=0x00000000
       48945000	      4893	80002058	440a4d93	xori	x27,x20,1088	 x20:0x8002e0fa x27=0x8002e4ba
       48955000	      4894	8000205c	01318f33	add	x30,x3,x19	  x3:0xd2ede000 x19:0xffffff00 x30=0xd2eddf00
       48965000	      4895	80002060	00000013	addi	x0,x0,0	  x0:0x00000000
       48975000	      4896	80002064	31bde393	ori	x7,x27,795	 x27:0x8002e4ba  x7=0x8002e7bb
       48985000	      4897	80002068	4073dc93	srai	x25,x7,0x7	  x7:0x8002e7bb x25=0xff0005cf
       48995000	      4898	8000206c	00849733	sll	x14,x9,x8	  x9:0x80009f84  x8:0x00000000 x14=0x80009f84
       49005000	      4899	80002070	01245a63	bge	x8,x18,80002084	  x8:0x00000000 x18:0x80000000
       49015000	      4900	00000000	00000013	addi	x0,x0,0	  x0:0x00000000
       49025000	      4901	80002080	00000013	addi	x0,x0,0	  x0:0x00000000
       49035000	      4902	80002084	00b2b6b3	sltu	x13,x5,x11	  x5:0x80000504 x11:0x00000000 x13=0x00000000
       49045000	      4903	80002088	412addb3	sra	x27,x21,x18	 x21:0x00000001 x18:0x80000000 x27=0x00000001
       49055000	      4904	8000208c	01512633	slt	x12,x2,x21	  x2:0xffffe00c x21:0x00000001 x12=0x00000001
       49065000	      4905	80002090	00000013	addi	x0,x0,0	  x0:0x00000000
       49075000	      4906	80002094	cb828413	addi	x8,x5,-840	  x5:0x80000504  x8=0x800001bc
       49085000	      4907	80002098	41a5d3b3	sra	x7,x11,x26	 x11:0x00000000 x26:0x00000000  x7=0x00000000
       49095000	      4908	8000209c	01d9ffb3	and	x31,x19,x29	 x19:0xffffff00 x29:0xffffe000 x31=0xffffe000
       49105000	      4909	800020a0	a0904a97	auipc	x21,0xa0904	 x21=0x2090609c
       49115000	      4910	800020a4	00000013	addi	x0,x0,0	  x0:0x00000000
       49125000	      4911	800020a8	01ca5bb3	srl	x23,x20,x28	 x20:0x8002e0fa x28:0x0000000e x23=0x0002000b
       49135000	      4912	800020ac	0049d2b3	srl	x5,x19,x4	 x19:0xffffff00  x4:0xffffffd8  x5=0x000000ff
       49145000	      4913	800020b0	0195d5b3	srl	x11,x11,x25	 x11:0x00000000 x25:0xff0005cf x11=0x00000000
       49155000	      4914	800020b4	bba8e913	ori	x18,x17,-1094	 x17:0x00000001 x18=0xfffffbbb
       49165000	      4915	800020b8	00664f33	xor	x30,x12,x6	 x12:0x00000001  x6:0x80009fc4 x30=0x80009fc5
       49175000	      4916	800020bc	e6b8e113	ori	x2,x17,-405	 x17:0x00000001  x2=0xfffffe6b
       49185000	      4917	800020c0	00e9d893	srli	x17,x19,0xe	 x19:0xffffff00 x17=0x0003ffff
       49195000	      4918	800020c4	d36e0013	addi	x0,x28,-714	 x28:0x0000000e
       49205000	      4919	800020c8	4007d693	srai	x13,x15,0x0	 x15:0x00000001 x13=0x00000001
       49215000	      4920	800020cc	0124d863	bge	x9,x18,800020dc	  x9:0x80009f84 x18:0xfffffbbb
       49225000	      4921	800020d0	40345f93	srai	x31,x8,0x3	  x8:0x800001bc x31=0xf0000037
       49235000	      4922	800020d4	ad2c3a97	auipc	x21,0xad2c3	 x21=0x2d2c50d0
       49245000	      4923	800020d8	00c09eb3	sll	x29,x1,x12	  x1:0xfffffff7 x12:0x00000001 x29=0xffffffee
       49255000	      4924	800020dc	03799c63	bne	x19,x23,80002114	 x19:0xffffff00 x23:0x0002000b
       49265000	      4925	00000000	00000013	addi	x0,x0,0	  x0:0x00000000
       49275000	      4926	80002110	00000013	addi	x0,x0,0	  x0:0x00000000
       49285000	      4927	80002114	013e5933	srl	x18,x28,x19	 x28:0x0000000e x19:0xffffff00 x18=0x0000000e
       49295000	      4928	80002118	41b3db33	sra	x22,x7,x27	  x7:0x00000000 x27:0x00000001 x22=0x00000000
       49305000	      4929	8000211c	011bf833	and	x16,x23,x17	 x23:0x0002000b x17:0x0003ffff x16=0x0002000b
       49315000	      4930	80002120	00000013	addi	x0,x0,0	  x0:0x00000000
       49325000	      4931	80002124	00f8e5b3	or	x11,x17,x15	 x17:0x0003ffff x15:0x00000001 x11=0x0003ffff
       49335000	      4932	80002128	5a8a6a93	ori	x21,x20,1448	 x20:0x8002e0fa x21=0x8002e5fa
       49345000	      4933	8000212c	000acc63	blt	x21,x0,80002144	 x21:0x8002e5fa  x0:0x00000000
       49355000	      4934	00000000	00000013	addi	x0,x0,0	  x0:0x00000000
       49365000	      4935	80002140	00000013	addi	x0,x0,0	  x0:0x00000000
       49375000	      4936	80002144	9057b893	sltiu	x17,x15,-1787	 x15:0x00000001 x17=0x00000001
       49385000	      4937	80002148	01e54bb3	xor	x23,x10,x30	 x10:0x80000000 x30:0x80009fc5 x23=0x00009fc5
       49395000	      4938	8000214c	4113dc13	srai	x24,x7,0x11	  x7:0x00000000 x24=0x00000000
       49405000	      4939	80002150	01bd73b3	and	x7,x26,x27	 x26:0x00000000 x27:0x00000001  x7=0x00000000
       49415000	      4940	80002154	4011d093	srai	x1,x3,0x1	  x3:0xd2ede000  x1=0xe976f000
       49425000	      4941	80002158	19618d93	addi	x27,x3,406	  x3:0xd2ede000 x27=0xd2ede196
       49435000	      4942	8000215c	0187db33	srl	x22,x15,x24	 x15:0x00000001 x24:0x00000000 x22=0x00000001
       49445000	      4943	80002160	e20db713	sltiu	x14,x27,-480	 x27:0xd2ede196 x14=0x00000001
       49455000	      4944	80002164	01caa933	slt	x18,x21,x28	 x21:0x8002e5fa x28:0x0000000e x18=0x00000001
       49465000	      4945	80002168	0076aeb3	slt	x29,x13,x7	 x13:0x00000001  x7:0x00000000 x29=0x00000000
       49475000	      4946	8000216c	ce888893	addi	x17,x17,-792	 x17:0x00000001 x17=0xfffffce9
       49485000	      4947	80002170	03695e63	bge	x18,x22,800021ac	 x18:0x00000001 x22:0x00000001
       49495000	      4948	00000000	00000013	addi	x0,x0,0	  x0:0x00000000
       49505000	      4949	800021a8	00000013	addi	x0,x0,0	  x0:0x00000000
       49515000	      4950	800021ac	491eaa97	auipc	x21,0x491ea	 x21=0xc91ec1a8
       49525000	      4951	800021b0	015fb933	sltu	x18,x31,x21	 x31:0xf0000037 x21:0xc91ec1a8 x18=0x00000000
       49535000	      4952	800021b4	00ecf7b3	and	x15,x25,x14	 x25:0xff0005cf x14:0x00000001 x15=0x00000001
       49545000	      4953	800021b8	2a1c2293	slti	x5,x24,673	 x24:0x00000000  x5=0x00000001
       49555000	      4954	800021bc	07268713	addi	x14,x13,114	 x13:0x00000001 x14=0x00000073
       49565000	      4955	800021c0	0176f0b3	and	x1,x13,x23	 x13:0x00000001 x23:0x00009fc5  x1=0x00000001
       49575000	      4956	800021c4	01340233	add	x4,x8,x19	  x8:0x800001bc x19:0xffffff00  x4=0x800000bc
       49585000	      4957	800021c8	fcc0af13	slti	x30,x1,-52	  x1:0x00000001 x30=0x00000000
       49595000	      4958	800021cc	00c01093	slli	x1,x0,0xc	  x0:0x00000000  x1=0x00000000
       49605000	      4959	800021d0	40c78a93	addi	x21,x15,1036	 x15:0x00000001 x21=0x0000040d
       49615000	      4960	800021d4	0454d263	bge	x9,x5,80002218	  x9:0x80009f84  x5:0x00000001
       49625000	      4961	800021d8	d4d182b7	lui	x5,0xd4d18	  x5=0xd4d18000
       49635000	      4962	800021dc	00ec8d33	add	x26,x25,x14	 x25:0xff0005cf x14:0x00000073 x26=0xff000642
       49645000	      4963	800021e0	41950433	sub	x8,x10,x25	 x10:0x80000000 x25:0xff0005cf  x8=0x80fffa31
       49655000	      4964	800021e4	e370f013	andi	x0,x1,-457	  x1:0x00000000
       49665000	      4965	800021e8	0118c733	xor	x14,x17,x17	 x17:0xfffffce9 x17:0xfffffce9 x14=0x00000000
       49675000	      4966	800021ec	05a4f063	bgeu	x9,x26,8000222c	  x9:0x80009f84 x26:0xff000642
       49685000	      4967	800021f0	003f7863	bgeu	x30,x3,80002200	 x30:0x00000000  x3:0xd2ede000
       49695000	      4968	800021f4	01b08e63	beq	x1,x27,80002210	  x1:0x00000000 x27:0xd2ede196
       49705000	      4969	800021f8	00cede63	bge	x29,x12,80002214	 x29:0x00000000 x12:0x00000001
       49715000	      4970	800021fc	01819cb3	sll	x25,x3,x24	  x3:0xd2ede000 x24:0x00000000 x25=0xd2ede000
       49725000	      4971	80002200	403cd1b3	sra	x3,x25,x3	 x25:0xd2ede000  x3:0xd2ede000  x3=0xd2ede000
       49735000	      4972	80002204	01c6da33	srl	x20,x13,x28	 x13:0x00000001 x28:0x0000000e x20=0x00000000
       49745000	      4973	80002208	0145f1b3	and	x3,x11,x20	 x11:0x0003ffff x20:0x00000000  x3=0x00000000
       49755000	      4974	8000220c	01f3a933	slt	x18,x7,x31	  x7:0x00000000 x31:0xf0000037 x18=0x00000000
       49765000	      4975	80002210	008c8d33	add	x26,x25,x8	 x25:0xd2ede000  x8:0x80fffa31 x26=0x53edda31
       49775000	      4976	80002214	a69cab13	slti	x22,x25,-1431	 x25:0xd2ede000 x22=0x00000001
       49785000	      4977	80002218	25a5c893	xori	x17,x11,602	 x11:0x0003ffff x17=0x0003fda5
       49795000	      4978	8000221c	c159e913	ori	x18,x19,-1003	 x19:0xffffff00 x18=0xffffff15
       49805000	      4979	80002220	96217b93	andi	x23,x2,-1694	  x2:0xfffffe6b x23=0xfffff862
       49815000	      4980	80002224	017eb5b3	sltu	x11,x29,x23	 x29:0x00000000 x23:0xfffff862 x11=0x00000001
       49825000	      4981	80002228	01bffe33	and	x28,x31,x27	 x31:0xf0000037 x27:0xd2ede196 x28=0xd0000016
       49835000	      4982	8000222c	506aba13	sltiu	x20,x21,1286	 x21:0x0000040d x20=0x00000001
       49845000	      4983	80002230	01881663	bne	x16,x24,8000223c	 x16:0x0002000b x24:0x00000000
       49855000	      4984	00000000	00000013	addi	x0,x0,0	  x0:0x00000000
       49865000	      4985	80002238	00000013	addi	x0,x0,0	  x0:0x00000000
       49875000	      4986	8000223c	2573e713	ori	x14,x7,599	  x7:0x00000000 x14=0x00000257
       49885000	      4987	80002240	da48f893	andi	x17,x17,-604	 x17:0x0003fda5 x17=0x0003fda4
       49895000	      4988	80002244	41c180b3	sub	x1,x3,x28	  x3:0x00000000 x28:0xd0000016  x1=0x2fffffea
       49905000	      4989	80002248	008b96b3	sll	x13,x23,x8	 x23:0xfffff862  x8:0x80fffa31 x13=0xf0c40000
       49915000	      4990	8000224c	05c6f063	bgeu	x13,x28,8000228c	 x13:0xf0c40000 x28:0xd0000016
       49925000	      4991	00000000	00000013	addi	x0,x0,0	  x0:0x00000000
       49935000	      4992	80002288	00000013	addi	x0,x0,0	  x0:0x00000000
       49945000	      4993	8000228c	00000013	addi	x0,x0,0	  x0:0x00000000
       49955000	      4994	80002290	2c2d8b13	addi	x22,x27,706	 x27:0xd2ede196 x22=0xd2ede458
       49965000	      4995	80002294	057bd263	bge	x23,x23,800022d8	 x23:0xfffff862 x23:0xfffff862
       49975000	      4996	00000000	00000013	addi	x0,x0,0	  x0:0x00000000
       49985000	      4997	800022d4	00000013	addi	x0,x0,0	  x0:0x00000000
       49995000	      4998	800022d8	de39ce13	xori	x28,x19,-541	 x19:0xffffff00 x28=0x000002e3
       50005000	      4999	800022dc	97432293	slti	x5,x6,-1676	  x6:0x80009fc4  x5=0x00000001
       50015000	      5000	800022e0	41755d33	sra	x26,x10,x23	 x10:0x80000000 x23:0xfffff862 x26=0xe0000000
       50025000	      5001	800022e4	67ecf993	andi	x19,x25,1662	 x25:0xd2ede000 x19=0x00000000
       50035000	      5002	800022e8	ea620793	addi	x15,x4,-346	  x4:0x800000bc x15=0x7fffff62
       50045000	      5003	800022ec	0036c233	xor	x4,x13,x3	 x13:0xf0c40000  x3:0x00000000  x4=0xf0c40000
       50055000	      5004	800022f0	00e51c63	bne	x10,x14,80002308	 x10:0x80000000 x14:0x00000257
       50065000	      5005	00000000	00000013	addi	x0,x0,0	  x0:0x00000000
       50075000	      5006	80002304	00000013	addi	x0,x0,0	  x0:0x00000000
       50085000	      5007	80002308	00bd1813	slli	x16,x26,0xb	 x26:0xe0000000 x16=0x00000000
       50095000	      5008	8000230c	41745233	sra	x4,x8,x23	  x8:0x80fffa31 x23:0xfffff862  x4=0xe03ffe8c
       50105000	      5009	80002310	03ab4c63	blt	x22,x26,80002348	 x22:0xd2ede458 x26:0xe0000000
       50115000	      5010	00000000	00000013	addi	x0,x0,0	  x0:0x00000000
       50125000	      5011	80002344	00000013	addi	x0,x0,0	  x0:0x00000000
       50135000	      5012	80002348	41d18233	sub	x4,x3,x29	  x3:0x00000000 x29:0x00000000  x4=0x00000000
       50145000	      5013	8000234c	4171d793	srai	x15,x3,0x17	  x3:0x00000000 x15=0x00000000
       50155000	      5014	80002350	01dfcc33	xor	x24,x31,x29	 x31:0xf0000037 x29:0x00000000 x24=0xf0000037
       50165000	      5015	80002354	002589b3	add	x19,x11,x2	 x11:0x00000001  x2:0xfffffe6b x19=0xfffffe6c
       50175000	      5016	80002358	40d2dd33	sra	x26,x5,x13	  x5:0x00000001 x13:0xf0c40000 x26=0x00000001
       50185000	      5017	8000235c	002a1663	bne	x20,x2,80002368	 x20:0x00000001  x2:0xfffffe6b
       50195000	      5018	00000000	00000013	addi	x0,x0,0	  x0:0x00000000
       50205000	      5019	80002364	00000013	addi	x0,x0,0	  x0:0x00000000
       50215000	      5020	80002368	03f10663	beq	x2,x31,80002394	  x2:0xfffffe6b x31:0xf0000037
       50225000	      5021	8000236c	043f5863	bge	x30,x3,800023bc	 x30:0x00000000  x3:0x00000000
       50235000	      5022	00000000	00000013	addi	x0,x0,0	  x0:0x00000000
       50245000	      5023	800023b8	00000013	addi	x0,x0,0	  x0:0x00000000
       50255000	      5024	800023bc	007d6eb3	or	x29,x26,x7	 x26:0x00000001  x7:0x00000000 x29=0x00000001
       50265000	      5025	800023c0	015f8263	beq	x31,x21,800023c4	 x31:0xf0000037 x21:0x0000040d
       50275000	      5026	800023c4	01ac06b3	add	x13,x24,x26	 x24:0xf0000037 x26:0x00000001 x13=0xf0000038
       50285000	      5027	800023c8	00000517	auipc	x10,0x0	 x10=0x800023c4
       50295000	      5028	800023cc	00c50513	addi	x10,x10,12	 x10:0x800023c4 x10=0x800023d0
       50305000	      5029	800023d0	00050067	jalr	x0,x10,0	 x10:0x800023d0
       50315000	      5030	00000000	00000013	addi	x0,x0,0	  x0:0x00000000
       50325000	      5031	800023d0	00000013	addi	x0,x0,0	  x0:0x00000000
       50335000	      5032	800023d4	00100193	addi	x3,x0,1	  x0:0x00000000  x3=0x00000001
       50345000	      5033	800023d8	00000073	ecall	
       50355000	      5034	800023dc	ff048493	addi	x9,x9,-16	  x9:0x80009f84  x9=0x80009f74
